 OPOSItemDispenser

 Timestamp is 5d429e54 (Thu Aug  1 17:09:56 2019)

 Preferred load address is 0000000180000000

 Start         Length     Name                   Class
 0001:00000000 00001400H .text$di                CODE
 0001:00001400 000d1530H .text$mn                CODE
 0001:000d2930 00000020H .text$mn$00             CODE
 0001:000d2950 00001360H .text$x                 CODE
 0001:000d3cb0 000001b4H .text$yd                CODE
 0002:00000000 000006d8H .idata$5                DATA
 0002:000006d8 00000010H .00cfg                  DATA
 0002:000006e8 00000008H .CRT$XCA                DATA
 0002:000006f0 00000008H .CRT$XCL                DATA
 0002:000006f8 000000d8H .CRT$XCU                DATA
 0002:000007d0 00000008H .CRT$XCZ                DATA
 0002:000007d8 00000008H .CRT$XIA                DATA
 0002:000007e0 00000020H .CRT$XIC                DATA
 0002:00000800 00000008H .CRT$XIZ                DATA
 0002:00000808 00000008H .CRT$XLA                DATA
 0002:00000810 00000008H .CRT$XLZ                DATA
 0002:00000818 00000008H .CRT$XPA                DATA
 0002:00000820 00000010H .CRT$XPX                DATA
 0002:00000830 00000008H .CRT$XPXA               DATA
 0002:00000838 00000008H .CRT$XPZ                DATA
 0002:00000840 00000008H .CRT$XTA                DATA
 0002:00000848 00000008H .CRT$XTZ                DATA
 0002:00000850 00000000H .gfids$y                DATA
 0002:00000850 0003a938H .rdata                  DATA
 0002:0003b188 00000028H .rdata$T                DATA
 0002:0003b1b0 0000056cH .rdata$r                DATA
 0002:0003b71c 00000434H .rdata$zzzdbg           DATA
 0002:0003bb50 00000008H .rtc$IAA                DATA
 0002:0003bb58 00000030H .rtc$IMZ                DATA
 0002:0003bb88 00000008H .rtc$IZZ                DATA
 0002:0003bb90 00000008H .rtc$TAA                DATA
 0002:0003bb98 00000030H .rtc$TMZ                DATA
 0002:0003bbc8 00000008H .rtc$TZZ                DATA
 0002:0003bbd0 00000004H .tls                    DATA
 0002:0003bbd4 00000004H .tls$                   DATA
 0002:0003bbd8 00000008H .tls$ZZZ                DATA
 0002:0003bbe0 00009608H .xdata                  DATA
 0002:000451e8 00000150H .xdata$x                DATA
 0002:00045338 00000008H ATL$__a                 DATA
 0002:00045340 00000010H ATL$__z                 DATA
 0002:00045350 000000b0H .edata                  DATA
 0002:00045400 00000078H .idata$2                DATA
 0002:00045478 00000018H .idata$3                DATA
 0002:00045490 000006d8H .idata$4                DATA
 0002:00045b68 00000db8H .idata$6                DATA
 0003:00000000 00000e98H .data                   DATA
 0003:00000e98 00000198H .data$r                 DATA
 0003:00001030 00003e9cH .bss                    DATA
 0004:00000000 0000bebcH .pdata                  DATA
 0005:00000000 00000094H _RDATA                  DATA
 0006:00000000 00000220H .rsrc$01                DATA
 0006:00000220 000038d0H .rsrc$02                DATA

  Address         Publics by Value              Rva+Base               Lib:Object

 0000:00000000       __guard_longjmp_table      0000000000000000     <absolute>
 0000:00000000       __guard_iat_table          0000000000000000     <absolute>
 0000:00000000       ___safe_se_handler_table   0000000000000000     <absolute>
 0000:00000000       __volatile_metadata        0000000000000000     <absolute>
 0000:00000000       __AbsoluteZero             0000000000000000     <absolute>
 0000:00000000       __guard_iat_count          0000000000000000     <absolute>
 0000:00000000       __hybrid_code_map          0000000000000000     <absolute>
 0000:00000000       __enclave_config           0000000000000000     <absolute>
 0000:00000000       __hybrid_code_map_count    0000000000000000     <absolute>
 0000:00000000       __hybrid_auxiliary_iat     0000000000000000     <absolute>
 0000:00000000       __guard_fids_table         0000000000000000     <absolute>
 0000:00000000       __guard_longjmp_count      0000000000000000     <absolute>
 0000:00000000       __guard_fids_count         0000000000000000     <absolute>
 0000:00000000       ___safe_se_handler_count   0000000000000000     <absolute>
 0000:00000000       __dynamic_value_reloc_table 0000000000000000     <absolute>
 0000:00000100       __guard_flags              0000000000000100     <absolute>
 0000:00000000       __ImageBase                0000000180000000     <linker-defined>
 0001:00001400       ?_assert@@YAXPEB_W0I@Z     0000000180002400 f   Assert.obj
 0001:00001500       __local_stdio_printf_options 0000000180002500 f i Assert.obj
 0001:00001510       __vswprintf_l              0000000180002510 f i Assert.obj
 0001:00001570       _swprintf                  0000000180002570 f i Assert.obj
 0001:000015f0       _vswprintf_c_l             00000001800025f0 f i Assert.obj
 0001:00001680       _vswprintf_l               0000000180002680 f i Assert.obj
 0001:000016e0       ?cw_memcpy@@YAHPEADPEB_WH@Z 00000001800026e0 f   CWString.obj
 0001:00001770       ?cw_memcpy@@YAHPEA_WPEBDH@Z 0000000180002770 f   CWString.obj
 0001:000017f0       ?cw_memcpy@@YAHPEADPEBDH@Z 00000001800027f0 f   CWString.obj
 0001:00001890       ?cw_memcpy@@YAHPEA_WPEB_WH@Z 0000000180002890 f   CWString.obj
 0001:00001900       ?cw_memset@@YAXPEADDH@Z    0000000180002900 f   CWString.obj
 0001:00001970       ?cw_memset@@YAXPEA_W_WH@Z  0000000180002970 f   CWString.obj
 0001:00001a10       ?cw_strlen@@YAHPEBD@Z      0000000180002a10 f   CWString.obj
 0001:00001a80       ?cw_strlen@@YAHPEB_W@Z     0000000180002a80 f   CWString.obj
 0001:00001af0       ?cw_strcpy@@YAHPEADPEB_W@Z 0000000180002af0 f   CWString.obj
 0001:00001b40       ?cw_strcpy@@YAHPEA_WPEBD@Z 0000000180002b40 f   CWString.obj
 0001:00001b90       ?cw_strcpy@@YAHPEADPEBD@Z  0000000180002b90 f   CWString.obj
 0001:00001be0       ?cw_strcpy@@YAHPEA_WPEB_W@Z 0000000180002be0 f   CWString.obj
 0001:00001c30       ?cw_strcat@@YAHPEADPEB_W@Z 0000000180002c30 f   CWString.obj
 0001:00001c90       ?cw_strcat@@YAHPEA_WPEBD@Z 0000000180002c90 f   CWString.obj
 0001:00001cf0       ?cw_strcat@@YAHPEADPEBD@Z  0000000180002cf0 f   CWString.obj
 0001:00001d50       ?cw_strcat@@YAHPEA_WPEB_W@Z 0000000180002d50 f   CWString.obj
 0001:00001db0       ?cw_dup@@YAXPEBDAEAHAEAPEA_W1@Z 0000000180002db0 f   CWString.obj
 0001:00001ec0       ?cw_dup@@YAXPEB_WAEAHAEAPEAD1@Z 0000000180002ec0 f   CWString.obj
 0001:00001fb0       ?DupChar@_CW@@AEAAXXZ      0000000180002fb0 f   CWString.obj
 0001:00002010       ?DupWide@_CW@@AEAAXXZ      0000000180003010 f   CWString.obj
 0001:00002080       ?GetCharsMbcs@_CW@@QEAAHXZ 0000000180003080 f   CWString.obj
 0001:000020f0       ?GetCharsWide@_CW@@QEAAHXZ 00000001800030f0 f   CWString.obj
 0001:00002160       ?SetVARIANT_BOOL@OposVariant@@QEAAXF@Z 0000000180003160 f   OposVariant.obj
 0001:000021d0       ?SetVARIANT_BOOL_Ptr@OposVariant@@QEAAXPEAFAEAJ@Z 00000001800031d0 f   OposVariant.obj
 0001:00002240       ?GetLONG@OposVariant@@QEAAJXZ 0000000180003240 f   OposVariant.obj
 0001:000022a0       ?ChangeLONG@OposVariant@@QEAAXPEAJAEAJ@Z 00000001800032a0 f   OposVariant.obj
 0001:00002350       ?SetLONG@OposVariant@@QEAAXJ@Z 0000000180003350 f   OposVariant.obj
 0001:000023b0       ?SetLONG_Ptr@OposVariant@@QEAAXPEAJAEAJ@Z 00000001800033b0 f   OposVariant.obj
 0001:00002420       ?ChangeCURRENCY@OposVariant@@QEAAXPEATtagCY@@AEAJ@Z 0000000180003420 f   OposVariant.obj
 0001:000024d0       ?SetCURRENCY@OposVariant@@QEAAXTtagCY@@@Z 00000001800034d0 f   OposVariant.obj
 0001:00002530       ?SetCURRENCY_Ptr@OposVariant@@QEAAXPEATtagCY@@AEAJ@Z 0000000180003530 f   OposVariant.obj
 0001:000025a0       ?ChangeBSTR@OposVariant@@QEAAXPEAPEA_WAEAJ@Z 00000001800035a0 f   OposVariant.obj
 0001:00002650       ?SetBSTR@OposVariant@@QEAAXPEA_WAEAJ@Z 0000000180003650 f   OposVariant.obj
 0001:000026d0       ?SetBSTR_Copy@OposVariant@@QEAAXPEA_WAEAJ@Z 00000001800036d0 f   OposVariant.obj
 0001:00002780       ?SetBSTR_OutPtr@OposVariant@@QEAA_NPEAPEA_WAEAJ@Z 0000000180003780 f   OposVariant.obj
 0001:000027f0       ?SetBSTR_InOutPtr@OposVariant@@QEAA_NPEAPEA_WAEAJ@Z 00000001800037f0 f   OposVariant.obj
 0001:00002870       ?SetVARIANT@OposVariant@@QEAAXAEAUtagVARIANT@@GAEAJ@Z 0000000180003870 f   OposVariant.obj
 0001:00002910       ?SetVARIANT_Ptr@OposVariant@@QEAAXAEAPEAUtagVARIANT@@GAEAJ@Z 0000000180003910 f   OposVariant.obj
 0001:000029c0       ?SetString@OposVariant@@QEAAXPEB_WAEAJ@Z 00000001800039c0 f   OposVariant.obj
 0001:00002a70       ?SetDispatch_Ptr@OposVariant@@QEAAXPEAUIDispatch@@AEAJ@Z 0000000180003a70 f   OposVariant.obj
 0001:00002b00       ??0OposDispParms@@QEAA@PEAVOposVariant@@H@Z 0000000180003b00 f   OposVariant.obj
 0001:00002c10       ??1OposDispParms@@QEAA@XZ  0000000180003c10 f   OposVariant.obj
 0001:00002c60       ??$AtlMultiply@_K@ATL@@YAJPEA_K_K1@Z 0000000180003c60 f i OposVariant.obj
 0001:00002ce0       ??0?$CHeapPtr@_WVCCRTAllocator@ATL@@@ATL@@QEAA@XZ 0000000180003ce0 f i OposVariant.obj
 0001:00002d20       ??0?$CHeapPtrBase@_WVCCRTAllocator@ATL@@@ATL@@IEAA@XZ 0000000180003d20 f i OposVariant.obj
 0001:00002d40       ??0?$CSimpleArray@GV?$CSimpleArrayEqualHelper@G@ATL@@@ATL@@QEAA@XZ 0000000180003d40 f i OposVariant.obj
 0001:00002d80       ??0?$CTraceCategoryEx@$00$0A@@ATL@@QEAA@PEB_W@Z 0000000180003d80 f i OposVariant.obj
 0001:00002dc0       ??0?$CTraceCategoryEx@$01$0A@@ATL@@QEAA@PEB_W@Z 0000000180003dc0 f i OposVariant.obj
 0001:00002e00       ??0?$CTraceCategoryEx@$03$0A@@ATL@@QEAA@PEB_W@Z 0000000180003e00 f i OposVariant.obj
 0001:00002e40       ??0?$CTraceCategoryEx@$07$0A@@ATL@@QEAA@PEB_W@Z 0000000180003e40 f i OposVariant.obj
 0001:00002e80       ??0?$CTraceCategoryEx@$0BA@$0A@@ATL@@QEAA@PEB_W@Z 0000000180003e80 f i OposVariant.obj
 0001:00002ec0       ??0?$CTraceCategoryEx@$0BAA@$0A@@ATL@@QEAA@PEB_W@Z 0000000180003ec0 f i OposVariant.obj
 0001:00002f00       ??0?$CTraceCategoryEx@$0BAAA@$0A@@ATL@@QEAA@PEB_W@Z 0000000180003f00 f i OposVariant.obj
 0001:00002f40       ??0?$CTraceCategoryEx@$0BAAAA@$0A@@ATL@@QEAA@PEB_W@Z 0000000180003f40 f i OposVariant.obj
 0001:00002f80       ??0?$CTraceCategoryEx@$0BAAAAA@$0A@@ATL@@QEAA@PEB_W@Z 0000000180003f80 f i OposVariant.obj
 0001:00002fc0       ??0?$CTraceCategoryEx@$0CA@$0A@@ATL@@QEAA@PEB_W@Z 0000000180003fc0 f i OposVariant.obj
 0001:00003000       ??0?$CTraceCategoryEx@$0CAA@$0A@@ATL@@QEAA@PEB_W@Z 0000000180004000 f i OposVariant.obj
 0001:00003040       ??0?$CTraceCategoryEx@$0CAAA@$0A@@ATL@@QEAA@PEB_W@Z 0000000180004040 f i OposVariant.obj
 0001:00003080       ??0?$CTraceCategoryEx@$0CAAAA@$0A@@ATL@@QEAA@PEB_W@Z 0000000180004080 f i OposVariant.obj
 0001:000030c0       ??0?$CTraceCategoryEx@$0CAAAAA@$0A@@ATL@@QEAA@PEB_W@Z 00000001800040c0 f i OposVariant.obj
 0001:00003100       ??0?$CTraceCategoryEx@$0EA@$0A@@ATL@@QEAA@PEB_W@Z 0000000180004100 f i OposVariant.obj
 0001:00003140       ??0?$CTraceCategoryEx@$0EAA@$0A@@ATL@@QEAA@PEB_W@Z 0000000180004140 f i OposVariant.obj
 0001:00003180       ??0?$CTraceCategoryEx@$0EAAA@$0A@@ATL@@QEAA@PEB_W@Z 0000000180004180 f i OposVariant.obj
 0001:000031c0       ??0?$CTraceCategoryEx@$0EAAAA@$0A@@ATL@@QEAA@PEB_W@Z 00000001800041c0 f i OposVariant.obj
 0001:00003200       ??0?$CTraceCategoryEx@$0EAAAAA@$0A@@ATL@@QEAA@PEB_W@Z 0000000180004200 f i OposVariant.obj
 0001:00003240       ??0?$CTraceCategoryEx@$0IA@$0A@@ATL@@QEAA@PEB_W@Z 0000000180004240 f i OposVariant.obj
 0001:00003280       ??0?$CTraceCategoryEx@$0IAA@$0A@@ATL@@QEAA@PEB_W@Z 0000000180004280 f i OposVariant.obj
 0001:000032c0       ??0?$CTraceCategoryEx@$0IAAA@$0A@@ATL@@QEAA@PEB_W@Z 00000001800042c0 f i OposVariant.obj
 0001:00003300       ??0?$CTraceCategoryEx@$0IAAAA@$0A@@ATL@@QEAA@PEB_W@Z 0000000180004300 f i OposVariant.obj
 0001:00003340       ??0CAtlComModule@ATL@@QEAA@XZ 0000000180004340 f i OposVariant.obj
 0001:00003460       ??0CAtlWinModule@ATL@@QEAA@XZ 0000000180004460 f i OposVariant.obj
 0001:00003510       ??0CComCriticalSection@ATL@@QEAA@XZ 0000000180004510 f i OposVariant.obj
 0001:00003550       ??0CPreserveLastError@ATL@@QEAA@XZ 0000000180004550 f i OposVariant.obj
 0001:00003590       ??0CTraceFileAndLineInfo@ATL@@QEAA@PEBDH@Z 0000000180004590 f i OposVariant.obj
 0001:000035c0       ??0_ATL_COM_MODULE70@ATL@@QEAA@XZ 00000001800045c0 f i OposVariant.obj
 0001:00003600       ??0_ATL_WIN_MODULE70@ATL@@QEAA@XZ 0000000180004600 f i OposVariant.obj
 0001:00003650       ??1?$CHeapPtr@_WVCCRTAllocator@ATL@@@ATL@@QEAA@XZ 0000000180004650 f i OposVariant.obj
 0001:00003680       ??1?$CHeapPtrBase@_WVCCRTAllocator@ATL@@@ATL@@QEAA@XZ 0000000180004680 f i OposVariant.obj
 0001:000036b0       ??1?$CSimpleArray@GV?$CSimpleArrayEqualHelper@G@ATL@@@ATL@@QEAA@XZ 00000001800046b0 f i OposVariant.obj
 0001:000036e0       ??1CAtlComModule@ATL@@QEAA@XZ 00000001800046e0 f i OposVariant.obj
 0001:00003720       ??1CAtlWinModule@ATL@@QEAA@XZ 0000000180004720 f i OposVariant.obj
 0001:00003760       ??1CComBSTR@ATL@@QEAA@XZ   0000000180004760 f i OposVariant.obj
 0001:000037a0       ??1CComCriticalSection@ATL@@QEAA@XZ 00000001800047a0 f i OposVariant.obj
 0001:000037b0       ??1CPreserveLastError@ATL@@QEAA@XZ 00000001800047b0 f i OposVariant.obj
 0001:000037f0       ??1_ATL_COM_MODULE70@ATL@@QEAA@XZ 00000001800047f0 f i OposVariant.obj
 0001:00003830       ??1_ATL_WIN_MODULE70@ATL@@QEAA@XZ 0000000180004830 f i OposVariant.obj
 0001:00003880       ??1stringdispid@CComTypeInfoHolder@ATL@@QEAA@XZ 0000000180004880 f i OposVariant.obj
 0001:000038c0       ??A?$CSimpleArray@GV?$CSimpleArrayEqualHelper@G@ATL@@@ATL@@QEAAAEAGH@Z 00000001800048c0 f i OposVariant.obj
 0001:00003970       ??B?$CHeapPtrBase@_WVCCRTAllocator@ATL@@@ATL@@QEBAPEA_WXZ 0000000180004970 f i OposVariant.obj
 0001:00003980       ??B?$CTraceCategoryEx@$01$0A@@ATL@@QEAAIXZ 0000000180004980 f i OposVariant.obj
 0001:00003990       ??B?$CTraceCategoryEx@$0CA@$0A@@ATL@@QEAAIXZ 0000000180004990 f i OposVariant.obj
 0001:000039a0       ??RCTraceFileAndLineInfo@ATL@@QEBAXHIPEB_WZZ 00000001800049a0 f i OposVariant.obj
 0001:00003a50       ??_Estringdispid@CComTypeInfoHolder@ATL@@QEAAPEAXI@Z 0000000180004a50 f i OposVariant.obj
 0001:00003b00       ??_H@YAXPEAX_K1P6APEAX0@Z@Z 0000000180004b00 f i OposVariant.obj
 0001:00003b90       ??_I@YAXPEAX_K1P6AX0@Z@Z   0000000180004b90 f i OposVariant.obj
 0001:00003c40       ?Allocate@?$CHeapPtr@_WVCCRTAllocator@ATL@@@ATL@@QEAA_N_K@Z 0000000180004c40 f i OposVariant.obj
 0001:00003cc0       ?Allocate@CCRTAllocator@ATL@@SAPEAX_K@Z 0000000180004cc0 f i OposVariant.obj
 0001:00003cf0       ?AllocateBytes@?$CHeapPtrBase@_WVCCRTAllocator@ATL@@@ATL@@QEAA_N_K@Z 0000000180004cf0 f i OposVariant.obj
 0001:00003d90       ?AtlWinModuleInit@ATL@@YAJPEAU_ATL_WIN_MODULE70@1@@Z 0000000180004d90 f i OposVariant.obj
 0001:00003e90       ?AtlWinModuleTerm@ATL@@YAJPEAU_ATL_WIN_MODULE70@1@PEAUHINSTANCE__@@@Z 0000000180004e90 f i OposVariant.obj
 0001:00003f80       ?Clear@OposVariant@@QEAAJXZ 0000000180004f80 f i OposVariant.obj
 0001:00003fc0       ?Free@?$CHeapPtrBase@_WVCCRTAllocator@ATL@@@ATL@@QEAAXXZ 0000000180004fc0 f i OposVariant.obj
 0001:00004000       ?Free@CCRTAllocator@ATL@@SAXPEAX@Z 0000000180005000 f i OposVariant.obj
 0001:00004030       ?GetCategoryName@CTrace@ATL@@CAPEA_WI@Z 0000000180005030 f i OposVariant.obj
 0001:000040b0       ?GetModuleInstance@CAtlBaseModule@ATL@@QEAAPEAUHINSTANCE__@@XZ 00000001800050b0 f i OposVariant.obj
 0001:000040d0       ?GetSize@?$CSimpleArray@GV?$CSimpleArrayEqualHelper@G@ATL@@@ATL@@QEBAHXZ 00000001800050d0 f i OposVariant.obj
 0001:000040e0       ?Init@CComCriticalSection@ATL@@QEAAJXZ 00000001800050e0 f i OposVariant.obj
 0001:00004140       ?RegisterCategory@CTrace@ATL@@SAXPEB_WI@Z 0000000180005140 f i OposVariant.obj
 0001:00004220       ?RemoveAll@?$CSimpleArray@GV?$CSimpleArrayEqualHelper@G@ATL@@@ATL@@QEAAXXZ 0000000180005220 f i OposVariant.obj
 0001:000042b0       ?Term@CAtlComModule@ATL@@QEAAXXZ 00000001800052b0 f i OposVariant.obj
 0001:00004390       ?Term@CAtlWinModule@ATL@@QEAAXXZ 0000000180005390 f i OposVariant.obj
 0001:000043d0       ?Term@CComCriticalSection@ATL@@QEAAJXZ 00000001800053d0 f i OposVariant.obj
 0001:00004410       ?TraceV@CTrace@ATL@@CAXPEBDHIIPEB_W@Z 0000000180005410 f i OposVariant.obj
 0001:000046c0       ?TraceV@CTrace@ATL@@SAXPEBDHIIPEB_WPEAD@Z 00000001800056c0 f i OposVariant.obj
 0001:00004870       ?_AtlInitializeCriticalSectionEx@ATL@@YAHPEAU_RTL_CRITICAL_SECTION@@KK@Z 0000000180005870 f i OposVariant.obj
 0001:000048c0       ?_AtlRaiseException@ATL@@YAXKK@Z 00000001800058c0 f i OposVariant.obj
 0001:00004900       HRESULT_FROM_WIN32         0000000180005900 f i OposVariant.obj
 0001:00004950       _vswprintf_s_l             0000000180005950 f i OposVariant.obj
 0001:000049e0       swprintf_s                 00000001800059e0 f i OposVariant.obj
 0001:00004a70       ?GetObjectDescription@?$CComCoClass@VCOPOSItemDispenser@@$1?CLSID_OPOSItemDispenser@@3U_GUID@@B@ATL@@SAPEB_WXZ 0000000180005a70 f i ItemDispenser.obj
 0001:00004a80       ?UpdateRegistry@COPOSItemDispenser@@SAJH@Z 0000000180005a80 f i ItemDispenser.obj
 0001:00004ac0       ?CreateInstance@?$CComCreator@V?$CComObjectCached@VCComClassFactory@ATL@@@ATL@@@ATL@@SAJPEAXAEBU_GUID@@PEAPEAX@Z 0000000180005ac0 f i ItemDispenser.obj
 0001:00004cb0       ?CreateInstance@?$CComCreator2@V?$CComCreator@V?$CComObject@VCOPOSItemDispenser@@@ATL@@@ATL@@V?$CComCreator@V?$CComAggObject@VCOPOSItemDispenser@@@ATL@@@2@@ATL@@SAJPEAXAEBU_GUID@@PEAPEAX@Z 0000000180005cb0 f i ItemDispenser.obj
 0001:00004d60       ?ObjectMain@CComObjectRootBase@ATL@@SAX_N@Z 0000000180005d60 f i ItemDispenser.obj
 0001:00004d70       ?GetCategoryMap@CComObjectRootBase@ATL@@SAPEBU_ATL_CATMAP_ENTRY@2@XZ 0000000180005d70 f i ItemDispenser.obj
 0001:00004ee0       DllGetClassObject          0000000180005ee0 f   ItemDispenser.obj
 0001:00004f30       DllCanUnloadNow            0000000180005f30 f   ItemDispenser.obj
 0001:00004f80       DllRegisterServer          0000000180005f80 f   ItemDispenser.obj
 0001:00004fc0       DllUnregisterServer        0000000180005fc0 f   ItemDispenser.obj
 0001:000051c0       DllMain                    00000001800061c0 f   ItemDispenser.obj
 0001:00005240       ??$?2G@Wrapper@?$CSimpleArray@GV?$CSimpleArrayEqualHelper@G@ATL@@@ATL@@SAPEAX_KPEAG@Z 0000000180006240 f i ItemDispenser.obj
 0001:00005260       ??$?2PEA_W@?$Wrapper@PEA_W@?$CSimpleMap@PEA_WPEA_WVCExpansionVectorEqualHelper@ATL@@@ATL@@SAPEAX_KPEAPEA_W@Z 0000000180006260 f i ItemDispenser.obj
 0001:00005280       ??$?4UITypeInfo2@@@?$CComPtr@UITypeInfo@@@ATL@@QEAAPEAUITypeInfo@@AEBV?$CComPtr@UITypeInfo2@@@1@@Z 0000000180006280 f i ItemDispenser.obj
 0001:000052f0       ??$AtlAdd@_K@ATL@@YAJPEA_K_K1@Z 00000001800062f0 f i ItemDispenser.obj
 0001:00005360       ??$AtlAddThrow@_K@ATL@@YA_K_K0@Z 0000000180006360 f i ItemDispenser.obj
 0001:000053d0       ??$AtlModuleRegisterWndClassInfoT@VAtlModuleRegisterWndClassInfoParamW@ATL@@@ATL@@YAGPEAU_ATL_BASE_MODULE70@0@PEAU_ATL_WIN_MODULE70@0@PEAU_ATL_WNDCLASSINFOW@0@PEAP6A_JPEAUHWND__@@I_K_J@ZVAtlModuleRegisterWndClassInfoParamW@0@@Z 00000001800063d0 f i ItemDispenser.obj
 0001:000059a0       ??$AtlMultiply@H@ATL@@YAJPEAHHH@Z 00000001800069a0 f i ItemDispenser.obj
 0001:00005a10       ??$AtlMultiply@K@ATL@@YAJPEAKKK@Z 0000000180006a10 f i ItemDispenser.obj
 0001:00005a80       ??$AtlMultiplyThrow@_K@ATL@@YA_K_K0@Z 0000000180006a80 f i ItemDispenser.obj
 0001:00005af0       ??$QueryInterface@UIPersistStream@@@IUnknown@@QEAAJPEAPEAUIPersistStream@@@Z 0000000180006af0 f i ItemDispenser.obj
 0001:00005b40       ??$QueryInterface@UITypeInfo2@@@IUnknown@@QEAAJPEAPEAUITypeInfo2@@@Z 0000000180006b40 f i ItemDispenser.obj
 0001:00005b90       ??0?$CAtlModuleT@VCComModule@ATL@@@ATL@@QEAA@XZ 0000000180006b90 f i ItemDispenser.obj
 0001:00005bd0       ??0?$CAtlSafeAllocBufferManager@VCCRTAllocator@ATL@@@_ATL_SAFE_ALLOCA_IMPL@ATL@@QEAA@XZ 0000000180006bd0 f i ItemDispenser.obj
 0001:00005bf0       ??0?$CAutoVectorPtr@_W@ATL@@QEAA@XZ 0000000180006bf0 f i ItemDispenser.obj
 0001:00005c10       ??0?$CComAggObject@VCOPOSItemDispenser@@@ATL@@QEAA@PEAX@Z 0000000180006c10 f i ItemDispenser.obj
 0001:00005ca0       ??0?$CComContainedObject@VCOPOSItemDispenser@@@ATL@@QEAA@PEAX@Z 0000000180006ca0 f i ItemDispenser.obj
 0001:00005e40       ??0?$CComCritSecLock@VCComCriticalSection@ATL@@@ATL@@QEAA@AEAVCComCriticalSection@1@_N@Z 0000000180006e40 f i ItemDispenser.obj
 0001:00005eb0       ??0?$CComEnum@UIEnumConnectionPoints@@$1?_GUID_b196b285_bab4_101a_b69c_00aa00341d07@@3U__s_GUID@@BPEAUIConnectionPoint@@V?$_CopyInterface@UIConnectionPoint@@@ATL@@VCComSingleThreadModel@6@@ATL@@QEAA@XZ 0000000180006eb0 f i ItemDispenser.obj
 0001:00005f00       ??0?$CComEnum@UIEnumConnections@@$1?_GUID_b196b287_bab4_101a_b69c_00aa00341d07@@3U__s_GUID@@BUtagCONNECTDATA@@V?$_Copy@UtagCONNECTDATA@@@ATL@@VCComSingleThreadModel@6@@ATL@@QEAA@XZ 0000000180006f00 f i ItemDispenser.obj
 0001:00005f50       ??0?$CComEnumImpl@UIEnumConnectionPoints@@$1?_GUID_b196b285_bab4_101a_b69c_00aa00341d07@@3U__s_GUID@@BPEAUIConnectionPoint@@V?$_CopyInterface@UIConnectionPoint@@@ATL@@@ATL@@QEAA@XZ 0000000180006f50 f i ItemDispenser.obj
 0001:00005fd0       ??0?$CComEnumImpl@UIEnumConnections@@$1?_GUID_b196b287_bab4_101a_b69c_00aa00341d07@@3U__s_GUID@@BUtagCONNECTDATA@@V?$_Copy@UtagCONNECTDATA@@@ATL@@@ATL@@QEAA@XZ 0000000180006fd0 f i ItemDispenser.obj
 0001:00006050       ??0?$CComObject@V?$CComEnum@UIEnumConnectionPoints@@$1?_GUID_b196b285_bab4_101a_b69c_00aa00341d07@@3U__s_GUID@@BPEAUIConnectionPoint@@V?$_CopyInterface@UIConnectionPoint@@@ATL@@VCComSingleThreadModel@6@@ATL@@@ATL@@QEAA@PEAX@Z 0000000180007050 f i ItemDispenser.obj
 0001:000060b0       ??0?$CComObject@V?$CComEnum@UIEnumConnections@@$1?_GUID_b196b287_bab4_101a_b69c_00aa00341d07@@3U__s_GUID@@BUtagCONNECTDATA@@V?$_Copy@UtagCONNECTDATA@@@ATL@@VCComSingleThreadModel@6@@ATL@@@ATL@@QEAA@PEAX@Z 00000001800070b0 f i ItemDispenser.obj
 0001:00006110       ??0?$CComObject@VCOPOSItemDispenser@@@ATL@@QEAA@PEAX@Z 0000000180007110 f i ItemDispenser.obj
 0001:000062b0       ??0?$CComObjectCached@VCComClassFactory@ATL@@@ATL@@QEAA@PEAX@Z 00000001800072b0 f i ItemDispenser.obj
 0001:00006300       ??0?$CComObjectRootEx@VCComMultiThreadModel@ATL@@@ATL@@QEAA@XZ 0000000180007300 f i ItemDispenser.obj
 0001:00006350       ??0?$CComObjectRootEx@VCComSingleThreadModel@ATL@@@ATL@@QEAA@XZ 0000000180007350 f i ItemDispenser.obj
 0001:00006390       ??0?$CComPtr@UIAdviseSink@@@ATL@@QEAA@PEAUIAdviseSink@@@Z 0000000180007390 f i ItemDispenser.obj
 0001:000063d0       ??0?$CComPtr@UICatRegister@@@ATL@@QEAA@XZ 00000001800073d0 f i ItemDispenser.obj
 0001:00006410       ??0?$CComPtr@UIConnectionPoint@@@ATL@@QEAA@XZ 0000000180007410 f i ItemDispenser.obj
 0001:00006450       ??0?$CComPtr@UIConnectionPointContainer@@@ATL@@QEAA@XZ 0000000180007450 f i ItemDispenser.obj
 0001:00006490       ??0?$CComPtr@UIDataObject@@@ATL@@QEAA@XZ 0000000180007490 f i ItemDispenser.obj
 0001:000064d0       ??0?$CComPtr@UIDispatch@@@ATL@@QEAA@XZ 00000001800074d0 f i ItemDispenser.obj
 0001:00006510       ??0?$CComPtr@UIOleClientSite@@@ATL@@QEAA@PEAUIOleClientSite@@@Z 0000000180007510 f i ItemDispenser.obj
 0001:00006550       ??0?$CComPtr@UIOleControlSite@@@ATL@@QEAA@XZ 0000000180007550 f i ItemDispenser.obj
 0001:00006590       ??0?$CComPtr@UIOleInPlaceActiveObject@@@ATL@@QEAA@XZ 0000000180007590 f i ItemDispenser.obj
 0001:000065d0       ??0?$CComPtr@UIOleInPlaceFrame@@@ATL@@QEAA@XZ 00000001800075d0 f i ItemDispenser.obj
 0001:00006610       ??0?$CComPtr@UIOleInPlaceObject@@@ATL@@QEAA@XZ 0000000180007610 f i ItemDispenser.obj
 0001:00006650       ??0?$CComPtr@UIOleInPlaceUIWindow@@@ATL@@QEAA@XZ 0000000180007650 f i ItemDispenser.obj
 0001:00006690       ??0?$CComPtr@UIOleObject@@@ATL@@QEAA@XZ 0000000180007690 f i ItemDispenser.obj
 0001:000066d0       ??0?$CComPtr@UIPersistStream@@@ATL@@QEAA@XZ 00000001800076d0 f i ItemDispenser.obj
 0001:00006710       ??0?$CComPtr@UIPersistStreamInit@@@ATL@@QEAA@XZ 0000000180007710 f i ItemDispenser.obj
 0001:00006750       ??0?$CComPtr@UIPointerInactive@@@ATL@@QEAA@XZ 0000000180007750 f i ItemDispenser.obj
 0001:00006790       ??0?$CComPtr@UIProvideClassInfo2@@@ATL@@QEAA@XZ 0000000180007790 f i ItemDispenser.obj
 0001:000067d0       ??0?$CComPtr@UISpecifyPropertyPages@@@ATL@@QEAA@XZ 00000001800077d0 f i ItemDispenser.obj
 0001:00006810       ??0?$CComPtr@UIStream@@@ATL@@QEAA@XZ 0000000180007810 f i ItemDispenser.obj
 0001:00006850       ??0?$CComPtr@UITypeInfo2@@@ATL@@QEAA@XZ 0000000180007850 f i ItemDispenser.obj
 0001:00006890       ??0?$CComPtr@UITypeInfo@@@ATL@@QEAA@AEBV01@@Z 0000000180007890 f i ItemDispenser.obj
 0001:000068d0       ??0?$CComPtr@UITypeInfo@@@ATL@@QEAA@XZ 00000001800078d0 f i ItemDispenser.obj
 0001:00006910       ??0?$CComPtr@UITypeLib@@@ATL@@QEAA@XZ 0000000180007910 f i ItemDispenser.obj
 0001:00006950       ??0?$CComPtr@UIUnknown@@@ATL@@QEAA@AEBV01@@Z 0000000180007950 f i ItemDispenser.obj
 0001:00006990       ??0?$CComPtr@UIUnknown@@@ATL@@QEAA@PEAUIUnknown@@@Z 0000000180007990 f i ItemDispenser.obj
 0001:000069d0       ??0?$CComPtr@UIUnknown@@@ATL@@QEAA@XZ 00000001800079d0 f i ItemDispenser.obj
 0001:00006a10       ??0?$CComPtr@UIViewObjectEx@@@ATL@@QEAA@XZ 0000000180007a10 f i ItemDispenser.obj
 0001:00006a50       ??0?$CComPtrBase@UIAdviseSink@@@ATL@@IEAA@PEAUIAdviseSink@@@Z 0000000180007a50 f i ItemDispenser.obj
 0001:00006ab0       ??0?$CComPtrBase@UICatRegister@@@ATL@@IEAA@XZ 0000000180007ab0 f i ItemDispenser.obj
 0001:00006ad0       ??0?$CComPtrBase@UIConnectionPoint@@@ATL@@IEAA@XZ 0000000180007ad0 f i ItemDispenser.obj
 0001:00006af0       ??0?$CComPtrBase@UIConnectionPointContainer@@@ATL@@IEAA@XZ 0000000180007af0 f i ItemDispenser.obj
 0001:00006b10       ??0?$CComPtrBase@UIDataObject@@@ATL@@IEAA@XZ 0000000180007b10 f i ItemDispenser.obj
 0001:00006b30       ??0?$CComPtrBase@UIDispatch@@@ATL@@IEAA@XZ 0000000180007b30 f i ItemDispenser.obj
 0001:00006b50       ??0?$CComPtrBase@UIOleClientSite@@@ATL@@IEAA@PEAUIOleClientSite@@@Z 0000000180007b50 f i ItemDispenser.obj
 0001:00006bb0       ??0?$CComPtrBase@UIOleControlSite@@@ATL@@IEAA@XZ 0000000180007bb0 f i ItemDispenser.obj
 0001:00006bd0       ??0?$CComPtrBase@UIOleInPlaceActiveObject@@@ATL@@IEAA@XZ 0000000180007bd0 f i ItemDispenser.obj
 0001:00006bf0       ??0?$CComPtrBase@UIOleInPlaceFrame@@@ATL@@IEAA@XZ 0000000180007bf0 f i ItemDispenser.obj
 0001:00006c10       ??0?$CComPtrBase@UIOleInPlaceObject@@@ATL@@IEAA@XZ 0000000180007c10 f i ItemDispenser.obj
 0001:00006c30       ??0?$CComPtrBase@UIOleInPlaceUIWindow@@@ATL@@IEAA@XZ 0000000180007c30 f i ItemDispenser.obj
 0001:00006c50       ??0?$CComPtrBase@UIOleObject@@@ATL@@IEAA@XZ 0000000180007c50 f i ItemDispenser.obj
 0001:00006c70       ??0?$CComPtrBase@UIPersistStream@@@ATL@@IEAA@XZ 0000000180007c70 f i ItemDispenser.obj
 0001:00006c90       ??0?$CComPtrBase@UIPersistStreamInit@@@ATL@@IEAA@XZ 0000000180007c90 f i ItemDispenser.obj
 0001:00006cb0       ??0?$CComPtrBase@UIPointerInactive@@@ATL@@IEAA@XZ 0000000180007cb0 f i ItemDispenser.obj
 0001:00006cd0       ??0?$CComPtrBase@UIProvideClassInfo2@@@ATL@@IEAA@XZ 0000000180007cd0 f i ItemDispenser.obj
 0001:00006cf0       ??0?$CComPtrBase@UISpecifyPropertyPages@@@ATL@@IEAA@XZ 0000000180007cf0 f i ItemDispenser.obj
 0001:00006d10       ??0?$CComPtrBase@UIStream@@@ATL@@IEAA@XZ 0000000180007d10 f i ItemDispenser.obj
 0001:00006d30       ??0?$CComPtrBase@UITypeInfo2@@@ATL@@IEAA@XZ 0000000180007d30 f i ItemDispenser.obj
 0001:00006d50       ??0?$CComPtrBase@UITypeInfo@@@ATL@@IEAA@PEAUITypeInfo@@@Z 0000000180007d50 f i ItemDispenser.obj
 0001:00006db0       ??0?$CComPtrBase@UITypeInfo@@@ATL@@IEAA@XZ 0000000180007db0 f i ItemDispenser.obj
 0001:00006dd0       ??0?$CComPtrBase@UITypeLib@@@ATL@@IEAA@XZ 0000000180007dd0 f i ItemDispenser.obj
 0001:00006df0       ??0?$CComPtrBase@UIUnknown@@@ATL@@IEAA@PEAUIUnknown@@@Z 0000000180007df0 f i ItemDispenser.obj
 0001:00006e50       ??0?$CComPtrBase@UIUnknown@@@ATL@@IEAA@XZ 0000000180007e50 f i ItemDispenser.obj
 0001:00006e70       ??0?$CComPtrBase@UIViewObjectEx@@@ATL@@IEAA@XZ 0000000180007e70 f i ItemDispenser.obj
 0001:00006e90       ??0?$CComQIPtr@UIOleControlSite@@$1?_GUID_b196b289_bab4_101a_b69c_00aa00341d07@@3U__s_GUID@@B@ATL@@QEAA@PEAUIUnknown@@@Z 0000000180007e90 f i ItemDispenser.obj
 0001:00006f00       ??0?$CComQIPtr@UIOleObject@@$1?_GUID_00000112_0000_0000_c000_000000000046@@3U__s_GUID@@B@ATL@@QEAA@XZ 0000000180007f00 f i ItemDispenser.obj
 0001:00006f40       ??0?$CComQIPtr@UISpecifyPropertyPages@@$1?_GUID_b196b28b_bab4_101a_b69c_00aa00341d07@@3U__s_GUID@@B@ATL@@QEAA@XZ 0000000180007f40 f i ItemDispenser.obj
 0001:00006f80       ??0?$CSimpleMap@PEA_WPEA_WVCExpansionVectorEqualHelper@ATL@@@ATL@@QEAA@XZ 0000000180007f80 f i ItemDispenser.obj
 0001:00006fc0       ??0?$CTempBuffer@E$0BAA@VCCRTAllocator@ATL@@@ATL@@QEAA@XZ 0000000180007fc0 f i ItemDispenser.obj
 0001:00006fe0       ??0?$CTempBuffer@_W$0BAA@VCCRTAllocator@ATL@@@ATL@@QEAA@XZ 0000000180007fe0 f i ItemDispenser.obj
 0001:00007000       ??0?$CTempBuffer@_W$0EAA@VCCRTAllocator@ATL@@@ATL@@QEAA@XZ 0000000180008000 f i ItemDispenser.obj
 0001:00007020       ??0?$Wrapper@PEA_W@?$CSimpleMap@PEA_WPEA_WVCExpansionVectorEqualHelper@ATL@@@ATL@@QEAA@AEBQEA_W@Z 0000000180008020 f i ItemDispenser.obj
 0001:00007050       ??0CAtlModule@ATL@@QEAA@XZ 0000000180008050 f i ItemDispenser.obj
 0001:000071c0       ??0CComAutoDeleteCriticalSection@ATL@@QEAA@XZ 00000001800081c0 f i ItemDispenser.obj
 0001:00007200       ??0CComBSTR@ATL@@QEAA@XZ   0000000180008200 f i ItemDispenser.obj
 0001:00007220       ??0CComClassFactory@ATL@@QEAA@XZ 0000000180008220 f i ItemDispenser.obj
 0001:00007280       ??0CComModule@ATL@@QEAA@XZ 0000000180008280 f i ItemDispenser.obj
 0001:00007320       ??0CComObjectRootBase@ATL@@QEAA@XZ 0000000180008320 f i ItemDispenser.obj
 0001:00007340       ??0CComSafeDeleteCriticalSection@ATL@@QEAA@XZ 0000000180008340 f i ItemDispenser.obj
 0001:00007380       ??0CComVariant@ATL@@QEAA@XZ 0000000180008380 f i ItemDispenser.obj
 0001:000073d0       ??0CExpansionVector@ATL@@QEAA@XZ 00000001800083d0 f i ItemDispenser.obj
 0001:00007410       ??0CParseBuffer@CRegParser@ATL@@QEAA@H@Z 0000000180008410 f i ItemDispenser.obj
 0001:000074a0       ??0CRegKey@ATL@@QEAA@PEAUHKEY__@@@Z 00000001800084a0 f i ItemDispenser.obj
 0001:000074e0       ??0CRegKey@ATL@@QEAA@PEAVCAtlTransactionManager@1@@Z 00000001800084e0 f i ItemDispenser.obj
 0001:00007520       ??0CRegObject@ATL@@QEAA@XZ 0000000180008520 f i ItemDispenser.obj
 0001:00007580       ??0CRegParser@ATL@@QEAA@PEAVCRegObject@1@@Z 0000000180008580 f i ItemDispenser.obj
 0001:000075b0       ??0IClassFactory@@QEAA@XZ  00000001800085b0 f i ItemDispenser.obj
 0001:000075f0       ??0IEnumConnectionPoints@@QEAA@XZ 00000001800085f0 f i ItemDispenser.obj
 0001:00007630       ??0IEnumConnections@@QEAA@XZ 0000000180008630 f i ItemDispenser.obj
 0001:00007670       ??0IRegistrarBase@@QEAA@XZ 0000000180008670 f i ItemDispenser.obj
 0001:000076b0       ??0IUnknown@@QEAA@XZ       00000001800086b0 f i ItemDispenser.obj
 0001:000076c0       ??0ModuleLockHelper@ATL@@QEAA@XZ 00000001800086c0 f i ItemDispenser.obj
 0001:00007700       ??0OposVariant@@QEAA@XZ    0000000180008700 f i ItemDispenser.obj
 0001:00007720       ??0Wrapper@?$CSimpleArray@GV?$CSimpleArrayEqualHelper@G@ATL@@@ATL@@QEAA@AEBG@Z 0000000180008720 f i ItemDispenser.obj
 0001:00007750       ??0_ATL_MODULE70@ATL@@QEAA@XZ 0000000180008750 f i ItemDispenser.obj
 0001:00007790       ??0_ATL_MSG@ATL@@QEAA@PEAUHWND__@@I_K_JH@Z 0000000180008790 f i ItemDispenser.obj
 0001:00007820       ??0_U_MENUorID@ATL@@QEAA@I@Z 0000000180008820 f i ItemDispenser.obj
 0001:00007840       ??0_U_RECT@ATL@@QEAA@AEAUtagRECT@@@Z 0000000180008840 f i ItemDispenser.obj
 0001:00007860       ??0stringdispid@CComTypeInfoHolder@ATL@@QEAA@XZ 0000000180008860 f i ItemDispenser.obj
 0001:000078b0       ??1?$CAtlModuleT@VCComModule@ATL@@@ATL@@UEAA@XZ 00000001800088b0 f i ItemDispenser.obj
 0001:000078e0       ??1?$CAtlSafeAllocBufferManager@VCCRTAllocator@ATL@@@_ATL_SAFE_ALLOCA_IMPL@ATL@@QEAA@XZ 00000001800088e0 f i ItemDispenser.obj
 0001:00007940       ??1?$CAutoVectorPtr@_W@ATL@@QEAA@XZ 0000000180008940 f i ItemDispenser.obj
 0001:00007970       ??1?$CComAggObject@VCOPOSItemDispenser@@@ATL@@UEAA@XZ 0000000180008970 f i ItemDispenser.obj
 0001:000079f0       ??1?$CComContainedObject@VCOPOSItemDispenser@@@ATL@@UEAA@XZ 00000001800089f0 f i ItemDispenser.obj
 0001:00007a20       ??1?$CComCritSecLock@VCComCriticalSection@ATL@@@ATL@@QEAA@XZ 0000000180008a20 f i ItemDispenser.obj
 0001:00007a60       ??1?$CComEnum@UIEnumConnectionPoints@@$1?_GUID_b196b285_bab4_101a_b69c_00aa00341d07@@3U__s_GUID@@BPEAUIConnectionPoint@@V?$_CopyInterface@UIConnectionPoint@@@ATL@@VCComSingleThreadModel@6@@ATL@@UEAA@XZ 0000000180008a60 f i ItemDispenser.obj
 0001:00007aa0       ??1?$CComEnum@UIEnumConnections@@$1?_GUID_b196b287_bab4_101a_b69c_00aa00341d07@@3U__s_GUID@@BUtagCONNECTDATA@@V?$_Copy@UtagCONNECTDATA@@@ATL@@VCComSingleThreadModel@6@@ATL@@UEAA@XZ 0000000180008aa0 f i ItemDispenser.obj
 0001:00007ae0       ??1?$CComEnumImpl@UIEnumConnectionPoints@@$1?_GUID_b196b285_bab4_101a_b69c_00aa00341d07@@3U__s_GUID@@BPEAUIConnectionPoint@@V?$_CopyInterface@UIConnectionPoint@@@ATL@@@ATL@@UEAA@XZ 0000000180008ae0 f i ItemDispenser.obj
 0001:00007b80       ??1?$CComEnumImpl@UIEnumConnections@@$1?_GUID_b196b287_bab4_101a_b69c_00aa00341d07@@3U__s_GUID@@BUtagCONNECTDATA@@V?$_Copy@UtagCONNECTDATA@@@ATL@@@ATL@@UEAA@XZ 0000000180008b80 f i ItemDispenser.obj
 0001:00007c20       ??1?$CComObject@V?$CComEnum@UIEnumConnectionPoints@@$1?_GUID_b196b285_bab4_101a_b69c_00aa00341d07@@3U__s_GUID@@BPEAUIConnectionPoint@@V?$_CopyInterface@UIConnectionPoint@@@ATL@@VCComSingleThreadModel@6@@ATL@@@ATL@@UEAA@XZ 0000000180008c20 f i ItemDispenser.obj
 0001:00007c90       ??1?$CComObject@V?$CComEnum@UIEnumConnections@@$1?_GUID_b196b287_bab4_101a_b69c_00aa00341d07@@3U__s_GUID@@BUtagCONNECTDATA@@V?$_Copy@UtagCONNECTDATA@@@ATL@@VCComSingleThreadModel@6@@ATL@@@ATL@@UEAA@XZ 0000000180008c90 f i ItemDispenser.obj
 0001:00007d00       ??1?$CComObject@VCOPOSItemDispenser@@@ATL@@UEAA@XZ 0000000180008d00 f i ItemDispenser.obj
 0001:00007eb0       ??1?$CComObjectCached@VCComClassFactory@ATL@@@ATL@@UEAA@XZ 0000000180008eb0 f i ItemDispenser.obj
 0001:00007f10       ??1?$CComObjectRootEx@VCComMultiThreadModel@ATL@@@ATL@@QEAA@XZ 0000000180008f10 f i ItemDispenser.obj
 0001:00007f50       ??1?$CComObjectRootEx@VCComSingleThreadModel@ATL@@@ATL@@QEAA@XZ 0000000180008f50 f i ItemDispenser.obj
 0001:00007f80       ??1?$CComPtr@UIAdviseSink@@@ATL@@QEAA@XZ 0000000180008f80 f i ItemDispenser.obj
 0001:00007fb0       ??1?$CComPtr@UICatRegister@@@ATL@@QEAA@XZ 0000000180008fb0 f i ItemDispenser.obj
 0001:00007fe0       ??1?$CComPtr@UIConnectionPoint@@@ATL@@QEAA@XZ 0000000180008fe0 f i ItemDispenser.obj
 0001:00008010       ??1?$CComPtr@UIConnectionPointContainer@@@ATL@@QEAA@XZ 0000000180009010 f i ItemDispenser.obj
 0001:00008040       ??1?$CComPtr@UIDataObject@@@ATL@@QEAA@XZ 0000000180009040 f i ItemDispenser.obj
 0001:00008070       ??1?$CComPtr@UIDispatch@@@ATL@@QEAA@XZ 0000000180009070 f i ItemDispenser.obj
 0001:000080a0       ??1?$CComPtr@UIOleClientSite@@@ATL@@QEAA@XZ 00000001800090a0 f i ItemDispenser.obj
 0001:000080d0       ??1?$CComPtr@UIOleControlSite@@@ATL@@QEAA@XZ 00000001800090d0 f i ItemDispenser.obj
 0001:00008100       ??1?$CComPtr@UIOleInPlaceActiveObject@@@ATL@@QEAA@XZ 0000000180009100 f i ItemDispenser.obj
 0001:00008130       ??1?$CComPtr@UIOleInPlaceFrame@@@ATL@@QEAA@XZ 0000000180009130 f i ItemDispenser.obj
 0001:00008160       ??1?$CComPtr@UIOleInPlaceObject@@@ATL@@QEAA@XZ 0000000180009160 f i ItemDispenser.obj
 0001:00008190       ??1?$CComPtr@UIOleInPlaceUIWindow@@@ATL@@QEAA@XZ 0000000180009190 f i ItemDispenser.obj
 0001:000081c0       ??1?$CComPtr@UIOleObject@@@ATL@@QEAA@XZ 00000001800091c0 f i ItemDispenser.obj
 0001:000081f0       ??1?$CComPtr@UIPersistStream@@@ATL@@QEAA@XZ 00000001800091f0 f i ItemDispenser.obj
 0001:00008220       ??1?$CComPtr@UIPersistStreamInit@@@ATL@@QEAA@XZ 0000000180009220 f i ItemDispenser.obj
 0001:00008250       ??1?$CComPtr@UIPointerInactive@@@ATL@@QEAA@XZ 0000000180009250 f i ItemDispenser.obj
 0001:00008280       ??1?$CComPtr@UIProvideClassInfo2@@@ATL@@QEAA@XZ 0000000180009280 f i ItemDispenser.obj
 0001:000082b0       ??1?$CComPtr@UISpecifyPropertyPages@@@ATL@@QEAA@XZ 00000001800092b0 f i ItemDispenser.obj
 0001:000082e0       ??1?$CComPtr@UIStream@@@ATL@@QEAA@XZ 00000001800092e0 f i ItemDispenser.obj
 0001:00008310       ??1?$CComPtr@UITypeInfo2@@@ATL@@QEAA@XZ 0000000180009310 f i ItemDispenser.obj
 0001:00008340       ??1?$CComPtr@UITypeInfo@@@ATL@@QEAA@XZ 0000000180009340 f i ItemDispenser.obj
 0001:00008370       ??1?$CComPtr@UITypeLib@@@ATL@@QEAA@XZ 0000000180009370 f i ItemDispenser.obj
 0001:000083a0       ??1?$CComPtr@UIUnknown@@@ATL@@QEAA@XZ 00000001800093a0 f i ItemDispenser.obj
 0001:000083d0       ??1?$CComPtr@UIViewObjectEx@@@ATL@@QEAA@XZ 00000001800093d0 f i ItemDispenser.obj
 0001:00008400       ??1?$CComPtrBase@UIAdviseSink@@@ATL@@QEAA@XZ 0000000180009400 f i ItemDispenser.obj
 0001:00008450       ??1?$CComPtrBase@UICatRegister@@@ATL@@QEAA@XZ 0000000180009450 f i ItemDispenser.obj
 0001:000084a0       ??1?$CComPtrBase@UIConnectionPoint@@@ATL@@QEAA@XZ 00000001800094a0 f i ItemDispenser.obj
 0001:000084f0       ??1?$CComPtrBase@UIConnectionPointContainer@@@ATL@@QEAA@XZ 00000001800094f0 f i ItemDispenser.obj
 0001:00008540       ??1?$CComPtrBase@UIDataObject@@@ATL@@QEAA@XZ 0000000180009540 f i ItemDispenser.obj
 0001:00008590       ??1?$CComPtrBase@UIDispatch@@@ATL@@QEAA@XZ 0000000180009590 f i ItemDispenser.obj
 0001:000085e0       ??1?$CComPtrBase@UIOleClientSite@@@ATL@@QEAA@XZ 00000001800095e0 f i ItemDispenser.obj
 0001:00008630       ??1?$CComPtrBase@UIOleControlSite@@@ATL@@QEAA@XZ 0000000180009630 f i ItemDispenser.obj
 0001:00008680       ??1?$CComPtrBase@UIOleInPlaceActiveObject@@@ATL@@QEAA@XZ 0000000180009680 f i ItemDispenser.obj
 0001:000086d0       ??1?$CComPtrBase@UIOleInPlaceFrame@@@ATL@@QEAA@XZ 00000001800096d0 f i ItemDispenser.obj
 0001:00008720       ??1?$CComPtrBase@UIOleInPlaceObject@@@ATL@@QEAA@XZ 0000000180009720 f i ItemDispenser.obj
 0001:00008770       ??1?$CComPtrBase@UIOleInPlaceUIWindow@@@ATL@@QEAA@XZ 0000000180009770 f i ItemDispenser.obj
 0001:000087c0       ??1?$CComPtrBase@UIOleObject@@@ATL@@QEAA@XZ 00000001800097c0 f i ItemDispenser.obj
 0001:00008810       ??1?$CComPtrBase@UIPersistStream@@@ATL@@QEAA@XZ 0000000180009810 f i ItemDispenser.obj
 0001:00008860       ??1?$CComPtrBase@UIPersistStreamInit@@@ATL@@QEAA@XZ 0000000180009860 f i ItemDispenser.obj
 0001:000088b0       ??1?$CComPtrBase@UIPointerInactive@@@ATL@@QEAA@XZ 00000001800098b0 f i ItemDispenser.obj
 0001:00008900       ??1?$CComPtrBase@UIProvideClassInfo2@@@ATL@@QEAA@XZ 0000000180009900 f i ItemDispenser.obj
 0001:00008950       ??1?$CComPtrBase@UISpecifyPropertyPages@@@ATL@@QEAA@XZ 0000000180009950 f i ItemDispenser.obj
 0001:000089a0       ??1?$CComPtrBase@UIStream@@@ATL@@QEAA@XZ 00000001800099a0 f i ItemDispenser.obj
 0001:000089f0       ??1?$CComPtrBase@UITypeInfo2@@@ATL@@QEAA@XZ 00000001800099f0 f i ItemDispenser.obj
 0001:00008a40       ??1?$CComPtrBase@UITypeInfo@@@ATL@@QEAA@XZ 0000000180009a40 f i ItemDispenser.obj
 0001:00008a90       ??1?$CComPtrBase@UITypeLib@@@ATL@@QEAA@XZ 0000000180009a90 f i ItemDispenser.obj
 0001:00008ae0       ??1?$CComPtrBase@UIUnknown@@@ATL@@QEAA@XZ 0000000180009ae0 f i ItemDispenser.obj
 0001:00008b30       ??1?$CComPtrBase@UIViewObjectEx@@@ATL@@QEAA@XZ 0000000180009b30 f i ItemDispenser.obj
 0001:00008b80       ??1?$CComQIPtr@UIOleControlSite@@$1?_GUID_b196b289_bab4_101a_b69c_00aa00341d07@@3U__s_GUID@@B@ATL@@QEAA@XZ 0000000180009b80 f i ItemDispenser.obj
 0001:00008bb0       ??1?$CComQIPtr@UIOleObject@@$1?_GUID_00000112_0000_0000_c000_000000000046@@3U__s_GUID@@B@ATL@@QEAA@XZ 0000000180009bb0 f i ItemDispenser.obj
 0001:00008be0       ??1?$CComQIPtr@UISpecifyPropertyPages@@$1?_GUID_b196b28b_bab4_101a_b69c_00aa00341d07@@3U__s_GUID@@B@ATL@@QEAA@XZ 0000000180009be0 f i ItemDispenser.obj
 0001:00008c10       ??1?$CSimpleMap@PEA_WPEA_WVCExpansionVectorEqualHelper@ATL@@@ATL@@QEAA@XZ 0000000180009c10 f i ItemDispenser.obj
 0001:00008c40       ??1?$CTempBuffer@E$0BAA@VCCRTAllocator@ATL@@@ATL@@QEAA@XZ 0000000180009c40 f i ItemDispenser.obj
 0001:00008c90       ??1?$CTempBuffer@_W$0BAA@VCCRTAllocator@ATL@@@ATL@@QEAA@XZ 0000000180009c90 f i ItemDispenser.obj
 0001:00008ce0       ??1?$CTempBuffer@_W$0EAA@VCCRTAllocator@ATL@@@ATL@@QEAA@XZ 0000000180009ce0 f i ItemDispenser.obj
 0001:00008d30       ??1CAtlModule@ATL@@UEAA@XZ 0000000180009d30 f i ItemDispenser.obj
 0001:00008d70       ??1CComAutoDeleteCriticalSection@ATL@@QEAA@XZ 0000000180009d70 f i ItemDispenser.obj
 0001:00008da0       ??1CComClassFactory@ATL@@UEAA@XZ 0000000180009da0 f i ItemDispenser.obj
 0001:00008df0       ??1CComModule@ATL@@UEAA@XZ 0000000180009df0 f i ItemDispenser.obj
 0001:00008e30       ??1CComObjectRootBase@ATL@@QEAA@XZ 0000000180009e30 f i ItemDispenser.obj
 0001:00008e40       ??1CComSafeDeleteCriticalSection@ATL@@QEAA@XZ 0000000180009e40 f i ItemDispenser.obj
 0001:00008e90       ??1CComVariant@ATL@@QEAA@XZ 0000000180009e90 f i ItemDispenser.obj
 0001:00008f10       ??1CExpansionVector@ATL@@QEAA@XZ 0000000180009f10 f i ItemDispenser.obj
 0001:00008f50       ??1CParseBuffer@CRegParser@ATL@@QEAA@XZ 0000000180009f50 f i ItemDispenser.obj
 0001:00008f90       ??1CRegKey@ATL@@QEAA@XZ    0000000180009f90 f i ItemDispenser.obj
 0001:00008fc0       ??1CRegObject@ATL@@UEAA@XZ 0000000180009fc0 f i ItemDispenser.obj
 0001:00009010       ??1ModuleLockHelper@ATL@@QEAA@XZ 000000018000a010 f i ItemDispenser.obj
 0001:00009050       ??1OposVariant@@QEAA@XZ    000000018000a050 f i ItemDispenser.obj
 0001:00009090       ??1_ATL_MODULE70@ATL@@QEAA@XZ 000000018000a090 f i ItemDispenser.obj
 0001:000090d0       ??4?$CComPtr@UIAdviseSink@@@ATL@@QEAAPEAUIAdviseSink@@PEAU2@@Z 000000018000a0d0 f i ItemDispenser.obj
 0001:00009140       ??4?$CComPtr@UIOleClientSite@@@ATL@@QEAAPEAUIOleClientSite@@PEAU2@@Z 000000018000a140 f i ItemDispenser.obj
 0001:000091b0       ??4?$CComPtr@UIUnknown@@@ATL@@QEAAPEAUIUnknown@@PEAU2@@Z 000000018000a1b0 f i ItemDispenser.obj
 0001:00009220       ??4?$CComQIPtr@UIOleObject@@$1?_GUID_00000112_0000_0000_c000_000000000046@@3U__s_GUID@@B@ATL@@QEAAPEAUIOleObject@@PEAUIUnknown@@@Z 000000018000a220 f i ItemDispenser.obj
 0001:00009280       ??4?$CComQIPtr@UISpecifyPropertyPages@@$1?_GUID_b196b28b_bab4_101a_b69c_00aa00341d07@@3U__s_GUID@@B@ATL@@QEAAPEAUISpecifyPropertyPages@@PEAUIUnknown@@@Z 000000018000a280 f i ItemDispenser.obj
 0001:000092e0       ??7?$CComPtrBase@UIOleClientSite@@@ATL@@QEBA_NXZ 000000018000a2e0 f i ItemDispenser.obj
 0001:00009330       ??7?$CComPtrBase@UIOleInPlaceSiteWindowless@@@ATL@@QEBA_NXZ 000000018000a330 f i ItemDispenser.obj
 0001:00009380       ??7CComBSTR@ATL@@QEBA_NXZ  000000018000a380 f i ItemDispenser.obj
 0001:000093d0       ??8?$CComPtrBase@UIAdviseSink@@@ATL@@QEBA_NPEAUIAdviseSink@@@Z 000000018000a3d0 f i ItemDispenser.obj
 0001:00009420       ??8?$CComPtrBase@UIConnectionPointContainer@@@ATL@@QEBA_NPEAUIConnectionPointContainer@@@Z 000000018000a420 f i ItemDispenser.obj
 0001:00009470       ??8?$CComPtrBase@UIDataAdviseHolder@@@ATL@@QEBA_NPEAUIDataAdviseHolder@@@Z 000000018000a470 f i ItemDispenser.obj
 0001:000094c0       ??8?$CComPtrBase@UIOleAdviseHolder@@@ATL@@QEBA_NPEAUIOleAdviseHolder@@@Z 000000018000a4c0 f i ItemDispenser.obj
 0001:00009510       ??8?$CComPtrBase@UIOleClientSite@@@ATL@@QEBA_NPEAUIOleClientSite@@@Z 000000018000a510 f i ItemDispenser.obj
 0001:00009560       ??8?$CComPtrBase@UIOleControlSite@@@ATL@@QEBA_NPEAUIOleControlSite@@@Z 000000018000a560 f i ItemDispenser.obj
 0001:000095b0       ??8?$CComPtrBase@UIOleInPlaceObject@@@ATL@@QEBA_NPEAUIOleInPlaceObject@@@Z 000000018000a5b0 f i ItemDispenser.obj
 0001:00009600       ??8?$CComPtrBase@UIOleInPlaceSiteWindowless@@@ATL@@QEBA_NPEAUIOleInPlaceSiteWindowless@@@Z 000000018000a600 f i ItemDispenser.obj
 0001:00009650       ??8?$CComPtrBase@UIOleObject@@@ATL@@QEBA_NPEAUIOleObject@@@Z 000000018000a650 f i ItemDispenser.obj
 0001:000096a0       ??8?$CComPtrBase@UIPersistStream@@@ATL@@QEBA_NPEAUIPersistStream@@@Z 000000018000a6a0 f i ItemDispenser.obj
 0001:000096f0       ??8?$CComPtrBase@UIPersistStreamInit@@@ATL@@QEBA_NPEAUIPersistStreamInit@@@Z 000000018000a6f0 f i ItemDispenser.obj
 0001:00009740       ??8?$CComPtrBase@UIPointerInactive@@@ATL@@QEBA_NPEAUIPointerInactive@@@Z 000000018000a740 f i ItemDispenser.obj
 0001:00009790       ??8?$CComPtrBase@UIUnknown@@@ATL@@QEBA_NPEAUIUnknown@@@Z 000000018000a790 f i ItemDispenser.obj
 0001:000097e0       ??8?$CComPtrBase@UIViewObjectEx@@@ATL@@QEBA_NPEAUIViewObjectEx@@@Z 000000018000a7e0 f i ItemDispenser.obj
 0001:00009830       ??8CComBSTR@ATL@@QEBA_NH@Z 000000018000a830 f i ItemDispenser.obj
 0001:000098b0       ??9?$CComPtrBase@UIAdviseSink@@@ATL@@QEBA_NPEAUIAdviseSink@@@Z 000000018000a8b0 f i ItemDispenser.obj
 0001:00009910       ??9?$CComPtrBase@UIConnectionPointContainer@@@ATL@@QEBA_NPEAUIConnectionPointContainer@@@Z 000000018000a910 f i ItemDispenser.obj
 0001:00009970       ??9?$CComPtrBase@UIDataAdviseHolder@@@ATL@@QEBA_NPEAUIDataAdviseHolder@@@Z 000000018000a970 f i ItemDispenser.obj
 0001:000099d0       ??9?$CComPtrBase@UIOleAdviseHolder@@@ATL@@QEBA_NPEAUIOleAdviseHolder@@@Z 000000018000a9d0 f i ItemDispenser.obj
 0001:00009a30       ??9?$CComPtrBase@UIOleClientSite@@@ATL@@QEBA_NPEAUIOleClientSite@@@Z 000000018000aa30 f i ItemDispenser.obj
 0001:00009a90       ??9?$CComPtrBase@UIOleControlSite@@@ATL@@QEBA_NPEAUIOleControlSite@@@Z 000000018000aa90 f i ItemDispenser.obj
 0001:00009af0       ??9?$CComPtrBase@UIOleInPlaceObject@@@ATL@@QEBA_NPEAUIOleInPlaceObject@@@Z 000000018000aaf0 f i ItemDispenser.obj
 0001:00009b50       ??9?$CComPtrBase@UIOleInPlaceSiteWindowless@@@ATL@@QEBA_NPEAUIOleInPlaceSiteWindowless@@@Z 000000018000ab50 f i ItemDispenser.obj
 0001:00009bb0       ??9?$CComPtrBase@UIOleObject@@@ATL@@QEBA_NPEAUIOleObject@@@Z 000000018000abb0 f i ItemDispenser.obj
 0001:00009c10       ??9?$CComPtrBase@UIPersistStream@@@ATL@@QEBA_NPEAUIPersistStream@@@Z 000000018000ac10 f i ItemDispenser.obj
 0001:00009c70       ??9?$CComPtrBase@UIPersistStreamInit@@@ATL@@QEBA_NPEAUIPersistStreamInit@@@Z 000000018000ac70 f i ItemDispenser.obj
 0001:00009cd0       ??9?$CComPtrBase@UIPointerInactive@@@ATL@@QEBA_NPEAUIPointerInactive@@@Z 000000018000acd0 f i ItemDispenser.obj
 0001:00009d30       ??9?$CComPtrBase@UIUnknown@@@ATL@@QEBA_NPEAUIUnknown@@@Z 000000018000ad30 f i ItemDispenser.obj
 0001:00009d90       ??9?$CComPtrBase@UIViewObjectEx@@@ATL@@QEBA_NPEAUIViewObjectEx@@@Z 000000018000ad90 f i ItemDispenser.obj
 0001:00009df0       ??9CComBSTR@ATL@@QEBA_NH@Z 000000018000adf0 f i ItemDispenser.obj
 0001:00009e50       ??B?$CComPtrBase@UIAdviseSink@@@ATL@@QEBAPEAUIAdviseSink@@XZ 000000018000ae50 f i ItemDispenser.obj
 0001:00009e60       ??B?$CComPtrBase@UIDataAdviseHolder@@@ATL@@QEBAPEAUIDataAdviseHolder@@XZ 000000018000ae60 f i ItemDispenser.obj
 0001:00009e70       ??B?$CComPtrBase@UIDataObject@@@ATL@@QEBAPEAUIDataObject@@XZ 000000018000ae70 f i ItemDispenser.obj
 0001:00009e80       ??B?$CComPtrBase@UIOleAdviseHolder@@@ATL@@QEBAPEAUIOleAdviseHolder@@XZ 000000018000ae80 f i ItemDispenser.obj
 0001:00009e90       ??B?$CComPtrBase@UIOleClientSite@@@ATL@@QEBAPEAUIOleClientSite@@XZ 000000018000ae90 f i ItemDispenser.obj
 0001:00009ea0       ??B?$CComPtrBase@UIOleControlSite@@@ATL@@QEBAPEAUIOleControlSite@@XZ 000000018000aea0 f i ItemDispenser.obj
 0001:00009eb0       ??B?$CComPtrBase@UIOleInPlaceActiveObject@@@ATL@@QEBAPEAUIOleInPlaceActiveObject@@XZ 000000018000aeb0 f i ItemDispenser.obj
 0001:00009ec0       ??B?$CComPtrBase@UIOleInPlaceFrame@@@ATL@@QEBAPEAUIOleInPlaceFrame@@XZ 000000018000aec0 f i ItemDispenser.obj
 0001:00009ed0       ??B?$CComPtrBase@UIOleInPlaceSiteWindowless@@@ATL@@QEBAPEAUIOleInPlaceSiteWindowless@@XZ 000000018000aed0 f i ItemDispenser.obj
 0001:00009ee0       ??B?$CComPtrBase@UIOleInPlaceUIWindow@@@ATL@@QEBAPEAUIOleInPlaceUIWindow@@XZ 000000018000aee0 f i ItemDispenser.obj
 0001:00009ef0       ??B?$CComPtrBase@UIOleObject@@@ATL@@QEBAPEAUIOleObject@@XZ 000000018000aef0 f i ItemDispenser.obj
 0001:00009f00       ??B?$CComPtrBase@UIPersistStream@@@ATL@@QEBAPEAUIPersistStream@@XZ 000000018000af00 f i ItemDispenser.obj
 0001:00009f10       ??B?$CComPtrBase@UIProvideClassInfo2@@@ATL@@QEBAPEAUIProvideClassInfo2@@XZ 000000018000af10 f i ItemDispenser.obj
 0001:00009f20       ??B?$CComPtrBase@UISpecifyPropertyPages@@@ATL@@QEBAPEAUISpecifyPropertyPages@@XZ 000000018000af20 f i ItemDispenser.obj
 0001:00009f30       ??B?$CComPtrBase@UIStream@@@ATL@@QEBAPEAUIStream@@XZ 000000018000af30 f i ItemDispenser.obj
 0001:00009f40       ??B?$CComPtrBase@UITypeInfo2@@@ATL@@QEBAPEAUITypeInfo2@@XZ 000000018000af40 f i ItemDispenser.obj
 0001:00009f50       ??B?$CComPtrBase@UITypeInfo@@@ATL@@QEBAPEAUITypeInfo@@XZ 000000018000af50 f i ItemDispenser.obj
 0001:00009f60       ??B?$CComPtrBase@UITypeLib@@@ATL@@QEBAPEAUITypeLib@@XZ 000000018000af60 f i ItemDispenser.obj
 0001:00009f70       ??B?$CComPtrBase@UIUnknown@@@ATL@@QEBAPEAUIUnknown@@XZ 000000018000af70 f i ItemDispenser.obj
 0001:00009f80       ??B?$CTempBuffer@E$0BAA@VCCRTAllocator@ATL@@@ATL@@QEBAPEAEXZ 000000018000af80 f i ItemDispenser.obj
 0001:00009f90       ??B?$CTempBuffer@_W$0BAA@VCCRTAllocator@ATL@@@ATL@@QEBAPEA_WXZ 000000018000af90 f i ItemDispenser.obj
 0001:00009fa0       ??B?$CTempBuffer@_W$0EAA@VCCRTAllocator@ATL@@@ATL@@QEBAPEA_WXZ 000000018000afa0 f i ItemDispenser.obj
 0001:00009fb0       ??B?$CTraceCategoryEx@$00$0A@@ATL@@QEAAIXZ 000000018000afb0 f i ItemDispenser.obj
 0001:00009fc0       ??B?$CTraceCategoryEx@$07$0A@@ATL@@QEAAIXZ 000000018000afc0 f i ItemDispenser.obj
 0001:00009fd0       ??B?$CTraceCategoryEx@$0CAAA@$0A@@ATL@@QEAAIXZ 000000018000afd0 f i ItemDispenser.obj
 0001:00009fe0       ??B?$CTraceCategoryEx@$0EA@$0A@@ATL@@QEAAIXZ 000000018000afe0 f i ItemDispenser.obj
 0001:00009ff0       ??B?$CTraceCategoryEx@$0IAA@$0A@@ATL@@QEAAIXZ 000000018000aff0 f i ItemDispenser.obj
 0001:0000a000       ??BCComBSTR@ATL@@QEBAPEA_WXZ 000000018000b000 f i ItemDispenser.obj
 0001:0000a010       ??BCRegKey@ATL@@QEBAPEAUHKEY__@@XZ 000000018000b010 f i ItemDispenser.obj
 0001:0000a020       ??C?$CComPtrBase@UIAdviseSink@@@ATL@@QEBAPEAV?$_NoAddRefReleaseOnCComPtr@UIAdviseSink@@@1@XZ 000000018000b020 f i ItemDispenser.obj
 0001:0000a0a0       ??C?$CComPtrBase@UICatRegister@@@ATL@@QEBAPEAV?$_NoAddRefReleaseOnCComPtr@UICatRegister@@@1@XZ 000000018000b0a0 f i ItemDispenser.obj
 0001:0000a120       ??C?$CComPtrBase@UIConnectionPoint@@@ATL@@QEBAPEAV?$_NoAddRefReleaseOnCComPtr@UIConnectionPoint@@@1@XZ 000000018000b120 f i ItemDispenser.obj
 0001:0000a1a0       ??C?$CComPtrBase@UIConnectionPointContainer@@@ATL@@QEBAPEAV?$_NoAddRefReleaseOnCComPtr@UIConnectionPointContainer@@@1@XZ 000000018000b1a0 f i ItemDispenser.obj
 0001:0000a220       ??C?$CComPtrBase@UIDataAdviseHolder@@@ATL@@QEBAPEAV?$_NoAddRefReleaseOnCComPtr@UIDataAdviseHolder@@@1@XZ 000000018000b220 f i ItemDispenser.obj
 0001:0000a2a0       ??C?$CComPtrBase@UIOleAdviseHolder@@@ATL@@QEBAPEAV?$_NoAddRefReleaseOnCComPtr@UIOleAdviseHolder@@@1@XZ 000000018000b2a0 f i ItemDispenser.obj
 0001:0000a320       ??C?$CComPtrBase@UIOleClientSite@@@ATL@@QEBAPEAV?$_NoAddRefReleaseOnCComPtr@UIOleClientSite@@@1@XZ 000000018000b320 f i ItemDispenser.obj
 0001:0000a3a0       ??C?$CComPtrBase@UIOleControlSite@@@ATL@@QEBAPEAV?$_NoAddRefReleaseOnCComPtr@UIOleControlSite@@@1@XZ 000000018000b3a0 f i ItemDispenser.obj
 0001:0000a420       ??C?$CComPtrBase@UIOleInPlaceFrame@@@ATL@@QEBAPEAV?$_NoAddRefReleaseOnCComPtr@UIOleInPlaceFrame@@@1@XZ 000000018000b420 f i ItemDispenser.obj
 0001:0000a4a0       ??C?$CComPtrBase@UIOleInPlaceObject@@@ATL@@QEBAPEAV?$_NoAddRefReleaseOnCComPtr@UIOleInPlaceObject@@@1@XZ 000000018000b4a0 f i ItemDispenser.obj
 0001:0000a520       ??C?$CComPtrBase@UIOleInPlaceSiteWindowless@@@ATL@@QEBAPEAV?$_NoAddRefReleaseOnCComPtr@UIOleInPlaceSiteWindowless@@@1@XZ 000000018000b520 f i ItemDispenser.obj
 0001:0000a5a0       ??C?$CComPtrBase@UIOleInPlaceUIWindow@@@ATL@@QEBAPEAV?$_NoAddRefReleaseOnCComPtr@UIOleInPlaceUIWindow@@@1@XZ 000000018000b5a0 f i ItemDispenser.obj
 0001:0000a620       ??C?$CComPtrBase@UIOleObject@@@ATL@@QEBAPEAV?$_NoAddRefReleaseOnCComPtr@UIOleObject@@@1@XZ 000000018000b620 f i ItemDispenser.obj
 0001:0000a6a0       ??C?$CComPtrBase@UIPersistStream@@@ATL@@QEBAPEAV?$_NoAddRefReleaseOnCComPtr@UIPersistStream@@@1@XZ 000000018000b6a0 f i ItemDispenser.obj
 0001:0000a720       ??C?$CComPtrBase@UIPersistStreamInit@@@ATL@@QEBAPEAV?$_NoAddRefReleaseOnCComPtr@UIPersistStreamInit@@@1@XZ 000000018000b720 f i ItemDispenser.obj
 0001:0000a7a0       ??C?$CComPtrBase@UIPointerInactive@@@ATL@@QEBAPEAV?$_NoAddRefReleaseOnCComPtr@UIPointerInactive@@@1@XZ 000000018000b7a0 f i ItemDispenser.obj
 0001:0000a820       ??C?$CComPtrBase@UIProvideClassInfo2@@@ATL@@QEBAPEAV?$_NoAddRefReleaseOnCComPtr@UIProvideClassInfo2@@@1@XZ 000000018000b820 f i ItemDispenser.obj
 0001:0000a8a0       ??C?$CComPtrBase@UISpecifyPropertyPages@@@ATL@@QEBAPEAV?$_NoAddRefReleaseOnCComPtr@UISpecifyPropertyPages@@@1@XZ 000000018000b8a0 f i ItemDispenser.obj
 0001:0000a920       ??C?$CComPtrBase@UITypeInfo@@@ATL@@QEBAPEAV?$_NoAddRefReleaseOnCComPtr@UITypeInfo@@@1@XZ 000000018000b920 f i ItemDispenser.obj
 0001:0000a9a0       ??C?$CComPtrBase@UITypeLib@@@ATL@@QEBAPEAV?$_NoAddRefReleaseOnCComPtr@UITypeLib@@@1@XZ 000000018000b9a0 f i ItemDispenser.obj
 0001:0000aa20       ??C?$CComPtrBase@UIUnknown@@@ATL@@QEBAPEAV?$_NoAddRefReleaseOnCComPtr@UIUnknown@@@1@XZ 000000018000ba20 f i ItemDispenser.obj
 0001:0000aaa0       ??C?$CComPtrBase@UIViewObjectEx@@@ATL@@QEBAPEAV?$_NoAddRefReleaseOnCComPtr@UIViewObjectEx@@@1@XZ 000000018000baa0 f i ItemDispenser.obj
 0001:0000ab20       ??I?$CComPtrBase@UICatRegister@@@ATL@@QEAAPEAPEAUICatRegister@@XZ 000000018000bb20 f i ItemDispenser.obj
 0001:0000ab90       ??I?$CComPtrBase@UIConnectionPoint@@@ATL@@QEAAPEAPEAUIConnectionPoint@@XZ 000000018000bb90 f i ItemDispenser.obj
 0001:0000ac00       ??I?$CComPtrBase@UIConnectionPointContainer@@@ATL@@QEAAPEAPEAUIConnectionPointContainer@@XZ 000000018000bc00 f i ItemDispenser.obj
 0001:0000ac70       ??I?$CComPtrBase@UIDataAdviseHolder@@@ATL@@QEAAPEAPEAUIDataAdviseHolder@@XZ 000000018000bc70 f i ItemDispenser.obj
 0001:0000ace0       ??I?$CComPtrBase@UIDataObject@@@ATL@@QEAAPEAPEAUIDataObject@@XZ 000000018000bce0 f i ItemDispenser.obj
 0001:0000ad50       ??I?$CComPtrBase@UIDispatch@@@ATL@@QEAAPEAPEAUIDispatch@@XZ 000000018000bd50 f i ItemDispenser.obj
 0001:0000adc0       ??I?$CComPtrBase@UIOleAdviseHolder@@@ATL@@QEAAPEAPEAUIOleAdviseHolder@@XZ 000000018000bdc0 f i ItemDispenser.obj
 0001:0000ae30       ??I?$CComPtrBase@UIOleControlSite@@@ATL@@QEAAPEAPEAUIOleControlSite@@XZ 000000018000be30 f i ItemDispenser.obj
 0001:0000aea0       ??I?$CComPtrBase@UIOleInPlaceActiveObject@@@ATL@@QEAAPEAPEAUIOleInPlaceActiveObject@@XZ 000000018000bea0 f i ItemDispenser.obj
 0001:0000af10       ??I?$CComPtrBase@UIOleInPlaceFrame@@@ATL@@QEAAPEAPEAUIOleInPlaceFrame@@XZ 000000018000bf10 f i ItemDispenser.obj
 0001:0000af80       ??I?$CComPtrBase@UIOleInPlaceObject@@@ATL@@QEAAPEAPEAUIOleInPlaceObject@@XZ 000000018000bf80 f i ItemDispenser.obj
 0001:0000aff0       ??I?$CComPtrBase@UIOleInPlaceSiteWindowless@@@ATL@@QEAAPEAPEAUIOleInPlaceSiteWindowless@@XZ 000000018000bff0 f i ItemDispenser.obj
 0001:0000b060       ??I?$CComPtrBase@UIOleInPlaceUIWindow@@@ATL@@QEAAPEAPEAUIOleInPlaceUIWindow@@XZ 000000018000c060 f i ItemDispenser.obj
 0001:0000b0d0       ??I?$CComPtrBase@UIOleObject@@@ATL@@QEAAPEAPEAUIOleObject@@XZ 000000018000c0d0 f i ItemDispenser.obj
 0001:0000b140       ??I?$CComPtrBase@UIPersistStream@@@ATL@@QEAAPEAPEAUIPersistStream@@XZ 000000018000c140 f i ItemDispenser.obj
 0001:0000b1b0       ??I?$CComPtrBase@UIPointerInactive@@@ATL@@QEAAPEAPEAUIPointerInactive@@XZ 000000018000c1b0 f i ItemDispenser.obj
 0001:0000b220       ??I?$CComPtrBase@UIProvideClassInfo2@@@ATL@@QEAAPEAPEAUIProvideClassInfo2@@XZ 000000018000c220 f i ItemDispenser.obj
 0001:0000b290       ??I?$CComPtrBase@UIStream@@@ATL@@QEAAPEAPEAUIStream@@XZ 000000018000c290 f i ItemDispenser.obj
 0001:0000b300       ??I?$CComPtrBase@UITypeInfo2@@@ATL@@QEAAPEAPEAUITypeInfo2@@XZ 000000018000c300 f i ItemDispenser.obj
 0001:0000b370       ??I?$CComPtrBase@UITypeInfo@@@ATL@@QEAAPEAPEAUITypeInfo@@XZ 000000018000c370 f i ItemDispenser.obj
 0001:0000b3e0       ??I?$CComPtrBase@UITypeLib@@@ATL@@QEAAPEAPEAUITypeLib@@XZ 000000018000c3e0 f i ItemDispenser.obj
 0001:0000b450       ??I?$CComPtrBase@UIUnknown@@@ATL@@QEAAPEAPEAUIUnknown@@XZ 000000018000c450 f i ItemDispenser.obj
 0001:0000b4c0       ??I?$CComPtrBase@UIViewObjectEx@@@ATL@@QEAAPEAPEAUIViewObjectEx@@XZ 000000018000c4c0 f i ItemDispenser.obj
 0001:0000b530       ??ICComBSTR@ATL@@QEAAPEAPEA_WXZ 000000018000c530 f i ItemDispenser.obj
 0001:0000b540       ??_E?$CComContainedObject@VCOPOSItemDispenser@@@ATL@@W7EAAPEAXI@Z 000000018000c540 f i ItemDispenser.obj
 0001:0000b54c       ??_E?$CComContainedObject@VCOPOSItemDispenser@@@ATL@@WHA@EAAPEAXI@Z 000000018000c54c f i ItemDispenser.obj
 0001:0000b558       ??_E?$CComObject@VCOPOSItemDispenser@@@ATL@@W7EAAPEAXI@Z 000000018000c558 f i ItemDispenser.obj
 0001:0000b564       ??_E?$CComObject@VCOPOSItemDispenser@@@ATL@@WHA@EAAPEAXI@Z 000000018000c564 f i ItemDispenser.obj
 0001:0000b570       ??_G?$CComAggObject@VCOPOSItemDispenser@@@ATL@@UEAAPEAXI@Z 000000018000c570 f i ItemDispenser.obj
 0001:0000b570       ??_E?$CComAggObject@VCOPOSItemDispenser@@@ATL@@UEAAPEAXI@Z 000000018000c570 f i ItemDispenser.obj
 0001:0000b5d0       ??_E?$CComContainedObject@VCOPOSItemDispenser@@@ATL@@UEAAPEAXI@Z 000000018000c5d0 f i ItemDispenser.obj
 0001:0000b5d0       ??_G?$CComContainedObject@VCOPOSItemDispenser@@@ATL@@UEAAPEAXI@Z 000000018000c5d0 f i ItemDispenser.obj
 0001:0000b630       ??_E?$CComObject@V?$CComEnum@UIEnumConnectionPoints@@$1?_GUID_b196b285_bab4_101a_b69c_00aa00341d07@@3U__s_GUID@@BPEAUIConnectionPoint@@V?$_CopyInterface@UIConnectionPoint@@@ATL@@VCComSingleThreadModel@6@@ATL@@@ATL@@UEAAPEAXI@Z 000000018000c630 f i ItemDispenser.obj
 0001:0000b630       ??_G?$CComObject@V?$CComEnum@UIEnumConnectionPoints@@$1?_GUID_b196b285_bab4_101a_b69c_00aa00341d07@@3U__s_GUID@@BPEAUIConnectionPoint@@V?$_CopyInterface@UIConnectionPoint@@@ATL@@VCComSingleThreadModel@6@@ATL@@@ATL@@UEAAPEAXI@Z 000000018000c630 f i ItemDispenser.obj
 0001:0000b690       ??_E?$CComObject@V?$CComEnum@UIEnumConnections@@$1?_GUID_b196b287_bab4_101a_b69c_00aa00341d07@@3U__s_GUID@@BUtagCONNECTDATA@@V?$_Copy@UtagCONNECTDATA@@@ATL@@VCComSingleThreadModel@6@@ATL@@@ATL@@UEAAPEAXI@Z 000000018000c690 f i ItemDispenser.obj
 0001:0000b690       ??_G?$CComObject@V?$CComEnum@UIEnumConnections@@$1?_GUID_b196b287_bab4_101a_b69c_00aa00341d07@@3U__s_GUID@@BUtagCONNECTDATA@@V?$_Copy@UtagCONNECTDATA@@@ATL@@VCComSingleThreadModel@6@@ATL@@@ATL@@UEAAPEAXI@Z 000000018000c690 f i ItemDispenser.obj
 0001:0000b6f0       ??_E?$CComObject@VCOPOSItemDispenser@@@ATL@@UEAAPEAXI@Z 000000018000c6f0 f i ItemDispenser.obj
 0001:0000b6f0       ??_G?$CComObject@VCOPOSItemDispenser@@@ATL@@UEAAPEAXI@Z 000000018000c6f0 f i ItemDispenser.obj
 0001:0000b750       ??_E?$CComObjectCached@VCComClassFactory@ATL@@@ATL@@UEAAPEAXI@Z 000000018000c750 f i ItemDispenser.obj
 0001:0000b750       ??_G?$CComObjectCached@VCComClassFactory@ATL@@@ATL@@UEAAPEAXI@Z 000000018000c750 f i ItemDispenser.obj
 0001:0000b7b0       ??_GCComClassFactory@ATL@@UEAAPEAXI@Z 000000018000c7b0 f i ItemDispenser.obj
 0001:0000b7b0       ??_ECComClassFactory@ATL@@UEAAPEAXI@Z 000000018000c7b0 f i ItemDispenser.obj
 0001:0000b810       ??_GCComModule@ATL@@UEAAPEAXI@Z 000000018000c810 f i ItemDispenser.obj
 0001:0000b810       ??_ECComModule@ATL@@UEAAPEAXI@Z 000000018000c810 f i ItemDispenser.obj
 0001:0000b870       ??_ECRegObject@ATL@@UEAAPEAXI@Z 000000018000c870 f i ItemDispenser.obj
 0001:0000b870       ??_GCRegObject@ATL@@UEAAPEAXI@Z 000000018000c870 f i ItemDispenser.obj
 0001:0000b8d0       ?Add@?$CSimpleArray@GV?$CSimpleArrayEqualHelper@G@ATL@@@ATL@@QEAAHAEBG@Z 000000018000c8d0 f i ItemDispenser.obj
 0001:0000ba70       ?Add@?$CSimpleMap@PEA_WPEA_WVCExpansionVectorEqualHelper@ATL@@@ATL@@QEAAHAEBQEA_W0@Z 000000018000ca70 f i ItemDispenser.obj
 0001:0000bb60       ?Add@CComDynamicUnkArray@ATL@@QEAAKPEAUIUnknown@@@Z 000000018000cb60 f i ItemDispenser.obj
 0001:0000bd40       ?Add@CExpansionVector@ATL@@QEAAHPEB_W0@Z 000000018000cd40 f i ItemDispenser.obj
 0001:0000c070       ?AddChar@CParseBuffer@CRegParser@ATL@@QEAAHPEB_W@Z 000000018000d070 f i ItemDispenser.obj
 0001:0000c0c0       ?AddCommonRGSReplacements@?$CAtlModuleT@VCComModule@ATL@@@ATL@@UEAAJPEAUIRegistrarBase@@@Z 000000018000d0c0 f i ItemDispenser.obj
 0001:0000c120       ?AddCreateWndData@CAtlWinModule@ATL@@QEAAXPEAU_AtlCreateWndData@2@PEAX@Z 000000018000d120 f i ItemDispenser.obj
 0001:0000c170       ?AddRef@?$CComAggObject@VCOPOSItemDispenser@@@ATL@@UEAAKXZ 000000018000d170 f i ItemDispenser.obj
 0001:0000c1b0       ?AddRef@?$CComContainedObject@VCOPOSItemDispenser@@@ATL@@UEAAKXZ 000000018000d1b0 f i ItemDispenser.obj
 0001:0000c1e8       ?AddRef@?$CComContainedObject@VCOPOSItemDispenser@@@ATL@@WBAA@EAAKXZ 000000018000d1e8 f i ItemDispenser.obj
 0001:0000c1f4       ?AddRef@?$CComContainedObject@VCOPOSItemDispenser@@@ATL@@WBAI@EAAKXZ 000000018000d1f4 f i ItemDispenser.obj
 0001:0000c200       ?AddRef@?$CComContainedObject@VCOPOSItemDispenser@@@ATL@@WBBA@EAAKXZ 000000018000d200 f i ItemDispenser.obj
 0001:0000c20c       ?AddRef@?$CComContainedObject@VCOPOSItemDispenser@@@ATL@@WBBI@EAAKXZ 000000018000d20c f i ItemDispenser.obj
 0001:0000c218       ?AddRef@?$CComContainedObject@VCOPOSItemDispenser@@@ATL@@WBCI@EAAKXZ 000000018000d218 f i ItemDispenser.obj
 0001:0000c224       ?AddRef@?$CComContainedObject@VCOPOSItemDispenser@@@ATL@@WBEA@EAAKXZ 000000018000d224 f i ItemDispenser.obj
 0001:0000c230       ?AddRef@?$CComContainedObject@VCOPOSItemDispenser@@@ATL@@WLI@EAAKXZ 000000018000d230 f i ItemDispenser.obj
 0001:0000c23c       ?AddRef@?$CComContainedObject@VCOPOSItemDispenser@@@ATL@@WMA@EAAKXZ 000000018000d23c f i ItemDispenser.obj
 0001:0000c248       ?AddRef@?$CComContainedObject@VCOPOSItemDispenser@@@ATL@@WMI@EAAKXZ 000000018000d248 f i ItemDispenser.obj
 0001:0000c254       ?AddRef@?$CComContainedObject@VCOPOSItemDispenser@@@ATL@@WNA@EAAKXZ 000000018000d254 f i ItemDispenser.obj
 0001:0000c260       ?AddRef@?$CComContainedObject@VCOPOSItemDispenser@@@ATL@@WNI@EAAKXZ 000000018000d260 f i ItemDispenser.obj
 0001:0000c26c       ?AddRef@?$CComContainedObject@VCOPOSItemDispenser@@@ATL@@WOA@EAAKXZ 000000018000d26c f i ItemDispenser.obj
 0001:0000c278       ?AddRef@?$CComContainedObject@VCOPOSItemDispenser@@@ATL@@WOI@EAAKXZ 000000018000d278 f i ItemDispenser.obj
 0001:0000c284       ?AddRef@?$CComContainedObject@VCOPOSItemDispenser@@@ATL@@WPA@EAAKXZ 000000018000d284 f i ItemDispenser.obj
 0001:0000c290       ?AddRef@?$CComContainedObject@VCOPOSItemDispenser@@@ATL@@WPI@EAAKXZ 000000018000d290 f i ItemDispenser.obj
 0001:0000c2a0       ?AddRef@?$CComObject@V?$CComEnum@UIEnumConnectionPoints@@$1?_GUID_b196b285_bab4_101a_b69c_00aa00341d07@@3U__s_GUID@@BPEAUIConnectionPoint@@V?$_CopyInterface@UIConnectionPoint@@@ATL@@VCComSingleThreadModel@6@@ATL@@@ATL@@UEAAKXZ 000000018000d2a0 f i ItemDispenser.obj
 0001:0000c2e0       ?AddRef@?$CComObject@V?$CComEnum@UIEnumConnections@@$1?_GUID_b196b287_bab4_101a_b69c_00aa00341d07@@3U__s_GUID@@BUtagCONNECTDATA@@V?$_Copy@UtagCONNECTDATA@@@ATL@@VCComSingleThreadModel@6@@ATL@@@ATL@@UEAAKXZ 000000018000d2e0 f i ItemDispenser.obj
 0001:0000c320       ?AddRef@?$CComObject@VCOPOSItemDispenser@@@ATL@@UEAAKXZ 000000018000d320 f i ItemDispenser.obj
 0001:0000c358       ?AddRef@?$CComObject@VCOPOSItemDispenser@@@ATL@@WBAA@EAAKXZ 000000018000d358 f i ItemDispenser.obj
 0001:0000c364       ?AddRef@?$CComObject@VCOPOSItemDispenser@@@ATL@@WBAI@EAAKXZ 000000018000d364 f i ItemDispenser.obj
 0001:0000c370       ?AddRef@?$CComObject@VCOPOSItemDispenser@@@ATL@@WBBA@EAAKXZ 000000018000d370 f i ItemDispenser.obj
 0001:0000c37c       ?AddRef@?$CComObject@VCOPOSItemDispenser@@@ATL@@WBBI@EAAKXZ 000000018000d37c f i ItemDispenser.obj
 0001:0000c388       ?AddRef@?$CComObject@VCOPOSItemDispenser@@@ATL@@WBCI@EAAKXZ 000000018000d388 f i ItemDispenser.obj
 0001:0000c394       ?AddRef@?$CComObject@VCOPOSItemDispenser@@@ATL@@WBEA@EAAKXZ 000000018000d394 f i ItemDispenser.obj
 0001:0000c3a0       ?AddRef@?$CComObject@VCOPOSItemDispenser@@@ATL@@WLI@EAAKXZ 000000018000d3a0 f i ItemDispenser.obj
 0001:0000c3ac       ?AddRef@?$CComObject@VCOPOSItemDispenser@@@ATL@@WMA@EAAKXZ 000000018000d3ac f i ItemDispenser.obj
 0001:0000c3b8       ?AddRef@?$CComObject@VCOPOSItemDispenser@@@ATL@@WMI@EAAKXZ 000000018000d3b8 f i ItemDispenser.obj
 0001:0000c3c4       ?AddRef@?$CComObject@VCOPOSItemDispenser@@@ATL@@WNA@EAAKXZ 000000018000d3c4 f i ItemDispenser.obj
 0001:0000c3d0       ?AddRef@?$CComObject@VCOPOSItemDispenser@@@ATL@@WNI@EAAKXZ 000000018000d3d0 f i ItemDispenser.obj
 0001:0000c3dc       ?AddRef@?$CComObject@VCOPOSItemDispenser@@@ATL@@WOA@EAAKXZ 000000018000d3dc f i ItemDispenser.obj
 0001:0000c3e8       ?AddRef@?$CComObject@VCOPOSItemDispenser@@@ATL@@WOI@EAAKXZ 000000018000d3e8 f i ItemDispenser.obj
 0001:0000c3f4       ?AddRef@?$CComObject@VCOPOSItemDispenser@@@ATL@@WPA@EAAKXZ 000000018000d3f4 f i ItemDispenser.obj
 0001:0000c400       ?AddRef@?$CComObject@VCOPOSItemDispenser@@@ATL@@WPI@EAAKXZ 000000018000d400 f i ItemDispenser.obj
 0001:0000c410       ?AddRef@?$CComObjectCached@VCComClassFactory@ATL@@@ATL@@UEAAKXZ 000000018000d410 f i ItemDispenser.obj
 0001:0000c470       ?AddRef@CRegObject@ATL@@UEAAKXZ 000000018000d470 f i ItemDispenser.obj
 0001:0000c4e0       ?AddReplacement@CRegObject@ATL@@UEAAJPEB_W0@Z 000000018000d4e0 f i ItemDispenser.obj
 0001:0000c610       ?AddString@CParseBuffer@CRegParser@ATL@@QEAAHPEB_W@Z 000000018000d610 f i ItemDispenser.obj
 0001:0000c700       ?AddTermFunc@CAtlModule@ATL@@QEAAJP6AX_K@Z0@Z 000000018000d700 f i ItemDispenser.obj
 0001:0000c770       ?AddValue@CRegParser@ATL@@IEAAJAEAVCRegKey@2@PEB_WPEA_W@Z 000000018000d770 f i ItemDispenser.obj
 0001:0000d040       ?Advise@?$CProxy_IOPOSEvents@VCOPOSItemDispenser@@@@UEAAJPEAUIUnknown@@PEAK@Z 000000018000e040 f i ItemDispenser.obj
 0001:0000d0b0       ?Advise@?$IConnectionPointImpl@VCOPOSItemDispenser@@$1?DIID__IOPOSItemDispenserEvents@@3U_GUID@@BVCComDynamicUnkArray@ATL@@@ATL@@UEAAJPEAUIUnknown@@PEAK@Z 000000018000e0b0 f i ItemDispenser.obj
 0001:0000d2b0       ?Advise@?$IConnectionPointImpl@VCOPOSItemDispenser@@$1?IID_IPropertyNotifySink@@3U_GUID@@BVCComDynamicUnkArray@ATL@@@ATL@@UEAAJPEAUIUnknown@@PEAK@Z 000000018000e2b0 f i ItemDispenser.obj
 0001:0000d4b0       ?Advise@?$IOleObjectImpl@VCOPOSItemDispenser@@@ATL@@UEAAJPEAUIAdviseSink@@PEAK@Z 000000018000e4b0 f i ItemDispenser.obj
 0001:0000d570       ?Allocate@?$CAtlSafeAllocBufferManager@VCCRTAllocator@ATL@@@_ATL_SAFE_ALLOCA_IMPL@ATL@@QEAAPEAX_K@Z 000000018000e570 f i ItemDispenser.obj
 0001:0000d5f0       ?Allocate@?$CTempBuffer@E$0BAA@VCCRTAllocator@ATL@@@ATL@@QEAAPEAE_K@Z 000000018000e5f0 f i ItemDispenser.obj
 0001:0000d640       ?Allocate@?$CTempBuffer@_W$0BAA@VCCRTAllocator@ATL@@@ATL@@QEAAPEA_W_K@Z 000000018000e640 f i ItemDispenser.obj
 0001:0000d690       ?Allocate@?$CTempBuffer@_W$0EAA@VCCRTAllocator@ATL@@@ATL@@QEAAPEA_W_K@Z 000000018000e690 f i ItemDispenser.obj
 0001:0000d6e0       ?AllocateBytes@?$CTempBuffer@E$0BAA@VCCRTAllocator@ATL@@@ATL@@QEAAPEAE_K@Z 000000018000e6e0 f i ItemDispenser.obj
 0001:0000d790       ?AllocateBytes@?$CTempBuffer@_W$0BAA@VCCRTAllocator@ATL@@@ATL@@QEAAPEA_W_K@Z 000000018000e790 f i ItemDispenser.obj
 0001:0000d840       ?AllocateBytes@?$CTempBuffer@_W$0EAA@VCCRTAllocator@ATL@@@ATL@@QEAAPEA_W_K@Z 000000018000e840 f i ItemDispenser.obj
 0001:0000d8f0       ?AllocateHeap@?$CTempBuffer@E$0BAA@VCCRTAllocator@ATL@@@ATL@@AEAAX_K@Z 000000018000e8f0 f i ItemDispenser.obj
 0001:0000d950       ?AllocateHeap@?$CTempBuffer@_W$0BAA@VCCRTAllocator@ATL@@@ATL@@AEAAX_K@Z 000000018000e950 f i ItemDispenser.obj
 0001:0000d9b0       ?AllocateHeap@?$CTempBuffer@_W$0EAA@VCCRTAllocator@ATL@@@ATL@@AEAAX_K@Z 000000018000e9b0 f i ItemDispenser.obj
 0001:0000da10       ?Append@CParseBuffer@CRegParser@ATL@@QEAAHPEB_WH@Z 000000018000ea10 f i ItemDispenser.obj
 0001:0000dc40       ?AtlCallTermFunc@ATL@@YAXPEAU_ATL_MODULE70@1@@Z 000000018000ec40 f i ItemDispenser.obj
 0001:0000dcf0       ?AtlCoTaskMemCAlloc@ATL@@YAPEAXKK@Z 000000018000ecf0 f i ItemDispenser.obj
 0001:0000dd70       ?AtlCoTaskMemRecalloc@ATL@@YAPEAXPEAXKK@Z 000000018000ed70 f i ItemDispenser.obj
 0001:0000ddf0       ?AtlComModuleGetClassObject@ATL@@YAJPEAU_ATL_COM_MODULE70@1@AEBU_GUID@@1PEAPEAX@Z 000000018000edf0 f i ItemDispenser.obj
 0001:0000e120       ?AtlComModuleRegisterServer@ATL@@YAJPEAU_ATL_COM_MODULE70@1@HPEBU_GUID@@@Z 000000018000f120 f i ItemDispenser.obj
 0001:0000e320       ?AtlComModuleUnregisterServer@ATL@@YAJPEAU_ATL_COM_MODULE70@1@HPEBU_GUID@@@Z 000000018000f320 f i ItemDispenser.obj
 0001:0000e480       ?AtlComQIPtrAssign2@ATL@@YAXPEAPEAUIUnknown@@PEAU2@AEBU_GUID@@@Z 000000018000f480 f i ItemDispenser.obj
 0001:0000e510       ?AtlCreateTargetDC@ATL@@YAPEAUHDC__@@PEAU2@PEAUtagDVTARGETDEVICE@@@Z 000000018000f510 f i ItemDispenser.obj
 0001:0000e740       ?AtlCrtErrorCheck@ATL@@YAHH@Z 000000018000f740 f i ItemDispenser.obj
 0001:0000e7c0       ?AtlGetPerUserRegistration@ATL@@YAJPEA_N@Z 000000018000f7c0 f i ItemDispenser.obj
 0001:0000e7f0       ?AtlHiMetricToPixel@ATL@@YAXPEBUtagSIZE@@PEAU2@@Z 000000018000f7f0 f i ItemDispenser.obj
 0001:0000e9f0       ?AtlHresultFromLastError@ATL@@YAJXZ 000000018000f9f0 f i ItemDispenser.obj
 0001:0000ea20       ?AtlHresultFromWin32@ATL@@YAJK@Z 000000018000fa20 f i ItemDispenser.obj
 0001:0000ea50       ?AtlIPersistStreamInit_Load@ATL@@YAJPEAUIStream@@PEBUATL_PROPMAP_ENTRY@1@PEAXPEAUIUnknown@@@Z 000000018000fa50 f i ItemDispenser.obj
 0001:0000f0c0       ?AtlIPersistStreamInit_Save@ATL@@YAJPEAUIStream@@HPEBUATL_PROPMAP_ENTRY@1@PEAXPEAUIUnknown@@@Z 00000001800100c0 f i ItemDispenser.obj
 0001:0000f650       ?AtlInternalOleLoadFromStream@ATL@@YAJPEAUIStream@@AEBU_GUID@@PEAPEAXTClassesAllowedInStream@1@K@Z 0000000180010650 f i ItemDispenser.obj
 0001:0000f990       ?AtlInternalQueryInterface@ATL@@YAJPEAXPEBU_ATL_INTMAP_ENTRY@1@AEBU_GUID@@PEAPEAX@Z 0000000180010990 f i ItemDispenser.obj
 0001:0000fc50       ?AtlLoadTypeLib@ATL@@YAJPEAUHINSTANCE__@@PEB_WPEAPEA_WPEAPEAUITypeLib@@@Z 0000000180010c50 f i ItemDispenser.obj
 0001:00010120       ?AtlModuleAddTermFunc@ATL@@YAJPEAU_ATL_MODULE70@1@P6AX_K@Z1@Z 0000000180011120 f i ItemDispenser.obj
 0001:000102f0       ?AtlRegisterClassCategoriesHelper@ATL@@YAJAEBU_GUID@@PEBU_ATL_CATMAP_ENTRY@1@H@Z 00000001800112f0 f i ItemDispenser.obj
 0001:00010ac0       ?AtlRegisterTypeLib@ATL@@YAJPEAUHINSTANCE__@@PEB_W@Z 0000000180011ac0 f i ItemDispenser.obj
 0001:00010e20       ?AtlThrowImpl@ATL@@YAXJ@Z  0000000180011e20 f i ItemDispenser.obj
 0001:00010f00       ?AtlUnRegisterTypeLib@ATL@@YAJPEAUHINSTANCE__@@PEB_W@Z 0000000180011f00 f i ItemDispenser.obj
 0001:00011130       ?AtlWinModuleAddCreateWndData@ATL@@YAXPEAU_ATL_WIN_MODULE70@1@PEAU_AtlCreateWndData@1@PEAX@Z 0000000180012130 f i ItemDispenser.obj
 0001:00011320       ?AtlWinModuleExtractCreateWndData@ATL@@YAPEAXPEAU_ATL_WIN_MODULE70@1@@Z 0000000180012320 f i ItemDispenser.obj
 0001:00011520       ?AtlWinModuleRegisterClassExW@ATL@@YAGPEAU_ATL_WIN_MODULE70@1@PEBUtagWNDCLASSEXW@@@Z 0000000180012520 f i ItemDispenser.obj
 0001:000115f0       ?AtlWinModuleRegisterWndClassInfoW@ATL@@YAGPEAU_ATL_WIN_MODULE70@1@PEAU_ATL_BASE_MODULE70@1@PEAU_ATL_WNDCLASSINFOW@1@PEAP6A_JPEAUHWND__@@I_K_J@Z@Z 00000001800125f0 f i ItemDispenser.obj
 0001:00011660       ?Attach@?$CAutoVectorPtr@_W@ATL@@QEAAXPEA_W@Z 0000000180012660 f i ItemDispenser.obj
 0001:000116f0       ?Attach@CComBSTR@ATL@@QEAAXPEA_W@Z 00000001800126f0 f i ItemDispenser.obj
 0001:00011750       ?Attach@CRegKey@ATL@@QEAAXPEAUHKEY__@@@Z 0000000180012750 f i ItemDispenser.obj
 0001:000117f0       ?CanForceRemoveKey@CRegParser@ATL@@IEAAHPEB_W@Z 00000001800127f0 f i ItemDispenser.obj
 0001:00011860       ?ChToByte@CRegParser@ATL@@KAE_W@Z 0000000180012860 f i ItemDispenser.obj
 0001:000119c0       ?ChangeType@CComVariant@ATL@@QEAAJGPEBUtagVARIANT@@@Z 00000001800129c0 f i ItemDispenser.obj
 0001:00011a30       ?Cleanup@CComTypeInfoHolder@ATL@@SAX_K@Z 0000000180012a30 f i ItemDispenser.obj
 0001:00011b20       ?Clear@CComVariant@ATL@@QEAAJXZ 0000000180012b20 f i ItemDispenser.obj
 0001:00011b50       ?ClearReplacements@CExpansionVector@ATL@@QEAAJXZ 0000000180012b50 f i ItemDispenser.obj
 0001:00011bf0       ?ClearReplacements@CRegObject@ATL@@UEAAJXZ 0000000180012bf0 f i ItemDispenser.obj
 0001:00011c50       ?Clone@?$CComEnumImpl@UIEnumConnectionPoints@@$1?_GUID_b196b285_bab4_101a_b69c_00aa00341d07@@3U__s_GUID@@BPEAUIConnectionPoint@@V?$_CopyInterface@UIConnectionPoint@@@ATL@@@ATL@@UEAAJPEAPEAUIEnumConnectionPoints@@@Z 0000000180012c50 f i ItemDispenser.obj
 0001:00011e40       ?Clone@?$CComEnumImpl@UIEnumConnections@@$1?_GUID_b196b287_bab4_101a_b69c_00aa00341d07@@3U__s_GUID@@BUtagCONNECTDATA@@V?$_Copy@UtagCONNECTDATA@@@ATL@@@ATL@@UEAAJPEAPEAUIEnumConnections@@@Z 0000000180012e40 f i ItemDispenser.obj
 0001:00012030       ?Close@?$IOleObjectImpl@VCOPOSItemDispenser@@@ATL@@UEAAJK@Z 0000000180013030 f i ItemDispenser.obj
 0001:000120e0       ?Close@CRegKey@ATL@@QEAAJXZ 00000001800130e0 f i ItemDispenser.obj
 0001:00012150       ?ContextSensitiveHelp@?$IOleInPlaceActiveObjectImpl@VCOPOSItemDispenser@@@ATL@@UEAAJH@Z 0000000180013150 f i ItemDispenser.obj
 0001:000121d0       ?ContextSensitiveHelp@?$IOleInPlaceObjectWindowlessImpl@VCOPOSItemDispenser@@@ATL@@UEAAJH@Z 00000001800131d0 f i ItemDispenser.obj
 0001:00012250       ?ControlQueryInterface@?$CComControl@VCOPOSItemDispenser@@V?$CWindowImpl@VCOPOSItemDispenser@@VCWindow@ATL@@V?$CWinTraits@$0FGAAAAAA@$0A@@3@@ATL@@@ATL@@UEAAJAEBU_GUID@@PEAPEAX@Z 0000000180013250 f i ItemDispenser.obj
 0001:000122e0       ?CreateControlWindow@?$CComControl@VCOPOSItemDispenser@@V?$CWindowImpl@VCOPOSItemDispenser@@VCWindow@ATL@@V?$CWinTraits@$0FGAAAAAA@$0A@@3@@ATL@@@ATL@@UEAAPEAUHWND__@@PEAU3@AEAUtagRECT@@@Z 00000001800132e0 f i ItemDispenser.obj
 0001:000123d0       ?CreateInstance@?$CComCreator@V?$CComAggObject@VCOPOSItemDispenser@@@ATL@@@ATL@@SAJPEAXAEBU_GUID@@PEAPEAX@Z 00000001800133d0 f i ItemDispenser.obj
 0001:000125b0       ?CreateInstance@?$CComCreator@V?$CComObject@VCOPOSItemDispenser@@@ATL@@@ATL@@SAJPEAXAEBU_GUID@@PEAPEAX@Z 00000001800135b0 f i ItemDispenser.obj
 0001:000127b0       ?CreateInstance@?$CComObject@V?$CComEnum@UIEnumConnectionPoints@@$1?_GUID_b196b285_bab4_101a_b69c_00aa00341d07@@3U__s_GUID@@BPEAUIConnectionPoint@@V?$_CopyInterface@UIConnectionPoint@@@ATL@@VCComSingleThreadModel@6@@ATL@@@ATL@@SAJPEAPEAV12@@Z 00000001800137b0 f i ItemDispenser.obj
 0001:00012970       ?CreateInstance@?$CComObject@V?$CComEnum@UIEnumConnections@@$1?_GUID_b196b287_bab4_101a_b69c_00aa00341d07@@3U__s_GUID@@BUtagCONNECTDATA@@V?$_Copy@UtagCONNECTDATA@@@ATL@@VCComSingleThreadModel@6@@ATL@@@ATL@@SAJPEAPEAV12@@Z 0000000180013970 f i ItemDispenser.obj
 0001:00012b30       ?CreateInstance@CComClassFactory@ATL@@UEAAJPEAUIUnknown@@AEBU_GUID@@PEAPEAX@Z 0000000180013b30 f i ItemDispenser.obj
 0001:00012c50       ?DAdvise@?$IDataObjectImpl@VCOPOSItemDispenser@@@ATL@@UEAAJPEAUtagFORMATETC@@KPEAUIAdviseSink@@PEAK@Z 0000000180013c50 f i ItemDispenser.obj
 0001:00012db0       ?DEVMODEOLE2T_EX@@YAPEAU_devicemodeW@@PEAU1@@Z 0000000180013db0 f i ItemDispenser.obj
 0001:00012dc0       ?DUnadvise@?$IDataObjectImpl@VCOPOSItemDispenser@@@ATL@@UEAAJK@Z 0000000180013dc0 f i ItemDispenser.obj
 0001:00012ec0       ?Decrement@CComMultiThreadModel@ATL@@SAKPEAJ@Z 0000000180013ec0 f i ItemDispenser.obj
 0001:00012ee0       ?Decrement@CComSingleThreadModel@ATL@@SAKPEAJ@Z 0000000180013ee0 f i ItemDispenser.obj
 0001:00012f00       ?DefWindowProcW@?$CWindowImplBaseT@VCWindow@ATL@@V?$CWinTraits@$0FGAAAAAA@$0A@@2@@ATL@@QEAA_JI_K_J@Z 0000000180013f00 f i ItemDispenser.obj
 0001:00012f60       ?DefaultReflectionHandler@?$CWindowImplRoot@VCWindow@ATL@@@ATL@@SAHPEAUHWND__@@I_K_JAEA_J@Z 0000000180013f60 f i ItemDispenser.obj
 0001:00013050       ?DeleteSubKey@CRegKey@ATL@@QEAAJPEB_W@Z 0000000180014050 f i ItemDispenser.obj
 0001:00013180       ?DeleteValue@CRegKey@ATL@@QEAAJPEB_W@Z 0000000180014180 f i ItemDispenser.obj
 0001:00013210       ?Detach@?$CAutoVectorPtr@_W@ATL@@QEAAPEA_WXZ 0000000180014210 f i ItemDispenser.obj
 0001:00013250       ?Detach@?$CComPtrBase@UIPersistStream@@@ATL@@QEAAPEAUIPersistStream@@XZ 0000000180014250 f i ItemDispenser.obj
 0001:00013290       ?Detach@?$CComPtrBase@UITypeInfo@@@ATL@@QEAAPEAUITypeInfo@@XZ 0000000180014290 f i ItemDispenser.obj
 0001:000132d0       ?Detach@?$CComPtrBase@UIUnknown@@@ATL@@QEAAPEAUIUnknown@@XZ 00000001800142d0 f i ItemDispenser.obj
 0001:00013310       ?Detach@CComBSTR@ATL@@QEAAPEA_WXZ 0000000180014310 f i ItemDispenser.obj
 0001:00013350       ?Detach@CParseBuffer@CRegParser@ATL@@QEAAPEA_WXZ 0000000180014350 f i ItemDispenser.obj
 0001:000133b0       ?Detach@CRegKey@ATL@@QEAAPEAUHKEY__@@XZ 00000001800143b0 f i ItemDispenser.obj
 0001:00013410       ?DoEvent@COPOSItemDispenser@@IEAAXI_K_J@Z 0000000180014410 f i ItemDispenser.obj
 0001:00013550       ?DoVerb@?$IOleObjectImpl@VCOPOSItemDispenser@@@ATL@@UEAAJJPEAUtagMSG@@PEAUIOleClientSite@@JPEAUHWND__@@PEBUtagRECT@@@Z 0000000180014550 f i ItemDispenser.obj
 0001:00013860       ?DoVerbDiscardUndo@?$IOleObjectImpl@VCOPOSItemDispenser@@@ATL@@QEAAJPEBUtagRECT@@PEAUHWND__@@@Z 0000000180014860 f i ItemDispenser.obj
 0001:00013900       ?DoVerbHide@?$IOleObjectImpl@VCOPOSItemDispenser@@@ATL@@QEAAJPEBUtagRECT@@PEAUHWND__@@@Z 0000000180014900 f i ItemDispenser.obj
 0001:000139e0       ?DoVerbInPlaceActivate@?$IOleObjectImpl@VCOPOSItemDispenser@@@ATL@@QEAAJPEBUtagRECT@@PEAUHWND__@@@Z 00000001800149e0 f i ItemDispenser.obj
 0001:00013ac0       ?DoVerbOpen@?$IOleObjectImpl@VCOPOSItemDispenser@@@ATL@@QEAAJPEBUtagRECT@@PEAUHWND__@@@Z 0000000180014ac0 f i ItemDispenser.obj
 0001:00013b60       ?DoVerbPrimary@?$IOleObjectImpl@VCOPOSItemDispenser@@@ATL@@QEAAJPEBUtagRECT@@PEAUHWND__@@@Z 0000000180014b60 f i ItemDispenser.obj
 0001:00013ca0       ?DoVerbProperties@CComControlBase@ATL@@QEAAJPEBUtagRECT@@PEAUHWND__@@@Z 0000000180014ca0 f i ItemDispenser.obj
 0001:00014050       ?DoVerbShow@?$IOleObjectImpl@VCOPOSItemDispenser@@@ATL@@QEAAJPEBUtagRECT@@PEAUHWND__@@@Z 0000000180015050 f i ItemDispenser.obj
 0001:00014110       ?DoVerbUIActivate@?$IOleObjectImpl@VCOPOSItemDispenser@@@ATL@@QEAAJPEBUtagRECT@@PEAUHWND__@@@Z 0000000180015110 f i ItemDispenser.obj
 0001:000141f0       ?DoesVerbActivate@CComControlBase@ATL@@QEAAHJ@Z 00000001800151f0 f i ItemDispenser.obj
 0001:00014250       ?DoesVerbUIActivate@CComControlBase@ATL@@QEAAHJ@Z 0000000180015250 f i ItemDispenser.obj
 0001:000142d0       ?Draw@?$IViewObjectExImpl@VCOPOSItemDispenser@@@ATL@@UEAAJKJPEAXPEAUtagDVTARGETDEVICE@@PEAUHDC__@@2PEBU_RECTL@@3P6AH_K@Z4@Z 00000001800152d0 f i ItemDispenser.obj
 0001:000143f0       ?Empty@CComBSTR@ATL@@QEAAXXZ 00000001800153f0 f i ItemDispenser.obj
 0001:00014430       ?EnableModeless@?$IOleInPlaceActiveObjectImpl@VCOPOSItemDispenser@@@ATL@@UEAAJH@Z 0000000180015430 f i ItemDispenser.obj
 0001:000144a0       ?EndOfVar@CRegParser@ATL@@IEAAHXZ 00000001800154a0 f i ItemDispenser.obj
 0001:00014500       ?EnsureTI@CComTypeInfoHolder@ATL@@QEAAJK@Z 0000000180015500 f i ItemDispenser.obj
 0001:00014560       ?EnumAdvise@?$IOleObjectImpl@VCOPOSItemDispenser@@@ATL@@UEAAJPEAPEAUIEnumSTATDATA@@@Z 0000000180015560 f i ItemDispenser.obj
 0001:000146c0       ?EnumConnectionPoints@?$IConnectionPointContainerImpl@VCOPOSItemDispenser@@@ATL@@UEAAJPEAPEAUIEnumConnectionPoints@@@Z 00000001800156c0 f i ItemDispenser.obj
 0001:00014bb0       ?EnumConnections@?$IConnectionPointImpl@VCOPOSItemDispenser@@$1?DIID__IOPOSItemDispenserEvents@@3U_GUID@@BVCComDynamicUnkArray@ATL@@@ATL@@UEAAJPEAPEAUIEnumConnections@@@Z 0000000180015bb0 f i ItemDispenser.obj
 0001:00014f00       ?EnumConnections@?$IConnectionPointImpl@VCOPOSItemDispenser@@$1?IID_IPropertyNotifySink@@3U_GUID@@BVCComDynamicUnkArray@ATL@@@ATL@@UEAAJPEAPEAUIEnumConnections@@@Z 0000000180015f00 f i ItemDispenser.obj
 0001:00015250       ?EnumDAdvise@?$IDataObjectImpl@VCOPOSItemDispenser@@@ATL@@UEAAJPEAPEAUIEnumSTATDATA@@@Z 0000000180016250 f i ItemDispenser.obj
 0001:000153a0       ?EnumFormatEtc@?$IDataObjectImpl@VCOPOSItemDispenser@@@ATL@@UEAAJKPEAPEAUIEnumFORMATETC@@@Z 00000001800163a0 f i ItemDispenser.obj
 0001:00015430       ?EnumVerbs@?$IOleObjectImpl@VCOPOSItemDispenser@@@ATL@@UEAAJPEAPEAUIEnumOLEVERB@@@Z 0000000180016430 f i ItemDispenser.obj
 0001:00015500       ?EscapeSingleQuote@CAtlModule@ATL@@SAXPEA_W_KPEB_W@Z 0000000180016500 f i ItemDispenser.obj
 0001:00015600       ?ExtractCreateWndData@CAtlWinModule@ATL@@QEAAPEAXXZ 0000000180016600 f i ItemDispenser.obj
 0001:00015630       ?FAccessAllowed@?$IObjectSafetyImpl@VCOPOSItemDispenser@@$02@ATL@@MEAAHXZ 0000000180016630 f i ItemDispenser.obj
 0001:00015640       ?FinalConstruct@?$CComAggObject@VCOPOSItemDispenser@@@ATL@@QEAAJXZ 0000000180016640 f i ItemDispenser.obj
 0001:00015690       ?FinalConstruct@CComObjectRootBase@ATL@@QEAAJXZ 0000000180016690 f i ItemDispenser.obj
 0001:000156a0       ?FinalConstruct@CRegObject@ATL@@QEAAJXZ 00000001800166a0 f i ItemDispenser.obj
 0001:000156e0       ?FinalRelease@?$CComAggObject@VCOPOSItemDispenser@@@ATL@@QEAAXXZ 00000001800166e0 f i ItemDispenser.obj
 0001:00015730       ?FinalRelease@CComObjectRootBase@ATL@@QEAAXXZ 0000000180016730 f i ItemDispenser.obj
 0001:00015740       ?FindConnectionPoint@?$IConnectionPointContainerImpl@VCOPOSItemDispenser@@@ATL@@UEAAJAEBU_GUID@@PEAPEAUIConnectionPoint@@@Z 0000000180016740 f i ItemDispenser.obj
 0001:000158b0       ?FindKey@?$CSimpleMap@PEA_WPEA_WVCExpansionVectorEqualHelper@ATL@@@ATL@@QEBAHAEBQEA_W@Z 00000001800168b0 f i ItemDispenser.obj
 0001:00015930       ?FireTheEvent@?$CProxy_IOPOSEvents@VCOPOSItemDispenser@@@@IEAAXPEAUIUnknown@@PEAVOposVariant@@IAEAJPEB_WJ@Z 0000000180016930 f i ItemDispenser.obj
 0001:00015b10       ?FireViewChange@CComControlBase@ATL@@QEAAJXZ 0000000180016b10 f i ItemDispenser.obj
 0001:00015bf0       ?Fire_DirectIOEvent@?$CProxy_IOPOSEvents@VCOPOSItemDispenser@@@@QEAAXJPEAJPEAPEA_W@Z 0000000180016bf0 f i ItemDispenser.obj
 0001:00015e80       ?Fire_StatusUpdateEvent@?$CProxy_IOPOSEvents@VCOPOSItemDispenser@@@@QEAAXJ@Z 0000000180016e80 f i ItemDispenser.obj
 0001:00016070       ?FormatWindowClassName@AtlModuleRegisterWndClassInfoParamW@ATL@@SAXPEA_WKPEAX@Z 0000000180017070 f i ItemDispenser.obj
 0001:000160c0       ?Free@?$CAutoVectorPtr@_W@ATL@@QEAAXXZ 00000001800170c0 f i ItemDispenser.obj
 0001:00016110       ?FreeHeap@?$CTempBuffer@E$0BAA@VCCRTAllocator@ATL@@@ATL@@AEAAXXZ 0000000180017110 f i ItemDispenser.obj
 0001:00016150       ?FreeHeap@?$CTempBuffer@_W$0BAA@VCCRTAllocator@ATL@@@ATL@@AEAAXXZ 0000000180017150 f i ItemDispenser.obj
 0001:00016190       ?FreeHeap@?$CTempBuffer@_W$0EAA@VCCRTAllocator@ATL@@@ATL@@AEAAXXZ 0000000180017190 f i ItemDispenser.obj
 0001:000161d0       ?Freeze@?$IViewObjectExImpl@VCOPOSItemDispenser@@@ATL@@UEAAJKJPEAXPEAK@Z 00000001800171d0 f i ItemDispenser.obj
 0001:00016260       ?GenerateError@CRegParser@ATL@@IEAAJI@Z 0000000180017260 f i ItemDispenser.obj
 0001:00016280       ?GetAdvise@?$IViewObjectExImpl@VCOPOSItemDispenser@@@ATL@@UEAAJPEAK0PEAPEAUIAdviseSink@@@Z 0000000180017280 f i ItemDispenser.obj
 0001:000163d0       ?GetAmbientLocaleID@CComControlBase@ATL@@QEAAJAEAK@Z 00000001800173d0 f i ItemDispenser.obj
 0001:000164b0       ?GetAmbientProperty@CComControlBase@ATL@@QEAAJJAEAUtagVARIANT@@@Z 00000001800174b0 f i ItemDispenser.obj
 0001:00016520       ?GetAmbientUserMode@CComControlBase@ATL@@QEAAJAEAH@Z 0000000180017520 f i ItemDispenser.obj
 0001:00016640       ?GetAppId@?$CAtlModuleT@VCComModule@ATL@@@ATL@@SAPEB_WXZ 0000000180017640 f i ItemDispenser.obj
 0001:00016650       ?GetAt@CComDynamicUnkArray@ATL@@QEAAPEAUIUnknown@@H@Z 0000000180017650 f i ItemDispenser.obj
 0001:00016700       ?GetCanonicalFormatEtc@?$IDataObjectImpl@VCOPOSItemDispenser@@@ATL@@UEAAJPEAUtagFORMATETC@@0@Z 0000000180017700 f i ItemDispenser.obj
 0001:00016790       ?GetClassID@?$IPersistStorageImpl@VCOPOSItemDispenser@@@ATL@@UEAAJPEAU_GUID@@@Z 0000000180017790 f i ItemDispenser.obj
 0001:00016830       ?GetClassID@?$IPersistStreamInitImpl@VCOPOSItemDispenser@@@ATL@@UEAAJPEAU_GUID@@@Z 0000000180017830 f i ItemDispenser.obj
 0001:000168d0       ?GetClassInfoExW@AtlModuleRegisterWndClassInfoParamW@ATL@@SAHPEAUHINSTANCE__@@PEB_WPEAUtagWNDCLASSEXW@@@Z 00000001800178d0 f i ItemDispenser.obj
 0001:00016920       ?GetClassInfoW@?$IProvideClassInfo2Impl@$1?CLSID_OPOSItemDispenser@@3U_GUID@@B$1?DIID__IOPOSItemDispenserEvents@@3U2@B$1?LIBID_OposItemDispenser_CCO@@3U2@B$00$0A@VCComTypeInfoHolder@ATL@@@ATL@@UEAAJPEAPEAUITypeInfo@@@Z 0000000180017920 f i ItemDispenser.obj
 0001:00016960       ?GetClassObject@CComModule@ATL@@QEAAJAEBU_GUID@@0PEAPEAX@Z 0000000180017960 f i ItemDispenser.obj
 0001:00016bd0       ?GetClientSite@?$IOleObjectImpl@VCOPOSItemDispenser@@@ATL@@UEAAJPEAPEAUIOleClientSite@@@Z 0000000180017bd0 f i ItemDispenser.obj
 0001:00016c80       ?GetClipboardData@?$IOleObjectImpl@VCOPOSItemDispenser@@@ATL@@UEAAJKPEAPEAUIDataObject@@@Z 0000000180017c80 f i ItemDispenser.obj
 0001:00016d10       ?GetCodeAddress@CDynamicStdCallThunk2@ATL@@QEAAPEAXXZ 0000000180017d10 f i ItemDispenser.obj
 0001:00016d50       ?GetColorSet@?$IViewObjectExImpl@VCOPOSItemDispenser@@@ATL@@UEAAJKJPEAXPEAUtagDVTARGETDEVICE@@PEAUHDC__@@PEAPEAUtagLOGPALETTE@@@Z 0000000180017d50 f i ItemDispenser.obj
 0001:00016de0       ?GetConnMap@COPOSItemDispenser@@SAPEBU_ATL_CONNMAP_ENTRY@ATL@@PEAH@Z 0000000180017de0 f i ItemDispenser.obj
 0001:00016f40       ?GetConnectionInterface@?$IConnectionPointImpl@VCOPOSItemDispenser@@$1?DIID__IOPOSItemDispenserEvents@@3U_GUID@@BVCComDynamicUnkArray@ATL@@@ATL@@UEAAJPEAU_GUID@@@Z 0000000180017f40 f i ItemDispenser.obj
 0001:00016f80       ?GetConnectionInterface@?$IConnectionPointImpl@VCOPOSItemDispenser@@$1?IID_IPropertyNotifySink@@3U_GUID@@BVCComDynamicUnkArray@ATL@@@ATL@@UEAAJPEAU_GUID@@@Z 0000000180017f80 f i ItemDispenser.obj
 0001:00016fc0       ?GetConnectionPointContainer@?$IConnectionPointImpl@VCOPOSItemDispenser@@$1?DIID__IOPOSItemDispenserEvents@@3U_GUID@@BVCComDynamicUnkArray@ATL@@@ATL@@UEAAJPEAPEAUIConnectionPointContainer@@@Z 0000000180017fc0 f i ItemDispenser.obj
 0001:00017040       ?GetConnectionPointContainer@?$IConnectionPointImpl@VCOPOSItemDispenser@@$1?IID_IPropertyNotifySink@@3U_GUID@@BVCComDynamicUnkArray@ATL@@@ATL@@UEAAJPEAPEAUIConnectionPointContainer@@@Z 0000000180018040 f i ItemDispenser.obj
 0001:000170c0       ?GetContentExtent@?$IQuickActivateImpl@VCOPOSItemDispenser@@@ATL@@UEAAJPEAUtagSIZE@@@Z 00000001800180c0 f i ItemDispenser.obj
 0001:00017180       ?GetControlInfo@?$IOleControlImpl@VCOPOSItemDispenser@@@ATL@@UEAAJPEAUtagCONTROLINFO@@@Z 0000000180018180 f i ItemDispenser.obj
 0001:00017210       ?GetCookie@CComDynamicUnkArray@ATL@@QEAAKPEAPEAUIUnknown@@@Z 0000000180018210 f i ItemDispenser.obj
 0001:00017300       ?GetData@?$IDataObjectImpl@VCOPOSItemDispenser@@@ATL@@UEAAJPEAUtagFORMATETC@@PEAUtagSTGMEDIUM@@@Z 0000000180018300 f i ItemDispenser.obj
 0001:000173c0       ?GetData@CAtlSafeAllocBufferNode@?$CAtlSafeAllocBufferManager@VCCRTAllocator@ATL@@@_ATL_SAFE_ALLOCA_IMPL@ATL@@QEAAPEAXXZ 00000001800183c0 f i ItemDispenser.obj
 0001:000173e0       ?GetDataHere@?$IDataObjectImpl@VCOPOSItemDispenser@@@ATL@@UEAAJPEAUtagFORMATETC@@PEAUtagSTGMEDIUM@@@Z 00000001800183e0 f i ItemDispenser.obj
 0001:00017470       ?GetDropTarget@?$IOleInPlaceObjectWindowlessImpl@VCOPOSItemDispenser@@@ATL@@UEAAJPEAPEAUIDropTarget@@@Z 0000000180018470 f i ItemDispenser.obj
 0001:00017500       ?GetExtent@?$IOleObjectImpl@VCOPOSItemDispenser@@@ATL@@UEAAJKPEAUtagSIZE@@@Z 0000000180018500 f i ItemDispenser.obj
 0001:000175d0       ?GetExtent@?$IViewObjectExImpl@VCOPOSItemDispenser@@@ATL@@UEAAJKJPEAUtagDVTARGETDEVICE@@PEAUtagSIZE@@@Z 00000001800185d0 f i ItemDispenser.obj
 0001:000176e0       ?GetGITPtr@CAtlModule@ATL@@UEAAJPEAPEAUIGlobalInterfaceTable@@@Z 00000001800186e0 f i ItemDispenser.obj
 0001:00017820       ?GetGUID@?$IProvideClassInfo2Impl@$1?CLSID_OPOSItemDispenser@@3U_GUID@@B$1?DIID__IOPOSItemDispenserEvents@@3U2@B$1?LIBID_OposItemDispenser_CCO@@3U2@B$00$0A@VCComTypeInfoHolder@ATL@@@ATL@@UEAAJKPEAU_GUID@@@Z 0000000180018820 f i ItemDispenser.obj
 0001:000178a0       ?GetIDsOfNames@?$IDispatchImpl@UIOPOSItemDispenser@@$1?IID_IOPOSItemDispenser@@3U_GUID@@B$1?LIBID_OposItemDispenser_CCO@@3U3@B$00$0A@VCComTypeInfoHolder@ATL@@@ATL@@UEAAJAEBU_GUID@@PEAPEA_WIKPEAJ@Z 00000001800188a0 f i ItemDispenser.obj
 0001:00017900       ?GetIDsOfNames@CComTypeInfoHolder@ATL@@QEAAJAEBU_GUID@@PEAPEA_WIKPEAJ@Z 0000000180018900 f i ItemDispenser.obj
 0001:00017b20       ?GetInterfaceSafetyOptions@?$IObjectSafetyImpl@VCOPOSItemDispenser@@$02@ATL@@UEAAJAEBU_GUID@@PEAK1@Z 0000000180018b20 f i ItemDispenser.obj
 0001:00017cc0       ?GetKeyAt@?$CSimpleMap@PEA_WPEA_WVCExpansionVectorEqualHelper@ATL@@@ATL@@QEBAAEAPEA_WH@Z 0000000180018cc0 f i ItemDispenser.obj
 0001:00017d70       ?GetLockCount@CAtlModule@ATL@@UEAAJXZ 0000000180018d70 f i ItemDispenser.obj
 0001:00017d80       ?GetMiscStatus@?$IOleObjectImpl@VCOPOSItemDispenser@@@ATL@@UEAAJKPEAK@Z 0000000180018d80 f i ItemDispenser.obj
 0001:00017e10       ?GetMoniker@?$IOleObjectImpl@VCOPOSItemDispenser@@@ATL@@UEAAJKKPEAPEAUIMoniker@@@Z 0000000180018e10 f i ItemDispenser.obj
 0001:00017ea0       ?GetNaturalExtent@?$IViewObjectExImpl@VCOPOSItemDispenser@@@ATL@@UEAAJKJPEAUtagDVTARGETDEVICE@@PEAUHDC__@@PEAUtagExtentInfo@@PEAUtagSIZE@@@Z 0000000180018ea0 f i ItemDispenser.obj
 0001:00018030       ?GetObjectCLSID@?$CComCoClass@VCOPOSItemDispenser@@$1?CLSID_OPOSItemDispenser@@3U_GUID@@B@ATL@@SAAEBU_GUID@@XZ 0000000180019030 f i ItemDispenser.obj
 0001:00018040       ?GetPages@?$ISpecifyPropertyPagesImpl@VCOPOSItemDispenser@@@ATL@@UEAAJPEAUtagCAUUID@@@Z 0000000180019040 f i ItemDispenser.obj
 0001:000180d0       ?GetPagesHelper@?$ISpecifyPropertyPagesImpl@VCOPOSItemDispenser@@@ATL@@IEAAJPEAUtagCAUUID@@PEBUATL_PROPMAP_ENTRY@2@@Z 00000001800190d0 f i ItemDispenser.obj
 0001:00018340       ?GetProperty@?$CComPtr@UIDispatch@@@ATL@@QEAAJJPEAUtagVARIANT@@@Z 0000000180019340 f i ItemDispenser.obj
 0001:00018390       ?GetProperty@?$CComPtr@UIDispatch@@@ATL@@SAJPEAUIDispatch@@JPEAUtagVARIANT@@@Z 0000000180019390 f i ItemDispenser.obj
 0001:00018560       ?GetPropertyMap@COPOSItemDispenser@@SAPEBUATL_PROPMAP_ENTRY@ATL@@XZ 0000000180019560 f i ItemDispenser.obj
 0001:00018570       ?GetRect@?$IViewObjectExImpl@VCOPOSItemDispenser@@@ATL@@UEAAJKPEAU_RECTL@@@Z 0000000180019570 f i ItemDispenser.obj
 0001:00018600       ?GetSize@?$CSimpleMap@PEA_WPEA_WVCExpansionVectorEqualHelper@ATL@@@ATL@@QEBAHXZ 0000000180019600 f i ItemDispenser.obj
 0001:00018610       ?GetSize@CComDynamicUnkArray@ATL@@QEBAHXZ 0000000180019610 f i ItemDispenser.obj
 0001:00018620       ?GetSizeMax@?$IPersistStreamInitImpl@VCOPOSItemDispenser@@@ATL@@UEAAJPEAT_ULARGE_INTEGER@@@Z 0000000180019620 f i ItemDispenser.obj
 0001:00018db0       ?GetSizeMax@CComVariant@ATL@@QEBAJPEAT_ULARGE_INTEGER@@@Z 0000000180019db0 f i ItemDispenser.obj
 0001:000191e0       ?GetStreamSize@CComBSTR@ATL@@SAKPEA_W@Z 000000018001a1e0 f i ItemDispenser.obj
 0001:00019240       ?GetTI@CComTypeInfoHolder@ATL@@QEAAJK@Z 000000018001a240 f i ItemDispenser.obj
 0001:00019b10       ?GetTI@CComTypeInfoHolder@ATL@@QEAAJKPEAPEAUITypeInfo@@@Z 000000018001ab10 f i ItemDispenser.obj
 0001:00019c00       ?GetTypeInfo@?$IDispatchImpl@UIOPOSItemDispenser@@$1?IID_IOPOSItemDispenser@@3U_GUID@@B$1?LIBID_OposItemDispenser_CCO@@3U3@B$00$0A@VCComTypeInfoHolder@ATL@@@ATL@@UEAAJIKPEAPEAUITypeInfo@@@Z 000000018001ac00 f i ItemDispenser.obj
 0001:00019c50       ?GetTypeInfo@CComTypeInfoHolder@ATL@@QEAAJIKPEAPEAUITypeInfo@@@Z 000000018001ac50 f i ItemDispenser.obj
 0001:00019cb0       ?GetTypeInfoCount@?$IDispatchImpl@UIOPOSItemDispenser@@$1?IID_IOPOSItemDispenser@@3U_GUID@@B$1?LIBID_OposItemDispenser_CCO@@3U3@B$00$0A@VCComTypeInfoHolder@ATL@@@ATL@@UEAAJPEAI@Z 000000018001acb0 f i ItemDispenser.obj
 0001:00019ce0       ?GetUnknown@CComDynamicUnkArray@ATL@@QEAAPEAUIUnknown@@K@Z 000000018001ace0 f i ItemDispenser.obj
 0001:00019d90       ?GetUnknown@COPOSItemDispenser@@QEAAPEAUIUnknown@@XZ 000000018001ad90 f i ItemDispenser.obj
 0001:00019dc0       ?GetUserClassID@?$IOleObjectImpl@VCOPOSItemDispenser@@@ATL@@UEAAJPEAU_GUID@@@Z 000000018001adc0 f i ItemDispenser.obj
 0001:00019ea0       ?GetUserType@?$IOleObjectImpl@VCOPOSItemDispenser@@@ATL@@UEAAJKPEAPEA_W@Z 000000018001aea0 f i ItemDispenser.obj
 0001:00019f30       ?GetValueAt@?$CSimpleMap@PEA_WPEA_WVCExpansionVectorEqualHelper@ATL@@@ATL@@QEBAAEAPEA_WH@Z 000000018001af30 f i ItemDispenser.obj
 0001:00019fe0       ?GetViewStatus@?$IViewObjectExImpl@VCOPOSItemDispenser@@@ATL@@UEAAJPEAK@Z 000000018001afe0 f i ItemDispenser.obj
 0001:0001a0e0       ?GetWNDPROC@CWndProcThunk@ATL@@QEAAP6A_JPEAUHWND__@@I_K_J@ZXZ 000000018001b0e0 f i ItemDispenser.obj
 0001:0001a120       ?GetWindow@?$IOleInPlaceActiveObjectImpl@VCOPOSItemDispenser@@@ATL@@UEAAJPEAPEAUHWND__@@@Z 000000018001b120 f i ItemDispenser.obj
 0001:0001a220       ?GetWindow@?$IOleInPlaceObjectWindowlessImpl@VCOPOSItemDispenser@@@ATL@@UEAAJPEAPEAUHWND__@@@Z 000000018001b220 f i ItemDispenser.obj
 0001:0001a320       ?GetWindowProc@?$CWindowImplBaseT@VCWindow@ATL@@V?$CWinTraits@$0FGAAAAAA@$0A@@2@@ATL@@UEAAP6A_JPEAUHWND__@@I_K_J@ZXZ 000000018001b320 f i ItemDispenser.obj
 0001:0001a330       ?GetWndCaption@?$CWindowImpl@VCOPOSItemDispenser@@VCWindow@ATL@@V?$CWinTraits@$0FGAAAAAA@$0A@@3@@ATL@@SAPEB_WXZ 000000018001b330 f i ItemDispenser.obj
 0001:0001a340       ?GetWndClassInfo@?$CWindowImpl@VCOPOSItemDispenser@@VCWindow@ATL@@V?$CWinTraits@$0FGAAAAAA@$0A@@3@@ATL@@SAAEAU_ATL_WNDCLASSINFOW@2@XZ 000000018001b340 f i ItemDispenser.obj
 0001:0001a350       ?GetWndClassName@CWindow@ATL@@SAPEB_WXZ 000000018001b350 f i ItemDispenser.obj
 0001:0001a360       ?GetWndExStyle@?$CWinTraits@$0FGAAAAAA@$0A@@ATL@@SAKK@Z 000000018001b360 f i ItemDispenser.obj
 0001:0001a3a0       ?GetWndExStyle@?$CWindowImplBaseT@VCWindow@ATL@@V?$CWinTraits@$0FGAAAAAA@$0A@@2@@ATL@@SAKK@Z 000000018001b3a0 f i ItemDispenser.obj
 0001:0001a3d0       ?GetWndStyle@?$CWinTraits@$0FGAAAAAA@$0A@@ATL@@SAKK@Z 000000018001b3d0 f i ItemDispenser.obj
 0001:0001a410       ?GetWndStyle@?$CWindowImplBaseT@VCWindow@ATL@@V?$CWinTraits@$0FGAAAAAA@$0A@@2@@ATL@@SAKK@Z 000000018001b410 f i ItemDispenser.obj
 0001:0001a440       ?GetZoomInfo@CComControlBase@ATL@@QEAAXAEAUATL_DRAWINFO@@@Z 000000018001b440 f i ItemDispenser.obj
 0001:0001a5f0       ?HKeyFromString@CRegParser@ATL@@KAPEAUHKEY__@@PEA_W@Z 000000018001b5f0 f i ItemDispenser.obj
 0001:0001a680       ?HandsOffStorage@?$IPersistStorageImpl@VCOPOSItemDispenser@@@ATL@@UEAAJXZ 000000018001b680 f i ItemDispenser.obj
 0001:0001a6f0       ?HasSubKeys@CRegParser@ATL@@IEAAHPEAUHKEY__@@@Z 000000018001b6f0 f i ItemDispenser.obj
 0001:0001a860       ?IDataObject_GetData@CComControlBase@ATL@@QEAAJPEAUtagFORMATETC@@PEAUtagSTGMEDIUM@@@Z 000000018001b860 f i ItemDispenser.obj
 0001:0001ad10       ?IOleInPlaceObject_InPlaceDeactivate@CComControlBase@ATL@@QEAAJXZ 000000018001bd10 f i ItemDispenser.obj
 0001:0001af80       ?IOleInPlaceObject_SetObjectRects@CComControlBase@ATL@@QEAAJPEBUtagRECT@@0@Z 000000018001bf80 f i ItemDispenser.obj
 0001:0001b160       ?IOleInPlaceObject_UIDeactivate@CComControlBase@ATL@@QEAAJXZ 000000018001c160 f i ItemDispenser.obj
 0001:0001b3d0       ?IOleObject_Advise@CComControlBase@ATL@@QEAAJPEAUIAdviseSink@@PEAK@Z 000000018001c3d0 f i ItemDispenser.obj
 0001:0001b480       ?IOleObject_Close@CComControlBase@ATL@@QEAAJK@Z 000000018001c480 f i ItemDispenser.obj
 0001:0001b7f0       ?IOleObject_GetClientSite@CComControlBase@ATL@@QEAAJPEAPEAUIOleClientSite@@@Z 000000018001c7f0 f i ItemDispenser.obj
 0001:0001b8c0       ?IOleObject_SetClientSite@CComControlBase@ATL@@QEAAJPEAUIOleClientSite@@@Z 000000018001c8c0 f i ItemDispenser.obj
 0001:0001b9d0       ?IOleObject_SetExtent@CComControlBase@ATL@@QEAAJKPEAUtagSIZE@@@Z 000000018001c9d0 f i ItemDispenser.obj
 0001:0001bb40       ?IPSI_GetIPersistStreamInit@?$IPersistStorageImpl@VCOPOSItemDispenser@@@ATL@@AEAAPEAUIPersistStreamInit@@XZ 000000018001cb40 f i ItemDispenser.obj
 0001:0001bc00       ?IPersistStreamInit_Load@?$IPersistStreamInitImpl@VCOPOSItemDispenser@@@ATL@@QEAAJPEAUIStream@@PEBUATL_PROPMAP_ENTRY@2@@Z 000000018001cc00 f i ItemDispenser.obj
 0001:0001bca0       ?IPersistStreamInit_Save@?$IPersistStreamInitImpl@VCOPOSItemDispenser@@@ATL@@QEAAJPEAUIStream@@HPEBUATL_PROPMAP_ENTRY@2@@Z 000000018001cca0 f i ItemDispenser.obj
 0001:0001bd60       ?IQuickActivate_QuickActivate@CComControlBase@ATL@@QEAAJPEAUtagQACONTAINER@@PEAUtagQACONTROL@@@Z 000000018001cd60 f i ItemDispenser.obj
 0001:0001c5a0       ?IViewObject_Draw@CComControlBase@ATL@@QEAAJKJPEAXPEAUtagDVTARGETDEVICE@@PEAUHDC__@@2PEBU_RECTL@@3@Z 000000018001d5a0 f i ItemDispenser.obj
 0001:0001c9f0       ?InPlaceActivate@CComControlBase@ATL@@QEAAJJPEBUtagRECT@@@Z 000000018001d9f0 f i ItemDispenser.obj
 0001:0001d590       ?InPlaceDeactivate@?$IOleInPlaceObjectWindowlessImpl@VCOPOSItemDispenser@@@ATL@@UEAAJXZ 000000018001e590 f i ItemDispenser.obj
 0001:0001d640       ?Increment@CComMultiThreadModel@ATL@@SAKPEAJ@Z 000000018001e640 f i ItemDispenser.obj
 0001:0001d660       ?Increment@CComSingleThreadModel@ATL@@SAKPEAJ@Z 000000018001e660 f i ItemDispenser.obj
 0001:0001d680       ?Init@?$CComEnumImpl@UIEnumConnectionPoints@@$1?_GUID_b196b285_bab4_101a_b69c_00aa00341d07@@3U__s_GUID@@BPEAUIConnectionPoint@@V?$_CopyInterface@UIConnectionPoint@@@ATL@@@ATL@@QEAAJPEAPEAUIConnectionPoint@@0PEAUIUnknown@@W4CComEnumFlags@2@@Z 000000018001e680 f i ItemDispenser.obj
 0001:0001d970       ?Init@?$CComEnumImpl@UIEnumConnections@@$1?_GUID_b196b287_bab4_101a_b69c_00aa00341d07@@3U__s_GUID@@BUtagCONNECTDATA@@V?$_Copy@UtagCONNECTDATA@@@ATL@@@ATL@@QEAAJPEAUtagCONNECTDATA@@0PEAUIUnknown@@W4CComEnumFlags@2@@Z 000000018001e970 f i ItemDispenser.obj
 0001:0001dc60       ?Init@CComFakeCriticalSection@ATL@@QEAAJXZ 000000018001ec60 f i ItemDispenser.obj
 0001:0001dc70       ?Init@CComModule@ATL@@QEAAJPEAU_ATL_OBJMAP_ENTRY30@2@PEAUHINSTANCE__@@PEBU_GUID@@@Z 000000018001ec70 f i ItemDispenser.obj
 0001:0001dd60       ?Init@CComSafeDeleteCriticalSection@ATL@@QEAAJXZ 000000018001ed60 f i ItemDispenser.obj
 0001:0001ddf0       ?Init@CDynamicStdCallThunk2@ATL@@QEAAH_KPEAX@Z 000000018001edf0 f i ItemDispenser.obj
 0001:0001de70       ?Init@CWndProcThunk@ATL@@QEAAHP6A_JPEAUHWND__@@I_K_J@ZPEAX@Z 000000018001ee70 f i ItemDispenser.obj
 0001:0001dec0       ?InitFromData@?$IOleObjectImpl@VCOPOSItemDispenser@@@ATL@@UEAAJPEAUIDataObject@@HK@Z 000000018001eec0 f i ItemDispenser.obj
 0001:0001df50       ?InitLibId@?$CAtlModuleT@VCComModule@ATL@@@ATL@@SAXXZ 000000018001ef50 f i ItemDispenser.obj
 0001:0001df60       ?InitNew@?$IPersistStorageImpl@VCOPOSItemDispenser@@@ATL@@UEAAJPEAUIStorage@@@Z 000000018001ef60 f i ItemDispenser.obj
 0001:0001e050       ?InitNew@?$IPersistStreamInitImpl@VCOPOSItemDispenser@@@ATL@@UEAAJXZ 000000018001f050 f i ItemDispenser.obj
 0001:0001e100       ?InlineIsEqualUnknown@ATL@@YAHAEBU_GUID@@@Z 000000018001f100 f i ItemDispenser.obj
 0001:0001e190       ?InternalAddRef@?$CComObjectRootEx@VCComMultiThreadModel@ATL@@@ATL@@QEAAKXZ 000000018001f190 f i ItemDispenser.obj
 0001:0001e210       ?InternalAddRef@?$CComObjectRootEx@VCComSingleThreadModel@ATL@@@ATL@@QEAAKXZ 000000018001f210 f i ItemDispenser.obj
 0001:0001e290       ?InternalFinalConstructAddRef@CComObjectRootBase@ATL@@QEAAXXZ 000000018001f290 f i ItemDispenser.obj
 0001:0001e2a0       ?InternalFinalConstructAddRef@COPOSItemDispenser@@QEAAXXZ 000000018001f2a0 f i ItemDispenser.obj
 0001:0001e2e0       ?InternalFinalConstructRelease@CComObjectRootBase@ATL@@QEAAXXZ 000000018001f2e0 f i ItemDispenser.obj
 0001:0001e350       ?InternalFinalConstructRelease@COPOSItemDispenser@@QEAAXXZ 000000018001f350 f i ItemDispenser.obj
 0001:0001e390       ?InternalGetSite@CComControlBase@ATL@@QEAAJAEBU_GUID@@PEAPEAX@Z 000000018001f390 f i ItemDispenser.obj
 0001:0001e470       ?InternalQueryInterface@CComObjectRootBase@ATL@@SAJPEAXPEBU_ATL_INTMAP_ENTRY@2@AEBU_GUID@@PEAPEAX@Z 000000018001f470 f i ItemDispenser.obj
 0001:0001e590       ?InternalRelease@?$CComObjectRootEx@VCComMultiThreadModel@ATL@@@ATL@@QEAAKXZ 000000018001f590 f i ItemDispenser.obj
 0001:0001e610       ?InternalRelease@?$CComObjectRootEx@VCComSingleThreadModel@ATL@@@ATL@@QEAAKXZ 000000018001f610 f i ItemDispenser.obj
 0001:0001e690       ?InternalSetAtIndex@?$CSimpleArray@GV?$CSimpleArrayEqualHelper@G@ATL@@@ATL@@QEAAXHAEBG@Z 000000018001f690 f i ItemDispenser.obj
 0001:0001e710       ?InternalSetAtIndex@?$CSimpleMap@PEA_WPEA_WVCExpansionVectorEqualHelper@ATL@@@ATL@@QEAAXHAEBQEA_W0@Z 000000018001f710 f i ItemDispenser.obj
 0001:0001e7e0       ?Invoke@?$IDispatchImpl@UIOPOSItemDispenser@@$1?IID_IOPOSItemDispenser@@3U_GUID@@B$1?LIBID_OposItemDispenser_CCO@@3U3@B$00$0A@VCComTypeInfoHolder@ATL@@@ATL@@UEAAJJAEBU_GUID@@KGPEAUtagDISPPARAMS@@PEAUtagVARIANT@@PEAUtagEXCEPINFO@@PEAI@Z 000000018001f7e0 f i ItemDispenser.obj
 0001:0001e880       ?Invoke@CComTypeInfoHolder@ATL@@QEAAJPEAUIDispatch@@JAEBU_GUID@@KGPEAUtagDISPPARAMS@@PEAUtagVARIANT@@PEAUtagEXCEPINFO@@PEAI@Z 000000018001f880 f i ItemDispenser.obj
 0001:0001e940       ?IsDirty@?$IPersistStorageImpl@VCOPOSItemDispenser@@@ATL@@UEAAJXZ 000000018001f940 f i ItemDispenser.obj
 0001:0001ea30       ?IsDirty@?$IPersistStreamInitImpl@VCOPOSItemDispenser@@@ATL@@UEAAJXZ 000000018001fa30 f i ItemDispenser.obj
 0001:0001eaf0       ?IsEqualKey@CExpansionVectorEqualHelper@ATL@@SA_NQEA_W0@Z 000000018001faf0 f i ItemDispenser.obj
 0001:0001eb40       ?IsEqualObject@?$CComPtrBase@UIOleClientSite@@@ATL@@QEAA_NPEAUIUnknown@@@Z 000000018001fb40 f i ItemDispenser.obj
 0001:0001ec90       ?IsEqualObject@?$CComPtrBase@UITypeInfo@@@ATL@@QEAA_NPEAUIUnknown@@@Z 000000018001fc90 f i ItemDispenser.obj
 0001:0001ede0       ?IsSpace@CRegParser@ATL@@IEAAH_W@Z 000000018001fde0 f i ItemDispenser.obj
 0001:0001ee40       ?IsUpToDate@?$IOleObjectImpl@VCOPOSItemDispenser@@@ATL@@UEAAJXZ 000000018001fe40 f i ItemDispenser.obj
 0001:0001eeb0       ?Length@CComBSTR@ATL@@QEBAIXZ 000000018001feb0 f i ItemDispenser.obj
 0001:0001eef0       ?Load@?$IPersistStorageImpl@VCOPOSItemDispenser@@@ATL@@UEAAJPEAUIStorage@@@Z 000000018001fef0 f i ItemDispenser.obj
 0001:0001f0a0       ?Load@?$IPersistStreamInitImpl@VCOPOSItemDispenser@@@ATL@@UEAAJPEAUIStream@@@Z 00000001800200a0 f i ItemDispenser.obj
 0001:0001f160       ?LoadCursorW@AtlModuleRegisterWndClassInfoParamW@ATL@@SAPEAUHICON__@@PEAUHINSTANCE__@@PEB_W@Z 0000000180020160 f i ItemDispenser.obj
 0001:0001f1a0       ?LoadNameCache@CComTypeInfoHolder@ATL@@QEAAJPEAUITypeInfo@@@Z 00000001800201a0 f i ItemDispenser.obj
 0001:0001f4e0       ?Lock@?$CComCritSecLock@VCComCriticalSection@ATL@@@ATL@@QEAAJXZ 00000001800204e0 f i ItemDispenser.obj
 0001:0001f5d0       ?Lock@?$CComObjectRootEx@VCComSingleThreadModel@ATL@@@ATL@@QEAAXXZ 00000001800205d0 f i ItemDispenser.obj
 0001:0001f5e0       ?Lock@CAtlModule@ATL@@UEAAJXZ 00000001800205e0 f i ItemDispenser.obj
 0001:0001f620       ?Lock@CComCriticalSection@ATL@@QEAAJXZ 0000000180020620 f i ItemDispenser.obj
 0001:0001f660       ?Lock@CComFakeCriticalSection@ATL@@QEAAJXZ 0000000180020660 f i ItemDispenser.obj
 0001:0001f670       ?LockServer@CComClassFactory@ATL@@UEAAJH@Z 0000000180020670 f i ItemDispenser.obj
 0001:0001f6d0       ?Lookup@?$CSimpleMap@PEA_WPEA_WVCExpansionVectorEqualHelper@ATL@@@ATL@@QEBAPEA_WAEBQEA_W@Z 00000001800206d0 f i ItemDispenser.obj
 0001:0001f730       ?Next@?$CComEnumImpl@UIEnumConnectionPoints@@$1?_GUID_b196b285_bab4_101a_b69c_00aa00341d07@@3U__s_GUID@@BPEAUIConnectionPoint@@V?$_CopyInterface@UIConnectionPoint@@@ATL@@@ATL@@UEAAJKPEAPEAUIConnectionPoint@@PEAK@Z 0000000180020730 f i ItemDispenser.obj
 0001:0001f8f0       ?Next@?$CComEnumImpl@UIEnumConnections@@$1?_GUID_b196b287_bab4_101a_b69c_00aa00341d07@@3U__s_GUID@@BUtagCONNECTDATA@@V?$_Copy@UtagCONNECTDATA@@@ATL@@@ATL@@UEAAJKPEAUtagCONNECTDATA@@PEAK@Z 00000001800208f0 f i ItemDispenser.obj
 0001:0001fab0       ?NextToken@CRegParser@ATL@@IEAAJPEA_W@Z 0000000180020ab0 f i ItemDispenser.obj
 0001:0001fe40       ?OLE2CT_EX@@YAPEB_WPEB_WI@Z 0000000180020e40 f i ItemDispenser.obj
 0001:0001fe60       ?OLE2CT_EX_DEF@@YAPEB_WPEB_W@Z 0000000180020e60 f i ItemDispenser.obj
 0001:0001fe70       ?OLE2T_EX@@YAPEA_WPEA_WI@Z 0000000180020e70 f i ItemDispenser.obj
 0001:0001fe90       ?OnAmbientPropertyChange@?$IOleControlImpl@VCOPOSItemDispenser@@@ATL@@UEAAJJ@Z 0000000180020e90 f i ItemDispenser.obj
 0001:0001ff50       ?OnDocWindowActivate@?$IOleInPlaceActiveObjectImpl@VCOPOSItemDispenser@@@ATL@@UEAAJH@Z 0000000180020f50 f i ItemDispenser.obj
 0001:00020010       ?OnDrawAdvanced@CComControlBase@ATL@@UEAAJAEAUATL_DRAWINFO@@@Z 0000000180021010 f i ItemDispenser.obj
 0001:00020260       ?OnFinalMessage@?$CWindowImplBaseT@VCWindow@ATL@@V?$CWinTraits@$0FGAAAAAA@$0A@@2@@ATL@@UEAAXPEAUHWND__@@@Z 0000000180021260 f i ItemDispenser.obj
 0001:00020270       ?OnFrameWindowActivate@?$IOleInPlaceActiveObjectImpl@VCOPOSItemDispenser@@@ATL@@UEAAJH@Z 0000000180021270 f i ItemDispenser.obj
 0001:000202e0       ?OnKillFocus@CComControlBase@ATL@@QEAA_JI_K_JAEAH@Z 00000001800212e0 f i ItemDispenser.obj
 0001:000203d0       ?OnMnemonic@?$IOleControlImpl@VCOPOSItemDispenser@@@ATL@@UEAAJPEAUtagMSG@@@Z 00000001800213d0 f i ItemDispenser.obj
 0001:00020460       ?OnMouseActivate@CComControlBase@ATL@@QEAA_JI_K_JAEAH@Z 0000000180021460 f i ItemDispenser.obj
 0001:00020600       ?OnPaint@CComControlBase@ATL@@QEAA_JI_K_JAEAH@Z 0000000180021600 f i ItemDispenser.obj
 0001:00020790       ?OnPostVerbDiscardUndo@?$IOleObjectImpl@VCOPOSItemDispenser@@@ATL@@QEAAJXZ 0000000180021790 f i ItemDispenser.obj
 0001:000207a0       ?OnPostVerbHide@?$IOleObjectImpl@VCOPOSItemDispenser@@@ATL@@QEAAJXZ 00000001800217a0 f i ItemDispenser.obj
 0001:000207b0       ?OnPostVerbInPlaceActivate@?$IOleObjectImpl@VCOPOSItemDispenser@@@ATL@@QEAAJXZ 00000001800217b0 f i ItemDispenser.obj
 0001:000207c0       ?OnPostVerbOpen@?$IOleObjectImpl@VCOPOSItemDispenser@@@ATL@@QEAAJXZ 00000001800217c0 f i ItemDispenser.obj
 0001:000207d0       ?OnPostVerbShow@?$IOleObjectImpl@VCOPOSItemDispenser@@@ATL@@QEAAJXZ 00000001800217d0 f i ItemDispenser.obj
 0001:000207e0       ?OnPostVerbUIActivate@?$IOleObjectImpl@VCOPOSItemDispenser@@@ATL@@QEAAJXZ 00000001800217e0 f i ItemDispenser.obj
 0001:000207f0       ?OnPreVerbDiscardUndo@?$IOleObjectImpl@VCOPOSItemDispenser@@@ATL@@QEAAJXZ 00000001800217f0 f i ItemDispenser.obj
 0001:00020800       ?OnPreVerbHide@?$IOleObjectImpl@VCOPOSItemDispenser@@@ATL@@QEAAJXZ 0000000180021800 f i ItemDispenser.obj
 0001:00020810       ?OnPreVerbInPlaceActivate@?$IOleObjectImpl@VCOPOSItemDispenser@@@ATL@@QEAAJXZ 0000000180021810 f i ItemDispenser.obj
 0001:00020820       ?OnPreVerbOpen@?$IOleObjectImpl@VCOPOSItemDispenser@@@ATL@@QEAAJXZ 0000000180021820 f i ItemDispenser.obj
 0001:00020830       ?OnPreVerbShow@?$IOleObjectImpl@VCOPOSItemDispenser@@@ATL@@QEAAJXZ 0000000180021830 f i ItemDispenser.obj
 0001:00020840       ?OnPreVerbUIActivate@?$IOleObjectImpl@VCOPOSItemDispenser@@@ATL@@QEAAJXZ 0000000180021840 f i ItemDispenser.obj
 0001:00020850       ?OnSetFocus@CComControlBase@ATL@@QEAA_JI_K_JAEAH@Z 0000000180021850 f i ItemDispenser.obj
 0001:00020a50       ?OnWindowMessage@?$IOleInPlaceObjectWindowlessImpl@VCOPOSItemDispenser@@@ATL@@UEAAJI_K_JPEA_J@Z 0000000180021a50 f i ItemDispenser.obj
 0001:00020c70       ?Open@CRegKey@ATL@@QEAAJPEAUHKEY__@@PEB_WK@Z 0000000180021c70 f i ItemDispenser.obj
 0001:00020df0       ?OuterAddRef@CComObjectRootBase@ATL@@QEAAKXZ 0000000180021df0 f i ItemDispenser.obj
 0001:00020e30       ?OuterQueryInterface@CComObjectRootBase@ATL@@QEAAJAEBU_GUID@@PEAPEAX@Z 0000000180021e30 f i ItemDispenser.obj
 0001:00020e80       ?OuterRelease@CComObjectRootBase@ATL@@QEAAKXZ 0000000180021e80 f i ItemDispenser.obj
 0001:00020ec0       ?PreProcessBuffer@CRegParser@ATL@@QEAAJPEA_WPEAPEA_W@Z 0000000180021ec0 f i ItemDispenser.obj
 0001:000215a0       ?PreTranslateAccelerator@CComControlBase@ATL@@QEAAHPEAUtagMSG@@AEAJ@Z 00000001800225a0 f i ItemDispenser.obj
 0001:000215c0       ?ProcessWindowMessage@?$CComControl@VCOPOSItemDispenser@@V?$CWindowImpl@VCOPOSItemDispenser@@VCWindow@ATL@@V?$CWinTraits@$0FGAAAAAA@$0A@@3@@ATL@@@ATL@@UEAAHPEAUHWND__@@I_K_JAEA_JK@Z 00000001800225c0 f i ItemDispenser.obj
 0001:00021840       ?ProcessWindowMessage@COPOSItemDispenser@@UEAAHPEAUHWND__@@I_K_JAEA_JK@Z 0000000180022840 f i ItemDispenser.obj
 0001:000219c0       ?PutProperty@?$CComPtr@UIDispatch@@@ATL@@QEAAJJPEAUtagVARIANT@@@Z 00000001800229c0 f i ItemDispenser.obj
 0001:00021a10       ?PutProperty@?$CComPtr@UIDispatch@@@ATL@@SAJPEAUIDispatch@@JPEAUtagVARIANT@@@Z 0000000180022a10 f i ItemDispenser.obj
 0001:00021cb0       ?QueryGetData@?$IDataObjectImpl@VCOPOSItemDispenser@@@ATL@@UEAAJPEAUtagFORMATETC@@@Z 0000000180022cb0 f i ItemDispenser.obj
 0001:00021d40       ?QueryHitPoint@?$IViewObjectExImpl@VCOPOSItemDispenser@@@ATL@@UEAAJKPEBUtagRECT@@UtagPOINT@@JPEAK@Z 0000000180022d40 f i ItemDispenser.obj
 0001:00021eb0       ?QueryHitRect@?$IViewObjectExImpl@VCOPOSItemDispenser@@@ATL@@UEAAJKPEBUtagRECT@@0JPEAK@Z 0000000180022eb0 f i ItemDispenser.obj
 0001:00022080       ?QueryInterface@?$CComAggObject@VCOPOSItemDispenser@@@ATL@@UEAAJAEBU_GUID@@PEAPEAX@Z 0000000180023080 f i ItemDispenser.obj
 0001:00022170       ?QueryInterface@?$CComContainedObject@VCOPOSItemDispenser@@@ATL@@UEAAJAEBU_GUID@@PEAPEAX@Z 0000000180023170 f i ItemDispenser.obj
 0001:000221bc       ?QueryInterface@?$CComContainedObject@VCOPOSItemDispenser@@@ATL@@WBAA@EAAJAEBU_GUID@@PEAPEAX@Z 00000001800231bc f i ItemDispenser.obj
 0001:000221c8       ?QueryInterface@?$CComContainedObject@VCOPOSItemDispenser@@@ATL@@WBAI@EAAJAEBU_GUID@@PEAPEAX@Z 00000001800231c8 f i ItemDispenser.obj
 0001:000221d4       ?QueryInterface@?$CComContainedObject@VCOPOSItemDispenser@@@ATL@@WBBA@EAAJAEBU_GUID@@PEAPEAX@Z 00000001800231d4 f i ItemDispenser.obj
 0001:000221e0       ?QueryInterface@?$CComContainedObject@VCOPOSItemDispenser@@@ATL@@WBBI@EAAJAEBU_GUID@@PEAPEAX@Z 00000001800231e0 f i ItemDispenser.obj
 0001:000221ec       ?QueryInterface@?$CComContainedObject@VCOPOSItemDispenser@@@ATL@@WLI@EAAJAEBU_GUID@@PEAPEAX@Z 00000001800231ec f i ItemDispenser.obj
 0001:000221f8       ?QueryInterface@?$CComContainedObject@VCOPOSItemDispenser@@@ATL@@WMA@EAAJAEBU_GUID@@PEAPEAX@Z 00000001800231f8 f i ItemDispenser.obj
 0001:00022204       ?QueryInterface@?$CComContainedObject@VCOPOSItemDispenser@@@ATL@@WMI@EAAJAEBU_GUID@@PEAPEAX@Z 0000000180023204 f i ItemDispenser.obj
 0001:00022210       ?QueryInterface@?$CComContainedObject@VCOPOSItemDispenser@@@ATL@@WNA@EAAJAEBU_GUID@@PEAPEAX@Z 0000000180023210 f i ItemDispenser.obj
 0001:0002221c       ?QueryInterface@?$CComContainedObject@VCOPOSItemDispenser@@@ATL@@WNI@EAAJAEBU_GUID@@PEAPEAX@Z 000000018002321c f i ItemDispenser.obj
 0001:00022228       ?QueryInterface@?$CComContainedObject@VCOPOSItemDispenser@@@ATL@@WOA@EAAJAEBU_GUID@@PEAPEAX@Z 0000000180023228 f i ItemDispenser.obj
 0001:00022234       ?QueryInterface@?$CComContainedObject@VCOPOSItemDispenser@@@ATL@@WOI@EAAJAEBU_GUID@@PEAPEAX@Z 0000000180023234 f i ItemDispenser.obj
 0001:00022240       ?QueryInterface@?$CComContainedObject@VCOPOSItemDispenser@@@ATL@@WPA@EAAJAEBU_GUID@@PEAPEAX@Z 0000000180023240 f i ItemDispenser.obj
 0001:0002224c       ?QueryInterface@?$CComContainedObject@VCOPOSItemDispenser@@@ATL@@WPI@EAAJAEBU_GUID@@PEAPEAX@Z 000000018002324c f i ItemDispenser.obj
 0001:00022260       ?QueryInterface@?$CComObject@V?$CComEnum@UIEnumConnectionPoints@@$1?_GUID_b196b285_bab4_101a_b69c_00aa00341d07@@3U__s_GUID@@BPEAUIConnectionPoint@@V?$_CopyInterface@UIConnectionPoint@@@ATL@@VCComSingleThreadModel@6@@ATL@@@ATL@@UEAAJAEBU_GUID@@PEAPEAX@Z 0000000180023260 f i ItemDispenser.obj
 0001:000222b0       ?QueryInterface@?$CComObject@V?$CComEnum@UIEnumConnections@@$1?_GUID_b196b287_bab4_101a_b69c_00aa00341d07@@3U__s_GUID@@BUtagCONNECTDATA@@V?$_Copy@UtagCONNECTDATA@@@ATL@@VCComSingleThreadModel@6@@ATL@@@ATL@@UEAAJAEBU_GUID@@PEAPEAX@Z 00000001800232b0 f i ItemDispenser.obj
 0001:00022300       ?QueryInterface@?$CComObject@VCOPOSItemDispenser@@@ATL@@UEAAJAEBU_GUID@@PEAPEAX@Z 0000000180023300 f i ItemDispenser.obj
 0001:00022344       ?QueryInterface@?$CComObject@VCOPOSItemDispenser@@@ATL@@WBAA@EAAJAEBU_GUID@@PEAPEAX@Z 0000000180023344 f i ItemDispenser.obj
 0001:00022350       ?QueryInterface@?$CComObject@VCOPOSItemDispenser@@@ATL@@WBAI@EAAJAEBU_GUID@@PEAPEAX@Z 0000000180023350 f i ItemDispenser.obj
 0001:0002235c       ?QueryInterface@?$CComObject@VCOPOSItemDispenser@@@ATL@@WBBA@EAAJAEBU_GUID@@PEAPEAX@Z 000000018002335c f i ItemDispenser.obj
 0001:00022368       ?QueryInterface@?$CComObject@VCOPOSItemDispenser@@@ATL@@WBBI@EAAJAEBU_GUID@@PEAPEAX@Z 0000000180023368 f i ItemDispenser.obj
 0001:00022374       ?QueryInterface@?$CComObject@VCOPOSItemDispenser@@@ATL@@WLI@EAAJAEBU_GUID@@PEAPEAX@Z 0000000180023374 f i ItemDispenser.obj
 0001:00022380       ?QueryInterface@?$CComObject@VCOPOSItemDispenser@@@ATL@@WMA@EAAJAEBU_GUID@@PEAPEAX@Z 0000000180023380 f i ItemDispenser.obj
 0001:0002238c       ?QueryInterface@?$CComObject@VCOPOSItemDispenser@@@ATL@@WMI@EAAJAEBU_GUID@@PEAPEAX@Z 000000018002338c f i ItemDispenser.obj
 0001:00022398       ?QueryInterface@?$CComObject@VCOPOSItemDispenser@@@ATL@@WNA@EAAJAEBU_GUID@@PEAPEAX@Z 0000000180023398 f i ItemDispenser.obj
 0001:000223a4       ?QueryInterface@?$CComObject@VCOPOSItemDispenser@@@ATL@@WNI@EAAJAEBU_GUID@@PEAPEAX@Z 00000001800233a4 f i ItemDispenser.obj
 0001:000223b0       ?QueryInterface@?$CComObject@VCOPOSItemDispenser@@@ATL@@WOA@EAAJAEBU_GUID@@PEAPEAX@Z 00000001800233b0 f i ItemDispenser.obj
 0001:000223bc       ?QueryInterface@?$CComObject@VCOPOSItemDispenser@@@ATL@@WOI@EAAJAEBU_GUID@@PEAPEAX@Z 00000001800233bc f i ItemDispenser.obj
 0001:000223c8       ?QueryInterface@?$CComObject@VCOPOSItemDispenser@@@ATL@@WPA@EAAJAEBU_GUID@@PEAPEAX@Z 00000001800233c8 f i ItemDispenser.obj
 0001:000223d4       ?QueryInterface@?$CComObject@VCOPOSItemDispenser@@@ATL@@WPI@EAAJAEBU_GUID@@PEAPEAX@Z 00000001800233d4 f i ItemDispenser.obj
 0001:000223e0       ?QueryInterface@?$CComObjectCached@VCComClassFactory@ATL@@@ATL@@UEAAJAEBU_GUID@@PEAPEAX@Z 00000001800233e0 f i ItemDispenser.obj
 0001:00022430       ?QueryInterface@CRegObject@ATL@@UEAAJAEBU_GUID@@PEAPEAX@Z 0000000180023430 f i ItemDispenser.obj
 0001:000224b0       ?QuickActivate@?$IQuickActivateImpl@VCOPOSItemDispenser@@@ATL@@UEAAJPEAUtagQACONTAINER@@PEAUtagQACONTROL@@@Z 00000001800234b0 f i ItemDispenser.obj
 0001:00022570       ?ReactivateAndUndo@?$IOleInPlaceObjectWindowlessImpl@VCOPOSItemDispenser@@@ATL@@UEAAJXZ 0000000180023570 f i ItemDispenser.obj
 0001:000225f0       ?ReadFromStream@CComBSTR@ATL@@QEAAJPEAUIStream@@@Z 00000001800235f0 f i ItemDispenser.obj
 0001:00022ad0       ?ReadFromStream@CComVariant@ATL@@QEAAJPEAUIStream@@GTClassesAllowedInStream@2@K@Z 0000000180023ad0 f i ItemDispenser.obj
 0001:00022f00       ?RecurseDeleteKey@CRegKey@ATL@@QEAAJPEB_W@Z 0000000180023f00 f i ItemDispenser.obj
 0001:00023120       ?RegCreateKeyExW@CAtlTransactionManager@ATL@@QEAAJPEAUHKEY__@@PEB_WKPEA_WKKQEAU_SECURITY_ATTRIBUTES@@PEAPEAU3@PEAK@Z 0000000180024120 f i ItemDispenser.obj
 0001:000232f0       ?RegDeleteKeyW@CAtlTransactionManager@ATL@@QEAAJPEAUHKEY__@@PEB_W@Z 00000001800242f0 f i ItemDispenser.obj
 0001:00023400       ?RegOpenKeyExW@CAtlTransactionManager@ATL@@QEAAJPEAUHKEY__@@PEB_WKKPEAPEAU3@@Z 0000000180024400 f i ItemDispenser.obj
 0001:00023550       ?Register@_ATL_WNDCLASSINFOW@ATL@@QEAAGPEAP6A_JPEAUHWND__@@I_K_J@Z@Z 0000000180024550 f i ItemDispenser.obj
 0001:000235a0       ?RegisterBuffer@CRegParser@ATL@@QEAAJPEA_WH@Z 00000001800245a0 f i ItemDispenser.obj
 0001:00023990       ?RegisterClassExW@AtlModuleRegisterWndClassInfoParamW@ATL@@SAGPEAU_ATL_WIN_MODULE70@2@PEBUtagWNDCLASSEXW@@@Z 0000000180024990 f i ItemDispenser.obj
 0001:000239d0       ?RegisterFromResource@CRegObject@ATL@@IEAAJPEB_W00H@Z 00000001800249d0 f i ItemDispenser.obj
 0001:00023e30       ?RegisterServer@?$CAtlModuleT@VCComModule@ATL@@@ATL@@QEAAJHPEBU_GUID@@@Z 0000000180024e30 f i ItemDispenser.obj
 0001:00023eb0       ?RegisterServer@CAtlComModule@ATL@@QEAAJHPEBU_GUID@@@Z 0000000180024eb0 f i ItemDispenser.obj
 0001:00023ef0       ?RegisterServer@CComModule@ATL@@QEAAJHPEBU_GUID@@@Z 0000000180024ef0 f i ItemDispenser.obj
 0001:00023ff0       ?RegisterSubkeys@CRegParser@ATL@@IEAAJPEA_WPEAUHKEY__@@HH@Z 0000000180024ff0 f i ItemDispenser.obj
 0001:00024dd0       ?Release@?$CComAggObject@VCOPOSItemDispenser@@@ATL@@UEAAKXZ 0000000180025dd0 f i ItemDispenser.obj
 0001:00024e80       ?Release@?$CComContainedObject@VCOPOSItemDispenser@@@ATL@@UEAAKXZ 0000000180025e80 f i ItemDispenser.obj
 0001:00024eb8       ?Release@?$CComContainedObject@VCOPOSItemDispenser@@@ATL@@WBAA@EAAKXZ 0000000180025eb8 f i ItemDispenser.obj
 0001:00024ec4       ?Release@?$CComContainedObject@VCOPOSItemDispenser@@@ATL@@WBAI@EAAKXZ 0000000180025ec4 f i ItemDispenser.obj
 0001:00024ed0       ?Release@?$CComContainedObject@VCOPOSItemDispenser@@@ATL@@WBBA@EAAKXZ 0000000180025ed0 f i ItemDispenser.obj
 0001:00024edc       ?Release@?$CComContainedObject@VCOPOSItemDispenser@@@ATL@@WBBI@EAAKXZ 0000000180025edc f i ItemDispenser.obj
 0001:00024ee8       ?Release@?$CComContainedObject@VCOPOSItemDispenser@@@ATL@@WBCI@EAAKXZ 0000000180025ee8 f i ItemDispenser.obj
 0001:00024ef4       ?Release@?$CComContainedObject@VCOPOSItemDispenser@@@ATL@@WBEA@EAAKXZ 0000000180025ef4 f i ItemDispenser.obj
 0001:00024f00       ?Release@?$CComContainedObject@VCOPOSItemDispenser@@@ATL@@WLI@EAAKXZ 0000000180025f00 f i ItemDispenser.obj
 0001:00024f0c       ?Release@?$CComContainedObject@VCOPOSItemDispenser@@@ATL@@WMA@EAAKXZ 0000000180025f0c f i ItemDispenser.obj
 0001:00024f18       ?Release@?$CComContainedObject@VCOPOSItemDispenser@@@ATL@@WMI@EAAKXZ 0000000180025f18 f i ItemDispenser.obj
 0001:00024f24       ?Release@?$CComContainedObject@VCOPOSItemDispenser@@@ATL@@WNA@EAAKXZ 0000000180025f24 f i ItemDispenser.obj
 0001:00024f30       ?Release@?$CComContainedObject@VCOPOSItemDispenser@@@ATL@@WNI@EAAKXZ 0000000180025f30 f i ItemDispenser.obj
 0001:00024f3c       ?Release@?$CComContainedObject@VCOPOSItemDispenser@@@ATL@@WOA@EAAKXZ 0000000180025f3c f i ItemDispenser.obj
 0001:00024f48       ?Release@?$CComContainedObject@VCOPOSItemDispenser@@@ATL@@WOI@EAAKXZ 0000000180025f48 f i ItemDispenser.obj
 0001:00024f54       ?Release@?$CComContainedObject@VCOPOSItemDispenser@@@ATL@@WPA@EAAKXZ 0000000180025f54 f i ItemDispenser.obj
 0001:00024f60       ?Release@?$CComContainedObject@VCOPOSItemDispenser@@@ATL@@WPI@EAAKXZ 0000000180025f60 f i ItemDispenser.obj
 0001:00024f70       ?Release@?$CComObject@V?$CComEnum@UIEnumConnectionPoints@@$1?_GUID_b196b285_bab4_101a_b69c_00aa00341d07@@3U__s_GUID@@BPEAUIConnectionPoint@@V?$_CopyInterface@UIConnectionPoint@@@ATL@@VCComSingleThreadModel@6@@ATL@@@ATL@@UEAAKXZ 0000000180025f70 f i ItemDispenser.obj
 0001:00025020       ?Release@?$CComObject@V?$CComEnum@UIEnumConnections@@$1?_GUID_b196b287_bab4_101a_b69c_00aa00341d07@@3U__s_GUID@@BUtagCONNECTDATA@@V?$_Copy@UtagCONNECTDATA@@@ATL@@VCComSingleThreadModel@6@@ATL@@@ATL@@UEAAKXZ 0000000180026020 f i ItemDispenser.obj
 0001:000250d0       ?Release@?$CComObject@VCOPOSItemDispenser@@@ATL@@UEAAKXZ 00000001800260d0 f i ItemDispenser.obj
 0001:00025188       ?Release@?$CComObject@VCOPOSItemDispenser@@@ATL@@WBAA@EAAKXZ 0000000180026188 f i ItemDispenser.obj
 0001:00025194       ?Release@?$CComObject@VCOPOSItemDispenser@@@ATL@@WBAI@EAAKXZ 0000000180026194 f i ItemDispenser.obj
 0001:000251a0       ?Release@?$CComObject@VCOPOSItemDispenser@@@ATL@@WBBA@EAAKXZ 00000001800261a0 f i ItemDispenser.obj
 0001:000251ac       ?Release@?$CComObject@VCOPOSItemDispenser@@@ATL@@WBBI@EAAKXZ 00000001800261ac f i ItemDispenser.obj
 0001:000251b8       ?Release@?$CComObject@VCOPOSItemDispenser@@@ATL@@WBCI@EAAKXZ 00000001800261b8 f i ItemDispenser.obj
 0001:000251c4       ?Release@?$CComObject@VCOPOSItemDispenser@@@ATL@@WBEA@EAAKXZ 00000001800261c4 f i ItemDispenser.obj
 0001:000251d0       ?Release@?$CComObject@VCOPOSItemDispenser@@@ATL@@WLI@EAAKXZ 00000001800261d0 f i ItemDispenser.obj
 0001:000251dc       ?Release@?$CComObject@VCOPOSItemDispenser@@@ATL@@WMA@EAAKXZ 00000001800261dc f i ItemDispenser.obj
 0001:000251e8       ?Release@?$CComObject@VCOPOSItemDispenser@@@ATL@@WMI@EAAKXZ 00000001800261e8 f i ItemDispenser.obj
 0001:000251f4       ?Release@?$CComObject@VCOPOSItemDispenser@@@ATL@@WNA@EAAKXZ 00000001800261f4 f i ItemDispenser.obj
 0001:00025200       ?Release@?$CComObject@VCOPOSItemDispenser@@@ATL@@WNI@EAAKXZ 0000000180026200 f i ItemDispenser.obj
 0001:0002520c       ?Release@?$CComObject@VCOPOSItemDispenser@@@ATL@@WOA@EAAKXZ 000000018002620c f i ItemDispenser.obj
 0001:00025218       ?Release@?$CComObject@VCOPOSItemDispenser@@@ATL@@WOI@EAAKXZ 0000000180026218 f i ItemDispenser.obj
 0001:00025224       ?Release@?$CComObject@VCOPOSItemDispenser@@@ATL@@WPA@EAAKXZ 0000000180026224 f i ItemDispenser.obj
 0001:00025230       ?Release@?$CComObject@VCOPOSItemDispenser@@@ATL@@WPI@EAAKXZ 0000000180026230 f i ItemDispenser.obj
 0001:00025240       ?Release@?$CComObjectCached@VCComClassFactory@ATL@@@ATL@@UEAAKXZ 0000000180026240 f i ItemDispenser.obj
 0001:000252e0       ?Release@?$CComPtrBase@UIAdviseSink@@@ATL@@QEAAXXZ 00000001800262e0 f i ItemDispenser.obj
 0001:00025340       ?Release@?$CComPtrBase@UIDispatch@@@ATL@@QEAAXXZ 0000000180026340 f i ItemDispenser.obj
 0001:000253a0       ?Release@?$CComPtrBase@UIOleInPlaceSiteWindowless@@@ATL@@QEAAXXZ 00000001800263a0 f i ItemDispenser.obj
 0001:00025400       ?Release@CRegObject@ATL@@UEAAKXZ 0000000180026400 f i ItemDispenser.obj
 0001:00025470       ?Remove@CComDynamicUnkArray@ATL@@QEAAHK@Z 0000000180026470 f i ItemDispenser.obj
 0001:00025550       ?RemoveAll@?$CSimpleMap@PEA_WPEA_WVCExpansionVectorEqualHelper@ATL@@@ATL@@QEAAXXZ 0000000180026550 f i ItemDispenser.obj
 0001:000255f0       ?Reset@?$CComEnumImpl@UIEnumConnectionPoints@@$1?_GUID_b196b285_bab4_101a_b69c_00aa00341d07@@3U__s_GUID@@BPEAUIConnectionPoint@@V?$_CopyInterface@UIConnectionPoint@@@ATL@@@ATL@@UEAAJXZ 00000001800265f0 f i ItemDispenser.obj
 0001:00025610       ?Reset@?$CComEnumImpl@UIEnumConnections@@$1?_GUID_b196b287_bab4_101a_b69c_00aa00341d07@@3U__s_GUID@@BUtagCONNECTDATA@@V?$_Copy@UtagCONNECTDATA@@@ATL@@@ATL@@UEAAJXZ 0000000180026610 f i ItemDispenser.obj
 0001:00025630       ?ResizeBorder@?$IOleInPlaceActiveObjectImpl@VCOPOSItemDispenser@@@ATL@@UEAAJPEBUtagRECT@@PEAUIOleInPlaceUIWindow@@H@Z 0000000180026630 f i ItemDispenser.obj
 0001:000256b0       ?ResourceRegister@CRegObject@ATL@@QEAAJPEB_WI0@Z 00000001800266b0 f i ItemDispenser.obj
 0001:00025790       ?ResourceRegisterSz@CRegObject@ATL@@QEAAJPEB_W00@Z 0000000180026790 f i ItemDispenser.obj
 0001:000258b0       ?ResourceUnregister@CRegObject@ATL@@QEAAJPEB_WI0@Z 00000001800268b0 f i ItemDispenser.obj
 0001:00025990       ?ResourceUnregisterSz@CRegObject@ATL@@QEAAJPEB_W00@Z 0000000180026990 f i ItemDispenser.obj
 0001:00025ab0       ?SODataDummy@COPOSItemDispenser@@MEAAJJ@Z 0000000180026ab0 f i ItemDispenser.obj
 0001:00025ad0       ?SODirectIO@COPOSItemDispenser@@MEAAJJPEAJPEAPEA_W@Z 0000000180026ad0 f i ItemDispenser.obj
 0001:00025d10       ?SOErrorDummy@COPOSItemDispenser@@MEAAJJJJPEAJ@Z 0000000180026d10 f i ItemDispenser.obj
 0001:00025d30       ?SOOutputCompleteDummy@COPOSItemDispenser@@MEAAJJ@Z 0000000180026d30 f i ItemDispenser.obj
 0001:00025d50       ?SOStatusUpdate@COPOSItemDispenser@@MEAAJJ@Z 0000000180026d50 f i ItemDispenser.obj
 0001:00025df0       ?Save@?$IPersistStorageImpl@VCOPOSItemDispenser@@@ATL@@UEAAJPEAUIStorage@@H@Z 0000000180026df0 f i ItemDispenser.obj
 0001:00025fb0       ?Save@?$IPersistStreamInitImpl@VCOPOSItemDispenser@@@ATL@@UEAAJPEAUIStream@@H@Z 0000000180026fb0 f i ItemDispenser.obj
 0001:00026070       ?SaveCompleted@?$IPersistStorageImpl@VCOPOSItemDispenser@@@ATL@@UEAAJPEAUIStorage@@@Z 0000000180027070 f i ItemDispenser.obj
 0001:000260e0       ?SendOnDataChange@CComControlBase@ATL@@QEAAJK@Z 00000001800270e0 f i ItemDispenser.obj
 0001:000261d0       ?SendOnSave@CComControlBase@ATL@@QEAAJXZ 00000001800271d0 f i ItemDispenser.obj
 0001:00026240       ?SendOnViewChange@CComControlBase@ATL@@QEAAJKJ@Z 0000000180027240 f i ItemDispenser.obj
 0001:000262c0       ?SetAdvise@?$IViewObjectExImpl@VCOPOSItemDispenser@@@ATL@@UEAAJKKPEAUIAdviseSink@@@Z 00000001800272c0 f i ItemDispenser.obj
 0001:00026380       ?SetClientSite@?$IOleObjectImpl@VCOPOSItemDispenser@@@ATL@@UEAAJPEAUIOleClientSite@@@Z 0000000180027380 f i ItemDispenser.obj
 0001:00026430       ?SetColorScheme@?$IOleObjectImpl@VCOPOSItemDispenser@@@ATL@@UEAAJPEAUtagLOGPALETTE@@@Z 0000000180027430 f i ItemDispenser.obj
 0001:000264c0       ?SetContentExtent@?$IQuickActivateImpl@VCOPOSItemDispenser@@@ATL@@UEAAJPEAUtagSIZE@@@Z 00000001800274c0 f i ItemDispenser.obj
 0001:00026580       ?SetControlFocus@CComControlBase@ATL@@QEAAHH@Z 0000000180027580 f i ItemDispenser.obj
 0001:00026710       ?SetDWORDValue@CRegKey@ATL@@QEAAJPEB_WK@Z 0000000180027710 f i ItemDispenser.obj
 0001:000267c0       ?SetData@?$IDataObjectImpl@VCOPOSItemDispenser@@@ATL@@UEAAJPEAUtagFORMATETC@@PEAUtagSTGMEDIUM@@H@Z 00000001800277c0 f i ItemDispenser.obj
 0001:00026850       ?SetExtent@?$IOleObjectImpl@VCOPOSItemDispenser@@@ATL@@UEAAJKPEAUtagSIZE@@@Z 0000000180027850 f i ItemDispenser.obj
 0001:00026910       ?SetHostNames@?$IOleObjectImpl@VCOPOSItemDispenser@@@ATL@@UEAAJPEB_W0@Z 0000000180027910 f i ItemDispenser.obj
 0001:00026990       ?SetInterfaceSafetyOptions@?$IObjectSafetyImpl@VCOPOSItemDispenser@@$02@ATL@@UEAAJAEBU_GUID@@KK@Z 0000000180027990 f i ItemDispenser.obj
 0001:00026b30       ?SetMoniker@?$IOleObjectImpl@VCOPOSItemDispenser@@@ATL@@UEAAJKPEAUIMoniker@@@Z 0000000180027b30 f i ItemDispenser.obj
 0001:00026bc0       ?SetMultiStringValue@CRegKey@ATL@@QEAAJPEB_W0@Z 0000000180027bc0 f i ItemDispenser.obj
 0001:00026d30       ?SetObjectRects@?$IOleInPlaceObjectWindowlessImpl@VCOPOSItemDispenser@@@ATL@@UEAAJPEBUtagRECT@@0@Z 0000000180027d30 f i ItemDispenser.obj
 0001:00026df0       ?SetStringValue@CRegKey@ATL@@QEAAJPEB_W0K@Z 0000000180027df0 f i ItemDispenser.obj
 0001:00026f70       ?SetVoid@CComClassFactory@ATL@@QEAAXPEAX@Z 0000000180027f70 f i ItemDispenser.obj
 0001:00026f90       ?SetVoid@CComObjectRootBase@ATL@@QEAAXPEAX@Z 0000000180027f90 f i ItemDispenser.obj
 0001:00026fa0       ?ShowWindow@CWindow@ATL@@QEAAHH@Z 0000000180027fa0 f i ItemDispenser.obj
 0001:00027030       ?Skip@?$CComEnumImpl@UIEnumConnectionPoints@@$1?_GUID_b196b285_bab4_101a_b69c_00aa00341d07@@3U__s_GUID@@BPEAUIConnectionPoint@@V?$_CopyInterface@UIConnectionPoint@@@ATL@@@ATL@@UEAAJK@Z 0000000180028030 f i ItemDispenser.obj
 0001:000270d0       ?Skip@?$CComEnumImpl@UIEnumConnections@@$1?_GUID_b196b287_bab4_101a_b69c_00aa00341d07@@3U__s_GUID@@BUtagCONNECTDATA@@V?$_Copy@UtagCONNECTDATA@@@ATL@@@ATL@@UEAAJK@Z 00000001800280d0 f i ItemDispenser.obj
 0001:00027170       ?SkipAssignment@CRegParser@ATL@@IEAAJPEA_W@Z 0000000180028170 f i ItemDispenser.obj
 0001:00027270       ?SkipWhiteSpace@CRegParser@ATL@@IEAAXXZ 0000000180028270 f i ItemDispenser.obj
 0001:000272d0       ?StartWindowProc@?$CWindowImplBaseT@VCWindow@ATL@@V?$CWinTraits@$0FGAAAAAA@$0A@@2@@ATL@@SA_JPEAUHWND__@@I_K_J@Z 00000001800282d0 f i ItemDispenser.obj
 0001:00027440       ?StrChrW@CRegParser@ATL@@KAPEA_WPEA_W_W@Z 0000000180028440 f i ItemDispenser.obj
 0001:000274c0       ?StrFromMap@CRegObject@ATL@@QEAAPEB_WPEA_W@Z 00000001800284c0 f i ItemDispenser.obj
 0001:00027580       ?Swap@?$CComPtrBase@UIAdviseSink@@@ATL@@IEAAXAEAV12@@Z 0000000180028580 f i ItemDispenser.obj
 0001:000275e0       ?Swap@?$CComPtrBase@UIOleClientSite@@@ATL@@IEAAXAEAV12@@Z 00000001800285e0 f i ItemDispenser.obj
 0001:00027640       ?Swap@?$CComPtrBase@UIUnknown@@@ATL@@IEAAXAEAV12@@Z 0000000180028640 f i ItemDispenser.obj
 0001:000276a0       ?T2COLE_EX@@YAPEB_WPEB_WI@Z 00000001800286a0 f i ItemDispenser.obj
 0001:000276c0       ?T2OLE_EX@@YAPEA_WPEA_WI@Z 00000001800286c0 f i ItemDispenser.obj
 0001:000276e0       ?Term@CAtlModule@ATL@@QEAAXXZ 00000001800286e0 f i ItemDispenser.obj
 0001:000277a0       ?Term@CComModule@ATL@@QEAAXXZ 00000001800287a0 f i ItemDispenser.obj
 0001:00027890       ?TranslateAcceleratorW@?$IOleInPlaceActiveObjectImpl@VCOPOSItemDispenser@@@ATL@@UEAAJPEAUtagMSG@@@Z 0000000180028890 f i ItemDispenser.obj
 0001:00027b00       ?UIDeactivate@?$IOleInPlaceObjectWindowlessImpl@VCOPOSItemDispenser@@@ATL@@UEAAJXZ 0000000180028b00 f i ItemDispenser.obj
 0001:00027bb0       ?Unadvise@?$CProxy_IOPOSEvents@VCOPOSItemDispenser@@@@UEAAJK@Z 0000000180028bb0 f i ItemDispenser.obj
 0001:00027c00       ?Unadvise@?$IConnectionPointImpl@VCOPOSItemDispenser@@$1?DIID__IOPOSItemDispenserEvents@@3U_GUID@@BVCComDynamicUnkArray@ATL@@@ATL@@UEAAJK@Z 0000000180028c00 f i ItemDispenser.obj
 0001:00027cf0       ?Unadvise@?$IConnectionPointImpl@VCOPOSItemDispenser@@$1?IID_IPropertyNotifySink@@3U_GUID@@BVCComDynamicUnkArray@ATL@@@ATL@@UEAAJK@Z 0000000180028cf0 f i ItemDispenser.obj
 0001:00027de0       ?Unadvise@?$IOleObjectImpl@VCOPOSItemDispenser@@@ATL@@UEAAJK@Z 0000000180028de0 f i ItemDispenser.obj
 0001:00027ed0       ?Unfreeze@?$IViewObjectExImpl@VCOPOSItemDispenser@@@ATL@@UEAAJK@Z 0000000180028ed0 f i ItemDispenser.obj
 0001:00027f50       ?Unlock@?$CComCritSecLock@VCComCriticalSection@ATL@@@ATL@@QEAAXXZ 0000000180028f50 f i ItemDispenser.obj
 0001:00027fe0       ?Unlock@?$CComObjectRootEx@VCComSingleThreadModel@ATL@@@ATL@@QEAAXXZ 0000000180028fe0 f i ItemDispenser.obj
 0001:00027ff0       ?Unlock@CAtlModule@ATL@@UEAAJXZ 0000000180028ff0 f i ItemDispenser.obj
 0001:00028030       ?Unlock@CComCriticalSection@ATL@@QEAAJXZ 0000000180029030 f i ItemDispenser.obj
 0001:00028070       ?Unlock@CComFakeCriticalSection@ATL@@QEAAJXZ 0000000180029070 f i ItemDispenser.obj
 0001:00028080       ?UnregisterServer@?$CAtlModuleT@VCComModule@ATL@@@ATL@@QEAAJHPEBU_GUID@@@Z 0000000180029080 f i ItemDispenser.obj
 0001:000280f0       ?UnregisterServer@CAtlComModule@ATL@@QEAAJHPEBU_GUID@@@Z 00000001800290f0 f i ItemDispenser.obj
 0001:00028130       ?UnregisterServer@CComModule@ATL@@QEAAJHPEBU_GUID@@@Z 0000000180029130 f i ItemDispenser.obj
 0001:00028220       ?Update@?$IOleObjectImpl@VCOPOSItemDispenser@@@ATL@@UEAAJXZ 0000000180029220 f i ItemDispenser.obj
 0001:00028290       ?UpdateRegistryFromResource@CAtlModule@ATL@@QEAAJIHPEAU_ATL_REGMAP_ENTRY@2@@Z 0000000180029290 f i ItemDispenser.obj
 0001:000287c0       ?UpdateRegistryFromResource@CAtlModule@ATL@@QEAAJPEB_WHPEAU_ATL_REGMAP_ENTRY@2@@Z 00000001800297c0 f i ItemDispenser.obj
 0001:00028d10       ?UpdateRegistryFromResource@CComModule@ATL@@UEAAJIHPEAU_ATL_REGMAP_ENTRY@2@@Z 0000000180029d10 f i ItemDispenser.obj
 0001:00028d60       ?UpdateRegistryFromResource@CComModule@ATL@@UEAAJPEB_WHPEAU_ATL_REGMAP_ENTRY@2@@Z 0000000180029d60 f i ItemDispenser.obj
 0001:00028db0       ?UpdateRegistryFromResourceD@CComModule@ATL@@UEAAJIHPEAU_ATL_REGMAP_ENTRY@2@@Z 0000000180029db0 f i ItemDispenser.obj
 0001:00028dd0       ?UpdateRegistryFromResourceD@CComModule@ATL@@UEAAJPEB_WHPEAU_ATL_REGMAP_ENTRY@2@@Z 0000000180029dd0 f i ItemDispenser.obj
 0001:00028df0       ?VTFromRegType@CRegParser@ATL@@KAHPEB_WAEAG@Z 0000000180029df0 f i ItemDispenser.obj
 0001:00028ed0       ?WindowProc@?$CWindowImplBaseT@VCWindow@ATL@@V?$CWinTraits@$0FGAAAAAA@$0A@@2@@ATL@@SA_JPEAUHWND__@@I_K_J@Z 0000000180029ed0 f i ItemDispenser.obj
 0001:000291b0       ?WriteToStream@CComBSTR@ATL@@QEAAJPEAUIStream@@@Z 000000018002a1b0 f i ItemDispenser.obj
 0001:00029320       ?WriteToStream@CComVariant@ATL@@QEAAJPEAUIStream@@@Z 000000018002a320 f i ItemDispenser.obj
 0001:00029730       ?WriteToStream@CComVariant@ATL@@QEAAJPEAUIStream@@G@Z 000000018002a730 f i ItemDispenser.obj
 0001:00029810       ?_AtlFinalConstruct@CComObjectRootBase@ATL@@QEAAJXZ 000000018002a810 f i ItemDispenser.obj
 0001:00029820       ?_AtlGetConversionACP@ATL@@YAIXZ 000000018002a820 f i ItemDispenser.obj
 0001:00029830       ?_AtlInitialConstruct@?$CComAggObject@VCOPOSItemDispenser@@@ATL@@QEAAJXZ 000000018002a830 f i ItemDispenser.obj
 0001:00029890       ?_AtlInitialConstruct@?$CComObjectRootEx@VCComMultiThreadModel@ATL@@@ATL@@QEAAJXZ 000000018002a890 f i ItemDispenser.obj
 0001:000298d0       ?_AtlInitialConstruct@?$CComObjectRootEx@VCComSingleThreadModel@ATL@@@ATL@@QEAAJXZ 000000018002a8d0 f i ItemDispenser.obj
 0001:000298e0       ?_AtlVerifyStackAvailable@_ATL_SAFE_ALLOCA_IMPL@ATL@@YA_N_K@Z 000000018002a8e0 f i ItemDispenser.obj
 0001:00029a40       ?_GetEntries@?$CComEnum@UIEnumConnectionPoints@@$1?_GUID_b196b285_bab4_101a_b69c_00aa00341d07@@3U__s_GUID@@BPEAUIConnectionPoint@@V?$_CopyInterface@UIConnectionPoint@@@ATL@@VCComSingleThreadModel@6@@ATL@@SAPEBU_ATL_INTMAP_ENTRY@2@XZ 000000018002aa40 f i ItemDispenser.obj
 0001:00029a60       ?_GetEntries@?$CComEnum@UIEnumConnections@@$1?_GUID_b196b287_bab4_101a_b69c_00aa00341d07@@3U__s_GUID@@BUtagCONNECTDATA@@V?$_Copy@UtagCONNECTDATA@@@ATL@@VCComSingleThreadModel@6@@ATL@@SAPEBU_ATL_INTMAP_ENTRY@2@XZ 000000018002aa60 f i ItemDispenser.obj
 0001:00029a80       ?_GetEntries@CComClassFactory@ATL@@SAPEBU_ATL_INTMAP_ENTRY@2@XZ 000000018002aa80 f i ItemDispenser.obj
 0001:00029aa0       ?_GetEntries@COPOSItemDispenser@@SAPEBU_ATL_INTMAP_ENTRY@ATL@@XZ 000000018002aaa0 f i ItemDispenser.obj
 0001:00029ac0       ?_GetRawUnknown@COPOSItemDispenser@@QEAAPEAUIUnknown@@XZ 000000018002aac0 f i ItemDispenser.obj
 0001:00029b50       ?_GetViewStatus@COPOSItemDispenser@@QEAAKXZ 000000018002ab50 f i ItemDispenser.obj
 0001:00029b60       ?_InternalQueryInterface@?$CComEnum@UIEnumConnectionPoints@@$1?_GUID_b196b285_bab4_101a_b69c_00aa00341d07@@3U__s_GUID@@BPEAUIConnectionPoint@@V?$_CopyInterface@UIConnectionPoint@@@ATL@@VCComSingleThreadModel@6@@ATL@@QEAAJAEBU_GUID@@PEAPEAX@Z 000000018002ab60 f i ItemDispenser.obj
 0001:00029bb0       ?_InternalQueryInterface@?$CComEnum@UIEnumConnections@@$1?_GUID_b196b287_bab4_101a_b69c_00aa00341d07@@3U__s_GUID@@BUtagCONNECTDATA@@V?$_Copy@UtagCONNECTDATA@@@ATL@@VCComSingleThreadModel@6@@ATL@@QEAAJAEBU_GUID@@PEAPEAX@Z 000000018002abb0 f i ItemDispenser.obj
 0001:00029c00       ?_InternalQueryInterface@CComClassFactory@ATL@@QEAAJAEBU_GUID@@PEAPEAX@Z 000000018002ac00 f i ItemDispenser.obj
 0001:00029c50       ?_InternalQueryInterface@COPOSItemDispenser@@QEAAJAEBU_GUID@@PEAPEAX@Z 000000018002ac50 f i ItemDispenser.obj
 0001:00029ca0       ?_LocCPQueryInterface@?$IConnectionPointImpl@VCOPOSItemDispenser@@$1?DIID__IOPOSItemDispenserEvents@@3U_GUID@@BVCComDynamicUnkArray@ATL@@@ATL@@UEAAJAEBU_GUID@@PEAPEAX@Z 000000018002aca0 f i ItemDispenser.obj
 0001:00029d80       ?_LocCPQueryInterface@?$IConnectionPointImpl@VCOPOSItemDispenser@@$1?IID_IPropertyNotifySink@@3U_GUID@@BVCComDynamicUnkArray@ATL@@@ATL@@UEAAJAEBU_GUID@@PEAPEAX@Z 000000018002ad80 f i ItemDispenser.obj
 0001:00029e60       ?atlCreate@?$CWindowImpl@VCOPOSItemDispenser@@VCWindow@ATL@@V?$CWinTraits@$0FGAAAAAA@$0A@@3@@ATL@@QEAAPEAUHWND__@@PEAU3@V_U_RECT@2@PEB_WKKV_U_MENUorID@2@PEAX@Z 000000018002ae60 f i ItemDispenser.obj
 0001:00029f90       ?atlCreate@?$CWindowImplBaseT@VCWindow@ATL@@V?$CWinTraits@$0FGAAAAAA@$0A@@2@@ATL@@QEAAPEAUHWND__@@PEAU3@V_U_RECT@2@PEB_WKKV_U_MENUorID@2@GPEAX@Z 000000018002af90 f i ItemDispenser.obj
 0001:0002a1f0       ?atlCreate@CRegKey@ATL@@QEAAJPEAUHKEY__@@PEB_WPEA_WKKPEAU_SECURITY_ATTRIBUTES@@PEAK@Z 000000018002b1f0 f i ItemDispenser.obj
 0001:0002a3e0       ?begin@CComDynamicUnkArray@ATL@@QEAAPEAPEAUIUnknown@@XZ 000000018002b3e0 f i ItemDispenser.obj
 0001:0002a3f0       ?copy@?$_Copy@UtagCONNECTDATA@@@ATL@@SAJPEAUtagCONNECTDATA@@PEBU3@@Z 000000018002b3f0 f i ItemDispenser.obj
 0001:0002a4e0       ?copy@?$_CopyInterface@UIConnectionPoint@@@ATL@@SAJPEAPEAUIConnectionPoint@@PEBQEAU3@@Z 000000018002b4e0 f i ItemDispenser.obj
 0001:0002a5d0       ?destroy@?$_Copy@UtagCONNECTDATA@@@ATL@@SAXPEAUtagCONNECTDATA@@@Z 000000018002b5d0 f i ItemDispenser.obj
 0001:0002a620       ?destroy@?$_CopyInterface@UIConnectionPoint@@@ATL@@SAXPEAPEAUIConnectionPoint@@@Z 000000018002b620 f i ItemDispenser.obj
 0001:0002a670       ?end@CComDynamicUnkArray@ATL@@QEAAPEAPEAUIUnknown@@XZ 000000018002b670 f i ItemDispenser.obj
 0001:0002a690       ?init@?$_Copy@UtagCONNECTDATA@@@ATL@@SAXPEAUtagCONNECTDATA@@@Z 000000018002b690 f i ItemDispenser.obj
 0001:0002a6a0       ?init@?$_CopyInterface@UIConnectionPoint@@@ATL@@SAXPEAPEAUIConnectionPoint@@@Z 000000018002b6a0 f i ItemDispenser.obj
 0001:0002a6b0       ?memcpy_s@Checked@ATL@@YAXPEAX_KPEBX1@Z 000000018002b6b0 f i ItemDispenser.obj
 0001:0002a710       ?ocscpy_s@@YA_NPEA_W_KPEB_W@Z 000000018002b710 f i ItemDispenser.obj
 0001:0002a790       ?ocslen@@YAHPEB_W@Z        000000018002b790 f i ItemDispenser.obj
 0001:0002a7d0       ?tcsncpy_s@Checked@ATL@@YAHPEA_W_KPEB_W1@Z 000000018002b7d0 f i ItemDispenser.obj
 0001:0002a830       ?wcscat_s@Checked@ATL@@YAXPEA_W_KPEB_W@Z 000000018002b830 f i ItemDispenser.obj
 0001:0002a880       ?wcscpy_s@Checked@ATL@@YAXPEA_W_KPEB_W@Z 000000018002b880 f i ItemDispenser.obj
 0001:0002a8d0       ?wcsncpy_s@Checked@ATL@@YAHPEA_W_KPEB_W1@Z 000000018002b8d0 f i ItemDispenser.obj
 0001:0002a930       ?wcsstr@@YAPEA_WPEA_WPEB_W@Z 000000018002b930 f i ItemDispenser.obj
 0001:0002a970       InlineIsEqualGUID          000000018002b970 f i ItemDispenser.obj
 0001:0002aa40       IsEqualGUID                000000018002ba40 f i ItemDispenser.obj
 0001:0002aaa0       ??0COPOSItemDispenser@@QEAA@XZ 000000018002baa0 f   ItemDispenserImpl.obj
 0001:0002ac20       ?FinalConstruct@COPOSItemDispenser@@QEAAJXZ 000000018002bc20 f   ItemDispenserImpl.obj
 0001:0002ad10       ??1COPOSItemDispenser@@UEAA@XZ 000000018002bd10 f   ItemDispenserImpl.obj
 0001:0002adf0       ?WriteTrace@COPOSItemDispenser@@QEAAXPEB_WZZ 000000018002bdf0 f   ItemDispenserImpl.obj
 0001:0002aeb0       ?WriteTraceString@COPOSItemDispenser@@QEAAXPEB_WPEA_W@Z 000000018002beb0 f   ItemDispenserImpl.obj
 0001:0002b2f0       ?WriteTraceString@COPOSItemDispenser@@QEAAXPEAXHHHPEB_WZZ 000000018002c2f0 f   ItemDispenserImpl.obj
 0001:0002b580       ?WriteTraceError@COPOSItemDispenser@@QEAAXPEB_WK@Z 000000018002c580 f   ItemDispenserImpl.obj
 0001:0002b680       ?WriteTraceMethods@COPOSItemDispenser@@QEAAXPEAJH@Z 000000018002c680 f   ItemDispenserImpl.obj
 0001:0002b710       ?GetOposProp@COPOSItemDispenser@@IEAAJPEBDJPEAJJ@Z 000000018002c710 f   ItemDispenserImpl.obj
 0001:0002ba30       ?SetOposProp@COPOSItemDispenser@@IEAAJPEBDJJJ@Z 000000018002ca30 f   ItemDispenserImpl.obj
 0001:0002bd90       ?GetOposProp@COPOSItemDispenser@@IEAAJPEBDJPEAFJ@Z 000000018002cd90 f   ItemDispenserImpl.obj
 0001:0002be30       ?SetOposProp@COPOSItemDispenser@@IEAAJPEBDJFJ@Z 000000018002ce30 f   ItemDispenserImpl.obj
 0001:0002beb0       ?GetOposProp@COPOSItemDispenser@@IEAAJPEBDJPEAPEA_WJ@Z 000000018002ceb0 f   ItemDispenserImpl.obj
 0001:0002c1d0       ?SetOposProp@COPOSItemDispenser@@IEAAJPEBDJPEA_WJ@Z 000000018002d1d0 f   ItemDispenserImpl.obj
 0001:0002c5b0       ?DoInvoke@COPOSItemDispenser@@IEAAJPEBDJPEAVOposVariant@@IHPEAJ_N@Z 000000018002d5b0 f   ItemDispenserImpl.obj
 0001:0002d100       ?SetCOFreezeEvents@COPOSItemDispenser@@IEAAXF@Z 000000018002e100 f   ItemDispenserImpl.obj
 0001:0002d290       ?FreezeEvents@COPOSItemDispenser@@MEAAJH@Z 000000018002e290 f   ItemDispenserImpl.obj
 0001:0002d3c0       ?OnDraw@COPOSItemDispenser@@MEAAJAEAUATL_DRAWINFO@@@Z 000000018002e3c0 f   ItemDispenserImpl.obj
 0001:0002d590       ?SOProcessID@COPOSItemDispenser@@UEAAJPEAJ@Z 000000018002e590 f   ItemDispenserImpl.obj
 0001:0002d5f0       ?get_OpenResult@COPOSItemDispenser@@UEAAJPEAJ@Z 000000018002e5f0 f   ItemDispenserImpl.obj
 0001:0002d650       ?get_BinaryConversion@COPOSItemDispenser@@UEAAJPEAJ@Z 000000018002e650 f   ItemDispenserImpl.obj
 0001:0002d6b0       ?put_BinaryConversion@COPOSItemDispenser@@UEAAJJ@Z 000000018002e6b0 f   ItemDispenserImpl.obj
 0001:0002d720       ?get_CapPowerReporting@COPOSItemDispenser@@UEAAJPEAJ@Z 000000018002e720 f   ItemDispenserImpl.obj
 0001:0002d780       ?get_CheckHealthText@COPOSItemDispenser@@UEAAJPEAPEA_W@Z 000000018002e780 f   ItemDispenserImpl.obj
 0001:0002d7e0       ?get_Claimed@COPOSItemDispenser@@UEAAJPEAF@Z 000000018002e7e0 f   ItemDispenserImpl.obj
 0001:0002d840       ?get_DeviceEnabled@COPOSItemDispenser@@UEAAJPEAF@Z 000000018002e840 f   ItemDispenserImpl.obj
 0001:0002d8a0       ?put_DeviceEnabled@COPOSItemDispenser@@UEAAJF@Z 000000018002e8a0 f   ItemDispenserImpl.obj
 0001:0002d900       ?get_FreezeEvents@COPOSItemDispenser@@UEAAJPEAF@Z 000000018002e900 f   ItemDispenserImpl.obj
 0001:0002d960       ?put_FreezeEvents@COPOSItemDispenser@@UEAAJF@Z 000000018002e960 f   ItemDispenserImpl.obj
 0001:0002da40       ?get_PowerNotify@COPOSItemDispenser@@UEAAJPEAJ@Z 000000018002ea40 f   ItemDispenserImpl.obj
 0001:0002daa0       ?put_PowerNotify@COPOSItemDispenser@@UEAAJJ@Z 000000018002eaa0 f   ItemDispenserImpl.obj
 0001:0002db00       ?get_PowerState@COPOSItemDispenser@@UEAAJPEAJ@Z 000000018002eb00 f   ItemDispenserImpl.obj
 0001:0002db60       ?get_ResultCode@COPOSItemDispenser@@UEAAJPEAJ@Z 000000018002eb60 f   ItemDispenserImpl.obj
 0001:0002dc30       ?get_ResultCodeExtended@COPOSItemDispenser@@UEAAJPEAJ@Z 000000018002ec30 f   ItemDispenserImpl.obj
 0001:0002dc90       ?get_State@COPOSItemDispenser@@UEAAJPEAJ@Z 000000018002ec90 f   ItemDispenserImpl.obj
 0001:0002dd20       ?get_ControlObjectDescription@COPOSItemDispenser@@UEAAJPEAPEA_W@Z 000000018002ed20 f   ItemDispenserImpl.obj
 0001:0002dda0       ?get_ControlObjectVersion@COPOSItemDispenser@@UEAAJPEAJ@Z 000000018002eda0 f   ItemDispenserImpl.obj
 0001:0002de00       ?get_ServiceObjectDescription@COPOSItemDispenser@@UEAAJPEAPEA_W@Z 000000018002ee00 f   ItemDispenserImpl.obj
 0001:0002de60       ?get_ServiceObjectVersion@COPOSItemDispenser@@UEAAJPEAJ@Z 000000018002ee60 f   ItemDispenserImpl.obj
 0001:0002dec0       ?get_DeviceDescription@COPOSItemDispenser@@UEAAJPEAPEA_W@Z 000000018002eec0 f   ItemDispenserImpl.obj
 0001:0002df20       ?get_DeviceName@COPOSItemDispenser@@UEAAJPEAPEA_W@Z 000000018002ef20 f   ItemDispenserImpl.obj
 0001:0002df80       ?get_CapStatisticsReporting@COPOSItemDispenser@@UEAAJPEAF@Z 000000018002ef80 f   ItemDispenserImpl.obj
 0001:0002dfe0       ?get_CapUpdateStatistics@COPOSItemDispenser@@UEAAJPEAF@Z 000000018002efe0 f   ItemDispenserImpl.obj
 0001:0002e040       ?get_CapCompareFirmwareVersion@COPOSItemDispenser@@UEAAJPEAF@Z 000000018002f040 f   ItemDispenserImpl.obj
 0001:0002e0a0       ?get_CapUpdateFirmware@COPOSItemDispenser@@UEAAJPEAF@Z 000000018002f0a0 f   ItemDispenserImpl.obj
 0001:0002e100       ?CheckHealth@COPOSItemDispenser@@UEAAJJPEAJ@Z 000000018002f100 f   ItemDispenserImpl.obj
 0001:0002e1c0       ?ClaimDevice@COPOSItemDispenser@@UEAAJJPEAJ@Z 000000018002f1c0 f   ItemDispenserImpl.obj
 0001:0002e2e0       ?Close@COPOSItemDispenser@@UEAAJPEAJ@Z 000000018002f2e0 f   ItemDispenserImpl.obj
 0001:0002e3f0       ?DirectIO@COPOSItemDispenser@@UEAAJJPEAJPEAPEA_W0@Z 000000018002f3f0 f   ItemDispenserImpl.obj
 0001:0002e570       ?Open@COPOSItemDispenser@@UEAAJPEA_WPEAJ@Z 000000018002f570 f   ItemDispenserImpl.obj
 0001:0002fa50       ?ReleaseDevice@COPOSItemDispenser@@UEAAJPEAJ@Z 0000000180030a50 f   ItemDispenserImpl.obj
 0001:0002fb00       ?ResetStatistics@COPOSItemDispenser@@UEAAJPEA_WPEAJ@Z 0000000180030b00 f   ItemDispenserImpl.obj
 0001:0002fbe0       ?RetrieveStatistics@COPOSItemDispenser@@UEAAJPEAPEA_WPEAJ@Z 0000000180030be0 f   ItemDispenserImpl.obj
 0001:0002fcc0       ?UpdateStatistics@COPOSItemDispenser@@UEAAJPEA_WPEAJ@Z 0000000180030cc0 f   ItemDispenserImpl.obj
 0001:0002fda0       ?CompareFirmwareVersion@COPOSItemDispenser@@UEAAJPEA_WPEAJ1@Z 0000000180030da0 f   ItemDispenserImpl.obj
 0001:0002fee0       ?UpdateFirmware@COPOSItemDispenser@@UEAAJPEA_WPEAJ@Z 0000000180030ee0 f   ItemDispenserImpl.obj
 0001:0002ffc0       ?get_CapEmptySensor@COPOSItemDispenser@@UEAAJPEAF@Z 0000000180030fc0 f   ItemDispenserImpl.obj
 0001:00030020       ?get_CapIndividualSlotStatus@COPOSItemDispenser@@UEAAJPEAF@Z 0000000180031020 f   ItemDispenserImpl.obj
 0001:00030080       ?get_CapJamSensor@COPOSItemDispenser@@UEAAJPEAF@Z 0000000180031080 f   ItemDispenserImpl.obj
 0001:000300e0       ?get_CapNearEmptySensor@COPOSItemDispenser@@UEAAJPEAF@Z 00000001800310e0 f   ItemDispenserImpl.obj
 0001:00030140       ?get_DispenserStatus@COPOSItemDispenser@@UEAAJPEAJ@Z 0000000180031140 f   ItemDispenserImpl.obj
 0001:000301a0       ?get_MaxSlots@COPOSItemDispenser@@UEAAJPEAJ@Z 00000001800311a0 f   ItemDispenserImpl.obj
 0001:00030200       ?AdjustItemCount@COPOSItemDispenser@@UEAAJJJPEAJ@Z 0000000180031200 f   ItemDispenserImpl.obj
 0001:00030320       ?DispenseItem@COPOSItemDispenser@@UEAAJPEAJJ0@Z 0000000180031320 f   ItemDispenserImpl.obj
 0001:00030450       ?ReadItemCount@COPOSItemDispenser@@UEAAJPEAJJ0@Z 0000000180031450 f   ItemDispenserImpl.obj
 0001:00030580       ??0?$CComControl@VCOPOSItemDispenser@@V?$CWindowImpl@VCOPOSItemDispenser@@VCWindow@ATL@@V?$CWinTraits@$0FGAAAAAA@$0A@@3@@ATL@@@ATL@@QEAA@XZ 0000000180031580 f i ItemDispenserImpl.obj
 0001:000305d0       ??0?$CComPtr@UIAdviseSink@@@ATL@@QEAA@XZ 00000001800315d0 f i ItemDispenserImpl.obj
 0001:00030610       ??0?$CComPtr@UIDataAdviseHolder@@@ATL@@QEAA@XZ 0000000180031610 f i ItemDispenserImpl.obj
 0001:00030650       ??0?$CComPtr@UIOleAdviseHolder@@@ATL@@QEAA@XZ 0000000180031650 f i ItemDispenserImpl.obj
 0001:00030690       ??0?$CComPtr@UIOleClientSite@@@ATL@@QEAA@XZ 0000000180031690 f i ItemDispenserImpl.obj
 0001:000306d0       ??0?$CComPtr@UIOleInPlaceSiteWindowless@@@ATL@@QEAA@XZ 00000001800316d0 f i ItemDispenserImpl.obj
 0001:00030710       ??0?$CComPtrBase@UIAdviseSink@@@ATL@@IEAA@XZ 0000000180031710 f i ItemDispenserImpl.obj
 0001:00030730       ??0?$CComPtrBase@UIDataAdviseHolder@@@ATL@@IEAA@XZ 0000000180031730 f i ItemDispenserImpl.obj
 0001:00030750       ??0?$CComPtrBase@UIOleAdviseHolder@@@ATL@@IEAA@XZ 0000000180031750 f i ItemDispenserImpl.obj
 0001:00030770       ??0?$CComPtrBase@UIOleClientSite@@@ATL@@IEAA@XZ 0000000180031770 f i ItemDispenserImpl.obj
 0001:00030790       ??0?$CComPtrBase@UIOleInPlaceSiteWindowless@@@ATL@@IEAA@XZ 0000000180031790 f i ItemDispenserImpl.obj
 0001:000307b0       ??0?$CComQIPtr@UIDispatch@@$1?_GUID_00020400_0000_0000_c000_000000000046@@3U__s_GUID@@B@ATL@@QEAA@XZ 00000001800317b0 f i ItemDispenserImpl.obj
 0001:000307f0       ??0?$CProxy_IOPOSEvents@VCOPOSItemDispenser@@@@QEAA@PEAVCOPOSItemDispenser@@@Z 00000001800317f0 f i ItemDispenserImpl.obj
 0001:00030860       ??0?$CWindowImpl@VCOPOSItemDispenser@@VCWindow@ATL@@V?$CWinTraits@$0FGAAAAAA@$0A@@3@@ATL@@QEAA@XZ 0000000180031860 f i ItemDispenserImpl.obj
 0001:000308a0       ??0?$CWindowImplBaseT@VCWindow@ATL@@V?$CWinTraits@$0FGAAAAAA@$0A@@2@@ATL@@QEAA@XZ 00000001800318a0 f i ItemDispenserImpl.obj
 0001:000308f0       ??0?$CWindowImplRoot@VCWindow@ATL@@@ATL@@QEAA@XZ 00000001800318f0 f i ItemDispenserImpl.obj
 0001:00030960       ??0?$IConnectionPointContainerImpl@VCOPOSItemDispenser@@@ATL@@QEAA@XZ 0000000180031960 f i ItemDispenserImpl.obj
 0001:000309a0       ??0?$IConnectionPointImpl@VCOPOSItemDispenser@@$1?DIID__IOPOSItemDispenserEvents@@3U_GUID@@BVCComDynamicUnkArray@ATL@@@ATL@@QEAA@XZ 00000001800319a0 f i ItemDispenserImpl.obj
 0001:000309f0       ??0?$IConnectionPointImpl@VCOPOSItemDispenser@@$1?IID_IPropertyNotifySink@@3U_GUID@@BVCComDynamicUnkArray@ATL@@@ATL@@QEAA@XZ 00000001800319f0 f i ItemDispenserImpl.obj
 0001:00030a40       ??0?$IDataObjectImpl@VCOPOSItemDispenser@@@ATL@@QEAA@XZ 0000000180031a40 f i ItemDispenserImpl.obj
 0001:00030a80       ??0?$IDispatchImpl@UIOPOSItemDispenser@@$1?IID_IOPOSItemDispenser@@3U_GUID@@B$1?LIBID_OposItemDispenser_CCO@@3U3@B$00$0A@VCComTypeInfoHolder@ATL@@@ATL@@QEAA@XZ 0000000180031a80 f i ItemDispenserImpl.obj
 0001:00030ac0       ??0?$IObjectSafetyImpl@VCOPOSItemDispenser@@$02@ATL@@QEAA@XZ 0000000180031ac0 f i ItemDispenserImpl.obj
 0001:00030b00       ??0?$IOleControlImpl@VCOPOSItemDispenser@@@ATL@@QEAA@XZ 0000000180031b00 f i ItemDispenserImpl.obj
 0001:00030b40       ??0?$IOleInPlaceActiveObjectImpl@VCOPOSItemDispenser@@@ATL@@QEAA@XZ 0000000180031b40 f i ItemDispenserImpl.obj
 0001:00030b80       ??0?$IOleInPlaceObjectWindowlessImpl@VCOPOSItemDispenser@@@ATL@@QEAA@XZ 0000000180031b80 f i ItemDispenserImpl.obj
 0001:00030bc0       ??0?$IOleObjectImpl@VCOPOSItemDispenser@@@ATL@@QEAA@XZ 0000000180031bc0 f i ItemDispenserImpl.obj
 0001:00030c00       ??0?$IPersistStorageImpl@VCOPOSItemDispenser@@@ATL@@QEAA@XZ 0000000180031c00 f i ItemDispenserImpl.obj
 0001:00030c40       ??0?$IPersistStreamInitImpl@VCOPOSItemDispenser@@@ATL@@QEAA@XZ 0000000180031c40 f i ItemDispenserImpl.obj
 0001:00030c80       ??0?$IPropertyNotifySinkCP@VCOPOSItemDispenser@@VCComDynamicUnkArray@ATL@@@ATL@@QEAA@XZ 0000000180031c80 f i ItemDispenserImpl.obj
 0001:00030cc0       ??0?$IProvideClassInfo2Impl@$1?CLSID_OPOSItemDispenser@@3U_GUID@@B$1?DIID__IOPOSItemDispenserEvents@@3U2@B$1?LIBID_OposItemDispenser_CCO@@3U2@B$00$0A@VCComTypeInfoHolder@ATL@@@ATL@@QEAA@XZ 0000000180031cc0 f i ItemDispenserImpl.obj
 0001:00030d00       ??0?$IQuickActivateImpl@VCOPOSItemDispenser@@@ATL@@QEAA@XZ 0000000180031d00 f i ItemDispenserImpl.obj
 0001:00030d40       ??0?$ISpecifyPropertyPagesImpl@VCOPOSItemDispenser@@@ATL@@QEAA@XZ 0000000180031d40 f i ItemDispenserImpl.obj
 0001:00030d80       ??0?$IViewObjectExImpl@VCOPOSItemDispenser@@@ATL@@QEAA@XZ 0000000180031d80 f i ItemDispenserImpl.obj
 0001:00030dc0       ??0?$_ICPLocator@$1?DIID__IOPOSItemDispenserEvents@@3U_GUID@@B@ATL@@QEAA@XZ 0000000180031dc0 f i ItemDispenserImpl.obj
 0001:00030dd0       ??0?$_ICPLocator@$1?IID_IPropertyNotifySink@@3U_GUID@@B@ATL@@QEAA@XZ 0000000180031dd0 f i ItemDispenserImpl.obj
 0001:00030de0       ??0CComControlBase@ATL@@QEAA@AEAPEAUHWND__@@@Z 0000000180031de0 f i ItemDispenserImpl.obj
 0001:00031000       ??0CComDynamicUnkArray@ATL@@QEAA@XZ 0000000180032000 f i ItemDispenserImpl.obj
 0001:00031030       ??0CDynamicStdCallThunk2@ATL@@QEAA@XZ 0000000180032030 f i ItemDispenserImpl.obj
 0001:00031050       ??0CMessageMap@ATL@@QEAA@XZ 0000000180032050 f i ItemDispenserImpl.obj
 0001:00031060       ??0CWindow@ATL@@QEAA@PEAUHWND__@@@Z 0000000180032060 f i ItemDispenserImpl.obj
 0001:00031080       ??0CWndProcThunk@ATL@@QEAA@XZ 0000000180032080 f i ItemDispenserImpl.obj
 0001:000310c0       ??0IConnectionPointContainer@@QEAA@XZ 00000001800320c0 f i ItemDispenserImpl.obj
 0001:00031100       ??0IDataObject@@QEAA@XZ    0000000180032100 f i ItemDispenserImpl.obj
 0001:00031140       ??0IDispatch@@QEAA@XZ      0000000180032140 f i ItemDispenserImpl.obj
 0001:00031180       ??0IOPOSItemDispenser@@QEAA@XZ 0000000180032180 f i ItemDispenserImpl.obj
 0001:000311c0       ??0IOPOSItemDispenser_1_12@@QEAA@XZ 00000001800321c0 f i ItemDispenserImpl.obj
 0001:00031200       ??0IObjectSafety@@QEAA@XZ  0000000180032200 f i ItemDispenserImpl.obj
 0001:00031240       ??0IOleControl@@QEAA@XZ    0000000180032240 f i ItemDispenserImpl.obj
 0001:00031280       ??0IOleInPlaceActiveObject@@QEAA@XZ 0000000180032280 f i ItemDispenserImpl.obj
 0001:000312c0       ??0IOleInPlaceObject@@QEAA@XZ 00000001800322c0 f i ItemDispenserImpl.obj
 0001:00031300       ??0IOleInPlaceObjectWindowless@@QEAA@XZ 0000000180032300 f i ItemDispenserImpl.obj
 0001:00031340       ??0IOleObject@@QEAA@XZ     0000000180032340 f i ItemDispenserImpl.obj
 0001:00031380       ??0IOleWindow@@QEAA@XZ     0000000180032380 f i ItemDispenserImpl.obj
 0001:000313c0       ??0IPersist@@QEAA@XZ       00000001800323c0 f i ItemDispenserImpl.obj
 0001:00031400       ??0IPersistStorage@@QEAA@XZ 0000000180032400 f i ItemDispenserImpl.obj
 0001:00031440       ??0IPersistStreamInit@@QEAA@XZ 0000000180032440 f i ItemDispenserImpl.obj
 0001:00031480       ??0IProvideClassInfo2@@QEAA@XZ 0000000180032480 f i ItemDispenserImpl.obj
 0001:000314c0       ??0IProvideClassInfo@@QEAA@XZ 00000001800324c0 f i ItemDispenserImpl.obj
 0001:00031500       ??0IQuickActivate@@QEAA@XZ 0000000180032500 f i ItemDispenserImpl.obj
 0001:00031540       ??0ISpecifyPropertyPages@@QEAA@XZ 0000000180032540 f i ItemDispenserImpl.obj
 0001:00031580       ??0IViewObject2@@QEAA@XZ   0000000180032580 f i ItemDispenserImpl.obj
 0001:000315c0       ??0IViewObject@@QEAA@XZ    00000001800325c0 f i ItemDispenserImpl.obj
 0001:00031600       ??0IViewObjectEx@@QEAA@XZ  0000000180032600 f i ItemDispenserImpl.obj
 0001:00031640       ??0OposVariantResult@@QEAA@XZ 0000000180032640 f i ItemDispenserImpl.obj
 0001:00031680       ??0_CW@@QEAA@PEBD@Z        0000000180032680 f i ItemDispenserImpl.obj
 0001:000316d0       ??0_CW@@QEAA@PEB_W@Z       00000001800326d0 f i ItemDispenserImpl.obj
 0001:00031720       ??0_CWNCC@@QEAA@PEBD@Z     0000000180032720 f i ItemDispenserImpl.obj
 0001:00031760       ??1?$CComControl@VCOPOSItemDispenser@@V?$CWindowImpl@VCOPOSItemDispenser@@VCWindow@ATL@@V?$CWinTraits@$0FGAAAAAA@$0A@@3@@ATL@@@ATL@@UEAA@XZ 0000000180032760 f i ItemDispenserImpl.obj
 0001:000317a0       ??1?$CComPtr@UIDataAdviseHolder@@@ATL@@QEAA@XZ 00000001800327a0 f i ItemDispenserImpl.obj
 0001:000317d0       ??1?$CComPtr@UIOleAdviseHolder@@@ATL@@QEAA@XZ 00000001800327d0 f i ItemDispenserImpl.obj
 0001:00031800       ??1?$CComPtr@UIOleInPlaceSiteWindowless@@@ATL@@QEAA@XZ 0000000180032800 f i ItemDispenserImpl.obj
 0001:00031830       ??1?$CComPtrBase@UIDataAdviseHolder@@@ATL@@QEAA@XZ 0000000180032830 f i ItemDispenserImpl.obj
 0001:00031880       ??1?$CComPtrBase@UIOleAdviseHolder@@@ATL@@QEAA@XZ 0000000180032880 f i ItemDispenserImpl.obj
 0001:000318d0       ??1?$CComPtrBase@UIOleInPlaceSiteWindowless@@@ATL@@QEAA@XZ 00000001800328d0 f i ItemDispenserImpl.obj
 0001:00031920       ??1?$CComQIPtr@UIDispatch@@$1?_GUID_00020400_0000_0000_c000_000000000046@@3U__s_GUID@@B@ATL@@QEAA@XZ 0000000180032920 f i ItemDispenserImpl.obj
 0001:00031950       ??1?$CProxy_IOPOSEvents@VCOPOSItemDispenser@@@@QEAA@XZ 0000000180032950 f i ItemDispenserImpl.obj
 0001:00031980       ??1?$CWindowImpl@VCOPOSItemDispenser@@VCWindow@ATL@@V?$CWinTraits@$0FGAAAAAA@$0A@@3@@ATL@@UEAA@XZ 0000000180032980 f i ItemDispenserImpl.obj
 0001:000319b0       ??1?$CWindowImplBaseT@VCWindow@ATL@@V?$CWinTraits@$0FGAAAAAA@$0A@@2@@ATL@@UEAA@XZ 00000001800329b0 f i ItemDispenserImpl.obj
 0001:000319e0       ??1?$CWindowImplRoot@VCWindow@ATL@@@ATL@@UEAA@XZ 00000001800329e0 f i ItemDispenserImpl.obj
 0001:00031aa0       ??1?$IConnectionPointImpl@VCOPOSItemDispenser@@$1?DIID__IOPOSItemDispenserEvents@@3U_GUID@@BVCComDynamicUnkArray@ATL@@@ATL@@QEAA@XZ 0000000180032aa0 f i ItemDispenserImpl.obj
 0001:00031b40       ??1?$IConnectionPointImpl@VCOPOSItemDispenser@@$1?IID_IPropertyNotifySink@@3U_GUID@@BVCComDynamicUnkArray@ATL@@@ATL@@QEAA@XZ 0000000180032b40 f i ItemDispenserImpl.obj
 0001:00031be0       ??1?$IPropertyNotifySinkCP@VCOPOSItemDispenser@@VCComDynamicUnkArray@ATL@@@ATL@@QEAA@XZ 0000000180032be0 f i ItemDispenserImpl.obj
 0001:00031c10       ??1CComControlBase@ATL@@UEAA@XZ 0000000180032c10 f i ItemDispenserImpl.obj
 0001:00031d00       ??1CComDynamicUnkArray@ATL@@QEAA@XZ 0000000180032d00 f i ItemDispenserImpl.obj
 0001:00031d40       ??1CDynamicStdCallThunk2@ATL@@QEAA@XZ 0000000180032d40 f i ItemDispenserImpl.obj
 0001:00031d80       ??1CWndProcThunk@ATL@@QEAA@XZ 0000000180032d80 f i ItemDispenserImpl.obj
 0001:00031dc0       ??1OposVariantResult@@QEAA@XZ 0000000180032dc0 f i ItemDispenserImpl.obj
 0001:00031e00       ??1_CW@@QEAA@XZ            0000000180032e00 f i ItemDispenserImpl.obj
 0001:00031e80       ??1_CWNCC@@QEAA@XZ         0000000180032e80 f i ItemDispenserImpl.obj
 0001:00031eb0       ??B_CW@@QEAAPEB_WXZ        0000000180032eb0 f i ItemDispenserImpl.obj
 0001:00031f00       ??B_CWNCC@@QEAAPEA_WXZ     0000000180032f00 f i ItemDispenserImpl.obj
 0001:00031f30       ??_EOposVariant@@QEAAPEAXI@Z 0000000180032f30 f i ItemDispenserImpl.obj
 0001:00031fe0       ?EventClaim@COPOSItemDispenser@@IEAAXXZ 0000000180032fe0 f i ItemDispenserImpl.obj
 0001:00032030       ?EventClose@COPOSItemDispenser@@IEAAXXZ 0000000180033030 f i ItemDispenserImpl.obj
 0001:000320d0       ?EventInit@COPOSItemDispenser@@IEAAJXZ 00000001800330d0 f i ItemDispenserImpl.obj
 0001:00032380       ?EventOpen@COPOSItemDispenser@@IEAAXXZ 0000000180033380 f i ItemDispenserImpl.obj
 0001:000323c0       ?EventPreCloseRelease@COPOSItemDispenser@@IEAAXXZ 00000001800333c0 f i ItemDispenserImpl.obj
 0001:00032440       ?EventUninit@COPOSItemDispenser@@IEAAXXZ 0000000180033440 f i ItemDispenserImpl.obj
 0001:00032570       ?EventWindowProc@COPOSItemDispenser@@IEAA_JI_K_J@Z 0000000180033570 f i ItemDispenserImpl.obj
 0001:00032670       ?FireEventCleanup@COPOSItemDispenser@@IEAAXXZ 0000000180033670 f i ItemDispenserImpl.obj
 0001:000326c0       ?FireEventSetup@COPOSItemDispenser@@IEAA_NXZ 00000001800336c0 f i ItemDispenserImpl.obj
 0001:00032740       ?GetModuleInstance@CComModule@ATL@@QEAAPEAUHINSTANCE__@@XZ 0000000180033740 f i ItemDispenserImpl.obj
 0001:00032750       ?SetRC@COPOSItemDispenser@@IEAAJJ@Z 0000000180033750 f i ItemDispenserImpl.obj
 0001:00032770       ?s_EventWindowProc@COPOSItemDispenser@@KA_JPEAUHWND__@@I_K_J@Z 0000000180033770 f i ItemDispenserImpl.obj
 0001:00032820       _snwprintf                 0000000180033820 f i ItemDispenserImpl.obj
 0001:000328b0       _vfwprintf_l               00000001800338b0 f i ItemDispenserImpl.obj
 0001:00032910       _vsnwprintf                0000000180033910 f i ItemDispenserImpl.obj
 0001:00032970       _vsnwprintf_l              0000000180033970 f i ItemDispenserImpl.obj
 0001:00032a00       vfwprintf                  0000000180033a00 f i ItemDispenserImpl.obj
 0001:00032a45       DebugBreak                 0000000180033a45 f   kernel32:KERNEL32.dll
 0001:00032a4b       Sleep                      0000000180033a4b f   kernel32:KERNEL32.dll
 0001:00032a51       GetCurrentProcess          0000000180033a51 f   kernel32:KERNEL32.dll
 0001:00032a57       TerminateProcess           0000000180033a57 f   kernel32:KERNEL32.dll
 0001:00032a5d       MultiByteToWideChar        0000000180033a5d f   kernel32:KERNEL32.dll
 0001:00032a63       WideCharToMultiByte        0000000180033a63 f   kernel32:KERNEL32.dll
 0001:00032a69       DecodePointer              0000000180033a69 f   kernel32:KERNEL32.dll
 0001:00032a6f       RaiseException             0000000180033a6f f   kernel32:KERNEL32.dll
 0001:00032a75       GetLastError               0000000180033a75 f   kernel32:KERNEL32.dll
 0001:00032a7b       SetLastError               0000000180033a7b f   kernel32:KERNEL32.dll
 0001:00032a81       InitializeCriticalSectionEx 0000000180033a81 f   kernel32:KERNEL32.dll
 0001:00032a87       DeleteCriticalSection      0000000180033a87 f   kernel32:KERNEL32.dll
 0001:00032a8d       EncodePointer              0000000180033a8d f   kernel32:KERNEL32.dll
 0001:00032a93       EnterCriticalSection       0000000180033a93 f   kernel32:KERNEL32.dll
 0001:00032a99       LeaveCriticalSection       0000000180033a99 f   kernel32:KERNEL32.dll
 0001:00032a9f       ResetEvent                 0000000180033a9f f   kernel32:KERNEL32.dll
 0001:00032aa5       ReleaseMutex               0000000180033aa5 f   kernel32:KERNEL32.dll
 0001:00032aab       WaitForSingleObject        0000000180033aab f   kernel32:KERNEL32.dll
 0001:00032ab1       GetCurrentThreadId         0000000180033ab1 f   kernel32:KERNEL32.dll
 0001:00032ab7       DisableThreadLibraryCalls  0000000180033ab7 f   kernel32:KERNEL32.dll
 0001:00032abd       FreeLibrary                0000000180033abd f   kernel32:KERNEL32.dll
 0001:00032ac3       GetModuleFileNameW         0000000180033ac3 f   kernel32:KERNEL32.dll
 0001:00032ac9       GetModuleHandleW           0000000180033ac9 f   kernel32:KERNEL32.dll
 0001:00032acf       GetProcAddress             0000000180033acf f   kernel32:KERNEL32.dll
 0001:00032ad5       LoadLibraryExW             0000000180033ad5 f   kernel32:KERNEL32.dll
 0001:00032adb       LoadResource               0000000180033adb f   kernel32:KERNEL32.dll
 0001:00032ae1       SizeofResource             0000000180033ae1 f   kernel32:KERNEL32.dll
 0001:00032ae7       FindResourceW              0000000180033ae7 f   kernel32:KERNEL32.dll
 0001:00032aed       GlobalAlloc                0000000180033aed f   kernel32:KERNEL32.dll
 0001:00032af3       GlobalUnlock               0000000180033af3 f   kernel32:KERNEL32.dll
 0001:00032af9       GlobalLock                 0000000180033af9 f   kernel32:KERNEL32.dll
 0001:00032aff       MulDiv                     0000000180033aff f   kernel32:KERNEL32.dll
 0001:00032b05       lstrcmpiW                  0000000180033b05 f   kernel32:KERNEL32.dll
 0001:00032b0b       DeleteFileW                0000000180033b0b f   kernel32:KERNEL32.dll
 0001:00032b11       CloseHandle                0000000180033b11 f   kernel32:KERNEL32.dll
 0001:00032b17       SetEvent                   0000000180033b17 f   kernel32:KERNEL32.dll
 0001:00032b1d       CreateMutexW               0000000180033b1d f   kernel32:KERNEL32.dll
 0001:00032b23       CreateEventW               0000000180033b23 f   kernel32:KERNEL32.dll
 0001:00032b29       GetCurrentProcessId        0000000180033b29 f   kernel32:KERNEL32.dll
 0001:00032b2f       LocalFree                  0000000180033b2f f   kernel32:KERNEL32.dll
 0001:00032b35       FormatMessageW             0000000180033b35 f   kernel32:KERNEL32.dll
 0001:00032b3b       GetActiveWindow            0000000180033b3b f   user32:USER32.dll
 0001:00032b41       MessageBoxW                0000000180033b41 f   user32:USER32.dll
 0001:00032b47       UnregisterClassW           0000000180033b47 f   user32:USER32.dll
 0001:00032b4d       PostMessageW               0000000180033b4d f   user32:USER32.dll
 0001:00032b53       DefWindowProcW             0000000180033b53 f   user32:USER32.dll
 0001:00032b59       CallWindowProcW            0000000180033b59 f   user32:USER32.dll
 0001:00032b5f       RegisterClassExW           0000000180033b5f f   user32:USER32.dll
 0001:00032b65       GetClassInfoExW            0000000180033b65 f   user32:USER32.dll
 0001:00032b6b       CreateWindowExW            0000000180033b6b f   user32:USER32.dll
 0001:00032b71       IsWindow                   0000000180033b71 f   user32:USER32.dll
 0001:00032b77       IsChild                    0000000180033b77 f   user32:USER32.dll
 0001:00032b7d       DestroyWindow              0000000180033b7d f   user32:USER32.dll
 0001:00032b83       ShowWindow                 0000000180033b83 f   user32:USER32.dll
 0001:00032b89       SetWindowPos               0000000180033b89 f   user32:USER32.dll
 0001:00032b8f       CharNextW                  0000000180033b8f f   user32:USER32.dll
 0001:00032b95       SetFocus                   0000000180033b95 f   user32:USER32.dll
 0001:00032b9b       GetFocus                   0000000180033b9b f   user32:USER32.dll
 0001:00032ba1       GetKeyState                0000000180033ba1 f   user32:USER32.dll
 0001:00032ba7       GetDC                      0000000180033ba7 f   user32:USER32.dll
 0001:00032bad       ReleaseDC                  0000000180033bad f   user32:USER32.dll
 0001:00032bb3       BeginPaint                 0000000180033bb3 f   user32:USER32.dll
 0001:00032bb9       EndPaint                   0000000180033bb9 f   user32:USER32.dll
 0001:00032bbf       SetWindowRgn               0000000180033bbf f   user32:USER32.dll
 0001:00032bc5       InvalidateRect             0000000180033bc5 f   user32:USER32.dll
 0001:00032bcb       GetClientRect              0000000180033bcb f   user32:USER32.dll
 0001:00032bd1       IntersectRect              0000000180033bd1 f   user32:USER32.dll
 0001:00032bd7       UnionRect                  0000000180033bd7 f   user32:USER32.dll
 0001:00032bdd       OffsetRect                 0000000180033bdd f   user32:USER32.dll
 0001:00032be3       EqualRect                  0000000180033be3 f   user32:USER32.dll
 0001:00032be9       PtInRect                   0000000180033be9 f   user32:USER32.dll
 0001:00032bef       GetWindowLongPtrW          0000000180033bef f   user32:USER32.dll
 0001:00032bf5       SetWindowLongPtrW          0000000180033bf5 f   user32:USER32.dll
 0001:00032bfb       GetParent                  0000000180033bfb f   user32:USER32.dll
 0001:00032c01       LoadCursorW                0000000180033c01 f   user32:USER32.dll
 0001:00032c07       PeekMessageW               0000000180033c07 f   user32:USER32.dll
 0001:00032c0d       RegisterClassW             0000000180033c0d f   user32:USER32.dll
 0001:00032c13       LoadBitmapW                0000000180033c13 f   user32:USER32.dll
 0001:00032c19       CloseMetaFile              0000000180033c19 f   gdi32:GDI32.dll
 0001:00032c1f       CreateDCW                  0000000180033c1f f   gdi32:GDI32.dll
 0001:00032c25       CreateMetaFileW            0000000180033c25 f   gdi32:GDI32.dll
 0001:00032c2b       CreateRectRgnIndirect      0000000180033c2b f   gdi32:GDI32.dll
 0001:00032c31       DeleteDC                   0000000180033c31 f   gdi32:GDI32.dll
 0001:00032c37       DeleteMetaFile             0000000180033c37 f   gdi32:GDI32.dll
 0001:00032c3d       GetDeviceCaps              0000000180033c3d f   gdi32:GDI32.dll
 0001:00032c43       RestoreDC                  0000000180033c43 f   gdi32:GDI32.dll
 0001:00032c49       SaveDC                     0000000180033c49 f   gdi32:GDI32.dll
 0001:00032c4f       SetMapMode                 0000000180033c4f f   gdi32:GDI32.dll
 0001:00032c55       LPtoDP                     0000000180033c55 f   gdi32:GDI32.dll
 0001:00032c5b       SetViewportOrgEx           0000000180033c5b f   gdi32:GDI32.dll
 0001:00032c61       SetWindowExtEx             0000000180033c61 f   gdi32:GDI32.dll
 0001:00032c67       SetWindowOrgEx             0000000180033c67 f   gdi32:GDI32.dll
 0001:00032c6d       BitBlt                     0000000180033c6d f   gdi32:GDI32.dll
 0001:00032c73       CreateCompatibleDC         0000000180033c73 f   gdi32:GDI32.dll
 0001:00032c79       DeleteObject               0000000180033c79 f   gdi32:GDI32.dll
 0001:00032c7f       SelectObject               0000000180033c7f f   gdi32:GDI32.dll
 0001:00032c85       GetObjectW                 0000000180033c85 f   gdi32:GDI32.dll
 0001:00032c8b       RegCloseKey                0000000180033c8b f   advapi32:ADVAPI32.dll
 0001:00032c91       RegCreateKeyExW            0000000180033c91 f   advapi32:ADVAPI32.dll
 0001:00032c97       RegDeleteKeyW              0000000180033c97 f   advapi32:ADVAPI32.dll
 0001:00032c9d       RegDeleteValueW            0000000180033c9d f   advapi32:ADVAPI32.dll
 0001:00032ca3       RegEnumKeyExW              0000000180033ca3 f   advapi32:ADVAPI32.dll
 0001:00032ca9       RegOpenKeyExW              0000000180033ca9 f   advapi32:ADVAPI32.dll
 0001:00032caf       RegQueryInfoKeyW           0000000180033caf f   advapi32:ADVAPI32.dll
 0001:00032cb5       RegSetValueExW             0000000180033cb5 f   advapi32:ADVAPI32.dll
 0001:00032cbb       RegQueryValueExW           0000000180033cbb f   advapi32:ADVAPI32.dll
 0001:00032cc1       CoCreateInstance           0000000180033cc1 f   ole32:ole32.dll
 0001:00032cc7       StringFromGUID2            0000000180033cc7 f   ole32:ole32.dll
 0001:00032ccd       CoTaskMemAlloc             0000000180033ccd f   ole32:ole32.dll
 0001:00032cd3       CoTaskMemRealloc           0000000180033cd3 f   ole32:ole32.dll
 0001:00032cd9       CoTaskMemFree              0000000180033cd9 f   ole32:ole32.dll
 0001:00032cdf       ReadClassStm               0000000180033cdf f   ole32:ole32.dll
 0001:00032ce5       WriteClassStm              0000000180033ce5 f   ole32:ole32.dll
 0001:00032ceb       CreateDataAdviseHolder     0000000180033ceb f   ole32:ole32.dll
 0001:00032cf1       OleSaveToStream            0000000180033cf1 f   ole32:ole32.dll
 0001:00032cf7       CreateOleAdviseHolder      0000000180033cf7 f   ole32:ole32.dll
 0001:00032cfd       OleRegGetUserType          0000000180033cfd f   ole32:ole32.dll
 0001:00032d03       OleRegGetMiscStatus        0000000180033d03 f   ole32:ole32.dll
 0001:00032d09       OleRegEnumVerbs            0000000180033d09 f   ole32:ole32.dll
 0001:00032d0f       CLSIDFromProgID            0000000180033d0f f   ole32:ole32.dll
 0001:00032d15       SysAllocString             0000000180033d15 f   oleaut32:OLEAUT32.dll
 0001:00032d1b       SysAllocStringLen          0000000180033d1b f   oleaut32:OLEAUT32.dll
 0001:00032d21       SysFreeString              0000000180033d21 f   oleaut32:OLEAUT32.dll
 0001:00032d27       SysStringLen               0000000180033d27 f   oleaut32:OLEAUT32.dll
 0001:00032d2d       VariantClear               0000000180033d2d f   oleaut32:OLEAUT32.dll
 0001:00032d33       VariantCopyInd             0000000180033d33 f   oleaut32:OLEAUT32.dll
 0001:00032d39       VariantChangeType          0000000180033d39 f   oleaut32:OLEAUT32.dll
 0001:00032d3f       SysStringByteLen           0000000180033d3f f   oleaut32:OLEAUT32.dll
 0001:00032d45       SysAllocStringByteLen      0000000180033d45 f   oleaut32:OLEAUT32.dll
 0001:00032d4b       VariantInit                0000000180033d4b f   oleaut32:OLEAUT32.dll
 0001:00032d51       VarUI4FromStr              0000000180033d51 f   oleaut32:OLEAUT32.dll
 0001:00032d57       LoadTypeLib                0000000180033d57 f   oleaut32:OLEAUT32.dll
 0001:00032d5d       LoadRegTypeLib             0000000180033d5d f   oleaut32:OLEAUT32.dll
 0001:00032d63       RegisterTypeLib            0000000180033d63 f   oleaut32:OLEAUT32.dll
 0001:00032d69       UnRegisterTypeLib          0000000180033d69 f   oleaut32:OLEAUT32.dll
 0001:00032d6f       OleCreatePropertyFrame     0000000180033d6f f   oleaut32:OLEAUT32.dll
 0001:00032d80       _RTC_AllocaHelper          0000000180033d80 f   LIBCMTD:stack.obj
 0001:00032dc0       _RTC_CheckStackVars        0000000180033dc0 f   LIBCMTD:stack.obj
 0001:00032e50       _RTC_CheckStackVars2       0000000180033e50 f   LIBCMTD:stack.obj
 0001:00032f60       _CRT_RTC_INIT              0000000180033f60 f   LIBCMTD:init.obj
 0001:00032f70       _CRT_RTC_INITW             0000000180033f70 f   LIBCMTD:init.obj
 0001:00032f80       _RTC_InitBase              0000000180033f80 f   LIBCMTD:init.obj
 0001:00032fc0       _RTC_Shutdown              0000000180033fc0 f   LIBCMTD:init.obj
 0001:00032ff0       __GSHandlerCheck           0000000180033ff0 f   LIBCMTD:gshandler.obj
 0001:00033030       __GSHandlerCheckCommon     0000000180034030 f   LIBCMTD:gshandler.obj
 0001:00033140       __security_check_cookie    0000000180034140 f   LIBCMTD:amdsecgs.obj
 0001:00033170       ??_U@YAPEAX_K@Z            0000000180034170 f   LIBCMTD:new_array.obj
 0001:00033190       ??3@YAXPEAX_K@Z            0000000180034190 f   LIBCMTD:delete_scalar_size.obj
 0001:000331b0       ??_V@YAXPEAX@Z             00000001800341b0 f   LIBCMTD:delete_array.obj
 0001:000331d0       ??_V@YAXPEAX_K@Z           00000001800341d0 f   LIBCMTD:delete_array_size.obj
 0001:000331f0       ?configure_argv@__scrt_narrow_argv_policy@@SAHXZ 00000001800341f0 f i LIBCMTD:utility.obj
 0001:000332e0       ?initialize_environment@__scrt_narrow_environment_policy@@SAHXZ 00000001800342e0 f i LIBCMTD:utility.obj
 0001:00033380       NtCurrentTeb               0000000180034380 f i LIBCMTD:utility.obj
 0001:00033390       __scrt_acquire_startup_lock 0000000180034390 f   LIBCMTD:utility.obj
 0001:00033400       __scrt_dllmain_after_initialize_c 0000000180034400 f   LIBCMTD:utility.obj
 0001:00033430       __scrt_dllmain_before_initialize_c 0000000180034430 f   LIBCMTD:utility.obj
 0001:00033450       __scrt_dllmain_crt_thread_attach 0000000180034450 f   LIBCMTD:utility.obj
 0001:00033480       __scrt_dllmain_crt_thread_detach 0000000180034480 f   LIBCMTD:utility.obj
 0001:000334a0       __scrt_dllmain_exception_filter 00000001800344a0 f   LIBCMTD:utility.obj
 0001:00033510       __scrt_dllmain_uninitialize_c 0000000180034510 f   LIBCMTD:utility.obj
 0001:00033540       __scrt_dllmain_uninitialize_critical 0000000180034540 f   LIBCMTD:utility.obj
 0001:00033560       __scrt_initialize_crt      0000000180034560 f   LIBCMTD:utility.obj
 0001:000335b0       __scrt_initialize_onexit_tables 00000001800345b0 f   LIBCMTD:utility.obj
 0001:000336c0       __scrt_is_nonwritable_in_current_image 00000001800346c0 f   LIBCMTD:utility.obj
 0001:00033750       __scrt_release_startup_lock 0000000180034750 f   LIBCMTD:utility.obj
 0001:00033780       __scrt_uninitialize_crt    0000000180034780 f   LIBCMTD:utility.obj
 0001:000337c0       _onexit                    00000001800347c0 f   LIBCMTD:utility.obj
 0001:00033840       at_quick_exit              0000000180034840 f   LIBCMTD:utility.obj
 0001:00033890       atexit                     0000000180034890 f   LIBCMTD:utility.obj
 0001:000338d0       ??3@YAXPEAX@Z              00000001800348d0 f   LIBCMTD:delete_scalar.obj
 0001:000338f0       __raise_securityfailure    00000001800348f0 f   LIBCMTD:gs_report.obj
 0001:00033930       __report_gsfailure         0000000180034930 f   LIBCMTD:gs_report.obj
 0001:00033a10       __report_rangecheckfailure 0000000180034a10 f   LIBCMTD:gs_report.obj
 0001:00033a30       __report_securityfailure   0000000180034a30 f   LIBCMTD:gs_report.obj
 0001:00033ad0       __report_securityfailureEx 0000000180034ad0 f   LIBCMTD:gs_report.obj
 0001:00033e90       _Init_thread_abort         0000000180034e90 f   LIBCMTD:thread_safe_statics.obj
 0001:00033ec0       _Init_thread_footer        0000000180034ec0 f   LIBCMTD:thread_safe_statics.obj
 0001:00033f20       _Init_thread_header        0000000180034f20 f   LIBCMTD:thread_safe_statics.obj
 0001:00033fb0       _Init_thread_lock          0000000180034fb0 f   LIBCMTD:thread_safe_statics.obj
 0001:00033fd0       _Init_thread_notify        0000000180034fd0 f   LIBCMTD:thread_safe_statics.obj
 0001:00034030       _Init_thread_unlock        0000000180035030 f   LIBCMTD:thread_safe_statics.obj
 0001:00034050       _Init_thread_wait          0000000180035050 f   LIBCMTD:thread_safe_statics.obj
 0001:00034100       ??2@YAPEAX_KAEBUnothrow_t@std@@@Z 0000000180035100 f   LIBCMTD:new_scalar_nothrow.obj
 0001:00034140       ??_U@YAPEAX_KAEBUnothrow_t@std@@@Z 0000000180035140 f   LIBCMTD:new_array_nothrow.obj
 0001:00034170       __GSHandlerCheck_SEH       0000000180035170 f   LIBCMTD:gshandlerseh.obj
 0001:00034240       _alloca_probe              0000000180035240 f   LIBCMTD:chkstk.obj
 0001:00034240       __chkstk                   0000000180035240 f   LIBCMTD:chkstk.obj
 0001:000346a0       _CRT_INIT                  00000001800356a0 f   LIBCMTD:dll_dllmain.obj
 0001:000346d0       _DllMainCRTStartup         00000001800356d0 f   LIBCMTD:dll_dllmain.obj
 0001:000347a0       ?_RTC_AllocaFailure@@YAXPEAXPEAU_RTC_ALLOCA_NODE@@H@Z 00000001800357a0 f   LIBCMTD:error.obj
 0001:00034900       ?_RTC_Failure@@YAXPEAXH@Z  0000000180035900 f   LIBCMTD:error.obj
 0001:00034950       ?_RTC_StackFailure@@YAXPEAXPEBD@Z 0000000180035950 f   LIBCMTD:error.obj
 0001:00034d80       _RTC_UninitUse             0000000180035d80 f   LIBCMTD:error.obj
 0001:00034e50       _vsprintf_s_l              0000000180035e50 f i LIBCMTD:error.obj
 0001:00034ec0       sprintf_s                  0000000180035ec0 f i LIBCMTD:error.obj
 0001:00034ef0       ?_RTC_GetErrorFunc@@YAP6AHHPEBDH00ZZPEBX@Z 0000000180035ef0 f   LIBCMTD:userapi.obj
 0001:00034f00       ?_RTC_GetErrorFuncW@@YAP6AHHPEB_WH00ZZPEBX@Z 0000000180035f00 f   LIBCMTD:userapi.obj
 0001:00034f10       _RTC_GetErrDesc            0000000180035f10 f   LIBCMTD:userapi.obj
 0001:00034f30       _RTC_NumErrors             0000000180035f30 f   LIBCMTD:userapi.obj
 0001:00034f40       _RTC_SetErrorFunc          0000000180035f40 f   LIBCMTD:userapi.obj
 0001:00034f60       _RTC_SetErrorFuncW         0000000180035f60 f   LIBCMTD:userapi.obj
 0001:00034f80       _RTC_SetErrorType          0000000180035f80 f   LIBCMTD:userapi.obj
 0001:00034fa0       ??2@YAPEAX_K@Z             0000000180035fa0 f   LIBCMTD:new_scalar.obj
 0001:00034ff0       __isa_available_init       0000000180035ff0 f   LIBCMTD:cpu_disp.obj
 0001:00035340       _get_startup_argv_mode     0000000180036340 f   LIBCMTD:argv_mode.obj
 0001:00035350       __scrt_is_ucrt_dll_in_use  0000000180036350 f   LIBCMTD:ucrt_detection.obj
 0001:00035380       __crt_debugger_hook        0000000180036380 f   LIBCMTD:utility_desktop.obj
 0001:00035390       __scrt_fastfail            0000000180036390 f   LIBCMTD:utility_desktop.obj
 0001:00035530       __scrt_get_show_window_mode 0000000180036530 f   LIBCMTD:utility_desktop.obj
 0001:00035590       __scrt_initialize_mta      0000000180036590 f   LIBCMTD:utility_desktop.obj
 0001:000355a0       __scrt_initialize_winrt    00000001800365a0 f   LIBCMTD:utility_desktop.obj
 0001:000355b0       __scrt_is_managed_app      00000001800365b0 f   LIBCMTD:utility_desktop.obj
 0001:00035660       __scrt_set_unhandled_exception_filter 0000000180036660 f   LIBCMTD:utility_desktop.obj
 0001:00035680       __scrt_exe_initialize_mta  0000000180036680 f   LIBCMTD:utility_desktop.obj
 0001:00035680       __scrt_stub_for_initialize_mta 0000000180036680 f   LIBCMTD:utility_desktop.obj
 0001:00035690       __scrt_unhandled_exception_filter 0000000180036690 f   LIBCMTD:utility_desktop.obj
 0001:00035710       _guard_check_icall_nop     0000000180036710 f i LIBCMTD:guard_support.obj
 0001:00035720       ReadNoFence64              0000000180036720 f i LIBCMTD:guard_support.obj
 0001:00035740       ReadPointerNoFence         0000000180036740 f i LIBCMTD:guard_support.obj
 0001:00035760       _guard_icall_checks_enforced 0000000180036760 f i LIBCMTD:guard_support.obj
 0001:000357a0       _guard_rf_checks_enforced  00000001800367a0 f i LIBCMTD:guard_support.obj
 0001:00035870       __security_init_cookie     0000000180036870 f   LIBCMTD:gs_support.obj
 0001:000358f0       ?__scrt_initialize_type_info@@YAXXZ 00000001800368f0 f   LIBCMTD:tncleanup.obj
 0001:00035910       ?__scrt_uninitialize_type_info@@YAXXZ 0000000180036910 f   LIBCMTD:tncleanup.obj
 0001:00035930       __local_stdio_scanf_options 0000000180036930 f i LIBCMTD:default_local_stdio_options.obj
 0001:00035940       __scrt_initialize_default_local_stdio_options 0000000180036940 f   LIBCMTD:default_local_stdio_options.obj
 0001:00035990       __scrt_get_dyn_tls_init_callback 0000000180036990 f   LIBCMTD:dyn_tls_init.obj
 0001:000359a0       _RTC_Initialize            00000001800369a0 f   LIBCMTD:initsect.obj
 0001:000359f0       _RTC_Terminate             00000001800369f0 f   LIBCMTD:initsect.obj
 0001:00035f50       ?_RTC_GetSrcLine@@YAHPEAEPEA_WKPEAH1K@Z 0000000180036f50 f   LIBCMTD:pdblkup.obj
 0001:00036320       ??0bad_alloc@std@@AEAA@QEBD@Z 0000000180037320 f i LIBCMTD:throw_bad_alloc.obj
 0001:00036360       ??0bad_alloc@std@@QEAA@AEBV01@@Z 0000000180037360 f i LIBCMTD:throw_bad_alloc.obj
 0001:000363a0       ??0bad_alloc@std@@QEAA@XZ  00000001800373a0 f i LIBCMTD:throw_bad_alloc.obj
 0001:000363e0       ??0bad_array_new_length@std@@QEAA@AEBV01@@Z 00000001800373e0 f i LIBCMTD:throw_bad_alloc.obj
 0001:00036420       ??0bad_array_new_length@std@@QEAA@XZ 0000000180037420 f i LIBCMTD:throw_bad_alloc.obj
 0001:00036460       ??0exception@std@@QEAA@AEBV01@@Z 0000000180037460 f i LIBCMTD:throw_bad_alloc.obj
 0001:000364c0       ??0exception@std@@QEAA@QEBDH@Z 00000001800374c0 f i LIBCMTD:throw_bad_alloc.obj
 0001:00036510       ??1bad_alloc@std@@UEAA@XZ  0000000180037510 f i LIBCMTD:throw_bad_alloc.obj
 0001:00036530       ??1bad_array_new_length@std@@UEAA@XZ 0000000180037530 f i LIBCMTD:throw_bad_alloc.obj
 0001:00036550       ??1exception@std@@UEAA@XZ  0000000180037550 f i LIBCMTD:throw_bad_alloc.obj
 0001:00036580       ??_Ebad_alloc@std@@UEAAPEAXI@Z 0000000180037580 f i LIBCMTD:throw_bad_alloc.obj
 0001:00036580       ??_Gbad_alloc@std@@UEAAPEAXI@Z 0000000180037580 f i LIBCMTD:throw_bad_alloc.obj
 0001:000365c0       ??_Gbad_array_new_length@std@@UEAAPEAXI@Z 00000001800375c0 f i LIBCMTD:throw_bad_alloc.obj
 0001:000365c0       ??_Ebad_array_new_length@std@@UEAAPEAXI@Z 00000001800375c0 f i LIBCMTD:throw_bad_alloc.obj
 0001:00036600       ??_Eexception@std@@UEAAPEAXI@Z 0000000180037600 f i LIBCMTD:throw_bad_alloc.obj
 0001:00036600       ??_Gexception@std@@UEAAPEAXI@Z 0000000180037600 f i LIBCMTD:throw_bad_alloc.obj
 0001:00036640       ?__scrt_throw_std_bad_alloc@@YAXXZ 0000000180037640 f   LIBCMTD:throw_bad_alloc.obj
 0001:00036670       ?__scrt_throw_std_bad_array_new_length@@YAXXZ 0000000180037670 f   LIBCMTD:throw_bad_alloc.obj
 0001:000366a0       ?what@exception@std@@UEBAPEBDXZ 00000001800376a0 f i LIBCMTD:throw_bad_alloc.obj
 0001:000366e0       ??1type_info@@UEAA@XZ      00000001800376e0 f   LIBCMTD:std_type_info_static.obj
 0001:00036700       ??_Etype_info@@UEAAPEAXI@Z 0000000180037700 f i LIBCMTD:std_type_info_static.obj
 0001:00036700       ??_Gtype_info@@UEAAPEAXI@Z 0000000180037700 f i LIBCMTD:std_type_info_static.obj
 0001:0003673c       ??$?2PEAUHINSTANCE__@@@Wrapper@?$CSimpleArray@PEAUHINSTANCE__@@V?$CSimpleArrayEqualHelper@PEAUHINSTANCE__@@@ATL@@@ATL@@SAPEAX_KPEAPEAUHINSTANCE__@@@Z 000000018003773c f i atls:atlbase.obj
 0001:00036740       ??0?$CSimpleArray@PEAUHINSTANCE__@@V?$CSimpleArrayEqualHelper@PEAUHINSTANCE__@@@ATL@@@ATL@@QEAA@XZ 0000000180037740 f i atls:atlbase.obj
 0001:00036750       ??0CAtlBaseModule@ATL@@QEAA@XZ 0000000180037750 f   atls:atlbase.obj
 0001:000367f8       ??0Wrapper@?$CSimpleArray@PEAUHINSTANCE__@@V?$CSimpleArrayEqualHelper@PEAUHINSTANCE__@@@ATL@@@ATL@@QEAA@AEBQEAUHINSTANCE__@@@Z 00000001800377f8 f i atls:atlbase.obj
 0001:00036804       ??0_ATL_BASE_MODULE70@ATL@@QEAA@XZ 0000000180037804 f i atls:atlbase.obj
 0001:00036830       ??1?$CSimpleArray@PEAUHINSTANCE__@@V?$CSimpleArrayEqualHelper@PEAUHINSTANCE__@@@ATL@@@ATL@@QEAA@XZ 0000000180037830 f i atls:atlbase.obj
 0001:00036858       ??1CAtlBaseModule@ATL@@QEAA@XZ 0000000180037858 f   atls:atlbase.obj
 0001:0003688c       ??1_ATL_BASE_MODULE70@ATL@@QEAA@XZ 000000018003788c f i atls:atlbase.obj
 0001:000368b8       ??A?$CSimpleArray@PEAUHINSTANCE__@@V?$CSimpleArrayEqualHelper@PEAUHINSTANCE__@@@ATL@@@ATL@@QEAAAEAPEAUHINSTANCE__@@H@Z 00000001800378b8 f i atls:atlbase.obj
 0001:000368e4       ?Add@?$CSimpleArray@PEAUHINSTANCE__@@V?$CSimpleArrayEqualHelper@PEAUHINSTANCE__@@@ATL@@@ATL@@QEAAHAEBQEAUHINSTANCE__@@@Z 00000001800378e4 f i atls:atlbase.obj
 0001:00036998       ?AddResourceInstance@CAtlBaseModule@ATL@@QEAA_NPEAUHINSTANCE__@@@Z 0000000180037998 f   atls:atlbase.obj
 0001:000369e0       ?GetHInstanceAt@CAtlBaseModule@ATL@@QEAAPEAUHINSTANCE__@@H@Z 00000001800379e0 f   atls:atlbase.obj
 0001:00036a58       ?GetSize@?$CSimpleArray@PEAUHINSTANCE__@@V?$CSimpleArrayEqualHelper@PEAUHINSTANCE__@@@ATL@@@ATL@@QEBAHXZ 0000000180037a58 f i atls:atlbase.obj
 0001:00036a5c       ?InternalSetAtIndex@?$CSimpleArray@PEAUHINSTANCE__@@V?$CSimpleArrayEqualHelper@PEAUHINSTANCE__@@@ATL@@@ATL@@QEAAXHAEBQEAUHINSTANCE__@@@Z 0000000180037a5c f i atls:atlbase.obj
 0001:00036a74       ?RemoveAll@?$CSimpleArray@PEAUHINSTANCE__@@V?$CSimpleArrayEqualHelper@PEAUHINSTANCE__@@@ATL@@@ATL@@QEAAXXZ 0000000180037a74 f i atls:atlbase.obj
 0001:00036a9c       ?RemoveAt@?$CSimpleArray@PEAUHINSTANCE__@@V?$CSimpleArrayEqualHelper@PEAUHINSTANCE__@@@ATL@@@ATL@@QEAAHH@Z 0000000180037a9c f i atls:atlbase.obj
 0001:00036b40       ?RemoveResourceInstance@CAtlBaseModule@ATL@@QEAA_NPEAUHINSTANCE__@@@Z 0000000180037b40 f   atls:atlbase.obj
 0001:00036bc0       ?memmove_s@Checked@ATL@@YAXPEAX_KPEBX1@Z 0000000180037bc0 f i atls:atlbase.obj
 0001:00037068       ?GetCodeAddress@_stdcallthunk@ATL@@QEAAPEAXXZ 0000000180038068 f i atls:atlthunk.obj
 0001:00037094       ?Init@_stdcallthunk@ATL@@QEAAH_KPEAX@Z 0000000180038094 f i atls:atlthunk.obj
 0001:000370e4       ?__AllocStdCallThunk@@YAPEAXXZ 00000001800380e4 f   atls:atlthunk.obj
 0001:000370ec       ?__AllocStdCallThunk@ATL@@YAPEAXXZ 00000001800380ec f   atls:atlthunk.obj
 0001:000370f4       ?__AllocStdCallThunk_cmn@@YAPEAXXZ 00000001800380f4 f   atls:atlthunk.obj
 0001:000371cc       ?__FreeStdCallThunk@@YAXPEAX@Z 00000001800381cc f   atls:atlthunk.obj
 0001:000371ec       ?__FreeStdCallThunk@ATL@@YAXPEAX@Z 00000001800381ec f   atls:atlthunk.obj
 0001:0003720c       ?__FreeStdCallThunk_cmn@@YAXPEAX@Z 000000018003820c f   atls:atlthunk.obj
 0001:000372ac       AtlThunk_AllocateData      00000001800382ac f   atls:atlthunk.obj
 0001:00037328       AtlThunk_DataToCode        0000000180038328 f   atls:atlthunk.obj
 0001:0003737c       AtlThunk_FreeData          000000018003837c f   atls:atlthunk.obj
 0001:000373dc       AtlThunk_InitData          00000001800383dc f   atls:atlthunk.obj
 0001:000374a0       memset_repmovs             00000001800384a0 f   libvcruntimed:memset.obj
 0001:000374c0       memset                     00000001800384c0 f   libvcruntimed:memset.obj
 0001:00037650       ??$__crt_interlocked_exchange_pointer@$$A6AXXZP6AXXZ@@YAP6AXXZPEDS6AXXZQ6AXXZ@Z 0000000180038650 f i libvcruntimed:purevirt.obj
 0001:00037670       ??$__crt_interlocked_read_pointer@$$A6AXXZ@@YAP6AXXZPEDS6AXXZ@Z 0000000180038670 f i libvcruntimed:purevirt.obj
 0001:00037690       ?__crt_interlocked_read_64@@YA_JPED_J@Z 0000000180038690 f i libvcruntimed:purevirt.obj
 0001:000376b0       _get_purecall_handler      00000001800386b0 f   libvcruntimed:purevirt.obj
 0001:000376d0       _purecall                  00000001800386d0 f   libvcruntimed:purevirt.obj
 0001:00037710       _set_purecall_handler      0000000180038710 f   libvcruntimed:purevirt.obj
 0001:00037740       memcmp                     0000000180038740 f   libvcruntimed:memcmp.obj
 0001:00037820       memcpy_repmovs             0000000180038820 f   libvcruntimed:memcpy.obj
 0001:00037840       memmove                    0000000180038840 f   libvcruntimed:memcpy.obj
 0001:00037840       memcpy                     0000000180038840 f   libvcruntimed:memcpy.obj
 0001:00037c20       wcsstr                     0000000180038c20 f   libvcruntimed:wcsstr.obj
 0001:00038280       __vcrt_initialize          0000000180039280 f   libvcruntimed:initialization.obj
 0001:000382c0       __vcrt_thread_attach       00000001800392c0 f   libvcruntimed:initialization.obj
 0001:000382e0       __vcrt_thread_detach       00000001800392e0 f   libvcruntimed:initialization.obj
 0001:00038300       __vcrt_uninitialize        0000000180039300 f   libvcruntimed:initialization.obj
 0001:00038320       __vcrt_uninitialize_critical 0000000180039320 f   libvcruntimed:initialization.obj
 0001:00038340       __C_specific_handler       0000000180039340 f   libvcruntimed:riscchandler.obj
 0001:000387b0       ??$?0AEAViterator@TryBlockMap4@FH4@@AEAV012@$0A@@?$pair@Viterator@TryBlockMap4@FH4@@V123@@std@@QEAA@AEAViterator@TryBlockMap4@FH4@@0@Z 00000001800397b0 f i libvcruntimed:risctrnsctrl.obj
 0001:00038810       ??$?0AEAViterator@TryBlockMap@__FrameHandler3@@AEAV012@$0A@@?$pair@Viterator@TryBlockMap@__FrameHandler3@@V123@@std@@QEAA@AEAViterator@TryBlockMap@__FrameHandler3@@0@Z 0000000180039810 f i libvcruntimed:risctrnsctrl.obj
 0001:000389d0       ??$_CallSETranslator@V__FrameHandler3@@@@YAHPEAUEHExceptionRecord@@PEA_KPEAU_CONTEXT@@PEAU_xDISPATCHER_CONTEXT@@PEBU_s_FuncInfo@@K1@Z 00000001800399d0 f i libvcruntimed:risctrnsctrl.obj
 0001:00038a60       ??$_CallSETranslator@V__FrameHandler4@@@@YAHPEAUEHExceptionRecord@@PEA_KPEAU_CONTEXT@@PEAU_xDISPATCHER_CONTEXT@@PEAUFuncInfo4@FH4@@K1@Z 0000000180039a60 f i libvcruntimed:risctrnsctrl.obj
 0001:00038af0       ??$forward@AEAViterator@TryBlockMap4@FH4@@@std@@YAAEAViterator@TryBlockMap4@FH4@@AEAV123@@Z 0000000180039af0 f i libvcruntimed:risctrnsctrl.obj
 0001:00038b00       ??$forward@AEAViterator@TryBlockMap@__FrameHandler3@@@std@@YAAEAViterator@TryBlockMap@__FrameHandler3@@AEAV123@@Z 0000000180039b00 f i libvcruntimed:risctrnsctrl.obj
 0001:00038b10       ??0FuncInfo4@FH4@@QEAA@XZ  0000000180039b10 f i libvcruntimed:risctrnsctrl.obj
 0001:00038b80       ??0FuncInfoHeader@FH4@@QEAA@XZ 0000000180039b80 f i libvcruntimed:risctrnsctrl.obj
 0001:00038ba0       ??0iterator@TryBlockMap4@FH4@@QEAA@AEAV12@I@Z 0000000180039ba0 f i libvcruntimed:risctrnsctrl.obj
 0001:00038bd0       ??0iterator@TryBlockMap@__FrameHandler3@@QEAA@AEAV12@I@Z 0000000180039bd0 f i libvcruntimed:risctrnsctrl.obj
 0001:00038c00       ??4iterator@TryBlockMap4@FH4@@QEAAAEAV012@AEBV012@@Z 0000000180039c00 f i libvcruntimed:risctrnsctrl.obj
 0001:00038c20       ??9iterator@TryBlockMap4@FH4@@QEBA_NAEBV012@@Z 0000000180039c20 f i libvcruntimed:risctrnsctrl.obj
 0001:00038c60       ??Diterator@TryBlockMap4@FH4@@QEAA?AUTryBlockMapEntry4@2@XZ 0000000180039c60 f i libvcruntimed:risctrnsctrl.obj
 0001:00038c90       ??Eiterator@TryBlockMap4@FH4@@QEAAAEAV012@XZ 0000000180039c90 f i libvcruntimed:risctrnsctrl.obj
 0001:00038cd0       ?CatchTryBlock@__FrameHandler3@@SAPEBU_s_TryBlockMapEntry@@PEBU_s_FuncInfo@@H@Z 0000000180039cd0 f   libvcruntimed:risctrnsctrl.obj
 0001:00038d60       ?DecompFuncInfo@FH4@@YA_JPEAEAEAUFuncInfo4@1@_KH@Z 0000000180039d60 f i libvcruntimed:risctrnsctrl.obj
 0001:00038da0       ?DecompFuncInfo@FH4@@YA_JPEAEAEAUFuncInfo4@1@_KH_N@Z 0000000180039da0 f i libvcruntimed:risctrnsctrl.obj
 0001:00038f70       ?DecompTryBlock@TryBlockMap4@FH4@@AEAAXXZ 0000000180039f70 f i libvcruntimed:risctrnsctrl.obj
 0001:00038ff0       ?ExecutionInCatch@__FrameHandler3@@SA_NPEAU_xDISPATCHER_CONTEXT@@PEBU_s_FuncInfo@@@Z 0000000180039ff0 f   libvcruntimed:risctrnsctrl.obj
 0001:00039040       ?ExecutionInCatch@__FrameHandler4@@SA_NPEAU_xDISPATCHER_CONTEXT@@PEAUFuncInfo4@FH4@@@Z 000000018003a040 f   libvcruntimed:risctrnsctrl.obj
 0001:00039060       ?FrameUnwindToEmptyState@__FrameHandler3@@SAXPEA_KPEAU_xDISPATCHER_CONTEXT@@PEBU_s_FuncInfo@@@Z 000000018003a060 f   libvcruntimed:risctrnsctrl.obj
 0001:00039100       ?FrameUnwindToEmptyState@__FrameHandler4@@SAXPEA_KPEAU_xDISPATCHER_CONTEXT@@PEAUFuncInfo4@FH4@@@Z 000000018003a100 f   libvcruntimed:risctrnsctrl.obj
 0001:00039150       ?GetEstablisherFrame@__FrameHandler3@@SAPEA_KPEA_KPEAU_xDISPATCHER_CONTEXT@@PEBU_s_FuncInfo@@0@Z 000000018003a150 f   libvcruntimed:risctrnsctrl.obj
 0001:000392c0       ?GetEstablisherFrame@__FrameHandler4@@SAPEA_KPEA_KPEAU_xDISPATCHER_CONTEXT@@PEAUFuncInfo4@FH4@@0@Z 000000018003a2c0 f   libvcruntimed:risctrnsctrl.obj
 0001:00039330       ?GetRangeOfTrysToCheck@__FrameHandler3@@SA?AU?$pair@Viterator@TryBlockMap@__FrameHandler3@@V123@@std@@AEAVTryBlockMap@1@HPEAU_xDISPATCHER_CONTEXT@@PEBU_s_FuncInfo@@H@Z 000000018003a330 f   libvcruntimed:risctrnsctrl.obj
 0001:00039570       ?GetRangeOfTrysToCheck@__FrameHandler4@@SA?AU?$pair@Viterator@TryBlockMap4@FH4@@V123@@std@@AEAVTryBlockMap4@FH4@@HPEAU_xDISPATCHER_CONTEXT@@PEAUFuncInfo4@5@H@Z 000000018003a570 f   libvcruntimed:risctrnsctrl.obj
 0001:00039720       ?ReadInt@FH4@@YAHPEAPEAE@Z 000000018003a720 f i libvcruntimed:risctrnsctrl.obj
 0001:00039760       ?ReadUnsigned@FH4@@YAIPEAPEAE@Z 000000018003a760 f i libvcruntimed:risctrnsctrl.obj
 0001:000397f0       ?UnwindNestedFrames@__FrameHandler3@@SAXPEA_KPEAUEHExceptionRecord@@PEAU_CONTEXT@@0PEAXPEBU_s_FuncInfo@@HHPEBU_s_HandlerType@@PEAU_xDISPATCHER_CONTEXT@@E@Z 000000018003a7f0 f   libvcruntimed:risctrnsctrl.obj
 0001:00039960       ?UnwindNestedFrames@__FrameHandler4@@SAXPEA_KPEAUEHExceptionRecord@@PEAU_CONTEXT@@0PEAXPEAUFuncInfo4@FH4@@HHPEAUHandlerType4@5@PEAU_xDISPATCHER_CONTEXT@@E@Z 000000018003a960 f   libvcruntimed:risctrnsctrl.obj
 0001:00039b30       ?begin@TryBlockMap4@FH4@@QEAA?AViterator@12@XZ 000000018003ab30 f i libvcruntimed:risctrnsctrl.obj
 0001:00039b60       ?end@TryBlockMap4@FH4@@QEAA?AViterator@12@XZ 000000018003ab60 f i libvcruntimed:risctrnsctrl.obj
 0001:00039b90       ?imageRelToByteBuffer@FH4@@YAPEAE_KH@Z 000000018003ab90 f i libvcruntimed:risctrnsctrl.obj
 0001:00039bb0       ?incrementToSentinel@iterator@TryBlockMap4@FH4@@QEAAXXZ 000000018003abb0 f i libvcruntimed:risctrnsctrl.obj
 0001:00039bd0       ?setBuffer@TryBlockMap4@FH4@@QEAAXViterator@12@@Z 000000018003abd0 f i libvcruntimed:risctrnsctrl.obj
 0001:00039c40       _CreateFrameInfo           000000018003ac40 f   libvcruntimed:risctrnsctrl.obj
 0001:00039cb0       _FindAndUnlinkFrame        000000018003acb0 f   libvcruntimed:risctrnsctrl.obj
 0001:00039d40       _GetImageBase              000000018003ad40 f   libvcruntimed:risctrnsctrl.obj
 0001:00039d60       _GetThrowImageBase         000000018003ad60 f   libvcruntimed:risctrnsctrl.obj
 0001:00039d80       _SetImageBase              000000018003ad80 f   libvcruntimed:risctrnsctrl.obj
 0001:00039da0       _SetThrowImageBase         000000018003ada0 f   libvcruntimed:risctrnsctrl.obj
 0001:00039dc0       __CxxFrameHandler          000000018003adc0 f   libvcruntimed:risctrnsctrl.obj
 0001:00039e00       __CxxFrameHandler2         000000018003ae00 f   libvcruntimed:risctrnsctrl.obj
 0001:00039e40       __CxxFrameHandler3         000000018003ae40 f   libvcruntimed:risctrnsctrl.obj
 0001:00039f20       __CxxFrameHandler4         000000018003af20 f   libvcruntimed:risctrnsctrl.obj
 0001:0003a030       __C_specific_handler_noexcept 000000018003b030 f   libvcruntimed:chandler_noexcept.obj
 0001:0003a0a0       ?<lambda_invoker_cdecl>@_Closure_wrapper_b75ec0ea_1@@CAPEAX_K@Z 000000018003b0a0 f i libvcruntimed:std_type_info.obj
 0001:0003a0c0       ?<lambda_invoker_cdecl>@_Closure_wrapper_b75ec0ea_2@@CAXQEAX@Z 000000018003b0c0 f i libvcruntimed:std_type_info.obj
 0001:0003a0e0       ??$?RD@__crt_internal_free_policy@@QEBAXQEBD@Z 000000018003b0e0 f i libvcruntimed:std_type_info.obj
 0001:0003a110       ??$?RX@__crt_internal_free_policy@@QEBAXQEBX@Z 000000018003b110 f i libvcruntimed:std_type_info.obj
 0001:0003a140       ??$__crt_interlocked_compare_exchange_pointer@$$CBDPEAD$$T@@YAPEBDPEDSEBDQEAD$$T@Z 000000018003b140 f i libvcruntimed:std_type_info.obj
 0001:0003a180       ??$__crt_interlocked_read_pointer@$$CBD@@YAPEBDPEDSEBD@Z 000000018003b180 f i libvcruntimed:std_type_info.obj
 0001:0003a1a0       ??0?$__crt_unique_heap_ptr@DU__crt_internal_free_policy@@@@QEAA@QEAD@Z 000000018003b1a0 f i libvcruntimed:std_type_info.obj
 0001:0003a1c0       ??0?$__crt_unique_heap_ptr@XU__crt_internal_free_policy@@@@QEAA@QEAX@Z 000000018003b1c0 f i libvcruntimed:std_type_info.obj
 0001:0003a1e0       ??1?$__crt_unique_heap_ptr@DU__crt_internal_free_policy@@@@QEAA@XZ 000000018003b1e0 f i libvcruntimed:std_type_info.obj
 0001:0003a200       ??1?$__crt_unique_heap_ptr@XU__crt_internal_free_policy@@@@QEAA@XZ 000000018003b200 f i libvcruntimed:std_type_info.obj
 0001:0003a220       ??B?$__crt_unique_heap_ptr@DU__crt_internal_free_policy@@@@QEBA_NXZ 000000018003b220 f i libvcruntimed:std_type_info.obj
 0001:0003a240       ??B?$__crt_unique_heap_ptr@XU__crt_internal_free_policy@@@@QEBA_NXZ 000000018003b240 f i libvcruntimed:std_type_info.obj
 0001:0003a260       ??B_Closure_wrapper_b75ec0ea_1@@QEBAP6APEAX_K@ZXZ 000000018003b260 f i libvcruntimed:std_type_info.obj
 0001:0003a270       ??B_Closure_wrapper_b75ec0ea_2@@QEBAP6AXQEAX@ZXZ 000000018003b270 f i libvcruntimed:std_type_info.obj
 0001:0003a2e0       ?detach@?$__crt_unique_heap_ptr@XU__crt_internal_free_policy@@@@QEAAPEAXXZ 000000018003b2e0 f i libvcruntimed:std_type_info.obj
 0001:0003a310       ?get@?$__crt_unique_heap_ptr@DU__crt_internal_free_policy@@@@QEBAPEADXZ 000000018003b310 f i libvcruntimed:std_type_info.obj
 0001:0003a320       ?get@?$__crt_unique_heap_ptr@XU__crt_internal_free_policy@@@@QEBAPEAXXZ 000000018003b320 f i libvcruntimed:std_type_info.obj
 0001:0003a330       ?is_valid@?$__crt_unique_heap_ptr@DU__crt_internal_free_policy@@@@QEBA_NXZ 000000018003b330 f i libvcruntimed:std_type_info.obj
 0001:0003a360       ?is_valid@?$__crt_unique_heap_ptr@XU__crt_internal_free_policy@@@@QEBA_NXZ 000000018003b360 f i libvcruntimed:std_type_info.obj
 0001:0003a390       ?release@?$__crt_unique_heap_ptr@DU__crt_internal_free_policy@@@@QEAAXXZ 000000018003b390 f i libvcruntimed:std_type_info.obj
 0001:0003a3c0       ?release@?$__crt_unique_heap_ptr@XU__crt_internal_free_policy@@@@QEAAXXZ 000000018003b3c0 f i libvcruntimed:std_type_info.obj
 0001:0003a3f0       __std_type_info_compare    000000018003b3f0 f   libvcruntimed:std_type_info.obj
 0001:0003a430       __std_type_info_destroy_list 000000018003b430 f   libvcruntimed:std_type_info.obj
 0001:0003a490       __std_type_info_hash       000000018003b490 f   libvcruntimed:std_type_info.obj
 0001:0003a540       __std_type_info_name       000000018003b540 f   libvcruntimed:std_type_info.obj
 0001:0003a7f0       __vcrt_GetModuleFileNameW  000000018003b7f0 f   libvcruntimed:winapi_thunks.obj
 0001:0003a820       __vcrt_GetModuleHandleW    000000018003b820 f   libvcruntimed:winapi_thunks.obj
 0001:0003a840       __vcrt_LoadLibraryExW      000000018003b840 f   libvcruntimed:winapi_thunks.obj
 0001:0003a870       ??$?RD@__crt_public_free_policy@@QEBAXQEBD@Z 000000018003b870 f i libvcruntimed:std_exception.obj
 0001:0003a890       ??0?$__crt_unique_heap_ptr@DU__crt_public_free_policy@@@@QEAA@QEAD@Z 000000018003b890 f i libvcruntimed:std_exception.obj
 0001:0003a8b0       ??1?$__crt_unique_heap_ptr@DU__crt_public_free_policy@@@@QEAA@XZ 000000018003b8b0 f i libvcruntimed:std_exception.obj
 0001:0003a8d0       ??B?$__crt_unique_heap_ptr@DU__crt_public_free_policy@@@@QEBA_NXZ 000000018003b8d0 f i libvcruntimed:std_exception.obj
 0001:0003a8f0       ?detach@?$__crt_unique_heap_ptr@DU__crt_public_free_policy@@@@QEAAPEADXZ 000000018003b8f0 f i libvcruntimed:std_exception.obj
 0001:0003a920       ?get@?$__crt_unique_heap_ptr@DU__crt_public_free_policy@@@@QEBAPEADXZ 000000018003b920 f i libvcruntimed:std_exception.obj
 0001:0003a930       ?is_valid@?$__crt_unique_heap_ptr@DU__crt_public_free_policy@@@@QEBA_NXZ 000000018003b930 f i libvcruntimed:std_exception.obj
 0001:0003a960       ?release@?$__crt_unique_heap_ptr@DU__crt_public_free_policy@@@@QEAAXXZ 000000018003b960 f i libvcruntimed:std_exception.obj
 0001:0003a990       __std_exception_copy       000000018003b990 f   libvcruntimed:std_exception.obj
 0001:0003aad0       __std_exception_destroy    000000018003bad0 f   libvcruntimed:std_exception.obj
 0001:0003ab10       _CxxThrowException         000000018003bb10 f   libvcruntimed:throw.obj
 0001:0003ac60       ??$?RU__vcrt_ptd@@@__crt_internal_free_policy@@QEBAXQEBU__vcrt_ptd@@@Z 000000018003bc60 f i libvcruntimed:per_thread_data.obj
 0001:0003ac90       ??0?$__crt_unique_heap_ptr@U__vcrt_ptd@@U__crt_internal_free_policy@@@@QEAA@QEAU__vcrt_ptd@@@Z 000000018003bc90 f i libvcruntimed:per_thread_data.obj
 0001:0003acd0       ??1?$__crt_unique_heap_ptr@U__vcrt_ptd@@U__crt_internal_free_policy@@@@QEAA@XZ 000000018003bcd0 f i libvcruntimed:per_thread_data.obj
 0001:0003ad10       ??B?$__crt_unique_heap_ptr@U__vcrt_ptd@@U__crt_internal_free_policy@@@@QEBA_NXZ 000000018003bd10 f i libvcruntimed:per_thread_data.obj
 0001:0003ad30       ?detach@?$__crt_unique_heap_ptr@U__vcrt_ptd@@U__crt_internal_free_policy@@@@QEAAPEAU__vcrt_ptd@@XZ 000000018003bd30 f i libvcruntimed:per_thread_data.obj
 0001:0003ad60       ?get@?$__crt_unique_heap_ptr@U__vcrt_ptd@@U__crt_internal_free_policy@@@@QEBAPEAU__vcrt_ptd@@XZ 000000018003bd60 f i libvcruntimed:per_thread_data.obj
 0001:0003ad70       ?is_valid@?$__crt_unique_heap_ptr@U__vcrt_ptd@@U__crt_internal_free_policy@@@@QEBA_NXZ 000000018003bd70 f i libvcruntimed:per_thread_data.obj
 0001:0003ada0       ?release@?$__crt_unique_heap_ptr@U__vcrt_ptd@@U__crt_internal_free_policy@@@@QEAAXXZ 000000018003bda0 f i libvcruntimed:per_thread_data.obj
 0001:0003ae10       __vcrt_freefls             000000018003be10 f   libvcruntimed:per_thread_data.obj
 0001:0003ae50       __vcrt_freeptd             000000018003be50 f   libvcruntimed:per_thread_data.obj
 0001:0003aeb0       __vcrt_getptd              000000018003beb0 f   libvcruntimed:per_thread_data.obj
 0001:0003aee0       __vcrt_getptd_noexit       000000018003bee0 f   libvcruntimed:per_thread_data.obj
 0001:0003b080       __vcrt_getptd_noinit       000000018003c080 f   libvcruntimed:per_thread_data.obj
 0001:0003b0e0       __vcrt_initialize_ptd      000000018003c0e0 f   libvcruntimed:per_thread_data.obj
 0001:0003b130       __vcrt_uninitialize_ptd    000000018003c130 f   libvcruntimed:per_thread_data.obj
 0001:0003b160       __vcrt_initialize_locks    000000018003c160 f   libvcruntimed:locks.obj
 0001:0003b1d0       __vcrt_lock                000000018003c1d0 f   libvcruntimed:locks.obj
 0001:0003b200       __vcrt_uninitialize_locks  000000018003c200 f   libvcruntimed:locks.obj
 0001:0003b260       __vcrt_unlock              000000018003c260 f   libvcruntimed:locks.obj
 0001:0003b2a0       _NLG_Notify                000000018003c2a0 f   libvcruntimed:notify.obj
 0001:0003b2c0       __NLG_Dispatch2            000000018003c2c0 f   libvcruntimed:notify.obj
 0001:0003b2d0       __NLG_Return2              000000018003c2d0 f   libvcruntimed:notify.obj
 0001:0003b2f0       __except_validate_context_record 000000018003c2f0 f   libvcruntimed:jbcxrval.obj
 0001:0003b350       __except_validate_jump_buffer 000000018003c350 f   libvcruntimed:jbcxrval.obj
 0001:0003b370       __except_validate_jump_buffer_common 000000018003c370 f i libvcruntimed:jbcxrval.obj
 0001:0003b3f0       __DestructExceptionObject  000000018003c3f0 f   libvcruntimed:ehhelpers.obj
 0001:0003b4f0       ?_CallMemberFunction0@@YAXQEAX0@Z 000000018003c4f0 f i libvcruntimed:ehhelpers.obj
 0001:0003b520       ?raw_name@type_info@@QEBAPEBDXZ 000000018003c520 f i libvcruntimed:ehhelpers.obj
 0001:0003b530       _IsExceptionObjectToBeDestroyed 000000018003c530 f   libvcruntimed:ehhelpers.obj
 0001:0003b580       _SetWinRTOutOfMemoryExceptionCallback 000000018003c580 f   libvcruntimed:ehhelpers.obj
 0001:0003b5a0       __AdjustPointer            000000018003c5a0 f   libvcruntimed:ehhelpers.obj
 0001:0003b620       __FrameUnwindFilter        000000018003c620 f   libvcruntimed:ehhelpers.obj
 0001:0003b6b0       __GetPlatformExceptionInfo 000000018003c6b0 f   libvcruntimed:ehhelpers.obj
 0001:0003b760       __current_exception        000000018003c760 f   libvcruntimed:ehhelpers.obj
 0001:0003b780       __current_exception_context 000000018003c780 f   libvcruntimed:ehhelpers.obj
 0001:0003b7a0       __processing_throw         000000018003c7a0 f   libvcruntimed:ehhelpers.obj
 0001:0003b7c0       __std_terminate            000000018003c7c0 f   libvcruntimed:ehhelpers.obj
 0001:0003b7d0       _is_exception_typeof       000000018003c7d0 f   libvcruntimed:ehhelpers.obj
 0001:0003b920       ?GetCurrentState@__FrameHandler3@@SAHPEA_KPEAU_xDISPATCHER_CONTEXT@@PEBU_s_FuncInfo@@@Z 000000018003c920 f   libvcruntimed:ehstate.obj
 0001:0003b980       ?GetUnwindTryBlock@__FrameHandler3@@SAHPEA_KPEAU_xDISPATCHER_CONTEXT@@PEBU_s_FuncInfo@@@Z 000000018003c980 f   libvcruntimed:ehstate.obj
 0001:0003b9d0       ?SetState@__FrameHandler3@@SAXPEA_KPEBU_s_FuncInfo@@H@Z 000000018003c9d0 f   libvcruntimed:ehstate.obj
 0001:0003ba00       ?SetUnwindTryBlock@__FrameHandler3@@SAXPEA_KPEAU_xDISPATCHER_CONTEXT@@PEBU_s_FuncInfo@@H@Z 000000018003ca00 f   libvcruntimed:ehstate.obj
 0001:0003ba70       ?StateFromControlPc@__FrameHandler3@@SAHPEBU_s_FuncInfo@@PEAU_xDISPATCHER_CONTEXT@@@Z 000000018003ca70 f   libvcruntimed:ehstate.obj
 0001:0003bab0       ?StateFromControlPc@__FrameHandler4@@SAHPEAUFuncInfo4@FH4@@PEAU_xDISPATCHER_CONTEXT@@@Z 000000018003cab0 f   libvcruntimed:ehstate.obj
 0001:0003baf0       ?StateFromIp@__FrameHandler3@@SAHPEBU_s_FuncInfo@@PEAU_xDISPATCHER_CONTEXT@@_K@Z 000000018003caf0 f   libvcruntimed:ehstate.obj
 0001:0003bbe0       ?StateFromIp@__FrameHandler4@@SAHPEAUFuncInfo4@FH4@@PEAU_xDISPATCHER_CONTEXT@@_K@Z 000000018003cbe0 f   libvcruntimed:ehstate.obj
 0001:0003bcd0       ?__FuncRelToRealOffset@@YA_KPEAU_xDISPATCHER_CONTEXT@@I@Z 000000018003ccd0 f i libvcruntimed:ehstate.obj
 0001:0003bd00       ?__RVAtoRealOffset@@YA_KPEAU_xDISPATCHER_CONTEXT@@H@Z 000000018003cd00 f i libvcruntimed:ehstate.obj
 0001:0003e090       ??$TypeMatchHelper@V__FrameHandler3@@@@YAHPEBU_s_HandlerType@@PEBU_s_CatchableType@@PEBU_s_ThrowInfo@@@Z 000000018003f090 f i libvcruntimed:frame.obj
 0001:0003e290       ??$TypeMatchHelper@V__FrameHandler4@@@@YAHPEAUHandlerType4@FH4@@PEBU_s_CatchableType@@PEBU_s_ThrowInfo@@@Z 000000018003f290 f i libvcruntimed:frame.obj
 0001:0003e4a0       ??$__InternalCxxFrameHandler@V__FrameHandler3@@@@YA?AW4_EXCEPTION_DISPOSITION@@PEAUEHExceptionRecord@@PEA_KPEAU_CONTEXT@@PEAU_xDISPATCHER_CONTEXT@@PEBU_s_FuncInfo@@H1E@Z 000000018003f4a0 f i libvcruntimed:frame.obj
 0001:0003e940       ??$__InternalCxxFrameHandler@V__FrameHandler4@@@@YA?AW4_EXCEPTION_DISPOSITION@@PEAUEHExceptionRecord@@PEA_KPEAU_CONTEXT@@PEAU_xDISPATCHER_CONTEXT@@PEAUFuncInfo4@FH4@@H1E@Z 000000018003f940 f i libvcruntimed:frame.obj
 0001:0003ee00       ??0HandlerMap4@FH4@@QEAA@PEBUTryBlockMapEntry4@1@_KH@Z 000000018003fe00 f i libvcruntimed:frame.obj
 0001:0003eec0       ??0HandlerMap@__FrameHandler3@@QEAA@PEBU_s_TryBlockMapEntry@@_KI@Z 000000018003fec0 f i libvcruntimed:frame.obj
 0001:0003ef10       ??0HandlerType4@FH4@@QEAA@XZ 000000018003ff10 f i libvcruntimed:frame.obj
 0001:0003ef30       ??0TryBlockMap4@FH4@@QEAA@PEBUFuncInfo4@1@_K@Z 000000018003ff30 f i libvcruntimed:frame.obj
 0001:0003efc0       ??0TryBlockMap@__FrameHandler3@@QEAA@PEBU_s_FuncInfo@@_K@Z 000000018003ffc0 f i libvcruntimed:frame.obj
 0001:0003eff0       ??0UWMap4@FH4@@QEAA@PEBUFuncInfo4@1@_K@Z 000000018003fff0 f i libvcruntimed:frame.obj
 0001:0003f060       ??0bad_exception@std@@QEAA@AEBV01@@Z 0000000180040060 f i libvcruntimed:frame.obj
 0001:0003f0a0       ??0bad_exception@std@@QEAA@XZ 00000001800400a0 f i libvcruntimed:frame.obj
 0001:0003f0e0       ??0iterator@HandlerMap4@FH4@@QEAA@AEAV12@I@Z 00000001800400e0 f i libvcruntimed:frame.obj
 0001:0003f110       ??0iterator@HandlerMap@__FrameHandler3@@QEAA@AEAV12@I@Z 0000000180040110 f i libvcruntimed:frame.obj
 0001:0003f140       ??0iterator@UWMap4@FH4@@QEAA@AEAV12@PEAE@Z 0000000180040140 f i libvcruntimed:frame.obj
 0001:0003f170       ??1bad_exception@std@@UEAA@XZ 0000000180040170 f i libvcruntimed:frame.obj
 0001:0003f190       ??4iterator@UWMap4@FH4@@QEAAAEAV012@AEBV012@@Z 0000000180040190 f i libvcruntimed:frame.obj
 0001:0003f1e0       ??8iterator@HandlerMap4@FH4@@QEBA_NAEBV012@@Z 00000001800401e0 f i libvcruntimed:frame.obj
 0001:0003f220       ??8iterator@HandlerMap@__FrameHandler3@@QEBA_NAEBV012@@Z 0000000180040220 f i libvcruntimed:frame.obj
 0001:0003f260       ??8type_info@@QEBA_NAEBV0@@Z 0000000180040260 f i libvcruntimed:frame.obj
 0001:0003f2b0       ??9iterator@HandlerMap4@FH4@@QEBA_NAEBV012@@Z 00000001800402b0 f i libvcruntimed:frame.obj
 0001:0003f2f0       ??9iterator@HandlerMap@__FrameHandler3@@QEBA_NAEBV012@@Z 00000001800402f0 f i libvcruntimed:frame.obj
 0001:0003f330       ??Diterator@HandlerMap4@FH4@@QEAA?AUHandlerType4@2@XZ 0000000180040330 f i libvcruntimed:frame.obj
 0001:0003f360       ??Diterator@HandlerMap@__FrameHandler3@@QEAA?BU_s_HandlerType@@XZ 0000000180040360 f i libvcruntimed:frame.obj
 0001:0003f3a0       ??Diterator@TryBlockMap@__FrameHandler3@@QEAA?BU_s_TryBlockMapEntry@@XZ 00000001800403a0 f i libvcruntimed:frame.obj
 0001:0003f3f0       ??Diterator@UWMap4@FH4@@QEAA?AUUnwindMapEntry4@2@XZ 00000001800403f0 f i libvcruntimed:frame.obj
 0001:0003f470       ??Eiterator@HandlerMap4@FH4@@QEAAAEAV012@XZ 0000000180040470 f i libvcruntimed:frame.obj
 0001:0003f4b0       ??Eiterator@HandlerMap@__FrameHandler3@@QEAAAEAV012@XZ 00000001800404b0 f i libvcruntimed:frame.obj
 0001:0003f4d0       ??Eiterator@TryBlockMap@__FrameHandler3@@QEAAAEAV012@XZ 00000001800404d0 f i libvcruntimed:frame.obj
 0001:0003f4f0       ??Eiterator@UWMap4@FH4@@QEAAAEAV012@XZ 00000001800404f0 f i libvcruntimed:frame.obj
 0001:0003f530       ??Giterator@UWMap4@FH4@@QEBA_JAEBV012@@Z 0000000180040530 f i libvcruntimed:frame.obj
 0001:0003f550       ??Miterator@TryBlockMap4@FH4@@QEBA_NAEBV012@@Z 0000000180040550 f i libvcruntimed:frame.obj
 0001:0003f590       ??Miterator@TryBlockMap@__FrameHandler3@@QEBA_NAEBV012@@Z 0000000180040590 f i libvcruntimed:frame.obj
 0001:0003f5d0       ??Oiterator@UWMap4@FH4@@QEBA_NAEBV012@@Z 00000001800405d0 f i libvcruntimed:frame.obj
 0001:0003f610       ??Piterator@UWMap4@FH4@@QEBA_NAEBV012@@Z 0000000180040610 f i libvcruntimed:frame.obj
 0001:0003f650       ??_Gbad_exception@std@@UEAAPEAXI@Z 0000000180040650 f i libvcruntimed:frame.obj
 0001:0003f650       ??_Ebad_exception@std@@UEAAPEAXI@Z 0000000180040650 f i libvcruntimed:frame.obj
 0001:0003f690       ?BuildCatchObject@__FrameHandler3@@SAXPEAUEHExceptionRecord@@PEAXPEBU_s_HandlerType@@PEBU_s_CatchableType@@@Z 0000000180040690 f   libvcruntimed:frame.obj
 0001:0003f6d0       ?BuildCatchObject@__FrameHandler4@@SAXPEAUEHExceptionRecord@@PEAXPEAUHandlerType4@FH4@@PEBU_s_CatchableType@@@Z 00000001800406d0 f   libvcruntimed:frame.obj
 0001:0003f710       ?BuildCatchObjectHelper@__FrameHandler3@@SAHPEAUEHExceptionRecord@@PEAXPEBU_s_HandlerType@@PEBU_s_CatchableType@@@Z 0000000180040710 f   libvcruntimed:frame.obj
 0001:0003f750       ?BuildCatchObjectHelper@__FrameHandler4@@SAHPEAUEHExceptionRecord@@PEAXPEAUHandlerType4@FH4@@PEBU_s_CatchableType@@@Z 0000000180040750 f   libvcruntimed:frame.obj
 0001:0003f790       ?CxxCallCatchBlock@__FrameHandler3@@SAPEAXPEAU_EXCEPTION_RECORD@@@Z 0000000180040790 f   libvcruntimed:frame.obj
 0001:0003f9f0       ?CxxCallCatchBlock@__FrameHandler4@@SAPEAXPEAU_EXCEPTION_RECORD@@@Z 00000001800409f0 f   libvcruntimed:frame.obj
 0001:0003fd20       ?DecompHandler@HandlerMap4@FH4@@AEAAXXZ 0000000180040d20 f i libvcruntimed:frame.obj
 0001:000400f0       ?FrameUnwindToState@__FrameHandler3@@SAXPEA_KPEAU_xDISPATCHER_CONTEXT@@PEBU_s_FuncInfo@@H@Z 00000001800410f0 f   libvcruntimed:frame.obj
 0001:00040340       ?FrameUnwindToState@__FrameHandler4@@SAXPEA_KPEAU_xDISPATCHER_CONTEXT@@PEAUFuncInfo4@FH4@@H@Z 0000000180041340 f   libvcruntimed:frame.obj
 0001:00040690       ?GetHandlerSearchState@__FrameHandler3@@SAHPEA_KPEAU_xDISPATCHER_CONTEXT@@PEBU_s_FuncInfo@@@Z 0000000180041690 f i libvcruntimed:frame.obj
 0001:00040740       ?GetHandlerSearchState@__FrameHandler4@@SAHPEA_KPEAU_xDISPATCHER_CONTEXT@@PEAUFuncInfo4@FH4@@@Z 0000000180041740 f i libvcruntimed:frame.obj
 0001:000407c0       ?GetMaxState@__FrameHandler3@@SAHPEAU_xDISPATCHER_CONTEXT@@PEBU_s_FuncInfo@@@Z 00000001800417c0 f i libvcruntimed:frame.obj
 0001:000407e0       ?GetMaxState@__FrameHandler4@@SAHPEAU_xDISPATCHER_CONTEXT@@PEAUFuncInfo4@FH4@@@Z 00000001800417e0 f i libvcruntimed:frame.obj
 0001:00040a20       ?ReadEntry@UWMap4@FH4@@AEAAXPEAPEAE@Z 0000000180041a20 f i libvcruntimed:frame.obj
 0001:00040ad0       ?TypeMatch@__FrameHandler3@@SAHPEBU_s_HandlerType@@PEBU_s_CatchableType@@PEBU_s_ThrowInfo@@@Z 0000000180041ad0 f   libvcruntimed:frame.obj
 0001:00040b00       ?TypeMatch@__FrameHandler4@@SAHPEAUHandlerType4@FH4@@PEBU_s_CatchableType@@PEBU_s_ThrowInfo@@@Z 0000000180041b00 f   libvcruntimed:frame.obj
 0001:00040b30       ?WalkBack@UWMap4@FH4@@AEAAXPEAPEAE@Z 0000000180041b30 f i libvcruntimed:frame.obj
 0001:00040b80       ?WalkBack@iterator@UWMap4@FH4@@QEAAXXZ 0000000180041b80 f i libvcruntimed:frame.obj
 0001:00040bc0       ?WalkForward@UWMap4@FH4@@AEAAXPEAPEAE@Z 0000000180041bc0 f i libvcruntimed:frame.obj
 0001:00040bf0       ?_CallMemberFunction1@@YAXQEAX00@Z 0000000180041bf0 f i libvcruntimed:frame.obj
 0001:00040c30       ?_CallMemberFunction2@@YAXQEAX00H@Z 0000000180041c30 f i libvcruntimed:frame.obj
 0001:00040c80       ?_ValidateExecute@@YA_NP6A_JXZ@Z 0000000180041c80 f i libvcruntimed:frame.obj
 0001:00040ca0       ?_ValidateRead@@YA_NPEBXI@Z 0000000180041ca0 f i libvcruntimed:frame.obj
 0001:00040cc0       ?_ValidateWrite@@YA_NPEAXI@Z 0000000180041cc0 f i libvcruntimed:frame.obj
 0001:00040d20       ?begin@HandlerMap4@FH4@@QEAA?AViterator@12@XZ 0000000180041d20 f i libvcruntimed:frame.obj
 0001:00040d50       ?begin@HandlerMap@__FrameHandler3@@QEAA?AViterator@12@XZ 0000000180041d50 f i libvcruntimed:frame.obj
 0001:00040d80       ?begin@UWMap4@FH4@@QEAA?AViterator@12@XZ 0000000180041d80 f i libvcruntimed:frame.obj
 0001:00040db0       ?end@HandlerMap4@FH4@@QEAA?AViterator@12@XZ 0000000180041db0 f i libvcruntimed:frame.obj
 0001:00040de0       ?end@HandlerMap@__FrameHandler3@@QEAA?AViterator@12@XZ 0000000180041de0 f i libvcruntimed:frame.obj
 0001:00040e10       ?getESTypes@__FrameHandler3@@SAPEBU_s_ESTypeList@@PEBU_s_FuncInfo@@@Z 0000000180041e10 f i libvcruntimed:frame.obj
 0001:00040e50       ?getESTypes@__FrameHandler4@@SAPEBU_s_ESTypeList@@PEAUFuncInfo4@FH4@@@Z 0000000180041e50 f i libvcruntimed:frame.obj
 0001:00040e60       ?getLastEntry@HandlerMap4@FH4@@QEAAPEAUHandlerType4@2@XZ 0000000180041e60 f i libvcruntimed:frame.obj
 0001:00040ea0       ?getLastEntry@HandlerMap@__FrameHandler3@@QEAAPEBU_s_HandlerType@@XZ 0000000180041ea0 f i libvcruntimed:frame.obj
 0001:00040ec0       ?getMagicNum@__FrameHandler3@@SAIPEBU_s_FuncInfo@@@Z 0000000180041ec0 f i libvcruntimed:frame.obj
 0001:00040ee0       ?getMagicNum@__FrameHandler4@@SAIPEAUFuncInfo4@FH4@@@Z 0000000180041ee0 f i libvcruntimed:frame.obj
 0001:00040ef0       ?getNumTryBlocks@TryBlockMap4@FH4@@QEAAIXZ 0000000180041ef0 f i libvcruntimed:frame.obj
 0001:00040f00       ?getNumTryBlocks@TryBlockMap@__FrameHandler3@@QEAAIXZ 0000000180041f00 f i libvcruntimed:frame.obj
 0001:00040f20       ?getStartStop@UWMap4@FH4@@QEAAXHHAEAViterator@12@0@Z 0000000180041f20 f i libvcruntimed:frame.obj
 0001:00041040       ?getStateFromIterators@UWMap4@FH4@@SAHAEBViterator@12@H0H0@Z 0000000180042040 f i libvcruntimed:frame.obj
 0001:00041180       ?isEHs@__FrameHandler3@@SA_NPEBU_s_FuncInfo@@@Z 0000000180042180 f i libvcruntimed:frame.obj
 0001:000411c0       ?isEHs@__FrameHandler4@@SA_NPEAUFuncInfo4@FH4@@@Z 00000001800421c0 f i libvcruntimed:frame.obj
 0001:000411e0       ?isNoExcept@__FrameHandler3@@SA_NPEBU_s_FuncInfo@@@Z 00000001800421e0 f i libvcruntimed:frame.obj
 0001:00041220       ?isNoExcept@__FrameHandler4@@SA_NPEAUFuncInfo4@FH4@@@Z 0000000180042220 f i libvcruntimed:frame.obj
 0001:00041240       ?reset@HandlerType4@FH4@@QEAAXXZ 0000000180042240 f i libvcruntimed:frame.obj
 0001:000412a0       ?resetBuffer@HandlerMap4@FH4@@QEAAXXZ 00000001800422a0 f i libvcruntimed:frame.obj
 0001:000412c0       ?setBuffer@HandlerMap4@FH4@@QEAAXI@Z 00000001800422c0 f i libvcruntimed:frame.obj
 0001:00041320       __BuildCatchObject         0000000180042320 f   libvcruntimed:frame.obj
 0001:00041360       __BuildCatchObjectHelper   0000000180042360 f   libvcruntimed:frame.obj
 0001:000413a0       __TypeMatch                00000001800423a0 f   libvcruntimed:frame.obj
 0001:000413d0       __vcrt_EncodePointer       00000001800423d0 f i libvcruntimed:frame.obj
 0001:000413f0       ??0Block@_HeapManager@@QEAA@XZ 00000001800423f0 f i libvcruntimed:undname.obj
 0001:00041410       ??0DName@@QEAA@AEAPEBDD@Z  0000000180042410 f   libvcruntimed:undname.obj
 0001:000416c0       ??0DName@@QEAA@AEBV0@@Z    00000001800426c0 f i libvcruntimed:undname.obj
 0001:000416f0       ??0DName@@QEAA@D@Z         00000001800426f0 f   libvcruntimed:undname.obj
 0001:00041740       ??0DName@@QEAA@PEAV0@@Z    0000000180042740 f   libvcruntimed:undname.obj
 0001:00041820       ??0DName@@QEAA@PEBD@Z      0000000180042820 f   libvcruntimed:undname.obj
 0001:00041890       ??0DName@@QEAA@W4DNameStatus@@@Z 0000000180042890 f   libvcruntimed:undname.obj
 0001:00041940       ??0DName@@QEAA@XZ          0000000180042940 f i libvcruntimed:undname.obj
 0001:00041970       ??0DName@@QEAA@_J@Z        0000000180042970 f   libvcruntimed:undname.obj
 0001:00041a80       ??0DName@@QEAA@_K@Z        0000000180042a80 f   libvcruntimed:undname.obj
 0001:00041b50       ??0DNameNode@@IEAA@XZ      0000000180042b50 f i libvcruntimed:undname.obj
 0001:00041b70       ??0Replicator@@QEAA@XZ     0000000180042b70 f i libvcruntimed:undname.obj
 0001:00041bb0       ??0UnDecorator@@QEAA@PEBDP6APEADJ@ZK@Z 0000000180042bb0 f i libvcruntimed:undname.obj
 0001:00041c60       ??0charNode@@QEAA@D@Z      0000000180042c60 f i libvcruntimed:undname.obj
 0001:00041ca0       ??0pDNameNode@@QEAA@PEAVDName@@@Z 0000000180042ca0 f   libvcruntimed:undname.obj
 0001:00041d20       ??0pairNode@@QEAA@PEBVDNameNode@@0@Z 0000000180042d20 f i libvcruntimed:undname.obj
 0001:00041d80       ??0pcharNode@@QEAA@PEBDH@Z 0000000180042d80 f   libvcruntimed:undname.obj
 0001:00041e70       ??2@YAPEAX_KAEAV_HeapManager@@H@Z 0000000180042e70 f i libvcruntimed:undname.obj
 0001:00041ea0       ??4DName@@QEAAAEAV0@AEBV0@@Z 0000000180042ea0 f   libvcruntimed:undname.obj
 0001:00041ed0       ??4DName@@QEAAAEAV0@D@Z    0000000180042ed0 f i libvcruntimed:undname.obj
 0001:00041f20       ??4DName@@QEAAAEAV0@PEAV0@@Z 0000000180042f20 f   libvcruntimed:undname.obj
 0001:00041ff0       ??4DName@@QEAAAEAV0@PEBD@Z 0000000180042ff0 f   libvcruntimed:undname.obj
 0001:00042040       ??4DName@@QEAAAEAV0@W4DNameStatus@@@Z 0000000180043040 f   libvcruntimed:undname.obj
 0001:000420d0       ??AReplicator@@QEBA?AVDName@@H@Z 00000001800430d0 f   libvcruntimed:undname.obj
 0001:00042160       ??H@YA?AVDName@@DAEBV0@@Z  0000000180043160 f i libvcruntimed:undname.obj
 0001:000421b0       ??H@YA?AVDName@@PEBDAEBV0@@Z 00000001800431b0 f i libvcruntimed:undname.obj
 0001:00042200       ??H@YA?AVDName@@W4DNameStatus@@AEBV0@@Z 0000000180043200 f i libvcruntimed:undname.obj
 0001:00042250       ??HDName@@QEBA?AV0@AEBV0@@Z 0000000180043250 f   libvcruntimed:undname.obj
 0001:000422a0       ??HDName@@QEBA?AV0@D@Z     00000001800432a0 f   libvcruntimed:undname.obj
 0001:000422f0       ??HDName@@QEBA?AV0@PEAV0@@Z 00000001800432f0 f   libvcruntimed:undname.obj
 0001:00042340       ??HDName@@QEBA?AV0@PEBD@Z  0000000180043340 f   libvcruntimed:undname.obj
 0001:00042390       ??HDName@@QEBA?AV0@W4DNameStatus@@@Z 0000000180043390 f   libvcruntimed:undname.obj
 0001:000423e0       ??YDName@@QEAAAEAV0@AEBV0@@Z 00000001800433e0 f   libvcruntimed:undname.obj
 0001:00042460       ??YDName@@QEAAAEAV0@D@Z    0000000180043460 f   libvcruntimed:undname.obj
 0001:00042500       ??YDName@@QEAAAEAV0@PEAV0@@Z 0000000180043500 f   libvcruntimed:undname.obj
 0001:000425e0       ??YDName@@QEAAAEAV0@PEBD@Z 00000001800435e0 f   libvcruntimed:undname.obj
 0001:000426b0       ??YDName@@QEAAAEAV0@W4DNameStatus@@@Z 00000001800436b0 f   libvcruntimed:undname.obj
 0001:00042720       ??YReplicator@@QEAAAEAV0@AEBVDName@@@Z 0000000180043720 f   libvcruntimed:undname.obj
 0001:000427e0       ??_5DName@@QEAAAEAV0@AEBV0@@Z 00000001800437e0 f   libvcruntimed:undname.obj
 0001:00042850       ?Constructor@_HeapManager@@QEAAXP6APEAX_K@ZP6AXPEAX@Z@Z 0000000180043850 f i libvcruntimed:undname.obj
 0001:000428b0       ?Destructor@_HeapManager@@QEAAXXZ 00000001800438b0 f i libvcruntimed:undname.obj
 0001:00042930       ?UScore@UnDecorator@@SAPEBDW4Tokens@@@Z 0000000180043930 f   libvcruntimed:undname.obj
 0001:00042970       ?append@DName@@AEAAXPEBVDNameNode@@@Z 0000000180043970 f   libvcruntimed:undname.obj
 0001:00042a20       ?composeDeclaration@UnDecorator@@CA?AVDName@@AEBV2@@Z 0000000180043a20 f i libvcruntimed:undname.obj
 0001:00044bf0       ?dbGetString@DName@@QEBAPEADXZ 0000000180045bf0 f   libvcruntimed:undname.obj
 0001:00044c20       ?doAccessSpecifiers@UnDecorator@@SAHXZ 0000000180045c20 f i libvcruntimed:undname.obj
 0001:00044c50       ?doAllocationLanguage@UnDecorator@@SAHXZ 0000000180045c50 f i libvcruntimed:undname.obj
 0001:00044c80       ?doAllocationModel@UnDecorator@@SAHXZ 0000000180045c80 f i libvcruntimed:undname.obj
 0001:00044cb0       ?doEcsu@UnDecorator@@SAHXZ 0000000180045cb0 f i libvcruntimed:undname.obj
 0001:00044ce0       ?doEllipsis@UnDecorator@@SAHXZ 0000000180045ce0 f i libvcruntimed:undname.obj
 0001:00044d10       ?doFunctionReturns@UnDecorator@@SAHXZ 0000000180045d10 f i libvcruntimed:undname.obj
 0001:00044d40       ?doMSKeywords@UnDecorator@@SAHXZ 0000000180045d40 f i libvcruntimed:undname.obj
 0001:00044d70       ?doMemberTypes@UnDecorator@@SAHXZ 0000000180045d70 f i libvcruntimed:undname.obj
 0001:00044da0       ?doNameOnly@UnDecorator@@SAHXZ 0000000180045da0 f i libvcruntimed:undname.obj
 0001:00044db0       ?doNoIdentCharCheck@UnDecorator@@SAHXZ 0000000180045db0 f i libvcruntimed:undname.obj
 0001:00044dc0       ?doPchar@DName@@AEAAXPEBDH@Z 0000000180045dc0 f   libvcruntimed:undname.obj
 0001:00044f50       ?doPtr64@UnDecorator@@SAHXZ 0000000180045f50 f i libvcruntimed:undname.obj
 0001:00044f80       ?doRestrictionSpec@UnDecorator@@SAHXZ 0000000180045f80 f i libvcruntimed:undname.obj
 0001:00044fb0       ?doThisTypes@UnDecorator@@SAHXZ 0000000180045fb0 f i libvcruntimed:undname.obj
 0001:00044fe0       ?doThrowTypes@UnDecorator@@SAHXZ 0000000180045fe0 f i libvcruntimed:undname.obj
 0001:00045010       ?doTypeOnly@UnDecorator@@SAHXZ 0000000180046010 f i libvcruntimed:undname.obj
 0001:00045020       ?doUnderScore@UnDecorator@@SAHXZ 0000000180046020 f i libvcruntimed:undname.obj
 0001:00045050       ?getArgumentList@UnDecorator@@CA?AVDName@@XZ 0000000180046050 f   libvcruntimed:undname.obj
 0001:000451f0       ?getArgumentTypes@UnDecorator@@CA?AVDName@@XZ 00000001800461f0 f   libvcruntimed:undname.obj
 0001:000453a0       ?getArrayType@UnDecorator@@CA?AVDName@@AEBV2@@Z 00000001800463a0 f i libvcruntimed:undname.obj
 0001:00045700       ?getBasedType@UnDecorator@@CA?AVDName@@XZ 0000000180046700 f   libvcruntimed:undname.obj
 0001:000457f0       ?getBasicDataType@UnDecorator@@CA?AVDName@@AEBV2@@Z 00000001800467f0 f   libvcruntimed:undname.obj
 0001:00045f60       ?getCHPEName@UnDecorator@@QEAAPEADPEADH@Z 0000000180046f60 f i libvcruntimed:undname.obj
 0001:00046130       ?getCallIndex@UnDecorator@@CA?AVDName@@XZ 0000000180047130 f i libvcruntimed:undname.obj
 0001:00046150       ?getCallingConvention@UnDecorator@@CA?AVDName@@XZ 0000000180047150 f   libvcruntimed:undname.obj
 0001:00046390       ?getDataIndirectType@UnDecorator@@CA?AVDName@@AEBV2@PEBD0H@Z 0000000180047390 f   libvcruntimed:undname.obj
 0001:00046e60       ?getDataIndirectType@UnDecorator@@CA?AVDName@@XZ 0000000180047e60 f i libvcruntimed:undname.obj
 0001:00046ed0       ?getDataType@UnDecorator@@CA?AVDName@@PEAV2@@Z 0000000180047ed0 f   libvcruntimed:undname.obj
 0001:00047060       ?getDecoratedName@UnDecorator@@CA?AVDName@@XZ 0000000180048060 f   libvcruntimed:undname.obj
 0001:00047500       ?getDimension@UnDecorator@@CA?AVDName@@_N@Z 0000000180048500 f   libvcruntimed:undname.obj
 0001:00047860       ?getDispatchTarget@UnDecorator@@CA?AVDName@@XZ 0000000180048860 f   libvcruntimed:undname.obj
 0001:00047930       ?getDisplacement@UnDecorator@@CA?AVDName@@XZ 0000000180048930 f i libvcruntimed:undname.obj
 0001:00047950       ?getECSUDataType@UnDecorator@@CA?AVDName@@XZ 0000000180048950 f   libvcruntimed:undname.obj
 0001:00047b90       ?getECSUName@UnDecorator@@CA?AVDName@@XZ 0000000180048b90 f i libvcruntimed:undname.obj
 0001:00047bb0       ?getEnumType@UnDecorator@@CA?AVDName@@XZ 0000000180048bb0 f i libvcruntimed:undname.obj
 0001:00047d30       ?getExtendedDataIndirectType@UnDecorator@@CA?AVDName@@AEAPEBDAEA_NH@Z 0000000180048d30 f   libvcruntimed:undname.obj
 0001:00048050       ?getExternalDataType@UnDecorator@@CA?AVDName@@AEBV2@@Z 0000000180049050 f i libvcruntimed:undname.obj
 0001:00048130       ?getFunctionIndirectType@UnDecorator@@CA?AVDName@@AEBV2@@Z 0000000180049130 f   libvcruntimed:undname.obj
 0001:00048730       ?getGuardNumber@UnDecorator@@CA?AVDName@@XZ 0000000180049730 f i libvcruntimed:undname.obj
 0001:00048750       ?getLastChar@DName@@QEBADXZ 0000000180049750 f i libvcruntimed:undname.obj
 0001:000487a0       ?getLastChar@DNameStatusNode@@UEBADXZ 00000001800497a0 f i libvcruntimed:undname.obj
 0001:000487e0       ?getLastChar@charNode@@UEBADXZ 00000001800497e0 f i libvcruntimed:undname.obj
 0001:000487f0       ?getLastChar@pDNameNode@@UEBADXZ 00000001800497f0 f i libvcruntimed:undname.obj
 0001:00048830       ?getLastChar@pairNode@@UEBADXZ 0000000180049830 f i libvcruntimed:undname.obj
 0001:000488b0       ?getLastChar@pcharNode@@UEBADXZ 00000001800498b0 f i libvcruntimed:undname.obj
 0001:000488f0       ?getLexicalFrame@UnDecorator@@CA?AVDName@@XZ 00000001800498f0 f i libvcruntimed:undname.obj
 0001:00048940       ?getMemory@_HeapManager@@QEAAPEAX_KH@Z 0000000180049940 f   libvcruntimed:undname.obj
 0001:00048ac0       ?getNoexcept@UnDecorator@@CA?AVDName@@XZ 0000000180049ac0 f   libvcruntimed:undname.obj
 0001:00048b50       ?getNumberOfDimensions@UnDecorator@@CAHXZ 0000000180049b50 f   libvcruntimed:undname.obj
 0001:00048c70       ?getOperatorName@UnDecorator@@CA?AVDName@@_NPEA_N@Z 0000000180049c70 f i libvcruntimed:undname.obj
 0001:00049a50       ?getPointerType@UnDecorator@@CA?AVDName@@AEBV2@0@Z 000000018004aa50 f i libvcruntimed:undname.obj
 0001:00049aa0       ?getPointerTypeArray@UnDecorator@@CA?AVDName@@AEBV2@0@Z 000000018004aaa0 f i libvcruntimed:undname.obj
 0001:00049af0       ?getPrimaryDataType@UnDecorator@@CA?AVDName@@AEBV2@@Z 000000018004aaf0 f   libvcruntimed:undname.obj
 0001:00049fe0       ?getPtrRefDataType@UnDecorator@@CA?AVDName@@AEBV2@H@Z 000000018004afe0 f   libvcruntimed:undname.obj
 0001:0004a270       ?getPtrRefType@UnDecorator@@CA?AVDName@@AEBV2@0PEBD@Z 000000018004b270 f   libvcruntimed:undname.obj
 0001:0004a480       ?getReferenceType@UnDecorator@@CA?AVDName@@AEBV2@0PEBD@Z 000000018004b480 f i libvcruntimed:undname.obj
 0001:0004a4c0       ?getRestrictionSpec@UnDecorator@@CA?AVDName@@XZ 000000018004b4c0 f   libvcruntimed:undname.obj
 0001:0004a690       ?getReturnType@UnDecorator@@CA?AVDName@@PEAV2@@Z 000000018004b690 f   libvcruntimed:undname.obj
 0001:0004a6f0       ?getScope@UnDecorator@@CA?AVDName@@XZ 000000018004b6f0 f   libvcruntimed:undname.obj
 0001:0004ad70       ?getScopedName@UnDecorator@@CA?AVDName@@XZ 000000018004bd70 f   libvcruntimed:undname.obj
 0001:0004af00       ?getSignedDimension@UnDecorator@@CA?AVDName@@XZ 000000018004bf00 f   libvcruntimed:undname.obj
 0001:0004af90       ?getStorageConvention@UnDecorator@@CA?AVDName@@XZ 000000018004bf90 f i libvcruntimed:undname.obj
 0001:0004afb0       ?getString@DName@@QEBAPEADPEAD0@Z 000000018004bfb0 f i libvcruntimed:undname.obj
 0001:0004b030       ?getString@DName@@QEBAPEADPEADH@Z 000000018004c030 f i libvcruntimed:undname.obj
 0001:0004b0f0       ?getString@DNameStatusNode@@UEBAPEADPEAD0@Z 000000018004c0f0 f i libvcruntimed:undname.obj
 0001:0004b140       ?getString@charNode@@UEBAPEADPEAD0@Z 000000018004c140 f i libvcruntimed:undname.obj
 0001:0004b180       ?getString@pDNameNode@@UEBAPEADPEAD0@Z 000000018004c180 f i libvcruntimed:undname.obj
 0001:0004b1e0       ?getString@pairNode@@UEBAPEADPEAD0@Z 000000018004c1e0 f i libvcruntimed:undname.obj
 0001:0004b2b0       ?getString@pcharNode@@UEBAPEADPEAD0@Z 000000018004c2b0 f i libvcruntimed:undname.obj
 0001:0004b2f0       ?getStringEncoding@UnDecorator@@CA?AVDName@@PEBDH@Z 000000018004c2f0 f   libvcruntimed:undname.obj
 0001:0004b430       ?getStringHelper@@YAPEADPEADPEBD1H@Z 000000018004c430 f i libvcruntimed:undname.obj
 0001:0004b4a0       ?getSymbolName@UnDecorator@@CA?AVDName@@XZ 000000018004c4a0 f i libvcruntimed:undname.obj
 0001:0004b540       ?getTemplateArgumentList@UnDecorator@@CA?AVDName@@XZ 000000018004c540 f   libvcruntimed:undname.obj
 0001:0004b820       ?getTemplateName@UnDecorator@@CA?AVDName@@_N@Z 000000018004c820 f   libvcruntimed:undname.obj
 0001:0004ba60       ?getTemplateNonTypeArgument@UnDecorator@@CA?AVDName@@XZ 000000018004ca60 f   libvcruntimed:undname.obj
 0001:0004c190       ?getTemplateTypeArgument@UnDecorator@@CA?AVDName@@XZ 000000018004d190 f   libvcruntimed:undname.obj
 0001:0004c360       ?getThisType@UnDecorator@@CA?AVDName@@XZ 000000018004d360 f i libvcruntimed:undname.obj
 0001:0004c3d0       ?getThrowTypes@UnDecorator@@CA?AVDName@@XZ 000000018004d3d0 f   libvcruntimed:undname.obj
 0001:0004c420       ?getTypeEncoding@UnDecorator@@CAHXZ 000000018004d420 f i libvcruntimed:undname.obj
 0001:0004d020       ?getUndecoratedName@UnDecorator@@QEAAPEADPEADH@Z 000000018004e020 f i libvcruntimed:undname.obj
 0001:0004d1e0       ?getVCallThunkType@UnDecorator@@CA?AVDName@@XZ 000000018004e1e0 f i libvcruntimed:undname.obj
 0001:0004d260       ?getVbTableType@UnDecorator@@CA?AVDName@@AEBV2@@Z 000000018004e260 f i libvcruntimed:undname.obj
 0001:0004d290       ?getVdispMapType@UnDecorator@@CA?AVDName@@AEBV2@@Z 000000018004e290 f i libvcruntimed:undname.obj
 0001:0004d320       ?getVfTableType@UnDecorator@@CA?AVDName@@AEBV2@@Z 000000018004e320 f i libvcruntimed:undname.obj
 0001:0004d560       ?getZName@UnDecorator@@CA?AVDName@@_N0@Z 000000018004e560 f   libvcruntimed:undname.obj
 0001:0004d920       ?haveTemplateParameters@UnDecorator@@SAHXZ 000000018004e920 f i libvcruntimed:undname.obj
 0001:0004d930       ?isArray@DName@@QEBAHXZ    000000018004e930 f i libvcruntimed:undname.obj
 0001:0004d950       ?isComArray@DName@@QEBAHXZ 000000018004e950 f i libvcruntimed:undname.obj
 0001:0004d970       ?isEmpty@DName@@QEBAHXZ    000000018004e970 f i libvcruntimed:undname.obj
 0001:0004d9a0       ?isFull@Replicator@@QEBAHXZ 000000018004e9a0 f i libvcruntimed:undname.obj
 0001:0004d9d0       ?isNoTE@DName@@QEBAHXZ     000000018004e9d0 f i libvcruntimed:undname.obj
 0001:0004d9f0       ?isPinPtr@DName@@QEBAHXZ   000000018004e9f0 f i libvcruntimed:undname.obj
 0001:0004da10       ?isPtrRef@DName@@QEBAHXZ   000000018004ea10 f i libvcruntimed:undname.obj
 0001:0004da30       ?isUDC@DName@@QEBAHXZ      000000018004ea30 f i libvcruntimed:undname.obj
 0001:0004da80       ?isUDTThunk@DName@@QEBAHXZ 000000018004ea80 f i libvcruntimed:undname.obj
 0001:0004dad0       ?isVCallThunk@DName@@QEBAHXZ 000000018004ead0 f i libvcruntimed:undname.obj
 0001:0004daf0       ?isValid@DName@@QEBAHXZ    000000018004eaf0 f i libvcruntimed:undname.obj
 0001:0004db30       ?length@DName@@QEBAHXZ     000000018004eb30 f i libvcruntimed:undname.obj
 0001:0004db80       ?length@DNameStatusNode@@UEBAHXZ 000000018004eb80 f i libvcruntimed:undname.obj
 0001:0004db90       ?length@charNode@@UEBAHXZ  000000018004eb90 f i libvcruntimed:undname.obj
 0001:0004dba0       ?length@pDNameNode@@UEBAHXZ 000000018004eba0 f i libvcruntimed:undname.obj
 0001:0004dbe0       ?length@pairNode@@UEBAHXZ  000000018004ebe0 f i libvcruntimed:undname.obj
 0001:0004dc70       ?length@pcharNode@@UEBAHXZ 000000018004ec70 f i libvcruntimed:undname.obj
 0001:0004dc80       ?make@DNameStatusNode@@SAPEBV1@W4DNameStatus@@@Z 000000018004ec80 f i libvcruntimed:undname.obj
 0001:0004dcd0       ?parseDecoratedName@UnDecorator@@CA?AVDName@@XZ 000000018004ecd0 f   libvcruntimed:undname.obj
 0001:0004de90       ?setIsArray@DName@@QEAAXXZ 000000018004ee90 f i libvcruntimed:undname.obj
 0001:0004deb0       ?setIsComArray@DName@@QEAAXXZ 000000018004eeb0 f i libvcruntimed:undname.obj
 0001:0004ded0       ?setIsNoTE@DName@@QEAAXXZ  000000018004eed0 f i libvcruntimed:undname.obj
 0001:0004def0       ?setIsPinPtr@DName@@QEAAXXZ 000000018004eef0 f i libvcruntimed:undname.obj
 0001:0004df10       ?setIsUDC@DName@@QEAAXXZ   000000018004ef10 f i libvcruntimed:undname.obj
 0001:0004df40       ?setIsVCallThunk@DName@@QEAAXXZ 000000018004ef40 f i libvcruntimed:undname.obj
 0001:0004df60       ?setPtrRef@DName@@QEAAAEAV1@XZ 000000018004ef60 f i libvcruntimed:undname.obj
 0001:0004df80       ?status@DName@@QEBA?AW4DNameStatus@@XZ 000000018004ef80 f i libvcruntimed:undname.obj
 0001:0004e0b0       __unDName                  000000018004f0b0 f   libvcruntimed:undname.obj
 0001:0004e110       __unDNameEx                000000018004f110 f   libvcruntimed:undname.obj
 0001:0004e1d0       unDNameGenerateCHPE        000000018004f1d0 f   libvcruntimed:undname.obj
 0001:0004e280       ??$__crt_interlocked_exchange_pointer@UHINSTANCE__@@PEAU1@@@YAPEAUHINSTANCE__@@PEDSEAU0@QEAU0@@Z 000000018004f280 f i libvcruntimed:winapi_downlevel.obj
 0001:0004e2a0       ??$__crt_interlocked_exchange_pointer@UHINSTANCE__@@PEAX@@YAPEAUHINSTANCE__@@PEDSEAU0@QEAX@Z 000000018004f2a0 f i libvcruntimed:winapi_downlevel.obj
 0001:0004e2c0       ??$__crt_interlocked_exchange_pointer@XPEAX@@YAPEAXPEDSEAXQEAX@Z 000000018004f2c0 f i libvcruntimed:winapi_downlevel.obj
 0001:0004e2e0       ??$__crt_interlocked_read_pointer@UHINSTANCE__@@@@YAPEAUHINSTANCE__@@PEDSEAU0@@Z 000000018004f2e0 f i libvcruntimed:winapi_downlevel.obj
 0001:0004e300       ??$__crt_interlocked_read_pointer@X@@YAPEAXPEDSEAX@Z 000000018004f300 f i libvcruntimed:winapi_downlevel.obj
 0001:0004e810       __vcrt_FlsAlloc            000000018004f810 f   libvcruntimed:winapi_downlevel.obj
 0001:0004e860       __vcrt_FlsFree             000000018004f860 f   libvcruntimed:winapi_downlevel.obj
 0001:0004e8b0       __vcrt_FlsGetValue         000000018004f8b0 f   libvcruntimed:winapi_downlevel.obj
 0001:0004e900       __vcrt_FlsSetValue         000000018004f900 f   libvcruntimed:winapi_downlevel.obj
 0001:0004e960       __vcrt_InitializeCriticalSectionEx 000000018004f960 f   libvcruntimed:winapi_downlevel.obj
 0001:0004e9e0       _CallSettingFrame          000000018004f9e0 f   libvcruntimed:handlers.obj
 0001:0004ea30       _CallSettingFrame_LookupContinuationIndex 000000018004fa30 f   libvcruntimed:handlers.obj
 0001:0004ea60       _CallSettingFrame_NotifyContinuationAddr 000000018004fa60 f   libvcruntimed:handlers.obj
 0001:0004ea90       _CallSettingFrameEncoded   000000018004fa90 f   libvcruntimed:handlers.obj
 0001:0004eae0       ??$?0AEBV?$stream_output_adapter@D@__crt_stdio_output@@AEB_KAEBQEBDAEBQEAU__crt_locale_pointers@@AEBQEAD@?$format_validation_base@DV?$stream_output_adapter@D@__crt_stdio_output@@@__crt_stdio_output@@IEAA@AEBV?$stream_output_adapter@D@1@AEB_KAEBQEBDAEBQEAU__crt_locale_pointers@@AEBQEAD@Z 000000018004fae0 f i libucrtd:output.obj
 0001:0004eb30       ??$?0AEBV?$stream_output_adapter@D@__crt_stdio_output@@AEB_KAEBQEBDAEBQEAU__crt_locale_pointers@@AEBQEAD@?$positional_parameter_base@DV?$stream_output_adapter@D@__crt_stdio_output@@@__crt_stdio_output@@IEAA@AEBV?$stream_output_adapter@D@1@AEB_KAEBQEBDAEBQEAU__crt_locale_pointers@@AEBQEAD@Z 000000018004fb30 f i libucrtd:output.obj
 0001:0004ebd0       ??$?0AEBV?$stream_output_adapter@D@__crt_stdio_output@@AEB_KAEBQEBDAEBQEAU__crt_locale_pointers@@AEBQEAD@?$standard_base@DV?$stream_output_adapter@D@__crt_stdio_output@@@__crt_stdio_output@@IEAA@AEBV?$stream_output_adapter@D@1@AEB_KAEBQEBDAEBQEAU__crt_locale_pointers@@AEBQEAD@Z 000000018004fbd0 f i libucrtd:output.obj
 0001:0004ec40       ??$?0AEBV?$stream_output_adapter@_W@__crt_stdio_output@@AEB_KAEBQEB_WAEBQEAU__crt_locale_pointers@@AEBQEAD@?$format_validation_base@_WV?$stream_output_adapter@_W@__crt_stdio_output@@@__crt_stdio_output@@IEAA@AEBV?$stream_output_adapter@_W@1@AEB_KAEBQEB_WAEBQEAU__crt_locale_pointers@@AEBQEAD@Z 000000018004fc40 f i libucrtd:output.obj
 0001:0004ec90       ??$?0AEBV?$stream_output_adapter@_W@__crt_stdio_output@@AEB_KAEBQEB_WAEBQEAU__crt_locale_pointers@@AEBQEAD@?$positional_parameter_base@_WV?$stream_output_adapter@_W@__crt_stdio_output@@@__crt_stdio_output@@IEAA@AEBV?$stream_output_adapter@_W@1@AEB_KAEBQEB_WAEBQEAU__crt_locale_pointers@@AEBQEAD@Z 000000018004fc90 f i libucrtd:output.obj
 0001:0004ed30       ??$?0AEBV?$stream_output_adapter@_W@__crt_stdio_output@@AEB_KAEBQEB_WAEBQEAU__crt_locale_pointers@@AEBQEAD@?$standard_base@_WV?$stream_output_adapter@_W@__crt_stdio_output@@@__crt_stdio_output@@IEAA@AEBV?$stream_output_adapter@_W@1@AEB_KAEBQEB_WAEBQEAU__crt_locale_pointers@@AEBQEAD@Z 000000018004fd30 f i libucrtd:output.obj
 0001:0004eda0       ??$?0AEBV?$string_output_adapter@D@__crt_stdio_output@@AEB_KAEBQEBDAEBQEAU__crt_locale_pointers@@AEBQEAD@?$format_validation_base@DV?$string_output_adapter@D@__crt_stdio_output@@@__crt_stdio_output@@IEAA@AEBV?$string_output_adapter@D@1@AEB_KAEBQEBDAEBQEAU__crt_locale_pointers@@AEBQEAD@Z 000000018004fda0 f i libucrtd:output.obj
 0001:0004edf0       ??$?0AEBV?$string_output_adapter@D@__crt_stdio_output@@AEB_KAEBQEBDAEBQEAU__crt_locale_pointers@@AEBQEAD@?$positional_parameter_base@DV?$string_output_adapter@D@__crt_stdio_output@@@__crt_stdio_output@@IEAA@AEBV?$string_output_adapter@D@1@AEB_KAEBQEBDAEBQEAU__crt_locale_pointers@@AEBQEAD@Z 000000018004fdf0 f i libucrtd:output.obj
 0001:0004ee90       ??$?0AEBV?$string_output_adapter@D@__crt_stdio_output@@AEB_KAEBQEBDAEBQEAU__crt_locale_pointers@@AEBQEAD@?$standard_base@DV?$string_output_adapter@D@__crt_stdio_output@@@__crt_stdio_output@@IEAA@AEBV?$string_output_adapter@D@1@AEB_KAEBQEBDAEBQEAU__crt_locale_pointers@@AEBQEAD@Z 000000018004fe90 f i libucrtd:output.obj
 0001:0004ef00       ??$?0AEBV?$string_output_adapter@_W@__crt_stdio_output@@AEB_KAEBQEB_WAEBQEAU__crt_locale_pointers@@AEBQEAD@?$format_validation_base@_WV?$string_output_adapter@_W@__crt_stdio_output@@@__crt_stdio_output@@IEAA@AEBV?$string_output_adapter@_W@1@AEB_KAEBQEB_WAEBQEAU__crt_locale_pointers@@AEBQEAD@Z 000000018004ff00 f i libucrtd:output.obj
 0001:0004ef50       ??$?0AEBV?$string_output_adapter@_W@__crt_stdio_output@@AEB_KAEBQEB_WAEBQEAU__crt_locale_pointers@@AEBQEAD@?$positional_parameter_base@_WV?$string_output_adapter@_W@__crt_stdio_output@@@__crt_stdio_output@@IEAA@AEBV?$string_output_adapter@_W@1@AEB_KAEBQEB_WAEBQEAU__crt_locale_pointers@@AEBQEAD@Z 000000018004ff50 f i libucrtd:output.obj
 0001:0004eff0       ??$?0AEBV?$string_output_adapter@_W@__crt_stdio_output@@AEB_KAEBQEB_WAEBQEAU__crt_locale_pointers@@AEBQEAD@?$standard_base@_WV?$string_output_adapter@_W@__crt_stdio_output@@@__crt_stdio_output@@IEAA@AEBV?$string_output_adapter@_W@1@AEB_KAEBQEB_WAEBQEAU__crt_locale_pointers@@AEBQEAD@Z 000000018004fff0 f i libucrtd:output.obj
 0001:0004f420       ??$__crt_interlocked_read@J@@YAJPEDJ@Z 0000000180050420 f i libucrtd:output.obj
 0001:00052f00       ??$count@D@formatting_buffer@__crt_stdio_output@@QEBA_KXZ 0000000180053f00 f i libucrtd:output.obj
 0001:00052f50       ??$count@_W@formatting_buffer@__crt_stdio_output@@QEBA_KXZ 0000000180053f50 f i libucrtd:output.obj
 0001:00052fa0       ??$data@D@formatting_buffer@__crt_stdio_output@@QEAAPEADXZ 0000000180053fa0 f i libucrtd:output.obj
 0001:00052ff0       ??$data@_W@formatting_buffer@__crt_stdio_output@@QEAAPEA_WXZ 0000000180053ff0 f i libucrtd:output.obj
 0001:00053040       ??$ensure_buffer_is_big_enough@D@formatting_buffer@__crt_stdio_output@@QEAA_N_K@Z 0000000180054040 f i libucrtd:output.obj
 0001:00053170       ??$ensure_buffer_is_big_enough@_W@formatting_buffer@__crt_stdio_output@@QEAA_N_K@Z 0000000180054170 f i libucrtd:output.obj
 0001:000532a0       ??$extract_argument_from_va_list@C_J@?$positional_parameter_base@DV?$stream_output_adapter@D@__crt_stdio_output@@@__crt_stdio_output@@IEAA_NAEA_J@Z 00000001800542a0 f i libucrtd:output.obj
 0001:00053420       ??$extract_argument_from_va_list@C_J@?$positional_parameter_base@DV?$string_output_adapter@D@__crt_stdio_output@@@__crt_stdio_output@@IEAA_NAEA_J@Z 0000000180054420 f i libucrtd:output.obj
 0001:000535a0       ??$extract_argument_from_va_list@C_J@?$positional_parameter_base@_WV?$stream_output_adapter@_W@__crt_stdio_output@@@__crt_stdio_output@@IEAA_NAEA_J@Z 00000001800545a0 f i libucrtd:output.obj
 0001:00053720       ??$extract_argument_from_va_list@C_J@?$positional_parameter_base@_WV?$string_output_adapter@_W@__crt_stdio_output@@@__crt_stdio_output@@IEAA_NAEA_J@Z 0000000180054720 f i libucrtd:output.obj
 0001:000538a0       ??$extract_argument_from_va_list@C_J@?$standard_base@DV?$stream_output_adapter@D@__crt_stdio_output@@@__crt_stdio_output@@IEAA_NAEA_J@Z 00000001800548a0 f i libucrtd:output.obj
 0001:000538e0       ??$extract_argument_from_va_list@C_J@?$standard_base@DV?$string_output_adapter@D@__crt_stdio_output@@@__crt_stdio_output@@IEAA_NAEA_J@Z 00000001800548e0 f i libucrtd:output.obj
 0001:00053920       ??$extract_argument_from_va_list@C_J@?$standard_base@_WV?$stream_output_adapter@_W@__crt_stdio_output@@@__crt_stdio_output@@IEAA_NAEA_J@Z 0000000180054920 f i libucrtd:output.obj
 0001:00053960       ??$extract_argument_from_va_list@C_J@?$standard_base@_WV?$string_output_adapter@_W@__crt_stdio_output@@@__crt_stdio_output@@IEAA_NAEA_J@Z 0000000180054960 f i libucrtd:output.obj
 0001:000539a0       ??$extract_argument_from_va_list@E_J@?$positional_parameter_base@DV?$stream_output_adapter@D@__crt_stdio_output@@@__crt_stdio_output@@IEAA_NAEA_J@Z 00000001800549a0 f i libucrtd:output.obj
 0001:00053b20       ??$extract_argument_from_va_list@E_J@?$positional_parameter_base@DV?$string_output_adapter@D@__crt_stdio_output@@@__crt_stdio_output@@IEAA_NAEA_J@Z 0000000180054b20 f i libucrtd:output.obj
 0001:00053ca0       ??$extract_argument_from_va_list@E_J@?$positional_parameter_base@_WV?$stream_output_adapter@_W@__crt_stdio_output@@@__crt_stdio_output@@IEAA_NAEA_J@Z 0000000180054ca0 f i libucrtd:output.obj
 0001:00053e20       ??$extract_argument_from_va_list@E_J@?$positional_parameter_base@_WV?$string_output_adapter@_W@__crt_stdio_output@@@__crt_stdio_output@@IEAA_NAEA_J@Z 0000000180054e20 f i libucrtd:output.obj
 0001:00053fa0       ??$extract_argument_from_va_list@E_J@?$standard_base@DV?$stream_output_adapter@D@__crt_stdio_output@@@__crt_stdio_output@@IEAA_NAEA_J@Z 0000000180054fa0 f i libucrtd:output.obj
 0001:00053fe0       ??$extract_argument_from_va_list@E_J@?$standard_base@DV?$string_output_adapter@D@__crt_stdio_output@@@__crt_stdio_output@@IEAA_NAEA_J@Z 0000000180054fe0 f i libucrtd:output.obj
 0001:00054020       ??$extract_argument_from_va_list@E_J@?$standard_base@_WV?$stream_output_adapter@_W@__crt_stdio_output@@@__crt_stdio_output@@IEAA_NAEA_J@Z 0000000180055020 f i libucrtd:output.obj
 0001:00054060       ??$extract_argument_from_va_list@E_J@?$standard_base@_WV?$string_output_adapter@_W@__crt_stdio_output@@@__crt_stdio_output@@IEAA_NAEA_J@Z 0000000180055060 f i libucrtd:output.obj
 0001:000540a0       ??$extract_argument_from_va_list@F_J@?$positional_parameter_base@DV?$stream_output_adapter@D@__crt_stdio_output@@@__crt_stdio_output@@IEAA_NAEA_J@Z 00000001800550a0 f i libucrtd:output.obj
 0001:00054220       ??$extract_argument_from_va_list@F_J@?$positional_parameter_base@DV?$string_output_adapter@D@__crt_stdio_output@@@__crt_stdio_output@@IEAA_NAEA_J@Z 0000000180055220 f i libucrtd:output.obj
 0001:000543a0       ??$extract_argument_from_va_list@F_J@?$positional_parameter_base@_WV?$stream_output_adapter@_W@__crt_stdio_output@@@__crt_stdio_output@@IEAA_NAEA_J@Z 00000001800553a0 f i libucrtd:output.obj
 0001:00054520       ??$extract_argument_from_va_list@F_J@?$positional_parameter_base@_WV?$string_output_adapter@_W@__crt_stdio_output@@@__crt_stdio_output@@IEAA_NAEA_J@Z 0000000180055520 f i libucrtd:output.obj
 0001:000546a0       ??$extract_argument_from_va_list@F_J@?$standard_base@DV?$stream_output_adapter@D@__crt_stdio_output@@@__crt_stdio_output@@IEAA_NAEA_J@Z 00000001800556a0 f i libucrtd:output.obj
 0001:000546e0       ??$extract_argument_from_va_list@F_J@?$standard_base@DV?$string_output_adapter@D@__crt_stdio_output@@@__crt_stdio_output@@IEAA_NAEA_J@Z 00000001800556e0 f i libucrtd:output.obj
 0001:00054720       ??$extract_argument_from_va_list@F_J@?$standard_base@_WV?$stream_output_adapter@_W@__crt_stdio_output@@@__crt_stdio_output@@IEAA_NAEA_J@Z 0000000180055720 f i libucrtd:output.obj
 0001:00054760       ??$extract_argument_from_va_list@F_J@?$standard_base@_WV?$string_output_adapter@_W@__crt_stdio_output@@@__crt_stdio_output@@IEAA_NAEA_J@Z 0000000180055760 f i libucrtd:output.obj
 0001:000547a0       ??$extract_argument_from_va_list@GD@?$positional_parameter_base@DV?$stream_output_adapter@D@__crt_stdio_output@@@__crt_stdio_output@@IEAA_NAEAD@Z 00000001800557a0 f i libucrtd:output.obj
 0001:00054920       ??$extract_argument_from_va_list@GD@?$positional_parameter_base@DV?$string_output_adapter@D@__crt_stdio_output@@@__crt_stdio_output@@IEAA_NAEAD@Z 0000000180055920 f i libucrtd:output.obj
 0001:00054aa0       ??$extract_argument_from_va_list@GD@?$standard_base@DV?$stream_output_adapter@D@__crt_stdio_output@@@__crt_stdio_output@@IEAA_NAEAD@Z 0000000180055aa0 f i libucrtd:output.obj
 0001:00054ad0       ??$extract_argument_from_va_list@GD@?$standard_base@DV?$string_output_adapter@D@__crt_stdio_output@@@__crt_stdio_output@@IEAA_NAEAD@Z 0000000180055ad0 f i libucrtd:output.obj
 0001:00054b00       ??$extract_argument_from_va_list@G_J@?$positional_parameter_base@DV?$stream_output_adapter@D@__crt_stdio_output@@@__crt_stdio_output@@IEAA_NAEA_J@Z 0000000180055b00 f i libucrtd:output.obj
 0001:00054c80       ??$extract_argument_from_va_list@G_J@?$positional_parameter_base@DV?$string_output_adapter@D@__crt_stdio_output@@@__crt_stdio_output@@IEAA_NAEA_J@Z 0000000180055c80 f i libucrtd:output.obj
 0001:00054e00       ??$extract_argument_from_va_list@G_J@?$positional_parameter_base@_WV?$stream_output_adapter@_W@__crt_stdio_output@@@__crt_stdio_output@@IEAA_NAEA_J@Z 0000000180055e00 f i libucrtd:output.obj
 0001:00054f80       ??$extract_argument_from_va_list@G_J@?$positional_parameter_base@_WV?$string_output_adapter@_W@__crt_stdio_output@@@__crt_stdio_output@@IEAA_NAEA_J@Z 0000000180055f80 f i libucrtd:output.obj
 0001:00055100       ??$extract_argument_from_va_list@G_J@?$standard_base@DV?$stream_output_adapter@D@__crt_stdio_output@@@__crt_stdio_output@@IEAA_NAEA_J@Z 0000000180056100 f i libucrtd:output.obj
 0001:00055140       ??$extract_argument_from_va_list@G_J@?$standard_base@DV?$string_output_adapter@D@__crt_stdio_output@@@__crt_stdio_output@@IEAA_NAEA_J@Z 0000000180056140 f i libucrtd:output.obj
 0001:00055180       ??$extract_argument_from_va_list@G_J@?$standard_base@_WV?$stream_output_adapter@_W@__crt_stdio_output@@@__crt_stdio_output@@IEAA_NAEA_J@Z 0000000180056180 f i libucrtd:output.obj
 0001:000551c0       ??$extract_argument_from_va_list@G_J@?$standard_base@_WV?$string_output_adapter@_W@__crt_stdio_output@@@__crt_stdio_output@@IEAA_NAEA_J@Z 00000001800561c0 f i libucrtd:output.obj
 0001:00055200       ??$extract_argument_from_va_list@H_J@?$positional_parameter_base@DV?$stream_output_adapter@D@__crt_stdio_output@@@__crt_stdio_output@@IEAA_NAEA_J@Z 0000000180056200 f i libucrtd:output.obj
 0001:00055380       ??$extract_argument_from_va_list@H_J@?$positional_parameter_base@DV?$string_output_adapter@D@__crt_stdio_output@@@__crt_stdio_output@@IEAA_NAEA_J@Z 0000000180056380 f i libucrtd:output.obj
 0001:00055500       ??$extract_argument_from_va_list@H_J@?$positional_parameter_base@_WV?$stream_output_adapter@_W@__crt_stdio_output@@@__crt_stdio_output@@IEAA_NAEA_J@Z 0000000180056500 f i libucrtd:output.obj
 0001:00055680       ??$extract_argument_from_va_list@H_J@?$positional_parameter_base@_WV?$string_output_adapter@_W@__crt_stdio_output@@@__crt_stdio_output@@IEAA_NAEA_J@Z 0000000180056680 f i libucrtd:output.obj
 0001:00055800       ??$extract_argument_from_va_list@H_J@?$standard_base@DV?$stream_output_adapter@D@__crt_stdio_output@@@__crt_stdio_output@@IEAA_NAEA_J@Z 0000000180056800 f i libucrtd:output.obj
 0001:00055830       ??$extract_argument_from_va_list@H_J@?$standard_base@DV?$string_output_adapter@D@__crt_stdio_output@@@__crt_stdio_output@@IEAA_NAEA_J@Z 0000000180056830 f i libucrtd:output.obj
 0001:00055860       ??$extract_argument_from_va_list@H_J@?$standard_base@_WV?$stream_output_adapter@_W@__crt_stdio_output@@@__crt_stdio_output@@IEAA_NAEA_J@Z 0000000180056860 f i libucrtd:output.obj
 0001:00055890       ??$extract_argument_from_va_list@H_J@?$standard_base@_WV?$string_output_adapter@_W@__crt_stdio_output@@@__crt_stdio_output@@IEAA_NAEA_J@Z 0000000180056890 f i libucrtd:output.obj
 0001:000558c0       ??$extract_argument_from_va_list@I_J@?$positional_parameter_base@DV?$stream_output_adapter@D@__crt_stdio_output@@@__crt_stdio_output@@IEAA_NAEA_J@Z 00000001800568c0 f i libucrtd:output.obj
 0001:00055a40       ??$extract_argument_from_va_list@I_J@?$positional_parameter_base@DV?$string_output_adapter@D@__crt_stdio_output@@@__crt_stdio_output@@IEAA_NAEA_J@Z 0000000180056a40 f i libucrtd:output.obj
 0001:00055bc0       ??$extract_argument_from_va_list@I_J@?$positional_parameter_base@_WV?$stream_output_adapter@_W@__crt_stdio_output@@@__crt_stdio_output@@IEAA_NAEA_J@Z 0000000180056bc0 f i libucrtd:output.obj
 0001:00055d40       ??$extract_argument_from_va_list@I_J@?$positional_parameter_base@_WV?$string_output_adapter@_W@__crt_stdio_output@@@__crt_stdio_output@@IEAA_NAEA_J@Z 0000000180056d40 f i libucrtd:output.obj
 0001:00055ec0       ??$extract_argument_from_va_list@I_J@?$standard_base@DV?$stream_output_adapter@D@__crt_stdio_output@@@__crt_stdio_output@@IEAA_NAEA_J@Z 0000000180056ec0 f i libucrtd:output.obj
 0001:00055ef0       ??$extract_argument_from_va_list@I_J@?$standard_base@DV?$string_output_adapter@D@__crt_stdio_output@@@__crt_stdio_output@@IEAA_NAEA_J@Z 0000000180056ef0 f i libucrtd:output.obj
 0001:00055f20       ??$extract_argument_from_va_list@I_J@?$standard_base@_WV?$stream_output_adapter@_W@__crt_stdio_output@@@__crt_stdio_output@@IEAA_NAEA_J@Z 0000000180056f20 f i libucrtd:output.obj
 0001:00055f50       ??$extract_argument_from_va_list@I_J@?$standard_base@_WV?$string_output_adapter@_W@__crt_stdio_output@@@__crt_stdio_output@@IEAA_NAEA_J@Z 0000000180056f50 f i libucrtd:output.obj
 0001:00055f80       ??$extract_argument_from_va_list@PEADPEAD@?$positional_parameter_base@DV?$stream_output_adapter@D@__crt_stdio_output@@@__crt_stdio_output@@IEAA_NAEAPEAD@Z 0000000180056f80 f i libucrtd:output.obj
 0001:00056100       ??$extract_argument_from_va_list@PEADPEAD@?$positional_parameter_base@DV?$string_output_adapter@D@__crt_stdio_output@@@__crt_stdio_output@@IEAA_NAEAPEAD@Z 0000000180057100 f i libucrtd:output.obj
 0001:00056280       ??$extract_argument_from_va_list@PEADPEAD@?$positional_parameter_base@_WV?$stream_output_adapter@_W@__crt_stdio_output@@@__crt_stdio_output@@IEAA_NAEAPEAD@Z 0000000180057280 f i libucrtd:output.obj
 0001:00056400       ??$extract_argument_from_va_list@PEADPEAD@?$positional_parameter_base@_WV?$string_output_adapter@_W@__crt_stdio_output@@@__crt_stdio_output@@IEAA_NAEAPEAD@Z 0000000180057400 f i libucrtd:output.obj
 0001:00056580       ??$extract_argument_from_va_list@PEADPEAD@?$standard_base@DV?$stream_output_adapter@D@__crt_stdio_output@@@__crt_stdio_output@@IEAA_NAEAPEAD@Z 0000000180057580 f i libucrtd:output.obj
 0001:000565b0       ??$extract_argument_from_va_list@PEADPEAD@?$standard_base@DV?$string_output_adapter@D@__crt_stdio_output@@@__crt_stdio_output@@IEAA_NAEAPEAD@Z 00000001800575b0 f i libucrtd:output.obj
 0001:000565e0       ??$extract_argument_from_va_list@PEADPEAD@?$standard_base@_WV?$stream_output_adapter@_W@__crt_stdio_output@@@__crt_stdio_output@@IEAA_NAEAPEAD@Z 00000001800575e0 f i libucrtd:output.obj
 0001:00056610       ??$extract_argument_from_va_list@PEADPEAD@?$standard_base@_WV?$string_output_adapter@_W@__crt_stdio_output@@@__crt_stdio_output@@IEAA_NAEAPEAD@Z 0000000180057610 f i libucrtd:output.obj
 0001:00056e80       ??$extract_argument_from_va_list@PEAXPEAX@?$positional_parameter_base@DV?$stream_output_adapter@D@__crt_stdio_output@@@__crt_stdio_output@@IEAA_NAEAPEAX@Z 0000000180057e80 f i libucrtd:output.obj
 0001:00057000       ??$extract_argument_from_va_list@PEAXPEAX@?$positional_parameter_base@DV?$string_output_adapter@D@__crt_stdio_output@@@__crt_stdio_output@@IEAA_NAEAPEAX@Z 0000000180058000 f i libucrtd:output.obj
 0001:00057180       ??$extract_argument_from_va_list@PEAXPEAX@?$positional_parameter_base@_WV?$stream_output_adapter@_W@__crt_stdio_output@@@__crt_stdio_output@@IEAA_NAEAPEAX@Z 0000000180058180 f i libucrtd:output.obj
 0001:00057300       ??$extract_argument_from_va_list@PEAXPEAX@?$positional_parameter_base@_WV?$string_output_adapter@_W@__crt_stdio_output@@@__crt_stdio_output@@IEAA_NAEAPEAX@Z 0000000180058300 f i libucrtd:output.obj
 0001:00057480       ??$extract_argument_from_va_list@PEAXPEAX@?$standard_base@DV?$stream_output_adapter@D@__crt_stdio_output@@@__crt_stdio_output@@IEAA_NAEAPEAX@Z 0000000180058480 f i libucrtd:output.obj
 0001:000574b0       ??$extract_argument_from_va_list@PEAXPEAX@?$standard_base@DV?$string_output_adapter@D@__crt_stdio_output@@@__crt_stdio_output@@IEAA_NAEAPEAX@Z 00000001800584b0 f i libucrtd:output.obj
 0001:000574e0       ??$extract_argument_from_va_list@PEAXPEAX@?$standard_base@_WV?$stream_output_adapter@_W@__crt_stdio_output@@@__crt_stdio_output@@IEAA_NAEAPEAX@Z 00000001800584e0 f i libucrtd:output.obj
 0001:00057510       ??$extract_argument_from_va_list@PEAXPEAX@?$standard_base@_WV?$string_output_adapter@_W@__crt_stdio_output@@@__crt_stdio_output@@IEAA_NAEAPEAX@Z 0000000180058510 f i libucrtd:output.obj
 0001:00057540       ??$extract_argument_from_va_list@U_CRT_DOUBLE@@U1@@?$positional_parameter_base@DV?$stream_output_adapter@D@__crt_stdio_output@@@__crt_stdio_output@@IEAA_NAEAU_CRT_DOUBLE@@@Z 0000000180058540 f i libucrtd:output.obj
 0001:000576e0       ??$extract_argument_from_va_list@U_CRT_DOUBLE@@U1@@?$positional_parameter_base@DV?$string_output_adapter@D@__crt_stdio_output@@@__crt_stdio_output@@IEAA_NAEAU_CRT_DOUBLE@@@Z 00000001800586e0 f i libucrtd:output.obj
 0001:00057880       ??$extract_argument_from_va_list@U_CRT_DOUBLE@@U1@@?$positional_parameter_base@_WV?$stream_output_adapter@_W@__crt_stdio_output@@@__crt_stdio_output@@IEAA_NAEAU_CRT_DOUBLE@@@Z 0000000180058880 f i libucrtd:output.obj
 0001:00057a20       ??$extract_argument_from_va_list@U_CRT_DOUBLE@@U1@@?$positional_parameter_base@_WV?$string_output_adapter@_W@__crt_stdio_output@@@__crt_stdio_output@@IEAA_NAEAU_CRT_DOUBLE@@@Z 0000000180058a20 f i libucrtd:output.obj
 0001:00057bc0       ??$extract_argument_from_va_list@U_CRT_DOUBLE@@U1@@?$standard_base@DV?$stream_output_adapter@D@__crt_stdio_output@@@__crt_stdio_output@@IEAA_NAEAU_CRT_DOUBLE@@@Z 0000000180058bc0 f i libucrtd:output.obj
 0001:00057c10       ??$extract_argument_from_va_list@U_CRT_DOUBLE@@U1@@?$standard_base@DV?$string_output_adapter@D@__crt_stdio_output@@@__crt_stdio_output@@IEAA_NAEAU_CRT_DOUBLE@@@Z 0000000180058c10 f i libucrtd:output.obj
 0001:00057c60       ??$extract_argument_from_va_list@U_CRT_DOUBLE@@U1@@?$standard_base@_WV?$stream_output_adapter@_W@__crt_stdio_output@@@__crt_stdio_output@@IEAA_NAEAU_CRT_DOUBLE@@@Z 0000000180058c60 f i libucrtd:output.obj
 0001:00057cb0       ??$extract_argument_from_va_list@U_CRT_DOUBLE@@U1@@?$standard_base@_WV?$string_output_adapter@_W@__crt_stdio_output@@@__crt_stdio_output@@IEAA_NAEAU_CRT_DOUBLE@@@Z 0000000180058cb0 f i libucrtd:output.obj
 0001:00057d00       ??$extract_argument_from_va_list@_J_J@?$positional_parameter_base@DV?$stream_output_adapter@D@__crt_stdio_output@@@__crt_stdio_output@@IEAA_NAEA_J@Z 0000000180058d00 f i libucrtd:output.obj
 0001:00057e80       ??$extract_argument_from_va_list@_J_J@?$positional_parameter_base@DV?$string_output_adapter@D@__crt_stdio_output@@@__crt_stdio_output@@IEAA_NAEA_J@Z 0000000180058e80 f i libucrtd:output.obj
 0001:00058000       ??$extract_argument_from_va_list@_J_J@?$positional_parameter_base@_WV?$stream_output_adapter@_W@__crt_stdio_output@@@__crt_stdio_output@@IEAA_NAEA_J@Z 0000000180059000 f i libucrtd:output.obj
 0001:00058180       ??$extract_argument_from_va_list@_J_J@?$positional_parameter_base@_WV?$string_output_adapter@_W@__crt_stdio_output@@@__crt_stdio_output@@IEAA_NAEA_J@Z 0000000180059180 f i libucrtd:output.obj
 0001:00058300       ??$extract_argument_from_va_list@_J_J@?$standard_base@DV?$stream_output_adapter@D@__crt_stdio_output@@@__crt_stdio_output@@IEAA_NAEA_J@Z 0000000180059300 f i libucrtd:output.obj
 0001:00058330       ??$extract_argument_from_va_list@_J_J@?$standard_base@DV?$string_output_adapter@D@__crt_stdio_output@@@__crt_stdio_output@@IEAA_NAEA_J@Z 0000000180059330 f i libucrtd:output.obj
 0001:00058360       ??$extract_argument_from_va_list@_J_J@?$standard_base@_WV?$stream_output_adapter@_W@__crt_stdio_output@@@__crt_stdio_output@@IEAA_NAEA_J@Z 0000000180059360 f i libucrtd:output.obj
 0001:00058390       ??$extract_argument_from_va_list@_J_J@?$standard_base@_WV?$string_output_adapter@_W@__crt_stdio_output@@@__crt_stdio_output@@IEAA_NAEA_J@Z 0000000180059390 f i libucrtd:output.obj
 0001:000583c0       ??$extract_argument_from_va_list@_K_J@?$positional_parameter_base@DV?$stream_output_adapter@D@__crt_stdio_output@@@__crt_stdio_output@@IEAA_NAEA_J@Z 00000001800593c0 f i libucrtd:output.obj
 0001:00058540       ??$extract_argument_from_va_list@_K_J@?$positional_parameter_base@DV?$string_output_adapter@D@__crt_stdio_output@@@__crt_stdio_output@@IEAA_NAEA_J@Z 0000000180059540 f i libucrtd:output.obj
 0001:000586c0       ??$extract_argument_from_va_list@_K_J@?$positional_parameter_base@_WV?$stream_output_adapter@_W@__crt_stdio_output@@@__crt_stdio_output@@IEAA_NAEA_J@Z 00000001800596c0 f i libucrtd:output.obj
 0001:00058840       ??$extract_argument_from_va_list@_K_J@?$positional_parameter_base@_WV?$string_output_adapter@_W@__crt_stdio_output@@@__crt_stdio_output@@IEAA_NAEA_J@Z 0000000180059840 f i libucrtd:output.obj
 0001:000589c0       ??$extract_argument_from_va_list@_K_J@?$standard_base@DV?$stream_output_adapter@D@__crt_stdio_output@@@__crt_stdio_output@@IEAA_NAEA_J@Z 00000001800599c0 f i libucrtd:output.obj
 0001:000589f0       ??$extract_argument_from_va_list@_K_J@?$standard_base@DV?$string_output_adapter@D@__crt_stdio_output@@@__crt_stdio_output@@IEAA_NAEA_J@Z 00000001800599f0 f i libucrtd:output.obj
 0001:00058a20       ??$extract_argument_from_va_list@_K_J@?$standard_base@_WV?$stream_output_adapter@_W@__crt_stdio_output@@@__crt_stdio_output@@IEAA_NAEA_J@Z 0000000180059a20 f i libucrtd:output.obj
 0001:00058a50       ??$extract_argument_from_va_list@_K_J@?$standard_base@_WV?$string_output_adapter@_W@__crt_stdio_output@@@__crt_stdio_output@@IEAA_NAEA_J@Z 0000000180059a50 f i libucrtd:output.obj
 0001:00058a80       ??$extract_argument_from_va_list@_W_W@?$positional_parameter_base@DV?$stream_output_adapter@D@__crt_stdio_output@@@__crt_stdio_output@@IEAA_NAEA_W@Z 0000000180059a80 f i libucrtd:output.obj
 0001:00058c00       ??$extract_argument_from_va_list@_W_W@?$positional_parameter_base@DV?$string_output_adapter@D@__crt_stdio_output@@@__crt_stdio_output@@IEAA_NAEA_W@Z 0000000180059c00 f i libucrtd:output.obj
 0001:00058d80       ??$extract_argument_from_va_list@_W_W@?$positional_parameter_base@_WV?$stream_output_adapter@_W@__crt_stdio_output@@@__crt_stdio_output@@IEAA_NAEA_W@Z 0000000180059d80 f i libucrtd:output.obj
 0001:00058f00       ??$extract_argument_from_va_list@_W_W@?$positional_parameter_base@_WV?$string_output_adapter@_W@__crt_stdio_output@@@__crt_stdio_output@@IEAA_NAEA_W@Z 0000000180059f00 f i libucrtd:output.obj
 0001:00059080       ??$extract_argument_from_va_list@_W_W@?$standard_base@DV?$stream_output_adapter@D@__crt_stdio_output@@@__crt_stdio_output@@IEAA_NAEA_W@Z 000000018005a080 f i libucrtd:output.obj
 0001:000590b0       ??$extract_argument_from_va_list@_W_W@?$standard_base@DV?$string_output_adapter@D@__crt_stdio_output@@@__crt_stdio_output@@IEAA_NAEA_W@Z 000000018005a0b0 f i libucrtd:output.obj
 0001:000590e0       ??$extract_argument_from_va_list@_W_W@?$standard_base@_WV?$stream_output_adapter@_W@__crt_stdio_output@@@__crt_stdio_output@@IEAA_NAEA_W@Z 000000018005a0e0 f i libucrtd:output.obj
 0001:00059110       ??$extract_argument_from_va_list@_W_W@?$standard_base@_WV?$string_output_adapter@_W@__crt_stdio_output@@@__crt_stdio_output@@IEAA_NAEA_W@Z 000000018005a110 f i libucrtd:output.obj
 0001:00059140       ??$get_parameter_type@D@?$positional_parameter_base@DV?$stream_output_adapter@D@__crt_stdio_output@@@__crt_stdio_output@@CA?AW4parameter_type@01@PEAD@Z 000000018005a140 f i libucrtd:output.obj
 0001:00059150       ??$get_parameter_type@D@?$positional_parameter_base@DV?$string_output_adapter@D@__crt_stdio_output@@@__crt_stdio_output@@CA?AW4parameter_type@01@PEAD@Z 000000018005a150 f i libucrtd:output.obj
 0001:00059160       ??$get_parameter_type@D@?$positional_parameter_base@_WV?$stream_output_adapter@_W@__crt_stdio_output@@@__crt_stdio_output@@CA?AW4parameter_type@01@PEAD@Z 000000018005a160 f i libucrtd:output.obj
 0001:00059170       ??$get_parameter_type@D@?$positional_parameter_base@_WV?$string_output_adapter@_W@__crt_stdio_output@@@__crt_stdio_output@@CA?AW4parameter_type@01@PEAD@Z 000000018005a170 f i libucrtd:output.obj
 0001:000591c0       ??$get_parameter_type@X@?$positional_parameter_base@DV?$stream_output_adapter@D@__crt_stdio_output@@@__crt_stdio_output@@CA?AW4parameter_type@01@PEAX@Z 000000018005a1c0 f i libucrtd:output.obj
 0001:000591d0       ??$get_parameter_type@X@?$positional_parameter_base@DV?$string_output_adapter@D@__crt_stdio_output@@@__crt_stdio_output@@CA?AW4parameter_type@01@PEAX@Z 000000018005a1d0 f i libucrtd:output.obj
 0001:000591e0       ??$get_parameter_type@X@?$positional_parameter_base@_WV?$stream_output_adapter@_W@__crt_stdio_output@@@__crt_stdio_output@@CA?AW4parameter_type@01@PEAX@Z 000000018005a1e0 f i libucrtd:output.obj
 0001:000591f0       ??$get_parameter_type@X@?$positional_parameter_base@_WV?$string_output_adapter@_W@__crt_stdio_output@@@__crt_stdio_output@@CA?AW4parameter_type@01@PEAX@Z 000000018005a1f0 f i libucrtd:output.obj
 0001:00059200       ??$is_character_specifier@D@?$positional_parameter_base@DV?$stream_output_adapter@D@__crt_stdio_output@@@__crt_stdio_output@@CA_ND@Z 000000018005a200 f i libucrtd:output.obj
 0001:00059240       ??$is_character_specifier@D@?$positional_parameter_base@DV?$string_output_adapter@D@__crt_stdio_output@@@__crt_stdio_output@@CA_ND@Z 000000018005a240 f i libucrtd:output.obj
 0001:00059280       ??$is_character_specifier@_W@?$positional_parameter_base@_WV?$stream_output_adapter@_W@__crt_stdio_output@@@__crt_stdio_output@@CA_N_W@Z 000000018005a280 f i libucrtd:output.obj
 0001:000592c0       ??$is_character_specifier@_W@?$positional_parameter_base@_WV?$string_output_adapter@_W@__crt_stdio_output@@@__crt_stdio_output@@CA_N_W@Z 000000018005a2c0 f i libucrtd:output.obj
 0001:00059300       ??$is_integral_specifier@D@?$positional_parameter_base@DV?$stream_output_adapter@D@__crt_stdio_output@@@__crt_stdio_output@@CA_ND@Z 000000018005a300 f i libucrtd:output.obj
 0001:00059370       ??$is_integral_specifier@D@?$positional_parameter_base@DV?$string_output_adapter@D@__crt_stdio_output@@@__crt_stdio_output@@CA_ND@Z 000000018005a370 f i libucrtd:output.obj
 0001:000593e0       ??$is_integral_specifier@_W@?$positional_parameter_base@_WV?$stream_output_adapter@_W@__crt_stdio_output@@@__crt_stdio_output@@CA_N_W@Z 000000018005a3e0 f i libucrtd:output.obj
 0001:00059450       ??$is_integral_specifier@_W@?$positional_parameter_base@_WV?$string_output_adapter@_W@__crt_stdio_output@@@__crt_stdio_output@@CA_N_W@Z 000000018005a450 f i libucrtd:output.obj
 0001:000594c0       ??$is_pointer_specifier@D@?$positional_parameter_base@DV?$stream_output_adapter@D@__crt_stdio_output@@@__crt_stdio_output@@CA_ND@Z 000000018005a4c0 f i libucrtd:output.obj
 0001:000594f0       ??$is_pointer_specifier@D@?$positional_parameter_base@DV?$string_output_adapter@D@__crt_stdio_output@@@__crt_stdio_output@@CA_ND@Z 000000018005a4f0 f i libucrtd:output.obj
 0001:00059520       ??$is_pointer_specifier@_W@?$positional_parameter_base@_WV?$stream_output_adapter@_W@__crt_stdio_output@@@__crt_stdio_output@@CA_N_W@Z 000000018005a520 f i libucrtd:output.obj
 0001:00059550       ??$is_pointer_specifier@_W@?$positional_parameter_base@_WV?$string_output_adapter@_W@__crt_stdio_output@@@__crt_stdio_output@@CA_N_W@Z 000000018005a550 f i libucrtd:output.obj
 0001:00059580       ??$is_string_specifier@D@?$positional_parameter_base@DV?$stream_output_adapter@D@__crt_stdio_output@@@__crt_stdio_output@@CA_ND@Z 000000018005a580 f i libucrtd:output.obj
 0001:000595c0       ??$is_string_specifier@D@?$positional_parameter_base@DV?$string_output_adapter@D@__crt_stdio_output@@@__crt_stdio_output@@CA_ND@Z 000000018005a5c0 f i libucrtd:output.obj
 0001:00059600       ??$is_string_specifier@_W@?$positional_parameter_base@_WV?$stream_output_adapter@_W@__crt_stdio_output@@@__crt_stdio_output@@CA_N_W@Z 000000018005a600 f i libucrtd:output.obj
 0001:00059640       ??$is_string_specifier@_W@?$positional_parameter_base@_WV?$string_output_adapter@_W@__crt_stdio_output@@@__crt_stdio_output@@CA_N_W@Z 000000018005a640 f i libucrtd:output.obj
 0001:00059680       ??$is_wide_character_specifier@D@__crt_stdio_output@@YA_N_KDW4length_modifier@0@@Z 000000018005a680 f i libucrtd:output.obj
 0001:00059720       ??$is_wide_character_specifier@_W@__crt_stdio_output@@YA_N_K_WW4length_modifier@0@@Z 000000018005a720 f i libucrtd:output.obj
 0001:000597f0       ??$peek_va_arg@C@__crt_stdio_output@@YACPEAD@Z 000000018005a7f0 f i libucrtd:output.obj
 0001:00059850       ??$peek_va_arg@E@__crt_stdio_output@@YAEPEAD@Z 000000018005a850 f i libucrtd:output.obj
 0001:000598b0       ??$peek_va_arg@F@__crt_stdio_output@@YAFPEAD@Z 000000018005a8b0 f i libucrtd:output.obj
 0001:00059910       ??$peek_va_arg@G@__crt_stdio_output@@YAGPEAD@Z 000000018005a910 f i libucrtd:output.obj
 0001:00059970       ??$peek_va_arg@H@__crt_stdio_output@@YAHPEAD@Z 000000018005a970 f i libucrtd:output.obj
 0001:000599c0       ??$peek_va_arg@I@__crt_stdio_output@@YAIPEAD@Z 000000018005a9c0 f i libucrtd:output.obj
 0001:00059a10       ??$peek_va_arg@PEAD@__crt_stdio_output@@YAPEADPEAD@Z 000000018005aa10 f i libucrtd:output.obj
 0001:00059bf0       ??$peek_va_arg@PEAX@__crt_stdio_output@@YAPEAXPEAD@Z 000000018005abf0 f i libucrtd:output.obj
 0001:00059c50       ??$peek_va_arg@U_CRT_DOUBLE@@@__crt_stdio_output@@YA?AU_CRT_DOUBLE@@PEAD@Z 000000018005ac50 f i libucrtd:output.obj
 0001:00059cb0       ??$peek_va_arg@_J@__crt_stdio_output@@YA_JPEAD@Z 000000018005acb0 f i libucrtd:output.obj
 0001:00059d10       ??$peek_va_arg@_K@__crt_stdio_output@@YA_KPEAD@Z 000000018005ad10 f i libucrtd:output.obj
 0001:00059d70       ??$peek_va_arg@_W@__crt_stdio_output@@YA_WPEAD@Z 000000018005ad70 f i libucrtd:output.obj
 0001:00059dd0       ??$puttc_nolock@AEBDPEAU_iobuf@@@?$__crt_char_traits@D@@SAHAEBD$$QEAPEAU_iobuf@@@Z 000000018005add0 f i libucrtd:output.obj
 0001:00059e00       ??$puttc_nolock@AEB_WPEAU_iobuf@@@?$__crt_char_traits@_W@@SAGAEB_W$$QEAPEAU_iobuf@@@Z 000000018005ae00 f i libucrtd:output.obj
 0001:00059e30       ??$read_va_arg@C@__crt_stdio_output@@YACAEAPEAD@Z 000000018005ae30 f i libucrtd:output.obj
 0001:00059ea0       ??$read_va_arg@E@__crt_stdio_output@@YAEAEAPEAD@Z 000000018005aea0 f i libucrtd:output.obj
 0001:00059f10       ??$read_va_arg@F@__crt_stdio_output@@YAFAEAPEAD@Z 000000018005af10 f i libucrtd:output.obj
 0001:00059f80       ??$read_va_arg@G@__crt_stdio_output@@YAGAEAPEAD@Z 000000018005af80 f i libucrtd:output.obj
 0001:00059ff0       ??$read_va_arg@H@__crt_stdio_output@@YAHAEAPEAD@Z 000000018005aff0 f i libucrtd:output.obj
 0001:0005a050       ??$read_va_arg@I@__crt_stdio_output@@YAIAEAPEAD@Z 000000018005b050 f i libucrtd:output.obj
 0001:0005a0b0       ??$read_va_arg@PEAD@__crt_stdio_output@@YAPEADAEAPEAD@Z 000000018005b0b0 f i libucrtd:output.obj
 0001:0005a660       ??$read_va_arg@PEAX@__crt_stdio_output@@YAPEAXAEAPEAD@Z 000000018005b660 f i libucrtd:output.obj
 0001:0005a6d0       ??$read_va_arg@U_CRT_DOUBLE@@@__crt_stdio_output@@YA?AU_CRT_DOUBLE@@AEAPEAD@Z 000000018005b6d0 f i libucrtd:output.obj
 0001:0005a740       ??$read_va_arg@_J@__crt_stdio_output@@YA_JAEAPEAD@Z 000000018005b740 f i libucrtd:output.obj
 0001:0005a7b0       ??$read_va_arg@_K@__crt_stdio_output@@YA_KAEAPEAD@Z 000000018005b7b0 f i libucrtd:output.obj
 0001:0005a820       ??$read_va_arg@_W@__crt_stdio_output@@YA_WAEAPEAD@Z 000000018005b820 f i libucrtd:output.obj
 0001:0005a890       ??$scratch_count@D@formatting_buffer@__crt_stdio_output@@QEBA_KXZ 000000018005b890 f i libucrtd:output.obj
 0001:0005a8b0       ??$scratch_data@D@formatting_buffer@__crt_stdio_output@@QEAAPEADXZ 000000018005b8b0 f i libucrtd:output.obj
 0001:0005a920       ??$tcstol@AEAPEBDPEAPEADH@?$__crt_char_traits@D@@SAJAEAPEBD$$QEAPEAPEAD$$QEAH@Z 000000018005b920 f i libucrtd:output.obj
 0001:0005a960       ??$tcstol@AEAPEB_WPEAPEA_WH@?$__crt_char_traits@_W@@SAJAEAPEB_W$$QEAPEAPEA_W$$QEAH@Z 000000018005b960 f i libucrtd:output.obj
 0001:0005a9a0       ??$tcstol@PEBDPEAPEADH@?$__crt_char_traits@D@@SAJ$$QEAPEBD$$QEAPEAPEAD$$QEAH@Z 000000018005b9a0 f i libucrtd:output.obj
 0001:0005a9e0       ??$tcstol@PEB_WPEAPEA_WH@?$__crt_char_traits@_W@@SAJ$$QEAPEB_W$$QEAPEAPEA_W$$QEAH@Z 000000018005b9e0 f i libucrtd:output.obj
 0001:0005aa20       ??$type_case_integer_parse_into_buffer@I@?$output_processor@DV?$stream_output_adapter@D@__crt_stdio_output@@V?$format_validation_base@DV?$stream_output_adapter@D@__crt_stdio_output@@@2@@__crt_stdio_output@@AEAAXII_N@Z 000000018005ba20 f i libucrtd:output.obj
 0001:0005ab50       ??$type_case_integer_parse_into_buffer@I@?$output_processor@DV?$stream_output_adapter@D@__crt_stdio_output@@V?$positional_parameter_base@DV?$stream_output_adapter@D@__crt_stdio_output@@@2@@__crt_stdio_output@@AEAAXII_N@Z 000000018005bb50 f i libucrtd:output.obj
 0001:0005ac80       ??$type_case_integer_parse_into_buffer@I@?$output_processor@DV?$stream_output_adapter@D@__crt_stdio_output@@V?$standard_base@DV?$stream_output_adapter@D@__crt_stdio_output@@@2@@__crt_stdio_output@@AEAAXII_N@Z 000000018005bc80 f i libucrtd:output.obj
 0001:0005adb0       ??$type_case_integer_parse_into_buffer@I@?$output_processor@DV?$string_output_adapter@D@__crt_stdio_output@@V?$format_validation_base@DV?$string_output_adapter@D@__crt_stdio_output@@@2@@__crt_stdio_output@@AEAAXII_N@Z 000000018005bdb0 f i libucrtd:output.obj
 0001:0005aee0       ??$type_case_integer_parse_into_buffer@I@?$output_processor@DV?$string_output_adapter@D@__crt_stdio_output@@V?$positional_parameter_base@DV?$string_output_adapter@D@__crt_stdio_output@@@2@@__crt_stdio_output@@AEAAXII_N@Z 000000018005bee0 f i libucrtd:output.obj
 0001:0005b010       ??$type_case_integer_parse_into_buffer@I@?$output_processor@DV?$string_output_adapter@D@__crt_stdio_output@@V?$standard_base@DV?$string_output_adapter@D@__crt_stdio_output@@@2@@__crt_stdio_output@@AEAAXII_N@Z 000000018005c010 f i libucrtd:output.obj
 0001:0005b140       ??$type_case_integer_parse_into_buffer@I@?$output_processor@_WV?$stream_output_adapter@_W@__crt_stdio_output@@V?$format_validation_base@_WV?$stream_output_adapter@_W@__crt_stdio_output@@@2@@__crt_stdio_output@@AEAAXII_N@Z 000000018005c140 f i libucrtd:output.obj
 0001:0005b280       ??$type_case_integer_parse_into_buffer@I@?$output_processor@_WV?$stream_output_adapter@_W@__crt_stdio_output@@V?$positional_parameter_base@_WV?$stream_output_adapter@_W@__crt_stdio_output@@@2@@__crt_stdio_output@@AEAAXII_N@Z 000000018005c280 f i libucrtd:output.obj
 0001:0005b3c0       ??$type_case_integer_parse_into_buffer@I@?$output_processor@_WV?$stream_output_adapter@_W@__crt_stdio_output@@V?$standard_base@_WV?$stream_output_adapter@_W@__crt_stdio_output@@@2@@__crt_stdio_output@@AEAAXII_N@Z 000000018005c3c0 f i libucrtd:output.obj
 0001:0005b500       ??$type_case_integer_parse_into_buffer@I@?$output_processor@_WV?$string_output_adapter@_W@__crt_stdio_output@@V?$format_validation_base@_WV?$string_output_adapter@_W@__crt_stdio_output@@@2@@__crt_stdio_output@@AEAAXII_N@Z 000000018005c500 f i libucrtd:output.obj
 0001:0005b640       ??$type_case_integer_parse_into_buffer@I@?$output_processor@_WV?$string_output_adapter@_W@__crt_stdio_output@@V?$positional_parameter_base@_WV?$string_output_adapter@_W@__crt_stdio_output@@@2@@__crt_stdio_output@@AEAAXII_N@Z 000000018005c640 f i libucrtd:output.obj
 0001:0005b780       ??$type_case_integer_parse_into_buffer@I@?$output_processor@_WV?$string_output_adapter@_W@__crt_stdio_output@@V?$standard_base@_WV?$string_output_adapter@_W@__crt_stdio_output@@@2@@__crt_stdio_output@@AEAAXII_N@Z 000000018005c780 f i libucrtd:output.obj
 0001:0005b8c0       ??$type_case_integer_parse_into_buffer@_K@?$output_processor@DV?$stream_output_adapter@D@__crt_stdio_output@@V?$format_validation_base@DV?$stream_output_adapter@D@__crt_stdio_output@@@2@@__crt_stdio_output@@AEAAX_KI_N@Z 000000018005c8c0 f i libucrtd:output.obj
 0001:0005ba10       ??$type_case_integer_parse_into_buffer@_K@?$output_processor@DV?$stream_output_adapter@D@__crt_stdio_output@@V?$positional_parameter_base@DV?$stream_output_adapter@D@__crt_stdio_output@@@2@@__crt_stdio_output@@AEAAX_KI_N@Z 000000018005ca10 f i libucrtd:output.obj
 0001:0005bb60       ??$type_case_integer_parse_into_buffer@_K@?$output_processor@DV?$stream_output_adapter@D@__crt_stdio_output@@V?$standard_base@DV?$stream_output_adapter@D@__crt_stdio_output@@@2@@__crt_stdio_output@@AEAAX_KI_N@Z 000000018005cb60 f i libucrtd:output.obj
 0001:0005bcb0       ??$type_case_integer_parse_into_buffer@_K@?$output_processor@DV?$string_output_adapter@D@__crt_stdio_output@@V?$format_validation_base@DV?$string_output_adapter@D@__crt_stdio_output@@@2@@__crt_stdio_output@@AEAAX_KI_N@Z 000000018005ccb0 f i libucrtd:output.obj
 0001:0005be00       ??$type_case_integer_parse_into_buffer@_K@?$output_processor@DV?$string_output_adapter@D@__crt_stdio_output@@V?$positional_parameter_base@DV?$string_output_adapter@D@__crt_stdio_output@@@2@@__crt_stdio_output@@AEAAX_KI_N@Z 000000018005ce00 f i libucrtd:output.obj
 0001:0005bf50       ??$type_case_integer_parse_into_buffer@_K@?$output_processor@DV?$string_output_adapter@D@__crt_stdio_output@@V?$standard_base@DV?$string_output_adapter@D@__crt_stdio_output@@@2@@__crt_stdio_output@@AEAAX_KI_N@Z 000000018005cf50 f i libucrtd:output.obj
 0001:0005c0a0       ??$type_case_integer_parse_into_buffer@_K@?$output_processor@_WV?$stream_output_adapter@_W@__crt_stdio_output@@V?$format_validation_base@_WV?$stream_output_adapter@_W@__crt_stdio_output@@@2@@__crt_stdio_output@@AEAAX_KI_N@Z 000000018005d0a0 f i libucrtd:output.obj
 0001:0005c200       ??$type_case_integer_parse_into_buffer@_K@?$output_processor@_WV?$stream_output_adapter@_W@__crt_stdio_output@@V?$positional_parameter_base@_WV?$stream_output_adapter@_W@__crt_stdio_output@@@2@@__crt_stdio_output@@AEAAX_KI_N@Z 000000018005d200 f i libucrtd:output.obj
 0001:0005c360       ??$type_case_integer_parse_into_buffer@_K@?$output_processor@_WV?$stream_output_adapter@_W@__crt_stdio_output@@V?$standard_base@_WV?$stream_output_adapter@_W@__crt_stdio_output@@@2@@__crt_stdio_output@@AEAAX_KI_N@Z 000000018005d360 f i libucrtd:output.obj
 0001:0005c4c0       ??$type_case_integer_parse_into_buffer@_K@?$output_processor@_WV?$string_output_adapter@_W@__crt_stdio_output@@V?$format_validation_base@_WV?$string_output_adapter@_W@__crt_stdio_output@@@2@@__crt_stdio_output@@AEAAX_KI_N@Z 000000018005d4c0 f i libucrtd:output.obj
 0001:0005c620       ??$type_case_integer_parse_into_buffer@_K@?$output_processor@_WV?$string_output_adapter@_W@__crt_stdio_output@@V?$positional_parameter_base@_WV?$string_output_adapter@_W@__crt_stdio_output@@@2@@__crt_stdio_output@@AEAAX_KI_N@Z 000000018005d620 f i libucrtd:output.obj
 0001:0005c780       ??$type_case_integer_parse_into_buffer@_K@?$output_processor@_WV?$string_output_adapter@_W@__crt_stdio_output@@V?$standard_base@_WV?$string_output_adapter@_W@__crt_stdio_output@@@2@@__crt_stdio_output@@AEAAX_KI_N@Z 000000018005d780 f i libucrtd:output.obj
 0001:0005c8e0       ??$write_multiple_characters@V?$stream_output_adapter@D@__crt_stdio_output@@D@__crt_stdio_output@@YAXAEBV?$stream_output_adapter@D@0@DHQEAH@Z 000000018005d8e0 f i libucrtd:output.obj
 0001:0005c940       ??$write_multiple_characters@V?$stream_output_adapter@_W@__crt_stdio_output@@D@__crt_stdio_output@@YAXAEBV?$stream_output_adapter@_W@0@DHQEAH@Z 000000018005d940 f i libucrtd:output.obj
 0001:0005c9a0       ??$write_multiple_characters@V?$string_output_adapter@D@__crt_stdio_output@@D@__crt_stdio_output@@YAXAEBV?$string_output_adapter@D@0@DHQEAH@Z 000000018005d9a0 f i libucrtd:output.obj
 0001:0005ca00       ??$write_multiple_characters@V?$string_output_adapter@_W@__crt_stdio_output@@D@__crt_stdio_output@@YAXAEBV?$string_output_adapter@_W@0@DHQEAH@Z 000000018005da00 f i libucrtd:output.obj
 0001:0005ce20       ??0?$common_data@D@__crt_stdio_output@@IEAA@XZ 000000018005de20 f i libucrtd:output.obj
 0001:0005cef0       ??0?$common_data@_W@__crt_stdio_output@@IEAA@XZ 000000018005def0 f i libucrtd:output.obj
 0001:0005cfc0       ??0?$output_adapter_data@DV?$stream_output_adapter@D@__crt_stdio_output@@@__crt_stdio_output@@IEAA@AEBV?$stream_output_adapter@D@1@_KQEBDQEAU__crt_locale_pointers@@QEAD@Z 000000018005dfc0 f i libucrtd:output.obj
 0001:0005d040       ??0?$output_adapter_data@DV?$string_output_adapter@D@__crt_stdio_output@@@__crt_stdio_output@@IEAA@AEBV?$string_output_adapter@D@1@_KQEBDQEAU__crt_locale_pointers@@QEAD@Z 000000018005e040 f i libucrtd:output.obj
 0001:0005d0c0       ??0?$output_adapter_data@_WV?$stream_output_adapter@_W@__crt_stdio_output@@@__crt_stdio_output@@IEAA@AEBV?$stream_output_adapter@_W@1@_KQEB_WQEAU__crt_locale_pointers@@QEAD@Z 000000018005e0c0 f i libucrtd:output.obj
 0001:0005d140       ??0?$output_adapter_data@_WV?$string_output_adapter@_W@__crt_stdio_output@@@__crt_stdio_output@@IEAA@AEBV?$string_output_adapter@_W@1@_KQEB_WQEAU__crt_locale_pointers@@QEAD@Z 000000018005e140 f i libucrtd:output.obj
 0001:0005d1c0       ??0?$output_processor@DV?$stream_output_adapter@D@__crt_stdio_output@@V?$format_validation_base@DV?$stream_output_adapter@D@__crt_stdio_output@@@2@@__crt_stdio_output@@QEAA@AEBV?$stream_output_adapter@D@1@_KQEBDQEAU__crt_locale_pointers@@QEAD@Z 000000018005e1c0 f i libucrtd:output.obj
 0001:0005d210       ??0?$output_processor@DV?$stream_output_adapter@D@__crt_stdio_output@@V?$positional_parameter_base@DV?$stream_output_adapter@D@__crt_stdio_output@@@2@@__crt_stdio_output@@QEAA@AEBV?$stream_output_adapter@D@1@_KQEBDQEAU__crt_locale_pointers@@QEAD@Z 000000018005e210 f i libucrtd:output.obj
 0001:0005d260       ??0?$output_processor@DV?$stream_output_adapter@D@__crt_stdio_output@@V?$standard_base@DV?$stream_output_adapter@D@__crt_stdio_output@@@2@@__crt_stdio_output@@QEAA@AEBV?$stream_output_adapter@D@1@_KQEBDQEAU__crt_locale_pointers@@QEAD@Z 000000018005e260 f i libucrtd:output.obj
 0001:0005d2b0       ??0?$output_processor@DV?$string_output_adapter@D@__crt_stdio_output@@V?$format_validation_base@DV?$string_output_adapter@D@__crt_stdio_output@@@2@@__crt_stdio_output@@QEAA@AEBV?$string_output_adapter@D@1@_KQEBDQEAU__crt_locale_pointers@@QEAD@Z 000000018005e2b0 f i libucrtd:output.obj
 0001:0005d300       ??0?$output_processor@DV?$string_output_adapter@D@__crt_stdio_output@@V?$positional_parameter_base@DV?$string_output_adapter@D@__crt_stdio_output@@@2@@__crt_stdio_output@@QEAA@AEBV?$string_output_adapter@D@1@_KQEBDQEAU__crt_locale_pointers@@QEAD@Z 000000018005e300 f i libucrtd:output.obj
 0001:0005d350       ??0?$output_processor@DV?$string_output_adapter@D@__crt_stdio_output@@V?$standard_base@DV?$string_output_adapter@D@__crt_stdio_output@@@2@@__crt_stdio_output@@QEAA@AEBV?$string_output_adapter@D@1@_KQEBDQEAU__crt_locale_pointers@@QEAD@Z 000000018005e350 f i libucrtd:output.obj
 0001:0005d3a0       ??0?$output_processor@_WV?$stream_output_adapter@_W@__crt_stdio_output@@V?$format_validation_base@_WV?$stream_output_adapter@_W@__crt_stdio_output@@@2@@__crt_stdio_output@@QEAA@AEBV?$stream_output_adapter@_W@1@_KQEB_WQEAU__crt_locale_pointers@@QEAD@Z 000000018005e3a0 f i libucrtd:output.obj
 0001:0005d3f0       ??0?$output_processor@_WV?$stream_output_adapter@_W@__crt_stdio_output@@V?$positional_parameter_base@_WV?$stream_output_adapter@_W@__crt_stdio_output@@@2@@__crt_stdio_output@@QEAA@AEBV?$stream_output_adapter@_W@1@_KQEB_WQEAU__crt_locale_pointers@@QEAD@Z 000000018005e3f0 f i libucrtd:output.obj
 0001:0005d440       ??0?$output_processor@_WV?$stream_output_adapter@_W@__crt_stdio_output@@V?$standard_base@_WV?$stream_output_adapter@_W@__crt_stdio_output@@@2@@__crt_stdio_output@@QEAA@AEBV?$stream_output_adapter@_W@1@_KQEB_WQEAU__crt_locale_pointers@@QEAD@Z 000000018005e440 f i libucrtd:output.obj
 0001:0005d490       ??0?$output_processor@_WV?$string_output_adapter@_W@__crt_stdio_output@@V?$format_validation_base@_WV?$string_output_adapter@_W@__crt_stdio_output@@@2@@__crt_stdio_output@@QEAA@AEBV?$string_output_adapter@_W@1@_KQEB_WQEAU__crt_locale_pointers@@QEAD@Z 000000018005e490 f i libucrtd:output.obj
 0001:0005d4e0       ??0?$output_processor@_WV?$string_output_adapter@_W@__crt_stdio_output@@V?$positional_parameter_base@_WV?$string_output_adapter@_W@__crt_stdio_output@@@2@@__crt_stdio_output@@QEAA@AEBV?$string_output_adapter@_W@1@_KQEB_WQEAU__crt_locale_pointers@@QEAD@Z 000000018005e4e0 f i libucrtd:output.obj
 0001:0005d530       ??0?$output_processor@_WV?$string_output_adapter@_W@__crt_stdio_output@@V?$standard_base@_WV?$string_output_adapter@_W@__crt_stdio_output@@@2@@__crt_stdio_output@@QEAA@AEBV?$string_output_adapter@_W@1@_KQEB_WQEAU__crt_locale_pointers@@QEAD@Z 000000018005e530 f i libucrtd:output.obj
 0001:0005d580       ??0?$stream_output_adapter@D@__crt_stdio_output@@QEAA@QEAU_iobuf@@@Z 000000018005e580 f i libucrtd:output.obj
 0001:0005d5b0       ??0?$stream_output_adapter@_W@__crt_stdio_output@@QEAA@QEAU_iobuf@@@Z 000000018005e5b0 f i libucrtd:output.obj
 0001:0005d5e0       ??0?$string_output_adapter@D@__crt_stdio_output@@QEAA@QEAU?$string_output_adapter_context@D@1@@Z 000000018005e5e0 f i libucrtd:output.obj
 0001:0005d600       ??0?$string_output_adapter@_W@__crt_stdio_output@@QEAA@QEAU?$string_output_adapter_context@_W@1@@Z 000000018005e600 f i libucrtd:output.obj
 0001:0005d620       ??0_LocaleUpdate@@QEAA@QEAU__crt_locale_pointers@@@Z 000000018005e620 f i libucrtd:output.obj
 0001:0005d740       ??0__acrt_stdio_temporary_buffering_guard@@QEAA@QEAU_iobuf@@@Z 000000018005e740 f i libucrtd:output.obj
 0001:0005d780       ??0__crt_deferred_errno_cache@@QEAA@XZ 000000018005e780 f i libucrtd:output.obj
 0001:0005d7a0       ??0__crt_errno_guard@@QEAA@QEAH@Z 000000018005e7a0 f i libucrtd:output.obj
 0001:0005d7e0       ??0__crt_stdio_stream@@QEAA@QEAU_iobuf@@@Z 000000018005e7e0 f i libucrtd:output.obj
 0001:0005d800       ??0formatting_buffer@__crt_stdio_output@@QEAA@XZ 000000018005e800 f i libucrtd:output.obj
 0001:0005d840       ??1?$common_data@D@__crt_stdio_output@@QEAA@XZ 000000018005e840 f i libucrtd:output.obj
 0001:0005d860       ??1?$common_data@_W@__crt_stdio_output@@QEAA@XZ 000000018005e860 f i libucrtd:output.obj
 0001:0005d880       ??1?$format_validation_base@DV?$stream_output_adapter@D@__crt_stdio_output@@@__crt_stdio_output@@QEAA@XZ 000000018005e880 f i libucrtd:output.obj
 0001:0005d8a0       ??1?$format_validation_base@DV?$string_output_adapter@D@__crt_stdio_output@@@__crt_stdio_output@@QEAA@XZ 000000018005e8a0 f i libucrtd:output.obj
 0001:0005d8c0       ??1?$format_validation_base@_WV?$stream_output_adapter@_W@__crt_stdio_output@@@__crt_stdio_output@@QEAA@XZ 000000018005e8c0 f i libucrtd:output.obj
 0001:0005d8e0       ??1?$format_validation_base@_WV?$string_output_adapter@_W@__crt_stdio_output@@@__crt_stdio_output@@QEAA@XZ 000000018005e8e0 f i libucrtd:output.obj
 0001:0005d900       ??1?$output_adapter_data@DV?$stream_output_adapter@D@__crt_stdio_output@@@__crt_stdio_output@@QEAA@XZ 000000018005e900 f i libucrtd:output.obj
 0001:0005d920       ??1?$output_adapter_data@DV?$string_output_adapter@D@__crt_stdio_output@@@__crt_stdio_output@@QEAA@XZ 000000018005e920 f i libucrtd:output.obj
 0001:0005d940       ??1?$output_adapter_data@_WV?$stream_output_adapter@_W@__crt_stdio_output@@@__crt_stdio_output@@QEAA@XZ 000000018005e940 f i libucrtd:output.obj
 0001:0005d960       ??1?$output_adapter_data@_WV?$string_output_adapter@_W@__crt_stdio_output@@@__crt_stdio_output@@QEAA@XZ 000000018005e960 f i libucrtd:output.obj
 0001:0005d980       ??1?$output_processor@DV?$stream_output_adapter@D@__crt_stdio_output@@V?$format_validation_base@DV?$stream_output_adapter@D@__crt_stdio_output@@@2@@__crt_stdio_output@@QEAA@XZ 000000018005e980 f i libucrtd:output.obj
 0001:0005d9a0       ??1?$output_processor@DV?$stream_output_adapter@D@__crt_stdio_output@@V?$positional_parameter_base@DV?$stream_output_adapter@D@__crt_stdio_output@@@2@@__crt_stdio_output@@QEAA@XZ 000000018005e9a0 f i libucrtd:output.obj
 0001:0005d9c0       ??1?$output_processor@DV?$stream_output_adapter@D@__crt_stdio_output@@V?$standard_base@DV?$stream_output_adapter@D@__crt_stdio_output@@@2@@__crt_stdio_output@@QEAA@XZ 000000018005e9c0 f i libucrtd:output.obj
 0001:0005d9e0       ??1?$output_processor@DV?$string_output_adapter@D@__crt_stdio_output@@V?$format_validation_base@DV?$string_output_adapter@D@__crt_stdio_output@@@2@@__crt_stdio_output@@QEAA@XZ 000000018005e9e0 f i libucrtd:output.obj
 0001:0005da00       ??1?$output_processor@DV?$string_output_adapter@D@__crt_stdio_output@@V?$positional_parameter_base@DV?$string_output_adapter@D@__crt_stdio_output@@@2@@__crt_stdio_output@@QEAA@XZ 000000018005ea00 f i libucrtd:output.obj
 0001:0005da20       ??1?$output_processor@DV?$string_output_adapter@D@__crt_stdio_output@@V?$standard_base@DV?$string_output_adapter@D@__crt_stdio_output@@@2@@__crt_stdio_output@@QEAA@XZ 000000018005ea20 f i libucrtd:output.obj
 0001:0005da40       ??1?$output_processor@_WV?$stream_output_adapter@_W@__crt_stdio_output@@V?$format_validation_base@_WV?$stream_output_adapter@_W@__crt_stdio_output@@@2@@__crt_stdio_output@@QEAA@XZ 000000018005ea40 f i libucrtd:output.obj
 0001:0005da60       ??1?$output_processor@_WV?$stream_output_adapter@_W@__crt_stdio_output@@V?$positional_parameter_base@_WV?$stream_output_adapter@_W@__crt_stdio_output@@@2@@__crt_stdio_output@@QEAA@XZ 000000018005ea60 f i libucrtd:output.obj
 0001:0005da80       ??1?$output_processor@_WV?$stream_output_adapter@_W@__crt_stdio_output@@V?$standard_base@_WV?$stream_output_adapter@_W@__crt_stdio_output@@@2@@__crt_stdio_output@@QEAA@XZ 000000018005ea80 f i libucrtd:output.obj
 0001:0005daa0       ??1?$output_processor@_WV?$string_output_adapter@_W@__crt_stdio_output@@V?$format_validation_base@_WV?$string_output_adapter@_W@__crt_stdio_output@@@2@@__crt_stdio_output@@QEAA@XZ 000000018005eaa0 f i libucrtd:output.obj
 0001:0005dac0       ??1?$output_processor@_WV?$string_output_adapter@_W@__crt_stdio_output@@V?$positional_parameter_base@_WV?$string_output_adapter@_W@__crt_stdio_output@@@2@@__crt_stdio_output@@QEAA@XZ 000000018005eac0 f i libucrtd:output.obj
 0001:0005dae0       ??1?$output_processor@_WV?$string_output_adapter@_W@__crt_stdio_output@@V?$standard_base@_WV?$string_output_adapter@_W@__crt_stdio_output@@@2@@__crt_stdio_output@@QEAA@XZ 000000018005eae0 f i libucrtd:output.obj
 0001:0005db00       ??1?$positional_parameter_base@DV?$stream_output_adapter@D@__crt_stdio_output@@@__crt_stdio_output@@QEAA@XZ 000000018005eb00 f i libucrtd:output.obj
 0001:0005db20       ??1?$positional_parameter_base@DV?$string_output_adapter@D@__crt_stdio_output@@@__crt_stdio_output@@QEAA@XZ 000000018005eb20 f i libucrtd:output.obj
 0001:0005db40       ??1?$positional_parameter_base@_WV?$stream_output_adapter@_W@__crt_stdio_output@@@__crt_stdio_output@@QEAA@XZ 000000018005eb40 f i libucrtd:output.obj
 0001:0005db60       ??1?$positional_parameter_base@_WV?$string_output_adapter@_W@__crt_stdio_output@@@__crt_stdio_output@@QEAA@XZ 000000018005eb60 f i libucrtd:output.obj
 0001:0005db80       ??1?$standard_base@DV?$stream_output_adapter@D@__crt_stdio_output@@@__crt_stdio_output@@QEAA@XZ 000000018005eb80 f i libucrtd:output.obj
 0001:0005dba0       ??1?$standard_base@DV?$string_output_adapter@D@__crt_stdio_output@@@__crt_stdio_output@@QEAA@XZ 000000018005eba0 f i libucrtd:output.obj
 0001:0005dbc0       ??1?$standard_base@_WV?$stream_output_adapter@_W@__crt_stdio_output@@@__crt_stdio_output@@QEAA@XZ 000000018005ebc0 f i libucrtd:output.obj
 0001:0005dbe0       ??1?$standard_base@_WV?$string_output_adapter@_W@__crt_stdio_output@@@__crt_stdio_output@@QEAA@XZ 000000018005ebe0 f i libucrtd:output.obj
 0001:0005dc00       ??1_LocaleUpdate@@QEAA@XZ  000000018005ec00 f i libucrtd:output.obj
 0001:0005dc40       ??1__acrt_stdio_temporary_buffering_guard@@QEAA@XZ 000000018005ec40 f i libucrtd:output.obj
 0001:0005dc70       ??1__crt_errno_guard@@QEAA@XZ 000000018005ec70 f i libucrtd:output.obj
 0001:0005dca0       ??1formatting_buffer@__crt_stdio_output@@QEAA@XZ 000000018005eca0 f i libucrtd:output.obj
 0001:0005dcd0       ??4?$__crt_unique_heap_ptr@DU__crt_internal_free_policy@@@@QEAAAEAV0@$$QEAV0@@Z 000000018005ecd0 f i libucrtd:output.obj
 0001:0005dd10       ??C__crt_stdio_stream@@QEBAPEAU__crt_stdio_stream_data@@XZ 000000018005ed10 f i libucrtd:output.obj
 0001:0005e5c0       ?GetLocaleT@_LocaleUpdate@@QEAAPEAU__crt_locale_pointers@@XZ 000000018005f5c0 f i libucrtd:output.obj
 0001:0005e5d0       ?__crt_interlocked_read_32@@YAHPEDH@Z 000000018005f5d0 f i libucrtd:output.obj
 0001:0005e5f0       ?adjust_hexit@?$output_processor@DV?$stream_output_adapter@D@__crt_stdio_output@@V?$format_validation_base@DV?$stream_output_adapter@D@__crt_stdio_output@@@2@@__crt_stdio_output@@CADH_N@Z 000000018005f5f0 f i libucrtd:output.obj
 0001:0005e640       ?adjust_hexit@?$output_processor@DV?$stream_output_adapter@D@__crt_stdio_output@@V?$positional_parameter_base@DV?$stream_output_adapter@D@__crt_stdio_output@@@2@@__crt_stdio_output@@CADH_N@Z 000000018005f640 f i libucrtd:output.obj
 0001:0005e690       ?adjust_hexit@?$output_processor@DV?$stream_output_adapter@D@__crt_stdio_output@@V?$standard_base@DV?$stream_output_adapter@D@__crt_stdio_output@@@2@@__crt_stdio_output@@CADH_N@Z 000000018005f690 f i libucrtd:output.obj
 0001:0005e6e0       ?adjust_hexit@?$output_processor@DV?$string_output_adapter@D@__crt_stdio_output@@V?$format_validation_base@DV?$string_output_adapter@D@__crt_stdio_output@@@2@@__crt_stdio_output@@CADH_N@Z 000000018005f6e0 f i libucrtd:output.obj
 0001:0005e730       ?adjust_hexit@?$output_processor@DV?$string_output_adapter@D@__crt_stdio_output@@V?$positional_parameter_base@DV?$string_output_adapter@D@__crt_stdio_output@@@2@@__crt_stdio_output@@CADH_N@Z 000000018005f730 f i libucrtd:output.obj
 0001:0005e780       ?adjust_hexit@?$output_processor@DV?$string_output_adapter@D@__crt_stdio_output@@V?$standard_base@DV?$string_output_adapter@D@__crt_stdio_output@@@2@@__crt_stdio_output@@CADH_N@Z 000000018005f780 f i libucrtd:output.obj
 0001:0005e7d0       ?adjust_hexit@?$output_processor@_WV?$stream_output_adapter@_W@__crt_stdio_output@@V?$format_validation_base@_WV?$stream_output_adapter@_W@__crt_stdio_output@@@2@@__crt_stdio_output@@CADH_N@Z 000000018005f7d0 f i libucrtd:output.obj
 0001:0005e820       ?adjust_hexit@?$output_processor@_WV?$stream_output_adapter@_W@__crt_stdio_output@@V?$positional_parameter_base@_WV?$stream_output_adapter@_W@__crt_stdio_output@@@2@@__crt_stdio_output@@CADH_N@Z 000000018005f820 f i libucrtd:output.obj
 0001:0005e870       ?adjust_hexit@?$output_processor@_WV?$stream_output_adapter@_W@__crt_stdio_output@@V?$standard_base@_WV?$stream_output_adapter@_W@__crt_stdio_output@@@2@@__crt_stdio_output@@CADH_N@Z 000000018005f870 f i libucrtd:output.obj
 0001:0005e8c0       ?adjust_hexit@?$output_processor@_WV?$string_output_adapter@_W@__crt_stdio_output@@V?$format_validation_base@_WV?$string_output_adapter@_W@__crt_stdio_output@@@2@@__crt_stdio_output@@CADH_N@Z 000000018005f8c0 f i libucrtd:output.obj
 0001:0005e910       ?adjust_hexit@?$output_processor@_WV?$string_output_adapter@_W@__crt_stdio_output@@V?$positional_parameter_base@_WV?$string_output_adapter@_W@__crt_stdio_output@@@2@@__crt_stdio_output@@CADH_N@Z 000000018005f910 f i libucrtd:output.obj
 0001:0005e960       ?adjust_hexit@?$output_processor@_WV?$string_output_adapter@_W@__crt_stdio_output@@V?$standard_base@_WV?$string_output_adapter@_W@__crt_stdio_output@@@2@@__crt_stdio_output@@CADH_N@Z 000000018005f960 f i libucrtd:output.obj
 0001:0005e9b0       ?advance_to_next_pass@?$positional_parameter_base@DV?$stream_output_adapter@D@__crt_stdio_output@@@__crt_stdio_output@@IEAA_NXZ 000000018005f9b0 f i libucrtd:output.obj
 0001:0005ea60       ?advance_to_next_pass@?$positional_parameter_base@DV?$string_output_adapter@D@__crt_stdio_output@@@__crt_stdio_output@@IEAA_NXZ 000000018005fa60 f i libucrtd:output.obj
 0001:0005eb10       ?advance_to_next_pass@?$positional_parameter_base@_WV?$stream_output_adapter@_W@__crt_stdio_output@@@__crt_stdio_output@@IEAA_NXZ 000000018005fb10 f i libucrtd:output.obj
 0001:0005ebc0       ?advance_to_next_pass@?$positional_parameter_base@_WV?$string_output_adapter@_W@__crt_stdio_output@@@__crt_stdio_output@@IEAA_NXZ 000000018005fbc0 f i libucrtd:output.obj
 0001:0005ec70       ?advance_to_next_pass@?$standard_base@DV?$stream_output_adapter@D@__crt_stdio_output@@@__crt_stdio_output@@IEAA_NXZ 000000018005fc70 f i libucrtd:output.obj
 0001:0005ecc0       ?advance_to_next_pass@?$standard_base@DV?$string_output_adapter@D@__crt_stdio_output@@@__crt_stdio_output@@IEAA_NXZ 000000018005fcc0 f i libucrtd:output.obj
 0001:0005ed10       ?advance_to_next_pass@?$standard_base@_WV?$stream_output_adapter@_W@__crt_stdio_output@@@__crt_stdio_output@@IEAA_NXZ 000000018005fd10 f i libucrtd:output.obj
 0001:0005ed60       ?advance_to_next_pass@?$standard_base@_WV?$string_output_adapter@_W@__crt_stdio_output@@@__crt_stdio_output@@IEAA_NXZ 000000018005fd60 f i libucrtd:output.obj
 0001:0005edb0       ?crop_zeroes@__crt_stdio_output@@YAXPEADQEAU__crt_locale_pointers@@@Z 000000018005fdb0 f i libucrtd:output.obj
 0001:0005eef0       ?find_next_state@?$output_processor@DV?$stream_output_adapter@D@__crt_stdio_output@@V?$format_validation_base@DV?$stream_output_adapter@D@__crt_stdio_output@@@2@@__crt_stdio_output@@AEBA?AW4state@2@DW432@@Z 000000018005fef0 f i libucrtd:output.obj
 0001:0005ef90       ?find_next_state@?$output_processor@DV?$stream_output_adapter@D@__crt_stdio_output@@V?$positional_parameter_base@DV?$stream_output_adapter@D@__crt_stdio_output@@@2@@__crt_stdio_output@@AEBA?AW4state@2@DW432@@Z 000000018005ff90 f i libucrtd:output.obj
 0001:0005f030       ?find_next_state@?$output_processor@DV?$stream_output_adapter@D@__crt_stdio_output@@V?$standard_base@DV?$stream_output_adapter@D@__crt_stdio_output@@@2@@__crt_stdio_output@@AEBA?AW4state@2@DW432@@Z 0000000180060030 f i libucrtd:output.obj
 0001:0005f0d0       ?find_next_state@?$output_processor@DV?$string_output_adapter@D@__crt_stdio_output@@V?$format_validation_base@DV?$string_output_adapter@D@__crt_stdio_output@@@2@@__crt_stdio_output@@AEBA?AW4state@2@DW432@@Z 00000001800600d0 f i libucrtd:output.obj
 0001:0005f170       ?find_next_state@?$output_processor@DV?$string_output_adapter@D@__crt_stdio_output@@V?$positional_parameter_base@DV?$string_output_adapter@D@__crt_stdio_output@@@2@@__crt_stdio_output@@AEBA?AW4state@2@DW432@@Z 0000000180060170 f i libucrtd:output.obj
 0001:0005f210       ?find_next_state@?$output_processor@DV?$string_output_adapter@D@__crt_stdio_output@@V?$standard_base@DV?$string_output_adapter@D@__crt_stdio_output@@@2@@__crt_stdio_output@@AEBA?AW4state@2@DW432@@Z 0000000180060210 f i libucrtd:output.obj
 0001:0005f2b0       ?find_next_state@?$output_processor@_WV?$stream_output_adapter@_W@__crt_stdio_output@@V?$format_validation_base@_WV?$stream_output_adapter@_W@__crt_stdio_output@@@2@@__crt_stdio_output@@AEBA?AW4state@2@_WW432@@Z 00000001800602b0 f i libucrtd:output.obj
 0001:0005f350       ?find_next_state@?$output_processor@_WV?$stream_output_adapter@_W@__crt_stdio_output@@V?$positional_parameter_base@_WV?$stream_output_adapter@_W@__crt_stdio_output@@@2@@__crt_stdio_output@@AEBA?AW4state@2@_WW432@@Z 0000000180060350 f i libucrtd:output.obj
 0001:0005f3f0       ?find_next_state@?$output_processor@_WV?$stream_output_adapter@_W@__crt_stdio_output@@V?$standard_base@_WV?$stream_output_adapter@_W@__crt_stdio_output@@@2@@__crt_stdio_output@@AEBA?AW4state@2@_WW432@@Z 00000001800603f0 f i libucrtd:output.obj
 0001:0005f490       ?find_next_state@?$output_processor@_WV?$string_output_adapter@_W@__crt_stdio_output@@V?$format_validation_base@_WV?$string_output_adapter@_W@__crt_stdio_output@@@2@@__crt_stdio_output@@AEBA?AW4state@2@_WW432@@Z 0000000180060490 f i libucrtd:output.obj
 0001:0005f530       ?find_next_state@?$output_processor@_WV?$string_output_adapter@_W@__crt_stdio_output@@V?$positional_parameter_base@_WV?$string_output_adapter@_W@__crt_stdio_output@@@2@@__crt_stdio_output@@AEBA?AW4state@2@_WW432@@Z 0000000180060530 f i libucrtd:output.obj
 0001:0005f5d0       ?find_next_state@?$output_processor@_WV?$string_output_adapter@_W@__crt_stdio_output@@V?$standard_base@_WV?$string_output_adapter@_W@__crt_stdio_output@@@2@@__crt_stdio_output@@AEBA?AW4state@2@_WW432@@Z 00000001800605d0 f i libucrtd:output.obj
 0001:0005f670       ?force_decimal_point@__crt_stdio_output@@YAXPEADQEAU__crt_locale_pointers@@@Z 0000000180060670 f i libucrtd:output.obj
 0001:0005f770       ?get@__crt_deferred_errno_cache@@QEAAAEAHXZ 0000000180060770 f i libucrtd:output.obj
 0001:0005f7a0       ?get_flags@__crt_stdio_stream@@QEBAJXZ 00000001800607a0 f i libucrtd:output.obj
 0001:0005f7d0       ?get_parameter_type@?$positional_parameter_base@DV?$stream_output_adapter@D@__crt_stdio_output@@@__crt_stdio_output@@CA?AW4parameter_type@12@F@Z 00000001800607d0 f i libucrtd:output.obj
 0001:0005f7e0       ?get_parameter_type@?$positional_parameter_base@DV?$stream_output_adapter@D@__crt_stdio_output@@@__crt_stdio_output@@CA?AW4parameter_type@12@G@Z 00000001800607e0 f i libucrtd:output.obj
 0001:0005f7f0       ?get_parameter_type@?$positional_parameter_base@DV?$stream_output_adapter@D@__crt_stdio_output@@@__crt_stdio_output@@CA?AW4parameter_type@12@H@Z 00000001800607f0 f i libucrtd:output.obj
 0001:0005f800       ?get_parameter_type@?$positional_parameter_base@DV?$stream_output_adapter@D@__crt_stdio_output@@@__crt_stdio_output@@CA?AW4parameter_type@12@I@Z 0000000180060800 f i libucrtd:output.obj
 0001:0005f810       ?get_parameter_type@?$positional_parameter_base@DV?$stream_output_adapter@D@__crt_stdio_output@@@__crt_stdio_output@@CA?AW4parameter_type@12@U_CRT_DOUBLE@@@Z 0000000180060810 f i libucrtd:output.obj
 0001:0005f820       ?get_parameter_type@?$positional_parameter_base@DV?$stream_output_adapter@D@__crt_stdio_output@@@__crt_stdio_output@@CA?AW4parameter_type@12@_J@Z 0000000180060820 f i libucrtd:output.obj
 0001:0005f830       ?get_parameter_type@?$positional_parameter_base@DV?$stream_output_adapter@D@__crt_stdio_output@@@__crt_stdio_output@@CA?AW4parameter_type@12@_K@Z 0000000180060830 f i libucrtd:output.obj
 0001:0005f840       ?get_parameter_type@?$positional_parameter_base@DV?$stream_output_adapter@D@__crt_stdio_output@@@__crt_stdio_output@@CA?AW4parameter_type@12@_W@Z 0000000180060840 f i libucrtd:output.obj
 0001:0005f850       ?get_parameter_type@?$positional_parameter_base@DV?$string_output_adapter@D@__crt_stdio_output@@@__crt_stdio_output@@CA?AW4parameter_type@12@F@Z 0000000180060850 f i libucrtd:output.obj
 0001:0005f860       ?get_parameter_type@?$positional_parameter_base@DV?$string_output_adapter@D@__crt_stdio_output@@@__crt_stdio_output@@CA?AW4parameter_type@12@G@Z 0000000180060860 f i libucrtd:output.obj
 0001:0005f870       ?get_parameter_type@?$positional_parameter_base@DV?$string_output_adapter@D@__crt_stdio_output@@@__crt_stdio_output@@CA?AW4parameter_type@12@H@Z 0000000180060870 f i libucrtd:output.obj
 0001:0005f880       ?get_parameter_type@?$positional_parameter_base@DV?$string_output_adapter@D@__crt_stdio_output@@@__crt_stdio_output@@CA?AW4parameter_type@12@I@Z 0000000180060880 f i libucrtd:output.obj
 0001:0005f890       ?get_parameter_type@?$positional_parameter_base@DV?$string_output_adapter@D@__crt_stdio_output@@@__crt_stdio_output@@CA?AW4parameter_type@12@U_CRT_DOUBLE@@@Z 0000000180060890 f i libucrtd:output.obj
 0001:0005f8a0       ?get_parameter_type@?$positional_parameter_base@DV?$string_output_adapter@D@__crt_stdio_output@@@__crt_stdio_output@@CA?AW4parameter_type@12@_J@Z 00000001800608a0 f i libucrtd:output.obj
 0001:0005f8b0       ?get_parameter_type@?$positional_parameter_base@DV?$string_output_adapter@D@__crt_stdio_output@@@__crt_stdio_output@@CA?AW4parameter_type@12@_K@Z 00000001800608b0 f i libucrtd:output.obj
 0001:0005f8c0       ?get_parameter_type@?$positional_parameter_base@DV?$string_output_adapter@D@__crt_stdio_output@@@__crt_stdio_output@@CA?AW4parameter_type@12@_W@Z 00000001800608c0 f i libucrtd:output.obj
 0001:0005f8d0       ?get_parameter_type@?$positional_parameter_base@_WV?$stream_output_adapter@_W@__crt_stdio_output@@@__crt_stdio_output@@CA?AW4parameter_type@12@F@Z 00000001800608d0 f i libucrtd:output.obj
 0001:0005f8e0       ?get_parameter_type@?$positional_parameter_base@_WV?$stream_output_adapter@_W@__crt_stdio_output@@@__crt_stdio_output@@CA?AW4parameter_type@12@G@Z 00000001800608e0 f i libucrtd:output.obj
 0001:0005f8f0       ?get_parameter_type@?$positional_parameter_base@_WV?$stream_output_adapter@_W@__crt_stdio_output@@@__crt_stdio_output@@CA?AW4parameter_type@12@H@Z 00000001800608f0 f i libucrtd:output.obj
 0001:0005f900       ?get_parameter_type@?$positional_parameter_base@_WV?$stream_output_adapter@_W@__crt_stdio_output@@@__crt_stdio_output@@CA?AW4parameter_type@12@I@Z 0000000180060900 f i libucrtd:output.obj
 0001:0005f910       ?get_parameter_type@?$positional_parameter_base@_WV?$stream_output_adapter@_W@__crt_stdio_output@@@__crt_stdio_output@@CA?AW4parameter_type@12@U_CRT_DOUBLE@@@Z 0000000180060910 f i libucrtd:output.obj
 0001:0005f920       ?get_parameter_type@?$positional_parameter_base@_WV?$stream_output_adapter@_W@__crt_stdio_output@@@__crt_stdio_output@@CA?AW4parameter_type@12@_J@Z 0000000180060920 f i libucrtd:output.obj
 0001:0005f930       ?get_parameter_type@?$positional_parameter_base@_WV?$stream_output_adapter@_W@__crt_stdio_output@@@__crt_stdio_output@@CA?AW4parameter_type@12@_K@Z 0000000180060930 f i libucrtd:output.obj
 0001:0005f940       ?get_parameter_type@?$positional_parameter_base@_WV?$stream_output_adapter@_W@__crt_stdio_output@@@__crt_stdio_output@@CA?AW4parameter_type@12@_W@Z 0000000180060940 f i libucrtd:output.obj
 0001:0005f950       ?get_parameter_type@?$positional_parameter_base@_WV?$string_output_adapter@_W@__crt_stdio_output@@@__crt_stdio_output@@CA?AW4parameter_type@12@F@Z 0000000180060950 f i libucrtd:output.obj
 0001:0005f960       ?get_parameter_type@?$positional_parameter_base@_WV?$string_output_adapter@_W@__crt_stdio_output@@@__crt_stdio_output@@CA?AW4parameter_type@12@G@Z 0000000180060960 f i libucrtd:output.obj
 0001:0005f970       ?get_parameter_type@?$positional_parameter_base@_WV?$string_output_adapter@_W@__crt_stdio_output@@@__crt_stdio_output@@CA?AW4parameter_type@12@H@Z 0000000180060970 f i libucrtd:output.obj
 0001:0005f980       ?get_parameter_type@?$positional_parameter_base@_WV?$string_output_adapter@_W@__crt_stdio_output@@@__crt_stdio_output@@CA?AW4parameter_type@12@I@Z 0000000180060980 f i libucrtd:output.obj
 0001:0005f990       ?get_parameter_type@?$positional_parameter_base@_WV?$string_output_adapter@_W@__crt_stdio_output@@@__crt_stdio_output@@CA?AW4parameter_type@12@U_CRT_DOUBLE@@@Z 0000000180060990 f i libucrtd:output.obj
 0001:0005f9a0       ?get_parameter_type@?$positional_parameter_base@_WV?$string_output_adapter@_W@__crt_stdio_output@@@__crt_stdio_output@@CA?AW4parameter_type@12@_J@Z 00000001800609a0 f i libucrtd:output.obj
 0001:0005f9b0       ?get_parameter_type@?$positional_parameter_base@_WV?$string_output_adapter@_W@__crt_stdio_output@@@__crt_stdio_output@@CA?AW4parameter_type@12@_K@Z 00000001800609b0 f i libucrtd:output.obj
 0001:0005f9c0       ?get_parameter_type@?$positional_parameter_base@_WV?$string_output_adapter@_W@__crt_stdio_output@@@__crt_stdio_output@@CA?AW4parameter_type@12@_W@Z 00000001800609c0 f i libucrtd:output.obj
 0001:0005f9d0       ?has_flag@?$output_processor@DV?$stream_output_adapter@D@__crt_stdio_output@@V?$format_validation_base@DV?$stream_output_adapter@D@__crt_stdio_output@@@2@@__crt_stdio_output@@AEBA_NI@Z 00000001800609d0 f i libucrtd:output.obj
 0001:0005fa10       ?has_flag@?$output_processor@DV?$stream_output_adapter@D@__crt_stdio_output@@V?$positional_parameter_base@DV?$stream_output_adapter@D@__crt_stdio_output@@@2@@__crt_stdio_output@@AEBA_NI@Z 0000000180060a10 f i libucrtd:output.obj
 0001:0005fa50       ?has_flag@?$output_processor@DV?$stream_output_adapter@D@__crt_stdio_output@@V?$standard_base@DV?$stream_output_adapter@D@__crt_stdio_output@@@2@@__crt_stdio_output@@AEBA_NI@Z 0000000180060a50 f i libucrtd:output.obj
 0001:0005fa90       ?has_flag@?$output_processor@DV?$string_output_adapter@D@__crt_stdio_output@@V?$format_validation_base@DV?$string_output_adapter@D@__crt_stdio_output@@@2@@__crt_stdio_output@@AEBA_NI@Z 0000000180060a90 f i libucrtd:output.obj
 0001:0005fad0       ?has_flag@?$output_processor@DV?$string_output_adapter@D@__crt_stdio_output@@V?$positional_parameter_base@DV?$string_output_adapter@D@__crt_stdio_output@@@2@@__crt_stdio_output@@AEBA_NI@Z 0000000180060ad0 f i libucrtd:output.obj
 0001:0005fb10       ?has_flag@?$output_processor@DV?$string_output_adapter@D@__crt_stdio_output@@V?$standard_base@DV?$string_output_adapter@D@__crt_stdio_output@@@2@@__crt_stdio_output@@AEBA_NI@Z 0000000180060b10 f i libucrtd:output.obj
 0001:0005fb50       ?has_flag@?$output_processor@_WV?$stream_output_adapter@_W@__crt_stdio_output@@V?$format_validation_base@_WV?$stream_output_adapter@_W@__crt_stdio_output@@@2@@__crt_stdio_output@@AEBA_NI@Z 0000000180060b50 f i libucrtd:output.obj
 0001:0005fb90       ?has_flag@?$output_processor@_WV?$stream_output_adapter@_W@__crt_stdio_output@@V?$positional_parameter_base@_WV?$stream_output_adapter@_W@__crt_stdio_output@@@2@@__crt_stdio_output@@AEBA_NI@Z 0000000180060b90 f i libucrtd:output.obj
 0001:0005fbd0       ?has_flag@?$output_processor@_WV?$stream_output_adapter@_W@__crt_stdio_output@@V?$standard_base@_WV?$stream_output_adapter@_W@__crt_stdio_output@@@2@@__crt_stdio_output@@AEBA_NI@Z 0000000180060bd0 f i libucrtd:output.obj
 0001:0005fc10       ?has_flag@?$output_processor@_WV?$string_output_adapter@_W@__crt_stdio_output@@V?$format_validation_base@_WV?$string_output_adapter@_W@__crt_stdio_output@@@2@@__crt_stdio_output@@AEBA_NI@Z 0000000180060c10 f i libucrtd:output.obj
 0001:0005fc50       ?has_flag@?$output_processor@_WV?$string_output_adapter@_W@__crt_stdio_output@@V?$positional_parameter_base@_WV?$string_output_adapter@_W@__crt_stdio_output@@@2@@__crt_stdio_output@@AEBA_NI@Z 0000000180060c50 f i libucrtd:output.obj
 0001:0005fc90       ?has_flag@?$output_processor@_WV?$string_output_adapter@_W@__crt_stdio_output@@V?$standard_base@_WV?$string_output_adapter@_W@__crt_stdio_output@@@2@@__crt_stdio_output@@AEBA_NI@Z 0000000180060c90 f i libucrtd:output.obj
 0001:0005fcd0       ?is_positional_parameter_reappearance_consistent@?$positional_parameter_base@DV?$stream_output_adapter@D@__crt_stdio_output@@@__crt_stdio_output@@AEAA_NAEBUparameter_data@12@W4parameter_type@12@DW4length_modifier@2@@Z 0000000180060cd0 f i libucrtd:output.obj
 0001:0005ff30       ?is_positional_parameter_reappearance_consistent@?$positional_parameter_base@DV?$string_output_adapter@D@__crt_stdio_output@@@__crt_stdio_output@@AEAA_NAEBUparameter_data@12@W4parameter_type@12@DW4length_modifier@2@@Z 0000000180060f30 f i libucrtd:output.obj
 0001:00060190       ?is_positional_parameter_reappearance_consistent@?$positional_parameter_base@_WV?$stream_output_adapter@_W@__crt_stdio_output@@@__crt_stdio_output@@AEAA_NAEBUparameter_data@12@W4parameter_type@12@_WW4length_modifier@2@@Z 0000000180061190 f i libucrtd:output.obj
 0001:000603f0       ?is_positional_parameter_reappearance_consistent@?$positional_parameter_base@_WV?$string_output_adapter@_W@__crt_stdio_output@@@__crt_stdio_output@@AEAA_NAEBUparameter_data@12@W4parameter_type@12@_WW4length_modifier@2@@Z 00000001800613f0 f i libucrtd:output.obj
 0001:00060650       ?is_string_backed@__crt_stdio_stream@@QEBA_NXZ 0000000180061650 f i libucrtd:output.obj
 0001:00060690       ?narrow_null_string@?$output_processor@DV?$stream_output_adapter@D@__crt_stdio_output@@V?$format_validation_base@DV?$stream_output_adapter@D@__crt_stdio_output@@@2@@__crt_stdio_output@@CAPEADXZ 0000000180061690 f i libucrtd:output.obj
 0001:000606a0       ?narrow_null_string@?$output_processor@DV?$stream_output_adapter@D@__crt_stdio_output@@V?$positional_parameter_base@DV?$stream_output_adapter@D@__crt_stdio_output@@@2@@__crt_stdio_output@@CAPEADXZ 00000001800616a0 f i libucrtd:output.obj
 0001:000606b0       ?narrow_null_string@?$output_processor@DV?$stream_output_adapter@D@__crt_stdio_output@@V?$standard_base@DV?$stream_output_adapter@D@__crt_stdio_output@@@2@@__crt_stdio_output@@CAPEADXZ 00000001800616b0 f i libucrtd:output.obj
 0001:000606c0       ?narrow_null_string@?$output_processor@DV?$string_output_adapter@D@__crt_stdio_output@@V?$format_validation_base@DV?$string_output_adapter@D@__crt_stdio_output@@@2@@__crt_stdio_output@@CAPEADXZ 00000001800616c0 f i libucrtd:output.obj
 0001:000606d0       ?narrow_null_string@?$output_processor@DV?$string_output_adapter@D@__crt_stdio_output@@V?$positional_parameter_base@DV?$string_output_adapter@D@__crt_stdio_output@@@2@@__crt_stdio_output@@CAPEADXZ 00000001800616d0 f i libucrtd:output.obj
 0001:000606e0       ?narrow_null_string@?$output_processor@DV?$string_output_adapter@D@__crt_stdio_output@@V?$standard_base@DV?$string_output_adapter@D@__crt_stdio_output@@@2@@__crt_stdio_output@@CAPEADXZ 00000001800616e0 f i libucrtd:output.obj
 0001:000606f0       ?narrow_null_string@?$output_processor@_WV?$stream_output_adapter@_W@__crt_stdio_output@@V?$format_validation_base@_WV?$stream_output_adapter@_W@__crt_stdio_output@@@2@@__crt_stdio_output@@CAPEADXZ 00000001800616f0 f i libucrtd:output.obj
 0001:00060700       ?narrow_null_string@?$output_processor@_WV?$stream_output_adapter@_W@__crt_stdio_output@@V?$positional_parameter_base@_WV?$stream_output_adapter@_W@__crt_stdio_output@@@2@@__crt_stdio_output@@CAPEADXZ 0000000180061700 f i libucrtd:output.obj
 0001:00060710       ?narrow_null_string@?$output_processor@_WV?$stream_output_adapter@_W@__crt_stdio_output@@V?$standard_base@_WV?$stream_output_adapter@_W@__crt_stdio_output@@@2@@__crt_stdio_output@@CAPEADXZ 0000000180061710 f i libucrtd:output.obj
 0001:00060720       ?narrow_null_string@?$output_processor@_WV?$string_output_adapter@_W@__crt_stdio_output@@V?$format_validation_base@_WV?$string_output_adapter@_W@__crt_stdio_output@@@2@@__crt_stdio_output@@CAPEADXZ 0000000180061720 f i libucrtd:output.obj
 0001:00060730       ?narrow_null_string@?$output_processor@_WV?$string_output_adapter@_W@__crt_stdio_output@@V?$positional_parameter_base@_WV?$string_output_adapter@_W@__crt_stdio_output@@@2@@__crt_stdio_output@@CAPEADXZ 0000000180061730 f i libucrtd:output.obj
 0001:00060740       ?narrow_null_string@?$output_processor@_WV?$string_output_adapter@_W@__crt_stdio_output@@V?$standard_base@_WV?$string_output_adapter@_W@__crt_stdio_output@@@2@@__crt_stdio_output@@CAPEADXZ 0000000180061740 f i libucrtd:output.obj
 0001:00060750       ?parse_int_from_format_string@?$output_processor@DV?$stream_output_adapter@D@__crt_stdio_output@@V?$format_validation_base@DV?$stream_output_adapter@D@__crt_stdio_output@@@2@@__crt_stdio_output@@AEAA_NQEAH@Z 0000000180061750 f i libucrtd:output.obj
 0001:00060840       ?parse_int_from_format_string@?$output_processor@DV?$stream_output_adapter@D@__crt_stdio_output@@V?$positional_parameter_base@DV?$stream_output_adapter@D@__crt_stdio_output@@@2@@__crt_stdio_output@@AEAA_NQEAH@Z 0000000180061840 f i libucrtd:output.obj
 0001:00060930       ?parse_int_from_format_string@?$output_processor@DV?$stream_output_adapter@D@__crt_stdio_output@@V?$standard_base@DV?$stream_output_adapter@D@__crt_stdio_output@@@2@@__crt_stdio_output@@AEAA_NQEAH@Z 0000000180061930 f i libucrtd:output.obj
 0001:00060a20       ?parse_int_from_format_string@?$output_processor@DV?$string_output_adapter@D@__crt_stdio_output@@V?$format_validation_base@DV?$string_output_adapter@D@__crt_stdio_output@@@2@@__crt_stdio_output@@AEAA_NQEAH@Z 0000000180061a20 f i libucrtd:output.obj
 0001:00060b10       ?parse_int_from_format_string@?$output_processor@DV?$string_output_adapter@D@__crt_stdio_output@@V?$positional_parameter_base@DV?$string_output_adapter@D@__crt_stdio_output@@@2@@__crt_stdio_output@@AEAA_NQEAH@Z 0000000180061b10 f i libucrtd:output.obj
 0001:00060c00       ?parse_int_from_format_string@?$output_processor@DV?$string_output_adapter@D@__crt_stdio_output@@V?$standard_base@DV?$string_output_adapter@D@__crt_stdio_output@@@2@@__crt_stdio_output@@AEAA_NQEAH@Z 0000000180061c00 f i libucrtd:output.obj
 0001:00060cf0       ?parse_int_from_format_string@?$output_processor@_WV?$stream_output_adapter@_W@__crt_stdio_output@@V?$format_validation_base@_WV?$stream_output_adapter@_W@__crt_stdio_output@@@2@@__crt_stdio_output@@AEAA_NQEAH@Z 0000000180061cf0 f i libucrtd:output.obj
 0001:00060de0       ?parse_int_from_format_string@?$output_processor@_WV?$stream_output_adapter@_W@__crt_stdio_output@@V?$positional_parameter_base@_WV?$stream_output_adapter@_W@__crt_stdio_output@@@2@@__crt_stdio_output@@AEAA_NQEAH@Z 0000000180061de0 f i libucrtd:output.obj
 0001:00060ed0       ?parse_int_from_format_string@?$output_processor@_WV?$stream_output_adapter@_W@__crt_stdio_output@@V?$standard_base@_WV?$stream_output_adapter@_W@__crt_stdio_output@@@2@@__crt_stdio_output@@AEAA_NQEAH@Z 0000000180061ed0 f i libucrtd:output.obj
 0001:00060fc0       ?parse_int_from_format_string@?$output_processor@_WV?$string_output_adapter@_W@__crt_stdio_output@@V?$format_validation_base@_WV?$string_output_adapter@_W@__crt_stdio_output@@@2@@__crt_stdio_output@@AEAA_NQEAH@Z 0000000180061fc0 f i libucrtd:output.obj
 0001:000610b0       ?parse_int_from_format_string@?$output_processor@_WV?$string_output_adapter@_W@__crt_stdio_output@@V?$positional_parameter_base@_WV?$string_output_adapter@_W@__crt_stdio_output@@@2@@__crt_stdio_output@@AEAA_NQEAH@Z 00000001800620b0 f i libucrtd:output.obj
 0001:000611a0       ?parse_int_from_format_string@?$output_processor@_WV?$string_output_adapter@_W@__crt_stdio_output@@V?$standard_base@_WV?$string_output_adapter@_W@__crt_stdio_output@@@2@@__crt_stdio_output@@AEAA_NQEAH@Z 00000001800621a0 f i libucrtd:output.obj
 0001:00061290       ?process@?$output_processor@DV?$stream_output_adapter@D@__crt_stdio_output@@V?$format_validation_base@DV?$stream_output_adapter@D@__crt_stdio_output@@@2@@__crt_stdio_output@@QEAAHXZ 0000000180062290 f i libucrtd:output.obj
 0001:000615f0       ?process@?$output_processor@DV?$stream_output_adapter@D@__crt_stdio_output@@V?$positional_parameter_base@DV?$stream_output_adapter@D@__crt_stdio_output@@@2@@__crt_stdio_output@@QEAAHXZ 00000001800625f0 f i libucrtd:output.obj
 0001:00061950       ?process@?$output_processor@DV?$stream_output_adapter@D@__crt_stdio_output@@V?$standard_base@DV?$stream_output_adapter@D@__crt_stdio_output@@@2@@__crt_stdio_output@@QEAAHXZ 0000000180062950 f i libucrtd:output.obj
 0001:00061cb0       ?process@?$output_processor@DV?$string_output_adapter@D@__crt_stdio_output@@V?$format_validation_base@DV?$string_output_adapter@D@__crt_stdio_output@@@2@@__crt_stdio_output@@QEAAHXZ 0000000180062cb0 f i libucrtd:output.obj
 0001:00062010       ?process@?$output_processor@DV?$string_output_adapter@D@__crt_stdio_output@@V?$positional_parameter_base@DV?$string_output_adapter@D@__crt_stdio_output@@@2@@__crt_stdio_output@@QEAAHXZ 0000000180063010 f i libucrtd:output.obj
 0001:00062370       ?process@?$output_processor@DV?$string_output_adapter@D@__crt_stdio_output@@V?$standard_base@DV?$string_output_adapter@D@__crt_stdio_output@@@2@@__crt_stdio_output@@QEAAHXZ 0000000180063370 f i libucrtd:output.obj
 0001:000626d0       ?process@?$output_processor@_WV?$stream_output_adapter@_W@__crt_stdio_output@@V?$format_validation_base@_WV?$stream_output_adapter@_W@__crt_stdio_output@@@2@@__crt_stdio_output@@QEAAHXZ 00000001800636d0 f i libucrtd:output.obj
 0001:00062a30       ?process@?$output_processor@_WV?$stream_output_adapter@_W@__crt_stdio_output@@V?$positional_parameter_base@_WV?$stream_output_adapter@_W@__crt_stdio_output@@@2@@__crt_stdio_output@@QEAAHXZ 0000000180063a30 f i libucrtd:output.obj
 0001:00062d90       ?process@?$output_processor@_WV?$stream_output_adapter@_W@__crt_stdio_output@@V?$standard_base@_WV?$stream_output_adapter@_W@__crt_stdio_output@@@2@@__crt_stdio_output@@QEAAHXZ 0000000180063d90 f i libucrtd:output.obj
 0001:000630f0       ?process@?$output_processor@_WV?$string_output_adapter@_W@__crt_stdio_output@@V?$format_validation_base@_WV?$string_output_adapter@_W@__crt_stdio_output@@@2@@__crt_stdio_output@@QEAAHXZ 00000001800640f0 f i libucrtd:output.obj
 0001:00063450       ?process@?$output_processor@_WV?$string_output_adapter@_W@__crt_stdio_output@@V?$positional_parameter_base@_WV?$string_output_adapter@_W@__crt_stdio_output@@@2@@__crt_stdio_output@@QEAAHXZ 0000000180064450 f i libucrtd:output.obj
 0001:000637b0       ?process@?$output_processor@_WV?$string_output_adapter@_W@__crt_stdio_output@@V?$standard_base@_WV?$string_output_adapter@_W@__crt_stdio_output@@@2@@__crt_stdio_output@@QEAAHXZ 00000001800647b0 f i libucrtd:output.obj
 0001:00063b10       ?public_stream@__crt_stdio_stream@@QEBAPEAU_iobuf@@XZ 0000000180064b10 f i libucrtd:output.obj
 0001:00063b20       ?set_flag@?$output_processor@DV?$stream_output_adapter@D@__crt_stdio_output@@V?$format_validation_base@DV?$stream_output_adapter@D@__crt_stdio_output@@@2@@__crt_stdio_output@@AEAAXI@Z 0000000180064b20 f i libucrtd:output.obj
 0001:00063b40       ?set_flag@?$output_processor@DV?$stream_output_adapter@D@__crt_stdio_output@@V?$positional_parameter_base@DV?$stream_output_adapter@D@__crt_stdio_output@@@2@@__crt_stdio_output@@AEAAXI@Z 0000000180064b40 f i libucrtd:output.obj
 0001:00063b60       ?set_flag@?$output_processor@DV?$stream_output_adapter@D@__crt_stdio_output@@V?$standard_base@DV?$stream_output_adapter@D@__crt_stdio_output@@@2@@__crt_stdio_output@@AEAAXI@Z 0000000180064b60 f i libucrtd:output.obj
 0001:00063b80       ?set_flag@?$output_processor@DV?$string_output_adapter@D@__crt_stdio_output@@V?$format_validation_base@DV?$string_output_adapter@D@__crt_stdio_output@@@2@@__crt_stdio_output@@AEAAXI@Z 0000000180064b80 f i libucrtd:output.obj
 0001:00063ba0       ?set_flag@?$output_processor@DV?$string_output_adapter@D@__crt_stdio_output@@V?$positional_parameter_base@DV?$string_output_adapter@D@__crt_stdio_output@@@2@@__crt_stdio_output@@AEAAXI@Z 0000000180064ba0 f i libucrtd:output.obj
 0001:00063bc0       ?set_flag@?$output_processor@DV?$string_output_adapter@D@__crt_stdio_output@@V?$standard_base@DV?$string_output_adapter@D@__crt_stdio_output@@@2@@__crt_stdio_output@@AEAAXI@Z 0000000180064bc0 f i libucrtd:output.obj
 0001:00063be0       ?set_flag@?$output_processor@_WV?$stream_output_adapter@_W@__crt_stdio_output@@V?$format_validation_base@_WV?$stream_output_adapter@_W@__crt_stdio_output@@@2@@__crt_stdio_output@@AEAAXI@Z 0000000180064be0 f i libucrtd:output.obj
 0001:00063c00       ?set_flag@?$output_processor@_WV?$stream_output_adapter@_W@__crt_stdio_output@@V?$positional_parameter_base@_WV?$stream_output_adapter@_W@__crt_stdio_output@@@2@@__crt_stdio_output@@AEAAXI@Z 0000000180064c00 f i libucrtd:output.obj
 0001:00063c20       ?set_flag@?$output_processor@_WV?$stream_output_adapter@_W@__crt_stdio_output@@V?$standard_base@_WV?$stream_output_adapter@_W@__crt_stdio_output@@@2@@__crt_stdio_output@@AEAAXI@Z 0000000180064c20 f i libucrtd:output.obj
 0001:00063c40       ?set_flag@?$output_processor@_WV?$string_output_adapter@_W@__crt_stdio_output@@V?$format_validation_base@_WV?$string_output_adapter@_W@__crt_stdio_output@@@2@@__crt_stdio_output@@AEAAXI@Z 0000000180064c40 f i libucrtd:output.obj
 0001:00063c60       ?set_flag@?$output_processor@_WV?$string_output_adapter@_W@__crt_stdio_output@@V?$positional_parameter_base@_WV?$string_output_adapter@_W@__crt_stdio_output@@@2@@__crt_stdio_output@@AEAAXI@Z 0000000180064c60 f i libucrtd:output.obj
 0001:00063c80       ?set_flag@?$output_processor@_WV?$string_output_adapter@_W@__crt_stdio_output@@V?$standard_base@_WV?$string_output_adapter@_W@__crt_stdio_output@@@2@@__crt_stdio_output@@AEAAXI@Z 0000000180064c80 f i libucrtd:output.obj
 0001:00063ca0       ?should_format@?$positional_parameter_base@DV?$stream_output_adapter@D@__crt_stdio_output@@@__crt_stdio_output@@IEAA_NXZ 0000000180064ca0 f i libucrtd:output.obj
 0001:00063ce0       ?should_format@?$positional_parameter_base@DV?$string_output_adapter@D@__crt_stdio_output@@@__crt_stdio_output@@IEAA_NXZ 0000000180064ce0 f i libucrtd:output.obj
 0001:00063d20       ?should_format@?$positional_parameter_base@_WV?$stream_output_adapter@_W@__crt_stdio_output@@@__crt_stdio_output@@IEAA_NXZ 0000000180064d20 f i libucrtd:output.obj
 0001:00063d60       ?should_format@?$positional_parameter_base@_WV?$string_output_adapter@_W@__crt_stdio_output@@@__crt_stdio_output@@IEAA_NXZ 0000000180064d60 f i libucrtd:output.obj
 0001:00063da0       ?should_format@?$standard_base@DV?$stream_output_adapter@D@__crt_stdio_output@@@__crt_stdio_output@@IEAA_NXZ 0000000180064da0 f i libucrtd:output.obj
 0001:00063db0       ?should_format@?$standard_base@DV?$string_output_adapter@D@__crt_stdio_output@@@__crt_stdio_output@@IEAA_NXZ 0000000180064db0 f i libucrtd:output.obj
 0001:00063dc0       ?should_format@?$standard_base@_WV?$stream_output_adapter@_W@__crt_stdio_output@@@__crt_stdio_output@@IEAA_NXZ 0000000180064dc0 f i libucrtd:output.obj
 0001:00063dd0       ?should_format@?$standard_base@_WV?$string_output_adapter@_W@__crt_stdio_output@@@__crt_stdio_output@@IEAA_NXZ 0000000180064dd0 f i libucrtd:output.obj
 0001:00063de0       ?should_skip_normal_state_processing@?$positional_parameter_base@DV?$stream_output_adapter@D@__crt_stdio_output@@@__crt_stdio_output@@IEAA_NXZ 0000000180064de0 f i libucrtd:output.obj
 0001:00063e30       ?should_skip_normal_state_processing@?$positional_parameter_base@DV?$string_output_adapter@D@__crt_stdio_output@@@__crt_stdio_output@@IEAA_NXZ 0000000180064e30 f i libucrtd:output.obj
 0001:00063e80       ?should_skip_normal_state_processing@?$positional_parameter_base@_WV?$stream_output_adapter@_W@__crt_stdio_output@@@__crt_stdio_output@@IEAA_NXZ 0000000180064e80 f i libucrtd:output.obj
 0001:00063ed0       ?should_skip_normal_state_processing@?$positional_parameter_base@_WV?$string_output_adapter@_W@__crt_stdio_output@@@__crt_stdio_output@@IEAA_NXZ 0000000180064ed0 f i libucrtd:output.obj
 0001:00063f20       ?should_skip_normal_state_processing@?$standard_base@DV?$stream_output_adapter@D@__crt_stdio_output@@@__crt_stdio_output@@IEAA_NXZ 0000000180064f20 f i libucrtd:output.obj
 0001:00063f30       ?should_skip_normal_state_processing@?$standard_base@DV?$string_output_adapter@D@__crt_stdio_output@@@__crt_stdio_output@@IEAA_NXZ 0000000180064f30 f i libucrtd:output.obj
 0001:00063f40       ?should_skip_normal_state_processing@?$standard_base@_WV?$stream_output_adapter@_W@__crt_stdio_output@@@__crt_stdio_output@@IEAA_NXZ 0000000180064f40 f i libucrtd:output.obj
 0001:00063f50       ?should_skip_normal_state_processing@?$standard_base@_WV?$string_output_adapter@_W@__crt_stdio_output@@@__crt_stdio_output@@IEAA_NXZ 0000000180064f50 f i libucrtd:output.obj
 0001:00063f60       ?should_skip_type_state_output@?$positional_parameter_base@DV?$stream_output_adapter@D@__crt_stdio_output@@@__crt_stdio_output@@IEBA_NXZ 0000000180064f60 f i libucrtd:output.obj
 0001:00063fa0       ?should_skip_type_state_output@?$positional_parameter_base@DV?$string_output_adapter@D@__crt_stdio_output@@@__crt_stdio_output@@IEBA_NXZ 0000000180064fa0 f i libucrtd:output.obj
 0001:00063fe0       ?should_skip_type_state_output@?$positional_parameter_base@_WV?$stream_output_adapter@_W@__crt_stdio_output@@@__crt_stdio_output@@IEBA_NXZ 0000000180064fe0 f i libucrtd:output.obj
 0001:00064020       ?should_skip_type_state_output@?$positional_parameter_base@_WV?$string_output_adapter@_W@__crt_stdio_output@@@__crt_stdio_output@@IEBA_NXZ 0000000180065020 f i libucrtd:output.obj
 0001:00064060       ?should_skip_type_state_output@?$standard_base@DV?$stream_output_adapter@D@__crt_stdio_output@@@__crt_stdio_output@@IEBA_NXZ 0000000180065060 f i libucrtd:output.obj
 0001:00064070       ?should_skip_type_state_output@?$standard_base@DV?$string_output_adapter@D@__crt_stdio_output@@@__crt_stdio_output@@IEBA_NXZ 0000000180065070 f i libucrtd:output.obj
 0001:00064080       ?should_skip_type_state_output@?$standard_base@_WV?$stream_output_adapter@_W@__crt_stdio_output@@@__crt_stdio_output@@IEBA_NXZ 0000000180065080 f i libucrtd:output.obj
 0001:00064090       ?should_skip_type_state_output@?$standard_base@_WV?$string_output_adapter@_W@__crt_stdio_output@@@__crt_stdio_output@@IEBA_NXZ 0000000180065090 f i libucrtd:output.obj
 0001:000640a0       ?state_case_dot@?$output_processor@DV?$stream_output_adapter@D@__crt_stdio_output@@V?$format_validation_base@DV?$stream_output_adapter@D@__crt_stdio_output@@@2@@__crt_stdio_output@@AEAA_NXZ 00000001800650a0 f i libucrtd:output.obj
 0001:000640c0       ?state_case_dot@?$output_processor@DV?$stream_output_adapter@D@__crt_stdio_output@@V?$positional_parameter_base@DV?$stream_output_adapter@D@__crt_stdio_output@@@2@@__crt_stdio_output@@AEAA_NXZ 00000001800650c0 f i libucrtd:output.obj
 0001:000640e0       ?state_case_dot@?$output_processor@DV?$stream_output_adapter@D@__crt_stdio_output@@V?$standard_base@DV?$stream_output_adapter@D@__crt_stdio_output@@@2@@__crt_stdio_output@@AEAA_NXZ 00000001800650e0 f i libucrtd:output.obj
 0001:00064100       ?state_case_dot@?$output_processor@DV?$string_output_adapter@D@__crt_stdio_output@@V?$format_validation_base@DV?$string_output_adapter@D@__crt_stdio_output@@@2@@__crt_stdio_output@@AEAA_NXZ 0000000180065100 f i libucrtd:output.obj
 0001:00064120       ?state_case_dot@?$output_processor@DV?$string_output_adapter@D@__crt_stdio_output@@V?$positional_parameter_base@DV?$string_output_adapter@D@__crt_stdio_output@@@2@@__crt_stdio_output@@AEAA_NXZ 0000000180065120 f i libucrtd:output.obj
 0001:00064140       ?state_case_dot@?$output_processor@DV?$string_output_adapter@D@__crt_stdio_output@@V?$standard_base@DV?$string_output_adapter@D@__crt_stdio_output@@@2@@__crt_stdio_output@@AEAA_NXZ 0000000180065140 f i libucrtd:output.obj
 0001:00064160       ?state_case_dot@?$output_processor@_WV?$stream_output_adapter@_W@__crt_stdio_output@@V?$format_validation_base@_WV?$stream_output_adapter@_W@__crt_stdio_output@@@2@@__crt_stdio_output@@AEAA_NXZ 0000000180065160 f i libucrtd:output.obj
 0001:00064180       ?state_case_dot@?$output_processor@_WV?$stream_output_adapter@_W@__crt_stdio_output@@V?$positional_parameter_base@_WV?$stream_output_adapter@_W@__crt_stdio_output@@@2@@__crt_stdio_output@@AEAA_NXZ 0000000180065180 f i libucrtd:output.obj
 0001:000641a0       ?state_case_dot@?$output_processor@_WV?$stream_output_adapter@_W@__crt_stdio_output@@V?$standard_base@_WV?$stream_output_adapter@_W@__crt_stdio_output@@@2@@__crt_stdio_output@@AEAA_NXZ 00000001800651a0 f i libucrtd:output.obj
 0001:000641c0       ?state_case_dot@?$output_processor@_WV?$string_output_adapter@_W@__crt_stdio_output@@V?$format_validation_base@_WV?$string_output_adapter@_W@__crt_stdio_output@@@2@@__crt_stdio_output@@AEAA_NXZ 00000001800651c0 f i libucrtd:output.obj
 0001:000641e0       ?state_case_dot@?$output_processor@_WV?$string_output_adapter@_W@__crt_stdio_output@@V?$positional_parameter_base@_WV?$string_output_adapter@_W@__crt_stdio_output@@@2@@__crt_stdio_output@@AEAA_NXZ 00000001800651e0 f i libucrtd:output.obj
 0001:00064200       ?state_case_dot@?$output_processor@_WV?$string_output_adapter@_W@__crt_stdio_output@@V?$standard_base@_WV?$string_output_adapter@_W@__crt_stdio_output@@@2@@__crt_stdio_output@@AEAA_NXZ 0000000180065200 f i libucrtd:output.obj
 0001:00064220       ?state_case_flag@?$output_processor@DV?$stream_output_adapter@D@__crt_stdio_output@@V?$format_validation_base@DV?$stream_output_adapter@D@__crt_stdio_output@@@2@@__crt_stdio_output@@AEAA_NXZ 0000000180065220 f i libucrtd:output.obj
 0001:000642c0       ?state_case_flag@?$output_processor@DV?$stream_output_adapter@D@__crt_stdio_output@@V?$positional_parameter_base@DV?$stream_output_adapter@D@__crt_stdio_output@@@2@@__crt_stdio_output@@AEAA_NXZ 00000001800652c0 f i libucrtd:output.obj
 0001:00064360       ?state_case_flag@?$output_processor@DV?$stream_output_adapter@D@__crt_stdio_output@@V?$standard_base@DV?$stream_output_adapter@D@__crt_stdio_output@@@2@@__crt_stdio_output@@AEAA_NXZ 0000000180065360 f i libucrtd:output.obj
 0001:00064400       ?state_case_flag@?$output_processor@DV?$string_output_adapter@D@__crt_stdio_output@@V?$format_validation_base@DV?$string_output_adapter@D@__crt_stdio_output@@@2@@__crt_stdio_output@@AEAA_NXZ 0000000180065400 f i libucrtd:output.obj
 0001:000644a0       ?state_case_flag@?$output_processor@DV?$string_output_adapter@D@__crt_stdio_output@@V?$positional_parameter_base@DV?$string_output_adapter@D@__crt_stdio_output@@@2@@__crt_stdio_output@@AEAA_NXZ 00000001800654a0 f i libucrtd:output.obj
 0001:00064540       ?state_case_flag@?$output_processor@DV?$string_output_adapter@D@__crt_stdio_output@@V?$standard_base@DV?$string_output_adapter@D@__crt_stdio_output@@@2@@__crt_stdio_output@@AEAA_NXZ 0000000180065540 f i libucrtd:output.obj
 0001:000645e0       ?state_case_flag@?$output_processor@_WV?$stream_output_adapter@_W@__crt_stdio_output@@V?$format_validation_base@_WV?$stream_output_adapter@_W@__crt_stdio_output@@@2@@__crt_stdio_output@@AEAA_NXZ 00000001800655e0 f i libucrtd:output.obj
 0001:00064680       ?state_case_flag@?$output_processor@_WV?$stream_output_adapter@_W@__crt_stdio_output@@V?$positional_parameter_base@_WV?$stream_output_adapter@_W@__crt_stdio_output@@@2@@__crt_stdio_output@@AEAA_NXZ 0000000180065680 f i libucrtd:output.obj
 0001:00064720       ?state_case_flag@?$output_processor@_WV?$stream_output_adapter@_W@__crt_stdio_output@@V?$standard_base@_WV?$stream_output_adapter@_W@__crt_stdio_output@@@2@@__crt_stdio_output@@AEAA_NXZ 0000000180065720 f i libucrtd:output.obj
 0001:000647c0       ?state_case_flag@?$output_processor@_WV?$string_output_adapter@_W@__crt_stdio_output@@V?$format_validation_base@_WV?$string_output_adapter@_W@__crt_stdio_output@@@2@@__crt_stdio_output@@AEAA_NXZ 00000001800657c0 f i libucrtd:output.obj
 0001:00064860       ?state_case_flag@?$output_processor@_WV?$string_output_adapter@_W@__crt_stdio_output@@V?$positional_parameter_base@_WV?$string_output_adapter@_W@__crt_stdio_output@@@2@@__crt_stdio_output@@AEAA_NXZ 0000000180065860 f i libucrtd:output.obj
 0001:00064900       ?state_case_flag@?$output_processor@_WV?$string_output_adapter@_W@__crt_stdio_output@@V?$standard_base@_WV?$string_output_adapter@_W@__crt_stdio_output@@@2@@__crt_stdio_output@@AEAA_NXZ 0000000180065900 f i libucrtd:output.obj
 0001:000649a0       ?state_case_normal@?$output_processor@DV?$stream_output_adapter@D@__crt_stdio_output@@V?$format_validation_base@DV?$stream_output_adapter@D@__crt_stdio_output@@@2@@__crt_stdio_output@@AEAA_NXZ 00000001800659a0 f i libucrtd:output.obj
 0001:00064a80       ?state_case_normal@?$output_processor@DV?$stream_output_adapter@D@__crt_stdio_output@@V?$positional_parameter_base@DV?$stream_output_adapter@D@__crt_stdio_output@@@2@@__crt_stdio_output@@AEAA_NXZ 0000000180065a80 f i libucrtd:output.obj
 0001:00064b60       ?state_case_normal@?$output_processor@DV?$stream_output_adapter@D@__crt_stdio_output@@V?$standard_base@DV?$stream_output_adapter@D@__crt_stdio_output@@@2@@__crt_stdio_output@@AEAA_NXZ 0000000180065b60 f i libucrtd:output.obj
 0001:00064c40       ?state_case_normal@?$output_processor@DV?$string_output_adapter@D@__crt_stdio_output@@V?$format_validation_base@DV?$string_output_adapter@D@__crt_stdio_output@@@2@@__crt_stdio_output@@AEAA_NXZ 0000000180065c40 f i libucrtd:output.obj
 0001:00064d20       ?state_case_normal@?$output_processor@DV?$string_output_adapter@D@__crt_stdio_output@@V?$positional_parameter_base@DV?$string_output_adapter@D@__crt_stdio_output@@@2@@__crt_stdio_output@@AEAA_NXZ 0000000180065d20 f i libucrtd:output.obj
 0001:00064e00       ?state_case_normal@?$output_processor@DV?$string_output_adapter@D@__crt_stdio_output@@V?$standard_base@DV?$string_output_adapter@D@__crt_stdio_output@@@2@@__crt_stdio_output@@AEAA_NXZ 0000000180065e00 f i libucrtd:output.obj
 0001:00064ee0       ?state_case_normal@?$output_processor@_WV?$stream_output_adapter@_W@__crt_stdio_output@@V?$format_validation_base@_WV?$stream_output_adapter@_W@__crt_stdio_output@@@2@@__crt_stdio_output@@AEAA_NXZ 0000000180065ee0 f i libucrtd:output.obj
 0001:00064fc0       ?state_case_normal@?$output_processor@_WV?$stream_output_adapter@_W@__crt_stdio_output@@V?$positional_parameter_base@_WV?$stream_output_adapter@_W@__crt_stdio_output@@@2@@__crt_stdio_output@@AEAA_NXZ 0000000180065fc0 f i libucrtd:output.obj
 0001:000650a0       ?state_case_normal@?$output_processor@_WV?$stream_output_adapter@_W@__crt_stdio_output@@V?$standard_base@_WV?$stream_output_adapter@_W@__crt_stdio_output@@@2@@__crt_stdio_output@@AEAA_NXZ 00000001800660a0 f i libucrtd:output.obj
 0001:00065180       ?state_case_normal@?$output_processor@_WV?$string_output_adapter@_W@__crt_stdio_output@@V?$format_validation_base@_WV?$string_output_adapter@_W@__crt_stdio_output@@@2@@__crt_stdio_output@@AEAA_NXZ 0000000180066180 f i libucrtd:output.obj
 0001:00065260       ?state_case_normal@?$output_processor@_WV?$string_output_adapter@_W@__crt_stdio_output@@V?$positional_parameter_base@_WV?$string_output_adapter@_W@__crt_stdio_output@@@2@@__crt_stdio_output@@AEAA_NXZ 0000000180066260 f i libucrtd:output.obj
 0001:00065340       ?state_case_normal@?$output_processor@_WV?$string_output_adapter@_W@__crt_stdio_output@@V?$standard_base@_WV?$string_output_adapter@_W@__crt_stdio_output@@@2@@__crt_stdio_output@@AEAA_NXZ 0000000180066340 f i libucrtd:output.obj
 0001:00065420       ?state_case_normal_common@?$output_processor@DV?$stream_output_adapter@D@__crt_stdio_output@@V?$format_validation_base@DV?$stream_output_adapter@D@__crt_stdio_output@@@2@@__crt_stdio_output@@AEAA_NXZ 0000000180066420 f i libucrtd:output.obj
 0001:00065470       ?state_case_normal_common@?$output_processor@DV?$stream_output_adapter@D@__crt_stdio_output@@V?$positional_parameter_base@DV?$stream_output_adapter@D@__crt_stdio_output@@@2@@__crt_stdio_output@@AEAA_NXZ 0000000180066470 f i libucrtd:output.obj
 0001:000654c0       ?state_case_normal_common@?$output_processor@DV?$stream_output_adapter@D@__crt_stdio_output@@V?$standard_base@DV?$stream_output_adapter@D@__crt_stdio_output@@@2@@__crt_stdio_output@@AEAA_NXZ 00000001800664c0 f i libucrtd:output.obj
 0001:00065510       ?state_case_normal_common@?$output_processor@DV?$string_output_adapter@D@__crt_stdio_output@@V?$format_validation_base@DV?$string_output_adapter@D@__crt_stdio_output@@@2@@__crt_stdio_output@@AEAA_NXZ 0000000180066510 f i libucrtd:output.obj
 0001:00065560       ?state_case_normal_common@?$output_processor@DV?$string_output_adapter@D@__crt_stdio_output@@V?$positional_parameter_base@DV?$string_output_adapter@D@__crt_stdio_output@@@2@@__crt_stdio_output@@AEAA_NXZ 0000000180066560 f i libucrtd:output.obj
 0001:000655b0       ?state_case_normal_common@?$output_processor@DV?$string_output_adapter@D@__crt_stdio_output@@V?$standard_base@DV?$string_output_adapter@D@__crt_stdio_output@@@2@@__crt_stdio_output@@AEAA_NXZ 00000001800665b0 f i libucrtd:output.obj
 0001:00065600       ?state_case_normal_common@?$output_processor@_WV?$stream_output_adapter@_W@__crt_stdio_output@@V?$format_validation_base@_WV?$stream_output_adapter@_W@__crt_stdio_output@@@2@@__crt_stdio_output@@AEAA_NXZ 0000000180066600 f i libucrtd:output.obj
 0001:00065650       ?state_case_normal_common@?$output_processor@_WV?$stream_output_adapter@_W@__crt_stdio_output@@V?$positional_parameter_base@_WV?$stream_output_adapter@_W@__crt_stdio_output@@@2@@__crt_stdio_output@@AEAA_NXZ 0000000180066650 f i libucrtd:output.obj
 0001:000656a0       ?state_case_normal_common@?$output_processor@_WV?$stream_output_adapter@_W@__crt_stdio_output@@V?$standard_base@_WV?$stream_output_adapter@_W@__crt_stdio_output@@@2@@__crt_stdio_output@@AEAA_NXZ 00000001800666a0 f i libucrtd:output.obj
 0001:000656f0       ?state_case_normal_common@?$output_processor@_WV?$string_output_adapter@_W@__crt_stdio_output@@V?$format_validation_base@_WV?$string_output_adapter@_W@__crt_stdio_output@@@2@@__crt_stdio_output@@AEAA_NXZ 00000001800666f0 f i libucrtd:output.obj
 0001:00065740       ?state_case_normal_common@?$output_processor@_WV?$string_output_adapter@_W@__crt_stdio_output@@V?$positional_parameter_base@_WV?$string_output_adapter@_W@__crt_stdio_output@@@2@@__crt_stdio_output@@AEAA_NXZ 0000000180066740 f i libucrtd:output.obj
 0001:00065790       ?state_case_normal_common@?$output_processor@_WV?$string_output_adapter@_W@__crt_stdio_output@@V?$standard_base@_WV?$string_output_adapter@_W@__crt_stdio_output@@@2@@__crt_stdio_output@@AEAA_NXZ 0000000180066790 f i libucrtd:output.obj
 0001:000657e0       ?state_case_normal_tchar@?$output_processor@DV?$stream_output_adapter@D@__crt_stdio_output@@V?$format_validation_base@DV?$stream_output_adapter@D@__crt_stdio_output@@@2@@__crt_stdio_output@@AEAA_ND@Z 00000001800667e0 f i libucrtd:output.obj
 0001:00065920       ?state_case_normal_tchar@?$output_processor@DV?$stream_output_adapter@D@__crt_stdio_output@@V?$positional_parameter_base@DV?$stream_output_adapter@D@__crt_stdio_output@@@2@@__crt_stdio_output@@AEAA_ND@Z 0000000180066920 f i libucrtd:output.obj
 0001:00065a60       ?state_case_normal_tchar@?$output_processor@DV?$stream_output_adapter@D@__crt_stdio_output@@V?$standard_base@DV?$stream_output_adapter@D@__crt_stdio_output@@@2@@__crt_stdio_output@@AEAA_ND@Z 0000000180066a60 f i libucrtd:output.obj
 0001:00065ba0       ?state_case_normal_tchar@?$output_processor@DV?$string_output_adapter@D@__crt_stdio_output@@V?$format_validation_base@DV?$string_output_adapter@D@__crt_stdio_output@@@2@@__crt_stdio_output@@AEAA_ND@Z 0000000180066ba0 f i libucrtd:output.obj
 0001:00065ce0       ?state_case_normal_tchar@?$output_processor@DV?$string_output_adapter@D@__crt_stdio_output@@V?$positional_parameter_base@DV?$string_output_adapter@D@__crt_stdio_output@@@2@@__crt_stdio_output@@AEAA_ND@Z 0000000180066ce0 f i libucrtd:output.obj
 0001:00065e20       ?state_case_normal_tchar@?$output_processor@DV?$string_output_adapter@D@__crt_stdio_output@@V?$standard_base@DV?$string_output_adapter@D@__crt_stdio_output@@@2@@__crt_stdio_output@@AEAA_ND@Z 0000000180066e20 f i libucrtd:output.obj
 0001:00065f60       ?state_case_normal_tchar@?$output_processor@_WV?$stream_output_adapter@_W@__crt_stdio_output@@V?$format_validation_base@_WV?$stream_output_adapter@_W@__crt_stdio_output@@@2@@__crt_stdio_output@@AEAA_N_W@Z 0000000180066f60 f i libucrtd:output.obj
 0001:00065f80       ?state_case_normal_tchar@?$output_processor@_WV?$stream_output_adapter@_W@__crt_stdio_output@@V?$positional_parameter_base@_WV?$stream_output_adapter@_W@__crt_stdio_output@@@2@@__crt_stdio_output@@AEAA_N_W@Z 0000000180066f80 f i libucrtd:output.obj
 0001:00065fa0       ?state_case_normal_tchar@?$output_processor@_WV?$stream_output_adapter@_W@__crt_stdio_output@@V?$standard_base@_WV?$stream_output_adapter@_W@__crt_stdio_output@@@2@@__crt_stdio_output@@AEAA_N_W@Z 0000000180066fa0 f i libucrtd:output.obj
 0001:00065fc0       ?state_case_normal_tchar@?$output_processor@_WV?$string_output_adapter@_W@__crt_stdio_output@@V?$format_validation_base@_WV?$string_output_adapter@_W@__crt_stdio_output@@@2@@__crt_stdio_output@@AEAA_N_W@Z 0000000180066fc0 f i libucrtd:output.obj
 0001:00065fe0       ?state_case_normal_tchar@?$output_processor@_WV?$string_output_adapter@_W@__crt_stdio_output@@V?$positional_parameter_base@_WV?$string_output_adapter@_W@__crt_stdio_output@@@2@@__crt_stdio_output@@AEAA_N_W@Z 0000000180066fe0 f i libucrtd:output.obj
 0001:00066000       ?state_case_normal_tchar@?$output_processor@_WV?$string_output_adapter@_W@__crt_stdio_output@@V?$standard_base@_WV?$string_output_adapter@_W@__crt_stdio_output@@@2@@__crt_stdio_output@@AEAA_N_W@Z 0000000180067000 f i libucrtd:output.obj
 0001:00066020       ?state_case_percent@?$output_processor@DV?$stream_output_adapter@D@__crt_stdio_output@@V?$format_validation_base@DV?$stream_output_adapter@D@__crt_stdio_output@@@2@@__crt_stdio_output@@AEAA_NXZ 0000000180067020 f i libucrtd:output.obj
 0001:00066070       ?state_case_percent@?$output_processor@DV?$stream_output_adapter@D@__crt_stdio_output@@V?$positional_parameter_base@DV?$stream_output_adapter@D@__crt_stdio_output@@@2@@__crt_stdio_output@@AEAA_NXZ 0000000180067070 f i libucrtd:output.obj
 0001:000660c0       ?state_case_percent@?$output_processor@DV?$stream_output_adapter@D@__crt_stdio_output@@V?$standard_base@DV?$stream_output_adapter@D@__crt_stdio_output@@@2@@__crt_stdio_output@@AEAA_NXZ 00000001800670c0 f i libucrtd:output.obj
 0001:00066110       ?state_case_percent@?$output_processor@DV?$string_output_adapter@D@__crt_stdio_output@@V?$format_validation_base@DV?$string_output_adapter@D@__crt_stdio_output@@@2@@__crt_stdio_output@@AEAA_NXZ 0000000180067110 f i libucrtd:output.obj
 0001:00066160       ?state_case_percent@?$output_processor@DV?$string_output_adapter@D@__crt_stdio_output@@V?$positional_parameter_base@DV?$string_output_adapter@D@__crt_stdio_output@@@2@@__crt_stdio_output@@AEAA_NXZ 0000000180067160 f i libucrtd:output.obj
 0001:000661b0       ?state_case_percent@?$output_processor@DV?$string_output_adapter@D@__crt_stdio_output@@V?$standard_base@DV?$string_output_adapter@D@__crt_stdio_output@@@2@@__crt_stdio_output@@AEAA_NXZ 00000001800671b0 f i libucrtd:output.obj
 0001:00066200       ?state_case_percent@?$output_processor@_WV?$stream_output_adapter@_W@__crt_stdio_output@@V?$format_validation_base@_WV?$stream_output_adapter@_W@__crt_stdio_output@@@2@@__crt_stdio_output@@AEAA_NXZ 0000000180067200 f i libucrtd:output.obj
 0001:00066250       ?state_case_percent@?$output_processor@_WV?$stream_output_adapter@_W@__crt_stdio_output@@V?$positional_parameter_base@_WV?$stream_output_adapter@_W@__crt_stdio_output@@@2@@__crt_stdio_output@@AEAA_NXZ 0000000180067250 f i libucrtd:output.obj
 0001:000662a0       ?state_case_percent@?$output_processor@_WV?$stream_output_adapter@_W@__crt_stdio_output@@V?$standard_base@_WV?$stream_output_adapter@_W@__crt_stdio_output@@@2@@__crt_stdio_output@@AEAA_NXZ 00000001800672a0 f i libucrtd:output.obj
 0001:000662f0       ?state_case_percent@?$output_processor@_WV?$string_output_adapter@_W@__crt_stdio_output@@V?$format_validation_base@_WV?$string_output_adapter@_W@__crt_stdio_output@@@2@@__crt_stdio_output@@AEAA_NXZ 00000001800672f0 f i libucrtd:output.obj
 0001:00066340       ?state_case_percent@?$output_processor@_WV?$string_output_adapter@_W@__crt_stdio_output@@V?$positional_parameter_base@_WV?$string_output_adapter@_W@__crt_stdio_output@@@2@@__crt_stdio_output@@AEAA_NXZ 0000000180067340 f i libucrtd:output.obj
 0001:00066390       ?state_case_percent@?$output_processor@_WV?$string_output_adapter@_W@__crt_stdio_output@@V?$standard_base@_WV?$string_output_adapter@_W@__crt_stdio_output@@@2@@__crt_stdio_output@@AEAA_NXZ 0000000180067390 f i libucrtd:output.obj
 0001:000663e0       ?state_case_precision@?$output_processor@DV?$stream_output_adapter@D@__crt_stdio_output@@V?$format_validation_base@DV?$stream_output_adapter@D@__crt_stdio_output@@@2@@__crt_stdio_output@@AEAA_NXZ 00000001800673e0 f i libucrtd:output.obj
 0001:00066460       ?state_case_precision@?$output_processor@DV?$stream_output_adapter@D@__crt_stdio_output@@V?$positional_parameter_base@DV?$stream_output_adapter@D@__crt_stdio_output@@@2@@__crt_stdio_output@@AEAA_NXZ 0000000180067460 f i libucrtd:output.obj
 0001:000664e0       ?state_case_precision@?$output_processor@DV?$stream_output_adapter@D@__crt_stdio_output@@V?$standard_base@DV?$stream_output_adapter@D@__crt_stdio_output@@@2@@__crt_stdio_output@@AEAA_NXZ 00000001800674e0 f i libucrtd:output.obj
 0001:00066560       ?state_case_precision@?$output_processor@DV?$string_output_adapter@D@__crt_stdio_output@@V?$format_validation_base@DV?$string_output_adapter@D@__crt_stdio_output@@@2@@__crt_stdio_output@@AEAA_NXZ 0000000180067560 f i libucrtd:output.obj
 0001:000665e0       ?state_case_precision@?$output_processor@DV?$string_output_adapter@D@__crt_stdio_output@@V?$positional_parameter_base@DV?$string_output_adapter@D@__crt_stdio_output@@@2@@__crt_stdio_output@@AEAA_NXZ 00000001800675e0 f i libucrtd:output.obj
 0001:00066660       ?state_case_precision@?$output_processor@DV?$string_output_adapter@D@__crt_stdio_output@@V?$standard_base@DV?$string_output_adapter@D@__crt_stdio_output@@@2@@__crt_stdio_output@@AEAA_NXZ 0000000180067660 f i libucrtd:output.obj
 0001:000666e0       ?state_case_precision@?$output_processor@_WV?$stream_output_adapter@_W@__crt_stdio_output@@V?$format_validation_base@_WV?$stream_output_adapter@_W@__crt_stdio_output@@@2@@__crt_stdio_output@@AEAA_NXZ 00000001800676e0 f i libucrtd:output.obj
 0001:00066760       ?state_case_precision@?$output_processor@_WV?$stream_output_adapter@_W@__crt_stdio_output@@V?$positional_parameter_base@_WV?$stream_output_adapter@_W@__crt_stdio_output@@@2@@__crt_stdio_output@@AEAA_NXZ 0000000180067760 f i libucrtd:output.obj
 0001:000667e0       ?state_case_precision@?$output_processor@_WV?$stream_output_adapter@_W@__crt_stdio_output@@V?$standard_base@_WV?$stream_output_adapter@_W@__crt_stdio_output@@@2@@__crt_stdio_output@@AEAA_NXZ 00000001800677e0 f i libucrtd:output.obj
 0001:00066860       ?state_case_precision@?$output_processor@_WV?$string_output_adapter@_W@__crt_stdio_output@@V?$format_validation_base@_WV?$string_output_adapter@_W@__crt_stdio_output@@@2@@__crt_stdio_output@@AEAA_NXZ 0000000180067860 f i libucrtd:output.obj
 0001:000668e0       ?state_case_precision@?$output_processor@_WV?$string_output_adapter@_W@__crt_stdio_output@@V?$positional_parameter_base@_WV?$string_output_adapter@_W@__crt_stdio_output@@@2@@__crt_stdio_output@@AEAA_NXZ 00000001800678e0 f i libucrtd:output.obj
 0001:00066960       ?state_case_precision@?$output_processor@_WV?$string_output_adapter@_W@__crt_stdio_output@@V?$standard_base@_WV?$string_output_adapter@_W@__crt_stdio_output@@@2@@__crt_stdio_output@@AEAA_NXZ 0000000180067960 f i libucrtd:output.obj
 0001:000669e0       ?state_case_size@?$output_processor@DV?$stream_output_adapter@D@__crt_stdio_output@@V?$format_validation_base@DV?$stream_output_adapter@D@__crt_stdio_output@@@2@@__crt_stdio_output@@AEAA_NXZ 00000001800679e0 f i libucrtd:output.obj
 0001:00066e60       ?state_case_size@?$output_processor@DV?$stream_output_adapter@D@__crt_stdio_output@@V?$positional_parameter_base@DV?$stream_output_adapter@D@__crt_stdio_output@@@2@@__crt_stdio_output@@AEAA_NXZ 0000000180067e60 f i libucrtd:output.obj
 0001:000672e0       ?state_case_size@?$output_processor@DV?$stream_output_adapter@D@__crt_stdio_output@@V?$standard_base@DV?$stream_output_adapter@D@__crt_stdio_output@@@2@@__crt_stdio_output@@AEAA_NXZ 00000001800682e0 f i libucrtd:output.obj
 0001:00067760       ?state_case_size@?$output_processor@DV?$string_output_adapter@D@__crt_stdio_output@@V?$format_validation_base@DV?$string_output_adapter@D@__crt_stdio_output@@@2@@__crt_stdio_output@@AEAA_NXZ 0000000180068760 f i libucrtd:output.obj
 0001:00067be0       ?state_case_size@?$output_processor@DV?$string_output_adapter@D@__crt_stdio_output@@V?$positional_parameter_base@DV?$string_output_adapter@D@__crt_stdio_output@@@2@@__crt_stdio_output@@AEAA_NXZ 0000000180068be0 f i libucrtd:output.obj
 0001:00068060       ?state_case_size@?$output_processor@DV?$string_output_adapter@D@__crt_stdio_output@@V?$standard_base@DV?$string_output_adapter@D@__crt_stdio_output@@@2@@__crt_stdio_output@@AEAA_NXZ 0000000180069060 f i libucrtd:output.obj
 0001:000684e0       ?state_case_size@?$output_processor@_WV?$stream_output_adapter@_W@__crt_stdio_output@@V?$format_validation_base@_WV?$stream_output_adapter@_W@__crt_stdio_output@@@2@@__crt_stdio_output@@AEAA_NXZ 00000001800694e0 f i libucrtd:output.obj
 0001:00068960       ?state_case_size@?$output_processor@_WV?$stream_output_adapter@_W@__crt_stdio_output@@V?$positional_parameter_base@_WV?$stream_output_adapter@_W@__crt_stdio_output@@@2@@__crt_stdio_output@@AEAA_NXZ 0000000180069960 f i libucrtd:output.obj
 0001:00068de0       ?state_case_size@?$output_processor@_WV?$stream_output_adapter@_W@__crt_stdio_output@@V?$standard_base@_WV?$stream_output_adapter@_W@__crt_stdio_output@@@2@@__crt_stdio_output@@AEAA_NXZ 0000000180069de0 f i libucrtd:output.obj
 0001:00069260       ?state_case_size@?$output_processor@_WV?$string_output_adapter@_W@__crt_stdio_output@@V?$format_validation_base@_WV?$string_output_adapter@_W@__crt_stdio_output@@@2@@__crt_stdio_output@@AEAA_NXZ 000000018006a260 f i libucrtd:output.obj
 0001:000696e0       ?state_case_size@?$output_processor@_WV?$string_output_adapter@_W@__crt_stdio_output@@V?$positional_parameter_base@_WV?$string_output_adapter@_W@__crt_stdio_output@@@2@@__crt_stdio_output@@AEAA_NXZ 000000018006a6e0 f i libucrtd:output.obj
 0001:00069b60       ?state_case_size@?$output_processor@_WV?$string_output_adapter@_W@__crt_stdio_output@@V?$standard_base@_WV?$string_output_adapter@_W@__crt_stdio_output@@@2@@__crt_stdio_output@@AEAA_NXZ 000000018006ab60 f i libucrtd:output.obj
 0001:00069fe0       ?state_case_type@?$output_processor@DV?$stream_output_adapter@D@__crt_stdio_output@@V?$format_validation_base@DV?$stream_output_adapter@D@__crt_stdio_output@@@2@@__crt_stdio_output@@AEAA_NXZ 000000018006afe0 f i libucrtd:output.obj
 0001:0006a480       ?state_case_type@?$output_processor@DV?$stream_output_adapter@D@__crt_stdio_output@@V?$positional_parameter_base@DV?$stream_output_adapter@D@__crt_stdio_output@@@2@@__crt_stdio_output@@AEAA_NXZ 000000018006b480 f i libucrtd:output.obj
 0001:0006a920       ?state_case_type@?$output_processor@DV?$stream_output_adapter@D@__crt_stdio_output@@V?$standard_base@DV?$stream_output_adapter@D@__crt_stdio_output@@@2@@__crt_stdio_output@@AEAA_NXZ 000000018006b920 f i libucrtd:output.obj
 0001:0006adc0       ?state_case_type@?$output_processor@DV?$string_output_adapter@D@__crt_stdio_output@@V?$format_validation_base@DV?$string_output_adapter@D@__crt_stdio_output@@@2@@__crt_stdio_output@@AEAA_NXZ 000000018006bdc0 f i libucrtd:output.obj
 0001:0006b260       ?state_case_type@?$output_processor@DV?$string_output_adapter@D@__crt_stdio_output@@V?$positional_parameter_base@DV?$string_output_adapter@D@__crt_stdio_output@@@2@@__crt_stdio_output@@AEAA_NXZ 000000018006c260 f i libucrtd:output.obj
 0001:0006b700       ?state_case_type@?$output_processor@DV?$string_output_adapter@D@__crt_stdio_output@@V?$standard_base@DV?$string_output_adapter@D@__crt_stdio_output@@@2@@__crt_stdio_output@@AEAA_NXZ 000000018006c700 f i libucrtd:output.obj
 0001:0006bba0       ?state_case_type@?$output_processor@_WV?$stream_output_adapter@_W@__crt_stdio_output@@V?$format_validation_base@_WV?$stream_output_adapter@_W@__crt_stdio_output@@@2@@__crt_stdio_output@@AEAA_NXZ 000000018006cba0 f i libucrtd:output.obj
 0001:0006c100       ?state_case_type@?$output_processor@_WV?$stream_output_adapter@_W@__crt_stdio_output@@V?$positional_parameter_base@_WV?$stream_output_adapter@_W@__crt_stdio_output@@@2@@__crt_stdio_output@@AEAA_NXZ 000000018006d100 f i libucrtd:output.obj
 0001:0006c660       ?state_case_type@?$output_processor@_WV?$stream_output_adapter@_W@__crt_stdio_output@@V?$standard_base@_WV?$stream_output_adapter@_W@__crt_stdio_output@@@2@@__crt_stdio_output@@AEAA_NXZ 000000018006d660 f i libucrtd:output.obj
 0001:0006cbc0       ?state_case_type@?$output_processor@_WV?$string_output_adapter@_W@__crt_stdio_output@@V?$format_validation_base@_WV?$string_output_adapter@_W@__crt_stdio_output@@@2@@__crt_stdio_output@@AEAA_NXZ 000000018006dbc0 f i libucrtd:output.obj
 0001:0006d120       ?state_case_type@?$output_processor@_WV?$string_output_adapter@_W@__crt_stdio_output@@V?$positional_parameter_base@_WV?$string_output_adapter@_W@__crt_stdio_output@@@2@@__crt_stdio_output@@AEAA_NXZ 000000018006e120 f i libucrtd:output.obj
 0001:0006d680       ?state_case_type@?$output_processor@_WV?$string_output_adapter@_W@__crt_stdio_output@@V?$standard_base@_WV?$string_output_adapter@_W@__crt_stdio_output@@@2@@__crt_stdio_output@@AEAA_NXZ 000000018006e680 f i libucrtd:output.obj
 0001:0006dbe0       ?state_case_width@?$output_processor@DV?$stream_output_adapter@D@__crt_stdio_output@@V?$format_validation_base@DV?$stream_output_adapter@D@__crt_stdio_output@@@2@@__crt_stdio_output@@AEAA_NXZ 000000018006ebe0 f i libucrtd:output.obj
 0001:0006dc70       ?state_case_width@?$output_processor@DV?$stream_output_adapter@D@__crt_stdio_output@@V?$positional_parameter_base@DV?$stream_output_adapter@D@__crt_stdio_output@@@2@@__crt_stdio_output@@AEAA_NXZ 000000018006ec70 f i libucrtd:output.obj
 0001:0006dd00       ?state_case_width@?$output_processor@DV?$stream_output_adapter@D@__crt_stdio_output@@V?$standard_base@DV?$stream_output_adapter@D@__crt_stdio_output@@@2@@__crt_stdio_output@@AEAA_NXZ 000000018006ed00 f i libucrtd:output.obj
 0001:0006dd90       ?state_case_width@?$output_processor@DV?$string_output_adapter@D@__crt_stdio_output@@V?$format_validation_base@DV?$string_output_adapter@D@__crt_stdio_output@@@2@@__crt_stdio_output@@AEAA_NXZ 000000018006ed90 f i libucrtd:output.obj
 0001:0006de20       ?state_case_width@?$output_processor@DV?$string_output_adapter@D@__crt_stdio_output@@V?$positional_parameter_base@DV?$string_output_adapter@D@__crt_stdio_output@@@2@@__crt_stdio_output@@AEAA_NXZ 000000018006ee20 f i libucrtd:output.obj
 0001:0006deb0       ?state_case_width@?$output_processor@DV?$string_output_adapter@D@__crt_stdio_output@@V?$standard_base@DV?$string_output_adapter@D@__crt_stdio_output@@@2@@__crt_stdio_output@@AEAA_NXZ 000000018006eeb0 f i libucrtd:output.obj
 0001:0006df40       ?state_case_width@?$output_processor@_WV?$stream_output_adapter@_W@__crt_stdio_output@@V?$format_validation_base@_WV?$stream_output_adapter@_W@__crt_stdio_output@@@2@@__crt_stdio_output@@AEAA_NXZ 000000018006ef40 f i libucrtd:output.obj
 0001:0006dfd0       ?state_case_width@?$output_processor@_WV?$stream_output_adapter@_W@__crt_stdio_output@@V?$positional_parameter_base@_WV?$stream_output_adapter@_W@__crt_stdio_output@@@2@@__crt_stdio_output@@AEAA_NXZ 000000018006efd0 f i libucrtd:output.obj
 0001:0006e060       ?state_case_width@?$output_processor@_WV?$stream_output_adapter@_W@__crt_stdio_output@@V?$standard_base@_WV?$stream_output_adapter@_W@__crt_stdio_output@@@2@@__crt_stdio_output@@AEAA_NXZ 000000018006f060 f i libucrtd:output.obj
 0001:0006e0f0       ?state_case_width@?$output_processor@_WV?$string_output_adapter@_W@__crt_stdio_output@@V?$format_validation_base@_WV?$string_output_adapter@_W@__crt_stdio_output@@@2@@__crt_stdio_output@@AEAA_NXZ 000000018006f0f0 f i libucrtd:output.obj
 0001:0006e180       ?state_case_width@?$output_processor@_WV?$string_output_adapter@_W@__crt_stdio_output@@V?$positional_parameter_base@_WV?$string_output_adapter@_W@__crt_stdio_output@@@2@@__crt_stdio_output@@AEAA_NXZ 000000018006f180 f i libucrtd:output.obj
 0001:0006e210       ?state_case_width@?$output_processor@_WV?$string_output_adapter@_W@__crt_stdio_output@@V?$standard_base@_WV?$string_output_adapter@_W@__crt_stdio_output@@@2@@__crt_stdio_output@@AEAA_NXZ 000000018006f210 f i libucrtd:output.obj
 0001:0006e2a0       ?state_count@?$format_validation_base@DV?$stream_output_adapter@D@__crt_stdio_output@@@__crt_stdio_output@@KAIXZ 000000018006f2a0 f i libucrtd:output.obj
 0001:0006e2b0       ?state_count@?$format_validation_base@DV?$string_output_adapter@D@__crt_stdio_output@@@__crt_stdio_output@@KAIXZ 000000018006f2b0 f i libucrtd:output.obj
 0001:0006e2c0       ?state_count@?$format_validation_base@_WV?$stream_output_adapter@_W@__crt_stdio_output@@@__crt_stdio_output@@KAIXZ 000000018006f2c0 f i libucrtd:output.obj
 0001:0006e2d0       ?state_count@?$format_validation_base@_WV?$string_output_adapter@_W@__crt_stdio_output@@@__crt_stdio_output@@KAIXZ 000000018006f2d0 f i libucrtd:output.obj
 0001:0006e2e0       ?state_count@?$standard_base@DV?$stream_output_adapter@D@__crt_stdio_output@@@__crt_stdio_output@@KAIXZ 000000018006f2e0 f i libucrtd:output.obj
 0001:0006e2f0       ?state_count@?$standard_base@DV?$string_output_adapter@D@__crt_stdio_output@@@__crt_stdio_output@@KAIXZ 000000018006f2f0 f i libucrtd:output.obj
 0001:0006e300       ?state_count@?$standard_base@_WV?$stream_output_adapter@_W@__crt_stdio_output@@@__crt_stdio_output@@KAIXZ 000000018006f300 f i libucrtd:output.obj
 0001:0006e310       ?state_count@?$standard_base@_WV?$string_output_adapter@_W@__crt_stdio_output@@@__crt_stdio_output@@KAIXZ 000000018006f310 f i libucrtd:output.obj
 0001:0006e320       ?state_transition_table@?$format_validation_base@DV?$stream_output_adapter@D@__crt_stdio_output@@@__crt_stdio_output@@KAPEBEXZ 000000018006f320 f i libucrtd:output.obj
 0001:0006e330       ?state_transition_table@?$format_validation_base@DV?$string_output_adapter@D@__crt_stdio_output@@@__crt_stdio_output@@KAPEBEXZ 000000018006f330 f i libucrtd:output.obj
 0001:0006e340       ?state_transition_table@?$format_validation_base@_WV?$stream_output_adapter@_W@__crt_stdio_output@@@__crt_stdio_output@@KAPEBEXZ 000000018006f340 f i libucrtd:output.obj
 0001:0006e350       ?state_transition_table@?$format_validation_base@_WV?$string_output_adapter@_W@__crt_stdio_output@@@__crt_stdio_output@@KAPEBEXZ 000000018006f350 f i libucrtd:output.obj
 0001:0006e360       ?state_transition_table@?$standard_base@DV?$stream_output_adapter@D@__crt_stdio_output@@@__crt_stdio_output@@KAPEBEXZ 000000018006f360 f i libucrtd:output.obj
 0001:0006e370       ?state_transition_table@?$standard_base@DV?$string_output_adapter@D@__crt_stdio_output@@@__crt_stdio_output@@KAPEBEXZ 000000018006f370 f i libucrtd:output.obj
 0001:0006e380       ?state_transition_table@?$standard_base@_WV?$stream_output_adapter@_W@__crt_stdio_output@@@__crt_stdio_output@@KAPEBEXZ 000000018006f380 f i libucrtd:output.obj
 0001:0006e390       ?state_transition_table@?$standard_base@_WV?$string_output_adapter@_W@__crt_stdio_output@@@__crt_stdio_output@@KAPEBEXZ 000000018006f390 f i libucrtd:output.obj
 0001:0006e3a0       ?tchar_string@?$common_data@D@__crt_stdio_output@@IEAAAEAPEADD@Z 000000018006f3a0 f i libucrtd:output.obj
 0001:0006e3c0       ?tchar_string@?$common_data@D@__crt_stdio_output@@IEAAAEAPEADXZ 000000018006f3c0 f i libucrtd:output.obj
 0001:0006e3e0       ?tchar_string@?$common_data@_W@__crt_stdio_output@@IEAAAEAPEA_WXZ 000000018006f3e0 f i libucrtd:output.obj
 0001:0006e400       ?tchar_string@?$common_data@_W@__crt_stdio_output@@IEAAAEAPEA_W_W@Z 000000018006f400 f i libucrtd:output.obj
 0001:0006e420       ?to_integer_size@__crt_stdio_output@@YA_KW4length_modifier@1@@Z 000000018006f420 f i libucrtd:output.obj
 0001:0006e4d0       ?type_case_X@?$output_processor@DV?$stream_output_adapter@D@__crt_stdio_output@@V?$format_validation_base@DV?$stream_output_adapter@D@__crt_stdio_output@@@2@@__crt_stdio_output@@AEAA_NXZ 000000018006f4d0 f i libucrtd:output.obj
 0001:0006e4f0       ?type_case_X@?$output_processor@DV?$stream_output_adapter@D@__crt_stdio_output@@V?$positional_parameter_base@DV?$stream_output_adapter@D@__crt_stdio_output@@@2@@__crt_stdio_output@@AEAA_NXZ 000000018006f4f0 f i libucrtd:output.obj
 0001:0006e510       ?type_case_X@?$output_processor@DV?$stream_output_adapter@D@__crt_stdio_output@@V?$standard_base@DV?$stream_output_adapter@D@__crt_stdio_output@@@2@@__crt_stdio_output@@AEAA_NXZ 000000018006f510 f i libucrtd:output.obj
 0001:0006e530       ?type_case_X@?$output_processor@DV?$string_output_adapter@D@__crt_stdio_output@@V?$format_validation_base@DV?$string_output_adapter@D@__crt_stdio_output@@@2@@__crt_stdio_output@@AEAA_NXZ 000000018006f530 f i libucrtd:output.obj
 0001:0006e550       ?type_case_X@?$output_processor@DV?$string_output_adapter@D@__crt_stdio_output@@V?$positional_parameter_base@DV?$string_output_adapter@D@__crt_stdio_output@@@2@@__crt_stdio_output@@AEAA_NXZ 000000018006f550 f i libucrtd:output.obj
 0001:0006e570       ?type_case_X@?$output_processor@DV?$string_output_adapter@D@__crt_stdio_output@@V?$standard_base@DV?$string_output_adapter@D@__crt_stdio_output@@@2@@__crt_stdio_output@@AEAA_NXZ 000000018006f570 f i libucrtd:output.obj
 0001:0006e590       ?type_case_X@?$output_processor@_WV?$stream_output_adapter@_W@__crt_stdio_output@@V?$format_validation_base@_WV?$stream_output_adapter@_W@__crt_stdio_output@@@2@@__crt_stdio_output@@AEAA_NXZ 000000018006f590 f i libucrtd:output.obj
 0001:0006e5b0       ?type_case_X@?$output_processor@_WV?$stream_output_adapter@_W@__crt_stdio_output@@V?$positional_parameter_base@_WV?$stream_output_adapter@_W@__crt_stdio_output@@@2@@__crt_stdio_output@@AEAA_NXZ 000000018006f5b0 f i libucrtd:output.obj
 0001:0006e5d0       ?type_case_X@?$output_processor@_WV?$stream_output_adapter@_W@__crt_stdio_output@@V?$standard_base@_WV?$stream_output_adapter@_W@__crt_stdio_output@@@2@@__crt_stdio_output@@AEAA_NXZ 000000018006f5d0 f i libucrtd:output.obj
 0001:0006e5f0       ?type_case_X@?$output_processor@_WV?$string_output_adapter@_W@__crt_stdio_output@@V?$format_validation_base@_WV?$string_output_adapter@_W@__crt_stdio_output@@@2@@__crt_stdio_output@@AEAA_NXZ 000000018006f5f0 f i libucrtd:output.obj
 0001:0006e610       ?type_case_X@?$output_processor@_WV?$string_output_adapter@_W@__crt_stdio_output@@V?$positional_parameter_base@_WV?$string_output_adapter@_W@__crt_stdio_output@@@2@@__crt_stdio_output@@AEAA_NXZ 000000018006f610 f i libucrtd:output.obj
 0001:0006e630       ?type_case_X@?$output_processor@_WV?$string_output_adapter@_W@__crt_stdio_output@@V?$standard_base@_WV?$string_output_adapter@_W@__crt_stdio_output@@@2@@__crt_stdio_output@@AEAA_NXZ 000000018006f630 f i libucrtd:output.obj
 0001:0006e650       ?type_case_Z@?$output_processor@DV?$stream_output_adapter@D@__crt_stdio_output@@V?$format_validation_base@DV?$stream_output_adapter@D@__crt_stdio_output@@@2@@__crt_stdio_output@@AEAA_NXZ 000000018006f650 f i libucrtd:output.obj
 0001:0006e770       ?type_case_Z@?$output_processor@DV?$stream_output_adapter@D@__crt_stdio_output@@V?$positional_parameter_base@DV?$stream_output_adapter@D@__crt_stdio_output@@@2@@__crt_stdio_output@@AEAA_NXZ 000000018006f770 f i libucrtd:output.obj
 0001:0006e890       ?type_case_Z@?$output_processor@DV?$stream_output_adapter@D@__crt_stdio_output@@V?$standard_base@DV?$stream_output_adapter@D@__crt_stdio_output@@@2@@__crt_stdio_output@@AEAA_NXZ 000000018006f890 f i libucrtd:output.obj
 0001:0006e9b0       ?type_case_Z@?$output_processor@DV?$string_output_adapter@D@__crt_stdio_output@@V?$format_validation_base@DV?$string_output_adapter@D@__crt_stdio_output@@@2@@__crt_stdio_output@@AEAA_NXZ 000000018006f9b0 f i libucrtd:output.obj
 0001:0006ead0       ?type_case_Z@?$output_processor@DV?$string_output_adapter@D@__crt_stdio_output@@V?$positional_parameter_base@DV?$string_output_adapter@D@__crt_stdio_output@@@2@@__crt_stdio_output@@AEAA_NXZ 000000018006fad0 f i libucrtd:output.obj
 0001:0006ebf0       ?type_case_Z@?$output_processor@DV?$string_output_adapter@D@__crt_stdio_output@@V?$standard_base@DV?$string_output_adapter@D@__crt_stdio_output@@@2@@__crt_stdio_output@@AEAA_NXZ 000000018006fbf0 f i libucrtd:output.obj
 0001:0006ed10       ?type_case_Z@?$output_processor@_WV?$stream_output_adapter@_W@__crt_stdio_output@@V?$format_validation_base@_WV?$stream_output_adapter@_W@__crt_stdio_output@@@2@@__crt_stdio_output@@AEAA_NXZ 000000018006fd10 f i libucrtd:output.obj
 0001:0006ee30       ?type_case_Z@?$output_processor@_WV?$stream_output_adapter@_W@__crt_stdio_output@@V?$positional_parameter_base@_WV?$stream_output_adapter@_W@__crt_stdio_output@@@2@@__crt_stdio_output@@AEAA_NXZ 000000018006fe30 f i libucrtd:output.obj
 0001:0006ef50       ?type_case_Z@?$output_processor@_WV?$stream_output_adapter@_W@__crt_stdio_output@@V?$standard_base@_WV?$stream_output_adapter@_W@__crt_stdio_output@@@2@@__crt_stdio_output@@AEAA_NXZ 000000018006ff50 f i libucrtd:output.obj
 0001:0006f070       ?type_case_Z@?$output_processor@_WV?$string_output_adapter@_W@__crt_stdio_output@@V?$format_validation_base@_WV?$string_output_adapter@_W@__crt_stdio_output@@@2@@__crt_stdio_output@@AEAA_NXZ 0000000180070070 f i libucrtd:output.obj
 0001:0006f190       ?type_case_Z@?$output_processor@_WV?$string_output_adapter@_W@__crt_stdio_output@@V?$positional_parameter_base@_WV?$string_output_adapter@_W@__crt_stdio_output@@@2@@__crt_stdio_output@@AEAA_NXZ 0000000180070190 f i libucrtd:output.obj
 0001:0006f2b0       ?type_case_Z@?$output_processor@_WV?$string_output_adapter@_W@__crt_stdio_output@@V?$standard_base@_WV?$string_output_adapter@_W@__crt_stdio_output@@@2@@__crt_stdio_output@@AEAA_NXZ 00000001800702b0 f i libucrtd:output.obj
 0001:0006f3d0       ?type_case_a@?$output_processor@DV?$stream_output_adapter@D@__crt_stdio_output@@V?$format_validation_base@DV?$stream_output_adapter@D@__crt_stdio_output@@@2@@__crt_stdio_output@@AEAA_NXZ 00000001800703d0 f i libucrtd:output.obj
 0001:0006f790       ?type_case_a@?$output_processor@DV?$stream_output_adapter@D@__crt_stdio_output@@V?$positional_parameter_base@DV?$stream_output_adapter@D@__crt_stdio_output@@@2@@__crt_stdio_output@@AEAA_NXZ 0000000180070790 f i libucrtd:output.obj
 0001:0006fb50       ?type_case_a@?$output_processor@DV?$stream_output_adapter@D@__crt_stdio_output@@V?$standard_base@DV?$stream_output_adapter@D@__crt_stdio_output@@@2@@__crt_stdio_output@@AEAA_NXZ 0000000180070b50 f i libucrtd:output.obj
 0001:0006ff10       ?type_case_a@?$output_processor@DV?$string_output_adapter@D@__crt_stdio_output@@V?$format_validation_base@DV?$string_output_adapter@D@__crt_stdio_output@@@2@@__crt_stdio_output@@AEAA_NXZ 0000000180070f10 f i libucrtd:output.obj
 0001:000702d0       ?type_case_a@?$output_processor@DV?$string_output_adapter@D@__crt_stdio_output@@V?$positional_parameter_base@DV?$string_output_adapter@D@__crt_stdio_output@@@2@@__crt_stdio_output@@AEAA_NXZ 00000001800712d0 f i libucrtd:output.obj
 0001:00070690       ?type_case_a@?$output_processor@DV?$string_output_adapter@D@__crt_stdio_output@@V?$standard_base@DV?$string_output_adapter@D@__crt_stdio_output@@@2@@__crt_stdio_output@@AEAA_NXZ 0000000180071690 f i libucrtd:output.obj
 0001:00070a50       ?type_case_a@?$output_processor@_WV?$stream_output_adapter@_W@__crt_stdio_output@@V?$format_validation_base@_WV?$stream_output_adapter@_W@__crt_stdio_output@@@2@@__crt_stdio_output@@AEAA_NXZ 0000000180071a50 f i libucrtd:output.obj
 0001:00070e20       ?type_case_a@?$output_processor@_WV?$stream_output_adapter@_W@__crt_stdio_output@@V?$positional_parameter_base@_WV?$stream_output_adapter@_W@__crt_stdio_output@@@2@@__crt_stdio_output@@AEAA_NXZ 0000000180071e20 f i libucrtd:output.obj
 0001:000711f0       ?type_case_a@?$output_processor@_WV?$stream_output_adapter@_W@__crt_stdio_output@@V?$standard_base@_WV?$stream_output_adapter@_W@__crt_stdio_output@@@2@@__crt_stdio_output@@AEAA_NXZ 00000001800721f0 f i libucrtd:output.obj
 0001:000715c0       ?type_case_a@?$output_processor@_WV?$string_output_adapter@_W@__crt_stdio_output@@V?$format_validation_base@_WV?$string_output_adapter@_W@__crt_stdio_output@@@2@@__crt_stdio_output@@AEAA_NXZ 00000001800725c0 f i libucrtd:output.obj
 0001:00071990       ?type_case_a@?$output_processor@_WV?$string_output_adapter@_W@__crt_stdio_output@@V?$positional_parameter_base@_WV?$string_output_adapter@_W@__crt_stdio_output@@@2@@__crt_stdio_output@@AEAA_NXZ 0000000180072990 f i libucrtd:output.obj
 0001:00071d60       ?type_case_a@?$output_processor@_WV?$string_output_adapter@_W@__crt_stdio_output@@V?$standard_base@_WV?$string_output_adapter@_W@__crt_stdio_output@@@2@@__crt_stdio_output@@AEAA_NXZ 0000000180072d60 f i libucrtd:output.obj
 0001:00072130       ?type_case_c@?$output_processor@DV?$stream_output_adapter@D@__crt_stdio_output@@V?$format_validation_base@DV?$stream_output_adapter@D@__crt_stdio_output@@@2@@__crt_stdio_output@@AEAA_NXZ 0000000180073130 f i libucrtd:output.obj
 0001:00072150       ?type_case_c@?$output_processor@DV?$stream_output_adapter@D@__crt_stdio_output@@V?$positional_parameter_base@DV?$stream_output_adapter@D@__crt_stdio_output@@@2@@__crt_stdio_output@@AEAA_NXZ 0000000180073150 f i libucrtd:output.obj
 0001:00072170       ?type_case_c@?$output_processor@DV?$stream_output_adapter@D@__crt_stdio_output@@V?$standard_base@DV?$stream_output_adapter@D@__crt_stdio_output@@@2@@__crt_stdio_output@@AEAA_NXZ 0000000180073170 f i libucrtd:output.obj
 0001:00072190       ?type_case_c@?$output_processor@DV?$string_output_adapter@D@__crt_stdio_output@@V?$format_validation_base@DV?$string_output_adapter@D@__crt_stdio_output@@@2@@__crt_stdio_output@@AEAA_NXZ 0000000180073190 f i libucrtd:output.obj
 0001:000721b0       ?type_case_c@?$output_processor@DV?$string_output_adapter@D@__crt_stdio_output@@V?$positional_parameter_base@DV?$string_output_adapter@D@__crt_stdio_output@@@2@@__crt_stdio_output@@AEAA_NXZ 00000001800731b0 f i libucrtd:output.obj
 0001:000721d0       ?type_case_c@?$output_processor@DV?$string_output_adapter@D@__crt_stdio_output@@V?$standard_base@DV?$string_output_adapter@D@__crt_stdio_output@@@2@@__crt_stdio_output@@AEAA_NXZ 00000001800731d0 f i libucrtd:output.obj
 0001:000721f0       ?type_case_c@?$output_processor@_WV?$stream_output_adapter@_W@__crt_stdio_output@@V?$format_validation_base@_WV?$stream_output_adapter@_W@__crt_stdio_output@@@2@@__crt_stdio_output@@AEAA_NXZ 00000001800731f0 f i libucrtd:output.obj
 0001:00072210       ?type_case_c@?$output_processor@_WV?$stream_output_adapter@_W@__crt_stdio_output@@V?$positional_parameter_base@_WV?$stream_output_adapter@_W@__crt_stdio_output@@@2@@__crt_stdio_output@@AEAA_NXZ 0000000180073210 f i libucrtd:output.obj
 0001:00072230       ?type_case_c@?$output_processor@_WV?$stream_output_adapter@_W@__crt_stdio_output@@V?$standard_base@_WV?$stream_output_adapter@_W@__crt_stdio_output@@@2@@__crt_stdio_output@@AEAA_NXZ 0000000180073230 f i libucrtd:output.obj
 0001:00072250       ?type_case_c@?$output_processor@_WV?$string_output_adapter@_W@__crt_stdio_output@@V?$format_validation_base@_WV?$string_output_adapter@_W@__crt_stdio_output@@@2@@__crt_stdio_output@@AEAA_NXZ 0000000180073250 f i libucrtd:output.obj
 0001:00072270       ?type_case_c@?$output_processor@_WV?$string_output_adapter@_W@__crt_stdio_output@@V?$positional_parameter_base@_WV?$string_output_adapter@_W@__crt_stdio_output@@@2@@__crt_stdio_output@@AEAA_NXZ 0000000180073270 f i libucrtd:output.obj
 0001:00072290       ?type_case_c@?$output_processor@_WV?$string_output_adapter@_W@__crt_stdio_output@@V?$standard_base@_WV?$string_output_adapter@_W@__crt_stdio_output@@@2@@__crt_stdio_output@@AEAA_NXZ 0000000180073290 f i libucrtd:output.obj
 0001:000722b0       ?type_case_c_tchar@?$output_processor@DV?$stream_output_adapter@D@__crt_stdio_output@@V?$format_validation_base@DV?$stream_output_adapter@D@__crt_stdio_output@@@2@@__crt_stdio_output@@AEAA_ND@Z 00000001800732b0 f i libucrtd:output.obj
 0001:00072400       ?type_case_c_tchar@?$output_processor@DV?$stream_output_adapter@D@__crt_stdio_output@@V?$positional_parameter_base@DV?$stream_output_adapter@D@__crt_stdio_output@@@2@@__crt_stdio_output@@AEAA_ND@Z 0000000180073400 f i libucrtd:output.obj
 0001:00072550       ?type_case_c_tchar@?$output_processor@DV?$stream_output_adapter@D@__crt_stdio_output@@V?$standard_base@DV?$stream_output_adapter@D@__crt_stdio_output@@@2@@__crt_stdio_output@@AEAA_ND@Z 0000000180073550 f i libucrtd:output.obj
 0001:000726a0       ?type_case_c_tchar@?$output_processor@DV?$string_output_adapter@D@__crt_stdio_output@@V?$format_validation_base@DV?$string_output_adapter@D@__crt_stdio_output@@@2@@__crt_stdio_output@@AEAA_ND@Z 00000001800736a0 f i libucrtd:output.obj
 0001:000727f0       ?type_case_c_tchar@?$output_processor@DV?$string_output_adapter@D@__crt_stdio_output@@V?$positional_parameter_base@DV?$string_output_adapter@D@__crt_stdio_output@@@2@@__crt_stdio_output@@AEAA_ND@Z 00000001800737f0 f i libucrtd:output.obj
 0001:00072940       ?type_case_c_tchar@?$output_processor@DV?$string_output_adapter@D@__crt_stdio_output@@V?$standard_base@DV?$string_output_adapter@D@__crt_stdio_output@@@2@@__crt_stdio_output@@AEAA_ND@Z 0000000180073940 f i libucrtd:output.obj
 0001:00072a90       ?type_case_c_tchar@?$output_processor@_WV?$stream_output_adapter@_W@__crt_stdio_output@@V?$format_validation_base@_WV?$stream_output_adapter@_W@__crt_stdio_output@@@2@@__crt_stdio_output@@AEAA_N_W@Z 0000000180073a90 f i libucrtd:output.obj
 0001:00072bc0       ?type_case_c_tchar@?$output_processor@_WV?$stream_output_adapter@_W@__crt_stdio_output@@V?$positional_parameter_base@_WV?$stream_output_adapter@_W@__crt_stdio_output@@@2@@__crt_stdio_output@@AEAA_N_W@Z 0000000180073bc0 f i libucrtd:output.obj
 0001:00072cf0       ?type_case_c_tchar@?$output_processor@_WV?$stream_output_adapter@_W@__crt_stdio_output@@V?$standard_base@_WV?$stream_output_adapter@_W@__crt_stdio_output@@@2@@__crt_stdio_output@@AEAA_N_W@Z 0000000180073cf0 f i libucrtd:output.obj
 0001:00072e20       ?type_case_c_tchar@?$output_processor@_WV?$string_output_adapter@_W@__crt_stdio_output@@V?$format_validation_base@_WV?$string_output_adapter@_W@__crt_stdio_output@@@2@@__crt_stdio_output@@AEAA_N_W@Z 0000000180073e20 f i libucrtd:output.obj
 0001:00072f50       ?type_case_c_tchar@?$output_processor@_WV?$string_output_adapter@_W@__crt_stdio_output@@V?$positional_parameter_base@_WV?$string_output_adapter@_W@__crt_stdio_output@@@2@@__crt_stdio_output@@AEAA_N_W@Z 0000000180073f50 f i libucrtd:output.obj
 0001:00073080       ?type_case_c_tchar@?$output_processor@_WV?$string_output_adapter@_W@__crt_stdio_output@@V?$standard_base@_WV?$string_output_adapter@_W@__crt_stdio_output@@@2@@__crt_stdio_output@@AEAA_N_W@Z 0000000180074080 f i libucrtd:output.obj
 0001:000731b0       ?type_case_d@?$output_processor@DV?$stream_output_adapter@D@__crt_stdio_output@@V?$format_validation_base@DV?$stream_output_adapter@D@__crt_stdio_output@@@2@@__crt_stdio_output@@AEAA_NXZ 00000001800741b0 f i libucrtd:output.obj
 0001:000731e0       ?type_case_d@?$output_processor@DV?$stream_output_adapter@D@__crt_stdio_output@@V?$positional_parameter_base@DV?$stream_output_adapter@D@__crt_stdio_output@@@2@@__crt_stdio_output@@AEAA_NXZ 00000001800741e0 f i libucrtd:output.obj
 0001:00073210       ?type_case_d@?$output_processor@DV?$stream_output_adapter@D@__crt_stdio_output@@V?$standard_base@DV?$stream_output_adapter@D@__crt_stdio_output@@@2@@__crt_stdio_output@@AEAA_NXZ 0000000180074210 f i libucrtd:output.obj
 0001:00073240       ?type_case_d@?$output_processor@DV?$string_output_adapter@D@__crt_stdio_output@@V?$format_validation_base@DV?$string_output_adapter@D@__crt_stdio_output@@@2@@__crt_stdio_output@@AEAA_NXZ 0000000180074240 f i libucrtd:output.obj
 0001:00073270       ?type_case_d@?$output_processor@DV?$string_output_adapter@D@__crt_stdio_output@@V?$positional_parameter_base@DV?$string_output_adapter@D@__crt_stdio_output@@@2@@__crt_stdio_output@@AEAA_NXZ 0000000180074270 f i libucrtd:output.obj
 0001:000732a0       ?type_case_d@?$output_processor@DV?$string_output_adapter@D@__crt_stdio_output@@V?$standard_base@DV?$string_output_adapter@D@__crt_stdio_output@@@2@@__crt_stdio_output@@AEAA_NXZ 00000001800742a0 f i libucrtd:output.obj
 0001:000732d0       ?type_case_d@?$output_processor@_WV?$stream_output_adapter@_W@__crt_stdio_output@@V?$format_validation_base@_WV?$stream_output_adapter@_W@__crt_stdio_output@@@2@@__crt_stdio_output@@AEAA_NXZ 00000001800742d0 f i libucrtd:output.obj
 0001:00073300       ?type_case_d@?$output_processor@_WV?$stream_output_adapter@_W@__crt_stdio_output@@V?$positional_parameter_base@_WV?$stream_output_adapter@_W@__crt_stdio_output@@@2@@__crt_stdio_output@@AEAA_NXZ 0000000180074300 f i libucrtd:output.obj
 0001:00073330       ?type_case_d@?$output_processor@_WV?$stream_output_adapter@_W@__crt_stdio_output@@V?$standard_base@_WV?$stream_output_adapter@_W@__crt_stdio_output@@@2@@__crt_stdio_output@@AEAA_NXZ 0000000180074330 f i libucrtd:output.obj
 0001:00073360       ?type_case_d@?$output_processor@_WV?$string_output_adapter@_W@__crt_stdio_output@@V?$format_validation_base@_WV?$string_output_adapter@_W@__crt_stdio_output@@@2@@__crt_stdio_output@@AEAA_NXZ 0000000180074360 f i libucrtd:output.obj
 0001:00073390       ?type_case_d@?$output_processor@_WV?$string_output_adapter@_W@__crt_stdio_output@@V?$positional_parameter_base@_WV?$string_output_adapter@_W@__crt_stdio_output@@@2@@__crt_stdio_output@@AEAA_NXZ 0000000180074390 f i libucrtd:output.obj
 0001:000733c0       ?type_case_d@?$output_processor@_WV?$string_output_adapter@_W@__crt_stdio_output@@V?$standard_base@_WV?$string_output_adapter@_W@__crt_stdio_output@@@2@@__crt_stdio_output@@AEAA_NXZ 00000001800743c0 f i libucrtd:output.obj
 0001:000733f0       ?type_case_integer@?$output_processor@DV?$stream_output_adapter@D@__crt_stdio_output@@V?$format_validation_base@DV?$stream_output_adapter@D@__crt_stdio_output@@@2@@__crt_stdio_output@@AEAA_NI_N@Z 00000001800743f0 f i libucrtd:output.obj
 0001:00073840       ?type_case_integer@?$output_processor@DV?$stream_output_adapter@D@__crt_stdio_output@@V?$positional_parameter_base@DV?$stream_output_adapter@D@__crt_stdio_output@@@2@@__crt_stdio_output@@AEAA_NI_N@Z 0000000180074840 f i libucrtd:output.obj
 0001:00073c90       ?type_case_integer@?$output_processor@DV?$stream_output_adapter@D@__crt_stdio_output@@V?$standard_base@DV?$stream_output_adapter@D@__crt_stdio_output@@@2@@__crt_stdio_output@@AEAA_NI_N@Z 0000000180074c90 f i libucrtd:output.obj
 0001:000740e0       ?type_case_integer@?$output_processor@DV?$string_output_adapter@D@__crt_stdio_output@@V?$format_validation_base@DV?$string_output_adapter@D@__crt_stdio_output@@@2@@__crt_stdio_output@@AEAA_NI_N@Z 00000001800750e0 f i libucrtd:output.obj
 0001:00074530       ?type_case_integer@?$output_processor@DV?$string_output_adapter@D@__crt_stdio_output@@V?$positional_parameter_base@DV?$string_output_adapter@D@__crt_stdio_output@@@2@@__crt_stdio_output@@AEAA_NI_N@Z 0000000180075530 f i libucrtd:output.obj
 0001:00074980       ?type_case_integer@?$output_processor@DV?$string_output_adapter@D@__crt_stdio_output@@V?$standard_base@DV?$string_output_adapter@D@__crt_stdio_output@@@2@@__crt_stdio_output@@AEAA_NI_N@Z 0000000180075980 f i libucrtd:output.obj
 0001:00074dd0       ?type_case_integer@?$output_processor@_WV?$stream_output_adapter@_W@__crt_stdio_output@@V?$format_validation_base@_WV?$stream_output_adapter@_W@__crt_stdio_output@@@2@@__crt_stdio_output@@AEAA_NI_N@Z 0000000180075dd0 f i libucrtd:output.obj
 0001:00075220       ?type_case_integer@?$output_processor@_WV?$stream_output_adapter@_W@__crt_stdio_output@@V?$positional_parameter_base@_WV?$stream_output_adapter@_W@__crt_stdio_output@@@2@@__crt_stdio_output@@AEAA_NI_N@Z 0000000180076220 f i libucrtd:output.obj
 0001:00075670       ?type_case_integer@?$output_processor@_WV?$stream_output_adapter@_W@__crt_stdio_output@@V?$standard_base@_WV?$stream_output_adapter@_W@__crt_stdio_output@@@2@@__crt_stdio_output@@AEAA_NI_N@Z 0000000180076670 f i libucrtd:output.obj
 0001:00075ac0       ?type_case_integer@?$output_processor@_WV?$string_output_adapter@_W@__crt_stdio_output@@V?$format_validation_base@_WV?$string_output_adapter@_W@__crt_stdio_output@@@2@@__crt_stdio_output@@AEAA_NI_N@Z 0000000180076ac0 f i libucrtd:output.obj
 0001:00075f10       ?type_case_integer@?$output_processor@_WV?$string_output_adapter@_W@__crt_stdio_output@@V?$positional_parameter_base@_WV?$string_output_adapter@_W@__crt_stdio_output@@@2@@__crt_stdio_output@@AEAA_NI_N@Z 0000000180076f10 f i libucrtd:output.obj
 0001:00076360       ?type_case_integer@?$output_processor@_WV?$string_output_adapter@_W@__crt_stdio_output@@V?$standard_base@_WV?$string_output_adapter@_W@__crt_stdio_output@@@2@@__crt_stdio_output@@AEAA_NI_N@Z 0000000180077360 f i libucrtd:output.obj
 0001:000767b0       ?type_case_n@?$output_processor@DV?$stream_output_adapter@D@__crt_stdio_output@@V?$format_validation_base@DV?$stream_output_adapter@D@__crt_stdio_output@@@2@@__crt_stdio_output@@AEAA_NXZ 00000001800777b0 f i libucrtd:output.obj
 0001:000769f0       ?type_case_n@?$output_processor@DV?$stream_output_adapter@D@__crt_stdio_output@@V?$positional_parameter_base@DV?$stream_output_adapter@D@__crt_stdio_output@@@2@@__crt_stdio_output@@AEAA_NXZ 00000001800779f0 f i libucrtd:output.obj
 0001:00076c30       ?type_case_n@?$output_processor@DV?$stream_output_adapter@D@__crt_stdio_output@@V?$standard_base@DV?$stream_output_adapter@D@__crt_stdio_output@@@2@@__crt_stdio_output@@AEAA_NXZ 0000000180077c30 f i libucrtd:output.obj
 0001:00076e70       ?type_case_n@?$output_processor@DV?$string_output_adapter@D@__crt_stdio_output@@V?$format_validation_base@DV?$string_output_adapter@D@__crt_stdio_output@@@2@@__crt_stdio_output@@AEAA_NXZ 0000000180077e70 f i libucrtd:output.obj
 0001:000770b0       ?type_case_n@?$output_processor@DV?$string_output_adapter@D@__crt_stdio_output@@V?$positional_parameter_base@DV?$string_output_adapter@D@__crt_stdio_output@@@2@@__crt_stdio_output@@AEAA_NXZ 00000001800780b0 f i libucrtd:output.obj
 0001:000772f0       ?type_case_n@?$output_processor@DV?$string_output_adapter@D@__crt_stdio_output@@V?$standard_base@DV?$string_output_adapter@D@__crt_stdio_output@@@2@@__crt_stdio_output@@AEAA_NXZ 00000001800782f0 f i libucrtd:output.obj
 0001:00077530       ?type_case_n@?$output_processor@_WV?$stream_output_adapter@_W@__crt_stdio_output@@V?$format_validation_base@_WV?$stream_output_adapter@_W@__crt_stdio_output@@@2@@__crt_stdio_output@@AEAA_NXZ 0000000180078530 f i libucrtd:output.obj
 0001:00077770       ?type_case_n@?$output_processor@_WV?$stream_output_adapter@_W@__crt_stdio_output@@V?$positional_parameter_base@_WV?$stream_output_adapter@_W@__crt_stdio_output@@@2@@__crt_stdio_output@@AEAA_NXZ 0000000180078770 f i libucrtd:output.obj
 0001:000779b0       ?type_case_n@?$output_processor@_WV?$stream_output_adapter@_W@__crt_stdio_output@@V?$standard_base@_WV?$stream_output_adapter@_W@__crt_stdio_output@@@2@@__crt_stdio_output@@AEAA_NXZ 00000001800789b0 f i libucrtd:output.obj
 0001:00077bf0       ?type_case_n@?$output_processor@_WV?$string_output_adapter@_W@__crt_stdio_output@@V?$format_validation_base@_WV?$string_output_adapter@_W@__crt_stdio_output@@@2@@__crt_stdio_output@@AEAA_NXZ 0000000180078bf0 f i libucrtd:output.obj
 0001:00077e30       ?type_case_n@?$output_processor@_WV?$string_output_adapter@_W@__crt_stdio_output@@V?$positional_parameter_base@_WV?$string_output_adapter@_W@__crt_stdio_output@@@2@@__crt_stdio_output@@AEAA_NXZ 0000000180078e30 f i libucrtd:output.obj
 0001:00078070       ?type_case_n@?$output_processor@_WV?$string_output_adapter@_W@__crt_stdio_output@@V?$standard_base@_WV?$string_output_adapter@_W@__crt_stdio_output@@@2@@__crt_stdio_output@@AEAA_NXZ 0000000180079070 f i libucrtd:output.obj
 0001:000782b0       ?type_case_o@?$output_processor@DV?$stream_output_adapter@D@__crt_stdio_output@@V?$format_validation_base@DV?$stream_output_adapter@D@__crt_stdio_output@@@2@@__crt_stdio_output@@AEAA_NXZ 00000001800792b0 f i libucrtd:output.obj
 0001:00078300       ?type_case_o@?$output_processor@DV?$stream_output_adapter@D@__crt_stdio_output@@V?$positional_parameter_base@DV?$stream_output_adapter@D@__crt_stdio_output@@@2@@__crt_stdio_output@@AEAA_NXZ 0000000180079300 f i libucrtd:output.obj
 0001:00078350       ?type_case_o@?$output_processor@DV?$stream_output_adapter@D@__crt_stdio_output@@V?$standard_base@DV?$stream_output_adapter@D@__crt_stdio_output@@@2@@__crt_stdio_output@@AEAA_NXZ 0000000180079350 f i libucrtd:output.obj
 0001:000783a0       ?type_case_o@?$output_processor@DV?$string_output_adapter@D@__crt_stdio_output@@V?$format_validation_base@DV?$string_output_adapter@D@__crt_stdio_output@@@2@@__crt_stdio_output@@AEAA_NXZ 00000001800793a0 f i libucrtd:output.obj
 0001:000783f0       ?type_case_o@?$output_processor@DV?$string_output_adapter@D@__crt_stdio_output@@V?$positional_parameter_base@DV?$string_output_adapter@D@__crt_stdio_output@@@2@@__crt_stdio_output@@AEAA_NXZ 00000001800793f0 f i libucrtd:output.obj
 0001:00078440       ?type_case_o@?$output_processor@DV?$string_output_adapter@D@__crt_stdio_output@@V?$standard_base@DV?$string_output_adapter@D@__crt_stdio_output@@@2@@__crt_stdio_output@@AEAA_NXZ 0000000180079440 f i libucrtd:output.obj
 0001:00078490       ?type_case_o@?$output_processor@_WV?$stream_output_adapter@_W@__crt_stdio_output@@V?$format_validation_base@_WV?$stream_output_adapter@_W@__crt_stdio_output@@@2@@__crt_stdio_output@@AEAA_NXZ 0000000180079490 f i libucrtd:output.obj
 0001:000784e0       ?type_case_o@?$output_processor@_WV?$stream_output_adapter@_W@__crt_stdio_output@@V?$positional_parameter_base@_WV?$stream_output_adapter@_W@__crt_stdio_output@@@2@@__crt_stdio_output@@AEAA_NXZ 00000001800794e0 f i libucrtd:output.obj
 0001:00078530       ?type_case_o@?$output_processor@_WV?$stream_output_adapter@_W@__crt_stdio_output@@V?$standard_base@_WV?$stream_output_adapter@_W@__crt_stdio_output@@@2@@__crt_stdio_output@@AEAA_NXZ 0000000180079530 f i libucrtd:output.obj
 0001:00078580       ?type_case_o@?$output_processor@_WV?$string_output_adapter@_W@__crt_stdio_output@@V?$format_validation_base@_WV?$string_output_adapter@_W@__crt_stdio_output@@@2@@__crt_stdio_output@@AEAA_NXZ 0000000180079580 f i libucrtd:output.obj
 0001:000785d0       ?type_case_o@?$output_processor@_WV?$string_output_adapter@_W@__crt_stdio_output@@V?$positional_parameter_base@_WV?$string_output_adapter@_W@__crt_stdio_output@@@2@@__crt_stdio_output@@AEAA_NXZ 00000001800795d0 f i libucrtd:output.obj
 0001:00078620       ?type_case_o@?$output_processor@_WV?$string_output_adapter@_W@__crt_stdio_output@@V?$standard_base@_WV?$string_output_adapter@_W@__crt_stdio_output@@@2@@__crt_stdio_output@@AEAA_NXZ 0000000180079620 f i libucrtd:output.obj
 0001:00078670       ?type_case_p@?$output_processor@DV?$stream_output_adapter@D@__crt_stdio_output@@V?$format_validation_base@DV?$stream_output_adapter@D@__crt_stdio_output@@@2@@__crt_stdio_output@@AEAA_NXZ 0000000180079670 f i libucrtd:output.obj
 0001:000786b0       ?type_case_p@?$output_processor@DV?$stream_output_adapter@D@__crt_stdio_output@@V?$positional_parameter_base@DV?$stream_output_adapter@D@__crt_stdio_output@@@2@@__crt_stdio_output@@AEAA_NXZ 00000001800796b0 f i libucrtd:output.obj
 0001:000786f0       ?type_case_p@?$output_processor@DV?$stream_output_adapter@D@__crt_stdio_output@@V?$standard_base@DV?$stream_output_adapter@D@__crt_stdio_output@@@2@@__crt_stdio_output@@AEAA_NXZ 00000001800796f0 f i libucrtd:output.obj
 0001:00078730       ?type_case_p@?$output_processor@DV?$string_output_adapter@D@__crt_stdio_output@@V?$format_validation_base@DV?$string_output_adapter@D@__crt_stdio_output@@@2@@__crt_stdio_output@@AEAA_NXZ 0000000180079730 f i libucrtd:output.obj
 0001:00078770       ?type_case_p@?$output_processor@DV?$string_output_adapter@D@__crt_stdio_output@@V?$positional_parameter_base@DV?$string_output_adapter@D@__crt_stdio_output@@@2@@__crt_stdio_output@@AEAA_NXZ 0000000180079770 f i libucrtd:output.obj
 0001:000787b0       ?type_case_p@?$output_processor@DV?$string_output_adapter@D@__crt_stdio_output@@V?$standard_base@DV?$string_output_adapter@D@__crt_stdio_output@@@2@@__crt_stdio_output@@AEAA_NXZ 00000001800797b0 f i libucrtd:output.obj
 0001:000787f0       ?type_case_p@?$output_processor@_WV?$stream_output_adapter@_W@__crt_stdio_output@@V?$format_validation_base@_WV?$stream_output_adapter@_W@__crt_stdio_output@@@2@@__crt_stdio_output@@AEAA_NXZ 00000001800797f0 f i libucrtd:output.obj
 0001:00078830       ?type_case_p@?$output_processor@_WV?$stream_output_adapter@_W@__crt_stdio_output@@V?$positional_parameter_base@_WV?$stream_output_adapter@_W@__crt_stdio_output@@@2@@__crt_stdio_output@@AEAA_NXZ 0000000180079830 f i libucrtd:output.obj
 0001:00078870       ?type_case_p@?$output_processor@_WV?$stream_output_adapter@_W@__crt_stdio_output@@V?$standard_base@_WV?$stream_output_adapter@_W@__crt_stdio_output@@@2@@__crt_stdio_output@@AEAA_NXZ 0000000180079870 f i libucrtd:output.obj
 0001:000788b0       ?type_case_p@?$output_processor@_WV?$string_output_adapter@_W@__crt_stdio_output@@V?$format_validation_base@_WV?$string_output_adapter@_W@__crt_stdio_output@@@2@@__crt_stdio_output@@AEAA_NXZ 00000001800798b0 f i libucrtd:output.obj
 0001:000788f0       ?type_case_p@?$output_processor@_WV?$string_output_adapter@_W@__crt_stdio_output@@V?$positional_parameter_base@_WV?$string_output_adapter@_W@__crt_stdio_output@@@2@@__crt_stdio_output@@AEAA_NXZ 00000001800798f0 f i libucrtd:output.obj
 0001:00078930       ?type_case_p@?$output_processor@_WV?$string_output_adapter@_W@__crt_stdio_output@@V?$standard_base@_WV?$string_output_adapter@_W@__crt_stdio_output@@@2@@__crt_stdio_output@@AEAA_NXZ 0000000180079930 f i libucrtd:output.obj
 0001:00078970       ?type_case_s@?$output_processor@DV?$stream_output_adapter@D@__crt_stdio_output@@V?$format_validation_base@DV?$stream_output_adapter@D@__crt_stdio_output@@@2@@__crt_stdio_output@@AEAA_NXZ 0000000180079970 f i libucrtd:output.obj
 0001:00078a90       ?type_case_s@?$output_processor@DV?$stream_output_adapter@D@__crt_stdio_output@@V?$positional_parameter_base@DV?$stream_output_adapter@D@__crt_stdio_output@@@2@@__crt_stdio_output@@AEAA_NXZ 0000000180079a90 f i libucrtd:output.obj
 0001:00078bb0       ?type_case_s@?$output_processor@DV?$stream_output_adapter@D@__crt_stdio_output@@V?$standard_base@DV?$stream_output_adapter@D@__crt_stdio_output@@@2@@__crt_stdio_output@@AEAA_NXZ 0000000180079bb0 f i libucrtd:output.obj
 0001:00078cd0       ?type_case_s@?$output_processor@DV?$string_output_adapter@D@__crt_stdio_output@@V?$format_validation_base@DV?$string_output_adapter@D@__crt_stdio_output@@@2@@__crt_stdio_output@@AEAA_NXZ 0000000180079cd0 f i libucrtd:output.obj
 0001:00078df0       ?type_case_s@?$output_processor@DV?$string_output_adapter@D@__crt_stdio_output@@V?$positional_parameter_base@DV?$string_output_adapter@D@__crt_stdio_output@@@2@@__crt_stdio_output@@AEAA_NXZ 0000000180079df0 f i libucrtd:output.obj
 0001:00078f10       ?type_case_s@?$output_processor@DV?$string_output_adapter@D@__crt_stdio_output@@V?$standard_base@DV?$string_output_adapter@D@__crt_stdio_output@@@2@@__crt_stdio_output@@AEAA_NXZ 0000000180079f10 f i libucrtd:output.obj
 0001:00079030       ?type_case_s@?$output_processor@_WV?$stream_output_adapter@_W@__crt_stdio_output@@V?$format_validation_base@_WV?$stream_output_adapter@_W@__crt_stdio_output@@@2@@__crt_stdio_output@@AEAA_NXZ 000000018007a030 f i libucrtd:output.obj
 0001:00079150       ?type_case_s@?$output_processor@_WV?$stream_output_adapter@_W@__crt_stdio_output@@V?$positional_parameter_base@_WV?$stream_output_adapter@_W@__crt_stdio_output@@@2@@__crt_stdio_output@@AEAA_NXZ 000000018007a150 f i libucrtd:output.obj
 0001:00079270       ?type_case_s@?$output_processor@_WV?$stream_output_adapter@_W@__crt_stdio_output@@V?$standard_base@_WV?$stream_output_adapter@_W@__crt_stdio_output@@@2@@__crt_stdio_output@@AEAA_NXZ 000000018007a270 f i libucrtd:output.obj
 0001:00079390       ?type_case_s@?$output_processor@_WV?$string_output_adapter@_W@__crt_stdio_output@@V?$format_validation_base@_WV?$string_output_adapter@_W@__crt_stdio_output@@@2@@__crt_stdio_output@@AEAA_NXZ 000000018007a390 f i libucrtd:output.obj
 0001:000794b0       ?type_case_s@?$output_processor@_WV?$string_output_adapter@_W@__crt_stdio_output@@V?$positional_parameter_base@_WV?$string_output_adapter@_W@__crt_stdio_output@@@2@@__crt_stdio_output@@AEAA_NXZ 000000018007a4b0 f i libucrtd:output.obj
 0001:000795d0       ?type_case_s@?$output_processor@_WV?$string_output_adapter@_W@__crt_stdio_output@@V?$standard_base@_WV?$string_output_adapter@_W@__crt_stdio_output@@@2@@__crt_stdio_output@@AEAA_NXZ 000000018007a5d0 f i libucrtd:output.obj
 0001:000796f0       ?type_case_s_compute_narrow_string_length@?$output_processor@DV?$stream_output_adapter@D@__crt_stdio_output@@V?$format_validation_base@DV?$stream_output_adapter@D@__crt_stdio_output@@@2@@__crt_stdio_output@@AEBAHHD@Z 000000018007a6f0 f i libucrtd:output.obj
 0001:00079720       ?type_case_s_compute_narrow_string_length@?$output_processor@DV?$stream_output_adapter@D@__crt_stdio_output@@V?$positional_parameter_base@DV?$stream_output_adapter@D@__crt_stdio_output@@@2@@__crt_stdio_output@@AEBAHHD@Z 000000018007a720 f i libucrtd:output.obj
 0001:00079750       ?type_case_s_compute_narrow_string_length@?$output_processor@DV?$stream_output_adapter@D@__crt_stdio_output@@V?$standard_base@DV?$stream_output_adapter@D@__crt_stdio_output@@@2@@__crt_stdio_output@@AEBAHHD@Z 000000018007a750 f i libucrtd:output.obj
 0001:00079780       ?type_case_s_compute_narrow_string_length@?$output_processor@DV?$string_output_adapter@D@__crt_stdio_output@@V?$format_validation_base@DV?$string_output_adapter@D@__crt_stdio_output@@@2@@__crt_stdio_output@@AEBAHHD@Z 000000018007a780 f i libucrtd:output.obj
 0001:000797b0       ?type_case_s_compute_narrow_string_length@?$output_processor@DV?$string_output_adapter@D@__crt_stdio_output@@V?$positional_parameter_base@DV?$string_output_adapter@D@__crt_stdio_output@@@2@@__crt_stdio_output@@AEBAHHD@Z 000000018007a7b0 f i libucrtd:output.obj
 0001:000797e0       ?type_case_s_compute_narrow_string_length@?$output_processor@DV?$string_output_adapter@D@__crt_stdio_output@@V?$standard_base@DV?$string_output_adapter@D@__crt_stdio_output@@@2@@__crt_stdio_output@@AEBAHHD@Z 000000018007a7e0 f i libucrtd:output.obj
 0001:00079810       ?type_case_s_compute_narrow_string_length@?$output_processor@_WV?$stream_output_adapter@_W@__crt_stdio_output@@V?$format_validation_base@_WV?$stream_output_adapter@_W@__crt_stdio_output@@@2@@__crt_stdio_output@@AEBAHH_W@Z 000000018007a810 f i libucrtd:output.obj
 0001:000798a0       ?type_case_s_compute_narrow_string_length@?$output_processor@_WV?$stream_output_adapter@_W@__crt_stdio_output@@V?$positional_parameter_base@_WV?$stream_output_adapter@_W@__crt_stdio_output@@@2@@__crt_stdio_output@@AEBAHH_W@Z 000000018007a8a0 f i libucrtd:output.obj
 0001:00079930       ?type_case_s_compute_narrow_string_length@?$output_processor@_WV?$stream_output_adapter@_W@__crt_stdio_output@@V?$standard_base@_WV?$stream_output_adapter@_W@__crt_stdio_output@@@2@@__crt_stdio_output@@AEBAHH_W@Z 000000018007a930 f i libucrtd:output.obj
 0001:000799c0       ?type_case_s_compute_narrow_string_length@?$output_processor@_WV?$string_output_adapter@_W@__crt_stdio_output@@V?$format_validation_base@_WV?$string_output_adapter@_W@__crt_stdio_output@@@2@@__crt_stdio_output@@AEBAHH_W@Z 000000018007a9c0 f i libucrtd:output.obj
 0001:00079a50       ?type_case_s_compute_narrow_string_length@?$output_processor@_WV?$string_output_adapter@_W@__crt_stdio_output@@V?$positional_parameter_base@_WV?$string_output_adapter@_W@__crt_stdio_output@@@2@@__crt_stdio_output@@AEBAHH_W@Z 000000018007aa50 f i libucrtd:output.obj
 0001:00079ae0       ?type_case_s_compute_narrow_string_length@?$output_processor@_WV?$string_output_adapter@_W@__crt_stdio_output@@V?$standard_base@_WV?$string_output_adapter@_W@__crt_stdio_output@@@2@@__crt_stdio_output@@AEBAHH_W@Z 000000018007aae0 f i libucrtd:output.obj
 0001:00079b70       ?type_case_u@?$output_processor@DV?$stream_output_adapter@D@__crt_stdio_output@@V?$format_validation_base@DV?$stream_output_adapter@D@__crt_stdio_output@@@2@@__crt_stdio_output@@AEAA_NXZ 000000018007ab70 f i libucrtd:output.obj
 0001:00079b90       ?type_case_u@?$output_processor@DV?$stream_output_adapter@D@__crt_stdio_output@@V?$positional_parameter_base@DV?$stream_output_adapter@D@__crt_stdio_output@@@2@@__crt_stdio_output@@AEAA_NXZ 000000018007ab90 f i libucrtd:output.obj
 0001:00079bb0       ?type_case_u@?$output_processor@DV?$stream_output_adapter@D@__crt_stdio_output@@V?$standard_base@DV?$stream_output_adapter@D@__crt_stdio_output@@@2@@__crt_stdio_output@@AEAA_NXZ 000000018007abb0 f i libucrtd:output.obj
 0001:00079bd0       ?type_case_u@?$output_processor@DV?$string_output_adapter@D@__crt_stdio_output@@V?$format_validation_base@DV?$string_output_adapter@D@__crt_stdio_output@@@2@@__crt_stdio_output@@AEAA_NXZ 000000018007abd0 f i libucrtd:output.obj
 0001:00079bf0       ?type_case_u@?$output_processor@DV?$string_output_adapter@D@__crt_stdio_output@@V?$positional_parameter_base@DV?$string_output_adapter@D@__crt_stdio_output@@@2@@__crt_stdio_output@@AEAA_NXZ 000000018007abf0 f i libucrtd:output.obj
 0001:00079c10       ?type_case_u@?$output_processor@DV?$string_output_adapter@D@__crt_stdio_output@@V?$standard_base@DV?$string_output_adapter@D@__crt_stdio_output@@@2@@__crt_stdio_output@@AEAA_NXZ 000000018007ac10 f i libucrtd:output.obj
 0001:00079c30       ?type_case_u@?$output_processor@_WV?$stream_output_adapter@_W@__crt_stdio_output@@V?$format_validation_base@_WV?$stream_output_adapter@_W@__crt_stdio_output@@@2@@__crt_stdio_output@@AEAA_NXZ 000000018007ac30 f i libucrtd:output.obj
 0001:00079c50       ?type_case_u@?$output_processor@_WV?$stream_output_adapter@_W@__crt_stdio_output@@V?$positional_parameter_base@_WV?$stream_output_adapter@_W@__crt_stdio_output@@@2@@__crt_stdio_output@@AEAA_NXZ 000000018007ac50 f i libucrtd:output.obj
 0001:00079c70       ?type_case_u@?$output_processor@_WV?$stream_output_adapter@_W@__crt_stdio_output@@V?$standard_base@_WV?$stream_output_adapter@_W@__crt_stdio_output@@@2@@__crt_stdio_output@@AEAA_NXZ 000000018007ac70 f i libucrtd:output.obj
 0001:00079c90       ?type_case_u@?$output_processor@_WV?$string_output_adapter@_W@__crt_stdio_output@@V?$format_validation_base@_WV?$string_output_adapter@_W@__crt_stdio_output@@@2@@__crt_stdio_output@@AEAA_NXZ 000000018007ac90 f i libucrtd:output.obj
 0001:00079cb0       ?type_case_u@?$output_processor@_WV?$string_output_adapter@_W@__crt_stdio_output@@V?$positional_parameter_base@_WV?$string_output_adapter@_W@__crt_stdio_output@@@2@@__crt_stdio_output@@AEAA_NXZ 000000018007acb0 f i libucrtd:output.obj
 0001:00079cd0       ?type_case_u@?$output_processor@_WV?$string_output_adapter@_W@__crt_stdio_output@@V?$standard_base@_WV?$string_output_adapter@_W@__crt_stdio_output@@@2@@__crt_stdio_output@@AEAA_NXZ 000000018007acd0 f i libucrtd:output.obj
 0001:00079cf0       ?type_case_x@?$output_processor@DV?$stream_output_adapter@D@__crt_stdio_output@@V?$format_validation_base@DV?$stream_output_adapter@D@__crt_stdio_output@@@2@@__crt_stdio_output@@AEAA_NXZ 000000018007acf0 f i libucrtd:output.obj
 0001:00079d10       ?type_case_x@?$output_processor@DV?$stream_output_adapter@D@__crt_stdio_output@@V?$positional_parameter_base@DV?$stream_output_adapter@D@__crt_stdio_output@@@2@@__crt_stdio_output@@AEAA_NXZ 000000018007ad10 f i libucrtd:output.obj
 0001:00079d30       ?type_case_x@?$output_processor@DV?$stream_output_adapter@D@__crt_stdio_output@@V?$standard_base@DV?$stream_output_adapter@D@__crt_stdio_output@@@2@@__crt_stdio_output@@AEAA_NXZ 000000018007ad30 f i libucrtd:output.obj
 0001:00079d50       ?type_case_x@?$output_processor@DV?$string_output_adapter@D@__crt_stdio_output@@V?$format_validation_base@DV?$string_output_adapter@D@__crt_stdio_output@@@2@@__crt_stdio_output@@AEAA_NXZ 000000018007ad50 f i libucrtd:output.obj
 0001:00079d70       ?type_case_x@?$output_processor@DV?$string_output_adapter@D@__crt_stdio_output@@V?$positional_parameter_base@DV?$string_output_adapter@D@__crt_stdio_output@@@2@@__crt_stdio_output@@AEAA_NXZ 000000018007ad70 f i libucrtd:output.obj
 0001:00079d90       ?type_case_x@?$output_processor@DV?$string_output_adapter@D@__crt_stdio_output@@V?$standard_base@DV?$string_output_adapter@D@__crt_stdio_output@@@2@@__crt_stdio_output@@AEAA_NXZ 000000018007ad90 f i libucrtd:output.obj
 0001:00079db0       ?type_case_x@?$output_processor@_WV?$stream_output_adapter@_W@__crt_stdio_output@@V?$format_validation_base@_WV?$stream_output_adapter@_W@__crt_stdio_output@@@2@@__crt_stdio_output@@AEAA_NXZ 000000018007adb0 f i libucrtd:output.obj
 0001:00079dd0       ?type_case_x@?$output_processor@_WV?$stream_output_adapter@_W@__crt_stdio_output@@V?$positional_parameter_base@_WV?$stream_output_adapter@_W@__crt_stdio_output@@@2@@__crt_stdio_output@@AEAA_NXZ 000000018007add0 f i libucrtd:output.obj
 0001:00079df0       ?type_case_x@?$output_processor@_WV?$stream_output_adapter@_W@__crt_stdio_output@@V?$standard_base@_WV?$stream_output_adapter@_W@__crt_stdio_output@@@2@@__crt_stdio_output@@AEAA_NXZ 000000018007adf0 f i libucrtd:output.obj
 0001:00079e10       ?type_case_x@?$output_processor@_WV?$string_output_adapter@_W@__crt_stdio_output@@V?$format_validation_base@_WV?$string_output_adapter@_W@__crt_stdio_output@@@2@@__crt_stdio_output@@AEAA_NXZ 000000018007ae10 f i libucrtd:output.obj
 0001:00079e30       ?type_case_x@?$output_processor@_WV?$string_output_adapter@_W@__crt_stdio_output@@V?$positional_parameter_base@_WV?$string_output_adapter@_W@__crt_stdio_output@@@2@@__crt_stdio_output@@AEAA_NXZ 000000018007ae30 f i libucrtd:output.obj
 0001:00079e50       ?type_case_x@?$output_processor@_WV?$string_output_adapter@_W@__crt_stdio_output@@V?$standard_base@_WV?$string_output_adapter@_W@__crt_stdio_output@@@2@@__crt_stdio_output@@AEAA_NXZ 000000018007ae50 f i libucrtd:output.obj
 0001:00079e70       ?unset_flag@?$output_processor@DV?$stream_output_adapter@D@__crt_stdio_output@@V?$format_validation_base@DV?$stream_output_adapter@D@__crt_stdio_output@@@2@@__crt_stdio_output@@AEAAXI@Z 000000018007ae70 f i libucrtd:output.obj
 0001:00079ea0       ?unset_flag@?$output_processor@DV?$stream_output_adapter@D@__crt_stdio_output@@V?$positional_parameter_base@DV?$stream_output_adapter@D@__crt_stdio_output@@@2@@__crt_stdio_output@@AEAAXI@Z 000000018007aea0 f i libucrtd:output.obj
 0001:00079ed0       ?unset_flag@?$output_processor@DV?$stream_output_adapter@D@__crt_stdio_output@@V?$standard_base@DV?$stream_output_adapter@D@__crt_stdio_output@@@2@@__crt_stdio_output@@AEAAXI@Z 000000018007aed0 f i libucrtd:output.obj
 0001:00079f00       ?unset_flag@?$output_processor@DV?$string_output_adapter@D@__crt_stdio_output@@V?$format_validation_base@DV?$string_output_adapter@D@__crt_stdio_output@@@2@@__crt_stdio_output@@AEAAXI@Z 000000018007af00 f i libucrtd:output.obj
 0001:00079f30       ?unset_flag@?$output_processor@DV?$string_output_adapter@D@__crt_stdio_output@@V?$positional_parameter_base@DV?$string_output_adapter@D@__crt_stdio_output@@@2@@__crt_stdio_output@@AEAAXI@Z 000000018007af30 f i libucrtd:output.obj
 0001:00079f60       ?unset_flag@?$output_processor@DV?$string_output_adapter@D@__crt_stdio_output@@V?$standard_base@DV?$string_output_adapter@D@__crt_stdio_output@@@2@@__crt_stdio_output@@AEAAXI@Z 000000018007af60 f i libucrtd:output.obj
 0001:00079f90       ?unset_flag@?$output_processor@_WV?$stream_output_adapter@_W@__crt_stdio_output@@V?$format_validation_base@_WV?$stream_output_adapter@_W@__crt_stdio_output@@@2@@__crt_stdio_output@@AEAAXI@Z 000000018007af90 f i libucrtd:output.obj
 0001:00079fc0       ?unset_flag@?$output_processor@_WV?$stream_output_adapter@_W@__crt_stdio_output@@V?$positional_parameter_base@_WV?$stream_output_adapter@_W@__crt_stdio_output@@@2@@__crt_stdio_output@@AEAAXI@Z 000000018007afc0 f i libucrtd:output.obj
 0001:00079ff0       ?unset_flag@?$output_processor@_WV?$stream_output_adapter@_W@__crt_stdio_output@@V?$standard_base@_WV?$stream_output_adapter@_W@__crt_stdio_output@@@2@@__crt_stdio_output@@AEAAXI@Z 000000018007aff0 f i libucrtd:output.obj
 0001:0007a020       ?unset_flag@?$output_processor@_WV?$string_output_adapter@_W@__crt_stdio_output@@V?$format_validation_base@_WV?$string_output_adapter@_W@__crt_stdio_output@@@2@@__crt_stdio_output@@AEAAXI@Z 000000018007b020 f i libucrtd:output.obj
 0001:0007a050       ?unset_flag@?$output_processor@_WV?$string_output_adapter@_W@__crt_stdio_output@@V?$positional_parameter_base@_WV?$string_output_adapter@_W@__crt_stdio_output@@@2@@__crt_stdio_output@@AEAAXI@Z 000000018007b050 f i libucrtd:output.obj
 0001:0007a080       ?unset_flag@?$output_processor@_WV?$string_output_adapter@_W@__crt_stdio_output@@V?$standard_base@_WV?$string_output_adapter@_W@__crt_stdio_output@@@2@@__crt_stdio_output@@AEAAXI@Z 000000018007b080 f i libucrtd:output.obj
 0001:0007a0b0       ?update_field_width@?$positional_parameter_base@DV?$stream_output_adapter@D@__crt_stdio_output@@@__crt_stdio_output@@IEAA_NXZ 000000018007b0b0 f i libucrtd:output.obj
 0001:0007a2a0       ?update_field_width@?$positional_parameter_base@DV?$string_output_adapter@D@__crt_stdio_output@@@__crt_stdio_output@@IEAA_NXZ 000000018007b2a0 f i libucrtd:output.obj
 0001:0007a490       ?update_field_width@?$positional_parameter_base@_WV?$stream_output_adapter@_W@__crt_stdio_output@@@__crt_stdio_output@@IEAA_NXZ 000000018007b490 f i libucrtd:output.obj
 0001:0007a680       ?update_field_width@?$positional_parameter_base@_WV?$string_output_adapter@_W@__crt_stdio_output@@@__crt_stdio_output@@IEAA_NXZ 000000018007b680 f i libucrtd:output.obj
 0001:0007a870       ?update_field_width@?$standard_base@DV?$stream_output_adapter@D@__crt_stdio_output@@@__crt_stdio_output@@IEAA_NXZ 000000018007b870 f i libucrtd:output.obj
 0001:0007a8a0       ?update_field_width@?$standard_base@DV?$string_output_adapter@D@__crt_stdio_output@@@__crt_stdio_output@@IEAA_NXZ 000000018007b8a0 f i libucrtd:output.obj
 0001:0007a8d0       ?update_field_width@?$standard_base@_WV?$stream_output_adapter@_W@__crt_stdio_output@@@__crt_stdio_output@@IEAA_NXZ 000000018007b8d0 f i libucrtd:output.obj
 0001:0007a900       ?update_field_width@?$standard_base@_WV?$string_output_adapter@_W@__crt_stdio_output@@@__crt_stdio_output@@IEAA_NXZ 000000018007b900 f i libucrtd:output.obj
 0001:0007a930       ?update_precision@?$positional_parameter_base@DV?$stream_output_adapter@D@__crt_stdio_output@@@__crt_stdio_output@@IEAA_NXZ 000000018007b930 f i libucrtd:output.obj
 0001:0007ab20       ?update_precision@?$positional_parameter_base@DV?$string_output_adapter@D@__crt_stdio_output@@@__crt_stdio_output@@IEAA_NXZ 000000018007bb20 f i libucrtd:output.obj
 0001:0007ad10       ?update_precision@?$positional_parameter_base@_WV?$stream_output_adapter@_W@__crt_stdio_output@@@__crt_stdio_output@@IEAA_NXZ 000000018007bd10 f i libucrtd:output.obj
 0001:0007af00       ?update_precision@?$positional_parameter_base@_WV?$string_output_adapter@_W@__crt_stdio_output@@@__crt_stdio_output@@IEAA_NXZ 000000018007bf00 f i libucrtd:output.obj
 0001:0007b0f0       ?update_precision@?$standard_base@DV?$stream_output_adapter@D@__crt_stdio_output@@@__crt_stdio_output@@IEAA_NXZ 000000018007c0f0 f i libucrtd:output.obj
 0001:0007b120       ?update_precision@?$standard_base@DV?$string_output_adapter@D@__crt_stdio_output@@@__crt_stdio_output@@IEAA_NXZ 000000018007c120 f i libucrtd:output.obj
 0001:0007b150       ?update_precision@?$standard_base@_WV?$stream_output_adapter@_W@__crt_stdio_output@@@__crt_stdio_output@@IEAA_NXZ 000000018007c150 f i libucrtd:output.obj
 0001:0007b180       ?update_precision@?$standard_base@_WV?$string_output_adapter@_W@__crt_stdio_output@@@__crt_stdio_output@@IEAA_NXZ 000000018007c180 f i libucrtd:output.obj
 0001:0007b1b0       ?valid@__crt_stdio_stream@@QEBA_NXZ 000000018007c1b0 f i libucrtd:output.obj
 0001:0007b1e0       ?validate@?$stream_output_adapter@D@__crt_stdio_output@@QEBA_NXZ 000000018007c1e0 f i libucrtd:output.obj
 0001:0007b2c0       ?validate@?$stream_output_adapter@_W@__crt_stdio_output@@QEBA_NXZ 000000018007c2c0 f i libucrtd:output.obj
 0001:0007b3a0       ?validate@?$string_output_adapter@D@__crt_stdio_output@@QEBA_NXZ 000000018007c3a0 f i libucrtd:output.obj
 0001:0007b460       ?validate@?$string_output_adapter@_W@__crt_stdio_output@@QEBA_NXZ 000000018007c460 f i libucrtd:output.obj
 0001:0007b520       ?validate_and_store_parameter_data@?$positional_parameter_base@DV?$stream_output_adapter@D@__crt_stdio_output@@@__crt_stdio_output@@AEAA_NAEAUparameter_data@12@W4parameter_type@12@DW4length_modifier@2@@Z 000000018007c520 f i libucrtd:output.obj
 0001:0007b640       ?validate_and_store_parameter_data@?$positional_parameter_base@DV?$string_output_adapter@D@__crt_stdio_output@@@__crt_stdio_output@@AEAA_NAEAUparameter_data@12@W4parameter_type@12@DW4length_modifier@2@@Z 000000018007c640 f i libucrtd:output.obj
 0001:0007b760       ?validate_and_store_parameter_data@?$positional_parameter_base@_WV?$stream_output_adapter@_W@__crt_stdio_output@@@__crt_stdio_output@@AEAA_NAEAUparameter_data@12@W4parameter_type@12@_WW4length_modifier@2@@Z 000000018007c760 f i libucrtd:output.obj
 0001:0007b880       ?validate_and_store_parameter_data@?$positional_parameter_base@_WV?$string_output_adapter@_W@__crt_stdio_output@@@__crt_stdio_output@@AEAA_NAEAUparameter_data@12@W4parameter_type@12@_WW4length_modifier@2@@Z 000000018007c880 f i libucrtd:output.obj
 0001:0007b9a0       ?validate_and_update_state_at_beginning_of_format_character@?$positional_parameter_base@DV?$stream_output_adapter@D@__crt_stdio_output@@@__crt_stdio_output@@IEAA_NXZ 000000018007c9a0 f i libucrtd:output.obj
 0001:0007bc80       ?validate_and_update_state_at_beginning_of_format_character@?$positional_parameter_base@DV?$string_output_adapter@D@__crt_stdio_output@@@__crt_stdio_output@@IEAA_NXZ 000000018007cc80 f i libucrtd:output.obj
 0001:0007bf60       ?validate_and_update_state_at_beginning_of_format_character@?$positional_parameter_base@_WV?$stream_output_adapter@_W@__crt_stdio_output@@@__crt_stdio_output@@IEAA_NXZ 000000018007cf60 f i libucrtd:output.obj
 0001:0007c240       ?validate_and_update_state_at_beginning_of_format_character@?$positional_parameter_base@_WV?$string_output_adapter@_W@__crt_stdio_output@@@__crt_stdio_output@@IEAA_NXZ 000000018007d240 f i libucrtd:output.obj
 0001:0007c520       ?validate_and_update_state_at_beginning_of_format_character@?$standard_base@DV?$stream_output_adapter@D@__crt_stdio_output@@@__crt_stdio_output@@IEAA_NXZ 000000018007d520 f i libucrtd:output.obj
 0001:0007c530       ?validate_and_update_state_at_beginning_of_format_character@?$standard_base@DV?$string_output_adapter@D@__crt_stdio_output@@@__crt_stdio_output@@IEAA_NXZ 000000018007d530 f i libucrtd:output.obj
 0001:0007c540       ?validate_and_update_state_at_beginning_of_format_character@?$standard_base@_WV?$stream_output_adapter@_W@__crt_stdio_output@@@__crt_stdio_output@@IEAA_NXZ 000000018007d540 f i libucrtd:output.obj
 0001:0007c550       ?validate_and_update_state_at_beginning_of_format_character@?$standard_base@_WV?$string_output_adapter@_W@__crt_stdio_output@@@__crt_stdio_output@@IEAA_NXZ 000000018007d550 f i libucrtd:output.obj
 0001:0007c560       ?validate_and_update_state_at_end_of_format_string@?$format_validation_base@DV?$stream_output_adapter@D@__crt_stdio_output@@@__crt_stdio_output@@IEBA_NXZ 000000018007d560 f i libucrtd:output.obj
 0001:0007c620       ?validate_and_update_state_at_end_of_format_string@?$format_validation_base@DV?$string_output_adapter@D@__crt_stdio_output@@@__crt_stdio_output@@IEBA_NXZ 000000018007d620 f i libucrtd:output.obj
 0001:0007c6e0       ?validate_and_update_state_at_end_of_format_string@?$format_validation_base@_WV?$stream_output_adapter@_W@__crt_stdio_output@@@__crt_stdio_output@@IEBA_NXZ 000000018007d6e0 f i libucrtd:output.obj
 0001:0007c7a0       ?validate_and_update_state_at_end_of_format_string@?$format_validation_base@_WV?$string_output_adapter@_W@__crt_stdio_output@@@__crt_stdio_output@@IEBA_NXZ 000000018007d7a0 f i libucrtd:output.obj
 0001:0007c860       ?validate_and_update_state_at_end_of_format_string@?$positional_parameter_base@DV?$stream_output_adapter@D@__crt_stdio_output@@@__crt_stdio_output@@IEAA_NXZ 000000018007d860 f i libucrtd:output.obj
 0001:0007ca50       ?validate_and_update_state_at_end_of_format_string@?$positional_parameter_base@DV?$string_output_adapter@D@__crt_stdio_output@@@__crt_stdio_output@@IEAA_NXZ 000000018007da50 f i libucrtd:output.obj
 0001:0007cc40       ?validate_and_update_state_at_end_of_format_string@?$positional_parameter_base@_WV?$stream_output_adapter@_W@__crt_stdio_output@@@__crt_stdio_output@@IEAA_NXZ 000000018007dc40 f i libucrtd:output.obj
 0001:0007ce30       ?validate_and_update_state_at_end_of_format_string@?$positional_parameter_base@_WV?$string_output_adapter@_W@__crt_stdio_output@@@__crt_stdio_output@@IEAA_NXZ 000000018007de30 f i libucrtd:output.obj
 0001:0007d020       ?validate_and_update_state_at_end_of_format_string@?$standard_base@DV?$stream_output_adapter@D@__crt_stdio_output@@@__crt_stdio_output@@IEBA_NXZ 000000018007e020 f i libucrtd:output.obj
 0001:0007d030       ?validate_and_update_state_at_end_of_format_string@?$standard_base@DV?$string_output_adapter@D@__crt_stdio_output@@@__crt_stdio_output@@IEBA_NXZ 000000018007e030 f i libucrtd:output.obj
 0001:0007d040       ?validate_and_update_state_at_end_of_format_string@?$standard_base@_WV?$stream_output_adapter@_W@__crt_stdio_output@@@__crt_stdio_output@@IEBA_NXZ 000000018007e040 f i libucrtd:output.obj
 0001:0007d050       ?validate_and_update_state_at_end_of_format_string@?$standard_base@_WV?$string_output_adapter@_W@__crt_stdio_output@@@__crt_stdio_output@@IEBA_NXZ 000000018007e050 f i libucrtd:output.obj
 0001:0007d060       ?validate_state_for_type_case_a@?$positional_parameter_base@DV?$stream_output_adapter@D@__crt_stdio_output@@@__crt_stdio_output@@IEAA_NXZ 000000018007e060 f i libucrtd:output.obj
 0001:0007d1a0       ?validate_state_for_type_case_a@?$positional_parameter_base@DV?$string_output_adapter@D@__crt_stdio_output@@@__crt_stdio_output@@IEAA_NXZ 000000018007e1a0 f i libucrtd:output.obj
 0001:0007d2e0       ?validate_state_for_type_case_a@?$positional_parameter_base@_WV?$stream_output_adapter@_W@__crt_stdio_output@@@__crt_stdio_output@@IEAA_NXZ 000000018007e2e0 f i libucrtd:output.obj
 0001:0007d420       ?validate_state_for_type_case_a@?$positional_parameter_base@_WV?$string_output_adapter@_W@__crt_stdio_output@@@__crt_stdio_output@@IEAA_NXZ 000000018007e420 f i libucrtd:output.obj
 0001:0007d560       ?validate_state_for_type_case_a@?$standard_base@DV?$stream_output_adapter@D@__crt_stdio_output@@@__crt_stdio_output@@IEBA_NXZ 000000018007e560 f i libucrtd:output.obj
 0001:0007d570       ?validate_state_for_type_case_a@?$standard_base@DV?$string_output_adapter@D@__crt_stdio_output@@@__crt_stdio_output@@IEBA_NXZ 000000018007e570 f i libucrtd:output.obj
 0001:0007d580       ?validate_state_for_type_case_a@?$standard_base@_WV?$stream_output_adapter@_W@__crt_stdio_output@@@__crt_stdio_output@@IEBA_NXZ 000000018007e580 f i libucrtd:output.obj
 0001:0007d590       ?validate_state_for_type_case_a@?$standard_base@_WV?$string_output_adapter@_W@__crt_stdio_output@@@__crt_stdio_output@@IEBA_NXZ 000000018007e590 f i libucrtd:output.obj
 0001:0007d5a0       ?validate_stream_is_ansi_if_required@?$__acrt_stdio_char_traits@D@@SA_NQEAU_iobuf@@@Z 000000018007e5a0 f i libucrtd:output.obj
 0001:0007d730       ?validate_stream_is_ansi_if_required@?$__acrt_stdio_char_traits@_W@@SA_NQEAU_iobuf@@@Z 000000018007e730 f i libucrtd:output.obj
 0001:0007d740       ?wide_null_string@?$output_processor@DV?$stream_output_adapter@D@__crt_stdio_output@@V?$format_validation_base@DV?$stream_output_adapter@D@__crt_stdio_output@@@2@@__crt_stdio_output@@CAPEA_WXZ 000000018007e740 f i libucrtd:output.obj
 0001:0007d750       ?wide_null_string@?$output_processor@DV?$stream_output_adapter@D@__crt_stdio_output@@V?$positional_parameter_base@DV?$stream_output_adapter@D@__crt_stdio_output@@@2@@__crt_stdio_output@@CAPEA_WXZ 000000018007e750 f i libucrtd:output.obj
 0001:0007d760       ?wide_null_string@?$output_processor@DV?$stream_output_adapter@D@__crt_stdio_output@@V?$standard_base@DV?$stream_output_adapter@D@__crt_stdio_output@@@2@@__crt_stdio_output@@CAPEA_WXZ 000000018007e760 f i libucrtd:output.obj
 0001:0007d770       ?wide_null_string@?$output_processor@DV?$string_output_adapter@D@__crt_stdio_output@@V?$format_validation_base@DV?$string_output_adapter@D@__crt_stdio_output@@@2@@__crt_stdio_output@@CAPEA_WXZ 000000018007e770 f i libucrtd:output.obj
 0001:0007d780       ?wide_null_string@?$output_processor@DV?$string_output_adapter@D@__crt_stdio_output@@V?$positional_parameter_base@DV?$string_output_adapter@D@__crt_stdio_output@@@2@@__crt_stdio_output@@CAPEA_WXZ 000000018007e780 f i libucrtd:output.obj
 0001:0007d790       ?wide_null_string@?$output_processor@DV?$string_output_adapter@D@__crt_stdio_output@@V?$standard_base@DV?$string_output_adapter@D@__crt_stdio_output@@@2@@__crt_stdio_output@@CAPEA_WXZ 000000018007e790 f i libucrtd:output.obj
 0001:0007d7a0       ?wide_null_string@?$output_processor@_WV?$stream_output_adapter@_W@__crt_stdio_output@@V?$format_validation_base@_WV?$stream_output_adapter@_W@__crt_stdio_output@@@2@@__crt_stdio_output@@CAPEA_WXZ 000000018007e7a0 f i libucrtd:output.obj
 0001:0007d7b0       ?wide_null_string@?$output_processor@_WV?$stream_output_adapter@_W@__crt_stdio_output@@V?$positional_parameter_base@_WV?$stream_output_adapter@_W@__crt_stdio_output@@@2@@__crt_stdio_output@@CAPEA_WXZ 000000018007e7b0 f i libucrtd:output.obj
 0001:0007d7c0       ?wide_null_string@?$output_processor@_WV?$stream_output_adapter@_W@__crt_stdio_output@@V?$standard_base@_WV?$stream_output_adapter@_W@__crt_stdio_output@@@2@@__crt_stdio_output@@CAPEA_WXZ 000000018007e7c0 f i libucrtd:output.obj
 0001:0007d7d0       ?wide_null_string@?$output_processor@_WV?$string_output_adapter@_W@__crt_stdio_output@@V?$format_validation_base@_WV?$string_output_adapter@_W@__crt_stdio_output@@@2@@__crt_stdio_output@@CAPEA_WXZ 000000018007e7d0 f i libucrtd:output.obj
 0001:0007d7e0       ?wide_null_string@?$output_processor@_WV?$string_output_adapter@_W@__crt_stdio_output@@V?$positional_parameter_base@_WV?$string_output_adapter@_W@__crt_stdio_output@@@2@@__crt_stdio_output@@CAPEA_WXZ 000000018007e7e0 f i libucrtd:output.obj
 0001:0007d7f0       ?wide_null_string@?$output_processor@_WV?$string_output_adapter@_W@__crt_stdio_output@@V?$standard_base@_WV?$string_output_adapter@_W@__crt_stdio_output@@@2@@__crt_stdio_output@@CAPEA_WXZ 000000018007e7f0 f i libucrtd:output.obj
 0001:0007d800       ?write_character@?$output_adapter_common@DV?$stream_output_adapter@D@__crt_stdio_output@@@__crt_stdio_output@@QEBAXDQEAH@Z 000000018007e800 f i libucrtd:output.obj
 0001:0007d850       ?write_character@?$output_adapter_common@_WV?$stream_output_adapter@_W@__crt_stdio_output@@@__crt_stdio_output@@QEBAX_WQEAH@Z 000000018007e850 f i libucrtd:output.obj
 0001:0007d8a0       ?write_character@?$string_output_adapter@D@__crt_stdio_output@@QEBA_NDQEAH@Z 000000018007e8a0 f i libucrtd:output.obj
 0001:0007d960       ?write_character@?$string_output_adapter@_W@__crt_stdio_output@@QEBA_N_WQEAH@Z 000000018007e960 f i libucrtd:output.obj
 0001:0007da20       ?write_character_without_count_update@?$stream_output_adapter@D@__crt_stdio_output@@QEBA_ND@Z 000000018007ea20 f i libucrtd:output.obj
 0001:0007daa0       ?write_character_without_count_update@?$stream_output_adapter@_W@__crt_stdio_output@@QEBA_N_W@Z 000000018007eaa0 f i libucrtd:output.obj
 0001:0007db30       ?write_stored_string_tchar@?$output_processor@DV?$stream_output_adapter@D@__crt_stdio_output@@V?$format_validation_base@DV?$stream_output_adapter@D@__crt_stdio_output@@@2@@__crt_stdio_output@@AEAA_ND@Z 000000018007eb30 f i libucrtd:output.obj
 0001:0007dce0       ?write_stored_string_tchar@?$output_processor@DV?$stream_output_adapter@D@__crt_stdio_output@@V?$positional_parameter_base@DV?$stream_output_adapter@D@__crt_stdio_output@@@2@@__crt_stdio_output@@AEAA_ND@Z 000000018007ece0 f i libucrtd:output.obj
 0001:0007de90       ?write_stored_string_tchar@?$output_processor@DV?$stream_output_adapter@D@__crt_stdio_output@@V?$standard_base@DV?$stream_output_adapter@D@__crt_stdio_output@@@2@@__crt_stdio_output@@AEAA_ND@Z 000000018007ee90 f i libucrtd:output.obj
 0001:0007e040       ?write_stored_string_tchar@?$output_processor@DV?$string_output_adapter@D@__crt_stdio_output@@V?$format_validation_base@DV?$string_output_adapter@D@__crt_stdio_output@@@2@@__crt_stdio_output@@AEAA_ND@Z 000000018007f040 f i libucrtd:output.obj
 0001:0007e1f0       ?write_stored_string_tchar@?$output_processor@DV?$string_output_adapter@D@__crt_stdio_output@@V?$positional_parameter_base@DV?$string_output_adapter@D@__crt_stdio_output@@@2@@__crt_stdio_output@@AEAA_ND@Z 000000018007f1f0 f i libucrtd:output.obj
 0001:0007e3a0       ?write_stored_string_tchar@?$output_processor@DV?$string_output_adapter@D@__crt_stdio_output@@V?$standard_base@DV?$string_output_adapter@D@__crt_stdio_output@@@2@@__crt_stdio_output@@AEAA_ND@Z 000000018007f3a0 f i libucrtd:output.obj
 0001:0007e550       ?write_stored_string_tchar@?$output_processor@_WV?$stream_output_adapter@_W@__crt_stdio_output@@V?$format_validation_base@_WV?$stream_output_adapter@_W@__crt_stdio_output@@@2@@__crt_stdio_output@@AEAA_N_W@Z 000000018007f550 f i libucrtd:output.obj
 0001:0007e6a0       ?write_stored_string_tchar@?$output_processor@_WV?$stream_output_adapter@_W@__crt_stdio_output@@V?$positional_parameter_base@_WV?$stream_output_adapter@_W@__crt_stdio_output@@@2@@__crt_stdio_output@@AEAA_N_W@Z 000000018007f6a0 f i libucrtd:output.obj
 0001:0007e7f0       ?write_stored_string_tchar@?$output_processor@_WV?$stream_output_adapter@_W@__crt_stdio_output@@V?$standard_base@_WV?$stream_output_adapter@_W@__crt_stdio_output@@@2@@__crt_stdio_output@@AEAA_N_W@Z 000000018007f7f0 f i libucrtd:output.obj
 0001:0007e940       ?write_stored_string_tchar@?$output_processor@_WV?$string_output_adapter@_W@__crt_stdio_output@@V?$format_validation_base@_WV?$string_output_adapter@_W@__crt_stdio_output@@@2@@__crt_stdio_output@@AEAA_N_W@Z 000000018007f940 f i libucrtd:output.obj
 0001:0007ea90       ?write_stored_string_tchar@?$output_processor@_WV?$string_output_adapter@_W@__crt_stdio_output@@V?$positional_parameter_base@_WV?$string_output_adapter@_W@__crt_stdio_output@@@2@@__crt_stdio_output@@AEAA_N_W@Z 000000018007fa90 f i libucrtd:output.obj
 0001:0007ebe0       ?write_stored_string_tchar@?$output_processor@_WV?$string_output_adapter@_W@__crt_stdio_output@@V?$standard_base@_WV?$string_output_adapter@_W@__crt_stdio_output@@@2@@__crt_stdio_output@@AEAA_N_W@Z 000000018007fbe0 f i libucrtd:output.obj
 0001:0007ed30       ?write_string@?$stream_output_adapter@D@__crt_stdio_output@@QEBAXQEBDHQEAHAEAV__crt_deferred_errno_cache@@@Z 000000018007fd30 f i libucrtd:output.obj
 0001:0007edb0       ?write_string@?$stream_output_adapter@_W@__crt_stdio_output@@QEBAXQEB_WHQEAHAEAV__crt_deferred_errno_cache@@@Z 000000018007fdb0 f i libucrtd:output.obj
 0001:0007ee30       ?write_string@?$string_output_adapter@D@__crt_stdio_output@@QEBAXQEBDHQEAHAEAV__crt_deferred_errno_cache@@@Z 000000018007fe30 f i libucrtd:output.obj
 0001:0007efa0       ?write_string@?$string_output_adapter@_W@__crt_stdio_output@@QEBAXQEB_WHQEAHAEAV__crt_deferred_errno_cache@@@Z 000000018007ffa0 f i libucrtd:output.obj
 0001:0007f110       ?write_string_impl@?$output_adapter_common@DV?$stream_output_adapter@D@__crt_stdio_output@@@__crt_stdio_output@@IEBAXQEBDHQEAHAEAV__crt_deferred_errno_cache@@@Z 0000000180080110 f i libucrtd:output.obj
 0001:0007f1f0       ?write_string_impl@?$output_adapter_common@_WV?$stream_output_adapter@_W@__crt_stdio_output@@@__crt_stdio_output@@IEBAXQEB_WHQEAHAEAV__crt_deferred_errno_cache@@@Z 00000001800801f0 f i libucrtd:output.obj
 0001:0007f2d0       __acrt_isleadbyte_l_noupdate 00000001800802d0 f i libucrtd:output.obj
 0001:0007f300       __acrt_locale_changed      0000000180080300 f i libucrtd:output.obj
 0001:0007f330       __acrt_locale_get_ctype_array_value 0000000180080330 f i libucrtd:output.obj
 0001:0007f370       __stdio_common_vfprintf    0000000180080370 f   libucrtd:output.obj
 0001:0007f3b0       __stdio_common_vfprintf_p  00000001800803b0 f   libucrtd:output.obj
 0001:0007f3f0       __stdio_common_vfprintf_s  00000001800803f0 f   libucrtd:output.obj
 0001:0007f430       __stdio_common_vfwprintf   0000000180080430 f   libucrtd:output.obj
 0001:0007f470       __stdio_common_vfwprintf_p 0000000180080470 f   libucrtd:output.obj
 0001:0007f4b0       __stdio_common_vfwprintf_s 00000001800804b0 f   libucrtd:output.obj
 0001:0007f4f0       __stdio_common_vsnprintf_s 00000001800804f0 f   libucrtd:output.obj
 0001:0007f550       __stdio_common_vsnwprintf_s 0000000180080550 f   libucrtd:output.obj
 0001:0007f5b0       __stdio_common_vsprintf    00000001800805b0 f   libucrtd:output.obj
 0001:0007f600       __stdio_common_vsprintf_p  0000000180080600 f   libucrtd:output.obj
 0001:0007f650       __stdio_common_vsprintf_s  0000000180080650 f   libucrtd:output.obj
 0001:0007f6a0       __stdio_common_vswprintf   00000001800806a0 f   libucrtd:output.obj
 0001:0007f6f0       __stdio_common_vswprintf_p 00000001800806f0 f   libucrtd:output.obj
 0001:0007f740       __stdio_common_vswprintf_s 0000000180080740 f   libucrtd:output.obj
 0001:0007f790       _ctype_fast_check_internal 0000000180080790 f i libucrtd:output.obj
 0001:0007f7c0       _isdigit_fast_internal     00000001800807c0 f i libucrtd:output.obj
 0001:0007f7f0       _tolower_fast_internal     00000001800807f0 f i libucrtd:output.obj
 0001:0007f820       free                       0000000180080820 f   libucrtd:free.obj
 0001:0007f850       malloc                     0000000180080850 f   libucrtd:malloc.obj
 0001:0007f880       ??$?RU?$__crt_report_hook_node@D@@@__crt_internal_free_policy@@QEBAXQEBU?$__crt_report_hook_node@D@@@Z 0000000180080880 f i libucrtd:dbgrpt.obj
 0001:0007f8b0       ??$?RU?$__crt_report_hook_node@_W@@@__crt_internal_free_policy@@QEBAXQEBU?$__crt_report_hook_node@_W@@@Z 00000001800808b0 f i libucrtd:dbgrpt.obj
 0001:00080af0       ??$get_module_file_name@AEAPEAUHINSTANCE__@@AEAY0BAF@DK@?$__crt_char_traits@D@@SAKAEAPEAUHINSTANCE__@@AEAY0BAF@D$$QEAK@Z 0000000180081af0 f i libucrtd:dbgrpt.obj
 0001:00080b30       ??$get_module_file_name@AEAPEAUHINSTANCE__@@AEAY0BAF@_WK@?$__crt_char_traits@_W@@SAKAEAPEAUHINSTANCE__@@AEAY0BAF@_W$$QEAK@Z 0000000180081b30 f i libucrtd:dbgrpt.obj
 0001:00080b70       ??$tcscpy_s@AEAY0BAF@D_KPEBD@?$__crt_char_traits@D@@SAHAEAY0BAF@D$$QEA_K$$QEAPEBD@Z 0000000180081b70 f i libucrtd:dbgrpt.obj
 0001:00080bb0       ??$tcscpy_s@AEAY0BAF@_W_KPEB_W@?$__crt_char_traits@_W@@SAHAEAY0BAF@_W$$QEA_K$$QEAPEB_W@Z 0000000180081bb0 f i libucrtd:dbgrpt.obj
 0001:00080bf0       ??$tcslen@AEAY0BAF@D@?$__crt_char_traits@D@@SA_KAEAY0BAF@D@Z 0000000180081bf0 f i libucrtd:dbgrpt.obj
 0001:00080c10       ??$tcslen@AEAY0BAF@_W@?$__crt_char_traits@_W@@SA_KAEAY0BAF@_W@Z 0000000180081c10 f i libucrtd:dbgrpt.obj
 0001:00080c30       ??$tcslen@AEBQEBD@?$__crt_char_traits@D@@SA_KAEBQEBD@Z 0000000180081c30 f i libucrtd:dbgrpt.obj
 0001:00080c50       ??$tcslen@AEBQEB_W@?$__crt_char_traits@_W@@SA_KAEBQEB_W@Z 0000000180081c50 f i libucrtd:dbgrpt.obj
 0001:00080d50       ??0?$__crt_unique_heap_ptr@U?$__crt_report_hook_node@D@@U__crt_internal_free_policy@@@@QEAA@QEAU?$__crt_report_hook_node@D@@@Z 0000000180081d50 f i libucrtd:dbgrpt.obj
 0001:00080d70       ??0?$__crt_unique_heap_ptr@U?$__crt_report_hook_node@_W@@U__crt_internal_free_policy@@@@QEAA@QEAU?$__crt_report_hook_node@_W@@@Z 0000000180081d70 f i libucrtd:dbgrpt.obj
 0001:00080d90       ??1?$__crt_unique_heap_ptr@U?$__crt_report_hook_node@D@@U__crt_internal_free_policy@@@@QEAA@XZ 0000000180081d90 f i libucrtd:dbgrpt.obj
 0001:00080db0       ??1?$__crt_unique_heap_ptr@U?$__crt_report_hook_node@_W@@U__crt_internal_free_policy@@@@QEAA@XZ 0000000180081db0 f i libucrtd:dbgrpt.obj
 0001:00080dd0       ??B?$__crt_unique_heap_ptr@U?$__crt_report_hook_node@D@@U__crt_internal_free_policy@@@@QEBA_NXZ 0000000180081dd0 f i libucrtd:dbgrpt.obj
 0001:00080df0       ??B?$__crt_unique_heap_ptr@U?$__crt_report_hook_node@_W@@U__crt_internal_free_policy@@@@QEBA_NXZ 0000000180081df0 f i libucrtd:dbgrpt.obj
 0001:000814d0       ?detach@?$__crt_unique_heap_ptr@U?$__crt_report_hook_node@D@@U__crt_internal_free_policy@@@@QEAAPEAU?$__crt_report_hook_node@D@@XZ 00000001800824d0 f i libucrtd:dbgrpt.obj
 0001:00081500       ?detach@?$__crt_unique_heap_ptr@U?$__crt_report_hook_node@_W@@U__crt_internal_free_policy@@@@QEAAPEAU?$__crt_report_hook_node@_W@@XZ 0000000180082500 f i libucrtd:dbgrpt.obj
 0001:00081530       ?get@?$__crt_unique_heap_ptr@U?$__crt_report_hook_node@D@@U__crt_internal_free_policy@@@@QEBAPEAU?$__crt_report_hook_node@D@@XZ 0000000180082530 f i libucrtd:dbgrpt.obj
 0001:00081540       ?get@?$__crt_unique_heap_ptr@U?$__crt_report_hook_node@_W@@U__crt_internal_free_policy@@@@QEBAPEAU?$__crt_report_hook_node@_W@@XZ 0000000180082540 f i libucrtd:dbgrpt.obj
 0001:000815b0       ?is_valid@?$__crt_unique_heap_ptr@U?$__crt_report_hook_node@D@@U__crt_internal_free_policy@@@@QEBA_NXZ 00000001800825b0 f i libucrtd:dbgrpt.obj
 0001:000815e0       ?is_valid@?$__crt_unique_heap_ptr@U?$__crt_report_hook_node@_W@@U__crt_internal_free_policy@@@@QEBA_NXZ 00000001800825e0 f i libucrtd:dbgrpt.obj
 0001:00081610       ?release@?$__crt_unique_heap_ptr@U?$__crt_report_hook_node@D@@U__crt_internal_free_policy@@@@QEAAXXZ 0000000180082610 f i libucrtd:dbgrpt.obj
 0001:00081640       ?release@?$__crt_unique_heap_ptr@U?$__crt_report_hook_node@_W@@U__crt_internal_free_policy@@@@QEAAXXZ 0000000180082640 f i libucrtd:dbgrpt.obj
 0001:00081670       _CrtDbgReport              0000000180082670 f   libucrtd:dbgrpt.obj
 0001:000816f0       _CrtDbgReportW             00000001800826f0 f   libucrtd:dbgrpt.obj
 0001:00081770       _CrtSetReportHook2         0000000180082770 f   libucrtd:dbgrpt.obj
 0001:00081790       _CrtSetReportHookW2        0000000180082790 f   libucrtd:dbgrpt.obj
 0001:000817b0       __acrt_MessageWindowA      00000001800827b0 f   libucrtd:dbgrpt.obj
 0001:00081800       __acrt_MessageWindowW      0000000180082800 f   libucrtd:dbgrpt.obj
 0001:00081850       _invoke_watson_if_error    0000000180082850 f i libucrtd:dbgrpt.obj
 0001:000818a0       _invoke_watson_if_oneof    00000001800828a0 f i libucrtd:dbgrpt.obj
 0001:00081900       _snwprintf_s               0000000180082900 f i libucrtd:dbgrpt.obj
 0001:00081970       _vsnwprintf_s_l            0000000180082970 f i libucrtd:dbgrpt.obj
 0001:00081ed0       wcscpy_s                   0000000180082ed0 f   libucrtd:wcscpy_s.obj
 0001:00083260       ??1?$__crt_simd_cleanup_guard@$00@@QEAA@XZ 0000000180084260 f i libucrtd:strnlen.obj
 0001:00083270       ??1?$__crt_simd_cleanup_guard@$0A@@@QEAA@XZ 0000000180084270 f i libucrtd:strnlen.obj
 0001:00083280       ?compare_equals@?$__crt_simd_traits@$00E@@SA?AT__m256i@@T2@0@Z 0000000180084280 f i libucrtd:strnlen.obj
 0001:000832c0       ?compare_equals@?$__crt_simd_traits@$00G@@SA?AT__m256i@@T2@0@Z 00000001800842c0 f i libucrtd:strnlen.obj
 0001:00083300       ?compare_equals@?$__crt_simd_traits@$0A@E@@SA?AT__m128i@@T2@0@Z 0000000180084300 f i libucrtd:strnlen.obj
 0001:00083330       ?compare_equals@?$__crt_simd_traits@$0A@G@@SA?AT__m128i@@T2@0@Z 0000000180084330 f i libucrtd:strnlen.obj
 0001:00083360       ?compute_byte_mask@?$__crt_simd_pack_traits@$00@@SAHT__m256i@@@Z 0000000180084360 f i libucrtd:strnlen.obj
 0001:00083380       ?compute_byte_mask@?$__crt_simd_pack_traits@$0A@@@SAHT__m128i@@@Z 0000000180084380 f i libucrtd:strnlen.obj
 0001:000833a0       ?get_zero_pack@?$__crt_simd_pack_traits@$00@@SA?AT__m256i@@XZ 00000001800843a0 f i libucrtd:strnlen.obj
 0001:000833d0       ?get_zero_pack@?$__crt_simd_pack_traits@$0A@@@SA?AT__m128i@@XZ 00000001800843d0 f i libucrtd:strnlen.obj
 0001:000833f0       strnlen                    00000001800843f0 f   libucrtd:strnlen.obj
 0001:00083420       wcslen                     0000000180084420 f   libucrtd:strnlen.obj
 0001:00083440       wcsnlen                    0000000180084440 f   libucrtd:strnlen.obj
 0001:00083470       ??$__crt_fast_decode_pointer@P6AXPEB_W00I_K@Z@@YAP6AXPEB_W00I_K@ZQ6AX000I1@Z@Z 0000000180084470 f i libucrtd:invalid_parameter.obj
 0001:000834b0       ??$__crt_fast_encode_pointer@P6AXPEB_W00I_K@Z@@YAP6AXPEB_W00I_K@ZQ6AX000I1@Z@Z 00000001800844b0 f i libucrtd:invalid_parameter.obj
 0001:000834f0       ??$initialize_from_array@$$BY00Q6AXPEB_W00I_K@Z@?$dual_state_global@P6AXPEB_W00I_K@Z@__crt_state_management@@QEAAXAEAY00Q6AXPEB_W00I_K@Z@Z 00000001800844f0 f i libucrtd:invalid_parameter.obj
 0001:00083550       ?__crt_rotate_pointer_value@@YA_K_KH@Z 0000000180084550 f i libucrtd:invalid_parameter.obj
 0001:00083610       ?dangerous_get_state_array@?$dual_state_global@P6AXPEB_W00I_K@Z@__crt_state_management@@QEAAPEAP6AXPEB_W00I_K@ZXZ 0000000180084610 f i libucrtd:invalid_parameter.obj
 0001:00083620       ?get_current_state_index@__crt_state_management@@YA_KXZ 0000000180084620 f i libucrtd:invalid_parameter.obj
 0001:00083630       ?value@?$dual_state_global@P6AXPEB_W00I_K@Z@__crt_state_management@@QEAAAEAP6AXPEB_W00I_K@ZXZ 0000000180084630 f i libucrtd:invalid_parameter.obj
 0001:00083650       __acrt_call_reportfault    0000000180084650 f   libucrtd:invalid_parameter.obj
 0001:00083780       __acrt_initialize_invalid_parameter_handler 0000000180084780 f   libucrtd:invalid_parameter.obj
 0001:000837b0       _get_invalid_parameter_handler 00000001800847b0 f   libucrtd:invalid_parameter.obj
 0001:000837d0       _get_thread_local_invalid_parameter_handler 00000001800847d0 f   libucrtd:invalid_parameter.obj
 0001:00083800       _invalid_parameter         0000000180084800 f   libucrtd:invalid_parameter.obj
 0001:00083900       _invalid_parameter_noinfo  0000000180084900 f   libucrtd:invalid_parameter.obj
 0001:00083930       _invalid_parameter_noinfo_noreturn 0000000180084930 f   libucrtd:invalid_parameter.obj
 0001:00083970       _invoke_watson             0000000180084970 f   libucrtd:invalid_parameter.obj
 0001:000839d0       _set_invalid_parameter_handler 00000001800849d0 f   libucrtd:invalid_parameter.obj
 0001:00083a20       _set_thread_local_invalid_parameter_handler 0000000180084a20 f   libucrtd:invalid_parameter.obj
 0001:00083a60       __acrt_errno_from_os_error 0000000180084a60 f   libucrtd:errno.obj
 0001:00083af0       __acrt_errno_map_os_error  0000000180084af0 f   libucrtd:errno.obj
 0001:00083b20       __doserrno                 0000000180084b20 f   libucrtd:errno.obj
 0001:00083b50       _errno                     0000000180084b50 f   libucrtd:errno.obj
 0001:00083b80       _get_doserrno              0000000180084b80 f   libucrtd:errno.obj
 0001:00083c40       _get_errno                 0000000180084c40 f   libucrtd:errno.obj
 0001:00083d00       _set_doserrno              0000000180084d00 f   libucrtd:errno.obj
 0001:00083d40       _set_errno                 0000000180084d40 f   libucrtd:errno.obj
 0001:00083d80       calloc                     0000000180084d80 f   libucrtd:calloc.obj
 0001:00083dc0       _recalloc                  0000000180084dc0 f   libucrtd:recalloc.obj
 0001:00083e10       _recalloc_base             0000000180084e10 f   libucrtd:recalloc.obj
 0001:00083eec       _resetstkoflw              0000000180084eec f   libucrtd:resetstk.obj
 0001:000846a0       wcscat_s                   00000001800856a0 f   libucrtd:wcscat_s.obj
 0001:00084d70       wcsncpy_s                  0000000180085d70 f   libucrtd:wcsncpy_s.obj
 0001:00084dd0       __acrt_get_locale_data_prefix 0000000180085dd0 f i libucrtd:_ctype.obj
 0001:00084df0       __isascii                  0000000180085df0 f i libucrtd:_ctype.obj
 0001:00084e20       __iscsym                   0000000180085e20 f i libucrtd:_ctype.obj
 0001:00084e60       __iscsymf                  0000000180085e60 f i libucrtd:_ctype.obj
 0001:00084ea0       __toascii                  0000000180085ea0 f i libucrtd:_ctype.obj
 0001:00084eb0       _chvalidchk_l              0000000180085eb0 f i libucrtd:_ctype.obj
 0001:00084ee0       _isalnum_l                 0000000180085ee0 f i libucrtd:_ctype.obj
 0001:00084f30       _isalpha_l                 0000000180085f30 f i libucrtd:_ctype.obj
 0001:00084f80       _isblank_l                 0000000180085f80 f i libucrtd:_ctype.obj
 0001:00084ff0       _ischartype_l              0000000180085ff0 f i libucrtd:_ctype.obj
 0001:00085080       _iscntrl_l                 0000000180086080 f i libucrtd:_ctype.obj
 0001:000850d0       _iscsym_l                  00000001800860d0 f i libucrtd:_ctype.obj
 0001:00085120       _iscsymf_l                 0000000180086120 f i libucrtd:_ctype.obj
 0001:00085170       _isdigit_l                 0000000180086170 f i libucrtd:_ctype.obj
 0001:000851c0       _isgraph_l                 00000001800861c0 f i libucrtd:_ctype.obj
 0001:00085210       _islower_l                 0000000180086210 f i libucrtd:_ctype.obj
 0001:00085260       _isprint_l                 0000000180086260 f i libucrtd:_ctype.obj
 0001:000852b0       _ispunct_l                 00000001800862b0 f i libucrtd:_ctype.obj
 0001:00085300       _isspace_l                 0000000180086300 f i libucrtd:_ctype.obj
 0001:00085350       _isupper_l                 0000000180086350 f i libucrtd:_ctype.obj
 0001:000853a0       _isxdigit_l                00000001800863a0 f i libucrtd:_ctype.obj
 0001:000853f0       isalnum                    00000001800863f0 f i libucrtd:_ctype.obj
 0001:00085430       isalpha                    0000000180086430 f i libucrtd:_ctype.obj
 0001:00085470       isblank                    0000000180086470 f i libucrtd:_ctype.obj
 0001:000854d0       iscntrl                    00000001800864d0 f i libucrtd:_ctype.obj
 0001:00085510       isdigit                    0000000180086510 f i libucrtd:_ctype.obj
 0001:00085550       isgraph                    0000000180086550 f i libucrtd:_ctype.obj
 0001:00085590       islower                    0000000180086590 f i libucrtd:_ctype.obj
 0001:000855d0       isprint                    00000001800865d0 f i libucrtd:_ctype.obj
 0001:00085610       ispunct                    0000000180086610 f i libucrtd:_ctype.obj
 0001:00085650       isspace                    0000000180086650 f i libucrtd:_ctype.obj
 0001:00085690       isupper                    0000000180086690 f i libucrtd:_ctype.obj
 0001:000856d0       isxdigit                   00000001800866d0 f i libucrtd:_ctype.obj
 0001:00085710       wcscat                     0000000180086710 f   libucrtd:wcscat.obj
 0001:00085790       wcscpy                     0000000180086790 f   libucrtd:wcscpy.obj
 0001:00085f40       ??$open_file@AEBQEBDAEBQEBDAEBHPEAU_iobuf@@@?$__crt_char_traits@D@@SAPEAU_iobuf@@AEBQEBD0AEBH$$QEAPEAU1@@Z 0000000180086f40 f i libucrtd:fopen.obj
 0001:00085f90       ??$open_file@AEBQEB_WAEBQEB_WAEBHPEAU_iobuf@@@?$__crt_char_traits@_W@@SAPEAU_iobuf@@AEBQEB_W0AEBH$$QEAPEAU1@@Z 0000000180086f90 f i libucrtd:fopen.obj
 0001:00085fe0       ?unlock@__crt_stdio_stream@@QEBAXXZ 0000000180086fe0 f i libucrtd:fopen.obj
 0001:00086000       _fsopen                    0000000180087000 f   libucrtd:fopen.obj
 0001:00086030       _wfopen                    0000000180087030 f   libucrtd:fopen.obj
 0001:00086060       _wfopen_s                  0000000180087060 f   libucrtd:fopen.obj
 0001:00086090       _wfsopen                   0000000180087090 f   libucrtd:fopen.obj
 0001:000860c0       fopen                      00000001800870c0 f   libucrtd:fopen.obj
 0001:000860f0       fopen_s                    00000001800870f0 f   libucrtd:fopen.obj
 0001:00086120       ?is_in_use@__crt_stdio_stream@@QEBA_NXZ 0000000180087120 f i libucrtd:fclose.obj
 0001:00086160       _fclose_nolock             0000000180087160 f   libucrtd:fclose.obj
 0001:000862f0       fclose                     00000001800872f0 f   libucrtd:fclose.obj
 0001:00086430       _fputc_nolock              0000000180087430 f   libucrtd:fputc.obj
 0001:000864e0       _fputchar                  00000001800874e0 f   libucrtd:fputc.obj
 0001:00086510       _putc_nolock               0000000180087510 f   libucrtd:fputc.obj
 0001:00086530       fputc                      0000000180087530 f   libucrtd:fputc.obj
 0001:000867d0       putc                       00000001800877d0 f   libucrtd:fputc.obj
 0001:000867f0       putchar                    00000001800877f0 f   libucrtd:fputc.obj
 0001:00086880       _seh_filter_dll            0000000180087880 f   libucrtd:exception_filter.obj
 0001:000868b0       _seh_filter_exe            00000001800878b0 f   libucrtd:exception_filter.obj
 0001:00086b50       ??$?B$$A6AXPEAXK0@Z@__crt_fast_encoded_nullptr_t@@QEBAP6AXPEAXK0@ZXZ 0000000180087b50 f i libucrtd:exit.obj
 0001:00086c00       ??$__crt_fast_decode_pointer@P6AXPEAXK0@Z@@YAP6AXPEAXK0@ZQ6AX0K0@Z@Z 0000000180087c00 f i libucrtd:exit.obj
 0001:00086c40       ??$__crt_fast_encode_pointer@P6AXPEAXK0@Z@@YAP6AXPEAXK0@ZQ6AX0K0@Z@Z 0000000180087c40 f i libucrtd:exit.obj
 0001:00086c80       ??$__crt_get_proc_address@P6AXI@Z@@YAP6AXI@ZQEAUHINSTANCE__@@QEBD@Z 0000000180087c80 f i libucrtd:exit.obj
 0001:00086d40       ??0?$__crt_unique_handle_t@U__crt_hmodule_traits@@@@QEAA@QEAUHINSTANCE__@@@Z 0000000180087d40 f i libucrtd:exit.obj
 0001:00086d60       ??1?$__crt_unique_handle_t@U__crt_hmodule_traits@@@@QEAA@XZ 0000000180087d60 f i libucrtd:exit.obj
 0001:00086ec0       ?__acrt_select_exit_lock@@YA?AW4__acrt_lock_id@@XZ 0000000180087ec0 f i libucrtd:exit.obj
 0001:00086ed0       ?__crt_fast_encode_pointer@@YA?AU__crt_fast_encoded_nullptr_t@@$$T@Z 0000000180087ed0 f i libucrtd:exit.obj
 0001:00086f10       ?close@?$__crt_unique_handle_t@U__crt_hmodule_traits@@@@QEAAXXZ 0000000180087f10 f i libucrtd:exit.obj
 0001:00086f50       ?close@__crt_hmodule_traits@@SA_NPEAUHINSTANCE__@@@Z 0000000180087f50 f i libucrtd:exit.obj
 0001:00087060       ?get@?$__crt_unique_handle_t@U__crt_hmodule_traits@@@@QEBAPEAUHINSTANCE__@@XZ 0000000180088060 f i libucrtd:exit.obj
 0001:00087070       ?get_address_of@?$__crt_unique_handle_t@U__crt_hmodule_traits@@@@QEAAPEAPEAUHINSTANCE__@@XZ 0000000180088070 f i libucrtd:exit.obj
 0001:00087080       ?get_invalid_value@__crt_hmodule_traits@@SAPEAUHINSTANCE__@@XZ 0000000180088080 f i libucrtd:exit.obj
 0001:00087240       _Exit                      0000000180088240 f   libucrtd:exit.obj
 0001:00087260       __acrt_initialize_thread_local_exit_callback 0000000180088260 f   libucrtd:exit.obj
 0001:00087280       _c_exit                    0000000180088280 f   libucrtd:exit.obj
 0001:000872a0       _cexit                     00000001800882a0 f   libucrtd:exit.obj
 0001:000872c0       _exit                      00000001800882c0 f   libucrtd:exit.obj
 0001:000872e0       _is_c_termination_complete 00000001800882e0 f   libucrtd:exit.obj
 0001:00087300       _register_thread_local_exe_atexit_callback 0000000180088300 f   libucrtd:exit.obj
 0001:00087350       exit                       0000000180088350 f   libucrtd:exit.obj
 0001:00087370       quick_exit                 0000000180088370 f   libucrtd:exit.obj
 0001:00087390       ??$?RE@__crt_internal_free_policy@@QEBAXQEBE@Z 0000000180088390 f i libucrtd:argv_parsing.obj
 0001:000873c0       ??$?RPEAD@__crt_internal_free_policy@@QEBAXQEBQEAD@Z 00000001800883c0 f i libucrtd:argv_parsing.obj
 0001:000873f0       ??$?RPEA_W@__crt_internal_free_policy@@QEBAXQEBQEA_W@Z 00000001800883f0 f i libucrtd:argv_parsing.obj
 0001:00087b40       ??$get_module_file_name@$$TAEAY0BAF@DH@?$__crt_char_traits@D@@SAK$$QEA$$TAEAY0BAF@D$$QEAH@Z 0000000180088b40 f i libucrtd:argv_parsing.obj
 0001:00087b80       ??$get_module_file_name@$$TAEAY0BAF@_WH@?$__crt_char_traits@_W@@SAK$$QEA$$TAEAY0BAF@_W$$QEAH@Z 0000000180088b80 f i libucrtd:argv_parsing.obj
 0001:00088530       ??$set_program_name@PEAD@?$__crt_char_traits@D@@SAX$$QEAPEAD@Z 0000000180089530 f i libucrtd:argv_parsing.obj
 0001:00088550       ??$set_program_name@PEA_W@?$__crt_char_traits@_W@@SAX$$QEAPEA_W@Z 0000000180089550 f i libucrtd:argv_parsing.obj
 0001:000885b0       ??0?$__crt_unique_heap_ptr@EU__crt_internal_free_policy@@@@QEAA@QEAE@Z 00000001800895b0 f i libucrtd:argv_parsing.obj
 0001:000885d0       ??0?$__crt_unique_heap_ptr@PEADU__crt_internal_free_policy@@@@QEAA@QEAPEAD@Z 00000001800895d0 f i libucrtd:argv_parsing.obj
 0001:000885f0       ??0?$__crt_unique_heap_ptr@PEA_WU__crt_internal_free_policy@@@@QEAA@QEAPEA_W@Z 00000001800895f0 f i libucrtd:argv_parsing.obj
 0001:00088610       ??1?$__crt_unique_heap_ptr@EU__crt_internal_free_policy@@@@QEAA@XZ 0000000180089610 f i libucrtd:argv_parsing.obj
 0001:00088630       ??1?$__crt_unique_heap_ptr@PEADU__crt_internal_free_policy@@@@QEAA@XZ 0000000180089630 f i libucrtd:argv_parsing.obj
 0001:00088650       ??1?$__crt_unique_heap_ptr@PEA_WU__crt_internal_free_policy@@@@QEAA@XZ 0000000180089650 f i libucrtd:argv_parsing.obj
 0001:00088670       ??B?$__crt_unique_heap_ptr@EU__crt_internal_free_policy@@@@QEBA_NXZ 0000000180089670 f i libucrtd:argv_parsing.obj
 0001:00088750       ?detach@?$__crt_unique_heap_ptr@EU__crt_internal_free_policy@@@@QEAAPEAEXZ 0000000180089750 f i libucrtd:argv_parsing.obj
 0001:00088780       ?detach@?$__crt_unique_heap_ptr@PEADU__crt_internal_free_policy@@@@QEAAPEAPEADXZ 0000000180089780 f i libucrtd:argv_parsing.obj
 0001:000887b0       ?detach@?$__crt_unique_heap_ptr@PEA_WU__crt_internal_free_policy@@@@QEAAPEAPEA_WXZ 00000001800897b0 f i libucrtd:argv_parsing.obj
 0001:00088870       ?get@?$__crt_unique_heap_ptr@EU__crt_internal_free_policy@@@@QEBAPEAEXZ 0000000180089870 f i libucrtd:argv_parsing.obj
 0001:00088880       ?get@?$__crt_unique_heap_ptr@PEADU__crt_internal_free_policy@@@@QEBAPEAPEADXZ 0000000180089880 f i libucrtd:argv_parsing.obj
 0001:00088890       ?get@?$__crt_unique_heap_ptr@PEA_WU__crt_internal_free_policy@@@@QEBAPEAPEA_WXZ 0000000180089890 f i libucrtd:argv_parsing.obj
 0001:000888a0       ?get_address_of@?$__crt_unique_heap_ptr@PEADU__crt_internal_free_policy@@@@QEAAPEAPEAPEADXZ 00000001800898a0 f i libucrtd:argv_parsing.obj
 0001:000888b0       ?get_address_of@?$__crt_unique_heap_ptr@PEA_WU__crt_internal_free_policy@@@@QEAAPEAPEAPEA_WXZ 00000001800898b0 f i libucrtd:argv_parsing.obj
 0001:00088900       ?is_valid@?$__crt_unique_heap_ptr@EU__crt_internal_free_policy@@@@QEBA_NXZ 0000000180089900 f i libucrtd:argv_parsing.obj
 0001:00088930       ?release@?$__crt_unique_heap_ptr@EU__crt_internal_free_policy@@@@QEAAXXZ 0000000180089930 f i libucrtd:argv_parsing.obj
 0001:00088960       ?release@?$__crt_unique_heap_ptr@PEADU__crt_internal_free_policy@@@@QEAAXXZ 0000000180089960 f i libucrtd:argv_parsing.obj
 0001:00088990       ?release@?$__crt_unique_heap_ptr@PEA_WU__crt_internal_free_policy@@@@QEAAXXZ 0000000180089990 f i libucrtd:argv_parsing.obj
 0001:00088a10       __acrt_allocate_buffer_for_argv 0000000180089a10 f   libucrtd:argv_parsing.obj
 0001:00088b30       _configure_narrow_argv     0000000180089b30 f   libucrtd:argv_parsing.obj
 0001:00088b50       _configure_wide_argv       0000000180089b50 f   libucrtd:argv_parsing.obj
 0001:00088b70       _set_pgmptr                0000000180089b70 f i libucrtd:argv_parsing.obj
 0001:00088b90       _set_wpgmptr               0000000180089b90 f i libucrtd:argv_parsing.obj
 0001:00088ba4       ??$?R_W@__crt_internal_free_policy@@QEBAXQEB_W@Z 0000000180089ba4 f i libucrtd:environment_initialization.obj
 0001:0008917c       ??$get_environment_from_os@$$V@?$__crt_char_traits@D@@SAPEADXZ 000000018008a17c f i libucrtd:environment_initialization.obj
 0001:00089184       ??$get_environment_from_os@$$V@?$__crt_char_traits@_W@@SAPEA_WXZ 000000018008a184 f i libucrtd:environment_initialization.obj
 0001:00089354       ??$set_variable_in_environment_nolock@PEADH@?$__crt_char_traits@D@@SAH$$QEAPEAD$$QEAH@Z 000000018008a354 f i libucrtd:environment_initialization.obj
 0001:00089360       ??$set_variable_in_environment_nolock@PEA_WH@?$__crt_char_traits@_W@@SAH$$QEAPEA_W$$QEAH@Z 000000018008a360 f i libucrtd:environment_initialization.obj
 0001:0008936c       ??$tcscpy_s@PEADAEB_KAEAPEAD@?$__crt_char_traits@D@@SAH$$QEAPEADAEB_KAEAPEAD@Z 000000018008a36c f i libucrtd:environment_initialization.obj
 0001:0008937c       ??$tcscpy_s@PEA_WAEB_KAEAPEA_W@?$__crt_char_traits@_W@@SAH$$QEAPEA_WAEB_KAEAPEA_W@Z 000000018008a37c f i libucrtd:environment_initialization.obj
 0001:0008938c       ??$tcslen@AEAPEAD@?$__crt_char_traits@D@@SA_KAEAPEAD@Z 000000018008a38c f i libucrtd:environment_initialization.obj
 0001:000893a0       ??$tcslen@AEAPEA_W@?$__crt_char_traits@_W@@SA_KAEAPEA_W@Z 000000018008a3a0 f i libucrtd:environment_initialization.obj
 0001:000893b4       ??$uninitialize@A6AXAEAPEAPEAD@Z@?$dual_state_global@PEAPEAD@__crt_state_management@@QEAAXA6AXAEAPEAPEAD@Z@Z 000000018008a3b4 f i libucrtd:environment_initialization.obj
 0001:000893f8       ??$uninitialize@A6AXAEAPEAPEA_W@Z@?$dual_state_global@PEAPEA_W@__crt_state_management@@QEAAXA6AXAEAPEAPEA_W@Z@Z 000000018008a3f8 f i libucrtd:environment_initialization.obj
 0001:00089474       ??0?$__crt_unique_heap_ptr@_WU__crt_internal_free_policy@@@@QEAA@QEA_W@Z 000000018008a474 f i libucrtd:environment_initialization.obj
 0001:0008947c       ??1?$__crt_unique_heap_ptr@_WU__crt_internal_free_policy@@@@QEAA@XZ 000000018008a47c f i libucrtd:environment_initialization.obj
 0001:0008949c       ??B?$__crt_unique_heap_ptr@PEADU__crt_internal_free_policy@@@@QEBA_NXZ 000000018008a49c f i libucrtd:environment_initialization.obj
 0001:000894a4       ??B?$__crt_unique_heap_ptr@PEA_WU__crt_internal_free_policy@@@@QEBA_NXZ 000000018008a4a4 f i libucrtd:environment_initialization.obj
 0001:000894ac       ??B?$__crt_unique_heap_ptr@_WU__crt_internal_free_policy@@@@QEBA_NXZ 000000018008a4ac f i libucrtd:environment_initialization.obj
 0001:000894b4       ?__crt_compute_required_transform_buffer_count@@YA_KIQEBD@Z 000000018008a4b4 f i libucrtd:environment_initialization.obj
 0001:000894d8       ?__crt_compute_required_transform_buffer_count@@YA_KIQEB_W@Z 000000018008a4d8 f i libucrtd:environment_initialization.obj
 0001:00089508       ?__crt_transform_string@@YA_KIQEBDQEA_W_K@Z 000000018008a508 f i libucrtd:environment_initialization.obj
 0001:0008952c       ?__crt_transform_string@@YA_KIQEB_WQEAD_K@Z 000000018008a52c f i libucrtd:environment_initialization.obj
 0001:0008955c       ?detach@?$__crt_unique_heap_ptr@DU__crt_internal_free_policy@@@@QEAAPEADXZ 000000018008a55c f i libucrtd:environment_initialization.obj
 0001:00089564       ?detach@?$__crt_unique_heap_ptr@_WU__crt_internal_free_policy@@@@QEAAPEA_WXZ 000000018008a564 f i libucrtd:environment_initialization.obj
 0001:0008956c       ?get@?$__crt_unique_heap_ptr@_WU__crt_internal_free_policy@@@@QEBAPEA_WXZ 000000018008a56c f i libucrtd:environment_initialization.obj
 0001:000895a0       ?initialize@?$dual_state_global@PEAPEAD@__crt_state_management@@QEAAXQEAPEAD@Z 000000018008a5a0 f i libucrtd:environment_initialization.obj
 0001:000895c8       ?initialize@?$dual_state_global@PEAPEA_W@__crt_state_management@@QEAAXQEAPEA_W@Z 000000018008a5c8 f i libucrtd:environment_initialization.obj
 0001:000895f0       ?is_valid@?$__crt_unique_heap_ptr@PEADU__crt_internal_free_policy@@@@QEBA_NXZ 000000018008a5f0 f i libucrtd:environment_initialization.obj
 0001:000895f8       ?is_valid@?$__crt_unique_heap_ptr@PEA_WU__crt_internal_free_policy@@@@QEBA_NXZ 000000018008a5f8 f i libucrtd:environment_initialization.obj
 0001:00089600       ?is_valid@?$__crt_unique_heap_ptr@_WU__crt_internal_free_policy@@@@QEBA_NXZ 000000018008a600 f i libucrtd:environment_initialization.obj
 0001:00089614       ?release@?$__crt_unique_heap_ptr@_WU__crt_internal_free_policy@@@@QEAAXXZ 000000018008a614 f i libucrtd:environment_initialization.obj
 0001:00089634       ?value@?$dual_state_global@PEAPEAD@__crt_state_management@@QEAAAEAPEAPEADXZ 000000018008a634 f i libucrtd:environment_initialization.obj
 0001:00089638       ?value@?$dual_state_global@PEAPEA_W@__crt_state_management@@QEAAAEAPEAPEA_WXZ 000000018008a638 f i libucrtd:environment_initialization.obj
 0001:0008963c       __dcrt_get_or_create_narrow_environment_nolock 000000018008a63c f   libucrtd:environment_initialization.obj
 0001:00089678       __dcrt_get_or_create_wide_environment_nolock 000000018008a678 f   libucrtd:environment_initialization.obj
 0001:000896b4       __dcrt_uninitialize_environments_nolock 000000018008a6b4 f   libucrtd:environment_initialization.obj
 0001:000896ec       __p__environ               000000018008a6ec f   libucrtd:environment_initialization.obj
 0001:000896f4       __p__wenviron              000000018008a6f4 f   libucrtd:environment_initialization.obj
 0001:000896fc       _get_initial_narrow_environment 000000018008a6fc f   libucrtd:environment_initialization.obj
 0001:0008974c       _get_initial_wide_environment 000000018008a74c f   libucrtd:environment_initialization.obj
 0001:0008979c       _initialize_narrow_environment 000000018008a79c f   libucrtd:environment_initialization.obj
 0001:000897a4       _initialize_wide_environment 000000018008a7a4 f   libucrtd:environment_initialization.obj
 0001:000897b0       ??$?B$$A6AXXZ@__crt_fast_encoded_nullptr_t@@QEBAP6AXXZXZ 000000018008a7b0 f i libucrtd:onexit.obj
 0001:000897d0       ??$?BP6AXXZ@__crt_fast_encoded_nullptr_t@@QEBAPEAP6AXXZXZ 000000018008a7d0 f i libucrtd:onexit.obj
 0001:000897f0       ??$?RP6AXXZ@__crt_internal_free_policy@@QEBAXQEBQ6AXXZ@Z 000000018008a7f0 f i libucrtd:onexit.obj
 0001:00089960       ??$__crt_fast_decode_pointer@P6AXXZ@@YAP6AXXZQ6AXXZ@Z 000000018008a960 f i libucrtd:onexit.obj
 0001:000899a0       ??$__crt_fast_decode_pointer@PEAP6AXXZ@@YAPEAP6AXXZQEAP6AXXZ@Z 000000018008a9a0 f i libucrtd:onexit.obj
 0001:000899e0       ??$__crt_fast_encode_pointer@P6AHXZ@@YAP6AHXZQ6AHXZ@Z 000000018008a9e0 f i libucrtd:onexit.obj
 0001:00089a20       ??$__crt_fast_encode_pointer@P6AXXZ@@YAP6AXXZQ6AXXZ@Z 000000018008aa20 f i libucrtd:onexit.obj
 0001:00089a60       ??$__crt_fast_encode_pointer@PEAP6AXXZ@@YAPEAP6AXXZQEAP6AXXZ@Z 000000018008aa60 f i libucrtd:onexit.obj
 0001:00089b70       ??0?$__crt_unique_heap_ptr@P6AXXZU__crt_internal_free_policy@@@@QEAA@QEAP6AXXZ@Z 000000018008ab70 f i libucrtd:onexit.obj
 0001:00089b90       ??1?$__crt_unique_heap_ptr@P6AXXZU__crt_internal_free_policy@@@@QEAA@XZ 000000018008ab90 f i libucrtd:onexit.obj
 0001:00089bb0       ??1scoped_global_state_reset@__crt_state_management@@QEAA@XZ 000000018008abb0 f i libucrtd:onexit.obj
 0001:0008a180       ?detach@?$__crt_unique_heap_ptr@P6AXXZU__crt_internal_free_policy@@@@QEAAPEAP6AXXZXZ 000000018008b180 f i libucrtd:onexit.obj
 0001:0008a1b0       ?release@?$__crt_unique_heap_ptr@P6AXXZU__crt_internal_free_policy@@@@QEAAXXZ 000000018008b1b0 f i libucrtd:onexit.obj
 0001:0008a1e0       _crt_at_quick_exit         000000018008b1e0 f   libucrtd:onexit.obj
 0001:0008a200       _crt_atexit                000000018008b200 f   libucrtd:onexit.obj
 0001:0008a220       _execute_onexit_table      000000018008b220 f   libucrtd:onexit.obj
 0001:0008a260       _initialize_onexit_table   000000018008b260 f   libucrtd:onexit.obj
 0001:0008a2e0       _register_onexit_function  000000018008b2e0 f   libucrtd:onexit.obj
 0001:0008a550       ??$?BX@__crt_fast_encoded_nullptr_t@@QEBAPEAXXZ 000000018008b550 f i libucrtd:initialization.obj
 0001:0008a570       ??$__crt_fast_encode_pointer@PEAX@@YAPEAXQEAX@Z 000000018008b570 f i libucrtd:initialization.obj
 0001:0008a660       ?initialize@?$dual_state_global@PEAU__crt_locale_data@@@__crt_state_management@@QEAAXQEAU__crt_locale_data@@@Z 000000018008b660 f i libucrtd:initialization.obj
 0001:0008a6b0       __acrt_initialize          000000018008b6b0 f   libucrtd:initialization.obj
 0001:0008a6e0       __acrt_thread_attach       000000018008b6e0 f   libucrtd:initialization.obj
 0001:0008a700       __acrt_thread_detach       000000018008b700 f   libucrtd:initialization.obj
 0001:0008a710       __acrt_uninitialize        000000018008b710 f   libucrtd:initialization.obj
 0001:0008a740       __acrt_uninitialize_critical 000000018008b740 f   libucrtd:initialization.obj
 0001:0008c730       _CrtCheckMemory            000000018008d730 f   libucrtd:debug_heap.obj
 0001:0008c8c0       _CrtDoForAllClientObjects  000000018008d8c0 f   libucrtd:debug_heap.obj
 0001:0008c9f0       _CrtDumpMemoryLeaks        000000018008d9f0 f   libucrtd:debug_heap.obj
 0001:0008cab0       _CrtGetAllocHook           000000018008dab0 f   libucrtd:debug_heap.obj
 0001:0008cac0       _CrtGetDumpClient          000000018008dac0 f   libucrtd:debug_heap.obj
 0001:0008cad0       _CrtIsMemoryBlock          000000018008dad0 f   libucrtd:debug_heap.obj
 0001:0008cc10       _CrtIsValidHeapPointer     000000018008dc10 f   libucrtd:debug_heap.obj
 0001:0008cc50       _CrtIsValidPointer         000000018008dc50 f   libucrtd:debug_heap.obj
 0001:0008cc90       _CrtMemCheckpoint          000000018008dc90 f   libucrtd:debug_heap.obj
 0001:0008cf10       _CrtMemDifference          000000018008df10 f   libucrtd:debug_heap.obj
 0001:0008d270       _CrtMemDumpAllObjectsSince 000000018008e270 f   libucrtd:debug_heap.obj
 0001:0008d2d0       _CrtMemDumpStatistics      000000018008e2d0 f   libucrtd:debug_heap.obj
 0001:0008d470       _CrtReportBlockType        000000018008e470 f   libucrtd:debug_heap.obj
 0001:0008d4a0       _CrtSetAllocHook           000000018008e4a0 f   libucrtd:debug_heap.obj
 0001:0008d4d0       _CrtSetBreakAlloc          000000018008e4d0 f   libucrtd:debug_heap.obj
 0001:0008d500       _CrtSetDbgBlockType        000000018008e500 f   libucrtd:debug_heap.obj
 0001:0008d5a0       _CrtSetDbgFlag             000000018008e5a0 f   libucrtd:debug_heap.obj
 0001:0008d700       _CrtSetDumpClient          000000018008e700 f   libucrtd:debug_heap.obj
 0001:0008d730       __p__crtBreakAlloc         000000018008e730 f   libucrtd:debug_heap.obj
 0001:0008d740       __p__crtDbgFlag            000000018008e740 f   libucrtd:debug_heap.obj
 0001:0008d750       _aligned_free_dbg          000000018008e750 f   libucrtd:debug_heap.obj
 0001:0008d840       _aligned_malloc_dbg        000000018008e840 f   libucrtd:debug_heap.obj
 0001:0008d880       _aligned_msize_dbg         000000018008e880 f   libucrtd:debug_heap.obj
 0001:0008da50       _aligned_offset_malloc_dbg 000000018008ea50 f   libucrtd:debug_heap.obj
 0001:0008dd40       _aligned_offset_realloc_dbg 000000018008ed40 f   libucrtd:debug_heap.obj
 0001:0008e1f0       _aligned_offset_recalloc_dbg 000000018008f1f0 f   libucrtd:debug_heap.obj
 0001:0008e310       _aligned_realloc_dbg       000000018008f310 f   libucrtd:debug_heap.obj
 0001:0008e360       _aligned_recalloc_dbg      000000018008f360 f   libucrtd:debug_heap.obj
 0001:0008e3c0       _calloc_dbg                000000018008f3c0 f   libucrtd:debug_heap.obj
 0001:0008e460       _expand_dbg                000000018008f460 f   libucrtd:debug_heap.obj
 0001:0008e590       _free_dbg                  000000018008f590 f   libucrtd:debug_heap.obj
 0001:0008e600       _malloc_dbg                000000018008f600 f   libucrtd:debug_heap.obj
 0001:0008e640       _msize_dbg                 000000018008f640 f   libucrtd:debug_heap.obj
 0001:0008e7e0       _realloc_dbg               000000018008f7e0 f   libucrtd:debug_heap.obj
 0001:0008e850       _recalloc_dbg              000000018008f850 f   libucrtd:debug_heap.obj
 0001:0008e950       _initterm                  000000018008f950 f   libucrtd:initterm.obj
 0001:0008e9b0       _initterm_e                000000018008f9b0 f   libucrtd:initterm.obj
 0001:0008ef00       strcpy_s                   000000018008ff00 f   libucrtd:strcpy_s.obj
 0001:0008f5a0       strcat_s                   00000001800905a0 f   libucrtd:strcat_s.obj
 0001:0008f5d0       ??$?B$$A6AH_K@Z@__crt_fast_encoded_nullptr_t@@QEBAP6AH_K@ZXZ 00000001800905d0 f i libucrtd:new_handler.obj
 0001:0008f5f0       ??$__crt_fast_decode_pointer@P6AH_K@Z@@YAP6AH_K@ZQ6AH0@Z@Z 00000001800905f0 f i libucrtd:new_handler.obj
 0001:0008f630       ??$__crt_fast_encode_pointer@P6AH_K@Z@@YAP6AH_K@ZQ6AH0@Z@Z 0000000180090630 f i libucrtd:new_handler.obj
 0001:0008f670       ?_set_new_handler@@YAP6AH_K@ZH@Z 0000000180090670 f   libucrtd:new_handler.obj
 0001:0008f6e0       ?initialize@?$dual_state_global@P6AH_K@Z@__crt_state_management@@QEAAXQ6AH_K@Z@Z 00000001800906e0 f i libucrtd:new_handler.obj
 0001:0008f730       ?value@?$dual_state_global@P6AH_K@Z@__crt_state_management@@QEAAAEAP6AH_K@ZXZ 0000000180090730 f i libucrtd:new_handler.obj
 0001:0008f750       __acrt_initialize_new_handler 0000000180090750 f   libucrtd:new_handler.obj
 0001:0008f770       _callnewh                  0000000180090770 f   libucrtd:new_handler.obj
 0001:0008f7c0       _query_new_handler         00000001800907c0 f   libucrtd:new_handler.obj
 0001:0008f800       _set_new_handler           0000000180090800 f   libucrtd:new_handler.obj
 0001:0008f8b0       _get_terminate             00000001800908b0 f   libucrtd:terminate.obj
 0001:0008f8d0       set_terminate              00000001800908d0 f   libucrtd:terminate.obj
 0001:0008f910       terminate                  0000000180090910 f   libucrtd:terminate.obj
 0001:00090710       _makepath                  0000000180091710 f   libucrtd:makepath.obj
 0001:00090760       _makepath_s                0000000180091760 f   libucrtd:makepath.obj
 0001:000907b0       _wmakepath                 00000001800917b0 f   libucrtd:makepath.obj
 0001:00090800       _wmakepath_s               0000000180091800 f   libucrtd:makepath.obj
 0001:00092e30       ??$tcsncpy_s@AEAPEAD_KAEAPEBDAEB_K@?$__crt_char_traits@D@@SAHAEAPEAD$$QEA_KAEAPEBDAEB_K@Z 0000000180093e30 f i libucrtd:splitpath.obj
 0001:00092e80       ??$tcsncpy_s@AEAPEAD_KAEAPEBDH@?$__crt_char_traits@D@@SAHAEAPEAD$$QEA_KAEAPEBD$$QEAH@Z 0000000180093e80 f i libucrtd:splitpath.obj
 0001:00092ed0       ??$tcsncpy_s@AEAPEA_W_KAEAPEB_WAEB_K@?$__crt_char_traits@_W@@SAHAEAPEA_W$$QEA_KAEAPEB_WAEB_K@Z 0000000180093ed0 f i libucrtd:splitpath.obj
 0001:00092f20       ??$tcsncpy_s@AEAPEA_W_KAEAPEB_WH@?$__crt_char_traits@_W@@SAHAEAPEA_W$$QEA_KAEAPEB_W$$QEAH@Z 0000000180093f20 f i libucrtd:splitpath.obj
 0001:000931d0       _splitpath                 00000001800941d0 f   libucrtd:splitpath.obj
 0001:00093210       _splitpath_s               0000000180094210 f   libucrtd:splitpath.obj
 0001:000932b0       _wsplitpath                00000001800942b0 f   libucrtd:splitpath.obj
 0001:000932f0       _wsplitpath_s              00000001800942f0 f   libucrtd:splitpath.obj
 0001:00093390       _set_abort_behavior        0000000180094390 f   libucrtd:abort.obj
 0001:000933d0       abort                      00000001800943d0 f   libucrtd:abort.obj
 0001:00093460       strcmp                     0000000180094460 f   libucrtd:strcmp.obj
 0001:000934e0       strlen                     00000001800944e0 f   libucrtd:strlen.obj
 0001:00093590       ??$is_overflow_condition@K@__crt_strtox@@YA_NIK@Z 0000000180094590 f i libucrtd:atox.obj
 0001:00093600       ??$is_overflow_condition@_K@__crt_strtox@@YA_NI_K@Z 0000000180094600 f i libucrtd:atox.obj
 0001:00093670       ??$make_c_string_character_source@D$$T@__crt_strtox@@YA?AV?$c_string_character_source@D@0@QEBD$$T@Z 0000000180094670 f i libucrtd:atox.obj
 0001:000936b0       ??$make_c_string_character_source@_W$$T@__crt_strtox@@YA?AV?$c_string_character_source@_W@0@QEB_W$$T@Z 00000001800946b0 f i libucrtd:atox.obj
 0001:000936f0       ??$parse_integer@KV?$c_string_character_source@D@__crt_strtox@@@__crt_strtox@@YAKQEAU__crt_locale_pointers@@V?$c_string_character_source@D@0@H_N@Z 00000001800946f0 f i libucrtd:atox.obj
 0001:00093b80       ??$parse_integer@KV?$c_string_character_source@_W@__crt_strtox@@@__crt_strtox@@YAKQEAU__crt_locale_pointers@@V?$c_string_character_source@_W@0@H_N@Z 0000000180094b80 f i libucrtd:atox.obj
 0001:00094030       ??$parse_integer@_KV?$c_string_character_source@D@__crt_strtox@@@__crt_strtox@@YA_KQEAU__crt_locale_pointers@@V?$c_string_character_source@D@0@H_N@Z 0000000180095030 f i libucrtd:atox.obj
 0001:00094550       ??$parse_integer@_KV?$c_string_character_source@_W@__crt_strtox@@@__crt_strtox@@YA_KQEAU__crt_locale_pointers@@V?$c_string_character_source@_W@0@H_N@Z 0000000180095550 f i libucrtd:atox.obj
 0001:00094a70       ??$parse_integer_from_string@JD$$T@__crt_strtox@@YAJQEBD$$THQEAU__crt_locale_pointers@@@Z 0000000180095a70 f i libucrtd:atox.obj
 0001:00094ac0       ??$parse_integer_from_string@J_W$$T@__crt_strtox@@YAJQEB_W$$THQEAU__crt_locale_pointers@@@Z 0000000180095ac0 f i libucrtd:atox.obj
 0001:00094b10       ??$parse_integer_from_string@_JD$$T@__crt_strtox@@YA_JQEBD$$THQEAU__crt_locale_pointers@@@Z 0000000180095b10 f i libucrtd:atox.obj
 0001:00094b60       ??$parse_integer_from_string@_J_W$$T@__crt_strtox@@YA_JQEB_W$$THQEAU__crt_locale_pointers@@@Z 0000000180095b60 f i libucrtd:atox.obj
 0001:00094bb0       ??0?$c_string_character_source@D@__crt_strtox@@QEAA@QEBDQEAPEBD@Z 0000000180095bb0 f i libucrtd:atox.obj
 0001:00094c00       ??0?$c_string_character_source@_W@__crt_strtox@@QEAA@QEB_WQEAPEB_W@Z 0000000180095c00 f i libucrtd:atox.obj
 0001:00094c50       ??1?$c_string_character_source@D@__crt_strtox@@QEAA@XZ 0000000180095c50 f i libucrtd:atox.obj
 0001:00094c80       ??1?$c_string_character_source@_W@__crt_strtox@@QEAA@XZ 0000000180095c80 f i libucrtd:atox.obj
 0001:00094cb0       ?get@?$c_string_character_source@D@__crt_strtox@@QEAADXZ 0000000180095cb0 f i libucrtd:atox.obj
 0001:00094cf0       ?get@?$c_string_character_source@_W@__crt_strtox@@QEAA_WXZ 0000000180095cf0 f i libucrtd:atox.obj
 0001:00094d30       ?is_space@__crt_strtox@@YA_NDQEAU__crt_locale_pointers@@@Z 0000000180095d30 f i libucrtd:atox.obj
 0001:00094d80       ?is_space@__crt_strtox@@YA_N_WPEAU__crt_locale_pointers@@@Z 0000000180095d80 f i libucrtd:atox.obj
 0001:00094dc0       ?maximum_signed_value@__crt_strtox@@YAJK@Z 0000000180095dc0 f i libucrtd:atox.obj
 0001:00094dd0       ?maximum_signed_value@__crt_strtox@@YA_J_K@Z 0000000180095dd0 f i libucrtd:atox.obj
 0001:00094de0       ?minimum_signed_value@__crt_strtox@@YAJK@Z 0000000180095de0 f i libucrtd:atox.obj
 0001:00094df0       ?minimum_signed_value@__crt_strtox@@YA_J_K@Z 0000000180095df0 f i libucrtd:atox.obj
 0001:00094e00       ?parse_digit@__crt_strtox@@YAID@Z 0000000180095e00 f i libucrtd:atox.obj
 0001:00094e70       ?parse_digit@__crt_strtox@@YAI_W@Z 0000000180095e70 f i libucrtd:atox.obj
 0001:00094ec0       ?restore_state@?$c_string_character_source@D@__crt_strtox@@QEAA_NQEBD@Z 0000000180095ec0 f i libucrtd:atox.obj
 0001:00094ee0       ?restore_state@?$c_string_character_source@_W@__crt_strtox@@QEAA_NQEB_W@Z 0000000180095ee0 f i libucrtd:atox.obj
 0001:00094f00       ?save_state@?$c_string_character_source@D@__crt_strtox@@QEBAPEBDXZ 0000000180095f00 f i libucrtd:atox.obj
 0001:00094f10       ?save_state@?$c_string_character_source@_W@__crt_strtox@@QEBAPEB_WXZ 0000000180095f10 f i libucrtd:atox.obj
 0001:00094f20       ?unget@?$c_string_character_source@D@__crt_strtox@@QEAAXD@Z 0000000180095f20 f i libucrtd:atox.obj
 0001:00095000       ?unget@?$c_string_character_source@_W@__crt_strtox@@QEAAX_W@Z 0000000180096000 f i libucrtd:atox.obj
 0001:000950e0       ?validate@?$c_string_character_source@D@__crt_strtox@@QEBA_NXZ 00000001800960e0 f i libucrtd:atox.obj
 0001:000951a0       ?validate@?$c_string_character_source@_W@__crt_strtox@@QEBA_NXZ 00000001800961a0 f i libucrtd:atox.obj
 0001:00095260       ?wide_character_to_digit@__crt_strtox@@YAH_W@Z 0000000180096260 f i libucrtd:atox.obj
 0001:000955d0       __ascii_iswalpha           00000001800965d0 f i libucrtd:atox.obj
 0001:00095610       __ascii_toupper            0000000180096610 f i libucrtd:atox.obj
 0001:00095630       __ascii_towupper           0000000180096630 f i libucrtd:atox.obj
 0001:00095650       _atoi64                    0000000180096650 f   libucrtd:atox.obj
 0001:00095680       _atoi64_l                  0000000180096680 f   libucrtd:atox.obj
 0001:000956b0       _atoi_l                    00000001800966b0 f   libucrtd:atox.obj
 0001:000956e0       _atol_l                    00000001800966e0 f   libucrtd:atox.obj
 0001:00095710       _atoll_l                   0000000180096710 f   libucrtd:atox.obj
 0001:00095740       _wtoi                      0000000180096740 f   libucrtd:atox.obj
 0001:00095770       _wtoi64                    0000000180096770 f   libucrtd:atox.obj
 0001:000957a0       _wtoi64_l                  00000001800967a0 f   libucrtd:atox.obj
 0001:000957d0       _wtoi_l                    00000001800967d0 f   libucrtd:atox.obj
 0001:00095800       _wtol                      0000000180096800 f   libucrtd:atox.obj
 0001:00095830       _wtol_l                    0000000180096830 f   libucrtd:atox.obj
 0001:00095860       _wtoll                     0000000180096860 f   libucrtd:atox.obj
 0001:00095890       _wtoll_l                   0000000180096890 f   libucrtd:atox.obj
 0001:000958c0       atoi                       00000001800968c0 f   libucrtd:atox.obj
 0001:000958f0       atol                       00000001800968f0 f   libucrtd:atox.obj
 0001:00095920       atoll                      0000000180096920 f   libucrtd:atox.obj
 0001:00095960       strncmp                    0000000180096960 f   libucrtd:strncmp.obj
 0001:000959e0       wcsncmp                    00000001800969e0 f   libucrtd:wcsncmp.obj
 0001:00095a70       _CrtGetDebugFillThreshold  0000000180096a70 f   libucrtd:debug_fill_threshold.obj
 0001:00095a80       _CrtSetDebugFillThreshold  0000000180096a80 f   libucrtd:debug_fill_threshold.obj
 0001:00095ab0       ??$make_c_string_character_source@DPEAPEAD@__crt_strtox@@YA?AV?$c_string_character_source@D@0@QEBDQEAPEAD@Z 0000000180096ab0 f i libucrtd:strtox.obj
 0001:00095af0       ??$make_c_string_character_source@_WPEAPEA_W@__crt_strtox@@YA?AV?$c_string_character_source@_W@0@QEB_WQEAPEA_W@Z 0000000180096af0 f i libucrtd:strtox.obj
 0001:00095b30       ??$parse_integer_from_string@JDPEAPEAD@__crt_strtox@@YAJQEBDQEAPEADHQEAU__crt_locale_pointers@@@Z 0000000180096b30 f i libucrtd:strtox.obj
 0001:00095b80       ??$parse_integer_from_string@J_WPEAPEA_W@__crt_strtox@@YAJQEB_WQEAPEA_WHQEAU__crt_locale_pointers@@@Z 0000000180096b80 f i libucrtd:strtox.obj
 0001:00095bd0       ??$parse_integer_from_string@KDPEAPEAD@__crt_strtox@@YAKQEBDQEAPEADHQEAU__crt_locale_pointers@@@Z 0000000180096bd0 f i libucrtd:strtox.obj
 0001:00095c20       ??$parse_integer_from_string@K_WPEAPEA_W@__crt_strtox@@YAKQEB_WQEAPEA_WHQEAU__crt_locale_pointers@@@Z 0000000180096c20 f i libucrtd:strtox.obj
 0001:00095c70       ??$parse_integer_from_string@_JDPEAPEAD@__crt_strtox@@YA_JQEBDQEAPEADHQEAU__crt_locale_pointers@@@Z 0000000180096c70 f i libucrtd:strtox.obj
 0001:00095cc0       ??$parse_integer_from_string@_J_WPEAPEA_W@__crt_strtox@@YA_JQEB_WQEAPEA_WHQEAU__crt_locale_pointers@@@Z 0000000180096cc0 f i libucrtd:strtox.obj
 0001:00095d10       ??$parse_integer_from_string@_KDPEAPEAD@__crt_strtox@@YA_KQEBDQEAPEADHQEAU__crt_locale_pointers@@@Z 0000000180096d10 f i libucrtd:strtox.obj
 0001:00095d60       ??$parse_integer_from_string@_K_WPEAPEA_W@__crt_strtox@@YA_KQEB_WQEAPEA_WHQEAU__crt_locale_pointers@@@Z 0000000180096d60 f i libucrtd:strtox.obj
 0001:00095db0       _strtoi64                  0000000180096db0 f   libucrtd:strtox.obj
 0001:00095de0       _strtoi64_l                0000000180096de0 f   libucrtd:strtox.obj
 0001:00095e20       _strtoimax_l               0000000180096e20 f   libucrtd:strtox.obj
 0001:00095e60       _strtol_l                  0000000180096e60 f   libucrtd:strtox.obj
 0001:00095ea0       _strtoll_l                 0000000180096ea0 f   libucrtd:strtox.obj
 0001:00095ee0       _strtoui64                 0000000180096ee0 f   libucrtd:strtox.obj
 0001:00095f10       _strtoui64_l               0000000180096f10 f   libucrtd:strtox.obj
 0001:00095f50       _strtoul_l                 0000000180096f50 f   libucrtd:strtox.obj
 0001:00095f90       _strtoull_l                0000000180096f90 f   libucrtd:strtox.obj
 0001:00095fd0       _strtoumax_l               0000000180096fd0 f   libucrtd:strtox.obj
 0001:00096010       _wcstoi64                  0000000180097010 f   libucrtd:strtox.obj
 0001:00096040       _wcstoi64_l                0000000180097040 f   libucrtd:strtox.obj
 0001:00096080       _wcstoimax_l               0000000180097080 f   libucrtd:strtox.obj
 0001:000960c0       _wcstol_l                  00000001800970c0 f   libucrtd:strtox.obj
 0001:00096100       _wcstoll_l                 0000000180097100 f   libucrtd:strtox.obj
 0001:00096140       _wcstoui64                 0000000180097140 f   libucrtd:strtox.obj
 0001:00096170       _wcstoui64_l               0000000180097170 f   libucrtd:strtox.obj
 0001:000961b0       _wcstoul_l                 00000001800971b0 f   libucrtd:strtox.obj
 0001:000961f0       _wcstoull_l                00000001800971f0 f   libucrtd:strtox.obj
 0001:00096230       _wcstoumax_l               0000000180097230 f   libucrtd:strtox.obj
 0001:00096270       strtoimax                  0000000180097270 f   libucrtd:strtox.obj
 0001:000962a0       strtol                     00000001800972a0 f   libucrtd:strtox.obj
 0001:000962d0       strtoll                    00000001800972d0 f   libucrtd:strtox.obj
 0001:00096300       strtoul                    0000000180097300 f   libucrtd:strtox.obj
 0001:00096330       strtoull                   0000000180097330 f   libucrtd:strtox.obj
 0001:00096360       strtoumax                  0000000180097360 f   libucrtd:strtox.obj
 0001:00096390       wcstoimax                  0000000180097390 f   libucrtd:strtox.obj
 0001:000963c0       wcstol                     00000001800973c0 f   libucrtd:strtox.obj
 0001:000963f0       wcstoll                    00000001800973f0 f   libucrtd:strtox.obj
 0001:00096420       wcstoul                    0000000180097420 f   libucrtd:strtox.obj
 0001:00096450       wcstoull                   0000000180097450 f   libucrtd:strtox.obj
 0001:00096480       wcstoumax                  0000000180097480 f   libucrtd:strtox.obj
 0001:000964b0       _mbtowc_l                  00000001800974b0 f   libucrtd:mbtowc.obj
 0001:00096910       mbtowc                     0000000180097910 f   libucrtd:mbtowc.obj
 0001:00096940       _wctomb_l                  0000000180097940 f   libucrtd:wctomb.obj
 0001:00096a00       _wctomb_s_l                0000000180097a00 f   libucrtd:wctomb.obj
 0001:00096f80       wctomb                     0000000180097f80 f   libucrtd:wctomb.obj
 0001:00096fe0       wctomb_s                   0000000180097fe0 f   libucrtd:wctomb.obj
 0001:00097030       ??$?RU__acrt_ptd@@@__crt_internal_free_policy@@QEBAXQEBU__acrt_ptd@@@Z 0000000180098030 f i libucrtd:per_thread_data.obj
 0001:00097430       ??0?$__crt_unique_heap_ptr@U__acrt_ptd@@U__crt_internal_free_policy@@@@QEAA@QEAU__acrt_ptd@@@Z 0000000180098430 f i libucrtd:per_thread_data.obj
 0001:00097450       ??0__crt_scoped_get_last_error_reset@@QEAA@XZ 0000000180098450 f i libucrtd:per_thread_data.obj
 0001:00097470       ??1?$__crt_unique_heap_ptr@U__acrt_ptd@@U__crt_internal_free_policy@@@@QEAA@XZ 0000000180098470 f i libucrtd:per_thread_data.obj
 0001:00097490       ??1__crt_scoped_get_last_error_reset@@QEAA@XZ 0000000180098490 f i libucrtd:per_thread_data.obj
 0001:000974b0       ??B?$__crt_unique_heap_ptr@U__acrt_ptd@@U__crt_internal_free_policy@@@@QEBA_NXZ 00000001800984b0 f i libucrtd:per_thread_data.obj
 0001:00097800       ?dangerous_get_state_array@?$dual_state_global@PEAU__crt_locale_data@@@__crt_state_management@@QEAAPEAPEAU__crt_locale_data@@XZ 0000000180098800 f i libucrtd:per_thread_data.obj
 0001:000979c0       ?detach@?$__crt_unique_heap_ptr@U__acrt_ptd@@U__crt_internal_free_policy@@@@QEAAPEAU__acrt_ptd@@XZ 00000001800989c0 f i libucrtd:per_thread_data.obj
 0001:000979f0       ?get@?$__crt_unique_heap_ptr@U__acrt_ptd@@U__crt_internal_free_policy@@@@QEBAPEAU__acrt_ptd@@XZ 00000001800989f0 f i libucrtd:per_thread_data.obj
 0001:00097a00       ?get_current_state_index@__crt_state_management@@YA_KAEBV__crt_scoped_get_last_error_reset@@@Z 0000000180098a00 f i libucrtd:per_thread_data.obj
 0001:00097bb0       ?is_valid@?$__crt_unique_heap_ptr@U__acrt_ptd@@U__crt_internal_free_policy@@@@QEBA_NXZ 0000000180098bb0 f i libucrtd:per_thread_data.obj
 0001:00097be0       ?release@?$__crt_unique_heap_ptr@U__acrt_ptd@@U__crt_internal_free_policy@@@@QEAAXXZ 0000000180098be0 f i libucrtd:per_thread_data.obj
 0001:00097d10       ?value@?$dual_state_global@PEAU__crt_locale_data@@@__crt_state_management@@QEAAAEAPEAU__crt_locale_data@@XZ 0000000180098d10 f i libucrtd:per_thread_data.obj
 0001:00097d30       __acrt_freeptd             0000000180098d30 f   libucrtd:per_thread_data.obj
 0001:00097d70       __acrt_getptd              0000000180098d70 f   libucrtd:per_thread_data.obj
 0001:00097da0       __acrt_getptd_head         0000000180098da0 f   libucrtd:per_thread_data.obj
 0001:00097dd0       __acrt_getptd_noexit       0000000180098dd0 f   libucrtd:per_thread_data.obj
 0001:00097de0       __acrt_initialize_ptd      0000000180098de0 f   libucrtd:per_thread_data.obj
 0001:00097e20       __acrt_uninitialize_ptd    0000000180098e20 f   libucrtd:per_thread_data.obj
 0001:00097e50       __threadhandle             0000000180098e50 f   libucrtd:per_thread_data.obj
 0001:00097e60       __threadid                 0000000180098e60 f   libucrtd:per_thread_data.obj
 0001:00097e70       ?value@?$dual_state_global@PEAU__crt_multibyte_data@@@__crt_state_management@@QEAAAEAPEAU__crt_multibyte_data@@XZ 0000000180098e70 f i libucrtd:locale_update.obj
 0001:00097e90       __acrt_update_locale_info  0000000180098e90 f   libucrtd:locale_update.obj
 0001:00097ee0       __acrt_update_multibyte_info 0000000180098ee0 f   libucrtd:locale_update.obj
 0001:00097f30       ?__acrt_fp_classify@@YA?AW4__acrt_fp_class@@AEBN@Z 0000000180098f30 f i libucrtd:cvt.obj
 0001:00098030       ?__acrt_fp_is_negative@@YA_NAEBN@Z 0000000180099030 f i libucrtd:cvt.obj
 0001:000996e0       ?strrchr@@YAPEADQEADH@Z    000000018009a6e0 f i libucrtd:cvt.obj
 0001:00099700       __acrt_fp_format           000000018009a700 f   libucrtd:cvt.obj
 0001:00099d70       _fputwc_nolock             000000018009ad70 f   libucrtd:fputwc.obj
 0001:00099fe0       _fputwchar                 000000018009afe0 f   libucrtd:fputwc.obj
 0001:0009a010       _putwc_nolock              000000018009b010 f   libucrtd:fputwc.obj
 0001:0009a040       fputwc                     000000018009b040 f   libucrtd:fputwc.obj
 0001:0009a130       putwc                      000000018009b130 f   libucrtd:fputwc.obj
 0001:0009a160       putwchar                   000000018009b160 f   libucrtd:fputwc.obj
 0001:0009a180       ?lowio_handle@__crt_stdio_stream@@QEBAHXZ 000000018009b180 f i libucrtd:fileno.obj
 0001:0009a1b0       _fileno                    000000018009b1b0 f   libucrtd:fileno.obj
 0001:0009a290       ??$?RPEAU__crt_stdio_stream_data@@@__crt_internal_free_policy@@QEBAXQEBQEAU__crt_stdio_stream_data@@@Z 000000018009b290 f i libucrtd:_file.obj
 0001:0009a2c0       ??0?$__crt_unique_heap_ptr@PEAU__crt_stdio_stream_data@@U__crt_internal_free_policy@@@@QEAA@QEAPEAU__crt_stdio_stream_data@@@Z 000000018009b2c0 f i libucrtd:_file.obj
 0001:0009a2e0       ??1?$__crt_unique_heap_ptr@PEAU__crt_stdio_stream_data@@U__crt_internal_free_policy@@@@QEAA@XZ 000000018009b2e0 f i libucrtd:_file.obj
 0001:0009a300       ?detach@?$__crt_unique_heap_ptr@PEAU__crt_stdio_stream_data@@U__crt_internal_free_policy@@@@QEAAPEAPEAU__crt_stdio_stream_data@@XZ 000000018009b300 f i libucrtd:_file.obj
 0001:0009a330       ?release@?$__crt_unique_heap_ptr@PEAU__crt_stdio_stream_data@@U__crt_internal_free_policy@@@@QEAAXXZ 000000018009b330 f i libucrtd:_file.obj
 0001:0009a360       __acrt_initialize_stdio    000000018009b360 f   libucrtd:_file.obj
 0001:0009a550       __acrt_iob_func            000000018009b550 f   libucrtd:_file.obj
 0001:0009a570       __acrt_uninitialize_stdio  000000018009b570 f   libucrtd:_file.obj
 0001:0009a600       _get_stream_buffer_pointers 000000018009b600 f   libucrtd:_file.obj
 0001:0009a730       _lock_file                 000000018009b730 f   libucrtd:_file.obj
 0001:0009a770       _unlock_file               000000018009b770 f   libucrtd:_file.obj
 0001:0009a7b0       _get_printf_count_output   000000018009b7b0 f   libucrtd:printf_count_output.obj
 0001:0009a7e0       _set_printf_count_output   000000018009b7e0 f   libucrtd:printf_count_output.obj
 0001:0009a850       ?has_any_buffer@__crt_stdio_stream@@QEBA_NXZ 000000018009b850 f i libucrtd:_sftbuf.obj
 0001:0009a870       ?has_any_of@__crt_stdio_stream@@QEBA_NJ@Z 000000018009b870 f i libucrtd:_sftbuf.obj
 0001:0009a8b0       ?has_temporary_buffer@__crt_stdio_stream@@QEBA_NXZ 000000018009b8b0 f i libucrtd:_sftbuf.obj
 0001:0009a8d0       ?set_flags@__crt_stdio_stream@@QEBA_NJ@Z 000000018009b8d0 f i libucrtd:_sftbuf.obj
 0001:0009a940       ?unset_flags@__crt_stdio_stream@@QEBA_NJ@Z 000000018009b940 f i libucrtd:_sftbuf.obj
 0001:0009a9a0       __acrt_stdio_begin_temporary_buffering_nolock 000000018009b9a0 f   libucrtd:_sftbuf.obj
 0001:0009abe0       __acrt_stdio_end_temporary_buffering_nolock 000000018009bbe0 f   libucrtd:_sftbuf.obj
 0001:0009ac90       ??$?RU__crt_locale_data@@@__crt_internal_free_policy@@QEBAXQEBU__crt_locale_data@@@Z 000000018009bc90 f i libucrtd:wsetlocale.obj
 0001:0009acc0       ??$?RU__crt_locale_pointers@@@__crt_internal_free_policy@@QEBAXQEBU__crt_locale_pointers@@@Z 000000018009bcc0 f i libucrtd:wsetlocale.obj
 0001:0009acf0       ??$?RU__crt_multibyte_data@@@__crt_internal_free_policy@@QEBAXQEBU__crt_multibyte_data@@@Z 000000018009bcf0 f i libucrtd:wsetlocale.obj
 0001:0009b250       ??0?$__crt_unique_heap_ptr@U__crt_locale_data@@U__crt_internal_free_policy@@@@QEAA@QEAU__crt_locale_data@@@Z 000000018009c250 f i libucrtd:wsetlocale.obj
 0001:0009b270       ??0?$__crt_unique_heap_ptr@U__crt_locale_pointers@@U__crt_internal_free_policy@@@@QEAA@QEAU__crt_locale_pointers@@@Z 000000018009c270 f i libucrtd:wsetlocale.obj
 0001:0009b290       ??0?$__crt_unique_heap_ptr@U__crt_multibyte_data@@U__crt_internal_free_policy@@@@QEAA@QEAU__crt_multibyte_data@@@Z 000000018009c290 f i libucrtd:wsetlocale.obj
 0001:0009b2b0       ??0_expandlocale_locale_name_cache@@QEAA@QEA_W_KQEAU__crt_qualified_locale_data@@@Z 000000018009c2b0 f i libucrtd:wsetlocale.obj
 0001:0009b360       ??1?$__crt_unique_heap_ptr@U__crt_locale_data@@U__crt_internal_free_policy@@@@QEAA@XZ 000000018009c360 f i libucrtd:wsetlocale.obj
 0001:0009b380       ??1?$__crt_unique_heap_ptr@U__crt_locale_pointers@@U__crt_internal_free_policy@@@@QEAA@XZ 000000018009c380 f i libucrtd:wsetlocale.obj
 0001:0009b3a0       ??1?$__crt_unique_heap_ptr@U__crt_multibyte_data@@U__crt_internal_free_policy@@@@QEAA@XZ 000000018009c3a0 f i libucrtd:wsetlocale.obj
 0001:0009b3c0       ??1_expandlocale_locale_name_cache@@QEAA@XZ 000000018009c3c0 f i libucrtd:wsetlocale.obj
 0001:0009b440       ??B?$__crt_unique_heap_ptr@U__crt_locale_data@@U__crt_internal_free_policy@@@@QEBA_NXZ 000000018009c440 f i libucrtd:wsetlocale.obj
 0001:0009b460       ??B?$__crt_unique_heap_ptr@U__crt_locale_pointers@@U__crt_internal_free_policy@@@@QEBA_NXZ 000000018009c460 f i libucrtd:wsetlocale.obj
 0001:0009b480       ??B?$__crt_unique_heap_ptr@U__crt_multibyte_data@@U__crt_internal_free_policy@@@@QEBA_NXZ 000000018009c480 f i libucrtd:wsetlocale.obj
 0001:0009b930       ?commit_locale_name@_expandlocale_locale_name_cache@@QEAAXQEB_W_K@Z 000000018009c930 f i libucrtd:wsetlocale.obj
 0001:0009b9b0       ?commit_locale_name_cache_already_updated@_expandlocale_locale_name_cache@@QEAAXQEB_W_K@Z 000000018009c9b0 f i libucrtd:wsetlocale.obj
 0001:0009ba20       ?detach@?$__crt_unique_heap_ptr@U__crt_locale_data@@U__crt_internal_free_policy@@@@QEAAPEAU__crt_locale_data@@XZ 000000018009ca20 f i libucrtd:wsetlocale.obj
 0001:0009ba50       ?detach@?$__crt_unique_heap_ptr@U__crt_locale_pointers@@U__crt_internal_free_policy@@@@QEAAPEAU__crt_locale_pointers@@XZ 000000018009ca50 f i libucrtd:wsetlocale.obj
 0001:0009ba80       ?detach@?$__crt_unique_heap_ptr@U__crt_multibyte_data@@U__crt_internal_free_policy@@@@QEAAPEAU__crt_multibyte_data@@XZ 000000018009ca80 f i libucrtd:wsetlocale.obj
 0001:0009bab0       ?get@?$__crt_unique_heap_ptr@U__crt_locale_data@@U__crt_internal_free_policy@@@@QEBAPEAU__crt_locale_data@@XZ 000000018009cab0 f i libucrtd:wsetlocale.obj
 0001:0009bac0       ?get@?$__crt_unique_heap_ptr@U__crt_locale_pointers@@U__crt_internal_free_policy@@@@QEBAPEAU__crt_locale_pointers@@XZ 000000018009cac0 f i libucrtd:wsetlocale.obj
 0001:0009bad0       ?get@?$__crt_unique_heap_ptr@U__crt_multibyte_data@@U__crt_internal_free_policy@@@@QEBAPEAU__crt_multibyte_data@@XZ 000000018009cad0 f i libucrtd:wsetlocale.obj
 0001:0009bae0       ?is_valid@?$__crt_unique_heap_ptr@U__crt_locale_data@@U__crt_internal_free_policy@@@@QEBA_NXZ 000000018009cae0 f i libucrtd:wsetlocale.obj
 0001:0009bb10       ?is_valid@?$__crt_unique_heap_ptr@U__crt_locale_pointers@@U__crt_internal_free_policy@@@@QEBA_NXZ 000000018009cb10 f i libucrtd:wsetlocale.obj
 0001:0009bb40       ?is_valid@?$__crt_unique_heap_ptr@U__crt_multibyte_data@@U__crt_internal_free_policy@@@@QEBA_NXZ 000000018009cb40 f i libucrtd:wsetlocale.obj
 0001:0009bb70       ?release@?$__crt_unique_heap_ptr@U__crt_locale_data@@U__crt_internal_free_policy@@@@QEAAXXZ 000000018009cb70 f i libucrtd:wsetlocale.obj
 0001:0009bba0       ?release@?$__crt_unique_heap_ptr@U__crt_locale_pointers@@U__crt_internal_free_policy@@@@QEAAXXZ 000000018009cba0 f i libucrtd:wsetlocale.obj
 0001:0009bbd0       ?release@?$__crt_unique_heap_ptr@U__crt_multibyte_data@@U__crt_internal_free_policy@@@@QEAAXXZ 000000018009cbd0 f i libucrtd:wsetlocale.obj
 0001:0009bc00       __acrt_copy_locale_name    000000018009cc00 f   libucrtd:wsetlocale.obj
 0001:0009bcd0       __acrt_set_locale_changed  000000018009ccd0 f   libucrtd:wsetlocale.obj
 0001:0009bce0       __acrt_uninitialize_locale 000000018009cce0 f   libucrtd:wsetlocale.obj
 0001:0009bd10       __ascii_tolower            000000018009cd10 f i libucrtd:wsetlocale.obj
 0001:0009bd30       __ascii_towlower           000000018009cd30 f i libucrtd:wsetlocale.obj
 0001:0009bd50       __lc_lctowcs               000000018009cd50 f   libucrtd:wsetlocale.obj
 0001:0009be40       __lc_wcstolc               000000018009ce40 f   libucrtd:wsetlocale.obj
 0001:0009c100       _configthreadlocale        000000018009d100 f   libucrtd:wsetlocale.obj
 0001:0009c2c0       _create_locale             000000018009d2c0 f   libucrtd:wsetlocale.obj
 0001:0009c9c0       _free_locale               000000018009d9c0 f   libucrtd:wsetlocale.obj
 0001:0009cab0       _get_current_locale        000000018009dab0 f   libucrtd:wsetlocale.obj
 0001:0009cbc0       _wcreate_locale            000000018009dbc0 f   libucrtd:wsetlocale.obj
 0001:0009ceb0       _wcscats                   000000018009deb0 f   libucrtd:wsetlocale.obj
 0001:0009cf90       _wsetlocale                000000018009df90 f   libucrtd:wsetlocale.obj
 0001:0009ebb0       __p___mb_cur_max           000000018009fbb0 f   libucrtd:nlsdata.obj
 0001:0009ef90       __acrt_initialize_lowio    000000018009ff90 f   libucrtd:ioinit.obj
 0001:0009efe0       __acrt_uninitialize_lowio  000000018009ffe0 f   libucrtd:ioinit.obj
 0001:0009f060       _CrtGetReportHook          00000001800a0060 f   libucrtd:dbgrptt.obj
 0001:0009f070       _CrtSetReportFile          00000001800a0070 f   libucrtd:dbgrptt.obj
 0001:0009f1d0       _CrtSetReportHook          00000001800a01d0 f   libucrtd:dbgrptt.obj
 0001:0009f200       _CrtSetReportMode          00000001800a0200 f   libucrtd:dbgrptt.obj
 0001:0009f3b0       _VCrtDbgReportA            00000001800a03b0 f   libucrtd:dbgrptt.obj
 0001:0009fd90       _VCrtDbgReportW            00000001800a0d90 f   libucrtd:dbgrptt.obj
 0001:000a0910       _snprintf_s                00000001800a1910 f i libucrtd:dbgrptt.obj
 0001:000a0980       _vsnprintf_s               00000001800a1980 f i libucrtd:dbgrptt.obj
 0001:000a09d0       _vsnprintf_s_l             00000001800a19d0 f i libucrtd:dbgrptt.obj
 0001:000a0bf0       ??$__acrt_wcs_to_mbs_cp@U__crt_win32_buffer_no_resizing@@@@YAHQEB_WAEAV?$__crt_win32_buffer@DU__crt_win32_buffer_no_resizing@@@@I@Z 00000001800a1bf0 f i libucrtd:getmodulefilenamea.obj
 0001:000a0c40       ??0?$__crt_win32_buffer@DU__crt_win32_buffer_no_resizing@@@@QEAA@QEAD_K@Z 00000001800a1c40 f i libucrtd:getmodulefilenamea.obj
 0001:000a0cb0       ??1?$__crt_win32_buffer@DU__crt_win32_buffer_no_resizing@@@@QEAA@XZ 00000001800a1cb0 f i libucrtd:getmodulefilenamea.obj
 0001:000a0d40       ?__acrt_get_utf8_acp_compatibility_codepage@@YAIXZ 00000001800a1d40 f i libucrtd:getmodulefilenamea.obj
 0001:000a0de0       ?_deallocate@?$__crt_win32_buffer@DU__crt_win32_buffer_no_resizing@@@@AEAAXXZ 00000001800a1de0 f i libucrtd:getmodulefilenamea.obj
 0001:000a0e20       ?allocate@?$__crt_win32_buffer@DU__crt_win32_buffer_no_resizing@@@@QEAAH_K@Z 00000001800a1e20 f i libucrtd:getmodulefilenamea.obj
 0001:000a0ea0       ?allocate@__crt_win32_buffer_no_resizing@@SAHQEAPEAX_KAEBV__crt_win32_buffer_empty_debug_info@@@Z 00000001800a1ea0 f i libucrtd:getmodulefilenamea.obj
 0001:000a0ed0       ?capacity@?$__crt_win32_buffer@DU__crt_win32_buffer_no_resizing@@@@QEBA_KXZ 00000001800a1ed0 f i libucrtd:getmodulefilenamea.obj
 0001:000a0ee0       ?data@?$__crt_win32_buffer@DU__crt_win32_buffer_no_resizing@@@@QEAAPEADXZ 00000001800a1ee0 f i libucrtd:getmodulefilenamea.obj
 0001:000a0ef0       ?deallocate@__crt_win32_buffer_no_resizing@@SAXQEAXAEBV__crt_win32_buffer_empty_debug_info@@@Z 00000001800a1ef0 f i libucrtd:getmodulefilenamea.obj
 0001:000a0f00       ?debug_info@?$__crt_win32_buffer@DU__crt_win32_buffer_no_resizing@@@@QEBAAEBV__crt_win32_buffer_empty_debug_info@@XZ 00000001800a1f00 f i libucrtd:getmodulefilenamea.obj
 0001:000a0f10       ?set_to_nullptr@?$__crt_win32_buffer@DU__crt_win32_buffer_no_resizing@@@@QEAAXXZ 00000001800a1f10 f i libucrtd:getmodulefilenamea.obj
 0001:000a0f50       ?size@?$__crt_win32_buffer@DU__crt_win32_buffer_no_resizing@@@@QEAAX_K@Z 00000001800a1f50 f i libucrtd:getmodulefilenamea.obj
 0001:000a0f70       ?size@?$__crt_win32_buffer@DU__crt_win32_buffer_no_resizing@@@@QEBA_KXZ 00000001800a1f70 f i libucrtd:getmodulefilenamea.obj
 0001:000a0f80       __acrt_GetModuleFileNameA  00000001800a1f80 f   libucrtd:getmodulefilenamea.obj
 0001:000a12e0       ??$message_box@$$TAEBQEBDAEBQEBDK@?$__crt_char_traits@D@@SAH$$QEA$$TAEBQEBD1$$QEAK@Z 00000001800a22e0 f i libucrtd:crtmbox.obj
 0001:000a1330       ??$message_box@$$TAEBQEB_WAEBQEB_WK@?$__crt_char_traits@_W@@SAH$$QEA$$TAEBQEB_W1$$QEAK@Z 00000001800a2330 f i libucrtd:crtmbox.obj
 0001:000a1380       ??$message_box@PEAUHWND__@@AEBQEBDAEBQEBDAEBI@?$__crt_char_traits@D@@SAH$$QEAPEAUHWND__@@AEBQEBD1AEBI@Z 00000001800a2380 f i libucrtd:crtmbox.obj
 0001:000a13d0       ??$message_box@PEAUHWND__@@AEBQEB_WAEBQEB_WAEBI@?$__crt_char_traits@_W@@SAH$$QEAPEAUHWND__@@AEBQEB_W1AEBI@Z 00000001800a23d0 f i libucrtd:crtmbox.obj
 0001:000a1420       ??$output_debug_string@AEBQEBD@?$__crt_char_traits@D@@SAXAEBQEBD@Z 00000001800a2420 f i libucrtd:crtmbox.obj
 0001:000a1440       ??$output_debug_string@AEBQEB_W@?$__crt_char_traits@_W@@SAXAEBQEB_W@Z 00000001800a2440 f i libucrtd:crtmbox.obj
 0001:000a1460       __acrt_show_narrow_message_box 00000001800a2460 f   libucrtd:crtmbox.obj
 0001:000a1490       __acrt_show_wide_message_box 00000001800a2490 f   libucrtd:crtmbox.obj
 0001:000a14c0       __acrt_initialize_locks    00000001800a24c0 f   libucrtd:locks.obj
 0001:000a1530       __acrt_lock                00000001800a2530 f   libucrtd:locks.obj
 0001:000a1560       __acrt_uninitialize_locks  00000001800a2560 f   libucrtd:locks.obj
 0001:000a15c0       __acrt_unlock              00000001800a25c0 f   libucrtd:locks.obj
 0001:000a15f0       _lock_locales              00000001800a25f0 f   libucrtd:locks.obj
 0001:000a1610       _unlock_locales            00000001800a2610 f   libucrtd:locks.obj
 0001:000a1630       ??$?B$$A6AXH@Z@__crt_fast_encoded_nullptr_t@@QEBAP6AXH@ZXZ 00000001800a2630 f i libucrtd:signal.obj
 0001:000a16f0       ??$__crt_fast_decode_pointer@P6AXH@Z@@YAP6AXH@ZQ6AXH@Z@Z 00000001800a26f0 f i libucrtd:signal.obj
 0001:000a1730       ??$__crt_fast_encode_pointer@P6AXH@Z@@YAP6AXH@ZQ6AXH@Z@Z 00000001800a2730 f i libucrtd:signal.obj
 0001:000a19b0       ?initialize@?$dual_state_global@P6AXH@Z@__crt_state_management@@QEAAXQ6AXH@Z@Z 00000001800a29b0 f i libucrtd:signal.obj
 0001:000a1b30       ?value@?$dual_state_global@P6AXH@Z@__crt_state_management@@QEAAAEAP6AXH@ZXZ 00000001800a2b30 f i libucrtd:signal.obj
 0001:000a1b50       __acrt_get_sigabrt_handler 00000001800a2b50 f   libucrtd:signal.obj
 0001:000a1b80       __acrt_initialize_signal_handlers 00000001800a2b80 f   libucrtd:signal.obj
 0001:000a1be0       __fpecode                  00000001800a2be0 f   libucrtd:signal.obj
 0001:000a1c00       __pxcptinfoptrs            00000001800a2c00 f   libucrtd:signal.obj
 0001:000a1c20       raise                      00000001800a2c20 f   libucrtd:signal.obj
 0001:000a20e0       signal                     00000001800a30e0 f   libucrtd:signal.obj
 0001:000a23b0       _msize                     00000001800a33b0 f   libucrtd:msize.obj
 0001:000a23d0       _msize_base                00000001800a33d0 f   libucrtd:msize.obj
 0001:000a24a0       _realloc_base              00000001800a34a0 f   libucrtd:realloc_base.obj
 0001:000a2570       ??$?B$$A6AHPEA_WK_J@Z@__crt_fast_encoded_nullptr_t@@QEBAP6AHPEA_WK_J@ZXZ 00000001800a3570 f i libucrtd:winapi_thunks.obj
 0001:000a2630       ??$__crt_fast_decode_pointer@P6AHPEA_WK_J@Z@@YAP6AHPEA_WK_J@ZQ6AH0K1@Z@Z 00000001800a3630 f i libucrtd:winapi_thunks.obj
 0001:000a2670       ??$__crt_fast_decode_pointer@PEAX@@YAPEAXQEAX@Z 00000001800a3670 f i libucrtd:winapi_thunks.obj
 0001:000a26b0       ??$__crt_fast_encode_pointer@P6AHPEA_WK_J@Z@@YAP6AHPEA_WK_J@ZQ6AH0K1@Z@Z 00000001800a36b0 f i libucrtd:winapi_thunks.obj
 0001:000a3320       GetCurrentThreadEffectiveToken 00000001800a4320 f i libucrtd:winapi_thunks.obj
 0001:000a3330       __acrt_AppPolicyGetProcessTerminationMethodInternal 00000001800a4330 f   libucrtd:winapi_thunks.obj
 0001:000a3380       __acrt_AppPolicyGetShowDeveloperDiagnosticInternal 00000001800a4380 f   libucrtd:winapi_thunks.obj
 0001:000a33d0       __acrt_AppPolicyGetThreadInitializationTypeInternal 00000001800a43d0 f   libucrtd:winapi_thunks.obj
 0001:000a3420       __acrt_AppPolicyGetWindowingModelInternal 00000001800a4420 f   libucrtd:winapi_thunks.obj
 0001:000a3470       __acrt_AreFileApisANSI     00000001800a4470 f   libucrtd:winapi_thunks.obj
 0001:000a34b0       __acrt_CompareStringEx     00000001800a44b0 f   libucrtd:winapi_thunks.obj
 0001:000a3590       __acrt_EnumSystemLocalesEx 00000001800a4590 f   libucrtd:winapi_thunks.obj
 0001:000a3610       __acrt_FlsAlloc            00000001800a4610 f   libucrtd:winapi_thunks.obj
 0001:000a3660       __acrt_FlsFree             00000001800a4660 f   libucrtd:winapi_thunks.obj
 0001:000a36b0       __acrt_FlsGetValue         00000001800a46b0 f   libucrtd:winapi_thunks.obj
 0001:000a3700       __acrt_FlsSetValue         00000001800a4700 f   libucrtd:winapi_thunks.obj
 0001:000a3760       __acrt_GetDateFormatEx     00000001800a4760 f   libucrtd:winapi_thunks.obj
 0001:000a3820       __acrt_GetEnabledXStateFeatures 00000001800a4820 f   libucrtd:winapi_thunks.obj
 0001:000a3860       __acrt_GetLocaleInfoEx     00000001800a4860 f   libucrtd:winapi_thunks.obj
 0001:000a38e0       __acrt_GetSystemTimePreciseAsFileTime 00000001800a48e0 f   libucrtd:winapi_thunks.obj
 0001:000a3930       __acrt_GetTimeFormatEx     00000001800a4930 f   libucrtd:winapi_thunks.obj
 0001:000a39e0       __acrt_GetUserDefaultLocaleName 00000001800a49e0 f   libucrtd:winapi_thunks.obj
 0001:000a3a40       __acrt_GetXStateFeaturesMask 00000001800a4a40 f   libucrtd:winapi_thunks.obj
 0001:000a3a90       __acrt_InitializeCriticalSectionEx 00000001800a4a90 f   libucrtd:winapi_thunks.obj
 0001:000a3af0       __acrt_IsValidLocaleName   00000001800a4af0 f   libucrtd:winapi_thunks.obj
 0001:000a3b50       __acrt_LCIDToLocaleName    00000001800a4b50 f   libucrtd:winapi_thunks.obj
 0001:000a3bc0       __acrt_LCMapStringEx       00000001800a4bc0 f   libucrtd:winapi_thunks.obj
 0001:000a3ca0       __acrt_LocaleNameToLCID    00000001800a4ca0 f   libucrtd:winapi_thunks.obj
 0001:000a3cf0       __acrt_LocateXStateFeature 00000001800a4cf0 f   libucrtd:winapi_thunks.obj
 0001:000a3d50       __acrt_MessageBoxA         00000001800a4d50 f   libucrtd:winapi_thunks.obj
 0001:000a3db0       __acrt_MessageBoxW         00000001800a4db0 f   libucrtd:winapi_thunks.obj
 0001:000a3e10       __acrt_RoInitialize        00000001800a4e10 f   libucrtd:winapi_thunks.obj
 0001:000a3e50       __acrt_RoUninitialize      00000001800a4e50 f   libucrtd:winapi_thunks.obj
 0001:000a3e80       __acrt_RtlGenRandom        00000001800a4e80 f   libucrtd:winapi_thunks.obj
 0001:000a3ed0       __acrt_SetThreadStackGuarantee 00000001800a4ed0 f   libucrtd:winapi_thunks.obj
 0001:000a3f10       __acrt_can_show_message_box 00000001800a4f10 f   libucrtd:winapi_thunks.obj
 0001:000a3f50       __acrt_can_use_vista_locale_apis 00000001800a4f50 f   libucrtd:winapi_thunks.obj
 0001:000a3f80       __acrt_can_use_xstate_apis 00000001800a4f80 f   libucrtd:winapi_thunks.obj
 0001:000a3fb0       __acrt_eagerly_load_locale_apis 00000001800a4fb0 f   libucrtd:winapi_thunks.obj
 0001:000a3ff0       __acrt_get_parent_window   00000001800a4ff0 f   libucrtd:winapi_thunks.obj
 0001:000a4070       __acrt_initialize_winapi_thunks 00000001800a5070 f   libucrtd:winapi_thunks.obj
 0001:000a40f0       __acrt_is_interactive      00000001800a50f0 f   libucrtd:winapi_thunks.obj
 0001:000a41d0       __acrt_uninitialize_winapi_thunks 00000001800a51d0 f   libucrtd:winapi_thunks.obj
 0001:000a4270       _chvalidator               00000001800a5270 f   libucrtd:isctype.obj
 0001:000a42e0       _chvalidator_l             00000001800a52e0 f   libucrtd:isctype.obj
 0001:000a4390       _isctype                   00000001800a5390 f   libucrtd:isctype.obj
 0001:000a43e0       _isctype_l                 00000001800a53e0 f   libucrtd:isctype.obj
 0001:000a4610       _isleadbyte_fast_internal  00000001800a5610 f i libucrtd:isctype.obj
 0001:000a4640       ??$?RU__crt_stdio_stream_data@@@__crt_internal_free_policy@@QEBAXQEBU__crt_stdio_stream_data@@@Z 00000001800a5640 f i libucrtd:stream.obj
 0001:000a4670       ??0?$__crt_unique_heap_ptr@U__crt_stdio_stream_data@@U__crt_internal_free_policy@@@@QEAA@QEAU__crt_stdio_stream_data@@@Z 00000001800a5670 f i libucrtd:stream.obj
 0001:000a4690       ??0__crt_stdio_stream@@QEAA@QEAU__crt_stdio_stream_data@@@Z 00000001800a5690 f i libucrtd:stream.obj
 0001:000a46b0       ??0__crt_stdio_stream@@QEAA@XZ 00000001800a56b0 f i libucrtd:stream.obj
 0001:000a46d0       ??1?$__crt_unique_heap_ptr@U__crt_stdio_stream_data@@U__crt_internal_free_policy@@@@QEAA@XZ 00000001800a56d0 f i libucrtd:stream.obj
 0001:000a46f0       ?__acrt_stdio_allocate_stream@@YA?AV__crt_stdio_stream@@XZ 00000001800a56f0 f   libucrtd:stream.obj
 0001:000a47b0       ?__acrt_stdio_free_stream@@YAXV__crt_stdio_stream@@@Z 00000001800a57b0 f   libucrtd:stream.obj
 0001:000a4850       ?deallocate@__crt_stdio_stream@@QEAAXXZ 00000001800a5850 f i libucrtd:stream.obj
