 OPOSDeviceMonitor

 Timestamp is 61a7592e (Wed Dec  1 20:14:54 2021)

 Preferred load address is 0000000180000000

 Start         Length     Name                   Class
 0001:00000000 00000d90H .text$di                CODE
 0001:00000d90 000e3fe0H .text$mn                CODE
 0001:000e4d70 00000040H .text$mn$00             CODE
 0001:000e4db0 00001330H .text$x                 CODE
 0001:000e60e0 00000124H .text$yd                CODE
 0002:00000000 000006f8H .idata$5                DATA
 0002:000006f8 00000030H .00cfg                  DATA
 0002:00000728 00000008H .CRT$XCA                DATA
 0002:00000730 00000008H .CRT$XCL                DATA
 0002:00000738 000000d8H .CRT$XCU                DATA
 0002:00000810 00000008H .CRT$XCZ                DATA
 0002:00000818 00000008H .CRT$XIA                DATA
 0002:00000820 00000028H .CRT$XIC                DATA
 0002:00000848 00000008H .CRT$XIZ                DATA
 0002:00000850 00000008H .CRT$XLA                DATA
 0002:00000858 00000008H .CRT$XLZ                DATA
 0002:00000860 00000008H .CRT$XPA                DATA
 0002:00000868 00000010H .CRT$XPX                DATA
 0002:00000878 00000008H .CRT$XPXA               DATA
 0002:00000880 00000008H .CRT$XPZ                DATA
 0002:00000888 00000008H .CRT$XTA                DATA
 0002:00000890 00000010H .CRT$XTZ                DATA
 0002:00000898 00000000H .gehcont$y              DATA
 0002:00000898 00000000H .gfids$y                DATA
 0002:000008a0 0003bf60H .rdata                  DATA
 0002:0003c800 00000080H .rdata$CastGuardVftablesA DATA
 0002:0003c880 00000080H .rdata$CastGuardVftablesC DATA
 0002:0003c900 00000028H .rdata$T                DATA
 0002:0003c928 0000056cH .rdata$r                DATA
 0002:0003ce94 00000188H .rdata$voltmd           DATA
 0002:0003d01c 000004a4H .rdata$zzzdbg           DATA
 0002:0003d4c0 00000008H .rtc$IAA                DATA
 0002:0003d4c8 00000030H .rtc$IMZ                DATA
 0002:0003d4f8 00000008H .rtc$IZZ                DATA
 0002:0003d500 00000008H .rtc$TAA                DATA
 0002:0003d508 00000030H .rtc$TMZ                DATA
 0002:0003d538 00000008H .rtc$TZZ                DATA
 0002:0003d540 00000004H .tls                    DATA
 0002:0003d544 00000004H .tls$                   DATA
 0002:0003d548 00000008H .tls$ZZZ                DATA
 0002:0003d550 00009ed8H .xdata                  DATA
 0002:00047428 00000150H .xdata$x                DATA
 0002:00047578 00000008H ATL$__a                 DATA
 0002:00047580 00000010H ATL$__z                 DATA
 0002:00047590 000000b0H .edata                  DATA
 0002:00047640 00000078H .idata$2                DATA
 0002:000476b8 00000018H .idata$3                DATA
 0002:000476d0 000006f8H .idata$4                DATA
 0002:00047dc8 00000df0H .idata$6                DATA
 0003:00000000 00000ec8H .data                   DATA
 0003:00000ec8 000000a8H .data$r                 DATA
 0003:00000f70 000000f0H .data$rs                DATA
 0003:00001060 00003e7cH .bss                    DATA
 0004:00000000 0000c750H .pdata                  DATA
 0005:00000000 000000fcH _RDATA                  DATA
 0006:00000000 00000220H .rsrc$01                DATA
 0006:00000220 00003b58H .rsrc$02                DATA

  Address         Publics by Value              Rva+Base               Lib:Object

 0000:00000000       ___safe_se_handler_count   0000000000000000     <absolute>
 0000:00000000       __hybrid_auxiliary_iat     0000000000000000     <absolute>
 0000:00000000       __arm64x_redirection_metadata_count 0000000000000000     <absolute>
 0000:00000000       __guard_fids_count         0000000000000000     <absolute>
 0000:00000000       __guard_check_icall_a64n_fptr 0000000000000000     <absolute>
 0000:00000000       __arm64x_extra_rfe_table_size 0000000000000000     <absolute>
 0000:00000000       __hybrid_code_map_count    0000000000000000     <absolute>
 0000:00000000       __hybrid_auxiliary_iat_copy 0000000000000000     <absolute>
 0000:00000000       __guard_longjmp_table      0000000000000000     <absolute>
 0000:00000000       __arm64x_native_entrypoint 0000000000000000     <absolute>
 0000:00000000       __guard_iat_table          0000000000000000     <absolute>
 0000:00000000       __guard_eh_cont_count      0000000000000000     <absolute>
 0000:00000000       __guard_eh_cont_table      0000000000000000     <absolute>
 0000:00000000       __hybrid_code_map          0000000000000000     <absolute>
 0000:00000000       __dynamic_value_reloc_table 0000000000000000     <absolute>
 0000:00000000       __enclave_config           0000000000000000     <absolute>
 0000:00000000       __guard_longjmp_count      0000000000000000     <absolute>
 0000:00000000       __arm64x_extra_rfe_table   0000000000000000     <absolute>
 0000:00000000       ___safe_se_handler_table   0000000000000000     <absolute>
 0000:00000000       __guard_fids_table         0000000000000000     <absolute>
 0000:00000000       __x64_code_ranges_to_entry_points_count 0000000000000000     <absolute>
 0000:00000000       __guard_iat_count          0000000000000000     <absolute>
 0000:00000000       __x64_code_ranges_to_entry_points 0000000000000000     <absolute>
 0000:00000000       __AbsoluteZero             0000000000000000     <absolute>
 0000:00000000       __arm64x_redirection_metadata 0000000000000000     <absolute>
 0000:00000100       __guard_flags              0000000000000100     <absolute>
 0000:00000000       __ImageBase                0000000180000000     <linker-defined>
 0001:00000d90       ?_assert@@YAXPEB_W0I@Z     0000000180001d90 f   Assert.obj
 0001:00000e90       __local_stdio_printf_options 0000000180001e90 f i Assert.obj
 0001:00000ea0       __vswprintf_l              0000000180001ea0 f i Assert.obj
 0001:00000ef0       _swprintf                  0000000180001ef0 f i Assert.obj
 0001:00000f70       _vswprintf_c_l             0000000180001f70 f i Assert.obj
 0001:00000fe0       _vswprintf_l               0000000180001fe0 f i Assert.obj
 0001:00001030       ?cw_memcpy@@YAHPEADPEB_WH@Z 0000000180002030 f   CWString.obj
 0001:000010b0       ?cw_memcpy@@YAHPEA_WPEBDH@Z 00000001800020b0 f   CWString.obj
 0001:00001120       ?cw_memcpy@@YAHPEADPEBDH@Z 0000000180002120 f   CWString.obj
 0001:000011b0       ?cw_memcpy@@YAHPEA_WPEB_WH@Z 00000001800021b0 f   CWString.obj
 0001:00001210       ?cw_memset@@YAXPEADDH@Z    0000000180002210 f   CWString.obj
 0001:00001270       ?cw_memset@@YAXPEA_W_WH@Z  0000000180002270 f   CWString.obj
 0001:00001300       ?cw_strlen@@YAHPEBD@Z      0000000180002300 f   CWString.obj
 0001:00001360       ?cw_strlen@@YAHPEB_W@Z     0000000180002360 f   CWString.obj
 0001:000013c0       ?cw_strcpy@@YAHPEADPEB_W@Z 00000001800023c0 f   CWString.obj
 0001:00001400       ?cw_strcpy@@YAHPEA_WPEBD@Z 0000000180002400 f   CWString.obj
 0001:00001440       ?cw_strcpy@@YAHPEADPEBD@Z  0000000180002440 f   CWString.obj
 0001:00001480       ?cw_strcpy@@YAHPEA_WPEB_W@Z 0000000180002480 f   CWString.obj
 0001:000014c0       ?cw_strcat@@YAHPEADPEB_W@Z 00000001800024c0 f   CWString.obj
 0001:00001510       ?cw_strcat@@YAHPEA_WPEBD@Z 0000000180002510 f   CWString.obj
 0001:00001560       ?cw_strcat@@YAHPEADPEBD@Z  0000000180002560 f   CWString.obj
 0001:000015b0       ?cw_strcat@@YAHPEA_WPEB_W@Z 00000001800025b0 f   CWString.obj
 0001:00001600       ?cw_dup@@YAXPEBDAEAHAEAPEA_W1@Z 0000000180002600 f   CWString.obj
 0001:00001700       ?cw_dup@@YAXPEB_WAEAHAEAPEAD1@Z 0000000180002700 f   CWString.obj
 0001:000017e0       ?DupChar@_CW@@AEAAXXZ      00000001800027e0 f   CWString.obj
 0001:00001830       ?DupWide@_CW@@AEAAXXZ      0000000180002830 f   CWString.obj
 0001:00001880       ?GetCharsMbcs@_CW@@QEAAHXZ 0000000180002880 f   CWString.obj
 0001:000018e0       ?GetCharsWide@_CW@@QEAAHXZ 00000001800028e0 f   CWString.obj
 0001:00001940       ?SetVARIANT_BOOL@OposVariant@@QEAAXF@Z 0000000180002940 f   OposVariant.obj
 0001:000019a0       ?SetVARIANT_BOOL_Ptr@OposVariant@@QEAAXPEAFAEAJ@Z 00000001800029a0 f   OposVariant.obj
 0001:00001a00       ?GetLONG@OposVariant@@QEAAJXZ 0000000180002a00 f   OposVariant.obj
 0001:00001a60       ?ChangeLONG@OposVariant@@QEAAXPEAJAEAJ@Z 0000000180002a60 f   OposVariant.obj
 0001:00001b10       ?SetLONG@OposVariant@@QEAAXJ@Z 0000000180002b10 f   OposVariant.obj
 0001:00001b50       ?SetLONG_Ptr@OposVariant@@QEAAXPEAJAEAJ@Z 0000000180002b50 f   OposVariant.obj
 0001:00001bb0       ?ChangeCURRENCY@OposVariant@@QEAAXPEATtagCY@@AEAJ@Z 0000000180002bb0 f   OposVariant.obj
 0001:00001c60       ?SetCURRENCY@OposVariant@@QEAAXTtagCY@@@Z 0000000180002c60 f   OposVariant.obj
 0001:00001ca0       ?SetCURRENCY_Ptr@OposVariant@@QEAAXPEATtagCY@@AEAJ@Z 0000000180002ca0 f   OposVariant.obj
 0001:00001d00       ?ChangeBSTR@OposVariant@@QEAAXPEAPEA_WAEAJ@Z 0000000180002d00 f   OposVariant.obj
 0001:00001db0       ?SetBSTR@OposVariant@@QEAAXPEA_WAEAJ@Z 0000000180002db0 f   OposVariant.obj
 0001:00001e10       ?SetBSTR_Copy@OposVariant@@QEAAXPEA_WAEAJ@Z 0000000180002e10 f   OposVariant.obj
 0001:00001eb0       ?SetBSTR_OutPtr@OposVariant@@QEAA_NPEAPEA_WAEAJ@Z 0000000180002eb0 f   OposVariant.obj
 0001:00001f10       ?SetBSTR_InOutPtr@OposVariant@@QEAA_NPEAPEA_WAEAJ@Z 0000000180002f10 f   OposVariant.obj
 0001:00001f70       ?SetVARIANT@OposVariant@@QEAAXAEAUtagVARIANT@@GAEAJ@Z 0000000180002f70 f   OposVariant.obj
 0001:00002000       ?SetVARIANT_Ptr@OposVariant@@QEAAXAEAPEAUtagVARIANT@@GAEAJ@Z 0000000180003000 f   OposVariant.obj
 0001:000020a0       ?SetString@OposVariant@@QEAAXPEB_WAEAJ@Z 00000001800030a0 f   OposVariant.obj
 0001:00002130       ?SetDispatch_Ptr@OposVariant@@QEAAXPEAUIDispatch@@AEAJ@Z 0000000180003130 f   OposVariant.obj
 0001:000021b0       ??0OposDispParms@@QEAA@PEAVOposVariant@@H@Z 00000001800031b0 f   OposVariant.obj
 0001:000022b0       ??1OposDispParms@@QEAA@XZ  00000001800032b0 f   OposVariant.obj
 0001:000022f0       ??$AtlMultiply@_K@ATL@@YAJPEA_K_K1@Z 00000001800032f0 f i OposVariant.obj
 0001:00002360       ??0?$CHeapPtr@_WVCCRTAllocator@ATL@@@ATL@@QEAA@XZ 0000000180003360 f i OposVariant.obj
 0001:00002380       ??0?$CHeapPtrBase@_WVCCRTAllocator@ATL@@@ATL@@IEAA@XZ 0000000180003380 f i OposVariant.obj
 0001:000023a0       ??0?$CSimpleArray@GV?$CSimpleArrayEqualHelper@G@ATL@@@ATL@@QEAA@XZ 00000001800033a0 f i OposVariant.obj
 0001:000023e0       ??0?$CTraceCategoryEx@$00$0A@@ATL@@QEAA@PEB_W@Z 00000001800033e0 f i OposVariant.obj
 0001:00002410       ??0?$CTraceCategoryEx@$01$0A@@ATL@@QEAA@PEB_W@Z 0000000180003410 f i OposVariant.obj
 0001:00002440       ??0?$CTraceCategoryEx@$03$0A@@ATL@@QEAA@PEB_W@Z 0000000180003440 f i OposVariant.obj
 0001:00002470       ??0?$CTraceCategoryEx@$07$0A@@ATL@@QEAA@PEB_W@Z 0000000180003470 f i OposVariant.obj
 0001:000024a0       ??0?$CTraceCategoryEx@$0BA@$0A@@ATL@@QEAA@PEB_W@Z 00000001800034a0 f i OposVariant.obj
 0001:000024d0       ??0?$CTraceCategoryEx@$0BAA@$0A@@ATL@@QEAA@PEB_W@Z 00000001800034d0 f i OposVariant.obj
 0001:00002500       ??0?$CTraceCategoryEx@$0BAAA@$0A@@ATL@@QEAA@PEB_W@Z 0000000180003500 f i OposVariant.obj
 0001:00002530       ??0?$CTraceCategoryEx@$0BAAAA@$0A@@ATL@@QEAA@PEB_W@Z 0000000180003530 f i OposVariant.obj
 0001:00002560       ??0?$CTraceCategoryEx@$0BAAAAA@$0A@@ATL@@QEAA@PEB_W@Z 0000000180003560 f i OposVariant.obj
 0001:00002590       ??0?$CTraceCategoryEx@$0CA@$0A@@ATL@@QEAA@PEB_W@Z 0000000180003590 f i OposVariant.obj
 0001:000025c0       ??0?$CTraceCategoryEx@$0CAA@$0A@@ATL@@QEAA@PEB_W@Z 00000001800035c0 f i OposVariant.obj
 0001:000025f0       ??0?$CTraceCategoryEx@$0CAAA@$0A@@ATL@@QEAA@PEB_W@Z 00000001800035f0 f i OposVariant.obj
 0001:00002620       ??0?$CTraceCategoryEx@$0CAAAA@$0A@@ATL@@QEAA@PEB_W@Z 0000000180003620 f i OposVariant.obj
 0001:00002650       ??0?$CTraceCategoryEx@$0CAAAAA@$0A@@ATL@@QEAA@PEB_W@Z 0000000180003650 f i OposVariant.obj
 0001:00002680       ??0?$CTraceCategoryEx@$0EA@$0A@@ATL@@QEAA@PEB_W@Z 0000000180003680 f i OposVariant.obj
 0001:000026b0       ??0?$CTraceCategoryEx@$0EAA@$0A@@ATL@@QEAA@PEB_W@Z 00000001800036b0 f i OposVariant.obj
 0001:000026e0       ??0?$CTraceCategoryEx@$0EAAA@$0A@@ATL@@QEAA@PEB_W@Z 00000001800036e0 f i OposVariant.obj
 0001:00002710       ??0?$CTraceCategoryEx@$0EAAAA@$0A@@ATL@@QEAA@PEB_W@Z 0000000180003710 f i OposVariant.obj
 0001:00002740       ??0?$CTraceCategoryEx@$0EAAAAA@$0A@@ATL@@QEAA@PEB_W@Z 0000000180003740 f i OposVariant.obj
 0001:00002770       ??0?$CTraceCategoryEx@$0IA@$0A@@ATL@@QEAA@PEB_W@Z 0000000180003770 f i OposVariant.obj
 0001:000027a0       ??0?$CTraceCategoryEx@$0IAA@$0A@@ATL@@QEAA@PEB_W@Z 00000001800037a0 f i OposVariant.obj
 0001:000027d0       ??0?$CTraceCategoryEx@$0IAAA@$0A@@ATL@@QEAA@PEB_W@Z 00000001800037d0 f i OposVariant.obj
 0001:00002800       ??0?$CTraceCategoryEx@$0IAAAA@$0A@@ATL@@QEAA@PEB_W@Z 0000000180003800 f i OposVariant.obj
 0001:00002830       ??0CAtlComModule@ATL@@QEAA@XZ 0000000180003830 f i OposVariant.obj
 0001:00002940       ??0CAtlWinModule@ATL@@QEAA@XZ 0000000180003940 f i OposVariant.obj
 0001:000029e0       ??0CComCriticalSection@ATL@@QEAA@XZ 00000001800039e0 f i OposVariant.obj
 0001:00002a10       ??0CPreserveLastError@ATL@@QEAA@XZ 0000000180003a10 f i OposVariant.obj
 0001:00002a40       ??0CTraceFileAndLineInfo@ATL@@QEAA@PEBDH@Z 0000000180003a40 f i OposVariant.obj
 0001:00002a70       ??0_ATL_COM_MODULE70@ATL@@QEAA@XZ 0000000180003a70 f i OposVariant.obj
 0001:00002aa0       ??0_ATL_WIN_MODULE70@ATL@@QEAA@XZ 0000000180003aa0 f i OposVariant.obj
 0001:00002ae0       ??1?$CHeapPtr@_WVCCRTAllocator@ATL@@@ATL@@QEAA@XZ 0000000180003ae0 f i OposVariant.obj
 0001:00002b00       ??1?$CHeapPtrBase@_WVCCRTAllocator@ATL@@@ATL@@QEAA@XZ 0000000180003b00 f i OposVariant.obj
 0001:00002b20       ??1?$CSimpleArray@GV?$CSimpleArrayEqualHelper@G@ATL@@@ATL@@QEAA@XZ 0000000180003b20 f i OposVariant.obj
 0001:00002b40       ??1CAtlComModule@ATL@@QEAA@XZ 0000000180003b40 f i OposVariant.obj
 0001:00002b70       ??1CAtlWinModule@ATL@@QEAA@XZ 0000000180003b70 f i OposVariant.obj
 0001:00002ba0       ??1CComBSTR@ATL@@QEAA@XZ   0000000180003ba0 f i OposVariant.obj
 0001:00002bc0       ??1CComCriticalSection@ATL@@QEAA@XZ 0000000180003bc0 f i OposVariant.obj
 0001:00002bd0       ??1CPreserveLastError@ATL@@QEAA@XZ 0000000180003bd0 f i OposVariant.obj
 0001:00002bf0       ??1_ATL_COM_MODULE70@ATL@@QEAA@XZ 0000000180003bf0 f i OposVariant.obj
 0001:00002c20       ??1_ATL_WIN_MODULE70@ATL@@QEAA@XZ 0000000180003c20 f i OposVariant.obj
 0001:00002c60       ??1stringdispid@CComTypeInfoHolder@ATL@@QEAA@XZ 0000000180003c60 f i OposVariant.obj
 0001:00002c80       ??A?$CSimpleArray@GV?$CSimpleArrayEqualHelper@G@ATL@@@ATL@@QEAAAEAGH@Z 0000000180003c80 f i OposVariant.obj
 0001:00002d20       ??B?$CHeapPtrBase@_WVCCRTAllocator@ATL@@@ATL@@QEBAPEA_WXZ 0000000180003d20 f i OposVariant.obj
 0001:00002d30       ??B?$CTraceCategoryEx@$01$0A@@ATL@@QEAAIXZ 0000000180003d30 f i OposVariant.obj
 0001:00002d40       ??B?$CTraceCategoryEx@$0CA@$0A@@ATL@@QEAAIXZ 0000000180003d40 f i OposVariant.obj
 0001:00002d50       ??RCTraceFileAndLineInfo@ATL@@QEBAXHIPEB_WZZ 0000000180003d50 f i OposVariant.obj
 0001:00002e10       ??_Estringdispid@CComTypeInfoHolder@ATL@@QEAAPEAXI@Z 0000000180003e10 f i OposVariant.obj
 0001:00002eb0       ??_H@YAXPEAX_K1P6APEAX0@Z@Z 0000000180003eb0 f i OposVariant.obj
 0001:00002f30       ??_I@YAXPEAX_K1P6AX0@Z@Z   0000000180003f30 f i OposVariant.obj
 0001:00002fd0       ?Allocate@?$CHeapPtr@_WVCCRTAllocator@ATL@@@ATL@@QEAA_N_K@Z 0000000180003fd0 f i OposVariant.obj
 0001:00003050       ?Allocate@CCRTAllocator@ATL@@SAPEAX_K@Z 0000000180004050 f i OposVariant.obj
 0001:00003070       ?AllocateBytes@?$CHeapPtrBase@_WVCCRTAllocator@ATL@@@ATL@@QEAA_N_K@Z 0000000180004070 f i OposVariant.obj
 0001:000030f0       ?AtlWinModuleInit@ATL@@YAJPEAU_ATL_WIN_MODULE70@1@@Z 00000001800040f0 f i OposVariant.obj
 0001:000031e0       ?AtlWinModuleTerm@ATL@@YAJPEAU_ATL_WIN_MODULE70@1@PEAUHINSTANCE__@@@Z 00000001800041e0 f i OposVariant.obj
 0001:000032b0       ?Clear@OposVariant@@QEAAJXZ 00000001800042b0 f i OposVariant.obj
 0001:000032e0       ?Free@?$CHeapPtrBase@_WVCCRTAllocator@ATL@@@ATL@@QEAAXXZ 00000001800042e0 f i OposVariant.obj
 0001:00003310       ?Free@CCRTAllocator@ATL@@SAXPEAX@Z 0000000180004310 f i OposVariant.obj
 0001:00003330       ?GetCategoryName@CTrace@ATL@@CAPEA_WI@Z 0000000180004330 f i OposVariant.obj
 0001:000033a0       ?GetModuleInstance@CAtlBaseModule@ATL@@QEAAPEAUHINSTANCE__@@XZ 00000001800043a0 f i OposVariant.obj
 0001:000033c0       ?GetSize@?$CSimpleArray@GV?$CSimpleArrayEqualHelper@G@ATL@@@ATL@@QEBAHXZ 00000001800043c0 f i OposVariant.obj
 0001:000033d0       ?Init@CComCriticalSection@ATL@@QEAAJXZ 00000001800043d0 f i OposVariant.obj
 0001:00003420       ?RegisterCategory@CTrace@ATL@@SAXPEB_WI@Z 0000000180004420 f i OposVariant.obj
 0001:000034e0       ?RemoveAll@?$CSimpleArray@GV?$CSimpleArrayEqualHelper@G@ATL@@@ATL@@QEAAXXZ 00000001800044e0 f i OposVariant.obj
 0001:00003550       ?Term@CAtlComModule@ATL@@QEAAXXZ 0000000180004550 f i OposVariant.obj
 0001:00003620       ?Term@CAtlWinModule@ATL@@QEAAXXZ 0000000180004620 f i OposVariant.obj
 0001:00003650       ?Term@CComCriticalSection@ATL@@QEAAJXZ 0000000180004650 f i OposVariant.obj
 0001:00003670       ?TraceV@CTrace@ATL@@CAXPEBDHIIPEB_W@Z 0000000180004670 f i OposVariant.obj
 0001:00003920       ?TraceV@CTrace@ATL@@SAXPEBDHIIPEB_WPEAD@Z 0000000180004920 f i OposVariant.obj
 0001:00003ad0       ?_AtlInitializeCriticalSectionEx@ATL@@YAHPEAU_RTL_CRITICAL_SECTION@@KK@Z 0000000180004ad0 f i OposVariant.obj
 0001:00003b00       ?_AtlRaiseException@ATL@@YAXKK@Z 0000000180004b00 f i OposVariant.obj
 0001:00003b30       HRESULT_FROM_WIN32         0000000180004b30 f i OposVariant.obj
 0001:00003b70       _vswprintf_s_l             0000000180004b70 f i OposVariant.obj
 0001:00003be0       swprintf_s                 0000000180004be0 f i OposVariant.obj
 0001:00003c70       ?ObjectMain@CComObjectRootBase@ATL@@SAX_N@Z 0000000180004c70 f i DeviceMonitor.obj
 0001:00003c80       ?GetCategoryMap@CComObjectRootBase@ATL@@SAPEBU_ATL_CATMAP_ENTRY@2@XZ 0000000180004c80 f i DeviceMonitor.obj
 0001:00003c90       ?GetObjectDescription@?$CComCoClass@VCOPOSDeviceMonitor@@$1?CLSID_OPOSDeviceMonitor@@3U_GUID@@B@ATL@@SAPEB_WXZ 0000000180004c90 f i DeviceMonitor.obj
 0001:00003ca0       ?UpdateRegistry@COPOSDeviceMonitor@@SAJH@Z 0000000180004ca0 f i DeviceMonitor.obj
 0001:00003cd0       ?CreateInstance@?$CComCreator@V?$CComObjectCached@VCComClassFactory@ATL@@@ATL@@@ATL@@SAJPEAXAEBU_GUID@@PEAPEAX@Z 0000000180004cd0 f i DeviceMonitor.obj
 0001:00003ea0       ?CreateInstance@?$CComCreator2@V?$CComCreator@V?$CComObject@VCOPOSDeviceMonitor@@@ATL@@@ATL@@V?$CComCreator@V?$CComAggObject@VCOPOSDeviceMonitor@@@ATL@@@2@@ATL@@SAJPEAXAEBU_GUID@@PEAPEAX@Z 0000000180004ea0 f i DeviceMonitor.obj
 0001:00004090       DllGetClassObject          0000000180005090 f   DeviceMonitor.obj
 0001:000040d0       DllCanUnloadNow            00000001800050d0 f   DeviceMonitor.obj
 0001:00004110       DllRegisterServer          0000000180005110 f   DeviceMonitor.obj
 0001:00004140       DllUnregisterServer        0000000180005140 f   DeviceMonitor.obj
 0001:00004300       DllMain                    0000000180005300 f   DeviceMonitor.obj
 0001:00004370       ??$?2G@Wrapper@?$CSimpleArray@GV?$CSimpleArrayEqualHelper@G@ATL@@@ATL@@SAPEAX_KPEAG@Z 0000000180005370 f i DeviceMonitor.obj
 0001:00004390       ??$?2PEA_W@?$Wrapper@PEA_W@?$CSimpleMap@PEA_WPEA_WVCExpansionVectorEqualHelper@ATL@@@ATL@@SAPEAX_KPEAPEA_W@Z 0000000180005390 f i DeviceMonitor.obj
 0001:000043b0       ??$?4UITypeInfo2@@@?$CComPtr@UITypeInfo@@@ATL@@QEAAPEAUITypeInfo@@AEBV?$CComPtr@UITypeInfo2@@@1@@Z 00000001800053b0 f i DeviceMonitor.obj
 0001:00004410       ??$AtlAdd@_K@ATL@@YAJPEA_K_K1@Z 0000000180005410 f i DeviceMonitor.obj
 0001:00004470       ??$AtlAddThrow@_K@ATL@@YA_K_K0@Z 0000000180005470 f i DeviceMonitor.obj
 0001:000044e0       ??$AtlModuleRegisterWndClassInfoT@VAtlModuleRegisterWndClassInfoParamW@ATL@@@ATL@@YAGPEAU_ATL_BASE_MODULE70@0@PEAU_ATL_WIN_MODULE70@0@PEAU_ATL_WNDCLASSINFOW@0@PEAP6A_JPEAUHWND__@@I_K_J@ZVAtlModuleRegisterWndClassInfoParamW@0@@Z 00000001800054e0 f i DeviceMonitor.obj
 0001:00004ab0       ??$AtlMultiply@H@ATL@@YAJPEAHHH@Z 0000000180005ab0 f i DeviceMonitor.obj
 0001:00004b10       ??$AtlMultiply@K@ATL@@YAJPEAKKK@Z 0000000180005b10 f i DeviceMonitor.obj
 0001:00004b60       ??$AtlMultiplyThrow@_K@ATL@@YA_K_K0@Z 0000000180005b60 f i DeviceMonitor.obj
 0001:00004bd0       ??$QueryInterface@UIPersistStream@@@IUnknown@@QEAAJPEAPEAUIPersistStream@@@Z 0000000180005bd0 f i DeviceMonitor.obj
 0001:00004c00       ??$QueryInterface@UITypeInfo2@@@IUnknown@@QEAAJPEAPEAUITypeInfo2@@@Z 0000000180005c00 f i DeviceMonitor.obj
 0001:00004c30       ??0?$CAtlModuleT@VCComModule@ATL@@@ATL@@QEAA@XZ 0000000180005c30 f i DeviceMonitor.obj
 0001:00004c60       ??0?$CAtlSafeAllocBufferManager@VCCRTAllocator@ATL@@@_ATL_SAFE_ALLOCA_IMPL@ATL@@QEAA@XZ 0000000180005c60 f i DeviceMonitor.obj
 0001:00004c80       ??0?$CAutoVectorPtr@_W@ATL@@QEAA@XZ 0000000180005c80 f i DeviceMonitor.obj
 0001:00004ca0       ??0?$CComAggObject@VCOPOSDeviceMonitor@@@ATL@@QEAA@PEAX@Z 0000000180005ca0 f i DeviceMonitor.obj
 0001:00004d10       ??0?$CComContainedObject@VCOPOSDeviceMonitor@@@ATL@@QEAA@PEAX@Z 0000000180005d10 f i DeviceMonitor.obj
 0001:00004ea0       ??0?$CComCritSecLock@VCComCriticalSection@ATL@@@ATL@@QEAA@AEAVCComCriticalSection@1@_N@Z 0000000180005ea0 f i DeviceMonitor.obj
 0001:00004f00       ??0?$CComEnum@UIEnumConnectionPoints@@$1?_GUID_b196b285_bab4_101a_b69c_00aa00341d07@@3U__s_GUID@@BPEAUIConnectionPoint@@V?$_CopyInterface@UIConnectionPoint@@@ATL@@VCComSingleThreadModel@6@@ATL@@QEAA@XZ 0000000180005f00 f i DeviceMonitor.obj
 0001:00004f30       ??0?$CComEnum@UIEnumConnections@@$1?_GUID_b196b287_bab4_101a_b69c_00aa00341d07@@3U__s_GUID@@BUtagCONNECTDATA@@V?$_Copy@UtagCONNECTDATA@@@ATL@@VCComSingleThreadModel@6@@ATL@@QEAA@XZ 0000000180005f30 f i DeviceMonitor.obj
 0001:00004f60       ??0?$CComEnumImpl@UIEnumConnectionPoints@@$1?_GUID_b196b285_bab4_101a_b69c_00aa00341d07@@3U__s_GUID@@BPEAUIConnectionPoint@@V?$_CopyInterface@UIConnectionPoint@@@ATL@@@ATL@@QEAA@XZ 0000000180005f60 f i DeviceMonitor.obj
 0001:00004fd0       ??0?$CComEnumImpl@UIEnumConnections@@$1?_GUID_b196b287_bab4_101a_b69c_00aa00341d07@@3U__s_GUID@@BUtagCONNECTDATA@@V?$_Copy@UtagCONNECTDATA@@@ATL@@@ATL@@QEAA@XZ 0000000180005fd0 f i DeviceMonitor.obj
 0001:00005040       ??0?$CComObject@V?$CComEnum@UIEnumConnectionPoints@@$1?_GUID_b196b285_bab4_101a_b69c_00aa00341d07@@3U__s_GUID@@BPEAUIConnectionPoint@@V?$_CopyInterface@UIConnectionPoint@@@ATL@@VCComSingleThreadModel@6@@ATL@@@ATL@@QEAA@PEAX@Z 0000000180006040 f i DeviceMonitor.obj
 0001:00005090       ??0?$CComObject@V?$CComEnum@UIEnumConnections@@$1?_GUID_b196b287_bab4_101a_b69c_00aa00341d07@@3U__s_GUID@@BUtagCONNECTDATA@@V?$_Copy@UtagCONNECTDATA@@@ATL@@VCComSingleThreadModel@6@@ATL@@@ATL@@QEAA@PEAX@Z 0000000180006090 f i DeviceMonitor.obj
 0001:000050e0       ??0?$CComObject@VCOPOSDeviceMonitor@@@ATL@@QEAA@PEAX@Z 00000001800060e0 f i DeviceMonitor.obj
 0001:00005270       ??0?$CComObjectCached@VCComClassFactory@ATL@@@ATL@@QEAA@PEAX@Z 0000000180006270 f i DeviceMonitor.obj
 0001:000052b0       ??0?$CComObjectRootEx@VCComMultiThreadModel@ATL@@@ATL@@QEAA@XZ 00000001800062b0 f i DeviceMonitor.obj
 0001:000052e0       ??0?$CComObjectRootEx@VCComSingleThreadModel@ATL@@@ATL@@QEAA@XZ 00000001800062e0 f i DeviceMonitor.obj
 0001:00005300       ??0?$CComPtr@UIAdviseSink@@@ATL@@QEAA@PEAUIAdviseSink@@@Z 0000000180006300 f i DeviceMonitor.obj
 0001:00005330       ??0?$CComPtr@UICatRegister@@@ATL@@QEAA@XZ 0000000180006330 f i DeviceMonitor.obj
 0001:00005350       ??0?$CComPtr@UIConnectionPoint@@@ATL@@QEAA@XZ 0000000180006350 f i DeviceMonitor.obj
 0001:00005370       ??0?$CComPtr@UIConnectionPointContainer@@@ATL@@QEAA@XZ 0000000180006370 f i DeviceMonitor.obj
 0001:00005390       ??0?$CComPtr@UIDataObject@@@ATL@@QEAA@XZ 0000000180006390 f i DeviceMonitor.obj
 0001:000053b0       ??0?$CComPtr@UIDispatch@@@ATL@@QEAA@XZ 00000001800063b0 f i DeviceMonitor.obj
 0001:000053d0       ??0?$CComPtr@UIOleClientSite@@@ATL@@QEAA@PEAUIOleClientSite@@@Z 00000001800063d0 f i DeviceMonitor.obj
 0001:00005400       ??0?$CComPtr@UIOleControlSite@@@ATL@@QEAA@XZ 0000000180006400 f i DeviceMonitor.obj
 0001:00005420       ??0?$CComPtr@UIOleInPlaceActiveObject@@@ATL@@QEAA@XZ 0000000180006420 f i DeviceMonitor.obj
 0001:00005440       ??0?$CComPtr@UIOleInPlaceFrame@@@ATL@@QEAA@XZ 0000000180006440 f i DeviceMonitor.obj
 0001:00005460       ??0?$CComPtr@UIOleInPlaceObject@@@ATL@@QEAA@XZ 0000000180006460 f i DeviceMonitor.obj
 0001:00005480       ??0?$CComPtr@UIOleInPlaceUIWindow@@@ATL@@QEAA@XZ 0000000180006480 f i DeviceMonitor.obj
 0001:000054a0       ??0?$CComPtr@UIOleObject@@@ATL@@QEAA@XZ 00000001800064a0 f i DeviceMonitor.obj
 0001:000054c0       ??0?$CComPtr@UIPersistStream@@@ATL@@QEAA@XZ 00000001800064c0 f i DeviceMonitor.obj
 0001:000054e0       ??0?$CComPtr@UIPersistStreamInit@@@ATL@@QEAA@XZ 00000001800064e0 f i DeviceMonitor.obj
 0001:00005500       ??0?$CComPtr@UIPointerInactive@@@ATL@@QEAA@XZ 0000000180006500 f i DeviceMonitor.obj
 0001:00005520       ??0?$CComPtr@UIProvideClassInfo2@@@ATL@@QEAA@XZ 0000000180006520 f i DeviceMonitor.obj
 0001:00005540       ??0?$CComPtr@UISpecifyPropertyPages@@@ATL@@QEAA@XZ 0000000180006540 f i DeviceMonitor.obj
 0001:00005560       ??0?$CComPtr@UIStream@@@ATL@@QEAA@XZ 0000000180006560 f i DeviceMonitor.obj
 0001:00005580       ??0?$CComPtr@UITypeInfo2@@@ATL@@QEAA@XZ 0000000180006580 f i DeviceMonitor.obj
 0001:000055a0       ??0?$CComPtr@UITypeInfo@@@ATL@@QEAA@AEBV01@@Z 00000001800065a0 f i DeviceMonitor.obj
 0001:000055d0       ??0?$CComPtr@UITypeInfo@@@ATL@@QEAA@XZ 00000001800065d0 f i DeviceMonitor.obj
 0001:000055f0       ??0?$CComPtr@UITypeLib@@@ATL@@QEAA@XZ 00000001800065f0 f i DeviceMonitor.obj
 0001:00005610       ??0?$CComPtr@UIUnknown@@@ATL@@QEAA@AEBV01@@Z 0000000180006610 f i DeviceMonitor.obj
 0001:00005640       ??0?$CComPtr@UIUnknown@@@ATL@@QEAA@PEAUIUnknown@@@Z 0000000180006640 f i DeviceMonitor.obj
 0001:00005670       ??0?$CComPtr@UIUnknown@@@ATL@@QEAA@XZ 0000000180006670 f i DeviceMonitor.obj
 0001:00005690       ??0?$CComPtr@UIViewObjectEx@@@ATL@@QEAA@XZ 0000000180006690 f i DeviceMonitor.obj
 0001:000056b0       ??0?$CComPtrBase@UIAdviseSink@@@ATL@@IEAA@PEAUIAdviseSink@@@Z 00000001800066b0 f i DeviceMonitor.obj
 0001:00005700       ??0?$CComPtrBase@UICatRegister@@@ATL@@IEAA@XZ 0000000180006700 f i DeviceMonitor.obj
 0001:00005720       ??0?$CComPtrBase@UIConnectionPoint@@@ATL@@IEAA@XZ 0000000180006720 f i DeviceMonitor.obj
 0001:00005740       ??0?$CComPtrBase@UIConnectionPointContainer@@@ATL@@IEAA@XZ 0000000180006740 f i DeviceMonitor.obj
 0001:00005760       ??0?$CComPtrBase@UIDataObject@@@ATL@@IEAA@XZ 0000000180006760 f i DeviceMonitor.obj
 0001:00005780       ??0?$CComPtrBase@UIDispatch@@@ATL@@IEAA@XZ 0000000180006780 f i DeviceMonitor.obj
 0001:000057a0       ??0?$CComPtrBase@UIOleClientSite@@@ATL@@IEAA@PEAUIOleClientSite@@@Z 00000001800067a0 f i DeviceMonitor.obj
 0001:000057f0       ??0?$CComPtrBase@UIOleControlSite@@@ATL@@IEAA@XZ 00000001800067f0 f i DeviceMonitor.obj
 0001:00005810       ??0?$CComPtrBase@UIOleInPlaceActiveObject@@@ATL@@IEAA@XZ 0000000180006810 f i DeviceMonitor.obj
 0001:00005830       ??0?$CComPtrBase@UIOleInPlaceFrame@@@ATL@@IEAA@XZ 0000000180006830 f i DeviceMonitor.obj
 0001:00005850       ??0?$CComPtrBase@UIOleInPlaceObject@@@ATL@@IEAA@XZ 0000000180006850 f i DeviceMonitor.obj
 0001:00005870       ??0?$CComPtrBase@UIOleInPlaceUIWindow@@@ATL@@IEAA@XZ 0000000180006870 f i DeviceMonitor.obj
 0001:00005890       ??0?$CComPtrBase@UIOleObject@@@ATL@@IEAA@XZ 0000000180006890 f i DeviceMonitor.obj
 0001:000058b0       ??0?$CComPtrBase@UIPersistStream@@@ATL@@IEAA@XZ 00000001800068b0 f i DeviceMonitor.obj
 0001:000058d0       ??0?$CComPtrBase@UIPersistStreamInit@@@ATL@@IEAA@XZ 00000001800068d0 f i DeviceMonitor.obj
 0001:000058f0       ??0?$CComPtrBase@UIPointerInactive@@@ATL@@IEAA@XZ 00000001800068f0 f i DeviceMonitor.obj
 0001:00005910       ??0?$CComPtrBase@UIProvideClassInfo2@@@ATL@@IEAA@XZ 0000000180006910 f i DeviceMonitor.obj
 0001:00005930       ??0?$CComPtrBase@UISpecifyPropertyPages@@@ATL@@IEAA@XZ 0000000180006930 f i DeviceMonitor.obj
 0001:00005950       ??0?$CComPtrBase@UIStream@@@ATL@@IEAA@XZ 0000000180006950 f i DeviceMonitor.obj
 0001:00005970       ??0?$CComPtrBase@UITypeInfo2@@@ATL@@IEAA@XZ 0000000180006970 f i DeviceMonitor.obj
 0001:00005990       ??0?$CComPtrBase@UITypeInfo@@@ATL@@IEAA@PEAUITypeInfo@@@Z 0000000180006990 f i DeviceMonitor.obj
 0001:000059e0       ??0?$CComPtrBase@UITypeInfo@@@ATL@@IEAA@XZ 00000001800069e0 f i DeviceMonitor.obj
 0001:00005a00       ??0?$CComPtrBase@UITypeLib@@@ATL@@IEAA@XZ 0000000180006a00 f i DeviceMonitor.obj
 0001:00005a20       ??0?$CComPtrBase@UIUnknown@@@ATL@@IEAA@PEAUIUnknown@@@Z 0000000180006a20 f i DeviceMonitor.obj
 0001:00005a70       ??0?$CComPtrBase@UIUnknown@@@ATL@@IEAA@XZ 0000000180006a70 f i DeviceMonitor.obj
 0001:00005a90       ??0?$CComPtrBase@UIViewObjectEx@@@ATL@@IEAA@XZ 0000000180006a90 f i DeviceMonitor.obj
 0001:00005ab0       ??0?$CComQIPtr@UIOleControlSite@@$1?_GUID_b196b289_bab4_101a_b69c_00aa00341d07@@3U__s_GUID@@B@ATL@@QEAA@PEAUIUnknown@@@Z 0000000180006ab0 f i DeviceMonitor.obj
 0001:00005b10       ??0?$CComQIPtr@UIOleObject@@$1?_GUID_00000112_0000_0000_c000_000000000046@@3U__s_GUID@@B@ATL@@QEAA@XZ 0000000180006b10 f i DeviceMonitor.obj
 0001:00005b30       ??0?$CComQIPtr@UISpecifyPropertyPages@@$1?_GUID_b196b28b_bab4_101a_b69c_00aa00341d07@@3U__s_GUID@@B@ATL@@QEAA@XZ 0000000180006b30 f i DeviceMonitor.obj
 0001:00005b50       ??0?$CSimpleMap@PEA_WPEA_WVCExpansionVectorEqualHelper@ATL@@@ATL@@QEAA@XZ 0000000180006b50 f i DeviceMonitor.obj
 0001:00005b90       ??0?$CTempBuffer@E$0BAA@VCCRTAllocator@ATL@@@ATL@@QEAA@XZ 0000000180006b90 f i DeviceMonitor.obj
 0001:00005bb0       ??0?$CTempBuffer@_W$0BAA@VCCRTAllocator@ATL@@@ATL@@QEAA@XZ 0000000180006bb0 f i DeviceMonitor.obj
 0001:00005bd0       ??0?$CTempBuffer@_W$0EAA@VCCRTAllocator@ATL@@@ATL@@QEAA@XZ 0000000180006bd0 f i DeviceMonitor.obj
 0001:00005bf0       ??0?$Wrapper@PEA_W@?$CSimpleMap@PEA_WPEA_WVCExpansionVectorEqualHelper@ATL@@@ATL@@QEAA@AEBQEA_W@Z 0000000180006bf0 f i DeviceMonitor.obj
 0001:00005c20       ??0CAtlModule@ATL@@QEAA@XZ 0000000180006c20 f i DeviceMonitor.obj
 0001:00005d80       ??0CComAutoDeleteCriticalSection@ATL@@QEAA@XZ 0000000180006d80 f i DeviceMonitor.obj
 0001:00005da0       ??0CComBSTR@ATL@@QEAA@XZ   0000000180006da0 f i DeviceMonitor.obj
 0001:00005dc0       ??0CComClassFactory@ATL@@QEAA@XZ 0000000180006dc0 f i DeviceMonitor.obj
 0001:00005e00       ??0CComModule@ATL@@QEAA@XZ 0000000180006e00 f i DeviceMonitor.obj
 0001:00005e80       ??0CComObjectRootBase@ATL@@QEAA@XZ 0000000180006e80 f i DeviceMonitor.obj
 0001:00005ea0       ??0CComSafeDeleteCriticalSection@ATL@@QEAA@XZ 0000000180006ea0 f i DeviceMonitor.obj
 0001:00005ed0       ??0CComVariant@ATL@@QEAA@XZ 0000000180006ed0 f i DeviceMonitor.obj
 0001:00005f10       ??0CExpansionVector@ATL@@QEAA@XZ 0000000180006f10 f i DeviceMonitor.obj
 0001:00005f30       ??0CParseBuffer@CRegParser@ATL@@QEAA@H@Z 0000000180006f30 f i DeviceMonitor.obj
 0001:00005fb0       ??0CRegKey@ATL@@QEAA@PEAUHKEY__@@@Z 0000000180006fb0 f i DeviceMonitor.obj
 0001:00005ff0       ??0CRegKey@ATL@@QEAA@PEAVCAtlTransactionManager@1@@Z 0000000180006ff0 f i DeviceMonitor.obj
 0001:00006030       ??0CRegObject@ATL@@QEAA@XZ 0000000180007030 f i DeviceMonitor.obj
 0001:00006070       ??0CRegParser@ATL@@QEAA@PEAVCRegObject@1@@Z 0000000180007070 f i DeviceMonitor.obj
 0001:000060a0       ??0IClassFactory@@QEAA@XZ  00000001800070a0 f i DeviceMonitor.obj
 0001:000060c0       ??0IEnumConnectionPoints@@QEAA@XZ 00000001800070c0 f i DeviceMonitor.obj
 0001:000060e0       ??0IEnumConnections@@QEAA@XZ 00000001800070e0 f i DeviceMonitor.obj
 0001:00006100       ??0IRegistrarBase@@QEAA@XZ 0000000180007100 f i DeviceMonitor.obj
 0001:00006120       ??0IUnknown@@QEAA@XZ       0000000180007120 f i DeviceMonitor.obj
 0001:00006130       ??0ModuleLockHelper@ATL@@QEAA@XZ 0000000180007130 f i DeviceMonitor.obj
 0001:00006160       ??0OposVariant@@QEAA@XZ    0000000180007160 f i DeviceMonitor.obj
 0001:00006180       ??0Wrapper@?$CSimpleArray@GV?$CSimpleArrayEqualHelper@G@ATL@@@ATL@@QEAA@AEBG@Z 0000000180007180 f i DeviceMonitor.obj
 0001:000061b0       ??0_ATL_MODULE70@ATL@@QEAA@XZ 00000001800071b0 f i DeviceMonitor.obj
 0001:000061e0       ??0_ATL_MSG@ATL@@QEAA@PEAUHWND__@@I_K_JH@Z 00000001800071e0 f i DeviceMonitor.obj
 0001:00006270       ??0_U_MENUorID@ATL@@QEAA@I@Z 0000000180007270 f i DeviceMonitor.obj
 0001:00006290       ??0_U_RECT@ATL@@QEAA@AEAUtagRECT@@@Z 0000000180007290 f i DeviceMonitor.obj
 0001:000062b0       ??0stringdispid@CComTypeInfoHolder@ATL@@QEAA@XZ 00000001800072b0 f i DeviceMonitor.obj
 0001:000062f0       ??1?$CAtlModuleT@VCComModule@ATL@@@ATL@@UEAA@XZ 00000001800072f0 f i DeviceMonitor.obj
 0001:00006310       ??1?$CAtlSafeAllocBufferManager@VCCRTAllocator@ATL@@@_ATL_SAFE_ALLOCA_IMPL@ATL@@QEAA@XZ 0000000180007310 f i DeviceMonitor.obj
 0001:00006360       ??1?$CAutoVectorPtr@_W@ATL@@QEAA@XZ 0000000180007360 f i DeviceMonitor.obj
 0001:00006380       ??1?$CComAggObject@VCOPOSDeviceMonitor@@@ATL@@UEAA@XZ 0000000180007380 f i DeviceMonitor.obj
 0001:000063f0       ??1?$CComContainedObject@VCOPOSDeviceMonitor@@@ATL@@UEAA@XZ 00000001800073f0 f i DeviceMonitor.obj
 0001:00006410       ??1?$CComCritSecLock@VCComCriticalSection@ATL@@@ATL@@QEAA@XZ 0000000180007410 f i DeviceMonitor.obj
 0001:00006440       ??1?$CComEnum@UIEnumConnectionPoints@@$1?_GUID_b196b285_bab4_101a_b69c_00aa00341d07@@3U__s_GUID@@BPEAUIConnectionPoint@@V?$_CopyInterface@UIConnectionPoint@@@ATL@@VCComSingleThreadModel@6@@ATL@@UEAA@XZ 0000000180007440 f i DeviceMonitor.obj
 0001:00006470       ??1?$CComEnum@UIEnumConnections@@$1?_GUID_b196b287_bab4_101a_b69c_00aa00341d07@@3U__s_GUID@@BUtagCONNECTDATA@@V?$_Copy@UtagCONNECTDATA@@@ATL@@VCComSingleThreadModel@6@@ATL@@UEAA@XZ 0000000180007470 f i DeviceMonitor.obj
 0001:000064a0       ??1?$CComEnumImpl@UIEnumConnectionPoints@@$1?_GUID_b196b285_bab4_101a_b69c_00aa00341d07@@3U__s_GUID@@BPEAUIConnectionPoint@@V?$_CopyInterface@UIConnectionPoint@@@ATL@@@ATL@@UEAA@XZ 00000001800074a0 f i DeviceMonitor.obj
 0001:00006530       ??1?$CComEnumImpl@UIEnumConnections@@$1?_GUID_b196b287_bab4_101a_b69c_00aa00341d07@@3U__s_GUID@@BUtagCONNECTDATA@@V?$_Copy@UtagCONNECTDATA@@@ATL@@@ATL@@UEAA@XZ 0000000180007530 f i DeviceMonitor.obj
 0001:000065c0       ??1?$CComObject@V?$CComEnum@UIEnumConnectionPoints@@$1?_GUID_b196b285_bab4_101a_b69c_00aa00341d07@@3U__s_GUID@@BPEAUIConnectionPoint@@V?$_CopyInterface@UIConnectionPoint@@@ATL@@VCComSingleThreadModel@6@@ATL@@@ATL@@UEAA@XZ 00000001800075c0 f i DeviceMonitor.obj
 0001:00006620       ??1?$CComObject@V?$CComEnum@UIEnumConnections@@$1?_GUID_b196b287_bab4_101a_b69c_00aa00341d07@@3U__s_GUID@@BUtagCONNECTDATA@@V?$_Copy@UtagCONNECTDATA@@@ATL@@VCComSingleThreadModel@6@@ATL@@@ATL@@UEAA@XZ 0000000180007620 f i DeviceMonitor.obj
 0001:00006680       ??1?$CComObject@VCOPOSDeviceMonitor@@@ATL@@UEAA@XZ 0000000180007680 f i DeviceMonitor.obj
 0001:00006820       ??1?$CComObjectCached@VCComClassFactory@ATL@@@ATL@@UEAA@XZ 0000000180007820 f i DeviceMonitor.obj
 0001:00006870       ??1?$CComObjectRootEx@VCComMultiThreadModel@ATL@@@ATL@@QEAA@XZ 0000000180007870 f i DeviceMonitor.obj
 0001:000068a0       ??1?$CComObjectRootEx@VCComSingleThreadModel@ATL@@@ATL@@QEAA@XZ 00000001800078a0 f i DeviceMonitor.obj
 0001:000068c0       ??1?$CComPtr@UIAdviseSink@@@ATL@@QEAA@XZ 00000001800078c0 f i DeviceMonitor.obj
 0001:000068e0       ??1?$CComPtr@UICatRegister@@@ATL@@QEAA@XZ 00000001800078e0 f i DeviceMonitor.obj
 0001:00006900       ??1?$CComPtr@UIConnectionPoint@@@ATL@@QEAA@XZ 0000000180007900 f i DeviceMonitor.obj
 0001:00006920       ??1?$CComPtr@UIConnectionPointContainer@@@ATL@@QEAA@XZ 0000000180007920 f i DeviceMonitor.obj
 0001:00006940       ??1?$CComPtr@UIDataObject@@@ATL@@QEAA@XZ 0000000180007940 f i DeviceMonitor.obj
 0001:00006960       ??1?$CComPtr@UIDispatch@@@ATL@@QEAA@XZ 0000000180007960 f i DeviceMonitor.obj
 0001:00006980       ??1?$CComPtr@UIOleClientSite@@@ATL@@QEAA@XZ 0000000180007980 f i DeviceMonitor.obj
 0001:000069a0       ??1?$CComPtr@UIOleControlSite@@@ATL@@QEAA@XZ 00000001800079a0 f i DeviceMonitor.obj
 0001:000069c0       ??1?$CComPtr@UIOleInPlaceActiveObject@@@ATL@@QEAA@XZ 00000001800079c0 f i DeviceMonitor.obj
 0001:000069e0       ??1?$CComPtr@UIOleInPlaceFrame@@@ATL@@QEAA@XZ 00000001800079e0 f i DeviceMonitor.obj
 0001:00006a00       ??1?$CComPtr@UIOleInPlaceObject@@@ATL@@QEAA@XZ 0000000180007a00 f i DeviceMonitor.obj
 0001:00006a20       ??1?$CComPtr@UIOleInPlaceUIWindow@@@ATL@@QEAA@XZ 0000000180007a20 f i DeviceMonitor.obj
 0001:00006a40       ??1?$CComPtr@UIOleObject@@@ATL@@QEAA@XZ 0000000180007a40 f i DeviceMonitor.obj
 0001:00006a60       ??1?$CComPtr@UIPersistStream@@@ATL@@QEAA@XZ 0000000180007a60 f i DeviceMonitor.obj
 0001:00006a80       ??1?$CComPtr@UIPersistStreamInit@@@ATL@@QEAA@XZ 0000000180007a80 f i DeviceMonitor.obj
 0001:00006aa0       ??1?$CComPtr@UIPointerInactive@@@ATL@@QEAA@XZ 0000000180007aa0 f i DeviceMonitor.obj
 0001:00006ac0       ??1?$CComPtr@UIProvideClassInfo2@@@ATL@@QEAA@XZ 0000000180007ac0 f i DeviceMonitor.obj
 0001:00006ae0       ??1?$CComPtr@UISpecifyPropertyPages@@@ATL@@QEAA@XZ 0000000180007ae0 f i DeviceMonitor.obj
 0001:00006b00       ??1?$CComPtr@UIStream@@@ATL@@QEAA@XZ 0000000180007b00 f i DeviceMonitor.obj
 0001:00006b20       ??1?$CComPtr@UITypeInfo2@@@ATL@@QEAA@XZ 0000000180007b20 f i DeviceMonitor.obj
 0001:00006b40       ??1?$CComPtr@UITypeInfo@@@ATL@@QEAA@XZ 0000000180007b40 f i DeviceMonitor.obj
 0001:00006b60       ??1?$CComPtr@UITypeLib@@@ATL@@QEAA@XZ 0000000180007b60 f i DeviceMonitor.obj
 0001:00006b80       ??1?$CComPtr@UIUnknown@@@ATL@@QEAA@XZ 0000000180007b80 f i DeviceMonitor.obj
 0001:00006ba0       ??1?$CComPtr@UIViewObjectEx@@@ATL@@QEAA@XZ 0000000180007ba0 f i DeviceMonitor.obj
 0001:00006bc0       ??1?$CComPtrBase@UIAdviseSink@@@ATL@@QEAA@XZ 0000000180007bc0 f i DeviceMonitor.obj
 0001:00006c00       ??1?$CComPtrBase@UICatRegister@@@ATL@@QEAA@XZ 0000000180007c00 f i DeviceMonitor.obj
 0001:00006c40       ??1?$CComPtrBase@UIConnectionPoint@@@ATL@@QEAA@XZ 0000000180007c40 f i DeviceMonitor.obj
 0001:00006c80       ??1?$CComPtrBase@UIConnectionPointContainer@@@ATL@@QEAA@XZ 0000000180007c80 f i DeviceMonitor.obj
 0001:00006cc0       ??1?$CComPtrBase@UIDataObject@@@ATL@@QEAA@XZ 0000000180007cc0 f i DeviceMonitor.obj
 0001:00006d00       ??1?$CComPtrBase@UIDispatch@@@ATL@@QEAA@XZ 0000000180007d00 f i DeviceMonitor.obj
 0001:00006d40       ??1?$CComPtrBase@UIOleClientSite@@@ATL@@QEAA@XZ 0000000180007d40 f i DeviceMonitor.obj
 0001:00006d80       ??1?$CComPtrBase@UIOleControlSite@@@ATL@@QEAA@XZ 0000000180007d80 f i DeviceMonitor.obj
 0001:00006dc0       ??1?$CComPtrBase@UIOleInPlaceActiveObject@@@ATL@@QEAA@XZ 0000000180007dc0 f i DeviceMonitor.obj
 0001:00006e00       ??1?$CComPtrBase@UIOleInPlaceFrame@@@ATL@@QEAA@XZ 0000000180007e00 f i DeviceMonitor.obj
 0001:00006e40       ??1?$CComPtrBase@UIOleInPlaceObject@@@ATL@@QEAA@XZ 0000000180007e40 f i DeviceMonitor.obj
 0001:00006e80       ??1?$CComPtrBase@UIOleInPlaceUIWindow@@@ATL@@QEAA@XZ 0000000180007e80 f i DeviceMonitor.obj
 0001:00006ec0       ??1?$CComPtrBase@UIOleObject@@@ATL@@QEAA@XZ 0000000180007ec0 f i DeviceMonitor.obj
 0001:00006f00       ??1?$CComPtrBase@UIPersistStream@@@ATL@@QEAA@XZ 0000000180007f00 f i DeviceMonitor.obj
 0001:00006f40       ??1?$CComPtrBase@UIPersistStreamInit@@@ATL@@QEAA@XZ 0000000180007f40 f i DeviceMonitor.obj
 0001:00006f80       ??1?$CComPtrBase@UIPointerInactive@@@ATL@@QEAA@XZ 0000000180007f80 f i DeviceMonitor.obj
 0001:00006fc0       ??1?$CComPtrBase@UIProvideClassInfo2@@@ATL@@QEAA@XZ 0000000180007fc0 f i DeviceMonitor.obj
 0001:00007000       ??1?$CComPtrBase@UISpecifyPropertyPages@@@ATL@@QEAA@XZ 0000000180008000 f i DeviceMonitor.obj
 0001:00007040       ??1?$CComPtrBase@UIStream@@@ATL@@QEAA@XZ 0000000180008040 f i DeviceMonitor.obj
 0001:00007080       ??1?$CComPtrBase@UITypeInfo2@@@ATL@@QEAA@XZ 0000000180008080 f i DeviceMonitor.obj
 0001:000070c0       ??1?$CComPtrBase@UITypeInfo@@@ATL@@QEAA@XZ 00000001800080c0 f i DeviceMonitor.obj
 0001:00007100       ??1?$CComPtrBase@UITypeLib@@@ATL@@QEAA@XZ 0000000180008100 f i DeviceMonitor.obj
 0001:00007140       ??1?$CComPtrBase@UIUnknown@@@ATL@@QEAA@XZ 0000000180008140 f i DeviceMonitor.obj
 0001:00007180       ??1?$CComPtrBase@UIViewObjectEx@@@ATL@@QEAA@XZ 0000000180008180 f i DeviceMonitor.obj
 0001:000071c0       ??1?$CComQIPtr@UIOleControlSite@@$1?_GUID_b196b289_bab4_101a_b69c_00aa00341d07@@3U__s_GUID@@B@ATL@@QEAA@XZ 00000001800081c0 f i DeviceMonitor.obj
 0001:000071e0       ??1?$CComQIPtr@UIOleObject@@$1?_GUID_00000112_0000_0000_c000_000000000046@@3U__s_GUID@@B@ATL@@QEAA@XZ 00000001800081e0 f i DeviceMonitor.obj
 0001:00007200       ??1?$CComQIPtr@UISpecifyPropertyPages@@$1?_GUID_b196b28b_bab4_101a_b69c_00aa00341d07@@3U__s_GUID@@B@ATL@@QEAA@XZ 0000000180008200 f i DeviceMonitor.obj
 0001:00007220       ??1?$CSimpleMap@PEA_WPEA_WVCExpansionVectorEqualHelper@ATL@@@ATL@@QEAA@XZ 0000000180008220 f i DeviceMonitor.obj
 0001:00007240       ??1?$CTempBuffer@E$0BAA@VCCRTAllocator@ATL@@@ATL@@QEAA@XZ 0000000180008240 f i DeviceMonitor.obj
 0001:00007270       ??1?$CTempBuffer@_W$0BAA@VCCRTAllocator@ATL@@@ATL@@QEAA@XZ 0000000180008270 f i DeviceMonitor.obj
 0001:000072a0       ??1?$CTempBuffer@_W$0EAA@VCCRTAllocator@ATL@@@ATL@@QEAA@XZ 00000001800082a0 f i DeviceMonitor.obj
 0001:000072d0       ??1CAtlModule@ATL@@UEAA@XZ 00000001800082d0 f i DeviceMonitor.obj
 0001:00007300       ??1CComAutoDeleteCriticalSection@ATL@@QEAA@XZ 0000000180008300 f i DeviceMonitor.obj
 0001:00007320       ??1CComClassFactory@ATL@@UEAA@XZ 0000000180008320 f i DeviceMonitor.obj
 0001:00007350       ??1CComModule@ATL@@UEAA@XZ 0000000180008350 f i DeviceMonitor.obj
 0001:00007380       ??1CComObjectRootBase@ATL@@QEAA@XZ 0000000180008380 f i DeviceMonitor.obj
 0001:00007390       ??1CComSafeDeleteCriticalSection@ATL@@QEAA@XZ 0000000180008390 f i DeviceMonitor.obj
 0001:000073d0       ??1CComVariant@ATL@@QEAA@XZ 00000001800083d0 f i DeviceMonitor.obj
 0001:00007430       ??1CExpansionVector@ATL@@QEAA@XZ 0000000180008430 f i DeviceMonitor.obj
 0001:00007460       ??1CParseBuffer@CRegParser@ATL@@QEAA@XZ 0000000180008460 f i DeviceMonitor.obj
 0001:00007480       ??1CRegKey@ATL@@QEAA@XZ    0000000180008480 f i DeviceMonitor.obj
 0001:000074a0       ??1CRegObject@ATL@@UEAA@XZ 00000001800084a0 f i DeviceMonitor.obj
 0001:000074e0       ??1ModuleLockHelper@ATL@@QEAA@XZ 00000001800084e0 f i DeviceMonitor.obj
 0001:00007510       ??1OposVariant@@QEAA@XZ    0000000180008510 f i DeviceMonitor.obj
 0001:00007540       ??1_ATL_MODULE70@ATL@@QEAA@XZ 0000000180008540 f i DeviceMonitor.obj
 0001:00007570       ??4?$CComPtr@UIAdviseSink@@@ATL@@QEAAPEAUIAdviseSink@@PEAU2@@Z 0000000180008570 f i DeviceMonitor.obj
 0001:000075d0       ??4?$CComPtr@UIOleClientSite@@@ATL@@QEAAPEAUIOleClientSite@@PEAU2@@Z 00000001800085d0 f i DeviceMonitor.obj
 0001:00007630       ??4?$CComPtr@UIUnknown@@@ATL@@QEAAPEAUIUnknown@@PEAU2@@Z 0000000180008630 f i DeviceMonitor.obj
 0001:00007690       ??4?$CComQIPtr@UIOleObject@@$1?_GUID_00000112_0000_0000_c000_000000000046@@3U__s_GUID@@B@ATL@@QEAAPEAUIOleObject@@PEAUIUnknown@@@Z 0000000180008690 f i DeviceMonitor.obj
 0001:000076e0       ??4?$CComQIPtr@UISpecifyPropertyPages@@$1?_GUID_b196b28b_bab4_101a_b69c_00aa00341d07@@3U__s_GUID@@B@ATL@@QEAAPEAUISpecifyPropertyPages@@PEAUIUnknown@@@Z 00000001800086e0 f i DeviceMonitor.obj
 0001:00007730       ??7?$CComPtrBase@UIOleClientSite@@@ATL@@QEBA_NXZ 0000000180008730 f i DeviceMonitor.obj
 0001:00007760       ??7?$CComPtrBase@UIOleInPlaceSiteWindowless@@@ATL@@QEBA_NXZ 0000000180008760 f i DeviceMonitor.obj
 0001:00007790       ??7CComBSTR@ATL@@QEBA_NXZ  0000000180008790 f i DeviceMonitor.obj
 0001:000077c0       ??8?$CComPtrBase@UIConnectionPointContainer@@@ATL@@QEBA_NPEAUIConnectionPointContainer@@@Z 00000001800087c0 f i DeviceMonitor.obj
 0001:00007800       ??8?$CComPtrBase@UIDataAdviseHolder@@@ATL@@QEBA_NPEAUIDataAdviseHolder@@@Z 0000000180008800 f i DeviceMonitor.obj
 0001:00007840       ??8?$CComPtrBase@UIOleAdviseHolder@@@ATL@@QEBA_NPEAUIOleAdviseHolder@@@Z 0000000180008840 f i DeviceMonitor.obj
 0001:00007880       ??8?$CComPtrBase@UIOleClientSite@@@ATL@@QEBA_NPEAUIOleClientSite@@@Z 0000000180008880 f i DeviceMonitor.obj
 0001:000078c0       ??8?$CComPtrBase@UIOleControlSite@@@ATL@@QEBA_NPEAUIOleControlSite@@@Z 00000001800088c0 f i DeviceMonitor.obj
 0001:00007900       ??8?$CComPtrBase@UIOleInPlaceObject@@@ATL@@QEBA_NPEAUIOleInPlaceObject@@@Z 0000000180008900 f i DeviceMonitor.obj
 0001:00007940       ??8?$CComPtrBase@UIOleInPlaceSiteWindowless@@@ATL@@QEBA_NPEAUIOleInPlaceSiteWindowless@@@Z 0000000180008940 f i DeviceMonitor.obj
 0001:00007980       ??8?$CComPtrBase@UIOleObject@@@ATL@@QEBA_NPEAUIOleObject@@@Z 0000000180008980 f i DeviceMonitor.obj
 0001:000079c0       ??8?$CComPtrBase@UIPersistStream@@@ATL@@QEBA_NPEAUIPersistStream@@@Z 00000001800089c0 f i DeviceMonitor.obj
 0001:00007a00       ??8?$CComPtrBase@UIPersistStreamInit@@@ATL@@QEBA_NPEAUIPersistStreamInit@@@Z 0000000180008a00 f i DeviceMonitor.obj
 0001:00007a40       ??8?$CComPtrBase@UIPointerInactive@@@ATL@@QEBA_NPEAUIPointerInactive@@@Z 0000000180008a40 f i DeviceMonitor.obj
 0001:00007a80       ??8?$CComPtrBase@UIUnknown@@@ATL@@QEBA_NPEAUIUnknown@@@Z 0000000180008a80 f i DeviceMonitor.obj
 0001:00007ac0       ??8?$CComPtrBase@UIViewObjectEx@@@ATL@@QEBA_NPEAUIViewObjectEx@@@Z 0000000180008ac0 f i DeviceMonitor.obj
 0001:00007b00       ??8CComBSTR@ATL@@QEBA_NH@Z 0000000180008b00 f i DeviceMonitor.obj
 0001:00007b60       ??9?$CComPtrBase@UIConnectionPointContainer@@@ATL@@QEBA_NPEAUIConnectionPointContainer@@@Z 0000000180008b60 f i DeviceMonitor.obj
 0001:00007bb0       ??9?$CComPtrBase@UIDataAdviseHolder@@@ATL@@QEBA_NPEAUIDataAdviseHolder@@@Z 0000000180008bb0 f i DeviceMonitor.obj
 0001:00007c00       ??9?$CComPtrBase@UIOleAdviseHolder@@@ATL@@QEBA_NPEAUIOleAdviseHolder@@@Z 0000000180008c00 f i DeviceMonitor.obj
 0001:00007c50       ??9?$CComPtrBase@UIOleClientSite@@@ATL@@QEBA_NPEAUIOleClientSite@@@Z 0000000180008c50 f i DeviceMonitor.obj
 0001:00007ca0       ??9?$CComPtrBase@UIOleControlSite@@@ATL@@QEBA_NPEAUIOleControlSite@@@Z 0000000180008ca0 f i DeviceMonitor.obj
 0001:00007cf0       ??9?$CComPtrBase@UIOleInPlaceObject@@@ATL@@QEBA_NPEAUIOleInPlaceObject@@@Z 0000000180008cf0 f i DeviceMonitor.obj
 0001:00007d40       ??9?$CComPtrBase@UIOleInPlaceSiteWindowless@@@ATL@@QEBA_NPEAUIOleInPlaceSiteWindowless@@@Z 0000000180008d40 f i DeviceMonitor.obj
 0001:00007d90       ??9?$CComPtrBase@UIOleObject@@@ATL@@QEBA_NPEAUIOleObject@@@Z 0000000180008d90 f i DeviceMonitor.obj
 0001:00007de0       ??9?$CComPtrBase@UIPersistStream@@@ATL@@QEBA_NPEAUIPersistStream@@@Z 0000000180008de0 f i DeviceMonitor.obj
 0001:00007e30       ??9?$CComPtrBase@UIPersistStreamInit@@@ATL@@QEBA_NPEAUIPersistStreamInit@@@Z 0000000180008e30 f i DeviceMonitor.obj
 0001:00007e80       ??9?$CComPtrBase@UIPointerInactive@@@ATL@@QEBA_NPEAUIPointerInactive@@@Z 0000000180008e80 f i DeviceMonitor.obj
 0001:00007ed0       ??9?$CComPtrBase@UIUnknown@@@ATL@@QEBA_NPEAUIUnknown@@@Z 0000000180008ed0 f i DeviceMonitor.obj
 0001:00007f20       ??9?$CComPtrBase@UIViewObjectEx@@@ATL@@QEBA_NPEAUIViewObjectEx@@@Z 0000000180008f20 f i DeviceMonitor.obj
 0001:00007f70       ??9CComBSTR@ATL@@QEBA_NH@Z 0000000180008f70 f i DeviceMonitor.obj
 0001:00007fb0       ??B?$CComPtrBase@UIAdviseSink@@@ATL@@QEBAPEAUIAdviseSink@@XZ 0000000180008fb0 f i DeviceMonitor.obj
 0001:00007fc0       ??B?$CComPtrBase@UIDataAdviseHolder@@@ATL@@QEBAPEAUIDataAdviseHolder@@XZ 0000000180008fc0 f i DeviceMonitor.obj
 0001:00007fd0       ??B?$CComPtrBase@UIDataObject@@@ATL@@QEBAPEAUIDataObject@@XZ 0000000180008fd0 f i DeviceMonitor.obj
 0001:00007fe0       ??B?$CComPtrBase@UIOleAdviseHolder@@@ATL@@QEBAPEAUIOleAdviseHolder@@XZ 0000000180008fe0 f i DeviceMonitor.obj
 0001:00007ff0       ??B?$CComPtrBase@UIOleClientSite@@@ATL@@QEBAPEAUIOleClientSite@@XZ 0000000180008ff0 f i DeviceMonitor.obj
 0001:00008000       ??B?$CComPtrBase@UIOleControlSite@@@ATL@@QEBAPEAUIOleControlSite@@XZ 0000000180009000 f i DeviceMonitor.obj
 0001:00008010       ??B?$CComPtrBase@UIOleInPlaceActiveObject@@@ATL@@QEBAPEAUIOleInPlaceActiveObject@@XZ 0000000180009010 f i DeviceMonitor.obj
 0001:00008020       ??B?$CComPtrBase@UIOleInPlaceFrame@@@ATL@@QEBAPEAUIOleInPlaceFrame@@XZ 0000000180009020 f i DeviceMonitor.obj
 0001:00008030       ??B?$CComPtrBase@UIOleInPlaceSiteWindowless@@@ATL@@QEBAPEAUIOleInPlaceSiteWindowless@@XZ 0000000180009030 f i DeviceMonitor.obj
 0001:00008040       ??B?$CComPtrBase@UIOleInPlaceUIWindow@@@ATL@@QEBAPEAUIOleInPlaceUIWindow@@XZ 0000000180009040 f i DeviceMonitor.obj
 0001:00008050       ??B?$CComPtrBase@UIOleObject@@@ATL@@QEBAPEAUIOleObject@@XZ 0000000180009050 f i DeviceMonitor.obj
 0001:00008060       ??B?$CComPtrBase@UIPersistStream@@@ATL@@QEBAPEAUIPersistStream@@XZ 0000000180009060 f i DeviceMonitor.obj
 0001:00008070       ??B?$CComPtrBase@UIProvideClassInfo2@@@ATL@@QEBAPEAUIProvideClassInfo2@@XZ 0000000180009070 f i DeviceMonitor.obj
 0001:00008080       ??B?$CComPtrBase@UISpecifyPropertyPages@@@ATL@@QEBAPEAUISpecifyPropertyPages@@XZ 0000000180009080 f i DeviceMonitor.obj
 0001:00008090       ??B?$CComPtrBase@UIStream@@@ATL@@QEBAPEAUIStream@@XZ 0000000180009090 f i DeviceMonitor.obj
 0001:000080a0       ??B?$CComPtrBase@UITypeInfo2@@@ATL@@QEBAPEAUITypeInfo2@@XZ 00000001800090a0 f i DeviceMonitor.obj
 0001:000080b0       ??B?$CComPtrBase@UITypeInfo@@@ATL@@QEBAPEAUITypeInfo@@XZ 00000001800090b0 f i DeviceMonitor.obj
 0001:000080c0       ??B?$CComPtrBase@UITypeLib@@@ATL@@QEBAPEAUITypeLib@@XZ 00000001800090c0 f i DeviceMonitor.obj
 0001:000080d0       ??B?$CComPtrBase@UIUnknown@@@ATL@@QEBAPEAUIUnknown@@XZ 00000001800090d0 f i DeviceMonitor.obj
 0001:000080e0       ??B?$CTempBuffer@E$0BAA@VCCRTAllocator@ATL@@@ATL@@QEBAPEAEXZ 00000001800090e0 f i DeviceMonitor.obj
 0001:000080f0       ??B?$CTempBuffer@_W$0BAA@VCCRTAllocator@ATL@@@ATL@@QEBAPEA_WXZ 00000001800090f0 f i DeviceMonitor.obj
 0001:00008100       ??B?$CTempBuffer@_W$0EAA@VCCRTAllocator@ATL@@@ATL@@QEBAPEA_WXZ 0000000180009100 f i DeviceMonitor.obj
 0001:00008110       ??B?$CTraceCategoryEx@$00$0A@@ATL@@QEAAIXZ 0000000180009110 f i DeviceMonitor.obj
 0001:00008120       ??B?$CTraceCategoryEx@$07$0A@@ATL@@QEAAIXZ 0000000180009120 f i DeviceMonitor.obj
 0001:00008130       ??B?$CTraceCategoryEx@$0CAAA@$0A@@ATL@@QEAAIXZ 0000000180009130 f i DeviceMonitor.obj
 0001:00008140       ??B?$CTraceCategoryEx@$0EA@$0A@@ATL@@QEAAIXZ 0000000180009140 f i DeviceMonitor.obj
 0001:00008150       ??B?$CTraceCategoryEx@$0IAA@$0A@@ATL@@QEAAIXZ 0000000180009150 f i DeviceMonitor.obj
 0001:00008160       ??BCComBSTR@ATL@@QEBAPEA_WXZ 0000000180009160 f i DeviceMonitor.obj
 0001:00008170       ??BCRegKey@ATL@@QEBAPEAUHKEY__@@XZ 0000000180009170 f i DeviceMonitor.obj
 0001:00008180       ??C?$CComPtrBase@UIAdviseSink@@@ATL@@QEBAPEAV?$_NoAddRefReleaseOnCComPtr@UIAdviseSink@@@1@XZ 0000000180009180 f i DeviceMonitor.obj
 0001:000081e0       ??C?$CComPtrBase@UICatRegister@@@ATL@@QEBAPEAV?$_NoAddRefReleaseOnCComPtr@UICatRegister@@@1@XZ 00000001800091e0 f i DeviceMonitor.obj
 0001:00008240       ??C?$CComPtrBase@UIConnectionPoint@@@ATL@@QEBAPEAV?$_NoAddRefReleaseOnCComPtr@UIConnectionPoint@@@1@XZ 0000000180009240 f i DeviceMonitor.obj
 0001:000082a0       ??C?$CComPtrBase@UIConnectionPointContainer@@@ATL@@QEBAPEAV?$_NoAddRefReleaseOnCComPtr@UIConnectionPointContainer@@@1@XZ 00000001800092a0 f i DeviceMonitor.obj
 0001:00008300       ??C?$CComPtrBase@UIDataAdviseHolder@@@ATL@@QEBAPEAV?$_NoAddRefReleaseOnCComPtr@UIDataAdviseHolder@@@1@XZ 0000000180009300 f i DeviceMonitor.obj
 0001:00008360       ??C?$CComPtrBase@UIOleAdviseHolder@@@ATL@@QEBAPEAV?$_NoAddRefReleaseOnCComPtr@UIOleAdviseHolder@@@1@XZ 0000000180009360 f i DeviceMonitor.obj
 0001:000083c0       ??C?$CComPtrBase@UIOleClientSite@@@ATL@@QEBAPEAV?$_NoAddRefReleaseOnCComPtr@UIOleClientSite@@@1@XZ 00000001800093c0 f i DeviceMonitor.obj
 0001:00008420       ??C?$CComPtrBase@UIOleControlSite@@@ATL@@QEBAPEAV?$_NoAddRefReleaseOnCComPtr@UIOleControlSite@@@1@XZ 0000000180009420 f i DeviceMonitor.obj
 0001:00008480       ??C?$CComPtrBase@UIOleInPlaceFrame@@@ATL@@QEBAPEAV?$_NoAddRefReleaseOnCComPtr@UIOleInPlaceFrame@@@1@XZ 0000000180009480 f i DeviceMonitor.obj
 0001:000084e0       ??C?$CComPtrBase@UIOleInPlaceObject@@@ATL@@QEBAPEAV?$_NoAddRefReleaseOnCComPtr@UIOleInPlaceObject@@@1@XZ 00000001800094e0 f i DeviceMonitor.obj
 0001:00008540       ??C?$CComPtrBase@UIOleInPlaceSiteWindowless@@@ATL@@QEBAPEAV?$_NoAddRefReleaseOnCComPtr@UIOleInPlaceSiteWindowless@@@1@XZ 0000000180009540 f i DeviceMonitor.obj
 0001:000085a0       ??C?$CComPtrBase@UIOleInPlaceUIWindow@@@ATL@@QEBAPEAV?$_NoAddRefReleaseOnCComPtr@UIOleInPlaceUIWindow@@@1@XZ 00000001800095a0 f i DeviceMonitor.obj
 0001:00008600       ??C?$CComPtrBase@UIOleObject@@@ATL@@QEBAPEAV?$_NoAddRefReleaseOnCComPtr@UIOleObject@@@1@XZ 0000000180009600 f i DeviceMonitor.obj
 0001:00008660       ??C?$CComPtrBase@UIPersistStream@@@ATL@@QEBAPEAV?$_NoAddRefReleaseOnCComPtr@UIPersistStream@@@1@XZ 0000000180009660 f i DeviceMonitor.obj
 0001:000086c0       ??C?$CComPtrBase@UIPersistStreamInit@@@ATL@@QEBAPEAV?$_NoAddRefReleaseOnCComPtr@UIPersistStreamInit@@@1@XZ 00000001800096c0 f i DeviceMonitor.obj
 0001:00008720       ??C?$CComPtrBase@UIPointerInactive@@@ATL@@QEBAPEAV?$_NoAddRefReleaseOnCComPtr@UIPointerInactive@@@1@XZ 0000000180009720 f i DeviceMonitor.obj
 0001:00008780       ??C?$CComPtrBase@UIProvideClassInfo2@@@ATL@@QEBAPEAV?$_NoAddRefReleaseOnCComPtr@UIProvideClassInfo2@@@1@XZ 0000000180009780 f i DeviceMonitor.obj
 0001:000087e0       ??C?$CComPtrBase@UISpecifyPropertyPages@@@ATL@@QEBAPEAV?$_NoAddRefReleaseOnCComPtr@UISpecifyPropertyPages@@@1@XZ 00000001800097e0 f i DeviceMonitor.obj
 0001:00008840       ??C?$CComPtrBase@UITypeInfo@@@ATL@@QEBAPEAV?$_NoAddRefReleaseOnCComPtr@UITypeInfo@@@1@XZ 0000000180009840 f i DeviceMonitor.obj
 0001:000088a0       ??C?$CComPtrBase@UITypeLib@@@ATL@@QEBAPEAV?$_NoAddRefReleaseOnCComPtr@UITypeLib@@@1@XZ 00000001800098a0 f i DeviceMonitor.obj
 0001:00008900       ??C?$CComPtrBase@UIUnknown@@@ATL@@QEBAPEAV?$_NoAddRefReleaseOnCComPtr@UIUnknown@@@1@XZ 0000000180009900 f i DeviceMonitor.obj
 0001:00008960       ??C?$CComPtrBase@UIViewObjectEx@@@ATL@@QEBAPEAV?$_NoAddRefReleaseOnCComPtr@UIViewObjectEx@@@1@XZ 0000000180009960 f i DeviceMonitor.obj
 0001:000089c0       ??I?$CComPtrBase@UICatRegister@@@ATL@@QEAAPEAPEAUICatRegister@@XZ 00000001800099c0 f i DeviceMonitor.obj
 0001:00008a20       ??I?$CComPtrBase@UIConnectionPoint@@@ATL@@QEAAPEAPEAUIConnectionPoint@@XZ 0000000180009a20 f i DeviceMonitor.obj
 0001:00008a80       ??I?$CComPtrBase@UIConnectionPointContainer@@@ATL@@QEAAPEAPEAUIConnectionPointContainer@@XZ 0000000180009a80 f i DeviceMonitor.obj
 0001:00008ae0       ??I?$CComPtrBase@UIDataAdviseHolder@@@ATL@@QEAAPEAPEAUIDataAdviseHolder@@XZ 0000000180009ae0 f i DeviceMonitor.obj
 0001:00008b40       ??I?$CComPtrBase@UIDataObject@@@ATL@@QEAAPEAPEAUIDataObject@@XZ 0000000180009b40 f i DeviceMonitor.obj
 0001:00008ba0       ??I?$CComPtrBase@UIDispatch@@@ATL@@QEAAPEAPEAUIDispatch@@XZ 0000000180009ba0 f i DeviceMonitor.obj
 0001:00008c00       ??I?$CComPtrBase@UIOleAdviseHolder@@@ATL@@QEAAPEAPEAUIOleAdviseHolder@@XZ 0000000180009c00 f i DeviceMonitor.obj
 0001:00008c60       ??I?$CComPtrBase@UIOleControlSite@@@ATL@@QEAAPEAPEAUIOleControlSite@@XZ 0000000180009c60 f i DeviceMonitor.obj
 0001:00008cc0       ??I?$CComPtrBase@UIOleInPlaceActiveObject@@@ATL@@QEAAPEAPEAUIOleInPlaceActiveObject@@XZ 0000000180009cc0 f i DeviceMonitor.obj
 0001:00008d20       ??I?$CComPtrBase@UIOleInPlaceFrame@@@ATL@@QEAAPEAPEAUIOleInPlaceFrame@@XZ 0000000180009d20 f i DeviceMonitor.obj
 0001:00008d80       ??I?$CComPtrBase@UIOleInPlaceObject@@@ATL@@QEAAPEAPEAUIOleInPlaceObject@@XZ 0000000180009d80 f i DeviceMonitor.obj
 0001:00008de0       ??I?$CComPtrBase@UIOleInPlaceSiteWindowless@@@ATL@@QEAAPEAPEAUIOleInPlaceSiteWindowless@@XZ 0000000180009de0 f i DeviceMonitor.obj
 0001:00008e40       ??I?$CComPtrBase@UIOleInPlaceUIWindow@@@ATL@@QEAAPEAPEAUIOleInPlaceUIWindow@@XZ 0000000180009e40 f i DeviceMonitor.obj
 0001:00008ea0       ??I?$CComPtrBase@UIOleObject@@@ATL@@QEAAPEAPEAUIOleObject@@XZ 0000000180009ea0 f i DeviceMonitor.obj
 0001:00008f00       ??I?$CComPtrBase@UIPersistStream@@@ATL@@QEAAPEAPEAUIPersistStream@@XZ 0000000180009f00 f i DeviceMonitor.obj
 0001:00008f60       ??I?$CComPtrBase@UIPointerInactive@@@ATL@@QEAAPEAPEAUIPointerInactive@@XZ 0000000180009f60 f i DeviceMonitor.obj
 0001:00008fc0       ??I?$CComPtrBase@UIProvideClassInfo2@@@ATL@@QEAAPEAPEAUIProvideClassInfo2@@XZ 0000000180009fc0 f i DeviceMonitor.obj
 0001:00009020       ??I?$CComPtrBase@UIStream@@@ATL@@QEAAPEAPEAUIStream@@XZ 000000018000a020 f i DeviceMonitor.obj
 0001:00009080       ??I?$CComPtrBase@UITypeInfo2@@@ATL@@QEAAPEAPEAUITypeInfo2@@XZ 000000018000a080 f i DeviceMonitor.obj
 0001:000090e0       ??I?$CComPtrBase@UITypeInfo@@@ATL@@QEAAPEAPEAUITypeInfo@@XZ 000000018000a0e0 f i DeviceMonitor.obj
 0001:00009140       ??I?$CComPtrBase@UITypeLib@@@ATL@@QEAAPEAPEAUITypeLib@@XZ 000000018000a140 f i DeviceMonitor.obj
 0001:000091a0       ??I?$CComPtrBase@UIUnknown@@@ATL@@QEAAPEAPEAUIUnknown@@XZ 000000018000a1a0 f i DeviceMonitor.obj
 0001:00009200       ??I?$CComPtrBase@UIViewObjectEx@@@ATL@@QEAAPEAPEAUIViewObjectEx@@XZ 000000018000a200 f i DeviceMonitor.obj
 0001:00009260       ??ICComBSTR@ATL@@QEAAPEAPEA_WXZ 000000018000a260 f i DeviceMonitor.obj
 0001:00009270       ??_E?$CComContainedObject@VCOPOSDeviceMonitor@@@ATL@@W7EAAPEAXI@Z 000000018000a270 f i DeviceMonitor.obj
 0001:0000927c       ??_E?$CComContainedObject@VCOPOSDeviceMonitor@@@ATL@@WHA@EAAPEAXI@Z 000000018000a27c f i DeviceMonitor.obj
 0001:00009288       ??_E?$CComObject@VCOPOSDeviceMonitor@@@ATL@@W7EAAPEAXI@Z 000000018000a288 f i DeviceMonitor.obj
 0001:00009294       ??_E?$CComObject@VCOPOSDeviceMonitor@@@ATL@@WHA@EAAPEAXI@Z 000000018000a294 f i DeviceMonitor.obj
 0001:000092a0       ??_E?$CComAggObject@VCOPOSDeviceMonitor@@@ATL@@UEAAPEAXI@Z 000000018000a2a0 f i DeviceMonitor.obj
 0001:000092a0       ??_G?$CComAggObject@VCOPOSDeviceMonitor@@@ATL@@UEAAPEAXI@Z 000000018000a2a0 f i DeviceMonitor.obj
 0001:000092e0       ??_G?$CComContainedObject@VCOPOSDeviceMonitor@@@ATL@@UEAAPEAXI@Z 000000018000a2e0 f i DeviceMonitor.obj
 0001:000092e0       ??_E?$CComContainedObject@VCOPOSDeviceMonitor@@@ATL@@UEAAPEAXI@Z 000000018000a2e0 f i DeviceMonitor.obj
 0001:00009320       ??_E?$CComObject@V?$CComEnum@UIEnumConnectionPoints@@$1?_GUID_b196b285_bab4_101a_b69c_00aa00341d07@@3U__s_GUID@@BPEAUIConnectionPoint@@V?$_CopyInterface@UIConnectionPoint@@@ATL@@VCComSingleThreadModel@6@@ATL@@@ATL@@UEAAPEAXI@Z 000000018000a320 f i DeviceMonitor.obj
 0001:00009320       ??_G?$CComObject@V?$CComEnum@UIEnumConnectionPoints@@$1?_GUID_b196b285_bab4_101a_b69c_00aa00341d07@@3U__s_GUID@@BPEAUIConnectionPoint@@V?$_CopyInterface@UIConnectionPoint@@@ATL@@VCComSingleThreadModel@6@@ATL@@@ATL@@UEAAPEAXI@Z 000000018000a320 f i DeviceMonitor.obj
 0001:00009360       ??_E?$CComObject@V?$CComEnum@UIEnumConnections@@$1?_GUID_b196b287_bab4_101a_b69c_00aa00341d07@@3U__s_GUID@@BUtagCONNECTDATA@@V?$_Copy@UtagCONNECTDATA@@@ATL@@VCComSingleThreadModel@6@@ATL@@@ATL@@UEAAPEAXI@Z 000000018000a360 f i DeviceMonitor.obj
 0001:00009360       ??_G?$CComObject@V?$CComEnum@UIEnumConnections@@$1?_GUID_b196b287_bab4_101a_b69c_00aa00341d07@@3U__s_GUID@@BUtagCONNECTDATA@@V?$_Copy@UtagCONNECTDATA@@@ATL@@VCComSingleThreadModel@6@@ATL@@@ATL@@UEAAPEAXI@Z 000000018000a360 f i DeviceMonitor.obj
 0001:000093a0       ??_E?$CComObject@VCOPOSDeviceMonitor@@@ATL@@UEAAPEAXI@Z 000000018000a3a0 f i DeviceMonitor.obj
 0001:000093a0       ??_G?$CComObject@VCOPOSDeviceMonitor@@@ATL@@UEAAPEAXI@Z 000000018000a3a0 f i DeviceMonitor.obj
 0001:000093e0       ??_E?$CComObjectCached@VCComClassFactory@ATL@@@ATL@@UEAAPEAXI@Z 000000018000a3e0 f i DeviceMonitor.obj
 0001:000093e0       ??_G?$CComObjectCached@VCComClassFactory@ATL@@@ATL@@UEAAPEAXI@Z 000000018000a3e0 f i DeviceMonitor.obj
 0001:00009420       ??_GCComClassFactory@ATL@@UEAAPEAXI@Z 000000018000a420 f i DeviceMonitor.obj
 0001:00009420       ??_ECComClassFactory@ATL@@UEAAPEAXI@Z 000000018000a420 f i DeviceMonitor.obj
 0001:00009460       ??_GCComModule@ATL@@UEAAPEAXI@Z 000000018000a460 f i DeviceMonitor.obj
 0001:00009460       ??_ECComModule@ATL@@UEAAPEAXI@Z 000000018000a460 f i DeviceMonitor.obj
 0001:000094a0       ??_ECRegObject@ATL@@UEAAPEAXI@Z 000000018000a4a0 f i DeviceMonitor.obj
 0001:000094a0       ??_GCRegObject@ATL@@UEAAPEAXI@Z 000000018000a4a0 f i DeviceMonitor.obj
 0001:000094e0       ?Add@?$CSimpleArray@GV?$CSimpleArrayEqualHelper@G@ATL@@@ATL@@QEAAHAEBG@Z 000000018000a4e0 f i DeviceMonitor.obj
 0001:00009670       ?Add@?$CSimpleMap@PEA_WPEA_WVCExpansionVectorEqualHelper@ATL@@@ATL@@QEAAHAEBQEA_W0@Z 000000018000a670 f i DeviceMonitor.obj
 0001:00009750       ?Add@CComDynamicUnkArray@ATL@@QEAAKPEAUIUnknown@@@Z 000000018000a750 f i DeviceMonitor.obj
 0001:00009930       ?Add@CExpansionVector@ATL@@QEAAHPEB_W0@Z 000000018000a930 f i DeviceMonitor.obj
 0001:00009c70       ?AddChar@CParseBuffer@CRegParser@ATL@@QEAAHPEB_W@Z 000000018000ac70 f i DeviceMonitor.obj
 0001:00009cb0       ?AddCommonRGSReplacements@?$CAtlModuleT@VCComModule@ATL@@@ATL@@UEAAJPEAUIRegistrarBase@@@Z 000000018000acb0 f i DeviceMonitor.obj
 0001:00009cf0       ?AddCreateWndData@CAtlWinModule@ATL@@QEAAXPEAU_AtlCreateWndData@2@PEAX@Z 000000018000acf0 f i DeviceMonitor.obj
 0001:00009d20       ?AddRef@?$CComAggObject@VCOPOSDeviceMonitor@@@ATL@@UEAAKXZ 000000018000ad20 f i DeviceMonitor.obj
 0001:00009d50       ?AddRef@?$CComContainedObject@VCOPOSDeviceMonitor@@@ATL@@UEAAKXZ 000000018000ad50 f i DeviceMonitor.obj
 0001:00009d74       ?AddRef@?$CComContainedObject@VCOPOSDeviceMonitor@@@ATL@@WBAA@EAAKXZ 000000018000ad74 f i DeviceMonitor.obj
 0001:00009d80       ?AddRef@?$CComContainedObject@VCOPOSDeviceMonitor@@@ATL@@WBAI@EAAKXZ 000000018000ad80 f i DeviceMonitor.obj
 0001:00009d8c       ?AddRef@?$CComContainedObject@VCOPOSDeviceMonitor@@@ATL@@WBBA@EAAKXZ 000000018000ad8c f i DeviceMonitor.obj
 0001:00009d98       ?AddRef@?$CComContainedObject@VCOPOSDeviceMonitor@@@ATL@@WBBI@EAAKXZ 000000018000ad98 f i DeviceMonitor.obj
 0001:00009da4       ?AddRef@?$CComContainedObject@VCOPOSDeviceMonitor@@@ATL@@WBCI@EAAKXZ 000000018000ada4 f i DeviceMonitor.obj
 0001:00009db0       ?AddRef@?$CComContainedObject@VCOPOSDeviceMonitor@@@ATL@@WBEA@EAAKXZ 000000018000adb0 f i DeviceMonitor.obj
 0001:00009dbc       ?AddRef@?$CComContainedObject@VCOPOSDeviceMonitor@@@ATL@@WLI@EAAKXZ 000000018000adbc f i DeviceMonitor.obj
 0001:00009dc8       ?AddRef@?$CComContainedObject@VCOPOSDeviceMonitor@@@ATL@@WMA@EAAKXZ 000000018000adc8 f i DeviceMonitor.obj
 0001:00009dd4       ?AddRef@?$CComContainedObject@VCOPOSDeviceMonitor@@@ATL@@WMI@EAAKXZ 000000018000add4 f i DeviceMonitor.obj
 0001:00009de0       ?AddRef@?$CComContainedObject@VCOPOSDeviceMonitor@@@ATL@@WNA@EAAKXZ 000000018000ade0 f i DeviceMonitor.obj
 0001:00009dec       ?AddRef@?$CComContainedObject@VCOPOSDeviceMonitor@@@ATL@@WNI@EAAKXZ 000000018000adec f i DeviceMonitor.obj
 0001:00009df8       ?AddRef@?$CComContainedObject@VCOPOSDeviceMonitor@@@ATL@@WOA@EAAKXZ 000000018000adf8 f i DeviceMonitor.obj
 0001:00009e04       ?AddRef@?$CComContainedObject@VCOPOSDeviceMonitor@@@ATL@@WOI@EAAKXZ 000000018000ae04 f i DeviceMonitor.obj
 0001:00009e10       ?AddRef@?$CComContainedObject@VCOPOSDeviceMonitor@@@ATL@@WPA@EAAKXZ 000000018000ae10 f i DeviceMonitor.obj
 0001:00009e1c       ?AddRef@?$CComContainedObject@VCOPOSDeviceMonitor@@@ATL@@WPI@EAAKXZ 000000018000ae1c f i DeviceMonitor.obj
 0001:00009e30       ?AddRef@?$CComObject@V?$CComEnum@UIEnumConnectionPoints@@$1?_GUID_b196b285_bab4_101a_b69c_00aa00341d07@@3U__s_GUID@@BPEAUIConnectionPoint@@V?$_CopyInterface@UIConnectionPoint@@@ATL@@VCComSingleThreadModel@6@@ATL@@@ATL@@UEAAKXZ 000000018000ae30 f i DeviceMonitor.obj
 0001:00009e60       ?AddRef@?$CComObject@V?$CComEnum@UIEnumConnections@@$1?_GUID_b196b287_bab4_101a_b69c_00aa00341d07@@3U__s_GUID@@BUtagCONNECTDATA@@V?$_Copy@UtagCONNECTDATA@@@ATL@@VCComSingleThreadModel@6@@ATL@@@ATL@@UEAAKXZ 000000018000ae60 f i DeviceMonitor.obj
 0001:00009e90       ?AddRef@?$CComObject@VCOPOSDeviceMonitor@@@ATL@@UEAAKXZ 000000018000ae90 f i DeviceMonitor.obj
 0001:00009eb4       ?AddRef@?$CComObject@VCOPOSDeviceMonitor@@@ATL@@WBAA@EAAKXZ 000000018000aeb4 f i DeviceMonitor.obj
 0001:00009ec0       ?AddRef@?$CComObject@VCOPOSDeviceMonitor@@@ATL@@WBAI@EAAKXZ 000000018000aec0 f i DeviceMonitor.obj
 0001:00009ecc       ?AddRef@?$CComObject@VCOPOSDeviceMonitor@@@ATL@@WBBA@EAAKXZ 000000018000aecc f i DeviceMonitor.obj
 0001:00009ed8       ?AddRef@?$CComObject@VCOPOSDeviceMonitor@@@ATL@@WBBI@EAAKXZ 000000018000aed8 f i DeviceMonitor.obj
 0001:00009ee4       ?AddRef@?$CComObject@VCOPOSDeviceMonitor@@@ATL@@WBCI@EAAKXZ 000000018000aee4 f i DeviceMonitor.obj
 0001:00009ef0       ?AddRef@?$CComObject@VCOPOSDeviceMonitor@@@ATL@@WBEA@EAAKXZ 000000018000aef0 f i DeviceMonitor.obj
 0001:00009efc       ?AddRef@?$CComObject@VCOPOSDeviceMonitor@@@ATL@@WLI@EAAKXZ 000000018000aefc f i DeviceMonitor.obj
 0001:00009f08       ?AddRef@?$CComObject@VCOPOSDeviceMonitor@@@ATL@@WMA@EAAKXZ 000000018000af08 f i DeviceMonitor.obj
 0001:00009f14       ?AddRef@?$CComObject@VCOPOSDeviceMonitor@@@ATL@@WMI@EAAKXZ 000000018000af14 f i DeviceMonitor.obj
 0001:00009f20       ?AddRef@?$CComObject@VCOPOSDeviceMonitor@@@ATL@@WNA@EAAKXZ 000000018000af20 f i DeviceMonitor.obj
 0001:00009f2c       ?AddRef@?$CComObject@VCOPOSDeviceMonitor@@@ATL@@WNI@EAAKXZ 000000018000af2c f i DeviceMonitor.obj
 0001:00009f38       ?AddRef@?$CComObject@VCOPOSDeviceMonitor@@@ATL@@WOA@EAAKXZ 000000018000af38 f i DeviceMonitor.obj
 0001:00009f44       ?AddRef@?$CComObject@VCOPOSDeviceMonitor@@@ATL@@WOI@EAAKXZ 000000018000af44 f i DeviceMonitor.obj
 0001:00009f50       ?AddRef@?$CComObject@VCOPOSDeviceMonitor@@@ATL@@WPA@EAAKXZ 000000018000af50 f i DeviceMonitor.obj
 0001:00009f5c       ?AddRef@?$CComObject@VCOPOSDeviceMonitor@@@ATL@@WPI@EAAKXZ 000000018000af5c f i DeviceMonitor.obj
 0001:00009f70       ?AddRef@?$CComObjectCached@VCComClassFactory@ATL@@@ATL@@UEAAKXZ 000000018000af70 f i DeviceMonitor.obj
 0001:00009fc0       ?AddRef@CRegObject@ATL@@UEAAKXZ 000000018000afc0 f i DeviceMonitor.obj
 0001:0000a020       ?AddReplacement@CRegObject@ATL@@UEAAJPEB_W0@Z 000000018000b020 f i DeviceMonitor.obj
 0001:0000a150       ?AddString@CParseBuffer@CRegParser@ATL@@QEAAHPEB_W@Z 000000018000b150 f i DeviceMonitor.obj
 0001:0000a240       ?AddTermFunc@CAtlModule@ATL@@QEAAJP6AX_K@Z0@Z 000000018000b240 f i DeviceMonitor.obj
 0001:0000a290       ?AddValue@CRegParser@ATL@@IEAAJAEAVCRegKey@2@PEB_WPEA_W@Z 000000018000b290 f i DeviceMonitor.obj
 0001:0000ab60       ?Advise@?$CProxy_IOPOSEvents@VCOPOSDeviceMonitor@@@@UEAAJPEAUIUnknown@@PEAK@Z 000000018000bb60 f i DeviceMonitor.obj
 0001:0000abc0       ?Advise@?$IConnectionPointImpl@VCOPOSDeviceMonitor@@$1?DIID__IOPOSDeviceMonitorEvents@@3U_GUID@@BVCComDynamicUnkArray@ATL@@@ATL@@UEAAJPEAUIUnknown@@PEAK@Z 000000018000bbc0 f i DeviceMonitor.obj
 0001:0000adc0       ?Advise@?$IConnectionPointImpl@VCOPOSDeviceMonitor@@$1?IID_IPropertyNotifySink@@3U_GUID@@BVCComDynamicUnkArray@ATL@@@ATL@@UEAAJPEAUIUnknown@@PEAK@Z 000000018000bdc0 f i DeviceMonitor.obj
 0001:0000afc0       ?Advise@?$IOleObjectImpl@VCOPOSDeviceMonitor@@@ATL@@UEAAJPEAUIAdviseSink@@PEAK@Z 000000018000bfc0 f i DeviceMonitor.obj
 0001:0000b070       ?Allocate@?$CAtlSafeAllocBufferManager@VCCRTAllocator@ATL@@@_ATL_SAFE_ALLOCA_IMPL@ATL@@QEAAPEAX_K@Z 000000018000c070 f i DeviceMonitor.obj
 0001:0000b0e0       ?Allocate@?$CTempBuffer@E$0BAA@VCCRTAllocator@ATL@@@ATL@@QEAAPEAE_K@Z 000000018000c0e0 f i DeviceMonitor.obj
 0001:0000b120       ?Allocate@?$CTempBuffer@_W$0BAA@VCCRTAllocator@ATL@@@ATL@@QEAAPEA_W_K@Z 000000018000c120 f i DeviceMonitor.obj
 0001:0000b160       ?Allocate@?$CTempBuffer@_W$0EAA@VCCRTAllocator@ATL@@@ATL@@QEAAPEA_W_K@Z 000000018000c160 f i DeviceMonitor.obj
 0001:0000b1a0       ?AllocateBytes@?$CTempBuffer@E$0BAA@VCCRTAllocator@ATL@@@ATL@@QEAAPEAE_K@Z 000000018000c1a0 f i DeviceMonitor.obj
 0001:0000b230       ?AllocateBytes@?$CTempBuffer@_W$0BAA@VCCRTAllocator@ATL@@@ATL@@QEAAPEA_W_K@Z 000000018000c230 f i DeviceMonitor.obj
 0001:0000b2c0       ?AllocateBytes@?$CTempBuffer@_W$0EAA@VCCRTAllocator@ATL@@@ATL@@QEAAPEA_W_K@Z 000000018000c2c0 f i DeviceMonitor.obj
 0001:0000b350       ?AllocateHeap@?$CTempBuffer@E$0BAA@VCCRTAllocator@ATL@@@ATL@@AEAAX_K@Z 000000018000c350 f i DeviceMonitor.obj
 0001:0000b3a0       ?AllocateHeap@?$CTempBuffer@_W$0BAA@VCCRTAllocator@ATL@@@ATL@@AEAAX_K@Z 000000018000c3a0 f i DeviceMonitor.obj
 0001:0000b3f0       ?AllocateHeap@?$CTempBuffer@_W$0EAA@VCCRTAllocator@ATL@@@ATL@@AEAAX_K@Z 000000018000c3f0 f i DeviceMonitor.obj
 0001:0000b440       ?Append@CParseBuffer@CRegParser@ATL@@QEAAHPEB_WH@Z 000000018000c440 f i DeviceMonitor.obj
 0001:0000b660       ?AtlCallTermFunc@ATL@@YAXPEAU_ATL_MODULE70@1@@Z 000000018000c660 f i DeviceMonitor.obj
 0001:0000b700       ?AtlCoTaskMemCAlloc@ATL@@YAPEAXKK@Z 000000018000c700 f i DeviceMonitor.obj
 0001:0000b780       ?AtlCoTaskMemRecalloc@ATL@@YAPEAXPEAXKK@Z 000000018000c780 f i DeviceMonitor.obj
 0001:0000b800       ?AtlComModuleGetClassObject@ATL@@YAJPEAU_ATL_COM_MODULE70@1@AEBU_GUID@@1PEAPEAX@Z 000000018000c800 f i DeviceMonitor.obj
 0001:0000bb30       ?AtlComModuleRegisterServer@ATL@@YAJPEAU_ATL_COM_MODULE70@1@HPEBU_GUID@@@Z 000000018000cb30 f i DeviceMonitor.obj
 0001:0000bd20       ?AtlComModuleUnregisterServer@ATL@@YAJPEAU_ATL_COM_MODULE70@1@HPEBU_GUID@@@Z 000000018000cd20 f i DeviceMonitor.obj
 0001:0000be70       ?AtlComQIPtrAssign2@ATL@@YAXPEAPEAUIUnknown@@PEAU2@AEBU_GUID@@@Z 000000018000ce70 f i DeviceMonitor.obj
 0001:0000bee0       ?AtlCreateTargetDC@ATL@@YAPEAUHDC__@@PEAU2@PEAUtagDVTARGETDEVICE@@@Z 000000018000cee0 f i DeviceMonitor.obj
 0001:0000c110       ?AtlCrtErrorCheck@ATL@@YAHH@Z 000000018000d110 f i DeviceMonitor.obj
 0001:0000c180       ?AtlGetPerUserRegistration@ATL@@YAJPEA_N@Z 000000018000d180 f i DeviceMonitor.obj
 0001:0000c1b0       ?AtlHiMetricToPixel@ATL@@YAXPEBUtagSIZE@@PEAU2@@Z 000000018000d1b0 f i DeviceMonitor.obj
 0001:0000c390       ?AtlHresultFromLastError@ATL@@YAJXZ 000000018000d390 f i DeviceMonitor.obj
 0001:0000c3b0       ?AtlHresultFromWin32@ATL@@YAJK@Z 000000018000d3b0 f i DeviceMonitor.obj
 0001:0000c3d0       ?AtlIPersistStreamInit_Load@ATL@@YAJPEAUIStream@@PEBUATL_PROPMAP_ENTRY@1@PEAXPEAUIUnknown@@@Z 000000018000d3d0 f i DeviceMonitor.obj
 0001:0000ca50       ?AtlIPersistStreamInit_Save@ATL@@YAJPEAUIStream@@HPEBUATL_PROPMAP_ENTRY@1@PEAXPEAUIUnknown@@@Z 000000018000da50 f i DeviceMonitor.obj
 0001:0000cfe0       ?AtlInternalOleLoadFromStream@ATL@@YAJPEAUIStream@@AEBU_GUID@@PEAPEAXTClassesAllowedInStream@1@K@Z 000000018000dfe0 f i DeviceMonitor.obj
 0001:0000d320       ?AtlInternalQueryInterface@ATL@@YAJPEAXPEBU_ATL_INTMAP_ENTRY@1@AEBU_GUID@@PEAPEAX@Z 000000018000e320 f i DeviceMonitor.obj
 0001:0000d5d0       ?AtlLoadTypeLib@ATL@@YAJPEAUHINSTANCE__@@PEB_WPEAPEA_WPEAPEAUITypeLib@@@Z 000000018000e5d0 f i DeviceMonitor.obj
 0001:0000daa0       ?AtlModuleAddTermFunc@ATL@@YAJPEAU_ATL_MODULE70@1@P6AX_K@Z1@Z 000000018000eaa0 f i DeviceMonitor.obj
 0001:0000dc70       ?AtlRegisterClassCategoriesHelper@ATL@@YAJAEBU_GUID@@PEBU_ATL_CATMAP_ENTRY@1@H@Z 000000018000ec70 f i DeviceMonitor.obj
 0001:0000e440       ?AtlRegisterTypeLib@ATL@@YAJPEAUHINSTANCE__@@PEB_W@Z 000000018000f440 f i DeviceMonitor.obj
 0001:0000e7a0       ?AtlThrowImpl@ATL@@YAXJ@Z  000000018000f7a0 f i DeviceMonitor.obj
 0001:0000e870       ?AtlUnRegisterTypeLib@ATL@@YAJPEAUHINSTANCE__@@PEB_W@Z 000000018000f870 f i DeviceMonitor.obj
 0001:0000eaa0       ?AtlWinModuleAddCreateWndData@ATL@@YAXPEAU_ATL_WIN_MODULE70@1@PEAU_AtlCreateWndData@1@PEAX@Z 000000018000faa0 f i DeviceMonitor.obj
 0001:0000ec90       ?AtlWinModuleExtractCreateWndData@ATL@@YAPEAXPEAU_ATL_WIN_MODULE70@1@@Z 000000018000fc90 f i DeviceMonitor.obj
 0001:0000ee90       ?AtlWinModuleRegisterClassExW@ATL@@YAGPEAU_ATL_WIN_MODULE70@1@PEBUtagWNDCLASSEXW@@@Z 000000018000fe90 f i DeviceMonitor.obj
 0001:0000ef60       ?AtlWinModuleRegisterWndClassInfoW@ATL@@YAGPEAU_ATL_WIN_MODULE70@1@PEAU_ATL_BASE_MODULE70@1@PEAU_ATL_WNDCLASSINFOW@1@PEAP6A_JPEAUHWND__@@I_K_J@Z@Z 000000018000ff60 f i DeviceMonitor.obj
 0001:0000efd0       ?Attach@?$CAutoVectorPtr@_W@ATL@@QEAAXPEA_W@Z 000000018000ffd0 f i DeviceMonitor.obj
 0001:0000f040       ?Attach@CComBSTR@ATL@@QEAAXPEA_W@Z 0000000180010040 f i DeviceMonitor.obj
 0001:0000f080       ?Attach@CRegKey@ATL@@QEAAXPEAUHKEY__@@@Z 0000000180010080 f i DeviceMonitor.obj
 0001:0000f110       ?CanForceRemoveKey@CRegParser@ATL@@IEAAHPEB_W@Z 0000000180010110 f i DeviceMonitor.obj
 0001:0000f170       ?ChToByte@CRegParser@ATL@@KAE_W@Z 0000000180010170 f i DeviceMonitor.obj
 0001:0000f310       ?ChangeType@CComVariant@ATL@@QEAAJGPEBUtagVARIANT@@@Z 0000000180010310 f i DeviceMonitor.obj
 0001:0000f360       ?Cleanup@CComTypeInfoHolder@ATL@@SAX_K@Z 0000000180010360 f i DeviceMonitor.obj
 0001:0000f440       ?Clear@CComVariant@ATL@@QEAAJXZ 0000000180010440 f i DeviceMonitor.obj
 0001:0000f460       ?ClearReplacements@CExpansionVector@ATL@@QEAAJXZ 0000000180010460 f i DeviceMonitor.obj
 0001:0000f4f0       ?ClearReplacements@CRegObject@ATL@@UEAAJXZ 00000001800104f0 f i DeviceMonitor.obj
 0001:0000f540       ?Clone@?$CComEnumImpl@UIEnumConnectionPoints@@$1?_GUID_b196b285_bab4_101a_b69c_00aa00341d07@@3U__s_GUID@@BPEAUIConnectionPoint@@V?$_CopyInterface@UIConnectionPoint@@@ATL@@@ATL@@UEAAJPEAPEAUIEnumConnectionPoints@@@Z 0000000180010540 f i DeviceMonitor.obj
 0001:0000f730       ?Clone@?$CComEnumImpl@UIEnumConnections@@$1?_GUID_b196b287_bab4_101a_b69c_00aa00341d07@@3U__s_GUID@@BUtagCONNECTDATA@@V?$_Copy@UtagCONNECTDATA@@@ATL@@@ATL@@UEAAJPEAPEAUIEnumConnections@@@Z 0000000180010730 f i DeviceMonitor.obj
 0001:0000f920       ?Close@?$IOleObjectImpl@VCOPOSDeviceMonitor@@@ATL@@UEAAJK@Z 0000000180010920 f i DeviceMonitor.obj
 0001:0000f9c0       ?Close@CRegKey@ATL@@QEAAJXZ 00000001800109c0 f i DeviceMonitor.obj
 0001:0000fa20       ?ContextSensitiveHelp@?$IOleInPlaceActiveObjectImpl@VCOPOSDeviceMonitor@@@ATL@@UEAAJH@Z 0000000180010a20 f i DeviceMonitor.obj
 0001:0000fa90       ?ContextSensitiveHelp@?$IOleInPlaceObjectWindowlessImpl@VCOPOSDeviceMonitor@@@ATL@@UEAAJH@Z 0000000180010a90 f i DeviceMonitor.obj
 0001:0000fb00       ?ControlQueryInterface@?$CComControl@VCOPOSDeviceMonitor@@V?$CWindowImpl@VCOPOSDeviceMonitor@@VCWindow@ATL@@V?$CWinTraits@$0FGAAAAAA@$0A@@3@@ATL@@@ATL@@UEAAJAEBU_GUID@@PEAPEAX@Z 0000000180010b00 f i DeviceMonitor.obj
 0001:0000fb70       ?CreateControlWindow@?$CComControl@VCOPOSDeviceMonitor@@V?$CWindowImpl@VCOPOSDeviceMonitor@@VCWindow@ATL@@V?$CWinTraits@$0FGAAAAAA@$0A@@3@@ATL@@@ATL@@UEAAPEAUHWND__@@PEAU3@AEAUtagRECT@@@Z 0000000180010b70 f i DeviceMonitor.obj
 0001:0000fc40       ?CreateInstance@?$CComCreator@V?$CComAggObject@VCOPOSDeviceMonitor@@@ATL@@@ATL@@SAJPEAXAEBU_GUID@@PEAPEAX@Z 0000000180010c40 f i DeviceMonitor.obj
 0001:0000fe10       ?CreateInstance@?$CComCreator@V?$CComObject@VCOPOSDeviceMonitor@@@ATL@@@ATL@@SAJPEAXAEBU_GUID@@PEAPEAX@Z 0000000180010e10 f i DeviceMonitor.obj
 0001:0000fff0       ?CreateInstance@?$CComObject@V?$CComEnum@UIEnumConnectionPoints@@$1?_GUID_b196b285_bab4_101a_b69c_00aa00341d07@@3U__s_GUID@@BPEAUIConnectionPoint@@V?$_CopyInterface@UIConnectionPoint@@@ATL@@VCComSingleThreadModel@6@@ATL@@@ATL@@SAJPEAPEAV12@@Z 0000000180010ff0 f i DeviceMonitor.obj
 0001:000101a0       ?CreateInstance@?$CComObject@V?$CComEnum@UIEnumConnections@@$1?_GUID_b196b287_bab4_101a_b69c_00aa00341d07@@3U__s_GUID@@BUtagCONNECTDATA@@V?$_Copy@UtagCONNECTDATA@@@ATL@@VCComSingleThreadModel@6@@ATL@@@ATL@@SAJPEAPEAV12@@Z 00000001800111a0 f i DeviceMonitor.obj
 0001:00010350       ?CreateInstance@CComClassFactory@ATL@@UEAAJPEAUIUnknown@@AEBU_GUID@@PEAPEAX@Z 0000000180011350 f i DeviceMonitor.obj
 0001:00010460       ?DAdvise@?$IDataObjectImpl@VCOPOSDeviceMonitor@@@ATL@@UEAAJPEAUtagFORMATETC@@KPEAUIAdviseSink@@PEAK@Z 0000000180011460 f i DeviceMonitor.obj
 0001:000105a0       ?DEVMODEOLE2T_EX@@YAPEAU_devicemodeW@@PEAU1@@Z 00000001800115a0 f i DeviceMonitor.obj
 0001:000105b0       ?DUnadvise@?$IDataObjectImpl@VCOPOSDeviceMonitor@@@ATL@@UEAAJK@Z 00000001800115b0 f i DeviceMonitor.obj
 0001:000106a0       ?Decrement@CComMultiThreadModel@ATL@@SAKPEAJ@Z 00000001800116a0 f i DeviceMonitor.obj
 0001:000106c0       ?Decrement@CComSingleThreadModel@ATL@@SAKPEAJ@Z 00000001800116c0 f i DeviceMonitor.obj
 0001:000106e0       ?DefWindowProcW@?$CWindowImplBaseT@VCWindow@ATL@@V?$CWinTraits@$0FGAAAAAA@$0A@@2@@ATL@@QEAA_JI_K_J@Z 00000001800116e0 f i DeviceMonitor.obj
 0001:00010730       ?DefaultReflectionHandler@?$CWindowImplRoot@VCWindow@ATL@@@ATL@@SAHPEAUHWND__@@I_K_JAEA_J@Z 0000000180011730 f i DeviceMonitor.obj
 0001:00010a30       ?DeleteSubKey@CRegKey@ATL@@QEAAJPEB_W@Z 0000000180011a30 f i DeviceMonitor.obj
 0001:00010b40       ?DeleteValue@CRegKey@ATL@@QEAAJPEB_W@Z 0000000180011b40 f i DeviceMonitor.obj
 0001:00010bc0       ?Detach@?$CAutoVectorPtr@_W@ATL@@QEAAPEA_WXZ 0000000180011bc0 f i DeviceMonitor.obj
 0001:00010bf0       ?Detach@?$CComPtrBase@UIPersistStream@@@ATL@@QEAAPEAUIPersistStream@@XZ 0000000180011bf0 f i DeviceMonitor.obj
 0001:00010c20       ?Detach@?$CComPtrBase@UITypeInfo@@@ATL@@QEAAPEAUITypeInfo@@XZ 0000000180011c20 f i DeviceMonitor.obj
 0001:00010c50       ?Detach@?$CComPtrBase@UIUnknown@@@ATL@@QEAAPEAUIUnknown@@XZ 0000000180011c50 f i DeviceMonitor.obj
 0001:00010c80       ?Detach@CComBSTR@ATL@@QEAAPEA_WXZ 0000000180011c80 f i DeviceMonitor.obj
 0001:00010cb0       ?Detach@CParseBuffer@CRegParser@ATL@@QEAAPEA_WXZ 0000000180011cb0 f i DeviceMonitor.obj
 0001:00010d00       ?Detach@CRegKey@ATL@@QEAAPEAUHKEY__@@XZ 0000000180011d00 f i DeviceMonitor.obj
 0001:00010d50       ?DoEvent@COPOSDeviceMonitor@@IEAAXI_K_J@Z 0000000180011d50 f i DeviceMonitor.obj
 0001:00010e70       ?DoVerb@?$IOleObjectImpl@VCOPOSDeviceMonitor@@@ATL@@UEAAJJPEAUtagMSG@@PEAUIOleClientSite@@JPEAUHWND__@@PEBUtagRECT@@@Z 0000000180011e70 f i DeviceMonitor.obj
 0001:00011170       ?DoVerbDiscardUndo@?$IOleObjectImpl@VCOPOSDeviceMonitor@@@ATL@@QEAAJPEBUtagRECT@@PEAUHWND__@@@Z 0000000180012170 f i DeviceMonitor.obj
 0001:000111f0       ?DoVerbHide@?$IOleObjectImpl@VCOPOSDeviceMonitor@@@ATL@@QEAAJPEBUtagRECT@@PEAUHWND__@@@Z 00000001800121f0 f i DeviceMonitor.obj
 0001:000112c0       ?DoVerbInPlaceActivate@?$IOleObjectImpl@VCOPOSDeviceMonitor@@@ATL@@QEAAJPEBUtagRECT@@PEAUHWND__@@@Z 00000001800122c0 f i DeviceMonitor.obj
 0001:00011380       ?DoVerbOpen@?$IOleObjectImpl@VCOPOSDeviceMonitor@@@ATL@@QEAAJPEBUtagRECT@@PEAUHWND__@@@Z 0000000180012380 f i DeviceMonitor.obj
 0001:00011400       ?DoVerbPrimary@?$IOleObjectImpl@VCOPOSDeviceMonitor@@@ATL@@QEAAJPEBUtagRECT@@PEAUHWND__@@@Z 0000000180012400 f i DeviceMonitor.obj
 0001:00011540       ?DoVerbProperties@CComControlBase@ATL@@QEAAJPEBUtagRECT@@PEAUHWND__@@@Z 0000000180012540 f i DeviceMonitor.obj
 0001:000118f0       ?DoVerbShow@?$IOleObjectImpl@VCOPOSDeviceMonitor@@@ATL@@QEAAJPEBUtagRECT@@PEAUHWND__@@@Z 00000001800128f0 f i DeviceMonitor.obj
 0001:000119a0       ?DoVerbUIActivate@?$IOleObjectImpl@VCOPOSDeviceMonitor@@@ATL@@QEAAJPEBUtagRECT@@PEAUHWND__@@@Z 00000001800129a0 f i DeviceMonitor.obj
 0001:00011a60       ?DoesVerbActivate@CComControlBase@ATL@@QEAAHJ@Z 0000000180012a60 f i DeviceMonitor.obj
 0001:00011ab0       ?DoesVerbUIActivate@CComControlBase@ATL@@QEAAHJ@Z 0000000180012ab0 f i DeviceMonitor.obj
 0001:00011b20       ?Draw@?$IViewObjectExImpl@VCOPOSDeviceMonitor@@@ATL@@UEAAJKJPEAXPEAUtagDVTARGETDEVICE@@PEAUHDC__@@2PEBU_RECTL@@3P6AH_K@Z4@Z 0000000180012b20 f i DeviceMonitor.obj
 0001:00011c30       ?Empty@CComBSTR@ATL@@QEAAXXZ 0000000180012c30 f i DeviceMonitor.obj
 0001:00011c60       ?EnableModeless@?$IOleInPlaceActiveObjectImpl@VCOPOSDeviceMonitor@@@ATL@@UEAAJH@Z 0000000180012c60 f i DeviceMonitor.obj
 0001:00011cc0       ?EndOfVar@CRegParser@ATL@@IEAAHXZ 0000000180012cc0 f i DeviceMonitor.obj
 0001:00011d10       ?EnsureTI@CComTypeInfoHolder@ATL@@QEAAJK@Z 0000000180012d10 f i DeviceMonitor.obj
 0001:00011d60       ?EnumAdvise@?$IOleObjectImpl@VCOPOSDeviceMonitor@@@ATL@@UEAAJPEAPEAUIEnumSTATDATA@@@Z 0000000180012d60 f i DeviceMonitor.obj
 0001:00011eb0       ?EnumConnectionPoints@?$IConnectionPointContainerImpl@VCOPOSDeviceMonitor@@@ATL@@UEAAJPEAPEAUIEnumConnectionPoints@@@Z 0000000180012eb0 f i DeviceMonitor.obj
 0001:000123a0       ?EnumConnections@?$IConnectionPointImpl@VCOPOSDeviceMonitor@@$1?DIID__IOPOSDeviceMonitorEvents@@3U_GUID@@BVCComDynamicUnkArray@ATL@@@ATL@@UEAAJPEAPEAUIEnumConnections@@@Z 00000001800133a0 f i DeviceMonitor.obj
 0001:000126d0       ?EnumConnections@?$IConnectionPointImpl@VCOPOSDeviceMonitor@@$1?IID_IPropertyNotifySink@@3U_GUID@@BVCComDynamicUnkArray@ATL@@@ATL@@UEAAJPEAPEAUIEnumConnections@@@Z 00000001800136d0 f i DeviceMonitor.obj
 0001:00012a00       ?EnumDAdvise@?$IDataObjectImpl@VCOPOSDeviceMonitor@@@ATL@@UEAAJPEAPEAUIEnumSTATDATA@@@Z 0000000180013a00 f i DeviceMonitor.obj
 0001:00012b30       ?EnumFormatEtc@?$IDataObjectImpl@VCOPOSDeviceMonitor@@@ATL@@UEAAJKPEAPEAUIEnumFORMATETC@@@Z 0000000180013b30 f i DeviceMonitor.obj
 0001:00012bb0       ?EnumVerbs@?$IOleObjectImpl@VCOPOSDeviceMonitor@@@ATL@@UEAAJPEAPEAUIEnumOLEVERB@@@Z 0000000180013bb0 f i DeviceMonitor.obj
 0001:00012c70       ?EscapeSingleQuote@CAtlModule@ATL@@SAXPEA_W_KPEB_W@Z 0000000180013c70 f i DeviceMonitor.obj
 0001:00012d50       ?ExtractCreateWndData@CAtlWinModule@ATL@@QEAAPEAXXZ 0000000180013d50 f i DeviceMonitor.obj
 0001:00012d70       ?FAccessAllowed@?$IObjectSafetyImpl@VCOPOSDeviceMonitor@@$02@ATL@@MEAAHXZ 0000000180013d70 f i DeviceMonitor.obj
 0001:00012d80       ?FinalConstruct@?$CComAggObject@VCOPOSDeviceMonitor@@@ATL@@QEAAJXZ 0000000180013d80 f i DeviceMonitor.obj
 0001:00012dc0       ?FinalConstruct@CComObjectRootBase@ATL@@QEAAJXZ 0000000180013dc0 f i DeviceMonitor.obj
 0001:00012dd0       ?FinalConstruct@CRegObject@ATL@@QEAAJXZ 0000000180013dd0 f i DeviceMonitor.obj
 0001:00012e00       ?FinalRelease@?$CComAggObject@VCOPOSDeviceMonitor@@@ATL@@QEAAXXZ 0000000180013e00 f i DeviceMonitor.obj
 0001:00012e40       ?FinalRelease@CComObjectRootBase@ATL@@QEAAXXZ 0000000180013e40 f i DeviceMonitor.obj
 0001:00012e50       ?FindConnectionPoint@?$IConnectionPointContainerImpl@VCOPOSDeviceMonitor@@@ATL@@UEAAJAEBU_GUID@@PEAPEAUIConnectionPoint@@@Z 0000000180013e50 f i DeviceMonitor.obj
 0001:00012fc0       ?FindKey@?$CSimpleMap@PEA_WPEA_WVCExpansionVectorEqualHelper@ATL@@@ATL@@QEBAHAEBQEA_W@Z 0000000180013fc0 f i DeviceMonitor.obj
 0001:00013030       ?FireTheEvent@?$CProxy_IOPOSEvents@VCOPOSDeviceMonitor@@@@IEAAXPEAUIUnknown@@PEAVOposVariant@@IAEAJPEB_WJ@Z 0000000180014030 f i DeviceMonitor.obj
 0001:00013210       ?FireViewChange@CComControlBase@ATL@@QEAAJXZ 0000000180014210 f i DeviceMonitor.obj
 0001:000132e0       ?Fire_DataEvent@?$CProxy_IOPOSEvents@VCOPOSDeviceMonitor@@@@QEAAXJ@Z 00000001800142e0 f i DeviceMonitor.obj
 0001:000134d0       ?Fire_DirectIOEvent@?$CProxy_IOPOSEvents@VCOPOSDeviceMonitor@@@@QEAAXJPEAJPEAPEA_W@Z 00000001800144d0 f i DeviceMonitor.obj
 0001:00013770       ?Fire_ErrorEvent@?$CProxy_IOPOSEvents@VCOPOSDeviceMonitor@@@@QEAAXJJJPEAJ@Z 0000000180014770 f i DeviceMonitor.obj
 0001:00013a20       ?Fire_StatusUpdateEvent@?$CProxy_IOPOSEvents@VCOPOSDeviceMonitor@@@@QEAAXJ@Z 0000000180014a20 f i DeviceMonitor.obj
 0001:00013c10       ?FormatWindowClassName@AtlModuleRegisterWndClassInfoParamW@ATL@@SAXPEA_WKPEAX@Z 0000000180014c10 f i DeviceMonitor.obj
 0001:00013c50       ?Free@?$CAutoVectorPtr@_W@ATL@@QEAAXXZ 0000000180014c50 f i DeviceMonitor.obj
 0001:00013c90       ?FreeHeap@?$CTempBuffer@E$0BAA@VCCRTAllocator@ATL@@@ATL@@AEAAXXZ 0000000180014c90 f i DeviceMonitor.obj
 0001:00013cb0       ?FreeHeap@?$CTempBuffer@_W$0BAA@VCCRTAllocator@ATL@@@ATL@@AEAAXXZ 0000000180014cb0 f i DeviceMonitor.obj
 0001:00013cd0       ?FreeHeap@?$CTempBuffer@_W$0EAA@VCCRTAllocator@ATL@@@ATL@@AEAAXXZ 0000000180014cd0 f i DeviceMonitor.obj
 0001:00013cf0       ?Freeze@?$IViewObjectExImpl@VCOPOSDeviceMonitor@@@ATL@@UEAAJKJPEAXPEAK@Z 0000000180014cf0 f i DeviceMonitor.obj
 0001:00013d70       ?GenerateError@CRegParser@ATL@@IEAAJI@Z 0000000180014d70 f i DeviceMonitor.obj
 0001:00013d90       ?GetAdvise@?$IViewObjectExImpl@VCOPOSDeviceMonitor@@@ATL@@UEAAJPEAK0PEAPEAUIAdviseSink@@@Z 0000000180014d90 f i DeviceMonitor.obj
 0001:00013ed0       ?GetAmbientLocaleID@CComControlBase@ATL@@QEAAJAEAK@Z 0000000180014ed0 f i DeviceMonitor.obj
 0001:00013fb0       ?GetAmbientProperty@CComControlBase@ATL@@QEAAJJAEAUtagVARIANT@@@Z 0000000180014fb0 f i DeviceMonitor.obj
 0001:00014000       ?GetAmbientUserMode@CComControlBase@ATL@@QEAAJAEAH@Z 0000000180015000 f i DeviceMonitor.obj
 0001:00014120       ?GetAppId@?$CAtlModuleT@VCComModule@ATL@@@ATL@@SAPEB_WXZ 0000000180015120 f i DeviceMonitor.obj
 0001:00014130       ?GetAt@CComDynamicUnkArray@ATL@@QEAAPEAUIUnknown@@H@Z 0000000180015130 f i DeviceMonitor.obj
 0001:000141c0       ?GetCanonicalFormatEtc@?$IDataObjectImpl@VCOPOSDeviceMonitor@@@ATL@@UEAAJPEAUtagFORMATETC@@0@Z 00000001800151c0 f i DeviceMonitor.obj
 0001:00014240       ?GetClassID@?$IPersistStorageImpl@VCOPOSDeviceMonitor@@@ATL@@UEAAJPEAU_GUID@@@Z 0000000180015240 f i DeviceMonitor.obj
 0001:000142c0       ?GetClassID@?$IPersistStreamInitImpl@VCOPOSDeviceMonitor@@@ATL@@UEAAJPEAU_GUID@@@Z 00000001800152c0 f i DeviceMonitor.obj
 0001:00014340       ?GetClassInfoExW@AtlModuleRegisterWndClassInfoParamW@ATL@@SAHPEAUHINSTANCE__@@PEB_WPEAUtagWNDCLASSEXW@@@Z 0000000180015340 f i DeviceMonitor.obj
 0001:00014370       ?GetClassInfoW@?$IProvideClassInfo2Impl@$1?CLSID_OPOSDeviceMonitor@@3U_GUID@@B$1?DIID__IOPOSDeviceMonitorEvents@@3U2@B$1?LIBID_OposDeviceMonitor_CCO@@3U2@B$00$0A@VCComTypeInfoHolder@ATL@@@ATL@@UEAAJPEAPEAUITypeInfo@@@Z 0000000180015370 f i DeviceMonitor.obj
 0001:000143a0       ?GetClassObject@CComModule@ATL@@QEAAJAEBU_GUID@@0PEAPEAX@Z 00000001800153a0 f i DeviceMonitor.obj
 0001:00014610       ?GetClientSite@?$IOleObjectImpl@VCOPOSDeviceMonitor@@@ATL@@UEAAJPEAPEAUIOleClientSite@@@Z 0000000180015610 f i DeviceMonitor.obj
 0001:000146b0       ?GetClipboardData@?$IOleObjectImpl@VCOPOSDeviceMonitor@@@ATL@@UEAAJKPEAPEAUIDataObject@@@Z 00000001800156b0 f i DeviceMonitor.obj
 0001:00014730       ?GetCodeAddress@CDynamicStdCallThunk2@ATL@@QEAAPEAXXZ 0000000180015730 f i DeviceMonitor.obj
 0001:00014750       ?GetColorSet@?$IViewObjectExImpl@VCOPOSDeviceMonitor@@@ATL@@UEAAJKJPEAXPEAUtagDVTARGETDEVICE@@PEAUHDC__@@PEAPEAUtagLOGPALETTE@@@Z 0000000180015750 f i DeviceMonitor.obj
 0001:000147d0       ?GetConnMap@COPOSDeviceMonitor@@SAPEBU_ATL_CONNMAP_ENTRY@ATL@@PEAH@Z 00000001800157d0 f i DeviceMonitor.obj
 0001:00014920       ?GetConnectionInterface@?$IConnectionPointImpl@VCOPOSDeviceMonitor@@$1?DIID__IOPOSDeviceMonitorEvents@@3U_GUID@@BVCComDynamicUnkArray@ATL@@@ATL@@UEAAJPEAU_GUID@@@Z 0000000180015920 f i DeviceMonitor.obj
 0001:00014960       ?GetConnectionInterface@?$IConnectionPointImpl@VCOPOSDeviceMonitor@@$1?IID_IPropertyNotifySink@@3U_GUID@@BVCComDynamicUnkArray@ATL@@@ATL@@UEAAJPEAU_GUID@@@Z 0000000180015960 f i DeviceMonitor.obj
 0001:000149a0       ?GetConnectionPointContainer@?$IConnectionPointImpl@VCOPOSDeviceMonitor@@$1?DIID__IOPOSDeviceMonitorEvents@@3U_GUID@@BVCComDynamicUnkArray@ATL@@@ATL@@UEAAJPEAPEAUIConnectionPointContainer@@@Z 00000001800159a0 f i DeviceMonitor.obj
 0001:00014a00       ?GetConnectionPointContainer@?$IConnectionPointImpl@VCOPOSDeviceMonitor@@$1?IID_IPropertyNotifySink@@3U_GUID@@BVCComDynamicUnkArray@ATL@@@ATL@@UEAAJPEAPEAUIConnectionPointContainer@@@Z 0000000180015a00 f i DeviceMonitor.obj
 0001:00014a60       ?GetContentExtent@?$IQuickActivateImpl@VCOPOSDeviceMonitor@@@ATL@@UEAAJPEAUtagSIZE@@@Z 0000000180015a60 f i DeviceMonitor.obj
 0001:00014b10       ?GetControlInfo@?$IOleControlImpl@VCOPOSDeviceMonitor@@@ATL@@UEAAJPEAUtagCONTROLINFO@@@Z 0000000180015b10 f i DeviceMonitor.obj
 0001:00014b80       ?GetCookie@CComDynamicUnkArray@ATL@@QEAAKPEAPEAUIUnknown@@@Z 0000000180015b80 f i DeviceMonitor.obj
 0001:00014c60       ?GetData@?$IDataObjectImpl@VCOPOSDeviceMonitor@@@ATL@@UEAAJPEAUtagFORMATETC@@PEAUtagSTGMEDIUM@@@Z 0000000180015c60 f i DeviceMonitor.obj
 0001:00014d10       ?GetData@CAtlSafeAllocBufferNode@?$CAtlSafeAllocBufferManager@VCCRTAllocator@ATL@@@_ATL_SAFE_ALLOCA_IMPL@ATL@@QEAAPEAXXZ 0000000180015d10 f i DeviceMonitor.obj
 0001:00014d30       ?GetDataHere@?$IDataObjectImpl@VCOPOSDeviceMonitor@@@ATL@@UEAAJPEAUtagFORMATETC@@PEAUtagSTGMEDIUM@@@Z 0000000180015d30 f i DeviceMonitor.obj
 0001:00014db0       ?GetDropTarget@?$IOleInPlaceObjectWindowlessImpl@VCOPOSDeviceMonitor@@@ATL@@UEAAJPEAPEAUIDropTarget@@@Z 0000000180015db0 f i DeviceMonitor.obj
 0001:00014e20       ?GetExtent@?$IOleObjectImpl@VCOPOSDeviceMonitor@@@ATL@@UEAAJKPEAUtagSIZE@@@Z 0000000180015e20 f i DeviceMonitor.obj
 0001:00014ee0       ?GetExtent@?$IViewObjectExImpl@VCOPOSDeviceMonitor@@@ATL@@UEAAJKJPEAUtagDVTARGETDEVICE@@PEAUtagSIZE@@@Z 0000000180015ee0 f i DeviceMonitor.obj
 0001:00014fe0       ?GetGITPtr@CAtlModule@ATL@@UEAAJPEAPEAUIGlobalInterfaceTable@@@Z 0000000180015fe0 f i DeviceMonitor.obj
 0001:00015110       ?GetGUID@?$IProvideClassInfo2Impl@$1?CLSID_OPOSDeviceMonitor@@3U_GUID@@B$1?DIID__IOPOSDeviceMonitorEvents@@3U2@B$1?LIBID_OposDeviceMonitor_CCO@@3U2@B$00$0A@VCComTypeInfoHolder@ATL@@@ATL@@UEAAJKPEAU_GUID@@@Z 0000000180016110 f i DeviceMonitor.obj
 0001:00015190       ?GetIDsOfNames@?$IDispatchImpl@UIOPOSDeviceMonitor@@$1?IID_IOPOSDeviceMonitor@@3U_GUID@@B$1?LIBID_OposDeviceMonitor_CCO@@3U3@B$00$0A@VCComTypeInfoHolder@ATL@@@ATL@@UEAAJAEBU_GUID@@PEAPEA_WIKPEAJ@Z 0000000180016190 f i DeviceMonitor.obj
 0001:000151e0       ?GetIDsOfNames@CComTypeInfoHolder@ATL@@QEAAJAEBU_GUID@@PEAPEA_WIKPEAJ@Z 00000001800161e0 f i DeviceMonitor.obj
 0001:000153f0       ?GetInterfaceSafetyOptions@?$IObjectSafetyImpl@VCOPOSDeviceMonitor@@$02@ATL@@UEAAJAEBU_GUID@@PEAK1@Z 00000001800163f0 f i DeviceMonitor.obj
 0001:00015590       ?GetKeyAt@?$CSimpleMap@PEA_WPEA_WVCExpansionVectorEqualHelper@ATL@@@ATL@@QEBAAEAPEA_WH@Z 0000000180016590 f i DeviceMonitor.obj
 0001:00015630       ?GetLockCount@CAtlModule@ATL@@UEAAJXZ 0000000180016630 f i DeviceMonitor.obj
 0001:00015640       ?GetMiscStatus@?$IOleObjectImpl@VCOPOSDeviceMonitor@@@ATL@@UEAAJKPEAK@Z 0000000180016640 f i DeviceMonitor.obj
 0001:000156c0       ?GetMoniker@?$IOleObjectImpl@VCOPOSDeviceMonitor@@@ATL@@UEAAJKKPEAPEAUIMoniker@@@Z 00000001800166c0 f i DeviceMonitor.obj
 0001:00015740       ?GetNaturalExtent@?$IViewObjectExImpl@VCOPOSDeviceMonitor@@@ATL@@UEAAJKJPEAUtagDVTARGETDEVICE@@PEAUHDC__@@PEAUtagExtentInfo@@PEAUtagSIZE@@@Z 0000000180016740 f i DeviceMonitor.obj
 0001:000158c0       ?GetObjectCLSID@?$CComCoClass@VCOPOSDeviceMonitor@@$1?CLSID_OPOSDeviceMonitor@@3U_GUID@@B@ATL@@SAAEBU_GUID@@XZ 00000001800168c0 f i DeviceMonitor.obj
 0001:000158d0       ?GetPages@?$ISpecifyPropertyPagesImpl@VCOPOSDeviceMonitor@@@ATL@@UEAAJPEAUtagCAUUID@@@Z 00000001800168d0 f i DeviceMonitor.obj
 0001:00015950       ?GetPagesHelper@?$ISpecifyPropertyPagesImpl@VCOPOSDeviceMonitor@@@ATL@@IEAAJPEAUtagCAUUID@@PEBUATL_PROPMAP_ENTRY@2@@Z 0000000180016950 f i DeviceMonitor.obj
 0001:00015bb0       ?GetProperty@?$CComPtr@UIDispatch@@@ATL@@QEAAJJPEAUtagVARIANT@@@Z 0000000180016bb0 f i DeviceMonitor.obj
 0001:00015be0       ?GetProperty@?$CComPtr@UIDispatch@@@ATL@@SAJPEAUIDispatch@@JPEAUtagVARIANT@@@Z 0000000180016be0 f i DeviceMonitor.obj
 0001:00015db0       ?GetPropertyMap@COPOSDeviceMonitor@@SAPEBUATL_PROPMAP_ENTRY@ATL@@XZ 0000000180016db0 f i DeviceMonitor.obj
 0001:00015dc0       ?GetRect@?$IViewObjectExImpl@VCOPOSDeviceMonitor@@@ATL@@UEAAJKPEAU_RECTL@@@Z 0000000180016dc0 f i DeviceMonitor.obj
 0001:00015e40       ?GetSize@?$CSimpleMap@PEA_WPEA_WVCExpansionVectorEqualHelper@ATL@@@ATL@@QEBAHXZ 0000000180016e40 f i DeviceMonitor.obj
 0001:00015e50       ?GetSize@CComDynamicUnkArray@ATL@@QEBAHXZ 0000000180016e50 f i DeviceMonitor.obj
 0001:00015e60       ?GetSizeMax@?$IPersistStreamInitImpl@VCOPOSDeviceMonitor@@@ATL@@UEAAJPEAT_ULARGE_INTEGER@@@Z 0000000180016e60 f i DeviceMonitor.obj
 0001:00016600       ?GetSizeMax@CComVariant@ATL@@QEBAJPEAT_ULARGE_INTEGER@@@Z 0000000180017600 f i DeviceMonitor.obj
 0001:00016a50       ?GetStreamSize@CComBSTR@ATL@@SAKPEA_W@Z 0000000180017a50 f i DeviceMonitor.obj
 0001:00016a90       ?GetTI@CComTypeInfoHolder@ATL@@QEAAJK@Z 0000000180017a90 f i DeviceMonitor.obj
 0001:00017360       ?GetTI@CComTypeInfoHolder@ATL@@QEAAJKPEAPEAUITypeInfo@@@Z 0000000180018360 f i DeviceMonitor.obj
 0001:00017440       ?GetTypeInfo@?$IDispatchImpl@UIOPOSDeviceMonitor@@$1?IID_IOPOSDeviceMonitor@@3U_GUID@@B$1?LIBID_OposDeviceMonitor_CCO@@3U3@B$00$0A@VCComTypeInfoHolder@ATL@@@ATL@@UEAAJIKPEAPEAUITypeInfo@@@Z 0000000180018440 f i DeviceMonitor.obj
 0001:00017480       ?GetTypeInfo@CComTypeInfoHolder@ATL@@QEAAJIKPEAPEAUITypeInfo@@@Z 0000000180018480 f i DeviceMonitor.obj
 0001:000174c0       ?GetTypeInfoCount@?$IDispatchImpl@UIOPOSDeviceMonitor@@$1?IID_IOPOSDeviceMonitor@@3U_GUID@@B$1?LIBID_OposDeviceMonitor_CCO@@3U3@B$00$0A@VCComTypeInfoHolder@ATL@@@ATL@@UEAAJPEAI@Z 00000001800184c0 f i DeviceMonitor.obj
 0001:000174f0       ?GetUnknown@CComDynamicUnkArray@ATL@@QEAAPEAUIUnknown@@K@Z 00000001800184f0 f i DeviceMonitor.obj
 0001:00017580       ?GetUnknown@COPOSDeviceMonitor@@QEAAPEAUIUnknown@@XZ 0000000180018580 f i DeviceMonitor.obj
 0001:000175a0       ?GetUserClassID@?$IOleObjectImpl@VCOPOSDeviceMonitor@@@ATL@@UEAAJPEAU_GUID@@@Z 00000001800185a0 f i DeviceMonitor.obj
 0001:00017660       ?GetUserType@?$IOleObjectImpl@VCOPOSDeviceMonitor@@@ATL@@UEAAJKPEAPEA_W@Z 0000000180018660 f i DeviceMonitor.obj
 0001:000176e0       ?GetValueAt@?$CSimpleMap@PEA_WPEA_WVCExpansionVectorEqualHelper@ATL@@@ATL@@QEBAAEAPEA_WH@Z 00000001800186e0 f i DeviceMonitor.obj
 0001:00017780       ?GetViewStatus@?$IViewObjectExImpl@VCOPOSDeviceMonitor@@@ATL@@UEAAJPEAK@Z 0000000180018780 f i DeviceMonitor.obj
 0001:00017870       ?GetWNDPROC@CWndProcThunk@ATL@@QEAAP6A_JPEAUHWND__@@I_K_J@ZXZ 0000000180018870 f i DeviceMonitor.obj
 0001:000178a0       ?GetWindow@?$IOleInPlaceActiveObjectImpl@VCOPOSDeviceMonitor@@@ATL@@UEAAJPEAPEAUHWND__@@@Z 00000001800188a0 f i DeviceMonitor.obj
 0001:00017990       ?GetWindow@?$IOleInPlaceObjectWindowlessImpl@VCOPOSDeviceMonitor@@@ATL@@UEAAJPEAPEAUHWND__@@@Z 0000000180018990 f i DeviceMonitor.obj
 0001:00017a80       ?GetWindowProc@?$CWindowImplBaseT@VCWindow@ATL@@V?$CWinTraits@$0FGAAAAAA@$0A@@2@@ATL@@UEAAP6A_JPEAUHWND__@@I_K_J@ZXZ 0000000180018a80 f i DeviceMonitor.obj
 0001:00017a90       ?GetWndCaption@?$CWindowImpl@VCOPOSDeviceMonitor@@VCWindow@ATL@@V?$CWinTraits@$0FGAAAAAA@$0A@@3@@ATL@@SAPEB_WXZ 0000000180018a90 f i DeviceMonitor.obj
 0001:00017aa0       ?GetWndClassInfo@?$CWindowImpl@VCOPOSDeviceMonitor@@VCWindow@ATL@@V?$CWinTraits@$0FGAAAAAA@$0A@@3@@ATL@@SAAEAU_ATL_WNDCLASSINFOW@2@XZ 0000000180018aa0 f i DeviceMonitor.obj
 0001:00017ab0       ?GetWndClassName@CWindow@ATL@@SAPEB_WXZ 0000000180018ab0 f i DeviceMonitor.obj
 0001:00017ac0       ?GetWndExStyle@?$CWinTraits@$0FGAAAAAA@$0A@@ATL@@SAKK@Z 0000000180018ac0 f i DeviceMonitor.obj
 0001:00017af0       ?GetWndExStyle@?$CWindowImplBaseT@VCWindow@ATL@@V?$CWinTraits@$0FGAAAAAA@$0A@@2@@ATL@@SAKK@Z 0000000180018af0 f i DeviceMonitor.obj
 0001:00017b10       ?GetWndStyle@?$CWinTraits@$0FGAAAAAA@$0A@@ATL@@SAKK@Z 0000000180018b10 f i DeviceMonitor.obj
 0001:00017b40       ?GetWndStyle@?$CWindowImplBaseT@VCWindow@ATL@@V?$CWinTraits@$0FGAAAAAA@$0A@@2@@ATL@@SAKK@Z 0000000180018b40 f i DeviceMonitor.obj
 0001:00017b60       ?GetZoomInfo@CComControlBase@ATL@@QEAAXAEAUATL_DRAWINFO@@@Z 0000000180018b60 f i DeviceMonitor.obj
 0001:00017d10       ?HKeyFromString@CRegParser@ATL@@KAPEAUHKEY__@@PEA_W@Z 0000000180018d10 f i DeviceMonitor.obj
 0001:00017d80       ?HandsOffStorage@?$IPersistStorageImpl@VCOPOSDeviceMonitor@@@ATL@@UEAAJXZ 0000000180018d80 f i DeviceMonitor.obj
 0001:00017de0       ?HasSubKeys@CRegParser@ATL@@IEAAHPEAUHKEY__@@@Z 0000000180018de0 f i DeviceMonitor.obj
 0001:00017f50       ?IDataObject_GetData@CComControlBase@ATL@@QEAAJPEAUtagFORMATETC@@PEAUtagSTGMEDIUM@@@Z 0000000180018f50 f i DeviceMonitor.obj
 0001:00018400       ?IOleInPlaceObject_InPlaceDeactivate@CComControlBase@ATL@@QEAAJXZ 0000000180019400 f i DeviceMonitor.obj
 0001:00018670       ?IOleInPlaceObject_SetObjectRects@CComControlBase@ATL@@QEAAJPEBUtagRECT@@0@Z 0000000180019670 f i DeviceMonitor.obj
 0001:00018860       ?IOleInPlaceObject_UIDeactivate@CComControlBase@ATL@@QEAAJXZ 0000000180019860 f i DeviceMonitor.obj
 0001:00018ad0       ?IOleObject_Advise@CComControlBase@ATL@@QEAAJPEAUIAdviseSink@@PEAK@Z 0000000180019ad0 f i DeviceMonitor.obj
 0001:00018b70       ?IOleObject_Close@CComControlBase@ATL@@QEAAJK@Z 0000000180019b70 f i DeviceMonitor.obj
 0001:00018ee0       ?IOleObject_GetClientSite@CComControlBase@ATL@@QEAAJPEAPEAUIOleClientSite@@@Z 0000000180019ee0 f i DeviceMonitor.obj
 0001:00018fa0       ?IOleObject_SetClientSite@CComControlBase@ATL@@QEAAJPEAUIOleClientSite@@@Z 0000000180019fa0 f i DeviceMonitor.obj
 0001:000190a0       ?IOleObject_SetExtent@CComControlBase@ATL@@QEAAJKPEAUtagSIZE@@@Z 000000018001a0a0 f i DeviceMonitor.obj
 0001:000191f0       ?IPSI_GetIPersistStreamInit@?$IPersistStorageImpl@VCOPOSDeviceMonitor@@@ATL@@AEAAPEAUIPersistStreamInit@@XZ 000000018001a1f0 f i DeviceMonitor.obj
 0001:000192b0       ?IPersistStreamInit_Load@?$IPersistStreamInitImpl@VCOPOSDeviceMonitor@@@ATL@@QEAAJPEAUIStream@@PEBUATL_PROPMAP_ENTRY@2@@Z 000000018001a2b0 f i DeviceMonitor.obj
 0001:00019340       ?IPersistStreamInit_Save@?$IPersistStreamInitImpl@VCOPOSDeviceMonitor@@@ATL@@QEAAJPEAUIStream@@HPEBUATL_PROPMAP_ENTRY@2@@Z 000000018001a340 f i DeviceMonitor.obj
 0001:000193e0       ?IQuickActivate_QuickActivate@CComControlBase@ATL@@QEAAJPEAUtagQACONTAINER@@PEAUtagQACONTROL@@@Z 000000018001a3e0 f i DeviceMonitor.obj
 0001:00019c20       ?IViewObject_Draw@CComControlBase@ATL@@QEAAJKJPEAXPEAUtagDVTARGETDEVICE@@PEAUHDC__@@2PEBU_RECTL@@3@Z 000000018001ac20 f i DeviceMonitor.obj
 0001:0001a070       ?InPlaceActivate@CComControlBase@ATL@@QEAAJJPEBUtagRECT@@@Z 000000018001b070 f i DeviceMonitor.obj
 0001:0001ac10       ?InPlaceDeactivate@?$IOleInPlaceObjectWindowlessImpl@VCOPOSDeviceMonitor@@@ATL@@UEAAJXZ 000000018001bc10 f i DeviceMonitor.obj
 0001:0001aca0       ?Increment@CComMultiThreadModel@ATL@@SAKPEAJ@Z 000000018001bca0 f i DeviceMonitor.obj
 0001:0001acc0       ?Increment@CComSingleThreadModel@ATL@@SAKPEAJ@Z 000000018001bcc0 f i DeviceMonitor.obj
 0001:0001ace0       ?Init@?$CComEnumImpl@UIEnumConnectionPoints@@$1?_GUID_b196b285_bab4_101a_b69c_00aa00341d07@@3U__s_GUID@@BPEAUIConnectionPoint@@V?$_CopyInterface@UIConnectionPoint@@@ATL@@@ATL@@QEAAJPEAPEAUIConnectionPoint@@0PEAUIUnknown@@W4CComEnumFlags@2@@Z 000000018001bce0 f i DeviceMonitor.obj
 0001:0001afc0       ?Init@?$CComEnumImpl@UIEnumConnections@@$1?_GUID_b196b287_bab4_101a_b69c_00aa00341d07@@3U__s_GUID@@BUtagCONNECTDATA@@V?$_Copy@UtagCONNECTDATA@@@ATL@@@ATL@@QEAAJPEAUtagCONNECTDATA@@0PEAUIUnknown@@W4CComEnumFlags@2@@Z 000000018001bfc0 f i DeviceMonitor.obj
 0001:0001b2a0       ?Init@CComFakeCriticalSection@ATL@@QEAAJXZ 000000018001c2a0 f i DeviceMonitor.obj
 0001:0001b2b0       ?Init@CComModule@ATL@@QEAAJPEAU_ATL_OBJMAP_ENTRY30@2@PEAUHINSTANCE__@@PEBU_GUID@@@Z 000000018001c2b0 f i DeviceMonitor.obj
 0001:0001b390       ?Init@CComSafeDeleteCriticalSection@ATL@@QEAAJXZ 000000018001c390 f i DeviceMonitor.obj
 0001:0001b410       ?Init@CDynamicStdCallThunk2@ATL@@QEAAH_KPEAX@Z 000000018001c410 f i DeviceMonitor.obj
 0001:0001b470       ?Init@CWndProcThunk@ATL@@QEAAHP6A_JPEAUHWND__@@I_K_J@ZPEAX@Z 000000018001c470 f i DeviceMonitor.obj
 0001:0001b4b0       ?InitFromData@?$IOleObjectImpl@VCOPOSDeviceMonitor@@@ATL@@UEAAJPEAUIDataObject@@HK@Z 000000018001c4b0 f i DeviceMonitor.obj
 0001:0001b530       ?InitLibId@?$CAtlModuleT@VCComModule@ATL@@@ATL@@SAXXZ 000000018001c530 f i DeviceMonitor.obj
 0001:0001b540       ?InitNew@?$IPersistStorageImpl@VCOPOSDeviceMonitor@@@ATL@@UEAAJPEAUIStorage@@@Z 000000018001c540 f i DeviceMonitor.obj
 0001:0001b630       ?InitNew@?$IPersistStreamInitImpl@VCOPOSDeviceMonitor@@@ATL@@UEAAJXZ 000000018001c630 f i DeviceMonitor.obj
 0001:0001b6d0       ?InlineIsEqualUnknown@ATL@@YAHAEBU_GUID@@@Z 000000018001c6d0 f i DeviceMonitor.obj
 0001:0001b750       ?InternalAddRef@?$CComObjectRootEx@VCComMultiThreadModel@ATL@@@ATL@@QEAAKXZ 000000018001c750 f i DeviceMonitor.obj
 0001:0001b7c0       ?InternalAddRef@?$CComObjectRootEx@VCComSingleThreadModel@ATL@@@ATL@@QEAAKXZ 000000018001c7c0 f i DeviceMonitor.obj
 0001:0001b830       ?InternalFinalConstructAddRef@CComObjectRootBase@ATL@@QEAAXXZ 000000018001c830 f i DeviceMonitor.obj
 0001:0001b840       ?InternalFinalConstructAddRef@COPOSDeviceMonitor@@QEAAXXZ 000000018001c840 f i DeviceMonitor.obj
 0001:0001b870       ?InternalFinalConstructRelease@CComObjectRootBase@ATL@@QEAAXXZ 000000018001c870 f i DeviceMonitor.obj
 0001:0001b8d0       ?InternalFinalConstructRelease@COPOSDeviceMonitor@@QEAAXXZ 000000018001c8d0 f i DeviceMonitor.obj
 0001:0001b900       ?InternalGetSite@CComControlBase@ATL@@QEAAJAEBU_GUID@@PEAPEAX@Z 000000018001c900 f i DeviceMonitor.obj
 0001:0001b9d0       ?InternalQueryInterface@CComObjectRootBase@ATL@@SAJPEAXPEBU_ATL_INTMAP_ENTRY@2@AEBU_GUID@@PEAPEAX@Z 000000018001c9d0 f i DeviceMonitor.obj
 0001:0001bae0       ?InternalRelease@?$CComObjectRootEx@VCComMultiThreadModel@ATL@@@ATL@@QEAAKXZ 000000018001cae0 f i DeviceMonitor.obj
 0001:0001bb50       ?InternalRelease@?$CComObjectRootEx@VCComSingleThreadModel@ATL@@@ATL@@QEAAKXZ 000000018001cb50 f i DeviceMonitor.obj
 0001:0001bbc0       ?InternalSetAtIndex@?$CSimpleArray@GV?$CSimpleArrayEqualHelper@G@ATL@@@ATL@@QEAAXHAEBG@Z 000000018001cbc0 f i DeviceMonitor.obj
 0001:0001bc30       ?InternalSetAtIndex@?$CSimpleMap@PEA_WPEA_WVCExpansionVectorEqualHelper@ATL@@@ATL@@QEAAXHAEBQEA_W0@Z 000000018001cc30 f i DeviceMonitor.obj
 0001:0001bcf0       ?Invoke@?$IDispatchImpl@UIOPOSDeviceMonitor@@$1?IID_IOPOSDeviceMonitor@@3U_GUID@@B$1?LIBID_OposDeviceMonitor_CCO@@3U3@B$00$0A@VCComTypeInfoHolder@ATL@@@ATL@@UEAAJJAEBU_GUID@@KGPEAUtagDISPPARAMS@@PEAUtagVARIANT@@PEAUtagEXCEPINFO@@PEAI@Z 000000018001ccf0 f i DeviceMonitor.obj
 0001:0001bd80       ?Invoke@CComTypeInfoHolder@ATL@@QEAAJPEAUIDispatch@@JAEBU_GUID@@KGPEAUtagDISPPARAMS@@PEAUtagVARIANT@@PEAUtagEXCEPINFO@@PEAI@Z 000000018001cd80 f i DeviceMonitor.obj
 0001:0001be30       ?IsDirty@?$IPersistStorageImpl@VCOPOSDeviceMonitor@@@ATL@@UEAAJXZ 000000018001ce30 f i DeviceMonitor.obj
 0001:0001bf20       ?IsDirty@?$IPersistStreamInitImpl@VCOPOSDeviceMonitor@@@ATL@@UEAAJXZ 000000018001cf20 f i DeviceMonitor.obj
 0001:0001bfd0       ?IsEqualKey@CExpansionVectorEqualHelper@ATL@@SA_NQEA_W0@Z 000000018001cfd0 f i DeviceMonitor.obj
 0001:0001c000       ?IsEqualObject@?$CComPtrBase@UIOleClientSite@@@ATL@@QEAA_NPEAUIUnknown@@@Z 000000018001d000 f i DeviceMonitor.obj
 0001:0001c150       ?IsEqualObject@?$CComPtrBase@UITypeInfo@@@ATL@@QEAA_NPEAUIUnknown@@@Z 000000018001d150 f i DeviceMonitor.obj
 0001:0001c2a0       ?IsSpace@CRegParser@ATL@@IEAAH_W@Z 000000018001d2a0 f i DeviceMonitor.obj
 0001:0001c2e0       ?IsUpToDate@?$IOleObjectImpl@VCOPOSDeviceMonitor@@@ATL@@UEAAJXZ 000000018001d2e0 f i DeviceMonitor.obj
 0001:0001c340       ?Length@CComBSTR@ATL@@QEBAIXZ 000000018001d340 f i DeviceMonitor.obj
 0001:0001c360       ?Load@?$IPersistStorageImpl@VCOPOSDeviceMonitor@@@ATL@@UEAAJPEAUIStorage@@@Z 000000018001d360 f i DeviceMonitor.obj
 0001:0001c510       ?Load@?$IPersistStreamInitImpl@VCOPOSDeviceMonitor@@@ATL@@UEAAJPEAUIStream@@@Z 000000018001d510 f i DeviceMonitor.obj
 0001:0001c5c0       ?LoadCursorW@AtlModuleRegisterWndClassInfoParamW@ATL@@SAPEAUHICON__@@PEAUHINSTANCE__@@PEB_W@Z 000000018001d5c0 f i DeviceMonitor.obj
 0001:0001c5f0       ?LoadNameCache@CComTypeInfoHolder@ATL@@QEAAJPEAUITypeInfo@@@Z 000000018001d5f0 f i DeviceMonitor.obj
 0001:0001c930       ?Lock@?$CComCritSecLock@VCComCriticalSection@ATL@@@ATL@@QEAAJXZ 000000018001d930 f i DeviceMonitor.obj
 0001:0001ca00       ?Lock@?$CComObjectRootEx@VCComSingleThreadModel@ATL@@@ATL@@QEAAXXZ 000000018001da00 f i DeviceMonitor.obj
 0001:0001ca10       ?Lock@CAtlModule@ATL@@UEAAJXZ 000000018001da10 f i DeviceMonitor.obj
 0001:0001ca40       ?Lock@CComCriticalSection@ATL@@QEAAJXZ 000000018001da40 f i DeviceMonitor.obj
 0001:0001ca60       ?Lock@CComFakeCriticalSection@ATL@@QEAAJXZ 000000018001da60 f i DeviceMonitor.obj
 0001:0001ca70       ?LockServer@CComClassFactory@ATL@@UEAAJH@Z 000000018001da70 f i DeviceMonitor.obj
 0001:0001cac0       ?Lookup@?$CSimpleMap@PEA_WPEA_WVCExpansionVectorEqualHelper@ATL@@@ATL@@QEBAPEA_WAEBQEA_W@Z 000000018001dac0 f i DeviceMonitor.obj
 0001:0001cb10       ?Next@?$CComEnumImpl@UIEnumConnectionPoints@@$1?_GUID_b196b285_bab4_101a_b69c_00aa00341d07@@3U__s_GUID@@BPEAUIConnectionPoint@@V?$_CopyInterface@UIConnectionPoint@@@ATL@@@ATL@@UEAAJKPEAPEAUIConnectionPoint@@PEAK@Z 000000018001db10 f i DeviceMonitor.obj
 0001:0001ccc0       ?Next@?$CComEnumImpl@UIEnumConnections@@$1?_GUID_b196b287_bab4_101a_b69c_00aa00341d07@@3U__s_GUID@@BUtagCONNECTDATA@@V?$_Copy@UtagCONNECTDATA@@@ATL@@@ATL@@UEAAJKPEAUtagCONNECTDATA@@PEAK@Z 000000018001dcc0 f i DeviceMonitor.obj
 0001:0001ce70       ?NextToken@CRegParser@ATL@@IEAAJPEA_W@Z 000000018001de70 f i DeviceMonitor.obj
 0001:0001d1f0       ?OLE2CT_EX@@YAPEB_WPEB_WI@Z 000000018001e1f0 f i DeviceMonitor.obj
 0001:0001d210       ?OLE2CT_EX_DEF@@YAPEB_WPEB_W@Z 000000018001e210 f i DeviceMonitor.obj
 0001:0001d220       ?OLE2T_EX@@YAPEA_WPEA_WI@Z 000000018001e220 f i DeviceMonitor.obj
 0001:0001d240       ?OnAmbientPropertyChange@?$IOleControlImpl@VCOPOSDeviceMonitor@@@ATL@@UEAAJJ@Z 000000018001e240 f i DeviceMonitor.obj
 0001:0001d2f0       ?OnDocWindowActivate@?$IOleInPlaceActiveObjectImpl@VCOPOSDeviceMonitor@@@ATL@@UEAAJH@Z 000000018001e2f0 f i DeviceMonitor.obj
 0001:0001d390       ?OnDrawAdvanced@CComControlBase@ATL@@UEAAJAEAUATL_DRAWINFO@@@Z 000000018001e390 f i DeviceMonitor.obj
 0001:0001d5e0       ?OnFinalMessage@?$CWindowImplBaseT@VCWindow@ATL@@V?$CWinTraits@$0FGAAAAAA@$0A@@2@@ATL@@UEAAXPEAUHWND__@@@Z 000000018001e5e0 f i DeviceMonitor.obj
 0001:0001d5f0       ?OnFrameWindowActivate@?$IOleInPlaceActiveObjectImpl@VCOPOSDeviceMonitor@@@ATL@@UEAAJH@Z 000000018001e5f0 f i DeviceMonitor.obj
 0001:0001d650       ?OnKillFocus@CComControlBase@ATL@@QEAA_JI_K_JAEAH@Z 000000018001e650 f i DeviceMonitor.obj
 0001:0001d750       ?OnMnemonic@?$IOleControlImpl@VCOPOSDeviceMonitor@@@ATL@@UEAAJPEAUtagMSG@@@Z 000000018001e750 f i DeviceMonitor.obj
 0001:0001d7c0       ?OnMouseActivate@CComControlBase@ATL@@QEAA_JI_K_JAEAH@Z 000000018001e7c0 f i DeviceMonitor.obj
 0001:0001d960       ?OnPaint@CComControlBase@ATL@@QEAA_JI_K_JAEAH@Z 000000018001e960 f i DeviceMonitor.obj
 0001:0001daf0       ?OnPostVerbDiscardUndo@?$IOleObjectImpl@VCOPOSDeviceMonitor@@@ATL@@QEAAJXZ 000000018001eaf0 f i DeviceMonitor.obj
 0001:0001db00       ?OnPostVerbHide@?$IOleObjectImpl@VCOPOSDeviceMonitor@@@ATL@@QEAAJXZ 000000018001eb00 f i DeviceMonitor.obj
 0001:0001db10       ?OnPostVerbInPlaceActivate@?$IOleObjectImpl@VCOPOSDeviceMonitor@@@ATL@@QEAAJXZ 000000018001eb10 f i DeviceMonitor.obj
 0001:0001db20       ?OnPostVerbOpen@?$IOleObjectImpl@VCOPOSDeviceMonitor@@@ATL@@QEAAJXZ 000000018001eb20 f i DeviceMonitor.obj
 0001:0001db30       ?OnPostVerbShow@?$IOleObjectImpl@VCOPOSDeviceMonitor@@@ATL@@QEAAJXZ 000000018001eb30 f i DeviceMonitor.obj
 0001:0001db40       ?OnPostVerbUIActivate@?$IOleObjectImpl@VCOPOSDeviceMonitor@@@ATL@@QEAAJXZ 000000018001eb40 f i DeviceMonitor.obj
 0001:0001db50       ?OnPreVerbDiscardUndo@?$IOleObjectImpl@VCOPOSDeviceMonitor@@@ATL@@QEAAJXZ 000000018001eb50 f i DeviceMonitor.obj
 0001:0001db60       ?OnPreVerbHide@?$IOleObjectImpl@VCOPOSDeviceMonitor@@@ATL@@QEAAJXZ 000000018001eb60 f i DeviceMonitor.obj
 0001:0001db70       ?OnPreVerbInPlaceActivate@?$IOleObjectImpl@VCOPOSDeviceMonitor@@@ATL@@QEAAJXZ 000000018001eb70 f i DeviceMonitor.obj
 0001:0001db80       ?OnPreVerbOpen@?$IOleObjectImpl@VCOPOSDeviceMonitor@@@ATL@@QEAAJXZ 000000018001eb80 f i DeviceMonitor.obj
 0001:0001db90       ?OnPreVerbShow@?$IOleObjectImpl@VCOPOSDeviceMonitor@@@ATL@@QEAAJXZ 000000018001eb90 f i DeviceMonitor.obj
 0001:0001dba0       ?OnPreVerbUIActivate@?$IOleObjectImpl@VCOPOSDeviceMonitor@@@ATL@@QEAAJXZ 000000018001eba0 f i DeviceMonitor.obj
 0001:0001dbb0       ?OnSetFocus@CComControlBase@ATL@@QEAA_JI_K_JAEAH@Z 000000018001ebb0 f i DeviceMonitor.obj
 0001:0001ddb0       ?OnWindowMessage@?$IOleInPlaceObjectWindowlessImpl@VCOPOSDeviceMonitor@@@ATL@@UEAAJI_K_JPEA_J@Z 000000018001edb0 f i DeviceMonitor.obj
 0001:0001dfd0       ?Open@CRegKey@ATL@@QEAAJPEAUHKEY__@@PEB_WK@Z 000000018001efd0 f i DeviceMonitor.obj
 0001:0001e150       ?OuterAddRef@CComObjectRootBase@ATL@@QEAAKXZ 000000018001f150 f i DeviceMonitor.obj
 0001:0001e180       ?OuterQueryInterface@CComObjectRootBase@ATL@@QEAAJAEBU_GUID@@PEAPEAX@Z 000000018001f180 f i DeviceMonitor.obj
 0001:0001e1c0       ?OuterRelease@CComObjectRootBase@ATL@@QEAAKXZ 000000018001f1c0 f i DeviceMonitor.obj
 0001:0001e1f0       ?PreProcessBuffer@CRegParser@ATL@@QEAAJPEA_WPEAPEA_W@Z 000000018001f1f0 f i DeviceMonitor.obj
 0001:0001e8d0       ?PreTranslateAccelerator@CComControlBase@ATL@@QEAAHPEAUtagMSG@@AEAJ@Z 000000018001f8d0 f i DeviceMonitor.obj
 0001:0001e8f0       ?ProcessWindowMessage@?$CComControl@VCOPOSDeviceMonitor@@V?$CWindowImpl@VCOPOSDeviceMonitor@@VCWindow@ATL@@V?$CWinTraits@$0FGAAAAAA@$0A@@3@@ATL@@@ATL@@UEAAHPEAUHWND__@@I_K_JAEA_JK@Z 000000018001f8f0 f i DeviceMonitor.obj
 0001:0001eb70       ?ProcessWindowMessage@COPOSDeviceMonitor@@UEAAHPEAUHWND__@@I_K_JAEA_JK@Z 000000018001fb70 f i DeviceMonitor.obj
 0001:0001ecd0       ?PutProperty@?$CComPtr@UIDispatch@@@ATL@@QEAAJJPEAUtagVARIANT@@@Z 000000018001fcd0 f i DeviceMonitor.obj
 0001:0001ed00       ?PutProperty@?$CComPtr@UIDispatch@@@ATL@@SAJPEAUIDispatch@@JPEAUtagVARIANT@@@Z 000000018001fd00 f i DeviceMonitor.obj
 0001:0001efb0       ?QueryGetData@?$IDataObjectImpl@VCOPOSDeviceMonitor@@@ATL@@UEAAJPEAUtagFORMATETC@@@Z 000000018001ffb0 f i DeviceMonitor.obj
 0001:0001f020       ?QueryHitPoint@?$IViewObjectExImpl@VCOPOSDeviceMonitor@@@ATL@@UEAAJKPEBUtagRECT@@UtagPOINT@@JPEAK@Z 0000000180020020 f i DeviceMonitor.obj
 0001:0001f180       ?QueryHitRect@?$IViewObjectExImpl@VCOPOSDeviceMonitor@@@ATL@@UEAAJKPEBUtagRECT@@0JPEAK@Z 0000000180020180 f i DeviceMonitor.obj
 0001:0001f350       ?QueryInterface@?$CComAggObject@VCOPOSDeviceMonitor@@@ATL@@UEAAJAEBU_GUID@@PEAPEAX@Z 0000000180020350 f i DeviceMonitor.obj
 0001:0001f420       ?QueryInterface@?$CComContainedObject@VCOPOSDeviceMonitor@@@ATL@@UEAAJAEBU_GUID@@PEAPEAX@Z 0000000180020420 f i DeviceMonitor.obj
 0001:0001f458       ?QueryInterface@?$CComContainedObject@VCOPOSDeviceMonitor@@@ATL@@WBAA@EAAJAEBU_GUID@@PEAPEAX@Z 0000000180020458 f i DeviceMonitor.obj
 0001:0001f464       ?QueryInterface@?$CComContainedObject@VCOPOSDeviceMonitor@@@ATL@@WBAI@EAAJAEBU_GUID@@PEAPEAX@Z 0000000180020464 f i DeviceMonitor.obj
 0001:0001f470       ?QueryInterface@?$CComContainedObject@VCOPOSDeviceMonitor@@@ATL@@WBBA@EAAJAEBU_GUID@@PEAPEAX@Z 0000000180020470 f i DeviceMonitor.obj
 0001:0001f47c       ?QueryInterface@?$CComContainedObject@VCOPOSDeviceMonitor@@@ATL@@WBBI@EAAJAEBU_GUID@@PEAPEAX@Z 000000018002047c f i DeviceMonitor.obj
 0001:0001f488       ?QueryInterface@?$CComContainedObject@VCOPOSDeviceMonitor@@@ATL@@WLI@EAAJAEBU_GUID@@PEAPEAX@Z 0000000180020488 f i DeviceMonitor.obj
 0001:0001f494       ?QueryInterface@?$CComContainedObject@VCOPOSDeviceMonitor@@@ATL@@WMA@EAAJAEBU_GUID@@PEAPEAX@Z 0000000180020494 f i DeviceMonitor.obj
 0001:0001f4a0       ?QueryInterface@?$CComContainedObject@VCOPOSDeviceMonitor@@@ATL@@WMI@EAAJAEBU_GUID@@PEAPEAX@Z 00000001800204a0 f i DeviceMonitor.obj
 0001:0001f4ac       ?QueryInterface@?$CComContainedObject@VCOPOSDeviceMonitor@@@ATL@@WNA@EAAJAEBU_GUID@@PEAPEAX@Z 00000001800204ac f i DeviceMonitor.obj
 0001:0001f4b8       ?QueryInterface@?$CComContainedObject@VCOPOSDeviceMonitor@@@ATL@@WNI@EAAJAEBU_GUID@@PEAPEAX@Z 00000001800204b8 f i DeviceMonitor.obj
 0001:0001f4c4       ?QueryInterface@?$CComContainedObject@VCOPOSDeviceMonitor@@@ATL@@WOA@EAAJAEBU_GUID@@PEAPEAX@Z 00000001800204c4 f i DeviceMonitor.obj
 0001:0001f4d0       ?QueryInterface@?$CComContainedObject@VCOPOSDeviceMonitor@@@ATL@@WOI@EAAJAEBU_GUID@@PEAPEAX@Z 00000001800204d0 f i DeviceMonitor.obj
 0001:0001f4dc       ?QueryInterface@?$CComContainedObject@VCOPOSDeviceMonitor@@@ATL@@WPA@EAAJAEBU_GUID@@PEAPEAX@Z 00000001800204dc f i DeviceMonitor.obj
 0001:0001f4e8       ?QueryInterface@?$CComContainedObject@VCOPOSDeviceMonitor@@@ATL@@WPI@EAAJAEBU_GUID@@PEAPEAX@Z 00000001800204e8 f i DeviceMonitor.obj
 0001:0001f500       ?QueryInterface@?$CComObject@V?$CComEnum@UIEnumConnectionPoints@@$1?_GUID_b196b285_bab4_101a_b69c_00aa00341d07@@3U__s_GUID@@BPEAUIConnectionPoint@@V?$_CopyInterface@UIConnectionPoint@@@ATL@@VCComSingleThreadModel@6@@ATL@@@ATL@@UEAAJAEBU_GUID@@PEAPEAX@Z 0000000180020500 f i DeviceMonitor.obj
 0001:0001f530       ?QueryInterface@?$CComObject@V?$CComEnum@UIEnumConnections@@$1?_GUID_b196b287_bab4_101a_b69c_00aa00341d07@@3U__s_GUID@@BUtagCONNECTDATA@@V?$_Copy@UtagCONNECTDATA@@@ATL@@VCComSingleThreadModel@6@@ATL@@@ATL@@UEAAJAEBU_GUID@@PEAPEAX@Z 0000000180020530 f i DeviceMonitor.obj
 0001:0001f560       ?QueryInterface@?$CComObject@VCOPOSDeviceMonitor@@@ATL@@UEAAJAEBU_GUID@@PEAPEAX@Z 0000000180020560 f i DeviceMonitor.obj
 0001:0001f590       ?QueryInterface@?$CComObject@VCOPOSDeviceMonitor@@@ATL@@WBAA@EAAJAEBU_GUID@@PEAPEAX@Z 0000000180020590 f i DeviceMonitor.obj
 0001:0001f59c       ?QueryInterface@?$CComObject@VCOPOSDeviceMonitor@@@ATL@@WBAI@EAAJAEBU_GUID@@PEAPEAX@Z 000000018002059c f i DeviceMonitor.obj
 0001:0001f5a8       ?QueryInterface@?$CComObject@VCOPOSDeviceMonitor@@@ATL@@WBBA@EAAJAEBU_GUID@@PEAPEAX@Z 00000001800205a8 f i DeviceMonitor.obj
 0001:0001f5b4       ?QueryInterface@?$CComObject@VCOPOSDeviceMonitor@@@ATL@@WBBI@EAAJAEBU_GUID@@PEAPEAX@Z 00000001800205b4 f i DeviceMonitor.obj
 0001:0001f5c0       ?QueryInterface@?$CComObject@VCOPOSDeviceMonitor@@@ATL@@WLI@EAAJAEBU_GUID@@PEAPEAX@Z 00000001800205c0 f i DeviceMonitor.obj
 0001:0001f5cc       ?QueryInterface@?$CComObject@VCOPOSDeviceMonitor@@@ATL@@WMA@EAAJAEBU_GUID@@PEAPEAX@Z 00000001800205cc f i DeviceMonitor.obj
 0001:0001f5d8       ?QueryInterface@?$CComObject@VCOPOSDeviceMonitor@@@ATL@@WMI@EAAJAEBU_GUID@@PEAPEAX@Z 00000001800205d8 f i DeviceMonitor.obj
 0001:0001f5e4       ?QueryInterface@?$CComObject@VCOPOSDeviceMonitor@@@ATL@@WNA@EAAJAEBU_GUID@@PEAPEAX@Z 00000001800205e4 f i DeviceMonitor.obj
 0001:0001f5f0       ?QueryInterface@?$CComObject@VCOPOSDeviceMonitor@@@ATL@@WNI@EAAJAEBU_GUID@@PEAPEAX@Z 00000001800205f0 f i DeviceMonitor.obj
 0001:0001f5fc       ?QueryInterface@?$CComObject@VCOPOSDeviceMonitor@@@ATL@@WOA@EAAJAEBU_GUID@@PEAPEAX@Z 00000001800205fc f i DeviceMonitor.obj
 0001:0001f608       ?QueryInterface@?$CComObject@VCOPOSDeviceMonitor@@@ATL@@WOI@EAAJAEBU_GUID@@PEAPEAX@Z 0000000180020608 f i DeviceMonitor.obj
 0001:0001f614       ?QueryInterface@?$CComObject@VCOPOSDeviceMonitor@@@ATL@@WPA@EAAJAEBU_GUID@@PEAPEAX@Z 0000000180020614 f i DeviceMonitor.obj
 0001:0001f620       ?QueryInterface@?$CComObject@VCOPOSDeviceMonitor@@@ATL@@WPI@EAAJAEBU_GUID@@PEAPEAX@Z 0000000180020620 f i DeviceMonitor.obj
 0001:0001f630       ?QueryInterface@?$CComObjectCached@VCComClassFactory@ATL@@@ATL@@UEAAJAEBU_GUID@@PEAPEAX@Z 0000000180020630 f i DeviceMonitor.obj
 0001:0001f660       ?QueryInterface@CRegObject@ATL@@UEAAJAEBU_GUID@@PEAPEAX@Z 0000000180020660 f i DeviceMonitor.obj
 0001:0001f6d0       ?QuickActivate@?$IQuickActivateImpl@VCOPOSDeviceMonitor@@@ATL@@UEAAJPEAUtagQACONTAINER@@PEAUtagQACONTROL@@@Z 00000001800206d0 f i DeviceMonitor.obj
 0001:0001f780       ?ReactivateAndUndo@?$IOleInPlaceObjectWindowlessImpl@VCOPOSDeviceMonitor@@@ATL@@UEAAJXZ 0000000180020780 f i DeviceMonitor.obj
 0001:0001f7f0       ?ReadFromStream@CComBSTR@ATL@@QEAAJPEAUIStream@@@Z 00000001800207f0 f i DeviceMonitor.obj
 0001:0001fcd0       ?ReadFromStream@CComVariant@ATL@@QEAAJPEAUIStream@@GTClassesAllowedInStream@2@K@Z 0000000180020cd0 f i DeviceMonitor.obj
 0001:00020110       ?RecurseDeleteKey@CRegKey@ATL@@QEAAJPEB_W@Z 0000000180021110 f i DeviceMonitor.obj
 0001:00020330       ?RegCreateKeyExW@CAtlTransactionManager@ATL@@QEAAJPEAUHKEY__@@PEB_WKPEA_WKKQEAU_SECURITY_ATTRIBUTES@@PEAPEAU3@PEAK@Z 0000000180021330 f i DeviceMonitor.obj
 0001:000204e0       ?RegDeleteKeyW@CAtlTransactionManager@ATL@@QEAAJPEAUHKEY__@@PEB_W@Z 00000001800214e0 f i DeviceMonitor.obj
 0001:000205e0       ?RegOpenKeyExW@CAtlTransactionManager@ATL@@QEAAJPEAUHKEY__@@PEB_WKKPEAPEAU3@@Z 00000001800215e0 f i DeviceMonitor.obj
 0001:00020720       ?Register@_ATL_WNDCLASSINFOW@ATL@@QEAAGPEAP6A_JPEAUHWND__@@I_K_J@Z@Z 0000000180021720 f i DeviceMonitor.obj
 0001:00020760       ?RegisterBuffer@CRegParser@ATL@@QEAAJPEA_WH@Z 0000000180021760 f i DeviceMonitor.obj
 0001:00020b50       ?RegisterClassExW@AtlModuleRegisterWndClassInfoParamW@ATL@@SAGPEAU_ATL_WIN_MODULE70@2@PEBUtagWNDCLASSEXW@@@Z 0000000180021b50 f i DeviceMonitor.obj
 0001:00020b80       ?RegisterFromResource@CRegObject@ATL@@IEAAJPEB_W00H@Z 0000000180021b80 f i DeviceMonitor.obj
 0001:00020fe0       ?RegisterServer@?$CAtlModuleT@VCComModule@ATL@@@ATL@@QEAAJHPEBU_GUID@@@Z 0000000180021fe0 f i DeviceMonitor.obj
 0001:00021040       ?RegisterServer@CAtlComModule@ATL@@QEAAJHPEBU_GUID@@@Z 0000000180022040 f i DeviceMonitor.obj
 0001:00021070       ?RegisterServer@CComModule@ATL@@QEAAJHPEBU_GUID@@@Z 0000000180022070 f i DeviceMonitor.obj
 0001:00021150       ?RegisterSubkeys@CRegParser@ATL@@IEAAJPEA_WPEAUHKEY__@@HH@Z 0000000180022150 f i DeviceMonitor.obj
 0001:00021f30       ?Release@?$CComAggObject@VCOPOSDeviceMonitor@@@ATL@@UEAAKXZ 0000000180022f30 f i DeviceMonitor.obj
 0001:00021fe0       ?Release@?$CComContainedObject@VCOPOSDeviceMonitor@@@ATL@@UEAAKXZ 0000000180022fe0 f i DeviceMonitor.obj
 0001:00022004       ?Release@?$CComContainedObject@VCOPOSDeviceMonitor@@@ATL@@WBAA@EAAKXZ 0000000180023004 f i DeviceMonitor.obj
 0001:00022010       ?Release@?$CComContainedObject@VCOPOSDeviceMonitor@@@ATL@@WBAI@EAAKXZ 0000000180023010 f i DeviceMonitor.obj
 0001:0002201c       ?Release@?$CComContainedObject@VCOPOSDeviceMonitor@@@ATL@@WBBA@EAAKXZ 000000018002301c f i DeviceMonitor.obj
 0001:00022028       ?Release@?$CComContainedObject@VCOPOSDeviceMonitor@@@ATL@@WBBI@EAAKXZ 0000000180023028 f i DeviceMonitor.obj
 0001:00022034       ?Release@?$CComContainedObject@VCOPOSDeviceMonitor@@@ATL@@WBCI@EAAKXZ 0000000180023034 f i DeviceMonitor.obj
 0001:00022040       ?Release@?$CComContainedObject@VCOPOSDeviceMonitor@@@ATL@@WBEA@EAAKXZ 0000000180023040 f i DeviceMonitor.obj
 0001:0002204c       ?Release@?$CComContainedObject@VCOPOSDeviceMonitor@@@ATL@@WLI@EAAKXZ 000000018002304c f i DeviceMonitor.obj
 0001:00022058       ?Release@?$CComContainedObject@VCOPOSDeviceMonitor@@@ATL@@WMA@EAAKXZ 0000000180023058 f i DeviceMonitor.obj
 0001:00022064       ?Release@?$CComContainedObject@VCOPOSDeviceMonitor@@@ATL@@WMI@EAAKXZ 0000000180023064 f i DeviceMonitor.obj
 0001:00022070       ?Release@?$CComContainedObject@VCOPOSDeviceMonitor@@@ATL@@WNA@EAAKXZ 0000000180023070 f i DeviceMonitor.obj
 0001:0002207c       ?Release@?$CComContainedObject@VCOPOSDeviceMonitor@@@ATL@@WNI@EAAKXZ 000000018002307c f i DeviceMonitor.obj
 0001:00022088       ?Release@?$CComContainedObject@VCOPOSDeviceMonitor@@@ATL@@WOA@EAAKXZ 0000000180023088 f i DeviceMonitor.obj
 0001:00022094       ?Release@?$CComContainedObject@VCOPOSDeviceMonitor@@@ATL@@WOI@EAAKXZ 0000000180023094 f i DeviceMonitor.obj
 0001:000220a0       ?Release@?$CComContainedObject@VCOPOSDeviceMonitor@@@ATL@@WPA@EAAKXZ 00000001800230a0 f i DeviceMonitor.obj
 0001:000220ac       ?Release@?$CComContainedObject@VCOPOSDeviceMonitor@@@ATL@@WPI@EAAKXZ 00000001800230ac f i DeviceMonitor.obj
 0001:000220c0       ?Release@?$CComObject@V?$CComEnum@UIEnumConnectionPoints@@$1?_GUID_b196b285_bab4_101a_b69c_00aa00341d07@@3U__s_GUID@@BPEAUIConnectionPoint@@V?$_CopyInterface@UIConnectionPoint@@@ATL@@VCComSingleThreadModel@6@@ATL@@@ATL@@UEAAKXZ 00000001800230c0 f i DeviceMonitor.obj
 0001:00022170       ?Release@?$CComObject@V?$CComEnum@UIEnumConnections@@$1?_GUID_b196b287_bab4_101a_b69c_00aa00341d07@@3U__s_GUID@@BUtagCONNECTDATA@@V?$_Copy@UtagCONNECTDATA@@@ATL@@VCComSingleThreadModel@6@@ATL@@@ATL@@UEAAKXZ 0000000180023170 f i DeviceMonitor.obj
 0001:00022220       ?Release@?$CComObject@VCOPOSDeviceMonitor@@@ATL@@UEAAKXZ 0000000180023220 f i DeviceMonitor.obj
 0001:000222d8       ?Release@?$CComObject@VCOPOSDeviceMonitor@@@ATL@@WBAA@EAAKXZ 00000001800232d8 f i DeviceMonitor.obj
 0001:000222e4       ?Release@?$CComObject@VCOPOSDeviceMonitor@@@ATL@@WBAI@EAAKXZ 00000001800232e4 f i DeviceMonitor.obj
 0001:000222f0       ?Release@?$CComObject@VCOPOSDeviceMonitor@@@ATL@@WBBA@EAAKXZ 00000001800232f0 f i DeviceMonitor.obj
 0001:000222fc       ?Release@?$CComObject@VCOPOSDeviceMonitor@@@ATL@@WBBI@EAAKXZ 00000001800232fc f i DeviceMonitor.obj
 0001:00022308       ?Release@?$CComObject@VCOPOSDeviceMonitor@@@ATL@@WBCI@EAAKXZ 0000000180023308 f i DeviceMonitor.obj
 0001:00022314       ?Release@?$CComObject@VCOPOSDeviceMonitor@@@ATL@@WBEA@EAAKXZ 0000000180023314 f i DeviceMonitor.obj
 0001:00022320       ?Release@?$CComObject@VCOPOSDeviceMonitor@@@ATL@@WLI@EAAKXZ 0000000180023320 f i DeviceMonitor.obj
 0001:0002232c       ?Release@?$CComObject@VCOPOSDeviceMonitor@@@ATL@@WMA@EAAKXZ 000000018002332c f i DeviceMonitor.obj
 0001:00022338       ?Release@?$CComObject@VCOPOSDeviceMonitor@@@ATL@@WMI@EAAKXZ 0000000180023338 f i DeviceMonitor.obj
 0001:00022344       ?Release@?$CComObject@VCOPOSDeviceMonitor@@@ATL@@WNA@EAAKXZ 0000000180023344 f i DeviceMonitor.obj
 0001:00022350       ?Release@?$CComObject@VCOPOSDeviceMonitor@@@ATL@@WNI@EAAKXZ 0000000180023350 f i DeviceMonitor.obj
 0001:0002235c       ?Release@?$CComObject@VCOPOSDeviceMonitor@@@ATL@@WOA@EAAKXZ 000000018002335c f i DeviceMonitor.obj
 0001:00022368       ?Release@?$CComObject@VCOPOSDeviceMonitor@@@ATL@@WOI@EAAKXZ 0000000180023368 f i DeviceMonitor.obj
 0001:00022374       ?Release@?$CComObject@VCOPOSDeviceMonitor@@@ATL@@WPA@EAAKXZ 0000000180023374 f i DeviceMonitor.obj
 0001:00022380       ?Release@?$CComObject@VCOPOSDeviceMonitor@@@ATL@@WPI@EAAKXZ 0000000180023380 f i DeviceMonitor.obj
 0001:00022390       ?Release@?$CComObjectCached@VCComClassFactory@ATL@@@ATL@@UEAAKXZ 0000000180023390 f i DeviceMonitor.obj
 0001:00022420       ?Release@?$CComPtrBase@UIAdviseSink@@@ATL@@QEAAXXZ 0000000180023420 f i DeviceMonitor.obj
 0001:00022470       ?Release@?$CComPtrBase@UIDispatch@@@ATL@@QEAAXXZ 0000000180023470 f i DeviceMonitor.obj
 0001:000224c0       ?Release@?$CComPtrBase@UIOleInPlaceSiteWindowless@@@ATL@@QEAAXXZ 00000001800234c0 f i DeviceMonitor.obj
 0001:00022510       ?Release@CRegObject@ATL@@UEAAKXZ 0000000180023510 f i DeviceMonitor.obj
 0001:00022570       ?Remove@CComDynamicUnkArray@ATL@@QEAAHK@Z 0000000180023570 f i DeviceMonitor.obj
 0001:00022630       ?RemoveAll@?$CSimpleMap@PEA_WPEA_WVCExpansionVectorEqualHelper@ATL@@@ATL@@QEAAXXZ 0000000180023630 f i DeviceMonitor.obj
 0001:000226c0       ?Reset@?$CComEnumImpl@UIEnumConnectionPoints@@$1?_GUID_b196b285_bab4_101a_b69c_00aa00341d07@@3U__s_GUID@@BPEAUIConnectionPoint@@V?$_CopyInterface@UIConnectionPoint@@@ATL@@@ATL@@UEAAJXZ 00000001800236c0 f i DeviceMonitor.obj
 0001:000226e0       ?Reset@?$CComEnumImpl@UIEnumConnections@@$1?_GUID_b196b287_bab4_101a_b69c_00aa00341d07@@3U__s_GUID@@BUtagCONNECTDATA@@V?$_Copy@UtagCONNECTDATA@@@ATL@@@ATL@@UEAAJXZ 00000001800236e0 f i DeviceMonitor.obj
 0001:00022700       ?ResizeBorder@?$IOleInPlaceActiveObjectImpl@VCOPOSDeviceMonitor@@@ATL@@UEAAJPEBUtagRECT@@PEAUIOleInPlaceUIWindow@@H@Z 0000000180023700 f i DeviceMonitor.obj
 0001:00022770       ?ResourceRegister@CRegObject@ATL@@QEAAJPEB_WI0@Z 0000000180023770 f i DeviceMonitor.obj
 0001:00022850       ?ResourceRegisterSz@CRegObject@ATL@@QEAAJPEB_W00@Z 0000000180023850 f i DeviceMonitor.obj
 0001:00022970       ?ResourceUnregister@CRegObject@ATL@@QEAAJPEB_WI0@Z 0000000180023970 f i DeviceMonitor.obj
 0001:00022a50       ?ResourceUnregisterSz@CRegObject@ATL@@QEAAJPEB_W00@Z 0000000180023a50 f i DeviceMonitor.obj
 0001:00022b70       ?SOData@COPOSDeviceMonitor@@MEAAJJ@Z 0000000180023b70 f i DeviceMonitor.obj
 0001:00022c00       ?SODirectIO@COPOSDeviceMonitor@@MEAAJJPEAJPEAPEA_W@Z 0000000180023c00 f i DeviceMonitor.obj
 0001:00022e40       ?SOError@COPOSDeviceMonitor@@MEAAJJJJPEAJ@Z 0000000180023e40 f i DeviceMonitor.obj
 0001:00022f30       ?SOOutputCompleteDummy@COPOSDeviceMonitor@@MEAAJJ@Z 0000000180023f30 f i DeviceMonitor.obj
 0001:00022f50       ?SOStatusUpdate@COPOSDeviceMonitor@@MEAAJJ@Z 0000000180023f50 f i DeviceMonitor.obj
 0001:00022fe0       ?Save@?$IPersistStorageImpl@VCOPOSDeviceMonitor@@@ATL@@UEAAJPEAUIStorage@@H@Z 0000000180023fe0 f i DeviceMonitor.obj
 0001:000231a0       ?Save@?$IPersistStreamInitImpl@VCOPOSDeviceMonitor@@@ATL@@UEAAJPEAUIStream@@H@Z 00000001800241a0 f i DeviceMonitor.obj
 0001:00023250       ?SaveCompleted@?$IPersistStorageImpl@VCOPOSDeviceMonitor@@@ATL@@UEAAJPEAUIStorage@@@Z 0000000180024250 f i DeviceMonitor.obj
 0001:000232b0       ?SendOnDataChange@CComControlBase@ATL@@QEAAJK@Z 00000001800242b0 f i DeviceMonitor.obj
 0001:000233b0       ?SendOnSave@CComControlBase@ATL@@QEAAJXZ 00000001800243b0 f i DeviceMonitor.obj
 0001:00023410       ?SendOnViewChange@CComControlBase@ATL@@QEAAJKJ@Z 0000000180024410 f i DeviceMonitor.obj
 0001:00023470       ?SetAdvise@?$IViewObjectExImpl@VCOPOSDeviceMonitor@@@ATL@@UEAAJKKPEAUIAdviseSink@@@Z 0000000180024470 f i DeviceMonitor.obj
 0001:00023520       ?SetClientSite@?$IOleObjectImpl@VCOPOSDeviceMonitor@@@ATL@@UEAAJPEAUIOleClientSite@@@Z 0000000180024520 f i DeviceMonitor.obj
 0001:000235c0       ?SetColorScheme@?$IOleObjectImpl@VCOPOSDeviceMonitor@@@ATL@@UEAAJPEAUtagLOGPALETTE@@@Z 00000001800245c0 f i DeviceMonitor.obj
 0001:00023630       ?SetContentExtent@?$IQuickActivateImpl@VCOPOSDeviceMonitor@@@ATL@@UEAAJPEAUtagSIZE@@@Z 0000000180024630 f i DeviceMonitor.obj
 0001:000236e0       ?SetControlFocus@CComControlBase@ATL@@QEAAHH@Z 00000001800246e0 f i DeviceMonitor.obj
 0001:00023860       ?SetDWORDValue@CRegKey@ATL@@QEAAJPEB_WK@Z 0000000180024860 f i DeviceMonitor.obj
 0001:00023900       ?SetData@?$IDataObjectImpl@VCOPOSDeviceMonitor@@@ATL@@UEAAJPEAUtagFORMATETC@@PEAUtagSTGMEDIUM@@H@Z 0000000180024900 f i DeviceMonitor.obj
 0001:00023980       ?SetExtent@?$IOleObjectImpl@VCOPOSDeviceMonitor@@@ATL@@UEAAJKPEAUtagSIZE@@@Z 0000000180024980 f i DeviceMonitor.obj
 0001:00023a30       ?SetHostNames@?$IOleObjectImpl@VCOPOSDeviceMonitor@@@ATL@@UEAAJPEB_W0@Z 0000000180024a30 f i DeviceMonitor.obj
 0001:00023a90       ?SetInterfaceSafetyOptions@?$IObjectSafetyImpl@VCOPOSDeviceMonitor@@$02@ATL@@UEAAJAEBU_GUID@@KK@Z 0000000180024a90 f i DeviceMonitor.obj
 0001:00023c30       ?SetMoniker@?$IOleObjectImpl@VCOPOSDeviceMonitor@@@ATL@@UEAAJKPEAUIMoniker@@@Z 0000000180024c30 f i DeviceMonitor.obj
 0001:00023cb0       ?SetMultiStringValue@CRegKey@ATL@@QEAAJPEB_W0@Z 0000000180024cb0 f i DeviceMonitor.obj
 0001:00023e10       ?SetObjectRects@?$IOleInPlaceObjectWindowlessImpl@VCOPOSDeviceMonitor@@@ATL@@UEAAJPEBUtagRECT@@0@Z 0000000180024e10 f i DeviceMonitor.obj
 0001:00023ec0       ?SetStringValue@CRegKey@ATL@@QEAAJPEB_W0K@Z 0000000180024ec0 f i DeviceMonitor.obj
 0001:00024030       ?SetVoid@CComClassFactory@ATL@@QEAAXPEAX@Z 0000000180025030 f i DeviceMonitor.obj
 0001:00024050       ?SetVoid@CComObjectRootBase@ATL@@QEAAXPEAX@Z 0000000180025050 f i DeviceMonitor.obj
 0001:00024060       ?ShowWindow@CWindow@ATL@@QEAAHH@Z 0000000180025060 f i DeviceMonitor.obj
 0001:000240e0       ?Skip@?$CComEnumImpl@UIEnumConnectionPoints@@$1?_GUID_b196b285_bab4_101a_b69c_00aa00341d07@@3U__s_GUID@@BPEAUIConnectionPoint@@V?$_CopyInterface@UIConnectionPoint@@@ATL@@@ATL@@UEAAJK@Z 00000001800250e0 f i DeviceMonitor.obj
 0001:00024170       ?Skip@?$CComEnumImpl@UIEnumConnections@@$1?_GUID_b196b287_bab4_101a_b69c_00aa00341d07@@3U__s_GUID@@BUtagCONNECTDATA@@V?$_Copy@UtagCONNECTDATA@@@ATL@@@ATL@@UEAAJK@Z 0000000180025170 f i DeviceMonitor.obj
 0001:00024200       ?SkipAssignment@CRegParser@ATL@@IEAAJPEA_W@Z 0000000180025200 f i DeviceMonitor.obj
 0001:00024300       ?SkipWhiteSpace@CRegParser@ATL@@IEAAXXZ 0000000180025300 f i DeviceMonitor.obj
 0001:00024350       ?StartWindowProc@?$CWindowImplBaseT@VCWindow@ATL@@V?$CWinTraits@$0FGAAAAAA@$0A@@2@@ATL@@SA_JPEAUHWND__@@I_K_J@Z 0000000180025350 f i DeviceMonitor.obj
 0001:000244a0       ?StrChrW@CRegParser@ATL@@KAPEA_WPEA_W_W@Z 00000001800254a0 f i DeviceMonitor.obj
 0001:00024510       ?StrFromMap@CRegObject@ATL@@QEAAPEB_WPEA_W@Z 0000000180025510 f i DeviceMonitor.obj
 0001:000245b0       ?Swap@?$CComPtrBase@UIAdviseSink@@@ATL@@IEAAXAEAV12@@Z 00000001800255b0 f i DeviceMonitor.obj
 0001:000245f0       ?Swap@?$CComPtrBase@UIOleClientSite@@@ATL@@IEAAXAEAV12@@Z 00000001800255f0 f i DeviceMonitor.obj
 0001:00024630       ?Swap@?$CComPtrBase@UIUnknown@@@ATL@@IEAAXAEAV12@@Z 0000000180025630 f i DeviceMonitor.obj
 0001:00024670       ?T2COLE_EX@@YAPEB_WPEB_WI@Z 0000000180025670 f i DeviceMonitor.obj
 0001:00024690       ?T2OLE_EX@@YAPEA_WPEA_WI@Z 0000000180025690 f i DeviceMonitor.obj
 0001:000246b0       ?Term@CAtlModule@ATL@@QEAAXXZ 00000001800256b0 f i DeviceMonitor.obj
 0001:00024760       ?Term@CComModule@ATL@@QEAAXXZ 0000000180025760 f i DeviceMonitor.obj
 0001:00024840       ?TranslateAcceleratorW@?$IOleInPlaceActiveObjectImpl@VCOPOSDeviceMonitor@@@ATL@@UEAAJPEAUtagMSG@@@Z 0000000180025840 f i DeviceMonitor.obj
 0001:00024ab0       ?UIDeactivate@?$IOleInPlaceObjectWindowlessImpl@VCOPOSDeviceMonitor@@@ATL@@UEAAJXZ 0000000180025ab0 f i DeviceMonitor.obj
 0001:00024b40       ?Unadvise@?$CProxy_IOPOSEvents@VCOPOSDeviceMonitor@@@@UEAAJK@Z 0000000180025b40 f i DeviceMonitor.obj
 0001:00024b80       ?Unadvise@?$IConnectionPointImpl@VCOPOSDeviceMonitor@@$1?DIID__IOPOSDeviceMonitorEvents@@3U_GUID@@BVCComDynamicUnkArray@ATL@@@ATL@@UEAAJK@Z 0000000180025b80 f i DeviceMonitor.obj
 0001:00024c60       ?Unadvise@?$IConnectionPointImpl@VCOPOSDeviceMonitor@@$1?IID_IPropertyNotifySink@@3U_GUID@@BVCComDynamicUnkArray@ATL@@@ATL@@UEAAJK@Z 0000000180025c60 f i DeviceMonitor.obj
 0001:00024d40       ?Unadvise@?$IOleObjectImpl@VCOPOSDeviceMonitor@@@ATL@@UEAAJK@Z 0000000180025d40 f i DeviceMonitor.obj
 0001:00024e20       ?Unfreeze@?$IViewObjectExImpl@VCOPOSDeviceMonitor@@@ATL@@UEAAJK@Z 0000000180025e20 f i DeviceMonitor.obj
 0001:00024e90       ?Unlock@?$CComCritSecLock@VCComCriticalSection@ATL@@@ATL@@QEAAXXZ 0000000180025e90 f i DeviceMonitor.obj
 0001:00024f10       ?Unlock@?$CComObjectRootEx@VCComSingleThreadModel@ATL@@@ATL@@QEAAXXZ 0000000180025f10 f i DeviceMonitor.obj
 0001:00024f20       ?Unlock@CAtlModule@ATL@@UEAAJXZ 0000000180025f20 f i DeviceMonitor.obj
 0001:00024f50       ?Unlock@CComCriticalSection@ATL@@QEAAJXZ 0000000180025f50 f i DeviceMonitor.obj
 0001:00024f70       ?Unlock@CComFakeCriticalSection@ATL@@QEAAJXZ 0000000180025f70 f i DeviceMonitor.obj
 0001:00024f80       ?UnregisterServer@?$CAtlModuleT@VCComModule@ATL@@@ATL@@QEAAJHPEBU_GUID@@@Z 0000000180025f80 f i DeviceMonitor.obj
 0001:00024fe0       ?UnregisterServer@CAtlComModule@ATL@@QEAAJHPEBU_GUID@@@Z 0000000180025fe0 f i DeviceMonitor.obj
 0001:00025010       ?UnregisterServer@CComModule@ATL@@QEAAJHPEBU_GUID@@@Z 0000000180026010 f i DeviceMonitor.obj
 0001:000250f0       ?Update@?$IOleObjectImpl@VCOPOSDeviceMonitor@@@ATL@@UEAAJXZ 00000001800260f0 f i DeviceMonitor.obj
 0001:00025150       ?UpdateRegistryFromResource@CAtlModule@ATL@@QEAAJIHPEAU_ATL_REGMAP_ENTRY@2@@Z 0000000180026150 f i DeviceMonitor.obj
 0001:00025690       ?UpdateRegistryFromResource@CAtlModule@ATL@@QEAAJPEB_WHPEAU_ATL_REGMAP_ENTRY@2@@Z 0000000180026690 f i DeviceMonitor.obj
 0001:00025be0       ?UpdateRegistryFromResource@CComModule@ATL@@UEAAJIHPEAU_ATL_REGMAP_ENTRY@2@@Z 0000000180026be0 f i DeviceMonitor.obj
 0001:00025c20       ?UpdateRegistryFromResource@CComModule@ATL@@UEAAJPEB_WHPEAU_ATL_REGMAP_ENTRY@2@@Z 0000000180026c20 f i DeviceMonitor.obj
 0001:00025c60       ?UpdateRegistryFromResourceD@CComModule@ATL@@UEAAJIHPEAU_ATL_REGMAP_ENTRY@2@@Z 0000000180026c60 f i DeviceMonitor.obj
 0001:00025c80       ?UpdateRegistryFromResourceD@CComModule@ATL@@UEAAJPEB_WHPEAU_ATL_REGMAP_ENTRY@2@@Z 0000000180026c80 f i DeviceMonitor.obj
 0001:00025ca0       ?VTFromRegType@CRegParser@ATL@@KAHPEB_WAEAG@Z 0000000180026ca0 f i DeviceMonitor.obj
 0001:00025d70       ?WindowProc@?$CWindowImplBaseT@VCWindow@ATL@@V?$CWinTraits@$0FGAAAAAA@$0A@@2@@ATL@@SA_JPEAUHWND__@@I_K_J@Z 0000000180026d70 f i DeviceMonitor.obj
 0001:00026050       ?WriteToStream@CComBSTR@ATL@@QEAAJPEAUIStream@@@Z 0000000180027050 f i DeviceMonitor.obj
 0001:000261c0       ?WriteToStream@CComVariant@ATL@@QEAAJPEAUIStream@@@Z 00000001800271c0 f i DeviceMonitor.obj
 0001:000265f0       ?WriteToStream@CComVariant@ATL@@QEAAJPEAUIStream@@G@Z 00000001800275f0 f i DeviceMonitor.obj
 0001:000266d0       ?_AtlFinalConstruct@CComObjectRootBase@ATL@@QEAAJXZ 00000001800276d0 f i DeviceMonitor.obj
 0001:000266e0       ?_AtlGetConversionACP@ATL@@YAIXZ 00000001800276e0 f i DeviceMonitor.obj
 0001:000266f0       ?_AtlInitialConstruct@?$CComAggObject@VCOPOSDeviceMonitor@@@ATL@@QEAAJXZ 00000001800276f0 f i DeviceMonitor.obj
 0001:00026740       ?_AtlInitialConstruct@?$CComObjectRootEx@VCComMultiThreadModel@ATL@@@ATL@@QEAAJXZ 0000000180027740 f i DeviceMonitor.obj
 0001:00026770       ?_AtlInitialConstruct@?$CComObjectRootEx@VCComSingleThreadModel@ATL@@@ATL@@QEAAJXZ 0000000180027770 f i DeviceMonitor.obj
 0001:00026780       ?_AtlVerifyStackAvailable@_ATL_SAFE_ALLOCA_IMPL@ATL@@YA_N_K@Z 0000000180027780 f i DeviceMonitor.obj
 0001:000268e0       ?_GetEntries@?$CComEnum@UIEnumConnectionPoints@@$1?_GUID_b196b285_bab4_101a_b69c_00aa00341d07@@3U__s_GUID@@BPEAUIConnectionPoint@@V?$_CopyInterface@UIConnectionPoint@@@ATL@@VCComSingleThreadModel@6@@ATL@@SAPEBU_ATL_INTMAP_ENTRY@2@XZ 00000001800278e0 f i DeviceMonitor.obj
 0001:00026900       ?_GetEntries@?$CComEnum@UIEnumConnections@@$1?_GUID_b196b287_bab4_101a_b69c_00aa00341d07@@3U__s_GUID@@BUtagCONNECTDATA@@V?$_Copy@UtagCONNECTDATA@@@ATL@@VCComSingleThreadModel@6@@ATL@@SAPEBU_ATL_INTMAP_ENTRY@2@XZ 0000000180027900 f i DeviceMonitor.obj
 0001:00026920       ?_GetEntries@CComClassFactory@ATL@@SAPEBU_ATL_INTMAP_ENTRY@2@XZ 0000000180027920 f i DeviceMonitor.obj
 0001:00026940       ?_GetEntries@COPOSDeviceMonitor@@SAPEBU_ATL_INTMAP_ENTRY@ATL@@XZ 0000000180027940 f i DeviceMonitor.obj
 0001:00026960       ?_GetRawUnknown@COPOSDeviceMonitor@@QEAAPEAUIUnknown@@XZ 0000000180027960 f i DeviceMonitor.obj
 0001:000269e0       ?_GetViewStatus@COPOSDeviceMonitor@@QEAAKXZ 00000001800279e0 f i DeviceMonitor.obj
 0001:000269f0       ?_InternalQueryInterface@?$CComEnum@UIEnumConnectionPoints@@$1?_GUID_b196b285_bab4_101a_b69c_00aa00341d07@@3U__s_GUID@@BPEAUIConnectionPoint@@V?$_CopyInterface@UIConnectionPoint@@@ATL@@VCComSingleThreadModel@6@@ATL@@QEAAJAEBU_GUID@@PEAPEAX@Z 00000001800279f0 f i DeviceMonitor.obj
 0001:00026a30       ?_InternalQueryInterface@?$CComEnum@UIEnumConnections@@$1?_GUID_b196b287_bab4_101a_b69c_00aa00341d07@@3U__s_GUID@@BUtagCONNECTDATA@@V?$_Copy@UtagCONNECTDATA@@@ATL@@VCComSingleThreadModel@6@@ATL@@QEAAJAEBU_GUID@@PEAPEAX@Z 0000000180027a30 f i DeviceMonitor.obj
 0001:00026a70       ?_InternalQueryInterface@CComClassFactory@ATL@@QEAAJAEBU_GUID@@PEAPEAX@Z 0000000180027a70 f i DeviceMonitor.obj
 0001:00026ab0       ?_InternalQueryInterface@COPOSDeviceMonitor@@QEAAJAEBU_GUID@@PEAPEAX@Z 0000000180027ab0 f i DeviceMonitor.obj
 0001:00026af0       ?_LocCPQueryInterface@?$IConnectionPointImpl@VCOPOSDeviceMonitor@@$1?DIID__IOPOSDeviceMonitorEvents@@3U_GUID@@BVCComDynamicUnkArray@ATL@@@ATL@@UEAAJAEBU_GUID@@PEAPEAX@Z 0000000180027af0 f i DeviceMonitor.obj
 0001:00026bc0       ?_LocCPQueryInterface@?$IConnectionPointImpl@VCOPOSDeviceMonitor@@$1?IID_IPropertyNotifySink@@3U_GUID@@BVCComDynamicUnkArray@ATL@@@ATL@@UEAAJAEBU_GUID@@PEAPEAX@Z 0000000180027bc0 f i DeviceMonitor.obj
 0001:00026c90       ?atlCreate@?$CWindowImpl@VCOPOSDeviceMonitor@@VCWindow@ATL@@V?$CWinTraits@$0FGAAAAAA@$0A@@3@@ATL@@QEAAPEAUHWND__@@PEAU3@V_U_RECT@2@PEB_WKKV_U_MENUorID@2@PEAX@Z 0000000180027c90 f i DeviceMonitor.obj
 0001:00026da0       ?atlCreate@?$CWindowImplBaseT@VCWindow@ATL@@V?$CWinTraits@$0FGAAAAAA@$0A@@2@@ATL@@QEAAPEAUHWND__@@PEAU3@V_U_RECT@2@PEB_WKKV_U_MENUorID@2@GPEAX@Z 0000000180027da0 f i DeviceMonitor.obj
 0001:00026ff0       ?atlCreate@CRegKey@ATL@@QEAAJPEAUHKEY__@@PEB_WPEA_WKKPEAU_SECURITY_ATTRIBUTES@@PEAK@Z 0000000180027ff0 f i DeviceMonitor.obj
 0001:000271f0       ?begin@CComDynamicUnkArray@ATL@@QEAAPEAPEAUIUnknown@@XZ 00000001800281f0 f i DeviceMonitor.obj
 0001:00027200       ?copy@?$_Copy@UtagCONNECTDATA@@@ATL@@SAJPEAUtagCONNECTDATA@@PEBU3@@Z 0000000180028200 f i DeviceMonitor.obj
 0001:000272e0       ?copy@?$_CopyInterface@UIConnectionPoint@@@ATL@@SAJPEAPEAUIConnectionPoint@@PEBQEAU3@@Z 00000001800282e0 f i DeviceMonitor.obj
 0001:000273c0       ?destroy@?$_Copy@UtagCONNECTDATA@@@ATL@@SAXPEAUtagCONNECTDATA@@@Z 00000001800283c0 f i DeviceMonitor.obj
 0001:00027400       ?destroy@?$_CopyInterface@UIConnectionPoint@@@ATL@@SAXPEAPEAUIConnectionPoint@@@Z 0000000180028400 f i DeviceMonitor.obj
 0001:00027440       ?end@CComDynamicUnkArray@ATL@@QEAAPEAPEAUIUnknown@@XZ 0000000180028440 f i DeviceMonitor.obj
 0001:00027460       ?init@?$_Copy@UtagCONNECTDATA@@@ATL@@SAXPEAUtagCONNECTDATA@@@Z 0000000180028460 f i DeviceMonitor.obj
 0001:00027470       ?init@?$_CopyInterface@UIConnectionPoint@@@ATL@@SAXPEAPEAUIConnectionPoint@@@Z 0000000180028470 f i DeviceMonitor.obj
 0001:00027480       ?memcpy_s@Checked@ATL@@YAXPEAX_KPEBX1@Z 0000000180028480 f i DeviceMonitor.obj
 0001:000274c0       ?ocscpy_s@@YA_NPEA_W_KPEB_W@Z 00000001800284c0 f i DeviceMonitor.obj
 0001:00027530       ?ocslen@@YAHPEB_W@Z        0000000180028530 f i DeviceMonitor.obj
 0001:00027560       ?tcsncpy_s@Checked@ATL@@YAHPEA_W_KPEB_W1@Z 0000000180028560 f i DeviceMonitor.obj
 0001:000275a0       ?wcscat_s@Checked@ATL@@YAXPEA_W_KPEB_W@Z 00000001800285a0 f i DeviceMonitor.obj
 0001:000275e0       ?wcscpy_s@Checked@ATL@@YAXPEA_W_KPEB_W@Z 00000001800285e0 f i DeviceMonitor.obj
 0001:00027620       ?wcsncpy_s@Checked@ATL@@YAHPEA_W_KPEB_W1@Z 0000000180028620 f i DeviceMonitor.obj
 0001:00027660       ?wcsstr@@YAPEA_WPEA_WPEB_W@Z 0000000180028660 f i DeviceMonitor.obj
 0001:00027690       InlineIsEqualGUID          0000000180028690 f i DeviceMonitor.obj
 0001:00027750       IsEqualGUID                0000000180028750 f i DeviceMonitor.obj
 0001:000277a0       ??0COPOSDeviceMonitor@@QEAA@XZ 00000001800287a0 f   DeviceMonitorImpl.obj
 0001:00027910       ?FinalConstruct@COPOSDeviceMonitor@@QEAAJXZ 0000000180028910 f   DeviceMonitorImpl.obj
 0001:000279f0       ??1COPOSDeviceMonitor@@UEAA@XZ 00000001800289f0 f   DeviceMonitorImpl.obj
 0001:00027ad0       ?WriteTrace@COPOSDeviceMonitor@@QEAAXPEB_WZZ 0000000180028ad0 f   DeviceMonitorImpl.obj
 0001:00027ba0       ?WriteTraceString@COPOSDeviceMonitor@@QEAAXPEB_WPEA_W@Z 0000000180028ba0 f   DeviceMonitorImpl.obj
 0001:00027fd0       ?WriteTraceString@COPOSDeviceMonitor@@QEAAXPEAXHHHPEB_WZZ 0000000180028fd0 f   DeviceMonitorImpl.obj
 0001:00028260       ?WriteTraceError@COPOSDeviceMonitor@@QEAAXPEB_WK@Z 0000000180029260 f   DeviceMonitorImpl.obj
 0001:00028360       ?WriteTraceMethods@COPOSDeviceMonitor@@QEAAXPEAJH@Z 0000000180029360 f   DeviceMonitorImpl.obj
 0001:000283e0       ?GetOposProp@COPOSDeviceMonitor@@IEAAJPEBDJPEAJJ@Z 00000001800293e0 f   DeviceMonitorImpl.obj
 0001:00028700       ?SetOposProp@COPOSDeviceMonitor@@IEAAJPEBDJJJ@Z 0000000180029700 f   DeviceMonitorImpl.obj
 0001:00028a70       ?GetOposProp@COPOSDeviceMonitor@@IEAAJPEBDJPEAFJ@Z 0000000180029a70 f   DeviceMonitorImpl.obj
 0001:00028b20       ?SetOposProp@COPOSDeviceMonitor@@IEAAJPEBDJFJ@Z 0000000180029b20 f   DeviceMonitorImpl.obj
 0001:00028b90       ?GetOposProp@COPOSDeviceMonitor@@IEAAJPEBDJPEAPEA_WJ@Z 0000000180029b90 f   DeviceMonitorImpl.obj
 0001:00028eb0       ?SetOposProp@COPOSDeviceMonitor@@IEAAJPEBDJPEA_WJ@Z 0000000180029eb0 f   DeviceMonitorImpl.obj
 0001:00029290       ?DoInvoke@COPOSDeviceMonitor@@IEAAJPEBDJPEAVOposVariant@@IHPEAJ_N@Z 000000018002a290 f   DeviceMonitorImpl.obj
 0001:00029df0       ?SetCOFreezeEvents@COPOSDeviceMonitor@@IEAAXF@Z 000000018002adf0 f   DeviceMonitorImpl.obj
 0001:00029f80       ?FreezeEvents@COPOSDeviceMonitor@@MEAAJH@Z 000000018002af80 f   DeviceMonitorImpl.obj
 0001:0002a0a0       ?OnDraw@COPOSDeviceMonitor@@MEAAJAEAUATL_DRAWINFO@@@Z 000000018002b0a0 f   DeviceMonitorImpl.obj
 0001:0002a270       ?SOProcessID@COPOSDeviceMonitor@@UEAAJPEAJ@Z 000000018002b270 f   DeviceMonitorImpl.obj
 0001:0002a2c0       ?get_OpenResult@COPOSDeviceMonitor@@UEAAJPEAJ@Z 000000018002b2c0 f   DeviceMonitorImpl.obj
 0001:0002a310       ?get_AutoDisable@COPOSDeviceMonitor@@UEAAJPEAF@Z 000000018002b310 f   DeviceMonitorImpl.obj
 0001:0002a350       ?put_AutoDisable@COPOSDeviceMonitor@@UEAAJF@Z 000000018002b350 f   DeviceMonitorImpl.obj
 0001:0002a390       ?get_BinaryConversion@COPOSDeviceMonitor@@UEAAJPEAJ@Z 000000018002b390 f   DeviceMonitorImpl.obj
 0001:0002a3d0       ?put_BinaryConversion@COPOSDeviceMonitor@@UEAAJJ@Z 000000018002b3d0 f   DeviceMonitorImpl.obj
 0001:0002a420       ?get_CapPowerReporting@COPOSDeviceMonitor@@UEAAJPEAJ@Z 000000018002b420 f   DeviceMonitorImpl.obj
 0001:0002a460       ?get_CheckHealthText@COPOSDeviceMonitor@@UEAAJPEAPEA_W@Z 000000018002b460 f   DeviceMonitorImpl.obj
 0001:0002a4a0       ?get_Claimed@COPOSDeviceMonitor@@UEAAJPEAF@Z 000000018002b4a0 f   DeviceMonitorImpl.obj
 0001:0002a4e0       ?get_DataCount@COPOSDeviceMonitor@@UEAAJPEAJ@Z 000000018002b4e0 f   DeviceMonitorImpl.obj
 0001:0002a520       ?get_DataEventEnabled@COPOSDeviceMonitor@@UEAAJPEAF@Z 000000018002b520 f   DeviceMonitorImpl.obj
 0001:0002a560       ?put_DataEventEnabled@COPOSDeviceMonitor@@UEAAJF@Z 000000018002b560 f   DeviceMonitorImpl.obj
 0001:0002a5a0       ?get_DeviceEnabled@COPOSDeviceMonitor@@UEAAJPEAF@Z 000000018002b5a0 f   DeviceMonitorImpl.obj
 0001:0002a5e0       ?put_DeviceEnabled@COPOSDeviceMonitor@@UEAAJF@Z 000000018002b5e0 f   DeviceMonitorImpl.obj
 0001:0002a620       ?get_FreezeEvents@COPOSDeviceMonitor@@UEAAJPEAF@Z 000000018002b620 f   DeviceMonitorImpl.obj
 0001:0002a660       ?put_FreezeEvents@COPOSDeviceMonitor@@UEAAJF@Z 000000018002b660 f   DeviceMonitorImpl.obj
 0001:0002a720       ?get_PowerNotify@COPOSDeviceMonitor@@UEAAJPEAJ@Z 000000018002b720 f   DeviceMonitorImpl.obj
 0001:0002a760       ?put_PowerNotify@COPOSDeviceMonitor@@UEAAJJ@Z 000000018002b760 f   DeviceMonitorImpl.obj
 0001:0002a7a0       ?get_PowerState@COPOSDeviceMonitor@@UEAAJPEAJ@Z 000000018002b7a0 f   DeviceMonitorImpl.obj
 0001:0002a7e0       ?get_ResultCode@COPOSDeviceMonitor@@UEAAJPEAJ@Z 000000018002b7e0 f   DeviceMonitorImpl.obj
 0001:0002a890       ?get_ResultCodeExtended@COPOSDeviceMonitor@@UEAAJPEAJ@Z 000000018002b890 f   DeviceMonitorImpl.obj
 0001:0002a8d0       ?get_State@COPOSDeviceMonitor@@UEAAJPEAJ@Z 000000018002b8d0 f   DeviceMonitorImpl.obj
 0001:0002a940       ?get_ControlObjectDescription@COPOSDeviceMonitor@@UEAAJPEAPEA_W@Z 000000018002b940 f   DeviceMonitorImpl.obj
 0001:0002a9b0       ?get_ControlObjectVersion@COPOSDeviceMonitor@@UEAAJPEAJ@Z 000000018002b9b0 f   DeviceMonitorImpl.obj
 0001:0002aa00       ?get_ServiceObjectDescription@COPOSDeviceMonitor@@UEAAJPEAPEA_W@Z 000000018002ba00 f   DeviceMonitorImpl.obj
 0001:0002aa40       ?get_ServiceObjectVersion@COPOSDeviceMonitor@@UEAAJPEAJ@Z 000000018002ba40 f   DeviceMonitorImpl.obj
 0001:0002aa80       ?get_DeviceDescription@COPOSDeviceMonitor@@UEAAJPEAPEA_W@Z 000000018002ba80 f   DeviceMonitorImpl.obj
 0001:0002aac0       ?get_DeviceName@COPOSDeviceMonitor@@UEAAJPEAPEA_W@Z 000000018002bac0 f   DeviceMonitorImpl.obj
 0001:0002ab00       ?get_CapStatisticsReporting@COPOSDeviceMonitor@@UEAAJPEAF@Z 000000018002bb00 f   DeviceMonitorImpl.obj
 0001:0002ab40       ?get_CapUpdateStatistics@COPOSDeviceMonitor@@UEAAJPEAF@Z 000000018002bb40 f   DeviceMonitorImpl.obj
 0001:0002ab80       ?get_CapCompareFirmwareVersion@COPOSDeviceMonitor@@UEAAJPEAF@Z 000000018002bb80 f   DeviceMonitorImpl.obj
 0001:0002abc0       ?get_CapUpdateFirmware@COPOSDeviceMonitor@@UEAAJPEAF@Z 000000018002bbc0 f   DeviceMonitorImpl.obj
 0001:0002ac00       ?CheckHealth@COPOSDeviceMonitor@@UEAAJJPEAJ@Z 000000018002bc00 f   DeviceMonitorImpl.obj
 0001:0002acc0       ?ClaimDevice@COPOSDeviceMonitor@@UEAAJJPEAJ@Z 000000018002bcc0 f   DeviceMonitorImpl.obj
 0001:0002ade0       ?ClearInput@COPOSDeviceMonitor@@UEAAJPEAJ@Z 000000018002bde0 f   DeviceMonitorImpl.obj
 0001:0002ae40       ?Close@COPOSDeviceMonitor@@UEAAJPEAJ@Z 000000018002be40 f   DeviceMonitorImpl.obj
 0001:0002af40       ?DirectIO@COPOSDeviceMonitor@@UEAAJJPEAJPEAPEA_W0@Z 000000018002bf40 f   DeviceMonitorImpl.obj
 0001:0002b0c0       ?Open@COPOSDeviceMonitor@@UEAAJPEA_WPEAJ@Z 000000018002c0c0 f   DeviceMonitorImpl.obj
 0001:0002c5a0       ?ReleaseDevice@COPOSDeviceMonitor@@UEAAJPEAJ@Z 000000018002d5a0 f   DeviceMonitorImpl.obj
 0001:0002c640       ?ResetStatistics@COPOSDeviceMonitor@@UEAAJPEA_WPEAJ@Z 000000018002d640 f   DeviceMonitorImpl.obj
 0001:0002c720       ?RetrieveStatistics@COPOSDeviceMonitor@@UEAAJPEAPEA_WPEAJ@Z 000000018002d720 f   DeviceMonitorImpl.obj
 0001:0002c800       ?UpdateStatistics@COPOSDeviceMonitor@@UEAAJPEA_WPEAJ@Z 000000018002d800 f   DeviceMonitorImpl.obj
 0001:0002c8e0       ?CompareFirmwareVersion@COPOSDeviceMonitor@@UEAAJPEA_WPEAJ1@Z 000000018002d8e0 f   DeviceMonitorImpl.obj
 0001:0002ca20       ?UpdateFirmware@COPOSDeviceMonitor@@UEAAJPEA_WPEAJ@Z 000000018002da20 f   DeviceMonitorImpl.obj
 0001:0002cb00       ?ClearInputProperties@COPOSDeviceMonitor@@UEAAJPEAJ@Z 000000018002db00 f   DeviceMonitorImpl.obj
 0001:0002cb60       ?get_DeviceData@COPOSDeviceMonitor@@UEAAJPEAPEA_W@Z 000000018002db60 f   DeviceMonitorImpl.obj
 0001:0002cba0       ?get_DeviceList@COPOSDeviceMonitor@@UEAAJPEAPEA_W@Z 000000018002dba0 f   DeviceMonitorImpl.obj
 0001:0002cbe0       ?get_MonitoringDeviceList@COPOSDeviceMonitor@@UEAAJPEAPEA_W@Z 000000018002dbe0 f   DeviceMonitorImpl.obj
 0001:0002cc20       ?AddMonitoringDevice@COPOSDeviceMonitor@@UEAAJPEA_WJJJJPEAJ@Z 000000018002dc20 f   DeviceMonitorImpl.obj
 0001:0002cdd0       ?ClearMonitoringDevice@COPOSDeviceMonitor@@UEAAJPEAJ@Z 000000018002ddd0 f   DeviceMonitorImpl.obj
 0001:0002ce30       ?DeleteMonitoringDevice@COPOSDeviceMonitor@@UEAAJPEA_WPEAJ@Z 000000018002de30 f   DeviceMonitorImpl.obj
 0001:0002cf10       ?GetDeviceValue@COPOSDeviceMonitor@@UEAAJPEA_WPEAJ1@Z 000000018002df10 f   DeviceMonitorImpl.obj
 0001:0002d050       ??0?$CComControl@VCOPOSDeviceMonitor@@V?$CWindowImpl@VCOPOSDeviceMonitor@@VCWindow@ATL@@V?$CWinTraits@$0FGAAAAAA@$0A@@3@@ATL@@@ATL@@QEAA@XZ 000000018002e050 f i DeviceMonitorImpl.obj
 0001:0002d090       ??0?$CComPtr@UIAdviseSink@@@ATL@@QEAA@XZ 000000018002e090 f i DeviceMonitorImpl.obj
 0001:0002d0b0       ??0?$CComPtr@UIDataAdviseHolder@@@ATL@@QEAA@XZ 000000018002e0b0 f i DeviceMonitorImpl.obj
 0001:0002d0d0       ??0?$CComPtr@UIOleAdviseHolder@@@ATL@@QEAA@XZ 000000018002e0d0 f i DeviceMonitorImpl.obj
 0001:0002d0f0       ??0?$CComPtr@UIOleClientSite@@@ATL@@QEAA@XZ 000000018002e0f0 f i DeviceMonitorImpl.obj
 0001:0002d110       ??0?$CComPtr@UIOleInPlaceSiteWindowless@@@ATL@@QEAA@XZ 000000018002e110 f i DeviceMonitorImpl.obj
 0001:0002d130       ??0?$CComPtrBase@UIAdviseSink@@@ATL@@IEAA@XZ 000000018002e130 f i DeviceMonitorImpl.obj
 0001:0002d150       ??0?$CComPtrBase@UIDataAdviseHolder@@@ATL@@IEAA@XZ 000000018002e150 f i DeviceMonitorImpl.obj
 0001:0002d170       ??0?$CComPtrBase@UIOleAdviseHolder@@@ATL@@IEAA@XZ 000000018002e170 f i DeviceMonitorImpl.obj
 0001:0002d190       ??0?$CComPtrBase@UIOleClientSite@@@ATL@@IEAA@XZ 000000018002e190 f i DeviceMonitorImpl.obj
 0001:0002d1b0       ??0?$CComPtrBase@UIOleInPlaceSiteWindowless@@@ATL@@IEAA@XZ 000000018002e1b0 f i DeviceMonitorImpl.obj
 0001:0002d1d0       ??0?$CComQIPtr@UIDispatch@@$1?_GUID_00020400_0000_0000_c000_000000000046@@3U__s_GUID@@B@ATL@@QEAA@XZ 000000018002e1d0 f i DeviceMonitorImpl.obj
 0001:0002d1f0       ??0?$CProxy_IOPOSEvents@VCOPOSDeviceMonitor@@@@QEAA@PEAVCOPOSDeviceMonitor@@@Z 000000018002e1f0 f i DeviceMonitorImpl.obj
 0001:0002d270       ??0?$CWindowImpl@VCOPOSDeviceMonitor@@VCWindow@ATL@@V?$CWinTraits@$0FGAAAAAA@$0A@@3@@ATL@@QEAA@XZ 000000018002e270 f i DeviceMonitorImpl.obj
 0001:0002d290       ??0?$CWindowImplBaseT@VCWindow@ATL@@V?$CWinTraits@$0FGAAAAAA@$0A@@2@@ATL@@QEAA@XZ 000000018002e290 f i DeviceMonitorImpl.obj
 0001:0002d2c0       ??0?$CWindowImplRoot@VCWindow@ATL@@@ATL@@QEAA@XZ 000000018002e2c0 f i DeviceMonitorImpl.obj
 0001:0002d320       ??0?$IConnectionPointContainerImpl@VCOPOSDeviceMonitor@@@ATL@@QEAA@XZ 000000018002e320 f i DeviceMonitorImpl.obj
 0001:0002d340       ??0?$IConnectionPointImpl@VCOPOSDeviceMonitor@@$1?DIID__IOPOSDeviceMonitorEvents@@3U_GUID@@BVCComDynamicUnkArray@ATL@@@ATL@@QEAA@XZ 000000018002e340 f i DeviceMonitorImpl.obj
 0001:0002d370       ??0?$IConnectionPointImpl@VCOPOSDeviceMonitor@@$1?IID_IPropertyNotifySink@@3U_GUID@@BVCComDynamicUnkArray@ATL@@@ATL@@QEAA@XZ 000000018002e370 f i DeviceMonitorImpl.obj
 0001:0002d3a0       ??0?$IDataObjectImpl@VCOPOSDeviceMonitor@@@ATL@@QEAA@XZ 000000018002e3a0 f i DeviceMonitorImpl.obj
 0001:0002d3c0       ??0?$IDispatchImpl@UIOPOSDeviceMonitor@@$1?IID_IOPOSDeviceMonitor@@3U_GUID@@B$1?LIBID_OposDeviceMonitor_CCO@@3U3@B$00$0A@VCComTypeInfoHolder@ATL@@@ATL@@QEAA@XZ 000000018002e3c0 f i DeviceMonitorImpl.obj
 0001:0002d3e0       ??0?$IObjectSafetyImpl@VCOPOSDeviceMonitor@@$02@ATL@@QEAA@XZ 000000018002e3e0 f i DeviceMonitorImpl.obj
 0001:0002d410       ??0?$IOleControlImpl@VCOPOSDeviceMonitor@@@ATL@@QEAA@XZ 000000018002e410 f i DeviceMonitorImpl.obj
 0001:0002d430       ??0?$IOleInPlaceActiveObjectImpl@VCOPOSDeviceMonitor@@@ATL@@QEAA@XZ 000000018002e430 f i DeviceMonitorImpl.obj
 0001:0002d450       ??0?$IOleInPlaceObjectWindowlessImpl@VCOPOSDeviceMonitor@@@ATL@@QEAA@XZ 000000018002e450 f i DeviceMonitorImpl.obj
 0001:0002d470       ??0?$IOleObjectImpl@VCOPOSDeviceMonitor@@@ATL@@QEAA@XZ 000000018002e470 f i DeviceMonitorImpl.obj
 0001:0002d490       ??0?$IPersistStorageImpl@VCOPOSDeviceMonitor@@@ATL@@QEAA@XZ 000000018002e490 f i DeviceMonitorImpl.obj
 0001:0002d4b0       ??0?$IPersistStreamInitImpl@VCOPOSDeviceMonitor@@@ATL@@QEAA@XZ 000000018002e4b0 f i DeviceMonitorImpl.obj
 0001:0002d4d0       ??0?$IPropertyNotifySinkCP@VCOPOSDeviceMonitor@@VCComDynamicUnkArray@ATL@@@ATL@@QEAA@XZ 000000018002e4d0 f i DeviceMonitorImpl.obj
 0001:0002d4f0       ??0?$IProvideClassInfo2Impl@$1?CLSID_OPOSDeviceMonitor@@3U_GUID@@B$1?DIID__IOPOSDeviceMonitorEvents@@3U2@B$1?LIBID_OposDeviceMonitor_CCO@@3U2@B$00$0A@VCComTypeInfoHolder@ATL@@@ATL@@QEAA@XZ 000000018002e4f0 f i DeviceMonitorImpl.obj
 0001:0002d510       ??0?$IQuickActivateImpl@VCOPOSDeviceMonitor@@@ATL@@QEAA@XZ 000000018002e510 f i DeviceMonitorImpl.obj
 0001:0002d530       ??0?$ISpecifyPropertyPagesImpl@VCOPOSDeviceMonitor@@@ATL@@QEAA@XZ 000000018002e530 f i DeviceMonitorImpl.obj
 0001:0002d550       ??0?$IViewObjectExImpl@VCOPOSDeviceMonitor@@@ATL@@QEAA@XZ 000000018002e550 f i DeviceMonitorImpl.obj
 0001:0002d570       ??0?$_ICPLocator@$1?DIID__IOPOSDeviceMonitorEvents@@3U_GUID@@B@ATL@@QEAA@XZ 000000018002e570 f i DeviceMonitorImpl.obj
 0001:0002d580       ??0?$_ICPLocator@$1?IID_IPropertyNotifySink@@3U_GUID@@B@ATL@@QEAA@XZ 000000018002e580 f i DeviceMonitorImpl.obj
 0001:0002d590       ??0CComControlBase@ATL@@QEAA@AEAPEAUHWND__@@@Z 000000018002e590 f i DeviceMonitorImpl.obj
 0001:0002d7a0       ??0CComDynamicUnkArray@ATL@@QEAA@XZ 000000018002e7a0 f i DeviceMonitorImpl.obj
 0001:0002d7d0       ??0CDynamicStdCallThunk2@ATL@@QEAA@XZ 000000018002e7d0 f i DeviceMonitorImpl.obj
 0001:0002d7f0       ??0CMessageMap@ATL@@QEAA@XZ 000000018002e7f0 f i DeviceMonitorImpl.obj
 0001:0002d800       ??0CWindow@ATL@@QEAA@PEAUHWND__@@@Z 000000018002e800 f i DeviceMonitorImpl.obj
 0001:0002d820       ??0CWndProcThunk@ATL@@QEAA@XZ 000000018002e820 f i DeviceMonitorImpl.obj
 0001:0002d850       ??0IConnectionPointContainer@@QEAA@XZ 000000018002e850 f i DeviceMonitorImpl.obj
 0001:0002d870       ??0IDataObject@@QEAA@XZ    000000018002e870 f i DeviceMonitorImpl.obj
 0001:0002d890       ??0IDispatch@@QEAA@XZ      000000018002e890 f i DeviceMonitorImpl.obj
 0001:0002d8b0       ??0IOPOSDeviceMonitor@@QEAA@XZ 000000018002e8b0 f i DeviceMonitorImpl.obj
 0001:0002d8d0       ??0IOPOSDeviceMonitor_1_16@@QEAA@XZ 000000018002e8d0 f i DeviceMonitorImpl.obj
 0001:0002d8f0       ??0IObjectSafety@@QEAA@XZ  000000018002e8f0 f i DeviceMonitorImpl.obj
 0001:0002d910       ??0IOleControl@@QEAA@XZ    000000018002e910 f i DeviceMonitorImpl.obj
 0001:0002d930       ??0IOleInPlaceActiveObject@@QEAA@XZ 000000018002e930 f i DeviceMonitorImpl.obj
 0001:0002d950       ??0IOleInPlaceObject@@QEAA@XZ 000000018002e950 f i DeviceMonitorImpl.obj
 0001:0002d970       ??0IOleInPlaceObjectWindowless@@QEAA@XZ 000000018002e970 f i DeviceMonitorImpl.obj
 0001:0002d990       ??0IOleObject@@QEAA@XZ     000000018002e990 f i DeviceMonitorImpl.obj
 0001:0002d9b0       ??0IOleWindow@@QEAA@XZ     000000018002e9b0 f i DeviceMonitorImpl.obj
 0001:0002d9d0       ??0IPersist@@QEAA@XZ       000000018002e9d0 f i DeviceMonitorImpl.obj
 0001:0002d9f0       ??0IPersistStorage@@QEAA@XZ 000000018002e9f0 f i DeviceMonitorImpl.obj
 0001:0002da10       ??0IPersistStreamInit@@QEAA@XZ 000000018002ea10 f i DeviceMonitorImpl.obj
 0001:0002da30       ??0IProvideClassInfo2@@QEAA@XZ 000000018002ea30 f i DeviceMonitorImpl.obj
 0001:0002da50       ??0IProvideClassInfo@@QEAA@XZ 000000018002ea50 f i DeviceMonitorImpl.obj
 0001:0002da70       ??0IQuickActivate@@QEAA@XZ 000000018002ea70 f i DeviceMonitorImpl.obj
 0001:0002da90       ??0ISpecifyPropertyPages@@QEAA@XZ 000000018002ea90 f i DeviceMonitorImpl.obj
 0001:0002dab0       ??0IViewObject2@@QEAA@XZ   000000018002eab0 f i DeviceMonitorImpl.obj
 0001:0002dad0       ??0IViewObject@@QEAA@XZ    000000018002ead0 f i DeviceMonitorImpl.obj
 0001:0002daf0       ??0IViewObjectEx@@QEAA@XZ  000000018002eaf0 f i DeviceMonitorImpl.obj
 0001:0002db10       ??0OposVariantResult@@QEAA@XZ 000000018002eb10 f i DeviceMonitorImpl.obj
 0001:0002db30       ??0_CW@@QEAA@PEBD@Z        000000018002eb30 f i DeviceMonitorImpl.obj
 0001:0002db80       ??0_CW@@QEAA@PEB_W@Z       000000018002eb80 f i DeviceMonitorImpl.obj
 0001:0002dbd0       ??0_CWNCC@@QEAA@PEBD@Z     000000018002ebd0 f i DeviceMonitorImpl.obj
 0001:0002dc00       ??1?$CComControl@VCOPOSDeviceMonitor@@V?$CWindowImpl@VCOPOSDeviceMonitor@@VCWindow@ATL@@V?$CWinTraits@$0FGAAAAAA@$0A@@3@@ATL@@@ATL@@UEAA@XZ 000000018002ec00 f i DeviceMonitorImpl.obj
 0001:0002dc30       ??1?$CComPtr@UIDataAdviseHolder@@@ATL@@QEAA@XZ 000000018002ec30 f i DeviceMonitorImpl.obj
 0001:0002dc50       ??1?$CComPtr@UIOleAdviseHolder@@@ATL@@QEAA@XZ 000000018002ec50 f i DeviceMonitorImpl.obj
 0001:0002dc70       ??1?$CComPtr@UIOleInPlaceSiteWindowless@@@ATL@@QEAA@XZ 000000018002ec70 f i DeviceMonitorImpl.obj
 0001:0002dc90       ??1?$CComPtrBase@UIDataAdviseHolder@@@ATL@@QEAA@XZ 000000018002ec90 f i DeviceMonitorImpl.obj
 0001:0002dcd0       ??1?$CComPtrBase@UIOleAdviseHolder@@@ATL@@QEAA@XZ 000000018002ecd0 f i DeviceMonitorImpl.obj
 0001:0002dd10       ??1?$CComPtrBase@UIOleInPlaceSiteWindowless@@@ATL@@QEAA@XZ 000000018002ed10 f i DeviceMonitorImpl.obj
 0001:0002dd50       ??1?$CComQIPtr@UIDispatch@@$1?_GUID_00020400_0000_0000_c000_000000000046@@3U__s_GUID@@B@ATL@@QEAA@XZ 000000018002ed50 f i DeviceMonitorImpl.obj
 0001:0002dd70       ??1?$CProxy_IOPOSEvents@VCOPOSDeviceMonitor@@@@QEAA@XZ 000000018002ed70 f i DeviceMonitorImpl.obj
 0001:0002dd90       ??1?$CWindowImpl@VCOPOSDeviceMonitor@@VCWindow@ATL@@V?$CWinTraits@$0FGAAAAAA@$0A@@3@@ATL@@UEAA@XZ 000000018002ed90 f i DeviceMonitorImpl.obj
 0001:0002ddb0       ??1?$CWindowImplBaseT@VCWindow@ATL@@V?$CWinTraits@$0FGAAAAAA@$0A@@2@@ATL@@UEAA@XZ 000000018002edb0 f i DeviceMonitorImpl.obj
 0001:0002ddd0       ??1?$CWindowImplRoot@VCWindow@ATL@@@ATL@@UEAA@XZ 000000018002edd0 f i DeviceMonitorImpl.obj
 0001:0002de80       ??1?$IConnectionPointImpl@VCOPOSDeviceMonitor@@$1?DIID__IOPOSDeviceMonitorEvents@@3U_GUID@@BVCComDynamicUnkArray@ATL@@@ATL@@QEAA@XZ 000000018002ee80 f i DeviceMonitorImpl.obj
 0001:0002df00       ??1?$IConnectionPointImpl@VCOPOSDeviceMonitor@@$1?IID_IPropertyNotifySink@@3U_GUID@@BVCComDynamicUnkArray@ATL@@@ATL@@QEAA@XZ 000000018002ef00 f i DeviceMonitorImpl.obj
 0001:0002df80       ??1?$IPropertyNotifySinkCP@VCOPOSDeviceMonitor@@VCComDynamicUnkArray@ATL@@@ATL@@QEAA@XZ 000000018002ef80 f i DeviceMonitorImpl.obj
 0001:0002dfa0       ??1CComControlBase@ATL@@UEAA@XZ 000000018002efa0 f i DeviceMonitorImpl.obj
 0001:0002e080       ??1CComDynamicUnkArray@ATL@@QEAA@XZ 000000018002f080 f i DeviceMonitorImpl.obj
 0001:0002e0b0       ??1CDynamicStdCallThunk2@ATL@@QEAA@XZ 000000018002f0b0 f i DeviceMonitorImpl.obj
 0001:0002e0e0       ??1CWndProcThunk@ATL@@QEAA@XZ 000000018002f0e0 f i DeviceMonitorImpl.obj
 0001:0002e110       ??1OposVariantResult@@QEAA@XZ 000000018002f110 f i DeviceMonitorImpl.obj
 0001:0002e140       ??1_CW@@QEAA@XZ            000000018002f140 f i DeviceMonitorImpl.obj
 0001:0002e1a0       ??1_CWNCC@@QEAA@XZ         000000018002f1a0 f i DeviceMonitorImpl.obj
 0001:0002e1c0       ??B_CW@@QEAAPEB_WXZ        000000018002f1c0 f i DeviceMonitorImpl.obj
 0001:0002e1f0       ??B_CWNCC@@QEAAPEA_WXZ     000000018002f1f0 f i DeviceMonitorImpl.obj
 0001:0002e210       ??_EOposVariant@@QEAAPEAXI@Z 000000018002f210 f i DeviceMonitorImpl.obj
 0001:0002e2b0       ?EventClaim@COPOSDeviceMonitor@@IEAAXXZ 000000018002f2b0 f i DeviceMonitorImpl.obj
 0001:0002e2e0       ?EventClose@COPOSDeviceMonitor@@IEAAXXZ 000000018002f2e0 f i DeviceMonitorImpl.obj
 0001:0002e380       ?EventInit@COPOSDeviceMonitor@@IEAAJXZ 000000018002f380 f i DeviceMonitorImpl.obj
 0001:0002e630       ?EventOpen@COPOSDeviceMonitor@@IEAAXXZ 000000018002f630 f i DeviceMonitorImpl.obj
 0001:0002e670       ?EventPreCloseRelease@COPOSDeviceMonitor@@IEAAXXZ 000000018002f670 f i DeviceMonitorImpl.obj
 0001:0002e6e0       ?EventUninit@COPOSDeviceMonitor@@IEAAXXZ 000000018002f6e0 f i DeviceMonitorImpl.obj
 0001:0002e800       ?EventWindowProc@COPOSDeviceMonitor@@IEAA_JI_K_J@Z 000000018002f800 f i DeviceMonitorImpl.obj
 0001:0002e9c0       ?FireEventCleanup@COPOSDeviceMonitor@@IEAAXXZ 000000018002f9c0 f i DeviceMonitorImpl.obj
 0001:0002ea00       ?FireEventSetup@COPOSDeviceMonitor@@IEAA_NXZ 000000018002fa00 f i DeviceMonitorImpl.obj
 0001:0002ea70       ?GetModuleInstance@CComModule@ATL@@QEAAPEAUHINSTANCE__@@XZ 000000018002fa70 f i DeviceMonitorImpl.obj
 0001:0002ea80       ?SetRC@COPOSDeviceMonitor@@IEAAJJ@Z 000000018002fa80 f i DeviceMonitorImpl.obj
 0001:0002eaa0       ?s_EventWindowProc@COPOSDeviceMonitor@@KA_JPEAUHWND__@@I_K_J@Z 000000018002faa0 f i DeviceMonitorImpl.obj
 0001:0002eb40       _snwprintf                 000000018002fb40 f i DeviceMonitorImpl.obj
 0001:0002ebd0       _vfwprintf_l               000000018002fbd0 f i DeviceMonitorImpl.obj
 0001:0002ec20       _vsnwprintf                000000018002fc20 f i DeviceMonitorImpl.obj
 0001:0002ec60       _vsnwprintf_l              000000018002fc60 f i DeviceMonitorImpl.obj
 0001:0002ece0       vfwprintf                  000000018002fce0 f i DeviceMonitorImpl.obj
 0001:0002ed11       DebugBreak                 000000018002fd11 f   kernel32:KERNEL32.dll
 0001:0002ed17       Sleep                      000000018002fd17 f   kernel32:KERNEL32.dll
 0001:0002ed1d       GetCurrentProcess          000000018002fd1d f   kernel32:KERNEL32.dll
 0001:0002ed23       TerminateProcess           000000018002fd23 f   kernel32:KERNEL32.dll
 0001:0002ed29       MultiByteToWideChar        000000018002fd29 f   kernel32:KERNEL32.dll
 0001:0002ed2f       WideCharToMultiByte        000000018002fd2f f   kernel32:KERNEL32.dll
 0001:0002ed35       DecodePointer              000000018002fd35 f   kernel32:KERNEL32.dll
 0001:0002ed3b       RaiseException             000000018002fd3b f   kernel32:KERNEL32.dll
 0001:0002ed41       GetLastError               000000018002fd41 f   kernel32:KERNEL32.dll
 0001:0002ed47       SetLastError               000000018002fd47 f   kernel32:KERNEL32.dll
 0001:0002ed4d       InitializeCriticalSectionEx 000000018002fd4d f   kernel32:KERNEL32.dll
 0001:0002ed53       DeleteCriticalSection      000000018002fd53 f   kernel32:KERNEL32.dll
 0001:0002ed59       EncodePointer              000000018002fd59 f   kernel32:KERNEL32.dll
 0001:0002ed5f       EnterCriticalSection       000000018002fd5f f   kernel32:KERNEL32.dll
 0001:0002ed65       LeaveCriticalSection       000000018002fd65 f   kernel32:KERNEL32.dll
 0001:0002ed6b       ResetEvent                 000000018002fd6b f   kernel32:KERNEL32.dll
 0001:0002ed71       ReleaseMutex               000000018002fd71 f   kernel32:KERNEL32.dll
 0001:0002ed77       WaitForSingleObject        000000018002fd77 f   kernel32:KERNEL32.dll
 0001:0002ed7d       GetCurrentThreadId         000000018002fd7d f   kernel32:KERNEL32.dll
 0001:0002ed83       DisableThreadLibraryCalls  000000018002fd83 f   kernel32:KERNEL32.dll
 0001:0002ed89       FreeLibrary                000000018002fd89 f   kernel32:KERNEL32.dll
 0001:0002ed8f       GetModuleFileNameW         000000018002fd8f f   kernel32:KERNEL32.dll
 0001:0002ed95       GetModuleHandleW           000000018002fd95 f   kernel32:KERNEL32.dll
 0001:0002ed9b       GetProcAddress             000000018002fd9b f   kernel32:KERNEL32.dll
 0001:0002eda1       LoadLibraryExW             000000018002fda1 f   kernel32:KERNEL32.dll
 0001:0002eda7       LoadResource               000000018002fda7 f   kernel32:KERNEL32.dll
 0001:0002edad       SizeofResource             000000018002fdad f   kernel32:KERNEL32.dll
 0001:0002edb3       FindResourceW              000000018002fdb3 f   kernel32:KERNEL32.dll
 0001:0002edb9       GlobalAlloc                000000018002fdb9 f   kernel32:KERNEL32.dll
 0001:0002edbf       GlobalUnlock               000000018002fdbf f   kernel32:KERNEL32.dll
 0001:0002edc5       GlobalLock                 000000018002fdc5 f   kernel32:KERNEL32.dll
 0001:0002edcb       MulDiv                     000000018002fdcb f   kernel32:KERNEL32.dll
 0001:0002edd1       lstrcmpiW                  000000018002fdd1 f   kernel32:KERNEL32.dll
 0001:0002edd7       DeleteFileW                000000018002fdd7 f   kernel32:KERNEL32.dll
 0001:0002eddd       CloseHandle                000000018002fddd f   kernel32:KERNEL32.dll
 0001:0002ede3       SetEvent                   000000018002fde3 f   kernel32:KERNEL32.dll
 0001:0002ede9       CreateMutexW               000000018002fde9 f   kernel32:KERNEL32.dll
 0001:0002edef       CreateEventW               000000018002fdef f   kernel32:KERNEL32.dll
 0001:0002edf5       GetCurrentProcessId        000000018002fdf5 f   kernel32:KERNEL32.dll
 0001:0002edfb       LocalFree                  000000018002fdfb f   kernel32:KERNEL32.dll
 0001:0002ee01       FormatMessageW             000000018002fe01 f   kernel32:KERNEL32.dll
 0001:0002ee07       GetActiveWindow            000000018002fe07 f   user32:USER32.dll
 0001:0002ee0d       MessageBoxW                000000018002fe0d f   user32:USER32.dll
 0001:0002ee13       UnregisterClassW           000000018002fe13 f   user32:USER32.dll
 0001:0002ee19       PostMessageW               000000018002fe19 f   user32:USER32.dll
 0001:0002ee1f       DefWindowProcW             000000018002fe1f f   user32:USER32.dll
 0001:0002ee25       CallWindowProcW            000000018002fe25 f   user32:USER32.dll
 0001:0002ee2b       RegisterClassExW           000000018002fe2b f   user32:USER32.dll
 0001:0002ee31       GetClassInfoExW            000000018002fe31 f   user32:USER32.dll
 0001:0002ee37       CreateWindowExW            000000018002fe37 f   user32:USER32.dll
 0001:0002ee3d       IsWindow                   000000018002fe3d f   user32:USER32.dll
 0001:0002ee43       IsChild                    000000018002fe43 f   user32:USER32.dll
 0001:0002ee49       DestroyWindow              000000018002fe49 f   user32:USER32.dll
 0001:0002ee4f       ShowWindow                 000000018002fe4f f   user32:USER32.dll
 0001:0002ee55       SetWindowPos               000000018002fe55 f   user32:USER32.dll
 0001:0002ee5b       CharNextW                  000000018002fe5b f   user32:USER32.dll
 0001:0002ee61       SetFocus                   000000018002fe61 f   user32:USER32.dll
 0001:0002ee67       GetFocus                   000000018002fe67 f   user32:USER32.dll
 0001:0002ee6d       GetKeyState                000000018002fe6d f   user32:USER32.dll
 0001:0002ee73       GetDC                      000000018002fe73 f   user32:USER32.dll
 0001:0002ee79       ReleaseDC                  000000018002fe79 f   user32:USER32.dll
 0001:0002ee7f       BeginPaint                 000000018002fe7f f   user32:USER32.dll
 0001:0002ee85       EndPaint                   000000018002fe85 f   user32:USER32.dll
 0001:0002ee8b       SetWindowRgn               000000018002fe8b f   user32:USER32.dll
 0001:0002ee91       InvalidateRect             000000018002fe91 f   user32:USER32.dll
 0001:0002ee97       GetClientRect              000000018002fe97 f   user32:USER32.dll
 0001:0002ee9d       IntersectRect              000000018002fe9d f   user32:USER32.dll
 0001:0002eea3       UnionRect                  000000018002fea3 f   user32:USER32.dll
 0001:0002eea9       OffsetRect                 000000018002fea9 f   user32:USER32.dll
 0001:0002eeaf       EqualRect                  000000018002feaf f   user32:USER32.dll
 0001:0002eeb5       PtInRect                   000000018002feb5 f   user32:USER32.dll
 0001:0002eebb       GetWindowLongPtrW          000000018002febb f   user32:USER32.dll
 0001:0002eec1       SetWindowLongPtrW          000000018002fec1 f   user32:USER32.dll
 0001:0002eec7       GetParent                  000000018002fec7 f   user32:USER32.dll
 0001:0002eecd       LoadCursorW                000000018002fecd f   user32:USER32.dll
 0001:0002eed3       PeekMessageW               000000018002fed3 f   user32:USER32.dll
 0001:0002eed9       RegisterClassW             000000018002fed9 f   user32:USER32.dll
 0001:0002eedf       LoadBitmapW                000000018002fedf f   user32:USER32.dll
 0001:0002eee5       CloseMetaFile              000000018002fee5 f   gdi32:GDI32.dll
 0001:0002eeeb       CreateDCW                  000000018002feeb f   gdi32:GDI32.dll
 0001:0002eef1       CreateMetaFileW            000000018002fef1 f   gdi32:GDI32.dll
 0001:0002eef7       CreateRectRgnIndirect      000000018002fef7 f   gdi32:GDI32.dll
 0001:0002eefd       DeleteDC                   000000018002fefd f   gdi32:GDI32.dll
 0001:0002ef03       DeleteMetaFile             000000018002ff03 f   gdi32:GDI32.dll
 0001:0002ef09       GetDeviceCaps              000000018002ff09 f   gdi32:GDI32.dll
 0001:0002ef0f       RestoreDC                  000000018002ff0f f   gdi32:GDI32.dll
 0001:0002ef15       SaveDC                     000000018002ff15 f   gdi32:GDI32.dll
 0001:0002ef1b       SetMapMode                 000000018002ff1b f   gdi32:GDI32.dll
 0001:0002ef21       LPtoDP                     000000018002ff21 f   gdi32:GDI32.dll
 0001:0002ef27       SetViewportOrgEx           000000018002ff27 f   gdi32:GDI32.dll
 0001:0002ef2d       SetWindowExtEx             000000018002ff2d f   gdi32:GDI32.dll
 0001:0002ef33       SetWindowOrgEx             000000018002ff33 f   gdi32:GDI32.dll
 0001:0002ef39       BitBlt                     000000018002ff39 f   gdi32:GDI32.dll
 0001:0002ef3f       CreateCompatibleDC         000000018002ff3f f   gdi32:GDI32.dll
 0001:0002ef45       DeleteObject               000000018002ff45 f   gdi32:GDI32.dll
 0001:0002ef4b       SelectObject               000000018002ff4b f   gdi32:GDI32.dll
 0001:0002ef51       GetObjectW                 000000018002ff51 f   gdi32:GDI32.dll
 0001:0002ef57       RegCloseKey                000000018002ff57 f   advapi32:ADVAPI32.dll
 0001:0002ef5d       RegCreateKeyExW            000000018002ff5d f   advapi32:ADVAPI32.dll
 0001:0002ef63       RegDeleteKeyW              000000018002ff63 f   advapi32:ADVAPI32.dll
 0001:0002ef69       RegDeleteValueW            000000018002ff69 f   advapi32:ADVAPI32.dll
 0001:0002ef6f       RegEnumKeyExW              000000018002ff6f f   advapi32:ADVAPI32.dll
 0001:0002ef75       RegOpenKeyExW              000000018002ff75 f   advapi32:ADVAPI32.dll
 0001:0002ef7b       RegQueryInfoKeyW           000000018002ff7b f   advapi32:ADVAPI32.dll
 0001:0002ef81       RegSetValueExW             000000018002ff81 f   advapi32:ADVAPI32.dll
 0001:0002ef87       RegQueryValueExW           000000018002ff87 f   advapi32:ADVAPI32.dll
 0001:0002ef8d       CoCreateInstance           000000018002ff8d f   ole32:ole32.dll
 0001:0002ef93       StringFromGUID2            000000018002ff93 f   ole32:ole32.dll
 0001:0002ef99       CoTaskMemAlloc             000000018002ff99 f   ole32:ole32.dll
 0001:0002ef9f       CoTaskMemRealloc           000000018002ff9f f   ole32:ole32.dll
 0001:0002efa5       CoTaskMemFree              000000018002ffa5 f   ole32:ole32.dll
 0001:0002efab       ReadClassStm               000000018002ffab f   ole32:ole32.dll
 0001:0002efb1       WriteClassStm              000000018002ffb1 f   ole32:ole32.dll
 0001:0002efb7       CreateDataAdviseHolder     000000018002ffb7 f   ole32:ole32.dll
 0001:0002efbd       OleSaveToStream            000000018002ffbd f   ole32:ole32.dll
 0001:0002efc3       CreateOleAdviseHolder      000000018002ffc3 f   ole32:ole32.dll
 0001:0002efc9       OleRegGetUserType          000000018002ffc9 f   ole32:ole32.dll
 0001:0002efcf       OleRegGetMiscStatus        000000018002ffcf f   ole32:ole32.dll
 0001:0002efd5       OleRegEnumVerbs            000000018002ffd5 f   ole32:ole32.dll
 0001:0002efdb       CLSIDFromProgID            000000018002ffdb f   ole32:ole32.dll
 0001:0002efe1       SysAllocString             000000018002ffe1 f   oleaut32:OLEAUT32.dll
 0001:0002efe7       SysAllocStringLen          000000018002ffe7 f   oleaut32:OLEAUT32.dll
 0001:0002efed       SysFreeString              000000018002ffed f   oleaut32:OLEAUT32.dll
 0001:0002eff3       SysStringLen               000000018002fff3 f   oleaut32:OLEAUT32.dll
 0001:0002eff9       VariantClear               000000018002fff9 f   oleaut32:OLEAUT32.dll
 0001:0002efff       VariantCopyInd             000000018002ffff f   oleaut32:OLEAUT32.dll
 0001:0002f005       VariantChangeType          0000000180030005 f   oleaut32:OLEAUT32.dll
 0001:0002f00b       SysStringByteLen           000000018003000b f   oleaut32:OLEAUT32.dll
 0001:0002f011       SysAllocStringByteLen      0000000180030011 f   oleaut32:OLEAUT32.dll
 0001:0002f017       VariantInit                0000000180030017 f   oleaut32:OLEAUT32.dll
 0001:0002f01d       VarUI4FromStr              000000018003001d f   oleaut32:OLEAUT32.dll
 0001:0002f023       LoadTypeLib                0000000180030023 f   oleaut32:OLEAUT32.dll
 0001:0002f029       LoadRegTypeLib             0000000180030029 f   oleaut32:OLEAUT32.dll
 0001:0002f02f       RegisterTypeLib            000000018003002f f   oleaut32:OLEAUT32.dll
 0001:0002f035       UnRegisterTypeLib          0000000180030035 f   oleaut32:OLEAUT32.dll
 0001:0002f03b       OleCreatePropertyFrame     000000018003003b f   oleaut32:OLEAUT32.dll
 0001:0002f050       _RTC_AllocaHelper          0000000180030050 f   LIBCMTD:stack.obj
 0001:0002f090       _RTC_CheckStackVars        0000000180030090 f   LIBCMTD:stack.obj
 0001:0002f120       _RTC_CheckStackVars2       0000000180030120 f   LIBCMTD:stack.obj
 0001:0002f230       _CRT_RTC_INIT              0000000180030230 f   LIBCMTD:init.obj
 0001:0002f240       _CRT_RTC_INITW             0000000180030240 f   LIBCMTD:init.obj
 0001:0002f250       _RTC_InitBase              0000000180030250 f   LIBCMTD:init.obj
 0001:0002f290       _RTC_Shutdown              0000000180030290 f   LIBCMTD:init.obj
 0001:0002f2c0       __GSHandlerCheck           00000001800302c0 f   LIBCMTD:gshandler.obj
 0001:0002f300       __GSHandlerCheckCommon     0000000180030300 f   LIBCMTD:gshandler.obj
 0001:0002f410       __security_check_cookie    0000000180030410 f   LIBCMTD:amdsecgs.obj
 0001:0002f430       ??_U@YAPEAX_K@Z            0000000180030430 f   LIBCMTD:new_array.obj
 0001:0002f450       ??3@YAXPEAX_K@Z            0000000180030450 f   LIBCMTD:delete_scalar_size.obj
 0001:0002f470       ??_V@YAXPEAX@Z             0000000180030470 f   LIBCMTD:delete_array.obj
 0001:0002f490       ??_V@YAXPEAX_K@Z           0000000180030490 f   LIBCMTD:delete_array_size.obj
 0001:0002f4b0       ?configure_argv@__scrt_narrow_argv_policy@@SAHXZ 00000001800304b0 f i LIBCMTD:utility.obj
 0001:0002f5a0       ?initialize_environment@__scrt_narrow_environment_policy@@SAHXZ 00000001800305a0 f i LIBCMTD:utility.obj
 0001:0002f640       NtCurrentTeb               0000000180030640 f i LIBCMTD:utility.obj
 0001:0002f650       __scrt_acquire_startup_lock 0000000180030650 f   LIBCMTD:utility.obj
 0001:0002f6c0       __scrt_dllmain_after_initialize_c 00000001800306c0 f   LIBCMTD:utility.obj
 0001:0002f6f0       __scrt_dllmain_before_initialize_c 00000001800306f0 f   LIBCMTD:utility.obj
 0001:0002f710       __scrt_dllmain_crt_thread_attach 0000000180030710 f   LIBCMTD:utility.obj
 0001:0002f740       __scrt_dllmain_crt_thread_detach 0000000180030740 f   LIBCMTD:utility.obj
 0001:0002f760       __scrt_dllmain_exception_filter 0000000180030760 f   LIBCMTD:utility.obj
 0001:0002f7d0       __scrt_dllmain_uninitialize_c 00000001800307d0 f   LIBCMTD:utility.obj
 0001:0002f800       __scrt_dllmain_uninitialize_critical 0000000180030800 f   LIBCMTD:utility.obj
 0001:0002f820       __scrt_initialize_crt      0000000180030820 f   LIBCMTD:utility.obj
 0001:0002f870       __scrt_initialize_onexit_tables 0000000180030870 f   LIBCMTD:utility.obj
 0001:0002f980       __scrt_is_nonwritable_in_current_image 0000000180030980 f   LIBCMTD:utility.obj
 0001:0002fa10       __scrt_release_startup_lock 0000000180030a10 f   LIBCMTD:utility.obj
 0001:0002fa40       __scrt_uninitialize_crt    0000000180030a40 f   LIBCMTD:utility.obj
 0001:0002fa80       _onexit                    0000000180030a80 f   LIBCMTD:utility.obj
 0001:0002fb00       at_quick_exit              0000000180030b00 f   LIBCMTD:utility.obj
 0001:0002fb50       atexit                     0000000180030b50 f   LIBCMTD:utility.obj
 0001:0002fb90       ??3@YAXPEAX@Z              0000000180030b90 f   LIBCMTD:delete_scalar.obj
 0001:0002fbb0       __raise_securityfailure    0000000180030bb0 f   LIBCMTD:gs_report.obj
 0001:0002fbf0       __report_gsfailure         0000000180030bf0 f   LIBCMTD:gs_report.obj
 0001:0002fcd0       __report_rangecheckfailure 0000000180030cd0 f   LIBCMTD:gs_report.obj
 0001:0002fcf0       __report_securityfailure   0000000180030cf0 f   LIBCMTD:gs_report.obj
 0001:0002fd90       __report_securityfailureEx 0000000180030d90 f   LIBCMTD:gs_report.obj
 0001:00030150       _Init_thread_abort         0000000180031150 f   LIBCMTD:thread_safe_statics.obj
 0001:00030180       _Init_thread_footer        0000000180031180 f   LIBCMTD:thread_safe_statics.obj
 0001:000301e0       _Init_thread_header        00000001800311e0 f   LIBCMTD:thread_safe_statics.obj
 0001:00030270       _Init_thread_lock          0000000180031270 f   LIBCMTD:thread_safe_statics.obj
 0001:00030290       _Init_thread_notify        0000000180031290 f   LIBCMTD:thread_safe_statics.obj
 0001:000302f0       _Init_thread_unlock        00000001800312f0 f   LIBCMTD:thread_safe_statics.obj
 0001:00030310       _Init_thread_wait          0000000180031310 f   LIBCMTD:thread_safe_statics.obj
 0001:000303c0       ??2@YAPEAX_KAEBUnothrow_t@std@@@Z 00000001800313c0 f   LIBCMTD:new_scalar_nothrow.obj
 0001:00030400       ??_U@YAPEAX_KAEBUnothrow_t@std@@@Z 0000000180031400 f   LIBCMTD:new_array_nothrow.obj
 0001:00030430       __GSHandlerCheck_SEH       0000000180031430 f   LIBCMTD:gshandlerseh.obj
 0001:00030500       _alloca_probe              0000000180031500 f   LIBCMTD:chkstk.obj
 0001:00030500       __chkstk                   0000000180031500 f   LIBCMTD:chkstk.obj
 0001:00030960       _CRT_INIT                  0000000180031960 f   LIBCMTD:dll_dllmain.obj
 0001:00030990       _DllMainCRTStartup         0000000180031990 f   LIBCMTD:dll_dllmain.obj
 0001:00030a60       ?_RTC_AllocaFailure@@YAXPEAXPEAU_RTC_ALLOCA_NODE@@H@Z 0000000180031a60 f   LIBCMTD:error.obj
 0001:00030bc0       ?_RTC_Failure@@YAXPEAXH@Z  0000000180031bc0 f   LIBCMTD:error.obj
 0001:00030c10       ?_RTC_StackFailure@@YAXPEAXPEBD@Z 0000000180031c10 f   LIBCMTD:error.obj
 0001:00031040       _RTC_UninitUse             0000000180032040 f   LIBCMTD:error.obj
 0001:00031110       _vsprintf_s_l              0000000180032110 f i LIBCMTD:error.obj
 0001:00031180       sprintf_s                  0000000180032180 f i LIBCMTD:error.obj
 0001:000311b0       ?_RTC_GetErrorFunc@@YAP6AHHPEBDH00ZZPEBX@Z 00000001800321b0 f   LIBCMTD:userapi.obj
 0001:000311c0       ?_RTC_GetErrorFuncW@@YAP6AHHPEB_WH00ZZPEBX@Z 00000001800321c0 f   LIBCMTD:userapi.obj
 0001:000311d0       _RTC_GetErrDesc            00000001800321d0 f   LIBCMTD:userapi.obj
 0001:000311f0       _RTC_NumErrors             00000001800321f0 f   LIBCMTD:userapi.obj
 0001:00031200       _RTC_SetErrorFunc          0000000180032200 f   LIBCMTD:userapi.obj
 0001:00031220       _RTC_SetErrorFuncW         0000000180032220 f   LIBCMTD:userapi.obj
 0001:00031240       _RTC_SetErrorType          0000000180032240 f   LIBCMTD:userapi.obj
 0001:00031260       ??2@YAPEAX_K@Z             0000000180032260 f   LIBCMTD:new_scalar.obj
 0001:000312b0       __isa_available_init       00000001800322b0 f   LIBCMTD:cpu_disp.obj
 0001:00031650       _get_startup_argv_mode     0000000180032650 f   LIBCMTD:argv_mode.obj
 0001:00031660       __scrt_is_ucrt_dll_in_use  0000000180032660 f   LIBCMTD:ucrt_detection.obj
 0001:00031690       __crt_debugger_hook        0000000180032690 f   LIBCMTD:utility_desktop.obj
 0001:000316a0       __scrt_fastfail            00000001800326a0 f   LIBCMTD:utility_desktop.obj
 0001:00031840       __scrt_get_show_window_mode 0000000180032840 f   LIBCMTD:utility_desktop.obj
 0001:000318a0       __scrt_initialize_mta      00000001800328a0 f   LIBCMTD:utility_desktop.obj
 0001:000318b0       __scrt_initialize_winrt    00000001800328b0 f   LIBCMTD:utility_desktop.obj
 0001:000318c0       __scrt_is_managed_app      00000001800328c0 f   LIBCMTD:utility_desktop.obj
 0001:00031970       __scrt_set_unhandled_exception_filter 0000000180032970 f   LIBCMTD:utility_desktop.obj
 0001:00031990       __scrt_stub_for_initialize_mta 0000000180032990 f   LIBCMTD:utility_desktop.obj
 0001:00031990       __scrt_exe_initialize_mta  0000000180032990 f   LIBCMTD:utility_desktop.obj
 0001:000319a0       __scrt_unhandled_exception_filter 00000001800329a0 f   LIBCMTD:utility_desktop.obj
 0001:00031a40       _guard_check_icall_nop     0000000180032a40 f i LIBCMTD:guard_support.obj
 0001:00031a50       ReadNoFence64              0000000180032a50 f i LIBCMTD:guard_support.obj
 0001:00031a70       ReadPointerNoFence         0000000180032a70 f i LIBCMTD:guard_support.obj
 0001:00031a90       __castguard_check_failure_debugbreak 0000000180032a90 f i LIBCMTD:guard_support.obj
 0001:00031ab0       __castguard_check_failure_fastfail 0000000180032ab0 f i LIBCMTD:guard_support.obj
 0001:00031ae0       __castguard_check_failure_nop 0000000180032ae0 f i LIBCMTD:guard_support.obj
 0001:00031af0       __castguard_check_failure_os_handled 0000000180032af0 f i LIBCMTD:guard_support.obj
 0001:00031bc0       __castguard_slow_path_check_debugbreak 0000000180032bc0 f i LIBCMTD:guard_support.obj
 0001:00031c00       __castguard_slow_path_check_fastfail 0000000180032c00 f i LIBCMTD:guard_support.obj
 0001:00031c50       __castguard_slow_path_check_nop 0000000180032c50 f i LIBCMTD:guard_support.obj
 0001:00031c60       __castguard_slow_path_check_os_handled 0000000180032c60 f i LIBCMTD:guard_support.obj
 0001:00031d20       _guard_icall_checks_enforced 0000000180032d20 f i LIBCMTD:guard_support.obj
 0001:00031d60       _guard_rf_checks_enforced  0000000180032d60 f i LIBCMTD:guard_support.obj
 0001:00031e30       __security_init_cookie     0000000180032e30 f   LIBCMTD:gs_support.obj
 0001:00031eb0       ?__scrt_initialize_type_info@@YAXXZ 0000000180032eb0 f   LIBCMTD:tncleanup.obj
 0001:00031ed0       ?__scrt_uninitialize_type_info@@YAXXZ 0000000180032ed0 f   LIBCMTD:tncleanup.obj
 0001:00031ef0       __local_stdio_scanf_options 0000000180032ef0 f i LIBCMTD:default_local_stdio_options.obj
 0001:00031f00       __scrt_initialize_default_local_stdio_options 0000000180032f00 f   LIBCMTD:default_local_stdio_options.obj
 0001:00031f50       __scrt_get_dyn_tls_init_callback 0000000180032f50 f   LIBCMTD:dyn_tls_init.obj
 0001:00031f60       _RTC_Initialize            0000000180032f60 f   LIBCMTD:initsect.obj
 0001:00031fb0       _RTC_Terminate             0000000180032fb0 f   LIBCMTD:initsect.obj
 0001:00032520       ?_RTC_GetSrcLine@@YAHPEAEPEA_WKPEAH1K@Z 0000000180033520 f   LIBCMTD:pdblkup.obj
 0001:000328f0       ??0bad_alloc@std@@AEAA@QEBD@Z 00000001800338f0 f i LIBCMTD:throw_bad_alloc.obj
 0001:00032930       ??0bad_alloc@std@@QEAA@AEBV01@@Z 0000000180033930 f i LIBCMTD:throw_bad_alloc.obj
 0001:00032970       ??0bad_alloc@std@@QEAA@XZ  0000000180033970 f i LIBCMTD:throw_bad_alloc.obj
 0001:000329b0       ??0bad_array_new_length@std@@QEAA@AEBV01@@Z 00000001800339b0 f i LIBCMTD:throw_bad_alloc.obj
 0001:000329f0       ??0bad_array_new_length@std@@QEAA@XZ 00000001800339f0 f i LIBCMTD:throw_bad_alloc.obj
 0001:00032a30       ??0exception@std@@QEAA@AEBV01@@Z 0000000180033a30 f i LIBCMTD:throw_bad_alloc.obj
 0001:00032a90       ??0exception@std@@QEAA@QEBDH@Z 0000000180033a90 f i LIBCMTD:throw_bad_alloc.obj
 0001:00032ae0       ??1bad_alloc@std@@UEAA@XZ  0000000180033ae0 f i LIBCMTD:throw_bad_alloc.obj
 0001:00032b00       ??1bad_array_new_length@std@@UEAA@XZ 0000000180033b00 f i LIBCMTD:throw_bad_alloc.obj
 0001:00032b20       ??1exception@std@@UEAA@XZ  0000000180033b20 f i LIBCMTD:throw_bad_alloc.obj
 0001:00032b50       ??_Ebad_alloc@std@@UEAAPEAXI@Z 0000000180033b50 f i LIBCMTD:throw_bad_alloc.obj
 0001:00032b50       ??_Gbad_alloc@std@@UEAAPEAXI@Z 0000000180033b50 f i LIBCMTD:throw_bad_alloc.obj
 0001:00032b90       ??_Ebad_array_new_length@std@@UEAAPEAXI@Z 0000000180033b90 f i LIBCMTD:throw_bad_alloc.obj
 0001:00032b90       ??_Gbad_array_new_length@std@@UEAAPEAXI@Z 0000000180033b90 f i LIBCMTD:throw_bad_alloc.obj
 0001:00032bd0       ??_Gexception@std@@UEAAPEAXI@Z 0000000180033bd0 f i LIBCMTD:throw_bad_alloc.obj
 0001:00032bd0       ??_Eexception@std@@UEAAPEAXI@Z 0000000180033bd0 f i LIBCMTD:throw_bad_alloc.obj
 0001:00032c10       ?__scrt_throw_std_bad_alloc@@YAXXZ 0000000180033c10 f   LIBCMTD:throw_bad_alloc.obj
 0001:00032c40       ?__scrt_throw_std_bad_array_new_length@@YAXXZ 0000000180033c40 f   LIBCMTD:throw_bad_alloc.obj
 0001:00032c70       ?what@exception@std@@UEBAPEBDXZ 0000000180033c70 f i LIBCMTD:throw_bad_alloc.obj
 0001:00032cb0       ??1type_info@@UEAA@XZ      0000000180033cb0 f   LIBCMTD:std_type_info_static.obj
 0001:00032cd0       ??_Gtype_info@@UEAAPEAXI@Z 0000000180033cd0 f i LIBCMTD:std_type_info_static.obj
 0001:00032cd0       ??_Etype_info@@UEAAPEAXI@Z 0000000180033cd0 f i LIBCMTD:std_type_info_static.obj
 0001:00032d0c       ??$?2PEAUHINSTANCE__@@@Wrapper@?$CSimpleArray@PEAUHINSTANCE__@@V?$CSimpleArrayEqualHelper@PEAUHINSTANCE__@@@ATL@@@ATL@@SAPEAX_KPEAPEAUHINSTANCE__@@@Z 0000000180033d0c f i atls:atlbase.obj
 0001:00032d10       ??0?$CSimpleArray@PEAUHINSTANCE__@@V?$CSimpleArrayEqualHelper@PEAUHINSTANCE__@@@ATL@@@ATL@@QEAA@XZ 0000000180033d10 f i atls:atlbase.obj
 0001:00032d20       ??0CAtlBaseModule@ATL@@QEAA@XZ 0000000180033d20 f   atls:atlbase.obj
 0001:00032dc8       ??0Wrapper@?$CSimpleArray@PEAUHINSTANCE__@@V?$CSimpleArrayEqualHelper@PEAUHINSTANCE__@@@ATL@@@ATL@@QEAA@AEBQEAUHINSTANCE__@@@Z 0000000180033dc8 f i atls:atlbase.obj
 0001:00032dd4       ??0_ATL_BASE_MODULE70@ATL@@QEAA@XZ 0000000180033dd4 f i atls:atlbase.obj
 0001:00032e00       ??1?$CSimpleArray@PEAUHINSTANCE__@@V?$CSimpleArrayEqualHelper@PEAUHINSTANCE__@@@ATL@@@ATL@@QEAA@XZ 0000000180033e00 f i atls:atlbase.obj
 0001:00032e28       ??1CAtlBaseModule@ATL@@QEAA@XZ 0000000180033e28 f   atls:atlbase.obj
 0001:00032e5c       ??1_ATL_BASE_MODULE70@ATL@@QEAA@XZ 0000000180033e5c f i atls:atlbase.obj
 0001:00032e88       ??A?$CSimpleArray@PEAUHINSTANCE__@@V?$CSimpleArrayEqualHelper@PEAUHINSTANCE__@@@ATL@@@ATL@@QEAAAEAPEAUHINSTANCE__@@H@Z 0000000180033e88 f i atls:atlbase.obj
 0001:00032eb4       ?Add@?$CSimpleArray@PEAUHINSTANCE__@@V?$CSimpleArrayEqualHelper@PEAUHINSTANCE__@@@ATL@@@ATL@@QEAAHAEBQEAUHINSTANCE__@@@Z 0000000180033eb4 f i atls:atlbase.obj
 0001:00032f54       ?AddResourceInstance@CAtlBaseModule@ATL@@QEAA_NPEAUHINSTANCE__@@@Z 0000000180033f54 f   atls:atlbase.obj
 0001:00032f9c       ?GetHInstanceAt@CAtlBaseModule@ATL@@QEAAPEAUHINSTANCE__@@H@Z 0000000180033f9c f   atls:atlbase.obj
 0001:00033014       ?GetSize@?$CSimpleArray@PEAUHINSTANCE__@@V?$CSimpleArrayEqualHelper@PEAUHINSTANCE__@@@ATL@@@ATL@@QEBAHXZ 0000000180034014 f i atls:atlbase.obj
 0001:00033018       ?InternalSetAtIndex@?$CSimpleArray@PEAUHINSTANCE__@@V?$CSimpleArrayEqualHelper@PEAUHINSTANCE__@@@ATL@@@ATL@@QEAAXHAEBQEAUHINSTANCE__@@@Z 0000000180034018 f i atls:atlbase.obj
 0001:00033030       ?RemoveAll@?$CSimpleArray@PEAUHINSTANCE__@@V?$CSimpleArrayEqualHelper@PEAUHINSTANCE__@@@ATL@@@ATL@@QEAAXXZ 0000000180034030 f i atls:atlbase.obj
 0001:00033058       ?RemoveAt@?$CSimpleArray@PEAUHINSTANCE__@@V?$CSimpleArrayEqualHelper@PEAUHINSTANCE__@@@ATL@@@ATL@@QEAAHH@Z 0000000180034058 f i atls:atlbase.obj
 0001:000330f0       ?RemoveResourceInstance@CAtlBaseModule@ATL@@QEAA_NPEAUHINSTANCE__@@@Z 00000001800340f0 f   atls:atlbase.obj
 0001:00033178       ?memmove_s@Checked@ATL@@YAXPEAX_KPEBX1@Z 0000000180034178 f i atls:atlbase.obj
 0001:00033620       ?GetCodeAddress@_stdcallthunk@ATL@@QEAAPEAXXZ 0000000180034620 f i atls:atlthunk.obj
 0001:0003364c       ?Init@_stdcallthunk@ATL@@QEAAH_KPEAX@Z 000000018003464c f i atls:atlthunk.obj
 0001:0003369c       ?__AllocStdCallThunk@@YAPEAXXZ 000000018003469c f   atls:atlthunk.obj
 0001:000336a4       ?__AllocStdCallThunk@ATL@@YAPEAXXZ 00000001800346a4 f   atls:atlthunk.obj
 0001:000336ac       ?__AllocStdCallThunk_cmn@@YAPEAXXZ 00000001800346ac f   atls:atlthunk.obj
 0001:00033784       ?__FreeStdCallThunk@@YAXPEAX@Z 0000000180034784 f   atls:atlthunk.obj
 0001:000337a4       ?__FreeStdCallThunk@ATL@@YAXPEAX@Z 00000001800347a4 f   atls:atlthunk.obj
 0001:000337c4       ?__FreeStdCallThunk_cmn@@YAXPEAX@Z 00000001800347c4 f   atls:atlthunk.obj
 0001:00033864       AtlThunk_AllocateData      0000000180034864 f   atls:atlthunk.obj
 0001:000338e0       AtlThunk_DataToCode        00000001800348e0 f   atls:atlthunk.obj
 0001:00033934       AtlThunk_FreeData          0000000180034934 f   atls:atlthunk.obj
 0001:00033994       AtlThunk_InitData          0000000180034994 f   atls:atlthunk.obj
 0001:00033a50       memset_repmovs             0000000180034a50 f   libvcruntimed:memset.obj
 0001:00033a70       memset                     0000000180034a70 f   libvcruntimed:memset.obj
 0001:00033c00       ??$__crt_interlocked_exchange_pointer@$$A6AXXZP6AXXZ@@YAP6AXXZPEDS6AXXZQ6AXXZ@Z 0000000180034c00 f i libvcruntimed:purevirt.obj
 0001:00033c20       ??$__crt_interlocked_read_pointer@$$A6AXXZ@@YAP6AXXZPEDS6AXXZ@Z 0000000180034c20 f i libvcruntimed:purevirt.obj
 0001:00033c40       ?__crt_interlocked_read_64@@YA_JPED_J@Z 0000000180034c40 f i libvcruntimed:purevirt.obj
 0001:00033c60       _get_purecall_handler      0000000180034c60 f   libvcruntimed:purevirt.obj
 0001:00033c80       _purecall                  0000000180034c80 f   libvcruntimed:purevirt.obj
 0001:00033cc0       _set_purecall_handler      0000000180034cc0 f   libvcruntimed:purevirt.obj
 0001:00033cf0       memcmp                     0000000180034cf0 f   libvcruntimed:memcmp.obj
 0001:00033dd0       memcpy_repmovs             0000000180034dd0 f   libvcruntimed:memcpy.obj
 0001:00033df0       memmove                    0000000180034df0 f   libvcruntimed:memcpy.obj
 0001:00033df0       memcpy                     0000000180034df0 f   libvcruntimed:memcpy.obj
 0001:00034470       wcsstr                     0000000180035470 f   libvcruntimed:wcsstr.obj
 0001:00034ad0       __vcrt_initialize          0000000180035ad0 f   libvcruntimed:initialization.obj
 0001:00034b10       __vcrt_thread_attach       0000000180035b10 f   libvcruntimed:initialization.obj
 0001:00034b30       __vcrt_thread_detach       0000000180035b30 f   libvcruntimed:initialization.obj
 0001:00034b50       __vcrt_uninitialize        0000000180035b50 f   libvcruntimed:initialization.obj
 0001:00034b70       __vcrt_uninitialize_critical 0000000180035b70 f   libvcruntimed:initialization.obj
 0001:00034b90       __C_specific_handler       0000000180035b90 f   libvcruntimed:riscchandler.obj
 0001:00035000       ??$?0AEAViterator@TryBlockMap4@FH4@@AEAV012@$0A@@?$pair@Viterator@TryBlockMap4@FH4@@V123@@std@@QEAA@AEAViterator@TryBlockMap4@FH4@@0@Z 0000000180036000 f i libvcruntimed:risctrnsctrl.obj
 0001:00035060       ??$?0AEAViterator@TryBlockMap@__FrameHandler3@@AEAV012@$0A@@?$pair@Viterator@TryBlockMap@__FrameHandler3@@V123@@std@@QEAA@AEAViterator@TryBlockMap@__FrameHandler3@@0@Z 0000000180036060 f i libvcruntimed:risctrnsctrl.obj
 0001:00035230       ??$_CallSETranslator@V__FrameHandler3@@@@YAHPEAUEHExceptionRecord@@PEA_KPEAU_CONTEXT@@PEAU_xDISPATCHER_CONTEXT@@PEBU_s_FuncInfo@@K1H@Z 0000000180036230 f i libvcruntimed:risctrnsctrl.obj
 0001:000352c0       ??$_CallSETranslator@V__FrameHandler4@@@@YAHPEAUEHExceptionRecord@@PEA_KPEAU_CONTEXT@@PEAU_xDISPATCHER_CONTEXT@@PEAUFuncInfo4@FH4@@K1H@Z 00000001800362c0 f i libvcruntimed:risctrnsctrl.obj
 0001:00035350       ??$forward@AEAViterator@TryBlockMap4@FH4@@@std@@YAAEAViterator@TryBlockMap4@FH4@@AEAV123@@Z 0000000180036350 f i libvcruntimed:risctrnsctrl.obj
 0001:00035360       ??$forward@AEAViterator@TryBlockMap@__FrameHandler3@@@std@@YAAEAViterator@TryBlockMap@__FrameHandler3@@AEAV123@@Z 0000000180036360 f i libvcruntimed:risctrnsctrl.obj
 0001:00035370       ??0FuncInfo4@FH4@@QEAA@XZ  0000000180036370 f i libvcruntimed:risctrnsctrl.obj
 0001:000353e0       ??0FuncInfoHeader@FH4@@QEAA@XZ 00000001800363e0 f i libvcruntimed:risctrnsctrl.obj
 0001:00035400       ??0iterator@TryBlockMap4@FH4@@QEAA@AEAV12@I@Z 0000000180036400 f i libvcruntimed:risctrnsctrl.obj
 0001:00035430       ??0iterator@TryBlockMap@__FrameHandler3@@QEAA@AEAV12@I@Z 0000000180036430 f i libvcruntimed:risctrnsctrl.obj
 0001:00035460       ??4iterator@TryBlockMap4@FH4@@QEAAAEAV012@AEBV012@@Z 0000000180036460 f i libvcruntimed:risctrnsctrl.obj
 0001:00035480       ??9iterator@TryBlockMap4@FH4@@QEBA_NAEBV012@@Z 0000000180036480 f i libvcruntimed:risctrnsctrl.obj
 0001:000354c0       ??Diterator@TryBlockMap4@FH4@@QEAA?AUTryBlockMapEntry4@2@XZ 00000001800364c0 f i libvcruntimed:risctrnsctrl.obj
 0001:000354f0       ??Eiterator@TryBlockMap4@FH4@@QEAAAEAV012@XZ 00000001800364f0 f i libvcruntimed:risctrnsctrl.obj
 0001:00035530       ?CatchTryBlock@__FrameHandler3@@SAPEBU_s_TryBlockMapEntry@@PEBU_s_FuncInfo@@H@Z 0000000180036530 f   libvcruntimed:risctrnsctrl.obj
 0001:000355c0       ?DecompFuncInfo@FH4@@YA_JPEAEAEAUFuncInfo4@1@_KH@Z 00000001800365c0 f i libvcruntimed:risctrnsctrl.obj
 0001:00035600       ?DecompFuncInfo@FH4@@YA_JPEAEAEAUFuncInfo4@1@_KH_N@Z 0000000180036600 f i libvcruntimed:risctrnsctrl.obj
 0001:000357d0       ?DecompTryBlock@TryBlockMap4@FH4@@AEAAXXZ 00000001800367d0 f i libvcruntimed:risctrnsctrl.obj
 0001:00035850       ?ExecutionInCatch@__FrameHandler3@@SA_NPEAU_xDISPATCHER_CONTEXT@@PEBU_s_FuncInfo@@@Z 0000000180036850 f   libvcruntimed:risctrnsctrl.obj
 0001:000358a0       ?ExecutionInCatch@__FrameHandler4@@SA_NPEAU_xDISPATCHER_CONTEXT@@PEAUFuncInfo4@FH4@@@Z 00000001800368a0 f   libvcruntimed:risctrnsctrl.obj
 0001:000358c0       ?FrameUnwindToEmptyState@__FrameHandler3@@SAXPEA_KPEAU_xDISPATCHER_CONTEXT@@PEBU_s_FuncInfo@@@Z 00000001800368c0 f   libvcruntimed:risctrnsctrl.obj
 0001:00035960       ?FrameUnwindToEmptyState@__FrameHandler4@@SAXPEA_KPEAU_xDISPATCHER_CONTEXT@@PEAUFuncInfo4@FH4@@@Z 0000000180036960 f   libvcruntimed:risctrnsctrl.obj
 0001:000359b0       ?GetEstablisherFrame@__FrameHandler3@@SAPEA_KPEA_KPEAU_xDISPATCHER_CONTEXT@@PEBU_s_FuncInfo@@0@Z 00000001800369b0 f   libvcruntimed:risctrnsctrl.obj
 0001:00035b20       ?GetEstablisherFrame@__FrameHandler4@@SAPEA_KPEA_KPEAU_xDISPATCHER_CONTEXT@@PEAUFuncInfo4@FH4@@0@Z 0000000180036b20 f   libvcruntimed:risctrnsctrl.obj
 0001:00035b90       ?GetRangeOfTrysToCheck@__FrameHandler3@@SA?AU?$pair@Viterator@TryBlockMap@__FrameHandler3@@V123@@std@@AEAVTryBlockMap@1@HPEAU_xDISPATCHER_CONTEXT@@PEBU_s_FuncInfo@@H@Z 0000000180036b90 f   libvcruntimed:risctrnsctrl.obj
 0001:00035dd0       ?GetRangeOfTrysToCheck@__FrameHandler4@@SA?AU?$pair@Viterator@TryBlockMap4@FH4@@V123@@std@@AEAVTryBlockMap4@FH4@@HPEAU_xDISPATCHER_CONTEXT@@PEAUFuncInfo4@5@H@Z 0000000180036dd0 f   libvcruntimed:risctrnsctrl.obj
 0001:00035f80       ?ReadInt@FH4@@YAHPEAPEAE@Z 0000000180036f80 f i libvcruntimed:risctrnsctrl.obj
 0001:00035fc0       ?ReadUnsigned@FH4@@YAIPEAPEAE@Z 0000000180036fc0 f i libvcruntimed:risctrnsctrl.obj
 0001:00036050       ?UnwindNestedFrames@__FrameHandler3@@SAXPEA_KPEAUEHExceptionRecord@@PEAU_CONTEXT@@0PEAXPEBU_s_FuncInfo@@HHPEBU_s_HandlerType@@PEAU_xDISPATCHER_CONTEXT@@E@Z 0000000180037050 f   libvcruntimed:risctrnsctrl.obj
 0001:000361c0       ?UnwindNestedFrames@__FrameHandler4@@SAXPEA_KPEAUEHExceptionRecord@@PEAU_CONTEXT@@0PEAXPEAUFuncInfo4@FH4@@HHPEAUHandlerType4@5@PEAU_xDISPATCHER_CONTEXT@@E@Z 00000001800371c0 f   libvcruntimed:risctrnsctrl.obj
 0001:00036390       ?begin@TryBlockMap4@FH4@@QEAA?AViterator@12@XZ 0000000180037390 f i libvcruntimed:risctrnsctrl.obj
 0001:000363c0       ?end@TryBlockMap4@FH4@@QEAA?AViterator@12@XZ 00000001800373c0 f i libvcruntimed:risctrnsctrl.obj
 0001:000363f0       ?imageRelToByteBuffer@FH4@@YAPEAE_KH@Z 00000001800373f0 f i libvcruntimed:risctrnsctrl.obj
 0001:00036410       ?incrementToSentinel@iterator@TryBlockMap4@FH4@@QEAAXXZ 0000000180037410 f i libvcruntimed:risctrnsctrl.obj
 0001:00036430       ?setBuffer@TryBlockMap4@FH4@@QEAAXViterator@12@@Z 0000000180037430 f i libvcruntimed:risctrnsctrl.obj
 0001:000364a0       _CreateFrameInfo           00000001800374a0 f   libvcruntimed:risctrnsctrl.obj
 0001:00036510       _FindAndUnlinkFrame        0000000180037510 f   libvcruntimed:risctrnsctrl.obj
 0001:00036590       _GetImageBase              0000000180037590 f   libvcruntimed:risctrnsctrl.obj
 0001:000365b0       _GetThrowImageBase         00000001800375b0 f   libvcruntimed:risctrnsctrl.obj
 0001:000365d0       _SetImageBase              00000001800375d0 f   libvcruntimed:risctrnsctrl.obj
 0001:000365f0       _SetThrowImageBase         00000001800375f0 f   libvcruntimed:risctrnsctrl.obj
 0001:00036610       __CxxFrameHandler          0000000180037610 f   libvcruntimed:risctrnsctrl.obj
 0001:00036650       __CxxFrameHandler2         0000000180037650 f   libvcruntimed:risctrnsctrl.obj
 0001:00036690       __CxxFrameHandler3         0000000180037690 f   libvcruntimed:risctrnsctrl.obj
 0001:00036770       __CxxFrameHandler4         0000000180037770 f   libvcruntimed:risctrnsctrl.obj
 0001:00036880       __C_specific_handler_noexcept 0000000180037880 f   libvcruntimed:chandler_noexcept.obj
 0001:00036910       __DestructExceptionObject  0000000180037910 f   libvcruntimed:ehhelpers.obj
 0001:00036a10       ?_CallMemberFunction0@@YAXQEAX0@Z 0000000180037a10 f i libvcruntimed:ehhelpers.obj
 0001:00036ae0       ?raw_name@type_info@@QEBAPEBDXZ 0000000180037ae0 f i libvcruntimed:ehhelpers.obj
 0001:00036af0       _IsExceptionObjectToBeDestroyed 0000000180037af0 f   libvcruntimed:ehhelpers.obj
 0001:00036b40       _SetWinRTOutOfMemoryExceptionCallback 0000000180037b40 f   libvcruntimed:ehhelpers.obj
 0001:00036b60       __AdjustPointer            0000000180037b60 f   libvcruntimed:ehhelpers.obj
 0001:00036be0       __FrameUnwindFilter        0000000180037be0 f   libvcruntimed:ehhelpers.obj
 0001:00036c90       __GetPlatformExceptionInfo 0000000180037c90 f   libvcruntimed:ehhelpers.obj
 0001:00036d40       __current_exception        0000000180037d40 f   libvcruntimed:ehhelpers.obj
 0001:00036d60       __current_exception_context 0000000180037d60 f   libvcruntimed:ehhelpers.obj
 0001:00036d80       __processing_throw         0000000180037d80 f   libvcruntimed:ehhelpers.obj
 0001:00036da0       __std_terminate            0000000180037da0 f   libvcruntimed:ehhelpers.obj
 0001:00036db0       _is_exception_typeof       0000000180037db0 f   libvcruntimed:ehhelpers.obj
 0001:00036f40       ??$?RD@__crt_internal_free_policy@@QEBAXQEBD@Z 0000000180037f40 f i libvcruntimed:std_type_info.obj
 0001:00036f70       ??$?RX@__crt_internal_free_policy@@QEBAXQEBX@Z 0000000180037f70 f i libvcruntimed:std_type_info.obj
 0001:00036fa0       ??$__crt_interlocked_compare_exchange_pointer@$$CBDPEAD$$T@@YAPEBDPEDSEBDQEAD$$T@Z 0000000180037fa0 f i libvcruntimed:std_type_info.obj
 0001:00036fe0       ??$__crt_interlocked_read_pointer@$$CBD@@YAPEBDPEDSEBD@Z 0000000180037fe0 f i libvcruntimed:std_type_info.obj
 0001:00037000       ??0?$__crt_unique_heap_ptr@DU__crt_internal_free_policy@@@@QEAA@QEAD@Z 0000000180038000 f i libvcruntimed:std_type_info.obj
 0001:00037020       ??0?$__crt_unique_heap_ptr@XU__crt_internal_free_policy@@@@QEAA@QEAX@Z 0000000180038020 f i libvcruntimed:std_type_info.obj
 0001:00037040       ??1?$__crt_unique_heap_ptr@DU__crt_internal_free_policy@@@@QEAA@XZ 0000000180038040 f i libvcruntimed:std_type_info.obj
 0001:00037060       ??1?$__crt_unique_heap_ptr@XU__crt_internal_free_policy@@@@QEAA@XZ 0000000180038060 f i libvcruntimed:std_type_info.obj
 0001:00037080       ??B?$__crt_unique_heap_ptr@DU__crt_internal_free_policy@@@@QEBA_NXZ 0000000180038080 f i libvcruntimed:std_type_info.obj
 0001:000370a0       ??B?$__crt_unique_heap_ptr@XU__crt_internal_free_policy@@@@QEBA_NXZ 00000001800380a0 f i libvcruntimed:std_type_info.obj
 0001:00037140       ?detach@?$__crt_unique_heap_ptr@XU__crt_internal_free_policy@@@@QEAAPEAXXZ 0000000180038140 f i libvcruntimed:std_type_info.obj
 0001:00037170       ?get@?$__crt_unique_heap_ptr@DU__crt_internal_free_policy@@@@QEBAPEADXZ 0000000180038170 f i libvcruntimed:std_type_info.obj
 0001:00037180       ?get@?$__crt_unique_heap_ptr@XU__crt_internal_free_policy@@@@QEBAPEAXXZ 0000000180038180 f i libvcruntimed:std_type_info.obj
 0001:00037190       ?is_valid@?$__crt_unique_heap_ptr@DU__crt_internal_free_policy@@@@QEBA_NXZ 0000000180038190 f i libvcruntimed:std_type_info.obj
 0001:000371c0       ?is_valid@?$__crt_unique_heap_ptr@XU__crt_internal_free_policy@@@@QEBA_NXZ 00000001800381c0 f i libvcruntimed:std_type_info.obj
 0001:000371f0       ?release@?$__crt_unique_heap_ptr@DU__crt_internal_free_policy@@@@QEAAXXZ 00000001800381f0 f i libvcruntimed:std_type_info.obj
 0001:00037220       ?release@?$__crt_unique_heap_ptr@XU__crt_internal_free_policy@@@@QEAAXXZ 0000000180038220 f i libvcruntimed:std_type_info.obj
 0001:00037250       __std_type_info_compare    0000000180038250 f   libvcruntimed:std_type_info.obj
 0001:00037290       __std_type_info_destroy_list 0000000180038290 f   libvcruntimed:std_type_info.obj
 0001:000372f0       __std_type_info_hash       00000001800382f0 f   libvcruntimed:std_type_info.obj
 0001:000373a0       __std_type_info_name       00000001800383a0 f   libvcruntimed:std_type_info.obj
 0001:00037650       __vcrt_GetModuleFileNameW  0000000180038650 f   libvcruntimed:winapi_thunks.obj
 0001:00037680       __vcrt_GetModuleHandleW    0000000180038680 f   libvcruntimed:winapi_thunks.obj
 0001:000376a0       __vcrt_LoadLibraryExW      00000001800386a0 f   libvcruntimed:winapi_thunks.obj
 0001:000376d0       ??$?RD@__crt_public_free_policy@@QEBAXQEBD@Z 00000001800386d0 f i libvcruntimed:std_exception.obj
 0001:000376f0       ??0?$__crt_unique_heap_ptr@DU__crt_public_free_policy@@@@QEAA@QEAD@Z 00000001800386f0 f i libvcruntimed:std_exception.obj
 0001:00037710       ??1?$__crt_unique_heap_ptr@DU__crt_public_free_policy@@@@QEAA@XZ 0000000180038710 f i libvcruntimed:std_exception.obj
 0001:00037730       ??B?$__crt_unique_heap_ptr@DU__crt_public_free_policy@@@@QEBA_NXZ 0000000180038730 f i libvcruntimed:std_exception.obj
 0001:00037750       ?detach@?$__crt_unique_heap_ptr@DU__crt_public_free_policy@@@@QEAAPEADXZ 0000000180038750 f i libvcruntimed:std_exception.obj
 0001:00037780       ?get@?$__crt_unique_heap_ptr@DU__crt_public_free_policy@@@@QEBAPEADXZ 0000000180038780 f i libvcruntimed:std_exception.obj
 0001:00037790       ?is_valid@?$__crt_unique_heap_ptr@DU__crt_public_free_policy@@@@QEBA_NXZ 0000000180038790 f i libvcruntimed:std_exception.obj
 0001:000377c0       ?release@?$__crt_unique_heap_ptr@DU__crt_public_free_policy@@@@QEAAXXZ 00000001800387c0 f i libvcruntimed:std_exception.obj
 0001:000377f0       __std_exception_copy       00000001800387f0 f   libvcruntimed:std_exception.obj
 0001:00037930       __std_exception_destroy    0000000180038930 f   libvcruntimed:std_exception.obj
 0001:00037970       _CxxThrowException         0000000180038970 f   libvcruntimed:throw.obj
 0001:00037aa0       ??$?RU__vcrt_ptd@@@__crt_internal_free_policy@@QEBAXQEBU__vcrt_ptd@@@Z 0000000180038aa0 f i libvcruntimed:per_thread_data.obj
 0001:00037ad0       ??0?$__crt_unique_heap_ptr@U__vcrt_ptd@@U__crt_internal_free_policy@@@@QEAA@QEAU__vcrt_ptd@@@Z 0000000180038ad0 f i libvcruntimed:per_thread_data.obj
 0001:00037b10       ??1?$__crt_unique_heap_ptr@U__vcrt_ptd@@U__crt_internal_free_policy@@@@QEAA@XZ 0000000180038b10 f i libvcruntimed:per_thread_data.obj
 0001:00037b50       ??B?$__crt_unique_heap_ptr@U__vcrt_ptd@@U__crt_internal_free_policy@@@@QEBA_NXZ 0000000180038b50 f i libvcruntimed:per_thread_data.obj
 0001:00037b70       ?detach@?$__crt_unique_heap_ptr@U__vcrt_ptd@@U__crt_internal_free_policy@@@@QEAAPEAU__vcrt_ptd@@XZ 0000000180038b70 f i libvcruntimed:per_thread_data.obj
 0001:00037ba0       ?get@?$__crt_unique_heap_ptr@U__vcrt_ptd@@U__crt_internal_free_policy@@@@QEBAPEAU__vcrt_ptd@@XZ 0000000180038ba0 f i libvcruntimed:per_thread_data.obj
 0001:00037bb0       ?is_valid@?$__crt_unique_heap_ptr@U__vcrt_ptd@@U__crt_internal_free_policy@@@@QEBA_NXZ 0000000180038bb0 f i libvcruntimed:per_thread_data.obj
 0001:00037be0       ?release@?$__crt_unique_heap_ptr@U__vcrt_ptd@@U__crt_internal_free_policy@@@@QEAAXXZ 0000000180038be0 f i libvcruntimed:per_thread_data.obj
 0001:00037c50       __vcrt_freefls             0000000180038c50 f   libvcruntimed:per_thread_data.obj
 0001:00037c90       __vcrt_freeptd             0000000180038c90 f   libvcruntimed:per_thread_data.obj
 0001:00037cf0       __vcrt_getptd              0000000180038cf0 f   libvcruntimed:per_thread_data.obj
 0001:00037d20       __vcrt_getptd_noexit       0000000180038d20 f   libvcruntimed:per_thread_data.obj
 0001:00037ec0       __vcrt_getptd_noinit       0000000180038ec0 f   libvcruntimed:per_thread_data.obj
 0001:00037f20       __vcrt_initialize_ptd      0000000180038f20 f   libvcruntimed:per_thread_data.obj
 0001:00037f70       __vcrt_uninitialize_ptd    0000000180038f70 f   libvcruntimed:per_thread_data.obj
 0001:00037fa0       __vcrt_initialize_locks    0000000180038fa0 f   libvcruntimed:locks.obj
 0001:00038010       __vcrt_lock                0000000180039010 f   libvcruntimed:locks.obj
 0001:00038040       __vcrt_uninitialize_locks  0000000180039040 f   libvcruntimed:locks.obj
 0001:000380a0       __vcrt_unlock              00000001800390a0 f   libvcruntimed:locks.obj
 0001:000380e0       _NLG_Notify                00000001800390e0 f   libvcruntimed:notify.obj
 0001:00038100       __NLG_Dispatch2            0000000180039100 f   libvcruntimed:notify.obj
 0001:00038110       __NLG_Return2              0000000180039110 f   libvcruntimed:notify.obj
 0001:00038130       __except_validate_context_record 0000000180039130 f   libvcruntimed:jbcxrval.obj
 0001:00038190       __except_validate_jump_buffer 0000000180039190 f   libvcruntimed:jbcxrval.obj
 0001:000381b0       __except_validate_jump_buffer_common 00000001800391b0 f i libvcruntimed:jbcxrval.obj
 0001:00038230       ?GetCurrentState@__FrameHandler3@@SAHPEA_KPEAU_xDISPATCHER_CONTEXT@@PEBU_s_FuncInfo@@@Z 0000000180039230 f   libvcruntimed:ehstate.obj
 0001:00038290       ?GetUnwindTryBlock@__FrameHandler3@@SAHPEA_KPEAU_xDISPATCHER_CONTEXT@@PEBU_s_FuncInfo@@@Z 0000000180039290 f   libvcruntimed:ehstate.obj
 0001:000382e0       ?SetState@__FrameHandler3@@SAXPEA_KPEBU_s_FuncInfo@@H@Z 00000001800392e0 f   libvcruntimed:ehstate.obj
 0001:00038310       ?SetUnwindTryBlock@__FrameHandler3@@SAXPEA_KPEAU_xDISPATCHER_CONTEXT@@PEBU_s_FuncInfo@@H@Z 0000000180039310 f   libvcruntimed:ehstate.obj
 0001:00038380       ?StateFromControlPc@__FrameHandler3@@SAHPEBU_s_FuncInfo@@PEAU_xDISPATCHER_CONTEXT@@@Z 0000000180039380 f   libvcruntimed:ehstate.obj
 0001:000383c0       ?StateFromControlPc@__FrameHandler4@@SAHPEAUFuncInfo4@FH4@@PEAU_xDISPATCHER_CONTEXT@@@Z 00000001800393c0 f   libvcruntimed:ehstate.obj
 0001:00038400       ?StateFromIp@__FrameHandler3@@SAHPEBU_s_FuncInfo@@PEAU_xDISPATCHER_CONTEXT@@_K@Z 0000000180039400 f   libvcruntimed:ehstate.obj
 0001:000384f0       ?StateFromIp@__FrameHandler4@@SAHPEAUFuncInfo4@FH4@@PEAU_xDISPATCHER_CONTEXT@@_K@Z 00000001800394f0 f   libvcruntimed:ehstate.obj
 0001:000385e0       ?__FuncRelToRealOffset@@YA_KPEAU_xDISPATCHER_CONTEXT@@I@Z 00000001800395e0 f i libvcruntimed:ehstate.obj
 0001:00038610       ?__RVAtoRealOffset@@YA_KPEAU_xDISPATCHER_CONTEXT@@H@Z 0000000180039610 f i libvcruntimed:ehstate.obj
 0001:0003a870       ??$TypeMatchHelper@V__FrameHandler3@@@@YAHPEBU_s_HandlerType@@PEBU_s_CatchableType@@PEBU_s_ThrowInfo@@@Z 000000018003b870 f i libvcruntimed:frame.obj
 0001:0003aa70       ??$TypeMatchHelper@V__FrameHandler4@@@@YAHPEAUHandlerType4@FH4@@PEBU_s_CatchableType@@PEBU_s_ThrowInfo@@@Z 000000018003ba70 f i libvcruntimed:frame.obj
 0001:0003ac80       ??$__InternalCxxFrameHandler@V__FrameHandler3@@@@YA?AW4_EXCEPTION_DISPOSITION@@PEAUEHExceptionRecord@@PEA_KPEAU_CONTEXT@@PEAU_xDISPATCHER_CONTEXT@@PEBU_s_FuncInfo@@H1E@Z 000000018003bc80 f i libvcruntimed:frame.obj
 0001:0003b0f0       ??$__InternalCxxFrameHandler@V__FrameHandler4@@@@YA?AW4_EXCEPTION_DISPOSITION@@PEAUEHExceptionRecord@@PEA_KPEAU_CONTEXT@@PEAU_xDISPATCHER_CONTEXT@@PEAUFuncInfo4@FH4@@H1E@Z 000000018003c0f0 f i libvcruntimed:frame.obj
 0001:0003b580       ??0HandlerMap4@FH4@@QEAA@PEBUTryBlockMapEntry4@1@_KH@Z 000000018003c580 f i libvcruntimed:frame.obj
 0001:0003b640       ??0HandlerMap@__FrameHandler3@@QEAA@PEBU_s_TryBlockMapEntry@@_KI@Z 000000018003c640 f i libvcruntimed:frame.obj
 0001:0003b690       ??0HandlerType4@FH4@@QEAA@XZ 000000018003c690 f i libvcruntimed:frame.obj
 0001:0003b6b0       ??0TryBlockMap4@FH4@@QEAA@PEBUFuncInfo4@1@_K@Z 000000018003c6b0 f i libvcruntimed:frame.obj
 0001:0003b740       ??0TryBlockMap@__FrameHandler3@@QEAA@PEBU_s_FuncInfo@@_K@Z 000000018003c740 f i libvcruntimed:frame.obj
 0001:0003b770       ??0UWMap4@FH4@@QEAA@PEBUFuncInfo4@1@_K@Z 000000018003c770 f i libvcruntimed:frame.obj
 0001:0003b7e0       ??0bad_exception@std@@QEAA@AEBV01@@Z 000000018003c7e0 f i libvcruntimed:frame.obj
 0001:0003b820       ??0bad_exception@std@@QEAA@XZ 000000018003c820 f i libvcruntimed:frame.obj
 0001:0003b860       ??0iterator@HandlerMap4@FH4@@QEAA@AEAV12@I@Z 000000018003c860 f i libvcruntimed:frame.obj
 0001:0003b890       ??0iterator@HandlerMap@__FrameHandler3@@QEAA@AEAV12@I@Z 000000018003c890 f i libvcruntimed:frame.obj
 0001:0003b8c0       ??0iterator@UWMap4@FH4@@QEAA@AEAV12@PEAE@Z 000000018003c8c0 f i libvcruntimed:frame.obj
 0001:0003b8f0       ??1bad_exception@std@@UEAA@XZ 000000018003c8f0 f i libvcruntimed:frame.obj
 0001:0003b910       ??4iterator@UWMap4@FH4@@QEAAAEAV012@AEBV012@@Z 000000018003c910 f i libvcruntimed:frame.obj
 0001:0003b960       ??8iterator@HandlerMap4@FH4@@QEBA_NAEBV012@@Z 000000018003c960 f i libvcruntimed:frame.obj
 0001:0003b9a0       ??8iterator@HandlerMap@__FrameHandler3@@QEBA_NAEBV012@@Z 000000018003c9a0 f i libvcruntimed:frame.obj
 0001:0003b9e0       ??8type_info@@QEBA_NAEBV0@@Z 000000018003c9e0 f i libvcruntimed:frame.obj
 0001:0003ba30       ??9iterator@HandlerMap4@FH4@@QEBA_NAEBV012@@Z 000000018003ca30 f i libvcruntimed:frame.obj
 0001:0003ba70       ??9iterator@HandlerMap@__FrameHandler3@@QEBA_NAEBV012@@Z 000000018003ca70 f i libvcruntimed:frame.obj
 0001:0003bab0       ??Diterator@HandlerMap4@FH4@@QEAA?AUHandlerType4@2@XZ 000000018003cab0 f i libvcruntimed:frame.obj
 0001:0003bae0       ??Diterator@HandlerMap@__FrameHandler3@@QEAA?BU_s_HandlerType@@XZ 000000018003cae0 f i libvcruntimed:frame.obj
 0001:0003bb20       ??Diterator@TryBlockMap@__FrameHandler3@@QEAA?BU_s_TryBlockMapEntry@@XZ 000000018003cb20 f i libvcruntimed:frame.obj
 0001:0003bb70       ??Diterator@UWMap4@FH4@@QEAA?AUUnwindMapEntry4@2@XZ 000000018003cb70 f i libvcruntimed:frame.obj
 0001:0003bbf0       ??Eiterator@HandlerMap4@FH4@@QEAAAEAV012@XZ 000000018003cbf0 f i libvcruntimed:frame.obj
 0001:0003bc30       ??Eiterator@HandlerMap@__FrameHandler3@@QEAAAEAV012@XZ 000000018003cc30 f i libvcruntimed:frame.obj
 0001:0003bc50       ??Eiterator@TryBlockMap@__FrameHandler3@@QEAAAEAV012@XZ 000000018003cc50 f i libvcruntimed:frame.obj
 0001:0003bc70       ??Eiterator@UWMap4@FH4@@QEAAAEAV012@XZ 000000018003cc70 f i libvcruntimed:frame.obj
 0001:0003bcb0       ??Giterator@UWMap4@FH4@@QEBA_JAEBV012@@Z 000000018003ccb0 f i libvcruntimed:frame.obj
 0001:0003bcd0       ??Miterator@TryBlockMap4@FH4@@QEBA_NAEBV012@@Z 000000018003ccd0 f i libvcruntimed:frame.obj
 0001:0003bd10       ??Miterator@TryBlockMap@__FrameHandler3@@QEBA_NAEBV012@@Z 000000018003cd10 f i libvcruntimed:frame.obj
 0001:0003bd50       ??Oiterator@UWMap4@FH4@@QEBA_NAEBV012@@Z 000000018003cd50 f i libvcruntimed:frame.obj
 0001:0003bd90       ??Piterator@UWMap4@FH4@@QEBA_NAEBV012@@Z 000000018003cd90 f i libvcruntimed:frame.obj
 0001:0003bdd0       ??_Gbad_exception@std@@UEAAPEAXI@Z 000000018003cdd0 f i libvcruntimed:frame.obj
 0001:0003bdd0       ??_Ebad_exception@std@@UEAAPEAXI@Z 000000018003cdd0 f i libvcruntimed:frame.obj
 0001:0003be10       ?BuildCatchObject@__FrameHandler3@@SAXPEAUEHExceptionRecord@@PEAXPEBU_s_HandlerType@@PEBU_s_CatchableType@@@Z 000000018003ce10 f   libvcruntimed:frame.obj
 0001:0003be50       ?BuildCatchObject@__FrameHandler4@@SAXPEAUEHExceptionRecord@@PEAXPEAUHandlerType4@FH4@@PEBU_s_CatchableType@@@Z 000000018003ce50 f   libvcruntimed:frame.obj
 0001:0003be90       ?BuildCatchObjectHelper@__FrameHandler3@@SAHPEAUEHExceptionRecord@@PEAXPEBU_s_HandlerType@@PEBU_s_CatchableType@@@Z 000000018003ce90 f   libvcruntimed:frame.obj
 0001:0003bed0       ?BuildCatchObjectHelper@__FrameHandler4@@SAHPEAUEHExceptionRecord@@PEAXPEAUHandlerType4@FH4@@PEBU_s_CatchableType@@@Z 000000018003ced0 f   libvcruntimed:frame.obj
 0001:0003bf10       ?CxxCallCatchBlock@__FrameHandler3@@SAPEAXPEAU_EXCEPTION_RECORD@@@Z 000000018003cf10 f   libvcruntimed:frame.obj
 0001:0003c170       ?CxxCallCatchBlock@__FrameHandler4@@SAPEAXPEAU_EXCEPTION_RECORD@@@Z 000000018003d170 f   libvcruntimed:frame.obj
 0001:0003c4a0       ?DecompHandler@HandlerMap4@FH4@@AEAAXXZ 000000018003d4a0 f i libvcruntimed:frame.obj
 0001:0003c870       ?FrameUnwindToState@__FrameHandler3@@SAXPEA_KPEAU_xDISPATCHER_CONTEXT@@PEBU_s_FuncInfo@@H@Z 000000018003d870 f   libvcruntimed:frame.obj
 0001:0003cac0       ?FrameUnwindToState@__FrameHandler4@@SAXPEA_KPEAU_xDISPATCHER_CONTEXT@@PEAUFuncInfo4@FH4@@H@Z 000000018003dac0 f   libvcruntimed:frame.obj
 0001:0003cdd0       ?GetHandlerSearchState@__FrameHandler3@@SAHPEA_KPEAU_xDISPATCHER_CONTEXT@@PEBU_s_FuncInfo@@@Z 000000018003ddd0 f i libvcruntimed:frame.obj
 0001:0003ce80       ?GetHandlerSearchState@__FrameHandler4@@SAHPEA_KPEAU_xDISPATCHER_CONTEXT@@PEAUFuncInfo4@FH4@@@Z 000000018003de80 f i libvcruntimed:frame.obj
 0001:0003cf00       ?GetMaxState@__FrameHandler3@@SAHPEAU_xDISPATCHER_CONTEXT@@PEBU_s_FuncInfo@@@Z 000000018003df00 f i libvcruntimed:frame.obj
 0001:0003cf20       ?GetMaxState@__FrameHandler4@@SAHPEAU_xDISPATCHER_CONTEXT@@PEAUFuncInfo4@FH4@@@Z 000000018003df20 f i libvcruntimed:frame.obj
 0001:0003d150       ?ReadEntry@UWMap4@FH4@@AEAAXPEAPEAE@Z 000000018003e150 f i libvcruntimed:frame.obj
 0001:0003d200       ?TypeMatch@__FrameHandler3@@SAHPEBU_s_HandlerType@@PEBU_s_CatchableType@@PEBU_s_ThrowInfo@@@Z 000000018003e200 f   libvcruntimed:frame.obj
 0001:0003d230       ?TypeMatch@__FrameHandler4@@SAHPEAUHandlerType4@FH4@@PEBU_s_CatchableType@@PEBU_s_ThrowInfo@@@Z 000000018003e230 f   libvcruntimed:frame.obj
 0001:0003d260       ?WalkBack@UWMap4@FH4@@AEAAXPEAPEAE@Z 000000018003e260 f i libvcruntimed:frame.obj
 0001:0003d2b0       ?WalkBack@iterator@UWMap4@FH4@@QEAAXXZ 000000018003e2b0 f i libvcruntimed:frame.obj
 0001:0003d2f0       ?WalkForward@UWMap4@FH4@@AEAAXPEAPEAE@Z 000000018003e2f0 f i libvcruntimed:frame.obj
 0001:0003d320       ?_CallMemberFunction1@@YAXQEAX00@Z 000000018003e320 f i libvcruntimed:frame.obj
 0001:0003d360       ?_CallMemberFunction2@@YAXQEAX00H@Z 000000018003e360 f i libvcruntimed:frame.obj
 0001:0003d3f0       ?begin@HandlerMap4@FH4@@QEAA?AViterator@12@XZ 000000018003e3f0 f i libvcruntimed:frame.obj
 0001:0003d420       ?begin@HandlerMap@__FrameHandler3@@QEAA?AViterator@12@XZ 000000018003e420 f i libvcruntimed:frame.obj
 0001:0003d450       ?begin@UWMap4@FH4@@QEAA?AViterator@12@XZ 000000018003e450 f i libvcruntimed:frame.obj
 0001:0003d480       ?end@HandlerMap4@FH4@@QEAA?AViterator@12@XZ 000000018003e480 f i libvcruntimed:frame.obj
 0001:0003d4b0       ?end@HandlerMap@__FrameHandler3@@QEAA?AViterator@12@XZ 000000018003e4b0 f i libvcruntimed:frame.obj
 0001:0003d4e0       ?getESTypes@__FrameHandler3@@SAPEBU_s_ESTypeList@@PEBU_s_FuncInfo@@@Z 000000018003e4e0 f i libvcruntimed:frame.obj
 0001:0003d520       ?getESTypes@__FrameHandler4@@SAPEBU_s_ESTypeList@@PEAUFuncInfo4@FH4@@@Z 000000018003e520 f i libvcruntimed:frame.obj
 0001:0003d530       ?getLastEntry@HandlerMap4@FH4@@QEAAPEAUHandlerType4@2@XZ 000000018003e530 f i libvcruntimed:frame.obj
 0001:0003d570       ?getLastEntry@HandlerMap@__FrameHandler3@@QEAAPEBU_s_HandlerType@@XZ 000000018003e570 f i libvcruntimed:frame.obj
 0001:0003d590       ?getMagicNum@__FrameHandler3@@SAIPEBU_s_FuncInfo@@@Z 000000018003e590 f i libvcruntimed:frame.obj
 0001:0003d5b0       ?getMagicNum@__FrameHandler4@@SAIPEAUFuncInfo4@FH4@@@Z 000000018003e5b0 f i libvcruntimed:frame.obj
 0001:0003d5c0       ?getNumTryBlocks@TryBlockMap4@FH4@@QEAAIXZ 000000018003e5c0 f i libvcruntimed:frame.obj
 0001:0003d5d0       ?getNumTryBlocks@TryBlockMap@__FrameHandler3@@QEAAIXZ 000000018003e5d0 f i libvcruntimed:frame.obj
 0001:0003d5f0       ?getStartStop@UWMap4@FH4@@QEAAXHHAEAViterator@12@0@Z 000000018003e5f0 f i libvcruntimed:frame.obj
 0001:0003d710       ?getStateFromIterators@UWMap4@FH4@@SAHAEBViterator@12@H0H0@Z 000000018003e710 f i libvcruntimed:frame.obj
 0001:0003d850       ?isEHs@__FrameHandler3@@SA_NPEBU_s_FuncInfo@@@Z 000000018003e850 f i libvcruntimed:frame.obj
 0001:0003d890       ?isEHs@__FrameHandler4@@SA_NPEAUFuncInfo4@FH4@@@Z 000000018003e890 f i libvcruntimed:frame.obj
 0001:0003d8b0       ?isNoExcept@__FrameHandler3@@SA_NPEBU_s_FuncInfo@@@Z 000000018003e8b0 f i libvcruntimed:frame.obj
 0001:0003d8f0       ?isNoExcept@__FrameHandler4@@SA_NPEAUFuncInfo4@FH4@@@Z 000000018003e8f0 f i libvcruntimed:frame.obj
 0001:0003d910       ?reset@HandlerType4@FH4@@QEAAXXZ 000000018003e910 f i libvcruntimed:frame.obj
 0001:0003d970       ?resetBuffer@HandlerMap4@FH4@@QEAAXXZ 000000018003e970 f i libvcruntimed:frame.obj
 0001:0003d990       ?setBuffer@HandlerMap4@FH4@@QEAAXI@Z 000000018003e990 f i libvcruntimed:frame.obj
 0001:0003d9f0       __BuildCatchObject         000000018003e9f0 f   libvcruntimed:frame.obj
 0001:0003da30       __BuildCatchObjectHelper   000000018003ea30 f   libvcruntimed:frame.obj
 0001:0003da70       __TypeMatch                000000018003ea70 f   libvcruntimed:frame.obj
 0001:0003daa0       __vcrt_EncodePointer       000000018003eaa0 f i libvcruntimed:frame.obj
 0001:0003dac0       ??$?0$00@DName@@QEAA@PEBDU?$StringLifeSelector@$00@@@Z 000000018003eac0 f i libvcruntimed:undname.obj
 0001:0003db30       ??$?0$00@pcharNode@@QEAA@PEBDHU?$StringLifeSelector@$00@@@Z 000000018003eb30 f i libvcruntimed:undname.obj
 0001:0003db90       ??$?0$01@DName@@QEAA@PEBDU?$StringLifeSelector@$01@@@Z 000000018003eb90 f i libvcruntimed:undname.obj
 0001:0003dc00       ??$?0$01@pcharNode@@QEAA@PEBDHU?$StringLifeSelector@$01@@@Z 000000018003ec00 f i libvcruntimed:undname.obj
 0001:0003dcb0       ??$?0$0A@@DName@@QEAA@PEBDU?$StringLifeSelector@$0A@@@@Z 000000018003ecb0 f i libvcruntimed:undname.obj
 0001:0003dd20       ??$?0$0A@@pcharNode@@QEAA@PEBDHU?$StringLifeSelector@$0A@@@@Z 000000018003ed20 f i libvcruntimed:undname.obj
 0001:0003ddd0       ??$?0_K$0A@@?$optional@_K@std@@QEAA@$$QEA_K@Z 000000018003edd0 f i libvcruntimed:undname.obj
 0001:0003de20       ??$?0_K@?$_Optional_construct_base@_K@std@@QEAA@Uin_place_t@1@$$QEA_K@Z 000000018003ee20 f i libvcruntimed:undname.obj
 0001:0003de50       ??$?0_K@?$_Optional_destruct_base@_K$00@std@@QEAA@Uin_place_t@1@$$QEA_K@Z 000000018003ee50 f i libvcruntimed:undname.obj
 0001:0003de90       ??$append@VDNameNode@@@DName@@AEAAXPEBVDNameNode@@@Z 000000018003ee90 f i libvcruntimed:undname.obj
 0001:0003df40       ??$append@VDNameStatusNode@@@DName@@AEAAXPEBVDNameStatusNode@@@Z 000000018003ef40 f i libvcruntimed:undname.obj
 0001:0003dff0       ??$append@VcharNode@@@DName@@AEAAXPEBVcharNode@@@Z 000000018003eff0 f i libvcruntimed:undname.obj
 0001:0003e0a0       ??$append@VpDNameNode@@@DName@@AEAAXPEBVpDNameNode@@@Z 000000018003f0a0 f i libvcruntimed:undname.obj
 0001:0003e150       ??$append@VpcharNode@@@DName@@AEAAXPEBVpcharNode@@@Z 000000018003f150 f i libvcruntimed:undname.obj
 0001:0003e200       ??$doPchar@$00@DName@@AEAAXPEBDH@Z 000000018003f200 f i libvcruntimed:undname.obj
 0001:0003e360       ??$doPchar@$01@DName@@AEAAXPEBDH@Z 000000018003f360 f i libvcruntimed:undname.obj
 0001:0003e4c0       ??$doPchar@$0A@@DName@@AEAAXPEBDH@Z 000000018003f4c0 f i libvcruntimed:undname.obj
 0001:0003e620       ??$forward@_K@std@@YA$$QEA_KAEA_K@Z 000000018003f620 f i libvcruntimed:undname.obj
 0001:0003e630       ??$size@D$04@std@@YA_KAEAY04$$CBD@Z 000000018003f630 f i libvcruntimed:undname.obj
 0001:0003e640       ??$size@D$0EB@@std@@YA_KAEAY0EB@$$CBD@Z 000000018003f640 f i libvcruntimed:undname.obj
 0001:0003e650       ??0?$_Optional_construct_base@_K@std@@QEAA@XZ 000000018003f650 f i libvcruntimed:undname.obj
 0001:0003e670       ??0?$_Optional_destruct_base@_K$00@std@@QEAA@XZ 000000018003f670 f i libvcruntimed:undname.obj
 0001:0003e6a0       ??0?$optional@_K@std@@QEAA@XZ 000000018003f6a0 f i libvcruntimed:undname.obj
 0001:0003e6c0       ??0Block@_HeapManager@@QEAA@XZ 000000018003f6c0 f i libvcruntimed:undname.obj
 0001:0003e6e0       ??0DName@@QEAA@AEAPEBDD@Z  000000018003f6e0 f   libvcruntimed:undname.obj
 0001:0003e8b0       ??0DName@@QEAA@AEBUStringLiteral@@@Z 000000018003f8b0 f   libvcruntimed:undname.obj
 0001:0003e910       ??0DName@@QEAA@AEBV0@@Z    000000018003f910 f i libvcruntimed:undname.obj
 0001:0003e940       ??0DName@@QEAA@D@Z         000000018003f940 f   libvcruntimed:undname.obj
 0001:0003e980       ??0DName@@QEAA@PEAV0@@Z    000000018003f980 f   libvcruntimed:undname.obj
 0001:0003ea60       ??0DName@@QEAA@W4DNameStatus@@@Z 000000018003fa60 f   libvcruntimed:undname.obj
 0001:0003eb10       ??0DName@@QEAA@XZ          000000018003fb10 f i libvcruntimed:undname.obj
 0001:0003eb40       ??0DName@@QEAA@_J@Z        000000018003fb40 f   libvcruntimed:undname.obj
 0001:0003ec50       ??0DName@@QEAA@_K@Z        000000018003fc50 f   libvcruntimed:undname.obj
 0001:0003ed20       ??0DNameNode@@IEAA@XZ      000000018003fd20 f i libvcruntimed:undname.obj
 0001:0003ed40       ??0Replicator@@QEAA@XZ     000000018003fd40 f i libvcruntimed:undname.obj
 0001:0003ed80       ??0UnDecorator@@QEAA@PEBDP6APEADJ@ZK@Z 000000018003fd80 f i libvcruntimed:undname.obj
 0001:0003ee30       ??0_Nontrivial_dummy_type@std@@QEAA@XZ 000000018003fe30 f i libvcruntimed:undname.obj
 0001:0003ee40       ??0charNode@@QEAA@D@Z      000000018003fe40 f i libvcruntimed:undname.obj
 0001:0003ee80       ??0pDNameNode@@QEAA@PEAVDName@@@Z 000000018003fe80 f   libvcruntimed:undname.obj
 0001:0003ef00       ??0pairNode@@QEAA@PEBVDNameNode@@0@Z 000000018003ff00 f i libvcruntimed:undname.obj
 0001:0003ef80       ??2@YAPEAX_KAEAV_HeapManager@@H@Z 000000018003ff80 f   libvcruntimed:undname.obj
 0001:0003efe0       ??4DName@@QEAAAEAV0@AEBUStringLiteral@@@Z 000000018003ffe0 f   libvcruntimed:undname.obj
 0001:0003f030       ??4DName@@QEAAAEAV0@AEBV0@@Z 0000000180040030 f   libvcruntimed:undname.obj
 0001:0003f060       ??4DName@@QEAAAEAV0@D@Z    0000000180040060 f i libvcruntimed:undname.obj
 0001:0003f0a0       ??4DName@@QEAAAEAV0@PEAV0@@Z 00000001800400a0 f   libvcruntimed:undname.obj
 0001:0003f170       ??4DName@@QEAAAEAV0@W4DNameStatus@@@Z 0000000180040170 f   libvcruntimed:undname.obj
 0001:0003f200       ??AReplicator@@QEBA?AVDName@@H@Z 0000000180040200 f   libvcruntimed:undname.obj
 0001:0003f290       ??B?$optional@_K@std@@QEBA_NXZ 0000000180040290 f i libvcruntimed:undname.obj
 0001:0003f2a0       ??D?$optional@_K@std@@QEGAAAEA_KXZ 00000001800402a0 f i libvcruntimed:undname.obj
 0001:0003f340       ??H@YA?AVDName@@AEBUStringLiteral@@AEBV0@@Z 0000000180040340 f i libvcruntimed:undname.obj
 0001:0003f390       ??H@YA?AVDName@@DAEBV0@@Z  0000000180040390 f i libvcruntimed:undname.obj
 0001:0003f3e0       ??H@YA?AVDName@@W4DNameStatus@@AEBV0@@Z 00000001800403e0 f i libvcruntimed:undname.obj
 0001:0003f430       ??HDName@@QEBA?AV0@AEBUStringLiteral@@@Z 0000000180040430 f   libvcruntimed:undname.obj
 0001:0003f480       ??HDName@@QEBA?AV0@AEBV0@@Z 0000000180040480 f   libvcruntimed:undname.obj
 0001:0003f4d0       ??HDName@@QEBA?AV0@D@Z     00000001800404d0 f   libvcruntimed:undname.obj
 0001:0003f520       ??HDName@@QEBA?AV0@PEAV0@@Z 0000000180040520 f   libvcruntimed:undname.obj
 0001:0003f570       ??HDName@@QEBA?AV0@W4DNameStatus@@@Z 0000000180040570 f   libvcruntimed:undname.obj
 0001:0003f5c0       ??HStringLiteral@@QEBA?AU0@H@Z 00000001800405c0 f i libvcruntimed:undname.obj
 0001:0003f600       ??YDName@@QEAAAEAV0@AEBUStringLiteral@@@Z 0000000180040600 f   libvcruntimed:undname.obj
 0001:0003f6d0       ??YDName@@QEAAAEAV0@AEBV0@@Z 00000001800406d0 f   libvcruntimed:undname.obj
 0001:0003f790       ??YDName@@QEAAAEAV0@D@Z    0000000180040790 f   libvcruntimed:undname.obj
 0001:0003f830       ??YDName@@QEAAAEAV0@PEAV0@@Z 0000000180040830 f   libvcruntimed:undname.obj
 0001:0003f910       ??YDName@@QEAAAEAV0@W4DNameStatus@@@Z 0000000180040910 f   libvcruntimed:undname.obj
 0001:0003f980       ??YReplicator@@QEAAAEAV0@AEBVDName@@@Z 0000000180040980 f   libvcruntimed:undname.obj
 0001:0003fa40       ??_5DName@@QEAAAEAV0@AEBV0@@Z 0000000180040a40 f   libvcruntimed:undname.obj
 0001:0003fab0       ??__K_l@@YA?AUStringLiteral@@PEBD_K@Z 0000000180040ab0 f i libvcruntimed:undname.obj
 0001:0003fb00       ?Constructor@_HeapManager@@QEAAXP6APEAX_K@ZP6AXPEAX@Z@Z 0000000180040b00 f i libvcruntimed:undname.obj
 0001:0003fb60       ?Destructor@_HeapManager@@QEAAXXZ 0000000180040b60 f i libvcruntimed:undname.obj
 0001:0003fc00       ?UScore@UnDecorator@@SA?AUStringLiteral@@W4Tokens@@@Z 0000000180040c00 f   libvcruntimed:undname.obj
 0001:0003fc90       ?composeDeclaration@UnDecorator@@CA?AVDName@@AEBV2@@Z 0000000180040c90 f i libvcruntimed:undname.obj
 0001:00042190       ?dbGetString@DName@@QEBAPEADXZ 0000000180043190 f   libvcruntimed:undname.obj
 0001:000421c0       ?doAccessSpecifiers@UnDecorator@@SAHXZ 00000001800431c0 f i libvcruntimed:undname.obj
 0001:000421f0       ?doAllocationLanguage@UnDecorator@@SAHXZ 00000001800431f0 f i libvcruntimed:undname.obj
 0001:00042220       ?doAllocationModel@UnDecorator@@SAHXZ 0000000180043220 f i libvcruntimed:undname.obj
 0001:00042250       ?doEcsu@UnDecorator@@SAHXZ 0000000180043250 f i libvcruntimed:undname.obj
 0001:00042280       ?doEllipsis@UnDecorator@@SAHXZ 0000000180043280 f i libvcruntimed:undname.obj
 0001:000422b0       ?doFunctionReturns@UnDecorator@@SAHXZ 00000001800432b0 f i libvcruntimed:undname.obj
 0001:000422e0       ?doMSKeywords@UnDecorator@@SAHXZ 00000001800432e0 f i libvcruntimed:undname.obj
 0001:00042310       ?doMemberTypes@UnDecorator@@SAHXZ 0000000180043310 f i libvcruntimed:undname.obj
 0001:00042340       ?doNameOnly@UnDecorator@@SAHXZ 0000000180043340 f i libvcruntimed:undname.obj
 0001:00042350       ?doNoIdentCharCheck@UnDecorator@@SAHXZ 0000000180043350 f i libvcruntimed:undname.obj
 0001:00042360       ?doPchar@DName@@AEAAXD@Z   0000000180043360 f   libvcruntimed:undname.obj
 0001:000423f0       ?doPtr64@UnDecorator@@SAHXZ 00000001800433f0 f i libvcruntimed:undname.obj
 0001:00042420       ?doRestrictionSpec@UnDecorator@@SAHXZ 0000000180043420 f i libvcruntimed:undname.obj
 0001:00042450       ?doThisTypes@UnDecorator@@SAHXZ 0000000180043450 f i libvcruntimed:undname.obj
 0001:00042480       ?doThrowTypes@UnDecorator@@SAHXZ 0000000180043480 f i libvcruntimed:undname.obj
 0001:000424b0       ?doTypeOnly@UnDecorator@@SAHXZ 00000001800434b0 f i libvcruntimed:undname.obj
 0001:000424c0       ?doUnderScore@UnDecorator@@SAHXZ 00000001800434c0 f i libvcruntimed:undname.obj
 0001:000424f0       ?getAddressOf@UnDecorator@@CA?AVDName@@XZ 00000001800434f0 f   libvcruntimed:undname.obj
 0001:00042590       ?getArgumentList@UnDecorator@@CA?AVDName@@XZ 0000000180043590 f   libvcruntimed:undname.obj
 0001:00042730       ?getArgumentTypes@UnDecorator@@CA?AVDName@@XZ 0000000180043730 f   libvcruntimed:undname.obj
 0001:00042a10       ?getArrayAccess@UnDecorator@@CA?AVDName@@XZ 0000000180043a10 f   libvcruntimed:undname.obj
 0001:00042ad0       ?getArrayObject@UnDecorator@@CA?AVDName@@XZ 0000000180043ad0 f   libvcruntimed:undname.obj
 0001:00042bf0       ?getArrayType@UnDecorator@@CA?AVDName@@AEBV2@@Z 0000000180043bf0 f i libvcruntimed:undname.obj
 0001:00042fb0       ?getBasedType@UnDecorator@@CA?AVDName@@XZ 0000000180043fb0 f   libvcruntimed:undname.obj
 0001:00043120       ?getBasicDataType@UnDecorator@@CA?AVDName@@AEBV2@@Z 0000000180044120 f   libvcruntimed:undname.obj
 0001:00043ec0       ?getCHPEName@UnDecorator@@QEAAPEADPEADH@Z 0000000180044ec0 f i libvcruntimed:undname.obj
 0001:00044090       ?getCallIndex@UnDecorator@@CA?AVDName@@XZ 0000000180045090 f i libvcruntimed:undname.obj
 0001:000440b0       ?getCallingConvention@UnDecorator@@CA?AVDName@@XZ 00000001800450b0 f   libvcruntimed:undname.obj
 0001:000444a0       ?getDataIndirectType@UnDecorator@@CA?AVDName@@AEBV2@W4IndirectionKind@@0H@Z 00000001800454a0 f   libvcruntimed:undname.obj
 0001:00045140       ?getDataIndirectType@UnDecorator@@CA?AVDName@@XZ 0000000180046140 f i libvcruntimed:undname.obj
 0001:00045190       ?getDataType@UnDecorator@@CA?AVDName@@PEAV2@@Z 0000000180046190 f   libvcruntimed:undname.obj
 0001:00045370       ?getDecoratedName@UnDecorator@@CA?AVDName@@XZ 0000000180046370 f   libvcruntimed:undname.obj
 0001:00045860       ?getDimension@UnDecorator@@CA?AVDName@@_N@Z 0000000180046860 f   libvcruntimed:undname.obj
 0001:00045b70       ?getDispatchTarget@UnDecorator@@CA?AVDName@@XZ 0000000180046b70 f   libvcruntimed:undname.obj
 0001:00045c40       ?getDisplacement@UnDecorator@@CA?AVDName@@XZ 0000000180046c40 f i libvcruntimed:undname.obj
 0001:00045c60       ?getECSUDataType@UnDecorator@@CA?AVDName@@XZ 0000000180046c60 f   libvcruntimed:undname.obj
 0001:00045ff0       ?getECSUName@UnDecorator@@CA?AVDName@@XZ 0000000180046ff0 f i libvcruntimed:undname.obj
 0001:00046010       ?getEnumType@UnDecorator@@CA?AVDName@@XZ 0000000180047010 f i libvcruntimed:undname.obj
 0001:000462a0       ?getExtendedDataIndirectType@UnDecorator@@CA?AVDName@@AEAW4IndirectionKind@@AEA_NH@Z 00000001800472a0 f   libvcruntimed:undname.obj
 0001:000465c0       ?getExternalDataType@UnDecorator@@CA?AVDName@@AEBV2@@Z 00000001800475c0 f i libvcruntimed:undname.obj
 0001:000466a0       ?getFloatingPoint@UnDecorator@@CA?AVDName@@H@Z 00000001800476a0 f   libvcruntimed:undname.obj
 0001:00046920       ?getFunctionIndirectType@UnDecorator@@CA?AVDName@@AEBV2@@Z 0000000180047920 f   libvcruntimed:undname.obj
 0001:00046f50       ?getGuardNumber@UnDecorator@@CA?AVDName@@XZ 0000000180047f50 f i libvcruntimed:undname.obj
 0001:00046f70       ?getLastChar@DName@@QEBADXZ 0000000180047f70 f i libvcruntimed:undname.obj
 0001:00046fc0       ?getLastChar@DNameStatusNode@@UEBADXZ 0000000180047fc0 f i libvcruntimed:undname.obj
 0001:00047000       ?getLastChar@charNode@@UEBADXZ 0000000180048000 f i libvcruntimed:undname.obj
 0001:00047010       ?getLastChar@pDNameNode@@UEBADXZ 0000000180048010 f i libvcruntimed:undname.obj
 0001:00047050       ?getLastChar@pairNode@@UEBADXZ 0000000180048050 f i libvcruntimed:undname.obj
 0001:000470d0       ?getLastChar@pcharNode@@UEBADXZ 00000001800480d0 f i libvcruntimed:undname.obj
 0001:00047110       ?getLexicalFrame@UnDecorator@@CA?AVDName@@XZ 0000000180048110 f i libvcruntimed:undname.obj
 0001:00047160       ?getMemberAccess@UnDecorator@@CA?AVDName@@XZ 0000000180048160 f   libvcruntimed:undname.obj
 0001:00047210       ?getMemoryWithBuffer@_HeapManager@@QEAAPEAX_K@Z 0000000180048210 f   libvcruntimed:undname.obj
 0001:00047360       ?getMemoryWithoutBuffer@_HeapManager@@QEAAPEAX_K@Z 0000000180048360 f   libvcruntimed:undname.obj
 0001:000473b0       ?getNoexcept@UnDecorator@@CA?AVDName@@XZ 00000001800483b0 f   libvcruntimed:undname.obj
 0001:00047460       ?getNumberOfDimensions@UnDecorator@@CAHXZ 0000000180048460 f   libvcruntimed:undname.obj
 0001:00047580       ?getOperatorName@UnDecorator@@CA?AVDName@@_NPEA_N@Z 0000000180048580 f i libvcruntimed:undname.obj
 0001:00048570       ?getPointerToMember@UnDecorator@@CA?AVDName@@XZ 0000000180049570 f   libvcruntimed:undname.obj
 0001:000486c0       ?getPointerType@UnDecorator@@CA?AVDName@@AEBV2@0@Z 00000001800496c0 f i libvcruntimed:undname.obj
 0001:00048700       ?getPointerTypeArray@UnDecorator@@CA?AVDName@@AEBV2@0@Z 0000000180049700 f i libvcruntimed:undname.obj
 0001:00048740       ?getPrimaryDataType@UnDecorator@@CA?AVDName@@AEBV2@@Z 0000000180049740 f   libvcruntimed:undname.obj
 0001:00048d70       ?getPtrRefDataType@UnDecorator@@CA?AVDName@@AEBV2@H@Z 0000000180049d70 f   libvcruntimed:undname.obj
 0001:00049160       ?getPtrRefType@UnDecorator@@CA?AVDName@@AEBV2@0W4IndirectionKind@@@Z 000000018004a160 f   libvcruntimed:undname.obj
 0001:000493a0       ?getReferenceType@UnDecorator@@CA?AVDName@@AEBV2@0W4IndirectionKind@@@Z 000000018004a3a0 f i libvcruntimed:undname.obj
 0001:000493e0       ?getRestrictionSpec@UnDecorator@@CA?AVDName@@XZ 000000018004a3e0 f   libvcruntimed:undname.obj
 0001:00049670       ?getReturnType@UnDecorator@@CA?AVDName@@PEAV2@@Z 000000018004a670 f   libvcruntimed:undname.obj
 0001:000496d0       ?getScope@UnDecorator@@CA?AVDName@@XZ 000000018004a6d0 f   libvcruntimed:undname.obj
 0001:00049e30       ?getScopedName@UnDecorator@@CA?AVDName@@XZ 000000018004ae30 f   libvcruntimed:undname.obj
 0001:0004a030       ?getSignedDimension@UnDecorator@@CA?AVDName@@XZ 000000018004b030 f   libvcruntimed:undname.obj
 0001:0004a0c0       ?getStorageConvention@UnDecorator@@CA?AVDName@@XZ 000000018004b0c0 f i libvcruntimed:undname.obj
 0001:0004a0e0       ?getString@DName@@QEBAPEADPEAD0@Z 000000018004b0e0 f i libvcruntimed:undname.obj
 0001:0004a160       ?getString@DName@@QEBAPEADPEADH@Z 000000018004b160 f i libvcruntimed:undname.obj
 0001:0004a220       ?getString@DNameStatusNode@@UEBAPEADPEAD0@Z 000000018004b220 f i libvcruntimed:undname.obj
 0001:0004a270       ?getString@charNode@@UEBAPEADPEAD0@Z 000000018004b270 f i libvcruntimed:undname.obj
 0001:0004a2b0       ?getString@pDNameNode@@UEBAPEADPEAD0@Z 000000018004b2b0 f i libvcruntimed:undname.obj
 0001:0004a310       ?getString@pairNode@@UEBAPEADPEAD0@Z 000000018004b310 f i libvcruntimed:undname.obj
 0001:0004a3e0       ?getString@pcharNode@@UEBAPEADPEAD0@Z 000000018004b3e0 f i libvcruntimed:undname.obj
 0001:0004a420       ?getStringEncoding@UnDecorator@@CA?AVDName@@W4PrefixKind@@H@Z 000000018004b420 f   libvcruntimed:undname.obj
 0001:0004a580       ?getStringHelper@@YAPEADPEADPEBD1H@Z 000000018004b580 f i libvcruntimed:undname.obj
 0001:0004a5f0       ?getStringObject@UnDecorator@@CA?AVDName@@XZ 000000018004b5f0 f   libvcruntimed:undname.obj
 0001:0004a6d0       ?getSymbolName@UnDecorator@@CA?AVDName@@XZ 000000018004b6d0 f i libvcruntimed:undname.obj
 0001:0004a770       ?getTemplateArgumentList@UnDecorator@@CA?AVDName@@XZ 000000018004b770 f   libvcruntimed:undname.obj
 0001:0004aab0       ?getTemplateName@UnDecorator@@CA?AVDName@@_N@Z 000000018004bab0 f   libvcruntimed:undname.obj
 0001:0004acf0       ?getTemplateNonTypeArgument@UnDecorator@@CA?AVDName@@XZ 000000018004bcf0 f   libvcruntimed:undname.obj
 0001:0004b590       ?getTemplateTypeArgument@UnDecorator@@CA?AVDName@@XZ 000000018004c590 f   libvcruntimed:undname.obj
 0001:0004b800       ?getThisType@UnDecorator@@CA?AVDName@@XZ 000000018004c800 f i libvcruntimed:undname.obj
 0001:0004b850       ?getThrowTypes@UnDecorator@@CA?AVDName@@XZ 000000018004c850 f   libvcruntimed:undname.obj
 0001:0004b8a0       ?getTypeEncoding@UnDecorator@@CAHXZ 000000018004c8a0 f i libvcruntimed:undname.obj
 0001:0004c500       ?getUndecoratedName@UnDecorator@@QEAAPEADPEADH@Z 000000018004d500 f i libvcruntimed:undname.obj
 0001:0004c6f0       ?getUnionObject@UnDecorator@@CA?AVDName@@XZ 000000018004d6f0 f   libvcruntimed:undname.obj
 0001:0004c800       ?getVCallThunkType@UnDecorator@@CA?AVDName@@XZ 000000018004d800 f i libvcruntimed:undname.obj
 0001:0004c8b0       ?getValue@UnDecorator@@CA?AV?$optional@_K@std@@XZ 000000018004d8b0 f   libvcruntimed:undname.obj
 0001:0004c980       ?getValueObject@UnDecorator@@CA?AVDName@@XZ 000000018004d980 f   libvcruntimed:undname.obj
 0001:0004cba0       ?getVbTableType@UnDecorator@@CA?AVDName@@AEBV2@@Z 000000018004dba0 f i libvcruntimed:undname.obj
 0001:0004cbd0       ?getVdispMapType@UnDecorator@@CA?AVDName@@AEBV2@@Z 000000018004dbd0 f i libvcruntimed:undname.obj
 0001:0004cc90       ?getVfTableType@UnDecorator@@CA?AVDName@@AEBV2@@Z 000000018004dc90 f i libvcruntimed:undname.obj
 0001:0004cf30       ?getZName@UnDecorator@@CA?AVDName@@_N0@Z 000000018004df30 f   libvcruntimed:undname.obj
 0001:0004d3a0       ?haveTemplateParameters@UnDecorator@@SAHXZ 000000018004e3a0 f i libvcruntimed:undname.obj
 0001:0004d3b0       ?isArray@DName@@QEBAHXZ    000000018004e3b0 f i libvcruntimed:undname.obj
 0001:0004d3d0       ?isComArray@DName@@QEBAHXZ 000000018004e3d0 f i libvcruntimed:undname.obj
 0001:0004d3f0       ?isEmpty@DName@@QEBAHXZ    000000018004e3f0 f i libvcruntimed:undname.obj
 0001:0004d420       ?isFull@Replicator@@QEBAHXZ 000000018004e420 f i libvcruntimed:undname.obj
 0001:0004d450       ?isNoTE@DName@@QEBAHXZ     000000018004e450 f i libvcruntimed:undname.obj
 0001:0004d470       ?isPinPtr@DName@@QEBAHXZ   000000018004e470 f i libvcruntimed:undname.obj
 0001:0004d490       ?isPtrRef@DName@@QEBAHXZ   000000018004e490 f i libvcruntimed:undname.obj
 0001:0004d4b0       ?isUDC@DName@@QEBAHXZ      000000018004e4b0 f i libvcruntimed:undname.obj
 0001:0004d500       ?isUDTThunk@DName@@QEBAHXZ 000000018004e500 f i libvcruntimed:undname.obj
 0001:0004d550       ?isVCallThunk@DName@@QEBAHXZ 000000018004e550 f i libvcruntimed:undname.obj
 0001:0004d570       ?isValid@DName@@QEBAHXZ    000000018004e570 f i libvcruntimed:undname.obj
 0001:0004d5b0       ?length@DName@@QEBAHXZ     000000018004e5b0 f i libvcruntimed:undname.obj
 0001:0004d600       ?length@DNameStatusNode@@UEBAHXZ 000000018004e600 f i libvcruntimed:undname.obj
 0001:0004d610       ?length@charNode@@UEBAHXZ  000000018004e610 f i libvcruntimed:undname.obj
 0001:0004d620       ?length@pDNameNode@@UEBAHXZ 000000018004e620 f i libvcruntimed:undname.obj
 0001:0004d660       ?length@pairNode@@UEBAHXZ  000000018004e660 f i libvcruntimed:undname.obj
 0001:0004d6f0       ?length@pcharNode@@UEBAHXZ 000000018004e6f0 f i libvcruntimed:undname.obj
 0001:0004d700       ?make@DNameStatusNode@@SAPEBV1@W4DNameStatus@@@Z 000000018004e700 f i libvcruntimed:undname.obj
 0001:0004d750       ?parseDecoratedName@UnDecorator@@CA?AVDName@@XZ 000000018004e750 f   libvcruntimed:undname.obj
 0001:0004d940       ?raw_length@DNameStatusNode@@UEBAHXZ 000000018004e940 f i libvcruntimed:undname.obj
 0001:0004d960       ?raw_length@charNode@@UEBAHXZ 000000018004e960 f i libvcruntimed:undname.obj
 0001:0004d980       ?raw_length@pDNameNode@@UEBAHXZ 000000018004e980 f i libvcruntimed:undname.obj
 0001:0004d990       ?raw_length@pairNode@@UEBAHXZ 000000018004e990 f i libvcruntimed:undname.obj
 0001:0004d9a0       ?raw_length@pcharNode@@UEBAHXZ 000000018004e9a0 f i libvcruntimed:undname.obj
 0001:0004d9c0       ?setIsArray@DName@@QEAAXXZ 000000018004e9c0 f i libvcruntimed:undname.obj
 0001:0004d9e0       ?setIsComArray@DName@@QEAAXXZ 000000018004e9e0 f i libvcruntimed:undname.obj
 0001:0004da00       ?setIsNoTE@DName@@QEAAXXZ  000000018004ea00 f i libvcruntimed:undname.obj
 0001:0004da20       ?setIsPinPtr@DName@@QEAAXXZ 000000018004ea20 f i libvcruntimed:undname.obj
 0001:0004da40       ?setIsUDC@DName@@QEAAXXZ   000000018004ea40 f i libvcruntimed:undname.obj
 0001:0004da70       ?setIsVCallThunk@DName@@QEAAXXZ 000000018004ea70 f i libvcruntimed:undname.obj
 0001:0004da90       ?setPtrRef@DName@@QEAAAEAV1@XZ 000000018004ea90 f i libvcruntimed:undname.obj
 0001:0004dab0       ?status@DName@@QEBA?AW4DNameStatus@@XZ 000000018004eab0 f i libvcruntimed:undname.obj
 0001:0004dbe0       __unDName                  000000018004ebe0 f   libvcruntimed:undname.obj
 0001:0004dc40       __unDNameEx                000000018004ec40 f   libvcruntimed:undname.obj
 0001:0004dd00       unDNameGenerateCHPE        000000018004ed00 f   libvcruntimed:undname.obj
 0001:0004ddb0       ??$__crt_interlocked_exchange_pointer@UHINSTANCE__@@PEAU1@@@YAPEAUHINSTANCE__@@PEDSEAU0@QEAU0@@Z 000000018004edb0 f i libvcruntimed:winapi_downlevel.obj
 0001:0004ddd0       ??$__crt_interlocked_exchange_pointer@UHINSTANCE__@@PEAX@@YAPEAUHINSTANCE__@@PEDSEAU0@QEAX@Z 000000018004edd0 f i libvcruntimed:winapi_downlevel.obj
 0001:0004ddf0       ??$__crt_interlocked_exchange_pointer@XPEAX@@YAPEAXPEDSEAXQEAX@Z 000000018004edf0 f i libvcruntimed:winapi_downlevel.obj
 0001:0004de10       ??$__crt_interlocked_read_pointer@UHINSTANCE__@@@@YAPEAUHINSTANCE__@@PEDSEAU0@@Z 000000018004ee10 f i libvcruntimed:winapi_downlevel.obj
 0001:0004de30       ??$__crt_interlocked_read_pointer@X@@YAPEAXPEDSEAX@Z 000000018004ee30 f i libvcruntimed:winapi_downlevel.obj
 0001:0004e340       __vcrt_FlsAlloc            000000018004f340 f   libvcruntimed:winapi_downlevel.obj
 0001:0004e390       __vcrt_FlsFree             000000018004f390 f   libvcruntimed:winapi_downlevel.obj
 0001:0004e3e0       __vcrt_FlsGetValue         000000018004f3e0 f   libvcruntimed:winapi_downlevel.obj
 0001:0004e430       __vcrt_FlsSetValue         000000018004f430 f   libvcruntimed:winapi_downlevel.obj
 0001:0004e490       __vcrt_InitializeCriticalSectionEx 000000018004f490 f   libvcruntimed:winapi_downlevel.obj
 0001:0004e510       _CallSettingFrame          000000018004f510 f   libvcruntimed:handlers.obj
 0001:0004e560       _CallSettingFrame_LookupContinuationIndex 000000018004f560 f   libvcruntimed:handlers.obj
 0001:0004e590       _CallSettingFrame_NotifyContinuationAddr 000000018004f590 f   libvcruntimed:handlers.obj
 0001:0004e5c0       _CallSettingFrameEncoded   000000018004f5c0 f   libvcruntimed:handlers.obj
 0001:0004e610       ??$?0AEBV?$stream_output_adapter@D@__crt_stdio_output@@AEB_KAEBQEBDAEAV__crt_cached_ptd_host@@AEBQEAD@?$format_validation_base@DV?$stream_output_adapter@D@__crt_stdio_output@@@__crt_stdio_output@@IEAA@AEBV?$stream_output_adapter@D@1@AEB_KAEBQEBDAEAV__crt_cached_ptd_host@@AEBQEAD@Z 000000018004f610 f i libucrtd:output.obj
 0001:0004e660       ??$?0AEBV?$stream_output_adapter@D@__crt_stdio_output@@AEB_KAEBQEBDAEAV__crt_cached_ptd_host@@AEBQEAD@?$positional_parameter_base@DV?$stream_output_adapter@D@__crt_stdio_output@@@__crt_stdio_output@@IEAA@AEBV?$stream_output_adapter@D@1@AEB_KAEBQEBDAEAV__crt_cached_ptd_host@@AEBQEAD@Z 000000018004f660 f i libucrtd:output.obj
 0001:0004e700       ??$?0AEBV?$stream_output_adapter@D@__crt_stdio_output@@AEB_KAEBQEBDAEAV__crt_cached_ptd_host@@AEBQEAD@?$standard_base@DV?$stream_output_adapter@D@__crt_stdio_output@@@__crt_stdio_output@@IEAA@AEBV?$stream_output_adapter@D@1@AEB_KAEBQEBDAEAV__crt_cached_ptd_host@@AEBQEAD@Z 000000018004f700 f i libucrtd:output.obj
 0001:0004e770       ??$?0AEBV?$stream_output_adapter@_W@__crt_stdio_output@@AEB_KAEBQEB_WAEAV__crt_cached_ptd_host@@AEBQEAD@?$format_validation_base@_WV?$stream_output_adapter@_W@__crt_stdio_output@@@__crt_stdio_output@@IEAA@AEBV?$stream_output_adapter@_W@1@AEB_KAEBQEB_WAEAV__crt_cached_ptd_host@@AEBQEAD@Z 000000018004f770 f i libucrtd:output.obj
 0001:0004e7c0       ??$?0AEBV?$stream_output_adapter@_W@__crt_stdio_output@@AEB_KAEBQEB_WAEAV__crt_cached_ptd_host@@AEBQEAD@?$positional_parameter_base@_WV?$stream_output_adapter@_W@__crt_stdio_output@@@__crt_stdio_output@@IEAA@AEBV?$stream_output_adapter@_W@1@AEB_KAEBQEB_WAEAV__crt_cached_ptd_host@@AEBQEAD@Z 000000018004f7c0 f i libucrtd:output.obj
 0001:0004e860       ??$?0AEBV?$stream_output_adapter@_W@__crt_stdio_output@@AEB_KAEBQEB_WAEAV__crt_cached_ptd_host@@AEBQEAD@?$standard_base@_WV?$stream_output_adapter@_W@__crt_stdio_output@@@__crt_stdio_output@@IEAA@AEBV?$stream_output_adapter@_W@1@AEB_KAEBQEB_WAEAV__crt_cached_ptd_host@@AEBQEAD@Z 000000018004f860 f i libucrtd:output.obj
 0001:0004e8d0       ??$?0AEBV?$string_output_adapter@D@__crt_stdio_output@@AEB_KAEBQEBDAEAV__crt_cached_ptd_host@@AEBQEAD@?$format_validation_base@DV?$string_output_adapter@D@__crt_stdio_output@@@__crt_stdio_output@@IEAA@AEBV?$string_output_adapter@D@1@AEB_KAEBQEBDAEAV__crt_cached_ptd_host@@AEBQEAD@Z 000000018004f8d0 f i libucrtd:output.obj
 0001:0004e920       ??$?0AEBV?$string_output_adapter@D@__crt_stdio_output@@AEB_KAEBQEBDAEAV__crt_cached_ptd_host@@AEBQEAD@?$positional_parameter_base@DV?$string_output_adapter@D@__crt_stdio_output@@@__crt_stdio_output@@IEAA@AEBV?$string_output_adapter@D@1@AEB_KAEBQEBDAEAV__crt_cached_ptd_host@@AEBQEAD@Z 000000018004f920 f i libucrtd:output.obj
 0001:0004e9c0       ??$?0AEBV?$string_output_adapter@D@__crt_stdio_output@@AEB_KAEBQEBDAEAV__crt_cached_ptd_host@@AEBQEAD@?$standard_base@DV?$string_output_adapter@D@__crt_stdio_output@@@__crt_stdio_output@@IEAA@AEBV?$string_output_adapter@D@1@AEB_KAEBQEBDAEAV__crt_cached_ptd_host@@AEBQEAD@Z 000000018004f9c0 f i libucrtd:output.obj
 0001:0004ea30       ??$?0AEBV?$string_output_adapter@_W@__crt_stdio_output@@AEB_KAEBQEB_WAEAV__crt_cached_ptd_host@@AEBQEAD@?$format_validation_base@_WV?$string_output_adapter@_W@__crt_stdio_output@@@__crt_stdio_output@@IEAA@AEBV?$string_output_adapter@_W@1@AEB_KAEBQEB_WAEAV__crt_cached_ptd_host@@AEBQEAD@Z 000000018004fa30 f i libucrtd:output.obj
 0001:0004ea80       ??$?0AEBV?$string_output_adapter@_W@__crt_stdio_output@@AEB_KAEBQEB_WAEAV__crt_cached_ptd_host@@AEBQEAD@?$positional_parameter_base@_WV?$string_output_adapter@_W@__crt_stdio_output@@@__crt_stdio_output@@IEAA@AEBV?$string_output_adapter@_W@1@AEB_KAEBQEB_WAEAV__crt_cached_ptd_host@@AEBQEAD@Z 000000018004fa80 f i libucrtd:output.obj
 0001:0004eb20       ??$?0AEBV?$string_output_adapter@_W@__crt_stdio_output@@AEB_KAEBQEB_WAEAV__crt_cached_ptd_host@@AEBQEAD@?$standard_base@_WV?$string_output_adapter@_W@__crt_stdio_output@@@__crt_stdio_output@@IEAA@AEBV?$string_output_adapter@_W@1@AEB_KAEBQEB_WAEAV__crt_cached_ptd_host@@AEBQEAD@Z 000000018004fb20 f i libucrtd:output.obj
 0001:0004efb0       ??$__crt_interlocked_read@J@@YAJPEDJ@Z 000000018004ffb0 f i libucrtd:output.obj
 0001:0004efd0       ??$_tcstol_internal@DPEAPEAD$0A@@@YAJAEAV__crt_cached_ptd_host@@QEBDQEAPEADH@Z 000000018004ffd0 f i libucrtd:output.obj
 0001:0004f020       ??$_tcstol_internal@_WPEAPEA_W$0A@@@YAJAEAV__crt_cached_ptd_host@@QEB_WQEAPEA_WH@Z 0000000180050020 f i libucrtd:output.obj
 0001:00053040       ??$count@D@formatting_buffer@__crt_stdio_output@@QEBA_KXZ 0000000180054040 f i libucrtd:output.obj
 0001:00053090       ??$count@_W@formatting_buffer@__crt_stdio_output@@QEBA_KXZ 0000000180054090 f i libucrtd:output.obj
 0001:000530e0       ??$data@D@formatting_buffer@__crt_stdio_output@@QEAAPEADXZ 00000001800540e0 f i libucrtd:output.obj
 0001:00053130       ??$data@_W@formatting_buffer@__crt_stdio_output@@QEAAPEA_WXZ 0000000180054130 f i libucrtd:output.obj
 0001:00053180       ??$ensure_buffer_is_big_enough@D@formatting_buffer@__crt_stdio_output@@QEAA_N_KAEAV__crt_cached_ptd_host@@@Z 0000000180054180 f i libucrtd:output.obj
 0001:000532c0       ??$ensure_buffer_is_big_enough@_W@formatting_buffer@__crt_stdio_output@@QEAA_N_KAEAV__crt_cached_ptd_host@@@Z 00000001800542c0 f i libucrtd:output.obj
 0001:00053400       ??$extract_argument_from_va_list@C_J@?$positional_parameter_base@DV?$stream_output_adapter@D@__crt_stdio_output@@@__crt_stdio_output@@IEAA_NAEA_J@Z 0000000180054400 f i libucrtd:output.obj
 0001:000535c0       ??$extract_argument_from_va_list@C_J@?$positional_parameter_base@DV?$string_output_adapter@D@__crt_stdio_output@@@__crt_stdio_output@@IEAA_NAEA_J@Z 00000001800545c0 f i libucrtd:output.obj
 0001:00053780       ??$extract_argument_from_va_list@C_J@?$positional_parameter_base@_WV?$stream_output_adapter@_W@__crt_stdio_output@@@__crt_stdio_output@@IEAA_NAEA_J@Z 0000000180054780 f i libucrtd:output.obj
 0001:00053940       ??$extract_argument_from_va_list@C_J@?$positional_parameter_base@_WV?$string_output_adapter@_W@__crt_stdio_output@@@__crt_stdio_output@@IEAA_NAEA_J@Z 0000000180054940 f i libucrtd:output.obj
 0001:00053b00       ??$extract_argument_from_va_list@C_J@?$standard_base@DV?$stream_output_adapter@D@__crt_stdio_output@@@__crt_stdio_output@@IEAA_NAEA_J@Z 0000000180054b00 f i libucrtd:output.obj
 0001:00053b40       ??$extract_argument_from_va_list@C_J@?$standard_base@DV?$string_output_adapter@D@__crt_stdio_output@@@__crt_stdio_output@@IEAA_NAEA_J@Z 0000000180054b40 f i libucrtd:output.obj
 0001:00053b80       ??$extract_argument_from_va_list@C_J@?$standard_base@_WV?$stream_output_adapter@_W@__crt_stdio_output@@@__crt_stdio_output@@IEAA_NAEA_J@Z 0000000180054b80 f i libucrtd:output.obj
 0001:00053bc0       ??$extract_argument_from_va_list@C_J@?$standard_base@_WV?$string_output_adapter@_W@__crt_stdio_output@@@__crt_stdio_output@@IEAA_NAEA_J@Z 0000000180054bc0 f i libucrtd:output.obj
 0001:00053c00       ??$extract_argument_from_va_list@E_J@?$positional_parameter_base@DV?$stream_output_adapter@D@__crt_stdio_output@@@__crt_stdio_output@@IEAA_NAEA_J@Z 0000000180054c00 f i libucrtd:output.obj
 0001:00053dc0       ??$extract_argument_from_va_list@E_J@?$positional_parameter_base@DV?$string_output_adapter@D@__crt_stdio_output@@@__crt_stdio_output@@IEAA_NAEA_J@Z 0000000180054dc0 f i libucrtd:output.obj
 0001:00053f80       ??$extract_argument_from_va_list@E_J@?$positional_parameter_base@_WV?$stream_output_adapter@_W@__crt_stdio_output@@@__crt_stdio_output@@IEAA_NAEA_J@Z 0000000180054f80 f i libucrtd:output.obj
 0001:00054140       ??$extract_argument_from_va_list@E_J@?$positional_parameter_base@_WV?$string_output_adapter@_W@__crt_stdio_output@@@__crt_stdio_output@@IEAA_NAEA_J@Z 0000000180055140 f i libucrtd:output.obj
 0001:00054300       ??$extract_argument_from_va_list@E_J@?$standard_base@DV?$stream_output_adapter@D@__crt_stdio_output@@@__crt_stdio_output@@IEAA_NAEA_J@Z 0000000180055300 f i libucrtd:output.obj
 0001:00054340       ??$extract_argument_from_va_list@E_J@?$standard_base@DV?$string_output_adapter@D@__crt_stdio_output@@@__crt_stdio_output@@IEAA_NAEA_J@Z 0000000180055340 f i libucrtd:output.obj
 0001:00054380       ??$extract_argument_from_va_list@E_J@?$standard_base@_WV?$stream_output_adapter@_W@__crt_stdio_output@@@__crt_stdio_output@@IEAA_NAEA_J@Z 0000000180055380 f i libucrtd:output.obj
 0001:000543c0       ??$extract_argument_from_va_list@E_J@?$standard_base@_WV?$string_output_adapter@_W@__crt_stdio_output@@@__crt_stdio_output@@IEAA_NAEA_J@Z 00000001800553c0 f i libucrtd:output.obj
 0001:00054400       ??$extract_argument_from_va_list@F_J@?$positional_parameter_base@DV?$stream_output_adapter@D@__crt_stdio_output@@@__crt_stdio_output@@IEAA_NAEA_J@Z 0000000180055400 f i libucrtd:output.obj
 0001:000545c0       ??$extract_argument_from_va_list@F_J@?$positional_parameter_base@DV?$string_output_adapter@D@__crt_stdio_output@@@__crt_stdio_output@@IEAA_NAEA_J@Z 00000001800555c0 f i libucrtd:output.obj
 0001:00054780       ??$extract_argument_from_va_list@F_J@?$positional_parameter_base@_WV?$stream_output_adapter@_W@__crt_stdio_output@@@__crt_stdio_output@@IEAA_NAEA_J@Z 0000000180055780 f i libucrtd:output.obj
 0001:00054940       ??$extract_argument_from_va_list@F_J@?$positional_parameter_base@_WV?$string_output_adapter@_W@__crt_stdio_output@@@__crt_stdio_output@@IEAA_NAEA_J@Z 0000000180055940 f i libucrtd:output.obj
 0001:00054b00       ??$extract_argument_from_va_list@F_J@?$standard_base@DV?$stream_output_adapter@D@__crt_stdio_output@@@__crt_stdio_output@@IEAA_NAEA_J@Z 0000000180055b00 f i libucrtd:output.obj
 0001:00054b40       ??$extract_argument_from_va_list@F_J@?$standard_base@DV?$string_output_adapter@D@__crt_stdio_output@@@__crt_stdio_output@@IEAA_NAEA_J@Z 0000000180055b40 f i libucrtd:output.obj
 0001:00054b80       ??$extract_argument_from_va_list@F_J@?$standard_base@_WV?$stream_output_adapter@_W@__crt_stdio_output@@@__crt_stdio_output@@IEAA_NAEA_J@Z 0000000180055b80 f i libucrtd:output.obj
 0001:00054bc0       ??$extract_argument_from_va_list@F_J@?$standard_base@_WV?$string_output_adapter@_W@__crt_stdio_output@@@__crt_stdio_output@@IEAA_NAEA_J@Z 0000000180055bc0 f i libucrtd:output.obj
 0001:00054c00       ??$extract_argument_from_va_list@GD@?$positional_parameter_base@DV?$stream_output_adapter@D@__crt_stdio_output@@@__crt_stdio_output@@IEAA_NAEAD@Z 0000000180055c00 f i libucrtd:output.obj
 0001:00054dc0       ??$extract_argument_from_va_list@GD@?$positional_parameter_base@DV?$string_output_adapter@D@__crt_stdio_output@@@__crt_stdio_output@@IEAA_NAEAD@Z 0000000180055dc0 f i libucrtd:output.obj
 0001:00054f80       ??$extract_argument_from_va_list@GD@?$standard_base@DV?$stream_output_adapter@D@__crt_stdio_output@@@__crt_stdio_output@@IEAA_NAEAD@Z 0000000180055f80 f i libucrtd:output.obj
 0001:00054fb0       ??$extract_argument_from_va_list@GD@?$standard_base@DV?$string_output_adapter@D@__crt_stdio_output@@@__crt_stdio_output@@IEAA_NAEAD@Z 0000000180055fb0 f i libucrtd:output.obj
 0001:00054fe0       ??$extract_argument_from_va_list@G_J@?$positional_parameter_base@DV?$stream_output_adapter@D@__crt_stdio_output@@@__crt_stdio_output@@IEAA_NAEA_J@Z 0000000180055fe0 f i libucrtd:output.obj
 0001:000551a0       ??$extract_argument_from_va_list@G_J@?$positional_parameter_base@DV?$string_output_adapter@D@__crt_stdio_output@@@__crt_stdio_output@@IEAA_NAEA_J@Z 00000001800561a0 f i libucrtd:output.obj
 0001:00055360       ??$extract_argument_from_va_list@G_J@?$positional_parameter_base@_WV?$stream_output_adapter@_W@__crt_stdio_output@@@__crt_stdio_output@@IEAA_NAEA_J@Z 0000000180056360 f i libucrtd:output.obj
 0001:00055520       ??$extract_argument_from_va_list@G_J@?$positional_parameter_base@_WV?$string_output_adapter@_W@__crt_stdio_output@@@__crt_stdio_output@@IEAA_NAEA_J@Z 0000000180056520 f i libucrtd:output.obj
 0001:000556e0       ??$extract_argument_from_va_list@G_J@?$standard_base@DV?$stream_output_adapter@D@__crt_stdio_output@@@__crt_stdio_output@@IEAA_NAEA_J@Z 00000001800566e0 f i libucrtd:output.obj
 0001:00055720       ??$extract_argument_from_va_list@G_J@?$standard_base@DV?$string_output_adapter@D@__crt_stdio_output@@@__crt_stdio_output@@IEAA_NAEA_J@Z 0000000180056720 f i libucrtd:output.obj
 0001:00055760       ??$extract_argument_from_va_list@G_J@?$standard_base@_WV?$stream_output_adapter@_W@__crt_stdio_output@@@__crt_stdio_output@@IEAA_NAEA_J@Z 0000000180056760 f i libucrtd:output.obj
 0001:000557a0       ??$extract_argument_from_va_list@G_J@?$standard_base@_WV?$string_output_adapter@_W@__crt_stdio_output@@@__crt_stdio_output@@IEAA_NAEA_J@Z 00000001800567a0 f i libucrtd:output.obj
 0001:000557e0       ??$extract_argument_from_va_list@H_J@?$positional_parameter_base@DV?$stream_output_adapter@D@__crt_stdio_output@@@__crt_stdio_output@@IEAA_NAEA_J@Z 00000001800567e0 f i libucrtd:output.obj
 0001:000559a0       ??$extract_argument_from_va_list@H_J@?$positional_parameter_base@DV?$string_output_adapter@D@__crt_stdio_output@@@__crt_stdio_output@@IEAA_NAEA_J@Z 00000001800569a0 f i libucrtd:output.obj
 0001:00055b60       ??$extract_argument_from_va_list@H_J@?$positional_parameter_base@_WV?$stream_output_adapter@_W@__crt_stdio_output@@@__crt_stdio_output@@IEAA_NAEA_J@Z 0000000180056b60 f i libucrtd:output.obj
 0001:00055d20       ??$extract_argument_from_va_list@H_J@?$positional_parameter_base@_WV?$string_output_adapter@_W@__crt_stdio_output@@@__crt_stdio_output@@IEAA_NAEA_J@Z 0000000180056d20 f i libucrtd:output.obj
 0001:00055ee0       ??$extract_argument_from_va_list@H_J@?$standard_base@DV?$stream_output_adapter@D@__crt_stdio_output@@@__crt_stdio_output@@IEAA_NAEA_J@Z 0000000180056ee0 f i libucrtd:output.obj
 0001:00055f10       ??$extract_argument_from_va_list@H_J@?$standard_base@DV?$string_output_adapter@D@__crt_stdio_output@@@__crt_stdio_output@@IEAA_NAEA_J@Z 0000000180056f10 f i libucrtd:output.obj
 0001:00055f40       ??$extract_argument_from_va_list@H_J@?$standard_base@_WV?$stream_output_adapter@_W@__crt_stdio_output@@@__crt_stdio_output@@IEAA_NAEA_J@Z 0000000180056f40 f i libucrtd:output.obj
 0001:00055f70       ??$extract_argument_from_va_list@H_J@?$standard_base@_WV?$string_output_adapter@_W@__crt_stdio_output@@@__crt_stdio_output@@IEAA_NAEA_J@Z 0000000180056f70 f i libucrtd:output.obj
 0001:00055fa0       ??$extract_argument_from_va_list@I_J@?$positional_parameter_base@DV?$stream_output_adapter@D@__crt_stdio_output@@@__crt_stdio_output@@IEAA_NAEA_J@Z 0000000180056fa0 f i libucrtd:output.obj
 0001:00056160       ??$extract_argument_from_va_list@I_J@?$positional_parameter_base@DV?$string_output_adapter@D@__crt_stdio_output@@@__crt_stdio_output@@IEAA_NAEA_J@Z 0000000180057160 f i libucrtd:output.obj
 0001:00056320       ??$extract_argument_from_va_list@I_J@?$positional_parameter_base@_WV?$stream_output_adapter@_W@__crt_stdio_output@@@__crt_stdio_output@@IEAA_NAEA_J@Z 0000000180057320 f i libucrtd:output.obj
 0001:000564e0       ??$extract_argument_from_va_list@I_J@?$positional_parameter_base@_WV?$string_output_adapter@_W@__crt_stdio_output@@@__crt_stdio_output@@IEAA_NAEA_J@Z 00000001800574e0 f i libucrtd:output.obj
 0001:000566a0       ??$extract_argument_from_va_list@I_J@?$standard_base@DV?$stream_output_adapter@D@__crt_stdio_output@@@__crt_stdio_output@@IEAA_NAEA_J@Z 00000001800576a0 f i libucrtd:output.obj
 0001:000566d0       ??$extract_argument_from_va_list@I_J@?$standard_base@DV?$string_output_adapter@D@__crt_stdio_output@@@__crt_stdio_output@@IEAA_NAEA_J@Z 00000001800576d0 f i libucrtd:output.obj
 0001:00056700       ??$extract_argument_from_va_list@I_J@?$standard_base@_WV?$stream_output_adapter@_W@__crt_stdio_output@@@__crt_stdio_output@@IEAA_NAEA_J@Z 0000000180057700 f i libucrtd:output.obj
 0001:00056730       ??$extract_argument_from_va_list@I_J@?$standard_base@_WV?$string_output_adapter@_W@__crt_stdio_output@@@__crt_stdio_output@@IEAA_NAEA_J@Z 0000000180057730 f i libucrtd:output.obj
 0001:00056760       ??$extract_argument_from_va_list@PEADPEAD@?$positional_parameter_base@DV?$stream_output_adapter@D@__crt_stdio_output@@@__crt_stdio_output@@IEAA_NAEAPEAD@Z 0000000180057760 f i libucrtd:output.obj
 0001:00056920       ??$extract_argument_from_va_list@PEADPEAD@?$positional_parameter_base@DV?$string_output_adapter@D@__crt_stdio_output@@@__crt_stdio_output@@IEAA_NAEAPEAD@Z 0000000180057920 f i libucrtd:output.obj
 0001:00056ae0       ??$extract_argument_from_va_list@PEADPEAD@?$positional_parameter_base@_WV?$stream_output_adapter@_W@__crt_stdio_output@@@__crt_stdio_output@@IEAA_NAEAPEAD@Z 0000000180057ae0 f i libucrtd:output.obj
 0001:00056ca0       ??$extract_argument_from_va_list@PEADPEAD@?$positional_parameter_base@_WV?$string_output_adapter@_W@__crt_stdio_output@@@__crt_stdio_output@@IEAA_NAEAPEAD@Z 0000000180057ca0 f i libucrtd:output.obj
 0001:00056e60       ??$extract_argument_from_va_list@PEADPEAD@?$standard_base@DV?$stream_output_adapter@D@__crt_stdio_output@@@__crt_stdio_output@@IEAA_NAEAPEAD@Z 0000000180057e60 f i libucrtd:output.obj
 0001:00056e90       ??$extract_argument_from_va_list@PEADPEAD@?$standard_base@DV?$string_output_adapter@D@__crt_stdio_output@@@__crt_stdio_output@@IEAA_NAEAPEAD@Z 0000000180057e90 f i libucrtd:output.obj
 0001:00056ec0       ??$extract_argument_from_va_list@PEADPEAD@?$standard_base@_WV?$stream_output_adapter@_W@__crt_stdio_output@@@__crt_stdio_output@@IEAA_NAEAPEAD@Z 0000000180057ec0 f i libucrtd:output.obj
 0001:00056ef0       ??$extract_argument_from_va_list@PEADPEAD@?$standard_base@_WV?$string_output_adapter@_W@__crt_stdio_output@@@__crt_stdio_output@@IEAA_NAEAPEAD@Z 0000000180057ef0 f i libucrtd:output.obj
 0001:00056f20       ??$extract_argument_from_va_list@PEAUansi_string@?1??type_case_Z@?$output_processor@DV?$stream_output_adapter@D@__crt_stdio_output@@V?$format_validation_base@DV?$stream_output_adapter@D@__crt_stdio_output@@@2@@__crt_stdio_output@@AEAA_NXZ@PEAU1?1??234@AEAA_NXZ@@?$standard_base@DV?$stream_output_adapter@D@__crt_stdio_output@@@__crt_stdio_output@@IEAA_NAEAPEAUansi_string@?1??type_case_Z@?$output_processor@DV?$stream_output_adapter@D@__crt_stdio_output@@V?$format_validation_base@DV?$stream_output_adapter@D@__crt_stdio_output@@@2@@1@AEAA_NXZ@@Z 0000000180057f20 f i libucrtd:output.obj
 0001:00056f50       ??$extract_argument_from_va_list@PEAUansi_string@?1??type_case_Z@?$output_processor@DV?$stream_output_adapter@D@__crt_stdio_output@@V?$positional_parameter_base@DV?$stream_output_adapter@D@__crt_stdio_output@@@2@@__crt_stdio_output@@AEAA_NXZ@PEAU1?1??234@AEAA_NXZ@@?$positional_parameter_base@DV?$stream_output_adapter@D@__crt_stdio_output@@@__crt_stdio_output@@IEAA_NAEAPEAUansi_string@?1??type_case_Z@?$output_processor@DV?$stream_output_adapter@D@__crt_stdio_output@@V?$positional_parameter_base@DV?$stream_output_adapter@D@__crt_stdio_output@@@2@@1@AEAA_NXZ@@Z 0000000180057f50 f i libucrtd:output.obj
 0001:00057110       ??$extract_argument_from_va_list@PEAUansi_string@?1??type_case_Z@?$output_processor@DV?$stream_output_adapter@D@__crt_stdio_output@@V?$positional_parameter_base@DV?$stream_output_adapter@D@__crt_stdio_output@@@2@@__crt_stdio_output@@AEAA_NXZ@PEAU1?1??234@AEAA_NXZ@@?$standard_base@DV?$stream_output_adapter@D@__crt_stdio_output@@@__crt_stdio_output@@IEAA_NAEAPEAUansi_string@?1??type_case_Z@?$output_processor@DV?$stream_output_adapter@D@__crt_stdio_output@@V?$positional_parameter_base@DV?$stream_output_adapter@D@__crt_stdio_output@@@2@@1@AEAA_NXZ@@Z 0000000180058110 f i libucrtd:output.obj
 0001:00057140       ??$extract_argument_from_va_list@PEAUansi_string@?1??type_case_Z@?$output_processor@DV?$stream_output_adapter@D@__crt_stdio_output@@V?$standard_base@DV?$stream_output_adapter@D@__crt_stdio_output@@@2@@__crt_stdio_output@@AEAA_NXZ@PEAU1?1??234@AEAA_NXZ@@?$standard_base@DV?$stream_output_adapter@D@__crt_stdio_output@@@__crt_stdio_output@@IEAA_NAEAPEAUansi_string@?1??type_case_Z@?$output_processor@DV?$stream_output_adapter@D@__crt_stdio_output@@V?$standard_base@DV?$stream_output_adapter@D@__crt_stdio_output@@@2@@1@AEAA_NXZ@@Z 0000000180058140 f i libucrtd:output.obj
 0001:00057170       ??$extract_argument_from_va_list@PEAUansi_string@?1??type_case_Z@?$output_processor@DV?$string_output_adapter@D@__crt_stdio_output@@V?$format_validation_base@DV?$string_output_adapter@D@__crt_stdio_output@@@2@@__crt_stdio_output@@AEAA_NXZ@PEAU1?1??234@AEAA_NXZ@@?$standard_base@DV?$string_output_adapter@D@__crt_stdio_output@@@__crt_stdio_output@@IEAA_NAEAPEAUansi_string@?1??type_case_Z@?$output_processor@DV?$string_output_adapter@D@__crt_stdio_output@@V?$format_validation_base@DV?$string_output_adapter@D@__crt_stdio_output@@@2@@1@AEAA_NXZ@@Z 0000000180058170 f i libucrtd:output.obj
 0001:000571a0       ??$extract_argument_from_va_list@PEAUansi_string@?1??type_case_Z@?$output_processor@DV?$string_output_adapter@D@__crt_stdio_output@@V?$positional_parameter_base@DV?$string_output_adapter@D@__crt_stdio_output@@@2@@__crt_stdio_output@@AEAA_NXZ@PEAU1?1??234@AEAA_NXZ@@?$positional_parameter_base@DV?$string_output_adapter@D@__crt_stdio_output@@@__crt_stdio_output@@IEAA_NAEAPEAUansi_string@?1??type_case_Z@?$output_processor@DV?$string_output_adapter@D@__crt_stdio_output@@V?$positional_parameter_base@DV?$string_output_adapter@D@__crt_stdio_output@@@2@@1@AEAA_NXZ@@Z 00000001800581a0 f i libucrtd:output.obj
 0001:00057360       ??$extract_argument_from_va_list@PEAUansi_string@?1??type_case_Z@?$output_processor@DV?$string_output_adapter@D@__crt_stdio_output@@V?$positional_parameter_base@DV?$string_output_adapter@D@__crt_stdio_output@@@2@@__crt_stdio_output@@AEAA_NXZ@PEAU1?1??234@AEAA_NXZ@@?$standard_base@DV?$string_output_adapter@D@__crt_stdio_output@@@__crt_stdio_output@@IEAA_NAEAPEAUansi_string@?1??type_case_Z@?$output_processor@DV?$string_output_adapter@D@__crt_stdio_output@@V?$positional_parameter_base@DV?$string_output_adapter@D@__crt_stdio_output@@@2@@1@AEAA_NXZ@@Z 0000000180058360 f i libucrtd:output.obj
 0001:00057390       ??$extract_argument_from_va_list@PEAUansi_string@?1??type_case_Z@?$output_processor@DV?$string_output_adapter@D@__crt_stdio_output@@V?$standard_base@DV?$string_output_adapter@D@__crt_stdio_output@@@2@@__crt_stdio_output@@AEAA_NXZ@PEAU1?1??234@AEAA_NXZ@@?$standard_base@DV?$string_output_adapter@D@__crt_stdio_output@@@__crt_stdio_output@@IEAA_NAEAPEAUansi_string@?1??type_case_Z@?$output_processor@DV?$string_output_adapter@D@__crt_stdio_output@@V?$standard_base@DV?$string_output_adapter@D@__crt_stdio_output@@@2@@1@AEAA_NXZ@@Z 0000000180058390 f i libucrtd:output.obj
 0001:000573c0       ??$extract_argument_from_va_list@PEAUansi_string@?1??type_case_Z@?$output_processor@_WV?$stream_output_adapter@_W@__crt_stdio_output@@V?$format_validation_base@_WV?$stream_output_adapter@_W@__crt_stdio_output@@@2@@__crt_stdio_output@@AEAA_NXZ@PEAU1?1??234@AEAA_NXZ@@?$standard_base@_WV?$stream_output_adapter@_W@__crt_stdio_output@@@__crt_stdio_output@@IEAA_NAEAPEAUansi_string@?1??type_case_Z@?$output_processor@_WV?$stream_output_adapter@_W@__crt_stdio_output@@V?$format_validation_base@_WV?$stream_output_adapter@_W@__crt_stdio_output@@@2@@1@AEAA_NXZ@@Z 00000001800583c0 f i libucrtd:output.obj
 0001:000573f0       ??$extract_argument_from_va_list@PEAUansi_string@?1??type_case_Z@?$output_processor@_WV?$stream_output_adapter@_W@__crt_stdio_output@@V?$positional_parameter_base@_WV?$stream_output_adapter@_W@__crt_stdio_output@@@2@@__crt_stdio_output@@AEAA_NXZ@PEAU1?1??234@AEAA_NXZ@@?$positional_parameter_base@_WV?$stream_output_adapter@_W@__crt_stdio_output@@@__crt_stdio_output@@IEAA_NAEAPEAUansi_string@?1??type_case_Z@?$output_processor@_WV?$stream_output_adapter@_W@__crt_stdio_output@@V?$positional_parameter_base@_WV?$stream_output_adapter@_W@__crt_stdio_output@@@2@@1@AEAA_NXZ@@Z 00000001800583f0 f i libucrtd:output.obj
 0001:000575b0       ??$extract_argument_from_va_list@PEAUansi_string@?1??type_case_Z@?$output_processor@_WV?$stream_output_adapter@_W@__crt_stdio_output@@V?$positional_parameter_base@_WV?$stream_output_adapter@_W@__crt_stdio_output@@@2@@__crt_stdio_output@@AEAA_NXZ@PEAU1?1??234@AEAA_NXZ@@?$standard_base@_WV?$stream_output_adapter@_W@__crt_stdio_output@@@__crt_stdio_output@@IEAA_NAEAPEAUansi_string@?1??type_case_Z@?$output_processor@_WV?$stream_output_adapter@_W@__crt_stdio_output@@V?$positional_parameter_base@_WV?$stream_output_adapter@_W@__crt_stdio_output@@@2@@1@AEAA_NXZ@@Z 00000001800585b0 f i libucrtd:output.obj
 0001:000575e0       ??$extract_argument_from_va_list@PEAUansi_string@?1??type_case_Z@?$output_processor@_WV?$stream_output_adapter@_W@__crt_stdio_output@@V?$standard_base@_WV?$stream_output_adapter@_W@__crt_stdio_output@@@2@@__crt_stdio_output@@AEAA_NXZ@PEAU1?1??234@AEAA_NXZ@@?$standard_base@_WV?$stream_output_adapter@_W@__crt_stdio_output@@@__crt_stdio_output@@IEAA_NAEAPEAUansi_string@?1??type_case_Z@?$output_processor@_WV?$stream_output_adapter@_W@__crt_stdio_output@@V?$standard_base@_WV?$stream_output_adapter@_W@__crt_stdio_output@@@2@@1@AEAA_NXZ@@Z 00000001800585e0 f i libucrtd:output.obj
 0001:00057610       ??$extract_argument_from_va_list@PEAUansi_string@?1??type_case_Z@?$output_processor@_WV?$string_output_adapter@_W@__crt_stdio_output@@V?$format_validation_base@_WV?$string_output_adapter@_W@__crt_stdio_output@@@2@@__crt_stdio_output@@AEAA_NXZ@PEAU1?1??234@AEAA_NXZ@@?$standard_base@_WV?$string_output_adapter@_W@__crt_stdio_output@@@__crt_stdio_output@@IEAA_NAEAPEAUansi_string@?1??type_case_Z@?$output_processor@_WV?$string_output_adapter@_W@__crt_stdio_output@@V?$format_validation_base@_WV?$string_output_adapter@_W@__crt_stdio_output@@@2@@1@AEAA_NXZ@@Z 0000000180058610 f i libucrtd:output.obj
 0001:00057640       ??$extract_argument_from_va_list@PEAUansi_string@?1??type_case_Z@?$output_processor@_WV?$string_output_adapter@_W@__crt_stdio_output@@V?$positional_parameter_base@_WV?$string_output_adapter@_W@__crt_stdio_output@@@2@@__crt_stdio_output@@AEAA_NXZ@PEAU1?1??234@AEAA_NXZ@@?$positional_parameter_base@_WV?$string_output_adapter@_W@__crt_stdio_output@@@__crt_stdio_output@@IEAA_NAEAPEAUansi_string@?1??type_case_Z@?$output_processor@_WV?$string_output_adapter@_W@__crt_stdio_output@@V?$positional_parameter_base@_WV?$string_output_adapter@_W@__crt_stdio_output@@@2@@1@AEAA_NXZ@@Z 0000000180058640 f i libucrtd:output.obj
 0001:00057800       ??$extract_argument_from_va_list@PEAUansi_string@?1??type_case_Z@?$output_processor@_WV?$string_output_adapter@_W@__crt_stdio_output@@V?$positional_parameter_base@_WV?$string_output_adapter@_W@__crt_stdio_output@@@2@@__crt_stdio_output@@AEAA_NXZ@PEAU1?1??234@AEAA_NXZ@@?$standard_base@_WV?$string_output_adapter@_W@__crt_stdio_output@@@__crt_stdio_output@@IEAA_NAEAPEAUansi_string@?1??type_case_Z@?$output_processor@_WV?$string_output_adapter@_W@__crt_stdio_output@@V?$positional_parameter_base@_WV?$string_output_adapter@_W@__crt_stdio_output@@@2@@1@AEAA_NXZ@@Z 0000000180058800 f i libucrtd:output.obj
 0001:00057830       ??$extract_argument_from_va_list@PEAUansi_string@?1??type_case_Z@?$output_processor@_WV?$string_output_adapter@_W@__crt_stdio_output@@V?$standard_base@_WV?$string_output_adapter@_W@__crt_stdio_output@@@2@@__crt_stdio_output@@AEAA_NXZ@PEAU1?1??234@AEAA_NXZ@@?$standard_base@_WV?$string_output_adapter@_W@__crt_stdio_output@@@__crt_stdio_output@@IEAA_NAEAPEAUansi_string@?1??type_case_Z@?$output_processor@_WV?$string_output_adapter@_W@__crt_stdio_output@@V?$standard_base@_WV?$string_output_adapter@_W@__crt_stdio_output@@@2@@1@AEAA_NXZ@@Z 0000000180058830 f i libucrtd:output.obj
 0001:00057860       ??$extract_argument_from_va_list@PEAXPEAX@?$positional_parameter_base@DV?$stream_output_adapter@D@__crt_stdio_output@@@__crt_stdio_output@@IEAA_NAEAPEAX@Z 0000000180058860 f i libucrtd:output.obj
 0001:00057a20       ??$extract_argument_from_va_list@PEAXPEAX@?$positional_parameter_base@DV?$string_output_adapter@D@__crt_stdio_output@@@__crt_stdio_output@@IEAA_NAEAPEAX@Z 0000000180058a20 f i libucrtd:output.obj
 0001:00057be0       ??$extract_argument_from_va_list@PEAXPEAX@?$positional_parameter_base@_WV?$stream_output_adapter@_W@__crt_stdio_output@@@__crt_stdio_output@@IEAA_NAEAPEAX@Z 0000000180058be0 f i libucrtd:output.obj
 0001:00057da0       ??$extract_argument_from_va_list@PEAXPEAX@?$positional_parameter_base@_WV?$string_output_adapter@_W@__crt_stdio_output@@@__crt_stdio_output@@IEAA_NAEAPEAX@Z 0000000180058da0 f i libucrtd:output.obj
 0001:00057f60       ??$extract_argument_from_va_list@PEAXPEAX@?$standard_base@DV?$stream_output_adapter@D@__crt_stdio_output@@@__crt_stdio_output@@IEAA_NAEAPEAX@Z 0000000180058f60 f i libucrtd:output.obj
 0001:00057f90       ??$extract_argument_from_va_list@PEAXPEAX@?$standard_base@DV?$string_output_adapter@D@__crt_stdio_output@@@__crt_stdio_output@@IEAA_NAEAPEAX@Z 0000000180058f90 f i libucrtd:output.obj
 0001:00057fc0       ??$extract_argument_from_va_list@PEAXPEAX@?$standard_base@_WV?$stream_output_adapter@_W@__crt_stdio_output@@@__crt_stdio_output@@IEAA_NAEAPEAX@Z 0000000180058fc0 f i libucrtd:output.obj
 0001:00057ff0       ??$extract_argument_from_va_list@PEAXPEAX@?$standard_base@_WV?$string_output_adapter@_W@__crt_stdio_output@@@__crt_stdio_output@@IEAA_NAEAPEAX@Z 0000000180058ff0 f i libucrtd:output.obj
 0001:00058020       ??$extract_argument_from_va_list@U_CRT_DOUBLE@@U1@@?$positional_parameter_base@DV?$stream_output_adapter@D@__crt_stdio_output@@@__crt_stdio_output@@IEAA_NAEAU_CRT_DOUBLE@@@Z 0000000180059020 f i libucrtd:output.obj
 0001:00058240       ??$extract_argument_from_va_list@U_CRT_DOUBLE@@U1@@?$positional_parameter_base@DV?$string_output_adapter@D@__crt_stdio_output@@@__crt_stdio_output@@IEAA_NAEAU_CRT_DOUBLE@@@Z 0000000180059240 f i libucrtd:output.obj
 0001:00058460       ??$extract_argument_from_va_list@U_CRT_DOUBLE@@U1@@?$positional_parameter_base@_WV?$stream_output_adapter@_W@__crt_stdio_output@@@__crt_stdio_output@@IEAA_NAEAU_CRT_DOUBLE@@@Z 0000000180059460 f i libucrtd:output.obj
 0001:00058680       ??$extract_argument_from_va_list@U_CRT_DOUBLE@@U1@@?$positional_parameter_base@_WV?$string_output_adapter@_W@__crt_stdio_output@@@__crt_stdio_output@@IEAA_NAEAU_CRT_DOUBLE@@@Z 0000000180059680 f i libucrtd:output.obj
 0001:000588a0       ??$extract_argument_from_va_list@U_CRT_DOUBLE@@U1@@?$standard_base@DV?$stream_output_adapter@D@__crt_stdio_output@@@__crt_stdio_output@@IEAA_NAEAU_CRT_DOUBLE@@@Z 00000001800598a0 f i libucrtd:output.obj
 0001:000588f0       ??$extract_argument_from_va_list@U_CRT_DOUBLE@@U1@@?$standard_base@DV?$string_output_adapter@D@__crt_stdio_output@@@__crt_stdio_output@@IEAA_NAEAU_CRT_DOUBLE@@@Z 00000001800598f0 f i libucrtd:output.obj
 0001:00058940       ??$extract_argument_from_va_list@U_CRT_DOUBLE@@U1@@?$standard_base@_WV?$stream_output_adapter@_W@__crt_stdio_output@@@__crt_stdio_output@@IEAA_NAEAU_CRT_DOUBLE@@@Z 0000000180059940 f i libucrtd:output.obj
 0001:00058990       ??$extract_argument_from_va_list@U_CRT_DOUBLE@@U1@@?$standard_base@_WV?$string_output_adapter@_W@__crt_stdio_output@@@__crt_stdio_output@@IEAA_NAEAU_CRT_DOUBLE@@@Z 0000000180059990 f i libucrtd:output.obj
 0001:000589e0       ??$extract_argument_from_va_list@_J_J@?$positional_parameter_base@DV?$stream_output_adapter@D@__crt_stdio_output@@@__crt_stdio_output@@IEAA_NAEA_J@Z 00000001800599e0 f i libucrtd:output.obj
 0001:00058ba0       ??$extract_argument_from_va_list@_J_J@?$positional_parameter_base@DV?$string_output_adapter@D@__crt_stdio_output@@@__crt_stdio_output@@IEAA_NAEA_J@Z 0000000180059ba0 f i libucrtd:output.obj
 0001:00058d60       ??$extract_argument_from_va_list@_J_J@?$positional_parameter_base@_WV?$stream_output_adapter@_W@__crt_stdio_output@@@__crt_stdio_output@@IEAA_NAEA_J@Z 0000000180059d60 f i libucrtd:output.obj
 0001:00058f20       ??$extract_argument_from_va_list@_J_J@?$positional_parameter_base@_WV?$string_output_adapter@_W@__crt_stdio_output@@@__crt_stdio_output@@IEAA_NAEA_J@Z 0000000180059f20 f i libucrtd:output.obj
 0001:000590e0       ??$extract_argument_from_va_list@_J_J@?$standard_base@DV?$stream_output_adapter@D@__crt_stdio_output@@@__crt_stdio_output@@IEAA_NAEA_J@Z 000000018005a0e0 f i libucrtd:output.obj
 0001:00059110       ??$extract_argument_from_va_list@_J_J@?$standard_base@DV?$string_output_adapter@D@__crt_stdio_output@@@__crt_stdio_output@@IEAA_NAEA_J@Z 000000018005a110 f i libucrtd:output.obj
 0001:00059140       ??$extract_argument_from_va_list@_J_J@?$standard_base@_WV?$stream_output_adapter@_W@__crt_stdio_output@@@__crt_stdio_output@@IEAA_NAEA_J@Z 000000018005a140 f i libucrtd:output.obj
 0001:00059170       ??$extract_argument_from_va_list@_J_J@?$standard_base@_WV?$string_output_adapter@_W@__crt_stdio_output@@@__crt_stdio_output@@IEAA_NAEA_J@Z 000000018005a170 f i libucrtd:output.obj
 0001:000591a0       ??$extract_argument_from_va_list@_K_J@?$positional_parameter_base@DV?$stream_output_adapter@D@__crt_stdio_output@@@__crt_stdio_output@@IEAA_NAEA_J@Z 000000018005a1a0 f i libucrtd:output.obj
 0001:00059360       ??$extract_argument_from_va_list@_K_J@?$positional_parameter_base@DV?$string_output_adapter@D@__crt_stdio_output@@@__crt_stdio_output@@IEAA_NAEA_J@Z 000000018005a360 f i libucrtd:output.obj
 0001:00059520       ??$extract_argument_from_va_list@_K_J@?$positional_parameter_base@_WV?$stream_output_adapter@_W@__crt_stdio_output@@@__crt_stdio_output@@IEAA_NAEA_J@Z 000000018005a520 f i libucrtd:output.obj
 0001:000596e0       ??$extract_argument_from_va_list@_K_J@?$positional_parameter_base@_WV?$string_output_adapter@_W@__crt_stdio_output@@@__crt_stdio_output@@IEAA_NAEA_J@Z 000000018005a6e0 f i libucrtd:output.obj
 0001:000598a0       ??$extract_argument_from_va_list@_K_J@?$standard_base@DV?$stream_output_adapter@D@__crt_stdio_output@@@__crt_stdio_output@@IEAA_NAEA_J@Z 000000018005a8a0 f i libucrtd:output.obj
 0001:000598d0       ??$extract_argument_from_va_list@_K_J@?$standard_base@DV?$string_output_adapter@D@__crt_stdio_output@@@__crt_stdio_output@@IEAA_NAEA_J@Z 000000018005a8d0 f i libucrtd:output.obj
 0001:00059900       ??$extract_argument_from_va_list@_K_J@?$standard_base@_WV?$stream_output_adapter@_W@__crt_stdio_output@@@__crt_stdio_output@@IEAA_NAEA_J@Z 000000018005a900 f i libucrtd:output.obj
 0001:00059930       ??$extract_argument_from_va_list@_K_J@?$standard_base@_WV?$string_output_adapter@_W@__crt_stdio_output@@@__crt_stdio_output@@IEAA_NAEA_J@Z 000000018005a930 f i libucrtd:output.obj
 0001:00059960       ??$extract_argument_from_va_list@_W_W@?$positional_parameter_base@DV?$stream_output_adapter@D@__crt_stdio_output@@@__crt_stdio_output@@IEAA_NAEA_W@Z 000000018005a960 f i libucrtd:output.obj
 0001:00059b20       ??$extract_argument_from_va_list@_W_W@?$positional_parameter_base@DV?$string_output_adapter@D@__crt_stdio_output@@@__crt_stdio_output@@IEAA_NAEA_W@Z 000000018005ab20 f i libucrtd:output.obj
 0001:00059ce0       ??$extract_argument_from_va_list@_W_W@?$positional_parameter_base@_WV?$stream_output_adapter@_W@__crt_stdio_output@@@__crt_stdio_output@@IEAA_NAEA_W@Z 000000018005ace0 f i libucrtd:output.obj
 0001:00059ea0       ??$extract_argument_from_va_list@_W_W@?$positional_parameter_base@_WV?$string_output_adapter@_W@__crt_stdio_output@@@__crt_stdio_output@@IEAA_NAEA_W@Z 000000018005aea0 f i libucrtd:output.obj
 0001:0005a060       ??$extract_argument_from_va_list@_W_W@?$standard_base@DV?$stream_output_adapter@D@__crt_stdio_output@@@__crt_stdio_output@@IEAA_NAEA_W@Z 000000018005b060 f i libucrtd:output.obj
 0001:0005a090       ??$extract_argument_from_va_list@_W_W@?$standard_base@DV?$string_output_adapter@D@__crt_stdio_output@@@__crt_stdio_output@@IEAA_NAEA_W@Z 000000018005b090 f i libucrtd:output.obj
 0001:0005a0c0       ??$extract_argument_from_va_list@_W_W@?$standard_base@_WV?$stream_output_adapter@_W@__crt_stdio_output@@@__crt_stdio_output@@IEAA_NAEA_W@Z 000000018005b0c0 f i libucrtd:output.obj
 0001:0005a0f0       ??$extract_argument_from_va_list@_W_W@?$standard_base@_WV?$string_output_adapter@_W@__crt_stdio_output@@@__crt_stdio_output@@IEAA_NAEA_W@Z 000000018005b0f0 f i libucrtd:output.obj
 0001:0005a120       ??$get_parameter_type@D@?$positional_parameter_base@DV?$stream_output_adapter@D@__crt_stdio_output@@@__crt_stdio_output@@CA?AW4parameter_type@01@PEAD@Z 000000018005b120 f i libucrtd:output.obj
 0001:0005a130       ??$get_parameter_type@D@?$positional_parameter_base@DV?$string_output_adapter@D@__crt_stdio_output@@@__crt_stdio_output@@CA?AW4parameter_type@01@PEAD@Z 000000018005b130 f i libucrtd:output.obj
 0001:0005a140       ??$get_parameter_type@D@?$positional_parameter_base@_WV?$stream_output_adapter@_W@__crt_stdio_output@@@__crt_stdio_output@@CA?AW4parameter_type@01@PEAD@Z 000000018005b140 f i libucrtd:output.obj
 0001:0005a150       ??$get_parameter_type@D@?$positional_parameter_base@_WV?$string_output_adapter@_W@__crt_stdio_output@@@__crt_stdio_output@@CA?AW4parameter_type@01@PEAD@Z 000000018005b150 f i libucrtd:output.obj
 0001:0005a160       ??$get_parameter_type@Uansi_string@?1??type_case_Z@?$output_processor@DV?$stream_output_adapter@D@__crt_stdio_output@@V?$positional_parameter_base@DV?$stream_output_adapter@D@__crt_stdio_output@@@2@@__crt_stdio_output@@AEAA_NXZ@@?$positional_parameter_base@DV?$stream_output_adapter@D@__crt_stdio_output@@@__crt_stdio_output@@CA?AW4parameter_type@01@PEAUansi_string@?1??type_case_Z@?$output_processor@DV?$stream_output_adapter@D@__crt_stdio_output@@V?$positional_parameter_base@DV?$stream_output_adapter@D@__crt_stdio_output@@@2@@1@AEAA_NXZ@@Z 000000018005b160 f i libucrtd:output.obj
 0001:0005a170       ??$get_parameter_type@Uansi_string@?1??type_case_Z@?$output_processor@DV?$string_output_adapter@D@__crt_stdio_output@@V?$positional_parameter_base@DV?$string_output_adapter@D@__crt_stdio_output@@@2@@__crt_stdio_output@@AEAA_NXZ@@?$positional_parameter_base@DV?$string_output_adapter@D@__crt_stdio_output@@@__crt_stdio_output@@CA?AW4parameter_type@01@PEAUansi_string@?1??type_case_Z@?$output_processor@DV?$string_output_adapter@D@__crt_stdio_output@@V?$positional_parameter_base@DV?$string_output_adapter@D@__crt_stdio_output@@@2@@1@AEAA_NXZ@@Z 000000018005b170 f i libucrtd:output.obj
 0001:0005a180       ??$get_parameter_type@Uansi_string@?1??type_case_Z@?$output_processor@_WV?$stream_output_adapter@_W@__crt_stdio_output@@V?$positional_parameter_base@_WV?$stream_output_adapter@_W@__crt_stdio_output@@@2@@__crt_stdio_output@@AEAA_NXZ@@?$positional_parameter_base@_WV?$stream_output_adapter@_W@__crt_stdio_output@@@__crt_stdio_output@@CA?AW4parameter_type@01@PEAUansi_string@?1??type_case_Z@?$output_processor@_WV?$stream_output_adapter@_W@__crt_stdio_output@@V?$positional_parameter_base@_WV?$stream_output_adapter@_W@__crt_stdio_output@@@2@@1@AEAA_NXZ@@Z 000000018005b180 f i libucrtd:output.obj
 0001:0005a190       ??$get_parameter_type@Uansi_string@?1??type_case_Z@?$output_processor@_WV?$string_output_adapter@_W@__crt_stdio_output@@V?$positional_parameter_base@_WV?$string_output_adapter@_W@__crt_stdio_output@@@2@@__crt_stdio_output@@AEAA_NXZ@@?$positional_parameter_base@_WV?$string_output_adapter@_W@__crt_stdio_output@@@__crt_stdio_output@@CA?AW4parameter_type@01@PEAUansi_string@?1??type_case_Z@?$output_processor@_WV?$string_output_adapter@_W@__crt_stdio_output@@V?$positional_parameter_base@_WV?$string_output_adapter@_W@__crt_stdio_output@@@2@@1@AEAA_NXZ@@Z 000000018005b190 f i libucrtd:output.obj
 0001:0005a1a0       ??$get_parameter_type@X@?$positional_parameter_base@DV?$stream_output_adapter@D@__crt_stdio_output@@@__crt_stdio_output@@CA?AW4parameter_type@01@PEAX@Z 000000018005b1a0 f i libucrtd:output.obj
 0001:0005a1b0       ??$get_parameter_type@X@?$positional_parameter_base@DV?$string_output_adapter@D@__crt_stdio_output@@@__crt_stdio_output@@CA?AW4parameter_type@01@PEAX@Z 000000018005b1b0 f i libucrtd:output.obj
 0001:0005a1c0       ??$get_parameter_type@X@?$positional_parameter_base@_WV?$stream_output_adapter@_W@__crt_stdio_output@@@__crt_stdio_output@@CA?AW4parameter_type@01@PEAX@Z 000000018005b1c0 f i libucrtd:output.obj
 0001:0005a1d0       ??$get_parameter_type@X@?$positional_parameter_base@_WV?$string_output_adapter@_W@__crt_stdio_output@@@__crt_stdio_output@@CA?AW4parameter_type@01@PEAX@Z 000000018005b1d0 f i libucrtd:output.obj
 0001:0005a1e0       ??$is_character_specifier@D@?$positional_parameter_base@DV?$stream_output_adapter@D@__crt_stdio_output@@@__crt_stdio_output@@CA_ND@Z 000000018005b1e0 f i libucrtd:output.obj
 0001:0005a220       ??$is_character_specifier@D@?$positional_parameter_base@DV?$string_output_adapter@D@__crt_stdio_output@@@__crt_stdio_output@@CA_ND@Z 000000018005b220 f i libucrtd:output.obj
 0001:0005a260       ??$is_character_specifier@_W@?$positional_parameter_base@_WV?$stream_output_adapter@_W@__crt_stdio_output@@@__crt_stdio_output@@CA_N_W@Z 000000018005b260 f i libucrtd:output.obj
 0001:0005a2a0       ??$is_character_specifier@_W@?$positional_parameter_base@_WV?$string_output_adapter@_W@__crt_stdio_output@@@__crt_stdio_output@@CA_N_W@Z 000000018005b2a0 f i libucrtd:output.obj
 0001:0005a2e0       ??$is_integral_specifier@D@?$positional_parameter_base@DV?$stream_output_adapter@D@__crt_stdio_output@@@__crt_stdio_output@@CA_ND@Z 000000018005b2e0 f i libucrtd:output.obj
 0001:0005a350       ??$is_integral_specifier@D@?$positional_parameter_base@DV?$string_output_adapter@D@__crt_stdio_output@@@__crt_stdio_output@@CA_ND@Z 000000018005b350 f i libucrtd:output.obj
 0001:0005a3c0       ??$is_integral_specifier@_W@?$positional_parameter_base@_WV?$stream_output_adapter@_W@__crt_stdio_output@@@__crt_stdio_output@@CA_N_W@Z 000000018005b3c0 f i libucrtd:output.obj
 0001:0005a430       ??$is_integral_specifier@_W@?$positional_parameter_base@_WV?$string_output_adapter@_W@__crt_stdio_output@@@__crt_stdio_output@@CA_N_W@Z 000000018005b430 f i libucrtd:output.obj
 0001:0005a4a0       ??$is_overflow_condition@K@__crt_strtox@@YA_NIK@Z 000000018005b4a0 f i libucrtd:output.obj
 0001:0005a510       ??$is_pointer_specifier@D@?$positional_parameter_base@DV?$stream_output_adapter@D@__crt_stdio_output@@@__crt_stdio_output@@CA_ND@Z 000000018005b510 f i libucrtd:output.obj
 0001:0005a540       ??$is_pointer_specifier@D@?$positional_parameter_base@DV?$string_output_adapter@D@__crt_stdio_output@@@__crt_stdio_output@@CA_ND@Z 000000018005b540 f i libucrtd:output.obj
 0001:0005a570       ??$is_pointer_specifier@_W@?$positional_parameter_base@_WV?$stream_output_adapter@_W@__crt_stdio_output@@@__crt_stdio_output@@CA_N_W@Z 000000018005b570 f i libucrtd:output.obj
 0001:0005a5a0       ??$is_pointer_specifier@_W@?$positional_parameter_base@_WV?$string_output_adapter@_W@__crt_stdio_output@@@__crt_stdio_output@@CA_N_W@Z 000000018005b5a0 f i libucrtd:output.obj
 0001:0005a5d0       ??$is_string_specifier@D@?$positional_parameter_base@DV?$stream_output_adapter@D@__crt_stdio_output@@@__crt_stdio_output@@CA_ND@Z 000000018005b5d0 f i libucrtd:output.obj
 0001:0005a610       ??$is_string_specifier@D@?$positional_parameter_base@DV?$string_output_adapter@D@__crt_stdio_output@@@__crt_stdio_output@@CA_ND@Z 000000018005b610 f i libucrtd:output.obj
 0001:0005a650       ??$is_string_specifier@_W@?$positional_parameter_base@_WV?$stream_output_adapter@_W@__crt_stdio_output@@@__crt_stdio_output@@CA_N_W@Z 000000018005b650 f i libucrtd:output.obj
 0001:0005a690       ??$is_string_specifier@_W@?$positional_parameter_base@_WV?$string_output_adapter@_W@__crt_stdio_output@@@__crt_stdio_output@@CA_N_W@Z 000000018005b690 f i libucrtd:output.obj
 0001:0005a6d0       ??$is_wide_character_specifier@D@__crt_stdio_output@@YA_N_KDW4length_modifier@0@@Z 000000018005b6d0 f i libucrtd:output.obj
 0001:0005a770       ??$is_wide_character_specifier@_W@__crt_stdio_output@@YA_N_K_WW4length_modifier@0@@Z 000000018005b770 f i libucrtd:output.obj
 0001:0005a840       ??$make_c_string_character_source@DPEAPEAD@__crt_strtox@@YA?AV?$c_string_character_source@D@0@QEBDQEAPEAD@Z 000000018005b840 f i libucrtd:output.obj
 0001:0005a880       ??$make_c_string_character_source@_WPEAPEA_W@__crt_strtox@@YA?AV?$c_string_character_source@_W@0@QEB_WQEAPEA_W@Z 000000018005b880 f i libucrtd:output.obj
 0001:0005a8c0       ??$parse_integer@KV?$c_string_character_source@D@__crt_strtox@@$0A@@__crt_strtox@@YAKAEAV__crt_cached_ptd_host@@V?$c_string_character_source@D@0@H_N@Z 000000018005b8c0 f i libucrtd:output.obj
 0001:0005ad40       ??$parse_integer@KV?$c_string_character_source@_W@__crt_strtox@@$0A@@__crt_strtox@@YAKAEAV__crt_cached_ptd_host@@V?$c_string_character_source@_W@0@H_N@Z 000000018005bd40 f i libucrtd:output.obj
 0001:0005b1c0       ??$peek_va_arg@C@__crt_stdio_output@@YACPEAD@Z 000000018005c1c0 f i libucrtd:output.obj
 0001:0005b220       ??$peek_va_arg@E@__crt_stdio_output@@YAEPEAD@Z 000000018005c220 f i libucrtd:output.obj
 0001:0005b280       ??$peek_va_arg@F@__crt_stdio_output@@YAFPEAD@Z 000000018005c280 f i libucrtd:output.obj
 0001:0005b2e0       ??$peek_va_arg@G@__crt_stdio_output@@YAGPEAD@Z 000000018005c2e0 f i libucrtd:output.obj
 0001:0005b340       ??$peek_va_arg@H@__crt_stdio_output@@YAHPEAD@Z 000000018005c340 f i libucrtd:output.obj
 0001:0005b390       ??$peek_va_arg@I@__crt_stdio_output@@YAIPEAD@Z 000000018005c390 f i libucrtd:output.obj
 0001:0005b3e0       ??$peek_va_arg@PEAD@__crt_stdio_output@@YAPEADPEAD@Z 000000018005c3e0 f i libucrtd:output.obj
 0001:0005b440       ??$peek_va_arg@PEAUansi_string@?1??type_case_Z@?$output_processor@DV?$stream_output_adapter@D@__crt_stdio_output@@V?$positional_parameter_base@DV?$stream_output_adapter@D@__crt_stdio_output@@@2@@__crt_stdio_output@@AEAA_NXZ@@__crt_stdio_output@@YAPEAUansi_string@?1??type_case_Z@?$output_processor@DV?$stream_output_adapter@D@__crt_stdio_output@@V?$positional_parameter_base@DV?$stream_output_adapter@D@__crt_stdio_output@@@2@@0@AEAA_NXZ@PEAD@Z 000000018005c440 f i libucrtd:output.obj
 0001:0005b4a0       ??$peek_va_arg@PEAUansi_string@?1??type_case_Z@?$output_processor@DV?$string_output_adapter@D@__crt_stdio_output@@V?$positional_parameter_base@DV?$string_output_adapter@D@__crt_stdio_output@@@2@@__crt_stdio_output@@AEAA_NXZ@@__crt_stdio_output@@YAPEAUansi_string@?1??type_case_Z@?$output_processor@DV?$string_output_adapter@D@__crt_stdio_output@@V?$positional_parameter_base@DV?$string_output_adapter@D@__crt_stdio_output@@@2@@0@AEAA_NXZ@PEAD@Z 000000018005c4a0 f i libucrtd:output.obj
 0001:0005b500       ??$peek_va_arg@PEAUansi_string@?1??type_case_Z@?$output_processor@_WV?$stream_output_adapter@_W@__crt_stdio_output@@V?$positional_parameter_base@_WV?$stream_output_adapter@_W@__crt_stdio_output@@@2@@__crt_stdio_output@@AEAA_NXZ@@__crt_stdio_output@@YAPEAUansi_string@?1??type_case_Z@?$output_processor@_WV?$stream_output_adapter@_W@__crt_stdio_output@@V?$positional_parameter_base@_WV?$stream_output_adapter@_W@__crt_stdio_output@@@2@@0@AEAA_NXZ@PEAD@Z 000000018005c500 f i libucrtd:output.obj
 0001:0005b560       ??$peek_va_arg@PEAUansi_string@?1??type_case_Z@?$output_processor@_WV?$string_output_adapter@_W@__crt_stdio_output@@V?$positional_parameter_base@_WV?$string_output_adapter@_W@__crt_stdio_output@@@2@@__crt_stdio_output@@AEAA_NXZ@@__crt_stdio_output@@YAPEAUansi_string@?1??type_case_Z@?$output_processor@_WV?$string_output_adapter@_W@__crt_stdio_output@@V?$positional_parameter_base@_WV?$string_output_adapter@_W@__crt_stdio_output@@@2@@0@AEAA_NXZ@PEAD@Z 000000018005c560 f i libucrtd:output.obj
 0001:0005b5c0       ??$peek_va_arg@PEAX@__crt_stdio_output@@YAPEAXPEAD@Z 000000018005c5c0 f i libucrtd:output.obj
 0001:0005b620       ??$peek_va_arg@U_CRT_DOUBLE@@@__crt_stdio_output@@YA?AU_CRT_DOUBLE@@PEAD@Z 000000018005c620 f i libucrtd:output.obj
 0001:0005b680       ??$peek_va_arg@_J@__crt_stdio_output@@YA_JPEAD@Z 000000018005c680 f i libucrtd:output.obj
 0001:0005b6e0       ??$peek_va_arg@_K@__crt_stdio_output@@YA_KPEAD@Z 000000018005c6e0 f i libucrtd:output.obj
 0001:0005b740       ??$peek_va_arg@_W@__crt_stdio_output@@YA_WPEAD@Z 000000018005c740 f i libucrtd:output.obj
 0001:0005b7a0       ??$puttc_nolock_internal@AEBDPEAU_iobuf@@AEAV__crt_cached_ptd_host@@@?$__crt_char_traits@D@@SAHAEBD$$QEAPEAU_iobuf@@AEAV__crt_cached_ptd_host@@@Z 000000018005c7a0 f i libucrtd:output.obj
 0001:0005b7e0       ??$puttc_nolock_internal@AEB_WPEAU_iobuf@@AEAV__crt_cached_ptd_host@@@?$__crt_char_traits@_W@@SAGAEB_W$$QEAPEAU_iobuf@@AEAV__crt_cached_ptd_host@@@Z 000000018005c7e0 f i libucrtd:output.obj
 0001:0005b820       ??$read_va_arg@C@__crt_stdio_output@@YACAEAPEAD@Z 000000018005c820 f i libucrtd:output.obj
 0001:0005b890       ??$read_va_arg@E@__crt_stdio_output@@YAEAEAPEAD@Z 000000018005c890 f i libucrtd:output.obj
 0001:0005b900       ??$read_va_arg@F@__crt_stdio_output@@YAFAEAPEAD@Z 000000018005c900 f i libucrtd:output.obj
 0001:0005b970       ??$read_va_arg@G@__crt_stdio_output@@YAGAEAPEAD@Z 000000018005c970 f i libucrtd:output.obj
 0001:0005b9e0       ??$read_va_arg@H@__crt_stdio_output@@YAHAEAPEAD@Z 000000018005c9e0 f i libucrtd:output.obj
 0001:0005ba40       ??$read_va_arg@I@__crt_stdio_output@@YAIAEAPEAD@Z 000000018005ca40 f i libucrtd:output.obj
 0001:0005baa0       ??$read_va_arg@PEAD@__crt_stdio_output@@YAPEADAEAPEAD@Z 000000018005caa0 f i libucrtd:output.obj
 0001:0005bb10       ??$read_va_arg@PEAUansi_string@?1??type_case_Z@?$output_processor@DV?$stream_output_adapter@D@__crt_stdio_output@@V?$format_validation_base@DV?$stream_output_adapter@D@__crt_stdio_output@@@2@@__crt_stdio_output@@AEAA_NXZ@@__crt_stdio_output@@YAPEAUansi_string@?1??type_case_Z@?$output_processor@DV?$stream_output_adapter@D@__crt_stdio_output@@V?$format_validation_base@DV?$stream_output_adapter@D@__crt_stdio_output@@@2@@0@AEAA_NXZ@AEAPEAD@Z 000000018005cb10 f i libucrtd:output.obj
 0001:0005bb80       ??$read_va_arg@PEAUansi_string@?1??type_case_Z@?$output_processor@DV?$stream_output_adapter@D@__crt_stdio_output@@V?$positional_parameter_base@DV?$stream_output_adapter@D@__crt_stdio_output@@@2@@__crt_stdio_output@@AEAA_NXZ@@__crt_stdio_output@@YAPEAUansi_string@?1??type_case_Z@?$output_processor@DV?$stream_output_adapter@D@__crt_stdio_output@@V?$positional_parameter_base@DV?$stream_output_adapter@D@__crt_stdio_output@@@2@@0@AEAA_NXZ@AEAPEAD@Z 000000018005cb80 f i libucrtd:output.obj
 0001:0005bbf0       ??$read_va_arg@PEAUansi_string@?1??type_case_Z@?$output_processor@DV?$stream_output_adapter@D@__crt_stdio_output@@V?$standard_base@DV?$stream_output_adapter@D@__crt_stdio_output@@@2@@__crt_stdio_output@@AEAA_NXZ@@__crt_stdio_output@@YAPEAUansi_string@?1??type_case_Z@?$output_processor@DV?$stream_output_adapter@D@__crt_stdio_output@@V?$standard_base@DV?$stream_output_adapter@D@__crt_stdio_output@@@2@@0@AEAA_NXZ@AEAPEAD@Z 000000018005cbf0 f i libucrtd:output.obj
 0001:0005bc60       ??$read_va_arg@PEAUansi_string@?1??type_case_Z@?$output_processor@DV?$string_output_adapter@D@__crt_stdio_output@@V?$format_validation_base@DV?$string_output_adapter@D@__crt_stdio_output@@@2@@__crt_stdio_output@@AEAA_NXZ@@__crt_stdio_output@@YAPEAUansi_string@?1??type_case_Z@?$output_processor@DV?$string_output_adapter@D@__crt_stdio_output@@V?$format_validation_base@DV?$string_output_adapter@D@__crt_stdio_output@@@2@@0@AEAA_NXZ@AEAPEAD@Z 000000018005cc60 f i libucrtd:output.obj
 0001:0005bcd0       ??$read_va_arg@PEAUansi_string@?1??type_case_Z@?$output_processor@DV?$string_output_adapter@D@__crt_stdio_output@@V?$positional_parameter_base@DV?$string_output_adapter@D@__crt_stdio_output@@@2@@__crt_stdio_output@@AEAA_NXZ@@__crt_stdio_output@@YAPEAUansi_string@?1??type_case_Z@?$output_processor@DV?$string_output_adapter@D@__crt_stdio_output@@V?$positional_parameter_base@DV?$string_output_adapter@D@__crt_stdio_output@@@2@@0@AEAA_NXZ@AEAPEAD@Z 000000018005ccd0 f i libucrtd:output.obj
 0001:0005bd40       ??$read_va_arg@PEAUansi_string@?1??type_case_Z@?$output_processor@DV?$string_output_adapter@D@__crt_stdio_output@@V?$standard_base@DV?$string_output_adapter@D@__crt_stdio_output@@@2@@__crt_stdio_output@@AEAA_NXZ@@__crt_stdio_output@@YAPEAUansi_string@?1??type_case_Z@?$output_processor@DV?$string_output_adapter@D@__crt_stdio_output@@V?$standard_base@DV?$string_output_adapter@D@__crt_stdio_output@@@2@@0@AEAA_NXZ@AEAPEAD@Z 000000018005cd40 f i libucrtd:output.obj
 0001:0005bdb0       ??$read_va_arg@PEAUansi_string@?1??type_case_Z@?$output_processor@_WV?$stream_output_adapter@_W@__crt_stdio_output@@V?$format_validation_base@_WV?$stream_output_adapter@_W@__crt_stdio_output@@@2@@__crt_stdio_output@@AEAA_NXZ@@__crt_stdio_output@@YAPEAUansi_string@?1??type_case_Z@?$output_processor@_WV?$stream_output_adapter@_W@__crt_stdio_output@@V?$format_validation_base@_WV?$stream_output_adapter@_W@__crt_stdio_output@@@2@@0@AEAA_NXZ@AEAPEAD@Z 000000018005cdb0 f i libucrtd:output.obj
 0001:0005be20       ??$read_va_arg@PEAUansi_string@?1??type_case_Z@?$output_processor@_WV?$stream_output_adapter@_W@__crt_stdio_output@@V?$positional_parameter_base@_WV?$stream_output_adapter@_W@__crt_stdio_output@@@2@@__crt_stdio_output@@AEAA_NXZ@@__crt_stdio_output@@YAPEAUansi_string@?1??type_case_Z@?$output_processor@_WV?$stream_output_adapter@_W@__crt_stdio_output@@V?$positional_parameter_base@_WV?$stream_output_adapter@_W@__crt_stdio_output@@@2@@0@AEAA_NXZ@AEAPEAD@Z 000000018005ce20 f i libucrtd:output.obj
 0001:0005be90       ??$read_va_arg@PEAUansi_string@?1??type_case_Z@?$output_processor@_WV?$stream_output_adapter@_W@__crt_stdio_output@@V?$standard_base@_WV?$stream_output_adapter@_W@__crt_stdio_output@@@2@@__crt_stdio_output@@AEAA_NXZ@@__crt_stdio_output@@YAPEAUansi_string@?1??type_case_Z@?$output_processor@_WV?$stream_output_adapter@_W@__crt_stdio_output@@V?$standard_base@_WV?$stream_output_adapter@_W@__crt_stdio_output@@@2@@0@AEAA_NXZ@AEAPEAD@Z 000000018005ce90 f i libucrtd:output.obj
 0001:0005bf00       ??$read_va_arg@PEAUansi_string@?1??type_case_Z@?$output_processor@_WV?$string_output_adapter@_W@__crt_stdio_output@@V?$format_validation_base@_WV?$string_output_adapter@_W@__crt_stdio_output@@@2@@__crt_stdio_output@@AEAA_NXZ@@__crt_stdio_output@@YAPEAUansi_string@?1??type_case_Z@?$output_processor@_WV?$string_output_adapter@_W@__crt_stdio_output@@V?$format_validation_base@_WV?$string_output_adapter@_W@__crt_stdio_output@@@2@@0@AEAA_NXZ@AEAPEAD@Z 000000018005cf00 f i libucrtd:output.obj
 0001:0005bf70       ??$read_va_arg@PEAUansi_string@?1??type_case_Z@?$output_processor@_WV?$string_output_adapter@_W@__crt_stdio_output@@V?$positional_parameter_base@_WV?$string_output_adapter@_W@__crt_stdio_output@@@2@@__crt_stdio_output@@AEAA_NXZ@@__crt_stdio_output@@YAPEAUansi_string@?1??type_case_Z@?$output_processor@_WV?$string_output_adapter@_W@__crt_stdio_output@@V?$positional_parameter_base@_WV?$string_output_adapter@_W@__crt_stdio_output@@@2@@0@AEAA_NXZ@AEAPEAD@Z 000000018005cf70 f i libucrtd:output.obj
 0001:0005bfe0       ??$read_va_arg@PEAUansi_string@?1??type_case_Z@?$output_processor@_WV?$string_output_adapter@_W@__crt_stdio_output@@V?$standard_base@_WV?$string_output_adapter@_W@__crt_stdio_output@@@2@@__crt_stdio_output@@AEAA_NXZ@@__crt_stdio_output@@YAPEAUansi_string@?1??type_case_Z@?$output_processor@_WV?$string_output_adapter@_W@__crt_stdio_output@@V?$standard_base@_WV?$string_output_adapter@_W@__crt_stdio_output@@@2@@0@AEAA_NXZ@AEAPEAD@Z 000000018005cfe0 f i libucrtd:output.obj
 0001:0005c050       ??$read_va_arg@PEAX@__crt_stdio_output@@YAPEAXAEAPEAD@Z 000000018005d050 f i libucrtd:output.obj
 0001:0005c0c0       ??$read_va_arg@U_CRT_DOUBLE@@@__crt_stdio_output@@YA?AU_CRT_DOUBLE@@AEAPEAD@Z 000000018005d0c0 f i libucrtd:output.obj
 0001:0005c130       ??$read_va_arg@_J@__crt_stdio_output@@YA_JAEAPEAD@Z 000000018005d130 f i libucrtd:output.obj
 0001:0005c1a0       ??$read_va_arg@_K@__crt_stdio_output@@YA_KAEAPEAD@Z 000000018005d1a0 f i libucrtd:output.obj
 0001:0005c210       ??$read_va_arg@_W@__crt_stdio_output@@YA_WAEAPEAD@Z 000000018005d210 f i libucrtd:output.obj
 0001:0005c280       ??$scratch_count@D@formatting_buffer@__crt_stdio_output@@QEBA_KXZ 000000018005d280 f i libucrtd:output.obj
 0001:0005c2a0       ??$scratch_data@D@formatting_buffer@__crt_stdio_output@@QEAAPEADXZ 000000018005d2a0 f i libucrtd:output.obj
 0001:0005c310       ??$type_case_integer@$07@?$output_processor@DV?$stream_output_adapter@D@__crt_stdio_output@@V?$format_validation_base@DV?$stream_output_adapter@D@__crt_stdio_output@@@2@@__crt_stdio_output@@AEAA_N_N@Z 000000018005d310 f i libucrtd:output.obj
 0001:0005c790       ??$type_case_integer@$07@?$output_processor@DV?$stream_output_adapter@D@__crt_stdio_output@@V?$positional_parameter_base@DV?$stream_output_adapter@D@__crt_stdio_output@@@2@@__crt_stdio_output@@AEAA_N_N@Z 000000018005d790 f i libucrtd:output.obj
 0001:0005cc10       ??$type_case_integer@$07@?$output_processor@DV?$stream_output_adapter@D@__crt_stdio_output@@V?$standard_base@DV?$stream_output_adapter@D@__crt_stdio_output@@@2@@__crt_stdio_output@@AEAA_N_N@Z 000000018005dc10 f i libucrtd:output.obj
 0001:0005d090       ??$type_case_integer@$07@?$output_processor@DV?$string_output_adapter@D@__crt_stdio_output@@V?$format_validation_base@DV?$string_output_adapter@D@__crt_stdio_output@@@2@@__crt_stdio_output@@AEAA_N_N@Z 000000018005e090 f i libucrtd:output.obj
 0001:0005d510       ??$type_case_integer@$07@?$output_processor@DV?$string_output_adapter@D@__crt_stdio_output@@V?$positional_parameter_base@DV?$string_output_adapter@D@__crt_stdio_output@@@2@@__crt_stdio_output@@AEAA_N_N@Z 000000018005e510 f i libucrtd:output.obj
 0001:0005d990       ??$type_case_integer@$07@?$output_processor@DV?$string_output_adapter@D@__crt_stdio_output@@V?$standard_base@DV?$string_output_adapter@D@__crt_stdio_output@@@2@@__crt_stdio_output@@AEAA_N_N@Z 000000018005e990 f i libucrtd:output.obj
 0001:0005de10       ??$type_case_integer@$07@?$output_processor@_WV?$stream_output_adapter@_W@__crt_stdio_output@@V?$format_validation_base@_WV?$stream_output_adapter@_W@__crt_stdio_output@@@2@@__crt_stdio_output@@AEAA_N_N@Z 000000018005ee10 f i libucrtd:output.obj
 0001:0005e290       ??$type_case_integer@$07@?$output_processor@_WV?$stream_output_adapter@_W@__crt_stdio_output@@V?$positional_parameter_base@_WV?$stream_output_adapter@_W@__crt_stdio_output@@@2@@__crt_stdio_output@@AEAA_N_N@Z 000000018005f290 f i libucrtd:output.obj
 0001:0005e710       ??$type_case_integer@$07@?$output_processor@_WV?$stream_output_adapter@_W@__crt_stdio_output@@V?$standard_base@_WV?$stream_output_adapter@_W@__crt_stdio_output@@@2@@__crt_stdio_output@@AEAA_N_N@Z 000000018005f710 f i libucrtd:output.obj
 0001:0005eb90       ??$type_case_integer@$07@?$output_processor@_WV?$string_output_adapter@_W@__crt_stdio_output@@V?$format_validation_base@_WV?$string_output_adapter@_W@__crt_stdio_output@@@2@@__crt_stdio_output@@AEAA_N_N@Z 000000018005fb90 f i libucrtd:output.obj
 0001:0005f010       ??$type_case_integer@$07@?$output_processor@_WV?$string_output_adapter@_W@__crt_stdio_output@@V?$positional_parameter_base@_WV?$string_output_adapter@_W@__crt_stdio_output@@@2@@__crt_stdio_output@@AEAA_N_N@Z 0000000180060010 f i libucrtd:output.obj
 0001:0005f490       ??$type_case_integer@$07@?$output_processor@_WV?$string_output_adapter@_W@__crt_stdio_output@@V?$standard_base@_WV?$string_output_adapter@_W@__crt_stdio_output@@@2@@__crt_stdio_output@@AEAA_N_N@Z 0000000180060490 f i libucrtd:output.obj
 0001:0005f910       ??$type_case_integer@$09@?$output_processor@DV?$stream_output_adapter@D@__crt_stdio_output@@V?$format_validation_base@DV?$stream_output_adapter@D@__crt_stdio_output@@@2@@__crt_stdio_output@@AEAA_N_N@Z 0000000180060910 f i libucrtd:output.obj
 0001:0005fd90       ??$type_case_integer@$09@?$output_processor@DV?$stream_output_adapter@D@__crt_stdio_output@@V?$positional_parameter_base@DV?$stream_output_adapter@D@__crt_stdio_output@@@2@@__crt_stdio_output@@AEAA_N_N@Z 0000000180060d90 f i libucrtd:output.obj
 0001:00060210       ??$type_case_integer@$09@?$output_processor@DV?$stream_output_adapter@D@__crt_stdio_output@@V?$standard_base@DV?$stream_output_adapter@D@__crt_stdio_output@@@2@@__crt_stdio_output@@AEAA_N_N@Z 0000000180061210 f i libucrtd:output.obj
 0001:00060690       ??$type_case_integer@$09@?$output_processor@DV?$string_output_adapter@D@__crt_stdio_output@@V?$format_validation_base@DV?$string_output_adapter@D@__crt_stdio_output@@@2@@__crt_stdio_output@@AEAA_N_N@Z 0000000180061690 f i libucrtd:output.obj
 0001:00060b10       ??$type_case_integer@$09@?$output_processor@DV?$string_output_adapter@D@__crt_stdio_output@@V?$positional_parameter_base@DV?$string_output_adapter@D@__crt_stdio_output@@@2@@__crt_stdio_output@@AEAA_N_N@Z 0000000180061b10 f i libucrtd:output.obj
 0001:00060f90       ??$type_case_integer@$09@?$output_processor@DV?$string_output_adapter@D@__crt_stdio_output@@V?$standard_base@DV?$string_output_adapter@D@__crt_stdio_output@@@2@@__crt_stdio_output@@AEAA_N_N@Z 0000000180061f90 f i libucrtd:output.obj
 0001:00061410       ??$type_case_integer@$09@?$output_processor@_WV?$stream_output_adapter@_W@__crt_stdio_output@@V?$format_validation_base@_WV?$stream_output_adapter@_W@__crt_stdio_output@@@2@@__crt_stdio_output@@AEAA_N_N@Z 0000000180062410 f i libucrtd:output.obj
 0001:00061890       ??$type_case_integer@$09@?$output_processor@_WV?$stream_output_adapter@_W@__crt_stdio_output@@V?$positional_parameter_base@_WV?$stream_output_adapter@_W@__crt_stdio_output@@@2@@__crt_stdio_output@@AEAA_N_N@Z 0000000180062890 f i libucrtd:output.obj
 0001:00061d10       ??$type_case_integer@$09@?$output_processor@_WV?$stream_output_adapter@_W@__crt_stdio_output@@V?$standard_base@_WV?$stream_output_adapter@_W@__crt_stdio_output@@@2@@__crt_stdio_output@@AEAA_N_N@Z 0000000180062d10 f i libucrtd:output.obj
 0001:00062190       ??$type_case_integer@$09@?$output_processor@_WV?$string_output_adapter@_W@__crt_stdio_output@@V?$format_validation_base@_WV?$string_output_adapter@_W@__crt_stdio_output@@@2@@__crt_stdio_output@@AEAA_N_N@Z 0000000180063190 f i libucrtd:output.obj
 0001:00062610       ??$type_case_integer@$09@?$output_processor@_WV?$string_output_adapter@_W@__crt_stdio_output@@V?$positional_parameter_base@_WV?$string_output_adapter@_W@__crt_stdio_output@@@2@@__crt_stdio_output@@AEAA_N_N@Z 0000000180063610 f i libucrtd:output.obj
 0001:00062a90       ??$type_case_integer@$09@?$output_processor@_WV?$string_output_adapter@_W@__crt_stdio_output@@V?$standard_base@_WV?$string_output_adapter@_W@__crt_stdio_output@@@2@@__crt_stdio_output@@AEAA_N_N@Z 0000000180063a90 f i libucrtd:output.obj
 0001:00062f10       ??$type_case_integer@$0BA@@?$output_processor@DV?$stream_output_adapter@D@__crt_stdio_output@@V?$format_validation_base@DV?$stream_output_adapter@D@__crt_stdio_output@@@2@@__crt_stdio_output@@AEAA_N_N@Z 0000000180063f10 f i libucrtd:output.obj
 0001:00063390       ??$type_case_integer@$0BA@@?$output_processor@DV?$stream_output_adapter@D@__crt_stdio_output@@V?$positional_parameter_base@DV?$stream_output_adapter@D@__crt_stdio_output@@@2@@__crt_stdio_output@@AEAA_N_N@Z 0000000180064390 f i libucrtd:output.obj
 0001:00063810       ??$type_case_integer@$0BA@@?$output_processor@DV?$stream_output_adapter@D@__crt_stdio_output@@V?$standard_base@DV?$stream_output_adapter@D@__crt_stdio_output@@@2@@__crt_stdio_output@@AEAA_N_N@Z 0000000180064810 f i libucrtd:output.obj
 0001:00063c90       ??$type_case_integer@$0BA@@?$output_processor@DV?$string_output_adapter@D@__crt_stdio_output@@V?$format_validation_base@DV?$string_output_adapter@D@__crt_stdio_output@@@2@@__crt_stdio_output@@AEAA_N_N@Z 0000000180064c90 f i libucrtd:output.obj
 0001:00064110       ??$type_case_integer@$0BA@@?$output_processor@DV?$string_output_adapter@D@__crt_stdio_output@@V?$positional_parameter_base@DV?$string_output_adapter@D@__crt_stdio_output@@@2@@__crt_stdio_output@@AEAA_N_N@Z 0000000180065110 f i libucrtd:output.obj
 0001:00064590       ??$type_case_integer@$0BA@@?$output_processor@DV?$string_output_adapter@D@__crt_stdio_output@@V?$standard_base@DV?$string_output_adapter@D@__crt_stdio_output@@@2@@__crt_stdio_output@@AEAA_N_N@Z 0000000180065590 f i libucrtd:output.obj
 0001:00064a10       ??$type_case_integer@$0BA@@?$output_processor@_WV?$stream_output_adapter@_W@__crt_stdio_output@@V?$format_validation_base@_WV?$stream_output_adapter@_W@__crt_stdio_output@@@2@@__crt_stdio_output@@AEAA_N_N@Z 0000000180065a10 f i libucrtd:output.obj
 0001:00064e90       ??$type_case_integer@$0BA@@?$output_processor@_WV?$stream_output_adapter@_W@__crt_stdio_output@@V?$positional_parameter_base@_WV?$stream_output_adapter@_W@__crt_stdio_output@@@2@@__crt_stdio_output@@AEAA_N_N@Z 0000000180065e90 f i libucrtd:output.obj
 0001:00065310       ??$type_case_integer@$0BA@@?$output_processor@_WV?$stream_output_adapter@_W@__crt_stdio_output@@V?$standard_base@_WV?$stream_output_adapter@_W@__crt_stdio_output@@@2@@__crt_stdio_output@@AEAA_N_N@Z 0000000180066310 f i libucrtd:output.obj
 0001:00065790       ??$type_case_integer@$0BA@@?$output_processor@_WV?$string_output_adapter@_W@__crt_stdio_output@@V?$format_validation_base@_WV?$string_output_adapter@_W@__crt_stdio_output@@@2@@__crt_stdio_output@@AEAA_N_N@Z 0000000180066790 f i libucrtd:output.obj
 0001:00065c10       ??$type_case_integer@$0BA@@?$output_processor@_WV?$string_output_adapter@_W@__crt_stdio_output@@V?$positional_parameter_base@_WV?$string_output_adapter@_W@__crt_stdio_output@@@2@@__crt_stdio_output@@AEAA_N_N@Z 0000000180066c10 f i libucrtd:output.obj
 0001:00066090       ??$type_case_integer@$0BA@@?$output_processor@_WV?$string_output_adapter@_W@__crt_stdio_output@@V?$standard_base@_WV?$string_output_adapter@_W@__crt_stdio_output@@@2@@__crt_stdio_output@@AEAA_N_N@Z 0000000180067090 f i libucrtd:output.obj
 0001:00066510       ??$type_case_integer_parse_into_buffer@I$07@?$output_processor@DV?$stream_output_adapter@D@__crt_stdio_output@@V?$format_validation_base@DV?$stream_output_adapter@D@__crt_stdio_output@@@2@@__crt_stdio_output@@AEAAXI_N@Z 0000000180067510 f i libucrtd:output.obj
 0001:00066640       ??$type_case_integer_parse_into_buffer@I$07@?$output_processor@DV?$stream_output_adapter@D@__crt_stdio_output@@V?$positional_parameter_base@DV?$stream_output_adapter@D@__crt_stdio_output@@@2@@__crt_stdio_output@@AEAAXI_N@Z 0000000180067640 f i libucrtd:output.obj
 0001:00066770       ??$type_case_integer_parse_into_buffer@I$07@?$output_processor@DV?$stream_output_adapter@D@__crt_stdio_output@@V?$standard_base@DV?$stream_output_adapter@D@__crt_stdio_output@@@2@@__crt_stdio_output@@AEAAXI_N@Z 0000000180067770 f i libucrtd:output.obj
 0001:000668a0       ??$type_case_integer_parse_into_buffer@I$07@?$output_processor@DV?$string_output_adapter@D@__crt_stdio_output@@V?$format_validation_base@DV?$string_output_adapter@D@__crt_stdio_output@@@2@@__crt_stdio_output@@AEAAXI_N@Z 00000001800678a0 f i libucrtd:output.obj
 0001:000669d0       ??$type_case_integer_parse_into_buffer@I$07@?$output_processor@DV?$string_output_adapter@D@__crt_stdio_output@@V?$positional_parameter_base@DV?$string_output_adapter@D@__crt_stdio_output@@@2@@__crt_stdio_output@@AEAAXI_N@Z 00000001800679d0 f i libucrtd:output.obj
 0001:00066b00       ??$type_case_integer_parse_into_buffer@I$07@?$output_processor@DV?$string_output_adapter@D@__crt_stdio_output@@V?$standard_base@DV?$string_output_adapter@D@__crt_stdio_output@@@2@@__crt_stdio_output@@AEAAXI_N@Z 0000000180067b00 f i libucrtd:output.obj
 0001:00066c30       ??$type_case_integer_parse_into_buffer@I$07@?$output_processor@_WV?$stream_output_adapter@_W@__crt_stdio_output@@V?$format_validation_base@_WV?$stream_output_adapter@_W@__crt_stdio_output@@@2@@__crt_stdio_output@@AEAAXI_N@Z 0000000180067c30 f i libucrtd:output.obj
 0001:00066d70       ??$type_case_integer_parse_into_buffer@I$07@?$output_processor@_WV?$stream_output_adapter@_W@__crt_stdio_output@@V?$positional_parameter_base@_WV?$stream_output_adapter@_W@__crt_stdio_output@@@2@@__crt_stdio_output@@AEAAXI_N@Z 0000000180067d70 f i libucrtd:output.obj
 0001:00066eb0       ??$type_case_integer_parse_into_buffer@I$07@?$output_processor@_WV?$stream_output_adapter@_W@__crt_stdio_output@@V?$standard_base@_WV?$stream_output_adapter@_W@__crt_stdio_output@@@2@@__crt_stdio_output@@AEAAXI_N@Z 0000000180067eb0 f i libucrtd:output.obj
 0001:00066ff0       ??$type_case_integer_parse_into_buffer@I$07@?$output_processor@_WV?$string_output_adapter@_W@__crt_stdio_output@@V?$format_validation_base@_WV?$string_output_adapter@_W@__crt_stdio_output@@@2@@__crt_stdio_output@@AEAAXI_N@Z 0000000180067ff0 f i libucrtd:output.obj
 0001:00067130       ??$type_case_integer_parse_into_buffer@I$07@?$output_processor@_WV?$string_output_adapter@_W@__crt_stdio_output@@V?$positional_parameter_base@_WV?$string_output_adapter@_W@__crt_stdio_output@@@2@@__crt_stdio_output@@AEAAXI_N@Z 0000000180068130 f i libucrtd:output.obj
 0001:00067270       ??$type_case_integer_parse_into_buffer@I$07@?$output_processor@_WV?$string_output_adapter@_W@__crt_stdio_output@@V?$standard_base@_WV?$string_output_adapter@_W@__crt_stdio_output@@@2@@__crt_stdio_output@@AEAAXI_N@Z 0000000180068270 f i libucrtd:output.obj
 0001:000673b0       ??$type_case_integer_parse_into_buffer@I$09@?$output_processor@DV?$stream_output_adapter@D@__crt_stdio_output@@V?$format_validation_base@DV?$stream_output_adapter@D@__crt_stdio_output@@@2@@__crt_stdio_output@@AEAAXI_N@Z 00000001800683b0 f i libucrtd:output.obj
 0001:000674e0       ??$type_case_integer_parse_into_buffer@I$09@?$output_processor@DV?$stream_output_adapter@D@__crt_stdio_output@@V?$positional_parameter_base@DV?$stream_output_adapter@D@__crt_stdio_output@@@2@@__crt_stdio_output@@AEAAXI_N@Z 00000001800684e0 f i libucrtd:output.obj
 0001:00067610       ??$type_case_integer_parse_into_buffer@I$09@?$output_processor@DV?$stream_output_adapter@D@__crt_stdio_output@@V?$standard_base@DV?$stream_output_adapter@D@__crt_stdio_output@@@2@@__crt_stdio_output@@AEAAXI_N@Z 0000000180068610 f i libucrtd:output.obj
 0001:00067740       ??$type_case_integer_parse_into_buffer@I$09@?$output_processor@DV?$string_output_adapter@D@__crt_stdio_output@@V?$format_validation_base@DV?$string_output_adapter@D@__crt_stdio_output@@@2@@__crt_stdio_output@@AEAAXI_N@Z 0000000180068740 f i libucrtd:output.obj
 0001:00067870       ??$type_case_integer_parse_into_buffer@I$09@?$output_processor@DV?$string_output_adapter@D@__crt_stdio_output@@V?$positional_parameter_base@DV?$string_output_adapter@D@__crt_stdio_output@@@2@@__crt_stdio_output@@AEAAXI_N@Z 0000000180068870 f i libucrtd:output.obj
 0001:000679a0       ??$type_case_integer_parse_into_buffer@I$09@?$output_processor@DV?$string_output_adapter@D@__crt_stdio_output@@V?$standard_base@DV?$string_output_adapter@D@__crt_stdio_output@@@2@@__crt_stdio_output@@AEAAXI_N@Z 00000001800689a0 f i libucrtd:output.obj
 0001:00067ad0       ??$type_case_integer_parse_into_buffer@I$09@?$output_processor@_WV?$stream_output_adapter@_W@__crt_stdio_output@@V?$format_validation_base@_WV?$stream_output_adapter@_W@__crt_stdio_output@@@2@@__crt_stdio_output@@AEAAXI_N@Z 0000000180068ad0 f i libucrtd:output.obj
 0001:00067c10       ??$type_case_integer_parse_into_buffer@I$09@?$output_processor@_WV?$stream_output_adapter@_W@__crt_stdio_output@@V?$positional_parameter_base@_WV?$stream_output_adapter@_W@__crt_stdio_output@@@2@@__crt_stdio_output@@AEAAXI_N@Z 0000000180068c10 f i libucrtd:output.obj
 0001:00067d50       ??$type_case_integer_parse_into_buffer@I$09@?$output_processor@_WV?$stream_output_adapter@_W@__crt_stdio_output@@V?$standard_base@_WV?$stream_output_adapter@_W@__crt_stdio_output@@@2@@__crt_stdio_output@@AEAAXI_N@Z 0000000180068d50 f i libucrtd:output.obj
 0001:00067e90       ??$type_case_integer_parse_into_buffer@I$09@?$output_processor@_WV?$string_output_adapter@_W@__crt_stdio_output@@V?$format_validation_base@_WV?$string_output_adapter@_W@__crt_stdio_output@@@2@@__crt_stdio_output@@AEAAXI_N@Z 0000000180068e90 f i libucrtd:output.obj
 0001:00067fd0       ??$type_case_integer_parse_into_buffer@I$09@?$output_processor@_WV?$string_output_adapter@_W@__crt_stdio_output@@V?$positional_parameter_base@_WV?$string_output_adapter@_W@__crt_stdio_output@@@2@@__crt_stdio_output@@AEAAXI_N@Z 0000000180068fd0 f i libucrtd:output.obj
 0001:00068110       ??$type_case_integer_parse_into_buffer@I$09@?$output_processor@_WV?$string_output_adapter@_W@__crt_stdio_output@@V?$standard_base@_WV?$string_output_adapter@_W@__crt_stdio_output@@@2@@__crt_stdio_output@@AEAAXI_N@Z 0000000180069110 f i libucrtd:output.obj
 0001:00068250       ??$type_case_integer_parse_into_buffer@I$0BA@@?$output_processor@DV?$stream_output_adapter@D@__crt_stdio_output@@V?$format_validation_base@DV?$stream_output_adapter@D@__crt_stdio_output@@@2@@__crt_stdio_output@@AEAAXI_N@Z 0000000180069250 f i libucrtd:output.obj
 0001:00068380       ??$type_case_integer_parse_into_buffer@I$0BA@@?$output_processor@DV?$stream_output_adapter@D@__crt_stdio_output@@V?$positional_parameter_base@DV?$stream_output_adapter@D@__crt_stdio_output@@@2@@__crt_stdio_output@@AEAAXI_N@Z 0000000180069380 f i libucrtd:output.obj
 0001:000684b0       ??$type_case_integer_parse_into_buffer@I$0BA@@?$output_processor@DV?$stream_output_adapter@D@__crt_stdio_output@@V?$standard_base@DV?$stream_output_adapter@D@__crt_stdio_output@@@2@@__crt_stdio_output@@AEAAXI_N@Z 00000001800694b0 f i libucrtd:output.obj
 0001:000685e0       ??$type_case_integer_parse_into_buffer@I$0BA@@?$output_processor@DV?$string_output_adapter@D@__crt_stdio_output@@V?$format_validation_base@DV?$string_output_adapter@D@__crt_stdio_output@@@2@@__crt_stdio_output@@AEAAXI_N@Z 00000001800695e0 f i libucrtd:output.obj
 0001:00068710       ??$type_case_integer_parse_into_buffer@I$0BA@@?$output_processor@DV?$string_output_adapter@D@__crt_stdio_output@@V?$positional_parameter_base@DV?$string_output_adapter@D@__crt_stdio_output@@@2@@__crt_stdio_output@@AEAAXI_N@Z 0000000180069710 f i libucrtd:output.obj
 0001:00068840       ??$type_case_integer_parse_into_buffer@I$0BA@@?$output_processor@DV?$string_output_adapter@D@__crt_stdio_output@@V?$standard_base@DV?$string_output_adapter@D@__crt_stdio_output@@@2@@__crt_stdio_output@@AEAAXI_N@Z 0000000180069840 f i libucrtd:output.obj
 0001:00068970       ??$type_case_integer_parse_into_buffer@I$0BA@@?$output_processor@_WV?$stream_output_adapter@_W@__crt_stdio_output@@V?$format_validation_base@_WV?$stream_output_adapter@_W@__crt_stdio_output@@@2@@__crt_stdio_output@@AEAAXI_N@Z 0000000180069970 f i libucrtd:output.obj
 0001:00068ab0       ??$type_case_integer_parse_into_buffer@I$0BA@@?$output_processor@_WV?$stream_output_adapter@_W@__crt_stdio_output@@V?$positional_parameter_base@_WV?$stream_output_adapter@_W@__crt_stdio_output@@@2@@__crt_stdio_output@@AEAAXI_N@Z 0000000180069ab0 f i libucrtd:output.obj
 0001:00068bf0       ??$type_case_integer_parse_into_buffer@I$0BA@@?$output_processor@_WV?$stream_output_adapter@_W@__crt_stdio_output@@V?$standard_base@_WV?$stream_output_adapter@_W@__crt_stdio_output@@@2@@__crt_stdio_output@@AEAAXI_N@Z 0000000180069bf0 f i libucrtd:output.obj
 0001:00068d30       ??$type_case_integer_parse_into_buffer@I$0BA@@?$output_processor@_WV?$string_output_adapter@_W@__crt_stdio_output@@V?$format_validation_base@_WV?$string_output_adapter@_W@__crt_stdio_output@@@2@@__crt_stdio_output@@AEAAXI_N@Z 0000000180069d30 f i libucrtd:output.obj
 0001:00068e70       ??$type_case_integer_parse_into_buffer@I$0BA@@?$output_processor@_WV?$string_output_adapter@_W@__crt_stdio_output@@V?$positional_parameter_base@_WV?$string_output_adapter@_W@__crt_stdio_output@@@2@@__crt_stdio_output@@AEAAXI_N@Z 0000000180069e70 f i libucrtd:output.obj
 0001:00068fb0       ??$type_case_integer_parse_into_buffer@I$0BA@@?$output_processor@_WV?$string_output_adapter@_W@__crt_stdio_output@@V?$standard_base@_WV?$string_output_adapter@_W@__crt_stdio_output@@@2@@__crt_stdio_output@@AEAAXI_N@Z 0000000180069fb0 f i libucrtd:output.obj
 0001:000690f0       ??$type_case_integer_parse_into_buffer@_K$07@?$output_processor@DV?$stream_output_adapter@D@__crt_stdio_output@@V?$format_validation_base@DV?$stream_output_adapter@D@__crt_stdio_output@@@2@@__crt_stdio_output@@AEAAX_K_N@Z 000000018006a0f0 f i libucrtd:output.obj
 0001:00069230       ??$type_case_integer_parse_into_buffer@_K$07@?$output_processor@DV?$stream_output_adapter@D@__crt_stdio_output@@V?$positional_parameter_base@DV?$stream_output_adapter@D@__crt_stdio_output@@@2@@__crt_stdio_output@@AEAAX_K_N@Z 000000018006a230 f i libucrtd:output.obj
 0001:00069370       ??$type_case_integer_parse_into_buffer@_K$07@?$output_processor@DV?$stream_output_adapter@D@__crt_stdio_output@@V?$standard_base@DV?$stream_output_adapter@D@__crt_stdio_output@@@2@@__crt_stdio_output@@AEAAX_K_N@Z 000000018006a370 f i libucrtd:output.obj
 0001:000694b0       ??$type_case_integer_parse_into_buffer@_K$07@?$output_processor@DV?$string_output_adapter@D@__crt_stdio_output@@V?$format_validation_base@DV?$string_output_adapter@D@__crt_stdio_output@@@2@@__crt_stdio_output@@AEAAX_K_N@Z 000000018006a4b0 f i libucrtd:output.obj
 0001:000695f0       ??$type_case_integer_parse_into_buffer@_K$07@?$output_processor@DV?$string_output_adapter@D@__crt_stdio_output@@V?$positional_parameter_base@DV?$string_output_adapter@D@__crt_stdio_output@@@2@@__crt_stdio_output@@AEAAX_K_N@Z 000000018006a5f0 f i libucrtd:output.obj
 0001:00069730       ??$type_case_integer_parse_into_buffer@_K$07@?$output_processor@DV?$string_output_adapter@D@__crt_stdio_output@@V?$standard_base@DV?$string_output_adapter@D@__crt_stdio_output@@@2@@__crt_stdio_output@@AEAAX_K_N@Z 000000018006a730 f i libucrtd:output.obj
 0001:00069870       ??$type_case_integer_parse_into_buffer@_K$07@?$output_processor@_WV?$stream_output_adapter@_W@__crt_stdio_output@@V?$format_validation_base@_WV?$stream_output_adapter@_W@__crt_stdio_output@@@2@@__crt_stdio_output@@AEAAX_K_N@Z 000000018006a870 f i libucrtd:output.obj
 0001:000699b0       ??$type_case_integer_parse_into_buffer@_K$07@?$output_processor@_WV?$stream_output_adapter@_W@__crt_stdio_output@@V?$positional_parameter_base@_WV?$stream_output_adapter@_W@__crt_stdio_output@@@2@@__crt_stdio_output@@AEAAX_K_N@Z 000000018006a9b0 f i libucrtd:output.obj
 0001:00069af0       ??$type_case_integer_parse_into_buffer@_K$07@?$output_processor@_WV?$stream_output_adapter@_W@__crt_stdio_output@@V?$standard_base@_WV?$stream_output_adapter@_W@__crt_stdio_output@@@2@@__crt_stdio_output@@AEAAX_K_N@Z 000000018006aaf0 f i libucrtd:output.obj
 0001:00069c30       ??$type_case_integer_parse_into_buffer@_K$07@?$output_processor@_WV?$string_output_adapter@_W@__crt_stdio_output@@V?$format_validation_base@_WV?$string_output_adapter@_W@__crt_stdio_output@@@2@@__crt_stdio_output@@AEAAX_K_N@Z 000000018006ac30 f i libucrtd:output.obj
 0001:00069d70       ??$type_case_integer_parse_into_buffer@_K$07@?$output_processor@_WV?$string_output_adapter@_W@__crt_stdio_output@@V?$positional_parameter_base@_WV?$string_output_adapter@_W@__crt_stdio_output@@@2@@__crt_stdio_output@@AEAAX_K_N@Z 000000018006ad70 f i libucrtd:output.obj
 0001:00069eb0       ??$type_case_integer_parse_into_buffer@_K$07@?$output_processor@_WV?$string_output_adapter@_W@__crt_stdio_output@@V?$standard_base@_WV?$string_output_adapter@_W@__crt_stdio_output@@@2@@__crt_stdio_output@@AEAAX_K_N@Z 000000018006aeb0 f i libucrtd:output.obj
 0001:00069ff0       ??$type_case_integer_parse_into_buffer@_K$09@?$output_processor@DV?$stream_output_adapter@D@__crt_stdio_output@@V?$format_validation_base@DV?$stream_output_adapter@D@__crt_stdio_output@@@2@@__crt_stdio_output@@AEAAX_K_N@Z 000000018006aff0 f i libucrtd:output.obj
 0001:0006a130       ??$type_case_integer_parse_into_buffer@_K$09@?$output_processor@DV?$stream_output_adapter@D@__crt_stdio_output@@V?$positional_parameter_base@DV?$stream_output_adapter@D@__crt_stdio_output@@@2@@__crt_stdio_output@@AEAAX_K_N@Z 000000018006b130 f i libucrtd:output.obj
 0001:0006a270       ??$type_case_integer_parse_into_buffer@_K$09@?$output_processor@DV?$stream_output_adapter@D@__crt_stdio_output@@V?$standard_base@DV?$stream_output_adapter@D@__crt_stdio_output@@@2@@__crt_stdio_output@@AEAAX_K_N@Z 000000018006b270 f i libucrtd:output.obj
 0001:0006a3b0       ??$type_case_integer_parse_into_buffer@_K$09@?$output_processor@DV?$string_output_adapter@D@__crt_stdio_output@@V?$format_validation_base@DV?$string_output_adapter@D@__crt_stdio_output@@@2@@__crt_stdio_output@@AEAAX_K_N@Z 000000018006b3b0 f i libucrtd:output.obj
 0001:0006a4f0       ??$type_case_integer_parse_into_buffer@_K$09@?$output_processor@DV?$string_output_adapter@D@__crt_stdio_output@@V?$positional_parameter_base@DV?$string_output_adapter@D@__crt_stdio_output@@@2@@__crt_stdio_output@@AEAAX_K_N@Z 000000018006b4f0 f i libucrtd:output.obj
 0001:0006a630       ??$type_case_integer_parse_into_buffer@_K$09@?$output_processor@DV?$string_output_adapter@D@__crt_stdio_output@@V?$standard_base@DV?$string_output_adapter@D@__crt_stdio_output@@@2@@__crt_stdio_output@@AEAAX_K_N@Z 000000018006b630 f i libucrtd:output.obj
 0001:0006a770       ??$type_case_integer_parse_into_buffer@_K$09@?$output_processor@_WV?$stream_output_adapter@_W@__crt_stdio_output@@V?$format_validation_base@_WV?$stream_output_adapter@_W@__crt_stdio_output@@@2@@__crt_stdio_output@@AEAAX_K_N@Z 000000018006b770 f i libucrtd:output.obj
 0001:0006a8b0       ??$type_case_integer_parse_into_buffer@_K$09@?$output_processor@_WV?$stream_output_adapter@_W@__crt_stdio_output@@V?$positional_parameter_base@_WV?$stream_output_adapter@_W@__crt_stdio_output@@@2@@__crt_stdio_output@@AEAAX_K_N@Z 000000018006b8b0 f i libucrtd:output.obj
 0001:0006a9f0       ??$type_case_integer_parse_into_buffer@_K$09@?$output_processor@_WV?$stream_output_adapter@_W@__crt_stdio_output@@V?$standard_base@_WV?$stream_output_adapter@_W@__crt_stdio_output@@@2@@__crt_stdio_output@@AEAAX_K_N@Z 000000018006b9f0 f i libucrtd:output.obj
 0001:0006ab30       ??$type_case_integer_parse_into_buffer@_K$09@?$output_processor@_WV?$string_output_adapter@_W@__crt_stdio_output@@V?$format_validation_base@_WV?$string_output_adapter@_W@__crt_stdio_output@@@2@@__crt_stdio_output@@AEAAX_K_N@Z 000000018006bb30 f i libucrtd:output.obj
 0001:0006ac70       ??$type_case_integer_parse_into_buffer@_K$09@?$output_processor@_WV?$string_output_adapter@_W@__crt_stdio_output@@V?$positional_parameter_base@_WV?$string_output_adapter@_W@__crt_stdio_output@@@2@@__crt_stdio_output@@AEAAX_K_N@Z 000000018006bc70 f i libucrtd:output.obj
 0001:0006adb0       ??$type_case_integer_parse_into_buffer@_K$09@?$output_processor@_WV?$string_output_adapter@_W@__crt_stdio_output@@V?$standard_base@_WV?$string_output_adapter@_W@__crt_stdio_output@@@2@@__crt_stdio_output@@AEAAX_K_N@Z 000000018006bdb0 f i libucrtd:output.obj
 0001:0006aef0       ??$type_case_integer_parse_into_buffer@_K$0BA@@?$output_processor@DV?$stream_output_adapter@D@__crt_stdio_output@@V?$format_validation_base@DV?$stream_output_adapter@D@__crt_stdio_output@@@2@@__crt_stdio_output@@AEAAX_K_N@Z 000000018006bef0 f i libucrtd:output.obj
 0001:0006b030       ??$type_case_integer_parse_into_buffer@_K$0BA@@?$output_processor@DV?$stream_output_adapter@D@__crt_stdio_output@@V?$positional_parameter_base@DV?$stream_output_adapter@D@__crt_stdio_output@@@2@@__crt_stdio_output@@AEAAX_K_N@Z 000000018006c030 f i libucrtd:output.obj
 0001:0006b170       ??$type_case_integer_parse_into_buffer@_K$0BA@@?$output_processor@DV?$stream_output_adapter@D@__crt_stdio_output@@V?$standard_base@DV?$stream_output_adapter@D@__crt_stdio_output@@@2@@__crt_stdio_output@@AEAAX_K_N@Z 000000018006c170 f i libucrtd:output.obj
 0001:0006b2b0       ??$type_case_integer_parse_into_buffer@_K$0BA@@?$output_processor@DV?$string_output_adapter@D@__crt_stdio_output@@V?$format_validation_base@DV?$string_output_adapter@D@__crt_stdio_output@@@2@@__crt_stdio_output@@AEAAX_K_N@Z 000000018006c2b0 f i libucrtd:output.obj
 0001:0006b3f0       ??$type_case_integer_parse_into_buffer@_K$0BA@@?$output_processor@DV?$string_output_adapter@D@__crt_stdio_output@@V?$positional_parameter_base@DV?$string_output_adapter@D@__crt_stdio_output@@@2@@__crt_stdio_output@@AEAAX_K_N@Z 000000018006c3f0 f i libucrtd:output.obj
 0001:0006b530       ??$type_case_integer_parse_into_buffer@_K$0BA@@?$output_processor@DV?$string_output_adapter@D@__crt_stdio_output@@V?$standard_base@DV?$string_output_adapter@D@__crt_stdio_output@@@2@@__crt_stdio_output@@AEAAX_K_N@Z 000000018006c530 f i libucrtd:output.obj
 0001:0006b670       ??$type_case_integer_parse_into_buffer@_K$0BA@@?$output_processor@_WV?$stream_output_adapter@_W@__crt_stdio_output@@V?$format_validation_base@_WV?$stream_output_adapter@_W@__crt_stdio_output@@@2@@__crt_stdio_output@@AEAAX_K_N@Z 000000018006c670 f i libucrtd:output.obj
 0001:0006b7b0       ??$type_case_integer_parse_into_buffer@_K$0BA@@?$output_processor@_WV?$stream_output_adapter@_W@__crt_stdio_output@@V?$positional_parameter_base@_WV?$stream_output_adapter@_W@__crt_stdio_output@@@2@@__crt_stdio_output@@AEAAX_K_N@Z 000000018006c7b0 f i libucrtd:output.obj
 0001:0006b8f0       ??$type_case_integer_parse_into_buffer@_K$0BA@@?$output_processor@_WV?$stream_output_adapter@_W@__crt_stdio_output@@V?$standard_base@_WV?$stream_output_adapter@_W@__crt_stdio_output@@@2@@__crt_stdio_output@@AEAAX_K_N@Z 000000018006c8f0 f i libucrtd:output.obj
 0001:0006ba30       ??$type_case_integer_parse_into_buffer@_K$0BA@@?$output_processor@_WV?$string_output_adapter@_W@__crt_stdio_output@@V?$format_validation_base@_WV?$string_output_adapter@_W@__crt_stdio_output@@@2@@__crt_stdio_output@@AEAAX_K_N@Z 000000018006ca30 f i libucrtd:output.obj
 0001:0006bb70       ??$type_case_integer_parse_into_buffer@_K$0BA@@?$output_processor@_WV?$string_output_adapter@_W@__crt_stdio_output@@V?$positional_parameter_base@_WV?$string_output_adapter@_W@__crt_stdio_output@@@2@@__crt_stdio_output@@AEAAX_K_N@Z 000000018006cb70 f i libucrtd:output.obj
 0001:0006bcb0       ??$type_case_integer_parse_into_buffer@_K$0BA@@?$output_processor@_WV?$string_output_adapter@_W@__crt_stdio_output@@V?$standard_base@_WV?$string_output_adapter@_W@__crt_stdio_output@@@2@@__crt_stdio_output@@AEAAX_K_N@Z 000000018006ccb0 f i libucrtd:output.obj
 0001:0006bdf0       ??$write_multiple_characters@V?$stream_output_adapter@D@__crt_stdio_output@@D@__crt_stdio_output@@YAXAEBV?$stream_output_adapter@D@0@DHQEAHAEAV__crt_cached_ptd_host@@@Z 000000018006cdf0 f i libucrtd:output.obj
 0001:0006be60       ??$write_multiple_characters@V?$stream_output_adapter@_W@__crt_stdio_output@@D@__crt_stdio_output@@YAXAEBV?$stream_output_adapter@_W@0@DHQEAHAEAV__crt_cached_ptd_host@@@Z 000000018006ce60 f i libucrtd:output.obj
 0001:0006bed0       ??$write_multiple_characters@V?$string_output_adapter@D@__crt_stdio_output@@D@__crt_stdio_output@@YAXAEBV?$string_output_adapter@D@0@DHQEAHAEAV__crt_cached_ptd_host@@@Z 000000018006ced0 f i libucrtd:output.obj
 0001:0006bf40       ??$write_multiple_characters@V?$string_output_adapter@_W@__crt_stdio_output@@D@__crt_stdio_output@@YAXAEBV?$string_output_adapter@_W@0@DHQEAHAEAV__crt_cached_ptd_host@@@Z 000000018006cf40 f i libucrtd:output.obj
 0001:0006c370       ??0?$c_string_character_source@D@__crt_strtox@@QEAA@QEBDQEAPEBD@Z 000000018006d370 f i libucrtd:output.obj
 0001:0006c3c0       ??0?$c_string_character_source@_W@__crt_strtox@@QEAA@QEB_WQEAPEB_W@Z 000000018006d3c0 f i libucrtd:output.obj
 0001:0006c410       ??0?$cached@H@__crt_cached_ptd_host@@QEAA@XZ 000000018006d410 f i libucrtd:output.obj
 0001:0006c430       ??0?$cached@K@__crt_cached_ptd_host@@QEAA@XZ 000000018006d430 f i libucrtd:output.obj
 0001:0006c450       ??0?$common_data@D@__crt_stdio_output@@IEAA@AEAV__crt_cached_ptd_host@@@Z 000000018006d450 f i libucrtd:output.obj
 0001:0006c510       ??0?$common_data@_W@__crt_stdio_output@@IEAA@AEAV__crt_cached_ptd_host@@@Z 000000018006d510 f i libucrtd:output.obj
 0001:0006c5d0       ??0?$output_adapter_data@DV?$stream_output_adapter@D@__crt_stdio_output@@@__crt_stdio_output@@IEAA@AEBV?$stream_output_adapter@D@1@_KQEBDAEAV__crt_cached_ptd_host@@QEAD@Z 000000018006d5d0 f i libucrtd:output.obj
 0001:0006c650       ??0?$output_adapter_data@DV?$string_output_adapter@D@__crt_stdio_output@@@__crt_stdio_output@@IEAA@AEBV?$string_output_adapter@D@1@_KQEBDAEAV__crt_cached_ptd_host@@QEAD@Z 000000018006d650 f i libucrtd:output.obj
 0001:0006c6d0       ??0?$output_adapter_data@_WV?$stream_output_adapter@_W@__crt_stdio_output@@@__crt_stdio_output@@IEAA@AEBV?$stream_output_adapter@_W@1@_KQEB_WAEAV__crt_cached_ptd_host@@QEAD@Z 000000018006d6d0 f i libucrtd:output.obj
 0001:0006c750       ??0?$output_adapter_data@_WV?$string_output_adapter@_W@__crt_stdio_output@@@__crt_stdio_output@@IEAA@AEBV?$string_output_adapter@_W@1@_KQEB_WAEAV__crt_cached_ptd_host@@QEAD@Z 000000018006d750 f i libucrtd:output.obj
 0001:0006c7d0       ??0?$output_processor@DV?$stream_output_adapter@D@__crt_stdio_output@@V?$format_validation_base@DV?$stream_output_adapter@D@__crt_stdio_output@@@2@@__crt_stdio_output@@QEAA@AEBV?$stream_output_adapter@D@1@_KQEBDAEAV__crt_cached_ptd_host@@QEAD@Z 000000018006d7d0 f i libucrtd:output.obj
 0001:0006c820       ??0?$output_processor@DV?$stream_output_adapter@D@__crt_stdio_output@@V?$positional_parameter_base@DV?$stream_output_adapter@D@__crt_stdio_output@@@2@@__crt_stdio_output@@QEAA@AEBV?$stream_output_adapter@D@1@_KQEBDAEAV__crt_cached_ptd_host@@QEAD@Z 000000018006d820 f i libucrtd:output.obj
 0001:0006c870       ??0?$output_processor@DV?$stream_output_adapter@D@__crt_stdio_output@@V?$standard_base@DV?$stream_output_adapter@D@__crt_stdio_output@@@2@@__crt_stdio_output@@QEAA@AEBV?$stream_output_adapter@D@1@_KQEBDAEAV__crt_cached_ptd_host@@QEAD@Z 000000018006d870 f i libucrtd:output.obj
 0001:0006c8c0       ??0?$output_processor@DV?$string_output_adapter@D@__crt_stdio_output@@V?$format_validation_base@DV?$string_output_adapter@D@__crt_stdio_output@@@2@@__crt_stdio_output@@QEAA@AEBV?$string_output_adapter@D@1@_KQEBDAEAV__crt_cached_ptd_host@@QEAD@Z 000000018006d8c0 f i libucrtd:output.obj
 0001:0006c910       ??0?$output_processor@DV?$string_output_adapter@D@__crt_stdio_output@@V?$positional_parameter_base@DV?$string_output_adapter@D@__crt_stdio_output@@@2@@__crt_stdio_output@@QEAA@AEBV?$string_output_adapter@D@1@_KQEBDAEAV__crt_cached_ptd_host@@QEAD@Z 000000018006d910 f i libucrtd:output.obj
 0001:0006c960       ??0?$output_processor@DV?$string_output_adapter@D@__crt_stdio_output@@V?$standard_base@DV?$string_output_adapter@D@__crt_stdio_output@@@2@@__crt_stdio_output@@QEAA@AEBV?$string_output_adapter@D@1@_KQEBDAEAV__crt_cached_ptd_host@@QEAD@Z 000000018006d960 f i libucrtd:output.obj
 0001:0006c9b0       ??0?$output_processor@_WV?$stream_output_adapter@_W@__crt_stdio_output@@V?$format_validation_base@_WV?$stream_output_adapter@_W@__crt_stdio_output@@@2@@__crt_stdio_output@@QEAA@AEBV?$stream_output_adapter@_W@1@_KQEB_WAEAV__crt_cached_ptd_host@@QEAD@Z 000000018006d9b0 f i libucrtd:output.obj
 0001:0006ca00       ??0?$output_processor@_WV?$stream_output_adapter@_W@__crt_stdio_output@@V?$positional_parameter_base@_WV?$stream_output_adapter@_W@__crt_stdio_output@@@2@@__crt_stdio_output@@QEAA@AEBV?$stream_output_adapter@_W@1@_KQEB_WAEAV__crt_cached_ptd_host@@QEAD@Z 000000018006da00 f i libucrtd:output.obj
 0001:0006ca50       ??0?$output_processor@_WV?$stream_output_adapter@_W@__crt_stdio_output@@V?$standard_base@_WV?$stream_output_adapter@_W@__crt_stdio_output@@@2@@__crt_stdio_output@@QEAA@AEBV?$stream_output_adapter@_W@1@_KQEB_WAEAV__crt_cached_ptd_host@@QEAD@Z 000000018006da50 f i libucrtd:output.obj
 0001:0006caa0       ??0?$output_processor@_WV?$string_output_adapter@_W@__crt_stdio_output@@V?$format_validation_base@_WV?$string_output_adapter@_W@__crt_stdio_output@@@2@@__crt_stdio_output@@QEAA@AEBV?$string_output_adapter@_W@1@_KQEB_WAEAV__crt_cached_ptd_host@@QEAD@Z 000000018006daa0 f i libucrtd:output.obj
 0001:0006caf0       ??0?$output_processor@_WV?$string_output_adapter@_W@__crt_stdio_output@@V?$positional_parameter_base@_WV?$string_output_adapter@_W@__crt_stdio_output@@@2@@__crt_stdio_output@@QEAA@AEBV?$string_output_adapter@_W@1@_KQEB_WAEAV__crt_cached_ptd_host@@QEAD@Z 000000018006daf0 f i libucrtd:output.obj
 0001:0006cb40       ??0?$output_processor@_WV?$string_output_adapter@_W@__crt_stdio_output@@V?$standard_base@_WV?$string_output_adapter@_W@__crt_stdio_output@@@2@@__crt_stdio_output@@QEAA@AEBV?$string_output_adapter@_W@1@_KQEB_WAEAV__crt_cached_ptd_host@@QEAD@Z 000000018006db40 f i libucrtd:output.obj
 0001:0006cb90       ??0?$stream_output_adapter@D@__crt_stdio_output@@QEAA@QEAU_iobuf@@@Z 000000018006db90 f i libucrtd:output.obj
 0001:0006cbd0       ??0?$stream_output_adapter@_W@__crt_stdio_output@@QEAA@QEAU_iobuf@@@Z 000000018006dbd0 f i libucrtd:output.obj
 0001:0006cc10       ??0?$string_output_adapter@D@__crt_stdio_output@@QEAA@QEAU?$string_output_adapter_context@D@1@@Z 000000018006dc10 f i libucrtd:output.obj
 0001:0006cc30       ??0?$string_output_adapter@_W@__crt_stdio_output@@QEAA@QEAU?$string_output_adapter_context@_W@1@@Z 000000018006dc30 f i libucrtd:output.obj
 0001:0006cc50       ??0__acrt_stdio_temporary_buffering_guard@@QEAA@QEAU_iobuf@@AEAV__crt_cached_ptd_host@@@Z 000000018006dc50 f i libucrtd:output.obj
 0001:0006cca0       ??0__crt_cached_ptd_host@@QEAA@QEAU__crt_locale_pointers@@@Z 000000018006dca0 f i libucrtd:output.obj
 0001:0006cd60       ??0__crt_scoped_get_last_error_reset@@QEAA@XZ 000000018006dd60 f i libucrtd:output.obj
 0001:0006cd80       ??0__crt_stdio_stream@@QEAA@QEAU_iobuf@@@Z 000000018006dd80 f i libucrtd:output.obj
 0001:0006cda0       ??0formatting_buffer@__crt_stdio_output@@QEAA@XZ 000000018006dda0 f i libucrtd:output.obj
 0001:0006cde0       ??0guard@?$cached@H@__crt_cached_ptd_host@@QEAA@AEAU12@@Z 000000018006dde0 f i libucrtd:output.obj
 0001:0006ce20       ??1?$c_string_character_source@D@__crt_strtox@@QEAA@XZ 000000018006de20 f i libucrtd:output.obj
 0001:0006ce50       ??1?$c_string_character_source@_W@__crt_strtox@@QEAA@XZ 000000018006de50 f i libucrtd:output.obj
 0001:0006ce80       ??1?$common_data@D@__crt_stdio_output@@QEAA@XZ 000000018006de80 f i libucrtd:output.obj
 0001:0006cea0       ??1?$common_data@_W@__crt_stdio_output@@QEAA@XZ 000000018006dea0 f i libucrtd:output.obj
 0001:0006cec0       ??1?$format_validation_base@DV?$stream_output_adapter@D@__crt_stdio_output@@@__crt_stdio_output@@QEAA@XZ 000000018006dec0 f i libucrtd:output.obj
 0001:0006cee0       ??1?$format_validation_base@DV?$string_output_adapter@D@__crt_stdio_output@@@__crt_stdio_output@@QEAA@XZ 000000018006dee0 f i libucrtd:output.obj
 0001:0006cf00       ??1?$format_validation_base@_WV?$stream_output_adapter@_W@__crt_stdio_output@@@__crt_stdio_output@@QEAA@XZ 000000018006df00 f i libucrtd:output.obj
 0001:0006cf20       ??1?$format_validation_base@_WV?$string_output_adapter@_W@__crt_stdio_output@@@__crt_stdio_output@@QEAA@XZ 000000018006df20 f i libucrtd:output.obj
 0001:0006cf40       ??1?$output_adapter_data@DV?$stream_output_adapter@D@__crt_stdio_output@@@__crt_stdio_output@@QEAA@XZ 000000018006df40 f i libucrtd:output.obj
 0001:0006cf60       ??1?$output_adapter_data@DV?$string_output_adapter@D@__crt_stdio_output@@@__crt_stdio_output@@QEAA@XZ 000000018006df60 f i libucrtd:output.obj
 0001:0006cf80       ??1?$output_adapter_data@_WV?$stream_output_adapter@_W@__crt_stdio_output@@@__crt_stdio_output@@QEAA@XZ 000000018006df80 f i libucrtd:output.obj
 0001:0006cfa0       ??1?$output_adapter_data@_WV?$string_output_adapter@_W@__crt_stdio_output@@@__crt_stdio_output@@QEAA@XZ 000000018006dfa0 f i libucrtd:output.obj
 0001:0006cfc0       ??1?$output_processor@DV?$stream_output_adapter@D@__crt_stdio_output@@V?$format_validation_base@DV?$stream_output_adapter@D@__crt_stdio_output@@@2@@__crt_stdio_output@@QEAA@XZ 000000018006dfc0 f i libucrtd:output.obj
 0001:0006cfe0       ??1?$output_processor@DV?$stream_output_adapter@D@__crt_stdio_output@@V?$positional_parameter_base@DV?$stream_output_adapter@D@__crt_stdio_output@@@2@@__crt_stdio_output@@QEAA@XZ 000000018006dfe0 f i libucrtd:output.obj
 0001:0006d000       ??1?$output_processor@DV?$stream_output_adapter@D@__crt_stdio_output@@V?$standard_base@DV?$stream_output_adapter@D@__crt_stdio_output@@@2@@__crt_stdio_output@@QEAA@XZ 000000018006e000 f i libucrtd:output.obj
 0001:0006d020       ??1?$output_processor@DV?$string_output_adapter@D@__crt_stdio_output@@V?$format_validation_base@DV?$string_output_adapter@D@__crt_stdio_output@@@2@@__crt_stdio_output@@QEAA@XZ 000000018006e020 f i libucrtd:output.obj
 0001:0006d040       ??1?$output_processor@DV?$string_output_adapter@D@__crt_stdio_output@@V?$positional_parameter_base@DV?$string_output_adapter@D@__crt_stdio_output@@@2@@__crt_stdio_output@@QEAA@XZ 000000018006e040 f i libucrtd:output.obj
 0001:0006d060       ??1?$output_processor@DV?$string_output_adapter@D@__crt_stdio_output@@V?$standard_base@DV?$string_output_adapter@D@__crt_stdio_output@@@2@@__crt_stdio_output@@QEAA@XZ 000000018006e060 f i libucrtd:output.obj
 0001:0006d080       ??1?$output_processor@_WV?$stream_output_adapter@_W@__crt_stdio_output@@V?$format_validation_base@_WV?$stream_output_adapter@_W@__crt_stdio_output@@@2@@__crt_stdio_output@@QEAA@XZ 000000018006e080 f i libucrtd:output.obj
 0001:0006d0a0       ??1?$output_processor@_WV?$stream_output_adapter@_W@__crt_stdio_output@@V?$positional_parameter_base@_WV?$stream_output_adapter@_W@__crt_stdio_output@@@2@@__crt_stdio_output@@QEAA@XZ 000000018006e0a0 f i libucrtd:output.obj
 0001:0006d0c0       ??1?$output_processor@_WV?$stream_output_adapter@_W@__crt_stdio_output@@V?$standard_base@_WV?$stream_output_adapter@_W@__crt_stdio_output@@@2@@__crt_stdio_output@@QEAA@XZ 000000018006e0c0 f i libucrtd:output.obj
 0001:0006d0e0       ??1?$output_processor@_WV?$string_output_adapter@_W@__crt_stdio_output@@V?$format_validation_base@_WV?$string_output_adapter@_W@__crt_stdio_output@@@2@@__crt_stdio_output@@QEAA@XZ 000000018006e0e0 f i libucrtd:output.obj
 0001:0006d100       ??1?$output_processor@_WV?$string_output_adapter@_W@__crt_stdio_output@@V?$positional_parameter_base@_WV?$string_output_adapter@_W@__crt_stdio_output@@@2@@__crt_stdio_output@@QEAA@XZ 000000018006e100 f i libucrtd:output.obj
 0001:0006d120       ??1?$output_processor@_WV?$string_output_adapter@_W@__crt_stdio_output@@V?$standard_base@_WV?$string_output_adapter@_W@__crt_stdio_output@@@2@@__crt_stdio_output@@QEAA@XZ 000000018006e120 f i libucrtd:output.obj
 0001:0006d140       ??1?$positional_parameter_base@DV?$stream_output_adapter@D@__crt_stdio_output@@@__crt_stdio_output@@QEAA@XZ 000000018006e140 f i libucrtd:output.obj
 0001:0006d160       ??1?$positional_parameter_base@DV?$string_output_adapter@D@__crt_stdio_output@@@__crt_stdio_output@@QEAA@XZ 000000018006e160 f i libucrtd:output.obj
 0001:0006d180       ??1?$positional_parameter_base@_WV?$stream_output_adapter@_W@__crt_stdio_output@@@__crt_stdio_output@@QEAA@XZ 000000018006e180 f i libucrtd:output.obj
 0001:0006d1a0       ??1?$positional_parameter_base@_WV?$string_output_adapter@_W@__crt_stdio_output@@@__crt_stdio_output@@QEAA@XZ 000000018006e1a0 f i libucrtd:output.obj
 0001:0006d1c0       ??1?$standard_base@DV?$stream_output_adapter@D@__crt_stdio_output@@@__crt_stdio_output@@QEAA@XZ 000000018006e1c0 f i libucrtd:output.obj
 0001:0006d1e0       ??1?$standard_base@DV?$string_output_adapter@D@__crt_stdio_output@@@__crt_stdio_output@@QEAA@XZ 000000018006e1e0 f i libucrtd:output.obj
 0001:0006d200       ??1?$standard_base@_WV?$stream_output_adapter@_W@__crt_stdio_output@@@__crt_stdio_output@@QEAA@XZ 000000018006e200 f i libucrtd:output.obj
 0001:0006d220       ??1?$standard_base@_WV?$string_output_adapter@_W@__crt_stdio_output@@@__crt_stdio_output@@QEAA@XZ 000000018006e220 f i libucrtd:output.obj
 0001:0006d240       ??1__acrt_stdio_temporary_buffering_guard@@QEAA@XZ 000000018006e240 f i libucrtd:output.obj
 0001:0006d270       ??1__crt_cached_ptd_host@@QEAA@XZ 000000018006e270 f i libucrtd:output.obj
 0001:0006d320       ??1__crt_scoped_get_last_error_reset@@QEAA@XZ 000000018006e320 f i libucrtd:output.obj
 0001:0006d340       ??1formatting_buffer@__crt_stdio_output@@QEAA@XZ 000000018006e340 f i libucrtd:output.obj
 0001:0006d370       ??1guard@?$cached@H@__crt_cached_ptd_host@@QEAA@XZ 000000018006e370 f i libucrtd:output.obj
 0001:0006d3a0       ??4?$__crt_unique_heap_ptr@DU__crt_internal_free_policy@@@@QEAAAEAV0@$$QEAV0@@Z 000000018006e3a0 f i libucrtd:output.obj
 0001:0006d3e0       ??A?$spectre_mitigated_lookup_table@Ustate_transition_pair@__crt_stdio_output@@$0IA@@__crt_stdio_output@@QEBAAEBUstate_transition_pair@1@_K@Z 000000018006e3e0 f i libucrtd:output.obj
 0001:0006d400       ??C__crt_stdio_stream@@QEBAPEAU__crt_stdio_stream_data@@XZ 000000018006e400 f i libucrtd:output.obj
 0001:0006dc50       ?__crt_interlocked_read_32@@YAHPEDH@Z 000000018006ec50 f i libucrtd:output.obj
 0001:0006dc70       ?adjust_hexit@?$output_processor@DV?$stream_output_adapter@D@__crt_stdio_output@@V?$format_validation_base@DV?$stream_output_adapter@D@__crt_stdio_output@@@2@@__crt_stdio_output@@CADH_N@Z 000000018006ec70 f i libucrtd:output.obj
 0001:0006dcc0       ?adjust_hexit@?$output_processor@DV?$stream_output_adapter@D@__crt_stdio_output@@V?$positional_parameter_base@DV?$stream_output_adapter@D@__crt_stdio_output@@@2@@__crt_stdio_output@@CADH_N@Z 000000018006ecc0 f i libucrtd:output.obj
 0001:0006dd10       ?adjust_hexit@?$output_processor@DV?$stream_output_adapter@D@__crt_stdio_output@@V?$standard_base@DV?$stream_output_adapter@D@__crt_stdio_output@@@2@@__crt_stdio_output@@CADH_N@Z 000000018006ed10 f i libucrtd:output.obj
 0001:0006dd60       ?adjust_hexit@?$output_processor@DV?$string_output_adapter@D@__crt_stdio_output@@V?$format_validation_base@DV?$string_output_adapter@D@__crt_stdio_output@@@2@@__crt_stdio_output@@CADH_N@Z 000000018006ed60 f i libucrtd:output.obj
 0001:0006ddb0       ?adjust_hexit@?$output_processor@DV?$string_output_adapter@D@__crt_stdio_output@@V?$positional_parameter_base@DV?$string_output_adapter@D@__crt_stdio_output@@@2@@__crt_stdio_output@@CADH_N@Z 000000018006edb0 f i libucrtd:output.obj
 0001:0006de00       ?adjust_hexit@?$output_processor@DV?$string_output_adapter@D@__crt_stdio_output@@V?$standard_base@DV?$string_output_adapter@D@__crt_stdio_output@@@2@@__crt_stdio_output@@CADH_N@Z 000000018006ee00 f i libucrtd:output.obj
 0001:0006de50       ?adjust_hexit@?$output_processor@_WV?$stream_output_adapter@_W@__crt_stdio_output@@V?$format_validation_base@_WV?$stream_output_adapter@_W@__crt_stdio_output@@@2@@__crt_stdio_output@@CADH_N@Z 000000018006ee50 f i libucrtd:output.obj
 0001:0006dea0       ?adjust_hexit@?$output_processor@_WV?$stream_output_adapter@_W@__crt_stdio_output@@V?$positional_parameter_base@_WV?$stream_output_adapter@_W@__crt_stdio_output@@@2@@__crt_stdio_output@@CADH_N@Z 000000018006eea0 f i libucrtd:output.obj
 0001:0006def0       ?adjust_hexit@?$output_processor@_WV?$stream_output_adapter@_W@__crt_stdio_output@@V?$standard_base@_WV?$stream_output_adapter@_W@__crt_stdio_output@@@2@@__crt_stdio_output@@CADH_N@Z 000000018006eef0 f i libucrtd:output.obj
 0001:0006df40       ?adjust_hexit@?$output_processor@_WV?$string_output_adapter@_W@__crt_stdio_output@@V?$format_validation_base@_WV?$string_output_adapter@_W@__crt_stdio_output@@@2@@__crt_stdio_output@@CADH_N@Z 000000018006ef40 f i libucrtd:output.obj
 0001:0006df90       ?adjust_hexit@?$output_processor@_WV?$string_output_adapter@_W@__crt_stdio_output@@V?$positional_parameter_base@_WV?$string_output_adapter@_W@__crt_stdio_output@@@2@@__crt_stdio_output@@CADH_N@Z 000000018006ef90 f i libucrtd:output.obj
 0001:0006dfe0       ?adjust_hexit@?$output_processor@_WV?$string_output_adapter@_W@__crt_stdio_output@@V?$standard_base@_WV?$string_output_adapter@_W@__crt_stdio_output@@@2@@__crt_stdio_output@@CADH_N@Z 000000018006efe0 f i libucrtd:output.obj
 0001:0006e030       ?advance_to_next_pass@?$positional_parameter_base@DV?$stream_output_adapter@D@__crt_stdio_output@@@__crt_stdio_output@@IEAA_NXZ 000000018006f030 f i libucrtd:output.obj
 0001:0006e0e0       ?advance_to_next_pass@?$positional_parameter_base@DV?$string_output_adapter@D@__crt_stdio_output@@@__crt_stdio_output@@IEAA_NXZ 000000018006f0e0 f i libucrtd:output.obj
 0001:0006e190       ?advance_to_next_pass@?$positional_parameter_base@_WV?$stream_output_adapter@_W@__crt_stdio_output@@@__crt_stdio_output@@IEAA_NXZ 000000018006f190 f i libucrtd:output.obj
 0001:0006e240       ?advance_to_next_pass@?$positional_parameter_base@_WV?$string_output_adapter@_W@__crt_stdio_output@@@__crt_stdio_output@@IEAA_NXZ 000000018006f240 f i libucrtd:output.obj
 0001:0006e2f0       ?advance_to_next_pass@?$standard_base@DV?$stream_output_adapter@D@__crt_stdio_output@@@__crt_stdio_output@@IEAA_NXZ 000000018006f2f0 f i libucrtd:output.obj
 0001:0006e340       ?advance_to_next_pass@?$standard_base@DV?$string_output_adapter@D@__crt_stdio_output@@@__crt_stdio_output@@IEAA_NXZ 000000018006f340 f i libucrtd:output.obj
 0001:0006e390       ?advance_to_next_pass@?$standard_base@_WV?$stream_output_adapter@_W@__crt_stdio_output@@@__crt_stdio_output@@IEAA_NXZ 000000018006f390 f i libucrtd:output.obj
 0001:0006e3e0       ?advance_to_next_pass@?$standard_base@_WV?$string_output_adapter@_W@__crt_stdio_output@@@__crt_stdio_output@@IEAA_NXZ 000000018006f3e0 f i libucrtd:output.obj
 0001:0006e430       ?check@?$cached@H@__crt_cached_ptd_host@@QEBA_NH@Z 000000018006f430 f i libucrtd:output.obj
 0001:0006e470       ?check_synchronize_global_state_index@__crt_cached_ptd_host@@AEAA_KAEBV__crt_scoped_get_last_error_reset@@@Z 000000018006f470 f i libucrtd:output.obj
 0001:0006e4b0       ?check_synchronize_per_thread_data@__crt_cached_ptd_host@@AEAAPEAU__acrt_ptd@@XZ 000000018006f4b0 f i libucrtd:output.obj
 0001:0006e4f0       ?create_guard@?$cached@H@__crt_cached_ptd_host@@QEAA?AVguard@12@XZ 000000018006f4f0 f i libucrtd:output.obj
 0001:0006e520       ?crop_zeroes@__crt_stdio_output@@YAXPEADQEAU__crt_locale_pointers@@@Z 000000018006f520 f i libucrtd:output.obj
 0001:0006e670       ?disable@guard@?$cached@H@__crt_cached_ptd_host@@QEAAXXZ 000000018006f670 f i libucrtd:output.obj
 0001:0006e680       ?enable@guard@?$cached@H@__crt_cached_ptd_host@@QEAAXXZ 000000018006f680 f i libucrtd:output.obj
 0001:0006e690       ?find_next_state@?$output_processor@DV?$stream_output_adapter@D@__crt_stdio_output@@V?$format_validation_base@DV?$stream_output_adapter@D@__crt_stdio_output@@@2@@__crt_stdio_output@@AEBA?AW4state@2@DW432@@Z 000000018006f690 f i libucrtd:output.obj
 0001:0006e730       ?find_next_state@?$output_processor@DV?$stream_output_adapter@D@__crt_stdio_output@@V?$positional_parameter_base@DV?$stream_output_adapter@D@__crt_stdio_output@@@2@@__crt_stdio_output@@AEBA?AW4state@2@DW432@@Z 000000018006f730 f i libucrtd:output.obj
 0001:0006e7d0       ?find_next_state@?$output_processor@DV?$stream_output_adapter@D@__crt_stdio_output@@V?$standard_base@DV?$stream_output_adapter@D@__crt_stdio_output@@@2@@__crt_stdio_output@@AEBA?AW4state@2@DW432@@Z 000000018006f7d0 f i libucrtd:output.obj
 0001:0006e870       ?find_next_state@?$output_processor@DV?$string_output_adapter@D@__crt_stdio_output@@V?$format_validation_base@DV?$string_output_adapter@D@__crt_stdio_output@@@2@@__crt_stdio_output@@AEBA?AW4state@2@DW432@@Z 000000018006f870 f i libucrtd:output.obj
 0001:0006e910       ?find_next_state@?$output_processor@DV?$string_output_adapter@D@__crt_stdio_output@@V?$positional_parameter_base@DV?$string_output_adapter@D@__crt_stdio_output@@@2@@__crt_stdio_output@@AEBA?AW4state@2@DW432@@Z 000000018006f910 f i libucrtd:output.obj
 0001:0006e9b0       ?find_next_state@?$output_processor@DV?$string_output_adapter@D@__crt_stdio_output@@V?$standard_base@DV?$string_output_adapter@D@__crt_stdio_output@@@2@@__crt_stdio_output@@AEBA?AW4state@2@DW432@@Z 000000018006f9b0 f i libucrtd:output.obj
 0001:0006ea50       ?find_next_state@?$output_processor@_WV?$stream_output_adapter@_W@__crt_stdio_output@@V?$format_validation_base@_WV?$stream_output_adapter@_W@__crt_stdio_output@@@2@@__crt_stdio_output@@AEBA?AW4state@2@_WW432@@Z 000000018006fa50 f i libucrtd:output.obj
 0001:0006eaf0       ?find_next_state@?$output_processor@_WV?$stream_output_adapter@_W@__crt_stdio_output@@V?$positional_parameter_base@_WV?$stream_output_adapter@_W@__crt_stdio_output@@@2@@__crt_stdio_output@@AEBA?AW4state@2@_WW432@@Z 000000018006faf0 f i libucrtd:output.obj
 0001:0006eb90       ?find_next_state@?$output_processor@_WV?$stream_output_adapter@_W@__crt_stdio_output@@V?$standard_base@_WV?$stream_output_adapter@_W@__crt_stdio_output@@@2@@__crt_stdio_output@@AEBA?AW4state@2@_WW432@@Z 000000018006fb90 f i libucrtd:output.obj
 0001:0006ec30       ?find_next_state@?$output_processor@_WV?$string_output_adapter@_W@__crt_stdio_output@@V?$format_validation_base@_WV?$string_output_adapter@_W@__crt_stdio_output@@@2@@__crt_stdio_output@@AEBA?AW4state@2@_WW432@@Z 000000018006fc30 f i libucrtd:output.obj
 0001:0006ecd0       ?find_next_state@?$output_processor@_WV?$string_output_adapter@_W@__crt_stdio_output@@V?$positional_parameter_base@_WV?$string_output_adapter@_W@__crt_stdio_output@@@2@@__crt_stdio_output@@AEBA?AW4state@2@_WW432@@Z 000000018006fcd0 f i libucrtd:output.obj
 0001:0006ed70       ?find_next_state@?$output_processor@_WV?$string_output_adapter@_W@__crt_stdio_output@@V?$standard_base@_WV?$string_output_adapter@_W@__crt_stdio_output@@@2@@__crt_stdio_output@@AEBA?AW4state@2@_WW432@@Z 000000018006fd70 f i libucrtd:output.obj
 0001:0006ee10       ?force_decimal_point@__crt_stdio_output@@YAXPEADQEAU__crt_locale_pointers@@@Z 000000018006fe10 f i libucrtd:output.obj
 0001:0006ef10       ?force_synchronize_global_state_index@__crt_cached_ptd_host@@AEAA_KAEBV__crt_scoped_get_last_error_reset@@@Z 000000018006ff10 f i libucrtd:output.obj
 0001:0006ef50       ?force_synchronize_per_thread_data@__crt_cached_ptd_host@@AEAAPEAU__acrt_ptd@@XZ 000000018006ff50 f i libucrtd:output.obj
 0001:0006efb0       ?get@?$c_string_character_source@D@__crt_strtox@@QEAADXZ 000000018006ffb0 f i libucrtd:output.obj
 0001:0006eff0       ?get@?$c_string_character_source@_W@__crt_strtox@@QEAA_WXZ 000000018006fff0 f i libucrtd:output.obj
 0001:0006f030       ?get_current_state_index@__crt_state_management@@YA_KAEBV__crt_scoped_get_last_error_reset@@@Z 0000000180070030 f i libucrtd:output.obj
 0001:0006f040       ?get_errno@__crt_cached_ptd_host@@QEAAAEAU?$cached@H@1@XZ 0000000180070040 f i libucrtd:output.obj
 0001:0006f050       ?get_flags@__crt_stdio_stream@@QEBAJXZ 0000000180070050 f i libucrtd:output.obj
 0001:0006f080       ?get_locale@__crt_cached_ptd_host@@QEAAPEAU__crt_locale_pointers@@XZ 0000000180070080 f i libucrtd:output.obj
 0001:0006f0b0       ?get_parameter_type@?$positional_parameter_base@DV?$stream_output_adapter@D@__crt_stdio_output@@@__crt_stdio_output@@CA?AW4parameter_type@12@F@Z 00000001800700b0 f i libucrtd:output.obj
 0001:0006f0c0       ?get_parameter_type@?$positional_parameter_base@DV?$stream_output_adapter@D@__crt_stdio_output@@@__crt_stdio_output@@CA?AW4parameter_type@12@G@Z 00000001800700c0 f i libucrtd:output.obj
 0001:0006f0d0       ?get_parameter_type@?$positional_parameter_base@DV?$stream_output_adapter@D@__crt_stdio_output@@@__crt_stdio_output@@CA?AW4parameter_type@12@H@Z 00000001800700d0 f i libucrtd:output.obj
 0001:0006f0e0       ?get_parameter_type@?$positional_parameter_base@DV?$stream_output_adapter@D@__crt_stdio_output@@@__crt_stdio_output@@CA?AW4parameter_type@12@I@Z 00000001800700e0 f i libucrtd:output.obj
 0001:0006f0f0       ?get_parameter_type@?$positional_parameter_base@DV?$stream_output_adapter@D@__crt_stdio_output@@@__crt_stdio_output@@CA?AW4parameter_type@12@U_CRT_DOUBLE@@@Z 00000001800700f0 f i libucrtd:output.obj
 0001:0006f100       ?get_parameter_type@?$positional_parameter_base@DV?$stream_output_adapter@D@__crt_stdio_output@@@__crt_stdio_output@@CA?AW4parameter_type@12@_J@Z 0000000180070100 f i libucrtd:output.obj
 0001:0006f110       ?get_parameter_type@?$positional_parameter_base@DV?$stream_output_adapter@D@__crt_stdio_output@@@__crt_stdio_output@@CA?AW4parameter_type@12@_K@Z 0000000180070110 f i libucrtd:output.obj
 0001:0006f120       ?get_parameter_type@?$positional_parameter_base@DV?$stream_output_adapter@D@__crt_stdio_output@@@__crt_stdio_output@@CA?AW4parameter_type@12@_W@Z 0000000180070120 f i libucrtd:output.obj
 0001:0006f130       ?get_parameter_type@?$positional_parameter_base@DV?$string_output_adapter@D@__crt_stdio_output@@@__crt_stdio_output@@CA?AW4parameter_type@12@F@Z 0000000180070130 f i libucrtd:output.obj
 0001:0006f140       ?get_parameter_type@?$positional_parameter_base@DV?$string_output_adapter@D@__crt_stdio_output@@@__crt_stdio_output@@CA?AW4parameter_type@12@G@Z 0000000180070140 f i libucrtd:output.obj
 0001:0006f150       ?get_parameter_type@?$positional_parameter_base@DV?$string_output_adapter@D@__crt_stdio_output@@@__crt_stdio_output@@CA?AW4parameter_type@12@H@Z 0000000180070150 f i libucrtd:output.obj
 0001:0006f160       ?get_parameter_type@?$positional_parameter_base@DV?$string_output_adapter@D@__crt_stdio_output@@@__crt_stdio_output@@CA?AW4parameter_type@12@I@Z 0000000180070160 f i libucrtd:output.obj
 0001:0006f170       ?get_parameter_type@?$positional_parameter_base@DV?$string_output_adapter@D@__crt_stdio_output@@@__crt_stdio_output@@CA?AW4parameter_type@12@U_CRT_DOUBLE@@@Z 0000000180070170 f i libucrtd:output.obj
 0001:0006f180       ?get_parameter_type@?$positional_parameter_base@DV?$string_output_adapter@D@__crt_stdio_output@@@__crt_stdio_output@@CA?AW4parameter_type@12@_J@Z 0000000180070180 f i libucrtd:output.obj
 0001:0006f190       ?get_parameter_type@?$positional_parameter_base@DV?$string_output_adapter@D@__crt_stdio_output@@@__crt_stdio_output@@CA?AW4parameter_type@12@_K@Z 0000000180070190 f i libucrtd:output.obj
 0001:0006f1a0       ?get_parameter_type@?$positional_parameter_base@DV?$string_output_adapter@D@__crt_stdio_output@@@__crt_stdio_output@@CA?AW4parameter_type@12@_W@Z 00000001800701a0 f i libucrtd:output.obj
 0001:0006f1b0       ?get_parameter_type@?$positional_parameter_base@_WV?$stream_output_adapter@_W@__crt_stdio_output@@@__crt_stdio_output@@CA?AW4parameter_type@12@F@Z 00000001800701b0 f i libucrtd:output.obj
 0001:0006f1c0       ?get_parameter_type@?$positional_parameter_base@_WV?$stream_output_adapter@_W@__crt_stdio_output@@@__crt_stdio_output@@CA?AW4parameter_type@12@G@Z 00000001800701c0 f i libucrtd:output.obj
 0001:0006f1d0       ?get_parameter_type@?$positional_parameter_base@_WV?$stream_output_adapter@_W@__crt_stdio_output@@@__crt_stdio_output@@CA?AW4parameter_type@12@H@Z 00000001800701d0 f i libucrtd:output.obj
 0001:0006f1e0       ?get_parameter_type@?$positional_parameter_base@_WV?$stream_output_adapter@_W@__crt_stdio_output@@@__crt_stdio_output@@CA?AW4parameter_type@12@I@Z 00000001800701e0 f i libucrtd:output.obj
 0001:0006f1f0       ?get_parameter_type@?$positional_parameter_base@_WV?$stream_output_adapter@_W@__crt_stdio_output@@@__crt_stdio_output@@CA?AW4parameter_type@12@U_CRT_DOUBLE@@@Z 00000001800701f0 f i libucrtd:output.obj
 0001:0006f200       ?get_parameter_type@?$positional_parameter_base@_WV?$stream_output_adapter@_W@__crt_stdio_output@@@__crt_stdio_output@@CA?AW4parameter_type@12@_J@Z 0000000180070200 f i libucrtd:output.obj
 0001:0006f210       ?get_parameter_type@?$positional_parameter_base@_WV?$stream_output_adapter@_W@__crt_stdio_output@@@__crt_stdio_output@@CA?AW4parameter_type@12@_K@Z 0000000180070210 f i libucrtd:output.obj
 0001:0006f220       ?get_parameter_type@?$positional_parameter_base@_WV?$stream_output_adapter@_W@__crt_stdio_output@@@__crt_stdio_output@@CA?AW4parameter_type@12@_W@Z 0000000180070220 f i libucrtd:output.obj
 0001:0006f230       ?get_parameter_type@?$positional_parameter_base@_WV?$string_output_adapter@_W@__crt_stdio_output@@@__crt_stdio_output@@CA?AW4parameter_type@12@F@Z 0000000180070230 f i libucrtd:output.obj
 0001:0006f240       ?get_parameter_type@?$positional_parameter_base@_WV?$string_output_adapter@_W@__crt_stdio_output@@@__crt_stdio_output@@CA?AW4parameter_type@12@G@Z 0000000180070240 f i libucrtd:output.obj
 0001:0006f250       ?get_parameter_type@?$positional_parameter_base@_WV?$string_output_adapter@_W@__crt_stdio_output@@@__crt_stdio_output@@CA?AW4parameter_type@12@H@Z 0000000180070250 f i libucrtd:output.obj
 0001:0006f260       ?get_parameter_type@?$positional_parameter_base@_WV?$string_output_adapter@_W@__crt_stdio_output@@@__crt_stdio_output@@CA?AW4parameter_type@12@I@Z 0000000180070260 f i libucrtd:output.obj
 0001:0006f270       ?get_parameter_type@?$positional_parameter_base@_WV?$string_output_adapter@_W@__crt_stdio_output@@@__crt_stdio_output@@CA?AW4parameter_type@12@U_CRT_DOUBLE@@@Z 0000000180070270 f i libucrtd:output.obj
 0001:0006f280       ?get_parameter_type@?$positional_parameter_base@_WV?$string_output_adapter@_W@__crt_stdio_output@@@__crt_stdio_output@@CA?AW4parameter_type@12@_J@Z 0000000180070280 f i libucrtd:output.obj
 0001:0006f290       ?get_parameter_type@?$positional_parameter_base@_WV?$string_output_adapter@_W@__crt_stdio_output@@@__crt_stdio_output@@CA?AW4parameter_type@12@_K@Z 0000000180070290 f i libucrtd:output.obj
 0001:0006f2a0       ?get_parameter_type@?$positional_parameter_base@_WV?$string_output_adapter@_W@__crt_stdio_output@@@__crt_stdio_output@@CA?AW4parameter_type@12@_W@Z 00000001800702a0 f i libucrtd:output.obj
 0001:0006f2b0       ?get_raw_ptd@__crt_cached_ptd_host@@QEAAPEAU__acrt_ptd@@XZ 00000001800702b0 f i libucrtd:output.obj
 0001:0006f2d0       ?has_flag@?$output_processor@DV?$stream_output_adapter@D@__crt_stdio_output@@V?$format_validation_base@DV?$stream_output_adapter@D@__crt_stdio_output@@@2@@__crt_stdio_output@@AEBA_NI@Z 00000001800702d0 f i libucrtd:output.obj
 0001:0006f310       ?has_flag@?$output_processor@DV?$stream_output_adapter@D@__crt_stdio_output@@V?$positional_parameter_base@DV?$stream_output_adapter@D@__crt_stdio_output@@@2@@__crt_stdio_output@@AEBA_NI@Z 0000000180070310 f i libucrtd:output.obj
 0001:0006f350       ?has_flag@?$output_processor@DV?$stream_output_adapter@D@__crt_stdio_output@@V?$standard_base@DV?$stream_output_adapter@D@__crt_stdio_output@@@2@@__crt_stdio_output@@AEBA_NI@Z 0000000180070350 f i libucrtd:output.obj
 0001:0006f390       ?has_flag@?$output_processor@DV?$string_output_adapter@D@__crt_stdio_output@@V?$format_validation_base@DV?$string_output_adapter@D@__crt_stdio_output@@@2@@__crt_stdio_output@@AEBA_NI@Z 0000000180070390 f i libucrtd:output.obj
 0001:0006f3d0       ?has_flag@?$output_processor@DV?$string_output_adapter@D@__crt_stdio_output@@V?$positional_parameter_base@DV?$string_output_adapter@D@__crt_stdio_output@@@2@@__crt_stdio_output@@AEBA_NI@Z 00000001800703d0 f i libucrtd:output.obj
 0001:0006f410       ?has_flag@?$output_processor@DV?$string_output_adapter@D@__crt_stdio_output@@V?$standard_base@DV?$string_output_adapter@D@__crt_stdio_output@@@2@@__crt_stdio_output@@AEBA_NI@Z 0000000180070410 f i libucrtd:output.obj
 0001:0006f450       ?has_flag@?$output_processor@_WV?$stream_output_adapter@_W@__crt_stdio_output@@V?$format_validation_base@_WV?$stream_output_adapter@_W@__crt_stdio_output@@@2@@__crt_stdio_output@@AEBA_NI@Z 0000000180070450 f i libucrtd:output.obj
 0001:0006f490       ?has_flag@?$output_processor@_WV?$stream_output_adapter@_W@__crt_stdio_output@@V?$positional_parameter_base@_WV?$stream_output_adapter@_W@__crt_stdio_output@@@2@@__crt_stdio_output@@AEBA_NI@Z 0000000180070490 f i libucrtd:output.obj
 0001:0006f4d0       ?has_flag@?$output_processor@_WV?$stream_output_adapter@_W@__crt_stdio_output@@V?$standard_base@_WV?$stream_output_adapter@_W@__crt_stdio_output@@@2@@__crt_stdio_output@@AEBA_NI@Z 00000001800704d0 f i libucrtd:output.obj
 0001:0006f510       ?has_flag@?$output_processor@_WV?$string_output_adapter@_W@__crt_stdio_output@@V?$format_validation_base@_WV?$string_output_adapter@_W@__crt_stdio_output@@@2@@__crt_stdio_output@@AEBA_NI@Z 0000000180070510 f i libucrtd:output.obj
 0001:0006f550       ?has_flag@?$output_processor@_WV?$string_output_adapter@_W@__crt_stdio_output@@V?$positional_parameter_base@_WV?$string_output_adapter@_W@__crt_stdio_output@@@2@@__crt_stdio_output@@AEBA_NI@Z 0000000180070550 f i libucrtd:output.obj
 0001:0006f590       ?has_flag@?$output_processor@_WV?$string_output_adapter@_W@__crt_stdio_output@@V?$standard_base@_WV?$string_output_adapter@_W@__crt_stdio_output@@@2@@__crt_stdio_output@@AEBA_NI@Z 0000000180070590 f i libucrtd:output.obj
 0001:0006f5d0       ?is_positional_parameter_reappearance_consistent@?$positional_parameter_base@DV?$stream_output_adapter@D@__crt_stdio_output@@@__crt_stdio_output@@AEAA_NAEBUparameter_data@12@W4parameter_type@12@DW4length_modifier@2@@Z 00000001800705d0 f i libucrtd:output.obj
 0001:0006f830       ?is_positional_parameter_reappearance_consistent@?$positional_parameter_base@DV?$string_output_adapter@D@__crt_stdio_output@@@__crt_stdio_output@@AEAA_NAEBUparameter_data@12@W4parameter_type@12@DW4length_modifier@2@@Z 0000000180070830 f i libucrtd:output.obj
 0001:0006fa90       ?is_positional_parameter_reappearance_consistent@?$positional_parameter_base@_WV?$stream_output_adapter@_W@__crt_stdio_output@@@__crt_stdio_output@@AEAA_NAEBUparameter_data@12@W4parameter_type@12@_WW4length_modifier@2@@Z 0000000180070a90 f i libucrtd:output.obj
 0001:0006fcf0       ?is_positional_parameter_reappearance_consistent@?$positional_parameter_base@_WV?$string_output_adapter@_W@__crt_stdio_output@@@__crt_stdio_output@@AEAA_NAEBUparameter_data@12@W4parameter_type@12@_WW4length_modifier@2@@Z 0000000180070cf0 f i libucrtd:output.obj
 0001:0006ff50       ?is_string_backed@__crt_stdio_stream@@QEBA_NXZ 0000000180070f50 f i libucrtd:output.obj
 0001:0006ff90       ?maximum_signed_value@__crt_strtox@@YAJK@Z 0000000180070f90 f i libucrtd:output.obj
 0001:0006ffa0       ?minimum_signed_value@__crt_strtox@@YAJK@Z 0000000180070fa0 f i libucrtd:output.obj
 0001:0006ffb0       ?narrow_null_string@?$output_processor@DV?$stream_output_adapter@D@__crt_stdio_output@@V?$format_validation_base@DV?$stream_output_adapter@D@__crt_stdio_output@@@2@@__crt_stdio_output@@CAPEADXZ 0000000180070fb0 f i libucrtd:output.obj
 0001:0006ffc0       ?narrow_null_string@?$output_processor@DV?$stream_output_adapter@D@__crt_stdio_output@@V?$positional_parameter_base@DV?$stream_output_adapter@D@__crt_stdio_output@@@2@@__crt_stdio_output@@CAPEADXZ 0000000180070fc0 f i libucrtd:output.obj
 0001:0006ffd0       ?narrow_null_string@?$output_processor@DV?$stream_output_adapter@D@__crt_stdio_output@@V?$standard_base@DV?$stream_output_adapter@D@__crt_stdio_output@@@2@@__crt_stdio_output@@CAPEADXZ 0000000180070fd0 f i libucrtd:output.obj
 0001:0006ffe0       ?narrow_null_string@?$output_processor@DV?$string_output_adapter@D@__crt_stdio_output@@V?$format_validation_base@DV?$string_output_adapter@D@__crt_stdio_output@@@2@@__crt_stdio_output@@CAPEADXZ 0000000180070fe0 f i libucrtd:output.obj
 0001:0006fff0       ?narrow_null_string@?$output_processor@DV?$string_output_adapter@D@__crt_stdio_output@@V?$positional_parameter_base@DV?$string_output_adapter@D@__crt_stdio_output@@@2@@__crt_stdio_output@@CAPEADXZ 0000000180070ff0 f i libucrtd:output.obj
 0001:00070000       ?narrow_null_string@?$output_processor@DV?$string_output_adapter@D@__crt_stdio_output@@V?$standard_base@DV?$string_output_adapter@D@__crt_stdio_output@@@2@@__crt_stdio_output@@CAPEADXZ 0000000180071000 f i libucrtd:output.obj
 0001:00070010       ?narrow_null_string@?$output_processor@_WV?$stream_output_adapter@_W@__crt_stdio_output@@V?$format_validation_base@_WV?$stream_output_adapter@_W@__crt_stdio_output@@@2@@__crt_stdio_output@@CAPEADXZ 0000000180071010 f i libucrtd:output.obj
 0001:00070020       ?narrow_null_string@?$output_processor@_WV?$stream_output_adapter@_W@__crt_stdio_output@@V?$positional_parameter_base@_WV?$stream_output_adapter@_W@__crt_stdio_output@@@2@@__crt_stdio_output@@CAPEADXZ 0000000180071020 f i libucrtd:output.obj
 0001:00070030       ?narrow_null_string@?$output_processor@_WV?$stream_output_adapter@_W@__crt_stdio_output@@V?$standard_base@_WV?$stream_output_adapter@_W@__crt_stdio_output@@@2@@__crt_stdio_output@@CAPEADXZ 0000000180071030 f i libucrtd:output.obj
 0001:00070040       ?narrow_null_string@?$output_processor@_WV?$string_output_adapter@_W@__crt_stdio_output@@V?$format_validation_base@_WV?$string_output_adapter@_W@__crt_stdio_output@@@2@@__crt_stdio_output@@CAPEADXZ 0000000180071040 f i libucrtd:output.obj
 0001:00070050       ?narrow_null_string@?$output_processor@_WV?$string_output_adapter@_W@__crt_stdio_output@@V?$positional_parameter_base@_WV?$string_output_adapter@_W@__crt_stdio_output@@@2@@__crt_stdio_output@@CAPEADXZ 0000000180071050 f i libucrtd:output.obj
 0001:00070060       ?narrow_null_string@?$output_processor@_WV?$string_output_adapter@_W@__crt_stdio_output@@V?$standard_base@_WV?$string_output_adapter@_W@__crt_stdio_output@@@2@@__crt_stdio_output@@CAPEADXZ 0000000180071060 f i libucrtd:output.obj
 0001:00070070       ?parse_digit@__crt_strtox@@YAID@Z 0000000180071070 f i libucrtd:output.obj
 0001:000700e0       ?parse_digit@__crt_strtox@@YAI_W@Z 00000001800710e0 f i libucrtd:output.obj
 0001:00070130       ?parse_int_from_format_string@?$output_processor@DV?$stream_output_adapter@D@__crt_stdio_output@@V?$format_validation_base@DV?$stream_output_adapter@D@__crt_stdio_output@@@2@@__crt_stdio_output@@AEAA_NQEAH@Z 0000000180071130 f i libucrtd:output.obj
 0001:00070230       ?parse_int_from_format_string@?$output_processor@DV?$stream_output_adapter@D@__crt_stdio_output@@V?$positional_parameter_base@DV?$stream_output_adapter@D@__crt_stdio_output@@@2@@__crt_stdio_output@@AEAA_NQEAH@Z 0000000180071230 f i libucrtd:output.obj
 0001:00070330       ?parse_int_from_format_string@?$output_processor@DV?$stream_output_adapter@D@__crt_stdio_output@@V?$standard_base@DV?$stream_output_adapter@D@__crt_stdio_output@@@2@@__crt_stdio_output@@AEAA_NQEAH@Z 0000000180071330 f i libucrtd:output.obj
 0001:00070430       ?parse_int_from_format_string@?$output_processor@DV?$string_output_adapter@D@__crt_stdio_output@@V?$format_validation_base@DV?$string_output_adapter@D@__crt_stdio_output@@@2@@__crt_stdio_output@@AEAA_NQEAH@Z 0000000180071430 f i libucrtd:output.obj
 0001:00070530       ?parse_int_from_format_string@?$output_processor@DV?$string_output_adapter@D@__crt_stdio_output@@V?$positional_parameter_base@DV?$string_output_adapter@D@__crt_stdio_output@@@2@@__crt_stdio_output@@AEAA_NQEAH@Z 0000000180071530 f i libucrtd:output.obj
 0001:00070630       ?parse_int_from_format_string@?$output_processor@DV?$string_output_adapter@D@__crt_stdio_output@@V?$standard_base@DV?$string_output_adapter@D@__crt_stdio_output@@@2@@__crt_stdio_output@@AEAA_NQEAH@Z 0000000180071630 f i libucrtd:output.obj
 0001:00070730       ?parse_int_from_format_string@?$output_processor@_WV?$stream_output_adapter@_W@__crt_stdio_output@@V?$format_validation_base@_WV?$stream_output_adapter@_W@__crt_stdio_output@@@2@@__crt_stdio_output@@AEAA_NQEAH@Z 0000000180071730 f i libucrtd:output.obj
 0001:00070830       ?parse_int_from_format_string@?$output_processor@_WV?$stream_output_adapter@_W@__crt_stdio_output@@V?$positional_parameter_base@_WV?$stream_output_adapter@_W@__crt_stdio_output@@@2@@__crt_stdio_output@@AEAA_NQEAH@Z 0000000180071830 f i libucrtd:output.obj
 0001:00070930       ?parse_int_from_format_string@?$output_processor@_WV?$stream_output_adapter@_W@__crt_stdio_output@@V?$standard_base@_WV?$stream_output_adapter@_W@__crt_stdio_output@@@2@@__crt_stdio_output@@AEAA_NQEAH@Z 0000000180071930 f i libucrtd:output.obj
 0001:00070a30       ?parse_int_from_format_string@?$output_processor@_WV?$string_output_adapter@_W@__crt_stdio_output@@V?$format_validation_base@_WV?$string_output_adapter@_W@__crt_stdio_output@@@2@@__crt_stdio_output@@AEAA_NQEAH@Z 0000000180071a30 f i libucrtd:output.obj
 0001:00070b30       ?parse_int_from_format_string@?$output_processor@_WV?$string_output_adapter@_W@__crt_stdio_output@@V?$positional_parameter_base@_WV?$string_output_adapter@_W@__crt_stdio_output@@@2@@__crt_stdio_output@@AEAA_NQEAH@Z 0000000180071b30 f i libucrtd:output.obj
 0001:00070c30       ?parse_int_from_format_string@?$output_processor@_WV?$string_output_adapter@_W@__crt_stdio_output@@V?$standard_base@_WV?$string_output_adapter@_W@__crt_stdio_output@@@2@@__crt_stdio_output@@AEAA_NQEAH@Z 0000000180071c30 f i libucrtd:output.obj
 0001:00070d30       ?process@?$output_processor@DV?$stream_output_adapter@D@__crt_stdio_output@@V?$format_validation_base@DV?$stream_output_adapter@D@__crt_stdio_output@@@2@@__crt_stdio_output@@QEAAHXZ 0000000180071d30 f i libucrtd:output.obj
 0001:000710f0       ?process@?$output_processor@DV?$stream_output_adapter@D@__crt_stdio_output@@V?$positional_parameter_base@DV?$stream_output_adapter@D@__crt_stdio_output@@@2@@__crt_stdio_output@@QEAAHXZ 00000001800720f0 f i libucrtd:output.obj
 0001:000714b0       ?process@?$output_processor@DV?$stream_output_adapter@D@__crt_stdio_output@@V?$standard_base@DV?$stream_output_adapter@D@__crt_stdio_output@@@2@@__crt_stdio_output@@QEAAHXZ 00000001800724b0 f i libucrtd:output.obj
 0001:00071870       ?process@?$output_processor@DV?$string_output_adapter@D@__crt_stdio_output@@V?$format_validation_base@DV?$string_output_adapter@D@__crt_stdio_output@@@2@@__crt_stdio_output@@QEAAHXZ 0000000180072870 f i libucrtd:output.obj
 0001:00071c30       ?process@?$output_processor@DV?$string_output_adapter@D@__crt_stdio_output@@V?$positional_parameter_base@DV?$string_output_adapter@D@__crt_stdio_output@@@2@@__crt_stdio_output@@QEAAHXZ 0000000180072c30 f i libucrtd:output.obj
 0001:00071ff0       ?process@?$output_processor@DV?$string_output_adapter@D@__crt_stdio_output@@V?$standard_base@DV?$string_output_adapter@D@__crt_stdio_output@@@2@@__crt_stdio_output@@QEAAHXZ 0000000180072ff0 f i libucrtd:output.obj
 0001:000723b0       ?process@?$output_processor@_WV?$stream_output_adapter@_W@__crt_stdio_output@@V?$format_validation_base@_WV?$stream_output_adapter@_W@__crt_stdio_output@@@2@@__crt_stdio_output@@QEAAHXZ 00000001800733b0 f i libucrtd:output.obj
 0001:00072770       ?process@?$output_processor@_WV?$stream_output_adapter@_W@__crt_stdio_output@@V?$positional_parameter_base@_WV?$stream_output_adapter@_W@__crt_stdio_output@@@2@@__crt_stdio_output@@QEAAHXZ 0000000180073770 f i libucrtd:output.obj
 0001:00072b30       ?process@?$output_processor@_WV?$stream_output_adapter@_W@__crt_stdio_output@@V?$standard_base@_WV?$stream_output_adapter@_W@__crt_stdio_output@@@2@@__crt_stdio_output@@QEAAHXZ 0000000180073b30 f i libucrtd:output.obj
 0001:00072ef0       ?process@?$output_processor@_WV?$string_output_adapter@_W@__crt_stdio_output@@V?$format_validation_base@_WV?$string_output_adapter@_W@__crt_stdio_output@@@2@@__crt_stdio_output@@QEAAHXZ 0000000180073ef0 f i libucrtd:output.obj
 0001:000732b0       ?process@?$output_processor@_WV?$string_output_adapter@_W@__crt_stdio_output@@V?$positional_parameter_base@_WV?$string_output_adapter@_W@__crt_stdio_output@@@2@@__crt_stdio_output@@QEAAHXZ 00000001800742b0 f i libucrtd:output.obj
 0001:00073670       ?process@?$output_processor@_WV?$string_output_adapter@_W@__crt_stdio_output@@V?$standard_base@_WV?$string_output_adapter@_W@__crt_stdio_output@@@2@@__crt_stdio_output@@QEAAHXZ 0000000180074670 f i libucrtd:output.obj
 0001:00073a30       ?public_stream@__crt_stdio_stream@@QEBAPEAU_iobuf@@XZ 0000000180074a30 f i libucrtd:output.obj
 0001:00073a40       ?restore_state@?$c_string_character_source@D@__crt_strtox@@QEAA_NQEBD@Z 0000000180074a40 f i libucrtd:output.obj
 0001:00073a60       ?restore_state@?$c_string_character_source@_W@__crt_strtox@@QEAA_NQEB_W@Z 0000000180074a60 f i libucrtd:output.obj
 0001:00073a80       ?save_state@?$c_string_character_source@D@__crt_strtox@@QEBAPEBDXZ 0000000180074a80 f i libucrtd:output.obj
 0001:00073a90       ?save_state@?$c_string_character_source@_W@__crt_strtox@@QEBAPEB_WXZ 0000000180074a90 f i libucrtd:output.obj
 0001:00073aa0       ?set@?$cached@H@__crt_cached_ptd_host@@QEAAHH@Z 0000000180074aa0 f i libucrtd:output.obj
 0001:00073ad0       ?set_flag@?$output_processor@DV?$stream_output_adapter@D@__crt_stdio_output@@V?$format_validation_base@DV?$stream_output_adapter@D@__crt_stdio_output@@@2@@__crt_stdio_output@@AEAAXI@Z 0000000180074ad0 f i libucrtd:output.obj
 0001:00073af0       ?set_flag@?$output_processor@DV?$stream_output_adapter@D@__crt_stdio_output@@V?$positional_parameter_base@DV?$stream_output_adapter@D@__crt_stdio_output@@@2@@__crt_stdio_output@@AEAAXI@Z 0000000180074af0 f i libucrtd:output.obj
 0001:00073b10       ?set_flag@?$output_processor@DV?$stream_output_adapter@D@__crt_stdio_output@@V?$standard_base@DV?$stream_output_adapter@D@__crt_stdio_output@@@2@@__crt_stdio_output@@AEAAXI@Z 0000000180074b10 f i libucrtd:output.obj
 0001:00073b30       ?set_flag@?$output_processor@DV?$string_output_adapter@D@__crt_stdio_output@@V?$format_validation_base@DV?$string_output_adapter@D@__crt_stdio_output@@@2@@__crt_stdio_output@@AEAAXI@Z 0000000180074b30 f i libucrtd:output.obj
 0001:00073b50       ?set_flag@?$output_processor@DV?$string_output_adapter@D@__crt_stdio_output@@V?$positional_parameter_base@DV?$string_output_adapter@D@__crt_stdio_output@@@2@@__crt_stdio_output@@AEAAXI@Z 0000000180074b50 f i libucrtd:output.obj
 0001:00073b70       ?set_flag@?$output_processor@DV?$string_output_adapter@D@__crt_stdio_output@@V?$standard_base@DV?$string_output_adapter@D@__crt_stdio_output@@@2@@__crt_stdio_output@@AEAAXI@Z 0000000180074b70 f i libucrtd:output.obj
 0001:00073b90       ?set_flag@?$output_processor@_WV?$stream_output_adapter@_W@__crt_stdio_output@@V?$format_validation_base@_WV?$stream_output_adapter@_W@__crt_stdio_output@@@2@@__crt_stdio_output@@AEAAXI@Z 0000000180074b90 f i libucrtd:output.obj
 0001:00073bb0       ?set_flag@?$output_processor@_WV?$stream_output_adapter@_W@__crt_stdio_output@@V?$positional_parameter_base@_WV?$stream_output_adapter@_W@__crt_stdio_output@@@2@@__crt_stdio_output@@AEAAXI@Z 0000000180074bb0 f i libucrtd:output.obj
 0001:00073bd0       ?set_flag@?$output_processor@_WV?$stream_output_adapter@_W@__crt_stdio_output@@V?$standard_base@_WV?$stream_output_adapter@_W@__crt_stdio_output@@@2@@__crt_stdio_output@@AEAAXI@Z 0000000180074bd0 f i libucrtd:output.obj
 0001:00073bf0       ?set_flag@?$output_processor@_WV?$string_output_adapter@_W@__crt_stdio_output@@V?$format_validation_base@_WV?$string_output_adapter@_W@__crt_stdio_output@@@2@@__crt_stdio_output@@AEAAXI@Z 0000000180074bf0 f i libucrtd:output.obj
 0001:00073c10       ?set_flag@?$output_processor@_WV?$string_output_adapter@_W@__crt_stdio_output@@V?$positional_parameter_base@_WV?$string_output_adapter@_W@__crt_stdio_output@@@2@@__crt_stdio_output@@AEAAXI@Z 0000000180074c10 f i libucrtd:output.obj
 0001:00073c30       ?set_flag@?$output_processor@_WV?$string_output_adapter@_W@__crt_stdio_output@@V?$standard_base@_WV?$string_output_adapter@_W@__crt_stdio_output@@@2@@__crt_stdio_output@@AEAAXI@Z 0000000180074c30 f i libucrtd:output.obj
 0001:00073c50       ?should_format@?$positional_parameter_base@DV?$stream_output_adapter@D@__crt_stdio_output@@@__crt_stdio_output@@IEAA_NXZ 0000000180074c50 f i libucrtd:output.obj
 0001:00073c90       ?should_format@?$positional_parameter_base@DV?$string_output_adapter@D@__crt_stdio_output@@@__crt_stdio_output@@IEAA_NXZ 0000000180074c90 f i libucrtd:output.obj
 0001:00073cd0       ?should_format@?$positional_parameter_base@_WV?$stream_output_adapter@_W@__crt_stdio_output@@@__crt_stdio_output@@IEAA_NXZ 0000000180074cd0 f i libucrtd:output.obj
 0001:00073d10       ?should_format@?$positional_parameter_base@_WV?$string_output_adapter@_W@__crt_stdio_output@@@__crt_stdio_output@@IEAA_NXZ 0000000180074d10 f i libucrtd:output.obj
 0001:00073d50       ?should_format@?$standard_base@DV?$stream_output_adapter@D@__crt_stdio_output@@@__crt_stdio_output@@IEAA_NXZ 0000000180074d50 f i libucrtd:output.obj
 0001:00073d60       ?should_format@?$standard_base@DV?$string_output_adapter@D@__crt_stdio_output@@@__crt_stdio_output@@IEAA_NXZ 0000000180074d60 f i libucrtd:output.obj
 0001:00073d70       ?should_format@?$standard_base@_WV?$stream_output_adapter@_W@__crt_stdio_output@@@__crt_stdio_output@@IEAA_NXZ 0000000180074d70 f i libucrtd:output.obj
 0001:00073d80       ?should_format@?$standard_base@_WV?$string_output_adapter@_W@__crt_stdio_output@@@__crt_stdio_output@@IEAA_NXZ 0000000180074d80 f i libucrtd:output.obj
 0001:00073d90       ?should_skip_normal_state_processing@?$positional_parameter_base@DV?$stream_output_adapter@D@__crt_stdio_output@@@__crt_stdio_output@@IEAA_NXZ 0000000180074d90 f i libucrtd:output.obj
 0001:00073de0       ?should_skip_normal_state_processing@?$positional_parameter_base@DV?$string_output_adapter@D@__crt_stdio_output@@@__crt_stdio_output@@IEAA_NXZ 0000000180074de0 f i libucrtd:output.obj
 0001:00073e30       ?should_skip_normal_state_processing@?$positional_parameter_base@_WV?$stream_output_adapter@_W@__crt_stdio_output@@@__crt_stdio_output@@IEAA_NXZ 0000000180074e30 f i libucrtd:output.obj
 0001:00073e80       ?should_skip_normal_state_processing@?$positional_parameter_base@_WV?$string_output_adapter@_W@__crt_stdio_output@@@__crt_stdio_output@@IEAA_NXZ 0000000180074e80 f i libucrtd:output.obj
 0001:00073ed0       ?should_skip_normal_state_processing@?$standard_base@DV?$stream_output_adapter@D@__crt_stdio_output@@@__crt_stdio_output@@IEAA_NXZ 0000000180074ed0 f i libucrtd:output.obj
 0001:00073ee0       ?should_skip_normal_state_processing@?$standard_base@DV?$string_output_adapter@D@__crt_stdio_output@@@__crt_stdio_output@@IEAA_NXZ 0000000180074ee0 f i libucrtd:output.obj
 0001:00073ef0       ?should_skip_normal_state_processing@?$standard_base@_WV?$stream_output_adapter@_W@__crt_stdio_output@@@__crt_stdio_output@@IEAA_NXZ 0000000180074ef0 f i libucrtd:output.obj
 0001:00073f00       ?should_skip_normal_state_processing@?$standard_base@_WV?$string_output_adapter@_W@__crt_stdio_output@@@__crt_stdio_output@@IEAA_NXZ 0000000180074f00 f i libucrtd:output.obj
 0001:00073f10       ?should_skip_type_state_output@?$positional_parameter_base@DV?$stream_output_adapter@D@__crt_stdio_output@@@__crt_stdio_output@@IEBA_NXZ 0000000180074f10 f i libucrtd:output.obj
 0001:00073f50       ?should_skip_type_state_output@?$positional_parameter_base@DV?$string_output_adapter@D@__crt_stdio_output@@@__crt_stdio_output@@IEBA_NXZ 0000000180074f50 f i libucrtd:output.obj
 0001:00073f90       ?should_skip_type_state_output@?$positional_parameter_base@_WV?$stream_output_adapter@_W@__crt_stdio_output@@@__crt_stdio_output@@IEBA_NXZ 0000000180074f90 f i libucrtd:output.obj
 0001:00073fd0       ?should_skip_type_state_output@?$positional_parameter_base@_WV?$string_output_adapter@_W@__crt_stdio_output@@@__crt_stdio_output@@IEBA_NXZ 0000000180074fd0 f i libucrtd:output.obj
 0001:00074010       ?should_skip_type_state_output@?$standard_base@DV?$stream_output_adapter@D@__crt_stdio_output@@@__crt_stdio_output@@IEBA_NXZ 0000000180075010 f i libucrtd:output.obj
 0001:00074020       ?should_skip_type_state_output@?$standard_base@DV?$string_output_adapter@D@__crt_stdio_output@@@__crt_stdio_output@@IEBA_NXZ 0000000180075020 f i libucrtd:output.obj
 0001:00074030       ?should_skip_type_state_output@?$standard_base@_WV?$stream_output_adapter@_W@__crt_stdio_output@@@__crt_stdio_output@@IEBA_NXZ 0000000180075030 f i libucrtd:output.obj
 0001:00074040       ?should_skip_type_state_output@?$standard_base@_WV?$string_output_adapter@_W@__crt_stdio_output@@@__crt_stdio_output@@IEBA_NXZ 0000000180075040 f i libucrtd:output.obj
 0001:00074050       ?state_case_dot@?$output_processor@DV?$stream_output_adapter@D@__crt_stdio_output@@V?$format_validation_base@DV?$stream_output_adapter@D@__crt_stdio_output@@@2@@__crt_stdio_output@@AEAA_NXZ 0000000180075050 f i libucrtd:output.obj
 0001:00074070       ?state_case_dot@?$output_processor@DV?$stream_output_adapter@D@__crt_stdio_output@@V?$positional_parameter_base@DV?$stream_output_adapter@D@__crt_stdio_output@@@2@@__crt_stdio_output@@AEAA_NXZ 0000000180075070 f i libucrtd:output.obj
 0001:00074090       ?state_case_dot@?$output_processor@DV?$stream_output_adapter@D@__crt_stdio_output@@V?$standard_base@DV?$stream_output_adapter@D@__crt_stdio_output@@@2@@__crt_stdio_output@@AEAA_NXZ 0000000180075090 f i libucrtd:output.obj
 0001:000740b0       ?state_case_dot@?$output_processor@DV?$string_output_adapter@D@__crt_stdio_output@@V?$format_validation_base@DV?$string_output_adapter@D@__crt_stdio_output@@@2@@__crt_stdio_output@@AEAA_NXZ 00000001800750b0 f i libucrtd:output.obj
 0001:000740d0       ?state_case_dot@?$output_processor@DV?$string_output_adapter@D@__crt_stdio_output@@V?$positional_parameter_base@DV?$string_output_adapter@D@__crt_stdio_output@@@2@@__crt_stdio_output@@AEAA_NXZ 00000001800750d0 f i libucrtd:output.obj
 0001:000740f0       ?state_case_dot@?$output_processor@DV?$string_output_adapter@D@__crt_stdio_output@@V?$standard_base@DV?$string_output_adapter@D@__crt_stdio_output@@@2@@__crt_stdio_output@@AEAA_NXZ 00000001800750f0 f i libucrtd:output.obj
 0001:00074110       ?state_case_dot@?$output_processor@_WV?$stream_output_adapter@_W@__crt_stdio_output@@V?$format_validation_base@_WV?$stream_output_adapter@_W@__crt_stdio_output@@@2@@__crt_stdio_output@@AEAA_NXZ 0000000180075110 f i libucrtd:output.obj
 0001:00074130       ?state_case_dot@?$output_processor@_WV?$stream_output_adapter@_W@__crt_stdio_output@@V?$positional_parameter_base@_WV?$stream_output_adapter@_W@__crt_stdio_output@@@2@@__crt_stdio_output@@AEAA_NXZ 0000000180075130 f i libucrtd:output.obj
 0001:00074150       ?state_case_dot@?$output_processor@_WV?$stream_output_adapter@_W@__crt_stdio_output@@V?$standard_base@_WV?$stream_output_adapter@_W@__crt_stdio_output@@@2@@__crt_stdio_output@@AEAA_NXZ 0000000180075150 f i libucrtd:output.obj
 0001:00074170       ?state_case_dot@?$output_processor@_WV?$string_output_adapter@_W@__crt_stdio_output@@V?$format_validation_base@_WV?$string_output_adapter@_W@__crt_stdio_output@@@2@@__crt_stdio_output@@AEAA_NXZ 0000000180075170 f i libucrtd:output.obj
 0001:00074190       ?state_case_dot@?$output_processor@_WV?$string_output_adapter@_W@__crt_stdio_output@@V?$positional_parameter_base@_WV?$string_output_adapter@_W@__crt_stdio_output@@@2@@__crt_stdio_output@@AEAA_NXZ 0000000180075190 f i libucrtd:output.obj
 0001:000741b0       ?state_case_dot@?$output_processor@_WV?$string_output_adapter@_W@__crt_stdio_output@@V?$standard_base@_WV?$string_output_adapter@_W@__crt_stdio_output@@@2@@__crt_stdio_output@@AEAA_NXZ 00000001800751b0 f i libucrtd:output.obj
 0001:000741d0       ?state_case_flag@?$output_processor@DV?$stream_output_adapter@D@__crt_stdio_output@@V?$format_validation_base@DV?$stream_output_adapter@D@__crt_stdio_output@@@2@@__crt_stdio_output@@AEAA_NXZ 00000001800751d0 f i libucrtd:output.obj
 0001:00074270       ?state_case_flag@?$output_processor@DV?$stream_output_adapter@D@__crt_stdio_output@@V?$positional_parameter_base@DV?$stream_output_adapter@D@__crt_stdio_output@@@2@@__crt_stdio_output@@AEAA_NXZ 0000000180075270 f i libucrtd:output.obj
 0001:00074310       ?state_case_flag@?$output_processor@DV?$stream_output_adapter@D@__crt_stdio_output@@V?$standard_base@DV?$stream_output_adapter@D@__crt_stdio_output@@@2@@__crt_stdio_output@@AEAA_NXZ 0000000180075310 f i libucrtd:output.obj
 0001:000743b0       ?state_case_flag@?$output_processor@DV?$string_output_adapter@D@__crt_stdio_output@@V?$format_validation_base@DV?$string_output_adapter@D@__crt_stdio_output@@@2@@__crt_stdio_output@@AEAA_NXZ 00000001800753b0 f i libucrtd:output.obj
 0001:00074450       ?state_case_flag@?$output_processor@DV?$string_output_adapter@D@__crt_stdio_output@@V?$positional_parameter_base@DV?$string_output_adapter@D@__crt_stdio_output@@@2@@__crt_stdio_output@@AEAA_NXZ 0000000180075450 f i libucrtd:output.obj
 0001:000744f0       ?state_case_flag@?$output_processor@DV?$string_output_adapter@D@__crt_stdio_output@@V?$standard_base@DV?$string_output_adapter@D@__crt_stdio_output@@@2@@__crt_stdio_output@@AEAA_NXZ 00000001800754f0 f i libucrtd:output.obj
 0001:00074590       ?state_case_flag@?$output_processor@_WV?$stream_output_adapter@_W@__crt_stdio_output@@V?$format_validation_base@_WV?$stream_output_adapter@_W@__crt_stdio_output@@@2@@__crt_stdio_output@@AEAA_NXZ 0000000180075590 f i libucrtd:output.obj
 0001:00074630       ?state_case_flag@?$output_processor@_WV?$stream_output_adapter@_W@__crt_stdio_output@@V?$positional_parameter_base@_WV?$stream_output_adapter@_W@__crt_stdio_output@@@2@@__crt_stdio_output@@AEAA_NXZ 0000000180075630 f i libucrtd:output.obj
 0001:000746d0       ?state_case_flag@?$output_processor@_WV?$stream_output_adapter@_W@__crt_stdio_output@@V?$standard_base@_WV?$stream_output_adapter@_W@__crt_stdio_output@@@2@@__crt_stdio_output@@AEAA_NXZ 00000001800756d0 f i libucrtd:output.obj
 0001:00074770       ?state_case_flag@?$output_processor@_WV?$string_output_adapter@_W@__crt_stdio_output@@V?$format_validation_base@_WV?$string_output_adapter@_W@__crt_stdio_output@@@2@@__crt_stdio_output@@AEAA_NXZ 0000000180075770 f i libucrtd:output.obj
 0001:00074810       ?state_case_flag@?$output_processor@_WV?$string_output_adapter@_W@__crt_stdio_output@@V?$positional_parameter_base@_WV?$string_output_adapter@_W@__crt_stdio_output@@@2@@__crt_stdio_output@@AEAA_NXZ 0000000180075810 f i libucrtd:output.obj
 0001:000748b0       ?state_case_flag@?$output_processor@_WV?$string_output_adapter@_W@__crt_stdio_output@@V?$standard_base@_WV?$string_output_adapter@_W@__crt_stdio_output@@@2@@__crt_stdio_output@@AEAA_NXZ 00000001800758b0 f i libucrtd:output.obj
 0001:00074950       ?state_case_normal@?$output_processor@DV?$stream_output_adapter@D@__crt_stdio_output@@V?$format_validation_base@DV?$stream_output_adapter@D@__crt_stdio_output@@@2@@__crt_stdio_output@@AEAA_NXZ 0000000180075950 f i libucrtd:output.obj
 0001:00074a50       ?state_case_normal@?$output_processor@DV?$stream_output_adapter@D@__crt_stdio_output@@V?$positional_parameter_base@DV?$stream_output_adapter@D@__crt_stdio_output@@@2@@__crt_stdio_output@@AEAA_NXZ 0000000180075a50 f i libucrtd:output.obj
 0001:00074b50       ?state_case_normal@?$output_processor@DV?$stream_output_adapter@D@__crt_stdio_output@@V?$standard_base@DV?$stream_output_adapter@D@__crt_stdio_output@@@2@@__crt_stdio_output@@AEAA_NXZ 0000000180075b50 f i libucrtd:output.obj
 0001:00074c50       ?state_case_normal@?$output_processor@DV?$string_output_adapter@D@__crt_stdio_output@@V?$format_validation_base@DV?$string_output_adapter@D@__crt_stdio_output@@@2@@__crt_stdio_output@@AEAA_NXZ 0000000180075c50 f i libucrtd:output.obj
 0001:00074d50       ?state_case_normal@?$output_processor@DV?$string_output_adapter@D@__crt_stdio_output@@V?$positional_parameter_base@DV?$string_output_adapter@D@__crt_stdio_output@@@2@@__crt_stdio_output@@AEAA_NXZ 0000000180075d50 f i libucrtd:output.obj
 0001:00074e50       ?state_case_normal@?$output_processor@DV?$string_output_adapter@D@__crt_stdio_output@@V?$standard_base@DV?$string_output_adapter@D@__crt_stdio_output@@@2@@__crt_stdio_output@@AEAA_NXZ 0000000180075e50 f i libucrtd:output.obj
 0001:00074f50       ?state_case_normal@?$output_processor@_WV?$stream_output_adapter@_W@__crt_stdio_output@@V?$format_validation_base@_WV?$stream_output_adapter@_W@__crt_stdio_output@@@2@@__crt_stdio_output@@AEAA_NXZ 0000000180075f50 f i libucrtd:output.obj
 0001:00075050       ?state_case_normal@?$output_processor@_WV?$stream_output_adapter@_W@__crt_stdio_output@@V?$positional_parameter_base@_WV?$stream_output_adapter@_W@__crt_stdio_output@@@2@@__crt_stdio_output@@AEAA_NXZ 0000000180076050 f i libucrtd:output.obj
 0001:00075150       ?state_case_normal@?$output_processor@_WV?$stream_output_adapter@_W@__crt_stdio_output@@V?$standard_base@_WV?$stream_output_adapter@_W@__crt_stdio_output@@@2@@__crt_stdio_output@@AEAA_NXZ 0000000180076150 f i libucrtd:output.obj
 0001:00075250       ?state_case_normal@?$output_processor@_WV?$string_output_adapter@_W@__crt_stdio_output@@V?$format_validation_base@_WV?$string_output_adapter@_W@__crt_stdio_output@@@2@@__crt_stdio_output@@AEAA_NXZ 0000000180076250 f i libucrtd:output.obj
 0001:00075350       ?state_case_normal@?$output_processor@_WV?$string_output_adapter@_W@__crt_stdio_output@@V?$positional_parameter_base@_WV?$string_output_adapter@_W@__crt_stdio_output@@@2@@__crt_stdio_output@@AEAA_NXZ 0000000180076350 f i libucrtd:output.obj
 0001:00075450       ?state_case_normal@?$output_processor@_WV?$string_output_adapter@_W@__crt_stdio_output@@V?$standard_base@_WV?$string_output_adapter@_W@__crt_stdio_output@@@2@@__crt_stdio_output@@AEAA_NXZ 0000000180076450 f i libucrtd:output.obj
 0001:00075550       ?state_case_normal_common@?$output_processor@DV?$stream_output_adapter@D@__crt_stdio_output@@V?$format_validation_base@DV?$stream_output_adapter@D@__crt_stdio_output@@@2@@__crt_stdio_output@@AEAA_NXZ 0000000180076550 f i libucrtd:output.obj
 0001:000755b0       ?state_case_normal_common@?$output_processor@DV?$stream_output_adapter@D@__crt_stdio_output@@V?$positional_parameter_base@DV?$stream_output_adapter@D@__crt_stdio_output@@@2@@__crt_stdio_output@@AEAA_NXZ 00000001800765b0 f i libucrtd:output.obj
 0001:00075610       ?state_case_normal_common@?$output_processor@DV?$stream_output_adapter@D@__crt_stdio_output@@V?$standard_base@DV?$stream_output_adapter@D@__crt_stdio_output@@@2@@__crt_stdio_output@@AEAA_NXZ 0000000180076610 f i libucrtd:output.obj
 0001:00075670       ?state_case_normal_common@?$output_processor@DV?$string_output_adapter@D@__crt_stdio_output@@V?$format_validation_base@DV?$string_output_adapter@D@__crt_stdio_output@@@2@@__crt_stdio_output@@AEAA_NXZ 0000000180076670 f i libucrtd:output.obj
 0001:000756d0       ?state_case_normal_common@?$output_processor@DV?$string_output_adapter@D@__crt_stdio_output@@V?$positional_parameter_base@DV?$string_output_adapter@D@__crt_stdio_output@@@2@@__crt_stdio_output@@AEAA_NXZ 00000001800766d0 f i libucrtd:output.obj
 0001:00075730       ?state_case_normal_common@?$output_processor@DV?$string_output_adapter@D@__crt_stdio_output@@V?$standard_base@DV?$string_output_adapter@D@__crt_stdio_output@@@2@@__crt_stdio_output@@AEAA_NXZ 0000000180076730 f i libucrtd:output.obj
 0001:00075790       ?state_case_normal_common@?$output_processor@_WV?$stream_output_adapter@_W@__crt_stdio_output@@V?$format_validation_base@_WV?$stream_output_adapter@_W@__crt_stdio_output@@@2@@__crt_stdio_output@@AEAA_NXZ 0000000180076790 f i libucrtd:output.obj
 0001:000757f0       ?state_case_normal_common@?$output_processor@_WV?$stream_output_adapter@_W@__crt_stdio_output@@V?$positional_parameter_base@_WV?$stream_output_adapter@_W@__crt_stdio_output@@@2@@__crt_stdio_output@@AEAA_NXZ 00000001800767f0 f i libucrtd:output.obj
 0001:00075850       ?state_case_normal_common@?$output_processor@_WV?$stream_output_adapter@_W@__crt_stdio_output@@V?$standard_base@_WV?$stream_output_adapter@_W@__crt_stdio_output@@@2@@__crt_stdio_output@@AEAA_NXZ 0000000180076850 f i libucrtd:output.obj
 0001:000758b0       ?state_case_normal_common@?$output_processor@_WV?$string_output_adapter@_W@__crt_stdio_output@@V?$format_validation_base@_WV?$string_output_adapter@_W@__crt_stdio_output@@@2@@__crt_stdio_output@@AEAA_NXZ 00000001800768b0 f i libucrtd:output.obj
 0001:00075910       ?state_case_normal_common@?$output_processor@_WV?$string_output_adapter@_W@__crt_stdio_output@@V?$positional_parameter_base@_WV?$string_output_adapter@_W@__crt_stdio_output@@@2@@__crt_stdio_output@@AEAA_NXZ 0000000180076910 f i libucrtd:output.obj
 0001:00075970       ?state_case_normal_common@?$output_processor@_WV?$string_output_adapter@_W@__crt_stdio_output@@V?$standard_base@_WV?$string_output_adapter@_W@__crt_stdio_output@@@2@@__crt_stdio_output@@AEAA_NXZ 0000000180076970 f i libucrtd:output.obj
 0001:000759d0       ?state_case_normal_tchar@?$output_processor@DV?$stream_output_adapter@D@__crt_stdio_output@@V?$format_validation_base@DV?$stream_output_adapter@D@__crt_stdio_output@@@2@@__crt_stdio_output@@AEAA_ND@Z 00000001800769d0 f i libucrtd:output.obj
 0001:00075b60       ?state_case_normal_tchar@?$output_processor@DV?$stream_output_adapter@D@__crt_stdio_output@@V?$positional_parameter_base@DV?$stream_output_adapter@D@__crt_stdio_output@@@2@@__crt_stdio_output@@AEAA_ND@Z 0000000180076b60 f i libucrtd:output.obj
 0001:00075cf0       ?state_case_normal_tchar@?$output_processor@DV?$stream_output_adapter@D@__crt_stdio_output@@V?$standard_base@DV?$stream_output_adapter@D@__crt_stdio_output@@@2@@__crt_stdio_output@@AEAA_ND@Z 0000000180076cf0 f i libucrtd:output.obj
 0001:00075e80       ?state_case_normal_tchar@?$output_processor@DV?$string_output_adapter@D@__crt_stdio_output@@V?$format_validation_base@DV?$string_output_adapter@D@__crt_stdio_output@@@2@@__crt_stdio_output@@AEAA_ND@Z 0000000180076e80 f i libucrtd:output.obj
 0001:00076010       ?state_case_normal_tchar@?$output_processor@DV?$string_output_adapter@D@__crt_stdio_output@@V?$positional_parameter_base@DV?$string_output_adapter@D@__crt_stdio_output@@@2@@__crt_stdio_output@@AEAA_ND@Z 0000000180077010 f i libucrtd:output.obj
 0001:000761a0       ?state_case_normal_tchar@?$output_processor@DV?$string_output_adapter@D@__crt_stdio_output@@V?$standard_base@DV?$string_output_adapter@D@__crt_stdio_output@@@2@@__crt_stdio_output@@AEAA_ND@Z 00000001800771a0 f i libucrtd:output.obj
 0001:00076330       ?state_case_normal_tchar@?$output_processor@_WV?$stream_output_adapter@_W@__crt_stdio_output@@V?$format_validation_base@_WV?$stream_output_adapter@_W@__crt_stdio_output@@@2@@__crt_stdio_output@@AEAA_N_W@Z 0000000180077330 f i libucrtd:output.obj
 0001:00076350       ?state_case_normal_tchar@?$output_processor@_WV?$stream_output_adapter@_W@__crt_stdio_output@@V?$positional_parameter_base@_WV?$stream_output_adapter@_W@__crt_stdio_output@@@2@@__crt_stdio_output@@AEAA_N_W@Z 0000000180077350 f i libucrtd:output.obj
 0001:00076370       ?state_case_normal_tchar@?$output_processor@_WV?$stream_output_adapter@_W@__crt_stdio_output@@V?$standard_base@_WV?$stream_output_adapter@_W@__crt_stdio_output@@@2@@__crt_stdio_output@@AEAA_N_W@Z 0000000180077370 f i libucrtd:output.obj
 0001:00076390       ?state_case_normal_tchar@?$output_processor@_WV?$string_output_adapter@_W@__crt_stdio_output@@V?$format_validation_base@_WV?$string_output_adapter@_W@__crt_stdio_output@@@2@@__crt_stdio_output@@AEAA_N_W@Z 0000000180077390 f i libucrtd:output.obj
 0001:000763b0       ?state_case_normal_tchar@?$output_processor@_WV?$string_output_adapter@_W@__crt_stdio_output@@V?$positional_parameter_base@_WV?$string_output_adapter@_W@__crt_stdio_output@@@2@@__crt_stdio_output@@AEAA_N_W@Z 00000001800773b0 f i libucrtd:output.obj
 0001:000763d0       ?state_case_normal_tchar@?$output_processor@_WV?$string_output_adapter@_W@__crt_stdio_output@@V?$standard_base@_WV?$string_output_adapter@_W@__crt_stdio_output@@@2@@__crt_stdio_output@@AEAA_N_W@Z 00000001800773d0 f i libucrtd:output.obj
 0001:000763f0       ?state_case_percent@?$output_processor@DV?$stream_output_adapter@D@__crt_stdio_output@@V?$format_validation_base@DV?$stream_output_adapter@D@__crt_stdio_output@@@2@@__crt_stdio_output@@AEAA_NXZ 00000001800773f0 f i libucrtd:output.obj
 0001:00076440       ?state_case_percent@?$output_processor@DV?$stream_output_adapter@D@__crt_stdio_output@@V?$positional_parameter_base@DV?$stream_output_adapter@D@__crt_stdio_output@@@2@@__crt_stdio_output@@AEAA_NXZ 0000000180077440 f i libucrtd:output.obj
 0001:00076490       ?state_case_percent@?$output_processor@DV?$stream_output_adapter@D@__crt_stdio_output@@V?$standard_base@DV?$stream_output_adapter@D@__crt_stdio_output@@@2@@__crt_stdio_output@@AEAA_NXZ 0000000180077490 f i libucrtd:output.obj
 0001:000764e0       ?state_case_percent@?$output_processor@DV?$string_output_adapter@D@__crt_stdio_output@@V?$format_validation_base@DV?$string_output_adapter@D@__crt_stdio_output@@@2@@__crt_stdio_output@@AEAA_NXZ 00000001800774e0 f i libucrtd:output.obj
 0001:00076530       ?state_case_percent@?$output_processor@DV?$string_output_adapter@D@__crt_stdio_output@@V?$positional_parameter_base@DV?$string_output_adapter@D@__crt_stdio_output@@@2@@__crt_stdio_output@@AEAA_NXZ 0000000180077530 f i libucrtd:output.obj
 0001:00076580       ?state_case_percent@?$output_processor@DV?$string_output_adapter@D@__crt_stdio_output@@V?$standard_base@DV?$string_output_adapter@D@__crt_stdio_output@@@2@@__crt_stdio_output@@AEAA_NXZ 0000000180077580 f i libucrtd:output.obj
 0001:000765d0       ?state_case_percent@?$output_processor@_WV?$stream_output_adapter@_W@__crt_stdio_output@@V?$format_validation_base@_WV?$stream_output_adapter@_W@__crt_stdio_output@@@2@@__crt_stdio_output@@AEAA_NXZ 00000001800775d0 f i libucrtd:output.obj
 0001:00076620       ?state_case_percent@?$output_processor@_WV?$stream_output_adapter@_W@__crt_stdio_output@@V?$positional_parameter_base@_WV?$stream_output_adapter@_W@__crt_stdio_output@@@2@@__crt_stdio_output@@AEAA_NXZ 0000000180077620 f i libucrtd:output.obj
 0001:00076670       ?state_case_percent@?$output_processor@_WV?$stream_output_adapter@_W@__crt_stdio_output@@V?$standard_base@_WV?$stream_output_adapter@_W@__crt_stdio_output@@@2@@__crt_stdio_output@@AEAA_NXZ 0000000180077670 f i libucrtd:output.obj
 0001:000766c0       ?state_case_percent@?$output_processor@_WV?$string_output_adapter@_W@__crt_stdio_output@@V?$format_validation_base@_WV?$string_output_adapter@_W@__crt_stdio_output@@@2@@__crt_stdio_output@@AEAA_NXZ 00000001800776c0 f i libucrtd:output.obj
 0001:00076710       ?state_case_percent@?$output_processor@_WV?$string_output_adapter@_W@__crt_stdio_output@@V?$positional_parameter_base@_WV?$string_output_adapter@_W@__crt_stdio_output@@@2@@__crt_stdio_output@@AEAA_NXZ 0000000180077710 f i libucrtd:output.obj
 0001:00076760       ?state_case_percent@?$output_processor@_WV?$string_output_adapter@_W@__crt_stdio_output@@V?$standard_base@_WV?$string_output_adapter@_W@__crt_stdio_output@@@2@@__crt_stdio_output@@AEAA_NXZ 0000000180077760 f i libucrtd:output.obj
 0001:000767b0       ?state_case_precision@?$output_processor@DV?$stream_output_adapter@D@__crt_stdio_output@@V?$format_validation_base@DV?$stream_output_adapter@D@__crt_stdio_output@@@2@@__crt_stdio_output@@AEAA_NXZ 00000001800777b0 f i libucrtd:output.obj
 0001:00076830       ?state_case_precision@?$output_processor@DV?$stream_output_adapter@D@__crt_stdio_output@@V?$positional_parameter_base@DV?$stream_output_adapter@D@__crt_stdio_output@@@2@@__crt_stdio_output@@AEAA_NXZ 0000000180077830 f i libucrtd:output.obj
 0001:000768b0       ?state_case_precision@?$output_processor@DV?$stream_output_adapter@D@__crt_stdio_output@@V?$standard_base@DV?$stream_output_adapter@D@__crt_stdio_output@@@2@@__crt_stdio_output@@AEAA_NXZ 00000001800778b0 f i libucrtd:output.obj
 0001:00076930       ?state_case_precision@?$output_processor@DV?$string_output_adapter@D@__crt_stdio_output@@V?$format_validation_base@DV?$string_output_adapter@D@__crt_stdio_output@@@2@@__crt_stdio_output@@AEAA_NXZ 0000000180077930 f i libucrtd:output.obj
 0001:000769b0       ?state_case_precision@?$output_processor@DV?$string_output_adapter@D@__crt_stdio_output@@V?$positional_parameter_base@DV?$string_output_adapter@D@__crt_stdio_output@@@2@@__crt_stdio_output@@AEAA_NXZ 00000001800779b0 f i libucrtd:output.obj
 0001:00076a30       ?state_case_precision@?$output_processor@DV?$string_output_adapter@D@__crt_stdio_output@@V?$standard_base@DV?$string_output_adapter@D@__crt_stdio_output@@@2@@__crt_stdio_output@@AEAA_NXZ 0000000180077a30 f i libucrtd:output.obj
 0001:00076ab0       ?state_case_precision@?$output_processor@_WV?$stream_output_adapter@_W@__crt_stdio_output@@V?$format_validation_base@_WV?$stream_output_adapter@_W@__crt_stdio_output@@@2@@__crt_stdio_output@@AEAA_NXZ 0000000180077ab0 f i libucrtd:output.obj
 0001:00076b30       ?state_case_precision@?$output_processor@_WV?$stream_output_adapter@_W@__crt_stdio_output@@V?$positional_parameter_base@_WV?$stream_output_adapter@_W@__crt_stdio_output@@@2@@__crt_stdio_output@@AEAA_NXZ 0000000180077b30 f i libucrtd:output.obj
 0001:00076bb0       ?state_case_precision@?$output_processor@_WV?$stream_output_adapter@_W@__crt_stdio_output@@V?$standard_base@_WV?$stream_output_adapter@_W@__crt_stdio_output@@@2@@__crt_stdio_output@@AEAA_NXZ 0000000180077bb0 f i libucrtd:output.obj
 0001:00076c30       ?state_case_precision@?$output_processor@_WV?$string_output_adapter@_W@__crt_stdio_output@@V?$format_validation_base@_WV?$string_output_adapter@_W@__crt_stdio_output@@@2@@__crt_stdio_output@@AEAA_NXZ 0000000180077c30 f i libucrtd:output.obj
 0001:00076cb0       ?state_case_precision@?$output_processor@_WV?$string_output_adapter@_W@__crt_stdio_output@@V?$positional_parameter_base@_WV?$string_output_adapter@_W@__crt_stdio_output@@@2@@__crt_stdio_output@@AEAA_NXZ 0000000180077cb0 f i libucrtd:output.obj
 0001:00076d30       ?state_case_precision@?$output_processor@_WV?$string_output_adapter@_W@__crt_stdio_output@@V?$standard_base@_WV?$string_output_adapter@_W@__crt_stdio_output@@@2@@__crt_stdio_output@@AEAA_NXZ 0000000180077d30 f i libucrtd:output.obj
 0001:00076db0       ?state_case_size@?$output_processor@DV?$stream_output_adapter@D@__crt_stdio_output@@V?$format_validation_base@DV?$stream_output_adapter@D@__crt_stdio_output@@@2@@__crt_stdio_output@@AEAA_NXZ 0000000180077db0 f i libucrtd:output.obj
 0001:00077270       ?state_case_size@?$output_processor@DV?$stream_output_adapter@D@__crt_stdio_output@@V?$positional_parameter_base@DV?$stream_output_adapter@D@__crt_stdio_output@@@2@@__crt_stdio_output@@AEAA_NXZ 0000000180078270 f i libucrtd:output.obj
 0001:00077730       ?state_case_size@?$output_processor@DV?$stream_output_adapter@D@__crt_stdio_output@@V?$standard_base@DV?$stream_output_adapter@D@__crt_stdio_output@@@2@@__crt_stdio_output@@AEAA_NXZ 0000000180078730 f i libucrtd:output.obj
 0001:00077bf0       ?state_case_size@?$output_processor@DV?$string_output_adapter@D@__crt_stdio_output@@V?$format_validation_base@DV?$string_output_adapter@D@__crt_stdio_output@@@2@@__crt_stdio_output@@AEAA_NXZ 0000000180078bf0 f i libucrtd:output.obj
 0001:000780b0       ?state_case_size@?$output_processor@DV?$string_output_adapter@D@__crt_stdio_output@@V?$positional_parameter_base@DV?$string_output_adapter@D@__crt_stdio_output@@@2@@__crt_stdio_output@@AEAA_NXZ 00000001800790b0 f i libucrtd:output.obj
 0001:00078570       ?state_case_size@?$output_processor@DV?$string_output_adapter@D@__crt_stdio_output@@V?$standard_base@DV?$string_output_adapter@D@__crt_stdio_output@@@2@@__crt_stdio_output@@AEAA_NXZ 0000000180079570 f i libucrtd:output.obj
 0001:00078a30       ?state_case_size@?$output_processor@_WV?$stream_output_adapter@_W@__crt_stdio_output@@V?$format_validation_base@_WV?$stream_output_adapter@_W@__crt_stdio_output@@@2@@__crt_stdio_output@@AEAA_NXZ 0000000180079a30 f i libucrtd:output.obj
 0001:00078ef0       ?state_case_size@?$output_processor@_WV?$stream_output_adapter@_W@__crt_stdio_output@@V?$positional_parameter_base@_WV?$stream_output_adapter@_W@__crt_stdio_output@@@2@@__crt_stdio_output@@AEAA_NXZ 0000000180079ef0 f i libucrtd:output.obj
 0001:000793b0       ?state_case_size@?$output_processor@_WV?$stream_output_adapter@_W@__crt_stdio_output@@V?$standard_base@_WV?$stream_output_adapter@_W@__crt_stdio_output@@@2@@__crt_stdio_output@@AEAA_NXZ 000000018007a3b0 f i libucrtd:output.obj
 0001:00079870       ?state_case_size@?$output_processor@_WV?$string_output_adapter@_W@__crt_stdio_output@@V?$format_validation_base@_WV?$string_output_adapter@_W@__crt_stdio_output@@@2@@__crt_stdio_output@@AEAA_NXZ 000000018007a870 f i libucrtd:output.obj
 0001:00079d30       ?state_case_size@?$output_processor@_WV?$string_output_adapter@_W@__crt_stdio_output@@V?$positional_parameter_base@_WV?$string_output_adapter@_W@__crt_stdio_output@@@2@@__crt_stdio_output@@AEAA_NXZ 000000018007ad30 f i libucrtd:output.obj
 0001:0007a1f0       ?state_case_size@?$output_processor@_WV?$string_output_adapter@_W@__crt_stdio_output@@V?$standard_base@_WV?$string_output_adapter@_W@__crt_stdio_output@@@2@@__crt_stdio_output@@AEAA_NXZ 000000018007b1f0 f i libucrtd:output.obj
 0001:0007a6b0       ?state_case_type@?$output_processor@DV?$stream_output_adapter@D@__crt_stdio_output@@V?$format_validation_base@DV?$stream_output_adapter@D@__crt_stdio_output@@@2@@__crt_stdio_output@@AEAA_NXZ 000000018007b6b0 f i libucrtd:output.obj
 0001:0007ab70       ?state_case_type@?$output_processor@DV?$stream_output_adapter@D@__crt_stdio_output@@V?$positional_parameter_base@DV?$stream_output_adapter@D@__crt_stdio_output@@@2@@__crt_stdio_output@@AEAA_NXZ 000000018007bb70 f i libucrtd:output.obj
 0001:0007b030       ?state_case_type@?$output_processor@DV?$stream_output_adapter@D@__crt_stdio_output@@V?$standard_base@DV?$stream_output_adapter@D@__crt_stdio_output@@@2@@__crt_stdio_output@@AEAA_NXZ 000000018007c030 f i libucrtd:output.obj
 0001:0007b4f0       ?state_case_type@?$output_processor@DV?$string_output_adapter@D@__crt_stdio_output@@V?$format_validation_base@DV?$string_output_adapter@D@__crt_stdio_output@@@2@@__crt_stdio_output@@AEAA_NXZ 000000018007c4f0 f i libucrtd:output.obj
 0001:0007b9b0       ?state_case_type@?$output_processor@DV?$string_output_adapter@D@__crt_stdio_output@@V?$positional_parameter_base@DV?$string_output_adapter@D@__crt_stdio_output@@@2@@__crt_stdio_output@@AEAA_NXZ 000000018007c9b0 f i libucrtd:output.obj
 0001:0007be70       ?state_case_type@?$output_processor@DV?$string_output_adapter@D@__crt_stdio_output@@V?$standard_base@DV?$string_output_adapter@D@__crt_stdio_output@@@2@@__crt_stdio_output@@AEAA_NXZ 000000018007ce70 f i libucrtd:output.obj
 0001:0007c330       ?state_case_type@?$output_processor@_WV?$stream_output_adapter@_W@__crt_stdio_output@@V?$format_validation_base@_WV?$stream_output_adapter@_W@__crt_stdio_output@@@2@@__crt_stdio_output@@AEAA_NXZ 000000018007d330 f i libucrtd:output.obj
 0001:0007c8c0       ?state_case_type@?$output_processor@_WV?$stream_output_adapter@_W@__crt_stdio_output@@V?$positional_parameter_base@_WV?$stream_output_adapter@_W@__crt_stdio_output@@@2@@__crt_stdio_output@@AEAA_NXZ 000000018007d8c0 f i libucrtd:output.obj
 0001:0007ce50       ?state_case_type@?$output_processor@_WV?$stream_output_adapter@_W@__crt_stdio_output@@V?$standard_base@_WV?$stream_output_adapter@_W@__crt_stdio_output@@@2@@__crt_stdio_output@@AEAA_NXZ 000000018007de50 f i libucrtd:output.obj
 0001:0007d3e0       ?state_case_type@?$output_processor@_WV?$string_output_adapter@_W@__crt_stdio_output@@V?$format_validation_base@_WV?$string_output_adapter@_W@__crt_stdio_output@@@2@@__crt_stdio_output@@AEAA_NXZ 000000018007e3e0 f i libucrtd:output.obj
 0001:0007d970       ?state_case_type@?$output_processor@_WV?$string_output_adapter@_W@__crt_stdio_output@@V?$positional_parameter_base@_WV?$string_output_adapter@_W@__crt_stdio_output@@@2@@__crt_stdio_output@@AEAA_NXZ 000000018007e970 f i libucrtd:output.obj
 0001:0007df00       ?state_case_type@?$output_processor@_WV?$string_output_adapter@_W@__crt_stdio_output@@V?$standard_base@_WV?$string_output_adapter@_W@__crt_stdio_output@@@2@@__crt_stdio_output@@AEAA_NXZ 000000018007ef00 f i libucrtd:output.obj
 0001:0007e490       ?state_case_width@?$output_processor@DV?$stream_output_adapter@D@__crt_stdio_output@@V?$format_validation_base@DV?$stream_output_adapter@D@__crt_stdio_output@@@2@@__crt_stdio_output@@AEAA_NXZ 000000018007f490 f i libucrtd:output.obj
 0001:0007e520       ?state_case_width@?$output_processor@DV?$stream_output_adapter@D@__crt_stdio_output@@V?$positional_parameter_base@DV?$stream_output_adapter@D@__crt_stdio_output@@@2@@__crt_stdio_output@@AEAA_NXZ 000000018007f520 f i libucrtd:output.obj
 0001:0007e5b0       ?state_case_width@?$output_processor@DV?$stream_output_adapter@D@__crt_stdio_output@@V?$standard_base@DV?$stream_output_adapter@D@__crt_stdio_output@@@2@@__crt_stdio_output@@AEAA_NXZ 000000018007f5b0 f i libucrtd:output.obj
 0001:0007e640       ?state_case_width@?$output_processor@DV?$string_output_adapter@D@__crt_stdio_output@@V?$format_validation_base@DV?$string_output_adapter@D@__crt_stdio_output@@@2@@__crt_stdio_output@@AEAA_NXZ 000000018007f640 f i libucrtd:output.obj
 0001:0007e6d0       ?state_case_width@?$output_processor@DV?$string_output_adapter@D@__crt_stdio_output@@V?$positional_parameter_base@DV?$string_output_adapter@D@__crt_stdio_output@@@2@@__crt_stdio_output@@AEAA_NXZ 000000018007f6d0 f i libucrtd:output.obj
 0001:0007e760       ?state_case_width@?$output_processor@DV?$string_output_adapter@D@__crt_stdio_output@@V?$standard_base@DV?$string_output_adapter@D@__crt_stdio_output@@@2@@__crt_stdio_output@@AEAA_NXZ 000000018007f760 f i libucrtd:output.obj
 0001:0007e7f0       ?state_case_width@?$output_processor@_WV?$stream_output_adapter@_W@__crt_stdio_output@@V?$format_validation_base@_WV?$stream_output_adapter@_W@__crt_stdio_output@@@2@@__crt_stdio_output@@AEAA_NXZ 000000018007f7f0 f i libucrtd:output.obj
 0001:0007e880       ?state_case_width@?$output_processor@_WV?$stream_output_adapter@_W@__crt_stdio_output@@V?$positional_parameter_base@_WV?$stream_output_adapter@_W@__crt_stdio_output@@@2@@__crt_stdio_output@@AEAA_NXZ 000000018007f880 f i libucrtd:output.obj
 0001:0007e910       ?state_case_width@?$output_processor@_WV?$stream_output_adapter@_W@__crt_stdio_output@@V?$standard_base@_WV?$stream_output_adapter@_W@__crt_stdio_output@@@2@@__crt_stdio_output@@AEAA_NXZ 000000018007f910 f i libucrtd:output.obj
 0001:0007e9a0       ?state_case_width@?$output_processor@_WV?$string_output_adapter@_W@__crt_stdio_output@@V?$format_validation_base@_WV?$string_output_adapter@_W@__crt_stdio_output@@@2@@__crt_stdio_output@@AEAA_NXZ 000000018007f9a0 f i libucrtd:output.obj
 0001:0007ea30       ?state_case_width@?$output_processor@_WV?$string_output_adapter@_W@__crt_stdio_output@@V?$positional_parameter_base@_WV?$string_output_adapter@_W@__crt_stdio_output@@@2@@__crt_stdio_output@@AEAA_NXZ 000000018007fa30 f i libucrtd:output.obj
 0001:0007eac0       ?state_case_width@?$output_processor@_WV?$string_output_adapter@_W@__crt_stdio_output@@V?$standard_base@_WV?$string_output_adapter@_W@__crt_stdio_output@@@2@@__crt_stdio_output@@AEAA_NXZ 000000018007fac0 f i libucrtd:output.obj
 0001:0007eb50       ?state_count@?$format_validation_base@DV?$stream_output_adapter@D@__crt_stdio_output@@@__crt_stdio_output@@KAIXZ 000000018007fb50 f i libucrtd:output.obj
 0001:0007eb60       ?state_count@?$format_validation_base@DV?$string_output_adapter@D@__crt_stdio_output@@@__crt_stdio_output@@KAIXZ 000000018007fb60 f i libucrtd:output.obj
 0001:0007eb70       ?state_count@?$format_validation_base@_WV?$stream_output_adapter@_W@__crt_stdio_output@@@__crt_stdio_output@@KAIXZ 000000018007fb70 f i libucrtd:output.obj
 0001:0007eb80       ?state_count@?$format_validation_base@_WV?$string_output_adapter@_W@__crt_stdio_output@@@__crt_stdio_output@@KAIXZ 000000018007fb80 f i libucrtd:output.obj
 0001:0007eb90       ?state_count@?$standard_base@DV?$stream_output_adapter@D@__crt_stdio_output@@@__crt_stdio_output@@KAIXZ 000000018007fb90 f i libucrtd:output.obj
 0001:0007eba0       ?state_count@?$standard_base@DV?$string_output_adapter@D@__crt_stdio_output@@@__crt_stdio_output@@KAIXZ 000000018007fba0 f i libucrtd:output.obj
 0001:0007ebb0       ?state_count@?$standard_base@_WV?$stream_output_adapter@_W@__crt_stdio_output@@@__crt_stdio_output@@KAIXZ 000000018007fbb0 f i libucrtd:output.obj
 0001:0007ebc0       ?state_count@?$standard_base@_WV?$string_output_adapter@_W@__crt_stdio_output@@@__crt_stdio_output@@KAIXZ 000000018007fbc0 f i libucrtd:output.obj
 0001:0007ebd0       ?state_transition_table@?$format_validation_base@DV?$stream_output_adapter@D@__crt_stdio_output@@@__crt_stdio_output@@KAAEBV?$spectre_mitigated_lookup_table@Ustate_transition_pair@__crt_stdio_output@@$0IA@@2@XZ 000000018007fbd0 f i libucrtd:output.obj
 0001:0007ebe0       ?state_transition_table@?$format_validation_base@DV?$string_output_adapter@D@__crt_stdio_output@@@__crt_stdio_output@@KAAEBV?$spectre_mitigated_lookup_table@Ustate_transition_pair@__crt_stdio_output@@$0IA@@2@XZ 000000018007fbe0 f i libucrtd:output.obj
 0001:0007ebf0       ?state_transition_table@?$format_validation_base@_WV?$stream_output_adapter@_W@__crt_stdio_output@@@__crt_stdio_output@@KAAEBV?$spectre_mitigated_lookup_table@Ustate_transition_pair@__crt_stdio_output@@$0IA@@2@XZ 000000018007fbf0 f i libucrtd:output.obj
 0001:0007ec00       ?state_transition_table@?$format_validation_base@_WV?$string_output_adapter@_W@__crt_stdio_output@@@__crt_stdio_output@@KAAEBV?$spectre_mitigated_lookup_table@Ustate_transition_pair@__crt_stdio_output@@$0IA@@2@XZ 000000018007fc00 f i libucrtd:output.obj
 0001:0007ec10       ?state_transition_table@?$standard_base@DV?$stream_output_adapter@D@__crt_stdio_output@@@__crt_stdio_output@@KAAEBV?$spectre_mitigated_lookup_table@Ustate_transition_pair@__crt_stdio_output@@$0IA@@2@XZ 000000018007fc10 f i libucrtd:output.obj
 0001:0007ec20       ?state_transition_table@?$standard_base@DV?$string_output_adapter@D@__crt_stdio_output@@@__crt_stdio_output@@KAAEBV?$spectre_mitigated_lookup_table@Ustate_transition_pair@__crt_stdio_output@@$0IA@@2@XZ 000000018007fc20 f i libucrtd:output.obj
 0001:0007ec30       ?state_transition_table@?$standard_base@_WV?$stream_output_adapter@_W@__crt_stdio_output@@@__crt_stdio_output@@KAAEBV?$spectre_mitigated_lookup_table@Ustate_transition_pair@__crt_stdio_output@@$0IA@@2@XZ 000000018007fc30 f i libucrtd:output.obj
 0001:0007ec40       ?state_transition_table@?$standard_base@_WV?$string_output_adapter@_W@__crt_stdio_output@@@__crt_stdio_output@@KAAEBV?$spectre_mitigated_lookup_table@Ustate_transition_pair@__crt_stdio_output@@$0IA@@2@XZ 000000018007fc40 f i libucrtd:output.obj
 0001:0007ec50       ?tchar_string@?$common_data@D@__crt_stdio_output@@IEAAAEAPEADD@Z 000000018007fc50 f i libucrtd:output.obj
 0001:0007ec70       ?tchar_string@?$common_data@D@__crt_stdio_output@@IEAAAEAPEADXZ 000000018007fc70 f i libucrtd:output.obj
 0001:0007ec90       ?tchar_string@?$common_data@_W@__crt_stdio_output@@IEAAAEAPEA_WXZ 000000018007fc90 f i libucrtd:output.obj
 0001:0007ecb0       ?tchar_string@?$common_data@_W@__crt_stdio_output@@IEAAAEAPEA_W_W@Z 000000018007fcb0 f i libucrtd:output.obj
 0001:0007ecd0       ?to_integer_size@__crt_stdio_output@@YA_KW4length_modifier@1@@Z 000000018007fcd0 f i libucrtd:output.obj
 0001:0007ed80       ?type_case_X@?$output_processor@DV?$stream_output_adapter@D@__crt_stdio_output@@V?$format_validation_base@DV?$stream_output_adapter@D@__crt_stdio_output@@@2@@__crt_stdio_output@@AEAA_NXZ 000000018007fd80 f i libucrtd:output.obj
 0001:0007eda0       ?type_case_X@?$output_processor@DV?$stream_output_adapter@D@__crt_stdio_output@@V?$positional_parameter_base@DV?$stream_output_adapter@D@__crt_stdio_output@@@2@@__crt_stdio_output@@AEAA_NXZ 000000018007fda0 f i libucrtd:output.obj
 0001:0007edc0       ?type_case_X@?$output_processor@DV?$stream_output_adapter@D@__crt_stdio_output@@V?$standard_base@DV?$stream_output_adapter@D@__crt_stdio_output@@@2@@__crt_stdio_output@@AEAA_NXZ 000000018007fdc0 f i libucrtd:output.obj
 0001:0007ede0       ?type_case_X@?$output_processor@DV?$string_output_adapter@D@__crt_stdio_output@@V?$format_validation_base@DV?$string_output_adapter@D@__crt_stdio_output@@@2@@__crt_stdio_output@@AEAA_NXZ 000000018007fde0 f i libucrtd:output.obj
 0001:0007ee00       ?type_case_X@?$output_processor@DV?$string_output_adapter@D@__crt_stdio_output@@V?$positional_parameter_base@DV?$string_output_adapter@D@__crt_stdio_output@@@2@@__crt_stdio_output@@AEAA_NXZ 000000018007fe00 f i libucrtd:output.obj
 0001:0007ee20       ?type_case_X@?$output_processor@DV?$string_output_adapter@D@__crt_stdio_output@@V?$standard_base@DV?$string_output_adapter@D@__crt_stdio_output@@@2@@__crt_stdio_output@@AEAA_NXZ 000000018007fe20 f i libucrtd:output.obj
 0001:0007ee40       ?type_case_X@?$output_processor@_WV?$stream_output_adapter@_W@__crt_stdio_output@@V?$format_validation_base@_WV?$stream_output_adapter@_W@__crt_stdio_output@@@2@@__crt_stdio_output@@AEAA_NXZ 000000018007fe40 f i libucrtd:output.obj
 0001:0007ee60       ?type_case_X@?$output_processor@_WV?$stream_output_adapter@_W@__crt_stdio_output@@V?$positional_parameter_base@_WV?$stream_output_adapter@_W@__crt_stdio_output@@@2@@__crt_stdio_output@@AEAA_NXZ 000000018007fe60 f i libucrtd:output.obj
 0001:0007ee80       ?type_case_X@?$output_processor@_WV?$stream_output_adapter@_W@__crt_stdio_output@@V?$standard_base@_WV?$stream_output_adapter@_W@__crt_stdio_output@@@2@@__crt_stdio_output@@AEAA_NXZ 000000018007fe80 f i libucrtd:output.obj
 0001:0007eea0       ?type_case_X@?$output_processor@_WV?$string_output_adapter@_W@__crt_stdio_output@@V?$format_validation_base@_WV?$string_output_adapter@_W@__crt_stdio_output@@@2@@__crt_stdio_output@@AEAA_NXZ 000000018007fea0 f i libucrtd:output.obj
 0001:0007eec0       ?type_case_X@?$output_processor@_WV?$string_output_adapter@_W@__crt_stdio_output@@V?$positional_parameter_base@_WV?$string_output_adapter@_W@__crt_stdio_output@@@2@@__crt_stdio_output@@AEAA_NXZ 000000018007fec0 f i libucrtd:output.obj
 0001:0007eee0       ?type_case_X@?$output_processor@_WV?$string_output_adapter@_W@__crt_stdio_output@@V?$standard_base@_WV?$string_output_adapter@_W@__crt_stdio_output@@@2@@__crt_stdio_output@@AEAA_NXZ 000000018007fee0 f i libucrtd:output.obj
 0001:0007ef00       ?type_case_Z@?$output_processor@DV?$stream_output_adapter@D@__crt_stdio_output@@V?$format_validation_base@DV?$stream_output_adapter@D@__crt_stdio_output@@@2@@__crt_stdio_output@@AEAA_NXZ 000000018007ff00 f i libucrtd:output.obj
 0001:0007f020       ?type_case_Z@?$output_processor@DV?$stream_output_adapter@D@__crt_stdio_output@@V?$positional_parameter_base@DV?$stream_output_adapter@D@__crt_stdio_output@@@2@@__crt_stdio_output@@AEAA_NXZ 0000000180080020 f i libucrtd:output.obj
 0001:0007f140       ?type_case_Z@?$output_processor@DV?$stream_output_adapter@D@__crt_stdio_output@@V?$standard_base@DV?$stream_output_adapter@D@__crt_stdio_output@@@2@@__crt_stdio_output@@AEAA_NXZ 0000000180080140 f i libucrtd:output.obj
 0001:0007f260       ?type_case_Z@?$output_processor@DV?$string_output_adapter@D@__crt_stdio_output@@V?$format_validation_base@DV?$string_output_adapter@D@__crt_stdio_output@@@2@@__crt_stdio_output@@AEAA_NXZ 0000000180080260 f i libucrtd:output.obj
 0001:0007f380       ?type_case_Z@?$output_processor@DV?$string_output_adapter@D@__crt_stdio_output@@V?$positional_parameter_base@DV?$string_output_adapter@D@__crt_stdio_output@@@2@@__crt_stdio_output@@AEAA_NXZ 0000000180080380 f i libucrtd:output.obj
 0001:0007f4a0       ?type_case_Z@?$output_processor@DV?$string_output_adapter@D@__crt_stdio_output@@V?$standard_base@DV?$string_output_adapter@D@__crt_stdio_output@@@2@@__crt_stdio_output@@AEAA_NXZ 00000001800804a0 f i libucrtd:output.obj
 0001:0007f5c0       ?type_case_Z@?$output_processor@_WV?$stream_output_adapter@_W@__crt_stdio_output@@V?$format_validation_base@_WV?$stream_output_adapter@_W@__crt_stdio_output@@@2@@__crt_stdio_output@@AEAA_NXZ 00000001800805c0 f i libucrtd:output.obj
 0001:0007f6e0       ?type_case_Z@?$output_processor@_WV?$stream_output_adapter@_W@__crt_stdio_output@@V?$positional_parameter_base@_WV?$stream_output_adapter@_W@__crt_stdio_output@@@2@@__crt_stdio_output@@AEAA_NXZ 00000001800806e0 f i libucrtd:output.obj
 0001:0007f800       ?type_case_Z@?$output_processor@_WV?$stream_output_adapter@_W@__crt_stdio_output@@V?$standard_base@_WV?$stream_output_adapter@_W@__crt_stdio_output@@@2@@__crt_stdio_output@@AEAA_NXZ 0000000180080800 f i libucrtd:output.obj
 0001:0007f920       ?type_case_Z@?$output_processor@_WV?$string_output_adapter@_W@__crt_stdio_output@@V?$format_validation_base@_WV?$string_output_adapter@_W@__crt_stdio_output@@@2@@__crt_stdio_output@@AEAA_NXZ 0000000180080920 f i libucrtd:output.obj
 0001:0007fa40       ?type_case_Z@?$output_processor@_WV?$string_output_adapter@_W@__crt_stdio_output@@V?$positional_parameter_base@_WV?$string_output_adapter@_W@__crt_stdio_output@@@2@@__crt_stdio_output@@AEAA_NXZ 0000000180080a40 f i libucrtd:output.obj
 0001:0007fb60       ?type_case_Z@?$output_processor@_WV?$string_output_adapter@_W@__crt_stdio_output@@V?$standard_base@_WV?$string_output_adapter@_W@__crt_stdio_output@@@2@@__crt_stdio_output@@AEAA_NXZ 0000000180080b60 f i libucrtd:output.obj
 0001:0007fc80       ?type_case_a@?$output_processor@DV?$stream_output_adapter@D@__crt_stdio_output@@V?$format_validation_base@DV?$stream_output_adapter@D@__crt_stdio_output@@@2@@__crt_stdio_output@@AEAA_NXZ 0000000180080c80 f i libucrtd:output.obj
 0001:000800e0       ?type_case_a@?$output_processor@DV?$stream_output_adapter@D@__crt_stdio_output@@V?$positional_parameter_base@DV?$stream_output_adapter@D@__crt_stdio_output@@@2@@__crt_stdio_output@@AEAA_NXZ 00000001800810e0 f i libucrtd:output.obj
 0001:00080540       ?type_case_a@?$output_processor@DV?$stream_output_adapter@D@__crt_stdio_output@@V?$standard_base@DV?$stream_output_adapter@D@__crt_stdio_output@@@2@@__crt_stdio_output@@AEAA_NXZ 0000000180081540 f i libucrtd:output.obj
 0001:000809a0       ?type_case_a@?$output_processor@DV?$string_output_adapter@D@__crt_stdio_output@@V?$format_validation_base@DV?$string_output_adapter@D@__crt_stdio_output@@@2@@__crt_stdio_output@@AEAA_NXZ 00000001800819a0 f i libucrtd:output.obj
 0001:00080e00       ?type_case_a@?$output_processor@DV?$string_output_adapter@D@__crt_stdio_output@@V?$positional_parameter_base@DV?$string_output_adapter@D@__crt_stdio_output@@@2@@__crt_stdio_output@@AEAA_NXZ 0000000180081e00 f i libucrtd:output.obj
 0001:00081260       ?type_case_a@?$output_processor@DV?$string_output_adapter@D@__crt_stdio_output@@V?$standard_base@DV?$string_output_adapter@D@__crt_stdio_output@@@2@@__crt_stdio_output@@AEAA_NXZ 0000000180082260 f i libucrtd:output.obj
 0001:000816c0       ?type_case_a@?$output_processor@_WV?$stream_output_adapter@_W@__crt_stdio_output@@V?$format_validation_base@_WV?$stream_output_adapter@_W@__crt_stdio_output@@@2@@__crt_stdio_output@@AEAA_NXZ 00000001800826c0 f i libucrtd:output.obj
 0001:00081b30       ?type_case_a@?$output_processor@_WV?$stream_output_adapter@_W@__crt_stdio_output@@V?$positional_parameter_base@_WV?$stream_output_adapter@_W@__crt_stdio_output@@@2@@__crt_stdio_output@@AEAA_NXZ 0000000180082b30 f i libucrtd:output.obj
 0001:00081fa0       ?type_case_a@?$output_processor@_WV?$stream_output_adapter@_W@__crt_stdio_output@@V?$standard_base@_WV?$stream_output_adapter@_W@__crt_stdio_output@@@2@@__crt_stdio_output@@AEAA_NXZ 0000000180082fa0 f i libucrtd:output.obj
 0001:00082410       ?type_case_a@?$output_processor@_WV?$string_output_adapter@_W@__crt_stdio_output@@V?$format_validation_base@_WV?$string_output_adapter@_W@__crt_stdio_output@@@2@@__crt_stdio_output@@AEAA_NXZ 0000000180083410 f i libucrtd:output.obj
 0001:00082880       ?type_case_a@?$output_processor@_WV?$string_output_adapter@_W@__crt_stdio_output@@V?$positional_parameter_base@_WV?$string_output_adapter@_W@__crt_stdio_output@@@2@@__crt_stdio_output@@AEAA_NXZ 0000000180083880 f i libucrtd:output.obj
 0001:00082cf0       ?type_case_a@?$output_processor@_WV?$string_output_adapter@_W@__crt_stdio_output@@V?$standard_base@_WV?$string_output_adapter@_W@__crt_stdio_output@@@2@@__crt_stdio_output@@AEAA_NXZ 0000000180083cf0 f i libucrtd:output.obj
 0001:00083160       ?type_case_c@?$output_processor@DV?$stream_output_adapter@D@__crt_stdio_output@@V?$format_validation_base@DV?$stream_output_adapter@D@__crt_stdio_output@@@2@@__crt_stdio_output@@AEAA_NXZ 0000000180084160 f i libucrtd:output.obj
 0001:00083180       ?type_case_c@?$output_processor@DV?$stream_output_adapter@D@__crt_stdio_output@@V?$positional_parameter_base@DV?$stream_output_adapter@D@__crt_stdio_output@@@2@@__crt_stdio_output@@AEAA_NXZ 0000000180084180 f i libucrtd:output.obj
 0001:000831a0       ?type_case_c@?$output_processor@DV?$stream_output_adapter@D@__crt_stdio_output@@V?$standard_base@DV?$stream_output_adapter@D@__crt_stdio_output@@@2@@__crt_stdio_output@@AEAA_NXZ 00000001800841a0 f i libucrtd:output.obj
 0001:000831c0       ?type_case_c@?$output_processor@DV?$string_output_adapter@D@__crt_stdio_output@@V?$format_validation_base@DV?$string_output_adapter@D@__crt_stdio_output@@@2@@__crt_stdio_output@@AEAA_NXZ 00000001800841c0 f i libucrtd:output.obj
 0001:000831e0       ?type_case_c@?$output_processor@DV?$string_output_adapter@D@__crt_stdio_output@@V?$positional_parameter_base@DV?$string_output_adapter@D@__crt_stdio_output@@@2@@__crt_stdio_output@@AEAA_NXZ 00000001800841e0 f i libucrtd:output.obj
 0001:00083200       ?type_case_c@?$output_processor@DV?$string_output_adapter@D@__crt_stdio_output@@V?$standard_base@DV?$string_output_adapter@D@__crt_stdio_output@@@2@@__crt_stdio_output@@AEAA_NXZ 0000000180084200 f i libucrtd:output.obj
 0001:00083220       ?type_case_c@?$output_processor@_WV?$stream_output_adapter@_W@__crt_stdio_output@@V?$format_validation_base@_WV?$stream_output_adapter@_W@__crt_stdio_output@@@2@@__crt_stdio_output@@AEAA_NXZ 0000000180084220 f i libucrtd:output.obj
 0001:00083240       ?type_case_c@?$output_processor@_WV?$stream_output_adapter@_W@__crt_stdio_output@@V?$positional_parameter_base@_WV?$stream_output_adapter@_W@__crt_stdio_output@@@2@@__crt_stdio_output@@AEAA_NXZ 0000000180084240 f i libucrtd:output.obj
 0001:00083260       ?type_case_c@?$output_processor@_WV?$stream_output_adapter@_W@__crt_stdio_output@@V?$standard_base@_WV?$stream_output_adapter@_W@__crt_stdio_output@@@2@@__crt_stdio_output@@AEAA_NXZ 0000000180084260 f i libucrtd:output.obj
 0001:00083280       ?type_case_c@?$output_processor@_WV?$string_output_adapter@_W@__crt_stdio_output@@V?$format_validation_base@_WV?$string_output_adapter@_W@__crt_stdio_output@@@2@@__crt_stdio_output@@AEAA_NXZ 0000000180084280 f i libucrtd:output.obj
 0001:000832a0       ?type_case_c@?$output_processor@_WV?$string_output_adapter@_W@__crt_stdio_output@@V?$positional_parameter_base@_WV?$string_output_adapter@_W@__crt_stdio_output@@@2@@__crt_stdio_output@@AEAA_NXZ 00000001800842a0 f i libucrtd:output.obj
 0001:000832c0       ?type_case_c@?$output_processor@_WV?$string_output_adapter@_W@__crt_stdio_output@@V?$standard_base@_WV?$string_output_adapter@_W@__crt_stdio_output@@@2@@__crt_stdio_output@@AEAA_NXZ 00000001800842c0 f i libucrtd:output.obj
 0001:000832e0       ?type_case_c_tchar@?$output_processor@DV?$stream_output_adapter@D@__crt_stdio_output@@V?$format_validation_base@DV?$stream_output_adapter@D@__crt_stdio_output@@@2@@__crt_stdio_output@@AEAA_ND@Z 00000001800842e0 f i libucrtd:output.obj
 0001:00083450       ?type_case_c_tchar@?$output_processor@DV?$stream_output_adapter@D@__crt_stdio_output@@V?$positional_parameter_base@DV?$stream_output_adapter@D@__crt_stdio_output@@@2@@__crt_stdio_output@@AEAA_ND@Z 0000000180084450 f i libucrtd:output.obj
 0001:000835c0       ?type_case_c_tchar@?$output_processor@DV?$stream_output_adapter@D@__crt_stdio_output@@V?$standard_base@DV?$stream_output_adapter@D@__crt_stdio_output@@@2@@__crt_stdio_output@@AEAA_ND@Z 00000001800845c0 f i libucrtd:output.obj
 0001:00083730       ?type_case_c_tchar@?$output_processor@DV?$string_output_adapter@D@__crt_stdio_output@@V?$format_validation_base@DV?$string_output_adapter@D@__crt_stdio_output@@@2@@__crt_stdio_output@@AEAA_ND@Z 0000000180084730 f i libucrtd:output.obj
 0001:000838a0       ?type_case_c_tchar@?$output_processor@DV?$string_output_adapter@D@__crt_stdio_output@@V?$positional_parameter_base@DV?$string_output_adapter@D@__crt_stdio_output@@@2@@__crt_stdio_output@@AEAA_ND@Z 00000001800848a0 f i libucrtd:output.obj
 0001:00083a10       ?type_case_c_tchar@?$output_processor@DV?$string_output_adapter@D@__crt_stdio_output@@V?$standard_base@DV?$string_output_adapter@D@__crt_stdio_output@@@2@@__crt_stdio_output@@AEAA_ND@Z 0000000180084a10 f i libucrtd:output.obj
 0001:00083b80       ?type_case_c_tchar@?$output_processor@_WV?$stream_output_adapter@_W@__crt_stdio_output@@V?$format_validation_base@_WV?$stream_output_adapter@_W@__crt_stdio_output@@@2@@__crt_stdio_output@@AEAA_N_W@Z 0000000180084b80 f i libucrtd:output.obj
 0001:00083ce0       ?type_case_c_tchar@?$output_processor@_WV?$stream_output_adapter@_W@__crt_stdio_output@@V?$positional_parameter_base@_WV?$stream_output_adapter@_W@__crt_stdio_output@@@2@@__crt_stdio_output@@AEAA_N_W@Z 0000000180084ce0 f i libucrtd:output.obj
 0001:00083e40       ?type_case_c_tchar@?$output_processor@_WV?$stream_output_adapter@_W@__crt_stdio_output@@V?$standard_base@_WV?$stream_output_adapter@_W@__crt_stdio_output@@@2@@__crt_stdio_output@@AEAA_N_W@Z 0000000180084e40 f i libucrtd:output.obj
 0001:00083fa0       ?type_case_c_tchar@?$output_processor@_WV?$string_output_adapter@_W@__crt_stdio_output@@V?$format_validation_base@_WV?$string_output_adapter@_W@__crt_stdio_output@@@2@@__crt_stdio_output@@AEAA_N_W@Z 0000000180084fa0 f i libucrtd:output.obj
 0001:00084100       ?type_case_c_tchar@?$output_processor@_WV?$string_output_adapter@_W@__crt_stdio_output@@V?$positional_parameter_base@_WV?$string_output_adapter@_W@__crt_stdio_output@@@2@@__crt_stdio_output@@AEAA_N_W@Z 0000000180085100 f i libucrtd:output.obj
 0001:00084260       ?type_case_c_tchar@?$output_processor@_WV?$string_output_adapter@_W@__crt_stdio_output@@V?$standard_base@_WV?$string_output_adapter@_W@__crt_stdio_output@@@2@@__crt_stdio_output@@AEAA_N_W@Z 0000000180085260 f i libucrtd:output.obj
 0001:000843c0       ?type_case_d@?$output_processor@DV?$stream_output_adapter@D@__crt_stdio_output@@V?$format_validation_base@DV?$stream_output_adapter@D@__crt_stdio_output@@@2@@__crt_stdio_output@@AEAA_NXZ 00000001800853c0 f i libucrtd:output.obj
 0001:000843f0       ?type_case_d@?$output_processor@DV?$stream_output_adapter@D@__crt_stdio_output@@V?$positional_parameter_base@DV?$stream_output_adapter@D@__crt_stdio_output@@@2@@__crt_stdio_output@@AEAA_NXZ 00000001800853f0 f i libucrtd:output.obj
 0001:00084420       ?type_case_d@?$output_processor@DV?$stream_output_adapter@D@__crt_stdio_output@@V?$standard_base@DV?$stream_output_adapter@D@__crt_stdio_output@@@2@@__crt_stdio_output@@AEAA_NXZ 0000000180085420 f i libucrtd:output.obj
 0001:00084450       ?type_case_d@?$output_processor@DV?$string_output_adapter@D@__crt_stdio_output@@V?$format_validation_base@DV?$string_output_adapter@D@__crt_stdio_output@@@2@@__crt_stdio_output@@AEAA_NXZ 0000000180085450 f i libucrtd:output.obj
 0001:00084480       ?type_case_d@?$output_processor@DV?$string_output_adapter@D@__crt_stdio_output@@V?$positional_parameter_base@DV?$string_output_adapter@D@__crt_stdio_output@@@2@@__crt_stdio_output@@AEAA_NXZ 0000000180085480 f i libucrtd:output.obj
 0001:000844b0       ?type_case_d@?$output_processor@DV?$string_output_adapter@D@__crt_stdio_output@@V?$standard_base@DV?$string_output_adapter@D@__crt_stdio_output@@@2@@__crt_stdio_output@@AEAA_NXZ 00000001800854b0 f i libucrtd:output.obj
 0001:000844e0       ?type_case_d@?$output_processor@_WV?$stream_output_adapter@_W@__crt_stdio_output@@V?$format_validation_base@_WV?$stream_output_adapter@_W@__crt_stdio_output@@@2@@__crt_stdio_output@@AEAA_NXZ 00000001800854e0 f i libucrtd:output.obj
 0001:00084510       ?type_case_d@?$output_processor@_WV?$stream_output_adapter@_W@__crt_stdio_output@@V?$positional_parameter_base@_WV?$stream_output_adapter@_W@__crt_stdio_output@@@2@@__crt_stdio_output@@AEAA_NXZ 0000000180085510 f i libucrtd:output.obj
 0001:00084540       ?type_case_d@?$output_processor@_WV?$stream_output_adapter@_W@__crt_stdio_output@@V?$standard_base@_WV?$stream_output_adapter@_W@__crt_stdio_output@@@2@@__crt_stdio_output@@AEAA_NXZ 0000000180085540 f i libucrtd:output.obj
 0001:00084570       ?type_case_d@?$output_processor@_WV?$string_output_adapter@_W@__crt_stdio_output@@V?$format_validation_base@_WV?$string_output_adapter@_W@__crt_stdio_output@@@2@@__crt_stdio_output@@AEAA_NXZ 0000000180085570 f i libucrtd:output.obj
 0001:000845a0       ?type_case_d@?$output_processor@_WV?$string_output_adapter@_W@__crt_stdio_output@@V?$positional_parameter_base@_WV?$string_output_adapter@_W@__crt_stdio_output@@@2@@__crt_stdio_output@@AEAA_NXZ 00000001800855a0 f i libucrtd:output.obj
 0001:000845d0       ?type_case_d@?$output_processor@_WV?$string_output_adapter@_W@__crt_stdio_output@@V?$standard_base@_WV?$string_output_adapter@_W@__crt_stdio_output@@@2@@__crt_stdio_output@@AEAA_NXZ 00000001800855d0 f i libucrtd:output.obj
 0001:00084600       ?type_case_n@?$output_processor@DV?$stream_output_adapter@D@__crt_stdio_output@@V?$format_validation_base@DV?$stream_output_adapter@D@__crt_stdio_output@@@2@@__crt_stdio_output@@AEAA_NXZ 0000000180085600 f i libucrtd:output.obj
 0001:00084890       ?type_case_n@?$output_processor@DV?$stream_output_adapter@D@__crt_stdio_output@@V?$positional_parameter_base@DV?$stream_output_adapter@D@__crt_stdio_output@@@2@@__crt_stdio_output@@AEAA_NXZ 0000000180085890 f i libucrtd:output.obj
 0001:00084b20       ?type_case_n@?$output_processor@DV?$stream_output_adapter@D@__crt_stdio_output@@V?$standard_base@DV?$stream_output_adapter@D@__crt_stdio_output@@@2@@__crt_stdio_output@@AEAA_NXZ 0000000180085b20 f i libucrtd:output.obj
 0001:00084db0       ?type_case_n@?$output_processor@DV?$string_output_adapter@D@__crt_stdio_output@@V?$format_validation_base@DV?$string_output_adapter@D@__crt_stdio_output@@@2@@__crt_stdio_output@@AEAA_NXZ 0000000180085db0 f i libucrtd:output.obj
 0001:00085040       ?type_case_n@?$output_processor@DV?$string_output_adapter@D@__crt_stdio_output@@V?$positional_parameter_base@DV?$string_output_adapter@D@__crt_stdio_output@@@2@@__crt_stdio_output@@AEAA_NXZ 0000000180086040 f i libucrtd:output.obj
 0001:000852d0       ?type_case_n@?$output_processor@DV?$string_output_adapter@D@__crt_stdio_output@@V?$standard_base@DV?$string_output_adapter@D@__crt_stdio_output@@@2@@__crt_stdio_output@@AEAA_NXZ 00000001800862d0 f i libucrtd:output.obj
 0001:00085560       ?type_case_n@?$output_processor@_WV?$stream_output_adapter@_W@__crt_stdio_output@@V?$format_validation_base@_WV?$stream_output_adapter@_W@__crt_stdio_output@@@2@@__crt_stdio_output@@AEAA_NXZ 0000000180086560 f i libucrtd:output.obj
 0001:000857f0       ?type_case_n@?$output_processor@_WV?$stream_output_adapter@_W@__crt_stdio_output@@V?$positional_parameter_base@_WV?$stream_output_adapter@_W@__crt_stdio_output@@@2@@__crt_stdio_output@@AEAA_NXZ 00000001800867f0 f i libucrtd:output.obj
 0001:00085a80       ?type_case_n@?$output_processor@_WV?$stream_output_adapter@_W@__crt_stdio_output@@V?$standard_base@_WV?$stream_output_adapter@_W@__crt_stdio_output@@@2@@__crt_stdio_output@@AEAA_NXZ 0000000180086a80 f i libucrtd:output.obj
 0001:00085d10       ?type_case_n@?$output_processor@_WV?$string_output_adapter@_W@__crt_stdio_output@@V?$format_validation_base@_WV?$string_output_adapter@_W@__crt_stdio_output@@@2@@__crt_stdio_output@@AEAA_NXZ 0000000180086d10 f i libucrtd:output.obj
 0001:00085fa0       ?type_case_n@?$output_processor@_WV?$string_output_adapter@_W@__crt_stdio_output@@V?$positional_parameter_base@_WV?$string_output_adapter@_W@__crt_stdio_output@@@2@@__crt_stdio_output@@AEAA_NXZ 0000000180086fa0 f i libucrtd:output.obj
 0001:00086230       ?type_case_n@?$output_processor@_WV?$string_output_adapter@_W@__crt_stdio_output@@V?$standard_base@_WV?$string_output_adapter@_W@__crt_stdio_output@@@2@@__crt_stdio_output@@AEAA_NXZ 0000000180087230 f i libucrtd:output.obj
 0001:000864c0       ?type_case_o@?$output_processor@DV?$stream_output_adapter@D@__crt_stdio_output@@V?$format_validation_base@DV?$stream_output_adapter@D@__crt_stdio_output@@@2@@__crt_stdio_output@@AEAA_NXZ 00000001800874c0 f i libucrtd:output.obj
 0001:00086500       ?type_case_o@?$output_processor@DV?$stream_output_adapter@D@__crt_stdio_output@@V?$positional_parameter_base@DV?$stream_output_adapter@D@__crt_stdio_output@@@2@@__crt_stdio_output@@AEAA_NXZ 0000000180087500 f i libucrtd:output.obj
 0001:00086540       ?type_case_o@?$output_processor@DV?$stream_output_adapter@D@__crt_stdio_output@@V?$standard_base@DV?$stream_output_adapter@D@__crt_stdio_output@@@2@@__crt_stdio_output@@AEAA_NXZ 0000000180087540 f i libucrtd:output.obj
 0001:00086580       ?type_case_o@?$output_processor@DV?$string_output_adapter@D@__crt_stdio_output@@V?$format_validation_base@DV?$string_output_adapter@D@__crt_stdio_output@@@2@@__crt_stdio_output@@AEAA_NXZ 0000000180087580 f i libucrtd:output.obj
 0001:000865c0       ?type_case_o@?$output_processor@DV?$string_output_adapter@D@__crt_stdio_output@@V?$positional_parameter_base@DV?$string_output_adapter@D@__crt_stdio_output@@@2@@__crt_stdio_output@@AEAA_NXZ 00000001800875c0 f i libucrtd:output.obj
 0001:00086600       ?type_case_o@?$output_processor@DV?$string_output_adapter@D@__crt_stdio_output@@V?$standard_base@DV?$string_output_adapter@D@__crt_stdio_output@@@2@@__crt_stdio_output@@AEAA_NXZ 0000000180087600 f i libucrtd:output.obj
 0001:00086640       ?type_case_o@?$output_processor@_WV?$stream_output_adapter@_W@__crt_stdio_output@@V?$format_validation_base@_WV?$stream_output_adapter@_W@__crt_stdio_output@@@2@@__crt_stdio_output@@AEAA_NXZ 0000000180087640 f i libucrtd:output.obj
 0001:00086680       ?type_case_o@?$output_processor@_WV?$stream_output_adapter@_W@__crt_stdio_output@@V?$positional_parameter_base@_WV?$stream_output_adapter@_W@__crt_stdio_output@@@2@@__crt_stdio_output@@AEAA_NXZ 0000000180087680 f i libucrtd:output.obj
 0001:000866c0       ?type_case_o@?$output_processor@_WV?$stream_output_adapter@_W@__crt_stdio_output@@V?$standard_base@_WV?$stream_output_adapter@_W@__crt_stdio_output@@@2@@__crt_stdio_output@@AEAA_NXZ 00000001800876c0 f i libucrtd:output.obj
 0001:00086700       ?type_case_o@?$output_processor@_WV?$string_output_adapter@_W@__crt_stdio_output@@V?$format_validation_base@_WV?$string_output_adapter@_W@__crt_stdio_output@@@2@@__crt_stdio_output@@AEAA_NXZ 0000000180087700 f i libucrtd:output.obj
 0001:00086740       ?type_case_o@?$output_processor@_WV?$string_output_adapter@_W@__crt_stdio_output@@V?$positional_parameter_base@_WV?$string_output_adapter@_W@__crt_stdio_output@@@2@@__crt_stdio_output@@AEAA_NXZ 0000000180087740 f i libucrtd:output.obj
 0001:00086780       ?type_case_o@?$output_processor@_WV?$string_output_adapter@_W@__crt_stdio_output@@V?$standard_base@_WV?$string_output_adapter@_W@__crt_stdio_output@@@2@@__crt_stdio_output@@AEAA_NXZ 0000000180087780 f i libucrtd:output.obj
 0001:000867c0       ?type_case_p@?$output_processor@DV?$stream_output_adapter@D@__crt_stdio_output@@V?$format_validation_base@DV?$stream_output_adapter@D@__crt_stdio_output@@@2@@__crt_stdio_output@@AEAA_NXZ 00000001800877c0 f i libucrtd:output.obj
 0001:00086800       ?type_case_p@?$output_processor@DV?$stream_output_adapter@D@__crt_stdio_output@@V?$positional_parameter_base@DV?$stream_output_adapter@D@__crt_stdio_output@@@2@@__crt_stdio_output@@AEAA_NXZ 0000000180087800 f i libucrtd:output.obj
 0001:00086840       ?type_case_p@?$output_processor@DV?$stream_output_adapter@D@__crt_stdio_output@@V?$standard_base@DV?$stream_output_adapter@D@__crt_stdio_output@@@2@@__crt_stdio_output@@AEAA_NXZ 0000000180087840 f i libucrtd:output.obj
 0001:00086880       ?type_case_p@?$output_processor@DV?$string_output_adapter@D@__crt_stdio_output@@V?$format_validation_base@DV?$string_output_adapter@D@__crt_stdio_output@@@2@@__crt_stdio_output@@AEAA_NXZ 0000000180087880 f i libucrtd:output.obj
 0001:000868c0       ?type_case_p@?$output_processor@DV?$string_output_adapter@D@__crt_stdio_output@@V?$positional_parameter_base@DV?$string_output_adapter@D@__crt_stdio_output@@@2@@__crt_stdio_output@@AEAA_NXZ 00000001800878c0 f i libucrtd:output.obj
 0001:00086900       ?type_case_p@?$output_processor@DV?$string_output_adapter@D@__crt_stdio_output@@V?$standard_base@DV?$string_output_adapter@D@__crt_stdio_output@@@2@@__crt_stdio_output@@AEAA_NXZ 0000000180087900 f i libucrtd:output.obj
 0001:00086940       ?type_case_p@?$output_processor@_WV?$stream_output_adapter@_W@__crt_stdio_output@@V?$format_validation_base@_WV?$stream_output_adapter@_W@__crt_stdio_output@@@2@@__crt_stdio_output@@AEAA_NXZ 0000000180087940 f i libucrtd:output.obj
 0001:00086980       ?type_case_p@?$output_processor@_WV?$stream_output_adapter@_W@__crt_stdio_output@@V?$positional_parameter_base@_WV?$stream_output_adapter@_W@__crt_stdio_output@@@2@@__crt_stdio_output@@AEAA_NXZ 0000000180087980 f i libucrtd:output.obj
 0001:000869c0       ?type_case_p@?$output_processor@_WV?$stream_output_adapter@_W@__crt_stdio_output@@V?$standard_base@_WV?$stream_output_adapter@_W@__crt_stdio_output@@@2@@__crt_stdio_output@@AEAA_NXZ 00000001800879c0 f i libucrtd:output.obj
 0001:00086a00       ?type_case_p@?$output_processor@_WV?$string_output_adapter@_W@__crt_stdio_output@@V?$format_validation_base@_WV?$string_output_adapter@_W@__crt_stdio_output@@@2@@__crt_stdio_output@@AEAA_NXZ 0000000180087a00 f i libucrtd:output.obj
 0001:00086a40       ?type_case_p@?$output_processor@_WV?$string_output_adapter@_W@__crt_stdio_output@@V?$positional_parameter_base@_WV?$string_output_adapter@_W@__crt_stdio_output@@@2@@__crt_stdio_output@@AEAA_NXZ 0000000180087a40 f i libucrtd:output.obj
 0001:00086a80       ?type_case_p@?$output_processor@_WV?$string_output_adapter@_W@__crt_stdio_output@@V?$standard_base@_WV?$string_output_adapter@_W@__crt_stdio_output@@@2@@__crt_stdio_output@@AEAA_NXZ 0000000180087a80 f i libucrtd:output.obj
 0001:00086ac0       ?type_case_s@?$output_processor@DV?$stream_output_adapter@D@__crt_stdio_output@@V?$format_validation_base@DV?$stream_output_adapter@D@__crt_stdio_output@@@2@@__crt_stdio_output@@AEAA_NXZ 0000000180087ac0 f i libucrtd:output.obj
 0001:00086be0       ?type_case_s@?$output_processor@DV?$stream_output_adapter@D@__crt_stdio_output@@V?$positional_parameter_base@DV?$stream_output_adapter@D@__crt_stdio_output@@@2@@__crt_stdio_output@@AEAA_NXZ 0000000180087be0 f i libucrtd:output.obj
 0001:00086d00       ?type_case_s@?$output_processor@DV?$stream_output_adapter@D@__crt_stdio_output@@V?$standard_base@DV?$stream_output_adapter@D@__crt_stdio_output@@@2@@__crt_stdio_output@@AEAA_NXZ 0000000180087d00 f i libucrtd:output.obj
 0001:00086e20       ?type_case_s@?$output_processor@DV?$string_output_adapter@D@__crt_stdio_output@@V?$format_validation_base@DV?$string_output_adapter@D@__crt_stdio_output@@@2@@__crt_stdio_output@@AEAA_NXZ 0000000180087e20 f i libucrtd:output.obj
 0001:00086f40       ?type_case_s@?$output_processor@DV?$string_output_adapter@D@__crt_stdio_output@@V?$positional_parameter_base@DV?$string_output_adapter@D@__crt_stdio_output@@@2@@__crt_stdio_output@@AEAA_NXZ 0000000180087f40 f i libucrtd:output.obj
 0001:00087060       ?type_case_s@?$output_processor@DV?$string_output_adapter@D@__crt_stdio_output@@V?$standard_base@DV?$string_output_adapter@D@__crt_stdio_output@@@2@@__crt_stdio_output@@AEAA_NXZ 0000000180088060 f i libucrtd:output.obj
 0001:00087180       ?type_case_s@?$output_processor@_WV?$stream_output_adapter@_W@__crt_stdio_output@@V?$format_validation_base@_WV?$stream_output_adapter@_W@__crt_stdio_output@@@2@@__crt_stdio_output@@AEAA_NXZ 0000000180088180 f i libucrtd:output.obj
 0001:000872a0       ?type_case_s@?$output_processor@_WV?$stream_output_adapter@_W@__crt_stdio_output@@V?$positional_parameter_base@_WV?$stream_output_adapter@_W@__crt_stdio_output@@@2@@__crt_stdio_output@@AEAA_NXZ 00000001800882a0 f i libucrtd:output.obj
 0001:000873c0       ?type_case_s@?$output_processor@_WV?$stream_output_adapter@_W@__crt_stdio_output@@V?$standard_base@_WV?$stream_output_adapter@_W@__crt_stdio_output@@@2@@__crt_stdio_output@@AEAA_NXZ 00000001800883c0 f i libucrtd:output.obj
 0001:000874e0       ?type_case_s@?$output_processor@_WV?$string_output_adapter@_W@__crt_stdio_output@@V?$format_validation_base@_WV?$string_output_adapter@_W@__crt_stdio_output@@@2@@__crt_stdio_output@@AEAA_NXZ 00000001800884e0 f i libucrtd:output.obj
 0001:00087600       ?type_case_s@?$output_processor@_WV?$string_output_adapter@_W@__crt_stdio_output@@V?$positional_parameter_base@_WV?$string_output_adapter@_W@__crt_stdio_output@@@2@@__crt_stdio_output@@AEAA_NXZ 0000000180088600 f i libucrtd:output.obj
 0001:00087720       ?type_case_s@?$output_processor@_WV?$string_output_adapter@_W@__crt_stdio_output@@V?$standard_base@_WV?$string_output_adapter@_W@__crt_stdio_output@@@2@@__crt_stdio_output@@AEAA_NXZ 0000000180088720 f i libucrtd:output.obj
 0001:00087840       ?type_case_s_compute_narrow_string_length@?$output_processor@DV?$stream_output_adapter@D@__crt_stdio_output@@V?$format_validation_base@DV?$stream_output_adapter@D@__crt_stdio_output@@@2@@__crt_stdio_output@@AEAAHHD@Z 0000000180088840 f i libucrtd:output.obj
 0001:00087870       ?type_case_s_compute_narrow_string_length@?$output_processor@DV?$stream_output_adapter@D@__crt_stdio_output@@V?$positional_parameter_base@DV?$stream_output_adapter@D@__crt_stdio_output@@@2@@__crt_stdio_output@@AEAAHHD@Z 0000000180088870 f i libucrtd:output.obj
 0001:000878a0       ?type_case_s_compute_narrow_string_length@?$output_processor@DV?$stream_output_adapter@D@__crt_stdio_output@@V?$standard_base@DV?$stream_output_adapter@D@__crt_stdio_output@@@2@@__crt_stdio_output@@AEAAHHD@Z 00000001800888a0 f i libucrtd:output.obj
 0001:000878d0       ?type_case_s_compute_narrow_string_length@?$output_processor@DV?$string_output_adapter@D@__crt_stdio_output@@V?$format_validation_base@DV?$string_output_adapter@D@__crt_stdio_output@@@2@@__crt_stdio_output@@AEAAHHD@Z 00000001800888d0 f i libucrtd:output.obj
 0001:00087900       ?type_case_s_compute_narrow_string_length@?$output_processor@DV?$string_output_adapter@D@__crt_stdio_output@@V?$positional_parameter_base@DV?$string_output_adapter@D@__crt_stdio_output@@@2@@__crt_stdio_output@@AEAAHHD@Z 0000000180088900 f i libucrtd:output.obj
 0001:00087930       ?type_case_s_compute_narrow_string_length@?$output_processor@DV?$string_output_adapter@D@__crt_stdio_output@@V?$standard_base@DV?$string_output_adapter@D@__crt_stdio_output@@@2@@__crt_stdio_output@@AEAAHHD@Z 0000000180088930 f i libucrtd:output.obj
 0001:00087960       ?type_case_s_compute_narrow_string_length@?$output_processor@_WV?$stream_output_adapter@_W@__crt_stdio_output@@V?$format_validation_base@_WV?$stream_output_adapter@_W@__crt_stdio_output@@@2@@__crt_stdio_output@@AEAAHH_W@Z 0000000180088960 f i libucrtd:output.obj
 0001:00087a00       ?type_case_s_compute_narrow_string_length@?$output_processor@_WV?$stream_output_adapter@_W@__crt_stdio_output@@V?$positional_parameter_base@_WV?$stream_output_adapter@_W@__crt_stdio_output@@@2@@__crt_stdio_output@@AEAAHH_W@Z 0000000180088a00 f i libucrtd:output.obj
 0001:00087aa0       ?type_case_s_compute_narrow_string_length@?$output_processor@_WV?$stream_output_adapter@_W@__crt_stdio_output@@V?$standard_base@_WV?$stream_output_adapter@_W@__crt_stdio_output@@@2@@__crt_stdio_output@@AEAAHH_W@Z 0000000180088aa0 f i libucrtd:output.obj
 0001:00087b40       ?type_case_s_compute_narrow_string_length@?$output_processor@_WV?$string_output_adapter@_W@__crt_stdio_output@@V?$format_validation_base@_WV?$string_output_adapter@_W@__crt_stdio_output@@@2@@__crt_stdio_output@@AEAAHH_W@Z 0000000180088b40 f i libucrtd:output.obj
 0001:00087be0       ?type_case_s_compute_narrow_string_length@?$output_processor@_WV?$string_output_adapter@_W@__crt_stdio_output@@V?$positional_parameter_base@_WV?$string_output_adapter@_W@__crt_stdio_output@@@2@@__crt_stdio_output@@AEAAHH_W@Z 0000000180088be0 f i libucrtd:output.obj
 0001:00087c80       ?type_case_s_compute_narrow_string_length@?$output_processor@_WV?$string_output_adapter@_W@__crt_stdio_output@@V?$standard_base@_WV?$string_output_adapter@_W@__crt_stdio_output@@@2@@__crt_stdio_output@@AEAAHH_W@Z 0000000180088c80 f i libucrtd:output.obj
 0001:00087d20       ?type_case_u@?$output_processor@DV?$stream_output_adapter@D@__crt_stdio_output@@V?$format_validation_base@DV?$stream_output_adapter@D@__crt_stdio_output@@@2@@__crt_stdio_output@@AEAA_NXZ 0000000180088d20 f i libucrtd:output.obj
 0001:00087d40       ?type_case_u@?$output_processor@DV?$stream_output_adapter@D@__crt_stdio_output@@V?$positional_parameter_base@DV?$stream_output_adapter@D@__crt_stdio_output@@@2@@__crt_stdio_output@@AEAA_NXZ 0000000180088d40 f i libucrtd:output.obj
 0001:00087d60       ?type_case_u@?$output_processor@DV?$stream_output_adapter@D@__crt_stdio_output@@V?$standard_base@DV?$stream_output_adapter@D@__crt_stdio_output@@@2@@__crt_stdio_output@@AEAA_NXZ 0000000180088d60 f i libucrtd:output.obj
 0001:00087d80       ?type_case_u@?$output_processor@DV?$string_output_adapter@D@__crt_stdio_output@@V?$format_validation_base@DV?$string_output_adapter@D@__crt_stdio_output@@@2@@__crt_stdio_output@@AEAA_NXZ 0000000180088d80 f i libucrtd:output.obj
 0001:00087da0       ?type_case_u@?$output_processor@DV?$string_output_adapter@D@__crt_stdio_output@@V?$positional_parameter_base@DV?$string_output_adapter@D@__crt_stdio_output@@@2@@__crt_stdio_output@@AEAA_NXZ 0000000180088da0 f i libucrtd:output.obj
 0001:00087dc0       ?type_case_u@?$output_processor@DV?$string_output_adapter@D@__crt_stdio_output@@V?$standard_base@DV?$string_output_adapter@D@__crt_stdio_output@@@2@@__crt_stdio_output@@AEAA_NXZ 0000000180088dc0 f i libucrtd:output.obj
 0001:00087de0       ?type_case_u@?$output_processor@_WV?$stream_output_adapter@_W@__crt_stdio_output@@V?$format_validation_base@_WV?$stream_output_adapter@_W@__crt_stdio_output@@@2@@__crt_stdio_output@@AEAA_NXZ 0000000180088de0 f i libucrtd:output.obj
 0001:00087e00       ?type_case_u@?$output_processor@_WV?$stream_output_adapter@_W@__crt_stdio_output@@V?$positional_parameter_base@_WV?$stream_output_adapter@_W@__crt_stdio_output@@@2@@__crt_stdio_output@@AEAA_NXZ 0000000180088e00 f i libucrtd:output.obj
 0001:00087e20       ?type_case_u@?$output_processor@_WV?$stream_output_adapter@_W@__crt_stdio_output@@V?$standard_base@_WV?$stream_output_adapter@_W@__crt_stdio_output@@@2@@__crt_stdio_output@@AEAA_NXZ 0000000180088e20 f i libucrtd:output.obj
 0001:00087e40       ?type_case_u@?$output_processor@_WV?$string_output_adapter@_W@__crt_stdio_output@@V?$format_validation_base@_WV?$string_output_adapter@_W@__crt_stdio_output@@@2@@__crt_stdio_output@@AEAA_NXZ 0000000180088e40 f i libucrtd:output.obj
 0001:00087e60       ?type_case_u@?$output_processor@_WV?$string_output_adapter@_W@__crt_stdio_output@@V?$positional_parameter_base@_WV?$string_output_adapter@_W@__crt_stdio_output@@@2@@__crt_stdio_output@@AEAA_NXZ 0000000180088e60 f i libucrtd:output.obj
 0001:00087e80       ?type_case_u@?$output_processor@_WV?$string_output_adapter@_W@__crt_stdio_output@@V?$standard_base@_WV?$string_output_adapter@_W@__crt_stdio_output@@@2@@__crt_stdio_output@@AEAA_NXZ 0000000180088e80 f i libucrtd:output.obj
 0001:00087ea0       ?type_case_x@?$output_processor@DV?$stream_output_adapter@D@__crt_stdio_output@@V?$format_validation_base@DV?$stream_output_adapter@D@__crt_stdio_output@@@2@@__crt_stdio_output@@AEAA_NXZ 0000000180088ea0 f i libucrtd:output.obj
 0001:00087ec0       ?type_case_x@?$output_processor@DV?$stream_output_adapter@D@__crt_stdio_output@@V?$positional_parameter_base@DV?$stream_output_adapter@D@__crt_stdio_output@@@2@@__crt_stdio_output@@AEAA_NXZ 0000000180088ec0 f i libucrtd:output.obj
 0001:00087ee0       ?type_case_x@?$output_processor@DV?$stream_output_adapter@D@__crt_stdio_output@@V?$standard_base@DV?$stream_output_adapter@D@__crt_stdio_output@@@2@@__crt_stdio_output@@AEAA_NXZ 0000000180088ee0 f i libucrtd:output.obj
 0001:00087f00       ?type_case_x@?$output_processor@DV?$string_output_adapter@D@__crt_stdio_output@@V?$format_validation_base@DV?$string_output_adapter@D@__crt_stdio_output@@@2@@__crt_stdio_output@@AEAA_NXZ 0000000180088f00 f i libucrtd:output.obj
 0001:00087f20       ?type_case_x@?$output_processor@DV?$string_output_adapter@D@__crt_stdio_output@@V?$positional_parameter_base@DV?$string_output_adapter@D@__crt_stdio_output@@@2@@__crt_stdio_output@@AEAA_NXZ 0000000180088f20 f i libucrtd:output.obj
 0001:00087f40       ?type_case_x@?$output_processor@DV?$string_output_adapter@D@__crt_stdio_output@@V?$standard_base@DV?$string_output_adapter@D@__crt_stdio_output@@@2@@__crt_stdio_output@@AEAA_NXZ 0000000180088f40 f i libucrtd:output.obj
 0001:00087f60       ?type_case_x@?$output_processor@_WV?$stream_output_adapter@_W@__crt_stdio_output@@V?$format_validation_base@_WV?$stream_output_adapter@_W@__crt_stdio_output@@@2@@__crt_stdio_output@@AEAA_NXZ 0000000180088f60 f i libucrtd:output.obj
 0001:00087f80       ?type_case_x@?$output_processor@_WV?$stream_output_adapter@_W@__crt_stdio_output@@V?$positional_parameter_base@_WV?$stream_output_adapter@_W@__crt_stdio_output@@@2@@__crt_stdio_output@@AEAA_NXZ 0000000180088f80 f i libucrtd:output.obj
 0001:00087fa0       ?type_case_x@?$output_processor@_WV?$stream_output_adapter@_W@__crt_stdio_output@@V?$standard_base@_WV?$stream_output_adapter@_W@__crt_stdio_output@@@2@@__crt_stdio_output@@AEAA_NXZ 0000000180088fa0 f i libucrtd:output.obj
 0001:00087fc0       ?type_case_x@?$output_processor@_WV?$string_output_adapter@_W@__crt_stdio_output@@V?$format_validation_base@_WV?$string_output_adapter@_W@__crt_stdio_output@@@2@@__crt_stdio_output@@AEAA_NXZ 0000000180088fc0 f i libucrtd:output.obj
 0001:00087fe0       ?type_case_x@?$output_processor@_WV?$string_output_adapter@_W@__crt_stdio_output@@V?$positional_parameter_base@_WV?$string_output_adapter@_W@__crt_stdio_output@@@2@@__crt_stdio_output@@AEAA_NXZ 0000000180088fe0 f i libucrtd:output.obj
 0001:00088000       ?type_case_x@?$output_processor@_WV?$string_output_adapter@_W@__crt_stdio_output@@V?$standard_base@_WV?$string_output_adapter@_W@__crt_stdio_output@@@2@@__crt_stdio_output@@AEAA_NXZ 0000000180089000 f i libucrtd:output.obj
 0001:00088020       ?unget@?$c_string_character_source@D@__crt_strtox@@QEAAXD@Z 0000000180089020 f i libucrtd:output.obj
 0001:00088100       ?unget@?$c_string_character_source@_W@__crt_strtox@@QEAAX_W@Z 0000000180089100 f i libucrtd:output.obj
 0001:000881e0       ?unsafe_value@?$cached@H@__crt_cached_ptd_host@@QEAAHXZ 00000001800891e0 f i libucrtd:output.obj
 0001:000881f0       ?unsafe_value@?$cached@K@__crt_cached_ptd_host@@QEAAKXZ 00000001800891f0 f i libucrtd:output.obj
 0001:00088200       ?unset_flag@?$output_processor@DV?$stream_output_adapter@D@__crt_stdio_output@@V?$format_validation_base@DV?$stream_output_adapter@D@__crt_stdio_output@@@2@@__crt_stdio_output@@AEAAXI@Z 0000000180089200 f i libucrtd:output.obj
 0001:00088230       ?unset_flag@?$output_processor@DV?$stream_output_adapter@D@__crt_stdio_output@@V?$positional_parameter_base@DV?$stream_output_adapter@D@__crt_stdio_output@@@2@@__crt_stdio_output@@AEAAXI@Z 0000000180089230 f i libucrtd:output.obj
 0001:00088260       ?unset_flag@?$output_processor@DV?$stream_output_adapter@D@__crt_stdio_output@@V?$standard_base@DV?$stream_output_adapter@D@__crt_stdio_output@@@2@@__crt_stdio_output@@AEAAXI@Z 0000000180089260 f i libucrtd:output.obj
 0001:00088290       ?unset_flag@?$output_processor@DV?$string_output_adapter@D@__crt_stdio_output@@V?$format_validation_base@DV?$string_output_adapter@D@__crt_stdio_output@@@2@@__crt_stdio_output@@AEAAXI@Z 0000000180089290 f i libucrtd:output.obj
 0001:000882c0       ?unset_flag@?$output_processor@DV?$string_output_adapter@D@__crt_stdio_output@@V?$positional_parameter_base@DV?$string_output_adapter@D@__crt_stdio_output@@@2@@__crt_stdio_output@@AEAAXI@Z 00000001800892c0 f i libucrtd:output.obj
 0001:000882f0       ?unset_flag@?$output_processor@DV?$string_output_adapter@D@__crt_stdio_output@@V?$standard_base@DV?$string_output_adapter@D@__crt_stdio_output@@@2@@__crt_stdio_output@@AEAAXI@Z 00000001800892f0 f i libucrtd:output.obj
 0001:00088320       ?unset_flag@?$output_processor@_WV?$stream_output_adapter@_W@__crt_stdio_output@@V?$format_validation_base@_WV?$stream_output_adapter@_W@__crt_stdio_output@@@2@@__crt_stdio_output@@AEAAXI@Z 0000000180089320 f i libucrtd:output.obj
 0001:00088350       ?unset_flag@?$output_processor@_WV?$stream_output_adapter@_W@__crt_stdio_output@@V?$positional_parameter_base@_WV?$stream_output_adapter@_W@__crt_stdio_output@@@2@@__crt_stdio_output@@AEAAXI@Z 0000000180089350 f i libucrtd:output.obj
 0001:00088380       ?unset_flag@?$output_processor@_WV?$stream_output_adapter@_W@__crt_stdio_output@@V?$standard_base@_WV?$stream_output_adapter@_W@__crt_stdio_output@@@2@@__crt_stdio_output@@AEAAXI@Z 0000000180089380 f i libucrtd:output.obj
 0001:000883b0       ?unset_flag@?$output_processor@_WV?$string_output_adapter@_W@__crt_stdio_output@@V?$format_validation_base@_WV?$string_output_adapter@_W@__crt_stdio_output@@@2@@__crt_stdio_output@@AEAAXI@Z 00000001800893b0 f i libucrtd:output.obj
 0001:000883e0       ?unset_flag@?$output_processor@_WV?$string_output_adapter@_W@__crt_stdio_output@@V?$positional_parameter_base@_WV?$string_output_adapter@_W@__crt_stdio_output@@@2@@__crt_stdio_output@@AEAAXI@Z 00000001800893e0 f i libucrtd:output.obj
 0001:00088410       ?unset_flag@?$output_processor@_WV?$string_output_adapter@_W@__crt_stdio_output@@V?$standard_base@_WV?$string_output_adapter@_W@__crt_stdio_output@@@2@@__crt_stdio_output@@AEAAXI@Z 0000000180089410 f i libucrtd:output.obj
 0001:00088440       ?update_field_width@?$positional_parameter_base@DV?$stream_output_adapter@D@__crt_stdio_output@@@__crt_stdio_output@@IEAA_NXZ 0000000180089440 f i libucrtd:output.obj
 0001:00088640       ?update_field_width@?$positional_parameter_base@DV?$string_output_adapter@D@__crt_stdio_output@@@__crt_stdio_output@@IEAA_NXZ 0000000180089640 f i libucrtd:output.obj
 0001:00088840       ?update_field_width@?$positional_parameter_base@_WV?$stream_output_adapter@_W@__crt_stdio_output@@@__crt_stdio_output@@IEAA_NXZ 0000000180089840 f i libucrtd:output.obj
 0001:00088a40       ?update_field_width@?$positional_parameter_base@_WV?$string_output_adapter@_W@__crt_stdio_output@@@__crt_stdio_output@@IEAA_NXZ 0000000180089a40 f i libucrtd:output.obj
 0001:00088c40       ?update_field_width@?$standard_base@DV?$stream_output_adapter@D@__crt_stdio_output@@@__crt_stdio_output@@IEAA_NXZ 0000000180089c40 f i libucrtd:output.obj
 0001:00088c70       ?update_field_width@?$standard_base@DV?$string_output_adapter@D@__crt_stdio_output@@@__crt_stdio_output@@IEAA_NXZ 0000000180089c70 f i libucrtd:output.obj
 0001:00088ca0       ?update_field_width@?$standard_base@_WV?$stream_output_adapter@_W@__crt_stdio_output@@@__crt_stdio_output@@IEAA_NXZ 0000000180089ca0 f i libucrtd:output.obj
 0001:00088cd0       ?update_field_width@?$standard_base@_WV?$string_output_adapter@_W@__crt_stdio_output@@@__crt_stdio_output@@IEAA_NXZ 0000000180089cd0 f i libucrtd:output.obj
 0001:00088d00       ?update_locale@__crt_cached_ptd_host@@AEAAXXZ 0000000180089d00 f i libucrtd:output.obj
 0001:00088d30       ?update_locale_slow@__crt_cached_ptd_host@@AEAAXXZ 0000000180089d30 f i libucrtd:output.obj
 0001:00088de0       ?update_precision@?$positional_parameter_base@DV?$stream_output_adapter@D@__crt_stdio_output@@@__crt_stdio_output@@IEAA_NXZ 0000000180089de0 f i libucrtd:output.obj
 0001:00088fe0       ?update_precision@?$positional_parameter_base@DV?$string_output_adapter@D@__crt_stdio_output@@@__crt_stdio_output@@IEAA_NXZ 0000000180089fe0 f i libucrtd:output.obj
 0001:000891e0       ?update_precision@?$positional_parameter_base@_WV?$stream_output_adapter@_W@__crt_stdio_output@@@__crt_stdio_output@@IEAA_NXZ 000000018008a1e0 f i libucrtd:output.obj
 0001:000893e0       ?update_precision@?$positional_parameter_base@_WV?$string_output_adapter@_W@__crt_stdio_output@@@__crt_stdio_output@@IEAA_NXZ 000000018008a3e0 f i libucrtd:output.obj
 0001:000895e0       ?update_precision@?$standard_base@DV?$stream_output_adapter@D@__crt_stdio_output@@@__crt_stdio_output@@IEAA_NXZ 000000018008a5e0 f i libucrtd:output.obj
 0001:00089610       ?update_precision@?$standard_base@DV?$string_output_adapter@D@__crt_stdio_output@@@__crt_stdio_output@@IEAA_NXZ 000000018008a610 f i libucrtd:output.obj
 0001:00089640       ?update_precision@?$standard_base@_WV?$stream_output_adapter@_W@__crt_stdio_output@@@__crt_stdio_output@@IEAA_NXZ 000000018008a640 f i libucrtd:output.obj
 0001:00089670       ?update_precision@?$standard_base@_WV?$string_output_adapter@_W@__crt_stdio_output@@@__crt_stdio_output@@IEAA_NXZ 000000018008a670 f i libucrtd:output.obj
 0001:000896a0       ?valid@?$cached@H@__crt_cached_ptd_host@@QEBA_NXZ 000000018008a6a0 f i libucrtd:output.obj
 0001:000896b0       ?valid@?$cached@K@__crt_cached_ptd_host@@QEBA_NXZ 000000018008a6b0 f i libucrtd:output.obj
 0001:000896c0       ?valid@__crt_stdio_stream@@QEBA_NXZ 000000018008a6c0 f i libucrtd:output.obj
 0001:000896f0       ?validate@?$c_string_character_source@D@__crt_strtox@@QEBA_NXZ 000000018008a6f0 f i libucrtd:output.obj
 0001:000897b0       ?validate@?$c_string_character_source@_W@__crt_strtox@@QEBA_NXZ 000000018008a7b0 f i libucrtd:output.obj
 0001:00089870       ?validate@?$stream_output_adapter@D@__crt_stdio_output@@QEBA_NAEAV__crt_cached_ptd_host@@@Z 000000018008a870 f i libucrtd:output.obj
 0001:00089970       ?validate@?$stream_output_adapter@_W@__crt_stdio_output@@QEBA_NAEAV__crt_cached_ptd_host@@@Z 000000018008a970 f i libucrtd:output.obj
 0001:00089a70       ?validate@?$string_output_adapter@D@__crt_stdio_output@@QEBA_NAEAV__crt_cached_ptd_host@@@Z 000000018008aa70 f i libucrtd:output.obj
 0001:00089b50       ?validate@?$string_output_adapter@_W@__crt_stdio_output@@QEBA_NAEAV__crt_cached_ptd_host@@@Z 000000018008ab50 f i libucrtd:output.obj
 0001:00089c30       ?validate_and_store_parameter_data@?$positional_parameter_base@DV?$stream_output_adapter@D@__crt_stdio_output@@@__crt_stdio_output@@AEAA_NAEAUparameter_data@12@W4parameter_type@12@DW4length_modifier@2@@Z 000000018008ac30 f i libucrtd:output.obj
 0001:00089d70       ?validate_and_store_parameter_data@?$positional_parameter_base@DV?$string_output_adapter@D@__crt_stdio_output@@@__crt_stdio_output@@AEAA_NAEAUparameter_data@12@W4parameter_type@12@DW4length_modifier@2@@Z 000000018008ad70 f i libucrtd:output.obj
 0001:00089eb0       ?validate_and_store_parameter_data@?$positional_parameter_base@_WV?$stream_output_adapter@_W@__crt_stdio_output@@@__crt_stdio_output@@AEAA_NAEAUparameter_data@12@W4parameter_type@12@_WW4length_modifier@2@@Z 000000018008aeb0 f i libucrtd:output.obj
 0001:00089ff0       ?validate_and_store_parameter_data@?$positional_parameter_base@_WV?$string_output_adapter@_W@__crt_stdio_output@@@__crt_stdio_output@@AEAA_NAEAUparameter_data@12@W4parameter_type@12@_WW4length_modifier@2@@Z 000000018008aff0 f i libucrtd:output.obj
 0001:0008a130       ?validate_and_update_state_at_beginning_of_format_character@?$positional_parameter_base@DV?$stream_output_adapter@D@__crt_stdio_output@@@__crt_stdio_output@@IEAA_NXZ 000000018008b130 f i libucrtd:output.obj
 0001:0008a3d0       ?validate_and_update_state_at_beginning_of_format_character@?$positional_parameter_base@DV?$string_output_adapter@D@__crt_stdio_output@@@__crt_stdio_output@@IEAA_NXZ 000000018008b3d0 f i libucrtd:output.obj
 0001:0008a670       ?validate_and_update_state_at_beginning_of_format_character@?$positional_parameter_base@_WV?$stream_output_adapter@_W@__crt_stdio_output@@@__crt_stdio_output@@IEAA_NXZ 000000018008b670 f i libucrtd:output.obj
 0001:0008a910       ?validate_and_update_state_at_beginning_of_format_character@?$positional_parameter_base@_WV?$string_output_adapter@_W@__crt_stdio_output@@@__crt_stdio_output@@IEAA_NXZ 000000018008b910 f i libucrtd:output.obj
 0001:0008abb0       ?validate_and_update_state_at_beginning_of_format_character@?$standard_base@DV?$stream_output_adapter@D@__crt_stdio_output@@@__crt_stdio_output@@IEAA_NXZ 000000018008bbb0 f i libucrtd:output.obj
 0001:0008abc0       ?validate_and_update_state_at_beginning_of_format_character@?$standard_base@DV?$string_output_adapter@D@__crt_stdio_output@@@__crt_stdio_output@@IEAA_NXZ 000000018008bbc0 f i libucrtd:output.obj
 0001:0008abd0       ?validate_and_update_state_at_beginning_of_format_character@?$standard_base@_WV?$stream_output_adapter@_W@__crt_stdio_output@@@__crt_stdio_output@@IEAA_NXZ 000000018008bbd0 f i libucrtd:output.obj
 0001:0008abe0       ?validate_and_update_state_at_beginning_of_format_character@?$standard_base@_WV?$string_output_adapter@_W@__crt_stdio_output@@@__crt_stdio_output@@IEAA_NXZ 000000018008bbe0 f i libucrtd:output.obj
 0001:0008abf0       ?validate_and_update_state_at_end_of_format_string@?$format_validation_base@DV?$stream_output_adapter@D@__crt_stdio_output@@@__crt_stdio_output@@IEAA_NXZ 000000018008bbf0 f i libucrtd:output.obj
 0001:0008ace0       ?validate_and_update_state_at_end_of_format_string@?$format_validation_base@DV?$string_output_adapter@D@__crt_stdio_output@@@__crt_stdio_output@@IEAA_NXZ 000000018008bce0 f i libucrtd:output.obj
 0001:0008add0       ?validate_and_update_state_at_end_of_format_string@?$format_validation_base@_WV?$stream_output_adapter@_W@__crt_stdio_output@@@__crt_stdio_output@@IEAA_NXZ 000000018008bdd0 f i libucrtd:output.obj
 0001:0008aec0       ?validate_and_update_state_at_end_of_format_string@?$format_validation_base@_WV?$string_output_adapter@_W@__crt_stdio_output@@@__crt_stdio_output@@IEAA_NXZ 000000018008bec0 f i libucrtd:output.obj
 0001:0008afb0       ?validate_and_update_state_at_end_of_format_string@?$positional_parameter_base@DV?$stream_output_adapter@D@__crt_stdio_output@@@__crt_stdio_output@@IEAA_NXZ 000000018008bfb0 f i libucrtd:output.obj
 0001:0008b1e0       ?validate_and_update_state_at_end_of_format_string@?$positional_parameter_base@DV?$string_output_adapter@D@__crt_stdio_output@@@__crt_stdio_output@@IEAA_NXZ 000000018008c1e0 f i libucrtd:output.obj
 0001:0008b410       ?validate_and_update_state_at_end_of_format_string@?$positional_parameter_base@_WV?$stream_output_adapter@_W@__crt_stdio_output@@@__crt_stdio_output@@IEAA_NXZ 000000018008c410 f i libucrtd:output.obj
 0001:0008b640       ?validate_and_update_state_at_end_of_format_string@?$positional_parameter_base@_WV?$string_output_adapter@_W@__crt_stdio_output@@@__crt_stdio_output@@IEAA_NXZ 000000018008c640 f i libucrtd:output.obj
 0001:0008b870       ?validate_and_update_state_at_end_of_format_string@?$standard_base@DV?$stream_output_adapter@D@__crt_stdio_output@@@__crt_stdio_output@@IEBA_NXZ 000000018008c870 f i libucrtd:output.obj
 0001:0008b880       ?validate_and_update_state_at_end_of_format_string@?$standard_base@DV?$string_output_adapter@D@__crt_stdio_output@@@__crt_stdio_output@@IEBA_NXZ 000000018008c880 f i libucrtd:output.obj
 0001:0008b890       ?validate_and_update_state_at_end_of_format_string@?$standard_base@_WV?$stream_output_adapter@_W@__crt_stdio_output@@@__crt_stdio_output@@IEBA_NXZ 000000018008c890 f i libucrtd:output.obj
 0001:0008b8a0       ?validate_and_update_state_at_end_of_format_string@?$standard_base@_WV?$string_output_adapter@_W@__crt_stdio_output@@@__crt_stdio_output@@IEBA_NXZ 000000018008c8a0 f i libucrtd:output.obj
 0001:0008b8b0       ?validate_state_for_type_case_a@?$positional_parameter_base@DV?$stream_output_adapter@D@__crt_stdio_output@@@__crt_stdio_output@@IEAA_NXZ 000000018008c8b0 f i libucrtd:output.obj
 0001:0008ba10       ?validate_state_for_type_case_a@?$positional_parameter_base@DV?$string_output_adapter@D@__crt_stdio_output@@@__crt_stdio_output@@IEAA_NXZ 000000018008ca10 f i libucrtd:output.obj
 0001:0008bb70       ?validate_state_for_type_case_a@?$positional_parameter_base@_WV?$stream_output_adapter@_W@__crt_stdio_output@@@__crt_stdio_output@@IEAA_NXZ 000000018008cb70 f i libucrtd:output.obj
 0001:0008bcd0       ?validate_state_for_type_case_a@?$positional_parameter_base@_WV?$string_output_adapter@_W@__crt_stdio_output@@@__crt_stdio_output@@IEAA_NXZ 000000018008ccd0 f i libucrtd:output.obj
 0001:0008be30       ?validate_state_for_type_case_a@?$standard_base@DV?$stream_output_adapter@D@__crt_stdio_output@@@__crt_stdio_output@@IEBA_NXZ 000000018008ce30 f i libucrtd:output.obj
 0001:0008be40       ?validate_state_for_type_case_a@?$standard_base@DV?$string_output_adapter@D@__crt_stdio_output@@@__crt_stdio_output@@IEBA_NXZ 000000018008ce40 f i libucrtd:output.obj
 0001:0008be50       ?validate_state_for_type_case_a@?$standard_base@_WV?$stream_output_adapter@_W@__crt_stdio_output@@@__crt_stdio_output@@IEBA_NXZ 000000018008ce50 f i libucrtd:output.obj
 0001:0008be60       ?validate_state_for_type_case_a@?$standard_base@_WV?$string_output_adapter@_W@__crt_stdio_output@@@__crt_stdio_output@@IEBA_NXZ 000000018008ce60 f i libucrtd:output.obj
 0001:0008be70       ?validate_stream_is_ansi_if_required@?$__acrt_stdio_char_traits@D@@SA_NQEAU_iobuf@@@Z 000000018008ce70 f i libucrtd:output.obj
 0001:0008c000       ?validate_stream_is_ansi_if_required@?$__acrt_stdio_char_traits@_W@@SA_NQEAU_iobuf@@@Z 000000018008d000 f i libucrtd:output.obj
 0001:0008c010       ?wide_character_to_digit@__crt_strtox@@YAH_W@Z 000000018008d010 f i libucrtd:output.obj
 0001:0008c380       ?wide_null_string@?$output_processor@DV?$stream_output_adapter@D@__crt_stdio_output@@V?$format_validation_base@DV?$stream_output_adapter@D@__crt_stdio_output@@@2@@__crt_stdio_output@@CAPEA_WXZ 000000018008d380 f i libucrtd:output.obj
 0001:0008c390       ?wide_null_string@?$output_processor@DV?$stream_output_adapter@D@__crt_stdio_output@@V?$positional_parameter_base@DV?$stream_output_adapter@D@__crt_stdio_output@@@2@@__crt_stdio_output@@CAPEA_WXZ 000000018008d390 f i libucrtd:output.obj
 0001:0008c3a0       ?wide_null_string@?$output_processor@DV?$stream_output_adapter@D@__crt_stdio_output@@V?$standard_base@DV?$stream_output_adapter@D@__crt_stdio_output@@@2@@__crt_stdio_output@@CAPEA_WXZ 000000018008d3a0 f i libucrtd:output.obj
 0001:0008c3b0       ?wide_null_string@?$output_processor@DV?$string_output_adapter@D@__crt_stdio_output@@V?$format_validation_base@DV?$string_output_adapter@D@__crt_stdio_output@@@2@@__crt_stdio_output@@CAPEA_WXZ 000000018008d3b0 f i libucrtd:output.obj
 0001:0008c3c0       ?wide_null_string@?$output_processor@DV?$string_output_adapter@D@__crt_stdio_output@@V?$positional_parameter_base@DV?$string_output_adapter@D@__crt_stdio_output@@@2@@__crt_stdio_output@@CAPEA_WXZ 000000018008d3c0 f i libucrtd:output.obj
 0001:0008c3d0       ?wide_null_string@?$output_processor@DV?$string_output_adapter@D@__crt_stdio_output@@V?$standard_base@DV?$string_output_adapter@D@__crt_stdio_output@@@2@@__crt_stdio_output@@CAPEA_WXZ 000000018008d3d0 f i libucrtd:output.obj
 0001:0008c3e0       ?wide_null_string@?$output_processor@_WV?$stream_output_adapter@_W@__crt_stdio_output@@V?$format_validation_base@_WV?$stream_output_adapter@_W@__crt_stdio_output@@@2@@__crt_stdio_output@@CAPEA_WXZ 000000018008d3e0 f i libucrtd:output.obj
 0001:0008c3f0       ?wide_null_string@?$output_processor@_WV?$stream_output_adapter@_W@__crt_stdio_output@@V?$positional_parameter_base@_WV?$stream_output_adapter@_W@__crt_stdio_output@@@2@@__crt_stdio_output@@CAPEA_WXZ 000000018008d3f0 f i libucrtd:output.obj
 0001:0008c400       ?wide_null_string@?$output_processor@_WV?$stream_output_adapter@_W@__crt_stdio_output@@V?$standard_base@_WV?$stream_output_adapter@_W@__crt_stdio_output@@@2@@__crt_stdio_output@@CAPEA_WXZ 000000018008d400 f i libucrtd:output.obj
 0001:0008c410       ?wide_null_string@?$output_processor@_WV?$string_output_adapter@_W@__crt_stdio_output@@V?$format_validation_base@_WV?$string_output_adapter@_W@__crt_stdio_output@@@2@@__crt_stdio_output@@CAPEA_WXZ 000000018008d410 f i libucrtd:output.obj
 0001:0008c420       ?wide_null_string@?$output_processor@_WV?$string_output_adapter@_W@__crt_stdio_output@@V?$positional_parameter_base@_WV?$string_output_adapter@_W@__crt_stdio_output@@@2@@__crt_stdio_output@@CAPEA_WXZ 000000018008d420 f i libucrtd:output.obj
 0001:0008c430       ?wide_null_string@?$output_processor@_WV?$string_output_adapter@_W@__crt_stdio_output@@V?$standard_base@_WV?$string_output_adapter@_W@__crt_stdio_output@@@2@@__crt_stdio_output@@CAPEA_WXZ 000000018008d430 f i libucrtd:output.obj
 0001:0008c440       ?write_character@?$output_adapter_common@DV?$stream_output_adapter@D@__crt_stdio_output@@@__crt_stdio_output@@QEBAXDQEAHAEAV__crt_cached_ptd_host@@@Z 000000018008d440 f i libucrtd:output.obj
 0001:0008c4a0       ?write_character@?$output_adapter_common@_WV?$stream_output_adapter@_W@__crt_stdio_output@@@__crt_stdio_output@@QEBAX_WQEAHAEAV__crt_cached_ptd_host@@@Z 000000018008d4a0 f i libucrtd:output.obj
 0001:0008c500       ?write_character@?$string_output_adapter@D@__crt_stdio_output@@QEBA_NDQEAHAEAV__crt_cached_ptd_host@@@Z 000000018008d500 f i libucrtd:output.obj
 0001:0008c5d0       ?write_character@?$string_output_adapter@_W@__crt_stdio_output@@QEBA_N_WQEAHAEAV__crt_cached_ptd_host@@@Z 000000018008d5d0 f i libucrtd:output.obj
 0001:0008c6a0       ?write_character_without_count_update@?$stream_output_adapter@D@__crt_stdio_output@@QEBA_NDAEAV__crt_cached_ptd_host@@@Z 000000018008d6a0 f i libucrtd:output.obj
 0001:0008c730       ?write_character_without_count_update@?$stream_output_adapter@_W@__crt_stdio_output@@QEBA_N_WAEAV__crt_cached_ptd_host@@@Z 000000018008d730 f i libucrtd:output.obj
 0001:0008c7c0       ?write_stored_string_tchar@?$output_processor@DV?$stream_output_adapter@D@__crt_stdio_output@@V?$format_validation_base@DV?$stream_output_adapter@D@__crt_stdio_output@@@2@@__crt_stdio_output@@AEAA_ND@Z 000000018008d7c0 f i libucrtd:output.obj
 0001:0008c970       ?write_stored_string_tchar@?$output_processor@DV?$stream_output_adapter@D@__crt_stdio_output@@V?$positional_parameter_base@DV?$stream_output_adapter@D@__crt_stdio_output@@@2@@__crt_stdio_output@@AEAA_ND@Z 000000018008d970 f i libucrtd:output.obj
 0001:0008cb20       ?write_stored_string_tchar@?$output_processor@DV?$stream_output_adapter@D@__crt_stdio_output@@V?$standard_base@DV?$stream_output_adapter@D@__crt_stdio_output@@@2@@__crt_stdio_output@@AEAA_ND@Z 000000018008db20 f i libucrtd:output.obj
 0001:0008ccd0       ?write_stored_string_tchar@?$output_processor@DV?$string_output_adapter@D@__crt_stdio_output@@V?$format_validation_base@DV?$string_output_adapter@D@__crt_stdio_output@@@2@@__crt_stdio_output@@AEAA_ND@Z 000000018008dcd0 f i libucrtd:output.obj
 0001:0008ce80       ?write_stored_string_tchar@?$output_processor@DV?$string_output_adapter@D@__crt_stdio_output@@V?$positional_parameter_base@DV?$string_output_adapter@D@__crt_stdio_output@@@2@@__crt_stdio_output@@AEAA_ND@Z 000000018008de80 f i libucrtd:output.obj
 0001:0008d030       ?write_stored_string_tchar@?$output_processor@DV?$string_output_adapter@D@__crt_stdio_output@@V?$standard_base@DV?$string_output_adapter@D@__crt_stdio_output@@@2@@__crt_stdio_output@@AEAA_ND@Z 000000018008e030 f i libucrtd:output.obj
 0001:0008d1e0       ?write_stored_string_tchar@?$output_processor@_WV?$stream_output_adapter@_W@__crt_stdio_output@@V?$format_validation_base@_WV?$stream_output_adapter@_W@__crt_stdio_output@@@2@@__crt_stdio_output@@AEAA_N_W@Z 000000018008e1e0 f i libucrtd:output.obj
 0001:0008d340       ?write_stored_string_tchar@?$output_processor@_WV?$stream_output_adapter@_W@__crt_stdio_output@@V?$positional_parameter_base@_WV?$stream_output_adapter@_W@__crt_stdio_output@@@2@@__crt_stdio_output@@AEAA_N_W@Z 000000018008e340 f i libucrtd:output.obj
 0001:0008d4a0       ?write_stored_string_tchar@?$output_processor@_WV?$stream_output_adapter@_W@__crt_stdio_output@@V?$standard_base@_WV?$stream_output_adapter@_W@__crt_stdio_output@@@2@@__crt_stdio_output@@AEAA_N_W@Z 000000018008e4a0 f i libucrtd:output.obj
 0001:0008d600       ?write_stored_string_tchar@?$output_processor@_WV?$string_output_adapter@_W@__crt_stdio_output@@V?$format_validation_base@_WV?$string_output_adapter@_W@__crt_stdio_output@@@2@@__crt_stdio_output@@AEAA_N_W@Z 000000018008e600 f i libucrtd:output.obj
 0001:0008d760       ?write_stored_string_tchar@?$output_processor@_WV?$string_output_adapter@_W@__crt_stdio_output@@V?$positional_parameter_base@_WV?$string_output_adapter@_W@__crt_stdio_output@@@2@@__crt_stdio_output@@AEAA_N_W@Z 000000018008e760 f i libucrtd:output.obj
 0001:0008d8c0       ?write_stored_string_tchar@?$output_processor@_WV?$string_output_adapter@_W@__crt_stdio_output@@V?$standard_base@_WV?$string_output_adapter@_W@__crt_stdio_output@@@2@@__crt_stdio_output@@AEAA_N_W@Z 000000018008e8c0 f i libucrtd:output.obj
 0001:0008da20       ?write_string@?$stream_output_adapter@D@__crt_stdio_output@@QEBAXQEBDHQEAHAEAV__crt_cached_ptd_host@@@Z 000000018008ea20 f i libucrtd:output.obj
 0001:0008daa0       ?write_string@?$stream_output_adapter@_W@__crt_stdio_output@@QEBAXQEB_WHQEAHAEAV__crt_cached_ptd_host@@@Z 000000018008eaa0 f i libucrtd:output.obj
 0001:0008db20       ?write_string@?$string_output_adapter@D@__crt_stdio_output@@QEBAXQEBDHQEAHAEAV__crt_cached_ptd_host@@@Z 000000018008eb20 f i libucrtd:output.obj
 0001:0008dc90       ?write_string@?$string_output_adapter@_W@__crt_stdio_output@@QEBAXQEB_WHQEAHAEAV__crt_cached_ptd_host@@@Z 000000018008ec90 f i libucrtd:output.obj
 0001:0008de00       ?write_string_impl@?$output_adapter_common@DV?$stream_output_adapter@D@__crt_stdio_output@@@__crt_stdio_output@@IEBAXQEBDHQEAHAEAV__crt_cached_ptd_host@@@Z 000000018008ee00 f i libucrtd:output.obj
 0001:0008df20       ?write_string_impl@?$output_adapter_common@_WV?$stream_output_adapter@_W@__crt_stdio_output@@@__crt_stdio_output@@IEBAXQEB_WHQEAHAEAV__crt_cached_ptd_host@@@Z 000000018008ef20 f i libucrtd:output.obj
 0001:0008e040       __acrt_disable_global_locale_sync 000000018008f040 f i libucrtd:output.obj
 0001:0008e070       __acrt_enable_global_locale_sync 000000018008f070 f i libucrtd:output.obj
 0001:0008e0a0       __acrt_isleadbyte_l_noupdate 000000018008f0a0 f i libucrtd:output.obj
 0001:0008e0d0       __acrt_locale_changed      000000018008f0d0 f i libucrtd:output.obj
 0001:0008e100       __acrt_locale_get_ctype_array_value 000000018008f100 f i libucrtd:output.obj
 0001:0008e140       __ascii_iswalpha           000000018008f140 f i libucrtd:output.obj
 0001:0008e180       __ascii_toupper            000000018008f180 f i libucrtd:output.obj
 0001:0008e1a0       __ascii_towupper           000000018008f1a0 f i libucrtd:output.obj
 0001:0008e1c0       __stdio_common_vfprintf    000000018008f1c0 f   libucrtd:output.obj
 0001:0008e240       __stdio_common_vfprintf_p  000000018008f240 f   libucrtd:output.obj
 0001:0008e2c0       __stdio_common_vfprintf_s  000000018008f2c0 f   libucrtd:output.obj
 0001:0008e340       __stdio_common_vfwprintf   000000018008f340 f   libucrtd:output.obj
 0001:0008e3c0       __stdio_common_vfwprintf_p 000000018008f3c0 f   libucrtd:output.obj
 0001:0008e440       __stdio_common_vfwprintf_s 000000018008f440 f   libucrtd:output.obj
 0001:0008e4c0       __stdio_common_vsnprintf_s 000000018008f4c0 f   libucrtd:output.obj
 0001:0008e550       __stdio_common_vsnwprintf_s 000000018008f550 f   libucrtd:output.obj
 0001:0008e5e0       __stdio_common_vsprintf    000000018008f5e0 f   libucrtd:output.obj
 0001:0008e670       __stdio_common_vsprintf_p  000000018008f670 f   libucrtd:output.obj
 0001:0008e700       __stdio_common_vsprintf_s  000000018008f700 f   libucrtd:output.obj
 0001:0008e790       __stdio_common_vswprintf   000000018008f790 f   libucrtd:output.obj
 0001:0008e820       __stdio_common_vswprintf_p 000000018008f820 f   libucrtd:output.obj
 0001:0008e8b0       __stdio_common_vswprintf_s 000000018008f8b0 f   libucrtd:output.obj
 0001:0008e940       _ctype_fast_check_internal 000000018008f940 f i libucrtd:output.obj
 0001:0008e970       _isdigit_fast_internal     000000018008f970 f i libucrtd:output.obj
 0001:0008e9a0       _tolower_fast_internal     000000018008f9a0 f i libucrtd:output.obj
 0001:0008e9d0       free                       000000018008f9d0 f   libucrtd:free.obj
 0001:0008ea00       malloc                     000000018008fa00 f   libucrtd:malloc.obj
 0001:0008ea30       ??$?RU?$__crt_report_hook_node@D@@@__crt_internal_free_policy@@QEBAXQEBU?$__crt_report_hook_node@D@@@Z 000000018008fa30 f i libucrtd:dbgrpt.obj
 0001:0008ea60       ??$?RU?$__crt_report_hook_node@_W@@@__crt_internal_free_policy@@QEBAXQEBU?$__crt_report_hook_node@_W@@@Z 000000018008fa60 f i libucrtd:dbgrpt.obj
 0001:0008fcc0       ??$get_module_file_name@AEAPEAUHINSTANCE__@@AEAY0BAF@DK@?$__crt_char_traits@D@@SAKAEAPEAUHINSTANCE__@@AEAY0BAF@D$$QEAK@Z 0000000180090cc0 f i libucrtd:dbgrpt.obj
 0001:0008fd00       ??$get_module_file_name@AEAPEAUHINSTANCE__@@AEAY0BAF@_WK@?$__crt_char_traits@_W@@SAKAEAPEAUHINSTANCE__@@AEAY0BAF@_W$$QEAK@Z 0000000180090d00 f i libucrtd:dbgrpt.obj
 0001:0008fd40       ??$tcscpy_s@AEAY0BAF@D_KPEBD@?$__crt_char_traits@D@@SAHAEAY0BAF@D$$QEA_K$$QEAPEBD@Z 0000000180090d40 f i libucrtd:dbgrpt.obj
 0001:0008fd80       ??$tcscpy_s@AEAY0BAF@_W_KPEB_W@?$__crt_char_traits@_W@@SAHAEAY0BAF@_W$$QEA_K$$QEAPEB_W@Z 0000000180090d80 f i libucrtd:dbgrpt.obj
 0001:0008fdc0       ??$tcslen@AEAY0BAF@D@?$__crt_char_traits@D@@SA_KAEAY0BAF@D@Z 0000000180090dc0 f i libucrtd:dbgrpt.obj
 0001:0008fde0       ??$tcslen@AEAY0BAF@_W@?$__crt_char_traits@_W@@SA_KAEAY0BAF@_W@Z 0000000180090de0 f i libucrtd:dbgrpt.obj
 0001:0008fe00       ??$tcslen@AEBQEBD@?$__crt_char_traits@D@@SA_KAEBQEBD@Z 0000000180090e00 f i libucrtd:dbgrpt.obj
 0001:0008fe20       ??$tcslen@AEBQEB_W@?$__crt_char_traits@_W@@SA_KAEBQEB_W@Z 0000000180090e20 f i libucrtd:dbgrpt.obj
 0001:0008ff20       ??0?$__crt_unique_heap_ptr@U?$__crt_report_hook_node@D@@U__crt_internal_free_policy@@@@QEAA@QEAU?$__crt_report_hook_node@D@@@Z 0000000180090f20 f i libucrtd:dbgrpt.obj
 0001:0008ff40       ??0?$__crt_unique_heap_ptr@U?$__crt_report_hook_node@_W@@U__crt_internal_free_policy@@@@QEAA@QEAU?$__crt_report_hook_node@_W@@@Z 0000000180090f40 f i libucrtd:dbgrpt.obj
 0001:0008ff60       ??1?$__crt_unique_heap_ptr@U?$__crt_report_hook_node@D@@U__crt_internal_free_policy@@@@QEAA@XZ 0000000180090f60 f i libucrtd:dbgrpt.obj
 0001:0008ff80       ??1?$__crt_unique_heap_ptr@U?$__crt_report_hook_node@_W@@U__crt_internal_free_policy@@@@QEAA@XZ 0000000180090f80 f i libucrtd:dbgrpt.obj
 0001:0008ffa0       ??B?$__crt_unique_heap_ptr@U?$__crt_report_hook_node@D@@U__crt_internal_free_policy@@@@QEBA_NXZ 0000000180090fa0 f i libucrtd:dbgrpt.obj
 0001:0008ffc0       ??B?$__crt_unique_heap_ptr@U?$__crt_report_hook_node@_W@@U__crt_internal_free_policy@@@@QEBA_NXZ 0000000180090fc0 f i libucrtd:dbgrpt.obj
 0001:000906e0       ?detach@?$__crt_unique_heap_ptr@U?$__crt_report_hook_node@D@@U__crt_internal_free_policy@@@@QEAAPEAU?$__crt_report_hook_node@D@@XZ 00000001800916e0 f i libucrtd:dbgrpt.obj
 0001:00090710       ?detach@?$__crt_unique_heap_ptr@U?$__crt_report_hook_node@_W@@U__crt_internal_free_policy@@@@QEAAPEAU?$__crt_report_hook_node@_W@@XZ 0000000180091710 f i libucrtd:dbgrpt.obj
 0001:00090740       ?get@?$__crt_unique_heap_ptr@U?$__crt_report_hook_node@D@@U__crt_internal_free_policy@@@@QEBAPEAU?$__crt_report_hook_node@D@@XZ 0000000180091740 f i libucrtd:dbgrpt.obj
 0001:00090750       ?get@?$__crt_unique_heap_ptr@U?$__crt_report_hook_node@_W@@U__crt_internal_free_policy@@@@QEBAPEAU?$__crt_report_hook_node@_W@@XZ 0000000180091750 f i libucrtd:dbgrpt.obj
 0001:000907c0       ?is_valid@?$__crt_unique_heap_ptr@U?$__crt_report_hook_node@D@@U__crt_internal_free_policy@@@@QEBA_NXZ 00000001800917c0 f i libucrtd:dbgrpt.obj
 0001:000907f0       ?is_valid@?$__crt_unique_heap_ptr@U?$__crt_report_hook_node@_W@@U__crt_internal_free_policy@@@@QEBA_NXZ 00000001800917f0 f i libucrtd:dbgrpt.obj
 0001:00090820       ?release@?$__crt_unique_heap_ptr@U?$__crt_report_hook_node@D@@U__crt_internal_free_policy@@@@QEAAXXZ 0000000180091820 f i libucrtd:dbgrpt.obj
 0001:00090850       ?release@?$__crt_unique_heap_ptr@U?$__crt_report_hook_node@_W@@U__crt_internal_free_policy@@@@QEAAXXZ 0000000180091850 f i libucrtd:dbgrpt.obj
 0001:00090880       _CrtDbgReport              0000000180091880 f   libucrtd:dbgrpt.obj
 0001:00090900       _CrtDbgReportW             0000000180091900 f   libucrtd:dbgrpt.obj
 0001:00090980       _CrtSetReportHook2         0000000180091980 f   libucrtd:dbgrpt.obj
 0001:000909a0       _CrtSetReportHookW2        00000001800919a0 f   libucrtd:dbgrpt.obj
 0001:000909c0       __acrt_MessageWindowA      00000001800919c0 f   libucrtd:dbgrpt.obj
 0001:00090a10       __acrt_MessageWindowW      0000000180091a10 f   libucrtd:dbgrpt.obj
 0001:00090a60       _invoke_watson_if_error    0000000180091a60 f i libucrtd:dbgrpt.obj
 0001:00090ab0       _invoke_watson_if_oneof    0000000180091ab0 f i libucrtd:dbgrpt.obj
 0001:00090b10       _snwprintf_s               0000000180091b10 f i libucrtd:dbgrpt.obj
 0001:00090b80       _vsnwprintf_s_l            0000000180091b80 f i libucrtd:dbgrpt.obj
 0001:00091100       wcscpy_s                   0000000180092100 f   libucrtd:wcscpy_s.obj
 0001:00092490       ??1?$__crt_simd_cleanup_guard@$00@@QEAA@XZ 0000000180093490 f i libucrtd:strnlen.obj
 0001:000924a0       ??1?$__crt_simd_cleanup_guard@$0A@@@QEAA@XZ 00000001800934a0 f i libucrtd:strnlen.obj
 0001:000924b0       ?compare_equals@?$__crt_simd_traits@$00E@@SA?AT__m256i@@T2@0@Z 00000001800934b0 f i libucrtd:strnlen.obj
 0001:000924f0       ?compare_equals@?$__crt_simd_traits@$00G@@SA?AT__m256i@@T2@0@Z 00000001800934f0 f i libucrtd:strnlen.obj
 0001:00092530       ?compare_equals@?$__crt_simd_traits@$0A@E@@SA?AT__m128i@@T2@0@Z 0000000180093530 f i libucrtd:strnlen.obj
 0001:00092560       ?compare_equals@?$__crt_simd_traits@$0A@G@@SA?AT__m128i@@T2@0@Z 0000000180093560 f i libucrtd:strnlen.obj
 0001:00092590       ?compute_byte_mask@?$__crt_simd_pack_traits@$00@@SAHT__m256i@@@Z 0000000180093590 f i libucrtd:strnlen.obj
 0001:000925b0       ?compute_byte_mask@?$__crt_simd_pack_traits@$0A@@@SAHT__m128i@@@Z 00000001800935b0 f i libucrtd:strnlen.obj
 0001:000925d0       ?get_zero_pack@?$__crt_simd_pack_traits@$00@@SA?AT__m256i@@XZ 00000001800935d0 f i libucrtd:strnlen.obj
 0001:00092600       ?get_zero_pack@?$__crt_simd_pack_traits@$0A@@@SA?AT__m128i@@XZ 0000000180093600 f i libucrtd:strnlen.obj
 0001:00092620       strnlen                    0000000180093620 f   libucrtd:strnlen.obj
 0001:00092650       wcslen                     0000000180093650 f   libucrtd:strnlen.obj
 0001:00092670       wcsnlen                    0000000180093670 f   libucrtd:strnlen.obj
 0001:000926a0       ??$__crt_fast_decode_pointer@P6AXPEB_W00I_K@Z@@YAP6AXPEB_W00I_K@ZQ6AX000I1@Z@Z 00000001800936a0 f i libucrtd:invalid_parameter.obj
 0001:000926e0       ??$__crt_fast_encode_pointer@P6AXPEB_W00I_K@Z@@YAP6AXPEB_W00I_K@ZQ6AX000I1@Z@Z 00000001800936e0 f i libucrtd:invalid_parameter.obj
 0001:00092720       ??$initialize_from_array@$$BY00Q6AXPEB_W00I_K@Z@?$dual_state_global@P6AXPEB_W00I_K@Z@__crt_state_management@@QEAAXAEAY00Q6AXPEB_W00I_K@Z@Z 0000000180093720 f i libucrtd:invalid_parameter.obj
 0001:00092780       ?__crt_rotate_pointer_value@@YA_K_KH@Z 0000000180093780 f i libucrtd:invalid_parameter.obj
 0001:00092840       ?check_synchronize_global_state_index@__crt_cached_ptd_host@@AEAA_KXZ 0000000180093840 f i libucrtd:invalid_parameter.obj
 0001:000928a0       ?dangerous_get_state_array@?$dual_state_global@P6AXPEB_W00I_K@Z@__crt_state_management@@QEAAPEAP6AXPEB_W00I_K@ZXZ 00000001800938a0 f i libucrtd:invalid_parameter.obj
 0001:000928b0       ?get_current_global_state_index@__crt_cached_ptd_host@@QEAA_KXZ 00000001800938b0 f i libucrtd:invalid_parameter.obj
 0001:000928d0       ?get_current_state_index@__crt_state_management@@YA_KXZ 00000001800938d0 f i libucrtd:invalid_parameter.obj
 0001:000928e0       ?get_raw_ptd_noexit@__crt_cached_ptd_host@@QEAAPEAU__acrt_ptd@@XZ 00000001800938e0 f i libucrtd:invalid_parameter.obj
 0001:00092900       ?try_synchronize_per_thread_data@__crt_cached_ptd_host@@AEAAPEAU__acrt_ptd@@XZ 0000000180093900 f i libucrtd:invalid_parameter.obj
 0001:00092930       ?value@?$dual_state_global@P6AXPEB_W00I_K@Z@__crt_state_management@@QEAAAEAP6AXPEB_W00I_K@ZAEAV__crt_cached_ptd_host@@@Z 0000000180093930 f i libucrtd:invalid_parameter.obj
 0001:00092960       ?value@?$dual_state_global@P6AXPEB_W00I_K@Z@__crt_state_management@@QEAAAEAP6AXPEB_W00I_K@ZXZ 0000000180093960 f i libucrtd:invalid_parameter.obj
 0001:00092980       __acrt_call_reportfault    0000000180093980 f   libucrtd:invalid_parameter.obj
 0001:00092ab0       __acrt_initialize_invalid_parameter_handler 0000000180093ab0 f   libucrtd:invalid_parameter.obj
 0001:00092ae0       _get_invalid_parameter_handler 0000000180093ae0 f   libucrtd:invalid_parameter.obj
 0001:00092b00       _get_thread_local_invalid_parameter_handler 0000000180093b00 f   libucrtd:invalid_parameter.obj
 0001:00092b30       _invalid_parameter         0000000180093b30 f   libucrtd:invalid_parameter.obj
 0001:00092ba0       _invalid_parameter_internal 0000000180093ba0 f   libucrtd:invalid_parameter.obj
 0001:00092cf0       _invalid_parameter_noinfo  0000000180093cf0 f   libucrtd:invalid_parameter.obj
 0001:00092d20       _invalid_parameter_noinfo_noreturn 0000000180093d20 f   libucrtd:invalid_parameter.obj
 0001:00092d60       _invoke_watson             0000000180093d60 f   libucrtd:invalid_parameter.obj
 0001:00092dc0       _set_invalid_parameter_handler 0000000180093dc0 f   libucrtd:invalid_parameter.obj
 0001:00092e10       _set_thread_local_invalid_parameter_handler 0000000180093e10 f   libucrtd:invalid_parameter.obj
 0001:00092e50       ?get_doserrno@__crt_cached_ptd_host@@QEAAAEAU?$cached@K@1@XZ 0000000180093e50 f i libucrtd:errno.obj
 0001:00092e60       ?set@?$cached@K@__crt_cached_ptd_host@@QEAAKK@Z 0000000180093e60 f i libucrtd:errno.obj
 0001:00092e90       __acrt_errno_from_os_error 0000000180093e90 f   libucrtd:errno.obj
 0001:00092f20       __acrt_errno_map_os_error  0000000180093f20 f   libucrtd:errno.obj
 0001:00092f50       __acrt_errno_map_os_error_ptd 0000000180093f50 f   libucrtd:errno.obj
 0001:00092fb0       __doserrno                 0000000180093fb0 f   libucrtd:errno.obj
 0001:00092fe0       _errno                     0000000180093fe0 f   libucrtd:errno.obj
 0001:00093010       _get_doserrno              0000000180094010 f   libucrtd:errno.obj
 0001:000930d0       _get_errno                 00000001800940d0 f   libucrtd:errno.obj
 0001:00093190       _set_doserrno              0000000180094190 f   libucrtd:errno.obj
 0001:000931d0       _set_errno                 00000001800941d0 f   libucrtd:errno.obj
 0001:00093210       calloc                     0000000180094210 f   libucrtd:calloc.obj
 0001:00093250       _recalloc                  0000000180094250 f   libucrtd:recalloc.obj
 0001:000932a0       _recalloc_base             00000001800942a0 f   libucrtd:recalloc.obj
 0001:00093380       _resetstkoflw              0000000180094380 f   libucrtd:resetstk.obj
 0001:00093b80       wcscat_s                   0000000180094b80 f   libucrtd:wcscat_s.obj
 0001:00094260       wcsncpy_s                  0000000180095260 f   libucrtd:wcsncpy_s.obj
 0001:000943e0       __isascii                  00000001800953e0 f   libucrtd:_ctype.obj
 0001:00094410       __iscsym                   0000000180095410 f   libucrtd:_ctype.obj
 0001:00094450       __iscsymf                  0000000180095450 f   libucrtd:_ctype.obj
 0001:00094490       __toascii                  0000000180095490 f   libucrtd:_ctype.obj
 0001:000944a0       _isalnum_l                 00000001800954a0 f   libucrtd:_ctype.obj
 0001:000944d0       _isalpha_l                 00000001800954d0 f   libucrtd:_ctype.obj
 0001:00094500       _isblank_l                 0000000180095500 f   libucrtd:_ctype.obj
 0001:00094530       _iscntrl_l                 0000000180095530 f   libucrtd:_ctype.obj
 0001:00094560       _iscsym_l                  0000000180095560 f   libucrtd:_ctype.obj
 0001:000945b0       _iscsymf_l                 00000001800955b0 f   libucrtd:_ctype.obj
 0001:00094600       _isdigit_l                 0000000180095600 f   libucrtd:_ctype.obj
 0001:00094630       _isgraph_l                 0000000180095630 f   libucrtd:_ctype.obj
 0001:00094660       _islower_l                 0000000180095660 f   libucrtd:_ctype.obj
 0001:00094690       _isprint_l                 0000000180095690 f   libucrtd:_ctype.obj
 0001:000946c0       _ispunct_l                 00000001800956c0 f   libucrtd:_ctype.obj
 0001:000946f0       _isspace_l                 00000001800956f0 f   libucrtd:_ctype.obj
 0001:00094720       _isupper_l                 0000000180095720 f   libucrtd:_ctype.obj
 0001:00094750       _isxdigit_l                0000000180095750 f   libucrtd:_ctype.obj
 0001:00094780       isalnum                    0000000180095780 f   libucrtd:_ctype.obj
 0001:000947a0       isalpha                    00000001800957a0 f   libucrtd:_ctype.obj
 0001:000947c0       isblank                    00000001800957c0 f   libucrtd:_ctype.obj
 0001:000947f0       iscntrl                    00000001800957f0 f   libucrtd:_ctype.obj
 0001:00094810       isdigit                    0000000180095810 f   libucrtd:_ctype.obj
 0001:00094830       isgraph                    0000000180095830 f   libucrtd:_ctype.obj
 0001:00094850       islower                    0000000180095850 f   libucrtd:_ctype.obj
 0001:00094870       isprint                    0000000180095870 f   libucrtd:_ctype.obj
 0001:00094890       ispunct                    0000000180095890 f   libucrtd:_ctype.obj
 0001:000948b0       isspace                    00000001800958b0 f   libucrtd:_ctype.obj
 0001:000948d0       isupper                    00000001800958d0 f   libucrtd:_ctype.obj
 0001:000948f0       isxdigit                   00000001800958f0 f   libucrtd:_ctype.obj
 0001:00094910       wcscat                     0000000180095910 f   libucrtd:wcscat.obj
 0001:000949a0       wcscpy                     00000001800959a0 f   libucrtd:wcscpy.obj
 0001:00095150       ??$open_file@AEBQEBDAEBQEBDAEBHPEAU_iobuf@@@?$__crt_char_traits@D@@SAPEAU_iobuf@@AEBQEBD0AEBH$$QEAPEAU1@@Z 0000000180096150 f i libucrtd:fopen.obj
 0001:000951a0       ??$open_file@AEBQEB_WAEBQEB_WAEBHPEAU_iobuf@@@?$__crt_char_traits@_W@@SAPEAU_iobuf@@AEBQEB_W0AEBH$$QEAPEAU1@@Z 00000001800961a0 f i libucrtd:fopen.obj
 0001:000951f0       ?unlock@__crt_stdio_stream@@QEBAXXZ 00000001800961f0 f i libucrtd:fopen.obj
 0001:00095210       _fsopen                    0000000180096210 f   libucrtd:fopen.obj
 0001:00095240       _wfopen                    0000000180096240 f   libucrtd:fopen.obj
 0001:00095270       _wfopen_s                  0000000180096270 f   libucrtd:fopen.obj
 0001:000952a0       _wfsopen                   00000001800962a0 f   libucrtd:fopen.obj
 0001:000952d0       fopen                      00000001800962d0 f   libucrtd:fopen.obj
 0001:00095300       fopen_s                    0000000180096300 f   libucrtd:fopen.obj
 0001:00095640       ?is_in_use@__crt_stdio_stream@@QEBA_NXZ 0000000180096640 f i libucrtd:fclose.obj
 0001:00095680       _fclose_nolock             0000000180096680 f   libucrtd:fclose.obj
 0001:000956c0       fclose                     00000001800966c0 f   libucrtd:fclose.obj
 0001:00095a00       _fputc_nolock              0000000180096a00 f   libucrtd:fputc.obj
 0001:00095a50       _fputc_nolock_internal     0000000180096a50 f   libucrtd:fputc.obj
 0001:00095b10       _fputchar                  0000000180096b10 f   libucrtd:fputc.obj
 0001:00095b40       _putc_nolock               0000000180096b40 f   libucrtd:fputc.obj
 0001:00095b60       fputc                      0000000180096b60 f   libucrtd:fputc.obj
 0001:00095bb0       putc                       0000000180096bb0 f   libucrtd:fputc.obj
 0001:00095bd0       putchar                    0000000180096bd0 f   libucrtd:fputc.obj
 0001:00095c60       _seh_filter_dll            0000000180096c60 f   libucrtd:exception_filter.obj
 0001:00095c90       _seh_filter_exe            0000000180096c90 f   libucrtd:exception_filter.obj
 0001:00095f60       ??$?B$$A6AXPEAXK0@Z@__crt_fast_encoded_nullptr_t@@QEBAP6AXPEAXK0@ZXZ 0000000180096f60 f i libucrtd:exit.obj
 0001:00096020       ??$__crt_fast_decode_pointer@P6AXPEAXK0@Z@@YAP6AXPEAXK0@ZQ6AX0K0@Z@Z 0000000180097020 f i libucrtd:exit.obj
 0001:00096060       ??$__crt_fast_encode_pointer@P6AXPEAXK0@Z@@YAP6AXPEAXK0@ZQ6AX0K0@Z@Z 0000000180097060 f i libucrtd:exit.obj
 0001:000960a0       ??$__crt_get_proc_address@P6AXI@Z@@YAP6AXI@ZQEAUHINSTANCE__@@QEBD@Z 00000001800970a0 f i libucrtd:exit.obj
 0001:00096160       ??0?$__crt_unique_handle_t@U__crt_hmodule_traits@@@@QEAA@QEAUHINSTANCE__@@@Z 0000000180097160 f i libucrtd:exit.obj
 0001:00096180       ??1?$__crt_unique_handle_t@U__crt_hmodule_traits@@@@QEAA@XZ 0000000180097180 f i libucrtd:exit.obj
 0001:00096300       ?__acrt_select_exit_lock@@YA?AW4__acrt_lock_id@@XZ 0000000180097300 f i libucrtd:exit.obj
 0001:00096310       ?__crt_fast_encode_pointer@@YA?AU__crt_fast_encoded_nullptr_t@@$$T@Z 0000000180097310 f i libucrtd:exit.obj
 0001:00096350       ?close@?$__crt_unique_handle_t@U__crt_hmodule_traits@@@@QEAAXXZ 0000000180097350 f i libucrtd:exit.obj
 0001:00096390       ?close@__crt_hmodule_traits@@SA_NPEAUHINSTANCE__@@@Z 0000000180097390 f i libucrtd:exit.obj
 0001:000964b0       ?get@?$__crt_unique_handle_t@U__crt_hmodule_traits@@@@QEBAPEAUHINSTANCE__@@XZ 00000001800974b0 f i libucrtd:exit.obj
 0001:000964c0       ?get_address_of@?$__crt_unique_handle_t@U__crt_hmodule_traits@@@@QEAAPEAPEAUHINSTANCE__@@XZ 00000001800974c0 f i libucrtd:exit.obj
 0001:000964d0       ?get_invalid_value@__crt_hmodule_traits@@SAPEAUHINSTANCE__@@XZ 00000001800974d0 f i libucrtd:exit.obj
 0001:000966b0       _Exit                      00000001800976b0 f   libucrtd:exit.obj
 0001:000966d0       __acrt_initialize_thread_local_exit_callback 00000001800976d0 f   libucrtd:exit.obj
 0001:000966f0       _c_exit                    00000001800976f0 f   libucrtd:exit.obj
 0001:00096710       _cexit                     0000000180097710 f   libucrtd:exit.obj
 0001:00096730       _exit                      0000000180097730 f   libucrtd:exit.obj
 0001:00096750       _is_c_termination_complete 0000000180097750 f   libucrtd:exit.obj
 0001:00096770       _register_thread_local_exe_atexit_callback 0000000180097770 f   libucrtd:exit.obj
 0001:000967c0       exit                       00000001800977c0 f   libucrtd:exit.obj
 0001:000967e0       quick_exit                 00000001800977e0 f   libucrtd:exit.obj
 0001:00096800       ??$?RE@__crt_internal_free_policy@@QEBAXQEBE@Z 0000000180097800 f i libucrtd:argv_parsing.obj
 0001:00096830       ??$?RPEAD@__crt_internal_free_policy@@QEBAXQEBQEAD@Z 0000000180097830 f i libucrtd:argv_parsing.obj
 0001:00096860       ??$?RPEA_W@__crt_internal_free_policy@@QEBAXQEBQEA_W@Z 0000000180097860 f i libucrtd:argv_parsing.obj
 0001:00096fb0       ??$get_module_file_name@$$TAEAY0BAF@DH@?$__crt_char_traits@D@@SAK$$QEA$$TAEAY0BAF@D$$QEAH@Z 0000000180097fb0 f i libucrtd:argv_parsing.obj
 0001:00096ff0       ??$get_module_file_name@$$TAEAY0BAF@_WH@?$__crt_char_traits@_W@@SAK$$QEA$$TAEAY0BAF@_W$$QEAH@Z 0000000180097ff0 f i libucrtd:argv_parsing.obj
 0001:000979f0       ??$set_program_name@PEAD@?$__crt_char_traits@D@@SAX$$QEAPEAD@Z 00000001800989f0 f i libucrtd:argv_parsing.obj
 0001:00097a10       ??$set_program_name@PEA_W@?$__crt_char_traits@_W@@SAX$$QEAPEA_W@Z 0000000180098a10 f i libucrtd:argv_parsing.obj
