 OPOSLineDisplay

 Timestamp is 61a759ae (Wed Dec  1 20:17:02 2021)

 Preferred load address is 0000000180000000

 Start         Length     Name                   Class
 0001:00000000 00000d90H .text$di                CODE
 0001:00000d90 000e4ed0H .text$mn                CODE
 0001:000e5c60 00000040H .text$mn$00             CODE
 0001:000e5ca0 00001330H .text$x                 CODE
 0001:000e6fd0 00000124H .text$yd                CODE
 0002:00000000 000006f8H .idata$5                DATA
 0002:000006f8 00000030H .00cfg                  DATA
 0002:00000728 00000008H .CRT$XCA                DATA
 0002:00000730 00000008H .CRT$XCL                DATA
 0002:00000738 000000d8H .CRT$XCU                DATA
 0002:00000810 00000008H .CRT$XCZ                DATA
 0002:00000818 00000008H .CRT$XIA                DATA
 0002:00000820 00000028H .CRT$XIC                DATA
 0002:00000848 00000008H .CRT$XIZ                DATA
 0002:00000850 00000008H .CRT$XLA                DATA
 0002:00000858 00000008H .CRT$XLZ                DATA
 0002:00000860 00000008H .CRT$XPA                DATA
 0002:00000868 00000010H .CRT$XPX                DATA
 0002:00000878 00000008H .CRT$XPXA               DATA
 0002:00000880 00000008H .CRT$XPZ                DATA
 0002:00000888 00000008H .CRT$XTA                DATA
 0002:00000890 00000010H .CRT$XTZ                DATA
 0002:00000898 00000000H .gehcont$y              DATA
 0002:00000898 00000000H .gfids$y                DATA
 0002:000008a0 0003c760H .rdata                  DATA
 0002:0003d000 00000080H .rdata$CastGuardVftablesA DATA
 0002:0003d080 00000080H .rdata$CastGuardVftablesC DATA
 0002:0003d100 00000028H .rdata$T                DATA
 0002:0003d128 0000056cH .rdata$r                DATA
 0002:0003d694 00000198H .rdata$voltmd           DATA
 0002:0003d82c 000004a4H .rdata$zzzdbg           DATA
 0002:0003dcd0 00000008H .rtc$IAA                DATA
 0002:0003dcd8 00000030H .rtc$IMZ                DATA
 0002:0003dd08 00000008H .rtc$IZZ                DATA
 0002:0003dd10 00000008H .rtc$TAA                DATA
 0002:0003dd18 00000030H .rtc$TMZ                DATA
 0002:0003dd48 00000008H .rtc$TZZ                DATA
 0002:0003dd50 00000004H .tls                    DATA
 0002:0003dd54 00000004H .tls$                   DATA
 0002:0003dd58 00000008H .tls$ZZZ                DATA
 0002:0003dd60 0000a0c8H .xdata                  DATA
 0002:00047e28 00000150H .xdata$x                DATA
 0002:00047f78 00000008H ATL$__a                 DATA
 0002:00047f80 00000010H ATL$__z                 DATA
 0002:00047f90 000000acH .edata                  DATA
 0002:0004803c 00000078H .idata$2                DATA
 0002:000480b4 00000014H .idata$3                DATA
 0002:000480c8 000006f8H .idata$4                DATA
 0002:000487c0 00000df0H .idata$6                DATA
 0003:00000000 00000f38H .data                   DATA
 0003:00000f38 000000a8H .data$r                 DATA
 0003:00000fe0 000000f0H .data$rs                DATA
 0003:000010d0 00003e7cH .bss                    DATA
 0004:00000000 0000ca08H .pdata                  DATA
 0005:00000000 000000fcH _RDATA                  DATA
 0006:00000000 00000220H .rsrc$01                DATA
 0006:00000220 00005918H .rsrc$02                DATA

  Address         Publics by Value              Rva+Base               Lib:Object

 0000:00000000       __arm64x_redirection_metadata_count 0000000000000000     <absolute>
 0000:00000000       __hybrid_code_map          0000000000000000     <absolute>
 0000:00000000       __guard_fids_table         0000000000000000     <absolute>
 0000:00000000       __guard_eh_cont_count      0000000000000000     <absolute>
 0000:00000000       __arm64x_extra_rfe_table_size 0000000000000000     <absolute>
 0000:00000000       __enclave_config           0000000000000000     <absolute>
 0000:00000000       __guard_longjmp_count      0000000000000000     <absolute>
 0000:00000000       __hybrid_code_map_count    0000000000000000     <absolute>
 0000:00000000       __guard_iat_count          0000000000000000     <absolute>
 0000:00000000       __guard_check_icall_a64n_fptr 0000000000000000     <absolute>
 0000:00000000       __x64_code_ranges_to_entry_points 0000000000000000     <absolute>
 0000:00000000       __arm64x_redirection_metadata 0000000000000000     <absolute>
 0000:00000000       ___safe_se_handler_count   0000000000000000     <absolute>
 0000:00000000       __x64_code_ranges_to_entry_points_count 0000000000000000     <absolute>
 0000:00000000       __guard_eh_cont_table      0000000000000000     <absolute>
 0000:00000000       __hybrid_auxiliary_iat     0000000000000000     <absolute>
 0000:00000000       ___safe_se_handler_table   0000000000000000     <absolute>
 0000:00000000       __hybrid_auxiliary_iat_copy 0000000000000000     <absolute>
 0000:00000000       __dynamic_value_reloc_table 0000000000000000     <absolute>
 0000:00000000       __guard_iat_table          0000000000000000     <absolute>
 0000:00000000       __AbsoluteZero             0000000000000000     <absolute>
 0000:00000000       __arm64x_native_entrypoint 0000000000000000     <absolute>
 0000:00000000       __guard_longjmp_table      0000000000000000     <absolute>
 0000:00000000       __guard_fids_count         0000000000000000     <absolute>
 0000:00000000       __arm64x_extra_rfe_table   0000000000000000     <absolute>
 0000:00000100       __guard_flags              0000000000000100     <absolute>
 0000:00000000       __ImageBase                0000000180000000     <linker-defined>
 0001:00000d90       ?_assert@@YAXPEB_W0I@Z     0000000180001d90 f   Assert.obj
 0001:00000e90       __local_stdio_printf_options 0000000180001e90 f i Assert.obj
 0001:00000ea0       __vswprintf_l              0000000180001ea0 f i Assert.obj
 0001:00000ef0       _swprintf                  0000000180001ef0 f i Assert.obj
 0001:00000f70       _vswprintf_c_l             0000000180001f70 f i Assert.obj
 0001:00000fe0       _vswprintf_l               0000000180001fe0 f i Assert.obj
 0001:00001030       ?cw_memcpy@@YAHPEADPEB_WH@Z 0000000180002030 f   CWString.obj
 0001:000010b0       ?cw_memcpy@@YAHPEA_WPEBDH@Z 00000001800020b0 f   CWString.obj
 0001:00001120       ?cw_memcpy@@YAHPEADPEBDH@Z 0000000180002120 f   CWString.obj
 0001:000011b0       ?cw_memcpy@@YAHPEA_WPEB_WH@Z 00000001800021b0 f   CWString.obj
 0001:00001210       ?cw_memset@@YAXPEADDH@Z    0000000180002210 f   CWString.obj
 0001:00001270       ?cw_memset@@YAXPEA_W_WH@Z  0000000180002270 f   CWString.obj
 0001:00001300       ?cw_strlen@@YAHPEBD@Z      0000000180002300 f   CWString.obj
 0001:00001360       ?cw_strlen@@YAHPEB_W@Z     0000000180002360 f   CWString.obj
 0001:000013c0       ?cw_strcpy@@YAHPEADPEB_W@Z 00000001800023c0 f   CWString.obj
 0001:00001400       ?cw_strcpy@@YAHPEA_WPEBD@Z 0000000180002400 f   CWString.obj
 0001:00001440       ?cw_strcpy@@YAHPEADPEBD@Z  0000000180002440 f   CWString.obj
 0001:00001480       ?cw_strcpy@@YAHPEA_WPEB_W@Z 0000000180002480 f   CWString.obj
 0001:000014c0       ?cw_strcat@@YAHPEADPEB_W@Z 00000001800024c0 f   CWString.obj
 0001:00001510       ?cw_strcat@@YAHPEA_WPEBD@Z 0000000180002510 f   CWString.obj
 0001:00001560       ?cw_strcat@@YAHPEADPEBD@Z  0000000180002560 f   CWString.obj
 0001:000015b0       ?cw_strcat@@YAHPEA_WPEB_W@Z 00000001800025b0 f   CWString.obj
 0001:00001600       ?cw_dup@@YAXPEBDAEAHAEAPEA_W1@Z 0000000180002600 f   CWString.obj
 0001:00001700       ?cw_dup@@YAXPEB_WAEAHAEAPEAD1@Z 0000000180002700 f   CWString.obj
 0001:000017e0       ?DupChar@_CW@@AEAAXXZ      00000001800027e0 f   CWString.obj
 0001:00001830       ?DupWide@_CW@@AEAAXXZ      0000000180002830 f   CWString.obj
 0001:00001880       ?GetCharsMbcs@_CW@@QEAAHXZ 0000000180002880 f   CWString.obj
 0001:000018e0       ?GetCharsWide@_CW@@QEAAHXZ 00000001800028e0 f   CWString.obj
 0001:00001940       ?SetVARIANT_BOOL@OposVariant@@QEAAXF@Z 0000000180002940 f   OposVariant.obj
 0001:000019a0       ?SetVARIANT_BOOL_Ptr@OposVariant@@QEAAXPEAFAEAJ@Z 00000001800029a0 f   OposVariant.obj
 0001:00001a00       ?GetLONG@OposVariant@@QEAAJXZ 0000000180002a00 f   OposVariant.obj
 0001:00001a60       ?ChangeLONG@OposVariant@@QEAAXPEAJAEAJ@Z 0000000180002a60 f   OposVariant.obj
 0001:00001b10       ?SetLONG@OposVariant@@QEAAXJ@Z 0000000180002b10 f   OposVariant.obj
 0001:00001b50       ?SetLONG_Ptr@OposVariant@@QEAAXPEAJAEAJ@Z 0000000180002b50 f   OposVariant.obj
 0001:00001bb0       ?ChangeCURRENCY@OposVariant@@QEAAXPEATtagCY@@AEAJ@Z 0000000180002bb0 f   OposVariant.obj
 0001:00001c60       ?SetCURRENCY@OposVariant@@QEAAXTtagCY@@@Z 0000000180002c60 f   OposVariant.obj
 0001:00001ca0       ?SetCURRENCY_Ptr@OposVariant@@QEAAXPEATtagCY@@AEAJ@Z 0000000180002ca0 f   OposVariant.obj
 0001:00001d00       ?ChangeBSTR@OposVariant@@QEAAXPEAPEA_WAEAJ@Z 0000000180002d00 f   OposVariant.obj
 0001:00001db0       ?SetBSTR@OposVariant@@QEAAXPEA_WAEAJ@Z 0000000180002db0 f   OposVariant.obj
 0001:00001e10       ?SetBSTR_Copy@OposVariant@@QEAAXPEA_WAEAJ@Z 0000000180002e10 f   OposVariant.obj
 0001:00001eb0       ?SetBSTR_OutPtr@OposVariant@@QEAA_NPEAPEA_WAEAJ@Z 0000000180002eb0 f   OposVariant.obj
 0001:00001f10       ?SetBSTR_InOutPtr@OposVariant@@QEAA_NPEAPEA_WAEAJ@Z 0000000180002f10 f   OposVariant.obj
 0001:00001f70       ?SetVARIANT@OposVariant@@QEAAXAEAUtagVARIANT@@GAEAJ@Z 0000000180002f70 f   OposVariant.obj
 0001:00002000       ?SetVARIANT_Ptr@OposVariant@@QEAAXAEAPEAUtagVARIANT@@GAEAJ@Z 0000000180003000 f   OposVariant.obj
 0001:000020a0       ?SetString@OposVariant@@QEAAXPEB_WAEAJ@Z 00000001800030a0 f   OposVariant.obj
 0001:00002130       ?SetDispatch_Ptr@OposVariant@@QEAAXPEAUIDispatch@@AEAJ@Z 0000000180003130 f   OposVariant.obj
 0001:000021b0       ??0OposDispParms@@QEAA@PEAVOposVariant@@H@Z 00000001800031b0 f   OposVariant.obj
 0001:000022b0       ??1OposDispParms@@QEAA@XZ  00000001800032b0 f   OposVariant.obj
 0001:000022f0       ??$AtlMultiply@_K@ATL@@YAJPEA_K_K1@Z 00000001800032f0 f i OposVariant.obj
 0001:00002360       ??0?$CHeapPtr@_WVCCRTAllocator@ATL@@@ATL@@QEAA@XZ 0000000180003360 f i OposVariant.obj
 0001:00002380       ??0?$CHeapPtrBase@_WVCCRTAllocator@ATL@@@ATL@@IEAA@XZ 0000000180003380 f i OposVariant.obj
 0001:000023a0       ??0?$CSimpleArray@GV?$CSimpleArrayEqualHelper@G@ATL@@@ATL@@QEAA@XZ 00000001800033a0 f i OposVariant.obj
 0001:000023e0       ??0?$CTraceCategoryEx@$00$0A@@ATL@@QEAA@PEB_W@Z 00000001800033e0 f i OposVariant.obj
 0001:00002410       ??0?$CTraceCategoryEx@$01$0A@@ATL@@QEAA@PEB_W@Z 0000000180003410 f i OposVariant.obj
 0001:00002440       ??0?$CTraceCategoryEx@$03$0A@@ATL@@QEAA@PEB_W@Z 0000000180003440 f i OposVariant.obj
 0001:00002470       ??0?$CTraceCategoryEx@$07$0A@@ATL@@QEAA@PEB_W@Z 0000000180003470 f i OposVariant.obj
 0001:000024a0       ??0?$CTraceCategoryEx@$0BA@$0A@@ATL@@QEAA@PEB_W@Z 00000001800034a0 f i OposVariant.obj
 0001:000024d0       ??0?$CTraceCategoryEx@$0BAA@$0A@@ATL@@QEAA@PEB_W@Z 00000001800034d0 f i OposVariant.obj
 0001:00002500       ??0?$CTraceCategoryEx@$0BAAA@$0A@@ATL@@QEAA@PEB_W@Z 0000000180003500 f i OposVariant.obj
 0001:00002530       ??0?$CTraceCategoryEx@$0BAAAA@$0A@@ATL@@QEAA@PEB_W@Z 0000000180003530 f i OposVariant.obj
 0001:00002560       ??0?$CTraceCategoryEx@$0BAAAAA@$0A@@ATL@@QEAA@PEB_W@Z 0000000180003560 f i OposVariant.obj
 0001:00002590       ??0?$CTraceCategoryEx@$0CA@$0A@@ATL@@QEAA@PEB_W@Z 0000000180003590 f i OposVariant.obj
 0001:000025c0       ??0?$CTraceCategoryEx@$0CAA@$0A@@ATL@@QEAA@PEB_W@Z 00000001800035c0 f i OposVariant.obj
 0001:000025f0       ??0?$CTraceCategoryEx@$0CAAA@$0A@@ATL@@QEAA@PEB_W@Z 00000001800035f0 f i OposVariant.obj
 0001:00002620       ??0?$CTraceCategoryEx@$0CAAAA@$0A@@ATL@@QEAA@PEB_W@Z 0000000180003620 f i OposVariant.obj
 0001:00002650       ??0?$CTraceCategoryEx@$0CAAAAA@$0A@@ATL@@QEAA@PEB_W@Z 0000000180003650 f i OposVariant.obj
 0001:00002680       ??0?$CTraceCategoryEx@$0EA@$0A@@ATL@@QEAA@PEB_W@Z 0000000180003680 f i OposVariant.obj
 0001:000026b0       ??0?$CTraceCategoryEx@$0EAA@$0A@@ATL@@QEAA@PEB_W@Z 00000001800036b0 f i OposVariant.obj
 0001:000026e0       ??0?$CTraceCategoryEx@$0EAAA@$0A@@ATL@@QEAA@PEB_W@Z 00000001800036e0 f i OposVariant.obj
 0001:00002710       ??0?$CTraceCategoryEx@$0EAAAA@$0A@@ATL@@QEAA@PEB_W@Z 0000000180003710 f i OposVariant.obj
 0001:00002740       ??0?$CTraceCategoryEx@$0EAAAAA@$0A@@ATL@@QEAA@PEB_W@Z 0000000180003740 f i OposVariant.obj
 0001:00002770       ??0?$CTraceCategoryEx@$0IA@$0A@@ATL@@QEAA@PEB_W@Z 0000000180003770 f i OposVariant.obj
 0001:000027a0       ??0?$CTraceCategoryEx@$0IAA@$0A@@ATL@@QEAA@PEB_W@Z 00000001800037a0 f i OposVariant.obj
 0001:000027d0       ??0?$CTraceCategoryEx@$0IAAA@$0A@@ATL@@QEAA@PEB_W@Z 00000001800037d0 f i OposVariant.obj
 0001:00002800       ??0?$CTraceCategoryEx@$0IAAAA@$0A@@ATL@@QEAA@PEB_W@Z 0000000180003800 f i OposVariant.obj
 0001:00002830       ??0CAtlComModule@ATL@@QEAA@XZ 0000000180003830 f i OposVariant.obj
 0001:00002940       ??0CAtlWinModule@ATL@@QEAA@XZ 0000000180003940 f i OposVariant.obj
 0001:000029e0       ??0CComCriticalSection@ATL@@QEAA@XZ 00000001800039e0 f i OposVariant.obj
 0001:00002a10       ??0CPreserveLastError@ATL@@QEAA@XZ 0000000180003a10 f i OposVariant.obj
 0001:00002a40       ??0CTraceFileAndLineInfo@ATL@@QEAA@PEBDH@Z 0000000180003a40 f i OposVariant.obj
 0001:00002a70       ??0_ATL_COM_MODULE70@ATL@@QEAA@XZ 0000000180003a70 f i OposVariant.obj
 0001:00002aa0       ??0_ATL_WIN_MODULE70@ATL@@QEAA@XZ 0000000180003aa0 f i OposVariant.obj
 0001:00002ae0       ??1?$CHeapPtr@_WVCCRTAllocator@ATL@@@ATL@@QEAA@XZ 0000000180003ae0 f i OposVariant.obj
 0001:00002b00       ??1?$CHeapPtrBase@_WVCCRTAllocator@ATL@@@ATL@@QEAA@XZ 0000000180003b00 f i OposVariant.obj
 0001:00002b20       ??1?$CSimpleArray@GV?$CSimpleArrayEqualHelper@G@ATL@@@ATL@@QEAA@XZ 0000000180003b20 f i OposVariant.obj
 0001:00002b40       ??1CAtlComModule@ATL@@QEAA@XZ 0000000180003b40 f i OposVariant.obj
 0001:00002b70       ??1CAtlWinModule@ATL@@QEAA@XZ 0000000180003b70 f i OposVariant.obj
 0001:00002ba0       ??1CComBSTR@ATL@@QEAA@XZ   0000000180003ba0 f i OposVariant.obj
 0001:00002bc0       ??1CComCriticalSection@ATL@@QEAA@XZ 0000000180003bc0 f i OposVariant.obj
 0001:00002bd0       ??1CPreserveLastError@ATL@@QEAA@XZ 0000000180003bd0 f i OposVariant.obj
 0001:00002bf0       ??1_ATL_COM_MODULE70@ATL@@QEAA@XZ 0000000180003bf0 f i OposVariant.obj
 0001:00002c20       ??1_ATL_WIN_MODULE70@ATL@@QEAA@XZ 0000000180003c20 f i OposVariant.obj
 0001:00002c60       ??1stringdispid@CComTypeInfoHolder@ATL@@QEAA@XZ 0000000180003c60 f i OposVariant.obj
 0001:00002c80       ??A?$CSimpleArray@GV?$CSimpleArrayEqualHelper@G@ATL@@@ATL@@QEAAAEAGH@Z 0000000180003c80 f i OposVariant.obj
 0001:00002d20       ??B?$CHeapPtrBase@_WVCCRTAllocator@ATL@@@ATL@@QEBAPEA_WXZ 0000000180003d20 f i OposVariant.obj
 0001:00002d30       ??B?$CTraceCategoryEx@$01$0A@@ATL@@QEAAIXZ 0000000180003d30 f i OposVariant.obj
 0001:00002d40       ??B?$CTraceCategoryEx@$0CA@$0A@@ATL@@QEAAIXZ 0000000180003d40 f i OposVariant.obj
 0001:00002d50       ??RCTraceFileAndLineInfo@ATL@@QEBAXHIPEB_WZZ 0000000180003d50 f i OposVariant.obj
 0001:00002e10       ??_Estringdispid@CComTypeInfoHolder@ATL@@QEAAPEAXI@Z 0000000180003e10 f i OposVariant.obj
 0001:00002eb0       ??_H@YAXPEAX_K1P6APEAX0@Z@Z 0000000180003eb0 f i OposVariant.obj
 0001:00002f30       ??_I@YAXPEAX_K1P6AX0@Z@Z   0000000180003f30 f i OposVariant.obj
 0001:00002fd0       ?Allocate@?$CHeapPtr@_WVCCRTAllocator@ATL@@@ATL@@QEAA_N_K@Z 0000000180003fd0 f i OposVariant.obj
 0001:00003050       ?Allocate@CCRTAllocator@ATL@@SAPEAX_K@Z 0000000180004050 f i OposVariant.obj
 0001:00003070       ?AllocateBytes@?$CHeapPtrBase@_WVCCRTAllocator@ATL@@@ATL@@QEAA_N_K@Z 0000000180004070 f i OposVariant.obj
 0001:000030f0       ?AtlWinModuleInit@ATL@@YAJPEAU_ATL_WIN_MODULE70@1@@Z 00000001800040f0 f i OposVariant.obj
 0001:000031e0       ?AtlWinModuleTerm@ATL@@YAJPEAU_ATL_WIN_MODULE70@1@PEAUHINSTANCE__@@@Z 00000001800041e0 f i OposVariant.obj
 0001:000032b0       ?Clear@OposVariant@@QEAAJXZ 00000001800042b0 f i OposVariant.obj
 0001:000032e0       ?Free@?$CHeapPtrBase@_WVCCRTAllocator@ATL@@@ATL@@QEAAXXZ 00000001800042e0 f i OposVariant.obj
 0001:00003310       ?Free@CCRTAllocator@ATL@@SAXPEAX@Z 0000000180004310 f i OposVariant.obj
 0001:00003330       ?GetCategoryName@CTrace@ATL@@CAPEA_WI@Z 0000000180004330 f i OposVariant.obj
 0001:000033a0       ?GetModuleInstance@CAtlBaseModule@ATL@@QEAAPEAUHINSTANCE__@@XZ 00000001800043a0 f i OposVariant.obj
 0001:000033c0       ?GetSize@?$CSimpleArray@GV?$CSimpleArrayEqualHelper@G@ATL@@@ATL@@QEBAHXZ 00000001800043c0 f i OposVariant.obj
 0001:000033d0       ?Init@CComCriticalSection@ATL@@QEAAJXZ 00000001800043d0 f i OposVariant.obj
 0001:00003420       ?RegisterCategory@CTrace@ATL@@SAXPEB_WI@Z 0000000180004420 f i OposVariant.obj
 0001:000034e0       ?RemoveAll@?$CSimpleArray@GV?$CSimpleArrayEqualHelper@G@ATL@@@ATL@@QEAAXXZ 00000001800044e0 f i OposVariant.obj
 0001:00003550       ?Term@CAtlComModule@ATL@@QEAAXXZ 0000000180004550 f i OposVariant.obj
 0001:00003620       ?Term@CAtlWinModule@ATL@@QEAAXXZ 0000000180004620 f i OposVariant.obj
 0001:00003650       ?Term@CComCriticalSection@ATL@@QEAAJXZ 0000000180004650 f i OposVariant.obj
 0001:00003670       ?TraceV@CTrace@ATL@@CAXPEBDHIIPEB_W@Z 0000000180004670 f i OposVariant.obj
 0001:00003920       ?TraceV@CTrace@ATL@@SAXPEBDHIIPEB_WPEAD@Z 0000000180004920 f i OposVariant.obj
 0001:00003ad0       ?_AtlInitializeCriticalSectionEx@ATL@@YAHPEAU_RTL_CRITICAL_SECTION@@KK@Z 0000000180004ad0 f i OposVariant.obj
 0001:00003b00       ?_AtlRaiseException@ATL@@YAXKK@Z 0000000180004b00 f i OposVariant.obj
 0001:00003b30       HRESULT_FROM_WIN32         0000000180004b30 f i OposVariant.obj
 0001:00003b70       _vswprintf_s_l             0000000180004b70 f i OposVariant.obj
 0001:00003be0       swprintf_s                 0000000180004be0 f i OposVariant.obj
 0001:00003c70       ?ObjectMain@CComObjectRootBase@ATL@@SAX_N@Z 0000000180004c70 f i LineDisplay.obj
 0001:00003c80       ?GetCategoryMap@CComObjectRootBase@ATL@@SAPEBU_ATL_CATMAP_ENTRY@2@XZ 0000000180004c80 f i LineDisplay.obj
 0001:00003c90       ?GetObjectDescription@?$CComCoClass@VCOPOSLineDisplay@@$1?CLSID_OPOSLineDisplay@@3U_GUID@@B@ATL@@SAPEB_WXZ 0000000180004c90 f i LineDisplay.obj
 0001:00003ca0       ?UpdateRegistry@COPOSLineDisplay@@SAJH@Z 0000000180004ca0 f i LineDisplay.obj
 0001:00003cd0       ?CreateInstance@?$CComCreator@V?$CComObjectCached@VCComClassFactory@ATL@@@ATL@@@ATL@@SAJPEAXAEBU_GUID@@PEAPEAX@Z 0000000180004cd0 f i LineDisplay.obj
 0001:00003ea0       ?CreateInstance@?$CComCreator2@V?$CComCreator@V?$CComObject@VCOPOSLineDisplay@@@ATL@@@ATL@@V?$CComCreator@V?$CComAggObject@VCOPOSLineDisplay@@@ATL@@@2@@ATL@@SAJPEAXAEBU_GUID@@PEAPEAX@Z 0000000180004ea0 f i LineDisplay.obj
 0001:00004090       DllGetClassObject          0000000180005090 f   LineDisplay.obj
 0001:000040d0       DllCanUnloadNow            00000001800050d0 f   LineDisplay.obj
 0001:00004110       DllRegisterServer          0000000180005110 f   LineDisplay.obj
 0001:00004140       DllUnregisterServer        0000000180005140 f   LineDisplay.obj
 0001:00004300       DllMain                    0000000180005300 f   LineDisplay.obj
 0001:00004370       ??$?2G@Wrapper@?$CSimpleArray@GV?$CSimpleArrayEqualHelper@G@ATL@@@ATL@@SAPEAX_KPEAG@Z 0000000180005370 f i LineDisplay.obj
 0001:00004390       ??$?2PEA_W@?$Wrapper@PEA_W@?$CSimpleMap@PEA_WPEA_WVCExpansionVectorEqualHelper@ATL@@@ATL@@SAPEAX_KPEAPEA_W@Z 0000000180005390 f i LineDisplay.obj
 0001:000043b0       ??$?4UITypeInfo2@@@?$CComPtr@UITypeInfo@@@ATL@@QEAAPEAUITypeInfo@@AEBV?$CComPtr@UITypeInfo2@@@1@@Z 00000001800053b0 f i LineDisplay.obj
 0001:00004410       ??$AtlAdd@_K@ATL@@YAJPEA_K_K1@Z 0000000180005410 f i LineDisplay.obj
 0001:00004470       ??$AtlAddThrow@_K@ATL@@YA_K_K0@Z 0000000180005470 f i LineDisplay.obj
 0001:000044e0       ??$AtlModuleRegisterWndClassInfoT@VAtlModuleRegisterWndClassInfoParamW@ATL@@@ATL@@YAGPEAU_ATL_BASE_MODULE70@0@PEAU_ATL_WIN_MODULE70@0@PEAU_ATL_WNDCLASSINFOW@0@PEAP6A_JPEAUHWND__@@I_K_J@ZVAtlModuleRegisterWndClassInfoParamW@0@@Z 00000001800054e0 f i LineDisplay.obj
 0001:00004ab0       ??$AtlMultiply@H@ATL@@YAJPEAHHH@Z 0000000180005ab0 f i LineDisplay.obj
 0001:00004b10       ??$AtlMultiply@K@ATL@@YAJPEAKKK@Z 0000000180005b10 f i LineDisplay.obj
 0001:00004b60       ??$AtlMultiplyThrow@_K@ATL@@YA_K_K0@Z 0000000180005b60 f i LineDisplay.obj
 0001:00004bd0       ??$QueryInterface@UIPersistStream@@@IUnknown@@QEAAJPEAPEAUIPersistStream@@@Z 0000000180005bd0 f i LineDisplay.obj
 0001:00004c00       ??$QueryInterface@UITypeInfo2@@@IUnknown@@QEAAJPEAPEAUITypeInfo2@@@Z 0000000180005c00 f i LineDisplay.obj
 0001:00004c30       ??0?$CAtlModuleT@VCComModule@ATL@@@ATL@@QEAA@XZ 0000000180005c30 f i LineDisplay.obj
 0001:00004c60       ??0?$CAtlSafeAllocBufferManager@VCCRTAllocator@ATL@@@_ATL_SAFE_ALLOCA_IMPL@ATL@@QEAA@XZ 0000000180005c60 f i LineDisplay.obj
 0001:00004c80       ??0?$CAutoVectorPtr@_W@ATL@@QEAA@XZ 0000000180005c80 f i LineDisplay.obj
 0001:00004ca0       ??0?$CComAggObject@VCOPOSLineDisplay@@@ATL@@QEAA@PEAX@Z 0000000180005ca0 f i LineDisplay.obj
 0001:00004d10       ??0?$CComContainedObject@VCOPOSLineDisplay@@@ATL@@QEAA@PEAX@Z 0000000180005d10 f i LineDisplay.obj
 0001:00004ea0       ??0?$CComCritSecLock@VCComCriticalSection@ATL@@@ATL@@QEAA@AEAVCComCriticalSection@1@_N@Z 0000000180005ea0 f i LineDisplay.obj
 0001:00004f00       ??0?$CComEnum@UIEnumConnectionPoints@@$1?_GUID_b196b285_bab4_101a_b69c_00aa00341d07@@3U__s_GUID@@BPEAUIConnectionPoint@@V?$_CopyInterface@UIConnectionPoint@@@ATL@@VCComSingleThreadModel@6@@ATL@@QEAA@XZ 0000000180005f00 f i LineDisplay.obj
 0001:00004f30       ??0?$CComEnum@UIEnumConnections@@$1?_GUID_b196b287_bab4_101a_b69c_00aa00341d07@@3U__s_GUID@@BUtagCONNECTDATA@@V?$_Copy@UtagCONNECTDATA@@@ATL@@VCComSingleThreadModel@6@@ATL@@QEAA@XZ 0000000180005f30 f i LineDisplay.obj
 0001:00004f60       ??0?$CComEnumImpl@UIEnumConnectionPoints@@$1?_GUID_b196b285_bab4_101a_b69c_00aa00341d07@@3U__s_GUID@@BPEAUIConnectionPoint@@V?$_CopyInterface@UIConnectionPoint@@@ATL@@@ATL@@QEAA@XZ 0000000180005f60 f i LineDisplay.obj
 0001:00004fd0       ??0?$CComEnumImpl@UIEnumConnections@@$1?_GUID_b196b287_bab4_101a_b69c_00aa00341d07@@3U__s_GUID@@BUtagCONNECTDATA@@V?$_Copy@UtagCONNECTDATA@@@ATL@@@ATL@@QEAA@XZ 0000000180005fd0 f i LineDisplay.obj
 0001:00005040       ??0?$CComObject@V?$CComEnum@UIEnumConnectionPoints@@$1?_GUID_b196b285_bab4_101a_b69c_00aa00341d07@@3U__s_GUID@@BPEAUIConnectionPoint@@V?$_CopyInterface@UIConnectionPoint@@@ATL@@VCComSingleThreadModel@6@@ATL@@@ATL@@QEAA@PEAX@Z 0000000180006040 f i LineDisplay.obj
 0001:00005090       ??0?$CComObject@V?$CComEnum@UIEnumConnections@@$1?_GUID_b196b287_bab4_101a_b69c_00aa00341d07@@3U__s_GUID@@BUtagCONNECTDATA@@V?$_Copy@UtagCONNECTDATA@@@ATL@@VCComSingleThreadModel@6@@ATL@@@ATL@@QEAA@PEAX@Z 0000000180006090 f i LineDisplay.obj
 0001:000050e0       ??0?$CComObject@VCOPOSLineDisplay@@@ATL@@QEAA@PEAX@Z 00000001800060e0 f i LineDisplay.obj
 0001:00005270       ??0?$CComObjectCached@VCComClassFactory@ATL@@@ATL@@QEAA@PEAX@Z 0000000180006270 f i LineDisplay.obj
 0001:000052b0       ??0?$CComObjectRootEx@VCComMultiThreadModel@ATL@@@ATL@@QEAA@XZ 00000001800062b0 f i LineDisplay.obj
 0001:000052e0       ??0?$CComObjectRootEx@VCComSingleThreadModel@ATL@@@ATL@@QEAA@XZ 00000001800062e0 f i LineDisplay.obj
 0001:00005300       ??0?$CComPtr@UIAdviseSink@@@ATL@@QEAA@PEAUIAdviseSink@@@Z 0000000180006300 f i LineDisplay.obj
 0001:00005330       ??0?$CComPtr@UICatRegister@@@ATL@@QEAA@XZ 0000000180006330 f i LineDisplay.obj
 0001:00005350       ??0?$CComPtr@UIConnectionPoint@@@ATL@@QEAA@XZ 0000000180006350 f i LineDisplay.obj
 0001:00005370       ??0?$CComPtr@UIConnectionPointContainer@@@ATL@@QEAA@XZ 0000000180006370 f i LineDisplay.obj
 0001:00005390       ??0?$CComPtr@UIDataObject@@@ATL@@QEAA@XZ 0000000180006390 f i LineDisplay.obj
 0001:000053b0       ??0?$CComPtr@UIDispatch@@@ATL@@QEAA@XZ 00000001800063b0 f i LineDisplay.obj
 0001:000053d0       ??0?$CComPtr@UIOleClientSite@@@ATL@@QEAA@PEAUIOleClientSite@@@Z 00000001800063d0 f i LineDisplay.obj
 0001:00005400       ??0?$CComPtr@UIOleControlSite@@@ATL@@QEAA@XZ 0000000180006400 f i LineDisplay.obj
 0001:00005420       ??0?$CComPtr@UIOleInPlaceActiveObject@@@ATL@@QEAA@XZ 0000000180006420 f i LineDisplay.obj
 0001:00005440       ??0?$CComPtr@UIOleInPlaceFrame@@@ATL@@QEAA@XZ 0000000180006440 f i LineDisplay.obj
 0001:00005460       ??0?$CComPtr@UIOleInPlaceObject@@@ATL@@QEAA@XZ 0000000180006460 f i LineDisplay.obj
 0001:00005480       ??0?$CComPtr@UIOleInPlaceUIWindow@@@ATL@@QEAA@XZ 0000000180006480 f i LineDisplay.obj
 0001:000054a0       ??0?$CComPtr@UIOleObject@@@ATL@@QEAA@XZ 00000001800064a0 f i LineDisplay.obj
 0001:000054c0       ??0?$CComPtr@UIPersistStream@@@ATL@@QEAA@XZ 00000001800064c0 f i LineDisplay.obj
 0001:000054e0       ??0?$CComPtr@UIPersistStreamInit@@@ATL@@QEAA@XZ 00000001800064e0 f i LineDisplay.obj
 0001:00005500       ??0?$CComPtr@UIPointerInactive@@@ATL@@QEAA@XZ 0000000180006500 f i LineDisplay.obj
 0001:00005520       ??0?$CComPtr@UIProvideClassInfo2@@@ATL@@QEAA@XZ 0000000180006520 f i LineDisplay.obj
 0001:00005540       ??0?$CComPtr@UISpecifyPropertyPages@@@ATL@@QEAA@XZ 0000000180006540 f i LineDisplay.obj
 0001:00005560       ??0?$CComPtr@UIStream@@@ATL@@QEAA@XZ 0000000180006560 f i LineDisplay.obj
 0001:00005580       ??0?$CComPtr@UITypeInfo2@@@ATL@@QEAA@XZ 0000000180006580 f i LineDisplay.obj
 0001:000055a0       ??0?$CComPtr@UITypeInfo@@@ATL@@QEAA@AEBV01@@Z 00000001800065a0 f i LineDisplay.obj
 0001:000055d0       ??0?$CComPtr@UITypeInfo@@@ATL@@QEAA@XZ 00000001800065d0 f i LineDisplay.obj
 0001:000055f0       ??0?$CComPtr@UITypeLib@@@ATL@@QEAA@XZ 00000001800065f0 f i LineDisplay.obj
 0001:00005610       ??0?$CComPtr@UIUnknown@@@ATL@@QEAA@AEBV01@@Z 0000000180006610 f i LineDisplay.obj
 0001:00005640       ??0?$CComPtr@UIUnknown@@@ATL@@QEAA@PEAUIUnknown@@@Z 0000000180006640 f i LineDisplay.obj
 0001:00005670       ??0?$CComPtr@UIUnknown@@@ATL@@QEAA@XZ 0000000180006670 f i LineDisplay.obj
 0001:00005690       ??0?$CComPtr@UIViewObjectEx@@@ATL@@QEAA@XZ 0000000180006690 f i LineDisplay.obj
 0001:000056b0       ??0?$CComPtrBase@UIAdviseSink@@@ATL@@IEAA@PEAUIAdviseSink@@@Z 00000001800066b0 f i LineDisplay.obj
 0001:00005700       ??0?$CComPtrBase@UICatRegister@@@ATL@@IEAA@XZ 0000000180006700 f i LineDisplay.obj
 0001:00005720       ??0?$CComPtrBase@UIConnectionPoint@@@ATL@@IEAA@XZ 0000000180006720 f i LineDisplay.obj
 0001:00005740       ??0?$CComPtrBase@UIConnectionPointContainer@@@ATL@@IEAA@XZ 0000000180006740 f i LineDisplay.obj
 0001:00005760       ??0?$CComPtrBase@UIDataObject@@@ATL@@IEAA@XZ 0000000180006760 f i LineDisplay.obj
 0001:00005780       ??0?$CComPtrBase@UIDispatch@@@ATL@@IEAA@XZ 0000000180006780 f i LineDisplay.obj
 0001:000057a0       ??0?$CComPtrBase@UIOleClientSite@@@ATL@@IEAA@PEAUIOleClientSite@@@Z 00000001800067a0 f i LineDisplay.obj
 0001:000057f0       ??0?$CComPtrBase@UIOleControlSite@@@ATL@@IEAA@XZ 00000001800067f0 f i LineDisplay.obj
 0001:00005810       ??0?$CComPtrBase@UIOleInPlaceActiveObject@@@ATL@@IEAA@XZ 0000000180006810 f i LineDisplay.obj
 0001:00005830       ??0?$CComPtrBase@UIOleInPlaceFrame@@@ATL@@IEAA@XZ 0000000180006830 f i LineDisplay.obj
 0001:00005850       ??0?$CComPtrBase@UIOleInPlaceObject@@@ATL@@IEAA@XZ 0000000180006850 f i LineDisplay.obj
 0001:00005870       ??0?$CComPtrBase@UIOleInPlaceUIWindow@@@ATL@@IEAA@XZ 0000000180006870 f i LineDisplay.obj
 0001:00005890       ??0?$CComPtrBase@UIOleObject@@@ATL@@IEAA@XZ 0000000180006890 f i LineDisplay.obj
 0001:000058b0       ??0?$CComPtrBase@UIPersistStream@@@ATL@@IEAA@XZ 00000001800068b0 f i LineDisplay.obj
 0001:000058d0       ??0?$CComPtrBase@UIPersistStreamInit@@@ATL@@IEAA@XZ 00000001800068d0 f i LineDisplay.obj
 0001:000058f0       ??0?$CComPtrBase@UIPointerInactive@@@ATL@@IEAA@XZ 00000001800068f0 f i LineDisplay.obj
 0001:00005910       ??0?$CComPtrBase@UIProvideClassInfo2@@@ATL@@IEAA@XZ 0000000180006910 f i LineDisplay.obj
 0001:00005930       ??0?$CComPtrBase@UISpecifyPropertyPages@@@ATL@@IEAA@XZ 0000000180006930 f i LineDisplay.obj
 0001:00005950       ??0?$CComPtrBase@UIStream@@@ATL@@IEAA@XZ 0000000180006950 f i LineDisplay.obj
 0001:00005970       ??0?$CComPtrBase@UITypeInfo2@@@ATL@@IEAA@XZ 0000000180006970 f i LineDisplay.obj
 0001:00005990       ??0?$CComPtrBase@UITypeInfo@@@ATL@@IEAA@PEAUITypeInfo@@@Z 0000000180006990 f i LineDisplay.obj
 0001:000059e0       ??0?$CComPtrBase@UITypeInfo@@@ATL@@IEAA@XZ 00000001800069e0 f i LineDisplay.obj
 0001:00005a00       ??0?$CComPtrBase@UITypeLib@@@ATL@@IEAA@XZ 0000000180006a00 f i LineDisplay.obj
 0001:00005a20       ??0?$CComPtrBase@UIUnknown@@@ATL@@IEAA@PEAUIUnknown@@@Z 0000000180006a20 f i LineDisplay.obj
 0001:00005a70       ??0?$CComPtrBase@UIUnknown@@@ATL@@IEAA@XZ 0000000180006a70 f i LineDisplay.obj
 0001:00005a90       ??0?$CComPtrBase@UIViewObjectEx@@@ATL@@IEAA@XZ 0000000180006a90 f i LineDisplay.obj
 0001:00005ab0       ??0?$CComQIPtr@UIOleControlSite@@$1?_GUID_b196b289_bab4_101a_b69c_00aa00341d07@@3U__s_GUID@@B@ATL@@QEAA@PEAUIUnknown@@@Z 0000000180006ab0 f i LineDisplay.obj
 0001:00005b10       ??0?$CComQIPtr@UIOleObject@@$1?_GUID_00000112_0000_0000_c000_000000000046@@3U__s_GUID@@B@ATL@@QEAA@XZ 0000000180006b10 f i LineDisplay.obj
 0001:00005b30       ??0?$CComQIPtr@UISpecifyPropertyPages@@$1?_GUID_b196b28b_bab4_101a_b69c_00aa00341d07@@3U__s_GUID@@B@ATL@@QEAA@XZ 0000000180006b30 f i LineDisplay.obj
 0001:00005b50       ??0?$CSimpleMap@PEA_WPEA_WVCExpansionVectorEqualHelper@ATL@@@ATL@@QEAA@XZ 0000000180006b50 f i LineDisplay.obj
 0001:00005b90       ??0?$CTempBuffer@E$0BAA@VCCRTAllocator@ATL@@@ATL@@QEAA@XZ 0000000180006b90 f i LineDisplay.obj
 0001:00005bb0       ??0?$CTempBuffer@_W$0BAA@VCCRTAllocator@ATL@@@ATL@@QEAA@XZ 0000000180006bb0 f i LineDisplay.obj
 0001:00005bd0       ??0?$CTempBuffer@_W$0EAA@VCCRTAllocator@ATL@@@ATL@@QEAA@XZ 0000000180006bd0 f i LineDisplay.obj
 0001:00005bf0       ??0?$Wrapper@PEA_W@?$CSimpleMap@PEA_WPEA_WVCExpansionVectorEqualHelper@ATL@@@ATL@@QEAA@AEBQEA_W@Z 0000000180006bf0 f i LineDisplay.obj
 0001:00005c20       ??0CAtlModule@ATL@@QEAA@XZ 0000000180006c20 f i LineDisplay.obj
 0001:00005d80       ??0CComAutoDeleteCriticalSection@ATL@@QEAA@XZ 0000000180006d80 f i LineDisplay.obj
 0001:00005da0       ??0CComBSTR@ATL@@QEAA@XZ   0000000180006da0 f i LineDisplay.obj
 0001:00005dc0       ??0CComClassFactory@ATL@@QEAA@XZ 0000000180006dc0 f i LineDisplay.obj
 0001:00005e00       ??0CComModule@ATL@@QEAA@XZ 0000000180006e00 f i LineDisplay.obj
 0001:00005e80       ??0CComObjectRootBase@ATL@@QEAA@XZ 0000000180006e80 f i LineDisplay.obj
 0001:00005ea0       ??0CComSafeDeleteCriticalSection@ATL@@QEAA@XZ 0000000180006ea0 f i LineDisplay.obj
 0001:00005ed0       ??0CComVariant@ATL@@QEAA@XZ 0000000180006ed0 f i LineDisplay.obj
 0001:00005f10       ??0CExpansionVector@ATL@@QEAA@XZ 0000000180006f10 f i LineDisplay.obj
 0001:00005f30       ??0CParseBuffer@CRegParser@ATL@@QEAA@H@Z 0000000180006f30 f i LineDisplay.obj
 0001:00005fb0       ??0CRegKey@ATL@@QEAA@PEAUHKEY__@@@Z 0000000180006fb0 f i LineDisplay.obj
 0001:00005ff0       ??0CRegKey@ATL@@QEAA@PEAVCAtlTransactionManager@1@@Z 0000000180006ff0 f i LineDisplay.obj
 0001:00006030       ??0CRegObject@ATL@@QEAA@XZ 0000000180007030 f i LineDisplay.obj
 0001:00006070       ??0CRegParser@ATL@@QEAA@PEAVCRegObject@1@@Z 0000000180007070 f i LineDisplay.obj
 0001:000060a0       ??0IClassFactory@@QEAA@XZ  00000001800070a0 f i LineDisplay.obj
 0001:000060c0       ??0IEnumConnectionPoints@@QEAA@XZ 00000001800070c0 f i LineDisplay.obj
 0001:000060e0       ??0IEnumConnections@@QEAA@XZ 00000001800070e0 f i LineDisplay.obj
 0001:00006100       ??0IRegistrarBase@@QEAA@XZ 0000000180007100 f i LineDisplay.obj
 0001:00006120       ??0IUnknown@@QEAA@XZ       0000000180007120 f i LineDisplay.obj
 0001:00006130       ??0ModuleLockHelper@ATL@@QEAA@XZ 0000000180007130 f i LineDisplay.obj
 0001:00006160       ??0OposVariant@@QEAA@XZ    0000000180007160 f i LineDisplay.obj
 0001:00006180       ??0Wrapper@?$CSimpleArray@GV?$CSimpleArrayEqualHelper@G@ATL@@@ATL@@QEAA@AEBG@Z 0000000180007180 f i LineDisplay.obj
 0001:000061b0       ??0_ATL_MODULE70@ATL@@QEAA@XZ 00000001800071b0 f i LineDisplay.obj
 0001:000061e0       ??0_ATL_MSG@ATL@@QEAA@PEAUHWND__@@I_K_JH@Z 00000001800071e0 f i LineDisplay.obj
 0001:00006270       ??0_U_MENUorID@ATL@@QEAA@I@Z 0000000180007270 f i LineDisplay.obj
 0001:00006290       ??0_U_RECT@ATL@@QEAA@AEAUtagRECT@@@Z 0000000180007290 f i LineDisplay.obj
 0001:000062b0       ??0stringdispid@CComTypeInfoHolder@ATL@@QEAA@XZ 00000001800072b0 f i LineDisplay.obj
 0001:000062f0       ??1?$CAtlModuleT@VCComModule@ATL@@@ATL@@UEAA@XZ 00000001800072f0 f i LineDisplay.obj
 0001:00006310       ??1?$CAtlSafeAllocBufferManager@VCCRTAllocator@ATL@@@_ATL_SAFE_ALLOCA_IMPL@ATL@@QEAA@XZ 0000000180007310 f i LineDisplay.obj
 0001:00006360       ??1?$CAutoVectorPtr@_W@ATL@@QEAA@XZ 0000000180007360 f i LineDisplay.obj
 0001:00006380       ??1?$CComAggObject@VCOPOSLineDisplay@@@ATL@@UEAA@XZ 0000000180007380 f i LineDisplay.obj
 0001:000063f0       ??1?$CComContainedObject@VCOPOSLineDisplay@@@ATL@@UEAA@XZ 00000001800073f0 f i LineDisplay.obj
 0001:00006410       ??1?$CComCritSecLock@VCComCriticalSection@ATL@@@ATL@@QEAA@XZ 0000000180007410 f i LineDisplay.obj
 0001:00006440       ??1?$CComEnum@UIEnumConnectionPoints@@$1?_GUID_b196b285_bab4_101a_b69c_00aa00341d07@@3U__s_GUID@@BPEAUIConnectionPoint@@V?$_CopyInterface@UIConnectionPoint@@@ATL@@VCComSingleThreadModel@6@@ATL@@UEAA@XZ 0000000180007440 f i LineDisplay.obj
 0001:00006470       ??1?$CComEnum@UIEnumConnections@@$1?_GUID_b196b287_bab4_101a_b69c_00aa00341d07@@3U__s_GUID@@BUtagCONNECTDATA@@V?$_Copy@UtagCONNECTDATA@@@ATL@@VCComSingleThreadModel@6@@ATL@@UEAA@XZ 0000000180007470 f i LineDisplay.obj
 0001:000064a0       ??1?$CComEnumImpl@UIEnumConnectionPoints@@$1?_GUID_b196b285_bab4_101a_b69c_00aa00341d07@@3U__s_GUID@@BPEAUIConnectionPoint@@V?$_CopyInterface@UIConnectionPoint@@@ATL@@@ATL@@UEAA@XZ 00000001800074a0 f i LineDisplay.obj
 0001:00006530       ??1?$CComEnumImpl@UIEnumConnections@@$1?_GUID_b196b287_bab4_101a_b69c_00aa00341d07@@3U__s_GUID@@BUtagCONNECTDATA@@V?$_Copy@UtagCONNECTDATA@@@ATL@@@ATL@@UEAA@XZ 0000000180007530 f i LineDisplay.obj
 0001:000065c0       ??1?$CComObject@V?$CComEnum@UIEnumConnectionPoints@@$1?_GUID_b196b285_bab4_101a_b69c_00aa00341d07@@3U__s_GUID@@BPEAUIConnectionPoint@@V?$_CopyInterface@UIConnectionPoint@@@ATL@@VCComSingleThreadModel@6@@ATL@@@ATL@@UEAA@XZ 00000001800075c0 f i LineDisplay.obj
 0001:00006620       ??1?$CComObject@V?$CComEnum@UIEnumConnections@@$1?_GUID_b196b287_bab4_101a_b69c_00aa00341d07@@3U__s_GUID@@BUtagCONNECTDATA@@V?$_Copy@UtagCONNECTDATA@@@ATL@@VCComSingleThreadModel@6@@ATL@@@ATL@@UEAA@XZ 0000000180007620 f i LineDisplay.obj
 0001:00006680       ??1?$CComObject@VCOPOSLineDisplay@@@ATL@@UEAA@XZ 0000000180007680 f i LineDisplay.obj
 0001:00006820       ??1?$CComObjectCached@VCComClassFactory@ATL@@@ATL@@UEAA@XZ 0000000180007820 f i LineDisplay.obj
 0001:00006870       ??1?$CComObjectRootEx@VCComMultiThreadModel@ATL@@@ATL@@QEAA@XZ 0000000180007870 f i LineDisplay.obj
 0001:000068a0       ??1?$CComObjectRootEx@VCComSingleThreadModel@ATL@@@ATL@@QEAA@XZ 00000001800078a0 f i LineDisplay.obj
 0001:000068c0       ??1?$CComPtr@UIAdviseSink@@@ATL@@QEAA@XZ 00000001800078c0 f i LineDisplay.obj
 0001:000068e0       ??1?$CComPtr@UICatRegister@@@ATL@@QEAA@XZ 00000001800078e0 f i LineDisplay.obj
 0001:00006900       ??1?$CComPtr@UIConnectionPoint@@@ATL@@QEAA@XZ 0000000180007900 f i LineDisplay.obj
 0001:00006920       ??1?$CComPtr@UIConnectionPointContainer@@@ATL@@QEAA@XZ 0000000180007920 f i LineDisplay.obj
 0001:00006940       ??1?$CComPtr@UIDataObject@@@ATL@@QEAA@XZ 0000000180007940 f i LineDisplay.obj
 0001:00006960       ??1?$CComPtr@UIDispatch@@@ATL@@QEAA@XZ 0000000180007960 f i LineDisplay.obj
 0001:00006980       ??1?$CComPtr@UIOleClientSite@@@ATL@@QEAA@XZ 0000000180007980 f i LineDisplay.obj
 0001:000069a0       ??1?$CComPtr@UIOleControlSite@@@ATL@@QEAA@XZ 00000001800079a0 f i LineDisplay.obj
 0001:000069c0       ??1?$CComPtr@UIOleInPlaceActiveObject@@@ATL@@QEAA@XZ 00000001800079c0 f i LineDisplay.obj
 0001:000069e0       ??1?$CComPtr@UIOleInPlaceFrame@@@ATL@@QEAA@XZ 00000001800079e0 f i LineDisplay.obj
 0001:00006a00       ??1?$CComPtr@UIOleInPlaceObject@@@ATL@@QEAA@XZ 0000000180007a00 f i LineDisplay.obj
 0001:00006a20       ??1?$CComPtr@UIOleInPlaceUIWindow@@@ATL@@QEAA@XZ 0000000180007a20 f i LineDisplay.obj
 0001:00006a40       ??1?$CComPtr@UIOleObject@@@ATL@@QEAA@XZ 0000000180007a40 f i LineDisplay.obj
 0001:00006a60       ??1?$CComPtr@UIPersistStream@@@ATL@@QEAA@XZ 0000000180007a60 f i LineDisplay.obj
 0001:00006a80       ??1?$CComPtr@UIPersistStreamInit@@@ATL@@QEAA@XZ 0000000180007a80 f i LineDisplay.obj
 0001:00006aa0       ??1?$CComPtr@UIPointerInactive@@@ATL@@QEAA@XZ 0000000180007aa0 f i LineDisplay.obj
 0001:00006ac0       ??1?$CComPtr@UIProvideClassInfo2@@@ATL@@QEAA@XZ 0000000180007ac0 f i LineDisplay.obj
 0001:00006ae0       ??1?$CComPtr@UISpecifyPropertyPages@@@ATL@@QEAA@XZ 0000000180007ae0 f i LineDisplay.obj
 0001:00006b00       ??1?$CComPtr@UIStream@@@ATL@@QEAA@XZ 0000000180007b00 f i LineDisplay.obj
 0001:00006b20       ??1?$CComPtr@UITypeInfo2@@@ATL@@QEAA@XZ 0000000180007b20 f i LineDisplay.obj
 0001:00006b40       ??1?$CComPtr@UITypeInfo@@@ATL@@QEAA@XZ 0000000180007b40 f i LineDisplay.obj
 0001:00006b60       ??1?$CComPtr@UITypeLib@@@ATL@@QEAA@XZ 0000000180007b60 f i LineDisplay.obj
 0001:00006b80       ??1?$CComPtr@UIUnknown@@@ATL@@QEAA@XZ 0000000180007b80 f i LineDisplay.obj
 0001:00006ba0       ??1?$CComPtr@UIViewObjectEx@@@ATL@@QEAA@XZ 0000000180007ba0 f i LineDisplay.obj
 0001:00006bc0       ??1?$CComPtrBase@UIAdviseSink@@@ATL@@QEAA@XZ 0000000180007bc0 f i LineDisplay.obj
 0001:00006c00       ??1?$CComPtrBase@UICatRegister@@@ATL@@QEAA@XZ 0000000180007c00 f i LineDisplay.obj
 0001:00006c40       ??1?$CComPtrBase@UIConnectionPoint@@@ATL@@QEAA@XZ 0000000180007c40 f i LineDisplay.obj
 0001:00006c80       ??1?$CComPtrBase@UIConnectionPointContainer@@@ATL@@QEAA@XZ 0000000180007c80 f i LineDisplay.obj
 0001:00006cc0       ??1?$CComPtrBase@UIDataObject@@@ATL@@QEAA@XZ 0000000180007cc0 f i LineDisplay.obj
 0001:00006d00       ??1?$CComPtrBase@UIDispatch@@@ATL@@QEAA@XZ 0000000180007d00 f i LineDisplay.obj
 0001:00006d40       ??1?$CComPtrBase@UIOleClientSite@@@ATL@@QEAA@XZ 0000000180007d40 f i LineDisplay.obj
 0001:00006d80       ??1?$CComPtrBase@UIOleControlSite@@@ATL@@QEAA@XZ 0000000180007d80 f i LineDisplay.obj
 0001:00006dc0       ??1?$CComPtrBase@UIOleInPlaceActiveObject@@@ATL@@QEAA@XZ 0000000180007dc0 f i LineDisplay.obj
 0001:00006e00       ??1?$CComPtrBase@UIOleInPlaceFrame@@@ATL@@QEAA@XZ 0000000180007e00 f i LineDisplay.obj
 0001:00006e40       ??1?$CComPtrBase@UIOleInPlaceObject@@@ATL@@QEAA@XZ 0000000180007e40 f i LineDisplay.obj
 0001:00006e80       ??1?$CComPtrBase@UIOleInPlaceUIWindow@@@ATL@@QEAA@XZ 0000000180007e80 f i LineDisplay.obj
 0001:00006ec0       ??1?$CComPtrBase@UIOleObject@@@ATL@@QEAA@XZ 0000000180007ec0 f i LineDisplay.obj
 0001:00006f00       ??1?$CComPtrBase@UIPersistStream@@@ATL@@QEAA@XZ 0000000180007f00 f i LineDisplay.obj
 0001:00006f40       ??1?$CComPtrBase@UIPersistStreamInit@@@ATL@@QEAA@XZ 0000000180007f40 f i LineDisplay.obj
 0001:00006f80       ??1?$CComPtrBase@UIPointerInactive@@@ATL@@QEAA@XZ 0000000180007f80 f i LineDisplay.obj
 0001:00006fc0       ??1?$CComPtrBase@UIProvideClassInfo2@@@ATL@@QEAA@XZ 0000000180007fc0 f i LineDisplay.obj
 0001:00007000       ??1?$CComPtrBase@UISpecifyPropertyPages@@@ATL@@QEAA@XZ 0000000180008000 f i LineDisplay.obj
 0001:00007040       ??1?$CComPtrBase@UIStream@@@ATL@@QEAA@XZ 0000000180008040 f i LineDisplay.obj
 0001:00007080       ??1?$CComPtrBase@UITypeInfo2@@@ATL@@QEAA@XZ 0000000180008080 f i LineDisplay.obj
 0001:000070c0       ??1?$CComPtrBase@UITypeInfo@@@ATL@@QEAA@XZ 00000001800080c0 f i LineDisplay.obj
 0001:00007100       ??1?$CComPtrBase@UITypeLib@@@ATL@@QEAA@XZ 0000000180008100 f i LineDisplay.obj
 0001:00007140       ??1?$CComPtrBase@UIUnknown@@@ATL@@QEAA@XZ 0000000180008140 f i LineDisplay.obj
 0001:00007180       ??1?$CComPtrBase@UIViewObjectEx@@@ATL@@QEAA@XZ 0000000180008180 f i LineDisplay.obj
 0001:000071c0       ??1?$CComQIPtr@UIOleControlSite@@$1?_GUID_b196b289_bab4_101a_b69c_00aa00341d07@@3U__s_GUID@@B@ATL@@QEAA@XZ 00000001800081c0 f i LineDisplay.obj
 0001:000071e0       ??1?$CComQIPtr@UIOleObject@@$1?_GUID_00000112_0000_0000_c000_000000000046@@3U__s_GUID@@B@ATL@@QEAA@XZ 00000001800081e0 f i LineDisplay.obj
 0001:00007200       ??1?$CComQIPtr@UISpecifyPropertyPages@@$1?_GUID_b196b28b_bab4_101a_b69c_00aa00341d07@@3U__s_GUID@@B@ATL@@QEAA@XZ 0000000180008200 f i LineDisplay.obj
 0001:00007220       ??1?$CSimpleMap@PEA_WPEA_WVCExpansionVectorEqualHelper@ATL@@@ATL@@QEAA@XZ 0000000180008220 f i LineDisplay.obj
 0001:00007240       ??1?$CTempBuffer@E$0BAA@VCCRTAllocator@ATL@@@ATL@@QEAA@XZ 0000000180008240 f i LineDisplay.obj
 0001:00007270       ??1?$CTempBuffer@_W$0BAA@VCCRTAllocator@ATL@@@ATL@@QEAA@XZ 0000000180008270 f i LineDisplay.obj
 0001:000072a0       ??1?$CTempBuffer@_W$0EAA@VCCRTAllocator@ATL@@@ATL@@QEAA@XZ 00000001800082a0 f i LineDisplay.obj
 0001:000072d0       ??1CAtlModule@ATL@@UEAA@XZ 00000001800082d0 f i LineDisplay.obj
 0001:00007300       ??1CComAutoDeleteCriticalSection@ATL@@QEAA@XZ 0000000180008300 f i LineDisplay.obj
 0001:00007320       ??1CComClassFactory@ATL@@UEAA@XZ 0000000180008320 f i LineDisplay.obj
 0001:00007350       ??1CComModule@ATL@@UEAA@XZ 0000000180008350 f i LineDisplay.obj
 0001:00007380       ??1CComObjectRootBase@ATL@@QEAA@XZ 0000000180008380 f i LineDisplay.obj
 0001:00007390       ??1CComSafeDeleteCriticalSection@ATL@@QEAA@XZ 0000000180008390 f i LineDisplay.obj
 0001:000073d0       ??1CComVariant@ATL@@QEAA@XZ 00000001800083d0 f i LineDisplay.obj
 0001:00007430       ??1CExpansionVector@ATL@@QEAA@XZ 0000000180008430 f i LineDisplay.obj
 0001:00007460       ??1CParseBuffer@CRegParser@ATL@@QEAA@XZ 0000000180008460 f i LineDisplay.obj
 0001:00007480       ??1CRegKey@ATL@@QEAA@XZ    0000000180008480 f i LineDisplay.obj
 0001:000074a0       ??1CRegObject@ATL@@UEAA@XZ 00000001800084a0 f i LineDisplay.obj
 0001:000074e0       ??1ModuleLockHelper@ATL@@QEAA@XZ 00000001800084e0 f i LineDisplay.obj
 0001:00007510       ??1OposVariant@@QEAA@XZ    0000000180008510 f i LineDisplay.obj
 0001:00007540       ??1_ATL_MODULE70@ATL@@QEAA@XZ 0000000180008540 f i LineDisplay.obj
 0001:00007570       ??4?$CComPtr@UIAdviseSink@@@ATL@@QEAAPEAUIAdviseSink@@PEAU2@@Z 0000000180008570 f i LineDisplay.obj
 0001:000075d0       ??4?$CComPtr@UIOleClientSite@@@ATL@@QEAAPEAUIOleClientSite@@PEAU2@@Z 00000001800085d0 f i LineDisplay.obj
 0001:00007630       ??4?$CComPtr@UIUnknown@@@ATL@@QEAAPEAUIUnknown@@PEAU2@@Z 0000000180008630 f i LineDisplay.obj
 0001:00007690       ??4?$CComQIPtr@UIOleObject@@$1?_GUID_00000112_0000_0000_c000_000000000046@@3U__s_GUID@@B@ATL@@QEAAPEAUIOleObject@@PEAUIUnknown@@@Z 0000000180008690 f i LineDisplay.obj
 0001:000076e0       ??4?$CComQIPtr@UISpecifyPropertyPages@@$1?_GUID_b196b28b_bab4_101a_b69c_00aa00341d07@@3U__s_GUID@@B@ATL@@QEAAPEAUISpecifyPropertyPages@@PEAUIUnknown@@@Z 00000001800086e0 f i LineDisplay.obj
 0001:00007730       ??7?$CComPtrBase@UIOleClientSite@@@ATL@@QEBA_NXZ 0000000180008730 f i LineDisplay.obj
 0001:00007760       ??7?$CComPtrBase@UIOleInPlaceSiteWindowless@@@ATL@@QEBA_NXZ 0000000180008760 f i LineDisplay.obj
 0001:00007790       ??7CComBSTR@ATL@@QEBA_NXZ  0000000180008790 f i LineDisplay.obj
 0001:000077c0       ??8?$CComPtrBase@UIConnectionPointContainer@@@ATL@@QEBA_NPEAUIConnectionPointContainer@@@Z 00000001800087c0 f i LineDisplay.obj
 0001:00007800       ??8?$CComPtrBase@UIDataAdviseHolder@@@ATL@@QEBA_NPEAUIDataAdviseHolder@@@Z 0000000180008800 f i LineDisplay.obj
 0001:00007840       ??8?$CComPtrBase@UIOleAdviseHolder@@@ATL@@QEBA_NPEAUIOleAdviseHolder@@@Z 0000000180008840 f i LineDisplay.obj
 0001:00007880       ??8?$CComPtrBase@UIOleClientSite@@@ATL@@QEBA_NPEAUIOleClientSite@@@Z 0000000180008880 f i LineDisplay.obj
 0001:000078c0       ??8?$CComPtrBase@UIOleControlSite@@@ATL@@QEBA_NPEAUIOleControlSite@@@Z 00000001800088c0 f i LineDisplay.obj
 0001:00007900       ??8?$CComPtrBase@UIOleInPlaceObject@@@ATL@@QEBA_NPEAUIOleInPlaceObject@@@Z 0000000180008900 f i LineDisplay.obj
 0001:00007940       ??8?$CComPtrBase@UIOleInPlaceSiteWindowless@@@ATL@@QEBA_NPEAUIOleInPlaceSiteWindowless@@@Z 0000000180008940 f i LineDisplay.obj
 0001:00007980       ??8?$CComPtrBase@UIOleObject@@@ATL@@QEBA_NPEAUIOleObject@@@Z 0000000180008980 f i LineDisplay.obj
 0001:000079c0       ??8?$CComPtrBase@UIPersistStream@@@ATL@@QEBA_NPEAUIPersistStream@@@Z 00000001800089c0 f i LineDisplay.obj
 0001:00007a00       ??8?$CComPtrBase@UIPersistStreamInit@@@ATL@@QEBA_NPEAUIPersistStreamInit@@@Z 0000000180008a00 f i LineDisplay.obj
 0001:00007a40       ??8?$CComPtrBase@UIPointerInactive@@@ATL@@QEBA_NPEAUIPointerInactive@@@Z 0000000180008a40 f i LineDisplay.obj
 0001:00007a80       ??8?$CComPtrBase@UIUnknown@@@ATL@@QEBA_NPEAUIUnknown@@@Z 0000000180008a80 f i LineDisplay.obj
 0001:00007ac0       ??8?$CComPtrBase@UIViewObjectEx@@@ATL@@QEBA_NPEAUIViewObjectEx@@@Z 0000000180008ac0 f i LineDisplay.obj
 0001:00007b00       ??8CComBSTR@ATL@@QEBA_NH@Z 0000000180008b00 f i LineDisplay.obj
 0001:00007b60       ??9?$CComPtrBase@UIConnectionPointContainer@@@ATL@@QEBA_NPEAUIConnectionPointContainer@@@Z 0000000180008b60 f i LineDisplay.obj
 0001:00007bb0       ??9?$CComPtrBase@UIDataAdviseHolder@@@ATL@@QEBA_NPEAUIDataAdviseHolder@@@Z 0000000180008bb0 f i LineDisplay.obj
 0001:00007c00       ??9?$CComPtrBase@UIOleAdviseHolder@@@ATL@@QEBA_NPEAUIOleAdviseHolder@@@Z 0000000180008c00 f i LineDisplay.obj
 0001:00007c50       ??9?$CComPtrBase@UIOleClientSite@@@ATL@@QEBA_NPEAUIOleClientSite@@@Z 0000000180008c50 f i LineDisplay.obj
 0001:00007ca0       ??9?$CComPtrBase@UIOleControlSite@@@ATL@@QEBA_NPEAUIOleControlSite@@@Z 0000000180008ca0 f i LineDisplay.obj
 0001:00007cf0       ??9?$CComPtrBase@UIOleInPlaceObject@@@ATL@@QEBA_NPEAUIOleInPlaceObject@@@Z 0000000180008cf0 f i LineDisplay.obj
 0001:00007d40       ??9?$CComPtrBase@UIOleInPlaceSiteWindowless@@@ATL@@QEBA_NPEAUIOleInPlaceSiteWindowless@@@Z 0000000180008d40 f i LineDisplay.obj
 0001:00007d90       ??9?$CComPtrBase@UIOleObject@@@ATL@@QEBA_NPEAUIOleObject@@@Z 0000000180008d90 f i LineDisplay.obj
 0001:00007de0       ??9?$CComPtrBase@UIPersistStream@@@ATL@@QEBA_NPEAUIPersistStream@@@Z 0000000180008de0 f i LineDisplay.obj
 0001:00007e30       ??9?$CComPtrBase@UIPersistStreamInit@@@ATL@@QEBA_NPEAUIPersistStreamInit@@@Z 0000000180008e30 f i LineDisplay.obj
 0001:00007e80       ??9?$CComPtrBase@UIPointerInactive@@@ATL@@QEBA_NPEAUIPointerInactive@@@Z 0000000180008e80 f i LineDisplay.obj
 0001:00007ed0       ??9?$CComPtrBase@UIUnknown@@@ATL@@QEBA_NPEAUIUnknown@@@Z 0000000180008ed0 f i LineDisplay.obj
 0001:00007f20       ??9?$CComPtrBase@UIViewObjectEx@@@ATL@@QEBA_NPEAUIViewObjectEx@@@Z 0000000180008f20 f i LineDisplay.obj
 0001:00007f70       ??9CComBSTR@ATL@@QEBA_NH@Z 0000000180008f70 f i LineDisplay.obj
 0001:00007fb0       ??B?$CComPtrBase@UIAdviseSink@@@ATL@@QEBAPEAUIAdviseSink@@XZ 0000000180008fb0 f i LineDisplay.obj
 0001:00007fc0       ??B?$CComPtrBase@UIDataAdviseHolder@@@ATL@@QEBAPEAUIDataAdviseHolder@@XZ 0000000180008fc0 f i LineDisplay.obj
 0001:00007fd0       ??B?$CComPtrBase@UIDataObject@@@ATL@@QEBAPEAUIDataObject@@XZ 0000000180008fd0 f i LineDisplay.obj
 0001:00007fe0       ??B?$CComPtrBase@UIOleAdviseHolder@@@ATL@@QEBAPEAUIOleAdviseHolder@@XZ 0000000180008fe0 f i LineDisplay.obj
 0001:00007ff0       ??B?$CComPtrBase@UIOleClientSite@@@ATL@@QEBAPEAUIOleClientSite@@XZ 0000000180008ff0 f i LineDisplay.obj
 0001:00008000       ??B?$CComPtrBase@UIOleControlSite@@@ATL@@QEBAPEAUIOleControlSite@@XZ 0000000180009000 f i LineDisplay.obj
 0001:00008010       ??B?$CComPtrBase@UIOleInPlaceActiveObject@@@ATL@@QEBAPEAUIOleInPlaceActiveObject@@XZ 0000000180009010 f i LineDisplay.obj
 0001:00008020       ??B?$CComPtrBase@UIOleInPlaceFrame@@@ATL@@QEBAPEAUIOleInPlaceFrame@@XZ 0000000180009020 f i LineDisplay.obj
 0001:00008030       ??B?$CComPtrBase@UIOleInPlaceSiteWindowless@@@ATL@@QEBAPEAUIOleInPlaceSiteWindowless@@XZ 0000000180009030 f i LineDisplay.obj
 0001:00008040       ??B?$CComPtrBase@UIOleInPlaceUIWindow@@@ATL@@QEBAPEAUIOleInPlaceUIWindow@@XZ 0000000180009040 f i LineDisplay.obj
 0001:00008050       ??B?$CComPtrBase@UIOleObject@@@ATL@@QEBAPEAUIOleObject@@XZ 0000000180009050 f i LineDisplay.obj
 0001:00008060       ??B?$CComPtrBase@UIPersistStream@@@ATL@@QEBAPEAUIPersistStream@@XZ 0000000180009060 f i LineDisplay.obj
 0001:00008070       ??B?$CComPtrBase@UIProvideClassInfo2@@@ATL@@QEBAPEAUIProvideClassInfo2@@XZ 0000000180009070 f i LineDisplay.obj
 0001:00008080       ??B?$CComPtrBase@UISpecifyPropertyPages@@@ATL@@QEBAPEAUISpecifyPropertyPages@@XZ 0000000180009080 f i LineDisplay.obj
 0001:00008090       ??B?$CComPtrBase@UIStream@@@ATL@@QEBAPEAUIStream@@XZ 0000000180009090 f i LineDisplay.obj
 0001:000080a0       ??B?$CComPtrBase@UITypeInfo2@@@ATL@@QEBAPEAUITypeInfo2@@XZ 00000001800090a0 f i LineDisplay.obj
 0001:000080b0       ??B?$CComPtrBase@UITypeInfo@@@ATL@@QEBAPEAUITypeInfo@@XZ 00000001800090b0 f i LineDisplay.obj
 0001:000080c0       ??B?$CComPtrBase@UITypeLib@@@ATL@@QEBAPEAUITypeLib@@XZ 00000001800090c0 f i LineDisplay.obj
 0001:000080d0       ??B?$CComPtrBase@UIUnknown@@@ATL@@QEBAPEAUIUnknown@@XZ 00000001800090d0 f i LineDisplay.obj
 0001:000080e0       ??B?$CTempBuffer@E$0BAA@VCCRTAllocator@ATL@@@ATL@@QEBAPEAEXZ 00000001800090e0 f i LineDisplay.obj
 0001:000080f0       ??B?$CTempBuffer@_W$0BAA@VCCRTAllocator@ATL@@@ATL@@QEBAPEA_WXZ 00000001800090f0 f i LineDisplay.obj
 0001:00008100       ??B?$CTempBuffer@_W$0EAA@VCCRTAllocator@ATL@@@ATL@@QEBAPEA_WXZ 0000000180009100 f i LineDisplay.obj
 0001:00008110       ??B?$CTraceCategoryEx@$00$0A@@ATL@@QEAAIXZ 0000000180009110 f i LineDisplay.obj
 0001:00008120       ??B?$CTraceCategoryEx@$07$0A@@ATL@@QEAAIXZ 0000000180009120 f i LineDisplay.obj
 0001:00008130       ??B?$CTraceCategoryEx@$0CAAA@$0A@@ATL@@QEAAIXZ 0000000180009130 f i LineDisplay.obj
 0001:00008140       ??B?$CTraceCategoryEx@$0EA@$0A@@ATL@@QEAAIXZ 0000000180009140 f i LineDisplay.obj
 0001:00008150       ??B?$CTraceCategoryEx@$0IAA@$0A@@ATL@@QEAAIXZ 0000000180009150 f i LineDisplay.obj
 0001:00008160       ??BCComBSTR@ATL@@QEBAPEA_WXZ 0000000180009160 f i LineDisplay.obj
 0001:00008170       ??BCRegKey@ATL@@QEBAPEAUHKEY__@@XZ 0000000180009170 f i LineDisplay.obj
 0001:00008180       ??C?$CComPtrBase@UIAdviseSink@@@ATL@@QEBAPEAV?$_NoAddRefReleaseOnCComPtr@UIAdviseSink@@@1@XZ 0000000180009180 f i LineDisplay.obj
 0001:000081e0       ??C?$CComPtrBase@UICatRegister@@@ATL@@QEBAPEAV?$_NoAddRefReleaseOnCComPtr@UICatRegister@@@1@XZ 00000001800091e0 f i LineDisplay.obj
 0001:00008240       ??C?$CComPtrBase@UIConnectionPoint@@@ATL@@QEBAPEAV?$_NoAddRefReleaseOnCComPtr@UIConnectionPoint@@@1@XZ 0000000180009240 f i LineDisplay.obj
 0001:000082a0       ??C?$CComPtrBase@UIConnectionPointContainer@@@ATL@@QEBAPEAV?$_NoAddRefReleaseOnCComPtr@UIConnectionPointContainer@@@1@XZ 00000001800092a0 f i LineDisplay.obj
 0001:00008300       ??C?$CComPtrBase@UIDataAdviseHolder@@@ATL@@QEBAPEAV?$_NoAddRefReleaseOnCComPtr@UIDataAdviseHolder@@@1@XZ 0000000180009300 f i LineDisplay.obj
 0001:00008360       ??C?$CComPtrBase@UIOleAdviseHolder@@@ATL@@QEBAPEAV?$_NoAddRefReleaseOnCComPtr@UIOleAdviseHolder@@@1@XZ 0000000180009360 f i LineDisplay.obj
 0001:000083c0       ??C?$CComPtrBase@UIOleClientSite@@@ATL@@QEBAPEAV?$_NoAddRefReleaseOnCComPtr@UIOleClientSite@@@1@XZ 00000001800093c0 f i LineDisplay.obj
 0001:00008420       ??C?$CComPtrBase@UIOleControlSite@@@ATL@@QEBAPEAV?$_NoAddRefReleaseOnCComPtr@UIOleControlSite@@@1@XZ 0000000180009420 f i LineDisplay.obj
 0001:00008480       ??C?$CComPtrBase@UIOleInPlaceFrame@@@ATL@@QEBAPEAV?$_NoAddRefReleaseOnCComPtr@UIOleInPlaceFrame@@@1@XZ 0000000180009480 f i LineDisplay.obj
 0001:000084e0       ??C?$CComPtrBase@UIOleInPlaceObject@@@ATL@@QEBAPEAV?$_NoAddRefReleaseOnCComPtr@UIOleInPlaceObject@@@1@XZ 00000001800094e0 f i LineDisplay.obj
 0001:00008540       ??C?$CComPtrBase@UIOleInPlaceSiteWindowless@@@ATL@@QEBAPEAV?$_NoAddRefReleaseOnCComPtr@UIOleInPlaceSiteWindowless@@@1@XZ 0000000180009540 f i LineDisplay.obj
 0001:000085a0       ??C?$CComPtrBase@UIOleInPlaceUIWindow@@@ATL@@QEBAPEAV?$_NoAddRefReleaseOnCComPtr@UIOleInPlaceUIWindow@@@1@XZ 00000001800095a0 f i LineDisplay.obj
 0001:00008600       ??C?$CComPtrBase@UIOleObject@@@ATL@@QEBAPEAV?$_NoAddRefReleaseOnCComPtr@UIOleObject@@@1@XZ 0000000180009600 f i LineDisplay.obj
 0001:00008660       ??C?$CComPtrBase@UIPersistStream@@@ATL@@QEBAPEAV?$_NoAddRefReleaseOnCComPtr@UIPersistStream@@@1@XZ 0000000180009660 f i LineDisplay.obj
 0001:000086c0       ??C?$CComPtrBase@UIPersistStreamInit@@@ATL@@QEBAPEAV?$_NoAddRefReleaseOnCComPtr@UIPersistStreamInit@@@1@XZ 00000001800096c0 f i LineDisplay.obj
 0001:00008720       ??C?$CComPtrBase@UIPointerInactive@@@ATL@@QEBAPEAV?$_NoAddRefReleaseOnCComPtr@UIPointerInactive@@@1@XZ 0000000180009720 f i LineDisplay.obj
 0001:00008780       ??C?$CComPtrBase@UIProvideClassInfo2@@@ATL@@QEBAPEAV?$_NoAddRefReleaseOnCComPtr@UIProvideClassInfo2@@@1@XZ 0000000180009780 f i LineDisplay.obj
 0001:000087e0       ??C?$CComPtrBase@UISpecifyPropertyPages@@@ATL@@QEBAPEAV?$_NoAddRefReleaseOnCComPtr@UISpecifyPropertyPages@@@1@XZ 00000001800097e0 f i LineDisplay.obj
 0001:00008840       ??C?$CComPtrBase@UITypeInfo@@@ATL@@QEBAPEAV?$_NoAddRefReleaseOnCComPtr@UITypeInfo@@@1@XZ 0000000180009840 f i LineDisplay.obj
 0001:000088a0       ??C?$CComPtrBase@UITypeLib@@@ATL@@QEBAPEAV?$_NoAddRefReleaseOnCComPtr@UITypeLib@@@1@XZ 00000001800098a0 f i LineDisplay.obj
 0001:00008900       ??C?$CComPtrBase@UIUnknown@@@ATL@@QEBAPEAV?$_NoAddRefReleaseOnCComPtr@UIUnknown@@@1@XZ 0000000180009900 f i LineDisplay.obj
 0001:00008960       ??C?$CComPtrBase@UIViewObjectEx@@@ATL@@QEBAPEAV?$_NoAddRefReleaseOnCComPtr@UIViewObjectEx@@@1@XZ 0000000180009960 f i LineDisplay.obj
 0001:000089c0       ??I?$CComPtrBase@UICatRegister@@@ATL@@QEAAPEAPEAUICatRegister@@XZ 00000001800099c0 f i LineDisplay.obj
 0001:00008a20       ??I?$CComPtrBase@UIConnectionPoint@@@ATL@@QEAAPEAPEAUIConnectionPoint@@XZ 0000000180009a20 f i LineDisplay.obj
 0001:00008a80       ??I?$CComPtrBase@UIConnectionPointContainer@@@ATL@@QEAAPEAPEAUIConnectionPointContainer@@XZ 0000000180009a80 f i LineDisplay.obj
 0001:00008ae0       ??I?$CComPtrBase@UIDataAdviseHolder@@@ATL@@QEAAPEAPEAUIDataAdviseHolder@@XZ 0000000180009ae0 f i LineDisplay.obj
 0001:00008b40       ??I?$CComPtrBase@UIDataObject@@@ATL@@QEAAPEAPEAUIDataObject@@XZ 0000000180009b40 f i LineDisplay.obj
 0001:00008ba0       ??I?$CComPtrBase@UIDispatch@@@ATL@@QEAAPEAPEAUIDispatch@@XZ 0000000180009ba0 f i LineDisplay.obj
 0001:00008c00       ??I?$CComPtrBase@UIOleAdviseHolder@@@ATL@@QEAAPEAPEAUIOleAdviseHolder@@XZ 0000000180009c00 f i LineDisplay.obj
 0001:00008c60       ??I?$CComPtrBase@UIOleControlSite@@@ATL@@QEAAPEAPEAUIOleControlSite@@XZ 0000000180009c60 f i LineDisplay.obj
 0001:00008cc0       ??I?$CComPtrBase@UIOleInPlaceActiveObject@@@ATL@@QEAAPEAPEAUIOleInPlaceActiveObject@@XZ 0000000180009cc0 f i LineDisplay.obj
 0001:00008d20       ??I?$CComPtrBase@UIOleInPlaceFrame@@@ATL@@QEAAPEAPEAUIOleInPlaceFrame@@XZ 0000000180009d20 f i LineDisplay.obj
 0001:00008d80       ??I?$CComPtrBase@UIOleInPlaceObject@@@ATL@@QEAAPEAPEAUIOleInPlaceObject@@XZ 0000000180009d80 f i LineDisplay.obj
 0001:00008de0       ??I?$CComPtrBase@UIOleInPlaceSiteWindowless@@@ATL@@QEAAPEAPEAUIOleInPlaceSiteWindowless@@XZ 0000000180009de0 f i LineDisplay.obj
 0001:00008e40       ??I?$CComPtrBase@UIOleInPlaceUIWindow@@@ATL@@QEAAPEAPEAUIOleInPlaceUIWindow@@XZ 0000000180009e40 f i LineDisplay.obj
 0001:00008ea0       ??I?$CComPtrBase@UIOleObject@@@ATL@@QEAAPEAPEAUIOleObject@@XZ 0000000180009ea0 f i LineDisplay.obj
 0001:00008f00       ??I?$CComPtrBase@UIPersistStream@@@ATL@@QEAAPEAPEAUIPersistStream@@XZ 0000000180009f00 f i LineDisplay.obj
 0001:00008f60       ??I?$CComPtrBase@UIPointerInactive@@@ATL@@QEAAPEAPEAUIPointerInactive@@XZ 0000000180009f60 f i LineDisplay.obj
 0001:00008fc0       ??I?$CComPtrBase@UIProvideClassInfo2@@@ATL@@QEAAPEAPEAUIProvideClassInfo2@@XZ 0000000180009fc0 f i LineDisplay.obj
 0001:00009020       ??I?$CComPtrBase@UIStream@@@ATL@@QEAAPEAPEAUIStream@@XZ 000000018000a020 f i LineDisplay.obj
 0001:00009080       ??I?$CComPtrBase@UITypeInfo2@@@ATL@@QEAAPEAPEAUITypeInfo2@@XZ 000000018000a080 f i LineDisplay.obj
 0001:000090e0       ??I?$CComPtrBase@UITypeInfo@@@ATL@@QEAAPEAPEAUITypeInfo@@XZ 000000018000a0e0 f i LineDisplay.obj
 0001:00009140       ??I?$CComPtrBase@UITypeLib@@@ATL@@QEAAPEAPEAUITypeLib@@XZ 000000018000a140 f i LineDisplay.obj
 0001:000091a0       ??I?$CComPtrBase@UIUnknown@@@ATL@@QEAAPEAPEAUIUnknown@@XZ 000000018000a1a0 f i LineDisplay.obj
 0001:00009200       ??I?$CComPtrBase@UIViewObjectEx@@@ATL@@QEAAPEAPEAUIViewObjectEx@@XZ 000000018000a200 f i LineDisplay.obj
 0001:00009260       ??ICComBSTR@ATL@@QEAAPEAPEA_WXZ 000000018000a260 f i LineDisplay.obj
 0001:00009270       ??_E?$CComContainedObject@VCOPOSLineDisplay@@@ATL@@W7EAAPEAXI@Z 000000018000a270 f i LineDisplay.obj
 0001:0000927c       ??_E?$CComContainedObject@VCOPOSLineDisplay@@@ATL@@WHA@EAAPEAXI@Z 000000018000a27c f i LineDisplay.obj
 0001:00009288       ??_E?$CComObject@VCOPOSLineDisplay@@@ATL@@W7EAAPEAXI@Z 000000018000a288 f i LineDisplay.obj
 0001:00009294       ??_E?$CComObject@VCOPOSLineDisplay@@@ATL@@WHA@EAAPEAXI@Z 000000018000a294 f i LineDisplay.obj
 0001:000092a0       ??_E?$CComAggObject@VCOPOSLineDisplay@@@ATL@@UEAAPEAXI@Z 000000018000a2a0 f i LineDisplay.obj
 0001:000092a0       ??_G?$CComAggObject@VCOPOSLineDisplay@@@ATL@@UEAAPEAXI@Z 000000018000a2a0 f i LineDisplay.obj
 0001:000092e0       ??_E?$CComContainedObject@VCOPOSLineDisplay@@@ATL@@UEAAPEAXI@Z 000000018000a2e0 f i LineDisplay.obj
 0001:000092e0       ??_G?$CComContainedObject@VCOPOSLineDisplay@@@ATL@@UEAAPEAXI@Z 000000018000a2e0 f i LineDisplay.obj
 0001:00009320       ??_E?$CComObject@V?$CComEnum@UIEnumConnectionPoints@@$1?_GUID_b196b285_bab4_101a_b69c_00aa00341d07@@3U__s_GUID@@BPEAUIConnectionPoint@@V?$_CopyInterface@UIConnectionPoint@@@ATL@@VCComSingleThreadModel@6@@ATL@@@ATL@@UEAAPEAXI@Z 000000018000a320 f i LineDisplay.obj
 0001:00009320       ??_G?$CComObject@V?$CComEnum@UIEnumConnectionPoints@@$1?_GUID_b196b285_bab4_101a_b69c_00aa00341d07@@3U__s_GUID@@BPEAUIConnectionPoint@@V?$_CopyInterface@UIConnectionPoint@@@ATL@@VCComSingleThreadModel@6@@ATL@@@ATL@@UEAAPEAXI@Z 000000018000a320 f i LineDisplay.obj
 0001:00009360       ??_G?$CComObject@V?$CComEnum@UIEnumConnections@@$1?_GUID_b196b287_bab4_101a_b69c_00aa00341d07@@3U__s_GUID@@BUtagCONNECTDATA@@V?$_Copy@UtagCONNECTDATA@@@ATL@@VCComSingleThreadModel@6@@ATL@@@ATL@@UEAAPEAXI@Z 000000018000a360 f i LineDisplay.obj
 0001:00009360       ??_E?$CComObject@V?$CComEnum@UIEnumConnections@@$1?_GUID_b196b287_bab4_101a_b69c_00aa00341d07@@3U__s_GUID@@BUtagCONNECTDATA@@V?$_Copy@UtagCONNECTDATA@@@ATL@@VCComSingleThreadModel@6@@ATL@@@ATL@@UEAAPEAXI@Z 000000018000a360 f i LineDisplay.obj
 0001:000093a0       ??_G?$CComObject@VCOPOSLineDisplay@@@ATL@@UEAAPEAXI@Z 000000018000a3a0 f i LineDisplay.obj
 0001:000093a0       ??_E?$CComObject@VCOPOSLineDisplay@@@ATL@@UEAAPEAXI@Z 000000018000a3a0 f i LineDisplay.obj
 0001:000093e0       ??_E?$CComObjectCached@VCComClassFactory@ATL@@@ATL@@UEAAPEAXI@Z 000000018000a3e0 f i LineDisplay.obj
 0001:000093e0       ??_G?$CComObjectCached@VCComClassFactory@ATL@@@ATL@@UEAAPEAXI@Z 000000018000a3e0 f i LineDisplay.obj
 0001:00009420       ??_ECComClassFactory@ATL@@UEAAPEAXI@Z 000000018000a420 f i LineDisplay.obj
 0001:00009420       ??_GCComClassFactory@ATL@@UEAAPEAXI@Z 000000018000a420 f i LineDisplay.obj
 0001:00009460       ??_GCComModule@ATL@@UEAAPEAXI@Z 000000018000a460 f i LineDisplay.obj
 0001:00009460       ??_ECComModule@ATL@@UEAAPEAXI@Z 000000018000a460 f i LineDisplay.obj
 0001:000094a0       ??_GCRegObject@ATL@@UEAAPEAXI@Z 000000018000a4a0 f i LineDisplay.obj
 0001:000094a0       ??_ECRegObject@ATL@@UEAAPEAXI@Z 000000018000a4a0 f i LineDisplay.obj
 0001:000094e0       ?Add@?$CSimpleArray@GV?$CSimpleArrayEqualHelper@G@ATL@@@ATL@@QEAAHAEBG@Z 000000018000a4e0 f i LineDisplay.obj
 0001:00009670       ?Add@?$CSimpleMap@PEA_WPEA_WVCExpansionVectorEqualHelper@ATL@@@ATL@@QEAAHAEBQEA_W0@Z 000000018000a670 f i LineDisplay.obj
 0001:00009750       ?Add@CComDynamicUnkArray@ATL@@QEAAKPEAUIUnknown@@@Z 000000018000a750 f i LineDisplay.obj
 0001:00009930       ?Add@CExpansionVector@ATL@@QEAAHPEB_W0@Z 000000018000a930 f i LineDisplay.obj
 0001:00009c70       ?AddChar@CParseBuffer@CRegParser@ATL@@QEAAHPEB_W@Z 000000018000ac70 f i LineDisplay.obj
 0001:00009cb0       ?AddCommonRGSReplacements@?$CAtlModuleT@VCComModule@ATL@@@ATL@@UEAAJPEAUIRegistrarBase@@@Z 000000018000acb0 f i LineDisplay.obj
 0001:00009cf0       ?AddCreateWndData@CAtlWinModule@ATL@@QEAAXPEAU_AtlCreateWndData@2@PEAX@Z 000000018000acf0 f i LineDisplay.obj
 0001:00009d20       ?AddRef@?$CComAggObject@VCOPOSLineDisplay@@@ATL@@UEAAKXZ 000000018000ad20 f i LineDisplay.obj
 0001:00009d50       ?AddRef@?$CComContainedObject@VCOPOSLineDisplay@@@ATL@@UEAAKXZ 000000018000ad50 f i LineDisplay.obj
 0001:00009d74       ?AddRef@?$CComContainedObject@VCOPOSLineDisplay@@@ATL@@WBAA@EAAKXZ 000000018000ad74 f i LineDisplay.obj
 0001:00009d80       ?AddRef@?$CComContainedObject@VCOPOSLineDisplay@@@ATL@@WBAI@EAAKXZ 000000018000ad80 f i LineDisplay.obj
 0001:00009d8c       ?AddRef@?$CComContainedObject@VCOPOSLineDisplay@@@ATL@@WBBA@EAAKXZ 000000018000ad8c f i LineDisplay.obj
 0001:00009d98       ?AddRef@?$CComContainedObject@VCOPOSLineDisplay@@@ATL@@WBBI@EAAKXZ 000000018000ad98 f i LineDisplay.obj
 0001:00009da4       ?AddRef@?$CComContainedObject@VCOPOSLineDisplay@@@ATL@@WBCI@EAAKXZ 000000018000ada4 f i LineDisplay.obj
 0001:00009db0       ?AddRef@?$CComContainedObject@VCOPOSLineDisplay@@@ATL@@WBEA@EAAKXZ 000000018000adb0 f i LineDisplay.obj
 0001:00009dbc       ?AddRef@?$CComContainedObject@VCOPOSLineDisplay@@@ATL@@WLI@EAAKXZ 000000018000adbc f i LineDisplay.obj
 0001:00009dc8       ?AddRef@?$CComContainedObject@VCOPOSLineDisplay@@@ATL@@WMA@EAAKXZ 000000018000adc8 f i LineDisplay.obj
 0001:00009dd4       ?AddRef@?$CComContainedObject@VCOPOSLineDisplay@@@ATL@@WMI@EAAKXZ 000000018000add4 f i LineDisplay.obj
 0001:00009de0       ?AddRef@?$CComContainedObject@VCOPOSLineDisplay@@@ATL@@WNA@EAAKXZ 000000018000ade0 f i LineDisplay.obj
 0001:00009dec       ?AddRef@?$CComContainedObject@VCOPOSLineDisplay@@@ATL@@WNI@EAAKXZ 000000018000adec f i LineDisplay.obj
 0001:00009df8       ?AddRef@?$CComContainedObject@VCOPOSLineDisplay@@@ATL@@WOA@EAAKXZ 000000018000adf8 f i LineDisplay.obj
 0001:00009e04       ?AddRef@?$CComContainedObject@VCOPOSLineDisplay@@@ATL@@WOI@EAAKXZ 000000018000ae04 f i LineDisplay.obj
 0001:00009e10       ?AddRef@?$CComContainedObject@VCOPOSLineDisplay@@@ATL@@WPA@EAAKXZ 000000018000ae10 f i LineDisplay.obj
 0001:00009e1c       ?AddRef@?$CComContainedObject@VCOPOSLineDisplay@@@ATL@@WPI@EAAKXZ 000000018000ae1c f i LineDisplay.obj
 0001:00009e30       ?AddRef@?$CComObject@V?$CComEnum@UIEnumConnectionPoints@@$1?_GUID_b196b285_bab4_101a_b69c_00aa00341d07@@3U__s_GUID@@BPEAUIConnectionPoint@@V?$_CopyInterface@UIConnectionPoint@@@ATL@@VCComSingleThreadModel@6@@ATL@@@ATL@@UEAAKXZ 000000018000ae30 f i LineDisplay.obj
 0001:00009e60       ?AddRef@?$CComObject@V?$CComEnum@UIEnumConnections@@$1?_GUID_b196b287_bab4_101a_b69c_00aa00341d07@@3U__s_GUID@@BUtagCONNECTDATA@@V?$_Copy@UtagCONNECTDATA@@@ATL@@VCComSingleThreadModel@6@@ATL@@@ATL@@UEAAKXZ 000000018000ae60 f i LineDisplay.obj
 0001:00009e90       ?AddRef@?$CComObject@VCOPOSLineDisplay@@@ATL@@UEAAKXZ 000000018000ae90 f i LineDisplay.obj
 0001:00009eb4       ?AddRef@?$CComObject@VCOPOSLineDisplay@@@ATL@@WBAA@EAAKXZ 000000018000aeb4 f i LineDisplay.obj
 0001:00009ec0       ?AddRef@?$CComObject@VCOPOSLineDisplay@@@ATL@@WBAI@EAAKXZ 000000018000aec0 f i LineDisplay.obj
 0001:00009ecc       ?AddRef@?$CComObject@VCOPOSLineDisplay@@@ATL@@WBBA@EAAKXZ 000000018000aecc f i LineDisplay.obj
 0001:00009ed8       ?AddRef@?$CComObject@VCOPOSLineDisplay@@@ATL@@WBBI@EAAKXZ 000000018000aed8 f i LineDisplay.obj
 0001:00009ee4       ?AddRef@?$CComObject@VCOPOSLineDisplay@@@ATL@@WBCI@EAAKXZ 000000018000aee4 f i LineDisplay.obj
 0001:00009ef0       ?AddRef@?$CComObject@VCOPOSLineDisplay@@@ATL@@WBEA@EAAKXZ 000000018000aef0 f i LineDisplay.obj
 0001:00009efc       ?AddRef@?$CComObject@VCOPOSLineDisplay@@@ATL@@WLI@EAAKXZ 000000018000aefc f i LineDisplay.obj
 0001:00009f08       ?AddRef@?$CComObject@VCOPOSLineDisplay@@@ATL@@WMA@EAAKXZ 000000018000af08 f i LineDisplay.obj
 0001:00009f14       ?AddRef@?$CComObject@VCOPOSLineDisplay@@@ATL@@WMI@EAAKXZ 000000018000af14 f i LineDisplay.obj
 0001:00009f20       ?AddRef@?$CComObject@VCOPOSLineDisplay@@@ATL@@WNA@EAAKXZ 000000018000af20 f i LineDisplay.obj
 0001:00009f2c       ?AddRef@?$CComObject@VCOPOSLineDisplay@@@ATL@@WNI@EAAKXZ 000000018000af2c f i LineDisplay.obj
 0001:00009f38       ?AddRef@?$CComObject@VCOPOSLineDisplay@@@ATL@@WOA@EAAKXZ 000000018000af38 f i LineDisplay.obj
 0001:00009f44       ?AddRef@?$CComObject@VCOPOSLineDisplay@@@ATL@@WOI@EAAKXZ 000000018000af44 f i LineDisplay.obj
 0001:00009f50       ?AddRef@?$CComObject@VCOPOSLineDisplay@@@ATL@@WPA@EAAKXZ 000000018000af50 f i LineDisplay.obj
 0001:00009f5c       ?AddRef@?$CComObject@VCOPOSLineDisplay@@@ATL@@WPI@EAAKXZ 000000018000af5c f i LineDisplay.obj
 0001:00009f70       ?AddRef@?$CComObjectCached@VCComClassFactory@ATL@@@ATL@@UEAAKXZ 000000018000af70 f i LineDisplay.obj
 0001:00009fc0       ?AddRef@CRegObject@ATL@@UEAAKXZ 000000018000afc0 f i LineDisplay.obj
 0001:0000a020       ?AddReplacement@CRegObject@ATL@@UEAAJPEB_W0@Z 000000018000b020 f i LineDisplay.obj
 0001:0000a150       ?AddString@CParseBuffer@CRegParser@ATL@@QEAAHPEB_W@Z 000000018000b150 f i LineDisplay.obj
 0001:0000a240       ?AddTermFunc@CAtlModule@ATL@@QEAAJP6AX_K@Z0@Z 000000018000b240 f i LineDisplay.obj
 0001:0000a290       ?AddValue@CRegParser@ATL@@IEAAJAEAVCRegKey@2@PEB_WPEA_W@Z 000000018000b290 f i LineDisplay.obj
 0001:0000ab60       ?Advise@?$CProxy_IOPOSEvents@VCOPOSLineDisplay@@@@UEAAJPEAUIUnknown@@PEAK@Z 000000018000bb60 f i LineDisplay.obj
 0001:0000abc0       ?Advise@?$IConnectionPointImpl@VCOPOSLineDisplay@@$1?DIID__IOPOSLineDisplayEvents@@3U_GUID@@BVCComDynamicUnkArray@ATL@@@ATL@@UEAAJPEAUIUnknown@@PEAK@Z 000000018000bbc0 f i LineDisplay.obj
 0001:0000adc0       ?Advise@?$IConnectionPointImpl@VCOPOSLineDisplay@@$1?IID_IPropertyNotifySink@@3U_GUID@@BVCComDynamicUnkArray@ATL@@@ATL@@UEAAJPEAUIUnknown@@PEAK@Z 000000018000bdc0 f i LineDisplay.obj
 0001:0000afc0       ?Advise@?$IOleObjectImpl@VCOPOSLineDisplay@@@ATL@@UEAAJPEAUIAdviseSink@@PEAK@Z 000000018000bfc0 f i LineDisplay.obj
 0001:0000b070       ?Allocate@?$CAtlSafeAllocBufferManager@VCCRTAllocator@ATL@@@_ATL_SAFE_ALLOCA_IMPL@ATL@@QEAAPEAX_K@Z 000000018000c070 f i LineDisplay.obj
 0001:0000b0e0       ?Allocate@?$CTempBuffer@E$0BAA@VCCRTAllocator@ATL@@@ATL@@QEAAPEAE_K@Z 000000018000c0e0 f i LineDisplay.obj
 0001:0000b120       ?Allocate@?$CTempBuffer@_W$0BAA@VCCRTAllocator@ATL@@@ATL@@QEAAPEA_W_K@Z 000000018000c120 f i LineDisplay.obj
 0001:0000b160       ?Allocate@?$CTempBuffer@_W$0EAA@VCCRTAllocator@ATL@@@ATL@@QEAAPEA_W_K@Z 000000018000c160 f i LineDisplay.obj
 0001:0000b1a0       ?AllocateBytes@?$CTempBuffer@E$0BAA@VCCRTAllocator@ATL@@@ATL@@QEAAPEAE_K@Z 000000018000c1a0 f i LineDisplay.obj
 0001:0000b230       ?AllocateBytes@?$CTempBuffer@_W$0BAA@VCCRTAllocator@ATL@@@ATL@@QEAAPEA_W_K@Z 000000018000c230 f i LineDisplay.obj
 0001:0000b2c0       ?AllocateBytes@?$CTempBuffer@_W$0EAA@VCCRTAllocator@ATL@@@ATL@@QEAAPEA_W_K@Z 000000018000c2c0 f i LineDisplay.obj
 0001:0000b350       ?AllocateHeap@?$CTempBuffer@E$0BAA@VCCRTAllocator@ATL@@@ATL@@AEAAX_K@Z 000000018000c350 f i LineDisplay.obj
 0001:0000b3a0       ?AllocateHeap@?$CTempBuffer@_W$0BAA@VCCRTAllocator@ATL@@@ATL@@AEAAX_K@Z 000000018000c3a0 f i LineDisplay.obj
 0001:0000b3f0       ?AllocateHeap@?$CTempBuffer@_W$0EAA@VCCRTAllocator@ATL@@@ATL@@AEAAX_K@Z 000000018000c3f0 f i LineDisplay.obj
 0001:0000b440       ?Append@CParseBuffer@CRegParser@ATL@@QEAAHPEB_WH@Z 000000018000c440 f i LineDisplay.obj
 0001:0000b660       ?AtlCallTermFunc@ATL@@YAXPEAU_ATL_MODULE70@1@@Z 000000018000c660 f i LineDisplay.obj
 0001:0000b700       ?AtlCoTaskMemCAlloc@ATL@@YAPEAXKK@Z 000000018000c700 f i LineDisplay.obj
 0001:0000b780       ?AtlCoTaskMemRecalloc@ATL@@YAPEAXPEAXKK@Z 000000018000c780 f i LineDisplay.obj
 0001:0000b800       ?AtlComModuleGetClassObject@ATL@@YAJPEAU_ATL_COM_MODULE70@1@AEBU_GUID@@1PEAPEAX@Z 000000018000c800 f i LineDisplay.obj
 0001:0000bb30       ?AtlComModuleRegisterServer@ATL@@YAJPEAU_ATL_COM_MODULE70@1@HPEBU_GUID@@@Z 000000018000cb30 f i LineDisplay.obj
 0001:0000bd20       ?AtlComModuleUnregisterServer@ATL@@YAJPEAU_ATL_COM_MODULE70@1@HPEBU_GUID@@@Z 000000018000cd20 f i LineDisplay.obj
 0001:0000be70       ?AtlComQIPtrAssign2@ATL@@YAXPEAPEAUIUnknown@@PEAU2@AEBU_GUID@@@Z 000000018000ce70 f i LineDisplay.obj
 0001:0000bee0       ?AtlCreateTargetDC@ATL@@YAPEAUHDC__@@PEAU2@PEAUtagDVTARGETDEVICE@@@Z 000000018000cee0 f i LineDisplay.obj
 0001:0000c110       ?AtlCrtErrorCheck@ATL@@YAHH@Z 000000018000d110 f i LineDisplay.obj
 0001:0000c180       ?AtlGetPerUserRegistration@ATL@@YAJPEA_N@Z 000000018000d180 f i LineDisplay.obj
 0001:0000c1b0       ?AtlHiMetricToPixel@ATL@@YAXPEBUtagSIZE@@PEAU2@@Z 000000018000d1b0 f i LineDisplay.obj
 0001:0000c390       ?AtlHresultFromLastError@ATL@@YAJXZ 000000018000d390 f i LineDisplay.obj
 0001:0000c3b0       ?AtlHresultFromWin32@ATL@@YAJK@Z 000000018000d3b0 f i LineDisplay.obj
 0001:0000c3d0       ?AtlIPersistStreamInit_Load@ATL@@YAJPEAUIStream@@PEBUATL_PROPMAP_ENTRY@1@PEAXPEAUIUnknown@@@Z 000000018000d3d0 f i LineDisplay.obj
 0001:0000ca50       ?AtlIPersistStreamInit_Save@ATL@@YAJPEAUIStream@@HPEBUATL_PROPMAP_ENTRY@1@PEAXPEAUIUnknown@@@Z 000000018000da50 f i LineDisplay.obj
 0001:0000cfe0       ?AtlInternalOleLoadFromStream@ATL@@YAJPEAUIStream@@AEBU_GUID@@PEAPEAXTClassesAllowedInStream@1@K@Z 000000018000dfe0 f i LineDisplay.obj
 0001:0000d320       ?AtlInternalQueryInterface@ATL@@YAJPEAXPEBU_ATL_INTMAP_ENTRY@1@AEBU_GUID@@PEAPEAX@Z 000000018000e320 f i LineDisplay.obj
 0001:0000d5d0       ?AtlLoadTypeLib@ATL@@YAJPEAUHINSTANCE__@@PEB_WPEAPEA_WPEAPEAUITypeLib@@@Z 000000018000e5d0 f i LineDisplay.obj
 0001:0000daa0       ?AtlModuleAddTermFunc@ATL@@YAJPEAU_ATL_MODULE70@1@P6AX_K@Z1@Z 000000018000eaa0 f i LineDisplay.obj
 0001:0000dc70       ?AtlRegisterClassCategoriesHelper@ATL@@YAJAEBU_GUID@@PEBU_ATL_CATMAP_ENTRY@1@H@Z 000000018000ec70 f i LineDisplay.obj
 0001:0000e440       ?AtlRegisterTypeLib@ATL@@YAJPEAUHINSTANCE__@@PEB_W@Z 000000018000f440 f i LineDisplay.obj
 0001:0000e7a0       ?AtlThrowImpl@ATL@@YAXJ@Z  000000018000f7a0 f i LineDisplay.obj
 0001:0000e870       ?AtlUnRegisterTypeLib@ATL@@YAJPEAUHINSTANCE__@@PEB_W@Z 000000018000f870 f i LineDisplay.obj
 0001:0000eaa0       ?AtlWinModuleAddCreateWndData@ATL@@YAXPEAU_ATL_WIN_MODULE70@1@PEAU_AtlCreateWndData@1@PEAX@Z 000000018000faa0 f i LineDisplay.obj
 0001:0000ec90       ?AtlWinModuleExtractCreateWndData@ATL@@YAPEAXPEAU_ATL_WIN_MODULE70@1@@Z 000000018000fc90 f i LineDisplay.obj
 0001:0000ee90       ?AtlWinModuleRegisterClassExW@ATL@@YAGPEAU_ATL_WIN_MODULE70@1@PEBUtagWNDCLASSEXW@@@Z 000000018000fe90 f i LineDisplay.obj
 0001:0000ef60       ?AtlWinModuleRegisterWndClassInfoW@ATL@@YAGPEAU_ATL_WIN_MODULE70@1@PEAU_ATL_BASE_MODULE70@1@PEAU_ATL_WNDCLASSINFOW@1@PEAP6A_JPEAUHWND__@@I_K_J@Z@Z 000000018000ff60 f i LineDisplay.obj
 0001:0000efd0       ?Attach@?$CAutoVectorPtr@_W@ATL@@QEAAXPEA_W@Z 000000018000ffd0 f i LineDisplay.obj
 0001:0000f040       ?Attach@CComBSTR@ATL@@QEAAXPEA_W@Z 0000000180010040 f i LineDisplay.obj
 0001:0000f080       ?Attach@CRegKey@ATL@@QEAAXPEAUHKEY__@@@Z 0000000180010080 f i LineDisplay.obj
 0001:0000f110       ?CanForceRemoveKey@CRegParser@ATL@@IEAAHPEB_W@Z 0000000180010110 f i LineDisplay.obj
 0001:0000f170       ?ChToByte@CRegParser@ATL@@KAE_W@Z 0000000180010170 f i LineDisplay.obj
 0001:0000f310       ?ChangeType@CComVariant@ATL@@QEAAJGPEBUtagVARIANT@@@Z 0000000180010310 f i LineDisplay.obj
 0001:0000f360       ?Cleanup@CComTypeInfoHolder@ATL@@SAX_K@Z 0000000180010360 f i LineDisplay.obj
 0001:0000f440       ?Clear@CComVariant@ATL@@QEAAJXZ 0000000180010440 f i LineDisplay.obj
 0001:0000f460       ?ClearReplacements@CExpansionVector@ATL@@QEAAJXZ 0000000180010460 f i LineDisplay.obj
 0001:0000f4f0       ?ClearReplacements@CRegObject@ATL@@UEAAJXZ 00000001800104f0 f i LineDisplay.obj
 0001:0000f540       ?Clone@?$CComEnumImpl@UIEnumConnectionPoints@@$1?_GUID_b196b285_bab4_101a_b69c_00aa00341d07@@3U__s_GUID@@BPEAUIConnectionPoint@@V?$_CopyInterface@UIConnectionPoint@@@ATL@@@ATL@@UEAAJPEAPEAUIEnumConnectionPoints@@@Z 0000000180010540 f i LineDisplay.obj
 0001:0000f730       ?Clone@?$CComEnumImpl@UIEnumConnections@@$1?_GUID_b196b287_bab4_101a_b69c_00aa00341d07@@3U__s_GUID@@BUtagCONNECTDATA@@V?$_Copy@UtagCONNECTDATA@@@ATL@@@ATL@@UEAAJPEAPEAUIEnumConnections@@@Z 0000000180010730 f i LineDisplay.obj
 0001:0000f920       ?Close@?$IOleObjectImpl@VCOPOSLineDisplay@@@ATL@@UEAAJK@Z 0000000180010920 f i LineDisplay.obj
 0001:0000f9c0       ?Close@CRegKey@ATL@@QEAAJXZ 00000001800109c0 f i LineDisplay.obj
 0001:0000fa20       ?ContextSensitiveHelp@?$IOleInPlaceActiveObjectImpl@VCOPOSLineDisplay@@@ATL@@UEAAJH@Z 0000000180010a20 f i LineDisplay.obj
 0001:0000fa90       ?ContextSensitiveHelp@?$IOleInPlaceObjectWindowlessImpl@VCOPOSLineDisplay@@@ATL@@UEAAJH@Z 0000000180010a90 f i LineDisplay.obj
 0001:0000fb00       ?ControlQueryInterface@?$CComControl@VCOPOSLineDisplay@@V?$CWindowImpl@VCOPOSLineDisplay@@VCWindow@ATL@@V?$CWinTraits@$0FGAAAAAA@$0A@@3@@ATL@@@ATL@@UEAAJAEBU_GUID@@PEAPEAX@Z 0000000180010b00 f i LineDisplay.obj
 0001:0000fb70       ?CreateControlWindow@?$CComControl@VCOPOSLineDisplay@@V?$CWindowImpl@VCOPOSLineDisplay@@VCWindow@ATL@@V?$CWinTraits@$0FGAAAAAA@$0A@@3@@ATL@@@ATL@@UEAAPEAUHWND__@@PEAU3@AEAUtagRECT@@@Z 0000000180010b70 f i LineDisplay.obj
 0001:0000fc40       ?CreateInstance@?$CComCreator@V?$CComAggObject@VCOPOSLineDisplay@@@ATL@@@ATL@@SAJPEAXAEBU_GUID@@PEAPEAX@Z 0000000180010c40 f i LineDisplay.obj
 0001:0000fe10       ?CreateInstance@?$CComCreator@V?$CComObject@VCOPOSLineDisplay@@@ATL@@@ATL@@SAJPEAXAEBU_GUID@@PEAPEAX@Z 0000000180010e10 f i LineDisplay.obj
 0001:0000fff0       ?CreateInstance@?$CComObject@V?$CComEnum@UIEnumConnectionPoints@@$1?_GUID_b196b285_bab4_101a_b69c_00aa00341d07@@3U__s_GUID@@BPEAUIConnectionPoint@@V?$_CopyInterface@UIConnectionPoint@@@ATL@@VCComSingleThreadModel@6@@ATL@@@ATL@@SAJPEAPEAV12@@Z 0000000180010ff0 f i LineDisplay.obj
 0001:000101a0       ?CreateInstance@?$CComObject@V?$CComEnum@UIEnumConnections@@$1?_GUID_b196b287_bab4_101a_b69c_00aa00341d07@@3U__s_GUID@@BUtagCONNECTDATA@@V?$_Copy@UtagCONNECTDATA@@@ATL@@VCComSingleThreadModel@6@@ATL@@@ATL@@SAJPEAPEAV12@@Z 00000001800111a0 f i LineDisplay.obj
 0001:00010350       ?CreateInstance@CComClassFactory@ATL@@UEAAJPEAUIUnknown@@AEBU_GUID@@PEAPEAX@Z 0000000180011350 f i LineDisplay.obj
 0001:00010460       ?DAdvise@?$IDataObjectImpl@VCOPOSLineDisplay@@@ATL@@UEAAJPEAUtagFORMATETC@@KPEAUIAdviseSink@@PEAK@Z 0000000180011460 f i LineDisplay.obj
 0001:000105a0       ?DEVMODEOLE2T_EX@@YAPEAU_devicemodeW@@PEAU1@@Z 00000001800115a0 f i LineDisplay.obj
 0001:000105b0       ?DUnadvise@?$IDataObjectImpl@VCOPOSLineDisplay@@@ATL@@UEAAJK@Z 00000001800115b0 f i LineDisplay.obj
 0001:000106a0       ?Decrement@CComMultiThreadModel@ATL@@SAKPEAJ@Z 00000001800116a0 f i LineDisplay.obj
 0001:000106c0       ?Decrement@CComSingleThreadModel@ATL@@SAKPEAJ@Z 00000001800116c0 f i LineDisplay.obj
 0001:000106e0       ?DefWindowProcW@?$CWindowImplBaseT@VCWindow@ATL@@V?$CWinTraits@$0FGAAAAAA@$0A@@2@@ATL@@QEAA_JI_K_J@Z 00000001800116e0 f i LineDisplay.obj
 0001:00010730       ?DefaultReflectionHandler@?$CWindowImplRoot@VCWindow@ATL@@@ATL@@SAHPEAUHWND__@@I_K_JAEA_J@Z 0000000180011730 f i LineDisplay.obj
 0001:00010a30       ?DeleteSubKey@CRegKey@ATL@@QEAAJPEB_W@Z 0000000180011a30 f i LineDisplay.obj
 0001:00010b40       ?DeleteValue@CRegKey@ATL@@QEAAJPEB_W@Z 0000000180011b40 f i LineDisplay.obj
 0001:00010bc0       ?Detach@?$CAutoVectorPtr@_W@ATL@@QEAAPEA_WXZ 0000000180011bc0 f i LineDisplay.obj
 0001:00010bf0       ?Detach@?$CComPtrBase@UIPersistStream@@@ATL@@QEAAPEAUIPersistStream@@XZ 0000000180011bf0 f i LineDisplay.obj
 0001:00010c20       ?Detach@?$CComPtrBase@UITypeInfo@@@ATL@@QEAAPEAUITypeInfo@@XZ 0000000180011c20 f i LineDisplay.obj
 0001:00010c50       ?Detach@?$CComPtrBase@UIUnknown@@@ATL@@QEAAPEAUIUnknown@@XZ 0000000180011c50 f i LineDisplay.obj
 0001:00010c80       ?Detach@CComBSTR@ATL@@QEAAPEA_WXZ 0000000180011c80 f i LineDisplay.obj
 0001:00010cb0       ?Detach@CParseBuffer@CRegParser@ATL@@QEAAPEA_WXZ 0000000180011cb0 f i LineDisplay.obj
 0001:00010d00       ?Detach@CRegKey@ATL@@QEAAPEAUHKEY__@@XZ 0000000180011d00 f i LineDisplay.obj
 0001:00010d50       ?DoEvent@COPOSLineDisplay@@IEAAXI_K_J@Z 0000000180011d50 f i LineDisplay.obj
 0001:00010e70       ?DoVerb@?$IOleObjectImpl@VCOPOSLineDisplay@@@ATL@@UEAAJJPEAUtagMSG@@PEAUIOleClientSite@@JPEAUHWND__@@PEBUtagRECT@@@Z 0000000180011e70 f i LineDisplay.obj
 0001:00011170       ?DoVerbDiscardUndo@?$IOleObjectImpl@VCOPOSLineDisplay@@@ATL@@QEAAJPEBUtagRECT@@PEAUHWND__@@@Z 0000000180012170 f i LineDisplay.obj
 0001:000111f0       ?DoVerbHide@?$IOleObjectImpl@VCOPOSLineDisplay@@@ATL@@QEAAJPEBUtagRECT@@PEAUHWND__@@@Z 00000001800121f0 f i LineDisplay.obj
 0001:000112c0       ?DoVerbInPlaceActivate@?$IOleObjectImpl@VCOPOSLineDisplay@@@ATL@@QEAAJPEBUtagRECT@@PEAUHWND__@@@Z 00000001800122c0 f i LineDisplay.obj
 0001:00011380       ?DoVerbOpen@?$IOleObjectImpl@VCOPOSLineDisplay@@@ATL@@QEAAJPEBUtagRECT@@PEAUHWND__@@@Z 0000000180012380 f i LineDisplay.obj
 0001:00011400       ?DoVerbPrimary@?$IOleObjectImpl@VCOPOSLineDisplay@@@ATL@@QEAAJPEBUtagRECT@@PEAUHWND__@@@Z 0000000180012400 f i LineDisplay.obj
 0001:00011540       ?DoVerbProperties@CComControlBase@ATL@@QEAAJPEBUtagRECT@@PEAUHWND__@@@Z 0000000180012540 f i LineDisplay.obj
 0001:000118f0       ?DoVerbShow@?$IOleObjectImpl@VCOPOSLineDisplay@@@ATL@@QEAAJPEBUtagRECT@@PEAUHWND__@@@Z 00000001800128f0 f i LineDisplay.obj
 0001:000119a0       ?DoVerbUIActivate@?$IOleObjectImpl@VCOPOSLineDisplay@@@ATL@@QEAAJPEBUtagRECT@@PEAUHWND__@@@Z 00000001800129a0 f i LineDisplay.obj
 0001:00011a60       ?DoesVerbActivate@CComControlBase@ATL@@QEAAHJ@Z 0000000180012a60 f i LineDisplay.obj
 0001:00011ab0       ?DoesVerbUIActivate@CComControlBase@ATL@@QEAAHJ@Z 0000000180012ab0 f i LineDisplay.obj
 0001:00011b20       ?Draw@?$IViewObjectExImpl@VCOPOSLineDisplay@@@ATL@@UEAAJKJPEAXPEAUtagDVTARGETDEVICE@@PEAUHDC__@@2PEBU_RECTL@@3P6AH_K@Z4@Z 0000000180012b20 f i LineDisplay.obj
 0001:00011c30       ?Empty@CComBSTR@ATL@@QEAAXXZ 0000000180012c30 f i LineDisplay.obj
 0001:00011c60       ?EnableModeless@?$IOleInPlaceActiveObjectImpl@VCOPOSLineDisplay@@@ATL@@UEAAJH@Z 0000000180012c60 f i LineDisplay.obj
 0001:00011cc0       ?EndOfVar@CRegParser@ATL@@IEAAHXZ 0000000180012cc0 f i LineDisplay.obj
 0001:00011d10       ?EnsureTI@CComTypeInfoHolder@ATL@@QEAAJK@Z 0000000180012d10 f i LineDisplay.obj
 0001:00011d60       ?EnumAdvise@?$IOleObjectImpl@VCOPOSLineDisplay@@@ATL@@UEAAJPEAPEAUIEnumSTATDATA@@@Z 0000000180012d60 f i LineDisplay.obj
 0001:00011eb0       ?EnumConnectionPoints@?$IConnectionPointContainerImpl@VCOPOSLineDisplay@@@ATL@@UEAAJPEAPEAUIEnumConnectionPoints@@@Z 0000000180012eb0 f i LineDisplay.obj
 0001:000123a0       ?EnumConnections@?$IConnectionPointImpl@VCOPOSLineDisplay@@$1?DIID__IOPOSLineDisplayEvents@@3U_GUID@@BVCComDynamicUnkArray@ATL@@@ATL@@UEAAJPEAPEAUIEnumConnections@@@Z 00000001800133a0 f i LineDisplay.obj
 0001:000126d0       ?EnumConnections@?$IConnectionPointImpl@VCOPOSLineDisplay@@$1?IID_IPropertyNotifySink@@3U_GUID@@BVCComDynamicUnkArray@ATL@@@ATL@@UEAAJPEAPEAUIEnumConnections@@@Z 00000001800136d0 f i LineDisplay.obj
 0001:00012a00       ?EnumDAdvise@?$IDataObjectImpl@VCOPOSLineDisplay@@@ATL@@UEAAJPEAPEAUIEnumSTATDATA@@@Z 0000000180013a00 f i LineDisplay.obj
 0001:00012b30       ?EnumFormatEtc@?$IDataObjectImpl@VCOPOSLineDisplay@@@ATL@@UEAAJKPEAPEAUIEnumFORMATETC@@@Z 0000000180013b30 f i LineDisplay.obj
 0001:00012bb0       ?EnumVerbs@?$IOleObjectImpl@VCOPOSLineDisplay@@@ATL@@UEAAJPEAPEAUIEnumOLEVERB@@@Z 0000000180013bb0 f i LineDisplay.obj
 0001:00012c70       ?EscapeSingleQuote@CAtlModule@ATL@@SAXPEA_W_KPEB_W@Z 0000000180013c70 f i LineDisplay.obj
 0001:00012d50       ?ExtractCreateWndData@CAtlWinModule@ATL@@QEAAPEAXXZ 0000000180013d50 f i LineDisplay.obj
 0001:00012d70       ?FAccessAllowed@?$IObjectSafetyImpl@VCOPOSLineDisplay@@$02@ATL@@MEAAHXZ 0000000180013d70 f i LineDisplay.obj
 0001:00012d80       ?FinalConstruct@?$CComAggObject@VCOPOSLineDisplay@@@ATL@@QEAAJXZ 0000000180013d80 f i LineDisplay.obj
 0001:00012dc0       ?FinalConstruct@CComObjectRootBase@ATL@@QEAAJXZ 0000000180013dc0 f i LineDisplay.obj
 0001:00012dd0       ?FinalConstruct@CRegObject@ATL@@QEAAJXZ 0000000180013dd0 f i LineDisplay.obj
 0001:00012e00       ?FinalRelease@?$CComAggObject@VCOPOSLineDisplay@@@ATL@@QEAAXXZ 0000000180013e00 f i LineDisplay.obj
 0001:00012e40       ?FinalRelease@CComObjectRootBase@ATL@@QEAAXXZ 0000000180013e40 f i LineDisplay.obj
 0001:00012e50       ?FindConnectionPoint@?$IConnectionPointContainerImpl@VCOPOSLineDisplay@@@ATL@@UEAAJAEBU_GUID@@PEAPEAUIConnectionPoint@@@Z 0000000180013e50 f i LineDisplay.obj
 0001:00012fc0       ?FindKey@?$CSimpleMap@PEA_WPEA_WVCExpansionVectorEqualHelper@ATL@@@ATL@@QEBAHAEBQEA_W@Z 0000000180013fc0 f i LineDisplay.obj
 0001:00013030       ?FireTheEvent@?$CProxy_IOPOSEvents@VCOPOSLineDisplay@@@@IEAAXPEAUIUnknown@@PEAVOposVariant@@IAEAJPEB_WJ@Z 0000000180014030 f i LineDisplay.obj
 0001:00013210       ?FireViewChange@CComControlBase@ATL@@QEAAJXZ 0000000180014210 f i LineDisplay.obj
 0001:000132e0       ?Fire_DirectIOEvent@?$CProxy_IOPOSEvents@VCOPOSLineDisplay@@@@QEAAXJPEAJPEAPEA_W@Z 00000001800142e0 f i LineDisplay.obj
 0001:00013580       ?Fire_StatusUpdateEvent@?$CProxy_IOPOSEvents@VCOPOSLineDisplay@@@@QEAAXJ@Z 0000000180014580 f i LineDisplay.obj
 0001:00013770       ?FormatWindowClassName@AtlModuleRegisterWndClassInfoParamW@ATL@@SAXPEA_WKPEAX@Z 0000000180014770 f i LineDisplay.obj
 0001:000137b0       ?Free@?$CAutoVectorPtr@_W@ATL@@QEAAXXZ 00000001800147b0 f i LineDisplay.obj
 0001:000137f0       ?FreeHeap@?$CTempBuffer@E$0BAA@VCCRTAllocator@ATL@@@ATL@@AEAAXXZ 00000001800147f0 f i LineDisplay.obj
 0001:00013810       ?FreeHeap@?$CTempBuffer@_W$0BAA@VCCRTAllocator@ATL@@@ATL@@AEAAXXZ 0000000180014810 f i LineDisplay.obj
 0001:00013830       ?FreeHeap@?$CTempBuffer@_W$0EAA@VCCRTAllocator@ATL@@@ATL@@AEAAXXZ 0000000180014830 f i LineDisplay.obj
 0001:00013850       ?Freeze@?$IViewObjectExImpl@VCOPOSLineDisplay@@@ATL@@UEAAJKJPEAXPEAK@Z 0000000180014850 f i LineDisplay.obj
 0001:000138d0       ?GenerateError@CRegParser@ATL@@IEAAJI@Z 00000001800148d0 f i LineDisplay.obj
 0001:000138f0       ?GetAdvise@?$IViewObjectExImpl@VCOPOSLineDisplay@@@ATL@@UEAAJPEAK0PEAPEAUIAdviseSink@@@Z 00000001800148f0 f i LineDisplay.obj
 0001:00013a30       ?GetAmbientLocaleID@CComControlBase@ATL@@QEAAJAEAK@Z 0000000180014a30 f i LineDisplay.obj
 0001:00013b10       ?GetAmbientProperty@CComControlBase@ATL@@QEAAJJAEAUtagVARIANT@@@Z 0000000180014b10 f i LineDisplay.obj
 0001:00013b60       ?GetAmbientUserMode@CComControlBase@ATL@@QEAAJAEAH@Z 0000000180014b60 f i LineDisplay.obj
 0001:00013c80       ?GetAppId@?$CAtlModuleT@VCComModule@ATL@@@ATL@@SAPEB_WXZ 0000000180014c80 f i LineDisplay.obj
 0001:00013c90       ?GetAt@CComDynamicUnkArray@ATL@@QEAAPEAUIUnknown@@H@Z 0000000180014c90 f i LineDisplay.obj
 0001:00013d20       ?GetCanonicalFormatEtc@?$IDataObjectImpl@VCOPOSLineDisplay@@@ATL@@UEAAJPEAUtagFORMATETC@@0@Z 0000000180014d20 f i LineDisplay.obj
 0001:00013da0       ?GetClassID@?$IPersistStorageImpl@VCOPOSLineDisplay@@@ATL@@UEAAJPEAU_GUID@@@Z 0000000180014da0 f i LineDisplay.obj
 0001:00013e20       ?GetClassID@?$IPersistStreamInitImpl@VCOPOSLineDisplay@@@ATL@@UEAAJPEAU_GUID@@@Z 0000000180014e20 f i LineDisplay.obj
 0001:00013ea0       ?GetClassInfoExW@AtlModuleRegisterWndClassInfoParamW@ATL@@SAHPEAUHINSTANCE__@@PEB_WPEAUtagWNDCLASSEXW@@@Z 0000000180014ea0 f i LineDisplay.obj
 0001:00013ed0       ?GetClassInfoW@?$IProvideClassInfo2Impl@$1?CLSID_OPOSLineDisplay@@3U_GUID@@B$1?DIID__IOPOSLineDisplayEvents@@3U2@B$1?LIBID_OposLineDisplay_CCO@@3U2@B$00$0A@VCComTypeInfoHolder@ATL@@@ATL@@UEAAJPEAPEAUITypeInfo@@@Z 0000000180014ed0 f i LineDisplay.obj
 0001:00013f00       ?GetClassObject@CComModule@ATL@@QEAAJAEBU_GUID@@0PEAPEAX@Z 0000000180014f00 f i LineDisplay.obj
 0001:00014170       ?GetClientSite@?$IOleObjectImpl@VCOPOSLineDisplay@@@ATL@@UEAAJPEAPEAUIOleClientSite@@@Z 0000000180015170 f i LineDisplay.obj
 0001:00014210       ?GetClipboardData@?$IOleObjectImpl@VCOPOSLineDisplay@@@ATL@@UEAAJKPEAPEAUIDataObject@@@Z 0000000180015210 f i LineDisplay.obj
 0001:00014290       ?GetCodeAddress@CDynamicStdCallThunk2@ATL@@QEAAPEAXXZ 0000000180015290 f i LineDisplay.obj
 0001:000142b0       ?GetColorSet@?$IViewObjectExImpl@VCOPOSLineDisplay@@@ATL@@UEAAJKJPEAXPEAUtagDVTARGETDEVICE@@PEAUHDC__@@PEAPEAUtagLOGPALETTE@@@Z 00000001800152b0 f i LineDisplay.obj
 0001:00014330       ?GetConnMap@COPOSLineDisplay@@SAPEBU_ATL_CONNMAP_ENTRY@ATL@@PEAH@Z 0000000180015330 f i LineDisplay.obj
 0001:00014480       ?GetConnectionInterface@?$IConnectionPointImpl@VCOPOSLineDisplay@@$1?DIID__IOPOSLineDisplayEvents@@3U_GUID@@BVCComDynamicUnkArray@ATL@@@ATL@@UEAAJPEAU_GUID@@@Z 0000000180015480 f i LineDisplay.obj
 0001:000144c0       ?GetConnectionInterface@?$IConnectionPointImpl@VCOPOSLineDisplay@@$1?IID_IPropertyNotifySink@@3U_GUID@@BVCComDynamicUnkArray@ATL@@@ATL@@UEAAJPEAU_GUID@@@Z 00000001800154c0 f i LineDisplay.obj
 0001:00014500       ?GetConnectionPointContainer@?$IConnectionPointImpl@VCOPOSLineDisplay@@$1?DIID__IOPOSLineDisplayEvents@@3U_GUID@@BVCComDynamicUnkArray@ATL@@@ATL@@UEAAJPEAPEAUIConnectionPointContainer@@@Z 0000000180015500 f i LineDisplay.obj
 0001:00014560       ?GetConnectionPointContainer@?$IConnectionPointImpl@VCOPOSLineDisplay@@$1?IID_IPropertyNotifySink@@3U_GUID@@BVCComDynamicUnkArray@ATL@@@ATL@@UEAAJPEAPEAUIConnectionPointContainer@@@Z 0000000180015560 f i LineDisplay.obj
 0001:000145c0       ?GetContentExtent@?$IQuickActivateImpl@VCOPOSLineDisplay@@@ATL@@UEAAJPEAUtagSIZE@@@Z 00000001800155c0 f i LineDisplay.obj
 0001:00014670       ?GetControlInfo@?$IOleControlImpl@VCOPOSLineDisplay@@@ATL@@UEAAJPEAUtagCONTROLINFO@@@Z 0000000180015670 f i LineDisplay.obj
 0001:000146e0       ?GetCookie@CComDynamicUnkArray@ATL@@QEAAKPEAPEAUIUnknown@@@Z 00000001800156e0 f i LineDisplay.obj
 0001:000147c0       ?GetData@?$IDataObjectImpl@VCOPOSLineDisplay@@@ATL@@UEAAJPEAUtagFORMATETC@@PEAUtagSTGMEDIUM@@@Z 00000001800157c0 f i LineDisplay.obj
 0001:00014870       ?GetData@CAtlSafeAllocBufferNode@?$CAtlSafeAllocBufferManager@VCCRTAllocator@ATL@@@_ATL_SAFE_ALLOCA_IMPL@ATL@@QEAAPEAXXZ 0000000180015870 f i LineDisplay.obj
 0001:00014890       ?GetDataHere@?$IDataObjectImpl@VCOPOSLineDisplay@@@ATL@@UEAAJPEAUtagFORMATETC@@PEAUtagSTGMEDIUM@@@Z 0000000180015890 f i LineDisplay.obj
 0001:00014910       ?GetDropTarget@?$IOleInPlaceObjectWindowlessImpl@VCOPOSLineDisplay@@@ATL@@UEAAJPEAPEAUIDropTarget@@@Z 0000000180015910 f i LineDisplay.obj
 0001:00014980       ?GetExtent@?$IOleObjectImpl@VCOPOSLineDisplay@@@ATL@@UEAAJKPEAUtagSIZE@@@Z 0000000180015980 f i LineDisplay.obj
 0001:00014a40       ?GetExtent@?$IViewObjectExImpl@VCOPOSLineDisplay@@@ATL@@UEAAJKJPEAUtagDVTARGETDEVICE@@PEAUtagSIZE@@@Z 0000000180015a40 f i LineDisplay.obj
 0001:00014b40       ?GetGITPtr@CAtlModule@ATL@@UEAAJPEAPEAUIGlobalInterfaceTable@@@Z 0000000180015b40 f i LineDisplay.obj
 0001:00014c70       ?GetGUID@?$IProvideClassInfo2Impl@$1?CLSID_OPOSLineDisplay@@3U_GUID@@B$1?DIID__IOPOSLineDisplayEvents@@3U2@B$1?LIBID_OposLineDisplay_CCO@@3U2@B$00$0A@VCComTypeInfoHolder@ATL@@@ATL@@UEAAJKPEAU_GUID@@@Z 0000000180015c70 f i LineDisplay.obj
 0001:00014cf0       ?GetIDsOfNames@?$IDispatchImpl@UIOPOSLineDisplay@@$1?IID_IOPOSLineDisplay@@3U_GUID@@B$1?LIBID_OposLineDisplay_CCO@@3U3@B$00$0A@VCComTypeInfoHolder@ATL@@@ATL@@UEAAJAEBU_GUID@@PEAPEA_WIKPEAJ@Z 0000000180015cf0 f i LineDisplay.obj
 0001:00014d40       ?GetIDsOfNames@CComTypeInfoHolder@ATL@@QEAAJAEBU_GUID@@PEAPEA_WIKPEAJ@Z 0000000180015d40 f i LineDisplay.obj
 0001:00014f50       ?GetInterfaceSafetyOptions@?$IObjectSafetyImpl@VCOPOSLineDisplay@@$02@ATL@@UEAAJAEBU_GUID@@PEAK1@Z 0000000180015f50 f i LineDisplay.obj
 0001:000150f0       ?GetKeyAt@?$CSimpleMap@PEA_WPEA_WVCExpansionVectorEqualHelper@ATL@@@ATL@@QEBAAEAPEA_WH@Z 00000001800160f0 f i LineDisplay.obj
 0001:00015190       ?GetLockCount@CAtlModule@ATL@@UEAAJXZ 0000000180016190 f i LineDisplay.obj
 0001:000151a0       ?GetMiscStatus@?$IOleObjectImpl@VCOPOSLineDisplay@@@ATL@@UEAAJKPEAK@Z 00000001800161a0 f i LineDisplay.obj
 0001:00015220       ?GetMoniker@?$IOleObjectImpl@VCOPOSLineDisplay@@@ATL@@UEAAJKKPEAPEAUIMoniker@@@Z 0000000180016220 f i LineDisplay.obj
 0001:000152a0       ?GetNaturalExtent@?$IViewObjectExImpl@VCOPOSLineDisplay@@@ATL@@UEAAJKJPEAUtagDVTARGETDEVICE@@PEAUHDC__@@PEAUtagExtentInfo@@PEAUtagSIZE@@@Z 00000001800162a0 f i LineDisplay.obj
 0001:00015420       ?GetObjectCLSID@?$CComCoClass@VCOPOSLineDisplay@@$1?CLSID_OPOSLineDisplay@@3U_GUID@@B@ATL@@SAAEBU_GUID@@XZ 0000000180016420 f i LineDisplay.obj
 0001:00015430       ?GetPages@?$ISpecifyPropertyPagesImpl@VCOPOSLineDisplay@@@ATL@@UEAAJPEAUtagCAUUID@@@Z 0000000180016430 f i LineDisplay.obj
 0001:000154b0       ?GetPagesHelper@?$ISpecifyPropertyPagesImpl@VCOPOSLineDisplay@@@ATL@@IEAAJPEAUtagCAUUID@@PEBUATL_PROPMAP_ENTRY@2@@Z 00000001800164b0 f i LineDisplay.obj
 0001:00015710       ?GetProperty@?$CComPtr@UIDispatch@@@ATL@@QEAAJJPEAUtagVARIANT@@@Z 0000000180016710 f i LineDisplay.obj
 0001:00015740       ?GetProperty@?$CComPtr@UIDispatch@@@ATL@@SAJPEAUIDispatch@@JPEAUtagVARIANT@@@Z 0000000180016740 f i LineDisplay.obj
 0001:00015910       ?GetPropertyMap@COPOSLineDisplay@@SAPEBUATL_PROPMAP_ENTRY@ATL@@XZ 0000000180016910 f i LineDisplay.obj
 0001:00015920       ?GetRect@?$IViewObjectExImpl@VCOPOSLineDisplay@@@ATL@@UEAAJKPEAU_RECTL@@@Z 0000000180016920 f i LineDisplay.obj
 0001:000159a0       ?GetSize@?$CSimpleMap@PEA_WPEA_WVCExpansionVectorEqualHelper@ATL@@@ATL@@QEBAHXZ 00000001800169a0 f i LineDisplay.obj
 0001:000159b0       ?GetSize@CComDynamicUnkArray@ATL@@QEBAHXZ 00000001800169b0 f i LineDisplay.obj
 0001:000159c0       ?GetSizeMax@?$IPersistStreamInitImpl@VCOPOSLineDisplay@@@ATL@@UEAAJPEAT_ULARGE_INTEGER@@@Z 00000001800169c0 f i LineDisplay.obj
 0001:00016160       ?GetSizeMax@CComVariant@ATL@@QEBAJPEAT_ULARGE_INTEGER@@@Z 0000000180017160 f i LineDisplay.obj
 0001:000165b0       ?GetStreamSize@CComBSTR@ATL@@SAKPEA_W@Z 00000001800175b0 f i LineDisplay.obj
 0001:000165f0       ?GetTI@CComTypeInfoHolder@ATL@@QEAAJK@Z 00000001800175f0 f i LineDisplay.obj
 0001:00016ec0       ?GetTI@CComTypeInfoHolder@ATL@@QEAAJKPEAPEAUITypeInfo@@@Z 0000000180017ec0 f i LineDisplay.obj
 0001:00016fa0       ?GetTypeInfo@?$IDispatchImpl@UIOPOSLineDisplay@@$1?IID_IOPOSLineDisplay@@3U_GUID@@B$1?LIBID_OposLineDisplay_CCO@@3U3@B$00$0A@VCComTypeInfoHolder@ATL@@@ATL@@UEAAJIKPEAPEAUITypeInfo@@@Z 0000000180017fa0 f i LineDisplay.obj
 0001:00016fe0       ?GetTypeInfo@CComTypeInfoHolder@ATL@@QEAAJIKPEAPEAUITypeInfo@@@Z 0000000180017fe0 f i LineDisplay.obj
 0001:00017020       ?GetTypeInfoCount@?$IDispatchImpl@UIOPOSLineDisplay@@$1?IID_IOPOSLineDisplay@@3U_GUID@@B$1?LIBID_OposLineDisplay_CCO@@3U3@B$00$0A@VCComTypeInfoHolder@ATL@@@ATL@@UEAAJPEAI@Z 0000000180018020 f i LineDisplay.obj
 0001:00017050       ?GetUnknown@CComDynamicUnkArray@ATL@@QEAAPEAUIUnknown@@K@Z 0000000180018050 f i LineDisplay.obj
 0001:000170e0       ?GetUnknown@COPOSLineDisplay@@QEAAPEAUIUnknown@@XZ 00000001800180e0 f i LineDisplay.obj
 0001:00017100       ?GetUserClassID@?$IOleObjectImpl@VCOPOSLineDisplay@@@ATL@@UEAAJPEAU_GUID@@@Z 0000000180018100 f i LineDisplay.obj
 0001:000171c0       ?GetUserType@?$IOleObjectImpl@VCOPOSLineDisplay@@@ATL@@UEAAJKPEAPEA_W@Z 00000001800181c0 f i LineDisplay.obj
 0001:00017240       ?GetValueAt@?$CSimpleMap@PEA_WPEA_WVCExpansionVectorEqualHelper@ATL@@@ATL@@QEBAAEAPEA_WH@Z 0000000180018240 f i LineDisplay.obj
 0001:000172e0       ?GetViewStatus@?$IViewObjectExImpl@VCOPOSLineDisplay@@@ATL@@UEAAJPEAK@Z 00000001800182e0 f i LineDisplay.obj
 0001:000173d0       ?GetWNDPROC@CWndProcThunk@ATL@@QEAAP6A_JPEAUHWND__@@I_K_J@ZXZ 00000001800183d0 f i LineDisplay.obj
 0001:00017400       ?GetWindow@?$IOleInPlaceActiveObjectImpl@VCOPOSLineDisplay@@@ATL@@UEAAJPEAPEAUHWND__@@@Z 0000000180018400 f i LineDisplay.obj
 0001:000174f0       ?GetWindow@?$IOleInPlaceObjectWindowlessImpl@VCOPOSLineDisplay@@@ATL@@UEAAJPEAPEAUHWND__@@@Z 00000001800184f0 f i LineDisplay.obj
 0001:000175e0       ?GetWindowProc@?$CWindowImplBaseT@VCWindow@ATL@@V?$CWinTraits@$0FGAAAAAA@$0A@@2@@ATL@@UEAAP6A_JPEAUHWND__@@I_K_J@ZXZ 00000001800185e0 f i LineDisplay.obj
 0001:000175f0       ?GetWndCaption@?$CWindowImpl@VCOPOSLineDisplay@@VCWindow@ATL@@V?$CWinTraits@$0FGAAAAAA@$0A@@3@@ATL@@SAPEB_WXZ 00000001800185f0 f i LineDisplay.obj
 0001:00017600       ?GetWndClassInfo@?$CWindowImpl@VCOPOSLineDisplay@@VCWindow@ATL@@V?$CWinTraits@$0FGAAAAAA@$0A@@3@@ATL@@SAAEAU_ATL_WNDCLASSINFOW@2@XZ 0000000180018600 f i LineDisplay.obj
 0001:00017610       ?GetWndClassName@CWindow@ATL@@SAPEB_WXZ 0000000180018610 f i LineDisplay.obj
 0001:00017620       ?GetWndExStyle@?$CWinTraits@$0FGAAAAAA@$0A@@ATL@@SAKK@Z 0000000180018620 f i LineDisplay.obj
 0001:00017650       ?GetWndExStyle@?$CWindowImplBaseT@VCWindow@ATL@@V?$CWinTraits@$0FGAAAAAA@$0A@@2@@ATL@@SAKK@Z 0000000180018650 f i LineDisplay.obj
 0001:00017670       ?GetWndStyle@?$CWinTraits@$0FGAAAAAA@$0A@@ATL@@SAKK@Z 0000000180018670 f i LineDisplay.obj
 0001:000176a0       ?GetWndStyle@?$CWindowImplBaseT@VCWindow@ATL@@V?$CWinTraits@$0FGAAAAAA@$0A@@2@@ATL@@SAKK@Z 00000001800186a0 f i LineDisplay.obj
 0001:000176c0       ?GetZoomInfo@CComControlBase@ATL@@QEAAXAEAUATL_DRAWINFO@@@Z 00000001800186c0 f i LineDisplay.obj
 0001:00017870       ?HKeyFromString@CRegParser@ATL@@KAPEAUHKEY__@@PEA_W@Z 0000000180018870 f i LineDisplay.obj
 0001:000178e0       ?HandsOffStorage@?$IPersistStorageImpl@VCOPOSLineDisplay@@@ATL@@UEAAJXZ 00000001800188e0 f i LineDisplay.obj
 0001:00017940       ?HasSubKeys@CRegParser@ATL@@IEAAHPEAUHKEY__@@@Z 0000000180018940 f i LineDisplay.obj
 0001:00017ab0       ?IDataObject_GetData@CComControlBase@ATL@@QEAAJPEAUtagFORMATETC@@PEAUtagSTGMEDIUM@@@Z 0000000180018ab0 f i LineDisplay.obj
 0001:00017f60       ?IOleInPlaceObject_InPlaceDeactivate@CComControlBase@ATL@@QEAAJXZ 0000000180018f60 f i LineDisplay.obj
 0001:000181d0       ?IOleInPlaceObject_SetObjectRects@CComControlBase@ATL@@QEAAJPEBUtagRECT@@0@Z 00000001800191d0 f i LineDisplay.obj
 0001:000183c0       ?IOleInPlaceObject_UIDeactivate@CComControlBase@ATL@@QEAAJXZ 00000001800193c0 f i LineDisplay.obj
 0001:00018630       ?IOleObject_Advise@CComControlBase@ATL@@QEAAJPEAUIAdviseSink@@PEAK@Z 0000000180019630 f i LineDisplay.obj
 0001:000186d0       ?IOleObject_Close@CComControlBase@ATL@@QEAAJK@Z 00000001800196d0 f i LineDisplay.obj
 0001:00018a40       ?IOleObject_GetClientSite@CComControlBase@ATL@@QEAAJPEAPEAUIOleClientSite@@@Z 0000000180019a40 f i LineDisplay.obj
 0001:00018b00       ?IOleObject_SetClientSite@CComControlBase@ATL@@QEAAJPEAUIOleClientSite@@@Z 0000000180019b00 f i LineDisplay.obj
 0001:00018c00       ?IOleObject_SetExtent@CComControlBase@ATL@@QEAAJKPEAUtagSIZE@@@Z 0000000180019c00 f i LineDisplay.obj
 0001:00018d50       ?IPSI_GetIPersistStreamInit@?$IPersistStorageImpl@VCOPOSLineDisplay@@@ATL@@AEAAPEAUIPersistStreamInit@@XZ 0000000180019d50 f i LineDisplay.obj
 0001:00018e10       ?IPersistStreamInit_Load@?$IPersistStreamInitImpl@VCOPOSLineDisplay@@@ATL@@QEAAJPEAUIStream@@PEBUATL_PROPMAP_ENTRY@2@@Z 0000000180019e10 f i LineDisplay.obj
 0001:00018ea0       ?IPersistStreamInit_Save@?$IPersistStreamInitImpl@VCOPOSLineDisplay@@@ATL@@QEAAJPEAUIStream@@HPEBUATL_PROPMAP_ENTRY@2@@Z 0000000180019ea0 f i LineDisplay.obj
 0001:00018f40       ?IQuickActivate_QuickActivate@CComControlBase@ATL@@QEAAJPEAUtagQACONTAINER@@PEAUtagQACONTROL@@@Z 0000000180019f40 f i LineDisplay.obj
 0001:00019780       ?IViewObject_Draw@CComControlBase@ATL@@QEAAJKJPEAXPEAUtagDVTARGETDEVICE@@PEAUHDC__@@2PEBU_RECTL@@3@Z 000000018001a780 f i LineDisplay.obj
 0001:00019bd0       ?InPlaceActivate@CComControlBase@ATL@@QEAAJJPEBUtagRECT@@@Z 000000018001abd0 f i LineDisplay.obj
 0001:0001a770       ?InPlaceDeactivate@?$IOleInPlaceObjectWindowlessImpl@VCOPOSLineDisplay@@@ATL@@UEAAJXZ 000000018001b770 f i LineDisplay.obj
 0001:0001a800       ?Increment@CComMultiThreadModel@ATL@@SAKPEAJ@Z 000000018001b800 f i LineDisplay.obj
 0001:0001a820       ?Increment@CComSingleThreadModel@ATL@@SAKPEAJ@Z 000000018001b820 f i LineDisplay.obj
 0001:0001a840       ?Init@?$CComEnumImpl@UIEnumConnectionPoints@@$1?_GUID_b196b285_bab4_101a_b69c_00aa00341d07@@3U__s_GUID@@BPEAUIConnectionPoint@@V?$_CopyInterface@UIConnectionPoint@@@ATL@@@ATL@@QEAAJPEAPEAUIConnectionPoint@@0PEAUIUnknown@@W4CComEnumFlags@2@@Z 000000018001b840 f i LineDisplay.obj
 0001:0001ab20       ?Init@?$CComEnumImpl@UIEnumConnections@@$1?_GUID_b196b287_bab4_101a_b69c_00aa00341d07@@3U__s_GUID@@BUtagCONNECTDATA@@V?$_Copy@UtagCONNECTDATA@@@ATL@@@ATL@@QEAAJPEAUtagCONNECTDATA@@0PEAUIUnknown@@W4CComEnumFlags@2@@Z 000000018001bb20 f i LineDisplay.obj
 0001:0001ae00       ?Init@CComFakeCriticalSection@ATL@@QEAAJXZ 000000018001be00 f i LineDisplay.obj
 0001:0001ae10       ?Init@CComModule@ATL@@QEAAJPEAU_ATL_OBJMAP_ENTRY30@2@PEAUHINSTANCE__@@PEBU_GUID@@@Z 000000018001be10 f i LineDisplay.obj
 0001:0001aef0       ?Init@CComSafeDeleteCriticalSection@ATL@@QEAAJXZ 000000018001bef0 f i LineDisplay.obj
 0001:0001af70       ?Init@CDynamicStdCallThunk2@ATL@@QEAAH_KPEAX@Z 000000018001bf70 f i LineDisplay.obj
 0001:0001afd0       ?Init@CWndProcThunk@ATL@@QEAAHP6A_JPEAUHWND__@@I_K_J@ZPEAX@Z 000000018001bfd0 f i LineDisplay.obj
 0001:0001b010       ?InitFromData@?$IOleObjectImpl@VCOPOSLineDisplay@@@ATL@@UEAAJPEAUIDataObject@@HK@Z 000000018001c010 f i LineDisplay.obj
 0001:0001b090       ?InitLibId@?$CAtlModuleT@VCComModule@ATL@@@ATL@@SAXXZ 000000018001c090 f i LineDisplay.obj
 0001:0001b0a0       ?InitNew@?$IPersistStorageImpl@VCOPOSLineDisplay@@@ATL@@UEAAJPEAUIStorage@@@Z 000000018001c0a0 f i LineDisplay.obj
 0001:0001b190       ?InitNew@?$IPersistStreamInitImpl@VCOPOSLineDisplay@@@ATL@@UEAAJXZ 000000018001c190 f i LineDisplay.obj
 0001:0001b230       ?InlineIsEqualUnknown@ATL@@YAHAEBU_GUID@@@Z 000000018001c230 f i LineDisplay.obj
 0001:0001b2b0       ?InternalAddRef@?$CComObjectRootEx@VCComMultiThreadModel@ATL@@@ATL@@QEAAKXZ 000000018001c2b0 f i LineDisplay.obj
 0001:0001b320       ?InternalAddRef@?$CComObjectRootEx@VCComSingleThreadModel@ATL@@@ATL@@QEAAKXZ 000000018001c320 f i LineDisplay.obj
 0001:0001b390       ?InternalFinalConstructAddRef@CComObjectRootBase@ATL@@QEAAXXZ 000000018001c390 f i LineDisplay.obj
 0001:0001b3a0       ?InternalFinalConstructAddRef@COPOSLineDisplay@@QEAAXXZ 000000018001c3a0 f i LineDisplay.obj
 0001:0001b3d0       ?InternalFinalConstructRelease@CComObjectRootBase@ATL@@QEAAXXZ 000000018001c3d0 f i LineDisplay.obj
 0001:0001b430       ?InternalFinalConstructRelease@COPOSLineDisplay@@QEAAXXZ 000000018001c430 f i LineDisplay.obj
 0001:0001b460       ?InternalGetSite@CComControlBase@ATL@@QEAAJAEBU_GUID@@PEAPEAX@Z 000000018001c460 f i LineDisplay.obj
 0001:0001b530       ?InternalQueryInterface@CComObjectRootBase@ATL@@SAJPEAXPEBU_ATL_INTMAP_ENTRY@2@AEBU_GUID@@PEAPEAX@Z 000000018001c530 f i LineDisplay.obj
 0001:0001b640       ?InternalRelease@?$CComObjectRootEx@VCComMultiThreadModel@ATL@@@ATL@@QEAAKXZ 000000018001c640 f i LineDisplay.obj
 0001:0001b6b0       ?InternalRelease@?$CComObjectRootEx@VCComSingleThreadModel@ATL@@@ATL@@QEAAKXZ 000000018001c6b0 f i LineDisplay.obj
 0001:0001b720       ?InternalSetAtIndex@?$CSimpleArray@GV?$CSimpleArrayEqualHelper@G@ATL@@@ATL@@QEAAXHAEBG@Z 000000018001c720 f i LineDisplay.obj
 0001:0001b790       ?InternalSetAtIndex@?$CSimpleMap@PEA_WPEA_WVCExpansionVectorEqualHelper@ATL@@@ATL@@QEAAXHAEBQEA_W0@Z 000000018001c790 f i LineDisplay.obj
 0001:0001b850       ?Invoke@?$IDispatchImpl@UIOPOSLineDisplay@@$1?IID_IOPOSLineDisplay@@3U_GUID@@B$1?LIBID_OposLineDisplay_CCO@@3U3@B$00$0A@VCComTypeInfoHolder@ATL@@@ATL@@UEAAJJAEBU_GUID@@KGPEAUtagDISPPARAMS@@PEAUtagVARIANT@@PEAUtagEXCEPINFO@@PEAI@Z 000000018001c850 f i LineDisplay.obj
 0001:0001b8e0       ?Invoke@CComTypeInfoHolder@ATL@@QEAAJPEAUIDispatch@@JAEBU_GUID@@KGPEAUtagDISPPARAMS@@PEAUtagVARIANT@@PEAUtagEXCEPINFO@@PEAI@Z 000000018001c8e0 f i LineDisplay.obj
 0001:0001b990       ?IsDirty@?$IPersistStorageImpl@VCOPOSLineDisplay@@@ATL@@UEAAJXZ 000000018001c990 f i LineDisplay.obj
 0001:0001ba80       ?IsDirty@?$IPersistStreamInitImpl@VCOPOSLineDisplay@@@ATL@@UEAAJXZ 000000018001ca80 f i LineDisplay.obj
 0001:0001bb30       ?IsEqualKey@CExpansionVectorEqualHelper@ATL@@SA_NQEA_W0@Z 000000018001cb30 f i LineDisplay.obj
 0001:0001bb60       ?IsEqualObject@?$CComPtrBase@UIOleClientSite@@@ATL@@QEAA_NPEAUIUnknown@@@Z 000000018001cb60 f i LineDisplay.obj
 0001:0001bcb0       ?IsEqualObject@?$CComPtrBase@UITypeInfo@@@ATL@@QEAA_NPEAUIUnknown@@@Z 000000018001ccb0 f i LineDisplay.obj
 0001:0001be00       ?IsSpace@CRegParser@ATL@@IEAAH_W@Z 000000018001ce00 f i LineDisplay.obj
 0001:0001be40       ?IsUpToDate@?$IOleObjectImpl@VCOPOSLineDisplay@@@ATL@@UEAAJXZ 000000018001ce40 f i LineDisplay.obj
 0001:0001bea0       ?Length@CComBSTR@ATL@@QEBAIXZ 000000018001cea0 f i LineDisplay.obj
 0001:0001bec0       ?Load@?$IPersistStorageImpl@VCOPOSLineDisplay@@@ATL@@UEAAJPEAUIStorage@@@Z 000000018001cec0 f i LineDisplay.obj
 0001:0001c070       ?Load@?$IPersistStreamInitImpl@VCOPOSLineDisplay@@@ATL@@UEAAJPEAUIStream@@@Z 000000018001d070 f i LineDisplay.obj
 0001:0001c120       ?LoadCursorW@AtlModuleRegisterWndClassInfoParamW@ATL@@SAPEAUHICON__@@PEAUHINSTANCE__@@PEB_W@Z 000000018001d120 f i LineDisplay.obj
 0001:0001c150       ?LoadNameCache@CComTypeInfoHolder@ATL@@QEAAJPEAUITypeInfo@@@Z 000000018001d150 f i LineDisplay.obj
 0001:0001c490       ?Lock@?$CComCritSecLock@VCComCriticalSection@ATL@@@ATL@@QEAAJXZ 000000018001d490 f i LineDisplay.obj
 0001:0001c560       ?Lock@?$CComObjectRootEx@VCComSingleThreadModel@ATL@@@ATL@@QEAAXXZ 000000018001d560 f i LineDisplay.obj
 0001:0001c570       ?Lock@CAtlModule@ATL@@UEAAJXZ 000000018001d570 f i LineDisplay.obj
 0001:0001c5a0       ?Lock@CComCriticalSection@ATL@@QEAAJXZ 000000018001d5a0 f i LineDisplay.obj
 0001:0001c5c0       ?Lock@CComFakeCriticalSection@ATL@@QEAAJXZ 000000018001d5c0 f i LineDisplay.obj
 0001:0001c5d0       ?LockServer@CComClassFactory@ATL@@UEAAJH@Z 000000018001d5d0 f i LineDisplay.obj
 0001:0001c620       ?Lookup@?$CSimpleMap@PEA_WPEA_WVCExpansionVectorEqualHelper@ATL@@@ATL@@QEBAPEA_WAEBQEA_W@Z 000000018001d620 f i LineDisplay.obj
 0001:0001c670       ?Next@?$CComEnumImpl@UIEnumConnectionPoints@@$1?_GUID_b196b285_bab4_101a_b69c_00aa00341d07@@3U__s_GUID@@BPEAUIConnectionPoint@@V?$_CopyInterface@UIConnectionPoint@@@ATL@@@ATL@@UEAAJKPEAPEAUIConnectionPoint@@PEAK@Z 000000018001d670 f i LineDisplay.obj
 0001:0001c820       ?Next@?$CComEnumImpl@UIEnumConnections@@$1?_GUID_b196b287_bab4_101a_b69c_00aa00341d07@@3U__s_GUID@@BUtagCONNECTDATA@@V?$_Copy@UtagCONNECTDATA@@@ATL@@@ATL@@UEAAJKPEAUtagCONNECTDATA@@PEAK@Z 000000018001d820 f i LineDisplay.obj
 0001:0001c9d0       ?NextToken@CRegParser@ATL@@IEAAJPEA_W@Z 000000018001d9d0 f i LineDisplay.obj
 0001:0001cd50       ?OLE2CT_EX@@YAPEB_WPEB_WI@Z 000000018001dd50 f i LineDisplay.obj
 0001:0001cd70       ?OLE2CT_EX_DEF@@YAPEB_WPEB_W@Z 000000018001dd70 f i LineDisplay.obj
 0001:0001cd80       ?OLE2T_EX@@YAPEA_WPEA_WI@Z 000000018001dd80 f i LineDisplay.obj
 0001:0001cda0       ?OnAmbientPropertyChange@?$IOleControlImpl@VCOPOSLineDisplay@@@ATL@@UEAAJJ@Z 000000018001dda0 f i LineDisplay.obj
 0001:0001ce50       ?OnDocWindowActivate@?$IOleInPlaceActiveObjectImpl@VCOPOSLineDisplay@@@ATL@@UEAAJH@Z 000000018001de50 f i LineDisplay.obj
 0001:0001cef0       ?OnDrawAdvanced@CComControlBase@ATL@@UEAAJAEAUATL_DRAWINFO@@@Z 000000018001def0 f i LineDisplay.obj
 0001:0001d140       ?OnFinalMessage@?$CWindowImplBaseT@VCWindow@ATL@@V?$CWinTraits@$0FGAAAAAA@$0A@@2@@ATL@@UEAAXPEAUHWND__@@@Z 000000018001e140 f i LineDisplay.obj
 0001:0001d150       ?OnFrameWindowActivate@?$IOleInPlaceActiveObjectImpl@VCOPOSLineDisplay@@@ATL@@UEAAJH@Z 000000018001e150 f i LineDisplay.obj
 0001:0001d1b0       ?OnKillFocus@CComControlBase@ATL@@QEAA_JI_K_JAEAH@Z 000000018001e1b0 f i LineDisplay.obj
 0001:0001d2b0       ?OnMnemonic@?$IOleControlImpl@VCOPOSLineDisplay@@@ATL@@UEAAJPEAUtagMSG@@@Z 000000018001e2b0 f i LineDisplay.obj
 0001:0001d320       ?OnMouseActivate@CComControlBase@ATL@@QEAA_JI_K_JAEAH@Z 000000018001e320 f i LineDisplay.obj
 0001:0001d4c0       ?OnPaint@CComControlBase@ATL@@QEAA_JI_K_JAEAH@Z 000000018001e4c0 f i LineDisplay.obj
 0001:0001d650       ?OnPostVerbDiscardUndo@?$IOleObjectImpl@VCOPOSLineDisplay@@@ATL@@QEAAJXZ 000000018001e650 f i LineDisplay.obj
 0001:0001d660       ?OnPostVerbHide@?$IOleObjectImpl@VCOPOSLineDisplay@@@ATL@@QEAAJXZ 000000018001e660 f i LineDisplay.obj
 0001:0001d670       ?OnPostVerbInPlaceActivate@?$IOleObjectImpl@VCOPOSLineDisplay@@@ATL@@QEAAJXZ 000000018001e670 f i LineDisplay.obj
 0001:0001d680       ?OnPostVerbOpen@?$IOleObjectImpl@VCOPOSLineDisplay@@@ATL@@QEAAJXZ 000000018001e680 f i LineDisplay.obj
 0001:0001d690       ?OnPostVerbShow@?$IOleObjectImpl@VCOPOSLineDisplay@@@ATL@@QEAAJXZ 000000018001e690 f i LineDisplay.obj
 0001:0001d6a0       ?OnPostVerbUIActivate@?$IOleObjectImpl@VCOPOSLineDisplay@@@ATL@@QEAAJXZ 000000018001e6a0 f i LineDisplay.obj
 0001:0001d6b0       ?OnPreVerbDiscardUndo@?$IOleObjectImpl@VCOPOSLineDisplay@@@ATL@@QEAAJXZ 000000018001e6b0 f i LineDisplay.obj
 0001:0001d6c0       ?OnPreVerbHide@?$IOleObjectImpl@VCOPOSLineDisplay@@@ATL@@QEAAJXZ 000000018001e6c0 f i LineDisplay.obj
 0001:0001d6d0       ?OnPreVerbInPlaceActivate@?$IOleObjectImpl@VCOPOSLineDisplay@@@ATL@@QEAAJXZ 000000018001e6d0 f i LineDisplay.obj
 0001:0001d6e0       ?OnPreVerbOpen@?$IOleObjectImpl@VCOPOSLineDisplay@@@ATL@@QEAAJXZ 000000018001e6e0 f i LineDisplay.obj
 0001:0001d6f0       ?OnPreVerbShow@?$IOleObjectImpl@VCOPOSLineDisplay@@@ATL@@QEAAJXZ 000000018001e6f0 f i LineDisplay.obj
 0001:0001d700       ?OnPreVerbUIActivate@?$IOleObjectImpl@VCOPOSLineDisplay@@@ATL@@QEAAJXZ 000000018001e700 f i LineDisplay.obj
 0001:0001d710       ?OnSetFocus@CComControlBase@ATL@@QEAA_JI_K_JAEAH@Z 000000018001e710 f i LineDisplay.obj
 0001:0001d910       ?OnWindowMessage@?$IOleInPlaceObjectWindowlessImpl@VCOPOSLineDisplay@@@ATL@@UEAAJI_K_JPEA_J@Z 000000018001e910 f i LineDisplay.obj
 0001:0001db30       ?Open@CRegKey@ATL@@QEAAJPEAUHKEY__@@PEB_WK@Z 000000018001eb30 f i LineDisplay.obj
 0001:0001dcb0       ?OuterAddRef@CComObjectRootBase@ATL@@QEAAKXZ 000000018001ecb0 f i LineDisplay.obj
 0001:0001dce0       ?OuterQueryInterface@CComObjectRootBase@ATL@@QEAAJAEBU_GUID@@PEAPEAX@Z 000000018001ece0 f i LineDisplay.obj
 0001:0001dd20       ?OuterRelease@CComObjectRootBase@ATL@@QEAAKXZ 000000018001ed20 f i LineDisplay.obj
 0001:0001dd50       ?PreProcessBuffer@CRegParser@ATL@@QEAAJPEA_WPEAPEA_W@Z 000000018001ed50 f i LineDisplay.obj
 0001:0001e430       ?PreTranslateAccelerator@CComControlBase@ATL@@QEAAHPEAUtagMSG@@AEAJ@Z 000000018001f430 f i LineDisplay.obj
 0001:0001e450       ?ProcessWindowMessage@?$CComControl@VCOPOSLineDisplay@@V?$CWindowImpl@VCOPOSLineDisplay@@VCWindow@ATL@@V?$CWinTraits@$0FGAAAAAA@$0A@@3@@ATL@@@ATL@@UEAAHPEAUHWND__@@I_K_JAEA_JK@Z 000000018001f450 f i LineDisplay.obj
 0001:0001e6d0       ?ProcessWindowMessage@COPOSLineDisplay@@UEAAHPEAUHWND__@@I_K_JAEA_JK@Z 000000018001f6d0 f i LineDisplay.obj
 0001:0001e830       ?PutProperty@?$CComPtr@UIDispatch@@@ATL@@QEAAJJPEAUtagVARIANT@@@Z 000000018001f830 f i LineDisplay.obj
 0001:0001e860       ?PutProperty@?$CComPtr@UIDispatch@@@ATL@@SAJPEAUIDispatch@@JPEAUtagVARIANT@@@Z 000000018001f860 f i LineDisplay.obj
 0001:0001eb10       ?QueryGetData@?$IDataObjectImpl@VCOPOSLineDisplay@@@ATL@@UEAAJPEAUtagFORMATETC@@@Z 000000018001fb10 f i LineDisplay.obj
 0001:0001eb80       ?QueryHitPoint@?$IViewObjectExImpl@VCOPOSLineDisplay@@@ATL@@UEAAJKPEBUtagRECT@@UtagPOINT@@JPEAK@Z 000000018001fb80 f i LineDisplay.obj
 0001:0001ece0       ?QueryHitRect@?$IViewObjectExImpl@VCOPOSLineDisplay@@@ATL@@UEAAJKPEBUtagRECT@@0JPEAK@Z 000000018001fce0 f i LineDisplay.obj
 0001:0001eeb0       ?QueryInterface@?$CComAggObject@VCOPOSLineDisplay@@@ATL@@UEAAJAEBU_GUID@@PEAPEAX@Z 000000018001feb0 f i LineDisplay.obj
 0001:0001ef80       ?QueryInterface@?$CComContainedObject@VCOPOSLineDisplay@@@ATL@@UEAAJAEBU_GUID@@PEAPEAX@Z 000000018001ff80 f i LineDisplay.obj
 0001:0001efb8       ?QueryInterface@?$CComContainedObject@VCOPOSLineDisplay@@@ATL@@WBAA@EAAJAEBU_GUID@@PEAPEAX@Z 000000018001ffb8 f i LineDisplay.obj
 0001:0001efc4       ?QueryInterface@?$CComContainedObject@VCOPOSLineDisplay@@@ATL@@WBAI@EAAJAEBU_GUID@@PEAPEAX@Z 000000018001ffc4 f i LineDisplay.obj
 0001:0001efd0       ?QueryInterface@?$CComContainedObject@VCOPOSLineDisplay@@@ATL@@WBBA@EAAJAEBU_GUID@@PEAPEAX@Z 000000018001ffd0 f i LineDisplay.obj
 0001:0001efdc       ?QueryInterface@?$CComContainedObject@VCOPOSLineDisplay@@@ATL@@WBBI@EAAJAEBU_GUID@@PEAPEAX@Z 000000018001ffdc f i LineDisplay.obj
 0001:0001efe8       ?QueryInterface@?$CComContainedObject@VCOPOSLineDisplay@@@ATL@@WLI@EAAJAEBU_GUID@@PEAPEAX@Z 000000018001ffe8 f i LineDisplay.obj
 0001:0001eff4       ?QueryInterface@?$CComContainedObject@VCOPOSLineDisplay@@@ATL@@WMA@EAAJAEBU_GUID@@PEAPEAX@Z 000000018001fff4 f i LineDisplay.obj
 0001:0001f000       ?QueryInterface@?$CComContainedObject@VCOPOSLineDisplay@@@ATL@@WMI@EAAJAEBU_GUID@@PEAPEAX@Z 0000000180020000 f i LineDisplay.obj
 0001:0001f00c       ?QueryInterface@?$CComContainedObject@VCOPOSLineDisplay@@@ATL@@WNA@EAAJAEBU_GUID@@PEAPEAX@Z 000000018002000c f i LineDisplay.obj
 0001:0001f018       ?QueryInterface@?$CComContainedObject@VCOPOSLineDisplay@@@ATL@@WNI@EAAJAEBU_GUID@@PEAPEAX@Z 0000000180020018 f i LineDisplay.obj
 0001:0001f024       ?QueryInterface@?$CComContainedObject@VCOPOSLineDisplay@@@ATL@@WOA@EAAJAEBU_GUID@@PEAPEAX@Z 0000000180020024 f i LineDisplay.obj
 0001:0001f030       ?QueryInterface@?$CComContainedObject@VCOPOSLineDisplay@@@ATL@@WOI@EAAJAEBU_GUID@@PEAPEAX@Z 0000000180020030 f i LineDisplay.obj
 0001:0001f03c       ?QueryInterface@?$CComContainedObject@VCOPOSLineDisplay@@@ATL@@WPA@EAAJAEBU_GUID@@PEAPEAX@Z 000000018002003c f i LineDisplay.obj
 0001:0001f048       ?QueryInterface@?$CComContainedObject@VCOPOSLineDisplay@@@ATL@@WPI@EAAJAEBU_GUID@@PEAPEAX@Z 0000000180020048 f i LineDisplay.obj
 0001:0001f060       ?QueryInterface@?$CComObject@V?$CComEnum@UIEnumConnectionPoints@@$1?_GUID_b196b285_bab4_101a_b69c_00aa00341d07@@3U__s_GUID@@BPEAUIConnectionPoint@@V?$_CopyInterface@UIConnectionPoint@@@ATL@@VCComSingleThreadModel@6@@ATL@@@ATL@@UEAAJAEBU_GUID@@PEAPEAX@Z 0000000180020060 f i LineDisplay.obj
 0001:0001f090       ?QueryInterface@?$CComObject@V?$CComEnum@UIEnumConnections@@$1?_GUID_b196b287_bab4_101a_b69c_00aa00341d07@@3U__s_GUID@@BUtagCONNECTDATA@@V?$_Copy@UtagCONNECTDATA@@@ATL@@VCComSingleThreadModel@6@@ATL@@@ATL@@UEAAJAEBU_GUID@@PEAPEAX@Z 0000000180020090 f i LineDisplay.obj
 0001:0001f0c0       ?QueryInterface@?$CComObject@VCOPOSLineDisplay@@@ATL@@UEAAJAEBU_GUID@@PEAPEAX@Z 00000001800200c0 f i LineDisplay.obj
 0001:0001f0f0       ?QueryInterface@?$CComObject@VCOPOSLineDisplay@@@ATL@@WBAA@EAAJAEBU_GUID@@PEAPEAX@Z 00000001800200f0 f i LineDisplay.obj
 0001:0001f0fc       ?QueryInterface@?$CComObject@VCOPOSLineDisplay@@@ATL@@WBAI@EAAJAEBU_GUID@@PEAPEAX@Z 00000001800200fc f i LineDisplay.obj
 0001:0001f108       ?QueryInterface@?$CComObject@VCOPOSLineDisplay@@@ATL@@WBBA@EAAJAEBU_GUID@@PEAPEAX@Z 0000000180020108 f i LineDisplay.obj
 0001:0001f114       ?QueryInterface@?$CComObject@VCOPOSLineDisplay@@@ATL@@WBBI@EAAJAEBU_GUID@@PEAPEAX@Z 0000000180020114 f i LineDisplay.obj
 0001:0001f120       ?QueryInterface@?$CComObject@VCOPOSLineDisplay@@@ATL@@WLI@EAAJAEBU_GUID@@PEAPEAX@Z 0000000180020120 f i LineDisplay.obj
 0001:0001f12c       ?QueryInterface@?$CComObject@VCOPOSLineDisplay@@@ATL@@WMA@EAAJAEBU_GUID@@PEAPEAX@Z 000000018002012c f i LineDisplay.obj
 0001:0001f138       ?QueryInterface@?$CComObject@VCOPOSLineDisplay@@@ATL@@WMI@EAAJAEBU_GUID@@PEAPEAX@Z 0000000180020138 f i LineDisplay.obj
 0001:0001f144       ?QueryInterface@?$CComObject@VCOPOSLineDisplay@@@ATL@@WNA@EAAJAEBU_GUID@@PEAPEAX@Z 0000000180020144 f i LineDisplay.obj
 0001:0001f150       ?QueryInterface@?$CComObject@VCOPOSLineDisplay@@@ATL@@WNI@EAAJAEBU_GUID@@PEAPEAX@Z 0000000180020150 f i LineDisplay.obj
 0001:0001f15c       ?QueryInterface@?$CComObject@VCOPOSLineDisplay@@@ATL@@WOA@EAAJAEBU_GUID@@PEAPEAX@Z 000000018002015c f i LineDisplay.obj
 0001:0001f168       ?QueryInterface@?$CComObject@VCOPOSLineDisplay@@@ATL@@WOI@EAAJAEBU_GUID@@PEAPEAX@Z 0000000180020168 f i LineDisplay.obj
 0001:0001f174       ?QueryInterface@?$CComObject@VCOPOSLineDisplay@@@ATL@@WPA@EAAJAEBU_GUID@@PEAPEAX@Z 0000000180020174 f i LineDisplay.obj
 0001:0001f180       ?QueryInterface@?$CComObject@VCOPOSLineDisplay@@@ATL@@WPI@EAAJAEBU_GUID@@PEAPEAX@Z 0000000180020180 f i LineDisplay.obj
 0001:0001f190       ?QueryInterface@?$CComObjectCached@VCComClassFactory@ATL@@@ATL@@UEAAJAEBU_GUID@@PEAPEAX@Z 0000000180020190 f i LineDisplay.obj
 0001:0001f1c0       ?QueryInterface@CRegObject@ATL@@UEAAJAEBU_GUID@@PEAPEAX@Z 00000001800201c0 f i LineDisplay.obj
 0001:0001f230       ?QuickActivate@?$IQuickActivateImpl@VCOPOSLineDisplay@@@ATL@@UEAAJPEAUtagQACONTAINER@@PEAUtagQACONTROL@@@Z 0000000180020230 f i LineDisplay.obj
 0001:0001f2e0       ?ReactivateAndUndo@?$IOleInPlaceObjectWindowlessImpl@VCOPOSLineDisplay@@@ATL@@UEAAJXZ 00000001800202e0 f i LineDisplay.obj
 0001:0001f350       ?ReadFromStream@CComBSTR@ATL@@QEAAJPEAUIStream@@@Z 0000000180020350 f i LineDisplay.obj
 0001:0001f830       ?ReadFromStream@CComVariant@ATL@@QEAAJPEAUIStream@@GTClassesAllowedInStream@2@K@Z 0000000180020830 f i LineDisplay.obj
 0001:0001fc70       ?RecurseDeleteKey@CRegKey@ATL@@QEAAJPEB_W@Z 0000000180020c70 f i LineDisplay.obj
 0001:0001fe90       ?RegCreateKeyExW@CAtlTransactionManager@ATL@@QEAAJPEAUHKEY__@@PEB_WKPEA_WKKQEAU_SECURITY_ATTRIBUTES@@PEAPEAU3@PEAK@Z 0000000180020e90 f i LineDisplay.obj
 0001:00020040       ?RegDeleteKeyW@CAtlTransactionManager@ATL@@QEAAJPEAUHKEY__@@PEB_W@Z 0000000180021040 f i LineDisplay.obj
 0001:00020140       ?RegOpenKeyExW@CAtlTransactionManager@ATL@@QEAAJPEAUHKEY__@@PEB_WKKPEAPEAU3@@Z 0000000180021140 f i LineDisplay.obj
 0001:00020280       ?Register@_ATL_WNDCLASSINFOW@ATL@@QEAAGPEAP6A_JPEAUHWND__@@I_K_J@Z@Z 0000000180021280 f i LineDisplay.obj
 0001:000202c0       ?RegisterBuffer@CRegParser@ATL@@QEAAJPEA_WH@Z 00000001800212c0 f i LineDisplay.obj
 0001:000206b0       ?RegisterClassExW@AtlModuleRegisterWndClassInfoParamW@ATL@@SAGPEAU_ATL_WIN_MODULE70@2@PEBUtagWNDCLASSEXW@@@Z 00000001800216b0 f i LineDisplay.obj
 0001:000206e0       ?RegisterFromResource@CRegObject@ATL@@IEAAJPEB_W00H@Z 00000001800216e0 f i LineDisplay.obj
 0001:00020b40       ?RegisterServer@?$CAtlModuleT@VCComModule@ATL@@@ATL@@QEAAJHPEBU_GUID@@@Z 0000000180021b40 f i LineDisplay.obj
 0001:00020ba0       ?RegisterServer@CAtlComModule@ATL@@QEAAJHPEBU_GUID@@@Z 0000000180021ba0 f i LineDisplay.obj
 0001:00020bd0       ?RegisterServer@CComModule@ATL@@QEAAJHPEBU_GUID@@@Z 0000000180021bd0 f i LineDisplay.obj
 0001:00020cb0       ?RegisterSubkeys@CRegParser@ATL@@IEAAJPEA_WPEAUHKEY__@@HH@Z 0000000180021cb0 f i LineDisplay.obj
 0001:00021a90       ?Release@?$CComAggObject@VCOPOSLineDisplay@@@ATL@@UEAAKXZ 0000000180022a90 f i LineDisplay.obj
 0001:00021b40       ?Release@?$CComContainedObject@VCOPOSLineDisplay@@@ATL@@UEAAKXZ 0000000180022b40 f i LineDisplay.obj
 0001:00021b64       ?Release@?$CComContainedObject@VCOPOSLineDisplay@@@ATL@@WBAA@EAAKXZ 0000000180022b64 f i LineDisplay.obj
 0001:00021b70       ?Release@?$CComContainedObject@VCOPOSLineDisplay@@@ATL@@WBAI@EAAKXZ 0000000180022b70 f i LineDisplay.obj
 0001:00021b7c       ?Release@?$CComContainedObject@VCOPOSLineDisplay@@@ATL@@WBBA@EAAKXZ 0000000180022b7c f i LineDisplay.obj
 0001:00021b88       ?Release@?$CComContainedObject@VCOPOSLineDisplay@@@ATL@@WBBI@EAAKXZ 0000000180022b88 f i LineDisplay.obj
 0001:00021b94       ?Release@?$CComContainedObject@VCOPOSLineDisplay@@@ATL@@WBCI@EAAKXZ 0000000180022b94 f i LineDisplay.obj
 0001:00021ba0       ?Release@?$CComContainedObject@VCOPOSLineDisplay@@@ATL@@WBEA@EAAKXZ 0000000180022ba0 f i LineDisplay.obj
 0001:00021bac       ?Release@?$CComContainedObject@VCOPOSLineDisplay@@@ATL@@WLI@EAAKXZ 0000000180022bac f i LineDisplay.obj
 0001:00021bb8       ?Release@?$CComContainedObject@VCOPOSLineDisplay@@@ATL@@WMA@EAAKXZ 0000000180022bb8 f i LineDisplay.obj
 0001:00021bc4       ?Release@?$CComContainedObject@VCOPOSLineDisplay@@@ATL@@WMI@EAAKXZ 0000000180022bc4 f i LineDisplay.obj
 0001:00021bd0       ?Release@?$CComContainedObject@VCOPOSLineDisplay@@@ATL@@WNA@EAAKXZ 0000000180022bd0 f i LineDisplay.obj
 0001:00021bdc       ?Release@?$CComContainedObject@VCOPOSLineDisplay@@@ATL@@WNI@EAAKXZ 0000000180022bdc f i LineDisplay.obj
 0001:00021be8       ?Release@?$CComContainedObject@VCOPOSLineDisplay@@@ATL@@WOA@EAAKXZ 0000000180022be8 f i LineDisplay.obj
 0001:00021bf4       ?Release@?$CComContainedObject@VCOPOSLineDisplay@@@ATL@@WOI@EAAKXZ 0000000180022bf4 f i LineDisplay.obj
 0001:00021c00       ?Release@?$CComContainedObject@VCOPOSLineDisplay@@@ATL@@WPA@EAAKXZ 0000000180022c00 f i LineDisplay.obj
 0001:00021c0c       ?Release@?$CComContainedObject@VCOPOSLineDisplay@@@ATL@@WPI@EAAKXZ 0000000180022c0c f i LineDisplay.obj
 0001:00021c20       ?Release@?$CComObject@V?$CComEnum@UIEnumConnectionPoints@@$1?_GUID_b196b285_bab4_101a_b69c_00aa00341d07@@3U__s_GUID@@BPEAUIConnectionPoint@@V?$_CopyInterface@UIConnectionPoint@@@ATL@@VCComSingleThreadModel@6@@ATL@@@ATL@@UEAAKXZ 0000000180022c20 f i LineDisplay.obj
 0001:00021cd0       ?Release@?$CComObject@V?$CComEnum@UIEnumConnections@@$1?_GUID_b196b287_bab4_101a_b69c_00aa00341d07@@3U__s_GUID@@BUtagCONNECTDATA@@V?$_Copy@UtagCONNECTDATA@@@ATL@@VCComSingleThreadModel@6@@ATL@@@ATL@@UEAAKXZ 0000000180022cd0 f i LineDisplay.obj
 0001:00021d80       ?Release@?$CComObject@VCOPOSLineDisplay@@@ATL@@UEAAKXZ 0000000180022d80 f i LineDisplay.obj
 0001:00021e38       ?Release@?$CComObject@VCOPOSLineDisplay@@@ATL@@WBAA@EAAKXZ 0000000180022e38 f i LineDisplay.obj
 0001:00021e44       ?Release@?$CComObject@VCOPOSLineDisplay@@@ATL@@WBAI@EAAKXZ 0000000180022e44 f i LineDisplay.obj
 0001:00021e50       ?Release@?$CComObject@VCOPOSLineDisplay@@@ATL@@WBBA@EAAKXZ 0000000180022e50 f i LineDisplay.obj
 0001:00021e5c       ?Release@?$CComObject@VCOPOSLineDisplay@@@ATL@@WBBI@EAAKXZ 0000000180022e5c f i LineDisplay.obj
 0001:00021e68       ?Release@?$CComObject@VCOPOSLineDisplay@@@ATL@@WBCI@EAAKXZ 0000000180022e68 f i LineDisplay.obj
 0001:00021e74       ?Release@?$CComObject@VCOPOSLineDisplay@@@ATL@@WBEA@EAAKXZ 0000000180022e74 f i LineDisplay.obj
 0001:00021e80       ?Release@?$CComObject@VCOPOSLineDisplay@@@ATL@@WLI@EAAKXZ 0000000180022e80 f i LineDisplay.obj
 0001:00021e8c       ?Release@?$CComObject@VCOPOSLineDisplay@@@ATL@@WMA@EAAKXZ 0000000180022e8c f i LineDisplay.obj
 0001:00021e98       ?Release@?$CComObject@VCOPOSLineDisplay@@@ATL@@WMI@EAAKXZ 0000000180022e98 f i LineDisplay.obj
 0001:00021ea4       ?Release@?$CComObject@VCOPOSLineDisplay@@@ATL@@WNA@EAAKXZ 0000000180022ea4 f i LineDisplay.obj
 0001:00021eb0       ?Release@?$CComObject@VCOPOSLineDisplay@@@ATL@@WNI@EAAKXZ 0000000180022eb0 f i LineDisplay.obj
 0001:00021ebc       ?Release@?$CComObject@VCOPOSLineDisplay@@@ATL@@WOA@EAAKXZ 0000000180022ebc f i LineDisplay.obj
 0001:00021ec8       ?Release@?$CComObject@VCOPOSLineDisplay@@@ATL@@WOI@EAAKXZ 0000000180022ec8 f i LineDisplay.obj
 0001:00021ed4       ?Release@?$CComObject@VCOPOSLineDisplay@@@ATL@@WPA@EAAKXZ 0000000180022ed4 f i LineDisplay.obj
 0001:00021ee0       ?Release@?$CComObject@VCOPOSLineDisplay@@@ATL@@WPI@EAAKXZ 0000000180022ee0 f i LineDisplay.obj
 0001:00021ef0       ?Release@?$CComObjectCached@VCComClassFactory@ATL@@@ATL@@UEAAKXZ 0000000180022ef0 f i LineDisplay.obj
 0001:00021f80       ?Release@?$CComPtrBase@UIAdviseSink@@@ATL@@QEAAXXZ 0000000180022f80 f i LineDisplay.obj
 0001:00021fd0       ?Release@?$CComPtrBase@UIDispatch@@@ATL@@QEAAXXZ 0000000180022fd0 f i LineDisplay.obj
 0001:00022020       ?Release@?$CComPtrBase@UIOleInPlaceSiteWindowless@@@ATL@@QEAAXXZ 0000000180023020 f i LineDisplay.obj
 0001:00022070       ?Release@CRegObject@ATL@@UEAAKXZ 0000000180023070 f i LineDisplay.obj
 0001:000220d0       ?Remove@CComDynamicUnkArray@ATL@@QEAAHK@Z 00000001800230d0 f i LineDisplay.obj
 0001:00022190       ?RemoveAll@?$CSimpleMap@PEA_WPEA_WVCExpansionVectorEqualHelper@ATL@@@ATL@@QEAAXXZ 0000000180023190 f i LineDisplay.obj
 0001:00022220       ?Reset@?$CComEnumImpl@UIEnumConnectionPoints@@$1?_GUID_b196b285_bab4_101a_b69c_00aa00341d07@@3U__s_GUID@@BPEAUIConnectionPoint@@V?$_CopyInterface@UIConnectionPoint@@@ATL@@@ATL@@UEAAJXZ 0000000180023220 f i LineDisplay.obj
 0001:00022240       ?Reset@?$CComEnumImpl@UIEnumConnections@@$1?_GUID_b196b287_bab4_101a_b69c_00aa00341d07@@3U__s_GUID@@BUtagCONNECTDATA@@V?$_Copy@UtagCONNECTDATA@@@ATL@@@ATL@@UEAAJXZ 0000000180023240 f i LineDisplay.obj
 0001:00022260       ?ResizeBorder@?$IOleInPlaceActiveObjectImpl@VCOPOSLineDisplay@@@ATL@@UEAAJPEBUtagRECT@@PEAUIOleInPlaceUIWindow@@H@Z 0000000180023260 f i LineDisplay.obj
 0001:000222d0       ?ResourceRegister@CRegObject@ATL@@QEAAJPEB_WI0@Z 00000001800232d0 f i LineDisplay.obj
 0001:000223b0       ?ResourceRegisterSz@CRegObject@ATL@@QEAAJPEB_W00@Z 00000001800233b0 f i LineDisplay.obj
 0001:000224d0       ?ResourceUnregister@CRegObject@ATL@@QEAAJPEB_WI0@Z 00000001800234d0 f i LineDisplay.obj
 0001:000225b0       ?ResourceUnregisterSz@CRegObject@ATL@@QEAAJPEB_W00@Z 00000001800235b0 f i LineDisplay.obj
 0001:000226d0       ?SODataDummy@COPOSLineDisplay@@MEAAJJ@Z 00000001800236d0 f i LineDisplay.obj
 0001:000226f0       ?SODirectIO@COPOSLineDisplay@@MEAAJJPEAJPEAPEA_W@Z 00000001800236f0 f i LineDisplay.obj
 0001:00022930       ?SOErrorDummy@COPOSLineDisplay@@MEAAJJJJPEAJ@Z 0000000180023930 f i LineDisplay.obj
 0001:00022950       ?SOOutputCompleteDummy@COPOSLineDisplay@@MEAAJJ@Z 0000000180023950 f i LineDisplay.obj
 0001:00022970       ?SOStatusUpdate@COPOSLineDisplay@@MEAAJJ@Z 0000000180023970 f i LineDisplay.obj
 0001:00022a00       ?Save@?$IPersistStorageImpl@VCOPOSLineDisplay@@@ATL@@UEAAJPEAUIStorage@@H@Z 0000000180023a00 f i LineDisplay.obj
 0001:00022bc0       ?Save@?$IPersistStreamInitImpl@VCOPOSLineDisplay@@@ATL@@UEAAJPEAUIStream@@H@Z 0000000180023bc0 f i LineDisplay.obj
 0001:00022c70       ?SaveCompleted@?$IPersistStorageImpl@VCOPOSLineDisplay@@@ATL@@UEAAJPEAUIStorage@@@Z 0000000180023c70 f i LineDisplay.obj
 0001:00022cd0       ?SendOnDataChange@CComControlBase@ATL@@QEAAJK@Z 0000000180023cd0 f i LineDisplay.obj
 0001:00022dd0       ?SendOnSave@CComControlBase@ATL@@QEAAJXZ 0000000180023dd0 f i LineDisplay.obj
 0001:00022e30       ?SendOnViewChange@CComControlBase@ATL@@QEAAJKJ@Z 0000000180023e30 f i LineDisplay.obj
 0001:00022e90       ?SetAdvise@?$IViewObjectExImpl@VCOPOSLineDisplay@@@ATL@@UEAAJKKPEAUIAdviseSink@@@Z 0000000180023e90 f i LineDisplay.obj
 0001:00022f40       ?SetClientSite@?$IOleObjectImpl@VCOPOSLineDisplay@@@ATL@@UEAAJPEAUIOleClientSite@@@Z 0000000180023f40 f i LineDisplay.obj
 0001:00022fe0       ?SetColorScheme@?$IOleObjectImpl@VCOPOSLineDisplay@@@ATL@@UEAAJPEAUtagLOGPALETTE@@@Z 0000000180023fe0 f i LineDisplay.obj
 0001:00023050       ?SetContentExtent@?$IQuickActivateImpl@VCOPOSLineDisplay@@@ATL@@UEAAJPEAUtagSIZE@@@Z 0000000180024050 f i LineDisplay.obj
 0001:00023100       ?SetControlFocus@CComControlBase@ATL@@QEAAHH@Z 0000000180024100 f i LineDisplay.obj
 0001:00023280       ?SetDWORDValue@CRegKey@ATL@@QEAAJPEB_WK@Z 0000000180024280 f i LineDisplay.obj
 0001:00023320       ?SetData@?$IDataObjectImpl@VCOPOSLineDisplay@@@ATL@@UEAAJPEAUtagFORMATETC@@PEAUtagSTGMEDIUM@@H@Z 0000000180024320 f i LineDisplay.obj
 0001:000233a0       ?SetExtent@?$IOleObjectImpl@VCOPOSLineDisplay@@@ATL@@UEAAJKPEAUtagSIZE@@@Z 00000001800243a0 f i LineDisplay.obj
 0001:00023450       ?SetHostNames@?$IOleObjectImpl@VCOPOSLineDisplay@@@ATL@@UEAAJPEB_W0@Z 0000000180024450 f i LineDisplay.obj
 0001:000234b0       ?SetInterfaceSafetyOptions@?$IObjectSafetyImpl@VCOPOSLineDisplay@@$02@ATL@@UEAAJAEBU_GUID@@KK@Z 00000001800244b0 f i LineDisplay.obj
 0001:00023650       ?SetMoniker@?$IOleObjectImpl@VCOPOSLineDisplay@@@ATL@@UEAAJKPEAUIMoniker@@@Z 0000000180024650 f i LineDisplay.obj
 0001:000236d0       ?SetMultiStringValue@CRegKey@ATL@@QEAAJPEB_W0@Z 00000001800246d0 f i LineDisplay.obj
 0001:00023830       ?SetObjectRects@?$IOleInPlaceObjectWindowlessImpl@VCOPOSLineDisplay@@@ATL@@UEAAJPEBUtagRECT@@0@Z 0000000180024830 f i LineDisplay.obj
 0001:000238e0       ?SetStringValue@CRegKey@ATL@@QEAAJPEB_W0K@Z 00000001800248e0 f i LineDisplay.obj
 0001:00023a50       ?SetVoid@CComClassFactory@ATL@@QEAAXPEAX@Z 0000000180024a50 f i LineDisplay.obj
 0001:00023a70       ?SetVoid@CComObjectRootBase@ATL@@QEAAXPEAX@Z 0000000180024a70 f i LineDisplay.obj
 0001:00023a80       ?ShowWindow@CWindow@ATL@@QEAAHH@Z 0000000180024a80 f i LineDisplay.obj
 0001:00023b00       ?Skip@?$CComEnumImpl@UIEnumConnectionPoints@@$1?_GUID_b196b285_bab4_101a_b69c_00aa00341d07@@3U__s_GUID@@BPEAUIConnectionPoint@@V?$_CopyInterface@UIConnectionPoint@@@ATL@@@ATL@@UEAAJK@Z 0000000180024b00 f i LineDisplay.obj
 0001:00023b90       ?Skip@?$CComEnumImpl@UIEnumConnections@@$1?_GUID_b196b287_bab4_101a_b69c_00aa00341d07@@3U__s_GUID@@BUtagCONNECTDATA@@V?$_Copy@UtagCONNECTDATA@@@ATL@@@ATL@@UEAAJK@Z 0000000180024b90 f i LineDisplay.obj
 0001:00023c20       ?SkipAssignment@CRegParser@ATL@@IEAAJPEA_W@Z 0000000180024c20 f i LineDisplay.obj
 0001:00023d20       ?SkipWhiteSpace@CRegParser@ATL@@IEAAXXZ 0000000180024d20 f i LineDisplay.obj
 0001:00023d70       ?StartWindowProc@?$CWindowImplBaseT@VCWindow@ATL@@V?$CWinTraits@$0FGAAAAAA@$0A@@2@@ATL@@SA_JPEAUHWND__@@I_K_J@Z 0000000180024d70 f i LineDisplay.obj
 0001:00023ec0       ?StrChrW@CRegParser@ATL@@KAPEA_WPEA_W_W@Z 0000000180024ec0 f i LineDisplay.obj
 0001:00023f30       ?StrFromMap@CRegObject@ATL@@QEAAPEB_WPEA_W@Z 0000000180024f30 f i LineDisplay.obj
 0001:00023fd0       ?Swap@?$CComPtrBase@UIAdviseSink@@@ATL@@IEAAXAEAV12@@Z 0000000180024fd0 f i LineDisplay.obj
 0001:00024010       ?Swap@?$CComPtrBase@UIOleClientSite@@@ATL@@IEAAXAEAV12@@Z 0000000180025010 f i LineDisplay.obj
 0001:00024050       ?Swap@?$CComPtrBase@UIUnknown@@@ATL@@IEAAXAEAV12@@Z 0000000180025050 f i LineDisplay.obj
 0001:00024090       ?T2COLE_EX@@YAPEB_WPEB_WI@Z 0000000180025090 f i LineDisplay.obj
 0001:000240b0       ?T2OLE_EX@@YAPEA_WPEA_WI@Z 00000001800250b0 f i LineDisplay.obj
 0001:000240d0       ?Term@CAtlModule@ATL@@QEAAXXZ 00000001800250d0 f i LineDisplay.obj
 0001:00024180       ?Term@CComModule@ATL@@QEAAXXZ 0000000180025180 f i LineDisplay.obj
 0001:00024260       ?TranslateAcceleratorW@?$IOleInPlaceActiveObjectImpl@VCOPOSLineDisplay@@@ATL@@UEAAJPEAUtagMSG@@@Z 0000000180025260 f i LineDisplay.obj
 0001:000244d0       ?UIDeactivate@?$IOleInPlaceObjectWindowlessImpl@VCOPOSLineDisplay@@@ATL@@UEAAJXZ 00000001800254d0 f i LineDisplay.obj
 0001:00024560       ?Unadvise@?$CProxy_IOPOSEvents@VCOPOSLineDisplay@@@@UEAAJK@Z 0000000180025560 f i LineDisplay.obj
 0001:000245a0       ?Unadvise@?$IConnectionPointImpl@VCOPOSLineDisplay@@$1?DIID__IOPOSLineDisplayEvents@@3U_GUID@@BVCComDynamicUnkArray@ATL@@@ATL@@UEAAJK@Z 00000001800255a0 f i LineDisplay.obj
 0001:00024680       ?Unadvise@?$IConnectionPointImpl@VCOPOSLineDisplay@@$1?IID_IPropertyNotifySink@@3U_GUID@@BVCComDynamicUnkArray@ATL@@@ATL@@UEAAJK@Z 0000000180025680 f i LineDisplay.obj
 0001:00024760       ?Unadvise@?$IOleObjectImpl@VCOPOSLineDisplay@@@ATL@@UEAAJK@Z 0000000180025760 f i LineDisplay.obj
 0001:00024840       ?Unfreeze@?$IViewObjectExImpl@VCOPOSLineDisplay@@@ATL@@UEAAJK@Z 0000000180025840 f i LineDisplay.obj
 0001:000248b0       ?Unlock@?$CComCritSecLock@VCComCriticalSection@ATL@@@ATL@@QEAAXXZ 00000001800258b0 f i LineDisplay.obj
 0001:00024930       ?Unlock@?$CComObjectRootEx@VCComSingleThreadModel@ATL@@@ATL@@QEAAXXZ 0000000180025930 f i LineDisplay.obj
 0001:00024940       ?Unlock@CAtlModule@ATL@@UEAAJXZ 0000000180025940 f i LineDisplay.obj
 0001:00024970       ?Unlock@CComCriticalSection@ATL@@QEAAJXZ 0000000180025970 f i LineDisplay.obj
 0001:00024990       ?Unlock@CComFakeCriticalSection@ATL@@QEAAJXZ 0000000180025990 f i LineDisplay.obj
 0001:000249a0       ?UnregisterServer@?$CAtlModuleT@VCComModule@ATL@@@ATL@@QEAAJHPEBU_GUID@@@Z 00000001800259a0 f i LineDisplay.obj
 0001:00024a00       ?UnregisterServer@CAtlComModule@ATL@@QEAAJHPEBU_GUID@@@Z 0000000180025a00 f i LineDisplay.obj
 0001:00024a30       ?UnregisterServer@CComModule@ATL@@QEAAJHPEBU_GUID@@@Z 0000000180025a30 f i LineDisplay.obj
 0001:00024b10       ?Update@?$IOleObjectImpl@VCOPOSLineDisplay@@@ATL@@UEAAJXZ 0000000180025b10 f i LineDisplay.obj
 0001:00024b70       ?UpdateRegistryFromResource@CAtlModule@ATL@@QEAAJIHPEAU_ATL_REGMAP_ENTRY@2@@Z 0000000180025b70 f i LineDisplay.obj
 0001:000250b0       ?UpdateRegistryFromResource@CAtlModule@ATL@@QEAAJPEB_WHPEAU_ATL_REGMAP_ENTRY@2@@Z 00000001800260b0 f i LineDisplay.obj
 0001:00025600       ?UpdateRegistryFromResource@CComModule@ATL@@UEAAJIHPEAU_ATL_REGMAP_ENTRY@2@@Z 0000000180026600 f i LineDisplay.obj
 0001:00025640       ?UpdateRegistryFromResource@CComModule@ATL@@UEAAJPEB_WHPEAU_ATL_REGMAP_ENTRY@2@@Z 0000000180026640 f i LineDisplay.obj
 0001:00025680       ?UpdateRegistryFromResourceD@CComModule@ATL@@UEAAJIHPEAU_ATL_REGMAP_ENTRY@2@@Z 0000000180026680 f i LineDisplay.obj
 0001:000256a0       ?UpdateRegistryFromResourceD@CComModule@ATL@@UEAAJPEB_WHPEAU_ATL_REGMAP_ENTRY@2@@Z 00000001800266a0 f i LineDisplay.obj
 0001:000256c0       ?VTFromRegType@CRegParser@ATL@@KAHPEB_WAEAG@Z 00000001800266c0 f i LineDisplay.obj
 0001:00025790       ?WindowProc@?$CWindowImplBaseT@VCWindow@ATL@@V?$CWinTraits@$0FGAAAAAA@$0A@@2@@ATL@@SA_JPEAUHWND__@@I_K_J@Z 0000000180026790 f i LineDisplay.obj
 0001:00025a70       ?WriteToStream@CComBSTR@ATL@@QEAAJPEAUIStream@@@Z 0000000180026a70 f i LineDisplay.obj
 0001:00025be0       ?WriteToStream@CComVariant@ATL@@QEAAJPEAUIStream@@@Z 0000000180026be0 f i LineDisplay.obj
 0001:00026010       ?WriteToStream@CComVariant@ATL@@QEAAJPEAUIStream@@G@Z 0000000180027010 f i LineDisplay.obj
 0001:000260f0       ?_AtlFinalConstruct@CComObjectRootBase@ATL@@QEAAJXZ 00000001800270f0 f i LineDisplay.obj
 0001:00026100       ?_AtlGetConversionACP@ATL@@YAIXZ 0000000180027100 f i LineDisplay.obj
 0001:00026110       ?_AtlInitialConstruct@?$CComAggObject@VCOPOSLineDisplay@@@ATL@@QEAAJXZ 0000000180027110 f i LineDisplay.obj
 0001:00026160       ?_AtlInitialConstruct@?$CComObjectRootEx@VCComMultiThreadModel@ATL@@@ATL@@QEAAJXZ 0000000180027160 f i LineDisplay.obj
 0001:00026190       ?_AtlInitialConstruct@?$CComObjectRootEx@VCComSingleThreadModel@ATL@@@ATL@@QEAAJXZ 0000000180027190 f i LineDisplay.obj
 0001:000261a0       ?_AtlVerifyStackAvailable@_ATL_SAFE_ALLOCA_IMPL@ATL@@YA_N_K@Z 00000001800271a0 f i LineDisplay.obj
 0001:00026300       ?_GetEntries@?$CComEnum@UIEnumConnectionPoints@@$1?_GUID_b196b285_bab4_101a_b69c_00aa00341d07@@3U__s_GUID@@BPEAUIConnectionPoint@@V?$_CopyInterface@UIConnectionPoint@@@ATL@@VCComSingleThreadModel@6@@ATL@@SAPEBU_ATL_INTMAP_ENTRY@2@XZ 0000000180027300 f i LineDisplay.obj
 0001:00026320       ?_GetEntries@?$CComEnum@UIEnumConnections@@$1?_GUID_b196b287_bab4_101a_b69c_00aa00341d07@@3U__s_GUID@@BUtagCONNECTDATA@@V?$_Copy@UtagCONNECTDATA@@@ATL@@VCComSingleThreadModel@6@@ATL@@SAPEBU_ATL_INTMAP_ENTRY@2@XZ 0000000180027320 f i LineDisplay.obj
 0001:00026340       ?_GetEntries@CComClassFactory@ATL@@SAPEBU_ATL_INTMAP_ENTRY@2@XZ 0000000180027340 f i LineDisplay.obj
 0001:00026360       ?_GetEntries@COPOSLineDisplay@@SAPEBU_ATL_INTMAP_ENTRY@ATL@@XZ 0000000180027360 f i LineDisplay.obj
 0001:00026380       ?_GetRawUnknown@COPOSLineDisplay@@QEAAPEAUIUnknown@@XZ 0000000180027380 f i LineDisplay.obj
 0001:00026400       ?_GetViewStatus@COPOSLineDisplay@@QEAAKXZ 0000000180027400 f i LineDisplay.obj
 0001:00026410       ?_InternalQueryInterface@?$CComEnum@UIEnumConnectionPoints@@$1?_GUID_b196b285_bab4_101a_b69c_00aa00341d07@@3U__s_GUID@@BPEAUIConnectionPoint@@V?$_CopyInterface@UIConnectionPoint@@@ATL@@VCComSingleThreadModel@6@@ATL@@QEAAJAEBU_GUID@@PEAPEAX@Z 0000000180027410 f i LineDisplay.obj
 0001:00026450       ?_InternalQueryInterface@?$CComEnum@UIEnumConnections@@$1?_GUID_b196b287_bab4_101a_b69c_00aa00341d07@@3U__s_GUID@@BUtagCONNECTDATA@@V?$_Copy@UtagCONNECTDATA@@@ATL@@VCComSingleThreadModel@6@@ATL@@QEAAJAEBU_GUID@@PEAPEAX@Z 0000000180027450 f i LineDisplay.obj
 0001:00026490       ?_InternalQueryInterface@CComClassFactory@ATL@@QEAAJAEBU_GUID@@PEAPEAX@Z 0000000180027490 f i LineDisplay.obj
 0001:000264d0       ?_InternalQueryInterface@COPOSLineDisplay@@QEAAJAEBU_GUID@@PEAPEAX@Z 00000001800274d0 f i LineDisplay.obj
 0001:00026510       ?_LocCPQueryInterface@?$IConnectionPointImpl@VCOPOSLineDisplay@@$1?DIID__IOPOSLineDisplayEvents@@3U_GUID@@BVCComDynamicUnkArray@ATL@@@ATL@@UEAAJAEBU_GUID@@PEAPEAX@Z 0000000180027510 f i LineDisplay.obj
 0001:000265e0       ?_LocCPQueryInterface@?$IConnectionPointImpl@VCOPOSLineDisplay@@$1?IID_IPropertyNotifySink@@3U_GUID@@BVCComDynamicUnkArray@ATL@@@ATL@@UEAAJAEBU_GUID@@PEAPEAX@Z 00000001800275e0 f i LineDisplay.obj
 0001:000266b0       ?atlCreate@?$CWindowImpl@VCOPOSLineDisplay@@VCWindow@ATL@@V?$CWinTraits@$0FGAAAAAA@$0A@@3@@ATL@@QEAAPEAUHWND__@@PEAU3@V_U_RECT@2@PEB_WKKV_U_MENUorID@2@PEAX@Z 00000001800276b0 f i LineDisplay.obj
 0001:000267c0       ?atlCreate@?$CWindowImplBaseT@VCWindow@ATL@@V?$CWinTraits@$0FGAAAAAA@$0A@@2@@ATL@@QEAAPEAUHWND__@@PEAU3@V_U_RECT@2@PEB_WKKV_U_MENUorID@2@GPEAX@Z 00000001800277c0 f i LineDisplay.obj
 0001:00026a10       ?atlCreate@CRegKey@ATL@@QEAAJPEAUHKEY__@@PEB_WPEA_WKKPEAU_SECURITY_ATTRIBUTES@@PEAK@Z 0000000180027a10 f i LineDisplay.obj
 0001:00026c10       ?begin@CComDynamicUnkArray@ATL@@QEAAPEAPEAUIUnknown@@XZ 0000000180027c10 f i LineDisplay.obj
 0001:00026c20       ?copy@?$_Copy@UtagCONNECTDATA@@@ATL@@SAJPEAUtagCONNECTDATA@@PEBU3@@Z 0000000180027c20 f i LineDisplay.obj
 0001:00026d00       ?copy@?$_CopyInterface@UIConnectionPoint@@@ATL@@SAJPEAPEAUIConnectionPoint@@PEBQEAU3@@Z 0000000180027d00 f i LineDisplay.obj
 0001:00026de0       ?destroy@?$_Copy@UtagCONNECTDATA@@@ATL@@SAXPEAUtagCONNECTDATA@@@Z 0000000180027de0 f i LineDisplay.obj
 0001:00026e20       ?destroy@?$_CopyInterface@UIConnectionPoint@@@ATL@@SAXPEAPEAUIConnectionPoint@@@Z 0000000180027e20 f i LineDisplay.obj
 0001:00026e60       ?end@CComDynamicUnkArray@ATL@@QEAAPEAPEAUIUnknown@@XZ 0000000180027e60 f i LineDisplay.obj
 0001:00026e80       ?init@?$_Copy@UtagCONNECTDATA@@@ATL@@SAXPEAUtagCONNECTDATA@@@Z 0000000180027e80 f i LineDisplay.obj
 0001:00026e90       ?init@?$_CopyInterface@UIConnectionPoint@@@ATL@@SAXPEAPEAUIConnectionPoint@@@Z 0000000180027e90 f i LineDisplay.obj
 0001:00026ea0       ?memcpy_s@Checked@ATL@@YAXPEAX_KPEBX1@Z 0000000180027ea0 f i LineDisplay.obj
 0001:00026ee0       ?ocscpy_s@@YA_NPEA_W_KPEB_W@Z 0000000180027ee0 f i LineDisplay.obj
 0001:00026f50       ?ocslen@@YAHPEB_W@Z        0000000180027f50 f i LineDisplay.obj
 0001:00026f80       ?tcsncpy_s@Checked@ATL@@YAHPEA_W_KPEB_W1@Z 0000000180027f80 f i LineDisplay.obj
 0001:00026fc0       ?wcscat_s@Checked@ATL@@YAXPEA_W_KPEB_W@Z 0000000180027fc0 f i LineDisplay.obj
 0001:00027000       ?wcscpy_s@Checked@ATL@@YAXPEA_W_KPEB_W@Z 0000000180028000 f i LineDisplay.obj
 0001:00027040       ?wcsncpy_s@Checked@ATL@@YAHPEA_W_KPEB_W1@Z 0000000180028040 f i LineDisplay.obj
 0001:00027080       ?wcsstr@@YAPEA_WPEA_WPEB_W@Z 0000000180028080 f i LineDisplay.obj
 0001:000270b0       InlineIsEqualGUID          00000001800280b0 f i LineDisplay.obj
 0001:00027170       IsEqualGUID                0000000180028170 f i LineDisplay.obj
 0001:000271c0       ??0COPOSLineDisplay@@QEAA@XZ 00000001800281c0 f   LineDisplayImpl.obj
 0001:00027330       ?FinalConstruct@COPOSLineDisplay@@QEAAJXZ 0000000180028330 f   LineDisplayImpl.obj
 0001:00027410       ??1COPOSLineDisplay@@UEAA@XZ 0000000180028410 f   LineDisplayImpl.obj
 0001:000274f0       ?WriteTrace@COPOSLineDisplay@@QEAAXPEB_WZZ 00000001800284f0 f   LineDisplayImpl.obj
 0001:000275c0       ?WriteTraceString@COPOSLineDisplay@@QEAAXPEB_WPEA_W@Z 00000001800285c0 f   LineDisplayImpl.obj
 0001:000279f0       ?WriteTraceString@COPOSLineDisplay@@QEAAXPEAXHHHPEB_WZZ 00000001800289f0 f   LineDisplayImpl.obj
 0001:00027c80       ?WriteTraceError@COPOSLineDisplay@@QEAAXPEB_WK@Z 0000000180028c80 f   LineDisplayImpl.obj
 0001:00027d80       ?WriteTraceMethods@COPOSLineDisplay@@QEAAXPEAJH@Z 0000000180028d80 f   LineDisplayImpl.obj
 0001:00027e00       ?GetOposProp@COPOSLineDisplay@@IEAAJPEBDJPEAJJ@Z 0000000180028e00 f   LineDisplayImpl.obj
 0001:00028120       ?SetOposProp@COPOSLineDisplay@@IEAAJPEBDJJJ@Z 0000000180029120 f   LineDisplayImpl.obj
 0001:00028490       ?GetOposProp@COPOSLineDisplay@@IEAAJPEBDJPEAFJ@Z 0000000180029490 f   LineDisplayImpl.obj
 0001:00028540       ?SetOposProp@COPOSLineDisplay@@IEAAJPEBDJFJ@Z 0000000180029540 f   LineDisplayImpl.obj
 0001:000285b0       ?GetOposProp@COPOSLineDisplay@@IEAAJPEBDJPEAPEA_WJ@Z 00000001800295b0 f   LineDisplayImpl.obj
 0001:000288d0       ?SetOposProp@COPOSLineDisplay@@IEAAJPEBDJPEA_WJ@Z 00000001800298d0 f   LineDisplayImpl.obj
 0001:00028cb0       ?DoInvoke@COPOSLineDisplay@@IEAAJPEBDJPEAVOposVariant@@IHPEAJ_N@Z 0000000180029cb0 f   LineDisplayImpl.obj
 0001:00029810       ?SetCOFreezeEvents@COPOSLineDisplay@@IEAAXF@Z 000000018002a810 f   LineDisplayImpl.obj
 0001:000299a0       ?FreezeEvents@COPOSLineDisplay@@MEAAJH@Z 000000018002a9a0 f   LineDisplayImpl.obj
 0001:00029ac0       ?OnDraw@COPOSLineDisplay@@MEAAJAEAUATL_DRAWINFO@@@Z 000000018002aac0 f   LineDisplayImpl.obj
 0001:00029c90       ?SOProcessID@COPOSLineDisplay@@UEAAJPEAJ@Z 000000018002ac90 f   LineDisplayImpl.obj
 0001:00029ce0       ?get_OpenResult@COPOSLineDisplay@@UEAAJPEAJ@Z 000000018002ace0 f   LineDisplayImpl.obj
 0001:00029d30       ?get_CheckHealthText@COPOSLineDisplay@@UEAAJPEAPEA_W@Z 000000018002ad30 f   LineDisplayImpl.obj
 0001:00029d70       ?get_Claimed@COPOSLineDisplay@@UEAAJPEAF@Z 000000018002ad70 f   LineDisplayImpl.obj
 0001:00029db0       ?get_DeviceEnabled@COPOSLineDisplay@@UEAAJPEAF@Z 000000018002adb0 f   LineDisplayImpl.obj
 0001:00029df0       ?put_DeviceEnabled@COPOSLineDisplay@@UEAAJF@Z 000000018002adf0 f   LineDisplayImpl.obj
 0001:00029e30       ?get_FreezeEvents@COPOSLineDisplay@@UEAAJPEAF@Z 000000018002ae30 f   LineDisplayImpl.obj
 0001:00029e70       ?put_FreezeEvents@COPOSLineDisplay@@UEAAJF@Z 000000018002ae70 f   LineDisplayImpl.obj
 0001:00029f30       ?get_ResultCode@COPOSLineDisplay@@UEAAJPEAJ@Z 000000018002af30 f   LineDisplayImpl.obj
 0001:00029fe0       ?get_ResultCodeExtended@COPOSLineDisplay@@UEAAJPEAJ@Z 000000018002afe0 f   LineDisplayImpl.obj
 0001:0002a020       ?get_State@COPOSLineDisplay@@UEAAJPEAJ@Z 000000018002b020 f   LineDisplayImpl.obj
 0001:0002a090       ?get_ControlObjectDescription@COPOSLineDisplay@@UEAAJPEAPEA_W@Z 000000018002b090 f   LineDisplayImpl.obj
 0001:0002a100       ?get_ControlObjectVersion@COPOSLineDisplay@@UEAAJPEAJ@Z 000000018002b100 f   LineDisplayImpl.obj
 0001:0002a150       ?get_ServiceObjectDescription@COPOSLineDisplay@@UEAAJPEAPEA_W@Z 000000018002b150 f   LineDisplayImpl.obj
 0001:0002a190       ?get_ServiceObjectVersion@COPOSLineDisplay@@UEAAJPEAJ@Z 000000018002b190 f   LineDisplayImpl.obj
 0001:0002a1d0       ?get_DeviceDescription@COPOSLineDisplay@@UEAAJPEAPEA_W@Z 000000018002b1d0 f   LineDisplayImpl.obj
 0001:0002a210       ?get_DeviceName@COPOSLineDisplay@@UEAAJPEAPEA_W@Z 000000018002b210 f   LineDisplayImpl.obj
 0001:0002a250       ?CheckHealth@COPOSLineDisplay@@UEAAJJPEAJ@Z 000000018002b250 f   LineDisplayImpl.obj
 0001:0002a310       ?ClaimDevice@COPOSLineDisplay@@UEAAJJPEAJ@Z 000000018002b310 f   LineDisplayImpl.obj
 0001:0002a430       ?Close@COPOSLineDisplay@@UEAAJPEAJ@Z 000000018002b430 f   LineDisplayImpl.obj
 0001:0002a530       ?DirectIO@COPOSLineDisplay@@UEAAJJPEAJPEAPEA_W0@Z 000000018002b530 f   LineDisplayImpl.obj
 0001:0002a6b0       ?Open@COPOSLineDisplay@@UEAAJPEA_WPEAJ@Z 000000018002b6b0 f   LineDisplayImpl.obj
 0001:0002bb80       ?ReleaseDevice@COPOSLineDisplay@@UEAAJPEAJ@Z 000000018002cb80 f   LineDisplayImpl.obj
 0001:0002bc20       ?get_CapBlink@COPOSLineDisplay@@UEAAJPEAJ@Z 000000018002cc20 f   LineDisplayImpl.obj
 0001:0002bc60       ?get_CapBrightness@COPOSLineDisplay@@UEAAJPEAF@Z 000000018002cc60 f   LineDisplayImpl.obj
 0001:0002bca0       ?get_CapCharacterSet@COPOSLineDisplay@@UEAAJPEAJ@Z 000000018002cca0 f   LineDisplayImpl.obj
 0001:0002bce0       ?get_CapDescriptors@COPOSLineDisplay@@UEAAJPEAF@Z 000000018002cce0 f   LineDisplayImpl.obj
 0001:0002bd20       ?get_CapHMarquee@COPOSLineDisplay@@UEAAJPEAF@Z 000000018002cd20 f   LineDisplayImpl.obj
 0001:0002bd60       ?get_CapICharWait@COPOSLineDisplay@@UEAAJPEAF@Z 000000018002cd60 f   LineDisplayImpl.obj
 0001:0002bda0       ?get_CapVMarquee@COPOSLineDisplay@@UEAAJPEAF@Z 000000018002cda0 f   LineDisplayImpl.obj
 0001:0002bde0       ?get_CharacterSet@COPOSLineDisplay@@UEAAJPEAJ@Z 000000018002cde0 f   LineDisplayImpl.obj
 0001:0002be20       ?put_CharacterSet@COPOSLineDisplay@@UEAAJJ@Z 000000018002ce20 f   LineDisplayImpl.obj
 0001:0002be60       ?get_CharacterSetList@COPOSLineDisplay@@UEAAJPEAPEA_W@Z 000000018002ce60 f   LineDisplayImpl.obj
 0001:0002bea0       ?get_Columns@COPOSLineDisplay@@UEAAJPEAJ@Z 000000018002cea0 f   LineDisplayImpl.obj
 0001:0002bee0       ?get_CurrentWindow@COPOSLineDisplay@@UEAAJPEAJ@Z 000000018002cee0 f   LineDisplayImpl.obj
 0001:0002bf20       ?put_CurrentWindow@COPOSLineDisplay@@UEAAJJ@Z 000000018002cf20 f   LineDisplayImpl.obj
 0001:0002bf60       ?get_CursorColumn@COPOSLineDisplay@@UEAAJPEAJ@Z 000000018002cf60 f   LineDisplayImpl.obj
 0001:0002bfa0       ?put_CursorColumn@COPOSLineDisplay@@UEAAJJ@Z 000000018002cfa0 f   LineDisplayImpl.obj
 0001:0002bfe0       ?get_CursorRow@COPOSLineDisplay@@UEAAJPEAJ@Z 000000018002cfe0 f   LineDisplayImpl.obj
 0001:0002c020       ?put_CursorRow@COPOSLineDisplay@@UEAAJJ@Z 000000018002d020 f   LineDisplayImpl.obj
 0001:0002c060       ?get_CursorUpdate@COPOSLineDisplay@@UEAAJPEAF@Z 000000018002d060 f   LineDisplayImpl.obj
 0001:0002c0a0       ?put_CursorUpdate@COPOSLineDisplay@@UEAAJF@Z 000000018002d0a0 f   LineDisplayImpl.obj
 0001:0002c0e0       ?get_DeviceBrightness@COPOSLineDisplay@@UEAAJPEAJ@Z 000000018002d0e0 f   LineDisplayImpl.obj
 0001:0002c120       ?put_DeviceBrightness@COPOSLineDisplay@@UEAAJJ@Z 000000018002d120 f   LineDisplayImpl.obj
 0001:0002c160       ?get_DeviceColumns@COPOSLineDisplay@@UEAAJPEAJ@Z 000000018002d160 f   LineDisplayImpl.obj
 0001:0002c1a0       ?get_DeviceDescriptors@COPOSLineDisplay@@UEAAJPEAJ@Z 000000018002d1a0 f   LineDisplayImpl.obj
 0001:0002c1e0       ?get_DeviceRows@COPOSLineDisplay@@UEAAJPEAJ@Z 000000018002d1e0 f   LineDisplayImpl.obj
 0001:0002c220       ?get_DeviceWindows@COPOSLineDisplay@@UEAAJPEAJ@Z 000000018002d220 f   LineDisplayImpl.obj
 0001:0002c260       ?get_InterCharacterWait@COPOSLineDisplay@@UEAAJPEAJ@Z 000000018002d260 f   LineDisplayImpl.obj
 0001:0002c2a0       ?put_InterCharacterWait@COPOSLineDisplay@@UEAAJJ@Z 000000018002d2a0 f   LineDisplayImpl.obj
 0001:0002c2e0       ?get_MarqueeFormat@COPOSLineDisplay@@UEAAJPEAJ@Z 000000018002d2e0 f   LineDisplayImpl.obj
 0001:0002c320       ?put_MarqueeFormat@COPOSLineDisplay@@UEAAJJ@Z 000000018002d320 f   LineDisplayImpl.obj
 0001:0002c360       ?get_MarqueeRepeatWait@COPOSLineDisplay@@UEAAJPEAJ@Z 000000018002d360 f   LineDisplayImpl.obj
 0001:0002c3a0       ?put_MarqueeRepeatWait@COPOSLineDisplay@@UEAAJJ@Z 000000018002d3a0 f   LineDisplayImpl.obj
 0001:0002c3e0       ?get_MarqueeType@COPOSLineDisplay@@UEAAJPEAJ@Z 000000018002d3e0 f   LineDisplayImpl.obj
 0001:0002c420       ?put_MarqueeType@COPOSLineDisplay@@UEAAJJ@Z 000000018002d420 f   LineDisplayImpl.obj
 0001:0002c460       ?get_MarqueeUnitWait@COPOSLineDisplay@@UEAAJPEAJ@Z 000000018002d460 f   LineDisplayImpl.obj
 0001:0002c4a0       ?put_MarqueeUnitWait@COPOSLineDisplay@@UEAAJJ@Z 000000018002d4a0 f   LineDisplayImpl.obj
 0001:0002c4e0       ?get_Rows@COPOSLineDisplay@@UEAAJPEAJ@Z 000000018002d4e0 f   LineDisplayImpl.obj
 0001:0002c520       ?ClearDescriptors@COPOSLineDisplay@@UEAAJPEAJ@Z 000000018002d520 f   LineDisplayImpl.obj
 0001:0002c580       ?ClearText@COPOSLineDisplay@@UEAAJPEAJ@Z 000000018002d580 f   LineDisplayImpl.obj
 0001:0002c5e0       ?CreateWindow@COPOSLineDisplay@@UEAAJJJJJJJPEAJ@Z 000000018002d5e0 f   LineDisplayImpl.obj
 0001:0002c790       ?DestroyWindow@COPOSLineDisplay@@UEAAJPEAJ@Z 000000018002d790 f   LineDisplayImpl.obj
 0001:0002c7f0       ?DisplayText@COPOSLineDisplay@@UEAAJPEA_WJPEAJ@Z 000000018002d7f0 f   LineDisplayImpl.obj
 0001:0002c920       ?DisplayTextAt@COPOSLineDisplay@@UEAAJJJPEA_WJPEAJ@Z 000000018002d920 f   LineDisplayImpl.obj
 0001:0002cab0       ?RefreshWindow@COPOSLineDisplay@@UEAAJJPEAJ@Z 000000018002dab0 f   LineDisplayImpl.obj
 0001:0002cb70       ?ScrollText@COPOSLineDisplay@@UEAAJJJPEAJ@Z 000000018002db70 f   LineDisplayImpl.obj
 0001:0002cc90       ?SetDescriptor@COPOSLineDisplay@@UEAAJJJPEAJ@Z 000000018002dc90 f   LineDisplayImpl.obj
 0001:0002cdb0       ?get_BinaryConversion@COPOSLineDisplay@@UEAAJPEAJ@Z 000000018002ddb0 f   LineDisplayImpl.obj
 0001:0002cdf0       ?put_BinaryConversion@COPOSLineDisplay@@UEAAJJ@Z 000000018002ddf0 f   LineDisplayImpl.obj
 0001:0002ce40       ?get_CapPowerReporting@COPOSLineDisplay@@UEAAJPEAJ@Z 000000018002de40 f   LineDisplayImpl.obj
 0001:0002ce80       ?get_PowerNotify@COPOSLineDisplay@@UEAAJPEAJ@Z 000000018002de80 f   LineDisplayImpl.obj
 0001:0002cec0       ?put_PowerNotify@COPOSLineDisplay@@UEAAJJ@Z 000000018002dec0 f   LineDisplayImpl.obj
 0001:0002cf00       ?get_PowerState@COPOSLineDisplay@@UEAAJPEAJ@Z 000000018002df00 f   LineDisplayImpl.obj
 0001:0002cf40       ?get_BlinkRate@COPOSLineDisplay@@UEAAJPEAJ@Z 000000018002df40 f   LineDisplayImpl.obj
 0001:0002cf80       ?put_BlinkRate@COPOSLineDisplay@@UEAAJJ@Z 000000018002df80 f   LineDisplayImpl.obj
 0001:0002cfc0       ?get_CapBlinkRate@COPOSLineDisplay@@UEAAJPEAF@Z 000000018002dfc0 f   LineDisplayImpl.obj
 0001:0002d000       ?get_CapCursorType@COPOSLineDisplay@@UEAAJPEAJ@Z 000000018002e000 f   LineDisplayImpl.obj
 0001:0002d040       ?get_CapCustomGlyph@COPOSLineDisplay@@UEAAJPEAF@Z 000000018002e040 f   LineDisplayImpl.obj
 0001:0002d080       ?get_CapReadBack@COPOSLineDisplay@@UEAAJPEAJ@Z 000000018002e080 f   LineDisplayImpl.obj
 0001:0002d0c0       ?get_CapReverse@COPOSLineDisplay@@UEAAJPEAJ@Z 000000018002e0c0 f   LineDisplayImpl.obj
 0001:0002d100       ?get_CursorType@COPOSLineDisplay@@UEAAJPEAJ@Z 000000018002e100 f   LineDisplayImpl.obj
 0001:0002d140       ?put_CursorType@COPOSLineDisplay@@UEAAJJ@Z 000000018002e140 f   LineDisplayImpl.obj
 0001:0002d180       ?get_CustomGlyphList@COPOSLineDisplay@@UEAAJPEAPEA_W@Z 000000018002e180 f   LineDisplayImpl.obj
 0001:0002d1c0       ?get_GlyphHeight@COPOSLineDisplay@@UEAAJPEAJ@Z 000000018002e1c0 f   LineDisplayImpl.obj
 0001:0002d200       ?get_GlyphWidth@COPOSLineDisplay@@UEAAJPEAJ@Z 000000018002e200 f   LineDisplayImpl.obj
 0001:0002d240       ?DefineGlyph@COPOSLineDisplay@@UEAAJJPEA_WPEAJ@Z 000000018002e240 f   LineDisplayImpl.obj
 0001:0002d370       ?ReadCharacterAtCursor@COPOSLineDisplay@@UEAAJPEAJ0@Z 000000018002e370 f   LineDisplayImpl.obj
 0001:0002d450       ?get_CapBitmap@COPOSLineDisplay@@UEAAJPEAF@Z 000000018002e450 f   LineDisplayImpl.obj
 0001:0002d490       ?get_CapMapCharacterSet@COPOSLineDisplay@@UEAAJPEAF@Z 000000018002e490 f   LineDisplayImpl.obj
 0001:0002d4d0       ?get_CapScreenMode@COPOSLineDisplay@@UEAAJPEAF@Z 000000018002e4d0 f   LineDisplayImpl.obj
 0001:0002d510       ?get_MapCharacterSet@COPOSLineDisplay@@UEAAJPEAF@Z 000000018002e510 f   LineDisplayImpl.obj
 0001:0002d550       ?put_MapCharacterSet@COPOSLineDisplay@@UEAAJF@Z 000000018002e550 f   LineDisplayImpl.obj
 0001:0002d590       ?get_MaximumX@COPOSLineDisplay@@UEAAJPEAJ@Z 000000018002e590 f   LineDisplayImpl.obj
 0001:0002d5d0       ?get_MaximumY@COPOSLineDisplay@@UEAAJPEAJ@Z 000000018002e5d0 f   LineDisplayImpl.obj
 0001:0002d610       ?get_ScreenMode@COPOSLineDisplay@@UEAAJPEAJ@Z 000000018002e610 f   LineDisplayImpl.obj
 0001:0002d650       ?put_ScreenMode@COPOSLineDisplay@@UEAAJJ@Z 000000018002e650 f   LineDisplayImpl.obj
 0001:0002d690       ?get_ScreenModeList@COPOSLineDisplay@@UEAAJPEAPEA_W@Z 000000018002e690 f   LineDisplayImpl.obj
 0001:0002d6d0       ?DisplayBitmap@COPOSLineDisplay@@UEAAJPEA_WJJJPEAJ@Z 000000018002e6d0 f   LineDisplayImpl.obj
 0001:0002d860       ?SetBitmap@COPOSLineDisplay@@UEAAJJPEA_WJJJPEAJ@Z 000000018002e860 f   LineDisplayImpl.obj
 0001:0002da10       ?get_CapStatisticsReporting@COPOSLineDisplay@@UEAAJPEAF@Z 000000018002ea10 f   LineDisplayImpl.obj
 0001:0002da50       ?get_CapUpdateStatistics@COPOSLineDisplay@@UEAAJPEAF@Z 000000018002ea50 f   LineDisplayImpl.obj
 0001:0002da90       ?ResetStatistics@COPOSLineDisplay@@UEAAJPEA_WPEAJ@Z 000000018002ea90 f   LineDisplayImpl.obj
 0001:0002db70       ?RetrieveStatistics@COPOSLineDisplay@@UEAAJPEAPEA_WPEAJ@Z 000000018002eb70 f   LineDisplayImpl.obj
 0001:0002dc50       ?UpdateStatistics@COPOSLineDisplay@@UEAAJPEA_WPEAJ@Z 000000018002ec50 f   LineDisplayImpl.obj
 0001:0002dd30       ?get_CapCompareFirmwareVersion@COPOSLineDisplay@@UEAAJPEAF@Z 000000018002ed30 f   LineDisplayImpl.obj
 0001:0002dd70       ?get_CapUpdateFirmware@COPOSLineDisplay@@UEAAJPEAF@Z 000000018002ed70 f   LineDisplayImpl.obj
 0001:0002ddb0       ?CompareFirmwareVersion@COPOSLineDisplay@@UEAAJPEA_WPEAJ1@Z 000000018002edb0 f   LineDisplayImpl.obj
 0001:0002def0       ?UpdateFirmware@COPOSLineDisplay@@UEAAJPEA_WPEAJ@Z 000000018002eef0 f   LineDisplayImpl.obj
 0001:0002dfd0       ??0?$CComControl@VCOPOSLineDisplay@@V?$CWindowImpl@VCOPOSLineDisplay@@VCWindow@ATL@@V?$CWinTraits@$0FGAAAAAA@$0A@@3@@ATL@@@ATL@@QEAA@XZ 000000018002efd0 f i LineDisplayImpl.obj
 0001:0002e010       ??0?$CComPtr@UIAdviseSink@@@ATL@@QEAA@XZ 000000018002f010 f i LineDisplayImpl.obj
 0001:0002e030       ??0?$CComPtr@UIDataAdviseHolder@@@ATL@@QEAA@XZ 000000018002f030 f i LineDisplayImpl.obj
 0001:0002e050       ??0?$CComPtr@UIOleAdviseHolder@@@ATL@@QEAA@XZ 000000018002f050 f i LineDisplayImpl.obj
 0001:0002e070       ??0?$CComPtr@UIOleClientSite@@@ATL@@QEAA@XZ 000000018002f070 f i LineDisplayImpl.obj
 0001:0002e090       ??0?$CComPtr@UIOleInPlaceSiteWindowless@@@ATL@@QEAA@XZ 000000018002f090 f i LineDisplayImpl.obj
 0001:0002e0b0       ??0?$CComPtrBase@UIAdviseSink@@@ATL@@IEAA@XZ 000000018002f0b0 f i LineDisplayImpl.obj
 0001:0002e0d0       ??0?$CComPtrBase@UIDataAdviseHolder@@@ATL@@IEAA@XZ 000000018002f0d0 f i LineDisplayImpl.obj
 0001:0002e0f0       ??0?$CComPtrBase@UIOleAdviseHolder@@@ATL@@IEAA@XZ 000000018002f0f0 f i LineDisplayImpl.obj
 0001:0002e110       ??0?$CComPtrBase@UIOleClientSite@@@ATL@@IEAA@XZ 000000018002f110 f i LineDisplayImpl.obj
 0001:0002e130       ??0?$CComPtrBase@UIOleInPlaceSiteWindowless@@@ATL@@IEAA@XZ 000000018002f130 f i LineDisplayImpl.obj
 0001:0002e150       ??0?$CComQIPtr@UIDispatch@@$1?_GUID_00020400_0000_0000_c000_000000000046@@3U__s_GUID@@B@ATL@@QEAA@XZ 000000018002f150 f i LineDisplayImpl.obj
 0001:0002e170       ??0?$CProxy_IOPOSEvents@VCOPOSLineDisplay@@@@QEAA@PEAVCOPOSLineDisplay@@@Z 000000018002f170 f i LineDisplayImpl.obj
 0001:0002e1d0       ??0?$CWindowImpl@VCOPOSLineDisplay@@VCWindow@ATL@@V?$CWinTraits@$0FGAAAAAA@$0A@@3@@ATL@@QEAA@XZ 000000018002f1d0 f i LineDisplayImpl.obj
 0001:0002e1f0       ??0?$CWindowImplBaseT@VCWindow@ATL@@V?$CWinTraits@$0FGAAAAAA@$0A@@2@@ATL@@QEAA@XZ 000000018002f1f0 f i LineDisplayImpl.obj
 0001:0002e220       ??0?$CWindowImplRoot@VCWindow@ATL@@@ATL@@QEAA@XZ 000000018002f220 f i LineDisplayImpl.obj
 0001:0002e280       ??0?$IConnectionPointContainerImpl@VCOPOSLineDisplay@@@ATL@@QEAA@XZ 000000018002f280 f i LineDisplayImpl.obj
 0001:0002e2a0       ??0?$IConnectionPointImpl@VCOPOSLineDisplay@@$1?DIID__IOPOSLineDisplayEvents@@3U_GUID@@BVCComDynamicUnkArray@ATL@@@ATL@@QEAA@XZ 000000018002f2a0 f i LineDisplayImpl.obj
 0001:0002e2d0       ??0?$IConnectionPointImpl@VCOPOSLineDisplay@@$1?IID_IPropertyNotifySink@@3U_GUID@@BVCComDynamicUnkArray@ATL@@@ATL@@QEAA@XZ 000000018002f2d0 f i LineDisplayImpl.obj
 0001:0002e300       ??0?$IDataObjectImpl@VCOPOSLineDisplay@@@ATL@@QEAA@XZ 000000018002f300 f i LineDisplayImpl.obj
 0001:0002e320       ??0?$IDispatchImpl@UIOPOSLineDisplay@@$1?IID_IOPOSLineDisplay@@3U_GUID@@B$1?LIBID_OposLineDisplay_CCO@@3U3@B$00$0A@VCComTypeInfoHolder@ATL@@@ATL@@QEAA@XZ 000000018002f320 f i LineDisplayImpl.obj
 0001:0002e340       ??0?$IObjectSafetyImpl@VCOPOSLineDisplay@@$02@ATL@@QEAA@XZ 000000018002f340 f i LineDisplayImpl.obj
 0001:0002e370       ??0?$IOleControlImpl@VCOPOSLineDisplay@@@ATL@@QEAA@XZ 000000018002f370 f i LineDisplayImpl.obj
 0001:0002e390       ??0?$IOleInPlaceActiveObjectImpl@VCOPOSLineDisplay@@@ATL@@QEAA@XZ 000000018002f390 f i LineDisplayImpl.obj
 0001:0002e3b0       ??0?$IOleInPlaceObjectWindowlessImpl@VCOPOSLineDisplay@@@ATL@@QEAA@XZ 000000018002f3b0 f i LineDisplayImpl.obj
 0001:0002e3d0       ??0?$IOleObjectImpl@VCOPOSLineDisplay@@@ATL@@QEAA@XZ 000000018002f3d0 f i LineDisplayImpl.obj
 0001:0002e3f0       ??0?$IPersistStorageImpl@VCOPOSLineDisplay@@@ATL@@QEAA@XZ 000000018002f3f0 f i LineDisplayImpl.obj
 0001:0002e410       ??0?$IPersistStreamInitImpl@VCOPOSLineDisplay@@@ATL@@QEAA@XZ 000000018002f410 f i LineDisplayImpl.obj
 0001:0002e430       ??0?$IPropertyNotifySinkCP@VCOPOSLineDisplay@@VCComDynamicUnkArray@ATL@@@ATL@@QEAA@XZ 000000018002f430 f i LineDisplayImpl.obj
 0001:0002e450       ??0?$IProvideClassInfo2Impl@$1?CLSID_OPOSLineDisplay@@3U_GUID@@B$1?DIID__IOPOSLineDisplayEvents@@3U2@B$1?LIBID_OposLineDisplay_CCO@@3U2@B$00$0A@VCComTypeInfoHolder@ATL@@@ATL@@QEAA@XZ 000000018002f450 f i LineDisplayImpl.obj
 0001:0002e470       ??0?$IQuickActivateImpl@VCOPOSLineDisplay@@@ATL@@QEAA@XZ 000000018002f470 f i LineDisplayImpl.obj
 0001:0002e490       ??0?$ISpecifyPropertyPagesImpl@VCOPOSLineDisplay@@@ATL@@QEAA@XZ 000000018002f490 f i LineDisplayImpl.obj
 0001:0002e4b0       ??0?$IViewObjectExImpl@VCOPOSLineDisplay@@@ATL@@QEAA@XZ 000000018002f4b0 f i LineDisplayImpl.obj
 0001:0002e4d0       ??0?$_ICPLocator@$1?DIID__IOPOSLineDisplayEvents@@3U_GUID@@B@ATL@@QEAA@XZ 000000018002f4d0 f i LineDisplayImpl.obj
 0001:0002e4e0       ??0?$_ICPLocator@$1?IID_IPropertyNotifySink@@3U_GUID@@B@ATL@@QEAA@XZ 000000018002f4e0 f i LineDisplayImpl.obj
 0001:0002e4f0       ??0CComControlBase@ATL@@QEAA@AEAPEAUHWND__@@@Z 000000018002f4f0 f i LineDisplayImpl.obj
 0001:0002e700       ??0CComDynamicUnkArray@ATL@@QEAA@XZ 000000018002f700 f i LineDisplayImpl.obj
 0001:0002e730       ??0CDynamicStdCallThunk2@ATL@@QEAA@XZ 000000018002f730 f i LineDisplayImpl.obj
 0001:0002e750       ??0CMessageMap@ATL@@QEAA@XZ 000000018002f750 f i LineDisplayImpl.obj
 0001:0002e760       ??0CWindow@ATL@@QEAA@PEAUHWND__@@@Z 000000018002f760 f i LineDisplayImpl.obj
 0001:0002e780       ??0CWndProcThunk@ATL@@QEAA@XZ 000000018002f780 f i LineDisplayImpl.obj
 0001:0002e7b0       ??0IConnectionPointContainer@@QEAA@XZ 000000018002f7b0 f i LineDisplayImpl.obj
 0001:0002e7d0       ??0IDataObject@@QEAA@XZ    000000018002f7d0 f i LineDisplayImpl.obj
 0001:0002e7f0       ??0IDispatch@@QEAA@XZ      000000018002f7f0 f i LineDisplayImpl.obj
 0001:0002e810       ??0IOPOSLineDisplay@@QEAA@XZ 000000018002f810 f i LineDisplayImpl.obj
 0001:0002e830       ??0IOPOSLineDisplay_1_6@@QEAA@XZ 000000018002f830 f i LineDisplayImpl.obj
 0001:0002e850       ??0IOPOSLineDisplay_1_7@@QEAA@XZ 000000018002f850 f i LineDisplayImpl.obj
 0001:0002e870       ??0IOPOSLineDisplay_1_8@@QEAA@XZ 000000018002f870 f i LineDisplayImpl.obj
 0001:0002e890       ??0IOPOSLineDisplay_1_9@@QEAA@XZ 000000018002f890 f i LineDisplayImpl.obj
 0001:0002e8b0       ??0IObjectSafety@@QEAA@XZ  000000018002f8b0 f i LineDisplayImpl.obj
 0001:0002e8d0       ??0IOleControl@@QEAA@XZ    000000018002f8d0 f i LineDisplayImpl.obj
 0001:0002e8f0       ??0IOleInPlaceActiveObject@@QEAA@XZ 000000018002f8f0 f i LineDisplayImpl.obj
 0001:0002e910       ??0IOleInPlaceObject@@QEAA@XZ 000000018002f910 f i LineDisplayImpl.obj
 0001:0002e930       ??0IOleInPlaceObjectWindowless@@QEAA@XZ 000000018002f930 f i LineDisplayImpl.obj
 0001:0002e950       ??0IOleObject@@QEAA@XZ     000000018002f950 f i LineDisplayImpl.obj
 0001:0002e970       ??0IOleWindow@@QEAA@XZ     000000018002f970 f i LineDisplayImpl.obj
 0001:0002e990       ??0IPersist@@QEAA@XZ       000000018002f990 f i LineDisplayImpl.obj
 0001:0002e9b0       ??0IPersistStorage@@QEAA@XZ 000000018002f9b0 f i LineDisplayImpl.obj
 0001:0002e9d0       ??0IPersistStreamInit@@QEAA@XZ 000000018002f9d0 f i LineDisplayImpl.obj
 0001:0002e9f0       ??0IProvideClassInfo2@@QEAA@XZ 000000018002f9f0 f i LineDisplayImpl.obj
 0001:0002ea10       ??0IProvideClassInfo@@QEAA@XZ 000000018002fa10 f i LineDisplayImpl.obj
 0001:0002ea30       ??0IQuickActivate@@QEAA@XZ 000000018002fa30 f i LineDisplayImpl.obj
 0001:0002ea50       ??0ISpecifyPropertyPages@@QEAA@XZ 000000018002fa50 f i LineDisplayImpl.obj
 0001:0002ea70       ??0IViewObject2@@QEAA@XZ   000000018002fa70 f i LineDisplayImpl.obj
 0001:0002ea90       ??0IViewObject@@QEAA@XZ    000000018002fa90 f i LineDisplayImpl.obj
 0001:0002eab0       ??0IViewObjectEx@@QEAA@XZ  000000018002fab0 f i LineDisplayImpl.obj
 0001:0002ead0       ??0OposVariantResult@@QEAA@XZ 000000018002fad0 f i LineDisplayImpl.obj
 0001:0002eaf0       ??0_CW@@QEAA@PEBD@Z        000000018002faf0 f i LineDisplayImpl.obj
 0001:0002eb40       ??0_CW@@QEAA@PEB_W@Z       000000018002fb40 f i LineDisplayImpl.obj
 0001:0002eb90       ??0_CWNCC@@QEAA@PEBD@Z     000000018002fb90 f i LineDisplayImpl.obj
 0001:0002ebc0       ??1?$CComControl@VCOPOSLineDisplay@@V?$CWindowImpl@VCOPOSLineDisplay@@VCWindow@ATL@@V?$CWinTraits@$0FGAAAAAA@$0A@@3@@ATL@@@ATL@@UEAA@XZ 000000018002fbc0 f i LineDisplayImpl.obj
 0001:0002ebf0       ??1?$CComPtr@UIDataAdviseHolder@@@ATL@@QEAA@XZ 000000018002fbf0 f i LineDisplayImpl.obj
 0001:0002ec10       ??1?$CComPtr@UIOleAdviseHolder@@@ATL@@QEAA@XZ 000000018002fc10 f i LineDisplayImpl.obj
 0001:0002ec30       ??1?$CComPtr@UIOleInPlaceSiteWindowless@@@ATL@@QEAA@XZ 000000018002fc30 f i LineDisplayImpl.obj
 0001:0002ec50       ??1?$CComPtrBase@UIDataAdviseHolder@@@ATL@@QEAA@XZ 000000018002fc50 f i LineDisplayImpl.obj
 0001:0002ec90       ??1?$CComPtrBase@UIOleAdviseHolder@@@ATL@@QEAA@XZ 000000018002fc90 f i LineDisplayImpl.obj
 0001:0002ecd0       ??1?$CComPtrBase@UIOleInPlaceSiteWindowless@@@ATL@@QEAA@XZ 000000018002fcd0 f i LineDisplayImpl.obj
 0001:0002ed10       ??1?$CComQIPtr@UIDispatch@@$1?_GUID_00020400_0000_0000_c000_000000000046@@3U__s_GUID@@B@ATL@@QEAA@XZ 000000018002fd10 f i LineDisplayImpl.obj
 0001:0002ed30       ??1?$CProxy_IOPOSEvents@VCOPOSLineDisplay@@@@QEAA@XZ 000000018002fd30 f i LineDisplayImpl.obj
 0001:0002ed50       ??1?$CWindowImpl@VCOPOSLineDisplay@@VCWindow@ATL@@V?$CWinTraits@$0FGAAAAAA@$0A@@3@@ATL@@UEAA@XZ 000000018002fd50 f i LineDisplayImpl.obj
 0001:0002ed70       ??1?$CWindowImplBaseT@VCWindow@ATL@@V?$CWinTraits@$0FGAAAAAA@$0A@@2@@ATL@@UEAA@XZ 000000018002fd70 f i LineDisplayImpl.obj
 0001:0002ed90       ??1?$CWindowImplRoot@VCWindow@ATL@@@ATL@@UEAA@XZ 000000018002fd90 f i LineDisplayImpl.obj
 0001:0002ee40       ??1?$IConnectionPointImpl@VCOPOSLineDisplay@@$1?DIID__IOPOSLineDisplayEvents@@3U_GUID@@BVCComDynamicUnkArray@ATL@@@ATL@@QEAA@XZ 000000018002fe40 f i LineDisplayImpl.obj
 0001:0002eec0       ??1?$IConnectionPointImpl@VCOPOSLineDisplay@@$1?IID_IPropertyNotifySink@@3U_GUID@@BVCComDynamicUnkArray@ATL@@@ATL@@QEAA@XZ 000000018002fec0 f i LineDisplayImpl.obj
 0001:0002ef40       ??1?$IPropertyNotifySinkCP@VCOPOSLineDisplay@@VCComDynamicUnkArray@ATL@@@ATL@@QEAA@XZ 000000018002ff40 f i LineDisplayImpl.obj
 0001:0002ef60       ??1CComControlBase@ATL@@UEAA@XZ 000000018002ff60 f i LineDisplayImpl.obj
 0001:0002f040       ??1CComDynamicUnkArray@ATL@@QEAA@XZ 0000000180030040 f i LineDisplayImpl.obj
 0001:0002f070       ??1CDynamicStdCallThunk2@ATL@@QEAA@XZ 0000000180030070 f i LineDisplayImpl.obj
 0001:0002f0a0       ??1CWndProcThunk@ATL@@QEAA@XZ 00000001800300a0 f i LineDisplayImpl.obj
 0001:0002f0d0       ??1OposVariantResult@@QEAA@XZ 00000001800300d0 f i LineDisplayImpl.obj
 0001:0002f100       ??1_CW@@QEAA@XZ            0000000180030100 f i LineDisplayImpl.obj
 0001:0002f160       ??1_CWNCC@@QEAA@XZ         0000000180030160 f i LineDisplayImpl.obj
 0001:0002f180       ??B_CW@@QEAAPEB_WXZ        0000000180030180 f i LineDisplayImpl.obj
 0001:0002f1b0       ??B_CWNCC@@QEAAPEA_WXZ     00000001800301b0 f i LineDisplayImpl.obj
 0001:0002f1d0       ??_EOposVariant@@QEAAPEAXI@Z 00000001800301d0 f i LineDisplayImpl.obj
 0001:0002f270       ?EventClaim@COPOSLineDisplay@@IEAAXXZ 0000000180030270 f i LineDisplayImpl.obj
 0001:0002f2a0       ?EventClose@COPOSLineDisplay@@IEAAXXZ 00000001800302a0 f i LineDisplayImpl.obj
 0001:0002f340       ?EventInit@COPOSLineDisplay@@IEAAJXZ 0000000180030340 f i LineDisplayImpl.obj
 0001:0002f5f0       ?EventOpen@COPOSLineDisplay@@IEAAXXZ 00000001800305f0 f i LineDisplayImpl.obj
 0001:0002f630       ?EventPreCloseRelease@COPOSLineDisplay@@IEAAXXZ 0000000180030630 f i LineDisplayImpl.obj
 0001:0002f6a0       ?EventUninit@COPOSLineDisplay@@IEAAXXZ 00000001800306a0 f i LineDisplayImpl.obj
 0001:0002f7c0       ?EventWindowProc@COPOSLineDisplay@@IEAA_JI_K_J@Z 00000001800307c0 f i LineDisplayImpl.obj
 0001:0002f8b0       ?FireEventCleanup@COPOSLineDisplay@@IEAAXXZ 00000001800308b0 f i LineDisplayImpl.obj
 0001:0002f8f0       ?FireEventSetup@COPOSLineDisplay@@IEAA_NXZ 00000001800308f0 f i LineDisplayImpl.obj
 0001:0002f960       ?GetModuleInstance@CComModule@ATL@@QEAAPEAUHINSTANCE__@@XZ 0000000180030960 f i LineDisplayImpl.obj
 0001:0002f970       ?SetRC@COPOSLineDisplay@@IEAAJJ@Z 0000000180030970 f i LineDisplayImpl.obj
 0001:0002f990       ?s_EventWindowProc@COPOSLineDisplay@@KA_JPEAUHWND__@@I_K_J@Z 0000000180030990 f i LineDisplayImpl.obj
 0001:0002fa30       _snwprintf                 0000000180030a30 f i LineDisplayImpl.obj
 0001:0002fac0       _vfwprintf_l               0000000180030ac0 f i LineDisplayImpl.obj
 0001:0002fb10       _vsnwprintf                0000000180030b10 f i LineDisplayImpl.obj
 0001:0002fb50       _vsnwprintf_l              0000000180030b50 f i LineDisplayImpl.obj
 0001:0002fbd0       vfwprintf                  0000000180030bd0 f i LineDisplayImpl.obj
 0001:0002fc01       DebugBreak                 0000000180030c01 f   kernel32:KERNEL32.dll
 0001:0002fc07       Sleep                      0000000180030c07 f   kernel32:KERNEL32.dll
 0001:0002fc0d       GetCurrentProcess          0000000180030c0d f   kernel32:KERNEL32.dll
 0001:0002fc13       TerminateProcess           0000000180030c13 f   kernel32:KERNEL32.dll
 0001:0002fc19       MultiByteToWideChar        0000000180030c19 f   kernel32:KERNEL32.dll
 0001:0002fc1f       WideCharToMultiByte        0000000180030c1f f   kernel32:KERNEL32.dll
 0001:0002fc25       DecodePointer              0000000180030c25 f   kernel32:KERNEL32.dll
 0001:0002fc2b       RaiseException             0000000180030c2b f   kernel32:KERNEL32.dll
 0001:0002fc31       GetLastError               0000000180030c31 f   kernel32:KERNEL32.dll
 0001:0002fc37       SetLastError               0000000180030c37 f   kernel32:KERNEL32.dll
 0001:0002fc3d       InitializeCriticalSectionEx 0000000180030c3d f   kernel32:KERNEL32.dll
 0001:0002fc43       DeleteCriticalSection      0000000180030c43 f   kernel32:KERNEL32.dll
 0001:0002fc49       EncodePointer              0000000180030c49 f   kernel32:KERNEL32.dll
 0001:0002fc4f       EnterCriticalSection       0000000180030c4f f   kernel32:KERNEL32.dll
 0001:0002fc55       LeaveCriticalSection       0000000180030c55 f   kernel32:KERNEL32.dll
 0001:0002fc5b       ResetEvent                 0000000180030c5b f   kernel32:KERNEL32.dll
 0001:0002fc61       ReleaseMutex               0000000180030c61 f   kernel32:KERNEL32.dll
 0001:0002fc67       WaitForSingleObject        0000000180030c67 f   kernel32:KERNEL32.dll
 0001:0002fc6d       GetCurrentThreadId         0000000180030c6d f   kernel32:KERNEL32.dll
 0001:0002fc73       DisableThreadLibraryCalls  0000000180030c73 f   kernel32:KERNEL32.dll
 0001:0002fc79       FreeLibrary                0000000180030c79 f   kernel32:KERNEL32.dll
 0001:0002fc7f       GetModuleFileNameW         0000000180030c7f f   kernel32:KERNEL32.dll
 0001:0002fc85       GetModuleHandleW           0000000180030c85 f   kernel32:KERNEL32.dll
 0001:0002fc8b       GetProcAddress             0000000180030c8b f   kernel32:KERNEL32.dll
 0001:0002fc91       LoadLibraryExW             0000000180030c91 f   kernel32:KERNEL32.dll
 0001:0002fc97       LoadResource               0000000180030c97 f   kernel32:KERNEL32.dll
 0001:0002fc9d       SizeofResource             0000000180030c9d f   kernel32:KERNEL32.dll
 0001:0002fca3       FindResourceW              0000000180030ca3 f   kernel32:KERNEL32.dll
 0001:0002fca9       GlobalAlloc                0000000180030ca9 f   kernel32:KERNEL32.dll
 0001:0002fcaf       GlobalUnlock               0000000180030caf f   kernel32:KERNEL32.dll
 0001:0002fcb5       GlobalLock                 0000000180030cb5 f   kernel32:KERNEL32.dll
 0001:0002fcbb       MulDiv                     0000000180030cbb f   kernel32:KERNEL32.dll
 0001:0002fcc1       lstrcmpiW                  0000000180030cc1 f   kernel32:KERNEL32.dll
 0001:0002fcc7       DeleteFileW                0000000180030cc7 f   kernel32:KERNEL32.dll
 0001:0002fccd       CloseHandle                0000000180030ccd f   kernel32:KERNEL32.dll
 0001:0002fcd3       SetEvent                   0000000180030cd3 f   kernel32:KERNEL32.dll
 0001:0002fcd9       CreateMutexW               0000000180030cd9 f   kernel32:KERNEL32.dll
 0001:0002fcdf       CreateEventW               0000000180030cdf f   kernel32:KERNEL32.dll
 0001:0002fce5       GetCurrentProcessId        0000000180030ce5 f   kernel32:KERNEL32.dll
 0001:0002fceb       LocalFree                  0000000180030ceb f   kernel32:KERNEL32.dll
 0001:0002fcf1       FormatMessageW             0000000180030cf1 f   kernel32:KERNEL32.dll
 0001:0002fcf7       GetActiveWindow            0000000180030cf7 f   user32:USER32.dll
 0001:0002fcfd       MessageBoxW                0000000180030cfd f   user32:USER32.dll
 0001:0002fd03       UnregisterClassW           0000000180030d03 f   user32:USER32.dll
 0001:0002fd09       PostMessageW               0000000180030d09 f   user32:USER32.dll
 0001:0002fd0f       DefWindowProcW             0000000180030d0f f   user32:USER32.dll
 0001:0002fd15       CallWindowProcW            0000000180030d15 f   user32:USER32.dll
 0001:0002fd1b       RegisterClassExW           0000000180030d1b f   user32:USER32.dll
 0001:0002fd21       GetClassInfoExW            0000000180030d21 f   user32:USER32.dll
 0001:0002fd27       CreateWindowExW            0000000180030d27 f   user32:USER32.dll
 0001:0002fd2d       IsWindow                   0000000180030d2d f   user32:USER32.dll
 0001:0002fd33       IsChild                    0000000180030d33 f   user32:USER32.dll
 0001:0002fd39       DestroyWindow              0000000180030d39 f   user32:USER32.dll
 0001:0002fd3f       ShowWindow                 0000000180030d3f f   user32:USER32.dll
 0001:0002fd45       SetWindowPos               0000000180030d45 f   user32:USER32.dll
 0001:0002fd4b       CharNextW                  0000000180030d4b f   user32:USER32.dll
 0001:0002fd51       SetFocus                   0000000180030d51 f   user32:USER32.dll
 0001:0002fd57       GetFocus                   0000000180030d57 f   user32:USER32.dll
 0001:0002fd5d       GetKeyState                0000000180030d5d f   user32:USER32.dll
 0001:0002fd63       GetDC                      0000000180030d63 f   user32:USER32.dll
 0001:0002fd69       ReleaseDC                  0000000180030d69 f   user32:USER32.dll
 0001:0002fd6f       BeginPaint                 0000000180030d6f f   user32:USER32.dll
 0001:0002fd75       EndPaint                   0000000180030d75 f   user32:USER32.dll
 0001:0002fd7b       SetWindowRgn               0000000180030d7b f   user32:USER32.dll
 0001:0002fd81       InvalidateRect             0000000180030d81 f   user32:USER32.dll
 0001:0002fd87       GetClientRect              0000000180030d87 f   user32:USER32.dll
 0001:0002fd8d       IntersectRect              0000000180030d8d f   user32:USER32.dll
 0001:0002fd93       UnionRect                  0000000180030d93 f   user32:USER32.dll
 0001:0002fd99       OffsetRect                 0000000180030d99 f   user32:USER32.dll
 0001:0002fd9f       EqualRect                  0000000180030d9f f   user32:USER32.dll
 0001:0002fda5       PtInRect                   0000000180030da5 f   user32:USER32.dll
 0001:0002fdab       GetWindowLongPtrW          0000000180030dab f   user32:USER32.dll
 0001:0002fdb1       SetWindowLongPtrW          0000000180030db1 f   user32:USER32.dll
 0001:0002fdb7       GetParent                  0000000180030db7 f   user32:USER32.dll
 0001:0002fdbd       LoadCursorW                0000000180030dbd f   user32:USER32.dll
 0001:0002fdc3       PeekMessageW               0000000180030dc3 f   user32:USER32.dll
 0001:0002fdc9       RegisterClassW             0000000180030dc9 f   user32:USER32.dll
 0001:0002fdcf       LoadBitmapW                0000000180030dcf f   user32:USER32.dll
 0001:0002fdd5       CloseMetaFile              0000000180030dd5 f   gdi32:GDI32.dll
 0001:0002fddb       CreateDCW                  0000000180030ddb f   gdi32:GDI32.dll
 0001:0002fde1       CreateMetaFileW            0000000180030de1 f   gdi32:GDI32.dll
 0001:0002fde7       CreateRectRgnIndirect      0000000180030de7 f   gdi32:GDI32.dll
 0001:0002fded       DeleteDC                   0000000180030ded f   gdi32:GDI32.dll
 0001:0002fdf3       DeleteMetaFile             0000000180030df3 f   gdi32:GDI32.dll
 0001:0002fdf9       GetDeviceCaps              0000000180030df9 f   gdi32:GDI32.dll
 0001:0002fdff       RestoreDC                  0000000180030dff f   gdi32:GDI32.dll
 0001:0002fe05       SaveDC                     0000000180030e05 f   gdi32:GDI32.dll
 0001:0002fe0b       SetMapMode                 0000000180030e0b f   gdi32:GDI32.dll
 0001:0002fe11       LPtoDP                     0000000180030e11 f   gdi32:GDI32.dll
 0001:0002fe17       SetViewportOrgEx           0000000180030e17 f   gdi32:GDI32.dll
 0001:0002fe1d       SetWindowExtEx             0000000180030e1d f   gdi32:GDI32.dll
 0001:0002fe23       SetWindowOrgEx             0000000180030e23 f   gdi32:GDI32.dll
 0001:0002fe29       BitBlt                     0000000180030e29 f   gdi32:GDI32.dll
 0001:0002fe2f       CreateCompatibleDC         0000000180030e2f f   gdi32:GDI32.dll
 0001:0002fe35       DeleteObject               0000000180030e35 f   gdi32:GDI32.dll
 0001:0002fe3b       SelectObject               0000000180030e3b f   gdi32:GDI32.dll
 0001:0002fe41       GetObjectW                 0000000180030e41 f   gdi32:GDI32.dll
 0001:0002fe47       RegCloseKey                0000000180030e47 f   advapi32:ADVAPI32.dll
 0001:0002fe4d       RegCreateKeyExW            0000000180030e4d f   advapi32:ADVAPI32.dll
 0001:0002fe53       RegDeleteKeyW              0000000180030e53 f   advapi32:ADVAPI32.dll
 0001:0002fe59       RegDeleteValueW            0000000180030e59 f   advapi32:ADVAPI32.dll
 0001:0002fe5f       RegEnumKeyExW              0000000180030e5f f   advapi32:ADVAPI32.dll
 0001:0002fe65       RegOpenKeyExW              0000000180030e65 f   advapi32:ADVAPI32.dll
 0001:0002fe6b       RegQueryInfoKeyW           0000000180030e6b f   advapi32:ADVAPI32.dll
 0001:0002fe71       RegSetValueExW             0000000180030e71 f   advapi32:ADVAPI32.dll
 0001:0002fe77       RegQueryValueExW           0000000180030e77 f   advapi32:ADVAPI32.dll
 0001:0002fe7d       CoCreateInstance           0000000180030e7d f   ole32:ole32.dll
 0001:0002fe83       StringFromGUID2            0000000180030e83 f   ole32:ole32.dll
 0001:0002fe89       CoTaskMemAlloc             0000000180030e89 f   ole32:ole32.dll
 0001:0002fe8f       CoTaskMemRealloc           0000000180030e8f f   ole32:ole32.dll
 0001:0002fe95       CoTaskMemFree              0000000180030e95 f   ole32:ole32.dll
 0001:0002fe9b       ReadClassStm               0000000180030e9b f   ole32:ole32.dll
 0001:0002fea1       WriteClassStm              0000000180030ea1 f   ole32:ole32.dll
 0001:0002fea7       CreateDataAdviseHolder     0000000180030ea7 f   ole32:ole32.dll
 0001:0002fead       OleSaveToStream            0000000180030ead f   ole32:ole32.dll
 0001:0002feb3       CreateOleAdviseHolder      0000000180030eb3 f   ole32:ole32.dll
 0001:0002feb9       OleRegGetUserType          0000000180030eb9 f   ole32:ole32.dll
 0001:0002febf       OleRegGetMiscStatus        0000000180030ebf f   ole32:ole32.dll
 0001:0002fec5       OleRegEnumVerbs            0000000180030ec5 f   ole32:ole32.dll
 0001:0002fecb       CLSIDFromProgID            0000000180030ecb f   ole32:ole32.dll
 0001:0002fed1       SysAllocString             0000000180030ed1 f   oleaut32:OLEAUT32.dll
 0001:0002fed7       SysAllocStringLen          0000000180030ed7 f   oleaut32:OLEAUT32.dll
 0001:0002fedd       SysFreeString              0000000180030edd f   oleaut32:OLEAUT32.dll
 0001:0002fee3       SysStringLen               0000000180030ee3 f   oleaut32:OLEAUT32.dll
 0001:0002fee9       VariantClear               0000000180030ee9 f   oleaut32:OLEAUT32.dll
 0001:0002feef       VariantCopyInd             0000000180030eef f   oleaut32:OLEAUT32.dll
 0001:0002fef5       VariantChangeType          0000000180030ef5 f   oleaut32:OLEAUT32.dll
 0001:0002fefb       SysStringByteLen           0000000180030efb f   oleaut32:OLEAUT32.dll
 0001:0002ff01       SysAllocStringByteLen      0000000180030f01 f   oleaut32:OLEAUT32.dll
 0001:0002ff07       VariantInit                0000000180030f07 f   oleaut32:OLEAUT32.dll
 0001:0002ff0d       VarUI4FromStr              0000000180030f0d f   oleaut32:OLEAUT32.dll
 0001:0002ff13       LoadTypeLib                0000000180030f13 f   oleaut32:OLEAUT32.dll
 0001:0002ff19       LoadRegTypeLib             0000000180030f19 f   oleaut32:OLEAUT32.dll
 0001:0002ff1f       RegisterTypeLib            0000000180030f1f f   oleaut32:OLEAUT32.dll
 0001:0002ff25       UnRegisterTypeLib          0000000180030f25 f   oleaut32:OLEAUT32.dll
 0001:0002ff2b       OleCreatePropertyFrame     0000000180030f2b f   oleaut32:OLEAUT32.dll
 0001:0002ff40       _RTC_AllocaHelper          0000000180030f40 f   LIBCMTD:stack.obj
 0001:0002ff80       _RTC_CheckStackVars        0000000180030f80 f   LIBCMTD:stack.obj
 0001:00030010       _RTC_CheckStackVars2       0000000180031010 f   LIBCMTD:stack.obj
 0001:00030120       _CRT_RTC_INIT              0000000180031120 f   LIBCMTD:init.obj
 0001:00030130       _CRT_RTC_INITW             0000000180031130 f   LIBCMTD:init.obj
 0001:00030140       _RTC_InitBase              0000000180031140 f   LIBCMTD:init.obj
 0001:00030180       _RTC_Shutdown              0000000180031180 f   LIBCMTD:init.obj
 0001:000301b0       __GSHandlerCheck           00000001800311b0 f   LIBCMTD:gshandler.obj
 0001:000301f0       __GSHandlerCheckCommon     00000001800311f0 f   LIBCMTD:gshandler.obj
 0001:00030300       __security_check_cookie    0000000180031300 f   LIBCMTD:amdsecgs.obj
 0001:00030320       ??_U@YAPEAX_K@Z            0000000180031320 f   LIBCMTD:new_array.obj
 0001:00030340       ??3@YAXPEAX_K@Z            0000000180031340 f   LIBCMTD:delete_scalar_size.obj
 0001:00030360       ??_V@YAXPEAX@Z             0000000180031360 f   LIBCMTD:delete_array.obj
 0001:00030380       ??_V@YAXPEAX_K@Z           0000000180031380 f   LIBCMTD:delete_array_size.obj
 0001:000303a0       ?configure_argv@__scrt_narrow_argv_policy@@SAHXZ 00000001800313a0 f i LIBCMTD:utility.obj
 0001:00030490       ?initialize_environment@__scrt_narrow_environment_policy@@SAHXZ 0000000180031490 f i LIBCMTD:utility.obj
 0001:00030530       NtCurrentTeb               0000000180031530 f i LIBCMTD:utility.obj
 0001:00030540       __scrt_acquire_startup_lock 0000000180031540 f   LIBCMTD:utility.obj
 0001:000305b0       __scrt_dllmain_after_initialize_c 00000001800315b0 f   LIBCMTD:utility.obj
 0001:000305e0       __scrt_dllmain_before_initialize_c 00000001800315e0 f   LIBCMTD:utility.obj
 0001:00030600       __scrt_dllmain_crt_thread_attach 0000000180031600 f   LIBCMTD:utility.obj
 0001:00030630       __scrt_dllmain_crt_thread_detach 0000000180031630 f   LIBCMTD:utility.obj
 0001:00030650       __scrt_dllmain_exception_filter 0000000180031650 f   LIBCMTD:utility.obj
 0001:000306c0       __scrt_dllmain_uninitialize_c 00000001800316c0 f   LIBCMTD:utility.obj
 0001:000306f0       __scrt_dllmain_uninitialize_critical 00000001800316f0 f   LIBCMTD:utility.obj
 0001:00030710       __scrt_initialize_crt      0000000180031710 f   LIBCMTD:utility.obj
 0001:00030760       __scrt_initialize_onexit_tables 0000000180031760 f   LIBCMTD:utility.obj
 0001:00030870       __scrt_is_nonwritable_in_current_image 0000000180031870 f   LIBCMTD:utility.obj
 0001:00030900       __scrt_release_startup_lock 0000000180031900 f   LIBCMTD:utility.obj
 0001:00030930       __scrt_uninitialize_crt    0000000180031930 f   LIBCMTD:utility.obj
 0001:00030970       _onexit                    0000000180031970 f   LIBCMTD:utility.obj
 0001:000309f0       at_quick_exit              00000001800319f0 f   LIBCMTD:utility.obj
 0001:00030a40       atexit                     0000000180031a40 f   LIBCMTD:utility.obj
 0001:00030a80       ??3@YAXPEAX@Z              0000000180031a80 f   LIBCMTD:delete_scalar.obj
 0001:00030aa0       __raise_securityfailure    0000000180031aa0 f   LIBCMTD:gs_report.obj
 0001:00030ae0       __report_gsfailure         0000000180031ae0 f   LIBCMTD:gs_report.obj
 0001:00030bc0       __report_rangecheckfailure 0000000180031bc0 f   LIBCMTD:gs_report.obj
 0001:00030be0       __report_securityfailure   0000000180031be0 f   LIBCMTD:gs_report.obj
 0001:00030c80       __report_securityfailureEx 0000000180031c80 f   LIBCMTD:gs_report.obj
 0001:00031040       _Init_thread_abort         0000000180032040 f   LIBCMTD:thread_safe_statics.obj
 0001:00031070       _Init_thread_footer        0000000180032070 f   LIBCMTD:thread_safe_statics.obj
 0001:000310d0       _Init_thread_header        00000001800320d0 f   LIBCMTD:thread_safe_statics.obj
 0001:00031160       _Init_thread_lock          0000000180032160 f   LIBCMTD:thread_safe_statics.obj
 0001:00031180       _Init_thread_notify        0000000180032180 f   LIBCMTD:thread_safe_statics.obj
 0001:000311e0       _Init_thread_unlock        00000001800321e0 f   LIBCMTD:thread_safe_statics.obj
 0001:00031200       _Init_thread_wait          0000000180032200 f   LIBCMTD:thread_safe_statics.obj
 0001:000312b0       ??2@YAPEAX_KAEBUnothrow_t@std@@@Z 00000001800322b0 f   LIBCMTD:new_scalar_nothrow.obj
 0001:000312f0       ??_U@YAPEAX_KAEBUnothrow_t@std@@@Z 00000001800322f0 f   LIBCMTD:new_array_nothrow.obj
 0001:00031320       __GSHandlerCheck_SEH       0000000180032320 f   LIBCMTD:gshandlerseh.obj
 0001:000313f0       _alloca_probe              00000001800323f0 f   LIBCMTD:chkstk.obj
 0001:000313f0       __chkstk                   00000001800323f0 f   LIBCMTD:chkstk.obj
 0001:00031850       _CRT_INIT                  0000000180032850 f   LIBCMTD:dll_dllmain.obj
 0001:00031880       _DllMainCRTStartup         0000000180032880 f   LIBCMTD:dll_dllmain.obj
 0001:00031950       ?_RTC_AllocaFailure@@YAXPEAXPEAU_RTC_ALLOCA_NODE@@H@Z 0000000180032950 f   LIBCMTD:error.obj
 0001:00031ab0       ?_RTC_Failure@@YAXPEAXH@Z  0000000180032ab0 f   LIBCMTD:error.obj
 0001:00031b00       ?_RTC_StackFailure@@YAXPEAXPEBD@Z 0000000180032b00 f   LIBCMTD:error.obj
 0001:00031f30       _RTC_UninitUse             0000000180032f30 f   LIBCMTD:error.obj
 0001:00032000       _vsprintf_s_l              0000000180033000 f i LIBCMTD:error.obj
 0001:00032070       sprintf_s                  0000000180033070 f i LIBCMTD:error.obj
 0001:000320a0       ?_RTC_GetErrorFunc@@YAP6AHHPEBDH00ZZPEBX@Z 00000001800330a0 f   LIBCMTD:userapi.obj
 0001:000320b0       ?_RTC_GetErrorFuncW@@YAP6AHHPEB_WH00ZZPEBX@Z 00000001800330b0 f   LIBCMTD:userapi.obj
 0001:000320c0       _RTC_GetErrDesc            00000001800330c0 f   LIBCMTD:userapi.obj
 0001:000320e0       _RTC_NumErrors             00000001800330e0 f   LIBCMTD:userapi.obj
 0001:000320f0       _RTC_SetErrorFunc          00000001800330f0 f   LIBCMTD:userapi.obj
 0001:00032110       _RTC_SetErrorFuncW         0000000180033110 f   LIBCMTD:userapi.obj
 0001:00032130       _RTC_SetErrorType          0000000180033130 f   LIBCMTD:userapi.obj
 0001:00032150       ??2@YAPEAX_K@Z             0000000180033150 f   LIBCMTD:new_scalar.obj
 0001:000321a0       __isa_available_init       00000001800331a0 f   LIBCMTD:cpu_disp.obj
 0001:00032540       _get_startup_argv_mode     0000000180033540 f   LIBCMTD:argv_mode.obj
 0001:00032550       __scrt_is_ucrt_dll_in_use  0000000180033550 f   LIBCMTD:ucrt_detection.obj
 0001:00032580       __crt_debugger_hook        0000000180033580 f   LIBCMTD:utility_desktop.obj
 0001:00032590       __scrt_fastfail            0000000180033590 f   LIBCMTD:utility_desktop.obj
 0001:00032730       __scrt_get_show_window_mode 0000000180033730 f   LIBCMTD:utility_desktop.obj
 0001:00032790       __scrt_initialize_mta      0000000180033790 f   LIBCMTD:utility_desktop.obj
 0001:000327a0       __scrt_initialize_winrt    00000001800337a0 f   LIBCMTD:utility_desktop.obj
 0001:000327b0       __scrt_is_managed_app      00000001800337b0 f   LIBCMTD:utility_desktop.obj
 0001:00032860       __scrt_set_unhandled_exception_filter 0000000180033860 f   LIBCMTD:utility_desktop.obj
 0001:00032880       __scrt_stub_for_initialize_mta 0000000180033880 f   LIBCMTD:utility_desktop.obj
 0001:00032880       __scrt_exe_initialize_mta  0000000180033880 f   LIBCMTD:utility_desktop.obj
 0001:00032890       __scrt_unhandled_exception_filter 0000000180033890 f   LIBCMTD:utility_desktop.obj
 0001:00032930       _guard_check_icall_nop     0000000180033930 f i LIBCMTD:guard_support.obj
 0001:00032940       ReadNoFence64              0000000180033940 f i LIBCMTD:guard_support.obj
 0001:00032960       ReadPointerNoFence         0000000180033960 f i LIBCMTD:guard_support.obj
 0001:00032980       __castguard_check_failure_debugbreak 0000000180033980 f i LIBCMTD:guard_support.obj
 0001:000329a0       __castguard_check_failure_fastfail 00000001800339a0 f i LIBCMTD:guard_support.obj
 0001:000329d0       __castguard_check_failure_nop 00000001800339d0 f i LIBCMTD:guard_support.obj
 0001:000329e0       __castguard_check_failure_os_handled 00000001800339e0 f i LIBCMTD:guard_support.obj
 0001:00032ab0       __castguard_slow_path_check_debugbreak 0000000180033ab0 f i LIBCMTD:guard_support.obj
 0001:00032af0       __castguard_slow_path_check_fastfail 0000000180033af0 f i LIBCMTD:guard_support.obj
 0001:00032b40       __castguard_slow_path_check_nop 0000000180033b40 f i LIBCMTD:guard_support.obj
 0001:00032b50       __castguard_slow_path_check_os_handled 0000000180033b50 f i LIBCMTD:guard_support.obj
 0001:00032c10       _guard_icall_checks_enforced 0000000180033c10 f i LIBCMTD:guard_support.obj
 0001:00032c50       _guard_rf_checks_enforced  0000000180033c50 f i LIBCMTD:guard_support.obj
 0001:00032d20       __security_init_cookie     0000000180033d20 f   LIBCMTD:gs_support.obj
 0001:00032da0       ?__scrt_initialize_type_info@@YAXXZ 0000000180033da0 f   LIBCMTD:tncleanup.obj
 0001:00032dc0       ?__scrt_uninitialize_type_info@@YAXXZ 0000000180033dc0 f   LIBCMTD:tncleanup.obj
 0001:00032de0       __local_stdio_scanf_options 0000000180033de0 f i LIBCMTD:default_local_stdio_options.obj
 0001:00032df0       __scrt_initialize_default_local_stdio_options 0000000180033df0 f   LIBCMTD:default_local_stdio_options.obj
 0001:00032e40       __scrt_get_dyn_tls_init_callback 0000000180033e40 f   LIBCMTD:dyn_tls_init.obj
 0001:00032e50       _RTC_Initialize            0000000180033e50 f   LIBCMTD:initsect.obj
 0001:00032ea0       _RTC_Terminate             0000000180033ea0 f   LIBCMTD:initsect.obj
 0001:00033410       ?_RTC_GetSrcLine@@YAHPEAEPEA_WKPEAH1K@Z 0000000180034410 f   LIBCMTD:pdblkup.obj
 0001:000337e0       ??0bad_alloc@std@@AEAA@QEBD@Z 00000001800347e0 f i LIBCMTD:throw_bad_alloc.obj
 0001:00033820       ??0bad_alloc@std@@QEAA@AEBV01@@Z 0000000180034820 f i LIBCMTD:throw_bad_alloc.obj
 0001:00033860       ??0bad_alloc@std@@QEAA@XZ  0000000180034860 f i LIBCMTD:throw_bad_alloc.obj
 0001:000338a0       ??0bad_array_new_length@std@@QEAA@AEBV01@@Z 00000001800348a0 f i LIBCMTD:throw_bad_alloc.obj
 0001:000338e0       ??0bad_array_new_length@std@@QEAA@XZ 00000001800348e0 f i LIBCMTD:throw_bad_alloc.obj
 0001:00033920       ??0exception@std@@QEAA@AEBV01@@Z 0000000180034920 f i LIBCMTD:throw_bad_alloc.obj
 0001:00033980       ??0exception@std@@QEAA@QEBDH@Z 0000000180034980 f i LIBCMTD:throw_bad_alloc.obj
 0001:000339d0       ??1bad_alloc@std@@UEAA@XZ  00000001800349d0 f i LIBCMTD:throw_bad_alloc.obj
 0001:000339f0       ??1bad_array_new_length@std@@UEAA@XZ 00000001800349f0 f i LIBCMTD:throw_bad_alloc.obj
 0001:00033a10       ??1exception@std@@UEAA@XZ  0000000180034a10 f i LIBCMTD:throw_bad_alloc.obj
 0001:00033a40       ??_Ebad_alloc@std@@UEAAPEAXI@Z 0000000180034a40 f i LIBCMTD:throw_bad_alloc.obj
 0001:00033a40       ??_Gbad_alloc@std@@UEAAPEAXI@Z 0000000180034a40 f i LIBCMTD:throw_bad_alloc.obj
 0001:00033a80       ??_Gbad_array_new_length@std@@UEAAPEAXI@Z 0000000180034a80 f i LIBCMTD:throw_bad_alloc.obj
 0001:00033a80       ??_Ebad_array_new_length@std@@UEAAPEAXI@Z 0000000180034a80 f i LIBCMTD:throw_bad_alloc.obj
 0001:00033ac0       ??_Gexception@std@@UEAAPEAXI@Z 0000000180034ac0 f i LIBCMTD:throw_bad_alloc.obj
 0001:00033ac0       ??_Eexception@std@@UEAAPEAXI@Z 0000000180034ac0 f i LIBCMTD:throw_bad_alloc.obj
 0001:00033b00       ?__scrt_throw_std_bad_alloc@@YAXXZ 0000000180034b00 f   LIBCMTD:throw_bad_alloc.obj
 0001:00033b30       ?__scrt_throw_std_bad_array_new_length@@YAXXZ 0000000180034b30 f   LIBCMTD:throw_bad_alloc.obj
 0001:00033b60       ?what@exception@std@@UEBAPEBDXZ 0000000180034b60 f i LIBCMTD:throw_bad_alloc.obj
 0001:00033ba0       ??1type_info@@UEAA@XZ      0000000180034ba0 f   LIBCMTD:std_type_info_static.obj
 0001:00033bc0       ??_Etype_info@@UEAAPEAXI@Z 0000000180034bc0 f i LIBCMTD:std_type_info_static.obj
 0001:00033bc0       ??_Gtype_info@@UEAAPEAXI@Z 0000000180034bc0 f i LIBCMTD:std_type_info_static.obj
 0001:00033bfc       ??$?2PEAUHINSTANCE__@@@Wrapper@?$CSimpleArray@PEAUHINSTANCE__@@V?$CSimpleArrayEqualHelper@PEAUHINSTANCE__@@@ATL@@@ATL@@SAPEAX_KPEAPEAUHINSTANCE__@@@Z 0000000180034bfc f i atls:atlbase.obj
 0001:00033c00       ??0?$CSimpleArray@PEAUHINSTANCE__@@V?$CSimpleArrayEqualHelper@PEAUHINSTANCE__@@@ATL@@@ATL@@QEAA@XZ 0000000180034c00 f i atls:atlbase.obj
 0001:00033c10       ??0CAtlBaseModule@ATL@@QEAA@XZ 0000000180034c10 f   atls:atlbase.obj
 0001:00033cb8       ??0Wrapper@?$CSimpleArray@PEAUHINSTANCE__@@V?$CSimpleArrayEqualHelper@PEAUHINSTANCE__@@@ATL@@@ATL@@QEAA@AEBQEAUHINSTANCE__@@@Z 0000000180034cb8 f i atls:atlbase.obj
 0001:00033cc4       ??0_ATL_BASE_MODULE70@ATL@@QEAA@XZ 0000000180034cc4 f i atls:atlbase.obj
 0001:00033cf0       ??1?$CSimpleArray@PEAUHINSTANCE__@@V?$CSimpleArrayEqualHelper@PEAUHINSTANCE__@@@ATL@@@ATL@@QEAA@XZ 0000000180034cf0 f i atls:atlbase.obj
 0001:00033d18       ??1CAtlBaseModule@ATL@@QEAA@XZ 0000000180034d18 f   atls:atlbase.obj
 0001:00033d4c       ??1_ATL_BASE_MODULE70@ATL@@QEAA@XZ 0000000180034d4c f i atls:atlbase.obj
 0001:00033d78       ??A?$CSimpleArray@PEAUHINSTANCE__@@V?$CSimpleArrayEqualHelper@PEAUHINSTANCE__@@@ATL@@@ATL@@QEAAAEAPEAUHINSTANCE__@@H@Z 0000000180034d78 f i atls:atlbase.obj
 0001:00033da4       ?Add@?$CSimpleArray@PEAUHINSTANCE__@@V?$CSimpleArrayEqualHelper@PEAUHINSTANCE__@@@ATL@@@ATL@@QEAAHAEBQEAUHINSTANCE__@@@Z 0000000180034da4 f i atls:atlbase.obj
 0001:00033e44       ?AddResourceInstance@CAtlBaseModule@ATL@@QEAA_NPEAUHINSTANCE__@@@Z 0000000180034e44 f   atls:atlbase.obj
 0001:00033e8c       ?GetHInstanceAt@CAtlBaseModule@ATL@@QEAAPEAUHINSTANCE__@@H@Z 0000000180034e8c f   atls:atlbase.obj
 0001:00033f04       ?GetSize@?$CSimpleArray@PEAUHINSTANCE__@@V?$CSimpleArrayEqualHelper@PEAUHINSTANCE__@@@ATL@@@ATL@@QEBAHXZ 0000000180034f04 f i atls:atlbase.obj
 0001:00033f08       ?InternalSetAtIndex@?$CSimpleArray@PEAUHINSTANCE__@@V?$CSimpleArrayEqualHelper@PEAUHINSTANCE__@@@ATL@@@ATL@@QEAAXHAEBQEAUHINSTANCE__@@@Z 0000000180034f08 f i atls:atlbase.obj
 0001:00033f20       ?RemoveAll@?$CSimpleArray@PEAUHINSTANCE__@@V?$CSimpleArrayEqualHelper@PEAUHINSTANCE__@@@ATL@@@ATL@@QEAAXXZ 0000000180034f20 f i atls:atlbase.obj
 0001:00033f48       ?RemoveAt@?$CSimpleArray@PEAUHINSTANCE__@@V?$CSimpleArrayEqualHelper@PEAUHINSTANCE__@@@ATL@@@ATL@@QEAAHH@Z 0000000180034f48 f i atls:atlbase.obj
 0001:00033fe0       ?RemoveResourceInstance@CAtlBaseModule@ATL@@QEAA_NPEAUHINSTANCE__@@@Z 0000000180034fe0 f   atls:atlbase.obj
 0001:00034068       ?memmove_s@Checked@ATL@@YAXPEAX_KPEBX1@Z 0000000180035068 f i atls:atlbase.obj
 0001:00034510       ?GetCodeAddress@_stdcallthunk@ATL@@QEAAPEAXXZ 0000000180035510 f i atls:atlthunk.obj
 0001:0003453c       ?Init@_stdcallthunk@ATL@@QEAAH_KPEAX@Z 000000018003553c f i atls:atlthunk.obj
 0001:0003458c       ?__AllocStdCallThunk@@YAPEAXXZ 000000018003558c f   atls:atlthunk.obj
 0001:00034594       ?__AllocStdCallThunk@ATL@@YAPEAXXZ 0000000180035594 f   atls:atlthunk.obj
 0001:0003459c       ?__AllocStdCallThunk_cmn@@YAPEAXXZ 000000018003559c f   atls:atlthunk.obj
 0001:00034674       ?__FreeStdCallThunk@@YAXPEAX@Z 0000000180035674 f   atls:atlthunk.obj
 0001:00034694       ?__FreeStdCallThunk@ATL@@YAXPEAX@Z 0000000180035694 f   atls:atlthunk.obj
 0001:000346b4       ?__FreeStdCallThunk_cmn@@YAXPEAX@Z 00000001800356b4 f   atls:atlthunk.obj
 0001:00034754       AtlThunk_AllocateData      0000000180035754 f   atls:atlthunk.obj
 0001:000347d0       AtlThunk_DataToCode        00000001800357d0 f   atls:atlthunk.obj
 0001:00034824       AtlThunk_FreeData          0000000180035824 f   atls:atlthunk.obj
 0001:00034884       AtlThunk_InitData          0000000180035884 f   atls:atlthunk.obj
 0001:00034940       memset_repmovs             0000000180035940 f   libvcruntimed:memset.obj
 0001:00034960       memset                     0000000180035960 f   libvcruntimed:memset.obj
 0001:00034af0       ??$__crt_interlocked_exchange_pointer@$$A6AXXZP6AXXZ@@YAP6AXXZPEDS6AXXZQ6AXXZ@Z 0000000180035af0 f i libvcruntimed:purevirt.obj
 0001:00034b10       ??$__crt_interlocked_read_pointer@$$A6AXXZ@@YAP6AXXZPEDS6AXXZ@Z 0000000180035b10 f i libvcruntimed:purevirt.obj
 0001:00034b30       ?__crt_interlocked_read_64@@YA_JPED_J@Z 0000000180035b30 f i libvcruntimed:purevirt.obj
 0001:00034b50       _get_purecall_handler      0000000180035b50 f   libvcruntimed:purevirt.obj
 0001:00034b70       _purecall                  0000000180035b70 f   libvcruntimed:purevirt.obj
 0001:00034bb0       _set_purecall_handler      0000000180035bb0 f   libvcruntimed:purevirt.obj
 0001:00034be0       memcmp                     0000000180035be0 f   libvcruntimed:memcmp.obj
 0001:00034cc0       memcpy_repmovs             0000000180035cc0 f   libvcruntimed:memcpy.obj
 0001:00034ce0       memcpy                     0000000180035ce0 f   libvcruntimed:memcpy.obj
 0001:00034ce0       memmove                    0000000180035ce0 f   libvcruntimed:memcpy.obj
 0001:00035360       wcsstr                     0000000180036360 f   libvcruntimed:wcsstr.obj
 0001:000359c0       __vcrt_initialize          00000001800369c0 f   libvcruntimed:initialization.obj
 0001:00035a00       __vcrt_thread_attach       0000000180036a00 f   libvcruntimed:initialization.obj
 0001:00035a20       __vcrt_thread_detach       0000000180036a20 f   libvcruntimed:initialization.obj
 0001:00035a40       __vcrt_uninitialize        0000000180036a40 f   libvcruntimed:initialization.obj
 0001:00035a60       __vcrt_uninitialize_critical 0000000180036a60 f   libvcruntimed:initialization.obj
 0001:00035a80       __C_specific_handler       0000000180036a80 f   libvcruntimed:riscchandler.obj
 0001:00035ef0       ??$?0AEAViterator@TryBlockMap4@FH4@@AEAV012@$0A@@?$pair@Viterator@TryBlockMap4@FH4@@V123@@std@@QEAA@AEAViterator@TryBlockMap4@FH4@@0@Z 0000000180036ef0 f i libvcruntimed:risctrnsctrl.obj
 0001:00035f50       ??$?0AEAViterator@TryBlockMap@__FrameHandler3@@AEAV012@$0A@@?$pair@Viterator@TryBlockMap@__FrameHandler3@@V123@@std@@QEAA@AEAViterator@TryBlockMap@__FrameHandler3@@0@Z 0000000180036f50 f i libvcruntimed:risctrnsctrl.obj
 0001:00036120       ??$_CallSETranslator@V__FrameHandler3@@@@YAHPEAUEHExceptionRecord@@PEA_KPEAU_CONTEXT@@PEAU_xDISPATCHER_CONTEXT@@PEBU_s_FuncInfo@@K1H@Z 0000000180037120 f i libvcruntimed:risctrnsctrl.obj
 0001:000361b0       ??$_CallSETranslator@V__FrameHandler4@@@@YAHPEAUEHExceptionRecord@@PEA_KPEAU_CONTEXT@@PEAU_xDISPATCHER_CONTEXT@@PEAUFuncInfo4@FH4@@K1H@Z 00000001800371b0 f i libvcruntimed:risctrnsctrl.obj
 0001:00036240       ??$forward@AEAViterator@TryBlockMap4@FH4@@@std@@YAAEAViterator@TryBlockMap4@FH4@@AEAV123@@Z 0000000180037240 f i libvcruntimed:risctrnsctrl.obj
 0001:00036250       ??$forward@AEAViterator@TryBlockMap@__FrameHandler3@@@std@@YAAEAViterator@TryBlockMap@__FrameHandler3@@AEAV123@@Z 0000000180037250 f i libvcruntimed:risctrnsctrl.obj
 0001:00036260       ??0FuncInfo4@FH4@@QEAA@XZ  0000000180037260 f i libvcruntimed:risctrnsctrl.obj
 0001:000362d0       ??0FuncInfoHeader@FH4@@QEAA@XZ 00000001800372d0 f i libvcruntimed:risctrnsctrl.obj
 0001:000362f0       ??0iterator@TryBlockMap4@FH4@@QEAA@AEAV12@I@Z 00000001800372f0 f i libvcruntimed:risctrnsctrl.obj
 0001:00036320       ??0iterator@TryBlockMap@__FrameHandler3@@QEAA@AEAV12@I@Z 0000000180037320 f i libvcruntimed:risctrnsctrl.obj
 0001:00036350       ??4iterator@TryBlockMap4@FH4@@QEAAAEAV012@AEBV012@@Z 0000000180037350 f i libvcruntimed:risctrnsctrl.obj
 0001:00036370       ??9iterator@TryBlockMap4@FH4@@QEBA_NAEBV012@@Z 0000000180037370 f i libvcruntimed:risctrnsctrl.obj
 0001:000363b0       ??Diterator@TryBlockMap4@FH4@@QEAA?AUTryBlockMapEntry4@2@XZ 00000001800373b0 f i libvcruntimed:risctrnsctrl.obj
 0001:000363e0       ??Eiterator@TryBlockMap4@FH4@@QEAAAEAV012@XZ 00000001800373e0 f i libvcruntimed:risctrnsctrl.obj
 0001:00036420       ?CatchTryBlock@__FrameHandler3@@SAPEBU_s_TryBlockMapEntry@@PEBU_s_FuncInfo@@H@Z 0000000180037420 f   libvcruntimed:risctrnsctrl.obj
 0001:000364b0       ?DecompFuncInfo@FH4@@YA_JPEAEAEAUFuncInfo4@1@_KH@Z 00000001800374b0 f i libvcruntimed:risctrnsctrl.obj
 0001:000364f0       ?DecompFuncInfo@FH4@@YA_JPEAEAEAUFuncInfo4@1@_KH_N@Z 00000001800374f0 f i libvcruntimed:risctrnsctrl.obj
 0001:000366c0       ?DecompTryBlock@TryBlockMap4@FH4@@AEAAXXZ 00000001800376c0 f i libvcruntimed:risctrnsctrl.obj
 0001:00036740       ?ExecutionInCatch@__FrameHandler3@@SA_NPEAU_xDISPATCHER_CONTEXT@@PEBU_s_FuncInfo@@@Z 0000000180037740 f   libvcruntimed:risctrnsctrl.obj
 0001:00036790       ?ExecutionInCatch@__FrameHandler4@@SA_NPEAU_xDISPATCHER_CONTEXT@@PEAUFuncInfo4@FH4@@@Z 0000000180037790 f   libvcruntimed:risctrnsctrl.obj
 0001:000367b0       ?FrameUnwindToEmptyState@__FrameHandler3@@SAXPEA_KPEAU_xDISPATCHER_CONTEXT@@PEBU_s_FuncInfo@@@Z 00000001800377b0 f   libvcruntimed:risctrnsctrl.obj
 0001:00036850       ?FrameUnwindToEmptyState@__FrameHandler4@@SAXPEA_KPEAU_xDISPATCHER_CONTEXT@@PEAUFuncInfo4@FH4@@@Z 0000000180037850 f   libvcruntimed:risctrnsctrl.obj
 0001:000368a0       ?GetEstablisherFrame@__FrameHandler3@@SAPEA_KPEA_KPEAU_xDISPATCHER_CONTEXT@@PEBU_s_FuncInfo@@0@Z 00000001800378a0 f   libvcruntimed:risctrnsctrl.obj
 0001:00036a10       ?GetEstablisherFrame@__FrameHandler4@@SAPEA_KPEA_KPEAU_xDISPATCHER_CONTEXT@@PEAUFuncInfo4@FH4@@0@Z 0000000180037a10 f   libvcruntimed:risctrnsctrl.obj
 0001:00036a80       ?GetRangeOfTrysToCheck@__FrameHandler3@@SA?AU?$pair@Viterator@TryBlockMap@__FrameHandler3@@V123@@std@@AEAVTryBlockMap@1@HPEAU_xDISPATCHER_CONTEXT@@PEBU_s_FuncInfo@@H@Z 0000000180037a80 f   libvcruntimed:risctrnsctrl.obj
 0001:00036cc0       ?GetRangeOfTrysToCheck@__FrameHandler4@@SA?AU?$pair@Viterator@TryBlockMap4@FH4@@V123@@std@@AEAVTryBlockMap4@FH4@@HPEAU_xDISPATCHER_CONTEXT@@PEAUFuncInfo4@5@H@Z 0000000180037cc0 f   libvcruntimed:risctrnsctrl.obj
 0001:00036e70       ?ReadInt@FH4@@YAHPEAPEAE@Z 0000000180037e70 f i libvcruntimed:risctrnsctrl.obj
 0001:00036eb0       ?ReadUnsigned@FH4@@YAIPEAPEAE@Z 0000000180037eb0 f i libvcruntimed:risctrnsctrl.obj
 0001:00036f40       ?UnwindNestedFrames@__FrameHandler3@@SAXPEA_KPEAUEHExceptionRecord@@PEAU_CONTEXT@@0PEAXPEBU_s_FuncInfo@@HHPEBU_s_HandlerType@@PEAU_xDISPATCHER_CONTEXT@@E@Z 0000000180037f40 f   libvcruntimed:risctrnsctrl.obj
 0001:000370b0       ?UnwindNestedFrames@__FrameHandler4@@SAXPEA_KPEAUEHExceptionRecord@@PEAU_CONTEXT@@0PEAXPEAUFuncInfo4@FH4@@HHPEAUHandlerType4@5@PEAU_xDISPATCHER_CONTEXT@@E@Z 00000001800380b0 f   libvcruntimed:risctrnsctrl.obj
 0001:00037280       ?begin@TryBlockMap4@FH4@@QEAA?AViterator@12@XZ 0000000180038280 f i libvcruntimed:risctrnsctrl.obj
 0001:000372b0       ?end@TryBlockMap4@FH4@@QEAA?AViterator@12@XZ 00000001800382b0 f i libvcruntimed:risctrnsctrl.obj
 0001:000372e0       ?imageRelToByteBuffer@FH4@@YAPEAE_KH@Z 00000001800382e0 f i libvcruntimed:risctrnsctrl.obj
 0001:00037300       ?incrementToSentinel@iterator@TryBlockMap4@FH4@@QEAAXXZ 0000000180038300 f i libvcruntimed:risctrnsctrl.obj
 0001:00037320       ?setBuffer@TryBlockMap4@FH4@@QEAAXViterator@12@@Z 0000000180038320 f i libvcruntimed:risctrnsctrl.obj
 0001:00037390       _CreateFrameInfo           0000000180038390 f   libvcruntimed:risctrnsctrl.obj
 0001:00037400       _FindAndUnlinkFrame        0000000180038400 f   libvcruntimed:risctrnsctrl.obj
 0001:00037480       _GetImageBase              0000000180038480 f   libvcruntimed:risctrnsctrl.obj
 0001:000374a0       _GetThrowImageBase         00000001800384a0 f   libvcruntimed:risctrnsctrl.obj
 0001:000374c0       _SetImageBase              00000001800384c0 f   libvcruntimed:risctrnsctrl.obj
 0001:000374e0       _SetThrowImageBase         00000001800384e0 f   libvcruntimed:risctrnsctrl.obj
 0001:00037500       __CxxFrameHandler          0000000180038500 f   libvcruntimed:risctrnsctrl.obj
 0001:00037540       __CxxFrameHandler2         0000000180038540 f   libvcruntimed:risctrnsctrl.obj
 0001:00037580       __CxxFrameHandler3         0000000180038580 f   libvcruntimed:risctrnsctrl.obj
 0001:00037660       __CxxFrameHandler4         0000000180038660 f   libvcruntimed:risctrnsctrl.obj
 0001:00037770       __C_specific_handler_noexcept 0000000180038770 f   libvcruntimed:chandler_noexcept.obj
 0001:00037800       __DestructExceptionObject  0000000180038800 f   libvcruntimed:ehhelpers.obj
 0001:00037900       ?_CallMemberFunction0@@YAXQEAX0@Z 0000000180038900 f i libvcruntimed:ehhelpers.obj
 0001:000379d0       ?raw_name@type_info@@QEBAPEBDXZ 00000001800389d0 f i libvcruntimed:ehhelpers.obj
 0001:000379e0       _IsExceptionObjectToBeDestroyed 00000001800389e0 f   libvcruntimed:ehhelpers.obj
 0001:00037a30       _SetWinRTOutOfMemoryExceptionCallback 0000000180038a30 f   libvcruntimed:ehhelpers.obj
 0001:00037a50       __AdjustPointer            0000000180038a50 f   libvcruntimed:ehhelpers.obj
 0001:00037ad0       __FrameUnwindFilter        0000000180038ad0 f   libvcruntimed:ehhelpers.obj
 0001:00037b80       __GetPlatformExceptionInfo 0000000180038b80 f   libvcruntimed:ehhelpers.obj
 0001:00037c30       __current_exception        0000000180038c30 f   libvcruntimed:ehhelpers.obj
 0001:00037c50       __current_exception_context 0000000180038c50 f   libvcruntimed:ehhelpers.obj
 0001:00037c70       __processing_throw         0000000180038c70 f   libvcruntimed:ehhelpers.obj
 0001:00037c90       __std_terminate            0000000180038c90 f   libvcruntimed:ehhelpers.obj
 0001:00037ca0       _is_exception_typeof       0000000180038ca0 f   libvcruntimed:ehhelpers.obj
 0001:00037e30       ??$?RD@__crt_internal_free_policy@@QEBAXQEBD@Z 0000000180038e30 f i libvcruntimed:std_type_info.obj
 0001:00037e60       ??$?RX@__crt_internal_free_policy@@QEBAXQEBX@Z 0000000180038e60 f i libvcruntimed:std_type_info.obj
 0001:00037e90       ??$__crt_interlocked_compare_exchange_pointer@$$CBDPEAD$$T@@YAPEBDPEDSEBDQEAD$$T@Z 0000000180038e90 f i libvcruntimed:std_type_info.obj
 0001:00037ed0       ??$__crt_interlocked_read_pointer@$$CBD@@YAPEBDPEDSEBD@Z 0000000180038ed0 f i libvcruntimed:std_type_info.obj
 0001:00037ef0       ??0?$__crt_unique_heap_ptr@DU__crt_internal_free_policy@@@@QEAA@QEAD@Z 0000000180038ef0 f i libvcruntimed:std_type_info.obj
 0001:00037f10       ??0?$__crt_unique_heap_ptr@XU__crt_internal_free_policy@@@@QEAA@QEAX@Z 0000000180038f10 f i libvcruntimed:std_type_info.obj
 0001:00037f30       ??1?$__crt_unique_heap_ptr@DU__crt_internal_free_policy@@@@QEAA@XZ 0000000180038f30 f i libvcruntimed:std_type_info.obj
 0001:00037f50       ??1?$__crt_unique_heap_ptr@XU__crt_internal_free_policy@@@@QEAA@XZ 0000000180038f50 f i libvcruntimed:std_type_info.obj
 0001:00037f70       ??B?$__crt_unique_heap_ptr@DU__crt_internal_free_policy@@@@QEBA_NXZ 0000000180038f70 f i libvcruntimed:std_type_info.obj
 0001:00037f90       ??B?$__crt_unique_heap_ptr@XU__crt_internal_free_policy@@@@QEBA_NXZ 0000000180038f90 f i libvcruntimed:std_type_info.obj
 0001:00038030       ?detach@?$__crt_unique_heap_ptr@XU__crt_internal_free_policy@@@@QEAAPEAXXZ 0000000180039030 f i libvcruntimed:std_type_info.obj
 0001:00038060       ?get@?$__crt_unique_heap_ptr@DU__crt_internal_free_policy@@@@QEBAPEADXZ 0000000180039060 f i libvcruntimed:std_type_info.obj
 0001:00038070       ?get@?$__crt_unique_heap_ptr@XU__crt_internal_free_policy@@@@QEBAPEAXXZ 0000000180039070 f i libvcruntimed:std_type_info.obj
 0001:00038080       ?is_valid@?$__crt_unique_heap_ptr@DU__crt_internal_free_policy@@@@QEBA_NXZ 0000000180039080 f i libvcruntimed:std_type_info.obj
 0001:000380b0       ?is_valid@?$__crt_unique_heap_ptr@XU__crt_internal_free_policy@@@@QEBA_NXZ 00000001800390b0 f i libvcruntimed:std_type_info.obj
 0001:000380e0       ?release@?$__crt_unique_heap_ptr@DU__crt_internal_free_policy@@@@QEAAXXZ 00000001800390e0 f i libvcruntimed:std_type_info.obj
 0001:00038110       ?release@?$__crt_unique_heap_ptr@XU__crt_internal_free_policy@@@@QEAAXXZ 0000000180039110 f i libvcruntimed:std_type_info.obj
 0001:00038140       __std_type_info_compare    0000000180039140 f   libvcruntimed:std_type_info.obj
 0001:00038180       __std_type_info_destroy_list 0000000180039180 f   libvcruntimed:std_type_info.obj
 0001:000381e0       __std_type_info_hash       00000001800391e0 f   libvcruntimed:std_type_info.obj
 0001:00038290       __std_type_info_name       0000000180039290 f   libvcruntimed:std_type_info.obj
 0001:00038540       __vcrt_GetModuleFileNameW  0000000180039540 f   libvcruntimed:winapi_thunks.obj
 0001:00038570       __vcrt_GetModuleHandleW    0000000180039570 f   libvcruntimed:winapi_thunks.obj
 0001:00038590       __vcrt_LoadLibraryExW      0000000180039590 f   libvcruntimed:winapi_thunks.obj
 0001:000385c0       ??$?RD@__crt_public_free_policy@@QEBAXQEBD@Z 00000001800395c0 f i libvcruntimed:std_exception.obj
 0001:000385e0       ??0?$__crt_unique_heap_ptr@DU__crt_public_free_policy@@@@QEAA@QEAD@Z 00000001800395e0 f i libvcruntimed:std_exception.obj
 0001:00038600       ??1?$__crt_unique_heap_ptr@DU__crt_public_free_policy@@@@QEAA@XZ 0000000180039600 f i libvcruntimed:std_exception.obj
 0001:00038620       ??B?$__crt_unique_heap_ptr@DU__crt_public_free_policy@@@@QEBA_NXZ 0000000180039620 f i libvcruntimed:std_exception.obj
 0001:00038640       ?detach@?$__crt_unique_heap_ptr@DU__crt_public_free_policy@@@@QEAAPEADXZ 0000000180039640 f i libvcruntimed:std_exception.obj
 0001:00038670       ?get@?$__crt_unique_heap_ptr@DU__crt_public_free_policy@@@@QEBAPEADXZ 0000000180039670 f i libvcruntimed:std_exception.obj
 0001:00038680       ?is_valid@?$__crt_unique_heap_ptr@DU__crt_public_free_policy@@@@QEBA_NXZ 0000000180039680 f i libvcruntimed:std_exception.obj
 0001:000386b0       ?release@?$__crt_unique_heap_ptr@DU__crt_public_free_policy@@@@QEAAXXZ 00000001800396b0 f i libvcruntimed:std_exception.obj
 0001:000386e0       __std_exception_copy       00000001800396e0 f   libvcruntimed:std_exception.obj
 0001:00038820       __std_exception_destroy    0000000180039820 f   libvcruntimed:std_exception.obj
 0001:00038860       _CxxThrowException         0000000180039860 f   libvcruntimed:throw.obj
 0001:00038990       ??$?RU__vcrt_ptd@@@__crt_internal_free_policy@@QEBAXQEBU__vcrt_ptd@@@Z 0000000180039990 f i libvcruntimed:per_thread_data.obj
 0001:000389c0       ??0?$__crt_unique_heap_ptr@U__vcrt_ptd@@U__crt_internal_free_policy@@@@QEAA@QEAU__vcrt_ptd@@@Z 00000001800399c0 f i libvcruntimed:per_thread_data.obj
 0001:00038a00       ??1?$__crt_unique_heap_ptr@U__vcrt_ptd@@U__crt_internal_free_policy@@@@QEAA@XZ 0000000180039a00 f i libvcruntimed:per_thread_data.obj
 0001:00038a40       ??B?$__crt_unique_heap_ptr@U__vcrt_ptd@@U__crt_internal_free_policy@@@@QEBA_NXZ 0000000180039a40 f i libvcruntimed:per_thread_data.obj
 0001:00038a60       ?detach@?$__crt_unique_heap_ptr@U__vcrt_ptd@@U__crt_internal_free_policy@@@@QEAAPEAU__vcrt_ptd@@XZ 0000000180039a60 f i libvcruntimed:per_thread_data.obj
 0001:00038a90       ?get@?$__crt_unique_heap_ptr@U__vcrt_ptd@@U__crt_internal_free_policy@@@@QEBAPEAU__vcrt_ptd@@XZ 0000000180039a90 f i libvcruntimed:per_thread_data.obj
 0001:00038aa0       ?is_valid@?$__crt_unique_heap_ptr@U__vcrt_ptd@@U__crt_internal_free_policy@@@@QEBA_NXZ 0000000180039aa0 f i libvcruntimed:per_thread_data.obj
 0001:00038ad0       ?release@?$__crt_unique_heap_ptr@U__vcrt_ptd@@U__crt_internal_free_policy@@@@QEAAXXZ 0000000180039ad0 f i libvcruntimed:per_thread_data.obj
 0001:00038b40       __vcrt_freefls             0000000180039b40 f   libvcruntimed:per_thread_data.obj
 0001:00038b80       __vcrt_freeptd             0000000180039b80 f   libvcruntimed:per_thread_data.obj
 0001:00038be0       __vcrt_getptd              0000000180039be0 f   libvcruntimed:per_thread_data.obj
 0001:00038c10       __vcrt_getptd_noexit       0000000180039c10 f   libvcruntimed:per_thread_data.obj
 0001:00038db0       __vcrt_getptd_noinit       0000000180039db0 f   libvcruntimed:per_thread_data.obj
 0001:00038e10       __vcrt_initialize_ptd      0000000180039e10 f   libvcruntimed:per_thread_data.obj
 0001:00038e60       __vcrt_uninitialize_ptd    0000000180039e60 f   libvcruntimed:per_thread_data.obj
 0001:00038e90       __vcrt_initialize_locks    0000000180039e90 f   libvcruntimed:locks.obj
 0001:00038f00       __vcrt_lock                0000000180039f00 f   libvcruntimed:locks.obj
 0001:00038f30       __vcrt_uninitialize_locks  0000000180039f30 f   libvcruntimed:locks.obj
 0001:00038f90       __vcrt_unlock              0000000180039f90 f   libvcruntimed:locks.obj
 0001:00038fd0       _NLG_Notify                0000000180039fd0 f   libvcruntimed:notify.obj
 0001:00038ff0       __NLG_Dispatch2            0000000180039ff0 f   libvcruntimed:notify.obj
 0001:00039000       __NLG_Return2              000000018003a000 f   libvcruntimed:notify.obj
 0001:00039020       __except_validate_context_record 000000018003a020 f   libvcruntimed:jbcxrval.obj
 0001:00039080       __except_validate_jump_buffer 000000018003a080 f   libvcruntimed:jbcxrval.obj
 0001:000390a0       __except_validate_jump_buffer_common 000000018003a0a0 f i libvcruntimed:jbcxrval.obj
 0001:00039120       ?GetCurrentState@__FrameHandler3@@SAHPEA_KPEAU_xDISPATCHER_CONTEXT@@PEBU_s_FuncInfo@@@Z 000000018003a120 f   libvcruntimed:ehstate.obj
 0001:00039180       ?GetUnwindTryBlock@__FrameHandler3@@SAHPEA_KPEAU_xDISPATCHER_CONTEXT@@PEBU_s_FuncInfo@@@Z 000000018003a180 f   libvcruntimed:ehstate.obj
 0001:000391d0       ?SetState@__FrameHandler3@@SAXPEA_KPEBU_s_FuncInfo@@H@Z 000000018003a1d0 f   libvcruntimed:ehstate.obj
 0001:00039200       ?SetUnwindTryBlock@__FrameHandler3@@SAXPEA_KPEAU_xDISPATCHER_CONTEXT@@PEBU_s_FuncInfo@@H@Z 000000018003a200 f   libvcruntimed:ehstate.obj
 0001:00039270       ?StateFromControlPc@__FrameHandler3@@SAHPEBU_s_FuncInfo@@PEAU_xDISPATCHER_CONTEXT@@@Z 000000018003a270 f   libvcruntimed:ehstate.obj
 0001:000392b0       ?StateFromControlPc@__FrameHandler4@@SAHPEAUFuncInfo4@FH4@@PEAU_xDISPATCHER_CONTEXT@@@Z 000000018003a2b0 f   libvcruntimed:ehstate.obj
 0001:000392f0       ?StateFromIp@__FrameHandler3@@SAHPEBU_s_FuncInfo@@PEAU_xDISPATCHER_CONTEXT@@_K@Z 000000018003a2f0 f   libvcruntimed:ehstate.obj
 0001:000393e0       ?StateFromIp@__FrameHandler4@@SAHPEAUFuncInfo4@FH4@@PEAU_xDISPATCHER_CONTEXT@@_K@Z 000000018003a3e0 f   libvcruntimed:ehstate.obj
 0001:000394d0       ?__FuncRelToRealOffset@@YA_KPEAU_xDISPATCHER_CONTEXT@@I@Z 000000018003a4d0 f i libvcruntimed:ehstate.obj
 0001:00039500       ?__RVAtoRealOffset@@YA_KPEAU_xDISPATCHER_CONTEXT@@H@Z 000000018003a500 f i libvcruntimed:ehstate.obj
 0001:0003b760       ??$TypeMatchHelper@V__FrameHandler3@@@@YAHPEBU_s_HandlerType@@PEBU_s_CatchableType@@PEBU_s_ThrowInfo@@@Z 000000018003c760 f i libvcruntimed:frame.obj
 0001:0003b960       ??$TypeMatchHelper@V__FrameHandler4@@@@YAHPEAUHandlerType4@FH4@@PEBU_s_CatchableType@@PEBU_s_ThrowInfo@@@Z 000000018003c960 f i libvcruntimed:frame.obj
 0001:0003bb70       ??$__InternalCxxFrameHandler@V__FrameHandler3@@@@YA?AW4_EXCEPTION_DISPOSITION@@PEAUEHExceptionRecord@@PEA_KPEAU_CONTEXT@@PEAU_xDISPATCHER_CONTEXT@@PEBU_s_FuncInfo@@H1E@Z 000000018003cb70 f i libvcruntimed:frame.obj
 0001:0003bfe0       ??$__InternalCxxFrameHandler@V__FrameHandler4@@@@YA?AW4_EXCEPTION_DISPOSITION@@PEAUEHExceptionRecord@@PEA_KPEAU_CONTEXT@@PEAU_xDISPATCHER_CONTEXT@@PEAUFuncInfo4@FH4@@H1E@Z 000000018003cfe0 f i libvcruntimed:frame.obj
 0001:0003c470       ??0HandlerMap4@FH4@@QEAA@PEBUTryBlockMapEntry4@1@_KH@Z 000000018003d470 f i libvcruntimed:frame.obj
 0001:0003c530       ??0HandlerMap@__FrameHandler3@@QEAA@PEBU_s_TryBlockMapEntry@@_KI@Z 000000018003d530 f i libvcruntimed:frame.obj
 0001:0003c580       ??0HandlerType4@FH4@@QEAA@XZ 000000018003d580 f i libvcruntimed:frame.obj
 0001:0003c5a0       ??0TryBlockMap4@FH4@@QEAA@PEBUFuncInfo4@1@_K@Z 000000018003d5a0 f i libvcruntimed:frame.obj
 0001:0003c630       ??0TryBlockMap@__FrameHandler3@@QEAA@PEBU_s_FuncInfo@@_K@Z 000000018003d630 f i libvcruntimed:frame.obj
 0001:0003c660       ??0UWMap4@FH4@@QEAA@PEBUFuncInfo4@1@_K@Z 000000018003d660 f i libvcruntimed:frame.obj
 0001:0003c6d0       ??0bad_exception@std@@QEAA@AEBV01@@Z 000000018003d6d0 f i libvcruntimed:frame.obj
 0001:0003c710       ??0bad_exception@std@@QEAA@XZ 000000018003d710 f i libvcruntimed:frame.obj
 0001:0003c750       ??0iterator@HandlerMap4@FH4@@QEAA@AEAV12@I@Z 000000018003d750 f i libvcruntimed:frame.obj
 0001:0003c780       ??0iterator@HandlerMap@__FrameHandler3@@QEAA@AEAV12@I@Z 000000018003d780 f i libvcruntimed:frame.obj
 0001:0003c7b0       ??0iterator@UWMap4@FH4@@QEAA@AEAV12@PEAE@Z 000000018003d7b0 f i libvcruntimed:frame.obj
 0001:0003c7e0       ??1bad_exception@std@@UEAA@XZ 000000018003d7e0 f i libvcruntimed:frame.obj
 0001:0003c800       ??4iterator@UWMap4@FH4@@QEAAAEAV012@AEBV012@@Z 000000018003d800 f i libvcruntimed:frame.obj
 0001:0003c850       ??8iterator@HandlerMap4@FH4@@QEBA_NAEBV012@@Z 000000018003d850 f i libvcruntimed:frame.obj
 0001:0003c890       ??8iterator@HandlerMap@__FrameHandler3@@QEBA_NAEBV012@@Z 000000018003d890 f i libvcruntimed:frame.obj
 0001:0003c8d0       ??8type_info@@QEBA_NAEBV0@@Z 000000018003d8d0 f i libvcruntimed:frame.obj
 0001:0003c920       ??9iterator@HandlerMap4@FH4@@QEBA_NAEBV012@@Z 000000018003d920 f i libvcruntimed:frame.obj
 0001:0003c960       ??9iterator@HandlerMap@__FrameHandler3@@QEBA_NAEBV012@@Z 000000018003d960 f i libvcruntimed:frame.obj
 0001:0003c9a0       ??Diterator@HandlerMap4@FH4@@QEAA?AUHandlerType4@2@XZ 000000018003d9a0 f i libvcruntimed:frame.obj
 0001:0003c9d0       ??Diterator@HandlerMap@__FrameHandler3@@QEAA?BU_s_HandlerType@@XZ 000000018003d9d0 f i libvcruntimed:frame.obj
 0001:0003ca10       ??Diterator@TryBlockMap@__FrameHandler3@@QEAA?BU_s_TryBlockMapEntry@@XZ 000000018003da10 f i libvcruntimed:frame.obj
 0001:0003ca60       ??Diterator@UWMap4@FH4@@QEAA?AUUnwindMapEntry4@2@XZ 000000018003da60 f i libvcruntimed:frame.obj
 0001:0003cae0       ??Eiterator@HandlerMap4@FH4@@QEAAAEAV012@XZ 000000018003dae0 f i libvcruntimed:frame.obj
 0001:0003cb20       ??Eiterator@HandlerMap@__FrameHandler3@@QEAAAEAV012@XZ 000000018003db20 f i libvcruntimed:frame.obj
 0001:0003cb40       ??Eiterator@TryBlockMap@__FrameHandler3@@QEAAAEAV012@XZ 000000018003db40 f i libvcruntimed:frame.obj
 0001:0003cb60       ??Eiterator@UWMap4@FH4@@QEAAAEAV012@XZ 000000018003db60 f i libvcruntimed:frame.obj
 0001:0003cba0       ??Giterator@UWMap4@FH4@@QEBA_JAEBV012@@Z 000000018003dba0 f i libvcruntimed:frame.obj
 0001:0003cbc0       ??Miterator@TryBlockMap4@FH4@@QEBA_NAEBV012@@Z 000000018003dbc0 f i libvcruntimed:frame.obj
 0001:0003cc00       ??Miterator@TryBlockMap@__FrameHandler3@@QEBA_NAEBV012@@Z 000000018003dc00 f i libvcruntimed:frame.obj
 0001:0003cc40       ??Oiterator@UWMap4@FH4@@QEBA_NAEBV012@@Z 000000018003dc40 f i libvcruntimed:frame.obj
 0001:0003cc80       ??Piterator@UWMap4@FH4@@QEBA_NAEBV012@@Z 000000018003dc80 f i libvcruntimed:frame.obj
 0001:0003ccc0       ??_Ebad_exception@std@@UEAAPEAXI@Z 000000018003dcc0 f i libvcruntimed:frame.obj
 0001:0003ccc0       ??_Gbad_exception@std@@UEAAPEAXI@Z 000000018003dcc0 f i libvcruntimed:frame.obj
 0001:0003cd00       ?BuildCatchObject@__FrameHandler3@@SAXPEAUEHExceptionRecord@@PEAXPEBU_s_HandlerType@@PEBU_s_CatchableType@@@Z 000000018003dd00 f   libvcruntimed:frame.obj
 0001:0003cd40       ?BuildCatchObject@__FrameHandler4@@SAXPEAUEHExceptionRecord@@PEAXPEAUHandlerType4@FH4@@PEBU_s_CatchableType@@@Z 000000018003dd40 f   libvcruntimed:frame.obj
 0001:0003cd80       ?BuildCatchObjectHelper@__FrameHandler3@@SAHPEAUEHExceptionRecord@@PEAXPEBU_s_HandlerType@@PEBU_s_CatchableType@@@Z 000000018003dd80 f   libvcruntimed:frame.obj
 0001:0003cdc0       ?BuildCatchObjectHelper@__FrameHandler4@@SAHPEAUEHExceptionRecord@@PEAXPEAUHandlerType4@FH4@@PEBU_s_CatchableType@@@Z 000000018003ddc0 f   libvcruntimed:frame.obj
 0001:0003ce00       ?CxxCallCatchBlock@__FrameHandler3@@SAPEAXPEAU_EXCEPTION_RECORD@@@Z 000000018003de00 f   libvcruntimed:frame.obj
 0001:0003d060       ?CxxCallCatchBlock@__FrameHandler4@@SAPEAXPEAU_EXCEPTION_RECORD@@@Z 000000018003e060 f   libvcruntimed:frame.obj
 0001:0003d390       ?DecompHandler@HandlerMap4@FH4@@AEAAXXZ 000000018003e390 f i libvcruntimed:frame.obj
 0001:0003d760       ?FrameUnwindToState@__FrameHandler3@@SAXPEA_KPEAU_xDISPATCHER_CONTEXT@@PEBU_s_FuncInfo@@H@Z 000000018003e760 f   libvcruntimed:frame.obj
 0001:0003d9b0       ?FrameUnwindToState@__FrameHandler4@@SAXPEA_KPEAU_xDISPATCHER_CONTEXT@@PEAUFuncInfo4@FH4@@H@Z 000000018003e9b0 f   libvcruntimed:frame.obj
 0001:0003dcc0       ?GetHandlerSearchState@__FrameHandler3@@SAHPEA_KPEAU_xDISPATCHER_CONTEXT@@PEBU_s_FuncInfo@@@Z 000000018003ecc0 f i libvcruntimed:frame.obj
 0001:0003dd70       ?GetHandlerSearchState@__FrameHandler4@@SAHPEA_KPEAU_xDISPATCHER_CONTEXT@@PEAUFuncInfo4@FH4@@@Z 000000018003ed70 f i libvcruntimed:frame.obj
 0001:0003ddf0       ?GetMaxState@__FrameHandler3@@SAHPEAU_xDISPATCHER_CONTEXT@@PEBU_s_FuncInfo@@@Z 000000018003edf0 f i libvcruntimed:frame.obj
 0001:0003de10       ?GetMaxState@__FrameHandler4@@SAHPEAU_xDISPATCHER_CONTEXT@@PEAUFuncInfo4@FH4@@@Z 000000018003ee10 f i libvcruntimed:frame.obj
 0001:0003e040       ?ReadEntry@UWMap4@FH4@@AEAAXPEAPEAE@Z 000000018003f040 f i libvcruntimed:frame.obj
 0001:0003e0f0       ?TypeMatch@__FrameHandler3@@SAHPEBU_s_HandlerType@@PEBU_s_CatchableType@@PEBU_s_ThrowInfo@@@Z 000000018003f0f0 f   libvcruntimed:frame.obj
 0001:0003e120       ?TypeMatch@__FrameHandler4@@SAHPEAUHandlerType4@FH4@@PEBU_s_CatchableType@@PEBU_s_ThrowInfo@@@Z 000000018003f120 f   libvcruntimed:frame.obj
 0001:0003e150       ?WalkBack@UWMap4@FH4@@AEAAXPEAPEAE@Z 000000018003f150 f i libvcruntimed:frame.obj
 0001:0003e1a0       ?WalkBack@iterator@UWMap4@FH4@@QEAAXXZ 000000018003f1a0 f i libvcruntimed:frame.obj
 0001:0003e1e0       ?WalkForward@UWMap4@FH4@@AEAAXPEAPEAE@Z 000000018003f1e0 f i libvcruntimed:frame.obj
 0001:0003e210       ?_CallMemberFunction1@@YAXQEAX00@Z 000000018003f210 f i libvcruntimed:frame.obj
 0001:0003e250       ?_CallMemberFunction2@@YAXQEAX00H@Z 000000018003f250 f i libvcruntimed:frame.obj
 0001:0003e2e0       ?begin@HandlerMap4@FH4@@QEAA?AViterator@12@XZ 000000018003f2e0 f i libvcruntimed:frame.obj
 0001:0003e310       ?begin@HandlerMap@__FrameHandler3@@QEAA?AViterator@12@XZ 000000018003f310 f i libvcruntimed:frame.obj
 0001:0003e340       ?begin@UWMap4@FH4@@QEAA?AViterator@12@XZ 000000018003f340 f i libvcruntimed:frame.obj
 0001:0003e370       ?end@HandlerMap4@FH4@@QEAA?AViterator@12@XZ 000000018003f370 f i libvcruntimed:frame.obj
 0001:0003e3a0       ?end@HandlerMap@__FrameHandler3@@QEAA?AViterator@12@XZ 000000018003f3a0 f i libvcruntimed:frame.obj
 0001:0003e3d0       ?getESTypes@__FrameHandler3@@SAPEBU_s_ESTypeList@@PEBU_s_FuncInfo@@@Z 000000018003f3d0 f i libvcruntimed:frame.obj
 0001:0003e410       ?getESTypes@__FrameHandler4@@SAPEBU_s_ESTypeList@@PEAUFuncInfo4@FH4@@@Z 000000018003f410 f i libvcruntimed:frame.obj
 0001:0003e420       ?getLastEntry@HandlerMap4@FH4@@QEAAPEAUHandlerType4@2@XZ 000000018003f420 f i libvcruntimed:frame.obj
 0001:0003e460       ?getLastEntry@HandlerMap@__FrameHandler3@@QEAAPEBU_s_HandlerType@@XZ 000000018003f460 f i libvcruntimed:frame.obj
 0001:0003e480       ?getMagicNum@__FrameHandler3@@SAIPEBU_s_FuncInfo@@@Z 000000018003f480 f i libvcruntimed:frame.obj
 0001:0003e4a0       ?getMagicNum@__FrameHandler4@@SAIPEAUFuncInfo4@FH4@@@Z 000000018003f4a0 f i libvcruntimed:frame.obj
 0001:0003e4b0       ?getNumTryBlocks@TryBlockMap4@FH4@@QEAAIXZ 000000018003f4b0 f i libvcruntimed:frame.obj
 0001:0003e4c0       ?getNumTryBlocks@TryBlockMap@__FrameHandler3@@QEAAIXZ 000000018003f4c0 f i libvcruntimed:frame.obj
 0001:0003e4e0       ?getStartStop@UWMap4@FH4@@QEAAXHHAEAViterator@12@0@Z 000000018003f4e0 f i libvcruntimed:frame.obj
 0001:0003e600       ?getStateFromIterators@UWMap4@FH4@@SAHAEBViterator@12@H0H0@Z 000000018003f600 f i libvcruntimed:frame.obj
 0001:0003e740       ?isEHs@__FrameHandler3@@SA_NPEBU_s_FuncInfo@@@Z 000000018003f740 f i libvcruntimed:frame.obj
 0001:0003e780       ?isEHs@__FrameHandler4@@SA_NPEAUFuncInfo4@FH4@@@Z 000000018003f780 f i libvcruntimed:frame.obj
 0001:0003e7a0       ?isNoExcept@__FrameHandler3@@SA_NPEBU_s_FuncInfo@@@Z 000000018003f7a0 f i libvcruntimed:frame.obj
 0001:0003e7e0       ?isNoExcept@__FrameHandler4@@SA_NPEAUFuncInfo4@FH4@@@Z 000000018003f7e0 f i libvcruntimed:frame.obj
 0001:0003e800       ?reset@HandlerType4@FH4@@QEAAXXZ 000000018003f800 f i libvcruntimed:frame.obj
 0001:0003e860       ?resetBuffer@HandlerMap4@FH4@@QEAAXXZ 000000018003f860 f i libvcruntimed:frame.obj
 0001:0003e880       ?setBuffer@HandlerMap4@FH4@@QEAAXI@Z 000000018003f880 f i libvcruntimed:frame.obj
 0001:0003e8e0       __BuildCatchObject         000000018003f8e0 f   libvcruntimed:frame.obj
 0001:0003e920       __BuildCatchObjectHelper   000000018003f920 f   libvcruntimed:frame.obj
 0001:0003e960       __TypeMatch                000000018003f960 f   libvcruntimed:frame.obj
 0001:0003e990       __vcrt_EncodePointer       000000018003f990 f i libvcruntimed:frame.obj
 0001:0003e9b0       ??$?0$00@DName@@QEAA@PEBDU?$StringLifeSelector@$00@@@Z 000000018003f9b0 f i libvcruntimed:undname.obj
 0001:0003ea20       ??$?0$00@pcharNode@@QEAA@PEBDHU?$StringLifeSelector@$00@@@Z 000000018003fa20 f i libvcruntimed:undname.obj
 0001:0003ea80       ??$?0$01@DName@@QEAA@PEBDU?$StringLifeSelector@$01@@@Z 000000018003fa80 f i libvcruntimed:undname.obj
 0001:0003eaf0       ??$?0$01@pcharNode@@QEAA@PEBDHU?$StringLifeSelector@$01@@@Z 000000018003faf0 f i libvcruntimed:undname.obj
 0001:0003eba0       ??$?0$0A@@DName@@QEAA@PEBDU?$StringLifeSelector@$0A@@@@Z 000000018003fba0 f i libvcruntimed:undname.obj
 0001:0003ec10       ??$?0$0A@@pcharNode@@QEAA@PEBDHU?$StringLifeSelector@$0A@@@@Z 000000018003fc10 f i libvcruntimed:undname.obj
 0001:0003ecc0       ??$?0_K$0A@@?$optional@_K@std@@QEAA@$$QEA_K@Z 000000018003fcc0 f i libvcruntimed:undname.obj
 0001:0003ed10       ??$?0_K@?$_Optional_construct_base@_K@std@@QEAA@Uin_place_t@1@$$QEA_K@Z 000000018003fd10 f i libvcruntimed:undname.obj
 0001:0003ed40       ??$?0_K@?$_Optional_destruct_base@_K$00@std@@QEAA@Uin_place_t@1@$$QEA_K@Z 000000018003fd40 f i libvcruntimed:undname.obj
 0001:0003ed80       ??$append@VDNameNode@@@DName@@AEAAXPEBVDNameNode@@@Z 000000018003fd80 f i libvcruntimed:undname.obj
 0001:0003ee30       ??$append@VDNameStatusNode@@@DName@@AEAAXPEBVDNameStatusNode@@@Z 000000018003fe30 f i libvcruntimed:undname.obj
 0001:0003eee0       ??$append@VcharNode@@@DName@@AEAAXPEBVcharNode@@@Z 000000018003fee0 f i libvcruntimed:undname.obj
 0001:0003ef90       ??$append@VpDNameNode@@@DName@@AEAAXPEBVpDNameNode@@@Z 000000018003ff90 f i libvcruntimed:undname.obj
 0001:0003f040       ??$append@VpcharNode@@@DName@@AEAAXPEBVpcharNode@@@Z 0000000180040040 f i libvcruntimed:undname.obj
 0001:0003f0f0       ??$doPchar@$00@DName@@AEAAXPEBDH@Z 00000001800400f0 f i libvcruntimed:undname.obj
 0001:0003f250       ??$doPchar@$01@DName@@AEAAXPEBDH@Z 0000000180040250 f i libvcruntimed:undname.obj
 0001:0003f3b0       ??$doPchar@$0A@@DName@@AEAAXPEBDH@Z 00000001800403b0 f i libvcruntimed:undname.obj
 0001:0003f510       ??$forward@_K@std@@YA$$QEA_KAEA_K@Z 0000000180040510 f i libvcruntimed:undname.obj
 0001:0003f520       ??$size@D$04@std@@YA_KAEAY04$$CBD@Z 0000000180040520 f i libvcruntimed:undname.obj
 0001:0003f530       ??$size@D$0EB@@std@@YA_KAEAY0EB@$$CBD@Z 0000000180040530 f i libvcruntimed:undname.obj
 0001:0003f540       ??0?$_Optional_construct_base@_K@std@@QEAA@XZ 0000000180040540 f i libvcruntimed:undname.obj
 0001:0003f560       ??0?$_Optional_destruct_base@_K$00@std@@QEAA@XZ 0000000180040560 f i libvcruntimed:undname.obj
 0001:0003f590       ??0?$optional@_K@std@@QEAA@XZ 0000000180040590 f i libvcruntimed:undname.obj
 0001:0003f5b0       ??0Block@_HeapManager@@QEAA@XZ 00000001800405b0 f i libvcruntimed:undname.obj
 0001:0003f5d0       ??0DName@@QEAA@AEAPEBDD@Z  00000001800405d0 f   libvcruntimed:undname.obj
 0001:0003f7a0       ??0DName@@QEAA@AEBUStringLiteral@@@Z 00000001800407a0 f   libvcruntimed:undname.obj
 0001:0003f800       ??0DName@@QEAA@AEBV0@@Z    0000000180040800 f i libvcruntimed:undname.obj
 0001:0003f830       ??0DName@@QEAA@D@Z         0000000180040830 f   libvcruntimed:undname.obj
 0001:0003f870       ??0DName@@QEAA@PEAV0@@Z    0000000180040870 f   libvcruntimed:undname.obj
 0001:0003f950       ??0DName@@QEAA@W4DNameStatus@@@Z 0000000180040950 f   libvcruntimed:undname.obj
 0001:0003fa00       ??0DName@@QEAA@XZ          0000000180040a00 f i libvcruntimed:undname.obj
 0001:0003fa30       ??0DName@@QEAA@_J@Z        0000000180040a30 f   libvcruntimed:undname.obj
 0001:0003fb40       ??0DName@@QEAA@_K@Z        0000000180040b40 f   libvcruntimed:undname.obj
 0001:0003fc10       ??0DNameNode@@IEAA@XZ      0000000180040c10 f i libvcruntimed:undname.obj
 0001:0003fc30       ??0Replicator@@QEAA@XZ     0000000180040c30 f i libvcruntimed:undname.obj
 0001:0003fc70       ??0UnDecorator@@QEAA@PEBDP6APEADJ@ZK@Z 0000000180040c70 f i libvcruntimed:undname.obj
 0001:0003fd20       ??0_Nontrivial_dummy_type@std@@QEAA@XZ 0000000180040d20 f i libvcruntimed:undname.obj
 0001:0003fd30       ??0charNode@@QEAA@D@Z      0000000180040d30 f i libvcruntimed:undname.obj
 0001:0003fd70       ??0pDNameNode@@QEAA@PEAVDName@@@Z 0000000180040d70 f   libvcruntimed:undname.obj
 0001:0003fdf0       ??0pairNode@@QEAA@PEBVDNameNode@@0@Z 0000000180040df0 f i libvcruntimed:undname.obj
 0001:0003fe70       ??2@YAPEAX_KAEAV_HeapManager@@H@Z 0000000180040e70 f   libvcruntimed:undname.obj
 0001:0003fed0       ??4DName@@QEAAAEAV0@AEBUStringLiteral@@@Z 0000000180040ed0 f   libvcruntimed:undname.obj
 0001:0003ff20       ??4DName@@QEAAAEAV0@AEBV0@@Z 0000000180040f20 f   libvcruntimed:undname.obj
 0001:0003ff50       ??4DName@@QEAAAEAV0@D@Z    0000000180040f50 f i libvcruntimed:undname.obj
 0001:0003ff90       ??4DName@@QEAAAEAV0@PEAV0@@Z 0000000180040f90 f   libvcruntimed:undname.obj
 0001:00040060       ??4DName@@QEAAAEAV0@W4DNameStatus@@@Z 0000000180041060 f   libvcruntimed:undname.obj
 0001:000400f0       ??AReplicator@@QEBA?AVDName@@H@Z 00000001800410f0 f   libvcruntimed:undname.obj
 0001:00040180       ??B?$optional@_K@std@@QEBA_NXZ 0000000180041180 f i libvcruntimed:undname.obj
 0001:00040190       ??D?$optional@_K@std@@QEGAAAEA_KXZ 0000000180041190 f i libvcruntimed:undname.obj
 0001:00040230       ??H@YA?AVDName@@AEBUStringLiteral@@AEBV0@@Z 0000000180041230 f i libvcruntimed:undname.obj
 0001:00040280       ??H@YA?AVDName@@DAEBV0@@Z  0000000180041280 f i libvcruntimed:undname.obj
 0001:000402d0       ??H@YA?AVDName@@W4DNameStatus@@AEBV0@@Z 00000001800412d0 f i libvcruntimed:undname.obj
 0001:00040320       ??HDName@@QEBA?AV0@AEBUStringLiteral@@@Z 0000000180041320 f   libvcruntimed:undname.obj
 0001:00040370       ??HDName@@QEBA?AV0@AEBV0@@Z 0000000180041370 f   libvcruntimed:undname.obj
 0001:000403c0       ??HDName@@QEBA?AV0@D@Z     00000001800413c0 f   libvcruntimed:undname.obj
 0001:00040410       ??HDName@@QEBA?AV0@PEAV0@@Z 0000000180041410 f   libvcruntimed:undname.obj
 0001:00040460       ??HDName@@QEBA?AV0@W4DNameStatus@@@Z 0000000180041460 f   libvcruntimed:undname.obj
 0001:000404b0       ??HStringLiteral@@QEBA?AU0@H@Z 00000001800414b0 f i libvcruntimed:undname.obj
 0001:000404f0       ??YDName@@QEAAAEAV0@AEBUStringLiteral@@@Z 00000001800414f0 f   libvcruntimed:undname.obj
 0001:000405c0       ??YDName@@QEAAAEAV0@AEBV0@@Z 00000001800415c0 f   libvcruntimed:undname.obj
 0001:00040680       ??YDName@@QEAAAEAV0@D@Z    0000000180041680 f   libvcruntimed:undname.obj
 0001:00040720       ??YDName@@QEAAAEAV0@PEAV0@@Z 0000000180041720 f   libvcruntimed:undname.obj
 0001:00040800       ??YDName@@QEAAAEAV0@W4DNameStatus@@@Z 0000000180041800 f   libvcruntimed:undname.obj
 0001:00040870       ??YReplicator@@QEAAAEAV0@AEBVDName@@@Z 0000000180041870 f   libvcruntimed:undname.obj
 0001:00040930       ??_5DName@@QEAAAEAV0@AEBV0@@Z 0000000180041930 f   libvcruntimed:undname.obj
 0001:000409a0       ??__K_l@@YA?AUStringLiteral@@PEBD_K@Z 00000001800419a0 f i libvcruntimed:undname.obj
 0001:000409f0       ?Constructor@_HeapManager@@QEAAXP6APEAX_K@ZP6AXPEAX@Z@Z 00000001800419f0 f i libvcruntimed:undname.obj
 0001:00040a50       ?Destructor@_HeapManager@@QEAAXXZ 0000000180041a50 f i libvcruntimed:undname.obj
 0001:00040af0       ?UScore@UnDecorator@@SA?AUStringLiteral@@W4Tokens@@@Z 0000000180041af0 f   libvcruntimed:undname.obj
 0001:00040b80       ?composeDeclaration@UnDecorator@@CA?AVDName@@AEBV2@@Z 0000000180041b80 f i libvcruntimed:undname.obj
 0001:00043080       ?dbGetString@DName@@QEBAPEADXZ 0000000180044080 f   libvcruntimed:undname.obj
 0001:000430b0       ?doAccessSpecifiers@UnDecorator@@SAHXZ 00000001800440b0 f i libvcruntimed:undname.obj
 0001:000430e0       ?doAllocationLanguage@UnDecorator@@SAHXZ 00000001800440e0 f i libvcruntimed:undname.obj
 0001:00043110       ?doAllocationModel@UnDecorator@@SAHXZ 0000000180044110 f i libvcruntimed:undname.obj
 0001:00043140       ?doEcsu@UnDecorator@@SAHXZ 0000000180044140 f i libvcruntimed:undname.obj
 0001:00043170       ?doEllipsis@UnDecorator@@SAHXZ 0000000180044170 f i libvcruntimed:undname.obj
 0001:000431a0       ?doFunctionReturns@UnDecorator@@SAHXZ 00000001800441a0 f i libvcruntimed:undname.obj
 0001:000431d0       ?doMSKeywords@UnDecorator@@SAHXZ 00000001800441d0 f i libvcruntimed:undname.obj
 0001:00043200       ?doMemberTypes@UnDecorator@@SAHXZ 0000000180044200 f i libvcruntimed:undname.obj
 0001:00043230       ?doNameOnly@UnDecorator@@SAHXZ 0000000180044230 f i libvcruntimed:undname.obj
 0001:00043240       ?doNoIdentCharCheck@UnDecorator@@SAHXZ 0000000180044240 f i libvcruntimed:undname.obj
 0001:00043250       ?doPchar@DName@@AEAAXD@Z   0000000180044250 f   libvcruntimed:undname.obj
 0001:000432e0       ?doPtr64@UnDecorator@@SAHXZ 00000001800442e0 f i libvcruntimed:undname.obj
 0001:00043310       ?doRestrictionSpec@UnDecorator@@SAHXZ 0000000180044310 f i libvcruntimed:undname.obj
 0001:00043340       ?doThisTypes@UnDecorator@@SAHXZ 0000000180044340 f i libvcruntimed:undname.obj
 0001:00043370       ?doThrowTypes@UnDecorator@@SAHXZ 0000000180044370 f i libvcruntimed:undname.obj
 0001:000433a0       ?doTypeOnly@UnDecorator@@SAHXZ 00000001800443a0 f i libvcruntimed:undname.obj
 0001:000433b0       ?doUnderScore@UnDecorator@@SAHXZ 00000001800443b0 f i libvcruntimed:undname.obj
 0001:000433e0       ?getAddressOf@UnDecorator@@CA?AVDName@@XZ 00000001800443e0 f   libvcruntimed:undname.obj
 0001:00043480       ?getArgumentList@UnDecorator@@CA?AVDName@@XZ 0000000180044480 f   libvcruntimed:undname.obj
 0001:00043620       ?getArgumentTypes@UnDecorator@@CA?AVDName@@XZ 0000000180044620 f   libvcruntimed:undname.obj
 0001:00043900       ?getArrayAccess@UnDecorator@@CA?AVDName@@XZ 0000000180044900 f   libvcruntimed:undname.obj
 0001:000439c0       ?getArrayObject@UnDecorator@@CA?AVDName@@XZ 00000001800449c0 f   libvcruntimed:undname.obj
 0001:00043ae0       ?getArrayType@UnDecorator@@CA?AVDName@@AEBV2@@Z 0000000180044ae0 f i libvcruntimed:undname.obj
 0001:00043ea0       ?getBasedType@UnDecorator@@CA?AVDName@@XZ 0000000180044ea0 f   libvcruntimed:undname.obj
 0001:00044010       ?getBasicDataType@UnDecorator@@CA?AVDName@@AEBV2@@Z 0000000180045010 f   libvcruntimed:undname.obj
 0001:00044db0       ?getCHPEName@UnDecorator@@QEAAPEADPEADH@Z 0000000180045db0 f i libvcruntimed:undname.obj
 0001:00044f80       ?getCallIndex@UnDecorator@@CA?AVDName@@XZ 0000000180045f80 f i libvcruntimed:undname.obj
 0001:00044fa0       ?getCallingConvention@UnDecorator@@CA?AVDName@@XZ 0000000180045fa0 f   libvcruntimed:undname.obj
 0001:00045390       ?getDataIndirectType@UnDecorator@@CA?AVDName@@AEBV2@W4IndirectionKind@@0H@Z 0000000180046390 f   libvcruntimed:undname.obj
 0001:00046030       ?getDataIndirectType@UnDecorator@@CA?AVDName@@XZ 0000000180047030 f i libvcruntimed:undname.obj
 0001:00046080       ?getDataType@UnDecorator@@CA?AVDName@@PEAV2@@Z 0000000180047080 f   libvcruntimed:undname.obj
 0001:00046260       ?getDecoratedName@UnDecorator@@CA?AVDName@@XZ 0000000180047260 f   libvcruntimed:undname.obj
 0001:00046750       ?getDimension@UnDecorator@@CA?AVDName@@_N@Z 0000000180047750 f   libvcruntimed:undname.obj
 0001:00046a60       ?getDispatchTarget@UnDecorator@@CA?AVDName@@XZ 0000000180047a60 f   libvcruntimed:undname.obj
 0001:00046b30       ?getDisplacement@UnDecorator@@CA?AVDName@@XZ 0000000180047b30 f i libvcruntimed:undname.obj
 0001:00046b50       ?getECSUDataType@UnDecorator@@CA?AVDName@@XZ 0000000180047b50 f   libvcruntimed:undname.obj
 0001:00046ee0       ?getECSUName@UnDecorator@@CA?AVDName@@XZ 0000000180047ee0 f i libvcruntimed:undname.obj
 0001:00046f00       ?getEnumType@UnDecorator@@CA?AVDName@@XZ 0000000180047f00 f i libvcruntimed:undname.obj
 0001:00047190       ?getExtendedDataIndirectType@UnDecorator@@CA?AVDName@@AEAW4IndirectionKind@@AEA_NH@Z 0000000180048190 f   libvcruntimed:undname.obj
 0001:000474b0       ?getExternalDataType@UnDecorator@@CA?AVDName@@AEBV2@@Z 00000001800484b0 f i libvcruntimed:undname.obj
 0001:00047590       ?getFloatingPoint@UnDecorator@@CA?AVDName@@H@Z 0000000180048590 f   libvcruntimed:undname.obj
 0001:00047810       ?getFunctionIndirectType@UnDecorator@@CA?AVDName@@AEBV2@@Z 0000000180048810 f   libvcruntimed:undname.obj
 0001:00047e40       ?getGuardNumber@UnDecorator@@CA?AVDName@@XZ 0000000180048e40 f i libvcruntimed:undname.obj
 0001:00047e60       ?getLastChar@DName@@QEBADXZ 0000000180048e60 f i libvcruntimed:undname.obj
 0001:00047eb0       ?getLastChar@DNameStatusNode@@UEBADXZ 0000000180048eb0 f i libvcruntimed:undname.obj
 0001:00047ef0       ?getLastChar@charNode@@UEBADXZ 0000000180048ef0 f i libvcruntimed:undname.obj
 0001:00047f00       ?getLastChar@pDNameNode@@UEBADXZ 0000000180048f00 f i libvcruntimed:undname.obj
 0001:00047f40       ?getLastChar@pairNode@@UEBADXZ 0000000180048f40 f i libvcruntimed:undname.obj
 0001:00047fc0       ?getLastChar@pcharNode@@UEBADXZ 0000000180048fc0 f i libvcruntimed:undname.obj
 0001:00048000       ?getLexicalFrame@UnDecorator@@CA?AVDName@@XZ 0000000180049000 f i libvcruntimed:undname.obj
 0001:00048050       ?getMemberAccess@UnDecorator@@CA?AVDName@@XZ 0000000180049050 f   libvcruntimed:undname.obj
 0001:00048100       ?getMemoryWithBuffer@_HeapManager@@QEAAPEAX_K@Z 0000000180049100 f   libvcruntimed:undname.obj
 0001:00048250       ?getMemoryWithoutBuffer@_HeapManager@@QEAAPEAX_K@Z 0000000180049250 f   libvcruntimed:undname.obj
 0001:000482a0       ?getNoexcept@UnDecorator@@CA?AVDName@@XZ 00000001800492a0 f   libvcruntimed:undname.obj
 0001:00048350       ?getNumberOfDimensions@UnDecorator@@CAHXZ 0000000180049350 f   libvcruntimed:undname.obj
 0001:00048470       ?getOperatorName@UnDecorator@@CA?AVDName@@_NPEA_N@Z 0000000180049470 f i libvcruntimed:undname.obj
 0001:00049460       ?getPointerToMember@UnDecorator@@CA?AVDName@@XZ 000000018004a460 f   libvcruntimed:undname.obj
 0001:000495b0       ?getPointerType@UnDecorator@@CA?AVDName@@AEBV2@0@Z 000000018004a5b0 f i libvcruntimed:undname.obj
 0001:000495f0       ?getPointerTypeArray@UnDecorator@@CA?AVDName@@AEBV2@0@Z 000000018004a5f0 f i libvcruntimed:undname.obj
 0001:00049630       ?getPrimaryDataType@UnDecorator@@CA?AVDName@@AEBV2@@Z 000000018004a630 f   libvcruntimed:undname.obj
 0001:00049c60       ?getPtrRefDataType@UnDecorator@@CA?AVDName@@AEBV2@H@Z 000000018004ac60 f   libvcruntimed:undname.obj
 0001:0004a050       ?getPtrRefType@UnDecorator@@CA?AVDName@@AEBV2@0W4IndirectionKind@@@Z 000000018004b050 f   libvcruntimed:undname.obj
 0001:0004a290       ?getReferenceType@UnDecorator@@CA?AVDName@@AEBV2@0W4IndirectionKind@@@Z 000000018004b290 f i libvcruntimed:undname.obj
 0001:0004a2d0       ?getRestrictionSpec@UnDecorator@@CA?AVDName@@XZ 000000018004b2d0 f   libvcruntimed:undname.obj
 0001:0004a560       ?getReturnType@UnDecorator@@CA?AVDName@@PEAV2@@Z 000000018004b560 f   libvcruntimed:undname.obj
 0001:0004a5c0       ?getScope@UnDecorator@@CA?AVDName@@XZ 000000018004b5c0 f   libvcruntimed:undname.obj
 0001:0004ad20       ?getScopedName@UnDecorator@@CA?AVDName@@XZ 000000018004bd20 f   libvcruntimed:undname.obj
 0001:0004af20       ?getSignedDimension@UnDecorator@@CA?AVDName@@XZ 000000018004bf20 f   libvcruntimed:undname.obj
 0001:0004afb0       ?getStorageConvention@UnDecorator@@CA?AVDName@@XZ 000000018004bfb0 f i libvcruntimed:undname.obj
 0001:0004afd0       ?getString@DName@@QEBAPEADPEAD0@Z 000000018004bfd0 f i libvcruntimed:undname.obj
 0001:0004b050       ?getString@DName@@QEBAPEADPEADH@Z 000000018004c050 f i libvcruntimed:undname.obj
 0001:0004b110       ?getString@DNameStatusNode@@UEBAPEADPEAD0@Z 000000018004c110 f i libvcruntimed:undname.obj
 0001:0004b160       ?getString@charNode@@UEBAPEADPEAD0@Z 000000018004c160 f i libvcruntimed:undname.obj
 0001:0004b1a0       ?getString@pDNameNode@@UEBAPEADPEAD0@Z 000000018004c1a0 f i libvcruntimed:undname.obj
 0001:0004b200       ?getString@pairNode@@UEBAPEADPEAD0@Z 000000018004c200 f i libvcruntimed:undname.obj
 0001:0004b2d0       ?getString@pcharNode@@UEBAPEADPEAD0@Z 000000018004c2d0 f i libvcruntimed:undname.obj
 0001:0004b310       ?getStringEncoding@UnDecorator@@CA?AVDName@@W4PrefixKind@@H@Z 000000018004c310 f   libvcruntimed:undname.obj
 0001:0004b470       ?getStringHelper@@YAPEADPEADPEBD1H@Z 000000018004c470 f i libvcruntimed:undname.obj
 0001:0004b4e0       ?getStringObject@UnDecorator@@CA?AVDName@@XZ 000000018004c4e0 f   libvcruntimed:undname.obj
 0001:0004b5c0       ?getSymbolName@UnDecorator@@CA?AVDName@@XZ 000000018004c5c0 f i libvcruntimed:undname.obj
 0001:0004b660       ?getTemplateArgumentList@UnDecorator@@CA?AVDName@@XZ 000000018004c660 f   libvcruntimed:undname.obj
 0001:0004b9a0       ?getTemplateName@UnDecorator@@CA?AVDName@@_N@Z 000000018004c9a0 f   libvcruntimed:undname.obj
 0001:0004bbe0       ?getTemplateNonTypeArgument@UnDecorator@@CA?AVDName@@XZ 000000018004cbe0 f   libvcruntimed:undname.obj
 0001:0004c480       ?getTemplateTypeArgument@UnDecorator@@CA?AVDName@@XZ 000000018004d480 f   libvcruntimed:undname.obj
 0001:0004c6f0       ?getThisType@UnDecorator@@CA?AVDName@@XZ 000000018004d6f0 f i libvcruntimed:undname.obj
 0001:0004c740       ?getThrowTypes@UnDecorator@@CA?AVDName@@XZ 000000018004d740 f   libvcruntimed:undname.obj
 0001:0004c790       ?getTypeEncoding@UnDecorator@@CAHXZ 000000018004d790 f i libvcruntimed:undname.obj
 0001:0004d3f0       ?getUndecoratedName@UnDecorator@@QEAAPEADPEADH@Z 000000018004e3f0 f i libvcruntimed:undname.obj
 0001:0004d5e0       ?getUnionObject@UnDecorator@@CA?AVDName@@XZ 000000018004e5e0 f   libvcruntimed:undname.obj
 0001:0004d6f0       ?getVCallThunkType@UnDecorator@@CA?AVDName@@XZ 000000018004e6f0 f i libvcruntimed:undname.obj
 0001:0004d7a0       ?getValue@UnDecorator@@CA?AV?$optional@_K@std@@XZ 000000018004e7a0 f   libvcruntimed:undname.obj
 0001:0004d870       ?getValueObject@UnDecorator@@CA?AVDName@@XZ 000000018004e870 f   libvcruntimed:undname.obj
 0001:0004da90       ?getVbTableType@UnDecorator@@CA?AVDName@@AEBV2@@Z 000000018004ea90 f i libvcruntimed:undname.obj
 0001:0004dac0       ?getVdispMapType@UnDecorator@@CA?AVDName@@AEBV2@@Z 000000018004eac0 f i libvcruntimed:undname.obj
 0001:0004db80       ?getVfTableType@UnDecorator@@CA?AVDName@@AEBV2@@Z 000000018004eb80 f i libvcruntimed:undname.obj
 0001:0004de20       ?getZName@UnDecorator@@CA?AVDName@@_N0@Z 000000018004ee20 f   libvcruntimed:undname.obj
 0001:0004e290       ?haveTemplateParameters@UnDecorator@@SAHXZ 000000018004f290 f i libvcruntimed:undname.obj
 0001:0004e2a0       ?isArray@DName@@QEBAHXZ    000000018004f2a0 f i libvcruntimed:undname.obj
 0001:0004e2c0       ?isComArray@DName@@QEBAHXZ 000000018004f2c0 f i libvcruntimed:undname.obj
 0001:0004e2e0       ?isEmpty@DName@@QEBAHXZ    000000018004f2e0 f i libvcruntimed:undname.obj
 0001:0004e310       ?isFull@Replicator@@QEBAHXZ 000000018004f310 f i libvcruntimed:undname.obj
 0001:0004e340       ?isNoTE@DName@@QEBAHXZ     000000018004f340 f i libvcruntimed:undname.obj
 0001:0004e360       ?isPinPtr@DName@@QEBAHXZ   000000018004f360 f i libvcruntimed:undname.obj
 0001:0004e380       ?isPtrRef@DName@@QEBAHXZ   000000018004f380 f i libvcruntimed:undname.obj
 0001:0004e3a0       ?isUDC@DName@@QEBAHXZ      000000018004f3a0 f i libvcruntimed:undname.obj
 0001:0004e3f0       ?isUDTThunk@DName@@QEBAHXZ 000000018004f3f0 f i libvcruntimed:undname.obj
 0001:0004e440       ?isVCallThunk@DName@@QEBAHXZ 000000018004f440 f i libvcruntimed:undname.obj
 0001:0004e460       ?isValid@DName@@QEBAHXZ    000000018004f460 f i libvcruntimed:undname.obj
 0001:0004e4a0       ?length@DName@@QEBAHXZ     000000018004f4a0 f i libvcruntimed:undname.obj
 0001:0004e4f0       ?length@DNameStatusNode@@UEBAHXZ 000000018004f4f0 f i libvcruntimed:undname.obj
 0001:0004e500       ?length@charNode@@UEBAHXZ  000000018004f500 f i libvcruntimed:undname.obj
 0001:0004e510       ?length@pDNameNode@@UEBAHXZ 000000018004f510 f i libvcruntimed:undname.obj
 0001:0004e550       ?length@pairNode@@UEBAHXZ  000000018004f550 f i libvcruntimed:undname.obj
 0001:0004e5e0       ?length@pcharNode@@UEBAHXZ 000000018004f5e0 f i libvcruntimed:undname.obj
 0001:0004e5f0       ?make@DNameStatusNode@@SAPEBV1@W4DNameStatus@@@Z 000000018004f5f0 f i libvcruntimed:undname.obj
 0001:0004e640       ?parseDecoratedName@UnDecorator@@CA?AVDName@@XZ 000000018004f640 f   libvcruntimed:undname.obj
 0001:0004e830       ?raw_length@DNameStatusNode@@UEBAHXZ 000000018004f830 f i libvcruntimed:undname.obj
 0001:0004e850       ?raw_length@charNode@@UEBAHXZ 000000018004f850 f i libvcruntimed:undname.obj
 0001:0004e870       ?raw_length@pDNameNode@@UEBAHXZ 000000018004f870 f i libvcruntimed:undname.obj
 0001:0004e880       ?raw_length@pairNode@@UEBAHXZ 000000018004f880 f i libvcruntimed:undname.obj
 0001:0004e890       ?raw_length@pcharNode@@UEBAHXZ 000000018004f890 f i libvcruntimed:undname.obj
 0001:0004e8b0       ?setIsArray@DName@@QEAAXXZ 000000018004f8b0 f i libvcruntimed:undname.obj
 0001:0004e8d0       ?setIsComArray@DName@@QEAAXXZ 000000018004f8d0 f i libvcruntimed:undname.obj
 0001:0004e8f0       ?setIsNoTE@DName@@QEAAXXZ  000000018004f8f0 f i libvcruntimed:undname.obj
 0001:0004e910       ?setIsPinPtr@DName@@QEAAXXZ 000000018004f910 f i libvcruntimed:undname.obj
 0001:0004e930       ?setIsUDC@DName@@QEAAXXZ   000000018004f930 f i libvcruntimed:undname.obj
 0001:0004e960       ?setIsVCallThunk@DName@@QEAAXXZ 000000018004f960 f i libvcruntimed:undname.obj
 0001:0004e980       ?setPtrRef@DName@@QEAAAEAV1@XZ 000000018004f980 f i libvcruntimed:undname.obj
 0001:0004e9a0       ?status@DName@@QEBA?AW4DNameStatus@@XZ 000000018004f9a0 f i libvcruntimed:undname.obj
 0001:0004ead0       __unDName                  000000018004fad0 f   libvcruntimed:undname.obj
 0001:0004eb30       __unDNameEx                000000018004fb30 f   libvcruntimed:undname.obj
 0001:0004ebf0       unDNameGenerateCHPE        000000018004fbf0 f   libvcruntimed:undname.obj
 0001:0004eca0       ??$__crt_interlocked_exchange_pointer@UHINSTANCE__@@PEAU1@@@YAPEAUHINSTANCE__@@PEDSEAU0@QEAU0@@Z 000000018004fca0 f i libvcruntimed:winapi_downlevel.obj
 0001:0004ecc0       ??$__crt_interlocked_exchange_pointer@UHINSTANCE__@@PEAX@@YAPEAUHINSTANCE__@@PEDSEAU0@QEAX@Z 000000018004fcc0 f i libvcruntimed:winapi_downlevel.obj
 0001:0004ece0       ??$__crt_interlocked_exchange_pointer@XPEAX@@YAPEAXPEDSEAXQEAX@Z 000000018004fce0 f i libvcruntimed:winapi_downlevel.obj
 0001:0004ed00       ??$__crt_interlocked_read_pointer@UHINSTANCE__@@@@YAPEAUHINSTANCE__@@PEDSEAU0@@Z 000000018004fd00 f i libvcruntimed:winapi_downlevel.obj
 0001:0004ed20       ??$__crt_interlocked_read_pointer@X@@YAPEAXPEDSEAX@Z 000000018004fd20 f i libvcruntimed:winapi_downlevel.obj
 0001:0004f230       __vcrt_FlsAlloc            0000000180050230 f   libvcruntimed:winapi_downlevel.obj
 0001:0004f280       __vcrt_FlsFree             0000000180050280 f   libvcruntimed:winapi_downlevel.obj
 0001:0004f2d0       __vcrt_FlsGetValue         00000001800502d0 f   libvcruntimed:winapi_downlevel.obj
 0001:0004f320       __vcrt_FlsSetValue         0000000180050320 f   libvcruntimed:winapi_downlevel.obj
 0001:0004f380       __vcrt_InitializeCriticalSectionEx 0000000180050380 f   libvcruntimed:winapi_downlevel.obj
 0001:0004f400       _CallSettingFrame          0000000180050400 f   libvcruntimed:handlers.obj
 0001:0004f450       _CallSettingFrame_LookupContinuationIndex 0000000180050450 f   libvcruntimed:handlers.obj
 0001:0004f480       _CallSettingFrame_NotifyContinuationAddr 0000000180050480 f   libvcruntimed:handlers.obj
 0001:0004f4b0       _CallSettingFrameEncoded   00000001800504b0 f   libvcruntimed:handlers.obj
 0001:0004f500       ??$?0AEBV?$stream_output_adapter@D@__crt_stdio_output@@AEB_KAEBQEBDAEAV__crt_cached_ptd_host@@AEBQEAD@?$format_validation_base@DV?$stream_output_adapter@D@__crt_stdio_output@@@__crt_stdio_output@@IEAA@AEBV?$stream_output_adapter@D@1@AEB_KAEBQEBDAEAV__crt_cached_ptd_host@@AEBQEAD@Z 0000000180050500 f i libucrtd:output.obj
 0001:0004f550       ??$?0AEBV?$stream_output_adapter@D@__crt_stdio_output@@AEB_KAEBQEBDAEAV__crt_cached_ptd_host@@AEBQEAD@?$positional_parameter_base@DV?$stream_output_adapter@D@__crt_stdio_output@@@__crt_stdio_output@@IEAA@AEBV?$stream_output_adapter@D@1@AEB_KAEBQEBDAEAV__crt_cached_ptd_host@@AEBQEAD@Z 0000000180050550 f i libucrtd:output.obj
 0001:0004f5f0       ??$?0AEBV?$stream_output_adapter@D@__crt_stdio_output@@AEB_KAEBQEBDAEAV__crt_cached_ptd_host@@AEBQEAD@?$standard_base@DV?$stream_output_adapter@D@__crt_stdio_output@@@__crt_stdio_output@@IEAA@AEBV?$stream_output_adapter@D@1@AEB_KAEBQEBDAEAV__crt_cached_ptd_host@@AEBQEAD@Z 00000001800505f0 f i libucrtd:output.obj
 0001:0004f660       ??$?0AEBV?$stream_output_adapter@_W@__crt_stdio_output@@AEB_KAEBQEB_WAEAV__crt_cached_ptd_host@@AEBQEAD@?$format_validation_base@_WV?$stream_output_adapter@_W@__crt_stdio_output@@@__crt_stdio_output@@IEAA@AEBV?$stream_output_adapter@_W@1@AEB_KAEBQEB_WAEAV__crt_cached_ptd_host@@AEBQEAD@Z 0000000180050660 f i libucrtd:output.obj
 0001:0004f6b0       ??$?0AEBV?$stream_output_adapter@_W@__crt_stdio_output@@AEB_KAEBQEB_WAEAV__crt_cached_ptd_host@@AEBQEAD@?$positional_parameter_base@_WV?$stream_output_adapter@_W@__crt_stdio_output@@@__crt_stdio_output@@IEAA@AEBV?$stream_output_adapter@_W@1@AEB_KAEBQEB_WAEAV__crt_cached_ptd_host@@AEBQEAD@Z 00000001800506b0 f i libucrtd:output.obj
 0001:0004f750       ??$?0AEBV?$stream_output_adapter@_W@__crt_stdio_output@@AEB_KAEBQEB_WAEAV__crt_cached_ptd_host@@AEBQEAD@?$standard_base@_WV?$stream_output_adapter@_W@__crt_stdio_output@@@__crt_stdio_output@@IEAA@AEBV?$stream_output_adapter@_W@1@AEB_KAEBQEB_WAEAV__crt_cached_ptd_host@@AEBQEAD@Z 0000000180050750 f i libucrtd:output.obj
 0001:0004f7c0       ??$?0AEBV?$string_output_adapter@D@__crt_stdio_output@@AEB_KAEBQEBDAEAV__crt_cached_ptd_host@@AEBQEAD@?$format_validation_base@DV?$string_output_adapter@D@__crt_stdio_output@@@__crt_stdio_output@@IEAA@AEBV?$string_output_adapter@D@1@AEB_KAEBQEBDAEAV__crt_cached_ptd_host@@AEBQEAD@Z 00000001800507c0 f i libucrtd:output.obj
 0001:0004f810       ??$?0AEBV?$string_output_adapter@D@__crt_stdio_output@@AEB_KAEBQEBDAEAV__crt_cached_ptd_host@@AEBQEAD@?$positional_parameter_base@DV?$string_output_adapter@D@__crt_stdio_output@@@__crt_stdio_output@@IEAA@AEBV?$string_output_adapter@D@1@AEB_KAEBQEBDAEAV__crt_cached_ptd_host@@AEBQEAD@Z 0000000180050810 f i libucrtd:output.obj
 0001:0004f8b0       ??$?0AEBV?$string_output_adapter@D@__crt_stdio_output@@AEB_KAEBQEBDAEAV__crt_cached_ptd_host@@AEBQEAD@?$standard_base@DV?$string_output_adapter@D@__crt_stdio_output@@@__crt_stdio_output@@IEAA@AEBV?$string_output_adapter@D@1@AEB_KAEBQEBDAEAV__crt_cached_ptd_host@@AEBQEAD@Z 00000001800508b0 f i libucrtd:output.obj
 0001:0004f920       ??$?0AEBV?$string_output_adapter@_W@__crt_stdio_output@@AEB_KAEBQEB_WAEAV__crt_cached_ptd_host@@AEBQEAD@?$format_validation_base@_WV?$string_output_adapter@_W@__crt_stdio_output@@@__crt_stdio_output@@IEAA@AEBV?$string_output_adapter@_W@1@AEB_KAEBQEB_WAEAV__crt_cached_ptd_host@@AEBQEAD@Z 0000000180050920 f i libucrtd:output.obj
 0001:0004f970       ??$?0AEBV?$string_output_adapter@_W@__crt_stdio_output@@AEB_KAEBQEB_WAEAV__crt_cached_ptd_host@@AEBQEAD@?$positional_parameter_base@_WV?$string_output_adapter@_W@__crt_stdio_output@@@__crt_stdio_output@@IEAA@AEBV?$string_output_adapter@_W@1@AEB_KAEBQEB_WAEAV__crt_cached_ptd_host@@AEBQEAD@Z 0000000180050970 f i libucrtd:output.obj
 0001:0004fa10       ??$?0AEBV?$string_output_adapter@_W@__crt_stdio_output@@AEB_KAEBQEB_WAEAV__crt_cached_ptd_host@@AEBQEAD@?$standard_base@_WV?$string_output_adapter@_W@__crt_stdio_output@@@__crt_stdio_output@@IEAA@AEBV?$string_output_adapter@_W@1@AEB_KAEBQEB_WAEAV__crt_cached_ptd_host@@AEBQEAD@Z 0000000180050a10 f i libucrtd:output.obj
 0001:0004fea0       ??$__crt_interlocked_read@J@@YAJPEDJ@Z 0000000180050ea0 f i libucrtd:output.obj
 0001:0004fec0       ??$_tcstol_internal@DPEAPEAD$0A@@@YAJAEAV__crt_cached_ptd_host@@QEBDQEAPEADH@Z 0000000180050ec0 f i libucrtd:output.obj
 0001:0004ff10       ??$_tcstol_internal@_WPEAPEA_W$0A@@@YAJAEAV__crt_cached_ptd_host@@QEB_WQEAPEA_WH@Z 0000000180050f10 f i libucrtd:output.obj
 0001:00053f30       ??$count@D@formatting_buffer@__crt_stdio_output@@QEBA_KXZ 0000000180054f30 f i libucrtd:output.obj
 0001:00053f80       ??$count@_W@formatting_buffer@__crt_stdio_output@@QEBA_KXZ 0000000180054f80 f i libucrtd:output.obj
 0001:00053fd0       ??$data@D@formatting_buffer@__crt_stdio_output@@QEAAPEADXZ 0000000180054fd0 f i libucrtd:output.obj
 0001:00054020       ??$data@_W@formatting_buffer@__crt_stdio_output@@QEAAPEA_WXZ 0000000180055020 f i libucrtd:output.obj
 0001:00054070       ??$ensure_buffer_is_big_enough@D@formatting_buffer@__crt_stdio_output@@QEAA_N_KAEAV__crt_cached_ptd_host@@@Z 0000000180055070 f i libucrtd:output.obj
 0001:000541b0       ??$ensure_buffer_is_big_enough@_W@formatting_buffer@__crt_stdio_output@@QEAA_N_KAEAV__crt_cached_ptd_host@@@Z 00000001800551b0 f i libucrtd:output.obj
 0001:000542f0       ??$extract_argument_from_va_list@C_J@?$positional_parameter_base@DV?$stream_output_adapter@D@__crt_stdio_output@@@__crt_stdio_output@@IEAA_NAEA_J@Z 00000001800552f0 f i libucrtd:output.obj
 0001:000544b0       ??$extract_argument_from_va_list@C_J@?$positional_parameter_base@DV?$string_output_adapter@D@__crt_stdio_output@@@__crt_stdio_output@@IEAA_NAEA_J@Z 00000001800554b0 f i libucrtd:output.obj
 0001:00054670       ??$extract_argument_from_va_list@C_J@?$positional_parameter_base@_WV?$stream_output_adapter@_W@__crt_stdio_output@@@__crt_stdio_output@@IEAA_NAEA_J@Z 0000000180055670 f i libucrtd:output.obj
 0001:00054830       ??$extract_argument_from_va_list@C_J@?$positional_parameter_base@_WV?$string_output_adapter@_W@__crt_stdio_output@@@__crt_stdio_output@@IEAA_NAEA_J@Z 0000000180055830 f i libucrtd:output.obj
 0001:000549f0       ??$extract_argument_from_va_list@C_J@?$standard_base@DV?$stream_output_adapter@D@__crt_stdio_output@@@__crt_stdio_output@@IEAA_NAEA_J@Z 00000001800559f0 f i libucrtd:output.obj
 0001:00054a30       ??$extract_argument_from_va_list@C_J@?$standard_base@DV?$string_output_adapter@D@__crt_stdio_output@@@__crt_stdio_output@@IEAA_NAEA_J@Z 0000000180055a30 f i libucrtd:output.obj
 0001:00054a70       ??$extract_argument_from_va_list@C_J@?$standard_base@_WV?$stream_output_adapter@_W@__crt_stdio_output@@@__crt_stdio_output@@IEAA_NAEA_J@Z 0000000180055a70 f i libucrtd:output.obj
 0001:00054ab0       ??$extract_argument_from_va_list@C_J@?$standard_base@_WV?$string_output_adapter@_W@__crt_stdio_output@@@__crt_stdio_output@@IEAA_NAEA_J@Z 0000000180055ab0 f i libucrtd:output.obj
 0001:00054af0       ??$extract_argument_from_va_list@E_J@?$positional_parameter_base@DV?$stream_output_adapter@D@__crt_stdio_output@@@__crt_stdio_output@@IEAA_NAEA_J@Z 0000000180055af0 f i libucrtd:output.obj
 0001:00054cb0       ??$extract_argument_from_va_list@E_J@?$positional_parameter_base@DV?$string_output_adapter@D@__crt_stdio_output@@@__crt_stdio_output@@IEAA_NAEA_J@Z 0000000180055cb0 f i libucrtd:output.obj
 0001:00054e70       ??$extract_argument_from_va_list@E_J@?$positional_parameter_base@_WV?$stream_output_adapter@_W@__crt_stdio_output@@@__crt_stdio_output@@IEAA_NAEA_J@Z 0000000180055e70 f i libucrtd:output.obj
 0001:00055030       ??$extract_argument_from_va_list@E_J@?$positional_parameter_base@_WV?$string_output_adapter@_W@__crt_stdio_output@@@__crt_stdio_output@@IEAA_NAEA_J@Z 0000000180056030 f i libucrtd:output.obj
 0001:000551f0       ??$extract_argument_from_va_list@E_J@?$standard_base@DV?$stream_output_adapter@D@__crt_stdio_output@@@__crt_stdio_output@@IEAA_NAEA_J@Z 00000001800561f0 f i libucrtd:output.obj
 0001:00055230       ??$extract_argument_from_va_list@E_J@?$standard_base@DV?$string_output_adapter@D@__crt_stdio_output@@@__crt_stdio_output@@IEAA_NAEA_J@Z 0000000180056230 f i libucrtd:output.obj
 0001:00055270       ??$extract_argument_from_va_list@E_J@?$standard_base@_WV?$stream_output_adapter@_W@__crt_stdio_output@@@__crt_stdio_output@@IEAA_NAEA_J@Z 0000000180056270 f i libucrtd:output.obj
 0001:000552b0       ??$extract_argument_from_va_list@E_J@?$standard_base@_WV?$string_output_adapter@_W@__crt_stdio_output@@@__crt_stdio_output@@IEAA_NAEA_J@Z 00000001800562b0 f i libucrtd:output.obj
 0001:000552f0       ??$extract_argument_from_va_list@F_J@?$positional_parameter_base@DV?$stream_output_adapter@D@__crt_stdio_output@@@__crt_stdio_output@@IEAA_NAEA_J@Z 00000001800562f0 f i libucrtd:output.obj
 0001:000554b0       ??$extract_argument_from_va_list@F_J@?$positional_parameter_base@DV?$string_output_adapter@D@__crt_stdio_output@@@__crt_stdio_output@@IEAA_NAEA_J@Z 00000001800564b0 f i libucrtd:output.obj
 0001:00055670       ??$extract_argument_from_va_list@F_J@?$positional_parameter_base@_WV?$stream_output_adapter@_W@__crt_stdio_output@@@__crt_stdio_output@@IEAA_NAEA_J@Z 0000000180056670 f i libucrtd:output.obj
 0001:00055830       ??$extract_argument_from_va_list@F_J@?$positional_parameter_base@_WV?$string_output_adapter@_W@__crt_stdio_output@@@__crt_stdio_output@@IEAA_NAEA_J@Z 0000000180056830 f i libucrtd:output.obj
 0001:000559f0       ??$extract_argument_from_va_list@F_J@?$standard_base@DV?$stream_output_adapter@D@__crt_stdio_output@@@__crt_stdio_output@@IEAA_NAEA_J@Z 00000001800569f0 f i libucrtd:output.obj
 0001:00055a30       ??$extract_argument_from_va_list@F_J@?$standard_base@DV?$string_output_adapter@D@__crt_stdio_output@@@__crt_stdio_output@@IEAA_NAEA_J@Z 0000000180056a30 f i libucrtd:output.obj
 0001:00055a70       ??$extract_argument_from_va_list@F_J@?$standard_base@_WV?$stream_output_adapter@_W@__crt_stdio_output@@@__crt_stdio_output@@IEAA_NAEA_J@Z 0000000180056a70 f i libucrtd:output.obj
 0001:00055ab0       ??$extract_argument_from_va_list@F_J@?$standard_base@_WV?$string_output_adapter@_W@__crt_stdio_output@@@__crt_stdio_output@@IEAA_NAEA_J@Z 0000000180056ab0 f i libucrtd:output.obj
 0001:00055af0       ??$extract_argument_from_va_list@GD@?$positional_parameter_base@DV?$stream_output_adapter@D@__crt_stdio_output@@@__crt_stdio_output@@IEAA_NAEAD@Z 0000000180056af0 f i libucrtd:output.obj
 0001:00055cb0       ??$extract_argument_from_va_list@GD@?$positional_parameter_base@DV?$string_output_adapter@D@__crt_stdio_output@@@__crt_stdio_output@@IEAA_NAEAD@Z 0000000180056cb0 f i libucrtd:output.obj
 0001:00055e70       ??$extract_argument_from_va_list@GD@?$standard_base@DV?$stream_output_adapter@D@__crt_stdio_output@@@__crt_stdio_output@@IEAA_NAEAD@Z 0000000180056e70 f i libucrtd:output.obj
 0001:00055ea0       ??$extract_argument_from_va_list@GD@?$standard_base@DV?$string_output_adapter@D@__crt_stdio_output@@@__crt_stdio_output@@IEAA_NAEAD@Z 0000000180056ea0 f i libucrtd:output.obj
 0001:00055ed0       ??$extract_argument_from_va_list@G_J@?$positional_parameter_base@DV?$stream_output_adapter@D@__crt_stdio_output@@@__crt_stdio_output@@IEAA_NAEA_J@Z 0000000180056ed0 f i libucrtd:output.obj
 0001:00056090       ??$extract_argument_from_va_list@G_J@?$positional_parameter_base@DV?$string_output_adapter@D@__crt_stdio_output@@@__crt_stdio_output@@IEAA_NAEA_J@Z 0000000180057090 f i libucrtd:output.obj
 0001:00056250       ??$extract_argument_from_va_list@G_J@?$positional_parameter_base@_WV?$stream_output_adapter@_W@__crt_stdio_output@@@__crt_stdio_output@@IEAA_NAEA_J@Z 0000000180057250 f i libucrtd:output.obj
 0001:00056410       ??$extract_argument_from_va_list@G_J@?$positional_parameter_base@_WV?$string_output_adapter@_W@__crt_stdio_output@@@__crt_stdio_output@@IEAA_NAEA_J@Z 0000000180057410 f i libucrtd:output.obj
 0001:000565d0       ??$extract_argument_from_va_list@G_J@?$standard_base@DV?$stream_output_adapter@D@__crt_stdio_output@@@__crt_stdio_output@@IEAA_NAEA_J@Z 00000001800575d0 f i libucrtd:output.obj
 0001:00056610       ??$extract_argument_from_va_list@G_J@?$standard_base@DV?$string_output_adapter@D@__crt_stdio_output@@@__crt_stdio_output@@IEAA_NAEA_J@Z 0000000180057610 f i libucrtd:output.obj
 0001:00056650       ??$extract_argument_from_va_list@G_J@?$standard_base@_WV?$stream_output_adapter@_W@__crt_stdio_output@@@__crt_stdio_output@@IEAA_NAEA_J@Z 0000000180057650 f i libucrtd:output.obj
 0001:00056690       ??$extract_argument_from_va_list@G_J@?$standard_base@_WV?$string_output_adapter@_W@__crt_stdio_output@@@__crt_stdio_output@@IEAA_NAEA_J@Z 0000000180057690 f i libucrtd:output.obj
 0001:000566d0       ??$extract_argument_from_va_list@H_J@?$positional_parameter_base@DV?$stream_output_adapter@D@__crt_stdio_output@@@__crt_stdio_output@@IEAA_NAEA_J@Z 00000001800576d0 f i libucrtd:output.obj
 0001:00056890       ??$extract_argument_from_va_list@H_J@?$positional_parameter_base@DV?$string_output_adapter@D@__crt_stdio_output@@@__crt_stdio_output@@IEAA_NAEA_J@Z 0000000180057890 f i libucrtd:output.obj
 0001:00056a50       ??$extract_argument_from_va_list@H_J@?$positional_parameter_base@_WV?$stream_output_adapter@_W@__crt_stdio_output@@@__crt_stdio_output@@IEAA_NAEA_J@Z 0000000180057a50 f i libucrtd:output.obj
 0001:00056c10       ??$extract_argument_from_va_list@H_J@?$positional_parameter_base@_WV?$string_output_adapter@_W@__crt_stdio_output@@@__crt_stdio_output@@IEAA_NAEA_J@Z 0000000180057c10 f i libucrtd:output.obj
 0001:00056dd0       ??$extract_argument_from_va_list@H_J@?$standard_base@DV?$stream_output_adapter@D@__crt_stdio_output@@@__crt_stdio_output@@IEAA_NAEA_J@Z 0000000180057dd0 f i libucrtd:output.obj
 0001:00056e00       ??$extract_argument_from_va_list@H_J@?$standard_base@DV?$string_output_adapter@D@__crt_stdio_output@@@__crt_stdio_output@@IEAA_NAEA_J@Z 0000000180057e00 f i libucrtd:output.obj
 0001:00056e30       ??$extract_argument_from_va_list@H_J@?$standard_base@_WV?$stream_output_adapter@_W@__crt_stdio_output@@@__crt_stdio_output@@IEAA_NAEA_J@Z 0000000180057e30 f i libucrtd:output.obj
 0001:00056e60       ??$extract_argument_from_va_list@H_J@?$standard_base@_WV?$string_output_adapter@_W@__crt_stdio_output@@@__crt_stdio_output@@IEAA_NAEA_J@Z 0000000180057e60 f i libucrtd:output.obj
 0001:00056e90       ??$extract_argument_from_va_list@I_J@?$positional_parameter_base@DV?$stream_output_adapter@D@__crt_stdio_output@@@__crt_stdio_output@@IEAA_NAEA_J@Z 0000000180057e90 f i libucrtd:output.obj
 0001:00057050       ??$extract_argument_from_va_list@I_J@?$positional_parameter_base@DV?$string_output_adapter@D@__crt_stdio_output@@@__crt_stdio_output@@IEAA_NAEA_J@Z 0000000180058050 f i libucrtd:output.obj
 0001:00057210       ??$extract_argument_from_va_list@I_J@?$positional_parameter_base@_WV?$stream_output_adapter@_W@__crt_stdio_output@@@__crt_stdio_output@@IEAA_NAEA_J@Z 0000000180058210 f i libucrtd:output.obj
 0001:000573d0       ??$extract_argument_from_va_list@I_J@?$positional_parameter_base@_WV?$string_output_adapter@_W@__crt_stdio_output@@@__crt_stdio_output@@IEAA_NAEA_J@Z 00000001800583d0 f i libucrtd:output.obj
 0001:00057590       ??$extract_argument_from_va_list@I_J@?$standard_base@DV?$stream_output_adapter@D@__crt_stdio_output@@@__crt_stdio_output@@IEAA_NAEA_J@Z 0000000180058590 f i libucrtd:output.obj
 0001:000575c0       ??$extract_argument_from_va_list@I_J@?$standard_base@DV?$string_output_adapter@D@__crt_stdio_output@@@__crt_stdio_output@@IEAA_NAEA_J@Z 00000001800585c0 f i libucrtd:output.obj
 0001:000575f0       ??$extract_argument_from_va_list@I_J@?$standard_base@_WV?$stream_output_adapter@_W@__crt_stdio_output@@@__crt_stdio_output@@IEAA_NAEA_J@Z 00000001800585f0 f i libucrtd:output.obj
 0001:00057620       ??$extract_argument_from_va_list@I_J@?$standard_base@_WV?$string_output_adapter@_W@__crt_stdio_output@@@__crt_stdio_output@@IEAA_NAEA_J@Z 0000000180058620 f i libucrtd:output.obj
 0001:00057650       ??$extract_argument_from_va_list@PEADPEAD@?$positional_parameter_base@DV?$stream_output_adapter@D@__crt_stdio_output@@@__crt_stdio_output@@IEAA_NAEAPEAD@Z 0000000180058650 f i libucrtd:output.obj
 0001:00057810       ??$extract_argument_from_va_list@PEADPEAD@?$positional_parameter_base@DV?$string_output_adapter@D@__crt_stdio_output@@@__crt_stdio_output@@IEAA_NAEAPEAD@Z 0000000180058810 f i libucrtd:output.obj
 0001:000579d0       ??$extract_argument_from_va_list@PEADPEAD@?$positional_parameter_base@_WV?$stream_output_adapter@_W@__crt_stdio_output@@@__crt_stdio_output@@IEAA_NAEAPEAD@Z 00000001800589d0 f i libucrtd:output.obj
 0001:00057b90       ??$extract_argument_from_va_list@PEADPEAD@?$positional_parameter_base@_WV?$string_output_adapter@_W@__crt_stdio_output@@@__crt_stdio_output@@IEAA_NAEAPEAD@Z 0000000180058b90 f i libucrtd:output.obj
 0001:00057d50       ??$extract_argument_from_va_list@PEADPEAD@?$standard_base@DV?$stream_output_adapter@D@__crt_stdio_output@@@__crt_stdio_output@@IEAA_NAEAPEAD@Z 0000000180058d50 f i libucrtd:output.obj
 0001:00057d80       ??$extract_argument_from_va_list@PEADPEAD@?$standard_base@DV?$string_output_adapter@D@__crt_stdio_output@@@__crt_stdio_output@@IEAA_NAEAPEAD@Z 0000000180058d80 f i libucrtd:output.obj
 0001:00057db0       ??$extract_argument_from_va_list@PEADPEAD@?$standard_base@_WV?$stream_output_adapter@_W@__crt_stdio_output@@@__crt_stdio_output@@IEAA_NAEAPEAD@Z 0000000180058db0 f i libucrtd:output.obj
 0001:00057de0       ??$extract_argument_from_va_list@PEADPEAD@?$standard_base@_WV?$string_output_adapter@_W@__crt_stdio_output@@@__crt_stdio_output@@IEAA_NAEAPEAD@Z 0000000180058de0 f i libucrtd:output.obj
 0001:00057e10       ??$extract_argument_from_va_list@PEAUansi_string@?1??type_case_Z@?$output_processor@DV?$stream_output_adapter@D@__crt_stdio_output@@V?$format_validation_base@DV?$stream_output_adapter@D@__crt_stdio_output@@@2@@__crt_stdio_output@@AEAA_NXZ@PEAU1?1??234@AEAA_NXZ@@?$standard_base@DV?$stream_output_adapter@D@__crt_stdio_output@@@__crt_stdio_output@@IEAA_NAEAPEAUansi_string@?1??type_case_Z@?$output_processor@DV?$stream_output_adapter@D@__crt_stdio_output@@V?$format_validation_base@DV?$stream_output_adapter@D@__crt_stdio_output@@@2@@1@AEAA_NXZ@@Z 0000000180058e10 f i libucrtd:output.obj
 0001:00057e40       ??$extract_argument_from_va_list@PEAUansi_string@?1??type_case_Z@?$output_processor@DV?$stream_output_adapter@D@__crt_stdio_output@@V?$positional_parameter_base@DV?$stream_output_adapter@D@__crt_stdio_output@@@2@@__crt_stdio_output@@AEAA_NXZ@PEAU1?1??234@AEAA_NXZ@@?$positional_parameter_base@DV?$stream_output_adapter@D@__crt_stdio_output@@@__crt_stdio_output@@IEAA_NAEAPEAUansi_string@?1??type_case_Z@?$output_processor@DV?$stream_output_adapter@D@__crt_stdio_output@@V?$positional_parameter_base@DV?$stream_output_adapter@D@__crt_stdio_output@@@2@@1@AEAA_NXZ@@Z 0000000180058e40 f i libucrtd:output.obj
 0001:00058000       ??$extract_argument_from_va_list@PEAUansi_string@?1??type_case_Z@?$output_processor@DV?$stream_output_adapter@D@__crt_stdio_output@@V?$positional_parameter_base@DV?$stream_output_adapter@D@__crt_stdio_output@@@2@@__crt_stdio_output@@AEAA_NXZ@PEAU1?1??234@AEAA_NXZ@@?$standard_base@DV?$stream_output_adapter@D@__crt_stdio_output@@@__crt_stdio_output@@IEAA_NAEAPEAUansi_string@?1??type_case_Z@?$output_processor@DV?$stream_output_adapter@D@__crt_stdio_output@@V?$positional_parameter_base@DV?$stream_output_adapter@D@__crt_stdio_output@@@2@@1@AEAA_NXZ@@Z 0000000180059000 f i libucrtd:output.obj
 0001:00058030       ??$extract_argument_from_va_list@PEAUansi_string@?1??type_case_Z@?$output_processor@DV?$stream_output_adapter@D@__crt_stdio_output@@V?$standard_base@DV?$stream_output_adapter@D@__crt_stdio_output@@@2@@__crt_stdio_output@@AEAA_NXZ@PEAU1?1??234@AEAA_NXZ@@?$standard_base@DV?$stream_output_adapter@D@__crt_stdio_output@@@__crt_stdio_output@@IEAA_NAEAPEAUansi_string@?1??type_case_Z@?$output_processor@DV?$stream_output_adapter@D@__crt_stdio_output@@V?$standard_base@DV?$stream_output_adapter@D@__crt_stdio_output@@@2@@1@AEAA_NXZ@@Z 0000000180059030 f i libucrtd:output.obj
 0001:00058060       ??$extract_argument_from_va_list@PEAUansi_string@?1??type_case_Z@?$output_processor@DV?$string_output_adapter@D@__crt_stdio_output@@V?$format_validation_base@DV?$string_output_adapter@D@__crt_stdio_output@@@2@@__crt_stdio_output@@AEAA_NXZ@PEAU1?1??234@AEAA_NXZ@@?$standard_base@DV?$string_output_adapter@D@__crt_stdio_output@@@__crt_stdio_output@@IEAA_NAEAPEAUansi_string@?1??type_case_Z@?$output_processor@DV?$string_output_adapter@D@__crt_stdio_output@@V?$format_validation_base@DV?$string_output_adapter@D@__crt_stdio_output@@@2@@1@AEAA_NXZ@@Z 0000000180059060 f i libucrtd:output.obj
 0001:00058090       ??$extract_argument_from_va_list@PEAUansi_string@?1??type_case_Z@?$output_processor@DV?$string_output_adapter@D@__crt_stdio_output@@V?$positional_parameter_base@DV?$string_output_adapter@D@__crt_stdio_output@@@2@@__crt_stdio_output@@AEAA_NXZ@PEAU1?1??234@AEAA_NXZ@@?$positional_parameter_base@DV?$string_output_adapter@D@__crt_stdio_output@@@__crt_stdio_output@@IEAA_NAEAPEAUansi_string@?1??type_case_Z@?$output_processor@DV?$string_output_adapter@D@__crt_stdio_output@@V?$positional_parameter_base@DV?$string_output_adapter@D@__crt_stdio_output@@@2@@1@AEAA_NXZ@@Z 0000000180059090 f i libucrtd:output.obj
 0001:00058250       ??$extract_argument_from_va_list@PEAUansi_string@?1??type_case_Z@?$output_processor@DV?$string_output_adapter@D@__crt_stdio_output@@V?$positional_parameter_base@DV?$string_output_adapter@D@__crt_stdio_output@@@2@@__crt_stdio_output@@AEAA_NXZ@PEAU1?1??234@AEAA_NXZ@@?$standard_base@DV?$string_output_adapter@D@__crt_stdio_output@@@__crt_stdio_output@@IEAA_NAEAPEAUansi_string@?1??type_case_Z@?$output_processor@DV?$string_output_adapter@D@__crt_stdio_output@@V?$positional_parameter_base@DV?$string_output_adapter@D@__crt_stdio_output@@@2@@1@AEAA_NXZ@@Z 0000000180059250 f i libucrtd:output.obj
 0001:00058280       ??$extract_argument_from_va_list@PEAUansi_string@?1??type_case_Z@?$output_processor@DV?$string_output_adapter@D@__crt_stdio_output@@V?$standard_base@DV?$string_output_adapter@D@__crt_stdio_output@@@2@@__crt_stdio_output@@AEAA_NXZ@PEAU1?1??234@AEAA_NXZ@@?$standard_base@DV?$string_output_adapter@D@__crt_stdio_output@@@__crt_stdio_output@@IEAA_NAEAPEAUansi_string@?1??type_case_Z@?$output_processor@DV?$string_output_adapter@D@__crt_stdio_output@@V?$standard_base@DV?$string_output_adapter@D@__crt_stdio_output@@@2@@1@AEAA_NXZ@@Z 0000000180059280 f i libucrtd:output.obj
 0001:000582b0       ??$extract_argument_from_va_list@PEAUansi_string@?1??type_case_Z@?$output_processor@_WV?$stream_output_adapter@_W@__crt_stdio_output@@V?$format_validation_base@_WV?$stream_output_adapter@_W@__crt_stdio_output@@@2@@__crt_stdio_output@@AEAA_NXZ@PEAU1?1??234@AEAA_NXZ@@?$standard_base@_WV?$stream_output_adapter@_W@__crt_stdio_output@@@__crt_stdio_output@@IEAA_NAEAPEAUansi_string@?1??type_case_Z@?$output_processor@_WV?$stream_output_adapter@_W@__crt_stdio_output@@V?$format_validation_base@_WV?$stream_output_adapter@_W@__crt_stdio_output@@@2@@1@AEAA_NXZ@@Z 00000001800592b0 f i libucrtd:output.obj
 0001:000582e0       ??$extract_argument_from_va_list@PEAUansi_string@?1??type_case_Z@?$output_processor@_WV?$stream_output_adapter@_W@__crt_stdio_output@@V?$positional_parameter_base@_WV?$stream_output_adapter@_W@__crt_stdio_output@@@2@@__crt_stdio_output@@AEAA_NXZ@PEAU1?1??234@AEAA_NXZ@@?$positional_parameter_base@_WV?$stream_output_adapter@_W@__crt_stdio_output@@@__crt_stdio_output@@IEAA_NAEAPEAUansi_string@?1??type_case_Z@?$output_processor@_WV?$stream_output_adapter@_W@__crt_stdio_output@@V?$positional_parameter_base@_WV?$stream_output_adapter@_W@__crt_stdio_output@@@2@@1@AEAA_NXZ@@Z 00000001800592e0 f i libucrtd:output.obj
 0001:000584a0       ??$extract_argument_from_va_list@PEAUansi_string@?1??type_case_Z@?$output_processor@_WV?$stream_output_adapter@_W@__crt_stdio_output@@V?$positional_parameter_base@_WV?$stream_output_adapter@_W@__crt_stdio_output@@@2@@__crt_stdio_output@@AEAA_NXZ@PEAU1?1??234@AEAA_NXZ@@?$standard_base@_WV?$stream_output_adapter@_W@__crt_stdio_output@@@__crt_stdio_output@@IEAA_NAEAPEAUansi_string@?1??type_case_Z@?$output_processor@_WV?$stream_output_adapter@_W@__crt_stdio_output@@V?$positional_parameter_base@_WV?$stream_output_adapter@_W@__crt_stdio_output@@@2@@1@AEAA_NXZ@@Z 00000001800594a0 f i libucrtd:output.obj
 0001:000584d0       ??$extract_argument_from_va_list@PEAUansi_string@?1??type_case_Z@?$output_processor@_WV?$stream_output_adapter@_W@__crt_stdio_output@@V?$standard_base@_WV?$stream_output_adapter@_W@__crt_stdio_output@@@2@@__crt_stdio_output@@AEAA_NXZ@PEAU1?1??234@AEAA_NXZ@@?$standard_base@_WV?$stream_output_adapter@_W@__crt_stdio_output@@@__crt_stdio_output@@IEAA_NAEAPEAUansi_string@?1??type_case_Z@?$output_processor@_WV?$stream_output_adapter@_W@__crt_stdio_output@@V?$standard_base@_WV?$stream_output_adapter@_W@__crt_stdio_output@@@2@@1@AEAA_NXZ@@Z 00000001800594d0 f i libucrtd:output.obj
 0001:00058500       ??$extract_argument_from_va_list@PEAUansi_string@?1??type_case_Z@?$output_processor@_WV?$string_output_adapter@_W@__crt_stdio_output@@V?$format_validation_base@_WV?$string_output_adapter@_W@__crt_stdio_output@@@2@@__crt_stdio_output@@AEAA_NXZ@PEAU1?1??234@AEAA_NXZ@@?$standard_base@_WV?$string_output_adapter@_W@__crt_stdio_output@@@__crt_stdio_output@@IEAA_NAEAPEAUansi_string@?1??type_case_Z@?$output_processor@_WV?$string_output_adapter@_W@__crt_stdio_output@@V?$format_validation_base@_WV?$string_output_adapter@_W@__crt_stdio_output@@@2@@1@AEAA_NXZ@@Z 0000000180059500 f i libucrtd:output.obj
 0001:00058530       ??$extract_argument_from_va_list@PEAUansi_string@?1??type_case_Z@?$output_processor@_WV?$string_output_adapter@_W@__crt_stdio_output@@V?$positional_parameter_base@_WV?$string_output_adapter@_W@__crt_stdio_output@@@2@@__crt_stdio_output@@AEAA_NXZ@PEAU1?1??234@AEAA_NXZ@@?$positional_parameter_base@_WV?$string_output_adapter@_W@__crt_stdio_output@@@__crt_stdio_output@@IEAA_NAEAPEAUansi_string@?1??type_case_Z@?$output_processor@_WV?$string_output_adapter@_W@__crt_stdio_output@@V?$positional_parameter_base@_WV?$string_output_adapter@_W@__crt_stdio_output@@@2@@1@AEAA_NXZ@@Z 0000000180059530 f i libucrtd:output.obj
 0001:000586f0       ??$extract_argument_from_va_list@PEAUansi_string@?1??type_case_Z@?$output_processor@_WV?$string_output_adapter@_W@__crt_stdio_output@@V?$positional_parameter_base@_WV?$string_output_adapter@_W@__crt_stdio_output@@@2@@__crt_stdio_output@@AEAA_NXZ@PEAU1?1??234@AEAA_NXZ@@?$standard_base@_WV?$string_output_adapter@_W@__crt_stdio_output@@@__crt_stdio_output@@IEAA_NAEAPEAUansi_string@?1??type_case_Z@?$output_processor@_WV?$string_output_adapter@_W@__crt_stdio_output@@V?$positional_parameter_base@_WV?$string_output_adapter@_W@__crt_stdio_output@@@2@@1@AEAA_NXZ@@Z 00000001800596f0 f i libucrtd:output.obj
 0001:00058720       ??$extract_argument_from_va_list@PEAUansi_string@?1??type_case_Z@?$output_processor@_WV?$string_output_adapter@_W@__crt_stdio_output@@V?$standard_base@_WV?$string_output_adapter@_W@__crt_stdio_output@@@2@@__crt_stdio_output@@AEAA_NXZ@PEAU1?1??234@AEAA_NXZ@@?$standard_base@_WV?$string_output_adapter@_W@__crt_stdio_output@@@__crt_stdio_output@@IEAA_NAEAPEAUansi_string@?1??type_case_Z@?$output_processor@_WV?$string_output_adapter@_W@__crt_stdio_output@@V?$standard_base@_WV?$string_output_adapter@_W@__crt_stdio_output@@@2@@1@AEAA_NXZ@@Z 0000000180059720 f i libucrtd:output.obj
 0001:00058750       ??$extract_argument_from_va_list@PEAXPEAX@?$positional_parameter_base@DV?$stream_output_adapter@D@__crt_stdio_output@@@__crt_stdio_output@@IEAA_NAEAPEAX@Z 0000000180059750 f i libucrtd:output.obj
 0001:00058910       ??$extract_argument_from_va_list@PEAXPEAX@?$positional_parameter_base@DV?$string_output_adapter@D@__crt_stdio_output@@@__crt_stdio_output@@IEAA_NAEAPEAX@Z 0000000180059910 f i libucrtd:output.obj
 0001:00058ad0       ??$extract_argument_from_va_list@PEAXPEAX@?$positional_parameter_base@_WV?$stream_output_adapter@_W@__crt_stdio_output@@@__crt_stdio_output@@IEAA_NAEAPEAX@Z 0000000180059ad0 f i libucrtd:output.obj
 0001:00058c90       ??$extract_argument_from_va_list@PEAXPEAX@?$positional_parameter_base@_WV?$string_output_adapter@_W@__crt_stdio_output@@@__crt_stdio_output@@IEAA_NAEAPEAX@Z 0000000180059c90 f i libucrtd:output.obj
 0001:00058e50       ??$extract_argument_from_va_list@PEAXPEAX@?$standard_base@DV?$stream_output_adapter@D@__crt_stdio_output@@@__crt_stdio_output@@IEAA_NAEAPEAX@Z 0000000180059e50 f i libucrtd:output.obj
 0001:00058e80       ??$extract_argument_from_va_list@PEAXPEAX@?$standard_base@DV?$string_output_adapter@D@__crt_stdio_output@@@__crt_stdio_output@@IEAA_NAEAPEAX@Z 0000000180059e80 f i libucrtd:output.obj
 0001:00058eb0       ??$extract_argument_from_va_list@PEAXPEAX@?$standard_base@_WV?$stream_output_adapter@_W@__crt_stdio_output@@@__crt_stdio_output@@IEAA_NAEAPEAX@Z 0000000180059eb0 f i libucrtd:output.obj
 0001:00058ee0       ??$extract_argument_from_va_list@PEAXPEAX@?$standard_base@_WV?$string_output_adapter@_W@__crt_stdio_output@@@__crt_stdio_output@@IEAA_NAEAPEAX@Z 0000000180059ee0 f i libucrtd:output.obj
 0001:00058f10       ??$extract_argument_from_va_list@U_CRT_DOUBLE@@U1@@?$positional_parameter_base@DV?$stream_output_adapter@D@__crt_stdio_output@@@__crt_stdio_output@@IEAA_NAEAU_CRT_DOUBLE@@@Z 0000000180059f10 f i libucrtd:output.obj
 0001:00059130       ??$extract_argument_from_va_list@U_CRT_DOUBLE@@U1@@?$positional_parameter_base@DV?$string_output_adapter@D@__crt_stdio_output@@@__crt_stdio_output@@IEAA_NAEAU_CRT_DOUBLE@@@Z 000000018005a130 f i libucrtd:output.obj
 0001:00059350       ??$extract_argument_from_va_list@U_CRT_DOUBLE@@U1@@?$positional_parameter_base@_WV?$stream_output_adapter@_W@__crt_stdio_output@@@__crt_stdio_output@@IEAA_NAEAU_CRT_DOUBLE@@@Z 000000018005a350 f i libucrtd:output.obj
 0001:00059570       ??$extract_argument_from_va_list@U_CRT_DOUBLE@@U1@@?$positional_parameter_base@_WV?$string_output_adapter@_W@__crt_stdio_output@@@__crt_stdio_output@@IEAA_NAEAU_CRT_DOUBLE@@@Z 000000018005a570 f i libucrtd:output.obj
 0001:00059790       ??$extract_argument_from_va_list@U_CRT_DOUBLE@@U1@@?$standard_base@DV?$stream_output_adapter@D@__crt_stdio_output@@@__crt_stdio_output@@IEAA_NAEAU_CRT_DOUBLE@@@Z 000000018005a790 f i libucrtd:output.obj
 0001:000597e0       ??$extract_argument_from_va_list@U_CRT_DOUBLE@@U1@@?$standard_base@DV?$string_output_adapter@D@__crt_stdio_output@@@__crt_stdio_output@@IEAA_NAEAU_CRT_DOUBLE@@@Z 000000018005a7e0 f i libucrtd:output.obj
 0001:00059830       ??$extract_argument_from_va_list@U_CRT_DOUBLE@@U1@@?$standard_base@_WV?$stream_output_adapter@_W@__crt_stdio_output@@@__crt_stdio_output@@IEAA_NAEAU_CRT_DOUBLE@@@Z 000000018005a830 f i libucrtd:output.obj
 0001:00059880       ??$extract_argument_from_va_list@U_CRT_DOUBLE@@U1@@?$standard_base@_WV?$string_output_adapter@_W@__crt_stdio_output@@@__crt_stdio_output@@IEAA_NAEAU_CRT_DOUBLE@@@Z 000000018005a880 f i libucrtd:output.obj
 0001:000598d0       ??$extract_argument_from_va_list@_J_J@?$positional_parameter_base@DV?$stream_output_adapter@D@__crt_stdio_output@@@__crt_stdio_output@@IEAA_NAEA_J@Z 000000018005a8d0 f i libucrtd:output.obj
 0001:00059a90       ??$extract_argument_from_va_list@_J_J@?$positional_parameter_base@DV?$string_output_adapter@D@__crt_stdio_output@@@__crt_stdio_output@@IEAA_NAEA_J@Z 000000018005aa90 f i libucrtd:output.obj
 0001:00059c50       ??$extract_argument_from_va_list@_J_J@?$positional_parameter_base@_WV?$stream_output_adapter@_W@__crt_stdio_output@@@__crt_stdio_output@@IEAA_NAEA_J@Z 000000018005ac50 f i libucrtd:output.obj
 0001:00059e10       ??$extract_argument_from_va_list@_J_J@?$positional_parameter_base@_WV?$string_output_adapter@_W@__crt_stdio_output@@@__crt_stdio_output@@IEAA_NAEA_J@Z 000000018005ae10 f i libucrtd:output.obj
 0001:00059fd0       ??$extract_argument_from_va_list@_J_J@?$standard_base@DV?$stream_output_adapter@D@__crt_stdio_output@@@__crt_stdio_output@@IEAA_NAEA_J@Z 000000018005afd0 f i libucrtd:output.obj
 0001:0005a000       ??$extract_argument_from_va_list@_J_J@?$standard_base@DV?$string_output_adapter@D@__crt_stdio_output@@@__crt_stdio_output@@IEAA_NAEA_J@Z 000000018005b000 f i libucrtd:output.obj
 0001:0005a030       ??$extract_argument_from_va_list@_J_J@?$standard_base@_WV?$stream_output_adapter@_W@__crt_stdio_output@@@__crt_stdio_output@@IEAA_NAEA_J@Z 000000018005b030 f i libucrtd:output.obj
 0001:0005a060       ??$extract_argument_from_va_list@_J_J@?$standard_base@_WV?$string_output_adapter@_W@__crt_stdio_output@@@__crt_stdio_output@@IEAA_NAEA_J@Z 000000018005b060 f i libucrtd:output.obj
 0001:0005a090       ??$extract_argument_from_va_list@_K_J@?$positional_parameter_base@DV?$stream_output_adapter@D@__crt_stdio_output@@@__crt_stdio_output@@IEAA_NAEA_J@Z 000000018005b090 f i libucrtd:output.obj
 0001:0005a250       ??$extract_argument_from_va_list@_K_J@?$positional_parameter_base@DV?$string_output_adapter@D@__crt_stdio_output@@@__crt_stdio_output@@IEAA_NAEA_J@Z 000000018005b250 f i libucrtd:output.obj
 0001:0005a410       ??$extract_argument_from_va_list@_K_J@?$positional_parameter_base@_WV?$stream_output_adapter@_W@__crt_stdio_output@@@__crt_stdio_output@@IEAA_NAEA_J@Z 000000018005b410 f i libucrtd:output.obj
 0001:0005a5d0       ??$extract_argument_from_va_list@_K_J@?$positional_parameter_base@_WV?$string_output_adapter@_W@__crt_stdio_output@@@__crt_stdio_output@@IEAA_NAEA_J@Z 000000018005b5d0 f i libucrtd:output.obj
 0001:0005a790       ??$extract_argument_from_va_list@_K_J@?$standard_base@DV?$stream_output_adapter@D@__crt_stdio_output@@@__crt_stdio_output@@IEAA_NAEA_J@Z 000000018005b790 f i libucrtd:output.obj
 0001:0005a7c0       ??$extract_argument_from_va_list@_K_J@?$standard_base@DV?$string_output_adapter@D@__crt_stdio_output@@@__crt_stdio_output@@IEAA_NAEA_J@Z 000000018005b7c0 f i libucrtd:output.obj
 0001:0005a7f0       ??$extract_argument_from_va_list@_K_J@?$standard_base@_WV?$stream_output_adapter@_W@__crt_stdio_output@@@__crt_stdio_output@@IEAA_NAEA_J@Z 000000018005b7f0 f i libucrtd:output.obj
 0001:0005a820       ??$extract_argument_from_va_list@_K_J@?$standard_base@_WV?$string_output_adapter@_W@__crt_stdio_output@@@__crt_stdio_output@@IEAA_NAEA_J@Z 000000018005b820 f i libucrtd:output.obj
 0001:0005a850       ??$extract_argument_from_va_list@_W_W@?$positional_parameter_base@DV?$stream_output_adapter@D@__crt_stdio_output@@@__crt_stdio_output@@IEAA_NAEA_W@Z 000000018005b850 f i libucrtd:output.obj
 0001:0005aa10       ??$extract_argument_from_va_list@_W_W@?$positional_parameter_base@DV?$string_output_adapter@D@__crt_stdio_output@@@__crt_stdio_output@@IEAA_NAEA_W@Z 000000018005ba10 f i libucrtd:output.obj
 0001:0005abd0       ??$extract_argument_from_va_list@_W_W@?$positional_parameter_base@_WV?$stream_output_adapter@_W@__crt_stdio_output@@@__crt_stdio_output@@IEAA_NAEA_W@Z 000000018005bbd0 f i libucrtd:output.obj
 0001:0005ad90       ??$extract_argument_from_va_list@_W_W@?$positional_parameter_base@_WV?$string_output_adapter@_W@__crt_stdio_output@@@__crt_stdio_output@@IEAA_NAEA_W@Z 000000018005bd90 f i libucrtd:output.obj
 0001:0005af50       ??$extract_argument_from_va_list@_W_W@?$standard_base@DV?$stream_output_adapter@D@__crt_stdio_output@@@__crt_stdio_output@@IEAA_NAEA_W@Z 000000018005bf50 f i libucrtd:output.obj
 0001:0005af80       ??$extract_argument_from_va_list@_W_W@?$standard_base@DV?$string_output_adapter@D@__crt_stdio_output@@@__crt_stdio_output@@IEAA_NAEA_W@Z 000000018005bf80 f i libucrtd:output.obj
 0001:0005afb0       ??$extract_argument_from_va_list@_W_W@?$standard_base@_WV?$stream_output_adapter@_W@__crt_stdio_output@@@__crt_stdio_output@@IEAA_NAEA_W@Z 000000018005bfb0 f i libucrtd:output.obj
 0001:0005afe0       ??$extract_argument_from_va_list@_W_W@?$standard_base@_WV?$string_output_adapter@_W@__crt_stdio_output@@@__crt_stdio_output@@IEAA_NAEA_W@Z 000000018005bfe0 f i libucrtd:output.obj
 0001:0005b010       ??$get_parameter_type@D@?$positional_parameter_base@DV?$stream_output_adapter@D@__crt_stdio_output@@@__crt_stdio_output@@CA?AW4parameter_type@01@PEAD@Z 000000018005c010 f i libucrtd:output.obj
 0001:0005b020       ??$get_parameter_type@D@?$positional_parameter_base@DV?$string_output_adapter@D@__crt_stdio_output@@@__crt_stdio_output@@CA?AW4parameter_type@01@PEAD@Z 000000018005c020 f i libucrtd:output.obj
 0001:0005b030       ??$get_parameter_type@D@?$positional_parameter_base@_WV?$stream_output_adapter@_W@__crt_stdio_output@@@__crt_stdio_output@@CA?AW4parameter_type@01@PEAD@Z 000000018005c030 f i libucrtd:output.obj
 0001:0005b040       ??$get_parameter_type@D@?$positional_parameter_base@_WV?$string_output_adapter@_W@__crt_stdio_output@@@__crt_stdio_output@@CA?AW4parameter_type@01@PEAD@Z 000000018005c040 f i libucrtd:output.obj
 0001:0005b050       ??$get_parameter_type@Uansi_string@?1??type_case_Z@?$output_processor@DV?$stream_output_adapter@D@__crt_stdio_output@@V?$positional_parameter_base@DV?$stream_output_adapter@D@__crt_stdio_output@@@2@@__crt_stdio_output@@AEAA_NXZ@@?$positional_parameter_base@DV?$stream_output_adapter@D@__crt_stdio_output@@@__crt_stdio_output@@CA?AW4parameter_type@01@PEAUansi_string@?1??type_case_Z@?$output_processor@DV?$stream_output_adapter@D@__crt_stdio_output@@V?$positional_parameter_base@DV?$stream_output_adapter@D@__crt_stdio_output@@@2@@1@AEAA_NXZ@@Z 000000018005c050 f i libucrtd:output.obj
 0001:0005b060       ??$get_parameter_type@Uansi_string@?1??type_case_Z@?$output_processor@DV?$string_output_adapter@D@__crt_stdio_output@@V?$positional_parameter_base@DV?$string_output_adapter@D@__crt_stdio_output@@@2@@__crt_stdio_output@@AEAA_NXZ@@?$positional_parameter_base@DV?$string_output_adapter@D@__crt_stdio_output@@@__crt_stdio_output@@CA?AW4parameter_type@01@PEAUansi_string@?1??type_case_Z@?$output_processor@DV?$string_output_adapter@D@__crt_stdio_output@@V?$positional_parameter_base@DV?$string_output_adapter@D@__crt_stdio_output@@@2@@1@AEAA_NXZ@@Z 000000018005c060 f i libucrtd:output.obj
 0001:0005b070       ??$get_parameter_type@Uansi_string@?1??type_case_Z@?$output_processor@_WV?$stream_output_adapter@_W@__crt_stdio_output@@V?$positional_parameter_base@_WV?$stream_output_adapter@_W@__crt_stdio_output@@@2@@__crt_stdio_output@@AEAA_NXZ@@?$positional_parameter_base@_WV?$stream_output_adapter@_W@__crt_stdio_output@@@__crt_stdio_output@@CA?AW4parameter_type@01@PEAUansi_string@?1??type_case_Z@?$output_processor@_WV?$stream_output_adapter@_W@__crt_stdio_output@@V?$positional_parameter_base@_WV?$stream_output_adapter@_W@__crt_stdio_output@@@2@@1@AEAA_NXZ@@Z 000000018005c070 f i libucrtd:output.obj
 0001:0005b080       ??$get_parameter_type@Uansi_string@?1??type_case_Z@?$output_processor@_WV?$string_output_adapter@_W@__crt_stdio_output@@V?$positional_parameter_base@_WV?$string_output_adapter@_W@__crt_stdio_output@@@2@@__crt_stdio_output@@AEAA_NXZ@@?$positional_parameter_base@_WV?$string_output_adapter@_W@__crt_stdio_output@@@__crt_stdio_output@@CA?AW4parameter_type@01@PEAUansi_string@?1??type_case_Z@?$output_processor@_WV?$string_output_adapter@_W@__crt_stdio_output@@V?$positional_parameter_base@_WV?$string_output_adapter@_W@__crt_stdio_output@@@2@@1@AEAA_NXZ@@Z 000000018005c080 f i libucrtd:output.obj
 0001:0005b090       ??$get_parameter_type@X@?$positional_parameter_base@DV?$stream_output_adapter@D@__crt_stdio_output@@@__crt_stdio_output@@CA?AW4parameter_type@01@PEAX@Z 000000018005c090 f i libucrtd:output.obj
 0001:0005b0a0       ??$get_parameter_type@X@?$positional_parameter_base@DV?$string_output_adapter@D@__crt_stdio_output@@@__crt_stdio_output@@CA?AW4parameter_type@01@PEAX@Z 000000018005c0a0 f i libucrtd:output.obj
 0001:0005b0b0       ??$get_parameter_type@X@?$positional_parameter_base@_WV?$stream_output_adapter@_W@__crt_stdio_output@@@__crt_stdio_output@@CA?AW4parameter_type@01@PEAX@Z 000000018005c0b0 f i libucrtd:output.obj
 0001:0005b0c0       ??$get_parameter_type@X@?$positional_parameter_base@_WV?$string_output_adapter@_W@__crt_stdio_output@@@__crt_stdio_output@@CA?AW4parameter_type@01@PEAX@Z 000000018005c0c0 f i libucrtd:output.obj
 0001:0005b0d0       ??$is_character_specifier@D@?$positional_parameter_base@DV?$stream_output_adapter@D@__crt_stdio_output@@@__crt_stdio_output@@CA_ND@Z 000000018005c0d0 f i libucrtd:output.obj
 0001:0005b110       ??$is_character_specifier@D@?$positional_parameter_base@DV?$string_output_adapter@D@__crt_stdio_output@@@__crt_stdio_output@@CA_ND@Z 000000018005c110 f i libucrtd:output.obj
 0001:0005b150       ??$is_character_specifier@_W@?$positional_parameter_base@_WV?$stream_output_adapter@_W@__crt_stdio_output@@@__crt_stdio_output@@CA_N_W@Z 000000018005c150 f i libucrtd:output.obj
 0001:0005b190       ??$is_character_specifier@_W@?$positional_parameter_base@_WV?$string_output_adapter@_W@__crt_stdio_output@@@__crt_stdio_output@@CA_N_W@Z 000000018005c190 f i libucrtd:output.obj
 0001:0005b1d0       ??$is_integral_specifier@D@?$positional_parameter_base@DV?$stream_output_adapter@D@__crt_stdio_output@@@__crt_stdio_output@@CA_ND@Z 000000018005c1d0 f i libucrtd:output.obj
 0001:0005b240       ??$is_integral_specifier@D@?$positional_parameter_base@DV?$string_output_adapter@D@__crt_stdio_output@@@__crt_stdio_output@@CA_ND@Z 000000018005c240 f i libucrtd:output.obj
 0001:0005b2b0       ??$is_integral_specifier@_W@?$positional_parameter_base@_WV?$stream_output_adapter@_W@__crt_stdio_output@@@__crt_stdio_output@@CA_N_W@Z 000000018005c2b0 f i libucrtd:output.obj
 0001:0005b320       ??$is_integral_specifier@_W@?$positional_parameter_base@_WV?$string_output_adapter@_W@__crt_stdio_output@@@__crt_stdio_output@@CA_N_W@Z 000000018005c320 f i libucrtd:output.obj
 0001:0005b390       ??$is_overflow_condition@K@__crt_strtox@@YA_NIK@Z 000000018005c390 f i libucrtd:output.obj
 0001:0005b400       ??$is_pointer_specifier@D@?$positional_parameter_base@DV?$stream_output_adapter@D@__crt_stdio_output@@@__crt_stdio_output@@CA_ND@Z 000000018005c400 f i libucrtd:output.obj
 0001:0005b430       ??$is_pointer_specifier@D@?$positional_parameter_base@DV?$string_output_adapter@D@__crt_stdio_output@@@__crt_stdio_output@@CA_ND@Z 000000018005c430 f i libucrtd:output.obj
 0001:0005b460       ??$is_pointer_specifier@_W@?$positional_parameter_base@_WV?$stream_output_adapter@_W@__crt_stdio_output@@@__crt_stdio_output@@CA_N_W@Z 000000018005c460 f i libucrtd:output.obj
 0001:0005b490       ??$is_pointer_specifier@_W@?$positional_parameter_base@_WV?$string_output_adapter@_W@__crt_stdio_output@@@__crt_stdio_output@@CA_N_W@Z 000000018005c490 f i libucrtd:output.obj
 0001:0005b4c0       ??$is_string_specifier@D@?$positional_parameter_base@DV?$stream_output_adapter@D@__crt_stdio_output@@@__crt_stdio_output@@CA_ND@Z 000000018005c4c0 f i libucrtd:output.obj
 0001:0005b500       ??$is_string_specifier@D@?$positional_parameter_base@DV?$string_output_adapter@D@__crt_stdio_output@@@__crt_stdio_output@@CA_ND@Z 000000018005c500 f i libucrtd:output.obj
 0001:0005b540       ??$is_string_specifier@_W@?$positional_parameter_base@_WV?$stream_output_adapter@_W@__crt_stdio_output@@@__crt_stdio_output@@CA_N_W@Z 000000018005c540 f i libucrtd:output.obj
 0001:0005b580       ??$is_string_specifier@_W@?$positional_parameter_base@_WV?$string_output_adapter@_W@__crt_stdio_output@@@__crt_stdio_output@@CA_N_W@Z 000000018005c580 f i libucrtd:output.obj
 0001:0005b5c0       ??$is_wide_character_specifier@D@__crt_stdio_output@@YA_N_KDW4length_modifier@0@@Z 000000018005c5c0 f i libucrtd:output.obj
 0001:0005b660       ??$is_wide_character_specifier@_W@__crt_stdio_output@@YA_N_K_WW4length_modifier@0@@Z 000000018005c660 f i libucrtd:output.obj
 0001:0005b730       ??$make_c_string_character_source@DPEAPEAD@__crt_strtox@@YA?AV?$c_string_character_source@D@0@QEBDQEAPEAD@Z 000000018005c730 f i libucrtd:output.obj
 0001:0005b770       ??$make_c_string_character_source@_WPEAPEA_W@__crt_strtox@@YA?AV?$c_string_character_source@_W@0@QEB_WQEAPEA_W@Z 000000018005c770 f i libucrtd:output.obj
 0001:0005b7b0       ??$parse_integer@KV?$c_string_character_source@D@__crt_strtox@@$0A@@__crt_strtox@@YAKAEAV__crt_cached_ptd_host@@V?$c_string_character_source@D@0@H_N@Z 000000018005c7b0 f i libucrtd:output.obj
 0001:0005bc30       ??$parse_integer@KV?$c_string_character_source@_W@__crt_strtox@@$0A@@__crt_strtox@@YAKAEAV__crt_cached_ptd_host@@V?$c_string_character_source@_W@0@H_N@Z 000000018005cc30 f i libucrtd:output.obj
 0001:0005c0b0       ??$peek_va_arg@C@__crt_stdio_output@@YACPEAD@Z 000000018005d0b0 f i libucrtd:output.obj
 0001:0005c110       ??$peek_va_arg@E@__crt_stdio_output@@YAEPEAD@Z 000000018005d110 f i libucrtd:output.obj
 0001:0005c170       ??$peek_va_arg@F@__crt_stdio_output@@YAFPEAD@Z 000000018005d170 f i libucrtd:output.obj
 0001:0005c1d0       ??$peek_va_arg@G@__crt_stdio_output@@YAGPEAD@Z 000000018005d1d0 f i libucrtd:output.obj
 0001:0005c230       ??$peek_va_arg@H@__crt_stdio_output@@YAHPEAD@Z 000000018005d230 f i libucrtd:output.obj
 0001:0005c280       ??$peek_va_arg@I@__crt_stdio_output@@YAIPEAD@Z 000000018005d280 f i libucrtd:output.obj
 0001:0005c2d0       ??$peek_va_arg@PEAD@__crt_stdio_output@@YAPEADPEAD@Z 000000018005d2d0 f i libucrtd:output.obj
 0001:0005c330       ??$peek_va_arg@PEAUansi_string@?1??type_case_Z@?$output_processor@DV?$stream_output_adapter@D@__crt_stdio_output@@V?$positional_parameter_base@DV?$stream_output_adapter@D@__crt_stdio_output@@@2@@__crt_stdio_output@@AEAA_NXZ@@__crt_stdio_output@@YAPEAUansi_string@?1??type_case_Z@?$output_processor@DV?$stream_output_adapter@D@__crt_stdio_output@@V?$positional_parameter_base@DV?$stream_output_adapter@D@__crt_stdio_output@@@2@@0@AEAA_NXZ@PEAD@Z 000000018005d330 f i libucrtd:output.obj
 0001:0005c390       ??$peek_va_arg@PEAUansi_string@?1??type_case_Z@?$output_processor@DV?$string_output_adapter@D@__crt_stdio_output@@V?$positional_parameter_base@DV?$string_output_adapter@D@__crt_stdio_output@@@2@@__crt_stdio_output@@AEAA_NXZ@@__crt_stdio_output@@YAPEAUansi_string@?1??type_case_Z@?$output_processor@DV?$string_output_adapter@D@__crt_stdio_output@@V?$positional_parameter_base@DV?$string_output_adapter@D@__crt_stdio_output@@@2@@0@AEAA_NXZ@PEAD@Z 000000018005d390 f i libucrtd:output.obj
 0001:0005c3f0       ??$peek_va_arg@PEAUansi_string@?1??type_case_Z@?$output_processor@_WV?$stream_output_adapter@_W@__crt_stdio_output@@V?$positional_parameter_base@_WV?$stream_output_adapter@_W@__crt_stdio_output@@@2@@__crt_stdio_output@@AEAA_NXZ@@__crt_stdio_output@@YAPEAUansi_string@?1??type_case_Z@?$output_processor@_WV?$stream_output_adapter@_W@__crt_stdio_output@@V?$positional_parameter_base@_WV?$stream_output_adapter@_W@__crt_stdio_output@@@2@@0@AEAA_NXZ@PEAD@Z 000000018005d3f0 f i libucrtd:output.obj
 0001:0005c450       ??$peek_va_arg@PEAUansi_string@?1??type_case_Z@?$output_processor@_WV?$string_output_adapter@_W@__crt_stdio_output@@V?$positional_parameter_base@_WV?$string_output_adapter@_W@__crt_stdio_output@@@2@@__crt_stdio_output@@AEAA_NXZ@@__crt_stdio_output@@YAPEAUansi_string@?1??type_case_Z@?$output_processor@_WV?$string_output_adapter@_W@__crt_stdio_output@@V?$positional_parameter_base@_WV?$string_output_adapter@_W@__crt_stdio_output@@@2@@0@AEAA_NXZ@PEAD@Z 000000018005d450 f i libucrtd:output.obj
 0001:0005c4b0       ??$peek_va_arg@PEAX@__crt_stdio_output@@YAPEAXPEAD@Z 000000018005d4b0 f i libucrtd:output.obj
 0001:0005c510       ??$peek_va_arg@U_CRT_DOUBLE@@@__crt_stdio_output@@YA?AU_CRT_DOUBLE@@PEAD@Z 000000018005d510 f i libucrtd:output.obj
 0001:0005c570       ??$peek_va_arg@_J@__crt_stdio_output@@YA_JPEAD@Z 000000018005d570 f i libucrtd:output.obj
 0001:0005c5d0       ??$peek_va_arg@_K@__crt_stdio_output@@YA_KPEAD@Z 000000018005d5d0 f i libucrtd:output.obj
 0001:0005c630       ??$peek_va_arg@_W@__crt_stdio_output@@YA_WPEAD@Z 000000018005d630 f i libucrtd:output.obj
 0001:0005c690       ??$puttc_nolock_internal@AEBDPEAU_iobuf@@AEAV__crt_cached_ptd_host@@@?$__crt_char_traits@D@@SAHAEBD$$QEAPEAU_iobuf@@AEAV__crt_cached_ptd_host@@@Z 000000018005d690 f i libucrtd:output.obj
 0001:0005c6d0       ??$puttc_nolock_internal@AEB_WPEAU_iobuf@@AEAV__crt_cached_ptd_host@@@?$__crt_char_traits@_W@@SAGAEB_W$$QEAPEAU_iobuf@@AEAV__crt_cached_ptd_host@@@Z 000000018005d6d0 f i libucrtd:output.obj
 0001:0005c710       ??$read_va_arg@C@__crt_stdio_output@@YACAEAPEAD@Z 000000018005d710 f i libucrtd:output.obj
 0001:0005c780       ??$read_va_arg@E@__crt_stdio_output@@YAEAEAPEAD@Z 000000018005d780 f i libucrtd:output.obj
 0001:0005c7f0       ??$read_va_arg@F@__crt_stdio_output@@YAFAEAPEAD@Z 000000018005d7f0 f i libucrtd:output.obj
 0001:0005c860       ??$read_va_arg@G@__crt_stdio_output@@YAGAEAPEAD@Z 000000018005d860 f i libucrtd:output.obj
 0001:0005c8d0       ??$read_va_arg@H@__crt_stdio_output@@YAHAEAPEAD@Z 000000018005d8d0 f i libucrtd:output.obj
 0001:0005c930       ??$read_va_arg@I@__crt_stdio_output@@YAIAEAPEAD@Z 000000018005d930 f i libucrtd:output.obj
 0001:0005c990       ??$read_va_arg@PEAD@__crt_stdio_output@@YAPEADAEAPEAD@Z 000000018005d990 f i libucrtd:output.obj
 0001:0005ca00       ??$read_va_arg@PEAUansi_string@?1??type_case_Z@?$output_processor@DV?$stream_output_adapter@D@__crt_stdio_output@@V?$format_validation_base@DV?$stream_output_adapter@D@__crt_stdio_output@@@2@@__crt_stdio_output@@AEAA_NXZ@@__crt_stdio_output@@YAPEAUansi_string@?1??type_case_Z@?$output_processor@DV?$stream_output_adapter@D@__crt_stdio_output@@V?$format_validation_base@DV?$stream_output_adapter@D@__crt_stdio_output@@@2@@0@AEAA_NXZ@AEAPEAD@Z 000000018005da00 f i libucrtd:output.obj
 0001:0005ca70       ??$read_va_arg@PEAUansi_string@?1??type_case_Z@?$output_processor@DV?$stream_output_adapter@D@__crt_stdio_output@@V?$positional_parameter_base@DV?$stream_output_adapter@D@__crt_stdio_output@@@2@@__crt_stdio_output@@AEAA_NXZ@@__crt_stdio_output@@YAPEAUansi_string@?1??type_case_Z@?$output_processor@DV?$stream_output_adapter@D@__crt_stdio_output@@V?$positional_parameter_base@DV?$stream_output_adapter@D@__crt_stdio_output@@@2@@0@AEAA_NXZ@AEAPEAD@Z 000000018005da70 f i libucrtd:output.obj
 0001:0005cae0       ??$read_va_arg@PEAUansi_string@?1??type_case_Z@?$output_processor@DV?$stream_output_adapter@D@__crt_stdio_output@@V?$standard_base@DV?$stream_output_adapter@D@__crt_stdio_output@@@2@@__crt_stdio_output@@AEAA_NXZ@@__crt_stdio_output@@YAPEAUansi_string@?1??type_case_Z@?$output_processor@DV?$stream_output_adapter@D@__crt_stdio_output@@V?$standard_base@DV?$stream_output_adapter@D@__crt_stdio_output@@@2@@0@AEAA_NXZ@AEAPEAD@Z 000000018005dae0 f i libucrtd:output.obj
 0001:0005cb50       ??$read_va_arg@PEAUansi_string@?1??type_case_Z@?$output_processor@DV?$string_output_adapter@D@__crt_stdio_output@@V?$format_validation_base@DV?$string_output_adapter@D@__crt_stdio_output@@@2@@__crt_stdio_output@@AEAA_NXZ@@__crt_stdio_output@@YAPEAUansi_string@?1??type_case_Z@?$output_processor@DV?$string_output_adapter@D@__crt_stdio_output@@V?$format_validation_base@DV?$string_output_adapter@D@__crt_stdio_output@@@2@@0@AEAA_NXZ@AEAPEAD@Z 000000018005db50 f i libucrtd:output.obj
 0001:0005cbc0       ??$read_va_arg@PEAUansi_string@?1??type_case_Z@?$output_processor@DV?$string_output_adapter@D@__crt_stdio_output@@V?$positional_parameter_base@DV?$string_output_adapter@D@__crt_stdio_output@@@2@@__crt_stdio_output@@AEAA_NXZ@@__crt_stdio_output@@YAPEAUansi_string@?1??type_case_Z@?$output_processor@DV?$string_output_adapter@D@__crt_stdio_output@@V?$positional_parameter_base@DV?$string_output_adapter@D@__crt_stdio_output@@@2@@0@AEAA_NXZ@AEAPEAD@Z 000000018005dbc0 f i libucrtd:output.obj
 0001:0005cc30       ??$read_va_arg@PEAUansi_string@?1??type_case_Z@?$output_processor@DV?$string_output_adapter@D@__crt_stdio_output@@V?$standard_base@DV?$string_output_adapter@D@__crt_stdio_output@@@2@@__crt_stdio_output@@AEAA_NXZ@@__crt_stdio_output@@YAPEAUansi_string@?1??type_case_Z@?$output_processor@DV?$string_output_adapter@D@__crt_stdio_output@@V?$standard_base@DV?$string_output_adapter@D@__crt_stdio_output@@@2@@0@AEAA_NXZ@AEAPEAD@Z 000000018005dc30 f i libucrtd:output.obj
 0001:0005cca0       ??$read_va_arg@PEAUansi_string@?1??type_case_Z@?$output_processor@_WV?$stream_output_adapter@_W@__crt_stdio_output@@V?$format_validation_base@_WV?$stream_output_adapter@_W@__crt_stdio_output@@@2@@__crt_stdio_output@@AEAA_NXZ@@__crt_stdio_output@@YAPEAUansi_string@?1??type_case_Z@?$output_processor@_WV?$stream_output_adapter@_W@__crt_stdio_output@@V?$format_validation_base@_WV?$stream_output_adapter@_W@__crt_stdio_output@@@2@@0@AEAA_NXZ@AEAPEAD@Z 000000018005dca0 f i libucrtd:output.obj
 0001:0005cd10       ??$read_va_arg@PEAUansi_string@?1??type_case_Z@?$output_processor@_WV?$stream_output_adapter@_W@__crt_stdio_output@@V?$positional_parameter_base@_WV?$stream_output_adapter@_W@__crt_stdio_output@@@2@@__crt_stdio_output@@AEAA_NXZ@@__crt_stdio_output@@YAPEAUansi_string@?1??type_case_Z@?$output_processor@_WV?$stream_output_adapter@_W@__crt_stdio_output@@V?$positional_parameter_base@_WV?$stream_output_adapter@_W@__crt_stdio_output@@@2@@0@AEAA_NXZ@AEAPEAD@Z 000000018005dd10 f i libucrtd:output.obj
 0001:0005cd80       ??$read_va_arg@PEAUansi_string@?1??type_case_Z@?$output_processor@_WV?$stream_output_adapter@_W@__crt_stdio_output@@V?$standard_base@_WV?$stream_output_adapter@_W@__crt_stdio_output@@@2@@__crt_stdio_output@@AEAA_NXZ@@__crt_stdio_output@@YAPEAUansi_string@?1??type_case_Z@?$output_processor@_WV?$stream_output_adapter@_W@__crt_stdio_output@@V?$standard_base@_WV?$stream_output_adapter@_W@__crt_stdio_output@@@2@@0@AEAA_NXZ@AEAPEAD@Z 000000018005dd80 f i libucrtd:output.obj
 0001:0005cdf0       ??$read_va_arg@PEAUansi_string@?1??type_case_Z@?$output_processor@_WV?$string_output_adapter@_W@__crt_stdio_output@@V?$format_validation_base@_WV?$string_output_adapter@_W@__crt_stdio_output@@@2@@__crt_stdio_output@@AEAA_NXZ@@__crt_stdio_output@@YAPEAUansi_string@?1??type_case_Z@?$output_processor@_WV?$string_output_adapter@_W@__crt_stdio_output@@V?$format_validation_base@_WV?$string_output_adapter@_W@__crt_stdio_output@@@2@@0@AEAA_NXZ@AEAPEAD@Z 000000018005ddf0 f i libucrtd:output.obj
 0001:0005ce60       ??$read_va_arg@PEAUansi_string@?1??type_case_Z@?$output_processor@_WV?$string_output_adapter@_W@__crt_stdio_output@@V?$positional_parameter_base@_WV?$string_output_adapter@_W@__crt_stdio_output@@@2@@__crt_stdio_output@@AEAA_NXZ@@__crt_stdio_output@@YAPEAUansi_string@?1??type_case_Z@?$output_processor@_WV?$string_output_adapter@_W@__crt_stdio_output@@V?$positional_parameter_base@_WV?$string_output_adapter@_W@__crt_stdio_output@@@2@@0@AEAA_NXZ@AEAPEAD@Z 000000018005de60 f i libucrtd:output.obj
 0001:0005ced0       ??$read_va_arg@PEAUansi_string@?1??type_case_Z@?$output_processor@_WV?$string_output_adapter@_W@__crt_stdio_output@@V?$standard_base@_WV?$string_output_adapter@_W@__crt_stdio_output@@@2@@__crt_stdio_output@@AEAA_NXZ@@__crt_stdio_output@@YAPEAUansi_string@?1??type_case_Z@?$output_processor@_WV?$string_output_adapter@_W@__crt_stdio_output@@V?$standard_base@_WV?$string_output_adapter@_W@__crt_stdio_output@@@2@@0@AEAA_NXZ@AEAPEAD@Z 000000018005ded0 f i libucrtd:output.obj
 0001:0005cf40       ??$read_va_arg@PEAX@__crt_stdio_output@@YAPEAXAEAPEAD@Z 000000018005df40 f i libucrtd:output.obj
 0001:0005cfb0       ??$read_va_arg@U_CRT_DOUBLE@@@__crt_stdio_output@@YA?AU_CRT_DOUBLE@@AEAPEAD@Z 000000018005dfb0 f i libucrtd:output.obj
 0001:0005d020       ??$read_va_arg@_J@__crt_stdio_output@@YA_JAEAPEAD@Z 000000018005e020 f i libucrtd:output.obj
 0001:0005d090       ??$read_va_arg@_K@__crt_stdio_output@@YA_KAEAPEAD@Z 000000018005e090 f i libucrtd:output.obj
 0001:0005d100       ??$read_va_arg@_W@__crt_stdio_output@@YA_WAEAPEAD@Z 000000018005e100 f i libucrtd:output.obj
 0001:0005d170       ??$scratch_count@D@formatting_buffer@__crt_stdio_output@@QEBA_KXZ 000000018005e170 f i libucrtd:output.obj
 0001:0005d190       ??$scratch_data@D@formatting_buffer@__crt_stdio_output@@QEAAPEADXZ 000000018005e190 f i libucrtd:output.obj
 0001:0005d200       ??$type_case_integer@$07@?$output_processor@DV?$stream_output_adapter@D@__crt_stdio_output@@V?$format_validation_base@DV?$stream_output_adapter@D@__crt_stdio_output@@@2@@__crt_stdio_output@@AEAA_N_N@Z 000000018005e200 f i libucrtd:output.obj
 0001:0005d680       ??$type_case_integer@$07@?$output_processor@DV?$stream_output_adapter@D@__crt_stdio_output@@V?$positional_parameter_base@DV?$stream_output_adapter@D@__crt_stdio_output@@@2@@__crt_stdio_output@@AEAA_N_N@Z 000000018005e680 f i libucrtd:output.obj
 0001:0005db00       ??$type_case_integer@$07@?$output_processor@DV?$stream_output_adapter@D@__crt_stdio_output@@V?$standard_base@DV?$stream_output_adapter@D@__crt_stdio_output@@@2@@__crt_stdio_output@@AEAA_N_N@Z 000000018005eb00 f i libucrtd:output.obj
 0001:0005df80       ??$type_case_integer@$07@?$output_processor@DV?$string_output_adapter@D@__crt_stdio_output@@V?$format_validation_base@DV?$string_output_adapter@D@__crt_stdio_output@@@2@@__crt_stdio_output@@AEAA_N_N@Z 000000018005ef80 f i libucrtd:output.obj
 0001:0005e400       ??$type_case_integer@$07@?$output_processor@DV?$string_output_adapter@D@__crt_stdio_output@@V?$positional_parameter_base@DV?$string_output_adapter@D@__crt_stdio_output@@@2@@__crt_stdio_output@@AEAA_N_N@Z 000000018005f400 f i libucrtd:output.obj
 0001:0005e880       ??$type_case_integer@$07@?$output_processor@DV?$string_output_adapter@D@__crt_stdio_output@@V?$standard_base@DV?$string_output_adapter@D@__crt_stdio_output@@@2@@__crt_stdio_output@@AEAA_N_N@Z 000000018005f880 f i libucrtd:output.obj
 0001:0005ed00       ??$type_case_integer@$07@?$output_processor@_WV?$stream_output_adapter@_W@__crt_stdio_output@@V?$format_validation_base@_WV?$stream_output_adapter@_W@__crt_stdio_output@@@2@@__crt_stdio_output@@AEAA_N_N@Z 000000018005fd00 f i libucrtd:output.obj
 0001:0005f180       ??$type_case_integer@$07@?$output_processor@_WV?$stream_output_adapter@_W@__crt_stdio_output@@V?$positional_parameter_base@_WV?$stream_output_adapter@_W@__crt_stdio_output@@@2@@__crt_stdio_output@@AEAA_N_N@Z 0000000180060180 f i libucrtd:output.obj
 0001:0005f600       ??$type_case_integer@$07@?$output_processor@_WV?$stream_output_adapter@_W@__crt_stdio_output@@V?$standard_base@_WV?$stream_output_adapter@_W@__crt_stdio_output@@@2@@__crt_stdio_output@@AEAA_N_N@Z 0000000180060600 f i libucrtd:output.obj
 0001:0005fa80       ??$type_case_integer@$07@?$output_processor@_WV?$string_output_adapter@_W@__crt_stdio_output@@V?$format_validation_base@_WV?$string_output_adapter@_W@__crt_stdio_output@@@2@@__crt_stdio_output@@AEAA_N_N@Z 0000000180060a80 f i libucrtd:output.obj
 0001:0005ff00       ??$type_case_integer@$07@?$output_processor@_WV?$string_output_adapter@_W@__crt_stdio_output@@V?$positional_parameter_base@_WV?$string_output_adapter@_W@__crt_stdio_output@@@2@@__crt_stdio_output@@AEAA_N_N@Z 0000000180060f00 f i libucrtd:output.obj
 0001:00060380       ??$type_case_integer@$07@?$output_processor@_WV?$string_output_adapter@_W@__crt_stdio_output@@V?$standard_base@_WV?$string_output_adapter@_W@__crt_stdio_output@@@2@@__crt_stdio_output@@AEAA_N_N@Z 0000000180061380 f i libucrtd:output.obj
 0001:00060800       ??$type_case_integer@$09@?$output_processor@DV?$stream_output_adapter@D@__crt_stdio_output@@V?$format_validation_base@DV?$stream_output_adapter@D@__crt_stdio_output@@@2@@__crt_stdio_output@@AEAA_N_N@Z 0000000180061800 f i libucrtd:output.obj
 0001:00060c80       ??$type_case_integer@$09@?$output_processor@DV?$stream_output_adapter@D@__crt_stdio_output@@V?$positional_parameter_base@DV?$stream_output_adapter@D@__crt_stdio_output@@@2@@__crt_stdio_output@@AEAA_N_N@Z 0000000180061c80 f i libucrtd:output.obj
 0001:00061100       ??$type_case_integer@$09@?$output_processor@DV?$stream_output_adapter@D@__crt_stdio_output@@V?$standard_base@DV?$stream_output_adapter@D@__crt_stdio_output@@@2@@__crt_stdio_output@@AEAA_N_N@Z 0000000180062100 f i libucrtd:output.obj
 0001:00061580       ??$type_case_integer@$09@?$output_processor@DV?$string_output_adapter@D@__crt_stdio_output@@V?$format_validation_base@DV?$string_output_adapter@D@__crt_stdio_output@@@2@@__crt_stdio_output@@AEAA_N_N@Z 0000000180062580 f i libucrtd:output.obj
 0001:00061a00       ??$type_case_integer@$09@?$output_processor@DV?$string_output_adapter@D@__crt_stdio_output@@V?$positional_parameter_base@DV?$string_output_adapter@D@__crt_stdio_output@@@2@@__crt_stdio_output@@AEAA_N_N@Z 0000000180062a00 f i libucrtd:output.obj
 0001:00061e80       ??$type_case_integer@$09@?$output_processor@DV?$string_output_adapter@D@__crt_stdio_output@@V?$standard_base@DV?$string_output_adapter@D@__crt_stdio_output@@@2@@__crt_stdio_output@@AEAA_N_N@Z 0000000180062e80 f i libucrtd:output.obj
 0001:00062300       ??$type_case_integer@$09@?$output_processor@_WV?$stream_output_adapter@_W@__crt_stdio_output@@V?$format_validation_base@_WV?$stream_output_adapter@_W@__crt_stdio_output@@@2@@__crt_stdio_output@@AEAA_N_N@Z 0000000180063300 f i libucrtd:output.obj
 0001:00062780       ??$type_case_integer@$09@?$output_processor@_WV?$stream_output_adapter@_W@__crt_stdio_output@@V?$positional_parameter_base@_WV?$stream_output_adapter@_W@__crt_stdio_output@@@2@@__crt_stdio_output@@AEAA_N_N@Z 0000000180063780 f i libucrtd:output.obj
 0001:00062c00       ??$type_case_integer@$09@?$output_processor@_WV?$stream_output_adapter@_W@__crt_stdio_output@@V?$standard_base@_WV?$stream_output_adapter@_W@__crt_stdio_output@@@2@@__crt_stdio_output@@AEAA_N_N@Z 0000000180063c00 f i libucrtd:output.obj
 0001:00063080       ??$type_case_integer@$09@?$output_processor@_WV?$string_output_adapter@_W@__crt_stdio_output@@V?$format_validation_base@_WV?$string_output_adapter@_W@__crt_stdio_output@@@2@@__crt_stdio_output@@AEAA_N_N@Z 0000000180064080 f i libucrtd:output.obj
 0001:00063500       ??$type_case_integer@$09@?$output_processor@_WV?$string_output_adapter@_W@__crt_stdio_output@@V?$positional_parameter_base@_WV?$string_output_adapter@_W@__crt_stdio_output@@@2@@__crt_stdio_output@@AEAA_N_N@Z 0000000180064500 f i libucrtd:output.obj
 0001:00063980       ??$type_case_integer@$09@?$output_processor@_WV?$string_output_adapter@_W@__crt_stdio_output@@V?$standard_base@_WV?$string_output_adapter@_W@__crt_stdio_output@@@2@@__crt_stdio_output@@AEAA_N_N@Z 0000000180064980 f i libucrtd:output.obj
 0001:00063e00       ??$type_case_integer@$0BA@@?$output_processor@DV?$stream_output_adapter@D@__crt_stdio_output@@V?$format_validation_base@DV?$stream_output_adapter@D@__crt_stdio_output@@@2@@__crt_stdio_output@@AEAA_N_N@Z 0000000180064e00 f i libucrtd:output.obj
 0001:00064280       ??$type_case_integer@$0BA@@?$output_processor@DV?$stream_output_adapter@D@__crt_stdio_output@@V?$positional_parameter_base@DV?$stream_output_adapter@D@__crt_stdio_output@@@2@@__crt_stdio_output@@AEAA_N_N@Z 0000000180065280 f i libucrtd:output.obj
 0001:00064700       ??$type_case_integer@$0BA@@?$output_processor@DV?$stream_output_adapter@D@__crt_stdio_output@@V?$standard_base@DV?$stream_output_adapter@D@__crt_stdio_output@@@2@@__crt_stdio_output@@AEAA_N_N@Z 0000000180065700 f i libucrtd:output.obj
 0001:00064b80       ??$type_case_integer@$0BA@@?$output_processor@DV?$string_output_adapter@D@__crt_stdio_output@@V?$format_validation_base@DV?$string_output_adapter@D@__crt_stdio_output@@@2@@__crt_stdio_output@@AEAA_N_N@Z 0000000180065b80 f i libucrtd:output.obj
 0001:00065000       ??$type_case_integer@$0BA@@?$output_processor@DV?$string_output_adapter@D@__crt_stdio_output@@V?$positional_parameter_base@DV?$string_output_adapter@D@__crt_stdio_output@@@2@@__crt_stdio_output@@AEAA_N_N@Z 0000000180066000 f i libucrtd:output.obj
 0001:00065480       ??$type_case_integer@$0BA@@?$output_processor@DV?$string_output_adapter@D@__crt_stdio_output@@V?$standard_base@DV?$string_output_adapter@D@__crt_stdio_output@@@2@@__crt_stdio_output@@AEAA_N_N@Z 0000000180066480 f i libucrtd:output.obj
 0001:00065900       ??$type_case_integer@$0BA@@?$output_processor@_WV?$stream_output_adapter@_W@__crt_stdio_output@@V?$format_validation_base@_WV?$stream_output_adapter@_W@__crt_stdio_output@@@2@@__crt_stdio_output@@AEAA_N_N@Z 0000000180066900 f i libucrtd:output.obj
 0001:00065d80       ??$type_case_integer@$0BA@@?$output_processor@_WV?$stream_output_adapter@_W@__crt_stdio_output@@V?$positional_parameter_base@_WV?$stream_output_adapter@_W@__crt_stdio_output@@@2@@__crt_stdio_output@@AEAA_N_N@Z 0000000180066d80 f i libucrtd:output.obj
 0001:00066200       ??$type_case_integer@$0BA@@?$output_processor@_WV?$stream_output_adapter@_W@__crt_stdio_output@@V?$standard_base@_WV?$stream_output_adapter@_W@__crt_stdio_output@@@2@@__crt_stdio_output@@AEAA_N_N@Z 0000000180067200 f i libucrtd:output.obj
 0001:00066680       ??$type_case_integer@$0BA@@?$output_processor@_WV?$string_output_adapter@_W@__crt_stdio_output@@V?$format_validation_base@_WV?$string_output_adapter@_W@__crt_stdio_output@@@2@@__crt_stdio_output@@AEAA_N_N@Z 0000000180067680 f i libucrtd:output.obj
 0001:00066b00       ??$type_case_integer@$0BA@@?$output_processor@_WV?$string_output_adapter@_W@__crt_stdio_output@@V?$positional_parameter_base@_WV?$string_output_adapter@_W@__crt_stdio_output@@@2@@__crt_stdio_output@@AEAA_N_N@Z 0000000180067b00 f i libucrtd:output.obj
 0001:00066f80       ??$type_case_integer@$0BA@@?$output_processor@_WV?$string_output_adapter@_W@__crt_stdio_output@@V?$standard_base@_WV?$string_output_adapter@_W@__crt_stdio_output@@@2@@__crt_stdio_output@@AEAA_N_N@Z 0000000180067f80 f i libucrtd:output.obj
 0001:00067400       ??$type_case_integer_parse_into_buffer@I$07@?$output_processor@DV?$stream_output_adapter@D@__crt_stdio_output@@V?$format_validation_base@DV?$stream_output_adapter@D@__crt_stdio_output@@@2@@__crt_stdio_output@@AEAAXI_N@Z 0000000180068400 f i libucrtd:output.obj
 0001:00067530       ??$type_case_integer_parse_into_buffer@I$07@?$output_processor@DV?$stream_output_adapter@D@__crt_stdio_output@@V?$positional_parameter_base@DV?$stream_output_adapter@D@__crt_stdio_output@@@2@@__crt_stdio_output@@AEAAXI_N@Z 0000000180068530 f i libucrtd:output.obj
 0001:00067660       ??$type_case_integer_parse_into_buffer@I$07@?$output_processor@DV?$stream_output_adapter@D@__crt_stdio_output@@V?$standard_base@DV?$stream_output_adapter@D@__crt_stdio_output@@@2@@__crt_stdio_output@@AEAAXI_N@Z 0000000180068660 f i libucrtd:output.obj
 0001:00067790       ??$type_case_integer_parse_into_buffer@I$07@?$output_processor@DV?$string_output_adapter@D@__crt_stdio_output@@V?$format_validation_base@DV?$string_output_adapter@D@__crt_stdio_output@@@2@@__crt_stdio_output@@AEAAXI_N@Z 0000000180068790 f i libucrtd:output.obj
 0001:000678c0       ??$type_case_integer_parse_into_buffer@I$07@?$output_processor@DV?$string_output_adapter@D@__crt_stdio_output@@V?$positional_parameter_base@DV?$string_output_adapter@D@__crt_stdio_output@@@2@@__crt_stdio_output@@AEAAXI_N@Z 00000001800688c0 f i libucrtd:output.obj
 0001:000679f0       ??$type_case_integer_parse_into_buffer@I$07@?$output_processor@DV?$string_output_adapter@D@__crt_stdio_output@@V?$standard_base@DV?$string_output_adapter@D@__crt_stdio_output@@@2@@__crt_stdio_output@@AEAAXI_N@Z 00000001800689f0 f i libucrtd:output.obj
 0001:00067b20       ??$type_case_integer_parse_into_buffer@I$07@?$output_processor@_WV?$stream_output_adapter@_W@__crt_stdio_output@@V?$format_validation_base@_WV?$stream_output_adapter@_W@__crt_stdio_output@@@2@@__crt_stdio_output@@AEAAXI_N@Z 0000000180068b20 f i libucrtd:output.obj
 0001:00067c60       ??$type_case_integer_parse_into_buffer@I$07@?$output_processor@_WV?$stream_output_adapter@_W@__crt_stdio_output@@V?$positional_parameter_base@_WV?$stream_output_adapter@_W@__crt_stdio_output@@@2@@__crt_stdio_output@@AEAAXI_N@Z 0000000180068c60 f i libucrtd:output.obj
 0001:00067da0       ??$type_case_integer_parse_into_buffer@I$07@?$output_processor@_WV?$stream_output_adapter@_W@__crt_stdio_output@@V?$standard_base@_WV?$stream_output_adapter@_W@__crt_stdio_output@@@2@@__crt_stdio_output@@AEAAXI_N@Z 0000000180068da0 f i libucrtd:output.obj
 0001:00067ee0       ??$type_case_integer_parse_into_buffer@I$07@?$output_processor@_WV?$string_output_adapter@_W@__crt_stdio_output@@V?$format_validation_base@_WV?$string_output_adapter@_W@__crt_stdio_output@@@2@@__crt_stdio_output@@AEAAXI_N@Z 0000000180068ee0 f i libucrtd:output.obj
 0001:00068020       ??$type_case_integer_parse_into_buffer@I$07@?$output_processor@_WV?$string_output_adapter@_W@__crt_stdio_output@@V?$positional_parameter_base@_WV?$string_output_adapter@_W@__crt_stdio_output@@@2@@__crt_stdio_output@@AEAAXI_N@Z 0000000180069020 f i libucrtd:output.obj
 0001:00068160       ??$type_case_integer_parse_into_buffer@I$07@?$output_processor@_WV?$string_output_adapter@_W@__crt_stdio_output@@V?$standard_base@_WV?$string_output_adapter@_W@__crt_stdio_output@@@2@@__crt_stdio_output@@AEAAXI_N@Z 0000000180069160 f i libucrtd:output.obj
 0001:000682a0       ??$type_case_integer_parse_into_buffer@I$09@?$output_processor@DV?$stream_output_adapter@D@__crt_stdio_output@@V?$format_validation_base@DV?$stream_output_adapter@D@__crt_stdio_output@@@2@@__crt_stdio_output@@AEAAXI_N@Z 00000001800692a0 f i libucrtd:output.obj
 0001:000683d0       ??$type_case_integer_parse_into_buffer@I$09@?$output_processor@DV?$stream_output_adapter@D@__crt_stdio_output@@V?$positional_parameter_base@DV?$stream_output_adapter@D@__crt_stdio_output@@@2@@__crt_stdio_output@@AEAAXI_N@Z 00000001800693d0 f i libucrtd:output.obj
 0001:00068500       ??$type_case_integer_parse_into_buffer@I$09@?$output_processor@DV?$stream_output_adapter@D@__crt_stdio_output@@V?$standard_base@DV?$stream_output_adapter@D@__crt_stdio_output@@@2@@__crt_stdio_output@@AEAAXI_N@Z 0000000180069500 f i libucrtd:output.obj
 0001:00068630       ??$type_case_integer_parse_into_buffer@I$09@?$output_processor@DV?$string_output_adapter@D@__crt_stdio_output@@V?$format_validation_base@DV?$string_output_adapter@D@__crt_stdio_output@@@2@@__crt_stdio_output@@AEAAXI_N@Z 0000000180069630 f i libucrtd:output.obj
 0001:00068760       ??$type_case_integer_parse_into_buffer@I$09@?$output_processor@DV?$string_output_adapter@D@__crt_stdio_output@@V?$positional_parameter_base@DV?$string_output_adapter@D@__crt_stdio_output@@@2@@__crt_stdio_output@@AEAAXI_N@Z 0000000180069760 f i libucrtd:output.obj
 0001:00068890       ??$type_case_integer_parse_into_buffer@I$09@?$output_processor@DV?$string_output_adapter@D@__crt_stdio_output@@V?$standard_base@DV?$string_output_adapter@D@__crt_stdio_output@@@2@@__crt_stdio_output@@AEAAXI_N@Z 0000000180069890 f i libucrtd:output.obj
 0001:000689c0       ??$type_case_integer_parse_into_buffer@I$09@?$output_processor@_WV?$stream_output_adapter@_W@__crt_stdio_output@@V?$format_validation_base@_WV?$stream_output_adapter@_W@__crt_stdio_output@@@2@@__crt_stdio_output@@AEAAXI_N@Z 00000001800699c0 f i libucrtd:output.obj
 0001:00068b00       ??$type_case_integer_parse_into_buffer@I$09@?$output_processor@_WV?$stream_output_adapter@_W@__crt_stdio_output@@V?$positional_parameter_base@_WV?$stream_output_adapter@_W@__crt_stdio_output@@@2@@__crt_stdio_output@@AEAAXI_N@Z 0000000180069b00 f i libucrtd:output.obj
 0001:00068c40       ??$type_case_integer_parse_into_buffer@I$09@?$output_processor@_WV?$stream_output_adapter@_W@__crt_stdio_output@@V?$standard_base@_WV?$stream_output_adapter@_W@__crt_stdio_output@@@2@@__crt_stdio_output@@AEAAXI_N@Z 0000000180069c40 f i libucrtd:output.obj
 0001:00068d80       ??$type_case_integer_parse_into_buffer@I$09@?$output_processor@_WV?$string_output_adapter@_W@__crt_stdio_output@@V?$format_validation_base@_WV?$string_output_adapter@_W@__crt_stdio_output@@@2@@__crt_stdio_output@@AEAAXI_N@Z 0000000180069d80 f i libucrtd:output.obj
 0001:00068ec0       ??$type_case_integer_parse_into_buffer@I$09@?$output_processor@_WV?$string_output_adapter@_W@__crt_stdio_output@@V?$positional_parameter_base@_WV?$string_output_adapter@_W@__crt_stdio_output@@@2@@__crt_stdio_output@@AEAAXI_N@Z 0000000180069ec0 f i libucrtd:output.obj
 0001:00069000       ??$type_case_integer_parse_into_buffer@I$09@?$output_processor@_WV?$string_output_adapter@_W@__crt_stdio_output@@V?$standard_base@_WV?$string_output_adapter@_W@__crt_stdio_output@@@2@@__crt_stdio_output@@AEAAXI_N@Z 000000018006a000 f i libucrtd:output.obj
 0001:00069140       ??$type_case_integer_parse_into_buffer@I$0BA@@?$output_processor@DV?$stream_output_adapter@D@__crt_stdio_output@@V?$format_validation_base@DV?$stream_output_adapter@D@__crt_stdio_output@@@2@@__crt_stdio_output@@AEAAXI_N@Z 000000018006a140 f i libucrtd:output.obj
 0001:00069270       ??$type_case_integer_parse_into_buffer@I$0BA@@?$output_processor@DV?$stream_output_adapter@D@__crt_stdio_output@@V?$positional_parameter_base@DV?$stream_output_adapter@D@__crt_stdio_output@@@2@@__crt_stdio_output@@AEAAXI_N@Z 000000018006a270 f i libucrtd:output.obj
 0001:000693a0       ??$type_case_integer_parse_into_buffer@I$0BA@@?$output_processor@DV?$stream_output_adapter@D@__crt_stdio_output@@V?$standard_base@DV?$stream_output_adapter@D@__crt_stdio_output@@@2@@__crt_stdio_output@@AEAAXI_N@Z 000000018006a3a0 f i libucrtd:output.obj
 0001:000694d0       ??$type_case_integer_parse_into_buffer@I$0BA@@?$output_processor@DV?$string_output_adapter@D@__crt_stdio_output@@V?$format_validation_base@DV?$string_output_adapter@D@__crt_stdio_output@@@2@@__crt_stdio_output@@AEAAXI_N@Z 000000018006a4d0 f i libucrtd:output.obj
 0001:00069600       ??$type_case_integer_parse_into_buffer@I$0BA@@?$output_processor@DV?$string_output_adapter@D@__crt_stdio_output@@V?$positional_parameter_base@DV?$string_output_adapter@D@__crt_stdio_output@@@2@@__crt_stdio_output@@AEAAXI_N@Z 000000018006a600 f i libucrtd:output.obj
 0001:00069730       ??$type_case_integer_parse_into_buffer@I$0BA@@?$output_processor@DV?$string_output_adapter@D@__crt_stdio_output@@V?$standard_base@DV?$string_output_adapter@D@__crt_stdio_output@@@2@@__crt_stdio_output@@AEAAXI_N@Z 000000018006a730 f i libucrtd:output.obj
 0001:00069860       ??$type_case_integer_parse_into_buffer@I$0BA@@?$output_processor@_WV?$stream_output_adapter@_W@__crt_stdio_output@@V?$format_validation_base@_WV?$stream_output_adapter@_W@__crt_stdio_output@@@2@@__crt_stdio_output@@AEAAXI_N@Z 000000018006a860 f i libucrtd:output.obj
 0001:000699a0       ??$type_case_integer_parse_into_buffer@I$0BA@@?$output_processor@_WV?$stream_output_adapter@_W@__crt_stdio_output@@V?$positional_parameter_base@_WV?$stream_output_adapter@_W@__crt_stdio_output@@@2@@__crt_stdio_output@@AEAAXI_N@Z 000000018006a9a0 f i libucrtd:output.obj
 0001:00069ae0       ??$type_case_integer_parse_into_buffer@I$0BA@@?$output_processor@_WV?$stream_output_adapter@_W@__crt_stdio_output@@V?$standard_base@_WV?$stream_output_adapter@_W@__crt_stdio_output@@@2@@__crt_stdio_output@@AEAAXI_N@Z 000000018006aae0 f i libucrtd:output.obj
 0001:00069c20       ??$type_case_integer_parse_into_buffer@I$0BA@@?$output_processor@_WV?$string_output_adapter@_W@__crt_stdio_output@@V?$format_validation_base@_WV?$string_output_adapter@_W@__crt_stdio_output@@@2@@__crt_stdio_output@@AEAAXI_N@Z 000000018006ac20 f i libucrtd:output.obj
 0001:00069d60       ??$type_case_integer_parse_into_buffer@I$0BA@@?$output_processor@_WV?$string_output_adapter@_W@__crt_stdio_output@@V?$positional_parameter_base@_WV?$string_output_adapter@_W@__crt_stdio_output@@@2@@__crt_stdio_output@@AEAAXI_N@Z 000000018006ad60 f i libucrtd:output.obj
 0001:00069ea0       ??$type_case_integer_parse_into_buffer@I$0BA@@?$output_processor@_WV?$string_output_adapter@_W@__crt_stdio_output@@V?$standard_base@_WV?$string_output_adapter@_W@__crt_stdio_output@@@2@@__crt_stdio_output@@AEAAXI_N@Z 000000018006aea0 f i libucrtd:output.obj
 0001:00069fe0       ??$type_case_integer_parse_into_buffer@_K$07@?$output_processor@DV?$stream_output_adapter@D@__crt_stdio_output@@V?$format_validation_base@DV?$stream_output_adapter@D@__crt_stdio_output@@@2@@__crt_stdio_output@@AEAAX_K_N@Z 000000018006afe0 f i libucrtd:output.obj
 0001:0006a120       ??$type_case_integer_parse_into_buffer@_K$07@?$output_processor@DV?$stream_output_adapter@D@__crt_stdio_output@@V?$positional_parameter_base@DV?$stream_output_adapter@D@__crt_stdio_output@@@2@@__crt_stdio_output@@AEAAX_K_N@Z 000000018006b120 f i libucrtd:output.obj
 0001:0006a260       ??$type_case_integer_parse_into_buffer@_K$07@?$output_processor@DV?$stream_output_adapter@D@__crt_stdio_output@@V?$standard_base@DV?$stream_output_adapter@D@__crt_stdio_output@@@2@@__crt_stdio_output@@AEAAX_K_N@Z 000000018006b260 f i libucrtd:output.obj
 0001:0006a3a0       ??$type_case_integer_parse_into_buffer@_K$07@?$output_processor@DV?$string_output_adapter@D@__crt_stdio_output@@V?$format_validation_base@DV?$string_output_adapter@D@__crt_stdio_output@@@2@@__crt_stdio_output@@AEAAX_K_N@Z 000000018006b3a0 f i libucrtd:output.obj
 0001:0006a4e0       ??$type_case_integer_parse_into_buffer@_K$07@?$output_processor@DV?$string_output_adapter@D@__crt_stdio_output@@V?$positional_parameter_base@DV?$string_output_adapter@D@__crt_stdio_output@@@2@@__crt_stdio_output@@AEAAX_K_N@Z 000000018006b4e0 f i libucrtd:output.obj
 0001:0006a620       ??$type_case_integer_parse_into_buffer@_K$07@?$output_processor@DV?$string_output_adapter@D@__crt_stdio_output@@V?$standard_base@DV?$string_output_adapter@D@__crt_stdio_output@@@2@@__crt_stdio_output@@AEAAX_K_N@Z 000000018006b620 f i libucrtd:output.obj
 0001:0006a760       ??$type_case_integer_parse_into_buffer@_K$07@?$output_processor@_WV?$stream_output_adapter@_W@__crt_stdio_output@@V?$format_validation_base@_WV?$stream_output_adapter@_W@__crt_stdio_output@@@2@@__crt_stdio_output@@AEAAX_K_N@Z 000000018006b760 f i libucrtd:output.obj
 0001:0006a8a0       ??$type_case_integer_parse_into_buffer@_K$07@?$output_processor@_WV?$stream_output_adapter@_W@__crt_stdio_output@@V?$positional_parameter_base@_WV?$stream_output_adapter@_W@__crt_stdio_output@@@2@@__crt_stdio_output@@AEAAX_K_N@Z 000000018006b8a0 f i libucrtd:output.obj
 0001:0006a9e0       ??$type_case_integer_parse_into_buffer@_K$07@?$output_processor@_WV?$stream_output_adapter@_W@__crt_stdio_output@@V?$standard_base@_WV?$stream_output_adapter@_W@__crt_stdio_output@@@2@@__crt_stdio_output@@AEAAX_K_N@Z 000000018006b9e0 f i libucrtd:output.obj
 0001:0006ab20       ??$type_case_integer_parse_into_buffer@_K$07@?$output_processor@_WV?$string_output_adapter@_W@__crt_stdio_output@@V?$format_validation_base@_WV?$string_output_adapter@_W@__crt_stdio_output@@@2@@__crt_stdio_output@@AEAAX_K_N@Z 000000018006bb20 f i libucrtd:output.obj
 0001:0006ac60       ??$type_case_integer_parse_into_buffer@_K$07@?$output_processor@_WV?$string_output_adapter@_W@__crt_stdio_output@@V?$positional_parameter_base@_WV?$string_output_adapter@_W@__crt_stdio_output@@@2@@__crt_stdio_output@@AEAAX_K_N@Z 000000018006bc60 f i libucrtd:output.obj
 0001:0006ada0       ??$type_case_integer_parse_into_buffer@_K$07@?$output_processor@_WV?$string_output_adapter@_W@__crt_stdio_output@@V?$standard_base@_WV?$string_output_adapter@_W@__crt_stdio_output@@@2@@__crt_stdio_output@@AEAAX_K_N@Z 000000018006bda0 f i libucrtd:output.obj
 0001:0006aee0       ??$type_case_integer_parse_into_buffer@_K$09@?$output_processor@DV?$stream_output_adapter@D@__crt_stdio_output@@V?$format_validation_base@DV?$stream_output_adapter@D@__crt_stdio_output@@@2@@__crt_stdio_output@@AEAAX_K_N@Z 000000018006bee0 f i libucrtd:output.obj
 0001:0006b020       ??$type_case_integer_parse_into_buffer@_K$09@?$output_processor@DV?$stream_output_adapter@D@__crt_stdio_output@@V?$positional_parameter_base@DV?$stream_output_adapter@D@__crt_stdio_output@@@2@@__crt_stdio_output@@AEAAX_K_N@Z 000000018006c020 f i libucrtd:output.obj
 0001:0006b160       ??$type_case_integer_parse_into_buffer@_K$09@?$output_processor@DV?$stream_output_adapter@D@__crt_stdio_output@@V?$standard_base@DV?$stream_output_adapter@D@__crt_stdio_output@@@2@@__crt_stdio_output@@AEAAX_K_N@Z 000000018006c160 f i libucrtd:output.obj
 0001:0006b2a0       ??$type_case_integer_parse_into_buffer@_K$09@?$output_processor@DV?$string_output_adapter@D@__crt_stdio_output@@V?$format_validation_base@DV?$string_output_adapter@D@__crt_stdio_output@@@2@@__crt_stdio_output@@AEAAX_K_N@Z 000000018006c2a0 f i libucrtd:output.obj
 0001:0006b3e0       ??$type_case_integer_parse_into_buffer@_K$09@?$output_processor@DV?$string_output_adapter@D@__crt_stdio_output@@V?$positional_parameter_base@DV?$string_output_adapter@D@__crt_stdio_output@@@2@@__crt_stdio_output@@AEAAX_K_N@Z 000000018006c3e0 f i libucrtd:output.obj
 0001:0006b520       ??$type_case_integer_parse_into_buffer@_K$09@?$output_processor@DV?$string_output_adapter@D@__crt_stdio_output@@V?$standard_base@DV?$string_output_adapter@D@__crt_stdio_output@@@2@@__crt_stdio_output@@AEAAX_K_N@Z 000000018006c520 f i libucrtd:output.obj
 0001:0006b660       ??$type_case_integer_parse_into_buffer@_K$09@?$output_processor@_WV?$stream_output_adapter@_W@__crt_stdio_output@@V?$format_validation_base@_WV?$stream_output_adapter@_W@__crt_stdio_output@@@2@@__crt_stdio_output@@AEAAX_K_N@Z 000000018006c660 f i libucrtd:output.obj
 0001:0006b7a0       ??$type_case_integer_parse_into_buffer@_K$09@?$output_processor@_WV?$stream_output_adapter@_W@__crt_stdio_output@@V?$positional_parameter_base@_WV?$stream_output_adapter@_W@__crt_stdio_output@@@2@@__crt_stdio_output@@AEAAX_K_N@Z 000000018006c7a0 f i libucrtd:output.obj
 0001:0006b8e0       ??$type_case_integer_parse_into_buffer@_K$09@?$output_processor@_WV?$stream_output_adapter@_W@__crt_stdio_output@@V?$standard_base@_WV?$stream_output_adapter@_W@__crt_stdio_output@@@2@@__crt_stdio_output@@AEAAX_K_N@Z 000000018006c8e0 f i libucrtd:output.obj
 0001:0006ba20       ??$type_case_integer_parse_into_buffer@_K$09@?$output_processor@_WV?$string_output_adapter@_W@__crt_stdio_output@@V?$format_validation_base@_WV?$string_output_adapter@_W@__crt_stdio_output@@@2@@__crt_stdio_output@@AEAAX_K_N@Z 000000018006ca20 f i libucrtd:output.obj
 0001:0006bb60       ??$type_case_integer_parse_into_buffer@_K$09@?$output_processor@_WV?$string_output_adapter@_W@__crt_stdio_output@@V?$positional_parameter_base@_WV?$string_output_adapter@_W@__crt_stdio_output@@@2@@__crt_stdio_output@@AEAAX_K_N@Z 000000018006cb60 f i libucrtd:output.obj
 0001:0006bca0       ??$type_case_integer_parse_into_buffer@_K$09@?$output_processor@_WV?$string_output_adapter@_W@__crt_stdio_output@@V?$standard_base@_WV?$string_output_adapter@_W@__crt_stdio_output@@@2@@__crt_stdio_output@@AEAAX_K_N@Z 000000018006cca0 f i libucrtd:output.obj
 0001:0006bde0       ??$type_case_integer_parse_into_buffer@_K$0BA@@?$output_processor@DV?$stream_output_adapter@D@__crt_stdio_output@@V?$format_validation_base@DV?$stream_output_adapter@D@__crt_stdio_output@@@2@@__crt_stdio_output@@AEAAX_K_N@Z 000000018006cde0 f i libucrtd:output.obj
 0001:0006bf20       ??$type_case_integer_parse_into_buffer@_K$0BA@@?$output_processor@DV?$stream_output_adapter@D@__crt_stdio_output@@V?$positional_parameter_base@DV?$stream_output_adapter@D@__crt_stdio_output@@@2@@__crt_stdio_output@@AEAAX_K_N@Z 000000018006cf20 f i libucrtd:output.obj
 0001:0006c060       ??$type_case_integer_parse_into_buffer@_K$0BA@@?$output_processor@DV?$stream_output_adapter@D@__crt_stdio_output@@V?$standard_base@DV?$stream_output_adapter@D@__crt_stdio_output@@@2@@__crt_stdio_output@@AEAAX_K_N@Z 000000018006d060 f i libucrtd:output.obj
 0001:0006c1a0       ??$type_case_integer_parse_into_buffer@_K$0BA@@?$output_processor@DV?$string_output_adapter@D@__crt_stdio_output@@V?$format_validation_base@DV?$string_output_adapter@D@__crt_stdio_output@@@2@@__crt_stdio_output@@AEAAX_K_N@Z 000000018006d1a0 f i libucrtd:output.obj
 0001:0006c2e0       ??$type_case_integer_parse_into_buffer@_K$0BA@@?$output_processor@DV?$string_output_adapter@D@__crt_stdio_output@@V?$positional_parameter_base@DV?$string_output_adapter@D@__crt_stdio_output@@@2@@__crt_stdio_output@@AEAAX_K_N@Z 000000018006d2e0 f i libucrtd:output.obj
 0001:0006c420       ??$type_case_integer_parse_into_buffer@_K$0BA@@?$output_processor@DV?$string_output_adapter@D@__crt_stdio_output@@V?$standard_base@DV?$string_output_adapter@D@__crt_stdio_output@@@2@@__crt_stdio_output@@AEAAX_K_N@Z 000000018006d420 f i libucrtd:output.obj
 0001:0006c560       ??$type_case_integer_parse_into_buffer@_K$0BA@@?$output_processor@_WV?$stream_output_adapter@_W@__crt_stdio_output@@V?$format_validation_base@_WV?$stream_output_adapter@_W@__crt_stdio_output@@@2@@__crt_stdio_output@@AEAAX_K_N@Z 000000018006d560 f i libucrtd:output.obj
 0001:0006c6a0       ??$type_case_integer_parse_into_buffer@_K$0BA@@?$output_processor@_WV?$stream_output_adapter@_W@__crt_stdio_output@@V?$positional_parameter_base@_WV?$stream_output_adapter@_W@__crt_stdio_output@@@2@@__crt_stdio_output@@AEAAX_K_N@Z 000000018006d6a0 f i libucrtd:output.obj
 0001:0006c7e0       ??$type_case_integer_parse_into_buffer@_K$0BA@@?$output_processor@_WV?$stream_output_adapter@_W@__crt_stdio_output@@V?$standard_base@_WV?$stream_output_adapter@_W@__crt_stdio_output@@@2@@__crt_stdio_output@@AEAAX_K_N@Z 000000018006d7e0 f i libucrtd:output.obj
 0001:0006c920       ??$type_case_integer_parse_into_buffer@_K$0BA@@?$output_processor@_WV?$string_output_adapter@_W@__crt_stdio_output@@V?$format_validation_base@_WV?$string_output_adapter@_W@__crt_stdio_output@@@2@@__crt_stdio_output@@AEAAX_K_N@Z 000000018006d920 f i libucrtd:output.obj
 0001:0006ca60       ??$type_case_integer_parse_into_buffer@_K$0BA@@?$output_processor@_WV?$string_output_adapter@_W@__crt_stdio_output@@V?$positional_parameter_base@_WV?$string_output_adapter@_W@__crt_stdio_output@@@2@@__crt_stdio_output@@AEAAX_K_N@Z 000000018006da60 f i libucrtd:output.obj
 0001:0006cba0       ??$type_case_integer_parse_into_buffer@_K$0BA@@?$output_processor@_WV?$string_output_adapter@_W@__crt_stdio_output@@V?$standard_base@_WV?$string_output_adapter@_W@__crt_stdio_output@@@2@@__crt_stdio_output@@AEAAX_K_N@Z 000000018006dba0 f i libucrtd:output.obj
 0001:0006cce0       ??$write_multiple_characters@V?$stream_output_adapter@D@__crt_stdio_output@@D@__crt_stdio_output@@YAXAEBV?$stream_output_adapter@D@0@DHQEAHAEAV__crt_cached_ptd_host@@@Z 000000018006dce0 f i libucrtd:output.obj
 0001:0006cd50       ??$write_multiple_characters@V?$stream_output_adapter@_W@__crt_stdio_output@@D@__crt_stdio_output@@YAXAEBV?$stream_output_adapter@_W@0@DHQEAHAEAV__crt_cached_ptd_host@@@Z 000000018006dd50 f i libucrtd:output.obj
 0001:0006cdc0       ??$write_multiple_characters@V?$string_output_adapter@D@__crt_stdio_output@@D@__crt_stdio_output@@YAXAEBV?$string_output_adapter@D@0@DHQEAHAEAV__crt_cached_ptd_host@@@Z 000000018006ddc0 f i libucrtd:output.obj
 0001:0006ce30       ??$write_multiple_characters@V?$string_output_adapter@_W@__crt_stdio_output@@D@__crt_stdio_output@@YAXAEBV?$string_output_adapter@_W@0@DHQEAHAEAV__crt_cached_ptd_host@@@Z 000000018006de30 f i libucrtd:output.obj
 0001:0006d260       ??0?$c_string_character_source@D@__crt_strtox@@QEAA@QEBDQEAPEBD@Z 000000018006e260 f i libucrtd:output.obj
 0001:0006d2b0       ??0?$c_string_character_source@_W@__crt_strtox@@QEAA@QEB_WQEAPEB_W@Z 000000018006e2b0 f i libucrtd:output.obj
 0001:0006d300       ??0?$cached@H@__crt_cached_ptd_host@@QEAA@XZ 000000018006e300 f i libucrtd:output.obj
 0001:0006d320       ??0?$cached@K@__crt_cached_ptd_host@@QEAA@XZ 000000018006e320 f i libucrtd:output.obj
 0001:0006d340       ??0?$common_data@D@__crt_stdio_output@@IEAA@AEAV__crt_cached_ptd_host@@@Z 000000018006e340 f i libucrtd:output.obj
 0001:0006d400       ??0?$common_data@_W@__crt_stdio_output@@IEAA@AEAV__crt_cached_ptd_host@@@Z 000000018006e400 f i libucrtd:output.obj
 0001:0006d4c0       ??0?$output_adapter_data@DV?$stream_output_adapter@D@__crt_stdio_output@@@__crt_stdio_output@@IEAA@AEBV?$stream_output_adapter@D@1@_KQEBDAEAV__crt_cached_ptd_host@@QEAD@Z 000000018006e4c0 f i libucrtd:output.obj
 0001:0006d540       ??0?$output_adapter_data@DV?$string_output_adapter@D@__crt_stdio_output@@@__crt_stdio_output@@IEAA@AEBV?$string_output_adapter@D@1@_KQEBDAEAV__crt_cached_ptd_host@@QEAD@Z 000000018006e540 f i libucrtd:output.obj
 0001:0006d5c0       ??0?$output_adapter_data@_WV?$stream_output_adapter@_W@__crt_stdio_output@@@__crt_stdio_output@@IEAA@AEBV?$stream_output_adapter@_W@1@_KQEB_WAEAV__crt_cached_ptd_host@@QEAD@Z 000000018006e5c0 f i libucrtd:output.obj
 0001:0006d640       ??0?$output_adapter_data@_WV?$string_output_adapter@_W@__crt_stdio_output@@@__crt_stdio_output@@IEAA@AEBV?$string_output_adapter@_W@1@_KQEB_WAEAV__crt_cached_ptd_host@@QEAD@Z 000000018006e640 f i libucrtd:output.obj
 0001:0006d6c0       ??0?$output_processor@DV?$stream_output_adapter@D@__crt_stdio_output@@V?$format_validation_base@DV?$stream_output_adapter@D@__crt_stdio_output@@@2@@__crt_stdio_output@@QEAA@AEBV?$stream_output_adapter@D@1@_KQEBDAEAV__crt_cached_ptd_host@@QEAD@Z 000000018006e6c0 f i libucrtd:output.obj
 0001:0006d710       ??0?$output_processor@DV?$stream_output_adapter@D@__crt_stdio_output@@V?$positional_parameter_base@DV?$stream_output_adapter@D@__crt_stdio_output@@@2@@__crt_stdio_output@@QEAA@AEBV?$stream_output_adapter@D@1@_KQEBDAEAV__crt_cached_ptd_host@@QEAD@Z 000000018006e710 f i libucrtd:output.obj
 0001:0006d760       ??0?$output_processor@DV?$stream_output_adapter@D@__crt_stdio_output@@V?$standard_base@DV?$stream_output_adapter@D@__crt_stdio_output@@@2@@__crt_stdio_output@@QEAA@AEBV?$stream_output_adapter@D@1@_KQEBDAEAV__crt_cached_ptd_host@@QEAD@Z 000000018006e760 f i libucrtd:output.obj
 0001:0006d7b0       ??0?$output_processor@DV?$string_output_adapter@D@__crt_stdio_output@@V?$format_validation_base@DV?$string_output_adapter@D@__crt_stdio_output@@@2@@__crt_stdio_output@@QEAA@AEBV?$string_output_adapter@D@1@_KQEBDAEAV__crt_cached_ptd_host@@QEAD@Z 000000018006e7b0 f i libucrtd:output.obj
 0001:0006d800       ??0?$output_processor@DV?$string_output_adapter@D@__crt_stdio_output@@V?$positional_parameter_base@DV?$string_output_adapter@D@__crt_stdio_output@@@2@@__crt_stdio_output@@QEAA@AEBV?$string_output_adapter@D@1@_KQEBDAEAV__crt_cached_ptd_host@@QEAD@Z 000000018006e800 f i libucrtd:output.obj
 0001:0006d850       ??0?$output_processor@DV?$string_output_adapter@D@__crt_stdio_output@@V?$standard_base@DV?$string_output_adapter@D@__crt_stdio_output@@@2@@__crt_stdio_output@@QEAA@AEBV?$string_output_adapter@D@1@_KQEBDAEAV__crt_cached_ptd_host@@QEAD@Z 000000018006e850 f i libucrtd:output.obj
 0001:0006d8a0       ??0?$output_processor@_WV?$stream_output_adapter@_W@__crt_stdio_output@@V?$format_validation_base@_WV?$stream_output_adapter@_W@__crt_stdio_output@@@2@@__crt_stdio_output@@QEAA@AEBV?$stream_output_adapter@_W@1@_KQEB_WAEAV__crt_cached_ptd_host@@QEAD@Z 000000018006e8a0 f i libucrtd:output.obj
 0001:0006d8f0       ??0?$output_processor@_WV?$stream_output_adapter@_W@__crt_stdio_output@@V?$positional_parameter_base@_WV?$stream_output_adapter@_W@__crt_stdio_output@@@2@@__crt_stdio_output@@QEAA@AEBV?$stream_output_adapter@_W@1@_KQEB_WAEAV__crt_cached_ptd_host@@QEAD@Z 000000018006e8f0 f i libucrtd:output.obj
 0001:0006d940       ??0?$output_processor@_WV?$stream_output_adapter@_W@__crt_stdio_output@@V?$standard_base@_WV?$stream_output_adapter@_W@__crt_stdio_output@@@2@@__crt_stdio_output@@QEAA@AEBV?$stream_output_adapter@_W@1@_KQEB_WAEAV__crt_cached_ptd_host@@QEAD@Z 000000018006e940 f i libucrtd:output.obj
 0001:0006d990       ??0?$output_processor@_WV?$string_output_adapter@_W@__crt_stdio_output@@V?$format_validation_base@_WV?$string_output_adapter@_W@__crt_stdio_output@@@2@@__crt_stdio_output@@QEAA@AEBV?$string_output_adapter@_W@1@_KQEB_WAEAV__crt_cached_ptd_host@@QEAD@Z 000000018006e990 f i libucrtd:output.obj
 0001:0006d9e0       ??0?$output_processor@_WV?$string_output_adapter@_W@__crt_stdio_output@@V?$positional_parameter_base@_WV?$string_output_adapter@_W@__crt_stdio_output@@@2@@__crt_stdio_output@@QEAA@AEBV?$string_output_adapter@_W@1@_KQEB_WAEAV__crt_cached_ptd_host@@QEAD@Z 000000018006e9e0 f i libucrtd:output.obj
 0001:0006da30       ??0?$output_processor@_WV?$string_output_adapter@_W@__crt_stdio_output@@V?$standard_base@_WV?$string_output_adapter@_W@__crt_stdio_output@@@2@@__crt_stdio_output@@QEAA@AEBV?$string_output_adapter@_W@1@_KQEB_WAEAV__crt_cached_ptd_host@@QEAD@Z 000000018006ea30 f i libucrtd:output.obj
 0001:0006da80       ??0?$stream_output_adapter@D@__crt_stdio_output@@QEAA@QEAU_iobuf@@@Z 000000018006ea80 f i libucrtd:output.obj
 0001:0006dac0       ??0?$stream_output_adapter@_W@__crt_stdio_output@@QEAA@QEAU_iobuf@@@Z 000000018006eac0 f i libucrtd:output.obj
 0001:0006db00       ??0?$string_output_adapter@D@__crt_stdio_output@@QEAA@QEAU?$string_output_adapter_context@D@1@@Z 000000018006eb00 f i libucrtd:output.obj
 0001:0006db20       ??0?$string_output_adapter@_W@__crt_stdio_output@@QEAA@QEAU?$string_output_adapter_context@_W@1@@Z 000000018006eb20 f i libucrtd:output.obj
 0001:0006db40       ??0__acrt_stdio_temporary_buffering_guard@@QEAA@QEAU_iobuf@@AEAV__crt_cached_ptd_host@@@Z 000000018006eb40 f i libucrtd:output.obj
 0001:0006db90       ??0__crt_cached_ptd_host@@QEAA@QEAU__crt_locale_pointers@@@Z 000000018006eb90 f i libucrtd:output.obj
 0001:0006dc50       ??0__crt_scoped_get_last_error_reset@@QEAA@XZ 000000018006ec50 f i libucrtd:output.obj
 0001:0006dc70       ??0__crt_stdio_stream@@QEAA@QEAU_iobuf@@@Z 000000018006ec70 f i libucrtd:output.obj
 0001:0006dc90       ??0formatting_buffer@__crt_stdio_output@@QEAA@XZ 000000018006ec90 f i libucrtd:output.obj
 0001:0006dcd0       ??0guard@?$cached@H@__crt_cached_ptd_host@@QEAA@AEAU12@@Z 000000018006ecd0 f i libucrtd:output.obj
 0001:0006dd10       ??1?$c_string_character_source@D@__crt_strtox@@QEAA@XZ 000000018006ed10 f i libucrtd:output.obj
 0001:0006dd40       ??1?$c_string_character_source@_W@__crt_strtox@@QEAA@XZ 000000018006ed40 f i libucrtd:output.obj
 0001:0006dd70       ??1?$common_data@D@__crt_stdio_output@@QEAA@XZ 000000018006ed70 f i libucrtd:output.obj
 0001:0006dd90       ??1?$common_data@_W@__crt_stdio_output@@QEAA@XZ 000000018006ed90 f i libucrtd:output.obj
 0001:0006ddb0       ??1?$format_validation_base@DV?$stream_output_adapter@D@__crt_stdio_output@@@__crt_stdio_output@@QEAA@XZ 000000018006edb0 f i libucrtd:output.obj
 0001:0006ddd0       ??1?$format_validation_base@DV?$string_output_adapter@D@__crt_stdio_output@@@__crt_stdio_output@@QEAA@XZ 000000018006edd0 f i libucrtd:output.obj
 0001:0006ddf0       ??1?$format_validation_base@_WV?$stream_output_adapter@_W@__crt_stdio_output@@@__crt_stdio_output@@QEAA@XZ 000000018006edf0 f i libucrtd:output.obj
 0001:0006de10       ??1?$format_validation_base@_WV?$string_output_adapter@_W@__crt_stdio_output@@@__crt_stdio_output@@QEAA@XZ 000000018006ee10 f i libucrtd:output.obj
 0001:0006de30       ??1?$output_adapter_data@DV?$stream_output_adapter@D@__crt_stdio_output@@@__crt_stdio_output@@QEAA@XZ 000000018006ee30 f i libucrtd:output.obj
 0001:0006de50       ??1?$output_adapter_data@DV?$string_output_adapter@D@__crt_stdio_output@@@__crt_stdio_output@@QEAA@XZ 000000018006ee50 f i libucrtd:output.obj
 0001:0006de70       ??1?$output_adapter_data@_WV?$stream_output_adapter@_W@__crt_stdio_output@@@__crt_stdio_output@@QEAA@XZ 000000018006ee70 f i libucrtd:output.obj
 0001:0006de90       ??1?$output_adapter_data@_WV?$string_output_adapter@_W@__crt_stdio_output@@@__crt_stdio_output@@QEAA@XZ 000000018006ee90 f i libucrtd:output.obj
 0001:0006deb0       ??1?$output_processor@DV?$stream_output_adapter@D@__crt_stdio_output@@V?$format_validation_base@DV?$stream_output_adapter@D@__crt_stdio_output@@@2@@__crt_stdio_output@@QEAA@XZ 000000018006eeb0 f i libucrtd:output.obj
 0001:0006ded0       ??1?$output_processor@DV?$stream_output_adapter@D@__crt_stdio_output@@V?$positional_parameter_base@DV?$stream_output_adapter@D@__crt_stdio_output@@@2@@__crt_stdio_output@@QEAA@XZ 000000018006eed0 f i libucrtd:output.obj
 0001:0006def0       ??1?$output_processor@DV?$stream_output_adapter@D@__crt_stdio_output@@V?$standard_base@DV?$stream_output_adapter@D@__crt_stdio_output@@@2@@__crt_stdio_output@@QEAA@XZ 000000018006eef0 f i libucrtd:output.obj
 0001:0006df10       ??1?$output_processor@DV?$string_output_adapter@D@__crt_stdio_output@@V?$format_validation_base@DV?$string_output_adapter@D@__crt_stdio_output@@@2@@__crt_stdio_output@@QEAA@XZ 000000018006ef10 f i libucrtd:output.obj
 0001:0006df30       ??1?$output_processor@DV?$string_output_adapter@D@__crt_stdio_output@@V?$positional_parameter_base@DV?$string_output_adapter@D@__crt_stdio_output@@@2@@__crt_stdio_output@@QEAA@XZ 000000018006ef30 f i libucrtd:output.obj
 0001:0006df50       ??1?$output_processor@DV?$string_output_adapter@D@__crt_stdio_output@@V?$standard_base@DV?$string_output_adapter@D@__crt_stdio_output@@@2@@__crt_stdio_output@@QEAA@XZ 000000018006ef50 f i libucrtd:output.obj
 0001:0006df70       ??1?$output_processor@_WV?$stream_output_adapter@_W@__crt_stdio_output@@V?$format_validation_base@_WV?$stream_output_adapter@_W@__crt_stdio_output@@@2@@__crt_stdio_output@@QEAA@XZ 000000018006ef70 f i libucrtd:output.obj
 0001:0006df90       ??1?$output_processor@_WV?$stream_output_adapter@_W@__crt_stdio_output@@V?$positional_parameter_base@_WV?$stream_output_adapter@_W@__crt_stdio_output@@@2@@__crt_stdio_output@@QEAA@XZ 000000018006ef90 f i libucrtd:output.obj
 0001:0006dfb0       ??1?$output_processor@_WV?$stream_output_adapter@_W@__crt_stdio_output@@V?$standard_base@_WV?$stream_output_adapter@_W@__crt_stdio_output@@@2@@__crt_stdio_output@@QEAA@XZ 000000018006efb0 f i libucrtd:output.obj
 0001:0006dfd0       ??1?$output_processor@_WV?$string_output_adapter@_W@__crt_stdio_output@@V?$format_validation_base@_WV?$string_output_adapter@_W@__crt_stdio_output@@@2@@__crt_stdio_output@@QEAA@XZ 000000018006efd0 f i libucrtd:output.obj
 0001:0006dff0       ??1?$output_processor@_WV?$string_output_adapter@_W@__crt_stdio_output@@V?$positional_parameter_base@_WV?$string_output_adapter@_W@__crt_stdio_output@@@2@@__crt_stdio_output@@QEAA@XZ 000000018006eff0 f i libucrtd:output.obj
 0001:0006e010       ??1?$output_processor@_WV?$string_output_adapter@_W@__crt_stdio_output@@V?$standard_base@_WV?$string_output_adapter@_W@__crt_stdio_output@@@2@@__crt_stdio_output@@QEAA@XZ 000000018006f010 f i libucrtd:output.obj
 0001:0006e030       ??1?$positional_parameter_base@DV?$stream_output_adapter@D@__crt_stdio_output@@@__crt_stdio_output@@QEAA@XZ 000000018006f030 f i libucrtd:output.obj
 0001:0006e050       ??1?$positional_parameter_base@DV?$string_output_adapter@D@__crt_stdio_output@@@__crt_stdio_output@@QEAA@XZ 000000018006f050 f i libucrtd:output.obj
 0001:0006e070       ??1?$positional_parameter_base@_WV?$stream_output_adapter@_W@__crt_stdio_output@@@__crt_stdio_output@@QEAA@XZ 000000018006f070 f i libucrtd:output.obj
 0001:0006e090       ??1?$positional_parameter_base@_WV?$string_output_adapter@_W@__crt_stdio_output@@@__crt_stdio_output@@QEAA@XZ 000000018006f090 f i libucrtd:output.obj
 0001:0006e0b0       ??1?$standard_base@DV?$stream_output_adapter@D@__crt_stdio_output@@@__crt_stdio_output@@QEAA@XZ 000000018006f0b0 f i libucrtd:output.obj
 0001:0006e0d0       ??1?$standard_base@DV?$string_output_adapter@D@__crt_stdio_output@@@__crt_stdio_output@@QEAA@XZ 000000018006f0d0 f i libucrtd:output.obj
 0001:0006e0f0       ??1?$standard_base@_WV?$stream_output_adapter@_W@__crt_stdio_output@@@__crt_stdio_output@@QEAA@XZ 000000018006f0f0 f i libucrtd:output.obj
 0001:0006e110       ??1?$standard_base@_WV?$string_output_adapter@_W@__crt_stdio_output@@@__crt_stdio_output@@QEAA@XZ 000000018006f110 f i libucrtd:output.obj
 0001:0006e130       ??1__acrt_stdio_temporary_buffering_guard@@QEAA@XZ 000000018006f130 f i libucrtd:output.obj
 0001:0006e160       ??1__crt_cached_ptd_host@@QEAA@XZ 000000018006f160 f i libucrtd:output.obj
 0001:0006e210       ??1__crt_scoped_get_last_error_reset@@QEAA@XZ 000000018006f210 f i libucrtd:output.obj
 0001:0006e230       ??1formatting_buffer@__crt_stdio_output@@QEAA@XZ 000000018006f230 f i libucrtd:output.obj
 0001:0006e260       ??1guard@?$cached@H@__crt_cached_ptd_host@@QEAA@XZ 000000018006f260 f i libucrtd:output.obj
 0001:0006e290       ??4?$__crt_unique_heap_ptr@DU__crt_internal_free_policy@@@@QEAAAEAV0@$$QEAV0@@Z 000000018006f290 f i libucrtd:output.obj
 0001:0006e2d0       ??A?$spectre_mitigated_lookup_table@Ustate_transition_pair@__crt_stdio_output@@$0IA@@__crt_stdio_output@@QEBAAEBUstate_transition_pair@1@_K@Z 000000018006f2d0 f i libucrtd:output.obj
 0001:0006e2f0       ??C__crt_stdio_stream@@QEBAPEAU__crt_stdio_stream_data@@XZ 000000018006f2f0 f i libucrtd:output.obj
 0001:0006eb40       ?__crt_interlocked_read_32@@YAHPEDH@Z 000000018006fb40 f i libucrtd:output.obj
 0001:0006eb60       ?adjust_hexit@?$output_processor@DV?$stream_output_adapter@D@__crt_stdio_output@@V?$format_validation_base@DV?$stream_output_adapter@D@__crt_stdio_output@@@2@@__crt_stdio_output@@CADH_N@Z 000000018006fb60 f i libucrtd:output.obj
 0001:0006ebb0       ?adjust_hexit@?$output_processor@DV?$stream_output_adapter@D@__crt_stdio_output@@V?$positional_parameter_base@DV?$stream_output_adapter@D@__crt_stdio_output@@@2@@__crt_stdio_output@@CADH_N@Z 000000018006fbb0 f i libucrtd:output.obj
 0001:0006ec00       ?adjust_hexit@?$output_processor@DV?$stream_output_adapter@D@__crt_stdio_output@@V?$standard_base@DV?$stream_output_adapter@D@__crt_stdio_output@@@2@@__crt_stdio_output@@CADH_N@Z 000000018006fc00 f i libucrtd:output.obj
 0001:0006ec50       ?adjust_hexit@?$output_processor@DV?$string_output_adapter@D@__crt_stdio_output@@V?$format_validation_base@DV?$string_output_adapter@D@__crt_stdio_output@@@2@@__crt_stdio_output@@CADH_N@Z 000000018006fc50 f i libucrtd:output.obj
 0001:0006eca0       ?adjust_hexit@?$output_processor@DV?$string_output_adapter@D@__crt_stdio_output@@V?$positional_parameter_base@DV?$string_output_adapter@D@__crt_stdio_output@@@2@@__crt_stdio_output@@CADH_N@Z 000000018006fca0 f i libucrtd:output.obj
 0001:0006ecf0       ?adjust_hexit@?$output_processor@DV?$string_output_adapter@D@__crt_stdio_output@@V?$standard_base@DV?$string_output_adapter@D@__crt_stdio_output@@@2@@__crt_stdio_output@@CADH_N@Z 000000018006fcf0 f i libucrtd:output.obj
 0001:0006ed40       ?adjust_hexit@?$output_processor@_WV?$stream_output_adapter@_W@__crt_stdio_output@@V?$format_validation_base@_WV?$stream_output_adapter@_W@__crt_stdio_output@@@2@@__crt_stdio_output@@CADH_N@Z 000000018006fd40 f i libucrtd:output.obj
 0001:0006ed90       ?adjust_hexit@?$output_processor@_WV?$stream_output_adapter@_W@__crt_stdio_output@@V?$positional_parameter_base@_WV?$stream_output_adapter@_W@__crt_stdio_output@@@2@@__crt_stdio_output@@CADH_N@Z 000000018006fd90 f i libucrtd:output.obj
 0001:0006ede0       ?adjust_hexit@?$output_processor@_WV?$stream_output_adapter@_W@__crt_stdio_output@@V?$standard_base@_WV?$stream_output_adapter@_W@__crt_stdio_output@@@2@@__crt_stdio_output@@CADH_N@Z 000000018006fde0 f i libucrtd:output.obj
 0001:0006ee30       ?adjust_hexit@?$output_processor@_WV?$string_output_adapter@_W@__crt_stdio_output@@V?$format_validation_base@_WV?$string_output_adapter@_W@__crt_stdio_output@@@2@@__crt_stdio_output@@CADH_N@Z 000000018006fe30 f i libucrtd:output.obj
 0001:0006ee80       ?adjust_hexit@?$output_processor@_WV?$string_output_adapter@_W@__crt_stdio_output@@V?$positional_parameter_base@_WV?$string_output_adapter@_W@__crt_stdio_output@@@2@@__crt_stdio_output@@CADH_N@Z 000000018006fe80 f i libucrtd:output.obj
 0001:0006eed0       ?adjust_hexit@?$output_processor@_WV?$string_output_adapter@_W@__crt_stdio_output@@V?$standard_base@_WV?$string_output_adapter@_W@__crt_stdio_output@@@2@@__crt_stdio_output@@CADH_N@Z 000000018006fed0 f i libucrtd:output.obj
 0001:0006ef20       ?advance_to_next_pass@?$positional_parameter_base@DV?$stream_output_adapter@D@__crt_stdio_output@@@__crt_stdio_output@@IEAA_NXZ 000000018006ff20 f i libucrtd:output.obj
 0001:0006efd0       ?advance_to_next_pass@?$positional_parameter_base@DV?$string_output_adapter@D@__crt_stdio_output@@@__crt_stdio_output@@IEAA_NXZ 000000018006ffd0 f i libucrtd:output.obj
 0001:0006f080       ?advance_to_next_pass@?$positional_parameter_base@_WV?$stream_output_adapter@_W@__crt_stdio_output@@@__crt_stdio_output@@IEAA_NXZ 0000000180070080 f i libucrtd:output.obj
 0001:0006f130       ?advance_to_next_pass@?$positional_parameter_base@_WV?$string_output_adapter@_W@__crt_stdio_output@@@__crt_stdio_output@@IEAA_NXZ 0000000180070130 f i libucrtd:output.obj
 0001:0006f1e0       ?advance_to_next_pass@?$standard_base@DV?$stream_output_adapter@D@__crt_stdio_output@@@__crt_stdio_output@@IEAA_NXZ 00000001800701e0 f i libucrtd:output.obj
 0001:0006f230       ?advance_to_next_pass@?$standard_base@DV?$string_output_adapter@D@__crt_stdio_output@@@__crt_stdio_output@@IEAA_NXZ 0000000180070230 f i libucrtd:output.obj
 0001:0006f280       ?advance_to_next_pass@?$standard_base@_WV?$stream_output_adapter@_W@__crt_stdio_output@@@__crt_stdio_output@@IEAA_NXZ 0000000180070280 f i libucrtd:output.obj
 0001:0006f2d0       ?advance_to_next_pass@?$standard_base@_WV?$string_output_adapter@_W@__crt_stdio_output@@@__crt_stdio_output@@IEAA_NXZ 00000001800702d0 f i libucrtd:output.obj
 0001:0006f320       ?check@?$cached@H@__crt_cached_ptd_host@@QEBA_NH@Z 0000000180070320 f i libucrtd:output.obj
 0001:0006f360       ?check_synchronize_global_state_index@__crt_cached_ptd_host@@AEAA_KAEBV__crt_scoped_get_last_error_reset@@@Z 0000000180070360 f i libucrtd:output.obj
 0001:0006f3a0       ?check_synchronize_per_thread_data@__crt_cached_ptd_host@@AEAAPEAU__acrt_ptd@@XZ 00000001800703a0 f i libucrtd:output.obj
 0001:0006f3e0       ?create_guard@?$cached@H@__crt_cached_ptd_host@@QEAA?AVguard@12@XZ 00000001800703e0 f i libucrtd:output.obj
 0001:0006f410       ?crop_zeroes@__crt_stdio_output@@YAXPEADQEAU__crt_locale_pointers@@@Z 0000000180070410 f i libucrtd:output.obj
 0001:0006f560       ?disable@guard@?$cached@H@__crt_cached_ptd_host@@QEAAXXZ 0000000180070560 f i libucrtd:output.obj
 0001:0006f570       ?enable@guard@?$cached@H@__crt_cached_ptd_host@@QEAAXXZ 0000000180070570 f i libucrtd:output.obj
 0001:0006f580       ?find_next_state@?$output_processor@DV?$stream_output_adapter@D@__crt_stdio_output@@V?$format_validation_base@DV?$stream_output_adapter@D@__crt_stdio_output@@@2@@__crt_stdio_output@@AEBA?AW4state@2@DW432@@Z 0000000180070580 f i libucrtd:output.obj
 0001:0006f620       ?find_next_state@?$output_processor@DV?$stream_output_adapter@D@__crt_stdio_output@@V?$positional_parameter_base@DV?$stream_output_adapter@D@__crt_stdio_output@@@2@@__crt_stdio_output@@AEBA?AW4state@2@DW432@@Z 0000000180070620 f i libucrtd:output.obj
 0001:0006f6c0       ?find_next_state@?$output_processor@DV?$stream_output_adapter@D@__crt_stdio_output@@V?$standard_base@DV?$stream_output_adapter@D@__crt_stdio_output@@@2@@__crt_stdio_output@@AEBA?AW4state@2@DW432@@Z 00000001800706c0 f i libucrtd:output.obj
 0001:0006f760       ?find_next_state@?$output_processor@DV?$string_output_adapter@D@__crt_stdio_output@@V?$format_validation_base@DV?$string_output_adapter@D@__crt_stdio_output@@@2@@__crt_stdio_output@@AEBA?AW4state@2@DW432@@Z 0000000180070760 f i libucrtd:output.obj
 0001:0006f800       ?find_next_state@?$output_processor@DV?$string_output_adapter@D@__crt_stdio_output@@V?$positional_parameter_base@DV?$string_output_adapter@D@__crt_stdio_output@@@2@@__crt_stdio_output@@AEBA?AW4state@2@DW432@@Z 0000000180070800 f i libucrtd:output.obj
 0001:0006f8a0       ?find_next_state@?$output_processor@DV?$string_output_adapter@D@__crt_stdio_output@@V?$standard_base@DV?$string_output_adapter@D@__crt_stdio_output@@@2@@__crt_stdio_output@@AEBA?AW4state@2@DW432@@Z 00000001800708a0 f i libucrtd:output.obj
 0001:0006f940       ?find_next_state@?$output_processor@_WV?$stream_output_adapter@_W@__crt_stdio_output@@V?$format_validation_base@_WV?$stream_output_adapter@_W@__crt_stdio_output@@@2@@__crt_stdio_output@@AEBA?AW4state@2@_WW432@@Z 0000000180070940 f i libucrtd:output.obj
 0001:0006f9e0       ?find_next_state@?$output_processor@_WV?$stream_output_adapter@_W@__crt_stdio_output@@V?$positional_parameter_base@_WV?$stream_output_adapter@_W@__crt_stdio_output@@@2@@__crt_stdio_output@@AEBA?AW4state@2@_WW432@@Z 00000001800709e0 f i libucrtd:output.obj
 0001:0006fa80       ?find_next_state@?$output_processor@_WV?$stream_output_adapter@_W@__crt_stdio_output@@V?$standard_base@_WV?$stream_output_adapter@_W@__crt_stdio_output@@@2@@__crt_stdio_output@@AEBA?AW4state@2@_WW432@@Z 0000000180070a80 f i libucrtd:output.obj
 0001:0006fb20       ?find_next_state@?$output_processor@_WV?$string_output_adapter@_W@__crt_stdio_output@@V?$format_validation_base@_WV?$string_output_adapter@_W@__crt_stdio_output@@@2@@__crt_stdio_output@@AEBA?AW4state@2@_WW432@@Z 0000000180070b20 f i libucrtd:output.obj
 0001:0006fbc0       ?find_next_state@?$output_processor@_WV?$string_output_adapter@_W@__crt_stdio_output@@V?$positional_parameter_base@_WV?$string_output_adapter@_W@__crt_stdio_output@@@2@@__crt_stdio_output@@AEBA?AW4state@2@_WW432@@Z 0000000180070bc0 f i libucrtd:output.obj
 0001:0006fc60       ?find_next_state@?$output_processor@_WV?$string_output_adapter@_W@__crt_stdio_output@@V?$standard_base@_WV?$string_output_adapter@_W@__crt_stdio_output@@@2@@__crt_stdio_output@@AEBA?AW4state@2@_WW432@@Z 0000000180070c60 f i libucrtd:output.obj
 0001:0006fd00       ?force_decimal_point@__crt_stdio_output@@YAXPEADQEAU__crt_locale_pointers@@@Z 0000000180070d00 f i libucrtd:output.obj
 0001:0006fe00       ?force_synchronize_global_state_index@__crt_cached_ptd_host@@AEAA_KAEBV__crt_scoped_get_last_error_reset@@@Z 0000000180070e00 f i libucrtd:output.obj
 0001:0006fe40       ?force_synchronize_per_thread_data@__crt_cached_ptd_host@@AEAAPEAU__acrt_ptd@@XZ 0000000180070e40 f i libucrtd:output.obj
 0001:0006fea0       ?get@?$c_string_character_source@D@__crt_strtox@@QEAADXZ 0000000180070ea0 f i libucrtd:output.obj
 0001:0006fee0       ?get@?$c_string_character_source@_W@__crt_strtox@@QEAA_WXZ 0000000180070ee0 f i libucrtd:output.obj
 0001:0006ff20       ?get_current_state_index@__crt_state_management@@YA_KAEBV__crt_scoped_get_last_error_reset@@@Z 0000000180070f20 f i libucrtd:output.obj
 0001:0006ff30       ?get_errno@__crt_cached_ptd_host@@QEAAAEAU?$cached@H@1@XZ 0000000180070f30 f i libucrtd:output.obj
 0001:0006ff40       ?get_flags@__crt_stdio_stream@@QEBAJXZ 0000000180070f40 f i libucrtd:output.obj
 0001:0006ff70       ?get_locale@__crt_cached_ptd_host@@QEAAPEAU__crt_locale_pointers@@XZ 0000000180070f70 f i libucrtd:output.obj
 0001:0006ffa0       ?get_parameter_type@?$positional_parameter_base@DV?$stream_output_adapter@D@__crt_stdio_output@@@__crt_stdio_output@@CA?AW4parameter_type@12@F@Z 0000000180070fa0 f i libucrtd:output.obj
 0001:0006ffb0       ?get_parameter_type@?$positional_parameter_base@DV?$stream_output_adapter@D@__crt_stdio_output@@@__crt_stdio_output@@CA?AW4parameter_type@12@G@Z 0000000180070fb0 f i libucrtd:output.obj
 0001:0006ffc0       ?get_parameter_type@?$positional_parameter_base@DV?$stream_output_adapter@D@__crt_stdio_output@@@__crt_stdio_output@@CA?AW4parameter_type@12@H@Z 0000000180070fc0 f i libucrtd:output.obj
 0001:0006ffd0       ?get_parameter_type@?$positional_parameter_base@DV?$stream_output_adapter@D@__crt_stdio_output@@@__crt_stdio_output@@CA?AW4parameter_type@12@I@Z 0000000180070fd0 f i libucrtd:output.obj
 0001:0006ffe0       ?get_parameter_type@?$positional_parameter_base@DV?$stream_output_adapter@D@__crt_stdio_output@@@__crt_stdio_output@@CA?AW4parameter_type@12@U_CRT_DOUBLE@@@Z 0000000180070fe0 f i libucrtd:output.obj
 0001:0006fff0       ?get_parameter_type@?$positional_parameter_base@DV?$stream_output_adapter@D@__crt_stdio_output@@@__crt_stdio_output@@CA?AW4parameter_type@12@_J@Z 0000000180070ff0 f i libucrtd:output.obj
 0001:00070000       ?get_parameter_type@?$positional_parameter_base@DV?$stream_output_adapter@D@__crt_stdio_output@@@__crt_stdio_output@@CA?AW4parameter_type@12@_K@Z 0000000180071000 f i libucrtd:output.obj
 0001:00070010       ?get_parameter_type@?$positional_parameter_base@DV?$stream_output_adapter@D@__crt_stdio_output@@@__crt_stdio_output@@CA?AW4parameter_type@12@_W@Z 0000000180071010 f i libucrtd:output.obj
 0001:00070020       ?get_parameter_type@?$positional_parameter_base@DV?$string_output_adapter@D@__crt_stdio_output@@@__crt_stdio_output@@CA?AW4parameter_type@12@F@Z 0000000180071020 f i libucrtd:output.obj
 0001:00070030       ?get_parameter_type@?$positional_parameter_base@DV?$string_output_adapter@D@__crt_stdio_output@@@__crt_stdio_output@@CA?AW4parameter_type@12@G@Z 0000000180071030 f i libucrtd:output.obj
 0001:00070040       ?get_parameter_type@?$positional_parameter_base@DV?$string_output_adapter@D@__crt_stdio_output@@@__crt_stdio_output@@CA?AW4parameter_type@12@H@Z 0000000180071040 f i libucrtd:output.obj
 0001:00070050       ?get_parameter_type@?$positional_parameter_base@DV?$string_output_adapter@D@__crt_stdio_output@@@__crt_stdio_output@@CA?AW4parameter_type@12@I@Z 0000000180071050 f i libucrtd:output.obj
 0001:00070060       ?get_parameter_type@?$positional_parameter_base@DV?$string_output_adapter@D@__crt_stdio_output@@@__crt_stdio_output@@CA?AW4parameter_type@12@U_CRT_DOUBLE@@@Z 0000000180071060 f i libucrtd:output.obj
 0001:00070070       ?get_parameter_type@?$positional_parameter_base@DV?$string_output_adapter@D@__crt_stdio_output@@@__crt_stdio_output@@CA?AW4parameter_type@12@_J@Z 0000000180071070 f i libucrtd:output.obj
 0001:00070080       ?get_parameter_type@?$positional_parameter_base@DV?$string_output_adapter@D@__crt_stdio_output@@@__crt_stdio_output@@CA?AW4parameter_type@12@_K@Z 0000000180071080 f i libucrtd:output.obj
 0001:00070090       ?get_parameter_type@?$positional_parameter_base@DV?$string_output_adapter@D@__crt_stdio_output@@@__crt_stdio_output@@CA?AW4parameter_type@12@_W@Z 0000000180071090 f i libucrtd:output.obj
 0001:000700a0       ?get_parameter_type@?$positional_parameter_base@_WV?$stream_output_adapter@_W@__crt_stdio_output@@@__crt_stdio_output@@CA?AW4parameter_type@12@F@Z 00000001800710a0 f i libucrtd:output.obj
 0001:000700b0       ?get_parameter_type@?$positional_parameter_base@_WV?$stream_output_adapter@_W@__crt_stdio_output@@@__crt_stdio_output@@CA?AW4parameter_type@12@G@Z 00000001800710b0 f i libucrtd:output.obj
 0001:000700c0       ?get_parameter_type@?$positional_parameter_base@_WV?$stream_output_adapter@_W@__crt_stdio_output@@@__crt_stdio_output@@CA?AW4parameter_type@12@H@Z 00000001800710c0 f i libucrtd:output.obj
 0001:000700d0       ?get_parameter_type@?$positional_parameter_base@_WV?$stream_output_adapter@_W@__crt_stdio_output@@@__crt_stdio_output@@CA?AW4parameter_type@12@I@Z 00000001800710d0 f i libucrtd:output.obj
 0001:000700e0       ?get_parameter_type@?$positional_parameter_base@_WV?$stream_output_adapter@_W@__crt_stdio_output@@@__crt_stdio_output@@CA?AW4parameter_type@12@U_CRT_DOUBLE@@@Z 00000001800710e0 f i libucrtd:output.obj
 0001:000700f0       ?get_parameter_type@?$positional_parameter_base@_WV?$stream_output_adapter@_W@__crt_stdio_output@@@__crt_stdio_output@@CA?AW4parameter_type@12@_J@Z 00000001800710f0 f i libucrtd:output.obj
 0001:00070100       ?get_parameter_type@?$positional_parameter_base@_WV?$stream_output_adapter@_W@__crt_stdio_output@@@__crt_stdio_output@@CA?AW4parameter_type@12@_K@Z 0000000180071100 f i libucrtd:output.obj
 0001:00070110       ?get_parameter_type@?$positional_parameter_base@_WV?$stream_output_adapter@_W@__crt_stdio_output@@@__crt_stdio_output@@CA?AW4parameter_type@12@_W@Z 0000000180071110 f i libucrtd:output.obj
 0001:00070120       ?get_parameter_type@?$positional_parameter_base@_WV?$string_output_adapter@_W@__crt_stdio_output@@@__crt_stdio_output@@CA?AW4parameter_type@12@F@Z 0000000180071120 f i libucrtd:output.obj
 0001:00070130       ?get_parameter_type@?$positional_parameter_base@_WV?$string_output_adapter@_W@__crt_stdio_output@@@__crt_stdio_output@@CA?AW4parameter_type@12@G@Z 0000000180071130 f i libucrtd:output.obj
 0001:00070140       ?get_parameter_type@?$positional_parameter_base@_WV?$string_output_adapter@_W@__crt_stdio_output@@@__crt_stdio_output@@CA?AW4parameter_type@12@H@Z 0000000180071140 f i libucrtd:output.obj
 0001:00070150       ?get_parameter_type@?$positional_parameter_base@_WV?$string_output_adapter@_W@__crt_stdio_output@@@__crt_stdio_output@@CA?AW4parameter_type@12@I@Z 0000000180071150 f i libucrtd:output.obj
 0001:00070160       ?get_parameter_type@?$positional_parameter_base@_WV?$string_output_adapter@_W@__crt_stdio_output@@@__crt_stdio_output@@CA?AW4parameter_type@12@U_CRT_DOUBLE@@@Z 0000000180071160 f i libucrtd:output.obj
 0001:00070170       ?get_parameter_type@?$positional_parameter_base@_WV?$string_output_adapter@_W@__crt_stdio_output@@@__crt_stdio_output@@CA?AW4parameter_type@12@_J@Z 0000000180071170 f i libucrtd:output.obj
 0001:00070180       ?get_parameter_type@?$positional_parameter_base@_WV?$string_output_adapter@_W@__crt_stdio_output@@@__crt_stdio_output@@CA?AW4parameter_type@12@_K@Z 0000000180071180 f i libucrtd:output.obj
 0001:00070190       ?get_parameter_type@?$positional_parameter_base@_WV?$string_output_adapter@_W@__crt_stdio_output@@@__crt_stdio_output@@CA?AW4parameter_type@12@_W@Z 0000000180071190 f i libucrtd:output.obj
 0001:000701a0       ?get_raw_ptd@__crt_cached_ptd_host@@QEAAPEAU__acrt_ptd@@XZ 00000001800711a0 f i libucrtd:output.obj
 0001:000701c0       ?has_flag@?$output_processor@DV?$stream_output_adapter@D@__crt_stdio_output@@V?$format_validation_base@DV?$stream_output_adapter@D@__crt_stdio_output@@@2@@__crt_stdio_output@@AEBA_NI@Z 00000001800711c0 f i libucrtd:output.obj
 0001:00070200       ?has_flag@?$output_processor@DV?$stream_output_adapter@D@__crt_stdio_output@@V?$positional_parameter_base@DV?$stream_output_adapter@D@__crt_stdio_output@@@2@@__crt_stdio_output@@AEBA_NI@Z 0000000180071200 f i libucrtd:output.obj
 0001:00070240       ?has_flag@?$output_processor@DV?$stream_output_adapter@D@__crt_stdio_output@@V?$standard_base@DV?$stream_output_adapter@D@__crt_stdio_output@@@2@@__crt_stdio_output@@AEBA_NI@Z 0000000180071240 f i libucrtd:output.obj
 0001:00070280       ?has_flag@?$output_processor@DV?$string_output_adapter@D@__crt_stdio_output@@V?$format_validation_base@DV?$string_output_adapter@D@__crt_stdio_output@@@2@@__crt_stdio_output@@AEBA_NI@Z 0000000180071280 f i libucrtd:output.obj
 0001:000702c0       ?has_flag@?$output_processor@DV?$string_output_adapter@D@__crt_stdio_output@@V?$positional_parameter_base@DV?$string_output_adapter@D@__crt_stdio_output@@@2@@__crt_stdio_output@@AEBA_NI@Z 00000001800712c0 f i libucrtd:output.obj
 0001:00070300       ?has_flag@?$output_processor@DV?$string_output_adapter@D@__crt_stdio_output@@V?$standard_base@DV?$string_output_adapter@D@__crt_stdio_output@@@2@@__crt_stdio_output@@AEBA_NI@Z 0000000180071300 f i libucrtd:output.obj
 0001:00070340       ?has_flag@?$output_processor@_WV?$stream_output_adapter@_W@__crt_stdio_output@@V?$format_validation_base@_WV?$stream_output_adapter@_W@__crt_stdio_output@@@2@@__crt_stdio_output@@AEBA_NI@Z 0000000180071340 f i libucrtd:output.obj
 0001:00070380       ?has_flag@?$output_processor@_WV?$stream_output_adapter@_W@__crt_stdio_output@@V?$positional_parameter_base@_WV?$stream_output_adapter@_W@__crt_stdio_output@@@2@@__crt_stdio_output@@AEBA_NI@Z 0000000180071380 f i libucrtd:output.obj
 0001:000703c0       ?has_flag@?$output_processor@_WV?$stream_output_adapter@_W@__crt_stdio_output@@V?$standard_base@_WV?$stream_output_adapter@_W@__crt_stdio_output@@@2@@__crt_stdio_output@@AEBA_NI@Z 00000001800713c0 f i libucrtd:output.obj
 0001:00070400       ?has_flag@?$output_processor@_WV?$string_output_adapter@_W@__crt_stdio_output@@V?$format_validation_base@_WV?$string_output_adapter@_W@__crt_stdio_output@@@2@@__crt_stdio_output@@AEBA_NI@Z 0000000180071400 f i libucrtd:output.obj
 0001:00070440       ?has_flag@?$output_processor@_WV?$string_output_adapter@_W@__crt_stdio_output@@V?$positional_parameter_base@_WV?$string_output_adapter@_W@__crt_stdio_output@@@2@@__crt_stdio_output@@AEBA_NI@Z 0000000180071440 f i libucrtd:output.obj
 0001:00070480       ?has_flag@?$output_processor@_WV?$string_output_adapter@_W@__crt_stdio_output@@V?$standard_base@_WV?$string_output_adapter@_W@__crt_stdio_output@@@2@@__crt_stdio_output@@AEBA_NI@Z 0000000180071480 f i libucrtd:output.obj
 0001:000704c0       ?is_positional_parameter_reappearance_consistent@?$positional_parameter_base@DV?$stream_output_adapter@D@__crt_stdio_output@@@__crt_stdio_output@@AEAA_NAEBUparameter_data@12@W4parameter_type@12@DW4length_modifier@2@@Z 00000001800714c0 f i libucrtd:output.obj
 0001:00070720       ?is_positional_parameter_reappearance_consistent@?$positional_parameter_base@DV?$string_output_adapter@D@__crt_stdio_output@@@__crt_stdio_output@@AEAA_NAEBUparameter_data@12@W4parameter_type@12@DW4length_modifier@2@@Z 0000000180071720 f i libucrtd:output.obj
 0001:00070980       ?is_positional_parameter_reappearance_consistent@?$positional_parameter_base@_WV?$stream_output_adapter@_W@__crt_stdio_output@@@__crt_stdio_output@@AEAA_NAEBUparameter_data@12@W4parameter_type@12@_WW4length_modifier@2@@Z 0000000180071980 f i libucrtd:output.obj
 0001:00070be0       ?is_positional_parameter_reappearance_consistent@?$positional_parameter_base@_WV?$string_output_adapter@_W@__crt_stdio_output@@@__crt_stdio_output@@AEAA_NAEBUparameter_data@12@W4parameter_type@12@_WW4length_modifier@2@@Z 0000000180071be0 f i libucrtd:output.obj
 0001:00070e40       ?is_string_backed@__crt_stdio_stream@@QEBA_NXZ 0000000180071e40 f i libucrtd:output.obj
 0001:00070e80       ?maximum_signed_value@__crt_strtox@@YAJK@Z 0000000180071e80 f i libucrtd:output.obj
 0001:00070e90       ?minimum_signed_value@__crt_strtox@@YAJK@Z 0000000180071e90 f i libucrtd:output.obj
 0001:00070ea0       ?narrow_null_string@?$output_processor@DV?$stream_output_adapter@D@__crt_stdio_output@@V?$format_validation_base@DV?$stream_output_adapter@D@__crt_stdio_output@@@2@@__crt_stdio_output@@CAPEADXZ 0000000180071ea0 f i libucrtd:output.obj
 0001:00070eb0       ?narrow_null_string@?$output_processor@DV?$stream_output_adapter@D@__crt_stdio_output@@V?$positional_parameter_base@DV?$stream_output_adapter@D@__crt_stdio_output@@@2@@__crt_stdio_output@@CAPEADXZ 0000000180071eb0 f i libucrtd:output.obj
 0001:00070ec0       ?narrow_null_string@?$output_processor@DV?$stream_output_adapter@D@__crt_stdio_output@@V?$standard_base@DV?$stream_output_adapter@D@__crt_stdio_output@@@2@@__crt_stdio_output@@CAPEADXZ 0000000180071ec0 f i libucrtd:output.obj
 0001:00070ed0       ?narrow_null_string@?$output_processor@DV?$string_output_adapter@D@__crt_stdio_output@@V?$format_validation_base@DV?$string_output_adapter@D@__crt_stdio_output@@@2@@__crt_stdio_output@@CAPEADXZ 0000000180071ed0 f i libucrtd:output.obj
 0001:00070ee0       ?narrow_null_string@?$output_processor@DV?$string_output_adapter@D@__crt_stdio_output@@V?$positional_parameter_base@DV?$string_output_adapter@D@__crt_stdio_output@@@2@@__crt_stdio_output@@CAPEADXZ 0000000180071ee0 f i libucrtd:output.obj
 0001:00070ef0       ?narrow_null_string@?$output_processor@DV?$string_output_adapter@D@__crt_stdio_output@@V?$standard_base@DV?$string_output_adapter@D@__crt_stdio_output@@@2@@__crt_stdio_output@@CAPEADXZ 0000000180071ef0 f i libucrtd:output.obj
 0001:00070f00       ?narrow_null_string@?$output_processor@_WV?$stream_output_adapter@_W@__crt_stdio_output@@V?$format_validation_base@_WV?$stream_output_adapter@_W@__crt_stdio_output@@@2@@__crt_stdio_output@@CAPEADXZ 0000000180071f00 f i libucrtd:output.obj
 0001:00070f10       ?narrow_null_string@?$output_processor@_WV?$stream_output_adapter@_W@__crt_stdio_output@@V?$positional_parameter_base@_WV?$stream_output_adapter@_W@__crt_stdio_output@@@2@@__crt_stdio_output@@CAPEADXZ 0000000180071f10 f i libucrtd:output.obj
 0001:00070f20       ?narrow_null_string@?$output_processor@_WV?$stream_output_adapter@_W@__crt_stdio_output@@V?$standard_base@_WV?$stream_output_adapter@_W@__crt_stdio_output@@@2@@__crt_stdio_output@@CAPEADXZ 0000000180071f20 f i libucrtd:output.obj
 0001:00070f30       ?narrow_null_string@?$output_processor@_WV?$string_output_adapter@_W@__crt_stdio_output@@V?$format_validation_base@_WV?$string_output_adapter@_W@__crt_stdio_output@@@2@@__crt_stdio_output@@CAPEADXZ 0000000180071f30 f i libucrtd:output.obj
 0001:00070f40       ?narrow_null_string@?$output_processor@_WV?$string_output_adapter@_W@__crt_stdio_output@@V?$positional_parameter_base@_WV?$string_output_adapter@_W@__crt_stdio_output@@@2@@__crt_stdio_output@@CAPEADXZ 0000000180071f40 f i libucrtd:output.obj
 0001:00070f50       ?narrow_null_string@?$output_processor@_WV?$string_output_adapter@_W@__crt_stdio_output@@V?$standard_base@_WV?$string_output_adapter@_W@__crt_stdio_output@@@2@@__crt_stdio_output@@CAPEADXZ 0000000180071f50 f i libucrtd:output.obj
 0001:00070f60       ?parse_digit@__crt_strtox@@YAID@Z 0000000180071f60 f i libucrtd:output.obj
 0001:00070fd0       ?parse_digit@__crt_strtox@@YAI_W@Z 0000000180071fd0 f i libucrtd:output.obj
 0001:00071020       ?parse_int_from_format_string@?$output_processor@DV?$stream_output_adapter@D@__crt_stdio_output@@V?$format_validation_base@DV?$stream_output_adapter@D@__crt_stdio_output@@@2@@__crt_stdio_output@@AEAA_NQEAH@Z 0000000180072020 f i libucrtd:output.obj
 0001:00071120       ?parse_int_from_format_string@?$output_processor@DV?$stream_output_adapter@D@__crt_stdio_output@@V?$positional_parameter_base@DV?$stream_output_adapter@D@__crt_stdio_output@@@2@@__crt_stdio_output@@AEAA_NQEAH@Z 0000000180072120 f i libucrtd:output.obj
 0001:00071220       ?parse_int_from_format_string@?$output_processor@DV?$stream_output_adapter@D@__crt_stdio_output@@V?$standard_base@DV?$stream_output_adapter@D@__crt_stdio_output@@@2@@__crt_stdio_output@@AEAA_NQEAH@Z 0000000180072220 f i libucrtd:output.obj
 0001:00071320       ?parse_int_from_format_string@?$output_processor@DV?$string_output_adapter@D@__crt_stdio_output@@V?$format_validation_base@DV?$string_output_adapter@D@__crt_stdio_output@@@2@@__crt_stdio_output@@AEAA_NQEAH@Z 0000000180072320 f i libucrtd:output.obj
 0001:00071420       ?parse_int_from_format_string@?$output_processor@DV?$string_output_adapter@D@__crt_stdio_output@@V?$positional_parameter_base@DV?$string_output_adapter@D@__crt_stdio_output@@@2@@__crt_stdio_output@@AEAA_NQEAH@Z 0000000180072420 f i libucrtd:output.obj
 0001:00071520       ?parse_int_from_format_string@?$output_processor@DV?$string_output_adapter@D@__crt_stdio_output@@V?$standard_base@DV?$string_output_adapter@D@__crt_stdio_output@@@2@@__crt_stdio_output@@AEAA_NQEAH@Z 0000000180072520 f i libucrtd:output.obj
 0001:00071620       ?parse_int_from_format_string@?$output_processor@_WV?$stream_output_adapter@_W@__crt_stdio_output@@V?$format_validation_base@_WV?$stream_output_adapter@_W@__crt_stdio_output@@@2@@__crt_stdio_output@@AEAA_NQEAH@Z 0000000180072620 f i libucrtd:output.obj
 0001:00071720       ?parse_int_from_format_string@?$output_processor@_WV?$stream_output_adapter@_W@__crt_stdio_output@@V?$positional_parameter_base@_WV?$stream_output_adapter@_W@__crt_stdio_output@@@2@@__crt_stdio_output@@AEAA_NQEAH@Z 0000000180072720 f i libucrtd:output.obj
 0001:00071820       ?parse_int_from_format_string@?$output_processor@_WV?$stream_output_adapter@_W@__crt_stdio_output@@V?$standard_base@_WV?$stream_output_adapter@_W@__crt_stdio_output@@@2@@__crt_stdio_output@@AEAA_NQEAH@Z 0000000180072820 f i libucrtd:output.obj
 0001:00071920       ?parse_int_from_format_string@?$output_processor@_WV?$string_output_adapter@_W@__crt_stdio_output@@V?$format_validation_base@_WV?$string_output_adapter@_W@__crt_stdio_output@@@2@@__crt_stdio_output@@AEAA_NQEAH@Z 0000000180072920 f i libucrtd:output.obj
 0001:00071a20       ?parse_int_from_format_string@?$output_processor@_WV?$string_output_adapter@_W@__crt_stdio_output@@V?$positional_parameter_base@_WV?$string_output_adapter@_W@__crt_stdio_output@@@2@@__crt_stdio_output@@AEAA_NQEAH@Z 0000000180072a20 f i libucrtd:output.obj
 0001:00071b20       ?parse_int_from_format_string@?$output_processor@_WV?$string_output_adapter@_W@__crt_stdio_output@@V?$standard_base@_WV?$string_output_adapter@_W@__crt_stdio_output@@@2@@__crt_stdio_output@@AEAA_NQEAH@Z 0000000180072b20 f i libucrtd:output.obj
 0001:00071c20       ?process@?$output_processor@DV?$stream_output_adapter@D@__crt_stdio_output@@V?$format_validation_base@DV?$stream_output_adapter@D@__crt_stdio_output@@@2@@__crt_stdio_output@@QEAAHXZ 0000000180072c20 f i libucrtd:output.obj
 0001:00071fe0       ?process@?$output_processor@DV?$stream_output_adapter@D@__crt_stdio_output@@V?$positional_parameter_base@DV?$stream_output_adapter@D@__crt_stdio_output@@@2@@__crt_stdio_output@@QEAAHXZ 0000000180072fe0 f i libucrtd:output.obj
 0001:000723a0       ?process@?$output_processor@DV?$stream_output_adapter@D@__crt_stdio_output@@V?$standard_base@DV?$stream_output_adapter@D@__crt_stdio_output@@@2@@__crt_stdio_output@@QEAAHXZ 00000001800733a0 f i libucrtd:output.obj
 0001:00072760       ?process@?$output_processor@DV?$string_output_adapter@D@__crt_stdio_output@@V?$format_validation_base@DV?$string_output_adapter@D@__crt_stdio_output@@@2@@__crt_stdio_output@@QEAAHXZ 0000000180073760 f i libucrtd:output.obj
 0001:00072b20       ?process@?$output_processor@DV?$string_output_adapter@D@__crt_stdio_output@@V?$positional_parameter_base@DV?$string_output_adapter@D@__crt_stdio_output@@@2@@__crt_stdio_output@@QEAAHXZ 0000000180073b20 f i libucrtd:output.obj
 0001:00072ee0       ?process@?$output_processor@DV?$string_output_adapter@D@__crt_stdio_output@@V?$standard_base@DV?$string_output_adapter@D@__crt_stdio_output@@@2@@__crt_stdio_output@@QEAAHXZ 0000000180073ee0 f i libucrtd:output.obj
 0001:000732a0       ?process@?$output_processor@_WV?$stream_output_adapter@_W@__crt_stdio_output@@V?$format_validation_base@_WV?$stream_output_adapter@_W@__crt_stdio_output@@@2@@__crt_stdio_output@@QEAAHXZ 00000001800742a0 f i libucrtd:output.obj
 0001:00073660       ?process@?$output_processor@_WV?$stream_output_adapter@_W@__crt_stdio_output@@V?$positional_parameter_base@_WV?$stream_output_adapter@_W@__crt_stdio_output@@@2@@__crt_stdio_output@@QEAAHXZ 0000000180074660 f i libucrtd:output.obj
 0001:00073a20       ?process@?$output_processor@_WV?$stream_output_adapter@_W@__crt_stdio_output@@V?$standard_base@_WV?$stream_output_adapter@_W@__crt_stdio_output@@@2@@__crt_stdio_output@@QEAAHXZ 0000000180074a20 f i libucrtd:output.obj
 0001:00073de0       ?process@?$output_processor@_WV?$string_output_adapter@_W@__crt_stdio_output@@V?$format_validation_base@_WV?$string_output_adapter@_W@__crt_stdio_output@@@2@@__crt_stdio_output@@QEAAHXZ 0000000180074de0 f i libucrtd:output.obj
 0001:000741a0       ?process@?$output_processor@_WV?$string_output_adapter@_W@__crt_stdio_output@@V?$positional_parameter_base@_WV?$string_output_adapter@_W@__crt_stdio_output@@@2@@__crt_stdio_output@@QEAAHXZ 00000001800751a0 f i libucrtd:output.obj
 0001:00074560       ?process@?$output_processor@_WV?$string_output_adapter@_W@__crt_stdio_output@@V?$standard_base@_WV?$string_output_adapter@_W@__crt_stdio_output@@@2@@__crt_stdio_output@@QEAAHXZ 0000000180075560 f i libucrtd:output.obj
 0001:00074920       ?public_stream@__crt_stdio_stream@@QEBAPEAU_iobuf@@XZ 0000000180075920 f i libucrtd:output.obj
 0001:00074930       ?restore_state@?$c_string_character_source@D@__crt_strtox@@QEAA_NQEBD@Z 0000000180075930 f i libucrtd:output.obj
 0001:00074950       ?restore_state@?$c_string_character_source@_W@__crt_strtox@@QEAA_NQEB_W@Z 0000000180075950 f i libucrtd:output.obj
 0001:00074970       ?save_state@?$c_string_character_source@D@__crt_strtox@@QEBAPEBDXZ 0000000180075970 f i libucrtd:output.obj
 0001:00074980       ?save_state@?$c_string_character_source@_W@__crt_strtox@@QEBAPEB_WXZ 0000000180075980 f i libucrtd:output.obj
 0001:00074990       ?set@?$cached@H@__crt_cached_ptd_host@@QEAAHH@Z 0000000180075990 f i libucrtd:output.obj
 0001:000749c0       ?set_flag@?$output_processor@DV?$stream_output_adapter@D@__crt_stdio_output@@V?$format_validation_base@DV?$stream_output_adapter@D@__crt_stdio_output@@@2@@__crt_stdio_output@@AEAAXI@Z 00000001800759c0 f i libucrtd:output.obj
 0001:000749e0       ?set_flag@?$output_processor@DV?$stream_output_adapter@D@__crt_stdio_output@@V?$positional_parameter_base@DV?$stream_output_adapter@D@__crt_stdio_output@@@2@@__crt_stdio_output@@AEAAXI@Z 00000001800759e0 f i libucrtd:output.obj
 0001:00074a00       ?set_flag@?$output_processor@DV?$stream_output_adapter@D@__crt_stdio_output@@V?$standard_base@DV?$stream_output_adapter@D@__crt_stdio_output@@@2@@__crt_stdio_output@@AEAAXI@Z 0000000180075a00 f i libucrtd:output.obj
 0001:00074a20       ?set_flag@?$output_processor@DV?$string_output_adapter@D@__crt_stdio_output@@V?$format_validation_base@DV?$string_output_adapter@D@__crt_stdio_output@@@2@@__crt_stdio_output@@AEAAXI@Z 0000000180075a20 f i libucrtd:output.obj
 0001:00074a40       ?set_flag@?$output_processor@DV?$string_output_adapter@D@__crt_stdio_output@@V?$positional_parameter_base@DV?$string_output_adapter@D@__crt_stdio_output@@@2@@__crt_stdio_output@@AEAAXI@Z 0000000180075a40 f i libucrtd:output.obj
 0001:00074a60       ?set_flag@?$output_processor@DV?$string_output_adapter@D@__crt_stdio_output@@V?$standard_base@DV?$string_output_adapter@D@__crt_stdio_output@@@2@@__crt_stdio_output@@AEAAXI@Z 0000000180075a60 f i libucrtd:output.obj
 0001:00074a80       ?set_flag@?$output_processor@_WV?$stream_output_adapter@_W@__crt_stdio_output@@V?$format_validation_base@_WV?$stream_output_adapter@_W@__crt_stdio_output@@@2@@__crt_stdio_output@@AEAAXI@Z 0000000180075a80 f i libucrtd:output.obj
 0001:00074aa0       ?set_flag@?$output_processor@_WV?$stream_output_adapter@_W@__crt_stdio_output@@V?$positional_parameter_base@_WV?$stream_output_adapter@_W@__crt_stdio_output@@@2@@__crt_stdio_output@@AEAAXI@Z 0000000180075aa0 f i libucrtd:output.obj
 0001:00074ac0       ?set_flag@?$output_processor@_WV?$stream_output_adapter@_W@__crt_stdio_output@@V?$standard_base@_WV?$stream_output_adapter@_W@__crt_stdio_output@@@2@@__crt_stdio_output@@AEAAXI@Z 0000000180075ac0 f i libucrtd:output.obj
 0001:00074ae0       ?set_flag@?$output_processor@_WV?$string_output_adapter@_W@__crt_stdio_output@@V?$format_validation_base@_WV?$string_output_adapter@_W@__crt_stdio_output@@@2@@__crt_stdio_output@@AEAAXI@Z 0000000180075ae0 f i libucrtd:output.obj
 0001:00074b00       ?set_flag@?$output_processor@_WV?$string_output_adapter@_W@__crt_stdio_output@@V?$positional_parameter_base@_WV?$string_output_adapter@_W@__crt_stdio_output@@@2@@__crt_stdio_output@@AEAAXI@Z 0000000180075b00 f i libucrtd:output.obj
 0001:00074b20       ?set_flag@?$output_processor@_WV?$string_output_adapter@_W@__crt_stdio_output@@V?$standard_base@_WV?$string_output_adapter@_W@__crt_stdio_output@@@2@@__crt_stdio_output@@AEAAXI@Z 0000000180075b20 f i libucrtd:output.obj
 0001:00074b40       ?should_format@?$positional_parameter_base@DV?$stream_output_adapter@D@__crt_stdio_output@@@__crt_stdio_output@@IEAA_NXZ 0000000180075b40 f i libucrtd:output.obj
 0001:00074b80       ?should_format@?$positional_parameter_base@DV?$string_output_adapter@D@__crt_stdio_output@@@__crt_stdio_output@@IEAA_NXZ 0000000180075b80 f i libucrtd:output.obj
 0001:00074bc0       ?should_format@?$positional_parameter_base@_WV?$stream_output_adapter@_W@__crt_stdio_output@@@__crt_stdio_output@@IEAA_NXZ 0000000180075bc0 f i libucrtd:output.obj
 0001:00074c00       ?should_format@?$positional_parameter_base@_WV?$string_output_adapter@_W@__crt_stdio_output@@@__crt_stdio_output@@IEAA_NXZ 0000000180075c00 f i libucrtd:output.obj
 0001:00074c40       ?should_format@?$standard_base@DV?$stream_output_adapter@D@__crt_stdio_output@@@__crt_stdio_output@@IEAA_NXZ 0000000180075c40 f i libucrtd:output.obj
 0001:00074c50       ?should_format@?$standard_base@DV?$string_output_adapter@D@__crt_stdio_output@@@__crt_stdio_output@@IEAA_NXZ 0000000180075c50 f i libucrtd:output.obj
 0001:00074c60       ?should_format@?$standard_base@_WV?$stream_output_adapter@_W@__crt_stdio_output@@@__crt_stdio_output@@IEAA_NXZ 0000000180075c60 f i libucrtd:output.obj
 0001:00074c70       ?should_format@?$standard_base@_WV?$string_output_adapter@_W@__crt_stdio_output@@@__crt_stdio_output@@IEAA_NXZ 0000000180075c70 f i libucrtd:output.obj
 0001:00074c80       ?should_skip_normal_state_processing@?$positional_parameter_base@DV?$stream_output_adapter@D@__crt_stdio_output@@@__crt_stdio_output@@IEAA_NXZ 0000000180075c80 f i libucrtd:output.obj
 0001:00074cd0       ?should_skip_normal_state_processing@?$positional_parameter_base@DV?$string_output_adapter@D@__crt_stdio_output@@@__crt_stdio_output@@IEAA_NXZ 0000000180075cd0 f i libucrtd:output.obj
 0001:00074d20       ?should_skip_normal_state_processing@?$positional_parameter_base@_WV?$stream_output_adapter@_W@__crt_stdio_output@@@__crt_stdio_output@@IEAA_NXZ 0000000180075d20 f i libucrtd:output.obj
 0001:00074d70       ?should_skip_normal_state_processing@?$positional_parameter_base@_WV?$string_output_adapter@_W@__crt_stdio_output@@@__crt_stdio_output@@IEAA_NXZ 0000000180075d70 f i libucrtd:output.obj
 0001:00074dc0       ?should_skip_normal_state_processing@?$standard_base@DV?$stream_output_adapter@D@__crt_stdio_output@@@__crt_stdio_output@@IEAA_NXZ 0000000180075dc0 f i libucrtd:output.obj
 0001:00074dd0       ?should_skip_normal_state_processing@?$standard_base@DV?$string_output_adapter@D@__crt_stdio_output@@@__crt_stdio_output@@IEAA_NXZ 0000000180075dd0 f i libucrtd:output.obj
 0001:00074de0       ?should_skip_normal_state_processing@?$standard_base@_WV?$stream_output_adapter@_W@__crt_stdio_output@@@__crt_stdio_output@@IEAA_NXZ 0000000180075de0 f i libucrtd:output.obj
 0001:00074df0       ?should_skip_normal_state_processing@?$standard_base@_WV?$string_output_adapter@_W@__crt_stdio_output@@@__crt_stdio_output@@IEAA_NXZ 0000000180075df0 f i libucrtd:output.obj
 0001:00074e00       ?should_skip_type_state_output@?$positional_parameter_base@DV?$stream_output_adapter@D@__crt_stdio_output@@@__crt_stdio_output@@IEBA_NXZ 0000000180075e00 f i libucrtd:output.obj
 0001:00074e40       ?should_skip_type_state_output@?$positional_parameter_base@DV?$string_output_adapter@D@__crt_stdio_output@@@__crt_stdio_output@@IEBA_NXZ 0000000180075e40 f i libucrtd:output.obj
 0001:00074e80       ?should_skip_type_state_output@?$positional_parameter_base@_WV?$stream_output_adapter@_W@__crt_stdio_output@@@__crt_stdio_output@@IEBA_NXZ 0000000180075e80 f i libucrtd:output.obj
 0001:00074ec0       ?should_skip_type_state_output@?$positional_parameter_base@_WV?$string_output_adapter@_W@__crt_stdio_output@@@__crt_stdio_output@@IEBA_NXZ 0000000180075ec0 f i libucrtd:output.obj
 0001:00074f00       ?should_skip_type_state_output@?$standard_base@DV?$stream_output_adapter@D@__crt_stdio_output@@@__crt_stdio_output@@IEBA_NXZ 0000000180075f00 f i libucrtd:output.obj
 0001:00074f10       ?should_skip_type_state_output@?$standard_base@DV?$string_output_adapter@D@__crt_stdio_output@@@__crt_stdio_output@@IEBA_NXZ 0000000180075f10 f i libucrtd:output.obj
 0001:00074f20       ?should_skip_type_state_output@?$standard_base@_WV?$stream_output_adapter@_W@__crt_stdio_output@@@__crt_stdio_output@@IEBA_NXZ 0000000180075f20 f i libucrtd:output.obj
 0001:00074f30       ?should_skip_type_state_output@?$standard_base@_WV?$string_output_adapter@_W@__crt_stdio_output@@@__crt_stdio_output@@IEBA_NXZ 0000000180075f30 f i libucrtd:output.obj
 0001:00074f40       ?state_case_dot@?$output_processor@DV?$stream_output_adapter@D@__crt_stdio_output@@V?$format_validation_base@DV?$stream_output_adapter@D@__crt_stdio_output@@@2@@__crt_stdio_output@@AEAA_NXZ 0000000180075f40 f i libucrtd:output.obj
 0001:00074f60       ?state_case_dot@?$output_processor@DV?$stream_output_adapter@D@__crt_stdio_output@@V?$positional_parameter_base@DV?$stream_output_adapter@D@__crt_stdio_output@@@2@@__crt_stdio_output@@AEAA_NXZ 0000000180075f60 f i libucrtd:output.obj
 0001:00074f80       ?state_case_dot@?$output_processor@DV?$stream_output_adapter@D@__crt_stdio_output@@V?$standard_base@DV?$stream_output_adapter@D@__crt_stdio_output@@@2@@__crt_stdio_output@@AEAA_NXZ 0000000180075f80 f i libucrtd:output.obj
 0001:00074fa0       ?state_case_dot@?$output_processor@DV?$string_output_adapter@D@__crt_stdio_output@@V?$format_validation_base@DV?$string_output_adapter@D@__crt_stdio_output@@@2@@__crt_stdio_output@@AEAA_NXZ 0000000180075fa0 f i libucrtd:output.obj
 0001:00074fc0       ?state_case_dot@?$output_processor@DV?$string_output_adapter@D@__crt_stdio_output@@V?$positional_parameter_base@DV?$string_output_adapter@D@__crt_stdio_output@@@2@@__crt_stdio_output@@AEAA_NXZ 0000000180075fc0 f i libucrtd:output.obj
 0001:00074fe0       ?state_case_dot@?$output_processor@DV?$string_output_adapter@D@__crt_stdio_output@@V?$standard_base@DV?$string_output_adapter@D@__crt_stdio_output@@@2@@__crt_stdio_output@@AEAA_NXZ 0000000180075fe0 f i libucrtd:output.obj
 0001:00075000       ?state_case_dot@?$output_processor@_WV?$stream_output_adapter@_W@__crt_stdio_output@@V?$format_validation_base@_WV?$stream_output_adapter@_W@__crt_stdio_output@@@2@@__crt_stdio_output@@AEAA_NXZ 0000000180076000 f i libucrtd:output.obj
 0001:00075020       ?state_case_dot@?$output_processor@_WV?$stream_output_adapter@_W@__crt_stdio_output@@V?$positional_parameter_base@_WV?$stream_output_adapter@_W@__crt_stdio_output@@@2@@__crt_stdio_output@@AEAA_NXZ 0000000180076020 f i libucrtd:output.obj
 0001:00075040       ?state_case_dot@?$output_processor@_WV?$stream_output_adapter@_W@__crt_stdio_output@@V?$standard_base@_WV?$stream_output_adapter@_W@__crt_stdio_output@@@2@@__crt_stdio_output@@AEAA_NXZ 0000000180076040 f i libucrtd:output.obj
 0001:00075060       ?state_case_dot@?$output_processor@_WV?$string_output_adapter@_W@__crt_stdio_output@@V?$format_validation_base@_WV?$string_output_adapter@_W@__crt_stdio_output@@@2@@__crt_stdio_output@@AEAA_NXZ 0000000180076060 f i libucrtd:output.obj
 0001:00075080       ?state_case_dot@?$output_processor@_WV?$string_output_adapter@_W@__crt_stdio_output@@V?$positional_parameter_base@_WV?$string_output_adapter@_W@__crt_stdio_output@@@2@@__crt_stdio_output@@AEAA_NXZ 0000000180076080 f i libucrtd:output.obj
 0001:000750a0       ?state_case_dot@?$output_processor@_WV?$string_output_adapter@_W@__crt_stdio_output@@V?$standard_base@_WV?$string_output_adapter@_W@__crt_stdio_output@@@2@@__crt_stdio_output@@AEAA_NXZ 00000001800760a0 f i libucrtd:output.obj
 0001:000750c0       ?state_case_flag@?$output_processor@DV?$stream_output_adapter@D@__crt_stdio_output@@V?$format_validation_base@DV?$stream_output_adapter@D@__crt_stdio_output@@@2@@__crt_stdio_output@@AEAA_NXZ 00000001800760c0 f i libucrtd:output.obj
 0001:00075160       ?state_case_flag@?$output_processor@DV?$stream_output_adapter@D@__crt_stdio_output@@V?$positional_parameter_base@DV?$stream_output_adapter@D@__crt_stdio_output@@@2@@__crt_stdio_output@@AEAA_NXZ 0000000180076160 f i libucrtd:output.obj
 0001:00075200       ?state_case_flag@?$output_processor@DV?$stream_output_adapter@D@__crt_stdio_output@@V?$standard_base@DV?$stream_output_adapter@D@__crt_stdio_output@@@2@@__crt_stdio_output@@AEAA_NXZ 0000000180076200 f i libucrtd:output.obj
 0001:000752a0       ?state_case_flag@?$output_processor@DV?$string_output_adapter@D@__crt_stdio_output@@V?$format_validation_base@DV?$string_output_adapter@D@__crt_stdio_output@@@2@@__crt_stdio_output@@AEAA_NXZ 00000001800762a0 f i libucrtd:output.obj
 0001:00075340       ?state_case_flag@?$output_processor@DV?$string_output_adapter@D@__crt_stdio_output@@V?$positional_parameter_base@DV?$string_output_adapter@D@__crt_stdio_output@@@2@@__crt_stdio_output@@AEAA_NXZ 0000000180076340 f i libucrtd:output.obj
 0001:000753e0       ?state_case_flag@?$output_processor@DV?$string_output_adapter@D@__crt_stdio_output@@V?$standard_base@DV?$string_output_adapter@D@__crt_stdio_output@@@2@@__crt_stdio_output@@AEAA_NXZ 00000001800763e0 f i libucrtd:output.obj
 0001:00075480       ?state_case_flag@?$output_processor@_WV?$stream_output_adapter@_W@__crt_stdio_output@@V?$format_validation_base@_WV?$stream_output_adapter@_W@__crt_stdio_output@@@2@@__crt_stdio_output@@AEAA_NXZ 0000000180076480 f i libucrtd:output.obj
 0001:00075520       ?state_case_flag@?$output_processor@_WV?$stream_output_adapter@_W@__crt_stdio_output@@V?$positional_parameter_base@_WV?$stream_output_adapter@_W@__crt_stdio_output@@@2@@__crt_stdio_output@@AEAA_NXZ 0000000180076520 f i libucrtd:output.obj
 0001:000755c0       ?state_case_flag@?$output_processor@_WV?$stream_output_adapter@_W@__crt_stdio_output@@V?$standard_base@_WV?$stream_output_adapter@_W@__crt_stdio_output@@@2@@__crt_stdio_output@@AEAA_NXZ 00000001800765c0 f i libucrtd:output.obj
 0001:00075660       ?state_case_flag@?$output_processor@_WV?$string_output_adapter@_W@__crt_stdio_output@@V?$format_validation_base@_WV?$string_output_adapter@_W@__crt_stdio_output@@@2@@__crt_stdio_output@@AEAA_NXZ 0000000180076660 f i libucrtd:output.obj
 0001:00075700       ?state_case_flag@?$output_processor@_WV?$string_output_adapter@_W@__crt_stdio_output@@V?$positional_parameter_base@_WV?$string_output_adapter@_W@__crt_stdio_output@@@2@@__crt_stdio_output@@AEAA_NXZ 0000000180076700 f i libucrtd:output.obj
 0001:000757a0       ?state_case_flag@?$output_processor@_WV?$string_output_adapter@_W@__crt_stdio_output@@V?$standard_base@_WV?$string_output_adapter@_W@__crt_stdio_output@@@2@@__crt_stdio_output@@AEAA_NXZ 00000001800767a0 f i libucrtd:output.obj
 0001:00075840       ?state_case_normal@?$output_processor@DV?$stream_output_adapter@D@__crt_stdio_output@@V?$format_validation_base@DV?$stream_output_adapter@D@__crt_stdio_output@@@2@@__crt_stdio_output@@AEAA_NXZ 0000000180076840 f i libucrtd:output.obj
 0001:00075940       ?state_case_normal@?$output_processor@DV?$stream_output_adapter@D@__crt_stdio_output@@V?$positional_parameter_base@DV?$stream_output_adapter@D@__crt_stdio_output@@@2@@__crt_stdio_output@@AEAA_NXZ 0000000180076940 f i libucrtd:output.obj
 0001:00075a40       ?state_case_normal@?$output_processor@DV?$stream_output_adapter@D@__crt_stdio_output@@V?$standard_base@DV?$stream_output_adapter@D@__crt_stdio_output@@@2@@__crt_stdio_output@@AEAA_NXZ 0000000180076a40 f i libucrtd:output.obj
 0001:00075b40       ?state_case_normal@?$output_processor@DV?$string_output_adapter@D@__crt_stdio_output@@V?$format_validation_base@DV?$string_output_adapter@D@__crt_stdio_output@@@2@@__crt_stdio_output@@AEAA_NXZ 0000000180076b40 f i libucrtd:output.obj
 0001:00075c40       ?state_case_normal@?$output_processor@DV?$string_output_adapter@D@__crt_stdio_output@@V?$positional_parameter_base@DV?$string_output_adapter@D@__crt_stdio_output@@@2@@__crt_stdio_output@@AEAA_NXZ 0000000180076c40 f i libucrtd:output.obj
 0001:00075d40       ?state_case_normal@?$output_processor@DV?$string_output_adapter@D@__crt_stdio_output@@V?$standard_base@DV?$string_output_adapter@D@__crt_stdio_output@@@2@@__crt_stdio_output@@AEAA_NXZ 0000000180076d40 f i libucrtd:output.obj
 0001:00075e40       ?state_case_normal@?$output_processor@_WV?$stream_output_adapter@_W@__crt_stdio_output@@V?$format_validation_base@_WV?$stream_output_adapter@_W@__crt_stdio_output@@@2@@__crt_stdio_output@@AEAA_NXZ 0000000180076e40 f i libucrtd:output.obj
 0001:00075f40       ?state_case_normal@?$output_processor@_WV?$stream_output_adapter@_W@__crt_stdio_output@@V?$positional_parameter_base@_WV?$stream_output_adapter@_W@__crt_stdio_output@@@2@@__crt_stdio_output@@AEAA_NXZ 0000000180076f40 f i libucrtd:output.obj
 0001:00076040       ?state_case_normal@?$output_processor@_WV?$stream_output_adapter@_W@__crt_stdio_output@@V?$standard_base@_WV?$stream_output_adapter@_W@__crt_stdio_output@@@2@@__crt_stdio_output@@AEAA_NXZ 0000000180077040 f i libucrtd:output.obj
 0001:00076140       ?state_case_normal@?$output_processor@_WV?$string_output_adapter@_W@__crt_stdio_output@@V?$format_validation_base@_WV?$string_output_adapter@_W@__crt_stdio_output@@@2@@__crt_stdio_output@@AEAA_NXZ 0000000180077140 f i libucrtd:output.obj
 0001:00076240       ?state_case_normal@?$output_processor@_WV?$string_output_adapter@_W@__crt_stdio_output@@V?$positional_parameter_base@_WV?$string_output_adapter@_W@__crt_stdio_output@@@2@@__crt_stdio_output@@AEAA_NXZ 0000000180077240 f i libucrtd:output.obj
 0001:00076340       ?state_case_normal@?$output_processor@_WV?$string_output_adapter@_W@__crt_stdio_output@@V?$standard_base@_WV?$string_output_adapter@_W@__crt_stdio_output@@@2@@__crt_stdio_output@@AEAA_NXZ 0000000180077340 f i libucrtd:output.obj
 0001:00076440       ?state_case_normal_common@?$output_processor@DV?$stream_output_adapter@D@__crt_stdio_output@@V?$format_validation_base@DV?$stream_output_adapter@D@__crt_stdio_output@@@2@@__crt_stdio_output@@AEAA_NXZ 0000000180077440 f i libucrtd:output.obj
 0001:000764a0       ?state_case_normal_common@?$output_processor@DV?$stream_output_adapter@D@__crt_stdio_output@@V?$positional_parameter_base@DV?$stream_output_adapter@D@__crt_stdio_output@@@2@@__crt_stdio_output@@AEAA_NXZ 00000001800774a0 f i libucrtd:output.obj
 0001:00076500       ?state_case_normal_common@?$output_processor@DV?$stream_output_adapter@D@__crt_stdio_output@@V?$standard_base@DV?$stream_output_adapter@D@__crt_stdio_output@@@2@@__crt_stdio_output@@AEAA_NXZ 0000000180077500 f i libucrtd:output.obj
 0001:00076560       ?state_case_normal_common@?$output_processor@DV?$string_output_adapter@D@__crt_stdio_output@@V?$format_validation_base@DV?$string_output_adapter@D@__crt_stdio_output@@@2@@__crt_stdio_output@@AEAA_NXZ 0000000180077560 f i libucrtd:output.obj
 0001:000765c0       ?state_case_normal_common@?$output_processor@DV?$string_output_adapter@D@__crt_stdio_output@@V?$positional_parameter_base@DV?$string_output_adapter@D@__crt_stdio_output@@@2@@__crt_stdio_output@@AEAA_NXZ 00000001800775c0 f i libucrtd:output.obj
 0001:00076620       ?state_case_normal_common@?$output_processor@DV?$string_output_adapter@D@__crt_stdio_output@@V?$standard_base@DV?$string_output_adapter@D@__crt_stdio_output@@@2@@__crt_stdio_output@@AEAA_NXZ 0000000180077620 f i libucrtd:output.obj
 0001:00076680       ?state_case_normal_common@?$output_processor@_WV?$stream_output_adapter@_W@__crt_stdio_output@@V?$format_validation_base@_WV?$stream_output_adapter@_W@__crt_stdio_output@@@2@@__crt_stdio_output@@AEAA_NXZ 0000000180077680 f i libucrtd:output.obj
 0001:000766e0       ?state_case_normal_common@?$output_processor@_WV?$stream_output_adapter@_W@__crt_stdio_output@@V?$positional_parameter_base@_WV?$stream_output_adapter@_W@__crt_stdio_output@@@2@@__crt_stdio_output@@AEAA_NXZ 00000001800776e0 f i libucrtd:output.obj
 0001:00076740       ?state_case_normal_common@?$output_processor@_WV?$stream_output_adapter@_W@__crt_stdio_output@@V?$standard_base@_WV?$stream_output_adapter@_W@__crt_stdio_output@@@2@@__crt_stdio_output@@AEAA_NXZ 0000000180077740 f i libucrtd:output.obj
 0001:000767a0       ?state_case_normal_common@?$output_processor@_WV?$string_output_adapter@_W@__crt_stdio_output@@V?$format_validation_base@_WV?$string_output_adapter@_W@__crt_stdio_output@@@2@@__crt_stdio_output@@AEAA_NXZ 00000001800777a0 f i libucrtd:output.obj
 0001:00076800       ?state_case_normal_common@?$output_processor@_WV?$string_output_adapter@_W@__crt_stdio_output@@V?$positional_parameter_base@_WV?$string_output_adapter@_W@__crt_stdio_output@@@2@@__crt_stdio_output@@AEAA_NXZ 0000000180077800 f i libucrtd:output.obj
 0001:00076860       ?state_case_normal_common@?$output_processor@_WV?$string_output_adapter@_W@__crt_stdio_output@@V?$standard_base@_WV?$string_output_adapter@_W@__crt_stdio_output@@@2@@__crt_stdio_output@@AEAA_NXZ 0000000180077860 f i libucrtd:output.obj
 0001:000768c0       ?state_case_normal_tchar@?$output_processor@DV?$stream_output_adapter@D@__crt_stdio_output@@V?$format_validation_base@DV?$stream_output_adapter@D@__crt_stdio_output@@@2@@__crt_stdio_output@@AEAA_ND@Z 00000001800778c0 f i libucrtd:output.obj
 0001:00076a50       ?state_case_normal_tchar@?$output_processor@DV?$stream_output_adapter@D@__crt_stdio_output@@V?$positional_parameter_base@DV?$stream_output_adapter@D@__crt_stdio_output@@@2@@__crt_stdio_output@@AEAA_ND@Z 0000000180077a50 f i libucrtd:output.obj
 0001:00076be0       ?state_case_normal_tchar@?$output_processor@DV?$stream_output_adapter@D@__crt_stdio_output@@V?$standard_base@DV?$stream_output_adapter@D@__crt_stdio_output@@@2@@__crt_stdio_output@@AEAA_ND@Z 0000000180077be0 f i libucrtd:output.obj
 0001:00076d70       ?state_case_normal_tchar@?$output_processor@DV?$string_output_adapter@D@__crt_stdio_output@@V?$format_validation_base@DV?$string_output_adapter@D@__crt_stdio_output@@@2@@__crt_stdio_output@@AEAA_ND@Z 0000000180077d70 f i libucrtd:output.obj
 0001:00076f00       ?state_case_normal_tchar@?$output_processor@DV?$string_output_adapter@D@__crt_stdio_output@@V?$positional_parameter_base@DV?$string_output_adapter@D@__crt_stdio_output@@@2@@__crt_stdio_output@@AEAA_ND@Z 0000000180077f00 f i libucrtd:output.obj
 0001:00077090       ?state_case_normal_tchar@?$output_processor@DV?$string_output_adapter@D@__crt_stdio_output@@V?$standard_base@DV?$string_output_adapter@D@__crt_stdio_output@@@2@@__crt_stdio_output@@AEAA_ND@Z 0000000180078090 f i libucrtd:output.obj
 0001:00077220       ?state_case_normal_tchar@?$output_processor@_WV?$stream_output_adapter@_W@__crt_stdio_output@@V?$format_validation_base@_WV?$stream_output_adapter@_W@__crt_stdio_output@@@2@@__crt_stdio_output@@AEAA_N_W@Z 0000000180078220 f i libucrtd:output.obj
 0001:00077240       ?state_case_normal_tchar@?$output_processor@_WV?$stream_output_adapter@_W@__crt_stdio_output@@V?$positional_parameter_base@_WV?$stream_output_adapter@_W@__crt_stdio_output@@@2@@__crt_stdio_output@@AEAA_N_W@Z 0000000180078240 f i libucrtd:output.obj
 0001:00077260       ?state_case_normal_tchar@?$output_processor@_WV?$stream_output_adapter@_W@__crt_stdio_output@@V?$standard_base@_WV?$stream_output_adapter@_W@__crt_stdio_output@@@2@@__crt_stdio_output@@AEAA_N_W@Z 0000000180078260 f i libucrtd:output.obj
 0001:00077280       ?state_case_normal_tchar@?$output_processor@_WV?$string_output_adapter@_W@__crt_stdio_output@@V?$format_validation_base@_WV?$string_output_adapter@_W@__crt_stdio_output@@@2@@__crt_stdio_output@@AEAA_N_W@Z 0000000180078280 f i libucrtd:output.obj
 0001:000772a0       ?state_case_normal_tchar@?$output_processor@_WV?$string_output_adapter@_W@__crt_stdio_output@@V?$positional_parameter_base@_WV?$string_output_adapter@_W@__crt_stdio_output@@@2@@__crt_stdio_output@@AEAA_N_W@Z 00000001800782a0 f i libucrtd:output.obj
 0001:000772c0       ?state_case_normal_tchar@?$output_processor@_WV?$string_output_adapter@_W@__crt_stdio_output@@V?$standard_base@_WV?$string_output_adapter@_W@__crt_stdio_output@@@2@@__crt_stdio_output@@AEAA_N_W@Z 00000001800782c0 f i libucrtd:output.obj
 0001:000772e0       ?state_case_percent@?$output_processor@DV?$stream_output_adapter@D@__crt_stdio_output@@V?$format_validation_base@DV?$stream_output_adapter@D@__crt_stdio_output@@@2@@__crt_stdio_output@@AEAA_NXZ 00000001800782e0 f i libucrtd:output.obj
 0001:00077330       ?state_case_percent@?$output_processor@DV?$stream_output_adapter@D@__crt_stdio_output@@V?$positional_parameter_base@DV?$stream_output_adapter@D@__crt_stdio_output@@@2@@__crt_stdio_output@@AEAA_NXZ 0000000180078330 f i libucrtd:output.obj
 0001:00077380       ?state_case_percent@?$output_processor@DV?$stream_output_adapter@D@__crt_stdio_output@@V?$standard_base@DV?$stream_output_adapter@D@__crt_stdio_output@@@2@@__crt_stdio_output@@AEAA_NXZ 0000000180078380 f i libucrtd:output.obj
 0001:000773d0       ?state_case_percent@?$output_processor@DV?$string_output_adapter@D@__crt_stdio_output@@V?$format_validation_base@DV?$string_output_adapter@D@__crt_stdio_output@@@2@@__crt_stdio_output@@AEAA_NXZ 00000001800783d0 f i libucrtd:output.obj
 0001:00077420       ?state_case_percent@?$output_processor@DV?$string_output_adapter@D@__crt_stdio_output@@V?$positional_parameter_base@DV?$string_output_adapter@D@__crt_stdio_output@@@2@@__crt_stdio_output@@AEAA_NXZ 0000000180078420 f i libucrtd:output.obj
 0001:00077470       ?state_case_percent@?$output_processor@DV?$string_output_adapter@D@__crt_stdio_output@@V?$standard_base@DV?$string_output_adapter@D@__crt_stdio_output@@@2@@__crt_stdio_output@@AEAA_NXZ 0000000180078470 f i libucrtd:output.obj
 0001:000774c0       ?state_case_percent@?$output_processor@_WV?$stream_output_adapter@_W@__crt_stdio_output@@V?$format_validation_base@_WV?$stream_output_adapter@_W@__crt_stdio_output@@@2@@__crt_stdio_output@@AEAA_NXZ 00000001800784c0 f i libucrtd:output.obj
 0001:00077510       ?state_case_percent@?$output_processor@_WV?$stream_output_adapter@_W@__crt_stdio_output@@V?$positional_parameter_base@_WV?$stream_output_adapter@_W@__crt_stdio_output@@@2@@__crt_stdio_output@@AEAA_NXZ 0000000180078510 f i libucrtd:output.obj
 0001:00077560       ?state_case_percent@?$output_processor@_WV?$stream_output_adapter@_W@__crt_stdio_output@@V?$standard_base@_WV?$stream_output_adapter@_W@__crt_stdio_output@@@2@@__crt_stdio_output@@AEAA_NXZ 0000000180078560 f i libucrtd:output.obj
 0001:000775b0       ?state_case_percent@?$output_processor@_WV?$string_output_adapter@_W@__crt_stdio_output@@V?$format_validation_base@_WV?$string_output_adapter@_W@__crt_stdio_output@@@2@@__crt_stdio_output@@AEAA_NXZ 00000001800785b0 f i libucrtd:output.obj
 0001:00077600       ?state_case_percent@?$output_processor@_WV?$string_output_adapter@_W@__crt_stdio_output@@V?$positional_parameter_base@_WV?$string_output_adapter@_W@__crt_stdio_output@@@2@@__crt_stdio_output@@AEAA_NXZ 0000000180078600 f i libucrtd:output.obj
 0001:00077650       ?state_case_percent@?$output_processor@_WV?$string_output_adapter@_W@__crt_stdio_output@@V?$standard_base@_WV?$string_output_adapter@_W@__crt_stdio_output@@@2@@__crt_stdio_output@@AEAA_NXZ 0000000180078650 f i libucrtd:output.obj
 0001:000776a0       ?state_case_precision@?$output_processor@DV?$stream_output_adapter@D@__crt_stdio_output@@V?$format_validation_base@DV?$stream_output_adapter@D@__crt_stdio_output@@@2@@__crt_stdio_output@@AEAA_NXZ 00000001800786a0 f i libucrtd:output.obj
 0001:00077720       ?state_case_precision@?$output_processor@DV?$stream_output_adapter@D@__crt_stdio_output@@V?$positional_parameter_base@DV?$stream_output_adapter@D@__crt_stdio_output@@@2@@__crt_stdio_output@@AEAA_NXZ 0000000180078720 f i libucrtd:output.obj
 0001:000777a0       ?state_case_precision@?$output_processor@DV?$stream_output_adapter@D@__crt_stdio_output@@V?$standard_base@DV?$stream_output_adapter@D@__crt_stdio_output@@@2@@__crt_stdio_output@@AEAA_NXZ 00000001800787a0 f i libucrtd:output.obj
 0001:00077820       ?state_case_precision@?$output_processor@DV?$string_output_adapter@D@__crt_stdio_output@@V?$format_validation_base@DV?$string_output_adapter@D@__crt_stdio_output@@@2@@__crt_stdio_output@@AEAA_NXZ 0000000180078820 f i libucrtd:output.obj
 0001:000778a0       ?state_case_precision@?$output_processor@DV?$string_output_adapter@D@__crt_stdio_output@@V?$positional_parameter_base@DV?$string_output_adapter@D@__crt_stdio_output@@@2@@__crt_stdio_output@@AEAA_NXZ 00000001800788a0 f i libucrtd:output.obj
 0001:00077920       ?state_case_precision@?$output_processor@DV?$string_output_adapter@D@__crt_stdio_output@@V?$standard_base@DV?$string_output_adapter@D@__crt_stdio_output@@@2@@__crt_stdio_output@@AEAA_NXZ 0000000180078920 f i libucrtd:output.obj
 0001:000779a0       ?state_case_precision@?$output_processor@_WV?$stream_output_adapter@_W@__crt_stdio_output@@V?$format_validation_base@_WV?$stream_output_adapter@_W@__crt_stdio_output@@@2@@__crt_stdio_output@@AEAA_NXZ 00000001800789a0 f i libucrtd:output.obj
 0001:00077a20       ?state_case_precision@?$output_processor@_WV?$stream_output_adapter@_W@__crt_stdio_output@@V?$positional_parameter_base@_WV?$stream_output_adapter@_W@__crt_stdio_output@@@2@@__crt_stdio_output@@AEAA_NXZ 0000000180078a20 f i libucrtd:output.obj
 0001:00077aa0       ?state_case_precision@?$output_processor@_WV?$stream_output_adapter@_W@__crt_stdio_output@@V?$standard_base@_WV?$stream_output_adapter@_W@__crt_stdio_output@@@2@@__crt_stdio_output@@AEAA_NXZ 0000000180078aa0 f i libucrtd:output.obj
 0001:00077b20       ?state_case_precision@?$output_processor@_WV?$string_output_adapter@_W@__crt_stdio_output@@V?$format_validation_base@_WV?$string_output_adapter@_W@__crt_stdio_output@@@2@@__crt_stdio_output@@AEAA_NXZ 0000000180078b20 f i libucrtd:output.obj
 0001:00077ba0       ?state_case_precision@?$output_processor@_WV?$string_output_adapter@_W@__crt_stdio_output@@V?$positional_parameter_base@_WV?$string_output_adapter@_W@__crt_stdio_output@@@2@@__crt_stdio_output@@AEAA_NXZ 0000000180078ba0 f i libucrtd:output.obj
 0001:00077c20       ?state_case_precision@?$output_processor@_WV?$string_output_adapter@_W@__crt_stdio_output@@V?$standard_base@_WV?$string_output_adapter@_W@__crt_stdio_output@@@2@@__crt_stdio_output@@AEAA_NXZ 0000000180078c20 f i libucrtd:output.obj
 0001:00077ca0       ?state_case_size@?$output_processor@DV?$stream_output_adapter@D@__crt_stdio_output@@V?$format_validation_base@DV?$stream_output_adapter@D@__crt_stdio_output@@@2@@__crt_stdio_output@@AEAA_NXZ 0000000180078ca0 f i libucrtd:output.obj
 0001:00078160       ?state_case_size@?$output_processor@DV?$stream_output_adapter@D@__crt_stdio_output@@V?$positional_parameter_base@DV?$stream_output_adapter@D@__crt_stdio_output@@@2@@__crt_stdio_output@@AEAA_NXZ 0000000180079160 f i libucrtd:output.obj
 0001:00078620       ?state_case_size@?$output_processor@DV?$stream_output_adapter@D@__crt_stdio_output@@V?$standard_base@DV?$stream_output_adapter@D@__crt_stdio_output@@@2@@__crt_stdio_output@@AEAA_NXZ 0000000180079620 f i libucrtd:output.obj
 0001:00078ae0       ?state_case_size@?$output_processor@DV?$string_output_adapter@D@__crt_stdio_output@@V?$format_validation_base@DV?$string_output_adapter@D@__crt_stdio_output@@@2@@__crt_stdio_output@@AEAA_NXZ 0000000180079ae0 f i libucrtd:output.obj
 0001:00078fa0       ?state_case_size@?$output_processor@DV?$string_output_adapter@D@__crt_stdio_output@@V?$positional_parameter_base@DV?$string_output_adapter@D@__crt_stdio_output@@@2@@__crt_stdio_output@@AEAA_NXZ 0000000180079fa0 f i libucrtd:output.obj
 0001:00079460       ?state_case_size@?$output_processor@DV?$string_output_adapter@D@__crt_stdio_output@@V?$standard_base@DV?$string_output_adapter@D@__crt_stdio_output@@@2@@__crt_stdio_output@@AEAA_NXZ 000000018007a460 f i libucrtd:output.obj
 0001:00079920       ?state_case_size@?$output_processor@_WV?$stream_output_adapter@_W@__crt_stdio_output@@V?$format_validation_base@_WV?$stream_output_adapter@_W@__crt_stdio_output@@@2@@__crt_stdio_output@@AEAA_NXZ 000000018007a920 f i libucrtd:output.obj
 0001:00079de0       ?state_case_size@?$output_processor@_WV?$stream_output_adapter@_W@__crt_stdio_output@@V?$positional_parameter_base@_WV?$stream_output_adapter@_W@__crt_stdio_output@@@2@@__crt_stdio_output@@AEAA_NXZ 000000018007ade0 f i libucrtd:output.obj
 0001:0007a2a0       ?state_case_size@?$output_processor@_WV?$stream_output_adapter@_W@__crt_stdio_output@@V?$standard_base@_WV?$stream_output_adapter@_W@__crt_stdio_output@@@2@@__crt_stdio_output@@AEAA_NXZ 000000018007b2a0 f i libucrtd:output.obj
 0001:0007a760       ?state_case_size@?$output_processor@_WV?$string_output_adapter@_W@__crt_stdio_output@@V?$format_validation_base@_WV?$string_output_adapter@_W@__crt_stdio_output@@@2@@__crt_stdio_output@@AEAA_NXZ 000000018007b760 f i libucrtd:output.obj
 0001:0007ac20       ?state_case_size@?$output_processor@_WV?$string_output_adapter@_W@__crt_stdio_output@@V?$positional_parameter_base@_WV?$string_output_adapter@_W@__crt_stdio_output@@@2@@__crt_stdio_output@@AEAA_NXZ 000000018007bc20 f i libucrtd:output.obj
 0001:0007b0e0       ?state_case_size@?$output_processor@_WV?$string_output_adapter@_W@__crt_stdio_output@@V?$standard_base@_WV?$string_output_adapter@_W@__crt_stdio_output@@@2@@__crt_stdio_output@@AEAA_NXZ 000000018007c0e0 f i libucrtd:output.obj
 0001:0007b5a0       ?state_case_type@?$output_processor@DV?$stream_output_adapter@D@__crt_stdio_output@@V?$format_validation_base@DV?$stream_output_adapter@D@__crt_stdio_output@@@2@@__crt_stdio_output@@AEAA_NXZ 000000018007c5a0 f i libucrtd:output.obj
 0001:0007ba60       ?state_case_type@?$output_processor@DV?$stream_output_adapter@D@__crt_stdio_output@@V?$positional_parameter_base@DV?$stream_output_adapter@D@__crt_stdio_output@@@2@@__crt_stdio_output@@AEAA_NXZ 000000018007ca60 f i libucrtd:output.obj
 0001:0007bf20       ?state_case_type@?$output_processor@DV?$stream_output_adapter@D@__crt_stdio_output@@V?$standard_base@DV?$stream_output_adapter@D@__crt_stdio_output@@@2@@__crt_stdio_output@@AEAA_NXZ 000000018007cf20 f i libucrtd:output.obj
 0001:0007c3e0       ?state_case_type@?$output_processor@DV?$string_output_adapter@D@__crt_stdio_output@@V?$format_validation_base@DV?$string_output_adapter@D@__crt_stdio_output@@@2@@__crt_stdio_output@@AEAA_NXZ 000000018007d3e0 f i libucrtd:output.obj
 0001:0007c8a0       ?state_case_type@?$output_processor@DV?$string_output_adapter@D@__crt_stdio_output@@V?$positional_parameter_base@DV?$string_output_adapter@D@__crt_stdio_output@@@2@@__crt_stdio_output@@AEAA_NXZ 000000018007d8a0 f i libucrtd:output.obj
 0001:0007cd60       ?state_case_type@?$output_processor@DV?$string_output_adapter@D@__crt_stdio_output@@V?$standard_base@DV?$string_output_adapter@D@__crt_stdio_output@@@2@@__crt_stdio_output@@AEAA_NXZ 000000018007dd60 f i libucrtd:output.obj
 0001:0007d220       ?state_case_type@?$output_processor@_WV?$stream_output_adapter@_W@__crt_stdio_output@@V?$format_validation_base@_WV?$stream_output_adapter@_W@__crt_stdio_output@@@2@@__crt_stdio_output@@AEAA_NXZ 000000018007e220 f i libucrtd:output.obj
 0001:0007d7b0       ?state_case_type@?$output_processor@_WV?$stream_output_adapter@_W@__crt_stdio_output@@V?$positional_parameter_base@_WV?$stream_output_adapter@_W@__crt_stdio_output@@@2@@__crt_stdio_output@@AEAA_NXZ 000000018007e7b0 f i libucrtd:output.obj
 0001:0007dd40       ?state_case_type@?$output_processor@_WV?$stream_output_adapter@_W@__crt_stdio_output@@V?$standard_base@_WV?$stream_output_adapter@_W@__crt_stdio_output@@@2@@__crt_stdio_output@@AEAA_NXZ 000000018007ed40 f i libucrtd:output.obj
 0001:0007e2d0       ?state_case_type@?$output_processor@_WV?$string_output_adapter@_W@__crt_stdio_output@@V?$format_validation_base@_WV?$string_output_adapter@_W@__crt_stdio_output@@@2@@__crt_stdio_output@@AEAA_NXZ 000000018007f2d0 f i libucrtd:output.obj
 0001:0007e860       ?state_case_type@?$output_processor@_WV?$string_output_adapter@_W@__crt_stdio_output@@V?$positional_parameter_base@_WV?$string_output_adapter@_W@__crt_stdio_output@@@2@@__crt_stdio_output@@AEAA_NXZ 000000018007f860 f i libucrtd:output.obj
 0001:0007edf0       ?state_case_type@?$output_processor@_WV?$string_output_adapter@_W@__crt_stdio_output@@V?$standard_base@_WV?$string_output_adapter@_W@__crt_stdio_output@@@2@@__crt_stdio_output@@AEAA_NXZ 000000018007fdf0 f i libucrtd:output.obj
 0001:0007f380       ?state_case_width@?$output_processor@DV?$stream_output_adapter@D@__crt_stdio_output@@V?$format_validation_base@DV?$stream_output_adapter@D@__crt_stdio_output@@@2@@__crt_stdio_output@@AEAA_NXZ 0000000180080380 f i libucrtd:output.obj
 0001:0007f410       ?state_case_width@?$output_processor@DV?$stream_output_adapter@D@__crt_stdio_output@@V?$positional_parameter_base@DV?$stream_output_adapter@D@__crt_stdio_output@@@2@@__crt_stdio_output@@AEAA_NXZ 0000000180080410 f i libucrtd:output.obj
 0001:0007f4a0       ?state_case_width@?$output_processor@DV?$stream_output_adapter@D@__crt_stdio_output@@V?$standard_base@DV?$stream_output_adapter@D@__crt_stdio_output@@@2@@__crt_stdio_output@@AEAA_NXZ 00000001800804a0 f i libucrtd:output.obj
 0001:0007f530       ?state_case_width@?$output_processor@DV?$string_output_adapter@D@__crt_stdio_output@@V?$format_validation_base@DV?$string_output_adapter@D@__crt_stdio_output@@@2@@__crt_stdio_output@@AEAA_NXZ 0000000180080530 f i libucrtd:output.obj
 0001:0007f5c0       ?state_case_width@?$output_processor@DV?$string_output_adapter@D@__crt_stdio_output@@V?$positional_parameter_base@DV?$string_output_adapter@D@__crt_stdio_output@@@2@@__crt_stdio_output@@AEAA_NXZ 00000001800805c0 f i libucrtd:output.obj
 0001:0007f650       ?state_case_width@?$output_processor@DV?$string_output_adapter@D@__crt_stdio_output@@V?$standard_base@DV?$string_output_adapter@D@__crt_stdio_output@@@2@@__crt_stdio_output@@AEAA_NXZ 0000000180080650 f i libucrtd:output.obj
 0001:0007f6e0       ?state_case_width@?$output_processor@_WV?$stream_output_adapter@_W@__crt_stdio_output@@V?$format_validation_base@_WV?$stream_output_adapter@_W@__crt_stdio_output@@@2@@__crt_stdio_output@@AEAA_NXZ 00000001800806e0 f i libucrtd:output.obj
 0001:0007f770       ?state_case_width@?$output_processor@_WV?$stream_output_adapter@_W@__crt_stdio_output@@V?$positional_parameter_base@_WV?$stream_output_adapter@_W@__crt_stdio_output@@@2@@__crt_stdio_output@@AEAA_NXZ 0000000180080770 f i libucrtd:output.obj
 0001:0007f800       ?state_case_width@?$output_processor@_WV?$stream_output_adapter@_W@__crt_stdio_output@@V?$standard_base@_WV?$stream_output_adapter@_W@__crt_stdio_output@@@2@@__crt_stdio_output@@AEAA_NXZ 0000000180080800 f i libucrtd:output.obj
 0001:0007f890       ?state_case_width@?$output_processor@_WV?$string_output_adapter@_W@__crt_stdio_output@@V?$format_validation_base@_WV?$string_output_adapter@_W@__crt_stdio_output@@@2@@__crt_stdio_output@@AEAA_NXZ 0000000180080890 f i libucrtd:output.obj
 0001:0007f920       ?state_case_width@?$output_processor@_WV?$string_output_adapter@_W@__crt_stdio_output@@V?$positional_parameter_base@_WV?$string_output_adapter@_W@__crt_stdio_output@@@2@@__crt_stdio_output@@AEAA_NXZ 0000000180080920 f i libucrtd:output.obj
 0001:0007f9b0       ?state_case_width@?$output_processor@_WV?$string_output_adapter@_W@__crt_stdio_output@@V?$standard_base@_WV?$string_output_adapter@_W@__crt_stdio_output@@@2@@__crt_stdio_output@@AEAA_NXZ 00000001800809b0 f i libucrtd:output.obj
 0001:0007fa40       ?state_count@?$format_validation_base@DV?$stream_output_adapter@D@__crt_stdio_output@@@__crt_stdio_output@@KAIXZ 0000000180080a40 f i libucrtd:output.obj
 0001:0007fa50       ?state_count@?$format_validation_base@DV?$string_output_adapter@D@__crt_stdio_output@@@__crt_stdio_output@@KAIXZ 0000000180080a50 f i libucrtd:output.obj
 0001:0007fa60       ?state_count@?$format_validation_base@_WV?$stream_output_adapter@_W@__crt_stdio_output@@@__crt_stdio_output@@KAIXZ 0000000180080a60 f i libucrtd:output.obj
 0001:0007fa70       ?state_count@?$format_validation_base@_WV?$string_output_adapter@_W@__crt_stdio_output@@@__crt_stdio_output@@KAIXZ 0000000180080a70 f i libucrtd:output.obj
 0001:0007fa80       ?state_count@?$standard_base@DV?$stream_output_adapter@D@__crt_stdio_output@@@__crt_stdio_output@@KAIXZ 0000000180080a80 f i libucrtd:output.obj
 0001:0007fa90       ?state_count@?$standard_base@DV?$string_output_adapter@D@__crt_stdio_output@@@__crt_stdio_output@@KAIXZ 0000000180080a90 f i libucrtd:output.obj
 0001:0007faa0       ?state_count@?$standard_base@_WV?$stream_output_adapter@_W@__crt_stdio_output@@@__crt_stdio_output@@KAIXZ 0000000180080aa0 f i libucrtd:output.obj
 0001:0007fab0       ?state_count@?$standard_base@_WV?$string_output_adapter@_W@__crt_stdio_output@@@__crt_stdio_output@@KAIXZ 0000000180080ab0 f i libucrtd:output.obj
 0001:0007fac0       ?state_transition_table@?$format_validation_base@DV?$stream_output_adapter@D@__crt_stdio_output@@@__crt_stdio_output@@KAAEBV?$spectre_mitigated_lookup_table@Ustate_transition_pair@__crt_stdio_output@@$0IA@@2@XZ 0000000180080ac0 f i libucrtd:output.obj
 0001:0007fad0       ?state_transition_table@?$format_validation_base@DV?$string_output_adapter@D@__crt_stdio_output@@@__crt_stdio_output@@KAAEBV?$spectre_mitigated_lookup_table@Ustate_transition_pair@__crt_stdio_output@@$0IA@@2@XZ 0000000180080ad0 f i libucrtd:output.obj
 0001:0007fae0       ?state_transition_table@?$format_validation_base@_WV?$stream_output_adapter@_W@__crt_stdio_output@@@__crt_stdio_output@@KAAEBV?$spectre_mitigated_lookup_table@Ustate_transition_pair@__crt_stdio_output@@$0IA@@2@XZ 0000000180080ae0 f i libucrtd:output.obj
 0001:0007faf0       ?state_transition_table@?$format_validation_base@_WV?$string_output_adapter@_W@__crt_stdio_output@@@__crt_stdio_output@@KAAEBV?$spectre_mitigated_lookup_table@Ustate_transition_pair@__crt_stdio_output@@$0IA@@2@XZ 0000000180080af0 f i libucrtd:output.obj
 0001:0007fb00       ?state_transition_table@?$standard_base@DV?$stream_output_adapter@D@__crt_stdio_output@@@__crt_stdio_output@@KAAEBV?$spectre_mitigated_lookup_table@Ustate_transition_pair@__crt_stdio_output@@$0IA@@2@XZ 0000000180080b00 f i libucrtd:output.obj
 0001:0007fb10       ?state_transition_table@?$standard_base@DV?$string_output_adapter@D@__crt_stdio_output@@@__crt_stdio_output@@KAAEBV?$spectre_mitigated_lookup_table@Ustate_transition_pair@__crt_stdio_output@@$0IA@@2@XZ 0000000180080b10 f i libucrtd:output.obj
 0001:0007fb20       ?state_transition_table@?$standard_base@_WV?$stream_output_adapter@_W@__crt_stdio_output@@@__crt_stdio_output@@KAAEBV?$spectre_mitigated_lookup_table@Ustate_transition_pair@__crt_stdio_output@@$0IA@@2@XZ 0000000180080b20 f i libucrtd:output.obj
 0001:0007fb30       ?state_transition_table@?$standard_base@_WV?$string_output_adapter@_W@__crt_stdio_output@@@__crt_stdio_output@@KAAEBV?$spectre_mitigated_lookup_table@Ustate_transition_pair@__crt_stdio_output@@$0IA@@2@XZ 0000000180080b30 f i libucrtd:output.obj
 0001:0007fb40       ?tchar_string@?$common_data@D@__crt_stdio_output@@IEAAAEAPEADD@Z 0000000180080b40 f i libucrtd:output.obj
 0001:0007fb60       ?tchar_string@?$common_data@D@__crt_stdio_output@@IEAAAEAPEADXZ 0000000180080b60 f i libucrtd:output.obj
 0001:0007fb80       ?tchar_string@?$common_data@_W@__crt_stdio_output@@IEAAAEAPEA_WXZ 0000000180080b80 f i libucrtd:output.obj
 0001:0007fba0       ?tchar_string@?$common_data@_W@__crt_stdio_output@@IEAAAEAPEA_W_W@Z 0000000180080ba0 f i libucrtd:output.obj
 0001:0007fbc0       ?to_integer_size@__crt_stdio_output@@YA_KW4length_modifier@1@@Z 0000000180080bc0 f i libucrtd:output.obj
 0001:0007fc70       ?type_case_X@?$output_processor@DV?$stream_output_adapter@D@__crt_stdio_output@@V?$format_validation_base@DV?$stream_output_adapter@D@__crt_stdio_output@@@2@@__crt_stdio_output@@AEAA_NXZ 0000000180080c70 f i libucrtd:output.obj
 0001:0007fc90       ?type_case_X@?$output_processor@DV?$stream_output_adapter@D@__crt_stdio_output@@V?$positional_parameter_base@DV?$stream_output_adapter@D@__crt_stdio_output@@@2@@__crt_stdio_output@@AEAA_NXZ 0000000180080c90 f i libucrtd:output.obj
 0001:0007fcb0       ?type_case_X@?$output_processor@DV?$stream_output_adapter@D@__crt_stdio_output@@V?$standard_base@DV?$stream_output_adapter@D@__crt_stdio_output@@@2@@__crt_stdio_output@@AEAA_NXZ 0000000180080cb0 f i libucrtd:output.obj
 0001:0007fcd0       ?type_case_X@?$output_processor@DV?$string_output_adapter@D@__crt_stdio_output@@V?$format_validation_base@DV?$string_output_adapter@D@__crt_stdio_output@@@2@@__crt_stdio_output@@AEAA_NXZ 0000000180080cd0 f i libucrtd:output.obj
 0001:0007fcf0       ?type_case_X@?$output_processor@DV?$string_output_adapter@D@__crt_stdio_output@@V?$positional_parameter_base@DV?$string_output_adapter@D@__crt_stdio_output@@@2@@__crt_stdio_output@@AEAA_NXZ 0000000180080cf0 f i libucrtd:output.obj
 0001:0007fd10       ?type_case_X@?$output_processor@DV?$string_output_adapter@D@__crt_stdio_output@@V?$standard_base@DV?$string_output_adapter@D@__crt_stdio_output@@@2@@__crt_stdio_output@@AEAA_NXZ 0000000180080d10 f i libucrtd:output.obj
 0001:0007fd30       ?type_case_X@?$output_processor@_WV?$stream_output_adapter@_W@__crt_stdio_output@@V?$format_validation_base@_WV?$stream_output_adapter@_W@__crt_stdio_output@@@2@@__crt_stdio_output@@AEAA_NXZ 0000000180080d30 f i libucrtd:output.obj
 0001:0007fd50       ?type_case_X@?$output_processor@_WV?$stream_output_adapter@_W@__crt_stdio_output@@V?$positional_parameter_base@_WV?$stream_output_adapter@_W@__crt_stdio_output@@@2@@__crt_stdio_output@@AEAA_NXZ 0000000180080d50 f i libucrtd:output.obj
 0001:0007fd70       ?type_case_X@?$output_processor@_WV?$stream_output_adapter@_W@__crt_stdio_output@@V?$standard_base@_WV?$stream_output_adapter@_W@__crt_stdio_output@@@2@@__crt_stdio_output@@AEAA_NXZ 0000000180080d70 f i libucrtd:output.obj
 0001:0007fd90       ?type_case_X@?$output_processor@_WV?$string_output_adapter@_W@__crt_stdio_output@@V?$format_validation_base@_WV?$string_output_adapter@_W@__crt_stdio_output@@@2@@__crt_stdio_output@@AEAA_NXZ 0000000180080d90 f i libucrtd:output.obj
 0001:0007fdb0       ?type_case_X@?$output_processor@_WV?$string_output_adapter@_W@__crt_stdio_output@@V?$positional_parameter_base@_WV?$string_output_adapter@_W@__crt_stdio_output@@@2@@__crt_stdio_output@@AEAA_NXZ 0000000180080db0 f i libucrtd:output.obj
 0001:0007fdd0       ?type_case_X@?$output_processor@_WV?$string_output_adapter@_W@__crt_stdio_output@@V?$standard_base@_WV?$string_output_adapter@_W@__crt_stdio_output@@@2@@__crt_stdio_output@@AEAA_NXZ 0000000180080dd0 f i libucrtd:output.obj
 0001:0007fdf0       ?type_case_Z@?$output_processor@DV?$stream_output_adapter@D@__crt_stdio_output@@V?$format_validation_base@DV?$stream_output_adapter@D@__crt_stdio_output@@@2@@__crt_stdio_output@@AEAA_NXZ 0000000180080df0 f i libucrtd:output.obj
 0001:0007ff10       ?type_case_Z@?$output_processor@DV?$stream_output_adapter@D@__crt_stdio_output@@V?$positional_parameter_base@DV?$stream_output_adapter@D@__crt_stdio_output@@@2@@__crt_stdio_output@@AEAA_NXZ 0000000180080f10 f i libucrtd:output.obj
 0001:00080030       ?type_case_Z@?$output_processor@DV?$stream_output_adapter@D@__crt_stdio_output@@V?$standard_base@DV?$stream_output_adapter@D@__crt_stdio_output@@@2@@__crt_stdio_output@@AEAA_NXZ 0000000180081030 f i libucrtd:output.obj
 0001:00080150       ?type_case_Z@?$output_processor@DV?$string_output_adapter@D@__crt_stdio_output@@V?$format_validation_base@DV?$string_output_adapter@D@__crt_stdio_output@@@2@@__crt_stdio_output@@AEAA_NXZ 0000000180081150 f i libucrtd:output.obj
 0001:00080270       ?type_case_Z@?$output_processor@DV?$string_output_adapter@D@__crt_stdio_output@@V?$positional_parameter_base@DV?$string_output_adapter@D@__crt_stdio_output@@@2@@__crt_stdio_output@@AEAA_NXZ 0000000180081270 f i libucrtd:output.obj
 0001:00080390       ?type_case_Z@?$output_processor@DV?$string_output_adapter@D@__crt_stdio_output@@V?$standard_base@DV?$string_output_adapter@D@__crt_stdio_output@@@2@@__crt_stdio_output@@AEAA_NXZ 0000000180081390 f i libucrtd:output.obj
 0001:000804b0       ?type_case_Z@?$output_processor@_WV?$stream_output_adapter@_W@__crt_stdio_output@@V?$format_validation_base@_WV?$stream_output_adapter@_W@__crt_stdio_output@@@2@@__crt_stdio_output@@AEAA_NXZ 00000001800814b0 f i libucrtd:output.obj
 0001:000805d0       ?type_case_Z@?$output_processor@_WV?$stream_output_adapter@_W@__crt_stdio_output@@V?$positional_parameter_base@_WV?$stream_output_adapter@_W@__crt_stdio_output@@@2@@__crt_stdio_output@@AEAA_NXZ 00000001800815d0 f i libucrtd:output.obj
 0001:000806f0       ?type_case_Z@?$output_processor@_WV?$stream_output_adapter@_W@__crt_stdio_output@@V?$standard_base@_WV?$stream_output_adapter@_W@__crt_stdio_output@@@2@@__crt_stdio_output@@AEAA_NXZ 00000001800816f0 f i libucrtd:output.obj
 0001:00080810       ?type_case_Z@?$output_processor@_WV?$string_output_adapter@_W@__crt_stdio_output@@V?$format_validation_base@_WV?$string_output_adapter@_W@__crt_stdio_output@@@2@@__crt_stdio_output@@AEAA_NXZ 0000000180081810 f i libucrtd:output.obj
 0001:00080930       ?type_case_Z@?$output_processor@_WV?$string_output_adapter@_W@__crt_stdio_output@@V?$positional_parameter_base@_WV?$string_output_adapter@_W@__crt_stdio_output@@@2@@__crt_stdio_output@@AEAA_NXZ 0000000180081930 f i libucrtd:output.obj
 0001:00080a50       ?type_case_Z@?$output_processor@_WV?$string_output_adapter@_W@__crt_stdio_output@@V?$standard_base@_WV?$string_output_adapter@_W@__crt_stdio_output@@@2@@__crt_stdio_output@@AEAA_NXZ 0000000180081a50 f i libucrtd:output.obj
 0001:00080b70       ?type_case_a@?$output_processor@DV?$stream_output_adapter@D@__crt_stdio_output@@V?$format_validation_base@DV?$stream_output_adapter@D@__crt_stdio_output@@@2@@__crt_stdio_output@@AEAA_NXZ 0000000180081b70 f i libucrtd:output.obj
 0001:00080fd0       ?type_case_a@?$output_processor@DV?$stream_output_adapter@D@__crt_stdio_output@@V?$positional_parameter_base@DV?$stream_output_adapter@D@__crt_stdio_output@@@2@@__crt_stdio_output@@AEAA_NXZ 0000000180081fd0 f i libucrtd:output.obj
 0001:00081430       ?type_case_a@?$output_processor@DV?$stream_output_adapter@D@__crt_stdio_output@@V?$standard_base@DV?$stream_output_adapter@D@__crt_stdio_output@@@2@@__crt_stdio_output@@AEAA_NXZ 0000000180082430 f i libucrtd:output.obj
 0001:00081890       ?type_case_a@?$output_processor@DV?$string_output_adapter@D@__crt_stdio_output@@V?$format_validation_base@DV?$string_output_adapter@D@__crt_stdio_output@@@2@@__crt_stdio_output@@AEAA_NXZ 0000000180082890 f i libucrtd:output.obj
 0001:00081cf0       ?type_case_a@?$output_processor@DV?$string_output_adapter@D@__crt_stdio_output@@V?$positional_parameter_base@DV?$string_output_adapter@D@__crt_stdio_output@@@2@@__crt_stdio_output@@AEAA_NXZ 0000000180082cf0 f i libucrtd:output.obj
 0001:00082150       ?type_case_a@?$output_processor@DV?$string_output_adapter@D@__crt_stdio_output@@V?$standard_base@DV?$string_output_adapter@D@__crt_stdio_output@@@2@@__crt_stdio_output@@AEAA_NXZ 0000000180083150 f i libucrtd:output.obj
 0001:000825b0       ?type_case_a@?$output_processor@_WV?$stream_output_adapter@_W@__crt_stdio_output@@V?$format_validation_base@_WV?$stream_output_adapter@_W@__crt_stdio_output@@@2@@__crt_stdio_output@@AEAA_NXZ 00000001800835b0 f i libucrtd:output.obj
 0001:00082a20       ?type_case_a@?$output_processor@_WV?$stream_output_adapter@_W@__crt_stdio_output@@V?$positional_parameter_base@_WV?$stream_output_adapter@_W@__crt_stdio_output@@@2@@__crt_stdio_output@@AEAA_NXZ 0000000180083a20 f i libucrtd:output.obj
 0001:00082e90       ?type_case_a@?$output_processor@_WV?$stream_output_adapter@_W@__crt_stdio_output@@V?$standard_base@_WV?$stream_output_adapter@_W@__crt_stdio_output@@@2@@__crt_stdio_output@@AEAA_NXZ 0000000180083e90 f i libucrtd:output.obj
 0001:00083300       ?type_case_a@?$output_processor@_WV?$string_output_adapter@_W@__crt_stdio_output@@V?$format_validation_base@_WV?$string_output_adapter@_W@__crt_stdio_output@@@2@@__crt_stdio_output@@AEAA_NXZ 0000000180084300 f i libucrtd:output.obj
 0001:00083770       ?type_case_a@?$output_processor@_WV?$string_output_adapter@_W@__crt_stdio_output@@V?$positional_parameter_base@_WV?$string_output_adapter@_W@__crt_stdio_output@@@2@@__crt_stdio_output@@AEAA_NXZ 0000000180084770 f i libucrtd:output.obj
 0001:00083be0       ?type_case_a@?$output_processor@_WV?$string_output_adapter@_W@__crt_stdio_output@@V?$standard_base@_WV?$string_output_adapter@_W@__crt_stdio_output@@@2@@__crt_stdio_output@@AEAA_NXZ 0000000180084be0 f i libucrtd:output.obj
 0001:00084050       ?type_case_c@?$output_processor@DV?$stream_output_adapter@D@__crt_stdio_output@@V?$format_validation_base@DV?$stream_output_adapter@D@__crt_stdio_output@@@2@@__crt_stdio_output@@AEAA_NXZ 0000000180085050 f i libucrtd:output.obj
 0001:00084070       ?type_case_c@?$output_processor@DV?$stream_output_adapter@D@__crt_stdio_output@@V?$positional_parameter_base@DV?$stream_output_adapter@D@__crt_stdio_output@@@2@@__crt_stdio_output@@AEAA_NXZ 0000000180085070 f i libucrtd:output.obj
 0001:00084090       ?type_case_c@?$output_processor@DV?$stream_output_adapter@D@__crt_stdio_output@@V?$standard_base@DV?$stream_output_adapter@D@__crt_stdio_output@@@2@@__crt_stdio_output@@AEAA_NXZ 0000000180085090 f i libucrtd:output.obj
 0001:000840b0       ?type_case_c@?$output_processor@DV?$string_output_adapter@D@__crt_stdio_output@@V?$format_validation_base@DV?$string_output_adapter@D@__crt_stdio_output@@@2@@__crt_stdio_output@@AEAA_NXZ 00000001800850b0 f i libucrtd:output.obj
 0001:000840d0       ?type_case_c@?$output_processor@DV?$string_output_adapter@D@__crt_stdio_output@@V?$positional_parameter_base@DV?$string_output_adapter@D@__crt_stdio_output@@@2@@__crt_stdio_output@@AEAA_NXZ 00000001800850d0 f i libucrtd:output.obj
 0001:000840f0       ?type_case_c@?$output_processor@DV?$string_output_adapter@D@__crt_stdio_output@@V?$standard_base@DV?$string_output_adapter@D@__crt_stdio_output@@@2@@__crt_stdio_output@@AEAA_NXZ 00000001800850f0 f i libucrtd:output.obj
 0001:00084110       ?type_case_c@?$output_processor@_WV?$stream_output_adapter@_W@__crt_stdio_output@@V?$format_validation_base@_WV?$stream_output_adapter@_W@__crt_stdio_output@@@2@@__crt_stdio_output@@AEAA_NXZ 0000000180085110 f i libucrtd:output.obj
 0001:00084130       ?type_case_c@?$output_processor@_WV?$stream_output_adapter@_W@__crt_stdio_output@@V?$positional_parameter_base@_WV?$stream_output_adapter@_W@__crt_stdio_output@@@2@@__crt_stdio_output@@AEAA_NXZ 0000000180085130 f i libucrtd:output.obj
 0001:00084150       ?type_case_c@?$output_processor@_WV?$stream_output_adapter@_W@__crt_stdio_output@@V?$standard_base@_WV?$stream_output_adapter@_W@__crt_stdio_output@@@2@@__crt_stdio_output@@AEAA_NXZ 0000000180085150 f i libucrtd:output.obj
 0001:00084170       ?type_case_c@?$output_processor@_WV?$string_output_adapter@_W@__crt_stdio_output@@V?$format_validation_base@_WV?$string_output_adapter@_W@__crt_stdio_output@@@2@@__crt_stdio_output@@AEAA_NXZ 0000000180085170 f i libucrtd:output.obj
 0001:00084190       ?type_case_c@?$output_processor@_WV?$string_output_adapter@_W@__crt_stdio_output@@V?$positional_parameter_base@_WV?$string_output_adapter@_W@__crt_stdio_output@@@2@@__crt_stdio_output@@AEAA_NXZ 0000000180085190 f i libucrtd:output.obj
 0001:000841b0       ?type_case_c@?$output_processor@_WV?$string_output_adapter@_W@__crt_stdio_output@@V?$standard_base@_WV?$string_output_adapter@_W@__crt_stdio_output@@@2@@__crt_stdio_output@@AEAA_NXZ 00000001800851b0 f i libucrtd:output.obj
 0001:000841d0       ?type_case_c_tchar@?$output_processor@DV?$stream_output_adapter@D@__crt_stdio_output@@V?$format_validation_base@DV?$stream_output_adapter@D@__crt_stdio_output@@@2@@__crt_stdio_output@@AEAA_ND@Z 00000001800851d0 f i libucrtd:output.obj
 0001:00084340       ?type_case_c_tchar@?$output_processor@DV?$stream_output_adapter@D@__crt_stdio_output@@V?$positional_parameter_base@DV?$stream_output_adapter@D@__crt_stdio_output@@@2@@__crt_stdio_output@@AEAA_ND@Z 0000000180085340 f i libucrtd:output.obj
 0001:000844b0       ?type_case_c_tchar@?$output_processor@DV?$stream_output_adapter@D@__crt_stdio_output@@V?$standard_base@DV?$stream_output_adapter@D@__crt_stdio_output@@@2@@__crt_stdio_output@@AEAA_ND@Z 00000001800854b0 f i libucrtd:output.obj
 0001:00084620       ?type_case_c_tchar@?$output_processor@DV?$string_output_adapter@D@__crt_stdio_output@@V?$format_validation_base@DV?$string_output_adapter@D@__crt_stdio_output@@@2@@__crt_stdio_output@@AEAA_ND@Z 0000000180085620 f i libucrtd:output.obj
 0001:00084790       ?type_case_c_tchar@?$output_processor@DV?$string_output_adapter@D@__crt_stdio_output@@V?$positional_parameter_base@DV?$string_output_adapter@D@__crt_stdio_output@@@2@@__crt_stdio_output@@AEAA_ND@Z 0000000180085790 f i libucrtd:output.obj
 0001:00084900       ?type_case_c_tchar@?$output_processor@DV?$string_output_adapter@D@__crt_stdio_output@@V?$standard_base@DV?$string_output_adapter@D@__crt_stdio_output@@@2@@__crt_stdio_output@@AEAA_ND@Z 0000000180085900 f i libucrtd:output.obj
 0001:00084a70       ?type_case_c_tchar@?$output_processor@_WV?$stream_output_adapter@_W@__crt_stdio_output@@V?$format_validation_base@_WV?$stream_output_adapter@_W@__crt_stdio_output@@@2@@__crt_stdio_output@@AEAA_N_W@Z 0000000180085a70 f i libucrtd:output.obj
 0001:00084bd0       ?type_case_c_tchar@?$output_processor@_WV?$stream_output_adapter@_W@__crt_stdio_output@@V?$positional_parameter_base@_WV?$stream_output_adapter@_W@__crt_stdio_output@@@2@@__crt_stdio_output@@AEAA_N_W@Z 0000000180085bd0 f i libucrtd:output.obj
 0001:00084d30       ?type_case_c_tchar@?$output_processor@_WV?$stream_output_adapter@_W@__crt_stdio_output@@V?$standard_base@_WV?$stream_output_adapter@_W@__crt_stdio_output@@@2@@__crt_stdio_output@@AEAA_N_W@Z 0000000180085d30 f i libucrtd:output.obj
 0001:00084e90       ?type_case_c_tchar@?$output_processor@_WV?$string_output_adapter@_W@__crt_stdio_output@@V?$format_validation_base@_WV?$string_output_adapter@_W@__crt_stdio_output@@@2@@__crt_stdio_output@@AEAA_N_W@Z 0000000180085e90 f i libucrtd:output.obj
 0001:00084ff0       ?type_case_c_tchar@?$output_processor@_WV?$string_output_adapter@_W@__crt_stdio_output@@V?$positional_parameter_base@_WV?$string_output_adapter@_W@__crt_stdio_output@@@2@@__crt_stdio_output@@AEAA_N_W@Z 0000000180085ff0 f i libucrtd:output.obj
 0001:00085150       ?type_case_c_tchar@?$output_processor@_WV?$string_output_adapter@_W@__crt_stdio_output@@V?$standard_base@_WV?$string_output_adapter@_W@__crt_stdio_output@@@2@@__crt_stdio_output@@AEAA_N_W@Z 0000000180086150 f i libucrtd:output.obj
 0001:000852b0       ?type_case_d@?$output_processor@DV?$stream_output_adapter@D@__crt_stdio_output@@V?$format_validation_base@DV?$stream_output_adapter@D@__crt_stdio_output@@@2@@__crt_stdio_output@@AEAA_NXZ 00000001800862b0 f i libucrtd:output.obj
 0001:000852e0       ?type_case_d@?$output_processor@DV?$stream_output_adapter@D@__crt_stdio_output@@V?$positional_parameter_base@DV?$stream_output_adapter@D@__crt_stdio_output@@@2@@__crt_stdio_output@@AEAA_NXZ 00000001800862e0 f i libucrtd:output.obj
 0001:00085310       ?type_case_d@?$output_processor@DV?$stream_output_adapter@D@__crt_stdio_output@@V?$standard_base@DV?$stream_output_adapter@D@__crt_stdio_output@@@2@@__crt_stdio_output@@AEAA_NXZ 0000000180086310 f i libucrtd:output.obj
 0001:00085340       ?type_case_d@?$output_processor@DV?$string_output_adapter@D@__crt_stdio_output@@V?$format_validation_base@DV?$string_output_adapter@D@__crt_stdio_output@@@2@@__crt_stdio_output@@AEAA_NXZ 0000000180086340 f i libucrtd:output.obj
 0001:00085370       ?type_case_d@?$output_processor@DV?$string_output_adapter@D@__crt_stdio_output@@V?$positional_parameter_base@DV?$string_output_adapter@D@__crt_stdio_output@@@2@@__crt_stdio_output@@AEAA_NXZ 0000000180086370 f i libucrtd:output.obj
 0001:000853a0       ?type_case_d@?$output_processor@DV?$string_output_adapter@D@__crt_stdio_output@@V?$standard_base@DV?$string_output_adapter@D@__crt_stdio_output@@@2@@__crt_stdio_output@@AEAA_NXZ 00000001800863a0 f i libucrtd:output.obj
 0001:000853d0       ?type_case_d@?$output_processor@_WV?$stream_output_adapter@_W@__crt_stdio_output@@V?$format_validation_base@_WV?$stream_output_adapter@_W@__crt_stdio_output@@@2@@__crt_stdio_output@@AEAA_NXZ 00000001800863d0 f i libucrtd:output.obj
 0001:00085400       ?type_case_d@?$output_processor@_WV?$stream_output_adapter@_W@__crt_stdio_output@@V?$positional_parameter_base@_WV?$stream_output_adapter@_W@__crt_stdio_output@@@2@@__crt_stdio_output@@AEAA_NXZ 0000000180086400 f i libucrtd:output.obj
 0001:00085430       ?type_case_d@?$output_processor@_WV?$stream_output_adapter@_W@__crt_stdio_output@@V?$standard_base@_WV?$stream_output_adapter@_W@__crt_stdio_output@@@2@@__crt_stdio_output@@AEAA_NXZ 0000000180086430 f i libucrtd:output.obj
 0001:00085460       ?type_case_d@?$output_processor@_WV?$string_output_adapter@_W@__crt_stdio_output@@V?$format_validation_base@_WV?$string_output_adapter@_W@__crt_stdio_output@@@2@@__crt_stdio_output@@AEAA_NXZ 0000000180086460 f i libucrtd:output.obj
 0001:00085490       ?type_case_d@?$output_processor@_WV?$string_output_adapter@_W@__crt_stdio_output@@V?$positional_parameter_base@_WV?$string_output_adapter@_W@__crt_stdio_output@@@2@@__crt_stdio_output@@AEAA_NXZ 0000000180086490 f i libucrtd:output.obj
 0001:000854c0       ?type_case_d@?$output_processor@_WV?$string_output_adapter@_W@__crt_stdio_output@@V?$standard_base@_WV?$string_output_adapter@_W@__crt_stdio_output@@@2@@__crt_stdio_output@@AEAA_NXZ 00000001800864c0 f i libucrtd:output.obj
 0001:000854f0       ?type_case_n@?$output_processor@DV?$stream_output_adapter@D@__crt_stdio_output@@V?$format_validation_base@DV?$stream_output_adapter@D@__crt_stdio_output@@@2@@__crt_stdio_output@@AEAA_NXZ 00000001800864f0 f i libucrtd:output.obj
 0001:00085780       ?type_case_n@?$output_processor@DV?$stream_output_adapter@D@__crt_stdio_output@@V?$positional_parameter_base@DV?$stream_output_adapter@D@__crt_stdio_output@@@2@@__crt_stdio_output@@AEAA_NXZ 0000000180086780 f i libucrtd:output.obj
 0001:00085a10       ?type_case_n@?$output_processor@DV?$stream_output_adapter@D@__crt_stdio_output@@V?$standard_base@DV?$stream_output_adapter@D@__crt_stdio_output@@@2@@__crt_stdio_output@@AEAA_NXZ 0000000180086a10 f i libucrtd:output.obj
 0001:00085ca0       ?type_case_n@?$output_processor@DV?$string_output_adapter@D@__crt_stdio_output@@V?$format_validation_base@DV?$string_output_adapter@D@__crt_stdio_output@@@2@@__crt_stdio_output@@AEAA_NXZ 0000000180086ca0 f i libucrtd:output.obj
 0001:00085f30       ?type_case_n@?$output_processor@DV?$string_output_adapter@D@__crt_stdio_output@@V?$positional_parameter_base@DV?$string_output_adapter@D@__crt_stdio_output@@@2@@__crt_stdio_output@@AEAA_NXZ 0000000180086f30 f i libucrtd:output.obj
 0001:000861c0       ?type_case_n@?$output_processor@DV?$string_output_adapter@D@__crt_stdio_output@@V?$standard_base@DV?$string_output_adapter@D@__crt_stdio_output@@@2@@__crt_stdio_output@@AEAA_NXZ 00000001800871c0 f i libucrtd:output.obj
 0001:00086450       ?type_case_n@?$output_processor@_WV?$stream_output_adapter@_W@__crt_stdio_output@@V?$format_validation_base@_WV?$stream_output_adapter@_W@__crt_stdio_output@@@2@@__crt_stdio_output@@AEAA_NXZ 0000000180087450 f i libucrtd:output.obj
 0001:000866e0       ?type_case_n@?$output_processor@_WV?$stream_output_adapter@_W@__crt_stdio_output@@V?$positional_parameter_base@_WV?$stream_output_adapter@_W@__crt_stdio_output@@@2@@__crt_stdio_output@@AEAA_NXZ 00000001800876e0 f i libucrtd:output.obj
 0001:00086970       ?type_case_n@?$output_processor@_WV?$stream_output_adapter@_W@__crt_stdio_output@@V?$standard_base@_WV?$stream_output_adapter@_W@__crt_stdio_output@@@2@@__crt_stdio_output@@AEAA_NXZ 0000000180087970 f i libucrtd:output.obj
 0001:00086c00       ?type_case_n@?$output_processor@_WV?$string_output_adapter@_W@__crt_stdio_output@@V?$format_validation_base@_WV?$string_output_adapter@_W@__crt_stdio_output@@@2@@__crt_stdio_output@@AEAA_NXZ 0000000180087c00 f i libucrtd:output.obj
 0001:00086e90       ?type_case_n@?$output_processor@_WV?$string_output_adapter@_W@__crt_stdio_output@@V?$positional_parameter_base@_WV?$string_output_adapter@_W@__crt_stdio_output@@@2@@__crt_stdio_output@@AEAA_NXZ 0000000180087e90 f i libucrtd:output.obj
 0001:00087120       ?type_case_n@?$output_processor@_WV?$string_output_adapter@_W@__crt_stdio_output@@V?$standard_base@_WV?$string_output_adapter@_W@__crt_stdio_output@@@2@@__crt_stdio_output@@AEAA_NXZ 0000000180088120 f i libucrtd:output.obj
 0001:000873b0       ?type_case_o@?$output_processor@DV?$stream_output_adapter@D@__crt_stdio_output@@V?$format_validation_base@DV?$stream_output_adapter@D@__crt_stdio_output@@@2@@__crt_stdio_output@@AEAA_NXZ 00000001800883b0 f i libucrtd:output.obj
 0001:000873f0       ?type_case_o@?$output_processor@DV?$stream_output_adapter@D@__crt_stdio_output@@V?$positional_parameter_base@DV?$stream_output_adapter@D@__crt_stdio_output@@@2@@__crt_stdio_output@@AEAA_NXZ 00000001800883f0 f i libucrtd:output.obj
 0001:00087430       ?type_case_o@?$output_processor@DV?$stream_output_adapter@D@__crt_stdio_output@@V?$standard_base@DV?$stream_output_adapter@D@__crt_stdio_output@@@2@@__crt_stdio_output@@AEAA_NXZ 0000000180088430 f i libucrtd:output.obj
 0001:00087470       ?type_case_o@?$output_processor@DV?$string_output_adapter@D@__crt_stdio_output@@V?$format_validation_base@DV?$string_output_adapter@D@__crt_stdio_output@@@2@@__crt_stdio_output@@AEAA_NXZ 0000000180088470 f i libucrtd:output.obj
 0001:000874b0       ?type_case_o@?$output_processor@DV?$string_output_adapter@D@__crt_stdio_output@@V?$positional_parameter_base@DV?$string_output_adapter@D@__crt_stdio_output@@@2@@__crt_stdio_output@@AEAA_NXZ 00000001800884b0 f i libucrtd:output.obj
 0001:000874f0       ?type_case_o@?$output_processor@DV?$string_output_adapter@D@__crt_stdio_output@@V?$standard_base@DV?$string_output_adapter@D@__crt_stdio_output@@@2@@__crt_stdio_output@@AEAA_NXZ 00000001800884f0 f i libucrtd:output.obj
 0001:00087530       ?type_case_o@?$output_processor@_WV?$stream_output_adapter@_W@__crt_stdio_output@@V?$format_validation_base@_WV?$stream_output_adapter@_W@__crt_stdio_output@@@2@@__crt_stdio_output@@AEAA_NXZ 0000000180088530 f i libucrtd:output.obj
 0001:00087570       ?type_case_o@?$output_processor@_WV?$stream_output_adapter@_W@__crt_stdio_output@@V?$positional_parameter_base@_WV?$stream_output_adapter@_W@__crt_stdio_output@@@2@@__crt_stdio_output@@AEAA_NXZ 0000000180088570 f i libucrtd:output.obj
 0001:000875b0       ?type_case_o@?$output_processor@_WV?$stream_output_adapter@_W@__crt_stdio_output@@V?$standard_base@_WV?$stream_output_adapter@_W@__crt_stdio_output@@@2@@__crt_stdio_output@@AEAA_NXZ 00000001800885b0 f i libucrtd:output.obj
 0001:000875f0       ?type_case_o@?$output_processor@_WV?$string_output_adapter@_W@__crt_stdio_output@@V?$format_validation_base@_WV?$string_output_adapter@_W@__crt_stdio_output@@@2@@__crt_stdio_output@@AEAA_NXZ 00000001800885f0 f i libucrtd:output.obj
 0001:00087630       ?type_case_o@?$output_processor@_WV?$string_output_adapter@_W@__crt_stdio_output@@V?$positional_parameter_base@_WV?$string_output_adapter@_W@__crt_stdio_output@@@2@@__crt_stdio_output@@AEAA_NXZ 0000000180088630 f i libucrtd:output.obj
 0001:00087670       ?type_case_o@?$output_processor@_WV?$string_output_adapter@_W@__crt_stdio_output@@V?$standard_base@_WV?$string_output_adapter@_W@__crt_stdio_output@@@2@@__crt_stdio_output@@AEAA_NXZ 0000000180088670 f i libucrtd:output.obj
 0001:000876b0       ?type_case_p@?$output_processor@DV?$stream_output_adapter@D@__crt_stdio_output@@V?$format_validation_base@DV?$stream_output_adapter@D@__crt_stdio_output@@@2@@__crt_stdio_output@@AEAA_NXZ 00000001800886b0 f i libucrtd:output.obj
 0001:000876f0       ?type_case_p@?$output_processor@DV?$stream_output_adapter@D@__crt_stdio_output@@V?$positional_parameter_base@DV?$stream_output_adapter@D@__crt_stdio_output@@@2@@__crt_stdio_output@@AEAA_NXZ 00000001800886f0 f i libucrtd:output.obj
 0001:00087730       ?type_case_p@?$output_processor@DV?$stream_output_adapter@D@__crt_stdio_output@@V?$standard_base@DV?$stream_output_adapter@D@__crt_stdio_output@@@2@@__crt_stdio_output@@AEAA_NXZ 0000000180088730 f i libucrtd:output.obj
 0001:00087770       ?type_case_p@?$output_processor@DV?$string_output_adapter@D@__crt_stdio_output@@V?$format_validation_base@DV?$string_output_adapter@D@__crt_stdio_output@@@2@@__crt_stdio_output@@AEAA_NXZ 0000000180088770 f i libucrtd:output.obj
 0001:000877b0       ?type_case_p@?$output_processor@DV?$string_output_adapter@D@__crt_stdio_output@@V?$positional_parameter_base@DV?$string_output_adapter@D@__crt_stdio_output@@@2@@__crt_stdio_output@@AEAA_NXZ 00000001800887b0 f i libucrtd:output.obj
 0001:000877f0       ?type_case_p@?$output_processor@DV?$string_output_adapter@D@__crt_stdio_output@@V?$standard_base@DV?$string_output_adapter@D@__crt_stdio_output@@@2@@__crt_stdio_output@@AEAA_NXZ 00000001800887f0 f i libucrtd:output.obj
 0001:00087830       ?type_case_p@?$output_processor@_WV?$stream_output_adapter@_W@__crt_stdio_output@@V?$format_validation_base@_WV?$stream_output_adapter@_W@__crt_stdio_output@@@2@@__crt_stdio_output@@AEAA_NXZ 0000000180088830 f i libucrtd:output.obj
 0001:00087870       ?type_case_p@?$output_processor@_WV?$stream_output_adapter@_W@__crt_stdio_output@@V?$positional_parameter_base@_WV?$stream_output_adapter@_W@__crt_stdio_output@@@2@@__crt_stdio_output@@AEAA_NXZ 0000000180088870 f i libucrtd:output.obj
 0001:000878b0       ?type_case_p@?$output_processor@_WV?$stream_output_adapter@_W@__crt_stdio_output@@V?$standard_base@_WV?$stream_output_adapter@_W@__crt_stdio_output@@@2@@__crt_stdio_output@@AEAA_NXZ 00000001800888b0 f i libucrtd:output.obj
 0001:000878f0       ?type_case_p@?$output_processor@_WV?$string_output_adapter@_W@__crt_stdio_output@@V?$format_validation_base@_WV?$string_output_adapter@_W@__crt_stdio_output@@@2@@__crt_stdio_output@@AEAA_NXZ 00000001800888f0 f i libucrtd:output.obj
 0001:00087930       ?type_case_p@?$output_processor@_WV?$string_output_adapter@_W@__crt_stdio_output@@V?$positional_parameter_base@_WV?$string_output_adapter@_W@__crt_stdio_output@@@2@@__crt_stdio_output@@AEAA_NXZ 0000000180088930 f i libucrtd:output.obj
 0001:00087970       ?type_case_p@?$output_processor@_WV?$string_output_adapter@_W@__crt_stdio_output@@V?$standard_base@_WV?$string_output_adapter@_W@__crt_stdio_output@@@2@@__crt_stdio_output@@AEAA_NXZ 0000000180088970 f i libucrtd:output.obj
 0001:000879b0       ?type_case_s@?$output_processor@DV?$stream_output_adapter@D@__crt_stdio_output@@V?$format_validation_base@DV?$stream_output_adapter@D@__crt_stdio_output@@@2@@__crt_stdio_output@@AEAA_NXZ 00000001800889b0 f i libucrtd:output.obj
 0001:00087ad0       ?type_case_s@?$output_processor@DV?$stream_output_adapter@D@__crt_stdio_output@@V?$positional_parameter_base@DV?$stream_output_adapter@D@__crt_stdio_output@@@2@@__crt_stdio_output@@AEAA_NXZ 0000000180088ad0 f i libucrtd:output.obj
 0001:00087bf0       ?type_case_s@?$output_processor@DV?$stream_output_adapter@D@__crt_stdio_output@@V?$standard_base@DV?$stream_output_adapter@D@__crt_stdio_output@@@2@@__crt_stdio_output@@AEAA_NXZ 0000000180088bf0 f i libucrtd:output.obj
 0001:00087d10       ?type_case_s@?$output_processor@DV?$string_output_adapter@D@__crt_stdio_output@@V?$format_validation_base@DV?$string_output_adapter@D@__crt_stdio_output@@@2@@__crt_stdio_output@@AEAA_NXZ 0000000180088d10 f i libucrtd:output.obj
 0001:00087e30       ?type_case_s@?$output_processor@DV?$string_output_adapter@D@__crt_stdio_output@@V?$positional_parameter_base@DV?$string_output_adapter@D@__crt_stdio_output@@@2@@__crt_stdio_output@@AEAA_NXZ 0000000180088e30 f i libucrtd:output.obj
 0001:00087f50       ?type_case_s@?$output_processor@DV?$string_output_adapter@D@__crt_stdio_output@@V?$standard_base@DV?$string_output_adapter@D@__crt_stdio_output@@@2@@__crt_stdio_output@@AEAA_NXZ 0000000180088f50 f i libucrtd:output.obj
 0001:00088070       ?type_case_s@?$output_processor@_WV?$stream_output_adapter@_W@__crt_stdio_output@@V?$format_validation_base@_WV?$stream_output_adapter@_W@__crt_stdio_output@@@2@@__crt_stdio_output@@AEAA_NXZ 0000000180089070 f i libucrtd:output.obj
 0001:00088190       ?type_case_s@?$output_processor@_WV?$stream_output_adapter@_W@__crt_stdio_output@@V?$positional_parameter_base@_WV?$stream_output_adapter@_W@__crt_stdio_output@@@2@@__crt_stdio_output@@AEAA_NXZ 0000000180089190 f i libucrtd:output.obj
 0001:000882b0       ?type_case_s@?$output_processor@_WV?$stream_output_adapter@_W@__crt_stdio_output@@V?$standard_base@_WV?$stream_output_adapter@_W@__crt_stdio_output@@@2@@__crt_stdio_output@@AEAA_NXZ 00000001800892b0 f i libucrtd:output.obj
 0001:000883d0       ?type_case_s@?$output_processor@_WV?$string_output_adapter@_W@__crt_stdio_output@@V?$format_validation_base@_WV?$string_output_adapter@_W@__crt_stdio_output@@@2@@__crt_stdio_output@@AEAA_NXZ 00000001800893d0 f i libucrtd:output.obj
 0001:000884f0       ?type_case_s@?$output_processor@_WV?$string_output_adapter@_W@__crt_stdio_output@@V?$positional_parameter_base@_WV?$string_output_adapter@_W@__crt_stdio_output@@@2@@__crt_stdio_output@@AEAA_NXZ 00000001800894f0 f i libucrtd:output.obj
 0001:00088610       ?type_case_s@?$output_processor@_WV?$string_output_adapter@_W@__crt_stdio_output@@V?$standard_base@_WV?$string_output_adapter@_W@__crt_stdio_output@@@2@@__crt_stdio_output@@AEAA_NXZ 0000000180089610 f i libucrtd:output.obj
 0001:00088730       ?type_case_s_compute_narrow_string_length@?$output_processor@DV?$stream_output_adapter@D@__crt_stdio_output@@V?$format_validation_base@DV?$stream_output_adapter@D@__crt_stdio_output@@@2@@__crt_stdio_output@@AEAAHHD@Z 0000000180089730 f i libucrtd:output.obj
 0001:00088760       ?type_case_s_compute_narrow_string_length@?$output_processor@DV?$stream_output_adapter@D@__crt_stdio_output@@V?$positional_parameter_base@DV?$stream_output_adapter@D@__crt_stdio_output@@@2@@__crt_stdio_output@@AEAAHHD@Z 0000000180089760 f i libucrtd:output.obj
 0001:00088790       ?type_case_s_compute_narrow_string_length@?$output_processor@DV?$stream_output_adapter@D@__crt_stdio_output@@V?$standard_base@DV?$stream_output_adapter@D@__crt_stdio_output@@@2@@__crt_stdio_output@@AEAAHHD@Z 0000000180089790 f i libucrtd:output.obj
 0001:000887c0       ?type_case_s_compute_narrow_string_length@?$output_processor@DV?$string_output_adapter@D@__crt_stdio_output@@V?$format_validation_base@DV?$string_output_adapter@D@__crt_stdio_output@@@2@@__crt_stdio_output@@AEAAHHD@Z 00000001800897c0 f i libucrtd:output.obj
 0001:000887f0       ?type_case_s_compute_narrow_string_length@?$output_processor@DV?$string_output_adapter@D@__crt_stdio_output@@V?$positional_parameter_base@DV?$string_output_adapter@D@__crt_stdio_output@@@2@@__crt_stdio_output@@AEAAHHD@Z 00000001800897f0 f i libucrtd:output.obj
 0001:00088820       ?type_case_s_compute_narrow_string_length@?$output_processor@DV?$string_output_adapter@D@__crt_stdio_output@@V?$standard_base@DV?$string_output_adapter@D@__crt_stdio_output@@@2@@__crt_stdio_output@@AEAAHHD@Z 0000000180089820 f i libucrtd:output.obj
 0001:00088850       ?type_case_s_compute_narrow_string_length@?$output_processor@_WV?$stream_output_adapter@_W@__crt_stdio_output@@V?$format_validation_base@_WV?$stream_output_adapter@_W@__crt_stdio_output@@@2@@__crt_stdio_output@@AEAAHH_W@Z 0000000180089850 f i libucrtd:output.obj
 0001:000888f0       ?type_case_s_compute_narrow_string_length@?$output_processor@_WV?$stream_output_adapter@_W@__crt_stdio_output@@V?$positional_parameter_base@_WV?$stream_output_adapter@_W@__crt_stdio_output@@@2@@__crt_stdio_output@@AEAAHH_W@Z 00000001800898f0 f i libucrtd:output.obj
 0001:00088990       ?type_case_s_compute_narrow_string_length@?$output_processor@_WV?$stream_output_adapter@_W@__crt_stdio_output@@V?$standard_base@_WV?$stream_output_adapter@_W@__crt_stdio_output@@@2@@__crt_stdio_output@@AEAAHH_W@Z 0000000180089990 f i libucrtd:output.obj
 0001:00088a30       ?type_case_s_compute_narrow_string_length@?$output_processor@_WV?$string_output_adapter@_W@__crt_stdio_output@@V?$format_validation_base@_WV?$string_output_adapter@_W@__crt_stdio_output@@@2@@__crt_stdio_output@@AEAAHH_W@Z 0000000180089a30 f i libucrtd:output.obj
 0001:00088ad0       ?type_case_s_compute_narrow_string_length@?$output_processor@_WV?$string_output_adapter@_W@__crt_stdio_output@@V?$positional_parameter_base@_WV?$string_output_adapter@_W@__crt_stdio_output@@@2@@__crt_stdio_output@@AEAAHH_W@Z 0000000180089ad0 f i libucrtd:output.obj
 0001:00088b70       ?type_case_s_compute_narrow_string_length@?$output_processor@_WV?$string_output_adapter@_W@__crt_stdio_output@@V?$standard_base@_WV?$string_output_adapter@_W@__crt_stdio_output@@@2@@__crt_stdio_output@@AEAAHH_W@Z 0000000180089b70 f i libucrtd:output.obj
 0001:00088c10       ?type_case_u@?$output_processor@DV?$stream_output_adapter@D@__crt_stdio_output@@V?$format_validation_base@DV?$stream_output_adapter@D@__crt_stdio_output@@@2@@__crt_stdio_output@@AEAA_NXZ 0000000180089c10 f i libucrtd:output.obj
 0001:00088c30       ?type_case_u@?$output_processor@DV?$stream_output_adapter@D@__crt_stdio_output@@V?$positional_parameter_base@DV?$stream_output_adapter@D@__crt_stdio_output@@@2@@__crt_stdio_output@@AEAA_NXZ 0000000180089c30 f i libucrtd:output.obj
 0001:00088c50       ?type_case_u@?$output_processor@DV?$stream_output_adapter@D@__crt_stdio_output@@V?$standard_base@DV?$stream_output_adapter@D@__crt_stdio_output@@@2@@__crt_stdio_output@@AEAA_NXZ 0000000180089c50 f i libucrtd:output.obj
 0001:00088c70       ?type_case_u@?$output_processor@DV?$string_output_adapter@D@__crt_stdio_output@@V?$format_validation_base@DV?$string_output_adapter@D@__crt_stdio_output@@@2@@__crt_stdio_output@@AEAA_NXZ 0000000180089c70 f i libucrtd:output.obj
 0001:00088c90       ?type_case_u@?$output_processor@DV?$string_output_adapter@D@__crt_stdio_output@@V?$positional_parameter_base@DV?$string_output_adapter@D@__crt_stdio_output@@@2@@__crt_stdio_output@@AEAA_NXZ 0000000180089c90 f i libucrtd:output.obj
 0001:00088cb0       ?type_case_u@?$output_processor@DV?$string_output_adapter@D@__crt_stdio_output@@V?$standard_base@DV?$string_output_adapter@D@__crt_stdio_output@@@2@@__crt_stdio_output@@AEAA_NXZ 0000000180089cb0 f i libucrtd:output.obj
 0001:00088cd0       ?type_case_u@?$output_processor@_WV?$stream_output_adapter@_W@__crt_stdio_output@@V?$format_validation_base@_WV?$stream_output_adapter@_W@__crt_stdio_output@@@2@@__crt_stdio_output@@AEAA_NXZ 0000000180089cd0 f i libucrtd:output.obj
 0001:00088cf0       ?type_case_u@?$output_processor@_WV?$stream_output_adapter@_W@__crt_stdio_output@@V?$positional_parameter_base@_WV?$stream_output_adapter@_W@__crt_stdio_output@@@2@@__crt_stdio_output@@AEAA_NXZ 0000000180089cf0 f i libucrtd:output.obj
 0001:00088d10       ?type_case_u@?$output_processor@_WV?$stream_output_adapter@_W@__crt_stdio_output@@V?$standard_base@_WV?$stream_output_adapter@_W@__crt_stdio_output@@@2@@__crt_stdio_output@@AEAA_NXZ 0000000180089d10 f i libucrtd:output.obj
 0001:00088d30       ?type_case_u@?$output_processor@_WV?$string_output_adapter@_W@__crt_stdio_output@@V?$format_validation_base@_WV?$string_output_adapter@_W@__crt_stdio_output@@@2@@__crt_stdio_output@@AEAA_NXZ 0000000180089d30 f i libucrtd:output.obj
 0001:00088d50       ?type_case_u@?$output_processor@_WV?$string_output_adapter@_W@__crt_stdio_output@@V?$positional_parameter_base@_WV?$string_output_adapter@_W@__crt_stdio_output@@@2@@__crt_stdio_output@@AEAA_NXZ 0000000180089d50 f i libucrtd:output.obj
 0001:00088d70       ?type_case_u@?$output_processor@_WV?$string_output_adapter@_W@__crt_stdio_output@@V?$standard_base@_WV?$string_output_adapter@_W@__crt_stdio_output@@@2@@__crt_stdio_output@@AEAA_NXZ 0000000180089d70 f i libucrtd:output.obj
 0001:00088d90       ?type_case_x@?$output_processor@DV?$stream_output_adapter@D@__crt_stdio_output@@V?$format_validation_base@DV?$stream_output_adapter@D@__crt_stdio_output@@@2@@__crt_stdio_output@@AEAA_NXZ 0000000180089d90 f i libucrtd:output.obj
 0001:00088db0       ?type_case_x@?$output_processor@DV?$stream_output_adapter@D@__crt_stdio_output@@V?$positional_parameter_base@DV?$stream_output_adapter@D@__crt_stdio_output@@@2@@__crt_stdio_output@@AEAA_NXZ 0000000180089db0 f i libucrtd:output.obj
 0001:00088dd0       ?type_case_x@?$output_processor@DV?$stream_output_adapter@D@__crt_stdio_output@@V?$standard_base@DV?$stream_output_adapter@D@__crt_stdio_output@@@2@@__crt_stdio_output@@AEAA_NXZ 0000000180089dd0 f i libucrtd:output.obj
 0001:00088df0       ?type_case_x@?$output_processor@DV?$string_output_adapter@D@__crt_stdio_output@@V?$format_validation_base@DV?$string_output_adapter@D@__crt_stdio_output@@@2@@__crt_stdio_output@@AEAA_NXZ 0000000180089df0 f i libucrtd:output.obj
 0001:00088e10       ?type_case_x@?$output_processor@DV?$string_output_adapter@D@__crt_stdio_output@@V?$positional_parameter_base@DV?$string_output_adapter@D@__crt_stdio_output@@@2@@__crt_stdio_output@@AEAA_NXZ 0000000180089e10 f i libucrtd:output.obj
 0001:00088e30       ?type_case_x@?$output_processor@DV?$string_output_adapter@D@__crt_stdio_output@@V?$standard_base@DV?$string_output_adapter@D@__crt_stdio_output@@@2@@__crt_stdio_output@@AEAA_NXZ 0000000180089e30 f i libucrtd:output.obj
 0001:00088e50       ?type_case_x@?$output_processor@_WV?$stream_output_adapter@_W@__crt_stdio_output@@V?$format_validation_base@_WV?$stream_output_adapter@_W@__crt_stdio_output@@@2@@__crt_stdio_output@@AEAA_NXZ 0000000180089e50 f i libucrtd:output.obj
 0001:00088e70       ?type_case_x@?$output_processor@_WV?$stream_output_adapter@_W@__crt_stdio_output@@V?$positional_parameter_base@_WV?$stream_output_adapter@_W@__crt_stdio_output@@@2@@__crt_stdio_output@@AEAA_NXZ 0000000180089e70 f i libucrtd:output.obj
 0001:00088e90       ?type_case_x@?$output_processor@_WV?$stream_output_adapter@_W@__crt_stdio_output@@V?$standard_base@_WV?$stream_output_adapter@_W@__crt_stdio_output@@@2@@__crt_stdio_output@@AEAA_NXZ 0000000180089e90 f i libucrtd:output.obj
 0001:00088eb0       ?type_case_x@?$output_processor@_WV?$string_output_adapter@_W@__crt_stdio_output@@V?$format_validation_base@_WV?$string_output_adapter@_W@__crt_stdio_output@@@2@@__crt_stdio_output@@AEAA_NXZ 0000000180089eb0 f i libucrtd:output.obj
 0001:00088ed0       ?type_case_x@?$output_processor@_WV?$string_output_adapter@_W@__crt_stdio_output@@V?$positional_parameter_base@_WV?$string_output_adapter@_W@__crt_stdio_output@@@2@@__crt_stdio_output@@AEAA_NXZ 0000000180089ed0 f i libucrtd:output.obj
 0001:00088ef0       ?type_case_x@?$output_processor@_WV?$string_output_adapter@_W@__crt_stdio_output@@V?$standard_base@_WV?$string_output_adapter@_W@__crt_stdio_output@@@2@@__crt_stdio_output@@AEAA_NXZ 0000000180089ef0 f i libucrtd:output.obj
 0001:00088f10       ?unget@?$c_string_character_source@D@__crt_strtox@@QEAAXD@Z 0000000180089f10 f i libucrtd:output.obj
 0001:00088ff0       ?unget@?$c_string_character_source@_W@__crt_strtox@@QEAAX_W@Z 0000000180089ff0 f i libucrtd:output.obj
 0001:000890d0       ?unsafe_value@?$cached@H@__crt_cached_ptd_host@@QEAAHXZ 000000018008a0d0 f i libucrtd:output.obj
 0001:000890e0       ?unsafe_value@?$cached@K@__crt_cached_ptd_host@@QEAAKXZ 000000018008a0e0 f i libucrtd:output.obj
 0001:000890f0       ?unset_flag@?$output_processor@DV?$stream_output_adapter@D@__crt_stdio_output@@V?$format_validation_base@DV?$stream_output_adapter@D@__crt_stdio_output@@@2@@__crt_stdio_output@@AEAAXI@Z 000000018008a0f0 f i libucrtd:output.obj
 0001:00089120       ?unset_flag@?$output_processor@DV?$stream_output_adapter@D@__crt_stdio_output@@V?$positional_parameter_base@DV?$stream_output_adapter@D@__crt_stdio_output@@@2@@__crt_stdio_output@@AEAAXI@Z 000000018008a120 f i libucrtd:output.obj
 0001:00089150       ?unset_flag@?$output_processor@DV?$stream_output_adapter@D@__crt_stdio_output@@V?$standard_base@DV?$stream_output_adapter@D@__crt_stdio_output@@@2@@__crt_stdio_output@@AEAAXI@Z 000000018008a150 f i libucrtd:output.obj
 0001:00089180       ?unset_flag@?$output_processor@DV?$string_output_adapter@D@__crt_stdio_output@@V?$format_validation_base@DV?$string_output_adapter@D@__crt_stdio_output@@@2@@__crt_stdio_output@@AEAAXI@Z 000000018008a180 f i libucrtd:output.obj
 0001:000891b0       ?unset_flag@?$output_processor@DV?$string_output_adapter@D@__crt_stdio_output@@V?$positional_parameter_base@DV?$string_output_adapter@D@__crt_stdio_output@@@2@@__crt_stdio_output@@AEAAXI@Z 000000018008a1b0 f i libucrtd:output.obj
 0001:000891e0       ?unset_flag@?$output_processor@DV?$string_output_adapter@D@__crt_stdio_output@@V?$standard_base@DV?$string_output_adapter@D@__crt_stdio_output@@@2@@__crt_stdio_output@@AEAAXI@Z 000000018008a1e0 f i libucrtd:output.obj
 0001:00089210       ?unset_flag@?$output_processor@_WV?$stream_output_adapter@_W@__crt_stdio_output@@V?$format_validation_base@_WV?$stream_output_adapter@_W@__crt_stdio_output@@@2@@__crt_stdio_output@@AEAAXI@Z 000000018008a210 f i libucrtd:output.obj
 0001:00089240       ?unset_flag@?$output_processor@_WV?$stream_output_adapter@_W@__crt_stdio_output@@V?$positional_parameter_base@_WV?$stream_output_adapter@_W@__crt_stdio_output@@@2@@__crt_stdio_output@@AEAAXI@Z 000000018008a240 f i libucrtd:output.obj
 0001:00089270       ?unset_flag@?$output_processor@_WV?$stream_output_adapter@_W@__crt_stdio_output@@V?$standard_base@_WV?$stream_output_adapter@_W@__crt_stdio_output@@@2@@__crt_stdio_output@@AEAAXI@Z 000000018008a270 f i libucrtd:output.obj
 0001:000892a0       ?unset_flag@?$output_processor@_WV?$string_output_adapter@_W@__crt_stdio_output@@V?$format_validation_base@_WV?$string_output_adapter@_W@__crt_stdio_output@@@2@@__crt_stdio_output@@AEAAXI@Z 000000018008a2a0 f i libucrtd:output.obj
 0001:000892d0       ?unset_flag@?$output_processor@_WV?$string_output_adapter@_W@__crt_stdio_output@@V?$positional_parameter_base@_WV?$string_output_adapter@_W@__crt_stdio_output@@@2@@__crt_stdio_output@@AEAAXI@Z 000000018008a2d0 f i libucrtd:output.obj
 0001:00089300       ?unset_flag@?$output_processor@_WV?$string_output_adapter@_W@__crt_stdio_output@@V?$standard_base@_WV?$string_output_adapter@_W@__crt_stdio_output@@@2@@__crt_stdio_output@@AEAAXI@Z 000000018008a300 f i libucrtd:output.obj
 0001:00089330       ?update_field_width@?$positional_parameter_base@DV?$stream_output_adapter@D@__crt_stdio_output@@@__crt_stdio_output@@IEAA_NXZ 000000018008a330 f i libucrtd:output.obj
 0001:00089530       ?update_field_width@?$positional_parameter_base@DV?$string_output_adapter@D@__crt_stdio_output@@@__crt_stdio_output@@IEAA_NXZ 000000018008a530 f i libucrtd:output.obj
 0001:00089730       ?update_field_width@?$positional_parameter_base@_WV?$stream_output_adapter@_W@__crt_stdio_output@@@__crt_stdio_output@@IEAA_NXZ 000000018008a730 f i libucrtd:output.obj
 0001:00089930       ?update_field_width@?$positional_parameter_base@_WV?$string_output_adapter@_W@__crt_stdio_output@@@__crt_stdio_output@@IEAA_NXZ 000000018008a930 f i libucrtd:output.obj
 0001:00089b30       ?update_field_width@?$standard_base@DV?$stream_output_adapter@D@__crt_stdio_output@@@__crt_stdio_output@@IEAA_NXZ 000000018008ab30 f i libucrtd:output.obj
 0001:00089b60       ?update_field_width@?$standard_base@DV?$string_output_adapter@D@__crt_stdio_output@@@__crt_stdio_output@@IEAA_NXZ 000000018008ab60 f i libucrtd:output.obj
 0001:00089b90       ?update_field_width@?$standard_base@_WV?$stream_output_adapter@_W@__crt_stdio_output@@@__crt_stdio_output@@IEAA_NXZ 000000018008ab90 f i libucrtd:output.obj
 0001:00089bc0       ?update_field_width@?$standard_base@_WV?$string_output_adapter@_W@__crt_stdio_output@@@__crt_stdio_output@@IEAA_NXZ 000000018008abc0 f i libucrtd:output.obj
 0001:00089bf0       ?update_locale@__crt_cached_ptd_host@@AEAAXXZ 000000018008abf0 f i libucrtd:output.obj
 0001:00089c20       ?update_locale_slow@__crt_cached_ptd_host@@AEAAXXZ 000000018008ac20 f i libucrtd:output.obj
 0001:00089cd0       ?update_precision@?$positional_parameter_base@DV?$stream_output_adapter@D@__crt_stdio_output@@@__crt_stdio_output@@IEAA_NXZ 000000018008acd0 f i libucrtd:output.obj
 0001:00089ed0       ?update_precision@?$positional_parameter_base@DV?$string_output_adapter@D@__crt_stdio_output@@@__crt_stdio_output@@IEAA_NXZ 000000018008aed0 f i libucrtd:output.obj
 0001:0008a0d0       ?update_precision@?$positional_parameter_base@_WV?$stream_output_adapter@_W@__crt_stdio_output@@@__crt_stdio_output@@IEAA_NXZ 000000018008b0d0 f i libucrtd:output.obj
 0001:0008a2d0       ?update_precision@?$positional_parameter_base@_WV?$string_output_adapter@_W@__crt_stdio_output@@@__crt_stdio_output@@IEAA_NXZ 000000018008b2d0 f i libucrtd:output.obj
 0001:0008a4d0       ?update_precision@?$standard_base@DV?$stream_output_adapter@D@__crt_stdio_output@@@__crt_stdio_output@@IEAA_NXZ 000000018008b4d0 f i libucrtd:output.obj
 0001:0008a500       ?update_precision@?$standard_base@DV?$string_output_adapter@D@__crt_stdio_output@@@__crt_stdio_output@@IEAA_NXZ 000000018008b500 f i libucrtd:output.obj
 0001:0008a530       ?update_precision@?$standard_base@_WV?$stream_output_adapter@_W@__crt_stdio_output@@@__crt_stdio_output@@IEAA_NXZ 000000018008b530 f i libucrtd:output.obj
 0001:0008a560       ?update_precision@?$standard_base@_WV?$string_output_adapter@_W@__crt_stdio_output@@@__crt_stdio_output@@IEAA_NXZ 000000018008b560 f i libucrtd:output.obj
 0001:0008a590       ?valid@?$cached@H@__crt_cached_ptd_host@@QEBA_NXZ 000000018008b590 f i libucrtd:output.obj
 0001:0008a5a0       ?valid@?$cached@K@__crt_cached_ptd_host@@QEBA_NXZ 000000018008b5a0 f i libucrtd:output.obj
 0001:0008a5b0       ?valid@__crt_stdio_stream@@QEBA_NXZ 000000018008b5b0 f i libucrtd:output.obj
 0001:0008a5e0       ?validate@?$c_string_character_source@D@__crt_strtox@@QEBA_NXZ 000000018008b5e0 f i libucrtd:output.obj
 0001:0008a6a0       ?validate@?$c_string_character_source@_W@__crt_strtox@@QEBA_NXZ 000000018008b6a0 f i libucrtd:output.obj
 0001:0008a760       ?validate@?$stream_output_adapter@D@__crt_stdio_output@@QEBA_NAEAV__crt_cached_ptd_host@@@Z 000000018008b760 f i libucrtd:output.obj
 0001:0008a860       ?validate@?$stream_output_adapter@_W@__crt_stdio_output@@QEBA_NAEAV__crt_cached_ptd_host@@@Z 000000018008b860 f i libucrtd:output.obj
 0001:0008a960       ?validate@?$string_output_adapter@D@__crt_stdio_output@@QEBA_NAEAV__crt_cached_ptd_host@@@Z 000000018008b960 f i libucrtd:output.obj
 0001:0008aa40       ?validate@?$string_output_adapter@_W@__crt_stdio_output@@QEBA_NAEAV__crt_cached_ptd_host@@@Z 000000018008ba40 f i libucrtd:output.obj
 0001:0008ab20       ?validate_and_store_parameter_data@?$positional_parameter_base@DV?$stream_output_adapter@D@__crt_stdio_output@@@__crt_stdio_output@@AEAA_NAEAUparameter_data@12@W4parameter_type@12@DW4length_modifier@2@@Z 000000018008bb20 f i libucrtd:output.obj
 0001:0008ac60       ?validate_and_store_parameter_data@?$positional_parameter_base@DV?$string_output_adapter@D@__crt_stdio_output@@@__crt_stdio_output@@AEAA_NAEAUparameter_data@12@W4parameter_type@12@DW4length_modifier@2@@Z 000000018008bc60 f i libucrtd:output.obj
 0001:0008ada0       ?validate_and_store_parameter_data@?$positional_parameter_base@_WV?$stream_output_adapter@_W@__crt_stdio_output@@@__crt_stdio_output@@AEAA_NAEAUparameter_data@12@W4parameter_type@12@_WW4length_modifier@2@@Z 000000018008bda0 f i libucrtd:output.obj
 0001:0008aee0       ?validate_and_store_parameter_data@?$positional_parameter_base@_WV?$string_output_adapter@_W@__crt_stdio_output@@@__crt_stdio_output@@AEAA_NAEAUparameter_data@12@W4parameter_type@12@_WW4length_modifier@2@@Z 000000018008bee0 f i libucrtd:output.obj
 0001:0008b020       ?validate_and_update_state_at_beginning_of_format_character@?$positional_parameter_base@DV?$stream_output_adapter@D@__crt_stdio_output@@@__crt_stdio_output@@IEAA_NXZ 000000018008c020 f i libucrtd:output.obj
 0001:0008b2c0       ?validate_and_update_state_at_beginning_of_format_character@?$positional_parameter_base@DV?$string_output_adapter@D@__crt_stdio_output@@@__crt_stdio_output@@IEAA_NXZ 000000018008c2c0 f i libucrtd:output.obj
 0001:0008b560       ?validate_and_update_state_at_beginning_of_format_character@?$positional_parameter_base@_WV?$stream_output_adapter@_W@__crt_stdio_output@@@__crt_stdio_output@@IEAA_NXZ 000000018008c560 f i libucrtd:output.obj
 0001:0008b800       ?validate_and_update_state_at_beginning_of_format_character@?$positional_parameter_base@_WV?$string_output_adapter@_W@__crt_stdio_output@@@__crt_stdio_output@@IEAA_NXZ 000000018008c800 f i libucrtd:output.obj
 0001:0008baa0       ?validate_and_update_state_at_beginning_of_format_character@?$standard_base@DV?$stream_output_adapter@D@__crt_stdio_output@@@__crt_stdio_output@@IEAA_NXZ 000000018008caa0 f i libucrtd:output.obj
 0001:0008bab0       ?validate_and_update_state_at_beginning_of_format_character@?$standard_base@DV?$string_output_adapter@D@__crt_stdio_output@@@__crt_stdio_output@@IEAA_NXZ 000000018008cab0 f i libucrtd:output.obj
 0001:0008bac0       ?validate_and_update_state_at_beginning_of_format_character@?$standard_base@_WV?$stream_output_adapter@_W@__crt_stdio_output@@@__crt_stdio_output@@IEAA_NXZ 000000018008cac0 f i libucrtd:output.obj
 0001:0008bad0       ?validate_and_update_state_at_beginning_of_format_character@?$standard_base@_WV?$string_output_adapter@_W@__crt_stdio_output@@@__crt_stdio_output@@IEAA_NXZ 000000018008cad0 f i libucrtd:output.obj
 0001:0008bae0       ?validate_and_update_state_at_end_of_format_string@?$format_validation_base@DV?$stream_output_adapter@D@__crt_stdio_output@@@__crt_stdio_output@@IEAA_NXZ 000000018008cae0 f i libucrtd:output.obj
 0001:0008bbd0       ?validate_and_update_state_at_end_of_format_string@?$format_validation_base@DV?$string_output_adapter@D@__crt_stdio_output@@@__crt_stdio_output@@IEAA_NXZ 000000018008cbd0 f i libucrtd:output.obj
 0001:0008bcc0       ?validate_and_update_state_at_end_of_format_string@?$format_validation_base@_WV?$stream_output_adapter@_W@__crt_stdio_output@@@__crt_stdio_output@@IEAA_NXZ 000000018008ccc0 f i libucrtd:output.obj
 0001:0008bdb0       ?validate_and_update_state_at_end_of_format_string@?$format_validation_base@_WV?$string_output_adapter@_W@__crt_stdio_output@@@__crt_stdio_output@@IEAA_NXZ 000000018008cdb0 f i libucrtd:output.obj
 0001:0008bea0       ?validate_and_update_state_at_end_of_format_string@?$positional_parameter_base@DV?$stream_output_adapter@D@__crt_stdio_output@@@__crt_stdio_output@@IEAA_NXZ 000000018008cea0 f i libucrtd:output.obj
 0001:0008c0d0       ?validate_and_update_state_at_end_of_format_string@?$positional_parameter_base@DV?$string_output_adapter@D@__crt_stdio_output@@@__crt_stdio_output@@IEAA_NXZ 000000018008d0d0 f i libucrtd:output.obj
 0001:0008c300       ?validate_and_update_state_at_end_of_format_string@?$positional_parameter_base@_WV?$stream_output_adapter@_W@__crt_stdio_output@@@__crt_stdio_output@@IEAA_NXZ 000000018008d300 f i libucrtd:output.obj
 0001:0008c530       ?validate_and_update_state_at_end_of_format_string@?$positional_parameter_base@_WV?$string_output_adapter@_W@__crt_stdio_output@@@__crt_stdio_output@@IEAA_NXZ 000000018008d530 f i libucrtd:output.obj
 0001:0008c760       ?validate_and_update_state_at_end_of_format_string@?$standard_base@DV?$stream_output_adapter@D@__crt_stdio_output@@@__crt_stdio_output@@IEBA_NXZ 000000018008d760 f i libucrtd:output.obj
 0001:0008c770       ?validate_and_update_state_at_end_of_format_string@?$standard_base@DV?$string_output_adapter@D@__crt_stdio_output@@@__crt_stdio_output@@IEBA_NXZ 000000018008d770 f i libucrtd:output.obj
 0001:0008c780       ?validate_and_update_state_at_end_of_format_string@?$standard_base@_WV?$stream_output_adapter@_W@__crt_stdio_output@@@__crt_stdio_output@@IEBA_NXZ 000000018008d780 f i libucrtd:output.obj
 0001:0008c790       ?validate_and_update_state_at_end_of_format_string@?$standard_base@_WV?$string_output_adapter@_W@__crt_stdio_output@@@__crt_stdio_output@@IEBA_NXZ 000000018008d790 f i libucrtd:output.obj
 0001:0008c7a0       ?validate_state_for_type_case_a@?$positional_parameter_base@DV?$stream_output_adapter@D@__crt_stdio_output@@@__crt_stdio_output@@IEAA_NXZ 000000018008d7a0 f i libucrtd:output.obj
 0001:0008c900       ?validate_state_for_type_case_a@?$positional_parameter_base@DV?$string_output_adapter@D@__crt_stdio_output@@@__crt_stdio_output@@IEAA_NXZ 000000018008d900 f i libucrtd:output.obj
 0001:0008ca60       ?validate_state_for_type_case_a@?$positional_parameter_base@_WV?$stream_output_adapter@_W@__crt_stdio_output@@@__crt_stdio_output@@IEAA_NXZ 000000018008da60 f i libucrtd:output.obj
 0001:0008cbc0       ?validate_state_for_type_case_a@?$positional_parameter_base@_WV?$string_output_adapter@_W@__crt_stdio_output@@@__crt_stdio_output@@IEAA_NXZ 000000018008dbc0 f i libucrtd:output.obj
 0001:0008cd20       ?validate_state_for_type_case_a@?$standard_base@DV?$stream_output_adapter@D@__crt_stdio_output@@@__crt_stdio_output@@IEBA_NXZ 000000018008dd20 f i libucrtd:output.obj
 0001:0008cd30       ?validate_state_for_type_case_a@?$standard_base@DV?$string_output_adapter@D@__crt_stdio_output@@@__crt_stdio_output@@IEBA_NXZ 000000018008dd30 f i libucrtd:output.obj
 0001:0008cd40       ?validate_state_for_type_case_a@?$standard_base@_WV?$stream_output_adapter@_W@__crt_stdio_output@@@__crt_stdio_output@@IEBA_NXZ 000000018008dd40 f i libucrtd:output.obj
 0001:0008cd50       ?validate_state_for_type_case_a@?$standard_base@_WV?$string_output_adapter@_W@__crt_stdio_output@@@__crt_stdio_output@@IEBA_NXZ 000000018008dd50 f i libucrtd:output.obj
 0001:0008cd60       ?validate_stream_is_ansi_if_required@?$__acrt_stdio_char_traits@D@@SA_NQEAU_iobuf@@@Z 000000018008dd60 f i libucrtd:output.obj
 0001:0008cef0       ?validate_stream_is_ansi_if_required@?$__acrt_stdio_char_traits@_W@@SA_NQEAU_iobuf@@@Z 000000018008def0 f i libucrtd:output.obj
 0001:0008cf00       ?wide_character_to_digit@__crt_strtox@@YAH_W@Z 000000018008df00 f i libucrtd:output.obj
 0001:0008d270       ?wide_null_string@?$output_processor@DV?$stream_output_adapter@D@__crt_stdio_output@@V?$format_validation_base@DV?$stream_output_adapter@D@__crt_stdio_output@@@2@@__crt_stdio_output@@CAPEA_WXZ 000000018008e270 f i libucrtd:output.obj
 0001:0008d280       ?wide_null_string@?$output_processor@DV?$stream_output_adapter@D@__crt_stdio_output@@V?$positional_parameter_base@DV?$stream_output_adapter@D@__crt_stdio_output@@@2@@__crt_stdio_output@@CAPEA_WXZ 000000018008e280 f i libucrtd:output.obj
 0001:0008d290       ?wide_null_string@?$output_processor@DV?$stream_output_adapter@D@__crt_stdio_output@@V?$standard_base@DV?$stream_output_adapter@D@__crt_stdio_output@@@2@@__crt_stdio_output@@CAPEA_WXZ 000000018008e290 f i libucrtd:output.obj
 0001:0008d2a0       ?wide_null_string@?$output_processor@DV?$string_output_adapter@D@__crt_stdio_output@@V?$format_validation_base@DV?$string_output_adapter@D@__crt_stdio_output@@@2@@__crt_stdio_output@@CAPEA_WXZ 000000018008e2a0 f i libucrtd:output.obj
 0001:0008d2b0       ?wide_null_string@?$output_processor@DV?$string_output_adapter@D@__crt_stdio_output@@V?$positional_parameter_base@DV?$string_output_adapter@D@__crt_stdio_output@@@2@@__crt_stdio_output@@CAPEA_WXZ 000000018008e2b0 f i libucrtd:output.obj
 0001:0008d2c0       ?wide_null_string@?$output_processor@DV?$string_output_adapter@D@__crt_stdio_output@@V?$standard_base@DV?$string_output_adapter@D@__crt_stdio_output@@@2@@__crt_stdio_output@@CAPEA_WXZ 000000018008e2c0 f i libucrtd:output.obj
 0001:0008d2d0       ?wide_null_string@?$output_processor@_WV?$stream_output_adapter@_W@__crt_stdio_output@@V?$format_validation_base@_WV?$stream_output_adapter@_W@__crt_stdio_output@@@2@@__crt_stdio_output@@CAPEA_WXZ 000000018008e2d0 f i libucrtd:output.obj
 0001:0008d2e0       ?wide_null_string@?$output_processor@_WV?$stream_output_adapter@_W@__crt_stdio_output@@V?$positional_parameter_base@_WV?$stream_output_adapter@_W@__crt_stdio_output@@@2@@__crt_stdio_output@@CAPEA_WXZ 000000018008e2e0 f i libucrtd:output.obj
 0001:0008d2f0       ?wide_null_string@?$output_processor@_WV?$stream_output_adapter@_W@__crt_stdio_output@@V?$standard_base@_WV?$stream_output_adapter@_W@__crt_stdio_output@@@2@@__crt_stdio_output@@CAPEA_WXZ 000000018008e2f0 f i libucrtd:output.obj
 0001:0008d300       ?wide_null_string@?$output_processor@_WV?$string_output_adapter@_W@__crt_stdio_output@@V?$format_validation_base@_WV?$string_output_adapter@_W@__crt_stdio_output@@@2@@__crt_stdio_output@@CAPEA_WXZ 000000018008e300 f i libucrtd:output.obj
 0001:0008d310       ?wide_null_string@?$output_processor@_WV?$string_output_adapter@_W@__crt_stdio_output@@V?$positional_parameter_base@_WV?$string_output_adapter@_W@__crt_stdio_output@@@2@@__crt_stdio_output@@CAPEA_WXZ 000000018008e310 f i libucrtd:output.obj
 0001:0008d320       ?wide_null_string@?$output_processor@_WV?$string_output_adapter@_W@__crt_stdio_output@@V?$standard_base@_WV?$string_output_adapter@_W@__crt_stdio_output@@@2@@__crt_stdio_output@@CAPEA_WXZ 000000018008e320 f i libucrtd:output.obj
 0001:0008d330       ?write_character@?$output_adapter_common@DV?$stream_output_adapter@D@__crt_stdio_output@@@__crt_stdio_output@@QEBAXDQEAHAEAV__crt_cached_ptd_host@@@Z 000000018008e330 f i libucrtd:output.obj
 0001:0008d390       ?write_character@?$output_adapter_common@_WV?$stream_output_adapter@_W@__crt_stdio_output@@@__crt_stdio_output@@QEBAX_WQEAHAEAV__crt_cached_ptd_host@@@Z 000000018008e390 f i libucrtd:output.obj
 0001:0008d3f0       ?write_character@?$string_output_adapter@D@__crt_stdio_output@@QEBA_NDQEAHAEAV__crt_cached_ptd_host@@@Z 000000018008e3f0 f i libucrtd:output.obj
 0001:0008d4c0       ?write_character@?$string_output_adapter@_W@__crt_stdio_output@@QEBA_N_WQEAHAEAV__crt_cached_ptd_host@@@Z 000000018008e4c0 f i libucrtd:output.obj
 0001:0008d590       ?write_character_without_count_update@?$stream_output_adapter@D@__crt_stdio_output@@QEBA_NDAEAV__crt_cached_ptd_host@@@Z 000000018008e590 f i libucrtd:output.obj
 0001:0008d620       ?write_character_without_count_update@?$stream_output_adapter@_W@__crt_stdio_output@@QEBA_N_WAEAV__crt_cached_ptd_host@@@Z 000000018008e620 f i libucrtd:output.obj
 0001:0008d6b0       ?write_stored_string_tchar@?$output_processor@DV?$stream_output_adapter@D@__crt_stdio_output@@V?$format_validation_base@DV?$stream_output_adapter@D@__crt_stdio_output@@@2@@__crt_stdio_output@@AEAA_ND@Z 000000018008e6b0 f i libucrtd:output.obj
 0001:0008d860       ?write_stored_string_tchar@?$output_processor@DV?$stream_output_adapter@D@__crt_stdio_output@@V?$positional_parameter_base@DV?$stream_output_adapter@D@__crt_stdio_output@@@2@@__crt_stdio_output@@AEAA_ND@Z 000000018008e860 f i libucrtd:output.obj
 0001:0008da10       ?write_stored_string_tchar@?$output_processor@DV?$stream_output_adapter@D@__crt_stdio_output@@V?$standard_base@DV?$stream_output_adapter@D@__crt_stdio_output@@@2@@__crt_stdio_output@@AEAA_ND@Z 000000018008ea10 f i libucrtd:output.obj
 0001:0008dbc0       ?write_stored_string_tchar@?$output_processor@DV?$string_output_adapter@D@__crt_stdio_output@@V?$format_validation_base@DV?$string_output_adapter@D@__crt_stdio_output@@@2@@__crt_stdio_output@@AEAA_ND@Z 000000018008ebc0 f i libucrtd:output.obj
 0001:0008dd70       ?write_stored_string_tchar@?$output_processor@DV?$string_output_adapter@D@__crt_stdio_output@@V?$positional_parameter_base@DV?$string_output_adapter@D@__crt_stdio_output@@@2@@__crt_stdio_output@@AEAA_ND@Z 000000018008ed70 f i libucrtd:output.obj
 0001:0008df20       ?write_stored_string_tchar@?$output_processor@DV?$string_output_adapter@D@__crt_stdio_output@@V?$standard_base@DV?$string_output_adapter@D@__crt_stdio_output@@@2@@__crt_stdio_output@@AEAA_ND@Z 000000018008ef20 f i libucrtd:output.obj
 0001:0008e0d0       ?write_stored_string_tchar@?$output_processor@_WV?$stream_output_adapter@_W@__crt_stdio_output@@V?$format_validation_base@_WV?$stream_output_adapter@_W@__crt_stdio_output@@@2@@__crt_stdio_output@@AEAA_N_W@Z 000000018008f0d0 f i libucrtd:output.obj
 0001:0008e230       ?write_stored_string_tchar@?$output_processor@_WV?$stream_output_adapter@_W@__crt_stdio_output@@V?$positional_parameter_base@_WV?$stream_output_adapter@_W@__crt_stdio_output@@@2@@__crt_stdio_output@@AEAA_N_W@Z 000000018008f230 f i libucrtd:output.obj
 0001:0008e390       ?write_stored_string_tchar@?$output_processor@_WV?$stream_output_adapter@_W@__crt_stdio_output@@V?$standard_base@_WV?$stream_output_adapter@_W@__crt_stdio_output@@@2@@__crt_stdio_output@@AEAA_N_W@Z 000000018008f390 f i libucrtd:output.obj
 0001:0008e4f0       ?write_stored_string_tchar@?$output_processor@_WV?$string_output_adapter@_W@__crt_stdio_output@@V?$format_validation_base@_WV?$string_output_adapter@_W@__crt_stdio_output@@@2@@__crt_stdio_output@@AEAA_N_W@Z 000000018008f4f0 f i libucrtd:output.obj
 0001:0008e650       ?write_stored_string_tchar@?$output_processor@_WV?$string_output_adapter@_W@__crt_stdio_output@@V?$positional_parameter_base@_WV?$string_output_adapter@_W@__crt_stdio_output@@@2@@__crt_stdio_output@@AEAA_N_W@Z 000000018008f650 f i libucrtd:output.obj
 0001:0008e7b0       ?write_stored_string_tchar@?$output_processor@_WV?$string_output_adapter@_W@__crt_stdio_output@@V?$standard_base@_WV?$string_output_adapter@_W@__crt_stdio_output@@@2@@__crt_stdio_output@@AEAA_N_W@Z 000000018008f7b0 f i libucrtd:output.obj
 0001:0008e910       ?write_string@?$stream_output_adapter@D@__crt_stdio_output@@QEBAXQEBDHQEAHAEAV__crt_cached_ptd_host@@@Z 000000018008f910 f i libucrtd:output.obj
 0001:0008e990       ?write_string@?$stream_output_adapter@_W@__crt_stdio_output@@QEBAXQEB_WHQEAHAEAV__crt_cached_ptd_host@@@Z 000000018008f990 f i libucrtd:output.obj
 0001:0008ea10       ?write_string@?$string_output_adapter@D@__crt_stdio_output@@QEBAXQEBDHQEAHAEAV__crt_cached_ptd_host@@@Z 000000018008fa10 f i libucrtd:output.obj
 0001:0008eb80       ?write_string@?$string_output_adapter@_W@__crt_stdio_output@@QEBAXQEB_WHQEAHAEAV__crt_cached_ptd_host@@@Z 000000018008fb80 f i libucrtd:output.obj
 0001:0008ecf0       ?write_string_impl@?$output_adapter_common@DV?$stream_output_adapter@D@__crt_stdio_output@@@__crt_stdio_output@@IEBAXQEBDHQEAHAEAV__crt_cached_ptd_host@@@Z 000000018008fcf0 f i libucrtd:output.obj
 0001:0008ee10       ?write_string_impl@?$output_adapter_common@_WV?$stream_output_adapter@_W@__crt_stdio_output@@@__crt_stdio_output@@IEBAXQEB_WHQEAHAEAV__crt_cached_ptd_host@@@Z 000000018008fe10 f i libucrtd:output.obj
 0001:0008ef30       __acrt_disable_global_locale_sync 000000018008ff30 f i libucrtd:output.obj
 0001:0008ef60       __acrt_enable_global_locale_sync 000000018008ff60 f i libucrtd:output.obj
 0001:0008ef90       __acrt_isleadbyte_l_noupdate 000000018008ff90 f i libucrtd:output.obj
 0001:0008efc0       __acrt_locale_changed      000000018008ffc0 f i libucrtd:output.obj
 0001:0008eff0       __acrt_locale_get_ctype_array_value 000000018008fff0 f i libucrtd:output.obj
 0001:0008f030       __ascii_iswalpha           0000000180090030 f i libucrtd:output.obj
 0001:0008f070       __ascii_toupper            0000000180090070 f i libucrtd:output.obj
 0001:0008f090       __ascii_towupper           0000000180090090 f i libucrtd:output.obj
 0001:0008f0b0       __stdio_common_vfprintf    00000001800900b0 f   libucrtd:output.obj
 0001:0008f130       __stdio_common_vfprintf_p  0000000180090130 f   libucrtd:output.obj
 0001:0008f1b0       __stdio_common_vfprintf_s  00000001800901b0 f   libucrtd:output.obj
 0001:0008f230       __stdio_common_vfwprintf   0000000180090230 f   libucrtd:output.obj
 0001:0008f2b0       __stdio_common_vfwprintf_p 00000001800902b0 f   libucrtd:output.obj
 0001:0008f330       __stdio_common_vfwprintf_s 0000000180090330 f   libucrtd:output.obj
 0001:0008f3b0       __stdio_common_vsnprintf_s 00000001800903b0 f   libucrtd:output.obj
 0001:0008f440       __stdio_common_vsnwprintf_s 0000000180090440 f   libucrtd:output.obj
 0001:0008f4d0       __stdio_common_vsprintf    00000001800904d0 f   libucrtd:output.obj
 0001:0008f560       __stdio_common_vsprintf_p  0000000180090560 f   libucrtd:output.obj
 0001:0008f5f0       __stdio_common_vsprintf_s  00000001800905f0 f   libucrtd:output.obj
 0001:0008f680       __stdio_common_vswprintf   0000000180090680 f   libucrtd:output.obj
 0001:0008f710       __stdio_common_vswprintf_p 0000000180090710 f   libucrtd:output.obj
 0001:0008f7a0       __stdio_common_vswprintf_s 00000001800907a0 f   libucrtd:output.obj
 0001:0008f830       _ctype_fast_check_internal 0000000180090830 f i libucrtd:output.obj
 0001:0008f860       _isdigit_fast_internal     0000000180090860 f i libucrtd:output.obj
 0001:0008f890       _tolower_fast_internal     0000000180090890 f i libucrtd:output.obj
 0001:0008f8c0       free                       00000001800908c0 f   libucrtd:free.obj
 0001:0008f8f0       malloc                     00000001800908f0 f   libucrtd:malloc.obj
 0001:0008f920       ??$?RU?$__crt_report_hook_node@D@@@__crt_internal_free_policy@@QEBAXQEBU?$__crt_report_hook_node@D@@@Z 0000000180090920 f i libucrtd:dbgrpt.obj
 0001:0008f950       ??$?RU?$__crt_report_hook_node@_W@@@__crt_internal_free_policy@@QEBAXQEBU?$__crt_report_hook_node@_W@@@Z 0000000180090950 f i libucrtd:dbgrpt.obj
 0001:00090bb0       ??$get_module_file_name@AEAPEAUHINSTANCE__@@AEAY0BAF@DK@?$__crt_char_traits@D@@SAKAEAPEAUHINSTANCE__@@AEAY0BAF@D$$QEAK@Z 0000000180091bb0 f i libucrtd:dbgrpt.obj
 0001:00090bf0       ??$get_module_file_name@AEAPEAUHINSTANCE__@@AEAY0BAF@_WK@?$__crt_char_traits@_W@@SAKAEAPEAUHINSTANCE__@@AEAY0BAF@_W$$QEAK@Z 0000000180091bf0 f i libucrtd:dbgrpt.obj
 0001:00090c30       ??$tcscpy_s@AEAY0BAF@D_KPEBD@?$__crt_char_traits@D@@SAHAEAY0BAF@D$$QEA_K$$QEAPEBD@Z 0000000180091c30 f i libucrtd:dbgrpt.obj
 0001:00090c70       ??$tcscpy_s@AEAY0BAF@_W_KPEB_W@?$__crt_char_traits@_W@@SAHAEAY0BAF@_W$$QEA_K$$QEAPEB_W@Z 0000000180091c70 f i libucrtd:dbgrpt.obj
 0001:00090cb0       ??$tcslen@AEAY0BAF@D@?$__crt_char_traits@D@@SA_KAEAY0BAF@D@Z 0000000180091cb0 f i libucrtd:dbgrpt.obj
 0001:00090cd0       ??$tcslen@AEAY0BAF@_W@?$__crt_char_traits@_W@@SA_KAEAY0BAF@_W@Z 0000000180091cd0 f i libucrtd:dbgrpt.obj
 0001:00090cf0       ??$tcslen@AEBQEBD@?$__crt_char_traits@D@@SA_KAEBQEBD@Z 0000000180091cf0 f i libucrtd:dbgrpt.obj
 0001:00090d10       ??$tcslen@AEBQEB_W@?$__crt_char_traits@_W@@SA_KAEBQEB_W@Z 0000000180091d10 f i libucrtd:dbgrpt.obj
 0001:00090e10       ??0?$__crt_unique_heap_ptr@U?$__crt_report_hook_node@D@@U__crt_internal_free_policy@@@@QEAA@QEAU?$__crt_report_hook_node@D@@@Z 0000000180091e10 f i libucrtd:dbgrpt.obj
 0001:00090e30       ??0?$__crt_unique_heap_ptr@U?$__crt_report_hook_node@_W@@U__crt_internal_free_policy@@@@QEAA@QEAU?$__crt_report_hook_node@_W@@@Z 0000000180091e30 f i libucrtd:dbgrpt.obj
 0001:00090e50       ??1?$__crt_unique_heap_ptr@U?$__crt_report_hook_node@D@@U__crt_internal_free_policy@@@@QEAA@XZ 0000000180091e50 f i libucrtd:dbgrpt.obj
 0001:00090e70       ??1?$__crt_unique_heap_ptr@U?$__crt_report_hook_node@_W@@U__crt_internal_free_policy@@@@QEAA@XZ 0000000180091e70 f i libucrtd:dbgrpt.obj
 0001:00090e90       ??B?$__crt_unique_heap_ptr@U?$__crt_report_hook_node@D@@U__crt_internal_free_policy@@@@QEBA_NXZ 0000000180091e90 f i libucrtd:dbgrpt.obj
 0001:00090eb0       ??B?$__crt_unique_heap_ptr@U?$__crt_report_hook_node@_W@@U__crt_internal_free_policy@@@@QEBA_NXZ 0000000180091eb0 f i libucrtd:dbgrpt.obj
 0001:000915d0       ?detach@?$__crt_unique_heap_ptr@U?$__crt_report_hook_node@D@@U__crt_internal_free_policy@@@@QEAAPEAU?$__crt_report_hook_node@D@@XZ 00000001800925d0 f i libucrtd:dbgrpt.obj
 0001:00091600       ?detach@?$__crt_unique_heap_ptr@U?$__crt_report_hook_node@_W@@U__crt_internal_free_policy@@@@QEAAPEAU?$__crt_report_hook_node@_W@@XZ 0000000180092600 f i libucrtd:dbgrpt.obj
 0001:00091630       ?get@?$__crt_unique_heap_ptr@U?$__crt_report_hook_node@D@@U__crt_internal_free_policy@@@@QEBAPEAU?$__crt_report_hook_node@D@@XZ 0000000180092630 f i libucrtd:dbgrpt.obj
 0001:00091640       ?get@?$__crt_unique_heap_ptr@U?$__crt_report_hook_node@_W@@U__crt_internal_free_policy@@@@QEBAPEAU?$__crt_report_hook_node@_W@@XZ 0000000180092640 f i libucrtd:dbgrpt.obj
 0001:000916b0       ?is_valid@?$__crt_unique_heap_ptr@U?$__crt_report_hook_node@D@@U__crt_internal_free_policy@@@@QEBA_NXZ 00000001800926b0 f i libucrtd:dbgrpt.obj
 0001:000916e0       ?is_valid@?$__crt_unique_heap_ptr@U?$__crt_report_hook_node@_W@@U__crt_internal_free_policy@@@@QEBA_NXZ 00000001800926e0 f i libucrtd:dbgrpt.obj
 0001:00091710       ?release@?$__crt_unique_heap_ptr@U?$__crt_report_hook_node@D@@U__crt_internal_free_policy@@@@QEAAXXZ 0000000180092710 f i libucrtd:dbgrpt.obj
 0001:00091740       ?release@?$__crt_unique_heap_ptr@U?$__crt_report_hook_node@_W@@U__crt_internal_free_policy@@@@QEAAXXZ 0000000180092740 f i libucrtd:dbgrpt.obj
 0001:00091770       _CrtDbgReport              0000000180092770 f   libucrtd:dbgrpt.obj
 0001:000917f0       _CrtDbgReportW             00000001800927f0 f   libucrtd:dbgrpt.obj
 0001:00091870       _CrtSetReportHook2         0000000180092870 f   libucrtd:dbgrpt.obj
 0001:00091890       _CrtSetReportHookW2        0000000180092890 f   libucrtd:dbgrpt.obj
 0001:000918b0       __acrt_MessageWindowA      00000001800928b0 f   libucrtd:dbgrpt.obj
 0001:00091900       __acrt_MessageWindowW      0000000180092900 f   libucrtd:dbgrpt.obj
 0001:00091950       _invoke_watson_if_error    0000000180092950 f i libucrtd:dbgrpt.obj
 0001:000919a0       _invoke_watson_if_oneof    00000001800929a0 f i libucrtd:dbgrpt.obj
 0001:00091a00       _snwprintf_s               0000000180092a00 f i libucrtd:dbgrpt.obj
 0001:00091a70       _vsnwprintf_s_l            0000000180092a70 f i libucrtd:dbgrpt.obj
 0001:00091ff0       wcscpy_s                   0000000180092ff0 f   libucrtd:wcscpy_s.obj
 0001:00093380       ??1?$__crt_simd_cleanup_guard@$00@@QEAA@XZ 0000000180094380 f i libucrtd:strnlen.obj
 0001:00093390       ??1?$__crt_simd_cleanup_guard@$0A@@@QEAA@XZ 0000000180094390 f i libucrtd:strnlen.obj
 0001:000933a0       ?compare_equals@?$__crt_simd_traits@$00E@@SA?AT__m256i@@T2@0@Z 00000001800943a0 f i libucrtd:strnlen.obj
 0001:000933e0       ?compare_equals@?$__crt_simd_traits@$00G@@SA?AT__m256i@@T2@0@Z 00000001800943e0 f i libucrtd:strnlen.obj
 0001:00093420       ?compare_equals@?$__crt_simd_traits@$0A@E@@SA?AT__m128i@@T2@0@Z 0000000180094420 f i libucrtd:strnlen.obj
 0001:00093450       ?compare_equals@?$__crt_simd_traits@$0A@G@@SA?AT__m128i@@T2@0@Z 0000000180094450 f i libucrtd:strnlen.obj
 0001:00093480       ?compute_byte_mask@?$__crt_simd_pack_traits@$00@@SAHT__m256i@@@Z 0000000180094480 f i libucrtd:strnlen.obj
 0001:000934a0       ?compute_byte_mask@?$__crt_simd_pack_traits@$0A@@@SAHT__m128i@@@Z 00000001800944a0 f i libucrtd:strnlen.obj
 0001:000934c0       ?get_zero_pack@?$__crt_simd_pack_traits@$00@@SA?AT__m256i@@XZ 00000001800944c0 f i libucrtd:strnlen.obj
 0001:000934f0       ?get_zero_pack@?$__crt_simd_pack_traits@$0A@@@SA?AT__m128i@@XZ 00000001800944f0 f i libucrtd:strnlen.obj
 0001:00093510       strnlen                    0000000180094510 f   libucrtd:strnlen.obj
 0001:00093540       wcslen                     0000000180094540 f   libucrtd:strnlen.obj
 0001:00093560       wcsnlen                    0000000180094560 f   libucrtd:strnlen.obj
 0001:00093590       ??$__crt_fast_decode_pointer@P6AXPEB_W00I_K@Z@@YAP6AXPEB_W00I_K@ZQ6AX000I1@Z@Z 0000000180094590 f i libucrtd:invalid_parameter.obj
 0001:000935d0       ??$__crt_fast_encode_pointer@P6AXPEB_W00I_K@Z@@YAP6AXPEB_W00I_K@ZQ6AX000I1@Z@Z 00000001800945d0 f i libucrtd:invalid_parameter.obj
 0001:00093610       ??$initialize_from_array@$$BY00Q6AXPEB_W00I_K@Z@?$dual_state_global@P6AXPEB_W00I_K@Z@__crt_state_management@@QEAAXAEAY00Q6AXPEB_W00I_K@Z@Z 0000000180094610 f i libucrtd:invalid_parameter.obj
 0001:00093670       ?__crt_rotate_pointer_value@@YA_K_KH@Z 0000000180094670 f i libucrtd:invalid_parameter.obj
 0001:00093730       ?check_synchronize_global_state_index@__crt_cached_ptd_host@@AEAA_KXZ 0000000180094730 f i libucrtd:invalid_parameter.obj
 0001:00093790       ?dangerous_get_state_array@?$dual_state_global@P6AXPEB_W00I_K@Z@__crt_state_management@@QEAAPEAP6AXPEB_W00I_K@ZXZ 0000000180094790 f i libucrtd:invalid_parameter.obj
 0001:000937a0       ?get_current_global_state_index@__crt_cached_ptd_host@@QEAA_KXZ 00000001800947a0 f i libucrtd:invalid_parameter.obj
 0001:000937c0       ?get_current_state_index@__crt_state_management@@YA_KXZ 00000001800947c0 f i libucrtd:invalid_parameter.obj
 0001:000937d0       ?get_raw_ptd_noexit@__crt_cached_ptd_host@@QEAAPEAU__acrt_ptd@@XZ 00000001800947d0 f i libucrtd:invalid_parameter.obj
 0001:000937f0       ?try_synchronize_per_thread_data@__crt_cached_ptd_host@@AEAAPEAU__acrt_ptd@@XZ 00000001800947f0 f i libucrtd:invalid_parameter.obj
 0001:00093820       ?value@?$dual_state_global@P6AXPEB_W00I_K@Z@__crt_state_management@@QEAAAEAP6AXPEB_W00I_K@ZAEAV__crt_cached_ptd_host@@@Z 0000000180094820 f i libucrtd:invalid_parameter.obj
 0001:00093850       ?value@?$dual_state_global@P6AXPEB_W00I_K@Z@__crt_state_management@@QEAAAEAP6AXPEB_W00I_K@ZXZ 0000000180094850 f i libucrtd:invalid_parameter.obj
 0001:00093870       __acrt_call_reportfault    0000000180094870 f   libucrtd:invalid_parameter.obj
 0001:000939a0       __acrt_initialize_invalid_parameter_handler 00000001800949a0 f   libucrtd:invalid_parameter.obj
 0001:000939d0       _get_invalid_parameter_handler 00000001800949d0 f   libucrtd:invalid_parameter.obj
 0001:000939f0       _get_thread_local_invalid_parameter_handler 00000001800949f0 f   libucrtd:invalid_parameter.obj
 0001:00093a20       _invalid_parameter         0000000180094a20 f   libucrtd:invalid_parameter.obj
 0001:00093a90       _invalid_parameter_internal 0000000180094a90 f   libucrtd:invalid_parameter.obj
 0001:00093be0       _invalid_parameter_noinfo  0000000180094be0 f   libucrtd:invalid_parameter.obj
 0001:00093c10       _invalid_parameter_noinfo_noreturn 0000000180094c10 f   libucrtd:invalid_parameter.obj
 0001:00093c50       _invoke_watson             0000000180094c50 f   libucrtd:invalid_parameter.obj
 0001:00093cb0       _set_invalid_parameter_handler 0000000180094cb0 f   libucrtd:invalid_parameter.obj
 0001:00093d00       _set_thread_local_invalid_parameter_handler 0000000180094d00 f   libucrtd:invalid_parameter.obj
 0001:00093d40       ?get_doserrno@__crt_cached_ptd_host@@QEAAAEAU?$cached@K@1@XZ 0000000180094d40 f i libucrtd:errno.obj
 0001:00093d50       ?set@?$cached@K@__crt_cached_ptd_host@@QEAAKK@Z 0000000180094d50 f i libucrtd:errno.obj
 0001:00093d80       __acrt_errno_from_os_error 0000000180094d80 f   libucrtd:errno.obj
 0001:00093e10       __acrt_errno_map_os_error  0000000180094e10 f   libucrtd:errno.obj
 0001:00093e40       __acrt_errno_map_os_error_ptd 0000000180094e40 f   libucrtd:errno.obj
 0001:00093ea0       __doserrno                 0000000180094ea0 f   libucrtd:errno.obj
 0001:00093ed0       _errno                     0000000180094ed0 f   libucrtd:errno.obj
 0001:00093f00       _get_doserrno              0000000180094f00 f   libucrtd:errno.obj
 0001:00093fc0       _get_errno                 0000000180094fc0 f   libucrtd:errno.obj
 0001:00094080       _set_doserrno              0000000180095080 f   libucrtd:errno.obj
 0001:000940c0       _set_errno                 00000001800950c0 f   libucrtd:errno.obj
 0001:00094100       calloc                     0000000180095100 f   libucrtd:calloc.obj
 0001:00094140       _recalloc                  0000000180095140 f   libucrtd:recalloc.obj
 0001:00094190       _recalloc_base             0000000180095190 f   libucrtd:recalloc.obj
 0001:00094270       _resetstkoflw              0000000180095270 f   libucrtd:resetstk.obj
 0001:00094a70       wcscat_s                   0000000180095a70 f   libucrtd:wcscat_s.obj
 0001:00095150       wcsncpy_s                  0000000180096150 f   libucrtd:wcsncpy_s.obj
 0001:000952d0       __isascii                  00000001800962d0 f   libucrtd:_ctype.obj
 0001:00095300       __iscsym                   0000000180096300 f   libucrtd:_ctype.obj
 0001:00095340       __iscsymf                  0000000180096340 f   libucrtd:_ctype.obj
 0001:00095380       __toascii                  0000000180096380 f   libucrtd:_ctype.obj
 0001:00095390       _isalnum_l                 0000000180096390 f   libucrtd:_ctype.obj
 0001:000953c0       _isalpha_l                 00000001800963c0 f   libucrtd:_ctype.obj
 0001:000953f0       _isblank_l                 00000001800963f0 f   libucrtd:_ctype.obj
 0001:00095420       _iscntrl_l                 0000000180096420 f   libucrtd:_ctype.obj
 0001:00095450       _iscsym_l                  0000000180096450 f   libucrtd:_ctype.obj
 0001:000954a0       _iscsymf_l                 00000001800964a0 f   libucrtd:_ctype.obj
 0001:000954f0       _isdigit_l                 00000001800964f0 f   libucrtd:_ctype.obj
 0001:00095520       _isgraph_l                 0000000180096520 f   libucrtd:_ctype.obj
 0001:00095550       _islower_l                 0000000180096550 f   libucrtd:_ctype.obj
 0001:00095580       _isprint_l                 0000000180096580 f   libucrtd:_ctype.obj
 0001:000955b0       _ispunct_l                 00000001800965b0 f   libucrtd:_ctype.obj
 0001:000955e0       _isspace_l                 00000001800965e0 f   libucrtd:_ctype.obj
 0001:00095610       _isupper_l                 0000000180096610 f   libucrtd:_ctype.obj
 0001:00095640       _isxdigit_l                0000000180096640 f   libucrtd:_ctype.obj
 0001:00095670       isalnum                    0000000180096670 f   libucrtd:_ctype.obj
 0001:00095690       isalpha                    0000000180096690 f   libucrtd:_ctype.obj
 0001:000956b0       isblank                    00000001800966b0 f   libucrtd:_ctype.obj
 0001:000956e0       iscntrl                    00000001800966e0 f   libucrtd:_ctype.obj
 0001:00095700       isdigit                    0000000180096700 f   libucrtd:_ctype.obj
 0001:00095720       isgraph                    0000000180096720 f   libucrtd:_ctype.obj
 0001:00095740       islower                    0000000180096740 f   libucrtd:_ctype.obj
 0001:00095760       isprint                    0000000180096760 f   libucrtd:_ctype.obj
 0001:00095780       ispunct                    0000000180096780 f   libucrtd:_ctype.obj
 0001:000957a0       isspace                    00000001800967a0 f   libucrtd:_ctype.obj
 0001:000957c0       isupper                    00000001800967c0 f   libucrtd:_ctype.obj
 0001:000957e0       isxdigit                   00000001800967e0 f   libucrtd:_ctype.obj
 0001:00095800       wcscat                     0000000180096800 f   libucrtd:wcscat.obj
 0001:00095890       wcscpy                     0000000180096890 f   libucrtd:wcscpy.obj
 0001:00096040       ??$open_file@AEBQEBDAEBQEBDAEBHPEAU_iobuf@@@?$__crt_char_traits@D@@SAPEAU_iobuf@@AEBQEBD0AEBH$$QEAPEAU1@@Z 0000000180097040 f i libucrtd:fopen.obj
 0001:00096090       ??$open_file@AEBQEB_WAEBQEB_WAEBHPEAU_iobuf@@@?$__crt_char_traits@_W@@SAPEAU_iobuf@@AEBQEB_W0AEBH$$QEAPEAU1@@Z 0000000180097090 f i libucrtd:fopen.obj
 0001:000960e0       ?unlock@__crt_stdio_stream@@QEBAXXZ 00000001800970e0 f i libucrtd:fopen.obj
 0001:00096100       _fsopen                    0000000180097100 f   libucrtd:fopen.obj
 0001:00096130       _wfopen                    0000000180097130 f   libucrtd:fopen.obj
 0001:00096160       _wfopen_s                  0000000180097160 f   libucrtd:fopen.obj
 0001:00096190       _wfsopen                   0000000180097190 f   libucrtd:fopen.obj
 0001:000961c0       fopen                      00000001800971c0 f   libucrtd:fopen.obj
 0001:000961f0       fopen_s                    00000001800971f0 f   libucrtd:fopen.obj
 0001:00096530       ?is_in_use@__crt_stdio_stream@@QEBA_NXZ 0000000180097530 f i libucrtd:fclose.obj
 0001:00096570       _fclose_nolock             0000000180097570 f   libucrtd:fclose.obj
 0001:000965b0       fclose                     00000001800975b0 f   libucrtd:fclose.obj
 0001:000968f0       _fputc_nolock              00000001800978f0 f   libucrtd:fputc.obj
 0001:00096940       _fputc_nolock_internal     0000000180097940 f   libucrtd:fputc.obj
 0001:00096a00       _fputchar                  0000000180097a00 f   libucrtd:fputc.obj
 0001:00096a30       _putc_nolock               0000000180097a30 f   libucrtd:fputc.obj
 0001:00096a50       fputc                      0000000180097a50 f   libucrtd:fputc.obj
 0001:00096aa0       putc                       0000000180097aa0 f   libucrtd:fputc.obj
 0001:00096ac0       putchar                    0000000180097ac0 f   libucrtd:fputc.obj
 0001:00096b50       _seh_filter_dll            0000000180097b50 f   libucrtd:exception_filter.obj
 0001:00096b80       _seh_filter_exe            0000000180097b80 f   libucrtd:exception_filter.obj
 0001:00096e50       ??$?B$$A6AXPEAXK0@Z@__crt_fast_encoded_nullptr_t@@QEBAP6AXPEAXK0@ZXZ 0000000180097e50 f i libucrtd:exit.obj
