 OPOSCashDrawer

 Timestamp is 5c43fd38 (Sun Jan 20 13:46:48 2019)

 Preferred load address is 0000000180000000

 Start         Length     Name                   Class
 0001:00000000 00001400H .text$di                CODE
 0001:00001400 000c9210H .text$mn                CODE
 0001:000ca610 00000020H .text$mn$00             CODE
 0001:000ca630 00001340H .text$x                 CODE
 0001:000cb970 000001b4H .text$yd                CODE
 0002:00000000 00000700H .idata$5                DATA
 0002:00000700 00000010H .00cfg                  DATA
 0002:00000710 00000008H .CRT$XCA                DATA
 0002:00000718 00000008H .CRT$XCL                DATA
 0002:00000720 000000d8H .CRT$XCU                DATA
 0002:000007f8 00000008H .CRT$XCZ                DATA
 0002:00000800 00000008H .CRT$XIA                DATA
 0002:00000808 00000020H .CRT$XIC                DATA
 0002:00000828 00000008H .CRT$XIZ                DATA
 0002:00000830 00000008H .CRT$XLA                DATA
 0002:00000838 00000008H .CRT$XLZ                DATA
 0002:00000840 00000008H .CRT$XPA                DATA
 0002:00000848 00000010H .CRT$XPX                DATA
 0002:00000858 00000008H .CRT$XPXA               DATA
 0002:00000860 00000008H .CRT$XPZ                DATA
 0002:00000868 00000008H .CRT$XTA                DATA
 0002:00000870 00000010H .CRT$XTZ                DATA
 0002:00000878 00000000H .gfids$x                DATA
 0002:00000878 00000000H .gfids$y                DATA
 0002:00000880 00039220H .rdata                  DATA
 0002:00039aa0 00000028H .rdata$T                DATA
 0002:00039ac8 0000056cH .rdata$r                DATA
 0002:0003a034 00000424H .rdata$zzzdbg           DATA
 0002:0003a458 00000008H .rtc$IAA                DATA
 0002:0003a460 00000030H .rtc$IMZ                DATA
 0002:0003a490 00000008H .rtc$IZZ                DATA
 0002:0003a498 00000008H .rtc$TAA                DATA
 0002:0003a4a0 00000030H .rtc$TMZ                DATA
 0002:0003a4d0 00000008H .rtc$TZZ                DATA
 0002:0003a4d8 00000004H .tls                    DATA
 0002:0003a4dc 00000004H .tls$                   DATA
 0002:0003a4e0 00000010H .tls$ZZZ                DATA
 0002:0003a4f0 00008ed0H .xdata                  DATA
 0002:000433c0 00000150H .xdata$x                DATA
 0002:00043510 00000008H ATL$__a                 DATA
 0002:00043518 00000008H ATL$__z                 DATA
 0002:00043520 000000acH .edata                  DATA
 0002:000435cc 00000078H .idata$2                DATA
 0002:00043644 00000014H .idata$3                DATA
 0002:00043658 00000700H .idata$4                DATA
 0002:00043d58 00000e22H .idata$6                DATA
 0003:00000000 00000eb8H .data                   DATA
 0003:00000eb8 00000198H .data$r                 DATA
 0003:00001050 00003e24H .bss                    DATA
 0004:00000000 0000b5f8H .pdata                  DATA
 0005:00000000 00000220H .rsrc$01                DATA
 0005:00000220 00003860H .rsrc$02                DATA

  Address         Publics by Value              Rva+Base               Lib:Object

 0000:00000000       __enclave_config           0000000000000000     <absolute>
 0000:00000000       __guard_longjmp_count      0000000000000000     <absolute>
 0000:00000000       __dynamic_value_reloc_table 0000000000000000     <absolute>
 0000:00000000       __hybrid_code_map          0000000000000000     <absolute>
 0000:00000000       ___safe_se_handler_count   0000000000000000     <absolute>
 0000:00000000       __guard_longjmp_table      0000000000000000     <absolute>
 0000:00000000       ___safe_se_handler_table   0000000000000000     <absolute>
 0000:00000000       __guard_fids_table         0000000000000000     <absolute>
 0000:00000000       __guard_fids_count         0000000000000000     <absolute>
 0000:00000000       __guard_iat_count          0000000000000000     <absolute>
 0000:00000000       __guard_iat_table          0000000000000000     <absolute>
 0000:00000000       __hybrid_code_map_count    0000000000000000     <absolute>
 0000:00000000       __volatile_metadata        0000000000000000     <absolute>
 0000:00000000       __hybrid_auxiliary_iat     0000000000000000     <absolute>
 0000:00000100       __guard_flags              0000000000000100     <absolute>
 0000:00000000       __ImageBase                0000000180000000     <linker-defined>
 0001:00001400       ?_assert@@YAXPEB_W0I@Z     0000000180002400 f   Assert.obj
 0001:00001500       __local_stdio_printf_options 0000000180002500 f i Assert.obj
 0001:00001510       __vswprintf_l              0000000180002510 f i Assert.obj
 0001:00001570       _swprintf                  0000000180002570 f i Assert.obj
 0001:000015f0       _vswprintf_c_l             00000001800025f0 f i Assert.obj
 0001:00001680       _vswprintf_l               0000000180002680 f i Assert.obj
 0001:000016e0       ?cw_memcpy@@YAHPEADPEB_WH@Z 00000001800026e0 f   CWString.obj
 0001:00001770       ?cw_memcpy@@YAHPEA_WPEBDH@Z 0000000180002770 f   CWString.obj
 0001:000017f0       ?cw_memcpy@@YAHPEADPEBDH@Z 00000001800027f0 f   CWString.obj
 0001:00001890       ?cw_memcpy@@YAHPEA_WPEB_WH@Z 0000000180002890 f   CWString.obj
 0001:00001900       ?cw_memset@@YAXPEADDH@Z    0000000180002900 f   CWString.obj
 0001:00001970       ?cw_memset@@YAXPEA_W_WH@Z  0000000180002970 f   CWString.obj
 0001:00001a10       ?cw_strlen@@YAHPEBD@Z      0000000180002a10 f   CWString.obj
 0001:00001a80       ?cw_strlen@@YAHPEB_W@Z     0000000180002a80 f   CWString.obj
 0001:00001af0       ?cw_strcpy@@YAHPEADPEB_W@Z 0000000180002af0 f   CWString.obj
 0001:00001b40       ?cw_strcpy@@YAHPEA_WPEBD@Z 0000000180002b40 f   CWString.obj
 0001:00001b90       ?cw_strcpy@@YAHPEADPEBD@Z  0000000180002b90 f   CWString.obj
 0001:00001be0       ?cw_strcpy@@YAHPEA_WPEB_W@Z 0000000180002be0 f   CWString.obj
 0001:00001c30       ?cw_strcat@@YAHPEADPEB_W@Z 0000000180002c30 f   CWString.obj
 0001:00001c90       ?cw_strcat@@YAHPEA_WPEBD@Z 0000000180002c90 f   CWString.obj
 0001:00001cf0       ?cw_strcat@@YAHPEADPEBD@Z  0000000180002cf0 f   CWString.obj
 0001:00001d50       ?cw_strcat@@YAHPEA_WPEB_W@Z 0000000180002d50 f   CWString.obj
 0001:00001db0       ?cw_dup@@YAXPEBDAEAHAEAPEA_W1@Z 0000000180002db0 f   CWString.obj
 0001:00001ec0       ?cw_dup@@YAXPEB_WAEAHAEAPEAD1@Z 0000000180002ec0 f   CWString.obj
 0001:00001fb0       ?DupChar@_CW@@AEAAXXZ      0000000180002fb0 f   CWString.obj
 0001:00002010       ?DupWide@_CW@@AEAAXXZ      0000000180003010 f   CWString.obj
 0001:00002080       ?GetCharsMbcs@_CW@@QEAAHXZ 0000000180003080 f   CWString.obj
 0001:000020f0       ?GetCharsWide@_CW@@QEAAHXZ 00000001800030f0 f   CWString.obj
 0001:00002160       ?SetVARIANT_BOOL@OposVariant@@QEAAXF@Z 0000000180003160 f   OposVariant.obj
 0001:000021d0       ?SetVARIANT_BOOL_Ptr@OposVariant@@QEAAXPEAFAEAJ@Z 00000001800031d0 f   OposVariant.obj
 0001:00002240       ?GetLONG@OposVariant@@QEAAJXZ 0000000180003240 f   OposVariant.obj
 0001:000022a0       ?ChangeLONG@OposVariant@@QEAAXPEAJAEAJ@Z 00000001800032a0 f   OposVariant.obj
 0001:00002350       ?SetLONG@OposVariant@@QEAAXJ@Z 0000000180003350 f   OposVariant.obj
 0001:000023b0       ?SetLONG_Ptr@OposVariant@@QEAAXPEAJAEAJ@Z 00000001800033b0 f   OposVariant.obj
 0001:00002420       ?ChangeCURRENCY@OposVariant@@QEAAXPEATtagCY@@AEAJ@Z 0000000180003420 f   OposVariant.obj
 0001:000024d0       ?SetCURRENCY@OposVariant@@QEAAXTtagCY@@@Z 00000001800034d0 f   OposVariant.obj
 0001:00002530       ?SetCURRENCY_Ptr@OposVariant@@QEAAXPEATtagCY@@AEAJ@Z 0000000180003530 f   OposVariant.obj
 0001:000025a0       ?ChangeBSTR@OposVariant@@QEAAXPEAPEA_WAEAJ@Z 00000001800035a0 f   OposVariant.obj
 0001:00002650       ?SetBSTR@OposVariant@@QEAAXPEA_WAEAJ@Z 0000000180003650 f   OposVariant.obj
 0001:000026d0       ?SetBSTR_Copy@OposVariant@@QEAAXPEA_WAEAJ@Z 00000001800036d0 f   OposVariant.obj
 0001:00002780       ?SetBSTR_OutPtr@OposVariant@@QEAA_NPEAPEA_WAEAJ@Z 0000000180003780 f   OposVariant.obj
 0001:000027f0       ?SetBSTR_InOutPtr@OposVariant@@QEAA_NPEAPEA_WAEAJ@Z 00000001800037f0 f   OposVariant.obj
 0001:00002870       ?SetVARIANT@OposVariant@@QEAAXAEAUtagVARIANT@@GAEAJ@Z 0000000180003870 f   OposVariant.obj
 0001:00002910       ?SetVARIANT_Ptr@OposVariant@@QEAAXAEAPEAUtagVARIANT@@GAEAJ@Z 0000000180003910 f   OposVariant.obj
 0001:000029c0       ?SetString@OposVariant@@QEAAXPEB_WAEAJ@Z 00000001800039c0 f   OposVariant.obj
 0001:00002a70       ?SetDispatch_Ptr@OposVariant@@QEAAXPEAUIDispatch@@AEAJ@Z 0000000180003a70 f   OposVariant.obj
 0001:00002b00       ??0OposDispParms@@QEAA@PEAVOposVariant@@H@Z 0000000180003b00 f   OposVariant.obj
 0001:00002c10       ??1OposDispParms@@QEAA@XZ  0000000180003c10 f   OposVariant.obj
 0001:00002c60       ??$AtlMultiply@_K@ATL@@YAJPEA_K_K1@Z 0000000180003c60 f i OposVariant.obj
 0001:00002ce0       ??0?$CHeapPtr@_WVCCRTAllocator@ATL@@@ATL@@QEAA@XZ 0000000180003ce0 f i OposVariant.obj
 0001:00002d20       ??0?$CHeapPtrBase@_WVCCRTAllocator@ATL@@@ATL@@IEAA@XZ 0000000180003d20 f i OposVariant.obj
 0001:00002d40       ??0?$CSimpleArray@GV?$CSimpleArrayEqualHelper@G@ATL@@@ATL@@QEAA@XZ 0000000180003d40 f i OposVariant.obj
 0001:00002d80       ??0?$CTraceCategoryEx@$00$0A@@ATL@@QEAA@PEB_W@Z 0000000180003d80 f i OposVariant.obj
 0001:00002dc0       ??0?$CTraceCategoryEx@$01$0A@@ATL@@QEAA@PEB_W@Z 0000000180003dc0 f i OposVariant.obj
 0001:00002e00       ??0?$CTraceCategoryEx@$03$0A@@ATL@@QEAA@PEB_W@Z 0000000180003e00 f i OposVariant.obj
 0001:00002e40       ??0?$CTraceCategoryEx@$07$0A@@ATL@@QEAA@PEB_W@Z 0000000180003e40 f i OposVariant.obj
 0001:00002e80       ??0?$CTraceCategoryEx@$0BA@$0A@@ATL@@QEAA@PEB_W@Z 0000000180003e80 f i OposVariant.obj
 0001:00002ec0       ??0?$CTraceCategoryEx@$0BAA@$0A@@ATL@@QEAA@PEB_W@Z 0000000180003ec0 f i OposVariant.obj
 0001:00002f00       ??0?$CTraceCategoryEx@$0BAAA@$0A@@ATL@@QEAA@PEB_W@Z 0000000180003f00 f i OposVariant.obj
 0001:00002f40       ??0?$CTraceCategoryEx@$0BAAAA@$0A@@ATL@@QEAA@PEB_W@Z 0000000180003f40 f i OposVariant.obj
 0001:00002f80       ??0?$CTraceCategoryEx@$0BAAAAA@$0A@@ATL@@QEAA@PEB_W@Z 0000000180003f80 f i OposVariant.obj
 0001:00002fc0       ??0?$CTraceCategoryEx@$0CA@$0A@@ATL@@QEAA@PEB_W@Z 0000000180003fc0 f i OposVariant.obj
 0001:00003000       ??0?$CTraceCategoryEx@$0CAA@$0A@@ATL@@QEAA@PEB_W@Z 0000000180004000 f i OposVariant.obj
 0001:00003040       ??0?$CTraceCategoryEx@$0CAAA@$0A@@ATL@@QEAA@PEB_W@Z 0000000180004040 f i OposVariant.obj
 0001:00003080       ??0?$CTraceCategoryEx@$0CAAAA@$0A@@ATL@@QEAA@PEB_W@Z 0000000180004080 f i OposVariant.obj
 0001:000030c0       ??0?$CTraceCategoryEx@$0CAAAAA@$0A@@ATL@@QEAA@PEB_W@Z 00000001800040c0 f i OposVariant.obj
 0001:00003100       ??0?$CTraceCategoryEx@$0EA@$0A@@ATL@@QEAA@PEB_W@Z 0000000180004100 f i OposVariant.obj
 0001:00003140       ??0?$CTraceCategoryEx@$0EAA@$0A@@ATL@@QEAA@PEB_W@Z 0000000180004140 f i OposVariant.obj
 0001:00003180       ??0?$CTraceCategoryEx@$0EAAA@$0A@@ATL@@QEAA@PEB_W@Z 0000000180004180 f i OposVariant.obj
 0001:000031c0       ??0?$CTraceCategoryEx@$0EAAAA@$0A@@ATL@@QEAA@PEB_W@Z 00000001800041c0 f i OposVariant.obj
 0001:00003200       ??0?$CTraceCategoryEx@$0EAAAAA@$0A@@ATL@@QEAA@PEB_W@Z 0000000180004200 f i OposVariant.obj
 0001:00003240       ??0?$CTraceCategoryEx@$0IA@$0A@@ATL@@QEAA@PEB_W@Z 0000000180004240 f i OposVariant.obj
 0001:00003280       ??0?$CTraceCategoryEx@$0IAA@$0A@@ATL@@QEAA@PEB_W@Z 0000000180004280 f i OposVariant.obj
 0001:000032c0       ??0?$CTraceCategoryEx@$0IAAA@$0A@@ATL@@QEAA@PEB_W@Z 00000001800042c0 f i OposVariant.obj
 0001:00003300       ??0?$CTraceCategoryEx@$0IAAAA@$0A@@ATL@@QEAA@PEB_W@Z 0000000180004300 f i OposVariant.obj
 0001:00003340       ??0CAtlComModule@ATL@@QEAA@XZ 0000000180004340 f i OposVariant.obj
 0001:00003460       ??0CAtlWinModule@ATL@@QEAA@XZ 0000000180004460 f i OposVariant.obj
 0001:00003510       ??0CComCriticalSection@ATL@@QEAA@XZ 0000000180004510 f i OposVariant.obj
 0001:00003550       ??0CPreserveLastError@ATL@@QEAA@XZ 0000000180004550 f i OposVariant.obj
 0001:00003590       ??0CTraceFileAndLineInfo@ATL@@QEAA@PEBDH@Z 0000000180004590 f i OposVariant.obj
 0001:000035c0       ??0_ATL_COM_MODULE70@ATL@@QEAA@XZ 00000001800045c0 f i OposVariant.obj
 0001:00003600       ??0_ATL_WIN_MODULE70@ATL@@QEAA@XZ 0000000180004600 f i OposVariant.obj
 0001:00003650       ??1?$CHeapPtr@_WVCCRTAllocator@ATL@@@ATL@@QEAA@XZ 0000000180004650 f i OposVariant.obj
 0001:00003680       ??1?$CHeapPtrBase@_WVCCRTAllocator@ATL@@@ATL@@QEAA@XZ 0000000180004680 f i OposVariant.obj
 0001:000036b0       ??1?$CSimpleArray@GV?$CSimpleArrayEqualHelper@G@ATL@@@ATL@@QEAA@XZ 00000001800046b0 f i OposVariant.obj
 0001:000036e0       ??1CAtlComModule@ATL@@QEAA@XZ 00000001800046e0 f i OposVariant.obj
 0001:00003720       ??1CAtlWinModule@ATL@@QEAA@XZ 0000000180004720 f i OposVariant.obj
 0001:00003760       ??1CComBSTR@ATL@@QEAA@XZ   0000000180004760 f i OposVariant.obj
 0001:000037a0       ??1CComCriticalSection@ATL@@QEAA@XZ 00000001800047a0 f i OposVariant.obj
 0001:000037b0       ??1CPreserveLastError@ATL@@QEAA@XZ 00000001800047b0 f i OposVariant.obj
 0001:000037f0       ??1_ATL_COM_MODULE70@ATL@@QEAA@XZ 00000001800047f0 f i OposVariant.obj
 0001:00003830       ??1_ATL_WIN_MODULE70@ATL@@QEAA@XZ 0000000180004830 f i OposVariant.obj
 0001:00003880       ??1stringdispid@CComTypeInfoHolder@ATL@@QEAA@XZ 0000000180004880 f i OposVariant.obj
 0001:000038c0       ??A?$CSimpleArray@GV?$CSimpleArrayEqualHelper@G@ATL@@@ATL@@QEAAAEAGH@Z 00000001800048c0 f i OposVariant.obj
 0001:00003970       ??B?$CHeapPtrBase@_WVCCRTAllocator@ATL@@@ATL@@QEBAPEA_WXZ 0000000180004970 f i OposVariant.obj
 0001:00003980       ??B?$CTraceCategoryEx@$01$0A@@ATL@@QEAAIXZ 0000000180004980 f i OposVariant.obj
 0001:00003990       ??B?$CTraceCategoryEx@$0CA@$0A@@ATL@@QEAAIXZ 0000000180004990 f i OposVariant.obj
 0001:000039a0       ??RCTraceFileAndLineInfo@ATL@@QEBAXHIPEB_WZZ 00000001800049a0 f i OposVariant.obj
 0001:00003a50       ??_Estringdispid@CComTypeInfoHolder@ATL@@QEAAPEAXI@Z 0000000180004a50 f i OposVariant.obj
 0001:00003b00       ??_H@YAXPEAX_K1P6APEAX0@Z@Z 0000000180004b00 f i OposVariant.obj
 0001:00003b90       ??_I@YAXPEAX_K1P6AX0@Z@Z   0000000180004b90 f i OposVariant.obj
 0001:00003c40       ?Allocate@?$CHeapPtr@_WVCCRTAllocator@ATL@@@ATL@@QEAA_N_K@Z 0000000180004c40 f i OposVariant.obj
 0001:00003cc0       ?Allocate@CCRTAllocator@ATL@@SAPEAX_K@Z 0000000180004cc0 f i OposVariant.obj
 0001:00003cf0       ?AllocateBytes@?$CHeapPtrBase@_WVCCRTAllocator@ATL@@@ATL@@QEAA_N_K@Z 0000000180004cf0 f i OposVariant.obj
 0001:00003d90       ?AtlWinModuleInit@ATL@@YAJPEAU_ATL_WIN_MODULE70@1@@Z 0000000180004d90 f i OposVariant.obj
 0001:00003e90       ?AtlWinModuleTerm@ATL@@YAJPEAU_ATL_WIN_MODULE70@1@PEAUHINSTANCE__@@@Z 0000000180004e90 f i OposVariant.obj
 0001:00003f80       ?Clear@OposVariant@@QEAAJXZ 0000000180004f80 f i OposVariant.obj
 0001:00003fc0       ?Free@?$CHeapPtrBase@_WVCCRTAllocator@ATL@@@ATL@@QEAAXXZ 0000000180004fc0 f i OposVariant.obj
 0001:00004000       ?Free@CCRTAllocator@ATL@@SAXPEAX@Z 0000000180005000 f i OposVariant.obj
 0001:00004030       ?GetCategoryName@CTrace@ATL@@CAPEA_WI@Z 0000000180005030 f i OposVariant.obj
 0001:000040b0       ?GetModuleInstance@CAtlBaseModule@ATL@@QEAAPEAUHINSTANCE__@@XZ 00000001800050b0 f i OposVariant.obj
 0001:000040d0       ?GetSize@?$CSimpleArray@GV?$CSimpleArrayEqualHelper@G@ATL@@@ATL@@QEBAHXZ 00000001800050d0 f i OposVariant.obj
 0001:000040e0       ?Init@CComCriticalSection@ATL@@QEAAJXZ 00000001800050e0 f i OposVariant.obj
 0001:00004140       ?RegisterCategory@CTrace@ATL@@SAXPEB_WI@Z 0000000180005140 f i OposVariant.obj
 0001:00004220       ?RemoveAll@?$CSimpleArray@GV?$CSimpleArrayEqualHelper@G@ATL@@@ATL@@QEAAXXZ 0000000180005220 f i OposVariant.obj
 0001:000042b0       ?Term@CAtlComModule@ATL@@QEAAXXZ 00000001800052b0 f i OposVariant.obj
 0001:00004390       ?Term@CAtlWinModule@ATL@@QEAAXXZ 0000000180005390 f i OposVariant.obj
 0001:000043d0       ?Term@CComCriticalSection@ATL@@QEAAJXZ 00000001800053d0 f i OposVariant.obj
 0001:00004410       ?TraceV@CTrace@ATL@@CAXPEBDHIIPEB_W@Z 0000000180005410 f i OposVariant.obj
 0001:000046c0       ?TraceV@CTrace@ATL@@SAXPEBDHIIPEB_WPEAD@Z 00000001800056c0 f i OposVariant.obj
 0001:00004870       ?_AtlInitializeCriticalSectionEx@ATL@@YAHPEAU_RTL_CRITICAL_SECTION@@KK@Z 0000000180005870 f i OposVariant.obj
 0001:000048c0       ?_AtlRaiseException@ATL@@YAXKK@Z 00000001800058c0 f i OposVariant.obj
 0001:00004900       HRESULT_FROM_WIN32         0000000180005900 f i OposVariant.obj
 0001:00004950       _vswprintf_s_l             0000000180005950 f i OposVariant.obj
 0001:000049e0       swprintf_s                 00000001800059e0 f i OposVariant.obj
 0001:00004a70       ?ObjectMain@CComObjectRootBase@ATL@@SAX_N@Z 0000000180005a70 f i CashDrawer.obj
 0001:00004a80       ?GetCategoryMap@CComObjectRootBase@ATL@@SAPEBU_ATL_CATMAP_ENTRY@2@XZ 0000000180005a80 f i CashDrawer.obj
 0001:00004a90       ?GetObjectDescription@?$CComCoClass@VCOPOSCashDrawer@@$1?CLSID_OPOSCashDrawer@@3U_GUID@@B@ATL@@SAPEB_WXZ 0000000180005a90 f i CashDrawer.obj
 0001:00004aa0       ?UpdateRegistry@COPOSCashDrawer@@SAJH@Z 0000000180005aa0 f i CashDrawer.obj
 0001:00004ae0       ?CreateInstance@?$CComCreator@V?$CComObjectCached@VCComClassFactory@ATL@@@ATL@@@ATL@@SAJPEAXAEBU_GUID@@PEAPEAX@Z 0000000180005ae0 f i CashDrawer.obj
 0001:00004ce0       ?CreateInstance@?$CComCreator2@V?$CComCreator@V?$CComObject@VCOPOSCashDrawer@@@ATL@@@ATL@@V?$CComCreator@V?$CComAggObject@VCOPOSCashDrawer@@@ATL@@@2@@ATL@@SAJPEAXAEBU_GUID@@PEAPEAX@Z 0000000180005ce0 f i CashDrawer.obj
 0001:00004ef0       DllGetClassObject          0000000180005ef0 f   CashDrawer.obj
 0001:00004f40       DllCanUnloadNow            0000000180005f40 f   CashDrawer.obj
 0001:00004f90       DllRegisterServer          0000000180005f90 f   CashDrawer.obj
 0001:00004fd0       DllUnregisterServer        0000000180005fd0 f   CashDrawer.obj
 0001:000051d0       DllMain                    00000001800061d0 f   CashDrawer.obj
 0001:00005250       ??$?2G@Wrapper@?$CSimpleArray@GV?$CSimpleArrayEqualHelper@G@ATL@@@ATL@@SAPEAX_KPEAG@Z 0000000180006250 f i CashDrawer.obj
 0001:00005270       ??$?2PEA_W@?$Wrapper@PEA_W@?$CSimpleMap@PEA_WPEA_WVCExpansionVectorEqualHelper@ATL@@@ATL@@SAPEAX_KPEAPEA_W@Z 0000000180006270 f i CashDrawer.obj
 0001:00005290       ??$?4UITypeInfo2@@@?$CComPtr@UITypeInfo@@@ATL@@QEAAPEAUITypeInfo@@AEBV?$CComPtr@UITypeInfo2@@@1@@Z 0000000180006290 f i CashDrawer.obj
 0001:00005300       ??$AtlAdd@_K@ATL@@YAJPEA_K_K1@Z 0000000180006300 f i CashDrawer.obj
 0001:00005370       ??$AtlAddThrow@_K@ATL@@YA_K_K0@Z 0000000180006370 f i CashDrawer.obj
 0001:000053e0       ??$AtlModuleRegisterWndClassInfoT@VAtlModuleRegisterWndClassInfoParamW@ATL@@@ATL@@YAGPEAU_ATL_BASE_MODULE70@0@PEAU_ATL_WIN_MODULE70@0@PEAU_ATL_WNDCLASSINFOW@0@PEAP6A_JPEAUHWND__@@I_K_J@ZVAtlModuleRegisterWndClassInfoParamW@0@@Z 00000001800063e0 f i CashDrawer.obj
 0001:000059b0       ??$AtlMultiply@H@ATL@@YAJPEAHHH@Z 00000001800069b0 f i CashDrawer.obj
 0001:00005a20       ??$AtlMultiply@K@ATL@@YAJPEAKKK@Z 0000000180006a20 f i CashDrawer.obj
 0001:00005a90       ??$AtlMultiplyThrow@_K@ATL@@YA_K_K0@Z 0000000180006a90 f i CashDrawer.obj
 0001:00005b00       ??$QueryInterface@UIPersistStream@@@IUnknown@@QEAAJPEAPEAUIPersistStream@@@Z 0000000180006b00 f i CashDrawer.obj
 0001:00005b50       ??$QueryInterface@UITypeInfo2@@@IUnknown@@QEAAJPEAPEAUITypeInfo2@@@Z 0000000180006b50 f i CashDrawer.obj
 0001:00005ba0       ??0?$CAtlModuleT@VCComModule@ATL@@@ATL@@QEAA@XZ 0000000180006ba0 f i CashDrawer.obj
 0001:00005be0       ??0?$CAtlSafeAllocBufferManager@VCCRTAllocator@ATL@@@_ATL_SAFE_ALLOCA_IMPL@ATL@@QEAA@XZ 0000000180006be0 f i CashDrawer.obj
 0001:00005c00       ??0?$CAutoVectorPtr@_W@ATL@@QEAA@XZ 0000000180006c00 f i CashDrawer.obj
 0001:00005c20       ??0?$CComAggObject@VCOPOSCashDrawer@@@ATL@@QEAA@PEAX@Z 0000000180006c20 f i CashDrawer.obj
 0001:00005cb0       ??0?$CComContainedObject@VCOPOSCashDrawer@@@ATL@@QEAA@PEAX@Z 0000000180006cb0 f i CashDrawer.obj
 0001:00005e50       ??0?$CComCritSecLock@VCComCriticalSection@ATL@@@ATL@@QEAA@AEAVCComCriticalSection@1@_N@Z 0000000180006e50 f i CashDrawer.obj
 0001:00005ec0       ??0?$CComEnum@UIEnumConnectionPoints@@$1?_GUID_b196b285_bab4_101a_b69c_00aa00341d07@@3U__s_GUID@@BPEAUIConnectionPoint@@V?$_CopyInterface@UIConnectionPoint@@@ATL@@VCComSingleThreadModel@6@@ATL@@QEAA@XZ 0000000180006ec0 f i CashDrawer.obj
 0001:00005f10       ??0?$CComEnum@UIEnumConnections@@$1?_GUID_b196b287_bab4_101a_b69c_00aa00341d07@@3U__s_GUID@@BUtagCONNECTDATA@@V?$_Copy@UtagCONNECTDATA@@@ATL@@VCComSingleThreadModel@6@@ATL@@QEAA@XZ 0000000180006f10 f i CashDrawer.obj
 0001:00005f60       ??0?$CComEnumImpl@UIEnumConnectionPoints@@$1?_GUID_b196b285_bab4_101a_b69c_00aa00341d07@@3U__s_GUID@@BPEAUIConnectionPoint@@V?$_CopyInterface@UIConnectionPoint@@@ATL@@@ATL@@QEAA@XZ 0000000180006f60 f i CashDrawer.obj
 0001:00005fe0       ??0?$CComEnumImpl@UIEnumConnections@@$1?_GUID_b196b287_bab4_101a_b69c_00aa00341d07@@3U__s_GUID@@BUtagCONNECTDATA@@V?$_Copy@UtagCONNECTDATA@@@ATL@@@ATL@@QEAA@XZ 0000000180006fe0 f i CashDrawer.obj
 0001:00006060       ??0?$CComObject@V?$CComEnum@UIEnumConnectionPoints@@$1?_GUID_b196b285_bab4_101a_b69c_00aa00341d07@@3U__s_GUID@@BPEAUIConnectionPoint@@V?$_CopyInterface@UIConnectionPoint@@@ATL@@VCComSingleThreadModel@6@@ATL@@@ATL@@QEAA@PEAX@Z 0000000180007060 f i CashDrawer.obj
 0001:000060c0       ??0?$CComObject@V?$CComEnum@UIEnumConnections@@$1?_GUID_b196b287_bab4_101a_b69c_00aa00341d07@@3U__s_GUID@@BUtagCONNECTDATA@@V?$_Copy@UtagCONNECTDATA@@@ATL@@VCComSingleThreadModel@6@@ATL@@@ATL@@QEAA@PEAX@Z 00000001800070c0 f i CashDrawer.obj
 0001:00006120       ??0?$CComObject@VCOPOSCashDrawer@@@ATL@@QEAA@PEAX@Z 0000000180007120 f i CashDrawer.obj
 0001:000062c0       ??0?$CComObjectCached@VCComClassFactory@ATL@@@ATL@@QEAA@PEAX@Z 00000001800072c0 f i CashDrawer.obj
 0001:00006310       ??0?$CComObjectRootEx@VCComMultiThreadModel@ATL@@@ATL@@QEAA@XZ 0000000180007310 f i CashDrawer.obj
 0001:00006360       ??0?$CComObjectRootEx@VCComSingleThreadModel@ATL@@@ATL@@QEAA@XZ 0000000180007360 f i CashDrawer.obj
 0001:000063a0       ??0?$CComPtr@UIAdviseSink@@@ATL@@QEAA@PEAUIAdviseSink@@@Z 00000001800073a0 f i CashDrawer.obj
 0001:000063e0       ??0?$CComPtr@UICatRegister@@@ATL@@QEAA@XZ 00000001800073e0 f i CashDrawer.obj
 0001:00006420       ??0?$CComPtr@UIConnectionPoint@@@ATL@@QEAA@XZ 0000000180007420 f i CashDrawer.obj
 0001:00006460       ??0?$CComPtr@UIConnectionPointContainer@@@ATL@@QEAA@XZ 0000000180007460 f i CashDrawer.obj
 0001:000064a0       ??0?$CComPtr@UIDataObject@@@ATL@@QEAA@XZ 00000001800074a0 f i CashDrawer.obj
 0001:000064e0       ??0?$CComPtr@UIDispatch@@@ATL@@QEAA@XZ 00000001800074e0 f i CashDrawer.obj
 0001:00006520       ??0?$CComPtr@UIOleClientSite@@@ATL@@QEAA@PEAUIOleClientSite@@@Z 0000000180007520 f i CashDrawer.obj
 0001:00006560       ??0?$CComPtr@UIOleControlSite@@@ATL@@QEAA@XZ 0000000180007560 f i CashDrawer.obj
 0001:000065a0       ??0?$CComPtr@UIOleInPlaceActiveObject@@@ATL@@QEAA@XZ 00000001800075a0 f i CashDrawer.obj
 0001:000065e0       ??0?$CComPtr@UIOleInPlaceFrame@@@ATL@@QEAA@XZ 00000001800075e0 f i CashDrawer.obj
 0001:00006620       ??0?$CComPtr@UIOleInPlaceObject@@@ATL@@QEAA@XZ 0000000180007620 f i CashDrawer.obj
 0001:00006660       ??0?$CComPtr@UIOleInPlaceUIWindow@@@ATL@@QEAA@XZ 0000000180007660 f i CashDrawer.obj
 0001:000066a0       ??0?$CComPtr@UIOleObject@@@ATL@@QEAA@XZ 00000001800076a0 f i CashDrawer.obj
 0001:000066e0       ??0?$CComPtr@UIPersistStream@@@ATL@@QEAA@XZ 00000001800076e0 f i CashDrawer.obj
 0001:00006720       ??0?$CComPtr@UIPersistStreamInit@@@ATL@@QEAA@XZ 0000000180007720 f i CashDrawer.obj
 0001:00006760       ??0?$CComPtr@UIPointerInactive@@@ATL@@QEAA@XZ 0000000180007760 f i CashDrawer.obj
 0001:000067a0       ??0?$CComPtr@UIProvideClassInfo2@@@ATL@@QEAA@XZ 00000001800077a0 f i CashDrawer.obj
 0001:000067e0       ??0?$CComPtr@UISpecifyPropertyPages@@@ATL@@QEAA@XZ 00000001800077e0 f i CashDrawer.obj
 0001:00006820       ??0?$CComPtr@UIStream@@@ATL@@QEAA@XZ 0000000180007820 f i CashDrawer.obj
 0001:00006860       ??0?$CComPtr@UITypeInfo2@@@ATL@@QEAA@XZ 0000000180007860 f i CashDrawer.obj
 0001:000068a0       ??0?$CComPtr@UITypeInfo@@@ATL@@QEAA@AEBV01@@Z 00000001800078a0 f i CashDrawer.obj
 0001:000068e0       ??0?$CComPtr@UITypeInfo@@@ATL@@QEAA@XZ 00000001800078e0 f i CashDrawer.obj
 0001:00006920       ??0?$CComPtr@UITypeLib@@@ATL@@QEAA@XZ 0000000180007920 f i CashDrawer.obj
 0001:00006960       ??0?$CComPtr@UIUnknown@@@ATL@@QEAA@AEBV01@@Z 0000000180007960 f i CashDrawer.obj
 0001:000069a0       ??0?$CComPtr@UIUnknown@@@ATL@@QEAA@PEAUIUnknown@@@Z 00000001800079a0 f i CashDrawer.obj
 0001:000069e0       ??0?$CComPtr@UIUnknown@@@ATL@@QEAA@XZ 00000001800079e0 f i CashDrawer.obj
 0001:00006a20       ??0?$CComPtr@UIViewObjectEx@@@ATL@@QEAA@XZ 0000000180007a20 f i CashDrawer.obj
 0001:00006a60       ??0?$CComPtrBase@UIAdviseSink@@@ATL@@IEAA@PEAUIAdviseSink@@@Z 0000000180007a60 f i CashDrawer.obj
 0001:00006ac0       ??0?$CComPtrBase@UICatRegister@@@ATL@@IEAA@XZ 0000000180007ac0 f i CashDrawer.obj
 0001:00006ae0       ??0?$CComPtrBase@UIConnectionPoint@@@ATL@@IEAA@XZ 0000000180007ae0 f i CashDrawer.obj
 0001:00006b00       ??0?$CComPtrBase@UIConnectionPointContainer@@@ATL@@IEAA@XZ 0000000180007b00 f i CashDrawer.obj
 0001:00006b20       ??0?$CComPtrBase@UIDataObject@@@ATL@@IEAA@XZ 0000000180007b20 f i CashDrawer.obj
 0001:00006b40       ??0?$CComPtrBase@UIDispatch@@@ATL@@IEAA@XZ 0000000180007b40 f i CashDrawer.obj
 0001:00006b60       ??0?$CComPtrBase@UIOleClientSite@@@ATL@@IEAA@PEAUIOleClientSite@@@Z 0000000180007b60 f i CashDrawer.obj
 0001:00006bc0       ??0?$CComPtrBase@UIOleControlSite@@@ATL@@IEAA@XZ 0000000180007bc0 f i CashDrawer.obj
 0001:00006be0       ??0?$CComPtrBase@UIOleInPlaceActiveObject@@@ATL@@IEAA@XZ 0000000180007be0 f i CashDrawer.obj
 0001:00006c00       ??0?$CComPtrBase@UIOleInPlaceFrame@@@ATL@@IEAA@XZ 0000000180007c00 f i CashDrawer.obj
 0001:00006c20       ??0?$CComPtrBase@UIOleInPlaceObject@@@ATL@@IEAA@XZ 0000000180007c20 f i CashDrawer.obj
 0001:00006c40       ??0?$CComPtrBase@UIOleInPlaceUIWindow@@@ATL@@IEAA@XZ 0000000180007c40 f i CashDrawer.obj
 0001:00006c60       ??0?$CComPtrBase@UIOleObject@@@ATL@@IEAA@XZ 0000000180007c60 f i CashDrawer.obj
 0001:00006c80       ??0?$CComPtrBase@UIPersistStream@@@ATL@@IEAA@XZ 0000000180007c80 f i CashDrawer.obj
 0001:00006ca0       ??0?$CComPtrBase@UIPersistStreamInit@@@ATL@@IEAA@XZ 0000000180007ca0 f i CashDrawer.obj
 0001:00006cc0       ??0?$CComPtrBase@UIPointerInactive@@@ATL@@IEAA@XZ 0000000180007cc0 f i CashDrawer.obj
 0001:00006ce0       ??0?$CComPtrBase@UIProvideClassInfo2@@@ATL@@IEAA@XZ 0000000180007ce0 f i CashDrawer.obj
 0001:00006d00       ??0?$CComPtrBase@UISpecifyPropertyPages@@@ATL@@IEAA@XZ 0000000180007d00 f i CashDrawer.obj
 0001:00006d20       ??0?$CComPtrBase@UIStream@@@ATL@@IEAA@XZ 0000000180007d20 f i CashDrawer.obj
 0001:00006d40       ??0?$CComPtrBase@UITypeInfo2@@@ATL@@IEAA@XZ 0000000180007d40 f i CashDrawer.obj
 0001:00006d60       ??0?$CComPtrBase@UITypeInfo@@@ATL@@IEAA@PEAUITypeInfo@@@Z 0000000180007d60 f i CashDrawer.obj
 0001:00006dc0       ??0?$CComPtrBase@UITypeInfo@@@ATL@@IEAA@XZ 0000000180007dc0 f i CashDrawer.obj
 0001:00006de0       ??0?$CComPtrBase@UITypeLib@@@ATL@@IEAA@XZ 0000000180007de0 f i CashDrawer.obj
 0001:00006e00       ??0?$CComPtrBase@UIUnknown@@@ATL@@IEAA@PEAUIUnknown@@@Z 0000000180007e00 f i CashDrawer.obj
 0001:00006e60       ??0?$CComPtrBase@UIUnknown@@@ATL@@IEAA@XZ 0000000180007e60 f i CashDrawer.obj
 0001:00006e80       ??0?$CComPtrBase@UIViewObjectEx@@@ATL@@IEAA@XZ 0000000180007e80 f i CashDrawer.obj
 0001:00006ea0       ??0?$CComQIPtr@UIOleControlSite@@$1?_GUID_b196b289_bab4_101a_b69c_00aa00341d07@@3U__s_GUID@@B@ATL@@QEAA@PEAUIUnknown@@@Z 0000000180007ea0 f i CashDrawer.obj
 0001:00006f10       ??0?$CComQIPtr@UIOleObject@@$1?_GUID_00000112_0000_0000_c000_000000000046@@3U__s_GUID@@B@ATL@@QEAA@XZ 0000000180007f10 f i CashDrawer.obj
 0001:00006f50       ??0?$CComQIPtr@UISpecifyPropertyPages@@$1?_GUID_b196b28b_bab4_101a_b69c_00aa00341d07@@3U__s_GUID@@B@ATL@@QEAA@XZ 0000000180007f50 f i CashDrawer.obj
 0001:00006f90       ??0?$CSimpleMap@PEA_WPEA_WVCExpansionVectorEqualHelper@ATL@@@ATL@@QEAA@XZ 0000000180007f90 f i CashDrawer.obj
 0001:00006fd0       ??0?$CTempBuffer@E$0BAA@VCCRTAllocator@ATL@@@ATL@@QEAA@XZ 0000000180007fd0 f i CashDrawer.obj
 0001:00006ff0       ??0?$CTempBuffer@_W$0BAA@VCCRTAllocator@ATL@@@ATL@@QEAA@XZ 0000000180007ff0 f i CashDrawer.obj
 0001:00007010       ??0?$CTempBuffer@_W$0EAA@VCCRTAllocator@ATL@@@ATL@@QEAA@XZ 0000000180008010 f i CashDrawer.obj
 0001:00007030       ??0?$Wrapper@PEA_W@?$CSimpleMap@PEA_WPEA_WVCExpansionVectorEqualHelper@ATL@@@ATL@@QEAA@AEBQEA_W@Z 0000000180008030 f i CashDrawer.obj
 0001:00007060       ??0CAtlModule@ATL@@QEAA@XZ 0000000180008060 f i CashDrawer.obj
 0001:000071d0       ??0CComAutoDeleteCriticalSection@ATL@@QEAA@XZ 00000001800081d0 f i CashDrawer.obj
 0001:00007210       ??0CComBSTR@ATL@@QEAA@XZ   0000000180008210 f i CashDrawer.obj
 0001:00007230       ??0CComClassFactory@ATL@@QEAA@XZ 0000000180008230 f i CashDrawer.obj
 0001:00007290       ??0CComModule@ATL@@QEAA@XZ 0000000180008290 f i CashDrawer.obj
 0001:00007330       ??0CComObjectRootBase@ATL@@QEAA@XZ 0000000180008330 f i CashDrawer.obj
 0001:00007350       ??0CComSafeDeleteCriticalSection@ATL@@QEAA@XZ 0000000180008350 f i CashDrawer.obj
 0001:00007390       ??0CComVariant@ATL@@QEAA@XZ 0000000180008390 f i CashDrawer.obj
 0001:000073e0       ??0CExpansionVector@ATL@@QEAA@XZ 00000001800083e0 f i CashDrawer.obj
 0001:00007420       ??0CParseBuffer@CRegParser@ATL@@QEAA@H@Z 0000000180008420 f i CashDrawer.obj
 0001:000074b0       ??0CRegKey@ATL@@QEAA@PEAUHKEY__@@@Z 00000001800084b0 f i CashDrawer.obj
 0001:000074f0       ??0CRegKey@ATL@@QEAA@PEAVCAtlTransactionManager@1@@Z 00000001800084f0 f i CashDrawer.obj
 0001:00007530       ??0CRegObject@ATL@@QEAA@XZ 0000000180008530 f i CashDrawer.obj
 0001:00007590       ??0CRegParser@ATL@@QEAA@PEAVCRegObject@1@@Z 0000000180008590 f i CashDrawer.obj
 0001:000075c0       ??0IClassFactory@@QEAA@XZ  00000001800085c0 f i CashDrawer.obj
 0001:00007600       ??0IEnumConnectionPoints@@QEAA@XZ 0000000180008600 f i CashDrawer.obj
 0001:00007640       ??0IEnumConnections@@QEAA@XZ 0000000180008640 f i CashDrawer.obj
 0001:00007680       ??0IRegistrarBase@@QEAA@XZ 0000000180008680 f i CashDrawer.obj
 0001:000076c0       ??0IUnknown@@QEAA@XZ       00000001800086c0 f i CashDrawer.obj
 0001:000076d0       ??0ModuleLockHelper@ATL@@QEAA@XZ 00000001800086d0 f i CashDrawer.obj
 0001:00007710       ??0OposVariant@@QEAA@XZ    0000000180008710 f i CashDrawer.obj
 0001:00007730       ??0Wrapper@?$CSimpleArray@GV?$CSimpleArrayEqualHelper@G@ATL@@@ATL@@QEAA@AEBG@Z 0000000180008730 f i CashDrawer.obj
 0001:00007760       ??0_ATL_MODULE70@ATL@@QEAA@XZ 0000000180008760 f i CashDrawer.obj
 0001:000077a0       ??0_ATL_MSG@ATL@@QEAA@PEAUHWND__@@I_K_JH@Z 00000001800087a0 f i CashDrawer.obj
 0001:00007830       ??0_U_MENUorID@ATL@@QEAA@I@Z 0000000180008830 f i CashDrawer.obj
 0001:00007850       ??0_U_RECT@ATL@@QEAA@AEAUtagRECT@@@Z 0000000180008850 f i CashDrawer.obj
 0001:00007870       ??0stringdispid@CComTypeInfoHolder@ATL@@QEAA@XZ 0000000180008870 f i CashDrawer.obj
 0001:000078c0       ??1?$CAtlModuleT@VCComModule@ATL@@@ATL@@UEAA@XZ 00000001800088c0 f i CashDrawer.obj
 0001:000078f0       ??1?$CAtlSafeAllocBufferManager@VCCRTAllocator@ATL@@@_ATL_SAFE_ALLOCA_IMPL@ATL@@QEAA@XZ 00000001800088f0 f i CashDrawer.obj
 0001:00007950       ??1?$CAutoVectorPtr@_W@ATL@@QEAA@XZ 0000000180008950 f i CashDrawer.obj
 0001:00007980       ??1?$CComAggObject@VCOPOSCashDrawer@@@ATL@@UEAA@XZ 0000000180008980 f i CashDrawer.obj
 0001:00007a00       ??1?$CComContainedObject@VCOPOSCashDrawer@@@ATL@@UEAA@XZ 0000000180008a00 f i CashDrawer.obj
 0001:00007a30       ??1?$CComCritSecLock@VCComCriticalSection@ATL@@@ATL@@QEAA@XZ 0000000180008a30 f i CashDrawer.obj
 0001:00007a70       ??1?$CComEnum@UIEnumConnectionPoints@@$1?_GUID_b196b285_bab4_101a_b69c_00aa00341d07@@3U__s_GUID@@BPEAUIConnectionPoint@@V?$_CopyInterface@UIConnectionPoint@@@ATL@@VCComSingleThreadModel@6@@ATL@@UEAA@XZ 0000000180008a70 f i CashDrawer.obj
 0001:00007ab0       ??1?$CComEnum@UIEnumConnections@@$1?_GUID_b196b287_bab4_101a_b69c_00aa00341d07@@3U__s_GUID@@BUtagCONNECTDATA@@V?$_Copy@UtagCONNECTDATA@@@ATL@@VCComSingleThreadModel@6@@ATL@@UEAA@XZ 0000000180008ab0 f i CashDrawer.obj
 0001:00007af0       ??1?$CComEnumImpl@UIEnumConnectionPoints@@$1?_GUID_b196b285_bab4_101a_b69c_00aa00341d07@@3U__s_GUID@@BPEAUIConnectionPoint@@V?$_CopyInterface@UIConnectionPoint@@@ATL@@@ATL@@UEAA@XZ 0000000180008af0 f i CashDrawer.obj
 0001:00007b90       ??1?$CComEnumImpl@UIEnumConnections@@$1?_GUID_b196b287_bab4_101a_b69c_00aa00341d07@@3U__s_GUID@@BUtagCONNECTDATA@@V?$_Copy@UtagCONNECTDATA@@@ATL@@@ATL@@UEAA@XZ 0000000180008b90 f i CashDrawer.obj
 0001:00007c30       ??1?$CComObject@V?$CComEnum@UIEnumConnectionPoints@@$1?_GUID_b196b285_bab4_101a_b69c_00aa00341d07@@3U__s_GUID@@BPEAUIConnectionPoint@@V?$_CopyInterface@UIConnectionPoint@@@ATL@@VCComSingleThreadModel@6@@ATL@@@ATL@@UEAA@XZ 0000000180008c30 f i CashDrawer.obj
 0001:00007ca0       ??1?$CComObject@V?$CComEnum@UIEnumConnections@@$1?_GUID_b196b287_bab4_101a_b69c_00aa00341d07@@3U__s_GUID@@BUtagCONNECTDATA@@V?$_Copy@UtagCONNECTDATA@@@ATL@@VCComSingleThreadModel@6@@ATL@@@ATL@@UEAA@XZ 0000000180008ca0 f i CashDrawer.obj
 0001:00007d10       ??1?$CComObject@VCOPOSCashDrawer@@@ATL@@UEAA@XZ 0000000180008d10 f i CashDrawer.obj
 0001:00007ec0       ??1?$CComObjectCached@VCComClassFactory@ATL@@@ATL@@UEAA@XZ 0000000180008ec0 f i CashDrawer.obj
 0001:00007f20       ??1?$CComObjectRootEx@VCComMultiThreadModel@ATL@@@ATL@@QEAA@XZ 0000000180008f20 f i CashDrawer.obj
 0001:00007f60       ??1?$CComObjectRootEx@VCComSingleThreadModel@ATL@@@ATL@@QEAA@XZ 0000000180008f60 f i CashDrawer.obj
 0001:00007f90       ??1?$CComPtr@UIAdviseSink@@@ATL@@QEAA@XZ 0000000180008f90 f i CashDrawer.obj
 0001:00007fc0       ??1?$CComPtr@UICatRegister@@@ATL@@QEAA@XZ 0000000180008fc0 f i CashDrawer.obj
 0001:00007ff0       ??1?$CComPtr@UIConnectionPoint@@@ATL@@QEAA@XZ 0000000180008ff0 f i CashDrawer.obj
 0001:00008020       ??1?$CComPtr@UIConnectionPointContainer@@@ATL@@QEAA@XZ 0000000180009020 f i CashDrawer.obj
 0001:00008050       ??1?$CComPtr@UIDataObject@@@ATL@@QEAA@XZ 0000000180009050 f i CashDrawer.obj
 0001:00008080       ??1?$CComPtr@UIDispatch@@@ATL@@QEAA@XZ 0000000180009080 f i CashDrawer.obj
 0001:000080b0       ??1?$CComPtr@UIOleClientSite@@@ATL@@QEAA@XZ 00000001800090b0 f i CashDrawer.obj
 0001:000080e0       ??1?$CComPtr@UIOleControlSite@@@ATL@@QEAA@XZ 00000001800090e0 f i CashDrawer.obj
 0001:00008110       ??1?$CComPtr@UIOleInPlaceActiveObject@@@ATL@@QEAA@XZ 0000000180009110 f i CashDrawer.obj
 0001:00008140       ??1?$CComPtr@UIOleInPlaceFrame@@@ATL@@QEAA@XZ 0000000180009140 f i CashDrawer.obj
 0001:00008170       ??1?$CComPtr@UIOleInPlaceObject@@@ATL@@QEAA@XZ 0000000180009170 f i CashDrawer.obj
 0001:000081a0       ??1?$CComPtr@UIOleInPlaceUIWindow@@@ATL@@QEAA@XZ 00000001800091a0 f i CashDrawer.obj
 0001:000081d0       ??1?$CComPtr@UIOleObject@@@ATL@@QEAA@XZ 00000001800091d0 f i CashDrawer.obj
 0001:00008200       ??1?$CComPtr@UIPersistStream@@@ATL@@QEAA@XZ 0000000180009200 f i CashDrawer.obj
 0001:00008230       ??1?$CComPtr@UIPersistStreamInit@@@ATL@@QEAA@XZ 0000000180009230 f i CashDrawer.obj
 0001:00008260       ??1?$CComPtr@UIPointerInactive@@@ATL@@QEAA@XZ 0000000180009260 f i CashDrawer.obj
 0001:00008290       ??1?$CComPtr@UIProvideClassInfo2@@@ATL@@QEAA@XZ 0000000180009290 f i CashDrawer.obj
 0001:000082c0       ??1?$CComPtr@UISpecifyPropertyPages@@@ATL@@QEAA@XZ 00000001800092c0 f i CashDrawer.obj
 0001:000082f0       ??1?$CComPtr@UIStream@@@ATL@@QEAA@XZ 00000001800092f0 f i CashDrawer.obj
 0001:00008320       ??1?$CComPtr@UITypeInfo2@@@ATL@@QEAA@XZ 0000000180009320 f i CashDrawer.obj
 0001:00008350       ??1?$CComPtr@UITypeInfo@@@ATL@@QEAA@XZ 0000000180009350 f i CashDrawer.obj
 0001:00008380       ??1?$CComPtr@UITypeLib@@@ATL@@QEAA@XZ 0000000180009380 f i CashDrawer.obj
 0001:000083b0       ??1?$CComPtr@UIUnknown@@@ATL@@QEAA@XZ 00000001800093b0 f i CashDrawer.obj
 0001:000083e0       ??1?$CComPtr@UIViewObjectEx@@@ATL@@QEAA@XZ 00000001800093e0 f i CashDrawer.obj
 0001:00008410       ??1?$CComPtrBase@UIAdviseSink@@@ATL@@QEAA@XZ 0000000180009410 f i CashDrawer.obj
 0001:00008460       ??1?$CComPtrBase@UICatRegister@@@ATL@@QEAA@XZ 0000000180009460 f i CashDrawer.obj
 0001:000084b0       ??1?$CComPtrBase@UIConnectionPoint@@@ATL@@QEAA@XZ 00000001800094b0 f i CashDrawer.obj
 0001:00008500       ??1?$CComPtrBase@UIConnectionPointContainer@@@ATL@@QEAA@XZ 0000000180009500 f i CashDrawer.obj
 0001:00008550       ??1?$CComPtrBase@UIDataObject@@@ATL@@QEAA@XZ 0000000180009550 f i CashDrawer.obj
 0001:000085a0       ??1?$CComPtrBase@UIDispatch@@@ATL@@QEAA@XZ 00000001800095a0 f i CashDrawer.obj
 0001:000085f0       ??1?$CComPtrBase@UIOleClientSite@@@ATL@@QEAA@XZ 00000001800095f0 f i CashDrawer.obj
 0001:00008640       ??1?$CComPtrBase@UIOleControlSite@@@ATL@@QEAA@XZ 0000000180009640 f i CashDrawer.obj
 0001:00008690       ??1?$CComPtrBase@UIOleInPlaceActiveObject@@@ATL@@QEAA@XZ 0000000180009690 f i CashDrawer.obj
 0001:000086e0       ??1?$CComPtrBase@UIOleInPlaceFrame@@@ATL@@QEAA@XZ 00000001800096e0 f i CashDrawer.obj
 0001:00008730       ??1?$CComPtrBase@UIOleInPlaceObject@@@ATL@@QEAA@XZ 0000000180009730 f i CashDrawer.obj
 0001:00008780       ??1?$CComPtrBase@UIOleInPlaceUIWindow@@@ATL@@QEAA@XZ 0000000180009780 f i CashDrawer.obj
 0001:000087d0       ??1?$CComPtrBase@UIOleObject@@@ATL@@QEAA@XZ 00000001800097d0 f i CashDrawer.obj
 0001:00008820       ??1?$CComPtrBase@UIPersistStream@@@ATL@@QEAA@XZ 0000000180009820 f i CashDrawer.obj
 0001:00008870       ??1?$CComPtrBase@UIPersistStreamInit@@@ATL@@QEAA@XZ 0000000180009870 f i CashDrawer.obj
 0001:000088c0       ??1?$CComPtrBase@UIPointerInactive@@@ATL@@QEAA@XZ 00000001800098c0 f i CashDrawer.obj
 0001:00008910       ??1?$CComPtrBase@UIProvideClassInfo2@@@ATL@@QEAA@XZ 0000000180009910 f i CashDrawer.obj
 0001:00008960       ??1?$CComPtrBase@UISpecifyPropertyPages@@@ATL@@QEAA@XZ 0000000180009960 f i CashDrawer.obj
 0001:000089b0       ??1?$CComPtrBase@UIStream@@@ATL@@QEAA@XZ 00000001800099b0 f i CashDrawer.obj
 0001:00008a00       ??1?$CComPtrBase@UITypeInfo2@@@ATL@@QEAA@XZ 0000000180009a00 f i CashDrawer.obj
 0001:00008a50       ??1?$CComPtrBase@UITypeInfo@@@ATL@@QEAA@XZ 0000000180009a50 f i CashDrawer.obj
 0001:00008aa0       ??1?$CComPtrBase@UITypeLib@@@ATL@@QEAA@XZ 0000000180009aa0 f i CashDrawer.obj
 0001:00008af0       ??1?$CComPtrBase@UIUnknown@@@ATL@@QEAA@XZ 0000000180009af0 f i CashDrawer.obj
 0001:00008b40       ??1?$CComPtrBase@UIViewObjectEx@@@ATL@@QEAA@XZ 0000000180009b40 f i CashDrawer.obj
 0001:00008b90       ??1?$CComQIPtr@UIOleControlSite@@$1?_GUID_b196b289_bab4_101a_b69c_00aa00341d07@@3U__s_GUID@@B@ATL@@QEAA@XZ 0000000180009b90 f i CashDrawer.obj
 0001:00008bc0       ??1?$CComQIPtr@UIOleObject@@$1?_GUID_00000112_0000_0000_c000_000000000046@@3U__s_GUID@@B@ATL@@QEAA@XZ 0000000180009bc0 f i CashDrawer.obj
 0001:00008bf0       ??1?$CComQIPtr@UISpecifyPropertyPages@@$1?_GUID_b196b28b_bab4_101a_b69c_00aa00341d07@@3U__s_GUID@@B@ATL@@QEAA@XZ 0000000180009bf0 f i CashDrawer.obj
 0001:00008c20       ??1?$CSimpleMap@PEA_WPEA_WVCExpansionVectorEqualHelper@ATL@@@ATL@@QEAA@XZ 0000000180009c20 f i CashDrawer.obj
 0001:00008c50       ??1?$CTempBuffer@E$0BAA@VCCRTAllocator@ATL@@@ATL@@QEAA@XZ 0000000180009c50 f i CashDrawer.obj
 0001:00008ca0       ??1?$CTempBuffer@_W$0BAA@VCCRTAllocator@ATL@@@ATL@@QEAA@XZ 0000000180009ca0 f i CashDrawer.obj
 0001:00008cf0       ??1?$CTempBuffer@_W$0EAA@VCCRTAllocator@ATL@@@ATL@@QEAA@XZ 0000000180009cf0 f i CashDrawer.obj
 0001:00008d40       ??1CAtlModule@ATL@@UEAA@XZ 0000000180009d40 f i CashDrawer.obj
 0001:00008d80       ??1CComAutoDeleteCriticalSection@ATL@@QEAA@XZ 0000000180009d80 f i CashDrawer.obj
 0001:00008db0       ??1CComClassFactory@ATL@@UEAA@XZ 0000000180009db0 f i CashDrawer.obj
 0001:00008e00       ??1CComModule@ATL@@UEAA@XZ 0000000180009e00 f i CashDrawer.obj
 0001:00008e40       ??1CComObjectRootBase@ATL@@QEAA@XZ 0000000180009e40 f i CashDrawer.obj
 0001:00008e50       ??1CComSafeDeleteCriticalSection@ATL@@QEAA@XZ 0000000180009e50 f i CashDrawer.obj
 0001:00008ea0       ??1CComVariant@ATL@@QEAA@XZ 0000000180009ea0 f i CashDrawer.obj
 0001:00008f20       ??1CExpansionVector@ATL@@QEAA@XZ 0000000180009f20 f i CashDrawer.obj
 0001:00008f60       ??1CParseBuffer@CRegParser@ATL@@QEAA@XZ 0000000180009f60 f i CashDrawer.obj
 0001:00008fa0       ??1CRegKey@ATL@@QEAA@XZ    0000000180009fa0 f i CashDrawer.obj
 0001:00008fd0       ??1CRegObject@ATL@@UEAA@XZ 0000000180009fd0 f i CashDrawer.obj
 0001:00009020       ??1ModuleLockHelper@ATL@@QEAA@XZ 000000018000a020 f i CashDrawer.obj
 0001:00009060       ??1OposVariant@@QEAA@XZ    000000018000a060 f i CashDrawer.obj
 0001:000090a0       ??1_ATL_MODULE70@ATL@@QEAA@XZ 000000018000a0a0 f i CashDrawer.obj
 0001:000090e0       ??4?$CComPtr@UIAdviseSink@@@ATL@@QEAAPEAUIAdviseSink@@PEAU2@@Z 000000018000a0e0 f i CashDrawer.obj
 0001:00009150       ??4?$CComPtr@UIOleClientSite@@@ATL@@QEAAPEAUIOleClientSite@@PEAU2@@Z 000000018000a150 f i CashDrawer.obj
 0001:000091c0       ??4?$CComPtr@UIUnknown@@@ATL@@QEAAPEAUIUnknown@@PEAU2@@Z 000000018000a1c0 f i CashDrawer.obj
 0001:00009230       ??4?$CComQIPtr@UIOleObject@@$1?_GUID_00000112_0000_0000_c000_000000000046@@3U__s_GUID@@B@ATL@@QEAAPEAUIOleObject@@PEAUIUnknown@@@Z 000000018000a230 f i CashDrawer.obj
 0001:00009290       ??4?$CComQIPtr@UISpecifyPropertyPages@@$1?_GUID_b196b28b_bab4_101a_b69c_00aa00341d07@@3U__s_GUID@@B@ATL@@QEAAPEAUISpecifyPropertyPages@@PEAUIUnknown@@@Z 000000018000a290 f i CashDrawer.obj
 0001:000092f0       ??7?$CComPtrBase@UIOleClientSite@@@ATL@@QEBA_NXZ 000000018000a2f0 f i CashDrawer.obj
 0001:00009340       ??7?$CComPtrBase@UIOleInPlaceSiteWindowless@@@ATL@@QEBA_NXZ 000000018000a340 f i CashDrawer.obj
 0001:00009390       ??7CComBSTR@ATL@@QEBA_NXZ  000000018000a390 f i CashDrawer.obj
 0001:000093e0       ??8?$CComPtrBase@UIAdviseSink@@@ATL@@QEBA_NPEAUIAdviseSink@@@Z 000000018000a3e0 f i CashDrawer.obj
 0001:00009430       ??8?$CComPtrBase@UIConnectionPointContainer@@@ATL@@QEBA_NPEAUIConnectionPointContainer@@@Z 000000018000a430 f i CashDrawer.obj
 0001:00009480       ??8?$CComPtrBase@UIDataAdviseHolder@@@ATL@@QEBA_NPEAUIDataAdviseHolder@@@Z 000000018000a480 f i CashDrawer.obj
 0001:000094d0       ??8?$CComPtrBase@UIOleAdviseHolder@@@ATL@@QEBA_NPEAUIOleAdviseHolder@@@Z 000000018000a4d0 f i CashDrawer.obj
 0001:00009520       ??8?$CComPtrBase@UIOleClientSite@@@ATL@@QEBA_NPEAUIOleClientSite@@@Z 000000018000a520 f i CashDrawer.obj
 0001:00009570       ??8?$CComPtrBase@UIOleControlSite@@@ATL@@QEBA_NPEAUIOleControlSite@@@Z 000000018000a570 f i CashDrawer.obj
 0001:000095c0       ??8?$CComPtrBase@UIOleInPlaceObject@@@ATL@@QEBA_NPEAUIOleInPlaceObject@@@Z 000000018000a5c0 f i CashDrawer.obj
 0001:00009610       ??8?$CComPtrBase@UIOleInPlaceSiteWindowless@@@ATL@@QEBA_NPEAUIOleInPlaceSiteWindowless@@@Z 000000018000a610 f i CashDrawer.obj
 0001:00009660       ??8?$CComPtrBase@UIOleObject@@@ATL@@QEBA_NPEAUIOleObject@@@Z 000000018000a660 f i CashDrawer.obj
 0001:000096b0       ??8?$CComPtrBase@UIPersistStream@@@ATL@@QEBA_NPEAUIPersistStream@@@Z 000000018000a6b0 f i CashDrawer.obj
 0001:00009700       ??8?$CComPtrBase@UIPersistStreamInit@@@ATL@@QEBA_NPEAUIPersistStreamInit@@@Z 000000018000a700 f i CashDrawer.obj
 0001:00009750       ??8?$CComPtrBase@UIPointerInactive@@@ATL@@QEBA_NPEAUIPointerInactive@@@Z 000000018000a750 f i CashDrawer.obj
 0001:000097a0       ??8?$CComPtrBase@UIUnknown@@@ATL@@QEBA_NPEAUIUnknown@@@Z 000000018000a7a0 f i CashDrawer.obj
 0001:000097f0       ??8?$CComPtrBase@UIViewObjectEx@@@ATL@@QEBA_NPEAUIViewObjectEx@@@Z 000000018000a7f0 f i CashDrawer.obj
 0001:00009840       ??8CComBSTR@ATL@@QEBA_NH@Z 000000018000a840 f i CashDrawer.obj
 0001:000098c0       ??9?$CComPtrBase@UIAdviseSink@@@ATL@@QEBA_NPEAUIAdviseSink@@@Z 000000018000a8c0 f i CashDrawer.obj
 0001:00009920       ??9?$CComPtrBase@UIConnectionPointContainer@@@ATL@@QEBA_NPEAUIConnectionPointContainer@@@Z 000000018000a920 f i CashDrawer.obj
 0001:00009980       ??9?$CComPtrBase@UIDataAdviseHolder@@@ATL@@QEBA_NPEAUIDataAdviseHolder@@@Z 000000018000a980 f i CashDrawer.obj
 0001:000099e0       ??9?$CComPtrBase@UIOleAdviseHolder@@@ATL@@QEBA_NPEAUIOleAdviseHolder@@@Z 000000018000a9e0 f i CashDrawer.obj
 0001:00009a40       ??9?$CComPtrBase@UIOleClientSite@@@ATL@@QEBA_NPEAUIOleClientSite@@@Z 000000018000aa40 f i CashDrawer.obj
 0001:00009aa0       ??9?$CComPtrBase@UIOleControlSite@@@ATL@@QEBA_NPEAUIOleControlSite@@@Z 000000018000aaa0 f i CashDrawer.obj
 0001:00009b00       ??9?$CComPtrBase@UIOleInPlaceObject@@@ATL@@QEBA_NPEAUIOleInPlaceObject@@@Z 000000018000ab00 f i CashDrawer.obj
 0001:00009b60       ??9?$CComPtrBase@UIOleInPlaceSiteWindowless@@@ATL@@QEBA_NPEAUIOleInPlaceSiteWindowless@@@Z 000000018000ab60 f i CashDrawer.obj
 0001:00009bc0       ??9?$CComPtrBase@UIOleObject@@@ATL@@QEBA_NPEAUIOleObject@@@Z 000000018000abc0 f i CashDrawer.obj
 0001:00009c20       ??9?$CComPtrBase@UIPersistStream@@@ATL@@QEBA_NPEAUIPersistStream@@@Z 000000018000ac20 f i CashDrawer.obj
 0001:00009c80       ??9?$CComPtrBase@UIPersistStreamInit@@@ATL@@QEBA_NPEAUIPersistStreamInit@@@Z 000000018000ac80 f i CashDrawer.obj
 0001:00009ce0       ??9?$CComPtrBase@UIPointerInactive@@@ATL@@QEBA_NPEAUIPointerInactive@@@Z 000000018000ace0 f i CashDrawer.obj
 0001:00009d40       ??9?$CComPtrBase@UIUnknown@@@ATL@@QEBA_NPEAUIUnknown@@@Z 000000018000ad40 f i CashDrawer.obj
 0001:00009da0       ??9?$CComPtrBase@UIViewObjectEx@@@ATL@@QEBA_NPEAUIViewObjectEx@@@Z 000000018000ada0 f i CashDrawer.obj
 0001:00009e00       ??9CComBSTR@ATL@@QEBA_NH@Z 000000018000ae00 f i CashDrawer.obj
 0001:00009e60       ??B?$CComPtrBase@UIAdviseSink@@@ATL@@QEBAPEAUIAdviseSink@@XZ 000000018000ae60 f i CashDrawer.obj
 0001:00009e70       ??B?$CComPtrBase@UIDataAdviseHolder@@@ATL@@QEBAPEAUIDataAdviseHolder@@XZ 000000018000ae70 f i CashDrawer.obj
 0001:00009e80       ??B?$CComPtrBase@UIDataObject@@@ATL@@QEBAPEAUIDataObject@@XZ 000000018000ae80 f i CashDrawer.obj
 0001:00009e90       ??B?$CComPtrBase@UIOleAdviseHolder@@@ATL@@QEBAPEAUIOleAdviseHolder@@XZ 000000018000ae90 f i CashDrawer.obj
 0001:00009ea0       ??B?$CComPtrBase@UIOleClientSite@@@ATL@@QEBAPEAUIOleClientSite@@XZ 000000018000aea0 f i CashDrawer.obj
 0001:00009eb0       ??B?$CComPtrBase@UIOleControlSite@@@ATL@@QEBAPEAUIOleControlSite@@XZ 000000018000aeb0 f i CashDrawer.obj
 0001:00009ec0       ??B?$CComPtrBase@UIOleInPlaceActiveObject@@@ATL@@QEBAPEAUIOleInPlaceActiveObject@@XZ 000000018000aec0 f i CashDrawer.obj
 0001:00009ed0       ??B?$CComPtrBase@UIOleInPlaceFrame@@@ATL@@QEBAPEAUIOleInPlaceFrame@@XZ 000000018000aed0 f i CashDrawer.obj
 0001:00009ee0       ??B?$CComPtrBase@UIOleInPlaceSiteWindowless@@@ATL@@QEBAPEAUIOleInPlaceSiteWindowless@@XZ 000000018000aee0 f i CashDrawer.obj
 0001:00009ef0       ??B?$CComPtrBase@UIOleInPlaceUIWindow@@@ATL@@QEBAPEAUIOleInPlaceUIWindow@@XZ 000000018000aef0 f i CashDrawer.obj
 0001:00009f00       ??B?$CComPtrBase@UIOleObject@@@ATL@@QEBAPEAUIOleObject@@XZ 000000018000af00 f i CashDrawer.obj
 0001:00009f10       ??B?$CComPtrBase@UIPersistStream@@@ATL@@QEBAPEAUIPersistStream@@XZ 000000018000af10 f i CashDrawer.obj
 0001:00009f20       ??B?$CComPtrBase@UIProvideClassInfo2@@@ATL@@QEBAPEAUIProvideClassInfo2@@XZ 000000018000af20 f i CashDrawer.obj
 0001:00009f30       ??B?$CComPtrBase@UISpecifyPropertyPages@@@ATL@@QEBAPEAUISpecifyPropertyPages@@XZ 000000018000af30 f i CashDrawer.obj
 0001:00009f40       ??B?$CComPtrBase@UIStream@@@ATL@@QEBAPEAUIStream@@XZ 000000018000af40 f i CashDrawer.obj
 0001:00009f50       ??B?$CComPtrBase@UITypeInfo2@@@ATL@@QEBAPEAUITypeInfo2@@XZ 000000018000af50 f i CashDrawer.obj
 0001:00009f60       ??B?$CComPtrBase@UITypeInfo@@@ATL@@QEBAPEAUITypeInfo@@XZ 000000018000af60 f i CashDrawer.obj
 0001:00009f70       ??B?$CComPtrBase@UITypeLib@@@ATL@@QEBAPEAUITypeLib@@XZ 000000018000af70 f i CashDrawer.obj
 0001:00009f80       ??B?$CComPtrBase@UIUnknown@@@ATL@@QEBAPEAUIUnknown@@XZ 000000018000af80 f i CashDrawer.obj
 0001:00009f90       ??B?$CTempBuffer@E$0BAA@VCCRTAllocator@ATL@@@ATL@@QEBAPEAEXZ 000000018000af90 f i CashDrawer.obj
 0001:00009fa0       ??B?$CTempBuffer@_W$0BAA@VCCRTAllocator@ATL@@@ATL@@QEBAPEA_WXZ 000000018000afa0 f i CashDrawer.obj
 0001:00009fb0       ??B?$CTempBuffer@_W$0EAA@VCCRTAllocator@ATL@@@ATL@@QEBAPEA_WXZ 000000018000afb0 f i CashDrawer.obj
 0001:00009fc0       ??B?$CTraceCategoryEx@$00$0A@@ATL@@QEAAIXZ 000000018000afc0 f i CashDrawer.obj
 0001:00009fd0       ??B?$CTraceCategoryEx@$07$0A@@ATL@@QEAAIXZ 000000018000afd0 f i CashDrawer.obj
 0001:00009fe0       ??B?$CTraceCategoryEx@$0CAAA@$0A@@ATL@@QEAAIXZ 000000018000afe0 f i CashDrawer.obj
 0001:00009ff0       ??B?$CTraceCategoryEx@$0EA@$0A@@ATL@@QEAAIXZ 000000018000aff0 f i CashDrawer.obj
 0001:0000a000       ??B?$CTraceCategoryEx@$0IAA@$0A@@ATL@@QEAAIXZ 000000018000b000 f i CashDrawer.obj
 0001:0000a010       ??BCComBSTR@ATL@@QEBAPEA_WXZ 000000018000b010 f i CashDrawer.obj
 0001:0000a020       ??BCRegKey@ATL@@QEBAPEAUHKEY__@@XZ 000000018000b020 f i CashDrawer.obj
 0001:0000a030       ??C?$CComPtrBase@UIAdviseSink@@@ATL@@QEBAPEAV?$_NoAddRefReleaseOnCComPtr@UIAdviseSink@@@1@XZ 000000018000b030 f i CashDrawer.obj
 0001:0000a0b0       ??C?$CComPtrBase@UICatRegister@@@ATL@@QEBAPEAV?$_NoAddRefReleaseOnCComPtr@UICatRegister@@@1@XZ 000000018000b0b0 f i CashDrawer.obj
 0001:0000a130       ??C?$CComPtrBase@UIConnectionPoint@@@ATL@@QEBAPEAV?$_NoAddRefReleaseOnCComPtr@UIConnectionPoint@@@1@XZ 000000018000b130 f i CashDrawer.obj
 0001:0000a1b0       ??C?$CComPtrBase@UIConnectionPointContainer@@@ATL@@QEBAPEAV?$_NoAddRefReleaseOnCComPtr@UIConnectionPointContainer@@@1@XZ 000000018000b1b0 f i CashDrawer.obj
 0001:0000a230       ??C?$CComPtrBase@UIDataAdviseHolder@@@ATL@@QEBAPEAV?$_NoAddRefReleaseOnCComPtr@UIDataAdviseHolder@@@1@XZ 000000018000b230 f i CashDrawer.obj
 0001:0000a2b0       ??C?$CComPtrBase@UIOleAdviseHolder@@@ATL@@QEBAPEAV?$_NoAddRefReleaseOnCComPtr@UIOleAdviseHolder@@@1@XZ 000000018000b2b0 f i CashDrawer.obj
 0001:0000a330       ??C?$CComPtrBase@UIOleClientSite@@@ATL@@QEBAPEAV?$_NoAddRefReleaseOnCComPtr@UIOleClientSite@@@1@XZ 000000018000b330 f i CashDrawer.obj
 0001:0000a3b0       ??C?$CComPtrBase@UIOleControlSite@@@ATL@@QEBAPEAV?$_NoAddRefReleaseOnCComPtr@UIOleControlSite@@@1@XZ 000000018000b3b0 f i CashDrawer.obj
 0001:0000a430       ??C?$CComPtrBase@UIOleInPlaceFrame@@@ATL@@QEBAPEAV?$_NoAddRefReleaseOnCComPtr@UIOleInPlaceFrame@@@1@XZ 000000018000b430 f i CashDrawer.obj
 0001:0000a4b0       ??C?$CComPtrBase@UIOleInPlaceObject@@@ATL@@QEBAPEAV?$_NoAddRefReleaseOnCComPtr@UIOleInPlaceObject@@@1@XZ 000000018000b4b0 f i CashDrawer.obj
 0001:0000a530       ??C?$CComPtrBase@UIOleInPlaceSiteWindowless@@@ATL@@QEBAPEAV?$_NoAddRefReleaseOnCComPtr@UIOleInPlaceSiteWindowless@@@1@XZ 000000018000b530 f i CashDrawer.obj
 0001:0000a5b0       ??C?$CComPtrBase@UIOleInPlaceUIWindow@@@ATL@@QEBAPEAV?$_NoAddRefReleaseOnCComPtr@UIOleInPlaceUIWindow@@@1@XZ 000000018000b5b0 f i CashDrawer.obj
 0001:0000a630       ??C?$CComPtrBase@UIOleObject@@@ATL@@QEBAPEAV?$_NoAddRefReleaseOnCComPtr@UIOleObject@@@1@XZ 000000018000b630 f i CashDrawer.obj
 0001:0000a6b0       ??C?$CComPtrBase@UIPersistStream@@@ATL@@QEBAPEAV?$_NoAddRefReleaseOnCComPtr@UIPersistStream@@@1@XZ 000000018000b6b0 f i CashDrawer.obj
 0001:0000a730       ??C?$CComPtrBase@UIPersistStreamInit@@@ATL@@QEBAPEAV?$_NoAddRefReleaseOnCComPtr@UIPersistStreamInit@@@1@XZ 000000018000b730 f i CashDrawer.obj
 0001:0000a7b0       ??C?$CComPtrBase@UIPointerInactive@@@ATL@@QEBAPEAV?$_NoAddRefReleaseOnCComPtr@UIPointerInactive@@@1@XZ 000000018000b7b0 f i CashDrawer.obj
 0001:0000a830       ??C?$CComPtrBase@UIProvideClassInfo2@@@ATL@@QEBAPEAV?$_NoAddRefReleaseOnCComPtr@UIProvideClassInfo2@@@1@XZ 000000018000b830 f i CashDrawer.obj
 0001:0000a8b0       ??C?$CComPtrBase@UISpecifyPropertyPages@@@ATL@@QEBAPEAV?$_NoAddRefReleaseOnCComPtr@UISpecifyPropertyPages@@@1@XZ 000000018000b8b0 f i CashDrawer.obj
 0001:0000a930       ??C?$CComPtrBase@UITypeInfo@@@ATL@@QEBAPEAV?$_NoAddRefReleaseOnCComPtr@UITypeInfo@@@1@XZ 000000018000b930 f i CashDrawer.obj
 0001:0000a9b0       ??C?$CComPtrBase@UITypeLib@@@ATL@@QEBAPEAV?$_NoAddRefReleaseOnCComPtr@UITypeLib@@@1@XZ 000000018000b9b0 f i CashDrawer.obj
 0001:0000aa30       ??C?$CComPtrBase@UIUnknown@@@ATL@@QEBAPEAV?$_NoAddRefReleaseOnCComPtr@UIUnknown@@@1@XZ 000000018000ba30 f i CashDrawer.obj
 0001:0000aab0       ??C?$CComPtrBase@UIViewObjectEx@@@ATL@@QEBAPEAV?$_NoAddRefReleaseOnCComPtr@UIViewObjectEx@@@1@XZ 000000018000bab0 f i CashDrawer.obj
 0001:0000ab30       ??I?$CComPtrBase@UICatRegister@@@ATL@@QEAAPEAPEAUICatRegister@@XZ 000000018000bb30 f i CashDrawer.obj
 0001:0000aba0       ??I?$CComPtrBase@UIConnectionPoint@@@ATL@@QEAAPEAPEAUIConnectionPoint@@XZ 000000018000bba0 f i CashDrawer.obj
 0001:0000ac10       ??I?$CComPtrBase@UIConnectionPointContainer@@@ATL@@QEAAPEAPEAUIConnectionPointContainer@@XZ 000000018000bc10 f i CashDrawer.obj
 0001:0000ac80       ??I?$CComPtrBase@UIDataAdviseHolder@@@ATL@@QEAAPEAPEAUIDataAdviseHolder@@XZ 000000018000bc80 f i CashDrawer.obj
 0001:0000acf0       ??I?$CComPtrBase@UIDataObject@@@ATL@@QEAAPEAPEAUIDataObject@@XZ 000000018000bcf0 f i CashDrawer.obj
 0001:0000ad60       ??I?$CComPtrBase@UIDispatch@@@ATL@@QEAAPEAPEAUIDispatch@@XZ 000000018000bd60 f i CashDrawer.obj
 0001:0000add0       ??I?$CComPtrBase@UIOleAdviseHolder@@@ATL@@QEAAPEAPEAUIOleAdviseHolder@@XZ 000000018000bdd0 f i CashDrawer.obj
 0001:0000ae40       ??I?$CComPtrBase@UIOleControlSite@@@ATL@@QEAAPEAPEAUIOleControlSite@@XZ 000000018000be40 f i CashDrawer.obj
 0001:0000aeb0       ??I?$CComPtrBase@UIOleInPlaceActiveObject@@@ATL@@QEAAPEAPEAUIOleInPlaceActiveObject@@XZ 000000018000beb0 f i CashDrawer.obj
 0001:0000af20       ??I?$CComPtrBase@UIOleInPlaceFrame@@@ATL@@QEAAPEAPEAUIOleInPlaceFrame@@XZ 000000018000bf20 f i CashDrawer.obj
 0001:0000af90       ??I?$CComPtrBase@UIOleInPlaceObject@@@ATL@@QEAAPEAPEAUIOleInPlaceObject@@XZ 000000018000bf90 f i CashDrawer.obj
 0001:0000b000       ??I?$CComPtrBase@UIOleInPlaceSiteWindowless@@@ATL@@QEAAPEAPEAUIOleInPlaceSiteWindowless@@XZ 000000018000c000 f i CashDrawer.obj
 0001:0000b070       ??I?$CComPtrBase@UIOleInPlaceUIWindow@@@ATL@@QEAAPEAPEAUIOleInPlaceUIWindow@@XZ 000000018000c070 f i CashDrawer.obj
 0001:0000b0e0       ??I?$CComPtrBase@UIOleObject@@@ATL@@QEAAPEAPEAUIOleObject@@XZ 000000018000c0e0 f i CashDrawer.obj
 0001:0000b150       ??I?$CComPtrBase@UIPersistStream@@@ATL@@QEAAPEAPEAUIPersistStream@@XZ 000000018000c150 f i CashDrawer.obj
 0001:0000b1c0       ??I?$CComPtrBase@UIPointerInactive@@@ATL@@QEAAPEAPEAUIPointerInactive@@XZ 000000018000c1c0 f i CashDrawer.obj
 0001:0000b230       ??I?$CComPtrBase@UIProvideClassInfo2@@@ATL@@QEAAPEAPEAUIProvideClassInfo2@@XZ 000000018000c230 f i CashDrawer.obj
 0001:0000b2a0       ??I?$CComPtrBase@UIStream@@@ATL@@QEAAPEAPEAUIStream@@XZ 000000018000c2a0 f i CashDrawer.obj
 0001:0000b310       ??I?$CComPtrBase@UITypeInfo2@@@ATL@@QEAAPEAPEAUITypeInfo2@@XZ 000000018000c310 f i CashDrawer.obj
 0001:0000b380       ??I?$CComPtrBase@UITypeInfo@@@ATL@@QEAAPEAPEAUITypeInfo@@XZ 000000018000c380 f i CashDrawer.obj
 0001:0000b3f0       ??I?$CComPtrBase@UITypeLib@@@ATL@@QEAAPEAPEAUITypeLib@@XZ 000000018000c3f0 f i CashDrawer.obj
 0001:0000b460       ??I?$CComPtrBase@UIUnknown@@@ATL@@QEAAPEAPEAUIUnknown@@XZ 000000018000c460 f i CashDrawer.obj
 0001:0000b4d0       ??I?$CComPtrBase@UIViewObjectEx@@@ATL@@QEAAPEAPEAUIViewObjectEx@@XZ 000000018000c4d0 f i CashDrawer.obj
 0001:0000b540       ??ICComBSTR@ATL@@QEAAPEAPEA_WXZ 000000018000c540 f i CashDrawer.obj
 0001:0000b550       ??_E?$CComContainedObject@VCOPOSCashDrawer@@@ATL@@W7EAAPEAXI@Z 000000018000c550 f i CashDrawer.obj
 0001:0000b55c       ??_E?$CComContainedObject@VCOPOSCashDrawer@@@ATL@@WHA@EAAPEAXI@Z 000000018000c55c f i CashDrawer.obj
 0001:0000b568       ??_E?$CComObject@VCOPOSCashDrawer@@@ATL@@W7EAAPEAXI@Z 000000018000c568 f i CashDrawer.obj
 0001:0000b574       ??_E?$CComObject@VCOPOSCashDrawer@@@ATL@@WHA@EAAPEAXI@Z 000000018000c574 f i CashDrawer.obj
 0001:0000b580       ??_G?$CComAggObject@VCOPOSCashDrawer@@@ATL@@UEAAPEAXI@Z 000000018000c580 f i CashDrawer.obj
 0001:0000b580       ??_E?$CComAggObject@VCOPOSCashDrawer@@@ATL@@UEAAPEAXI@Z 000000018000c580 f i CashDrawer.obj
 0001:0000b5e0       ??_G?$CComContainedObject@VCOPOSCashDrawer@@@ATL@@UEAAPEAXI@Z 000000018000c5e0 f i CashDrawer.obj
 0001:0000b5e0       ??_E?$CComContainedObject@VCOPOSCashDrawer@@@ATL@@UEAAPEAXI@Z 000000018000c5e0 f i CashDrawer.obj
 0001:0000b640       ??_E?$CComObject@V?$CComEnum@UIEnumConnectionPoints@@$1?_GUID_b196b285_bab4_101a_b69c_00aa00341d07@@3U__s_GUID@@BPEAUIConnectionPoint@@V?$_CopyInterface@UIConnectionPoint@@@ATL@@VCComSingleThreadModel@6@@ATL@@@ATL@@UEAAPEAXI@Z 000000018000c640 f i CashDrawer.obj
 0001:0000b640       ??_G?$CComObject@V?$CComEnum@UIEnumConnectionPoints@@$1?_GUID_b196b285_bab4_101a_b69c_00aa00341d07@@3U__s_GUID@@BPEAUIConnectionPoint@@V?$_CopyInterface@UIConnectionPoint@@@ATL@@VCComSingleThreadModel@6@@ATL@@@ATL@@UEAAPEAXI@Z 000000018000c640 f i CashDrawer.obj
 0001:0000b6a0       ??_G?$CComObject@V?$CComEnum@UIEnumConnections@@$1?_GUID_b196b287_bab4_101a_b69c_00aa00341d07@@3U__s_GUID@@BUtagCONNECTDATA@@V?$_Copy@UtagCONNECTDATA@@@ATL@@VCComSingleThreadModel@6@@ATL@@@ATL@@UEAAPEAXI@Z 000000018000c6a0 f i CashDrawer.obj
 0001:0000b6a0       ??_E?$CComObject@V?$CComEnum@UIEnumConnections@@$1?_GUID_b196b287_bab4_101a_b69c_00aa00341d07@@3U__s_GUID@@BUtagCONNECTDATA@@V?$_Copy@UtagCONNECTDATA@@@ATL@@VCComSingleThreadModel@6@@ATL@@@ATL@@UEAAPEAXI@Z 000000018000c6a0 f i CashDrawer.obj
 0001:0000b700       ??_G?$CComObject@VCOPOSCashDrawer@@@ATL@@UEAAPEAXI@Z 000000018000c700 f i CashDrawer.obj
 0001:0000b700       ??_E?$CComObject@VCOPOSCashDrawer@@@ATL@@UEAAPEAXI@Z 000000018000c700 f i CashDrawer.obj
 0001:0000b760       ??_G?$CComObjectCached@VCComClassFactory@ATL@@@ATL@@UEAAPEAXI@Z 000000018000c760 f i CashDrawer.obj
 0001:0000b760       ??_E?$CComObjectCached@VCComClassFactory@ATL@@@ATL@@UEAAPEAXI@Z 000000018000c760 f i CashDrawer.obj
 0001:0000b7c0       ??_GCComClassFactory@ATL@@UEAAPEAXI@Z 000000018000c7c0 f i CashDrawer.obj
 0001:0000b7c0       ??_ECComClassFactory@ATL@@UEAAPEAXI@Z 000000018000c7c0 f i CashDrawer.obj
 0001:0000b820       ??_GCComModule@ATL@@UEAAPEAXI@Z 000000018000c820 f i CashDrawer.obj
 0001:0000b820       ??_ECComModule@ATL@@UEAAPEAXI@Z 000000018000c820 f i CashDrawer.obj
 0001:0000b880       ??_GCRegObject@ATL@@UEAAPEAXI@Z 000000018000c880 f i CashDrawer.obj
 0001:0000b880       ??_ECRegObject@ATL@@UEAAPEAXI@Z 000000018000c880 f i CashDrawer.obj
 0001:0000b8e0       ?Add@?$CSimpleArray@GV?$CSimpleArrayEqualHelper@G@ATL@@@ATL@@QEAAHAEBG@Z 000000018000c8e0 f i CashDrawer.obj
 0001:0000ba80       ?Add@?$CSimpleMap@PEA_WPEA_WVCExpansionVectorEqualHelper@ATL@@@ATL@@QEAAHAEBQEA_W0@Z 000000018000ca80 f i CashDrawer.obj
 0001:0000bb70       ?Add@CComDynamicUnkArray@ATL@@QEAAKPEAUIUnknown@@@Z 000000018000cb70 f i CashDrawer.obj
 0001:0000bd50       ?Add@CExpansionVector@ATL@@QEAAHPEB_W0@Z 000000018000cd50 f i CashDrawer.obj
 0001:0000c080       ?AddChar@CParseBuffer@CRegParser@ATL@@QEAAHPEB_W@Z 000000018000d080 f i CashDrawer.obj
 0001:0000c0d0       ?AddCommonRGSReplacements@?$CAtlModuleT@VCComModule@ATL@@@ATL@@UEAAJPEAUIRegistrarBase@@@Z 000000018000d0d0 f i CashDrawer.obj
 0001:0000c130       ?AddCreateWndData@CAtlWinModule@ATL@@QEAAXPEAU_AtlCreateWndData@2@PEAX@Z 000000018000d130 f i CashDrawer.obj
 0001:0000c180       ?AddRef@?$CComAggObject@VCOPOSCashDrawer@@@ATL@@UEAAKXZ 000000018000d180 f i CashDrawer.obj
 0001:0000c1c0       ?AddRef@?$CComContainedObject@VCOPOSCashDrawer@@@ATL@@UEAAKXZ 000000018000d1c0 f i CashDrawer.obj
 0001:0000c1f8       ?AddRef@?$CComContainedObject@VCOPOSCashDrawer@@@ATL@@WBAA@EAAKXZ 000000018000d1f8 f i CashDrawer.obj
 0001:0000c204       ?AddRef@?$CComContainedObject@VCOPOSCashDrawer@@@ATL@@WBAI@EAAKXZ 000000018000d204 f i CashDrawer.obj
 0001:0000c210       ?AddRef@?$CComContainedObject@VCOPOSCashDrawer@@@ATL@@WBBA@EAAKXZ 000000018000d210 f i CashDrawer.obj
 0001:0000c21c       ?AddRef@?$CComContainedObject@VCOPOSCashDrawer@@@ATL@@WBBI@EAAKXZ 000000018000d21c f i CashDrawer.obj
 0001:0000c228       ?AddRef@?$CComContainedObject@VCOPOSCashDrawer@@@ATL@@WBCI@EAAKXZ 000000018000d228 f i CashDrawer.obj
 0001:0000c234       ?AddRef@?$CComContainedObject@VCOPOSCashDrawer@@@ATL@@WBEA@EAAKXZ 000000018000d234 f i CashDrawer.obj
 0001:0000c240       ?AddRef@?$CComContainedObject@VCOPOSCashDrawer@@@ATL@@WLI@EAAKXZ 000000018000d240 f i CashDrawer.obj
 0001:0000c24c       ?AddRef@?$CComContainedObject@VCOPOSCashDrawer@@@ATL@@WMA@EAAKXZ 000000018000d24c f i CashDrawer.obj
 0001:0000c258       ?AddRef@?$CComContainedObject@VCOPOSCashDrawer@@@ATL@@WMI@EAAKXZ 000000018000d258 f i CashDrawer.obj
 0001:0000c264       ?AddRef@?$CComContainedObject@VCOPOSCashDrawer@@@ATL@@WNA@EAAKXZ 000000018000d264 f i CashDrawer.obj
 0001:0000c270       ?AddRef@?$CComContainedObject@VCOPOSCashDrawer@@@ATL@@WNI@EAAKXZ 000000018000d270 f i CashDrawer.obj
 0001:0000c27c       ?AddRef@?$CComContainedObject@VCOPOSCashDrawer@@@ATL@@WOA@EAAKXZ 000000018000d27c f i CashDrawer.obj
 0001:0000c288       ?AddRef@?$CComContainedObject@VCOPOSCashDrawer@@@ATL@@WOI@EAAKXZ 000000018000d288 f i CashDrawer.obj
 0001:0000c294       ?AddRef@?$CComContainedObject@VCOPOSCashDrawer@@@ATL@@WPA@EAAKXZ 000000018000d294 f i CashDrawer.obj
 0001:0000c2a0       ?AddRef@?$CComContainedObject@VCOPOSCashDrawer@@@ATL@@WPI@EAAKXZ 000000018000d2a0 f i CashDrawer.obj
 0001:0000c2b0       ?AddRef@?$CComObject@V?$CComEnum@UIEnumConnectionPoints@@$1?_GUID_b196b285_bab4_101a_b69c_00aa00341d07@@3U__s_GUID@@BPEAUIConnectionPoint@@V?$_CopyInterface@UIConnectionPoint@@@ATL@@VCComSingleThreadModel@6@@ATL@@@ATL@@UEAAKXZ 000000018000d2b0 f i CashDrawer.obj
 0001:0000c2f0       ?AddRef@?$CComObject@V?$CComEnum@UIEnumConnections@@$1?_GUID_b196b287_bab4_101a_b69c_00aa00341d07@@3U__s_GUID@@BUtagCONNECTDATA@@V?$_Copy@UtagCONNECTDATA@@@ATL@@VCComSingleThreadModel@6@@ATL@@@ATL@@UEAAKXZ 000000018000d2f0 f i CashDrawer.obj
 0001:0000c330       ?AddRef@?$CComObject@VCOPOSCashDrawer@@@ATL@@UEAAKXZ 000000018000d330 f i CashDrawer.obj
 0001:0000c368       ?AddRef@?$CComObject@VCOPOSCashDrawer@@@ATL@@WBAA@EAAKXZ 000000018000d368 f i CashDrawer.obj
 0001:0000c374       ?AddRef@?$CComObject@VCOPOSCashDrawer@@@ATL@@WBAI@EAAKXZ 000000018000d374 f i CashDrawer.obj
 0001:0000c380       ?AddRef@?$CComObject@VCOPOSCashDrawer@@@ATL@@WBBA@EAAKXZ 000000018000d380 f i CashDrawer.obj
 0001:0000c38c       ?AddRef@?$CComObject@VCOPOSCashDrawer@@@ATL@@WBBI@EAAKXZ 000000018000d38c f i CashDrawer.obj
 0001:0000c398       ?AddRef@?$CComObject@VCOPOSCashDrawer@@@ATL@@WBCI@EAAKXZ 000000018000d398 f i CashDrawer.obj
 0001:0000c3a4       ?AddRef@?$CComObject@VCOPOSCashDrawer@@@ATL@@WBEA@EAAKXZ 000000018000d3a4 f i CashDrawer.obj
 0001:0000c3b0       ?AddRef@?$CComObject@VCOPOSCashDrawer@@@ATL@@WLI@EAAKXZ 000000018000d3b0 f i CashDrawer.obj
 0001:0000c3bc       ?AddRef@?$CComObject@VCOPOSCashDrawer@@@ATL@@WMA@EAAKXZ 000000018000d3bc f i CashDrawer.obj
 0001:0000c3c8       ?AddRef@?$CComObject@VCOPOSCashDrawer@@@ATL@@WMI@EAAKXZ 000000018000d3c8 f i CashDrawer.obj
 0001:0000c3d4       ?AddRef@?$CComObject@VCOPOSCashDrawer@@@ATL@@WNA@EAAKXZ 000000018000d3d4 f i CashDrawer.obj
 0001:0000c3e0       ?AddRef@?$CComObject@VCOPOSCashDrawer@@@ATL@@WNI@EAAKXZ 000000018000d3e0 f i CashDrawer.obj
 0001:0000c3ec       ?AddRef@?$CComObject@VCOPOSCashDrawer@@@ATL@@WOA@EAAKXZ 000000018000d3ec f i CashDrawer.obj
 0001:0000c3f8       ?AddRef@?$CComObject@VCOPOSCashDrawer@@@ATL@@WOI@EAAKXZ 000000018000d3f8 f i CashDrawer.obj
 0001:0000c404       ?AddRef@?$CComObject@VCOPOSCashDrawer@@@ATL@@WPA@EAAKXZ 000000018000d404 f i CashDrawer.obj
 0001:0000c410       ?AddRef@?$CComObject@VCOPOSCashDrawer@@@ATL@@WPI@EAAKXZ 000000018000d410 f i CashDrawer.obj
 0001:0000c420       ?AddRef@?$CComObjectCached@VCComClassFactory@ATL@@@ATL@@UEAAKXZ 000000018000d420 f i CashDrawer.obj
 0001:0000c480       ?AddRef@CRegObject@ATL@@UEAAKXZ 000000018000d480 f i CashDrawer.obj
 0001:0000c4f0       ?AddReplacement@CRegObject@ATL@@UEAAJPEB_W0@Z 000000018000d4f0 f i CashDrawer.obj
 0001:0000c620       ?AddString@CParseBuffer@CRegParser@ATL@@QEAAHPEB_W@Z 000000018000d620 f i CashDrawer.obj
 0001:0000c710       ?AddTermFunc@CAtlModule@ATL@@QEAAJP6AX_K@Z0@Z 000000018000d710 f i CashDrawer.obj
 0001:0000c780       ?AddValue@CRegParser@ATL@@IEAAJAEAVCRegKey@2@PEB_WPEA_W@Z 000000018000d780 f i CashDrawer.obj
 0001:0000d050       ?Advise@?$CProxy_IOPOSEvents@VCOPOSCashDrawer@@@@UEAAJPEAUIUnknown@@PEAK@Z 000000018000e050 f i CashDrawer.obj
 0001:0000d0c0       ?Advise@?$IConnectionPointImpl@VCOPOSCashDrawer@@$1?DIID__IOPOSCashDrawerEvents@@3U_GUID@@BVCComDynamicUnkArray@ATL@@@ATL@@UEAAJPEAUIUnknown@@PEAK@Z 000000018000e0c0 f i CashDrawer.obj
 0001:0000d2c0       ?Advise@?$IConnectionPointImpl@VCOPOSCashDrawer@@$1?IID_IPropertyNotifySink@@3U_GUID@@BVCComDynamicUnkArray@ATL@@@ATL@@UEAAJPEAUIUnknown@@PEAK@Z 000000018000e2c0 f i CashDrawer.obj
 0001:0000d4c0       ?Advise@?$IOleObjectImpl@VCOPOSCashDrawer@@@ATL@@UEAAJPEAUIAdviseSink@@PEAK@Z 000000018000e4c0 f i CashDrawer.obj
 0001:0000d580       ?Allocate@?$CAtlSafeAllocBufferManager@VCCRTAllocator@ATL@@@_ATL_SAFE_ALLOCA_IMPL@ATL@@QEAAPEAX_K@Z 000000018000e580 f i CashDrawer.obj
 0001:0000d600       ?Allocate@?$CTempBuffer@E$0BAA@VCCRTAllocator@ATL@@@ATL@@QEAAPEAE_K@Z 000000018000e600 f i CashDrawer.obj
 0001:0000d650       ?Allocate@?$CTempBuffer@_W$0BAA@VCCRTAllocator@ATL@@@ATL@@QEAAPEA_W_K@Z 000000018000e650 f i CashDrawer.obj
 0001:0000d6a0       ?Allocate@?$CTempBuffer@_W$0EAA@VCCRTAllocator@ATL@@@ATL@@QEAAPEA_W_K@Z 000000018000e6a0 f i CashDrawer.obj
 0001:0000d6f0       ?AllocateBytes@?$CTempBuffer@E$0BAA@VCCRTAllocator@ATL@@@ATL@@QEAAPEAE_K@Z 000000018000e6f0 f i CashDrawer.obj
 0001:0000d7a0       ?AllocateBytes@?$CTempBuffer@_W$0BAA@VCCRTAllocator@ATL@@@ATL@@QEAAPEA_W_K@Z 000000018000e7a0 f i CashDrawer.obj
 0001:0000d850       ?AllocateBytes@?$CTempBuffer@_W$0EAA@VCCRTAllocator@ATL@@@ATL@@QEAAPEA_W_K@Z 000000018000e850 f i CashDrawer.obj
 0001:0000d900       ?AllocateHeap@?$CTempBuffer@E$0BAA@VCCRTAllocator@ATL@@@ATL@@AEAAX_K@Z 000000018000e900 f i CashDrawer.obj
 0001:0000d960       ?AllocateHeap@?$CTempBuffer@_W$0BAA@VCCRTAllocator@ATL@@@ATL@@AEAAX_K@Z 000000018000e960 f i CashDrawer.obj
 0001:0000d9c0       ?AllocateHeap@?$CTempBuffer@_W$0EAA@VCCRTAllocator@ATL@@@ATL@@AEAAX_K@Z 000000018000e9c0 f i CashDrawer.obj
 0001:0000da20       ?Append@CParseBuffer@CRegParser@ATL@@QEAAHPEB_WH@Z 000000018000ea20 f i CashDrawer.obj
 0001:0000dc50       ?AtlCallTermFunc@ATL@@YAXPEAU_ATL_MODULE70@1@@Z 000000018000ec50 f i CashDrawer.obj
 0001:0000dd00       ?AtlCoTaskMemCAlloc@ATL@@YAPEAXKK@Z 000000018000ed00 f i CashDrawer.obj
 0001:0000dd80       ?AtlCoTaskMemRecalloc@ATL@@YAPEAXPEAXKK@Z 000000018000ed80 f i CashDrawer.obj
 0001:0000de00       ?AtlComModuleGetClassObject@ATL@@YAJPEAU_ATL_COM_MODULE70@1@AEBU_GUID@@1PEAPEAX@Z 000000018000ee00 f i CashDrawer.obj
 0001:0000e130       ?AtlComModuleRegisterServer@ATL@@YAJPEAU_ATL_COM_MODULE70@1@HPEBU_GUID@@@Z 000000018000f130 f i CashDrawer.obj
 0001:0000e330       ?AtlComModuleUnregisterServer@ATL@@YAJPEAU_ATL_COM_MODULE70@1@HPEBU_GUID@@@Z 000000018000f330 f i CashDrawer.obj
 0001:0000e490       ?AtlComQIPtrAssign2@ATL@@YAXPEAPEAUIUnknown@@PEAU2@AEBU_GUID@@@Z 000000018000f490 f i CashDrawer.obj
 0001:0000e520       ?AtlCreateTargetDC@ATL@@YAPEAUHDC__@@PEAU2@PEAUtagDVTARGETDEVICE@@@Z 000000018000f520 f i CashDrawer.obj
 0001:0000e750       ?AtlCrtErrorCheck@ATL@@YAHH@Z 000000018000f750 f i CashDrawer.obj
 0001:0000e7d0       ?AtlGetPerUserRegistration@ATL@@YAJPEA_N@Z 000000018000f7d0 f i CashDrawer.obj
 0001:0000e800       ?AtlHiMetricToPixel@ATL@@YAXPEBUtagSIZE@@PEAU2@@Z 000000018000f800 f i CashDrawer.obj
 0001:0000ea00       ?AtlHresultFromLastError@ATL@@YAJXZ 000000018000fa00 f i CashDrawer.obj
 0001:0000ea30       ?AtlHresultFromWin32@ATL@@YAJK@Z 000000018000fa30 f i CashDrawer.obj
 0001:0000ea60       ?AtlIPersistStreamInit_Load@ATL@@YAJPEAUIStream@@PEBUATL_PROPMAP_ENTRY@1@PEAXPEAUIUnknown@@@Z 000000018000fa60 f i CashDrawer.obj
 0001:0000f0d0       ?AtlIPersistStreamInit_Save@ATL@@YAJPEAUIStream@@HPEBUATL_PROPMAP_ENTRY@1@PEAXPEAUIUnknown@@@Z 00000001800100d0 f i CashDrawer.obj
 0001:0000f660       ?AtlInternalOleLoadFromStream@ATL@@YAJPEAUIStream@@AEBU_GUID@@PEAPEAXTClassesAllowedInStream@1@K@Z 0000000180010660 f i CashDrawer.obj
 0001:0000f9a0       ?AtlInternalQueryInterface@ATL@@YAJPEAXPEBU_ATL_INTMAP_ENTRY@1@AEBU_GUID@@PEAPEAX@Z 00000001800109a0 f i CashDrawer.obj
 0001:0000fc60       ?AtlLoadTypeLib@ATL@@YAJPEAUHINSTANCE__@@PEB_WPEAPEA_WPEAPEAUITypeLib@@@Z 0000000180010c60 f i CashDrawer.obj
 0001:00010130       ?AtlModuleAddTermFunc@ATL@@YAJPEAU_ATL_MODULE70@1@P6AX_K@Z1@Z 0000000180011130 f i CashDrawer.obj
 0001:00010300       ?AtlRegisterClassCategoriesHelper@ATL@@YAJAEBU_GUID@@PEBU_ATL_CATMAP_ENTRY@1@H@Z 0000000180011300 f i CashDrawer.obj
 0001:00010ad0       ?AtlRegisterTypeLib@ATL@@YAJPEAUHINSTANCE__@@PEB_W@Z 0000000180011ad0 f i CashDrawer.obj
 0001:00010e30       ?AtlThrowImpl@ATL@@YAXJ@Z  0000000180011e30 f i CashDrawer.obj
 0001:00010f10       ?AtlUnRegisterTypeLib@ATL@@YAJPEAUHINSTANCE__@@PEB_W@Z 0000000180011f10 f i CashDrawer.obj
 0001:00011140       ?AtlWinModuleAddCreateWndData@ATL@@YAXPEAU_ATL_WIN_MODULE70@1@PEAU_AtlCreateWndData@1@PEAX@Z 0000000180012140 f i CashDrawer.obj
 0001:00011330       ?AtlWinModuleExtractCreateWndData@ATL@@YAPEAXPEAU_ATL_WIN_MODULE70@1@@Z 0000000180012330 f i CashDrawer.obj
 0001:00011530       ?AtlWinModuleRegisterClassExW@ATL@@YAGPEAU_ATL_WIN_MODULE70@1@PEBUtagWNDCLASSEXW@@@Z 0000000180012530 f i CashDrawer.obj
 0001:00011600       ?AtlWinModuleRegisterWndClassInfoW@ATL@@YAGPEAU_ATL_WIN_MODULE70@1@PEAU_ATL_BASE_MODULE70@1@PEAU_ATL_WNDCLASSINFOW@1@PEAP6A_JPEAUHWND__@@I_K_J@Z@Z 0000000180012600 f i CashDrawer.obj
 0001:00011670       ?Attach@?$CAutoVectorPtr@_W@ATL@@QEAAXPEA_W@Z 0000000180012670 f i CashDrawer.obj
 0001:00011700       ?Attach@CComBSTR@ATL@@QEAAXPEA_W@Z 0000000180012700 f i CashDrawer.obj
 0001:00011760       ?Attach@CRegKey@ATL@@QEAAXPEAUHKEY__@@@Z 0000000180012760 f i CashDrawer.obj
 0001:00011800       ?CanForceRemoveKey@CRegParser@ATL@@IEAAHPEB_W@Z 0000000180012800 f i CashDrawer.obj
 0001:00011870       ?ChToByte@CRegParser@ATL@@KAE_W@Z 0000000180012870 f i CashDrawer.obj
 0001:000119d0       ?ChangeType@CComVariant@ATL@@QEAAJGPEBUtagVARIANT@@@Z 00000001800129d0 f i CashDrawer.obj
 0001:00011a40       ?Cleanup@CComTypeInfoHolder@ATL@@SAX_K@Z 0000000180012a40 f i CashDrawer.obj
 0001:00011b40       ?Clear@CComVariant@ATL@@QEAAJXZ 0000000180012b40 f i CashDrawer.obj
 0001:00011b70       ?ClearReplacements@CExpansionVector@ATL@@QEAAJXZ 0000000180012b70 f i CashDrawer.obj
 0001:00011c10       ?ClearReplacements@CRegObject@ATL@@UEAAJXZ 0000000180012c10 f i CashDrawer.obj
 0001:00011c70       ?Clone@?$CComEnumImpl@UIEnumConnectionPoints@@$1?_GUID_b196b285_bab4_101a_b69c_00aa00341d07@@3U__s_GUID@@BPEAUIConnectionPoint@@V?$_CopyInterface@UIConnectionPoint@@@ATL@@@ATL@@UEAAJPEAPEAUIEnumConnectionPoints@@@Z 0000000180012c70 f i CashDrawer.obj
 0001:00011e80       ?Clone@?$CComEnumImpl@UIEnumConnections@@$1?_GUID_b196b287_bab4_101a_b69c_00aa00341d07@@3U__s_GUID@@BUtagCONNECTDATA@@V?$_Copy@UtagCONNECTDATA@@@ATL@@@ATL@@UEAAJPEAPEAUIEnumConnections@@@Z 0000000180012e80 f i CashDrawer.obj
 0001:00012090       ?Close@?$IOleObjectImpl@VCOPOSCashDrawer@@@ATL@@UEAAJK@Z 0000000180013090 f i CashDrawer.obj
 0001:00012140       ?Close@CRegKey@ATL@@QEAAJXZ 0000000180013140 f i CashDrawer.obj
 0001:000121b0       ?ContextSensitiveHelp@?$IOleInPlaceActiveObjectImpl@VCOPOSCashDrawer@@@ATL@@UEAAJH@Z 00000001800131b0 f i CashDrawer.obj
 0001:00012230       ?ContextSensitiveHelp@?$IOleInPlaceObjectWindowlessImpl@VCOPOSCashDrawer@@@ATL@@UEAAJH@Z 0000000180013230 f i CashDrawer.obj
 0001:000122b0       ?ControlQueryInterface@?$CComControl@VCOPOSCashDrawer@@V?$CWindowImpl@VCOPOSCashDrawer@@VCWindow@ATL@@V?$CWinTraits@$0FGAAAAAA@$0A@@3@@ATL@@@ATL@@UEAAJAEBU_GUID@@PEAPEAX@Z 00000001800132b0 f i CashDrawer.obj
 0001:00012340       ?CreateControlWindow@?$CComControl@VCOPOSCashDrawer@@V?$CWindowImpl@VCOPOSCashDrawer@@VCWindow@ATL@@V?$CWinTraits@$0FGAAAAAA@$0A@@3@@ATL@@@ATL@@UEAAPEAUHWND__@@PEAU3@AEAUtagRECT@@@Z 0000000180013340 f i CashDrawer.obj
 0001:00012430       ?CreateInstance@?$CComCreator@V?$CComAggObject@VCOPOSCashDrawer@@@ATL@@@ATL@@SAJPEAXAEBU_GUID@@PEAPEAX@Z 0000000180013430 f i CashDrawer.obj
 0001:00012630       ?CreateInstance@?$CComCreator@V?$CComObject@VCOPOSCashDrawer@@@ATL@@@ATL@@SAJPEAXAEBU_GUID@@PEAPEAX@Z 0000000180013630 f i CashDrawer.obj
 0001:00012840       ?CreateInstance@?$CComObject@V?$CComEnum@UIEnumConnectionPoints@@$1?_GUID_b196b285_bab4_101a_b69c_00aa00341d07@@3U__s_GUID@@BPEAUIConnectionPoint@@V?$_CopyInterface@UIConnectionPoint@@@ATL@@VCComSingleThreadModel@6@@ATL@@@ATL@@SAJPEAPEAV12@@Z 0000000180013840 f i CashDrawer.obj
 0001:00012a20       ?CreateInstance@?$CComObject@V?$CComEnum@UIEnumConnections@@$1?_GUID_b196b287_bab4_101a_b69c_00aa00341d07@@3U__s_GUID@@BUtagCONNECTDATA@@V?$_Copy@UtagCONNECTDATA@@@ATL@@VCComSingleThreadModel@6@@ATL@@@ATL@@SAJPEAPEAV12@@Z 0000000180013a20 f i CashDrawer.obj
 0001:00012c00       ?CreateInstance@CComClassFactory@ATL@@UEAAJPEAUIUnknown@@AEBU_GUID@@PEAPEAX@Z 0000000180013c00 f i CashDrawer.obj
 0001:00012d20       ?DAdvise@?$IDataObjectImpl@VCOPOSCashDrawer@@@ATL@@UEAAJPEAUtagFORMATETC@@KPEAUIAdviseSink@@PEAK@Z 0000000180013d20 f i CashDrawer.obj
 0001:00012e80       ?DEVMODEOLE2T_EX@@YAPEAU_devicemodeW@@PEAU1@@Z 0000000180013e80 f i CashDrawer.obj
 0001:00012e90       ?DUnadvise@?$IDataObjectImpl@VCOPOSCashDrawer@@@ATL@@UEAAJK@Z 0000000180013e90 f i CashDrawer.obj
 0001:00012f90       ?Decrement@CComMultiThreadModel@ATL@@SAKPEAJ@Z 0000000180013f90 f i CashDrawer.obj
 0001:00012fb0       ?Decrement@CComSingleThreadModel@ATL@@SAKPEAJ@Z 0000000180013fb0 f i CashDrawer.obj
 0001:00012fd0       ?DefWindowProcW@?$CWindowImplBaseT@VCWindow@ATL@@V?$CWinTraits@$0FGAAAAAA@$0A@@2@@ATL@@QEAA_JI_K_J@Z 0000000180013fd0 f i CashDrawer.obj
 0001:00013030       ?DefaultReflectionHandler@?$CWindowImplRoot@VCWindow@ATL@@@ATL@@SAHPEAUHWND__@@I_K_JAEA_J@Z 0000000180014030 f i CashDrawer.obj
 0001:00013120       ?DeleteSubKey@CRegKey@ATL@@QEAAJPEB_W@Z 0000000180014120 f i CashDrawer.obj
 0001:00013250       ?DeleteValue@CRegKey@ATL@@QEAAJPEB_W@Z 0000000180014250 f i CashDrawer.obj
 0001:000132e0       ?Detach@?$CAutoVectorPtr@_W@ATL@@QEAAPEA_WXZ 00000001800142e0 f i CashDrawer.obj
 0001:00013320       ?Detach@?$CComPtrBase@UIPersistStream@@@ATL@@QEAAPEAUIPersistStream@@XZ 0000000180014320 f i CashDrawer.obj
 0001:00013360       ?Detach@?$CComPtrBase@UITypeInfo@@@ATL@@QEAAPEAUITypeInfo@@XZ 0000000180014360 f i CashDrawer.obj
 0001:000133a0       ?Detach@?$CComPtrBase@UIUnknown@@@ATL@@QEAAPEAUIUnknown@@XZ 00000001800143a0 f i CashDrawer.obj
 0001:000133e0       ?Detach@CComBSTR@ATL@@QEAAPEA_WXZ 00000001800143e0 f i CashDrawer.obj
 0001:00013420       ?Detach@CParseBuffer@CRegParser@ATL@@QEAAPEA_WXZ 0000000180014420 f i CashDrawer.obj
 0001:00013480       ?Detach@CRegKey@ATL@@QEAAPEAUHKEY__@@XZ 0000000180014480 f i CashDrawer.obj
 0001:000134e0       ?DoEvent@COPOSCashDrawer@@IEAAXI_K_J@Z 00000001800144e0 f i CashDrawer.obj
 0001:00013620       ?DoVerb@?$IOleObjectImpl@VCOPOSCashDrawer@@@ATL@@UEAAJJPEAUtagMSG@@PEAUIOleClientSite@@JPEAUHWND__@@PEBUtagRECT@@@Z 0000000180014620 f i CashDrawer.obj
 0001:00013930       ?DoVerbDiscardUndo@?$IOleObjectImpl@VCOPOSCashDrawer@@@ATL@@QEAAJPEBUtagRECT@@PEAUHWND__@@@Z 0000000180014930 f i CashDrawer.obj
 0001:000139d0       ?DoVerbHide@?$IOleObjectImpl@VCOPOSCashDrawer@@@ATL@@QEAAJPEBUtagRECT@@PEAUHWND__@@@Z 00000001800149d0 f i CashDrawer.obj
 0001:00013ab0       ?DoVerbInPlaceActivate@?$IOleObjectImpl@VCOPOSCashDrawer@@@ATL@@QEAAJPEBUtagRECT@@PEAUHWND__@@@Z 0000000180014ab0 f i CashDrawer.obj
 0001:00013b90       ?DoVerbOpen@?$IOleObjectImpl@VCOPOSCashDrawer@@@ATL@@QEAAJPEBUtagRECT@@PEAUHWND__@@@Z 0000000180014b90 f i CashDrawer.obj
 0001:00013c30       ?DoVerbPrimary@?$IOleObjectImpl@VCOPOSCashDrawer@@@ATL@@QEAAJPEBUtagRECT@@PEAUHWND__@@@Z 0000000180014c30 f i CashDrawer.obj
 0001:00013d70       ?DoVerbProperties@CComControlBase@ATL@@QEAAJPEBUtagRECT@@PEAUHWND__@@@Z 0000000180014d70 f i CashDrawer.obj
 0001:00014120       ?DoVerbShow@?$IOleObjectImpl@VCOPOSCashDrawer@@@ATL@@QEAAJPEBUtagRECT@@PEAUHWND__@@@Z 0000000180015120 f i CashDrawer.obj
 0001:000141e0       ?DoVerbUIActivate@?$IOleObjectImpl@VCOPOSCashDrawer@@@ATL@@QEAAJPEBUtagRECT@@PEAUHWND__@@@Z 00000001800151e0 f i CashDrawer.obj
 0001:000142c0       ?DoesVerbActivate@CComControlBase@ATL@@QEAAHJ@Z 00000001800152c0 f i CashDrawer.obj
 0001:00014320       ?DoesVerbUIActivate@CComControlBase@ATL@@QEAAHJ@Z 0000000180015320 f i CashDrawer.obj
 0001:000143a0       ?Draw@?$IViewObjectExImpl@VCOPOSCashDrawer@@@ATL@@UEAAJKJPEAXPEAUtagDVTARGETDEVICE@@PEAUHDC__@@2PEBU_RECTL@@3P6AH_K@Z4@Z 00000001800153a0 f i CashDrawer.obj
 0001:000144c0       ?Empty@CComBSTR@ATL@@QEAAXXZ 00000001800154c0 f i CashDrawer.obj
 0001:00014500       ?EnableModeless@?$IOleInPlaceActiveObjectImpl@VCOPOSCashDrawer@@@ATL@@UEAAJH@Z 0000000180015500 f i CashDrawer.obj
 0001:00014570       ?EndOfVar@CRegParser@ATL@@IEAAHXZ 0000000180015570 f i CashDrawer.obj
 0001:000145d0       ?EnsureTI@CComTypeInfoHolder@ATL@@QEAAJK@Z 00000001800155d0 f i CashDrawer.obj
 0001:00014630       ?EnumAdvise@?$IOleObjectImpl@VCOPOSCashDrawer@@@ATL@@UEAAJPEAPEAUIEnumSTATDATA@@@Z 0000000180015630 f i CashDrawer.obj
 0001:00014790       ?EnumConnectionPoints@?$IConnectionPointContainerImpl@VCOPOSCashDrawer@@@ATL@@UEAAJPEAPEAUIEnumConnectionPoints@@@Z 0000000180015790 f i CashDrawer.obj
 0001:00014cc0       ?EnumConnections@?$IConnectionPointImpl@VCOPOSCashDrawer@@$1?DIID__IOPOSCashDrawerEvents@@3U_GUID@@BVCComDynamicUnkArray@ATL@@@ATL@@UEAAJPEAPEAUIEnumConnections@@@Z 0000000180015cc0 f i CashDrawer.obj
 0001:00015030       ?EnumConnections@?$IConnectionPointImpl@VCOPOSCashDrawer@@$1?IID_IPropertyNotifySink@@3U_GUID@@BVCComDynamicUnkArray@ATL@@@ATL@@UEAAJPEAPEAUIEnumConnections@@@Z 0000000180016030 f i CashDrawer.obj
 0001:000153a0       ?EnumDAdvise@?$IDataObjectImpl@VCOPOSCashDrawer@@@ATL@@UEAAJPEAPEAUIEnumSTATDATA@@@Z 00000001800163a0 f i CashDrawer.obj
 0001:000154f0       ?EnumFormatEtc@?$IDataObjectImpl@VCOPOSCashDrawer@@@ATL@@UEAAJKPEAPEAUIEnumFORMATETC@@@Z 00000001800164f0 f i CashDrawer.obj
 0001:00015580       ?EnumVerbs@?$IOleObjectImpl@VCOPOSCashDrawer@@@ATL@@UEAAJPEAPEAUIEnumOLEVERB@@@Z 0000000180016580 f i CashDrawer.obj
 0001:00015650       ?EscapeSingleQuote@CAtlModule@ATL@@SAXPEA_W_KPEB_W@Z 0000000180016650 f i CashDrawer.obj
 0001:00015750       ?ExtractCreateWndData@CAtlWinModule@ATL@@QEAAPEAXXZ 0000000180016750 f i CashDrawer.obj
 0001:00015780       ?FAccessAllowed@?$IObjectSafetyImpl@VCOPOSCashDrawer@@$02@ATL@@MEAAHXZ 0000000180016780 f i CashDrawer.obj
 0001:00015790       ?FinalConstruct@?$CComAggObject@VCOPOSCashDrawer@@@ATL@@QEAAJXZ 0000000180016790 f i CashDrawer.obj
 0001:000157e0       ?FinalConstruct@CComObjectRootBase@ATL@@QEAAJXZ 00000001800167e0 f i CashDrawer.obj
 0001:000157f0       ?FinalConstruct@CRegObject@ATL@@QEAAJXZ 00000001800167f0 f i CashDrawer.obj
 0001:00015830       ?FinalRelease@?$CComAggObject@VCOPOSCashDrawer@@@ATL@@QEAAXXZ 0000000180016830 f i CashDrawer.obj
 0001:00015880       ?FinalRelease@CComObjectRootBase@ATL@@QEAAXXZ 0000000180016880 f i CashDrawer.obj
 0001:00015890       ?FindConnectionPoint@?$IConnectionPointContainerImpl@VCOPOSCashDrawer@@@ATL@@UEAAJAEBU_GUID@@PEAPEAUIConnectionPoint@@@Z 0000000180016890 f i CashDrawer.obj
 0001:00015a00       ?FindKey@?$CSimpleMap@PEA_WPEA_WVCExpansionVectorEqualHelper@ATL@@@ATL@@QEBAHAEBQEA_W@Z 0000000180016a00 f i CashDrawer.obj
 0001:00015a80       ?FireTheEvent@?$CProxy_IOPOSEvents@VCOPOSCashDrawer@@@@IEAAXPEAUIUnknown@@PEAVOposVariant@@IAEAJPEB_WJ@Z 0000000180016a80 f i CashDrawer.obj
 0001:00015c60       ?FireViewChange@CComControlBase@ATL@@QEAAJXZ 0000000180016c60 f i CashDrawer.obj
 0001:00015d40       ?Fire_DirectIOEvent@?$CProxy_IOPOSEvents@VCOPOSCashDrawer@@@@QEAAXJPEAJPEAPEA_W@Z 0000000180016d40 f i CashDrawer.obj
 0001:00015fd0       ?Fire_StatusUpdateEvent@?$CProxy_IOPOSEvents@VCOPOSCashDrawer@@@@QEAAXJ@Z 0000000180016fd0 f i CashDrawer.obj
 0001:000161c0       ?FormatWindowClassName@AtlModuleRegisterWndClassInfoParamW@ATL@@SAXPEA_WKPEAX@Z 00000001800171c0 f i CashDrawer.obj
 0001:00016210       ?Free@?$CAutoVectorPtr@_W@ATL@@QEAAXXZ 0000000180017210 f i CashDrawer.obj
 0001:00016260       ?FreeHeap@?$CTempBuffer@E$0BAA@VCCRTAllocator@ATL@@@ATL@@AEAAXXZ 0000000180017260 f i CashDrawer.obj
 0001:000162a0       ?FreeHeap@?$CTempBuffer@_W$0BAA@VCCRTAllocator@ATL@@@ATL@@AEAAXXZ 00000001800172a0 f i CashDrawer.obj
 0001:000162e0       ?FreeHeap@?$CTempBuffer@_W$0EAA@VCCRTAllocator@ATL@@@ATL@@AEAAXXZ 00000001800172e0 f i CashDrawer.obj
 0001:00016320       ?Freeze@?$IViewObjectExImpl@VCOPOSCashDrawer@@@ATL@@UEAAJKJPEAXPEAK@Z 0000000180017320 f i CashDrawer.obj
 0001:000163b0       ?GenerateError@CRegParser@ATL@@IEAAJI@Z 00000001800173b0 f i CashDrawer.obj
 0001:000163d0       ?GetAdvise@?$IViewObjectExImpl@VCOPOSCashDrawer@@@ATL@@UEAAJPEAK0PEAPEAUIAdviseSink@@@Z 00000001800173d0 f i CashDrawer.obj
 0001:00016520       ?GetAmbientLocaleID@CComControlBase@ATL@@QEAAJAEAK@Z 0000000180017520 f i CashDrawer.obj
 0001:00016600       ?GetAmbientProperty@CComControlBase@ATL@@QEAAJJAEAUtagVARIANT@@@Z 0000000180017600 f i CashDrawer.obj
 0001:00016670       ?GetAmbientUserMode@CComControlBase@ATL@@QEAAJAEAH@Z 0000000180017670 f i CashDrawer.obj
 0001:00016790       ?GetAppId@?$CAtlModuleT@VCComModule@ATL@@@ATL@@SAPEB_WXZ 0000000180017790 f i CashDrawer.obj
 0001:000167a0       ?GetAt@CComDynamicUnkArray@ATL@@QEAAPEAUIUnknown@@H@Z 00000001800177a0 f i CashDrawer.obj
 0001:00016850       ?GetCanonicalFormatEtc@?$IDataObjectImpl@VCOPOSCashDrawer@@@ATL@@UEAAJPEAUtagFORMATETC@@0@Z 0000000180017850 f i CashDrawer.obj
 0001:000168e0       ?GetClassID@?$IPersistStorageImpl@VCOPOSCashDrawer@@@ATL@@UEAAJPEAU_GUID@@@Z 00000001800178e0 f i CashDrawer.obj
 0001:00016980       ?GetClassID@?$IPersistStreamInitImpl@VCOPOSCashDrawer@@@ATL@@UEAAJPEAU_GUID@@@Z 0000000180017980 f i CashDrawer.obj
 0001:00016a20       ?GetClassInfoExW@AtlModuleRegisterWndClassInfoParamW@ATL@@SAHPEAUHINSTANCE__@@PEB_WPEAUtagWNDCLASSEXW@@@Z 0000000180017a20 f i CashDrawer.obj
 0001:00016a70       ?GetClassInfoW@?$IProvideClassInfo2Impl@$1?CLSID_OPOSCashDrawer@@3U_GUID@@B$1?DIID__IOPOSCashDrawerEvents@@3U2@B$1?LIBID_OposCashDrawer_CCO@@3U2@B$00$0A@VCComTypeInfoHolder@ATL@@@ATL@@UEAAJPEAPEAUITypeInfo@@@Z 0000000180017a70 f i CashDrawer.obj
 0001:00016ab0       ?GetClassObject@CComModule@ATL@@QEAAJAEBU_GUID@@0PEAPEAX@Z 0000000180017ab0 f i CashDrawer.obj
 0001:00016d20       ?GetClientSite@?$IOleObjectImpl@VCOPOSCashDrawer@@@ATL@@UEAAJPEAPEAUIOleClientSite@@@Z 0000000180017d20 f i CashDrawer.obj
 0001:00016dd0       ?GetClipboardData@?$IOleObjectImpl@VCOPOSCashDrawer@@@ATL@@UEAAJKPEAPEAUIDataObject@@@Z 0000000180017dd0 f i CashDrawer.obj
 0001:00016e60       ?GetCodeAddress@CDynamicStdCallThunk2@ATL@@QEAAPEAXXZ 0000000180017e60 f i CashDrawer.obj
 0001:00016ea0       ?GetColorSet@?$IViewObjectExImpl@VCOPOSCashDrawer@@@ATL@@UEAAJKJPEAXPEAUtagDVTARGETDEVICE@@PEAUHDC__@@PEAPEAUtagLOGPALETTE@@@Z 0000000180017ea0 f i CashDrawer.obj
 0001:00016f30       ?GetConnMap@COPOSCashDrawer@@SAPEBU_ATL_CONNMAP_ENTRY@ATL@@PEAH@Z 0000000180017f30 f i CashDrawer.obj
 0001:00017090       ?GetConnectionInterface@?$IConnectionPointImpl@VCOPOSCashDrawer@@$1?DIID__IOPOSCashDrawerEvents@@3U_GUID@@BVCComDynamicUnkArray@ATL@@@ATL@@UEAAJPEAU_GUID@@@Z 0000000180018090 f i CashDrawer.obj
 0001:000170d0       ?GetConnectionInterface@?$IConnectionPointImpl@VCOPOSCashDrawer@@$1?IID_IPropertyNotifySink@@3U_GUID@@BVCComDynamicUnkArray@ATL@@@ATL@@UEAAJPEAU_GUID@@@Z 00000001800180d0 f i CashDrawer.obj
 0001:00017110       ?GetConnectionPointContainer@?$IConnectionPointImpl@VCOPOSCashDrawer@@$1?DIID__IOPOSCashDrawerEvents@@3U_GUID@@BVCComDynamicUnkArray@ATL@@@ATL@@UEAAJPEAPEAUIConnectionPointContainer@@@Z 0000000180018110 f i CashDrawer.obj
 0001:00017190       ?GetConnectionPointContainer@?$IConnectionPointImpl@VCOPOSCashDrawer@@$1?IID_IPropertyNotifySink@@3U_GUID@@BVCComDynamicUnkArray@ATL@@@ATL@@UEAAJPEAPEAUIConnectionPointContainer@@@Z 0000000180018190 f i CashDrawer.obj
 0001:00017210       ?GetContentExtent@?$IQuickActivateImpl@VCOPOSCashDrawer@@@ATL@@UEAAJPEAUtagSIZE@@@Z 0000000180018210 f i CashDrawer.obj
 0001:000172d0       ?GetControlInfo@?$IOleControlImpl@VCOPOSCashDrawer@@@ATL@@UEAAJPEAUtagCONTROLINFO@@@Z 00000001800182d0 f i CashDrawer.obj
 0001:00017360       ?GetCookie@CComDynamicUnkArray@ATL@@QEAAKPEAPEAUIUnknown@@@Z 0000000180018360 f i CashDrawer.obj
 0001:00017450       ?GetData@?$IDataObjectImpl@VCOPOSCashDrawer@@@ATL@@UEAAJPEAUtagFORMATETC@@PEAUtagSTGMEDIUM@@@Z 0000000180018450 f i CashDrawer.obj
 0001:00017510       ?GetData@CAtlSafeAllocBufferNode@?$CAtlSafeAllocBufferManager@VCCRTAllocator@ATL@@@_ATL_SAFE_ALLOCA_IMPL@ATL@@QEAAPEAXXZ 0000000180018510 f i CashDrawer.obj
 0001:00017530       ?GetDataHere@?$IDataObjectImpl@VCOPOSCashDrawer@@@ATL@@UEAAJPEAUtagFORMATETC@@PEAUtagSTGMEDIUM@@@Z 0000000180018530 f i CashDrawer.obj
 0001:000175c0       ?GetDropTarget@?$IOleInPlaceObjectWindowlessImpl@VCOPOSCashDrawer@@@ATL@@UEAAJPEAPEAUIDropTarget@@@Z 00000001800185c0 f i CashDrawer.obj
 0001:00017650       ?GetExtent@?$IOleObjectImpl@VCOPOSCashDrawer@@@ATL@@UEAAJKPEAUtagSIZE@@@Z 0000000180018650 f i CashDrawer.obj
 0001:00017720       ?GetExtent@?$IViewObjectExImpl@VCOPOSCashDrawer@@@ATL@@UEAAJKJPEAUtagDVTARGETDEVICE@@PEAUtagSIZE@@@Z 0000000180018720 f i CashDrawer.obj
 0001:00017830       ?GetGITPtr@CAtlModule@ATL@@UEAAJPEAPEAUIGlobalInterfaceTable@@@Z 0000000180018830 f i CashDrawer.obj
 0001:00017970       ?GetGUID@?$IProvideClassInfo2Impl@$1?CLSID_OPOSCashDrawer@@3U_GUID@@B$1?DIID__IOPOSCashDrawerEvents@@3U2@B$1?LIBID_OposCashDrawer_CCO@@3U2@B$00$0A@VCComTypeInfoHolder@ATL@@@ATL@@UEAAJKPEAU_GUID@@@Z 0000000180018970 f i CashDrawer.obj
 0001:000179f0       ?GetIDsOfNames@?$IDispatchImpl@UIOPOSCashDrawer@@$1?IID_IOPOSCashDrawer@@3U_GUID@@B$1?LIBID_OposCashDrawer_CCO@@3U3@B$00$0A@VCComTypeInfoHolder@ATL@@@ATL@@UEAAJAEBU_GUID@@PEAPEA_WIKPEAJ@Z 00000001800189f0 f i CashDrawer.obj
 0001:00017a50       ?GetIDsOfNames@CComTypeInfoHolder@ATL@@QEAAJAEBU_GUID@@PEAPEA_WIKPEAJ@Z 0000000180018a50 f i CashDrawer.obj
 0001:00017c70       ?GetInterfaceSafetyOptions@?$IObjectSafetyImpl@VCOPOSCashDrawer@@$02@ATL@@UEAAJAEBU_GUID@@PEAK1@Z 0000000180018c70 f i CashDrawer.obj
 0001:00017e10       ?GetKeyAt@?$CSimpleMap@PEA_WPEA_WVCExpansionVectorEqualHelper@ATL@@@ATL@@QEBAAEAPEA_WH@Z 0000000180018e10 f i CashDrawer.obj
 0001:00017ec0       ?GetLockCount@CAtlModule@ATL@@UEAAJXZ 0000000180018ec0 f i CashDrawer.obj
 0001:00017ed0       ?GetMiscStatus@?$IOleObjectImpl@VCOPOSCashDrawer@@@ATL@@UEAAJKPEAK@Z 0000000180018ed0 f i CashDrawer.obj
 0001:00017f60       ?GetMoniker@?$IOleObjectImpl@VCOPOSCashDrawer@@@ATL@@UEAAJKKPEAPEAUIMoniker@@@Z 0000000180018f60 f i CashDrawer.obj
 0001:00017ff0       ?GetNaturalExtent@?$IViewObjectExImpl@VCOPOSCashDrawer@@@ATL@@UEAAJKJPEAUtagDVTARGETDEVICE@@PEAUHDC__@@PEAUtagExtentInfo@@PEAUtagSIZE@@@Z 0000000180018ff0 f i CashDrawer.obj
 0001:00018180       ?GetObjectCLSID@?$CComCoClass@VCOPOSCashDrawer@@$1?CLSID_OPOSCashDrawer@@3U_GUID@@B@ATL@@SAAEBU_GUID@@XZ 0000000180019180 f i CashDrawer.obj
 0001:00018190       ?GetPages@?$ISpecifyPropertyPagesImpl@VCOPOSCashDrawer@@@ATL@@UEAAJPEAUtagCAUUID@@@Z 0000000180019190 f i CashDrawer.obj
 0001:00018220       ?GetPagesHelper@?$ISpecifyPropertyPagesImpl@VCOPOSCashDrawer@@@ATL@@IEAAJPEAUtagCAUUID@@PEBUATL_PROPMAP_ENTRY@2@@Z 0000000180019220 f i CashDrawer.obj
 0001:00018490       ?GetProperty@?$CComPtr@UIDispatch@@@ATL@@QEAAJJPEAUtagVARIANT@@@Z 0000000180019490 f i CashDrawer.obj
 0001:000184e0       ?GetProperty@?$CComPtr@UIDispatch@@@ATL@@SAJPEAUIDispatch@@JPEAUtagVARIANT@@@Z 00000001800194e0 f i CashDrawer.obj
 0001:000186b0       ?GetPropertyMap@COPOSCashDrawer@@SAPEBUATL_PROPMAP_ENTRY@ATL@@XZ 00000001800196b0 f i CashDrawer.obj
 0001:000186c0       ?GetRect@?$IViewObjectExImpl@VCOPOSCashDrawer@@@ATL@@UEAAJKPEAU_RECTL@@@Z 00000001800196c0 f i CashDrawer.obj
 0001:00018750       ?GetSize@?$CSimpleMap@PEA_WPEA_WVCExpansionVectorEqualHelper@ATL@@@ATL@@QEBAHXZ 0000000180019750 f i CashDrawer.obj
 0001:00018760       ?GetSize@CComDynamicUnkArray@ATL@@QEBAHXZ 0000000180019760 f i CashDrawer.obj
 0001:00018770       ?GetSizeMax@?$IPersistStreamInitImpl@VCOPOSCashDrawer@@@ATL@@UEAAJPEAT_ULARGE_INTEGER@@@Z 0000000180019770 f i CashDrawer.obj
 0001:00018f00       ?GetSizeMax@CComVariant@ATL@@QEBAJPEAT_ULARGE_INTEGER@@@Z 0000000180019f00 f i CashDrawer.obj
 0001:00019330       ?GetStreamSize@CComBSTR@ATL@@SAKPEA_W@Z 000000018001a330 f i CashDrawer.obj
 0001:00019390       ?GetTI@CComTypeInfoHolder@ATL@@QEAAJK@Z 000000018001a390 f i CashDrawer.obj
 0001:00019c60       ?GetTI@CComTypeInfoHolder@ATL@@QEAAJKPEAPEAUITypeInfo@@@Z 000000018001ac60 f i CashDrawer.obj
 0001:00019d50       ?GetTypeInfo@?$IDispatchImpl@UIOPOSCashDrawer@@$1?IID_IOPOSCashDrawer@@3U_GUID@@B$1?LIBID_OposCashDrawer_CCO@@3U3@B$00$0A@VCComTypeInfoHolder@ATL@@@ATL@@UEAAJIKPEAPEAUITypeInfo@@@Z 000000018001ad50 f i CashDrawer.obj
 0001:00019da0       ?GetTypeInfo@CComTypeInfoHolder@ATL@@QEAAJIKPEAPEAUITypeInfo@@@Z 000000018001ada0 f i CashDrawer.obj
 0001:00019e00       ?GetTypeInfoCount@?$IDispatchImpl@UIOPOSCashDrawer@@$1?IID_IOPOSCashDrawer@@3U_GUID@@B$1?LIBID_OposCashDrawer_CCO@@3U3@B$00$0A@VCComTypeInfoHolder@ATL@@@ATL@@UEAAJPEAI@Z 000000018001ae00 f i CashDrawer.obj
 0001:00019e30       ?GetUnknown@CComDynamicUnkArray@ATL@@QEAAPEAUIUnknown@@K@Z 000000018001ae30 f i CashDrawer.obj
 0001:00019ee0       ?GetUnknown@COPOSCashDrawer@@QEAAPEAUIUnknown@@XZ 000000018001aee0 f i CashDrawer.obj
 0001:00019f10       ?GetUserClassID@?$IOleObjectImpl@VCOPOSCashDrawer@@@ATL@@UEAAJPEAU_GUID@@@Z 000000018001af10 f i CashDrawer.obj
 0001:00019ff0       ?GetUserType@?$IOleObjectImpl@VCOPOSCashDrawer@@@ATL@@UEAAJKPEAPEA_W@Z 000000018001aff0 f i CashDrawer.obj
 0001:0001a080       ?GetValueAt@?$CSimpleMap@PEA_WPEA_WVCExpansionVectorEqualHelper@ATL@@@ATL@@QEBAAEAPEA_WH@Z 000000018001b080 f i CashDrawer.obj
 0001:0001a130       ?GetViewStatus@?$IViewObjectExImpl@VCOPOSCashDrawer@@@ATL@@UEAAJPEAK@Z 000000018001b130 f i CashDrawer.obj
 0001:0001a230       ?GetWNDPROC@CWndProcThunk@ATL@@QEAAP6A_JPEAUHWND__@@I_K_J@ZXZ 000000018001b230 f i CashDrawer.obj
 0001:0001a270       ?GetWindow@?$IOleInPlaceActiveObjectImpl@VCOPOSCashDrawer@@@ATL@@UEAAJPEAPEAUHWND__@@@Z 000000018001b270 f i CashDrawer.obj
 0001:0001a370       ?GetWindow@?$IOleInPlaceObjectWindowlessImpl@VCOPOSCashDrawer@@@ATL@@UEAAJPEAPEAUHWND__@@@Z 000000018001b370 f i CashDrawer.obj
 0001:0001a470       ?GetWindowProc@?$CWindowImplBaseT@VCWindow@ATL@@V?$CWinTraits@$0FGAAAAAA@$0A@@2@@ATL@@UEAAP6A_JPEAUHWND__@@I_K_J@ZXZ 000000018001b470 f i CashDrawer.obj
 0001:0001a480       ?GetWndCaption@?$CWindowImpl@VCOPOSCashDrawer@@VCWindow@ATL@@V?$CWinTraits@$0FGAAAAAA@$0A@@3@@ATL@@SAPEB_WXZ 000000018001b480 f i CashDrawer.obj
 0001:0001a490       ?GetWndClassInfo@?$CWindowImpl@VCOPOSCashDrawer@@VCWindow@ATL@@V?$CWinTraits@$0FGAAAAAA@$0A@@3@@ATL@@SAAEAU_ATL_WNDCLASSINFOW@2@XZ 000000018001b490 f i CashDrawer.obj
 0001:0001a4a0       ?GetWndClassName@CWindow@ATL@@SAPEB_WXZ 000000018001b4a0 f i CashDrawer.obj
 0001:0001a4b0       ?GetWndExStyle@?$CWinTraits@$0FGAAAAAA@$0A@@ATL@@SAKK@Z 000000018001b4b0 f i CashDrawer.obj
 0001:0001a4f0       ?GetWndExStyle@?$CWindowImplBaseT@VCWindow@ATL@@V?$CWinTraits@$0FGAAAAAA@$0A@@2@@ATL@@SAKK@Z 000000018001b4f0 f i CashDrawer.obj
 0001:0001a520       ?GetWndStyle@?$CWinTraits@$0FGAAAAAA@$0A@@ATL@@SAKK@Z 000000018001b520 f i CashDrawer.obj
 0001:0001a560       ?GetWndStyle@?$CWindowImplBaseT@VCWindow@ATL@@V?$CWinTraits@$0FGAAAAAA@$0A@@2@@ATL@@SAKK@Z 000000018001b560 f i CashDrawer.obj
 0001:0001a590       ?GetZoomInfo@CComControlBase@ATL@@QEAAXAEAUATL_DRAWINFO@@@Z 000000018001b590 f i CashDrawer.obj
 0001:0001a740       ?HKeyFromString@CRegParser@ATL@@KAPEAUHKEY__@@PEA_W@Z 000000018001b740 f i CashDrawer.obj
 0001:0001a7d0       ?HandsOffStorage@?$IPersistStorageImpl@VCOPOSCashDrawer@@@ATL@@UEAAJXZ 000000018001b7d0 f i CashDrawer.obj
 0001:0001a840       ?HasSubKeys@CRegParser@ATL@@IEAAHPEAUHKEY__@@@Z 000000018001b840 f i CashDrawer.obj
 0001:0001a9b0       ?IDataObject_GetData@CComControlBase@ATL@@QEAAJPEAUtagFORMATETC@@PEAUtagSTGMEDIUM@@@Z 000000018001b9b0 f i CashDrawer.obj
 0001:0001ae60       ?IOleInPlaceObject_InPlaceDeactivate@CComControlBase@ATL@@QEAAJXZ 000000018001be60 f i CashDrawer.obj
 0001:0001b0d0       ?IOleInPlaceObject_SetObjectRects@CComControlBase@ATL@@QEAAJPEBUtagRECT@@0@Z 000000018001c0d0 f i CashDrawer.obj
 0001:0001b2b0       ?IOleInPlaceObject_UIDeactivate@CComControlBase@ATL@@QEAAJXZ 000000018001c2b0 f i CashDrawer.obj
 0001:0001b520       ?IOleObject_Advise@CComControlBase@ATL@@QEAAJPEAUIAdviseSink@@PEAK@Z 000000018001c520 f i CashDrawer.obj
 0001:0001b5d0       ?IOleObject_Close@CComControlBase@ATL@@QEAAJK@Z 000000018001c5d0 f i CashDrawer.obj
 0001:0001b940       ?IOleObject_GetClientSite@CComControlBase@ATL@@QEAAJPEAPEAUIOleClientSite@@@Z 000000018001c940 f i CashDrawer.obj
 0001:0001ba10       ?IOleObject_SetClientSite@CComControlBase@ATL@@QEAAJPEAUIOleClientSite@@@Z 000000018001ca10 f i CashDrawer.obj
 0001:0001bb20       ?IOleObject_SetExtent@CComControlBase@ATL@@QEAAJKPEAUtagSIZE@@@Z 000000018001cb20 f i CashDrawer.obj
 0001:0001bc90       ?IPSI_GetIPersistStreamInit@?$IPersistStorageImpl@VCOPOSCashDrawer@@@ATL@@AEAAPEAUIPersistStreamInit@@XZ 000000018001cc90 f i CashDrawer.obj
 0001:0001bd50       ?IPersistStreamInit_Load@?$IPersistStreamInitImpl@VCOPOSCashDrawer@@@ATL@@QEAAJPEAUIStream@@PEBUATL_PROPMAP_ENTRY@2@@Z 000000018001cd50 f i CashDrawer.obj
 0001:0001bdf0       ?IPersistStreamInit_Save@?$IPersistStreamInitImpl@VCOPOSCashDrawer@@@ATL@@QEAAJPEAUIStream@@HPEBUATL_PROPMAP_ENTRY@2@@Z 000000018001cdf0 f i CashDrawer.obj
 0001:0001beb0       ?IQuickActivate_QuickActivate@CComControlBase@ATL@@QEAAJPEAUtagQACONTAINER@@PEAUtagQACONTROL@@@Z 000000018001ceb0 f i CashDrawer.obj
 0001:0001c6f0       ?IViewObject_Draw@CComControlBase@ATL@@QEAAJKJPEAXPEAUtagDVTARGETDEVICE@@PEAUHDC__@@2PEBU_RECTL@@3@Z 000000018001d6f0 f i CashDrawer.obj
 0001:0001cb40       ?InPlaceActivate@CComControlBase@ATL@@QEAAJJPEBUtagRECT@@@Z 000000018001db40 f i CashDrawer.obj
 0001:0001d6e0       ?InPlaceDeactivate@?$IOleInPlaceObjectWindowlessImpl@VCOPOSCashDrawer@@@ATL@@UEAAJXZ 000000018001e6e0 f i CashDrawer.obj
 0001:0001d790       ?Increment@CComMultiThreadModel@ATL@@SAKPEAJ@Z 000000018001e790 f i CashDrawer.obj
 0001:0001d7b0       ?Increment@CComSingleThreadModel@ATL@@SAKPEAJ@Z 000000018001e7b0 f i CashDrawer.obj
 0001:0001d7d0       ?Init@?$CComEnumImpl@UIEnumConnectionPoints@@$1?_GUID_b196b285_bab4_101a_b69c_00aa00341d07@@3U__s_GUID@@BPEAUIConnectionPoint@@V?$_CopyInterface@UIConnectionPoint@@@ATL@@@ATL@@QEAAJPEAPEAUIConnectionPoint@@0PEAUIUnknown@@W4CComEnumFlags@2@@Z 000000018001e7d0 f i CashDrawer.obj
 0001:0001dac0       ?Init@?$CComEnumImpl@UIEnumConnections@@$1?_GUID_b196b287_bab4_101a_b69c_00aa00341d07@@3U__s_GUID@@BUtagCONNECTDATA@@V?$_Copy@UtagCONNECTDATA@@@ATL@@@ATL@@QEAAJPEAUtagCONNECTDATA@@0PEAUIUnknown@@W4CComEnumFlags@2@@Z 000000018001eac0 f i CashDrawer.obj
 0001:0001ddb0       ?Init@CComFakeCriticalSection@ATL@@QEAAJXZ 000000018001edb0 f i CashDrawer.obj
 0001:0001ddc0       ?Init@CComModule@ATL@@QEAAJPEAU_ATL_OBJMAP_ENTRY30@2@PEAUHINSTANCE__@@PEBU_GUID@@@Z 000000018001edc0 f i CashDrawer.obj
 0001:0001deb0       ?Init@CComSafeDeleteCriticalSection@ATL@@QEAAJXZ 000000018001eeb0 f i CashDrawer.obj
 0001:0001df40       ?Init@CDynamicStdCallThunk2@ATL@@QEAAH_KPEAX@Z 000000018001ef40 f i CashDrawer.obj
 0001:0001dfc0       ?Init@CWndProcThunk@ATL@@QEAAHP6A_JPEAUHWND__@@I_K_J@ZPEAX@Z 000000018001efc0 f i CashDrawer.obj
 0001:0001e010       ?InitFromData@?$IOleObjectImpl@VCOPOSCashDrawer@@@ATL@@UEAAJPEAUIDataObject@@HK@Z 000000018001f010 f i CashDrawer.obj
 0001:0001e0a0       ?InitLibId@?$CAtlModuleT@VCComModule@ATL@@@ATL@@SAXXZ 000000018001f0a0 f i CashDrawer.obj
 0001:0001e0b0       ?InitNew@?$IPersistStorageImpl@VCOPOSCashDrawer@@@ATL@@UEAAJPEAUIStorage@@@Z 000000018001f0b0 f i CashDrawer.obj
 0001:0001e1a0       ?InitNew@?$IPersistStreamInitImpl@VCOPOSCashDrawer@@@ATL@@UEAAJXZ 000000018001f1a0 f i CashDrawer.obj
 0001:0001e250       ?InlineIsEqualUnknown@ATL@@YAHAEBU_GUID@@@Z 000000018001f250 f i CashDrawer.obj
 0001:0001e2e0       ?InternalAddRef@?$CComObjectRootEx@VCComMultiThreadModel@ATL@@@ATL@@QEAAKXZ 000000018001f2e0 f i CashDrawer.obj
 0001:0001e360       ?InternalAddRef@?$CComObjectRootEx@VCComSingleThreadModel@ATL@@@ATL@@QEAAKXZ 000000018001f360 f i CashDrawer.obj
 0001:0001e3e0       ?InternalFinalConstructAddRef@CComObjectRootBase@ATL@@QEAAXXZ 000000018001f3e0 f i CashDrawer.obj
 0001:0001e3f0       ?InternalFinalConstructAddRef@COPOSCashDrawer@@QEAAXXZ 000000018001f3f0 f i CashDrawer.obj
 0001:0001e430       ?InternalFinalConstructRelease@CComObjectRootBase@ATL@@QEAAXXZ 000000018001f430 f i CashDrawer.obj
 0001:0001e4a0       ?InternalFinalConstructRelease@COPOSCashDrawer@@QEAAXXZ 000000018001f4a0 f i CashDrawer.obj
 0001:0001e4e0       ?InternalGetSite@CComControlBase@ATL@@QEAAJAEBU_GUID@@PEAPEAX@Z 000000018001f4e0 f i CashDrawer.obj
 0001:0001e5c0       ?InternalQueryInterface@CComObjectRootBase@ATL@@SAJPEAXPEBU_ATL_INTMAP_ENTRY@2@AEBU_GUID@@PEAPEAX@Z 000000018001f5c0 f i CashDrawer.obj
 0001:0001e6e0       ?InternalRelease@?$CComObjectRootEx@VCComMultiThreadModel@ATL@@@ATL@@QEAAKXZ 000000018001f6e0 f i CashDrawer.obj
 0001:0001e760       ?InternalRelease@?$CComObjectRootEx@VCComSingleThreadModel@ATL@@@ATL@@QEAAKXZ 000000018001f760 f i CashDrawer.obj
 0001:0001e7e0       ?InternalSetAtIndex@?$CSimpleArray@GV?$CSimpleArrayEqualHelper@G@ATL@@@ATL@@QEAAXHAEBG@Z 000000018001f7e0 f i CashDrawer.obj
 0001:0001e860       ?InternalSetAtIndex@?$CSimpleMap@PEA_WPEA_WVCExpansionVectorEqualHelper@ATL@@@ATL@@QEAAXHAEBQEA_W0@Z 000000018001f860 f i CashDrawer.obj
 0001:0001e930       ?Invoke@?$IDispatchImpl@UIOPOSCashDrawer@@$1?IID_IOPOSCashDrawer@@3U_GUID@@B$1?LIBID_OposCashDrawer_CCO@@3U3@B$00$0A@VCComTypeInfoHolder@ATL@@@ATL@@UEAAJJAEBU_GUID@@KGPEAUtagDISPPARAMS@@PEAUtagVARIANT@@PEAUtagEXCEPINFO@@PEAI@Z 000000018001f930 f i CashDrawer.obj
 0001:0001e9d0       ?Invoke@CComTypeInfoHolder@ATL@@QEAAJPEAUIDispatch@@JAEBU_GUID@@KGPEAUtagDISPPARAMS@@PEAUtagVARIANT@@PEAUtagEXCEPINFO@@PEAI@Z 000000018001f9d0 f i CashDrawer.obj
 0001:0001ea90       ?IsDirty@?$IPersistStorageImpl@VCOPOSCashDrawer@@@ATL@@UEAAJXZ 000000018001fa90 f i CashDrawer.obj
 0001:0001eb80       ?IsDirty@?$IPersistStreamInitImpl@VCOPOSCashDrawer@@@ATL@@UEAAJXZ 000000018001fb80 f i CashDrawer.obj
 0001:0001ec40       ?IsEqualKey@CExpansionVectorEqualHelper@ATL@@SA_NQEA_W0@Z 000000018001fc40 f i CashDrawer.obj
 0001:0001ec90       ?IsEqualObject@?$CComPtrBase@UIOleClientSite@@@ATL@@QEAA_NPEAUIUnknown@@@Z 000000018001fc90 f i CashDrawer.obj
 0001:0001ede0       ?IsEqualObject@?$CComPtrBase@UITypeInfo@@@ATL@@QEAA_NPEAUIUnknown@@@Z 000000018001fde0 f i CashDrawer.obj
 0001:0001ef30       ?IsSpace@CRegParser@ATL@@IEAAH_W@Z 000000018001ff30 f i CashDrawer.obj
 0001:0001ef90       ?IsUpToDate@?$IOleObjectImpl@VCOPOSCashDrawer@@@ATL@@UEAAJXZ 000000018001ff90 f i CashDrawer.obj
 0001:0001f000       ?Length@CComBSTR@ATL@@QEBAIXZ 0000000180020000 f i CashDrawer.obj
 0001:0001f040       ?Load@?$IPersistStorageImpl@VCOPOSCashDrawer@@@ATL@@UEAAJPEAUIStorage@@@Z 0000000180020040 f i CashDrawer.obj
 0001:0001f1f0       ?Load@?$IPersistStreamInitImpl@VCOPOSCashDrawer@@@ATL@@UEAAJPEAUIStream@@@Z 00000001800201f0 f i CashDrawer.obj
 0001:0001f2b0       ?LoadCursorW@AtlModuleRegisterWndClassInfoParamW@ATL@@SAPEAUHICON__@@PEAUHINSTANCE__@@PEB_W@Z 00000001800202b0 f i CashDrawer.obj
 0001:0001f2f0       ?LoadNameCache@CComTypeInfoHolder@ATL@@QEAAJPEAUITypeInfo@@@Z 00000001800202f0 f i CashDrawer.obj
 0001:0001f630       ?Lock@?$CComCritSecLock@VCComCriticalSection@ATL@@@ATL@@QEAAJXZ 0000000180020630 f i CashDrawer.obj
 0001:0001f720       ?Lock@?$CComObjectRootEx@VCComSingleThreadModel@ATL@@@ATL@@QEAAXXZ 0000000180020720 f i CashDrawer.obj
 0001:0001f730       ?Lock@CAtlModule@ATL@@UEAAJXZ 0000000180020730 f i CashDrawer.obj
 0001:0001f770       ?Lock@CComCriticalSection@ATL@@QEAAJXZ 0000000180020770 f i CashDrawer.obj
 0001:0001f7b0       ?Lock@CComFakeCriticalSection@ATL@@QEAAJXZ 00000001800207b0 f i CashDrawer.obj
 0001:0001f7c0       ?LockServer@CComClassFactory@ATL@@UEAAJH@Z 00000001800207c0 f i CashDrawer.obj
 0001:0001f820       ?Lookup@?$CSimpleMap@PEA_WPEA_WVCExpansionVectorEqualHelper@ATL@@@ATL@@QEBAPEA_WAEBQEA_W@Z 0000000180020820 f i CashDrawer.obj
 0001:0001f880       ?Next@?$CComEnumImpl@UIEnumConnectionPoints@@$1?_GUID_b196b285_bab4_101a_b69c_00aa00341d07@@3U__s_GUID@@BPEAUIConnectionPoint@@V?$_CopyInterface@UIConnectionPoint@@@ATL@@@ATL@@UEAAJKPEAPEAUIConnectionPoint@@PEAK@Z 0000000180020880 f i CashDrawer.obj
 0001:0001fa40       ?Next@?$CComEnumImpl@UIEnumConnections@@$1?_GUID_b196b287_bab4_101a_b69c_00aa00341d07@@3U__s_GUID@@BUtagCONNECTDATA@@V?$_Copy@UtagCONNECTDATA@@@ATL@@@ATL@@UEAAJKPEAUtagCONNECTDATA@@PEAK@Z 0000000180020a40 f i CashDrawer.obj
 0001:0001fc00       ?NextToken@CRegParser@ATL@@IEAAJPEA_W@Z 0000000180020c00 f i CashDrawer.obj
 0001:0001ff90       ?OLE2CT_EX@@YAPEB_WPEB_WI@Z 0000000180020f90 f i CashDrawer.obj
 0001:0001ffb0       ?OLE2CT_EX_DEF@@YAPEB_WPEB_W@Z 0000000180020fb0 f i CashDrawer.obj
 0001:0001ffc0       ?OLE2T_EX@@YAPEA_WPEA_WI@Z 0000000180020fc0 f i CashDrawer.obj
 0001:0001ffe0       ?OnAmbientPropertyChange@?$IOleControlImpl@VCOPOSCashDrawer@@@ATL@@UEAAJJ@Z 0000000180020fe0 f i CashDrawer.obj
 0001:000200a0       ?OnDocWindowActivate@?$IOleInPlaceActiveObjectImpl@VCOPOSCashDrawer@@@ATL@@UEAAJH@Z 00000001800210a0 f i CashDrawer.obj
 0001:00020160       ?OnDrawAdvanced@CComControlBase@ATL@@UEAAJAEAUATL_DRAWINFO@@@Z 0000000180021160 f i CashDrawer.obj
 0001:000203b0       ?OnFinalMessage@?$CWindowImplBaseT@VCWindow@ATL@@V?$CWinTraits@$0FGAAAAAA@$0A@@2@@ATL@@UEAAXPEAUHWND__@@@Z 00000001800213b0 f i CashDrawer.obj
 0001:000203c0       ?OnFrameWindowActivate@?$IOleInPlaceActiveObjectImpl@VCOPOSCashDrawer@@@ATL@@UEAAJH@Z 00000001800213c0 f i CashDrawer.obj
 0001:00020430       ?OnKillFocus@CComControlBase@ATL@@QEAA_JI_K_JAEAH@Z 0000000180021430 f i CashDrawer.obj
 0001:00020520       ?OnMnemonic@?$IOleControlImpl@VCOPOSCashDrawer@@@ATL@@UEAAJPEAUtagMSG@@@Z 0000000180021520 f i CashDrawer.obj
 0001:000205b0       ?OnMouseActivate@CComControlBase@ATL@@QEAA_JI_K_JAEAH@Z 00000001800215b0 f i CashDrawer.obj
 0001:00020750       ?OnPaint@CComControlBase@ATL@@QEAA_JI_K_JAEAH@Z 0000000180021750 f i CashDrawer.obj
 0001:000208e0       ?OnPostVerbDiscardUndo@?$IOleObjectImpl@VCOPOSCashDrawer@@@ATL@@QEAAJXZ 00000001800218e0 f i CashDrawer.obj
 0001:000208f0       ?OnPostVerbHide@?$IOleObjectImpl@VCOPOSCashDrawer@@@ATL@@QEAAJXZ 00000001800218f0 f i CashDrawer.obj
 0001:00020900       ?OnPostVerbInPlaceActivate@?$IOleObjectImpl@VCOPOSCashDrawer@@@ATL@@QEAAJXZ 0000000180021900 f i CashDrawer.obj
 0001:00020910       ?OnPostVerbOpen@?$IOleObjectImpl@VCOPOSCashDrawer@@@ATL@@QEAAJXZ 0000000180021910 f i CashDrawer.obj
 0001:00020920       ?OnPostVerbShow@?$IOleObjectImpl@VCOPOSCashDrawer@@@ATL@@QEAAJXZ 0000000180021920 f i CashDrawer.obj
 0001:00020930       ?OnPostVerbUIActivate@?$IOleObjectImpl@VCOPOSCashDrawer@@@ATL@@QEAAJXZ 0000000180021930 f i CashDrawer.obj
 0001:00020940       ?OnPreVerbDiscardUndo@?$IOleObjectImpl@VCOPOSCashDrawer@@@ATL@@QEAAJXZ 0000000180021940 f i CashDrawer.obj
 0001:00020950       ?OnPreVerbHide@?$IOleObjectImpl@VCOPOSCashDrawer@@@ATL@@QEAAJXZ 0000000180021950 f i CashDrawer.obj
 0001:00020960       ?OnPreVerbInPlaceActivate@?$IOleObjectImpl@VCOPOSCashDrawer@@@ATL@@QEAAJXZ 0000000180021960 f i CashDrawer.obj
 0001:00020970       ?OnPreVerbOpen@?$IOleObjectImpl@VCOPOSCashDrawer@@@ATL@@QEAAJXZ 0000000180021970 f i CashDrawer.obj
 0001:00020980       ?OnPreVerbShow@?$IOleObjectImpl@VCOPOSCashDrawer@@@ATL@@QEAAJXZ 0000000180021980 f i CashDrawer.obj
 0001:00020990       ?OnPreVerbUIActivate@?$IOleObjectImpl@VCOPOSCashDrawer@@@ATL@@QEAAJXZ 0000000180021990 f i CashDrawer.obj
 0001:000209a0       ?OnSetFocus@CComControlBase@ATL@@QEAA_JI_K_JAEAH@Z 00000001800219a0 f i CashDrawer.obj
 0001:00020ba0       ?OnWindowMessage@?$IOleInPlaceObjectWindowlessImpl@VCOPOSCashDrawer@@@ATL@@UEAAJI_K_JPEA_J@Z 0000000180021ba0 f i CashDrawer.obj
 0001:00020dc0       ?Open@CRegKey@ATL@@QEAAJPEAUHKEY__@@PEB_WK@Z 0000000180021dc0 f i CashDrawer.obj
 0001:00020f40       ?OuterAddRef@CComObjectRootBase@ATL@@QEAAKXZ 0000000180021f40 f i CashDrawer.obj
 0001:00020f80       ?OuterQueryInterface@CComObjectRootBase@ATL@@QEAAJAEBU_GUID@@PEAPEAX@Z 0000000180021f80 f i CashDrawer.obj
 0001:00020fd0       ?OuterRelease@CComObjectRootBase@ATL@@QEAAKXZ 0000000180021fd0 f i CashDrawer.obj
 0001:00021010       ?PreProcessBuffer@CRegParser@ATL@@QEAAJPEA_WPEAPEA_W@Z 0000000180022010 f i CashDrawer.obj
 0001:000216f0       ?PreTranslateAccelerator@CComControlBase@ATL@@QEAAHPEAUtagMSG@@AEAJ@Z 00000001800226f0 f i CashDrawer.obj
 0001:00021710       ?ProcessWindowMessage@?$CComControl@VCOPOSCashDrawer@@V?$CWindowImpl@VCOPOSCashDrawer@@VCWindow@ATL@@V?$CWinTraits@$0FGAAAAAA@$0A@@3@@ATL@@@ATL@@UEAAHPEAUHWND__@@I_K_JAEA_JK@Z 0000000180022710 f i CashDrawer.obj
 0001:00021990       ?ProcessWindowMessage@COPOSCashDrawer@@UEAAHPEAUHWND__@@I_K_JAEA_JK@Z 0000000180022990 f i CashDrawer.obj
 0001:00021b10       ?PutProperty@?$CComPtr@UIDispatch@@@ATL@@QEAAJJPEAUtagVARIANT@@@Z 0000000180022b10 f i CashDrawer.obj
 0001:00021b60       ?PutProperty@?$CComPtr@UIDispatch@@@ATL@@SAJPEAUIDispatch@@JPEAUtagVARIANT@@@Z 0000000180022b60 f i CashDrawer.obj
 0001:00021e00       ?QueryGetData@?$IDataObjectImpl@VCOPOSCashDrawer@@@ATL@@UEAAJPEAUtagFORMATETC@@@Z 0000000180022e00 f i CashDrawer.obj
 0001:00021e90       ?QueryHitPoint@?$IViewObjectExImpl@VCOPOSCashDrawer@@@ATL@@UEAAJKPEBUtagRECT@@UtagPOINT@@JPEAK@Z 0000000180022e90 f i CashDrawer.obj
 0001:00022000       ?QueryHitRect@?$IViewObjectExImpl@VCOPOSCashDrawer@@@ATL@@UEAAJKPEBUtagRECT@@0JPEAK@Z 0000000180023000 f i CashDrawer.obj
 0001:000221d0       ?QueryInterface@?$CComAggObject@VCOPOSCashDrawer@@@ATL@@UEAAJAEBU_GUID@@PEAPEAX@Z 00000001800231d0 f i CashDrawer.obj
 0001:000222c0       ?QueryInterface@?$CComContainedObject@VCOPOSCashDrawer@@@ATL@@UEAAJAEBU_GUID@@PEAPEAX@Z 00000001800232c0 f i CashDrawer.obj
 0001:0002230c       ?QueryInterface@?$CComContainedObject@VCOPOSCashDrawer@@@ATL@@WBAA@EAAJAEBU_GUID@@PEAPEAX@Z 000000018002330c f i CashDrawer.obj
 0001:00022318       ?QueryInterface@?$CComContainedObject@VCOPOSCashDrawer@@@ATL@@WBAI@EAAJAEBU_GUID@@PEAPEAX@Z 0000000180023318 f i CashDrawer.obj
 0001:00022324       ?QueryInterface@?$CComContainedObject@VCOPOSCashDrawer@@@ATL@@WBBA@EAAJAEBU_GUID@@PEAPEAX@Z 0000000180023324 f i CashDrawer.obj
 0001:00022330       ?QueryInterface@?$CComContainedObject@VCOPOSCashDrawer@@@ATL@@WBBI@EAAJAEBU_GUID@@PEAPEAX@Z 0000000180023330 f i CashDrawer.obj
 0001:0002233c       ?QueryInterface@?$CComContainedObject@VCOPOSCashDrawer@@@ATL@@WLI@EAAJAEBU_GUID@@PEAPEAX@Z 000000018002333c f i CashDrawer.obj
 0001:00022348       ?QueryInterface@?$CComContainedObject@VCOPOSCashDrawer@@@ATL@@WMA@EAAJAEBU_GUID@@PEAPEAX@Z 0000000180023348 f i CashDrawer.obj
 0001:00022354       ?QueryInterface@?$CComContainedObject@VCOPOSCashDrawer@@@ATL@@WMI@EAAJAEBU_GUID@@PEAPEAX@Z 0000000180023354 f i CashDrawer.obj
 0001:00022360       ?QueryInterface@?$CComContainedObject@VCOPOSCashDrawer@@@ATL@@WNA@EAAJAEBU_GUID@@PEAPEAX@Z 0000000180023360 f i CashDrawer.obj
 0001:0002236c       ?QueryInterface@?$CComContainedObject@VCOPOSCashDrawer@@@ATL@@WNI@EAAJAEBU_GUID@@PEAPEAX@Z 000000018002336c f i CashDrawer.obj
 0001:00022378       ?QueryInterface@?$CComContainedObject@VCOPOSCashDrawer@@@ATL@@WOA@EAAJAEBU_GUID@@PEAPEAX@Z 0000000180023378 f i CashDrawer.obj
 0001:00022384       ?QueryInterface@?$CComContainedObject@VCOPOSCashDrawer@@@ATL@@WOI@EAAJAEBU_GUID@@PEAPEAX@Z 0000000180023384 f i CashDrawer.obj
 0001:00022390       ?QueryInterface@?$CComContainedObject@VCOPOSCashDrawer@@@ATL@@WPA@EAAJAEBU_GUID@@PEAPEAX@Z 0000000180023390 f i CashDrawer.obj
 0001:0002239c       ?QueryInterface@?$CComContainedObject@VCOPOSCashDrawer@@@ATL@@WPI@EAAJAEBU_GUID@@PEAPEAX@Z 000000018002339c f i CashDrawer.obj
 0001:000223b0       ?QueryInterface@?$CComObject@V?$CComEnum@UIEnumConnectionPoints@@$1?_GUID_b196b285_bab4_101a_b69c_00aa00341d07@@3U__s_GUID@@BPEAUIConnectionPoint@@V?$_CopyInterface@UIConnectionPoint@@@ATL@@VCComSingleThreadModel@6@@ATL@@@ATL@@UEAAJAEBU_GUID@@PEAPEAX@Z 00000001800233b0 f i CashDrawer.obj
 0001:00022400       ?QueryInterface@?$CComObject@V?$CComEnum@UIEnumConnections@@$1?_GUID_b196b287_bab4_101a_b69c_00aa00341d07@@3U__s_GUID@@BUtagCONNECTDATA@@V?$_Copy@UtagCONNECTDATA@@@ATL@@VCComSingleThreadModel@6@@ATL@@@ATL@@UEAAJAEBU_GUID@@PEAPEAX@Z 0000000180023400 f i CashDrawer.obj
 0001:00022450       ?QueryInterface@?$CComObject@VCOPOSCashDrawer@@@ATL@@UEAAJAEBU_GUID@@PEAPEAX@Z 0000000180023450 f i CashDrawer.obj
 0001:00022494       ?QueryInterface@?$CComObject@VCOPOSCashDrawer@@@ATL@@WBAA@EAAJAEBU_GUID@@PEAPEAX@Z 0000000180023494 f i CashDrawer.obj
 0001:000224a0       ?QueryInterface@?$CComObject@VCOPOSCashDrawer@@@ATL@@WBAI@EAAJAEBU_GUID@@PEAPEAX@Z 00000001800234a0 f i CashDrawer.obj
 0001:000224ac       ?QueryInterface@?$CComObject@VCOPOSCashDrawer@@@ATL@@WBBA@EAAJAEBU_GUID@@PEAPEAX@Z 00000001800234ac f i CashDrawer.obj
 0001:000224b8       ?QueryInterface@?$CComObject@VCOPOSCashDrawer@@@ATL@@WBBI@EAAJAEBU_GUID@@PEAPEAX@Z 00000001800234b8 f i CashDrawer.obj
 0001:000224c4       ?QueryInterface@?$CComObject@VCOPOSCashDrawer@@@ATL@@WLI@EAAJAEBU_GUID@@PEAPEAX@Z 00000001800234c4 f i CashDrawer.obj
 0001:000224d0       ?QueryInterface@?$CComObject@VCOPOSCashDrawer@@@ATL@@WMA@EAAJAEBU_GUID@@PEAPEAX@Z 00000001800234d0 f i CashDrawer.obj
 0001:000224dc       ?QueryInterface@?$CComObject@VCOPOSCashDrawer@@@ATL@@WMI@EAAJAEBU_GUID@@PEAPEAX@Z 00000001800234dc f i CashDrawer.obj
 0001:000224e8       ?QueryInterface@?$CComObject@VCOPOSCashDrawer@@@ATL@@WNA@EAAJAEBU_GUID@@PEAPEAX@Z 00000001800234e8 f i CashDrawer.obj
 0001:000224f4       ?QueryInterface@?$CComObject@VCOPOSCashDrawer@@@ATL@@WNI@EAAJAEBU_GUID@@PEAPEAX@Z 00000001800234f4 f i CashDrawer.obj
 0001:00022500       ?QueryInterface@?$CComObject@VCOPOSCashDrawer@@@ATL@@WOA@EAAJAEBU_GUID@@PEAPEAX@Z 0000000180023500 f i CashDrawer.obj
 0001:0002250c       ?QueryInterface@?$CComObject@VCOPOSCashDrawer@@@ATL@@WOI@EAAJAEBU_GUID@@PEAPEAX@Z 000000018002350c f i CashDrawer.obj
 0001:00022518       ?QueryInterface@?$CComObject@VCOPOSCashDrawer@@@ATL@@WPA@EAAJAEBU_GUID@@PEAPEAX@Z 0000000180023518 f i CashDrawer.obj
 0001:00022524       ?QueryInterface@?$CComObject@VCOPOSCashDrawer@@@ATL@@WPI@EAAJAEBU_GUID@@PEAPEAX@Z 0000000180023524 f i CashDrawer.obj
 0001:00022530       ?QueryInterface@?$CComObjectCached@VCComClassFactory@ATL@@@ATL@@UEAAJAEBU_GUID@@PEAPEAX@Z 0000000180023530 f i CashDrawer.obj
 0001:00022580       ?QueryInterface@CRegObject@ATL@@UEAAJAEBU_GUID@@PEAPEAX@Z 0000000180023580 f i CashDrawer.obj
 0001:00022600       ?QuickActivate@?$IQuickActivateImpl@VCOPOSCashDrawer@@@ATL@@UEAAJPEAUtagQACONTAINER@@PEAUtagQACONTROL@@@Z 0000000180023600 f i CashDrawer.obj
 0001:000226c0       ?ReactivateAndUndo@?$IOleInPlaceObjectWindowlessImpl@VCOPOSCashDrawer@@@ATL@@UEAAJXZ 00000001800236c0 f i CashDrawer.obj
 0001:00022740       ?ReadFromStream@CComBSTR@ATL@@QEAAJPEAUIStream@@@Z 0000000180023740 f i CashDrawer.obj
 0001:00022c20       ?ReadFromStream@CComVariant@ATL@@QEAAJPEAUIStream@@GTClassesAllowedInStream@2@K@Z 0000000180023c20 f i CashDrawer.obj
 0001:00023050       ?RecurseDeleteKey@CRegKey@ATL@@QEAAJPEB_W@Z 0000000180024050 f i CashDrawer.obj
 0001:00023270       ?RegCreateKeyExW@CAtlTransactionManager@ATL@@QEAAJPEAUHKEY__@@PEB_WKPEA_WKKQEAU_SECURITY_ATTRIBUTES@@PEAPEAU3@PEAK@Z 0000000180024270 f i CashDrawer.obj
 0001:00023440       ?RegDeleteKeyW@CAtlTransactionManager@ATL@@QEAAJPEAUHKEY__@@PEB_W@Z 0000000180024440 f i CashDrawer.obj
 0001:00023550       ?RegOpenKeyExW@CAtlTransactionManager@ATL@@QEAAJPEAUHKEY__@@PEB_WKKPEAPEAU3@@Z 0000000180024550 f i CashDrawer.obj
 0001:000236a0       ?Register@_ATL_WNDCLASSINFOW@ATL@@QEAAGPEAP6A_JPEAUHWND__@@I_K_J@Z@Z 00000001800246a0 f i CashDrawer.obj
 0001:000236f0       ?RegisterBuffer@CRegParser@ATL@@QEAAJPEA_WH@Z 00000001800246f0 f i CashDrawer.obj
 0001:00023ae0       ?RegisterClassExW@AtlModuleRegisterWndClassInfoParamW@ATL@@SAGPEAU_ATL_WIN_MODULE70@2@PEBUtagWNDCLASSEXW@@@Z 0000000180024ae0 f i CashDrawer.obj
 0001:00023b20       ?RegisterFromResource@CRegObject@ATL@@IEAAJPEB_W00H@Z 0000000180024b20 f i CashDrawer.obj
 0001:00023f80       ?RegisterServer@?$CAtlModuleT@VCComModule@ATL@@@ATL@@QEAAJHPEBU_GUID@@@Z 0000000180024f80 f i CashDrawer.obj
 0001:00024000       ?RegisterServer@CAtlComModule@ATL@@QEAAJHPEBU_GUID@@@Z 0000000180025000 f i CashDrawer.obj
 0001:00024040       ?RegisterServer@CComModule@ATL@@QEAAJHPEBU_GUID@@@Z 0000000180025040 f i CashDrawer.obj
 0001:00024140       ?RegisterSubkeys@CRegParser@ATL@@IEAAJPEA_WPEAUHKEY__@@HH@Z 0000000180025140 f i CashDrawer.obj
 0001:00024f20       ?Release@?$CComAggObject@VCOPOSCashDrawer@@@ATL@@UEAAKXZ 0000000180025f20 f i CashDrawer.obj
 0001:00024fd0       ?Release@?$CComContainedObject@VCOPOSCashDrawer@@@ATL@@UEAAKXZ 0000000180025fd0 f i CashDrawer.obj
 0001:00025008       ?Release@?$CComContainedObject@VCOPOSCashDrawer@@@ATL@@WBAA@EAAKXZ 0000000180026008 f i CashDrawer.obj
 0001:00025014       ?Release@?$CComContainedObject@VCOPOSCashDrawer@@@ATL@@WBAI@EAAKXZ 0000000180026014 f i CashDrawer.obj
 0001:00025020       ?Release@?$CComContainedObject@VCOPOSCashDrawer@@@ATL@@WBBA@EAAKXZ 0000000180026020 f i CashDrawer.obj
 0001:0002502c       ?Release@?$CComContainedObject@VCOPOSCashDrawer@@@ATL@@WBBI@EAAKXZ 000000018002602c f i CashDrawer.obj
 0001:00025038       ?Release@?$CComContainedObject@VCOPOSCashDrawer@@@ATL@@WBCI@EAAKXZ 0000000180026038 f i CashDrawer.obj
 0001:00025044       ?Release@?$CComContainedObject@VCOPOSCashDrawer@@@ATL@@WBEA@EAAKXZ 0000000180026044 f i CashDrawer.obj
 0001:00025050       ?Release@?$CComContainedObject@VCOPOSCashDrawer@@@ATL@@WLI@EAAKXZ 0000000180026050 f i CashDrawer.obj
 0001:0002505c       ?Release@?$CComContainedObject@VCOPOSCashDrawer@@@ATL@@WMA@EAAKXZ 000000018002605c f i CashDrawer.obj
 0001:00025068       ?Release@?$CComContainedObject@VCOPOSCashDrawer@@@ATL@@WMI@EAAKXZ 0000000180026068 f i CashDrawer.obj
 0001:00025074       ?Release@?$CComContainedObject@VCOPOSCashDrawer@@@ATL@@WNA@EAAKXZ 0000000180026074 f i CashDrawer.obj
 0001:00025080       ?Release@?$CComContainedObject@VCOPOSCashDrawer@@@ATL@@WNI@EAAKXZ 0000000180026080 f i CashDrawer.obj
 0001:0002508c       ?Release@?$CComContainedObject@VCOPOSCashDrawer@@@ATL@@WOA@EAAKXZ 000000018002608c f i CashDrawer.obj
 0001:00025098       ?Release@?$CComContainedObject@VCOPOSCashDrawer@@@ATL@@WOI@EAAKXZ 0000000180026098 f i CashDrawer.obj
 0001:000250a4       ?Release@?$CComContainedObject@VCOPOSCashDrawer@@@ATL@@WPA@EAAKXZ 00000001800260a4 f i CashDrawer.obj
 0001:000250b0       ?Release@?$CComContainedObject@VCOPOSCashDrawer@@@ATL@@WPI@EAAKXZ 00000001800260b0 f i CashDrawer.obj
 0001:000250c0       ?Release@?$CComObject@V?$CComEnum@UIEnumConnectionPoints@@$1?_GUID_b196b285_bab4_101a_b69c_00aa00341d07@@3U__s_GUID@@BPEAUIConnectionPoint@@V?$_CopyInterface@UIConnectionPoint@@@ATL@@VCComSingleThreadModel@6@@ATL@@@ATL@@UEAAKXZ 00000001800260c0 f i CashDrawer.obj
 0001:00025170       ?Release@?$CComObject@V?$CComEnum@UIEnumConnections@@$1?_GUID_b196b287_bab4_101a_b69c_00aa00341d07@@3U__s_GUID@@BUtagCONNECTDATA@@V?$_Copy@UtagCONNECTDATA@@@ATL@@VCComSingleThreadModel@6@@ATL@@@ATL@@UEAAKXZ 0000000180026170 f i CashDrawer.obj
 0001:00025220       ?Release@?$CComObject@VCOPOSCashDrawer@@@ATL@@UEAAKXZ 0000000180026220 f i CashDrawer.obj
 0001:000252e8       ?Release@?$CComObject@VCOPOSCashDrawer@@@ATL@@WBAA@EAAKXZ 00000001800262e8 f i CashDrawer.obj
 0001:000252f4       ?Release@?$CComObject@VCOPOSCashDrawer@@@ATL@@WBAI@EAAKXZ 00000001800262f4 f i CashDrawer.obj
 0001:00025300       ?Release@?$CComObject@VCOPOSCashDrawer@@@ATL@@WBBA@EAAKXZ 0000000180026300 f i CashDrawer.obj
 0001:0002530c       ?Release@?$CComObject@VCOPOSCashDrawer@@@ATL@@WBBI@EAAKXZ 000000018002630c f i CashDrawer.obj
 0001:00025318       ?Release@?$CComObject@VCOPOSCashDrawer@@@ATL@@WBCI@EAAKXZ 0000000180026318 f i CashDrawer.obj
 0001:00025324       ?Release@?$CComObject@VCOPOSCashDrawer@@@ATL@@WBEA@EAAKXZ 0000000180026324 f i CashDrawer.obj
 0001:00025330       ?Release@?$CComObject@VCOPOSCashDrawer@@@ATL@@WLI@EAAKXZ 0000000180026330 f i CashDrawer.obj
 0001:0002533c       ?Release@?$CComObject@VCOPOSCashDrawer@@@ATL@@WMA@EAAKXZ 000000018002633c f i CashDrawer.obj
 0001:00025348       ?Release@?$CComObject@VCOPOSCashDrawer@@@ATL@@WMI@EAAKXZ 0000000180026348 f i CashDrawer.obj
 0001:00025354       ?Release@?$CComObject@VCOPOSCashDrawer@@@ATL@@WNA@EAAKXZ 0000000180026354 f i CashDrawer.obj
 0001:00025360       ?Release@?$CComObject@VCOPOSCashDrawer@@@ATL@@WNI@EAAKXZ 0000000180026360 f i CashDrawer.obj
 0001:0002536c       ?Release@?$CComObject@VCOPOSCashDrawer@@@ATL@@WOA@EAAKXZ 000000018002636c f i CashDrawer.obj
 0001:00025378       ?Release@?$CComObject@VCOPOSCashDrawer@@@ATL@@WOI@EAAKXZ 0000000180026378 f i CashDrawer.obj
 0001:00025384       ?Release@?$CComObject@VCOPOSCashDrawer@@@ATL@@WPA@EAAKXZ 0000000180026384 f i CashDrawer.obj
 0001:00025390       ?Release@?$CComObject@VCOPOSCashDrawer@@@ATL@@WPI@EAAKXZ 0000000180026390 f i CashDrawer.obj
 0001:000253a0       ?Release@?$CComObjectCached@VCComClassFactory@ATL@@@ATL@@UEAAKXZ 00000001800263a0 f i CashDrawer.obj
 0001:00025450       ?Release@?$CComPtrBase@UIAdviseSink@@@ATL@@QEAAXXZ 0000000180026450 f i CashDrawer.obj
 0001:000254b0       ?Release@?$CComPtrBase@UIDispatch@@@ATL@@QEAAXXZ 00000001800264b0 f i CashDrawer.obj
 0001:00025510       ?Release@?$CComPtrBase@UIOleInPlaceSiteWindowless@@@ATL@@QEAAXXZ 0000000180026510 f i CashDrawer.obj
 0001:00025570       ?Release@CRegObject@ATL@@UEAAKXZ 0000000180026570 f i CashDrawer.obj
 0001:000255e0       ?Remove@CComDynamicUnkArray@ATL@@QEAAHK@Z 00000001800265e0 f i CashDrawer.obj
 0001:000256c0       ?RemoveAll@?$CSimpleMap@PEA_WPEA_WVCExpansionVectorEqualHelper@ATL@@@ATL@@QEAAXXZ 00000001800266c0 f i CashDrawer.obj
 0001:00025760       ?Reset@?$CComEnumImpl@UIEnumConnectionPoints@@$1?_GUID_b196b285_bab4_101a_b69c_00aa00341d07@@3U__s_GUID@@BPEAUIConnectionPoint@@V?$_CopyInterface@UIConnectionPoint@@@ATL@@@ATL@@UEAAJXZ 0000000180026760 f i CashDrawer.obj
 0001:00025780       ?Reset@?$CComEnumImpl@UIEnumConnections@@$1?_GUID_b196b287_bab4_101a_b69c_00aa00341d07@@3U__s_GUID@@BUtagCONNECTDATA@@V?$_Copy@UtagCONNECTDATA@@@ATL@@@ATL@@UEAAJXZ 0000000180026780 f i CashDrawer.obj
 0001:000257a0       ?ResizeBorder@?$IOleInPlaceActiveObjectImpl@VCOPOSCashDrawer@@@ATL@@UEAAJPEBUtagRECT@@PEAUIOleInPlaceUIWindow@@H@Z 00000001800267a0 f i CashDrawer.obj
 0001:00025820       ?ResourceRegister@CRegObject@ATL@@QEAAJPEB_WI0@Z 0000000180026820 f i CashDrawer.obj
 0001:00025900       ?ResourceRegisterSz@CRegObject@ATL@@QEAAJPEB_W00@Z 0000000180026900 f i CashDrawer.obj
 0001:00025a20       ?ResourceUnregister@CRegObject@ATL@@QEAAJPEB_WI0@Z 0000000180026a20 f i CashDrawer.obj
 0001:00025b00       ?ResourceUnregisterSz@CRegObject@ATL@@QEAAJPEB_W00@Z 0000000180026b00 f i CashDrawer.obj
 0001:00025c20       ?SODataDummy@COPOSCashDrawer@@MEAAJJ@Z 0000000180026c20 f i CashDrawer.obj
 0001:00025c40       ?SODirectIO@COPOSCashDrawer@@MEAAJJPEAJPEAPEA_W@Z 0000000180026c40 f i CashDrawer.obj
 0001:00025e80       ?SOErrorDummy@COPOSCashDrawer@@MEAAJJJJPEAJ@Z 0000000180026e80 f i CashDrawer.obj
 0001:00025ea0       ?SOOutputCompleteDummy@COPOSCashDrawer@@MEAAJJ@Z 0000000180026ea0 f i CashDrawer.obj
 0001:00025ec0       ?SOStatusUpdate@COPOSCashDrawer@@MEAAJJ@Z 0000000180026ec0 f i CashDrawer.obj
 0001:00025f60       ?Save@?$IPersistStorageImpl@VCOPOSCashDrawer@@@ATL@@UEAAJPEAUIStorage@@H@Z 0000000180026f60 f i CashDrawer.obj
 0001:00026120       ?Save@?$IPersistStreamInitImpl@VCOPOSCashDrawer@@@ATL@@UEAAJPEAUIStream@@H@Z 0000000180027120 f i CashDrawer.obj
 0001:000261e0       ?SaveCompleted@?$IPersistStorageImpl@VCOPOSCashDrawer@@@ATL@@UEAAJPEAUIStorage@@@Z 00000001800271e0 f i CashDrawer.obj
 0001:00026250       ?SendOnDataChange@CComControlBase@ATL@@QEAAJK@Z 0000000180027250 f i CashDrawer.obj
 0001:00026340       ?SendOnSave@CComControlBase@ATL@@QEAAJXZ 0000000180027340 f i CashDrawer.obj
 0001:000263b0       ?SendOnViewChange@CComControlBase@ATL@@QEAAJKJ@Z 00000001800273b0 f i CashDrawer.obj
 0001:00026430       ?SetAdvise@?$IViewObjectExImpl@VCOPOSCashDrawer@@@ATL@@UEAAJKKPEAUIAdviseSink@@@Z 0000000180027430 f i CashDrawer.obj
 0001:000264f0       ?SetClientSite@?$IOleObjectImpl@VCOPOSCashDrawer@@@ATL@@UEAAJPEAUIOleClientSite@@@Z 00000001800274f0 f i CashDrawer.obj
 0001:000265a0       ?SetColorScheme@?$IOleObjectImpl@VCOPOSCashDrawer@@@ATL@@UEAAJPEAUtagLOGPALETTE@@@Z 00000001800275a0 f i CashDrawer.obj
 0001:00026630       ?SetContentExtent@?$IQuickActivateImpl@VCOPOSCashDrawer@@@ATL@@UEAAJPEAUtagSIZE@@@Z 0000000180027630 f i CashDrawer.obj
 0001:000266f0       ?SetControlFocus@CComControlBase@ATL@@QEAAHH@Z 00000001800276f0 f i CashDrawer.obj
 0001:00026880       ?SetDWORDValue@CRegKey@ATL@@QEAAJPEB_WK@Z 0000000180027880 f i CashDrawer.obj
 0001:00026930       ?SetData@?$IDataObjectImpl@VCOPOSCashDrawer@@@ATL@@UEAAJPEAUtagFORMATETC@@PEAUtagSTGMEDIUM@@H@Z 0000000180027930 f i CashDrawer.obj
 0001:000269c0       ?SetExtent@?$IOleObjectImpl@VCOPOSCashDrawer@@@ATL@@UEAAJKPEAUtagSIZE@@@Z 00000001800279c0 f i CashDrawer.obj
 0001:00026a80       ?SetHostNames@?$IOleObjectImpl@VCOPOSCashDrawer@@@ATL@@UEAAJPEB_W0@Z 0000000180027a80 f i CashDrawer.obj
 0001:00026b00       ?SetInterfaceSafetyOptions@?$IObjectSafetyImpl@VCOPOSCashDrawer@@$02@ATL@@UEAAJAEBU_GUID@@KK@Z 0000000180027b00 f i CashDrawer.obj
 0001:00026ca0       ?SetMoniker@?$IOleObjectImpl@VCOPOSCashDrawer@@@ATL@@UEAAJKPEAUIMoniker@@@Z 0000000180027ca0 f i CashDrawer.obj
 0001:00026d30       ?SetMultiStringValue@CRegKey@ATL@@QEAAJPEB_W0@Z 0000000180027d30 f i CashDrawer.obj
 0001:00026ea0       ?SetObjectRects@?$IOleInPlaceObjectWindowlessImpl@VCOPOSCashDrawer@@@ATL@@UEAAJPEBUtagRECT@@0@Z 0000000180027ea0 f i CashDrawer.obj
 0001:00026f60       ?SetStringValue@CRegKey@ATL@@QEAAJPEB_W0K@Z 0000000180027f60 f i CashDrawer.obj
 0001:000270e0       ?SetVoid@CComClassFactory@ATL@@QEAAXPEAX@Z 00000001800280e0 f i CashDrawer.obj
 0001:00027100       ?SetVoid@CComObjectRootBase@ATL@@QEAAXPEAX@Z 0000000180028100 f i CashDrawer.obj
 0001:00027110       ?ShowWindow@CWindow@ATL@@QEAAHH@Z 0000000180028110 f i CashDrawer.obj
 0001:000271a0       ?Skip@?$CComEnumImpl@UIEnumConnectionPoints@@$1?_GUID_b196b285_bab4_101a_b69c_00aa00341d07@@3U__s_GUID@@BPEAUIConnectionPoint@@V?$_CopyInterface@UIConnectionPoint@@@ATL@@@ATL@@UEAAJK@Z 00000001800281a0 f i CashDrawer.obj
 0001:00027240       ?Skip@?$CComEnumImpl@UIEnumConnections@@$1?_GUID_b196b287_bab4_101a_b69c_00aa00341d07@@3U__s_GUID@@BUtagCONNECTDATA@@V?$_Copy@UtagCONNECTDATA@@@ATL@@@ATL@@UEAAJK@Z 0000000180028240 f i CashDrawer.obj
 0001:000272e0       ?SkipAssignment@CRegParser@ATL@@IEAAJPEA_W@Z 00000001800282e0 f i CashDrawer.obj
 0001:000273e0       ?SkipWhiteSpace@CRegParser@ATL@@IEAAXXZ 00000001800283e0 f i CashDrawer.obj
 0001:00027440       ?StartWindowProc@?$CWindowImplBaseT@VCWindow@ATL@@V?$CWinTraits@$0FGAAAAAA@$0A@@2@@ATL@@SA_JPEAUHWND__@@I_K_J@Z 0000000180028440 f i CashDrawer.obj
 0001:000275b0       ?StrChrW@CRegParser@ATL@@KAPEA_WPEA_W_W@Z 00000001800285b0 f i CashDrawer.obj
 0001:00027630       ?StrFromMap@CRegObject@ATL@@QEAAPEB_WPEA_W@Z 0000000180028630 f i CashDrawer.obj
 0001:000276f0       ?Swap@?$CComPtrBase@UIAdviseSink@@@ATL@@IEAAXAEAV12@@Z 00000001800286f0 f i CashDrawer.obj
 0001:00027750       ?Swap@?$CComPtrBase@UIOleClientSite@@@ATL@@IEAAXAEAV12@@Z 0000000180028750 f i CashDrawer.obj
 0001:000277b0       ?Swap@?$CComPtrBase@UIUnknown@@@ATL@@IEAAXAEAV12@@Z 00000001800287b0 f i CashDrawer.obj
 0001:00027810       ?T2COLE_EX@@YAPEB_WPEB_WI@Z 0000000180028810 f i CashDrawer.obj
 0001:00027830       ?T2OLE_EX@@YAPEA_WPEA_WI@Z 0000000180028830 f i CashDrawer.obj
 0001:00027850       ?Term@CAtlModule@ATL@@QEAAXXZ 0000000180028850 f i CashDrawer.obj
 0001:00027910       ?Term@CComModule@ATL@@QEAAXXZ 0000000180028910 f i CashDrawer.obj
 0001:00027a00       ?TranslateAcceleratorW@?$IOleInPlaceActiveObjectImpl@VCOPOSCashDrawer@@@ATL@@UEAAJPEAUtagMSG@@@Z 0000000180028a00 f i CashDrawer.obj
 0001:00027c70       ?UIDeactivate@?$IOleInPlaceObjectWindowlessImpl@VCOPOSCashDrawer@@@ATL@@UEAAJXZ 0000000180028c70 f i CashDrawer.obj
 0001:00027d20       ?Unadvise@?$CProxy_IOPOSEvents@VCOPOSCashDrawer@@@@UEAAJK@Z 0000000180028d20 f i CashDrawer.obj
 0001:00027d70       ?Unadvise@?$IConnectionPointImpl@VCOPOSCashDrawer@@$1?DIID__IOPOSCashDrawerEvents@@3U_GUID@@BVCComDynamicUnkArray@ATL@@@ATL@@UEAAJK@Z 0000000180028d70 f i CashDrawer.obj
 0001:00027e60       ?Unadvise@?$IConnectionPointImpl@VCOPOSCashDrawer@@$1?IID_IPropertyNotifySink@@3U_GUID@@BVCComDynamicUnkArray@ATL@@@ATL@@UEAAJK@Z 0000000180028e60 f i CashDrawer.obj
 0001:00027f50       ?Unadvise@?$IOleObjectImpl@VCOPOSCashDrawer@@@ATL@@UEAAJK@Z 0000000180028f50 f i CashDrawer.obj
 0001:00028040       ?Unfreeze@?$IViewObjectExImpl@VCOPOSCashDrawer@@@ATL@@UEAAJK@Z 0000000180029040 f i CashDrawer.obj
 0001:000280c0       ?Unlock@?$CComCritSecLock@VCComCriticalSection@ATL@@@ATL@@QEAAXXZ 00000001800290c0 f i CashDrawer.obj
 0001:00028150       ?Unlock@?$CComObjectRootEx@VCComSingleThreadModel@ATL@@@ATL@@QEAAXXZ 0000000180029150 f i CashDrawer.obj
 0001:00028160       ?Unlock@CAtlModule@ATL@@UEAAJXZ 0000000180029160 f i CashDrawer.obj
 0001:000281a0       ?Unlock@CComCriticalSection@ATL@@QEAAJXZ 00000001800291a0 f i CashDrawer.obj
 0001:000281e0       ?Unlock@CComFakeCriticalSection@ATL@@QEAAJXZ 00000001800291e0 f i CashDrawer.obj
 0001:000281f0       ?UnregisterServer@?$CAtlModuleT@VCComModule@ATL@@@ATL@@QEAAJHPEBU_GUID@@@Z 00000001800291f0 f i CashDrawer.obj
 0001:00028260       ?UnregisterServer@CAtlComModule@ATL@@QEAAJHPEBU_GUID@@@Z 0000000180029260 f i CashDrawer.obj
 0001:000282a0       ?UnregisterServer@CComModule@ATL@@QEAAJHPEBU_GUID@@@Z 00000001800292a0 f i CashDrawer.obj
 0001:00028390       ?Update@?$IOleObjectImpl@VCOPOSCashDrawer@@@ATL@@UEAAJXZ 0000000180029390 f i CashDrawer.obj
 0001:00028400       ?UpdateRegistryFromResource@CAtlModule@ATL@@QEAAJIHPEAU_ATL_REGMAP_ENTRY@2@@Z 0000000180029400 f i CashDrawer.obj
 0001:00028930       ?UpdateRegistryFromResource@CAtlModule@ATL@@QEAAJPEB_WHPEAU_ATL_REGMAP_ENTRY@2@@Z 0000000180029930 f i CashDrawer.obj
 0001:00028e80       ?UpdateRegistryFromResource@CComModule@ATL@@UEAAJIHPEAU_ATL_REGMAP_ENTRY@2@@Z 0000000180029e80 f i CashDrawer.obj
 0001:00028ed0       ?UpdateRegistryFromResource@CComModule@ATL@@UEAAJPEB_WHPEAU_ATL_REGMAP_ENTRY@2@@Z 0000000180029ed0 f i CashDrawer.obj
 0001:00028f20       ?UpdateRegistryFromResourceD@CComModule@ATL@@UEAAJIHPEAU_ATL_REGMAP_ENTRY@2@@Z 0000000180029f20 f i CashDrawer.obj
 0001:00028f40       ?UpdateRegistryFromResourceD@CComModule@ATL@@UEAAJPEB_WHPEAU_ATL_REGMAP_ENTRY@2@@Z 0000000180029f40 f i CashDrawer.obj
 0001:00028f60       ?VTFromRegType@CRegParser@ATL@@KAHPEB_WAEAG@Z 0000000180029f60 f i CashDrawer.obj
 0001:00029040       ?WindowProc@?$CWindowImplBaseT@VCWindow@ATL@@V?$CWinTraits@$0FGAAAAAA@$0A@@2@@ATL@@SA_JPEAUHWND__@@I_K_J@Z 000000018002a040 f i CashDrawer.obj
 0001:00029320       ?WriteToStream@CComBSTR@ATL@@QEAAJPEAUIStream@@@Z 000000018002a320 f i CashDrawer.obj
 0001:00029490       ?WriteToStream@CComVariant@ATL@@QEAAJPEAUIStream@@@Z 000000018002a490 f i CashDrawer.obj
 0001:000298a0       ?WriteToStream@CComVariant@ATL@@QEAAJPEAUIStream@@G@Z 000000018002a8a0 f i CashDrawer.obj
 0001:00029980       ?_AtlFinalConstruct@CComObjectRootBase@ATL@@QEAAJXZ 000000018002a980 f i CashDrawer.obj
 0001:00029990       ?_AtlGetConversionACP@ATL@@YAIXZ 000000018002a990 f i CashDrawer.obj
 0001:000299a0       ?_AtlInitialConstruct@?$CComAggObject@VCOPOSCashDrawer@@@ATL@@QEAAJXZ 000000018002a9a0 f i CashDrawer.obj
 0001:00029a00       ?_AtlInitialConstruct@?$CComObjectRootEx@VCComMultiThreadModel@ATL@@@ATL@@QEAAJXZ 000000018002aa00 f i CashDrawer.obj
 0001:00029a40       ?_AtlInitialConstruct@?$CComObjectRootEx@VCComSingleThreadModel@ATL@@@ATL@@QEAAJXZ 000000018002aa40 f i CashDrawer.obj
 0001:00029a50       ?_AtlVerifyStackAvailable@_ATL_SAFE_ALLOCA_IMPL@ATL@@YA_N_K@Z 000000018002aa50 f i CashDrawer.obj
 0001:00029bb0       ?_GetEntries@?$CComEnum@UIEnumConnectionPoints@@$1?_GUID_b196b285_bab4_101a_b69c_00aa00341d07@@3U__s_GUID@@BPEAUIConnectionPoint@@V?$_CopyInterface@UIConnectionPoint@@@ATL@@VCComSingleThreadModel@6@@ATL@@SAPEBU_ATL_INTMAP_ENTRY@2@XZ 000000018002abb0 f i CashDrawer.obj
 0001:00029bd0       ?_GetEntries@?$CComEnum@UIEnumConnections@@$1?_GUID_b196b287_bab4_101a_b69c_00aa00341d07@@3U__s_GUID@@BUtagCONNECTDATA@@V?$_Copy@UtagCONNECTDATA@@@ATL@@VCComSingleThreadModel@6@@ATL@@SAPEBU_ATL_INTMAP_ENTRY@2@XZ 000000018002abd0 f i CashDrawer.obj
 0001:00029bf0       ?_GetEntries@CComClassFactory@ATL@@SAPEBU_ATL_INTMAP_ENTRY@2@XZ 000000018002abf0 f i CashDrawer.obj
 0001:00029c10       ?_GetEntries@COPOSCashDrawer@@SAPEBU_ATL_INTMAP_ENTRY@ATL@@XZ 000000018002ac10 f i CashDrawer.obj
 0001:00029c30       ?_GetRawUnknown@COPOSCashDrawer@@QEAAPEAUIUnknown@@XZ 000000018002ac30 f i CashDrawer.obj
 0001:00029cc0       ?_GetViewStatus@COPOSCashDrawer@@QEAAKXZ 000000018002acc0 f i CashDrawer.obj
 0001:00029cd0       ?_InternalQueryInterface@?$CComEnum@UIEnumConnectionPoints@@$1?_GUID_b196b285_bab4_101a_b69c_00aa00341d07@@3U__s_GUID@@BPEAUIConnectionPoint@@V?$_CopyInterface@UIConnectionPoint@@@ATL@@VCComSingleThreadModel@6@@ATL@@QEAAJAEBU_GUID@@PEAPEAX@Z 000000018002acd0 f i CashDrawer.obj
 0001:00029d20       ?_InternalQueryInterface@?$CComEnum@UIEnumConnections@@$1?_GUID_b196b287_bab4_101a_b69c_00aa00341d07@@3U__s_GUID@@BUtagCONNECTDATA@@V?$_Copy@UtagCONNECTDATA@@@ATL@@VCComSingleThreadModel@6@@ATL@@QEAAJAEBU_GUID@@PEAPEAX@Z 000000018002ad20 f i CashDrawer.obj
 0001:00029d70       ?_InternalQueryInterface@CComClassFactory@ATL@@QEAAJAEBU_GUID@@PEAPEAX@Z 000000018002ad70 f i CashDrawer.obj
 0001:00029dc0       ?_InternalQueryInterface@COPOSCashDrawer@@QEAAJAEBU_GUID@@PEAPEAX@Z 000000018002adc0 f i CashDrawer.obj
 0001:00029e10       ?_LocCPQueryInterface@?$IConnectionPointImpl@VCOPOSCashDrawer@@$1?DIID__IOPOSCashDrawerEvents@@3U_GUID@@BVCComDynamicUnkArray@ATL@@@ATL@@UEAAJAEBU_GUID@@PEAPEAX@Z 000000018002ae10 f i CashDrawer.obj
 0001:00029ef0       ?_LocCPQueryInterface@?$IConnectionPointImpl@VCOPOSCashDrawer@@$1?IID_IPropertyNotifySink@@3U_GUID@@BVCComDynamicUnkArray@ATL@@@ATL@@UEAAJAEBU_GUID@@PEAPEAX@Z 000000018002aef0 f i CashDrawer.obj
 0001:00029fd0       ?atlCreate@?$CWindowImpl@VCOPOSCashDrawer@@VCWindow@ATL@@V?$CWinTraits@$0FGAAAAAA@$0A@@3@@ATL@@QEAAPEAUHWND__@@PEAU3@V_U_RECT@2@PEB_WKKV_U_MENUorID@2@PEAX@Z 000000018002afd0 f i CashDrawer.obj
 0001:0002a100       ?atlCreate@?$CWindowImplBaseT@VCWindow@ATL@@V?$CWinTraits@$0FGAAAAAA@$0A@@2@@ATL@@QEAAPEAUHWND__@@PEAU3@V_U_RECT@2@PEB_WKKV_U_MENUorID@2@GPEAX@Z 000000018002b100 f i CashDrawer.obj
 0001:0002a360       ?atlCreate@CRegKey@ATL@@QEAAJPEAUHKEY__@@PEB_WPEA_WKKPEAU_SECURITY_ATTRIBUTES@@PEAK@Z 000000018002b360 f i CashDrawer.obj
 0001:0002a550       ?begin@CComDynamicUnkArray@ATL@@QEAAPEAPEAUIUnknown@@XZ 000000018002b550 f i CashDrawer.obj
 0001:0002a560       ?copy@?$_Copy@UtagCONNECTDATA@@@ATL@@SAJPEAUtagCONNECTDATA@@PEBU3@@Z 000000018002b560 f i CashDrawer.obj
 0001:0002a650       ?copy@?$_CopyInterface@UIConnectionPoint@@@ATL@@SAJPEAPEAUIConnectionPoint@@PEBQEAU3@@Z 000000018002b650 f i CashDrawer.obj
 0001:0002a740       ?destroy@?$_Copy@UtagCONNECTDATA@@@ATL@@SAXPEAUtagCONNECTDATA@@@Z 000000018002b740 f i CashDrawer.obj
 0001:0002a790       ?destroy@?$_CopyInterface@UIConnectionPoint@@@ATL@@SAXPEAPEAUIConnectionPoint@@@Z 000000018002b790 f i CashDrawer.obj
 0001:0002a7e0       ?end@CComDynamicUnkArray@ATL@@QEAAPEAPEAUIUnknown@@XZ 000000018002b7e0 f i CashDrawer.obj
 0001:0002a800       ?init@?$_Copy@UtagCONNECTDATA@@@ATL@@SAXPEAUtagCONNECTDATA@@@Z 000000018002b800 f i CashDrawer.obj
 0001:0002a810       ?init@?$_CopyInterface@UIConnectionPoint@@@ATL@@SAXPEAPEAUIConnectionPoint@@@Z 000000018002b810 f i CashDrawer.obj
 0001:0002a820       ?memcpy_s@Checked@ATL@@YAXPEAX_KPEBX1@Z 000000018002b820 f i CashDrawer.obj
 0001:0002a880       ?ocscpy_s@@YA_NPEA_W_KPEB_W@Z 000000018002b880 f i CashDrawer.obj
 0001:0002a900       ?ocslen@@YAHPEB_W@Z        000000018002b900 f i CashDrawer.obj
 0001:0002a940       ?tcsncpy_s@Checked@ATL@@YAHPEA_W_KPEB_W1@Z 000000018002b940 f i CashDrawer.obj
 0001:0002a9a0       ?wcscat_s@Checked@ATL@@YAXPEA_W_KPEB_W@Z 000000018002b9a0 f i CashDrawer.obj
 0001:0002a9f0       ?wcscpy_s@Checked@ATL@@YAXPEA_W_KPEB_W@Z 000000018002b9f0 f i CashDrawer.obj
 0001:0002aa40       ?wcsncpy_s@Checked@ATL@@YAHPEA_W_KPEB_W1@Z 000000018002ba40 f i CashDrawer.obj
 0001:0002aaa0       ?wcsstr@@YAPEA_WPEA_WPEB_W@Z 000000018002baa0 f i CashDrawer.obj
 0001:0002aae0       InlineIsEqualGUID          000000018002bae0 f i CashDrawer.obj
 0001:0002abb0       IsEqualGUID                000000018002bbb0 f i CashDrawer.obj
 0001:0002ac10       ??0COPOSCashDrawer@@QEAA@XZ 000000018002bc10 f   CashDrawerImpl.obj
 0001:0002ad90       ?FinalConstruct@COPOSCashDrawer@@QEAAJXZ 000000018002bd90 f   CashDrawerImpl.obj
 0001:0002ae80       ??1COPOSCashDrawer@@UEAA@XZ 000000018002be80 f   CashDrawerImpl.obj
 0001:0002af60       ?WriteTrace@COPOSCashDrawer@@QEAAXPEB_WZZ 000000018002bf60 f   CashDrawerImpl.obj
 0001:0002b020       ?WriteTraceString@COPOSCashDrawer@@QEAAXPEB_WPEA_W@Z 000000018002c020 f   CashDrawerImpl.obj
 0001:0002b460       ?WriteTraceString@COPOSCashDrawer@@QEAAXPEAXHHHPEB_WZZ 000000018002c460 f   CashDrawerImpl.obj
 0001:0002b6f0       ?WriteTraceError@COPOSCashDrawer@@QEAAXPEB_WK@Z 000000018002c6f0 f   CashDrawerImpl.obj
 0001:0002b7f0       ?WriteTraceMethods@COPOSCashDrawer@@QEAAXPEAJH@Z 000000018002c7f0 f   CashDrawerImpl.obj
 0001:0002b880       ?GetOposProp@COPOSCashDrawer@@IEAAJPEBDJPEAJJ@Z 000000018002c880 f   CashDrawerImpl.obj
 0001:0002bba0       ?SetOposProp@COPOSCashDrawer@@IEAAJPEBDJJJ@Z 000000018002cba0 f   CashDrawerImpl.obj
 0001:0002bf00       ?GetOposProp@COPOSCashDrawer@@IEAAJPEBDJPEAFJ@Z 000000018002cf00 f   CashDrawerImpl.obj
 0001:0002bfa0       ?SetOposProp@COPOSCashDrawer@@IEAAJPEBDJFJ@Z 000000018002cfa0 f   CashDrawerImpl.obj
 0001:0002c020       ?GetOposProp@COPOSCashDrawer@@IEAAJPEBDJPEAPEA_WJ@Z 000000018002d020 f   CashDrawerImpl.obj
 0001:0002c340       ?SetOposProp@COPOSCashDrawer@@IEAAJPEBDJPEA_WJ@Z 000000018002d340 f   CashDrawerImpl.obj
 0001:0002c720       ?DoInvoke@COPOSCashDrawer@@IEAAJPEBDJPEAVOposVariant@@IHPEAJ_N@Z 000000018002d720 f   CashDrawerImpl.obj
 0001:0002d290       ?SetCOFreezeEvents@COPOSCashDrawer@@IEAAXF@Z 000000018002e290 f   CashDrawerImpl.obj
 0001:0002d420       ?FreezeEvents@COPOSCashDrawer@@MEAAJH@Z 000000018002e420 f   CashDrawerImpl.obj
 0001:0002d550       ?OnDraw@COPOSCashDrawer@@MEAAJAEAUATL_DRAWINFO@@@Z 000000018002e550 f   CashDrawerImpl.obj
 0001:0002d720       ?SOProcessID@COPOSCashDrawer@@UEAAJPEAJ@Z 000000018002e720 f   CashDrawerImpl.obj
 0001:0002d780       ?get_OpenResult@COPOSCashDrawer@@UEAAJPEAJ@Z 000000018002e780 f   CashDrawerImpl.obj
 0001:0002d7e0       ?get_CheckHealthText@COPOSCashDrawer@@UEAAJPEAPEA_W@Z 000000018002e7e0 f   CashDrawerImpl.obj
 0001:0002d840       ?get_Claimed@COPOSCashDrawer@@UEAAJPEAF@Z 000000018002e840 f   CashDrawerImpl.obj
 0001:0002d8a0       ?get_DeviceEnabled@COPOSCashDrawer@@UEAAJPEAF@Z 000000018002e8a0 f   CashDrawerImpl.obj
 0001:0002d900       ?put_DeviceEnabled@COPOSCashDrawer@@UEAAJF@Z 000000018002e900 f   CashDrawerImpl.obj
 0001:0002d960       ?get_FreezeEvents@COPOSCashDrawer@@UEAAJPEAF@Z 000000018002e960 f   CashDrawerImpl.obj
 0001:0002d9c0       ?put_FreezeEvents@COPOSCashDrawer@@UEAAJF@Z 000000018002e9c0 f   CashDrawerImpl.obj
 0001:0002daa0       ?get_ResultCode@COPOSCashDrawer@@UEAAJPEAJ@Z 000000018002eaa0 f   CashDrawerImpl.obj
 0001:0002db70       ?get_ResultCodeExtended@COPOSCashDrawer@@UEAAJPEAJ@Z 000000018002eb70 f   CashDrawerImpl.obj
 0001:0002dbd0       ?get_State@COPOSCashDrawer@@UEAAJPEAJ@Z 000000018002ebd0 f   CashDrawerImpl.obj
 0001:0002dc60       ?get_ControlObjectDescription@COPOSCashDrawer@@UEAAJPEAPEA_W@Z 000000018002ec60 f   CashDrawerImpl.obj
 0001:0002dce0       ?get_ControlObjectVersion@COPOSCashDrawer@@UEAAJPEAJ@Z 000000018002ece0 f   CashDrawerImpl.obj
 0001:0002dd40       ?get_ServiceObjectDescription@COPOSCashDrawer@@UEAAJPEAPEA_W@Z 000000018002ed40 f   CashDrawerImpl.obj
 0001:0002dda0       ?get_ServiceObjectVersion@COPOSCashDrawer@@UEAAJPEAJ@Z 000000018002eda0 f   CashDrawerImpl.obj
 0001:0002de00       ?get_DeviceDescription@COPOSCashDrawer@@UEAAJPEAPEA_W@Z 000000018002ee00 f   CashDrawerImpl.obj
 0001:0002de60       ?get_DeviceName@COPOSCashDrawer@@UEAAJPEAPEA_W@Z 000000018002ee60 f   CashDrawerImpl.obj
 0001:0002dec0       ?CheckHealth@COPOSCashDrawer@@UEAAJJPEAJ@Z 000000018002eec0 f   CashDrawerImpl.obj
 0001:0002df80       ?ClaimDevice@COPOSCashDrawer@@UEAAJJPEAJ@Z 000000018002ef80 f   CashDrawerImpl.obj
 0001:0002e090       ?Close@COPOSCashDrawer@@UEAAJPEAJ@Z 000000018002f090 f   CashDrawerImpl.obj
 0001:0002e1a0       ?DirectIO@COPOSCashDrawer@@UEAAJJPEAJPEAPEA_W0@Z 000000018002f1a0 f   CashDrawerImpl.obj
 0001:0002e320       ?Open@COPOSCashDrawer@@UEAAJPEA_WPEAJ@Z 000000018002f320 f   CashDrawerImpl.obj
 0001:0002f7f0       ?ReleaseDevice@COPOSCashDrawer@@UEAAJPEAJ@Z 00000001800307f0 f   CashDrawerImpl.obj
 0001:0002f8a0       ?get_CapStatus@COPOSCashDrawer@@UEAAJPEAF@Z 00000001800308a0 f   CashDrawerImpl.obj
 0001:0002f900       ?get_DrawerOpened@COPOSCashDrawer@@UEAAJPEAF@Z 0000000180030900 f   CashDrawerImpl.obj
 0001:0002f960       ?OpenDrawer@COPOSCashDrawer@@UEAAJPEAJ@Z 0000000180030960 f   CashDrawerImpl.obj
 0001:0002f9d0       ?WaitForDrawerClose@COPOSCashDrawer@@UEAAJJJJJPEAJ@Z 00000001800309d0 f   CashDrawerImpl.obj
 0001:0002fb40       ?get_BinaryConversion@COPOSCashDrawer@@UEAAJPEAJ@Z 0000000180030b40 f   CashDrawerImpl.obj
 0001:0002fba0       ?put_BinaryConversion@COPOSCashDrawer@@UEAAJJ@Z 0000000180030ba0 f   CashDrawerImpl.obj
 0001:0002fc10       ?get_CapPowerReporting@COPOSCashDrawer@@UEAAJPEAJ@Z 0000000180030c10 f   CashDrawerImpl.obj
 0001:0002fc70       ?get_PowerNotify@COPOSCashDrawer@@UEAAJPEAJ@Z 0000000180030c70 f   CashDrawerImpl.obj
 0001:0002fcd0       ?put_PowerNotify@COPOSCashDrawer@@UEAAJJ@Z 0000000180030cd0 f   CashDrawerImpl.obj
 0001:0002fd30       ?get_PowerState@COPOSCashDrawer@@UEAAJPEAJ@Z 0000000180030d30 f   CashDrawerImpl.obj
 0001:0002fd90       ?get_CapStatusMultiDrawerDetect@COPOSCashDrawer@@UEAAJPEAF@Z 0000000180030d90 f   CashDrawerImpl.obj
 0001:0002fdf0       ?get_CapStatisticsReporting@COPOSCashDrawer@@UEAAJPEAF@Z 0000000180030df0 f   CashDrawerImpl.obj
 0001:0002fe50       ?get_CapUpdateStatistics@COPOSCashDrawer@@UEAAJPEAF@Z 0000000180030e50 f   CashDrawerImpl.obj
 0001:0002feb0       ?ResetStatistics@COPOSCashDrawer@@UEAAJPEA_WPEAJ@Z 0000000180030eb0 f   CashDrawerImpl.obj
 0001:0002ff90       ?RetrieveStatistics@COPOSCashDrawer@@UEAAJPEAPEA_WPEAJ@Z 0000000180030f90 f   CashDrawerImpl.obj
 0001:00030070       ?UpdateStatistics@COPOSCashDrawer@@UEAAJPEA_WPEAJ@Z 0000000180031070 f   CashDrawerImpl.obj
 0001:00030150       ?get_CapCompareFirmwareVersion@COPOSCashDrawer@@UEAAJPEAF@Z 0000000180031150 f   CashDrawerImpl.obj
 0001:000301b0       ?get_CapUpdateFirmware@COPOSCashDrawer@@UEAAJPEAF@Z 00000001800311b0 f   CashDrawerImpl.obj
 0001:00030210       ?CompareFirmwareVersion@COPOSCashDrawer@@UEAAJPEA_WPEAJ1@Z 0000000180031210 f   CashDrawerImpl.obj
 0001:00030350       ?UpdateFirmware@COPOSCashDrawer@@UEAAJPEA_WPEAJ@Z 0000000180031350 f   CashDrawerImpl.obj
 0001:00030430       ??0?$CComControl@VCOPOSCashDrawer@@V?$CWindowImpl@VCOPOSCashDrawer@@VCWindow@ATL@@V?$CWinTraits@$0FGAAAAAA@$0A@@3@@ATL@@@ATL@@QEAA@XZ 0000000180031430 f i CashDrawerImpl.obj
 0001:00030480       ??0?$CComPtr@UIAdviseSink@@@ATL@@QEAA@XZ 0000000180031480 f i CashDrawerImpl.obj
 0001:000304c0       ??0?$CComPtr@UIDataAdviseHolder@@@ATL@@QEAA@XZ 00000001800314c0 f i CashDrawerImpl.obj
 0001:00030500       ??0?$CComPtr@UIOleAdviseHolder@@@ATL@@QEAA@XZ 0000000180031500 f i CashDrawerImpl.obj
 0001:00030540       ??0?$CComPtr@UIOleClientSite@@@ATL@@QEAA@XZ 0000000180031540 f i CashDrawerImpl.obj
 0001:00030580       ??0?$CComPtr@UIOleInPlaceSiteWindowless@@@ATL@@QEAA@XZ 0000000180031580 f i CashDrawerImpl.obj
 0001:000305c0       ??0?$CComPtrBase@UIAdviseSink@@@ATL@@IEAA@XZ 00000001800315c0 f i CashDrawerImpl.obj
 0001:000305e0       ??0?$CComPtrBase@UIDataAdviseHolder@@@ATL@@IEAA@XZ 00000001800315e0 f i CashDrawerImpl.obj
 0001:00030600       ??0?$CComPtrBase@UIOleAdviseHolder@@@ATL@@IEAA@XZ 0000000180031600 f i CashDrawerImpl.obj
 0001:00030620       ??0?$CComPtrBase@UIOleClientSite@@@ATL@@IEAA@XZ 0000000180031620 f i CashDrawerImpl.obj
 0001:00030640       ??0?$CComPtrBase@UIOleInPlaceSiteWindowless@@@ATL@@IEAA@XZ 0000000180031640 f i CashDrawerImpl.obj
 0001:00030660       ??0?$CComQIPtr@UIDispatch@@$1?_GUID_00020400_0000_0000_c000_000000000046@@3U__s_GUID@@B@ATL@@QEAA@XZ 0000000180031660 f i CashDrawerImpl.obj
 0001:000306a0       ??0?$CProxy_IOPOSEvents@VCOPOSCashDrawer@@@@QEAA@PEAVCOPOSCashDrawer@@@Z 00000001800316a0 f i CashDrawerImpl.obj
 0001:00030710       ??0?$CWindowImpl@VCOPOSCashDrawer@@VCWindow@ATL@@V?$CWinTraits@$0FGAAAAAA@$0A@@3@@ATL@@QEAA@XZ 0000000180031710 f i CashDrawerImpl.obj
 0001:00030750       ??0?$CWindowImplBaseT@VCWindow@ATL@@V?$CWinTraits@$0FGAAAAAA@$0A@@2@@ATL@@QEAA@XZ 0000000180031750 f i CashDrawerImpl.obj
 0001:000307a0       ??0?$CWindowImplRoot@VCWindow@ATL@@@ATL@@QEAA@XZ 00000001800317a0 f i CashDrawerImpl.obj
 0001:00030810       ??0?$IConnectionPointContainerImpl@VCOPOSCashDrawer@@@ATL@@QEAA@XZ 0000000180031810 f i CashDrawerImpl.obj
 0001:00030850       ??0?$IConnectionPointImpl@VCOPOSCashDrawer@@$1?DIID__IOPOSCashDrawerEvents@@3U_GUID@@BVCComDynamicUnkArray@ATL@@@ATL@@QEAA@XZ 0000000180031850 f i CashDrawerImpl.obj
 0001:000308a0       ??0?$IConnectionPointImpl@VCOPOSCashDrawer@@$1?IID_IPropertyNotifySink@@3U_GUID@@BVCComDynamicUnkArray@ATL@@@ATL@@QEAA@XZ 00000001800318a0 f i CashDrawerImpl.obj
 0001:000308f0       ??0?$IDataObjectImpl@VCOPOSCashDrawer@@@ATL@@QEAA@XZ 00000001800318f0 f i CashDrawerImpl.obj
 0001:00030930       ??0?$IDispatchImpl@UIOPOSCashDrawer@@$1?IID_IOPOSCashDrawer@@3U_GUID@@B$1?LIBID_OposCashDrawer_CCO@@3U3@B$00$0A@VCComTypeInfoHolder@ATL@@@ATL@@QEAA@XZ 0000000180031930 f i CashDrawerImpl.obj
 0001:00030970       ??0?$IObjectSafetyImpl@VCOPOSCashDrawer@@$02@ATL@@QEAA@XZ 0000000180031970 f i CashDrawerImpl.obj
 0001:000309b0       ??0?$IOleControlImpl@VCOPOSCashDrawer@@@ATL@@QEAA@XZ 00000001800319b0 f i CashDrawerImpl.obj
 0001:000309f0       ??0?$IOleInPlaceActiveObjectImpl@VCOPOSCashDrawer@@@ATL@@QEAA@XZ 00000001800319f0 f i CashDrawerImpl.obj
 0001:00030a30       ??0?$IOleInPlaceObjectWindowlessImpl@VCOPOSCashDrawer@@@ATL@@QEAA@XZ 0000000180031a30 f i CashDrawerImpl.obj
 0001:00030a70       ??0?$IOleObjectImpl@VCOPOSCashDrawer@@@ATL@@QEAA@XZ 0000000180031a70 f i CashDrawerImpl.obj
 0001:00030ab0       ??0?$IPersistStorageImpl@VCOPOSCashDrawer@@@ATL@@QEAA@XZ 0000000180031ab0 f i CashDrawerImpl.obj
 0001:00030af0       ??0?$IPersistStreamInitImpl@VCOPOSCashDrawer@@@ATL@@QEAA@XZ 0000000180031af0 f i CashDrawerImpl.obj
 0001:00030b30       ??0?$IPropertyNotifySinkCP@VCOPOSCashDrawer@@VCComDynamicUnkArray@ATL@@@ATL@@QEAA@XZ 0000000180031b30 f i CashDrawerImpl.obj
 0001:00030b70       ??0?$IProvideClassInfo2Impl@$1?CLSID_OPOSCashDrawer@@3U_GUID@@B$1?DIID__IOPOSCashDrawerEvents@@3U2@B$1?LIBID_OposCashDrawer_CCO@@3U2@B$00$0A@VCComTypeInfoHolder@ATL@@@ATL@@QEAA@XZ 0000000180031b70 f i CashDrawerImpl.obj
 0001:00030bb0       ??0?$IQuickActivateImpl@VCOPOSCashDrawer@@@ATL@@QEAA@XZ 0000000180031bb0 f i CashDrawerImpl.obj
 0001:00030bf0       ??0?$ISpecifyPropertyPagesImpl@VCOPOSCashDrawer@@@ATL@@QEAA@XZ 0000000180031bf0 f i CashDrawerImpl.obj
 0001:00030c30       ??0?$IViewObjectExImpl@VCOPOSCashDrawer@@@ATL@@QEAA@XZ 0000000180031c30 f i CashDrawerImpl.obj
 0001:00030c70       ??0?$_ICPLocator@$1?DIID__IOPOSCashDrawerEvents@@3U_GUID@@B@ATL@@QEAA@XZ 0000000180031c70 f i CashDrawerImpl.obj
 0001:00030c80       ??0?$_ICPLocator@$1?IID_IPropertyNotifySink@@3U_GUID@@B@ATL@@QEAA@XZ 0000000180031c80 f i CashDrawerImpl.obj
 0001:00030c90       ??0CComControlBase@ATL@@QEAA@AEAPEAUHWND__@@@Z 0000000180031c90 f i CashDrawerImpl.obj
 0001:00030eb0       ??0CComDynamicUnkArray@ATL@@QEAA@XZ 0000000180031eb0 f i CashDrawerImpl.obj
 0001:00030ee0       ??0CDynamicStdCallThunk2@ATL@@QEAA@XZ 0000000180031ee0 f i CashDrawerImpl.obj
 0001:00030f00       ??0CMessageMap@ATL@@QEAA@XZ 0000000180031f00 f i CashDrawerImpl.obj
 0001:00030f10       ??0CWindow@ATL@@QEAA@PEAUHWND__@@@Z 0000000180031f10 f i CashDrawerImpl.obj
 0001:00030f30       ??0CWndProcThunk@ATL@@QEAA@XZ 0000000180031f30 f i CashDrawerImpl.obj
 0001:00030f70       ??0IConnectionPointContainer@@QEAA@XZ 0000000180031f70 f i CashDrawerImpl.obj
 0001:00030fb0       ??0IDataObject@@QEAA@XZ    0000000180031fb0 f i CashDrawerImpl.obj
 0001:00030ff0       ??0IDispatch@@QEAA@XZ      0000000180031ff0 f i CashDrawerImpl.obj
 0001:00031030       ??0IOPOSCashDrawer@@QEAA@XZ 0000000180032030 f i CashDrawerImpl.obj
 0001:00031070       ??0IOPOSCashDrawer_1_5@@QEAA@XZ 0000000180032070 f i CashDrawerImpl.obj
 0001:000310b0       ??0IOPOSCashDrawer_1_8@@QEAA@XZ 00000001800320b0 f i CashDrawerImpl.obj
 0001:000310f0       ??0IOPOSCashDrawer_1_9@@QEAA@XZ 00000001800320f0 f i CashDrawerImpl.obj
 0001:00031130       ??0IObjectSafety@@QEAA@XZ  0000000180032130 f i CashDrawerImpl.obj
 0001:00031170       ??0IOleControl@@QEAA@XZ    0000000180032170 f i CashDrawerImpl.obj
 0001:000311b0       ??0IOleInPlaceActiveObject@@QEAA@XZ 00000001800321b0 f i CashDrawerImpl.obj
 0001:000311f0       ??0IOleInPlaceObject@@QEAA@XZ 00000001800321f0 f i CashDrawerImpl.obj
 0001:00031230       ??0IOleInPlaceObjectWindowless@@QEAA@XZ 0000000180032230 f i CashDrawerImpl.obj
 0001:00031270       ??0IOleObject@@QEAA@XZ     0000000180032270 f i CashDrawerImpl.obj
 0001:000312b0       ??0IOleWindow@@QEAA@XZ     00000001800322b0 f i CashDrawerImpl.obj
 0001:000312f0       ??0IPersist@@QEAA@XZ       00000001800322f0 f i CashDrawerImpl.obj
 0001:00031330       ??0IPersistStorage@@QEAA@XZ 0000000180032330 f i CashDrawerImpl.obj
 0001:00031370       ??0IPersistStreamInit@@QEAA@XZ 0000000180032370 f i CashDrawerImpl.obj
 0001:000313b0       ??0IProvideClassInfo2@@QEAA@XZ 00000001800323b0 f i CashDrawerImpl.obj
 0001:000313f0       ??0IProvideClassInfo@@QEAA@XZ 00000001800323f0 f i CashDrawerImpl.obj
 0001:00031430       ??0IQuickActivate@@QEAA@XZ 0000000180032430 f i CashDrawerImpl.obj
 0001:00031470       ??0ISpecifyPropertyPages@@QEAA@XZ 0000000180032470 f i CashDrawerImpl.obj
 0001:000314b0       ??0IViewObject2@@QEAA@XZ   00000001800324b0 f i CashDrawerImpl.obj
 0001:000314f0       ??0IViewObject@@QEAA@XZ    00000001800324f0 f i CashDrawerImpl.obj
 0001:00031530       ??0IViewObjectEx@@QEAA@XZ  0000000180032530 f i CashDrawerImpl.obj
 0001:00031570       ??0OposVariantResult@@QEAA@XZ 0000000180032570 f i CashDrawerImpl.obj
 0001:000315b0       ??0_CW@@QEAA@PEBD@Z        00000001800325b0 f i CashDrawerImpl.obj
 0001:00031600       ??0_CW@@QEAA@PEB_W@Z       0000000180032600 f i CashDrawerImpl.obj
 0001:00031650       ??0_CWNCC@@QEAA@PEBD@Z     0000000180032650 f i CashDrawerImpl.obj
 0001:00031690       ??1?$CComControl@VCOPOSCashDrawer@@V?$CWindowImpl@VCOPOSCashDrawer@@VCWindow@ATL@@V?$CWinTraits@$0FGAAAAAA@$0A@@3@@ATL@@@ATL@@UEAA@XZ 0000000180032690 f i CashDrawerImpl.obj
 0001:000316d0       ??1?$CComPtr@UIDataAdviseHolder@@@ATL@@QEAA@XZ 00000001800326d0 f i CashDrawerImpl.obj
 0001:00031700       ??1?$CComPtr@UIOleAdviseHolder@@@ATL@@QEAA@XZ 0000000180032700 f i CashDrawerImpl.obj
 0001:00031730       ??1?$CComPtr@UIOleInPlaceSiteWindowless@@@ATL@@QEAA@XZ 0000000180032730 f i CashDrawerImpl.obj
 0001:00031760       ??1?$CComPtrBase@UIDataAdviseHolder@@@ATL@@QEAA@XZ 0000000180032760 f i CashDrawerImpl.obj
 0001:000317b0       ??1?$CComPtrBase@UIOleAdviseHolder@@@ATL@@QEAA@XZ 00000001800327b0 f i CashDrawerImpl.obj
 0001:00031800       ??1?$CComPtrBase@UIOleInPlaceSiteWindowless@@@ATL@@QEAA@XZ 0000000180032800 f i CashDrawerImpl.obj
 0001:00031850       ??1?$CComQIPtr@UIDispatch@@$1?_GUID_00020400_0000_0000_c000_000000000046@@3U__s_GUID@@B@ATL@@QEAA@XZ 0000000180032850 f i CashDrawerImpl.obj
 0001:00031880       ??1?$CProxy_IOPOSEvents@VCOPOSCashDrawer@@@@QEAA@XZ 0000000180032880 f i CashDrawerImpl.obj
 0001:000318b0       ??1?$CWindowImpl@VCOPOSCashDrawer@@VCWindow@ATL@@V?$CWinTraits@$0FGAAAAAA@$0A@@3@@ATL@@UEAA@XZ 00000001800328b0 f i CashDrawerImpl.obj
 0001:000318e0       ??1?$CWindowImplBaseT@VCWindow@ATL@@V?$CWinTraits@$0FGAAAAAA@$0A@@2@@ATL@@UEAA@XZ 00000001800328e0 f i CashDrawerImpl.obj
 0001:00031910       ??1?$CWindowImplRoot@VCWindow@ATL@@@ATL@@UEAA@XZ 0000000180032910 f i CashDrawerImpl.obj
 0001:000319d0       ??1?$IConnectionPointImpl@VCOPOSCashDrawer@@$1?DIID__IOPOSCashDrawerEvents@@3U_GUID@@BVCComDynamicUnkArray@ATL@@@ATL@@QEAA@XZ 00000001800329d0 f i CashDrawerImpl.obj
 0001:00031a70       ??1?$IConnectionPointImpl@VCOPOSCashDrawer@@$1?IID_IPropertyNotifySink@@3U_GUID@@BVCComDynamicUnkArray@ATL@@@ATL@@QEAA@XZ 0000000180032a70 f i CashDrawerImpl.obj
 0001:00031b10       ??1?$IPropertyNotifySinkCP@VCOPOSCashDrawer@@VCComDynamicUnkArray@ATL@@@ATL@@QEAA@XZ 0000000180032b10 f i CashDrawerImpl.obj
 0001:00031b40       ??1CComControlBase@ATL@@UEAA@XZ 0000000180032b40 f i CashDrawerImpl.obj
 0001:00031c30       ??1CComDynamicUnkArray@ATL@@QEAA@XZ 0000000180032c30 f i CashDrawerImpl.obj
 0001:00031c70       ??1CDynamicStdCallThunk2@ATL@@QEAA@XZ 0000000180032c70 f i CashDrawerImpl.obj
 0001:00031cb0       ??1CWndProcThunk@ATL@@QEAA@XZ 0000000180032cb0 f i CashDrawerImpl.obj
 0001:00031cf0       ??1OposVariantResult@@QEAA@XZ 0000000180032cf0 f i CashDrawerImpl.obj
 0001:00031d30       ??1_CW@@QEAA@XZ            0000000180032d30 f i CashDrawerImpl.obj
 0001:00031db0       ??1_CWNCC@@QEAA@XZ         0000000180032db0 f i CashDrawerImpl.obj
 0001:00031de0       ??B_CW@@QEAAPEB_WXZ        0000000180032de0 f i CashDrawerImpl.obj
 0001:00031e30       ??B_CWNCC@@QEAAPEA_WXZ     0000000180032e30 f i CashDrawerImpl.obj
 0001:00031e60       ??_EOposVariant@@QEAAPEAXI@Z 0000000180032e60 f i CashDrawerImpl.obj
 0001:00031f10       ?EventClose@COPOSCashDrawer@@IEAAXXZ 0000000180032f10 f i CashDrawerImpl.obj
 0001:00031fb0       ?EventInit@COPOSCashDrawer@@IEAAJXZ 0000000180032fb0 f i CashDrawerImpl.obj
 0001:00032260       ?EventOpen@COPOSCashDrawer@@IEAAXXZ 0000000180033260 f i CashDrawerImpl.obj
 0001:000322a0       ?EventPreClose@COPOSCashDrawer@@IEAAXXZ 00000001800332a0 f i CashDrawerImpl.obj
 0001:00032320       ?EventUninit@COPOSCashDrawer@@IEAAXXZ 0000000180033320 f i CashDrawerImpl.obj
 0001:00032450       ?EventWindowProc@COPOSCashDrawer@@IEAA_JI_K_J@Z 0000000180033450 f i CashDrawerImpl.obj
 0001:00032550       ?FireEventCleanup@COPOSCashDrawer@@IEAAXXZ 0000000180033550 f i CashDrawerImpl.obj
 0001:000325a0       ?FireEventSetup@COPOSCashDrawer@@IEAA_NXZ 00000001800335a0 f i CashDrawerImpl.obj
 0001:00032620       ?GetModuleInstance@CComModule@ATL@@QEAAPEAUHINSTANCE__@@XZ 0000000180033620 f i CashDrawerImpl.obj
 0001:00032630       ?SetRC@COPOSCashDrawer@@IEAAJJ@Z 0000000180033630 f i CashDrawerImpl.obj
 0001:00032650       ?s_EventWindowProc@COPOSCashDrawer@@KA_JPEAUHWND__@@I_K_J@Z 0000000180033650 f i CashDrawerImpl.obj
 0001:00032700       _snwprintf                 0000000180033700 f i CashDrawerImpl.obj
 0001:00032790       _vfwprintf_l               0000000180033790 f i CashDrawerImpl.obj
 0001:000327f0       _vsnwprintf                00000001800337f0 f i CashDrawerImpl.obj
 0001:00032850       _vsnwprintf_l              0000000180033850 f i CashDrawerImpl.obj
 0001:000328e0       vfwprintf                  00000001800338e0 f i CashDrawerImpl.obj
 0001:00032925       DebugBreak                 0000000180033925 f   kernel32:KERNEL32.dll
 0001:0003292b       Sleep                      000000018003392b f   kernel32:KERNEL32.dll
 0001:00032931       GetCurrentProcess          0000000180033931 f   kernel32:KERNEL32.dll
 0001:00032937       TerminateProcess           0000000180033937 f   kernel32:KERNEL32.dll
 0001:0003293d       MultiByteToWideChar        000000018003393d f   kernel32:KERNEL32.dll
 0001:00032943       WideCharToMultiByte        0000000180033943 f   kernel32:KERNEL32.dll
 0001:00032949       DecodePointer              0000000180033949 f   kernel32:KERNEL32.dll
 0001:0003294f       RaiseException             000000018003394f f   kernel32:KERNEL32.dll
 0001:00032955       GetLastError               0000000180033955 f   kernel32:KERNEL32.dll
 0001:0003295b       SetLastError               000000018003395b f   kernel32:KERNEL32.dll
 0001:00032961       InitializeCriticalSectionEx 0000000180033961 f   kernel32:KERNEL32.dll
 0001:00032967       DeleteCriticalSection      0000000180033967 f   kernel32:KERNEL32.dll
 0001:0003296d       EncodePointer              000000018003396d f   kernel32:KERNEL32.dll
 0001:00032973       EnterCriticalSection       0000000180033973 f   kernel32:KERNEL32.dll
 0001:00032979       LeaveCriticalSection       0000000180033979 f   kernel32:KERNEL32.dll
 0001:0003297f       ResetEvent                 000000018003397f f   kernel32:KERNEL32.dll
 0001:00032985       ReleaseMutex               0000000180033985 f   kernel32:KERNEL32.dll
 0001:0003298b       WaitForSingleObject        000000018003398b f   kernel32:KERNEL32.dll
 0001:00032991       GetCurrentThreadId         0000000180033991 f   kernel32:KERNEL32.dll
 0001:00032997       DisableThreadLibraryCalls  0000000180033997 f   kernel32:KERNEL32.dll
 0001:0003299d       FreeLibrary                000000018003399d f   kernel32:KERNEL32.dll
 0001:000329a3       GetModuleFileNameW         00000001800339a3 f   kernel32:KERNEL32.dll
 0001:000329a9       GetModuleHandleW           00000001800339a9 f   kernel32:KERNEL32.dll
 0001:000329af       GetProcAddress             00000001800339af f   kernel32:KERNEL32.dll
 0001:000329b5       LoadLibraryExW             00000001800339b5 f   kernel32:KERNEL32.dll
 0001:000329bb       LoadResource               00000001800339bb f   kernel32:KERNEL32.dll
 0001:000329c1       SizeofResource             00000001800339c1 f   kernel32:KERNEL32.dll
 0001:000329c7       GlobalAlloc                00000001800339c7 f   kernel32:KERNEL32.dll
 0001:000329cd       GlobalLock                 00000001800339cd f   kernel32:KERNEL32.dll
 0001:000329d3       GlobalUnlock               00000001800339d3 f   kernel32:KERNEL32.dll
 0001:000329d9       MulDiv                     00000001800339d9 f   kernel32:KERNEL32.dll
 0001:000329df       lstrcmpiW                  00000001800339df f   kernel32:KERNEL32.dll
 0001:000329e5       FindResourceW              00000001800339e5 f   kernel32:KERNEL32.dll
 0001:000329eb       DeleteFileW                00000001800339eb f   kernel32:KERNEL32.dll
 0001:000329f1       CloseHandle                00000001800339f1 f   kernel32:KERNEL32.dll
 0001:000329f7       SetEvent                   00000001800339f7 f   kernel32:KERNEL32.dll
 0001:000329fd       CreateMutexW               00000001800339fd f   kernel32:KERNEL32.dll
 0001:00032a03       CreateEventW               0000000180033a03 f   kernel32:KERNEL32.dll
 0001:00032a09       GetCurrentProcessId        0000000180033a09 f   kernel32:KERNEL32.dll
 0001:00032a0f       LocalFree                  0000000180033a0f f   kernel32:KERNEL32.dll
 0001:00032a15       FormatMessageW             0000000180033a15 f   kernel32:KERNEL32.dll
 0001:00032a1b       GetActiveWindow            0000000180033a1b f   user32:USER32.dll
 0001:00032a21       MessageBoxW                0000000180033a21 f   user32:USER32.dll
 0001:00032a27       UnregisterClassW           0000000180033a27 f   user32:USER32.dll
 0001:00032a2d       PostMessageW               0000000180033a2d f   user32:USER32.dll
 0001:00032a33       DefWindowProcW             0000000180033a33 f   user32:USER32.dll
 0001:00032a39       CallWindowProcW            0000000180033a39 f   user32:USER32.dll
 0001:00032a3f       RegisterClassExW           0000000180033a3f f   user32:USER32.dll
 0001:00032a45       GetClassInfoExW            0000000180033a45 f   user32:USER32.dll
 0001:00032a4b       CreateWindowExW            0000000180033a4b f   user32:USER32.dll
 0001:00032a51       IsWindow                   0000000180033a51 f   user32:USER32.dll
 0001:00032a57       IsChild                    0000000180033a57 f   user32:USER32.dll
 0001:00032a5d       DestroyWindow              0000000180033a5d f   user32:USER32.dll
 0001:00032a63       ShowWindow                 0000000180033a63 f   user32:USER32.dll
 0001:00032a69       SetWindowPos               0000000180033a69 f   user32:USER32.dll
 0001:00032a6f       CharNextW                  0000000180033a6f f   user32:USER32.dll
 0001:00032a75       SetFocus                   0000000180033a75 f   user32:USER32.dll
 0001:00032a7b       GetFocus                   0000000180033a7b f   user32:USER32.dll
 0001:00032a81       GetKeyState                0000000180033a81 f   user32:USER32.dll
 0001:00032a87       GetDC                      0000000180033a87 f   user32:USER32.dll
 0001:00032a8d       ReleaseDC                  0000000180033a8d f   user32:USER32.dll
 0001:00032a93       BeginPaint                 0000000180033a93 f   user32:USER32.dll
 0001:00032a99       EndPaint                   0000000180033a99 f   user32:USER32.dll
 0001:00032a9f       SetWindowRgn               0000000180033a9f f   user32:USER32.dll
 0001:00032aa5       InvalidateRect             0000000180033aa5 f   user32:USER32.dll
 0001:00032aab       GetClientRect              0000000180033aab f   user32:USER32.dll
 0001:00032ab1       IntersectRect              0000000180033ab1 f   user32:USER32.dll
 0001:00032ab7       UnionRect                  0000000180033ab7 f   user32:USER32.dll
 0001:00032abd       OffsetRect                 0000000180033abd f   user32:USER32.dll
 0001:00032ac3       EqualRect                  0000000180033ac3 f   user32:USER32.dll
 0001:00032ac9       PtInRect                   0000000180033ac9 f   user32:USER32.dll
 0001:00032acf       GetWindowLongPtrW          0000000180033acf f   user32:USER32.dll
 0001:00032ad5       SetWindowLongPtrW          0000000180033ad5 f   user32:USER32.dll
 0001:00032adb       GetParent                  0000000180033adb f   user32:USER32.dll
 0001:00032ae1       LoadCursorW                0000000180033ae1 f   user32:USER32.dll
 0001:00032ae7       PeekMessageW               0000000180033ae7 f   user32:USER32.dll
 0001:00032aed       RegisterClassW             0000000180033aed f   user32:USER32.dll
 0001:00032af3       LoadBitmapW                0000000180033af3 f   user32:USER32.dll
 0001:00032af9       CloseMetaFile              0000000180033af9 f   gdi32:GDI32.dll
 0001:00032aff       CreateDCW                  0000000180033aff f   gdi32:GDI32.dll
 0001:00032b05       CreateMetaFileW            0000000180033b05 f   gdi32:GDI32.dll
 0001:00032b0b       CreateRectRgnIndirect      0000000180033b0b f   gdi32:GDI32.dll
 0001:00032b11       DeleteDC                   0000000180033b11 f   gdi32:GDI32.dll
 0001:00032b17       DeleteMetaFile             0000000180033b17 f   gdi32:GDI32.dll
 0001:00032b1d       GetDeviceCaps              0000000180033b1d f   gdi32:GDI32.dll
 0001:00032b23       RestoreDC                  0000000180033b23 f   gdi32:GDI32.dll
 0001:00032b29       SaveDC                     0000000180033b29 f   gdi32:GDI32.dll
 0001:00032b2f       SetMapMode                 0000000180033b2f f   gdi32:GDI32.dll
 0001:00032b35       LPtoDP                     0000000180033b35 f   gdi32:GDI32.dll
 0001:00032b3b       SetViewportOrgEx           0000000180033b3b f   gdi32:GDI32.dll
 0001:00032b41       SetWindowExtEx             0000000180033b41 f   gdi32:GDI32.dll
 0001:00032b47       SetWindowOrgEx             0000000180033b47 f   gdi32:GDI32.dll
 0001:00032b4d       BitBlt                     0000000180033b4d f   gdi32:GDI32.dll
 0001:00032b53       CreateCompatibleDC         0000000180033b53 f   gdi32:GDI32.dll
 0001:00032b59       DeleteObject               0000000180033b59 f   gdi32:GDI32.dll
 0001:00032b5f       SelectObject               0000000180033b5f f   gdi32:GDI32.dll
 0001:00032b65       GetObjectW                 0000000180033b65 f   gdi32:GDI32.dll
 0001:00032b6b       RegCloseKey                0000000180033b6b f   advapi32:ADVAPI32.dll
 0001:00032b71       RegCreateKeyExW            0000000180033b71 f   advapi32:ADVAPI32.dll
 0001:00032b77       RegDeleteKeyW              0000000180033b77 f   advapi32:ADVAPI32.dll
 0001:00032b7d       RegDeleteValueW            0000000180033b7d f   advapi32:ADVAPI32.dll
 0001:00032b83       RegEnumKeyExW              0000000180033b83 f   advapi32:ADVAPI32.dll
 0001:00032b89       RegOpenKeyExW              0000000180033b89 f   advapi32:ADVAPI32.dll
 0001:00032b8f       RegQueryInfoKeyW           0000000180033b8f f   advapi32:ADVAPI32.dll
 0001:00032b95       RegSetValueExW             0000000180033b95 f   advapi32:ADVAPI32.dll
 0001:00032b9b       RegQueryValueExW           0000000180033b9b f   advapi32:ADVAPI32.dll
 0001:00032ba1       CoCreateInstance           0000000180033ba1 f   ole32:ole32.dll
 0001:00032ba7       StringFromGUID2            0000000180033ba7 f   ole32:ole32.dll
 0001:00032bad       CoTaskMemAlloc             0000000180033bad f   ole32:ole32.dll
 0001:00032bb3       CoTaskMemRealloc           0000000180033bb3 f   ole32:ole32.dll
 0001:00032bb9       CoTaskMemFree              0000000180033bb9 f   ole32:ole32.dll
 0001:00032bbf       CreateDataAdviseHolder     0000000180033bbf f   ole32:ole32.dll
 0001:00032bc5       ReadClassStm               0000000180033bc5 f   ole32:ole32.dll
 0001:00032bcb       WriteClassStm              0000000180033bcb f   ole32:ole32.dll
 0001:00032bd1       OleSaveToStream            0000000180033bd1 f   ole32:ole32.dll
 0001:00032bd7       CreateOleAdviseHolder      0000000180033bd7 f   ole32:ole32.dll
 0001:00032bdd       OleRegGetUserType          0000000180033bdd f   ole32:ole32.dll
 0001:00032be3       OleRegGetMiscStatus        0000000180033be3 f   ole32:ole32.dll
 0001:00032be9       OleRegEnumVerbs            0000000180033be9 f   ole32:ole32.dll
 0001:00032bef       CLSIDFromProgID            0000000180033bef f   ole32:ole32.dll
 0001:00032bf5       SysAllocString             0000000180033bf5 f   oleaut32:OLEAUT32.dll
 0001:00032bfb       SysAllocStringLen          0000000180033bfb f   oleaut32:OLEAUT32.dll
 0001:00032c01       SysFreeString              0000000180033c01 f   oleaut32:OLEAUT32.dll
 0001:00032c07       SysStringLen               0000000180033c07 f   oleaut32:OLEAUT32.dll
 0001:00032c0d       VariantClear               0000000180033c0d f   oleaut32:OLEAUT32.dll
 0001:00032c13       VariantCopyInd             0000000180033c13 f   oleaut32:OLEAUT32.dll
 0001:00032c19       VariantChangeType          0000000180033c19 f   oleaut32:OLEAUT32.dll
 0001:00032c1f       SysStringByteLen           0000000180033c1f f   oleaut32:OLEAUT32.dll
 0001:00032c25       SysAllocStringByteLen      0000000180033c25 f   oleaut32:OLEAUT32.dll
 0001:00032c2b       VariantInit                0000000180033c2b f   oleaut32:OLEAUT32.dll
 0001:00032c31       VarUI4FromStr              0000000180033c31 f   oleaut32:OLEAUT32.dll
 0001:00032c37       LoadTypeLib                0000000180033c37 f   oleaut32:OLEAUT32.dll
 0001:00032c3d       LoadRegTypeLib             0000000180033c3d f   oleaut32:OLEAUT32.dll
 0001:00032c43       RegisterTypeLib            0000000180033c43 f   oleaut32:OLEAUT32.dll
 0001:00032c49       UnRegisterTypeLib          0000000180033c49 f   oleaut32:OLEAUT32.dll
 0001:00032c4f       OleCreatePropertyFrame     0000000180033c4f f   oleaut32:OLEAUT32.dll
 0001:00032c60       _RTC_AllocaHelper          0000000180033c60 f   LIBCMTD:stack.obj
 0001:00032ca0       _RTC_CheckStackVars        0000000180033ca0 f   LIBCMTD:stack.obj
 0001:00032d30       _RTC_CheckStackVars2       0000000180033d30 f   LIBCMTD:stack.obj
 0001:00032e40       _CRT_RTC_INIT              0000000180033e40 f   LIBCMTD:init.obj
 0001:00032e50       _CRT_RTC_INITW             0000000180033e50 f   LIBCMTD:init.obj
 0001:00032e60       _RTC_InitBase              0000000180033e60 f   LIBCMTD:init.obj
 0001:00032ea0       _RTC_Shutdown              0000000180033ea0 f   LIBCMTD:init.obj
 0001:00032ed0       __GSHandlerCheck           0000000180033ed0 f   LIBCMTD:gshandler.obj
 0001:00032f10       __GSHandlerCheckCommon     0000000180033f10 f   LIBCMTD:gshandler.obj
 0001:00033020       __security_check_cookie    0000000180034020 f   LIBCMTD:amdsecgs.obj
 0001:00033050       ??_U@YAPEAX_K@Z            0000000180034050 f   LIBCMTD:new_array.obj
 0001:00033070       ??3@YAXPEAX_K@Z            0000000180034070 f   LIBCMTD:delete_scalar_size.obj
 0001:00033090       ??_V@YAXPEAX@Z             0000000180034090 f   LIBCMTD:delete_array.obj
 0001:000330b0       ??_V@YAXPEAX_K@Z           00000001800340b0 f   LIBCMTD:delete_array_size.obj
 0001:000330d0       ??$__crt_fast_decode_pointer@PEAP6AXXZ@@YAPEAP6AXXZQEAP6AXXZ@Z 00000001800340d0 f i LIBCMTD:utility.obj
 0001:00033110       ??$__crt_fast_encode_pointer@PEAP6AXXZ@@YAPEAP6AXXZQEAP6AXXZ@Z 0000000180034110 f i LIBCMTD:utility.obj
 0001:00033150       ?__crt_rotate_pointer_value@@YA_K_KH@Z 0000000180034150 f i LIBCMTD:utility.obj
 0001:00033170       ?configure_argv@__scrt_narrow_argv_policy@@SAHXZ 0000000180034170 f i LIBCMTD:utility.obj
 0001:00033260       ?initialize_environment@__scrt_narrow_environment_policy@@SAHXZ 0000000180034260 f i LIBCMTD:utility.obj
 0001:00033300       NtCurrentTeb               0000000180034300 f i LIBCMTD:utility.obj
 0001:00033310       __scrt_acquire_startup_lock 0000000180034310 f   LIBCMTD:utility.obj
 0001:00033380       __scrt_dllmain_after_initialize_c 0000000180034380 f   LIBCMTD:utility.obj
 0001:000333b0       __scrt_dllmain_before_initialize_c 00000001800343b0 f   LIBCMTD:utility.obj
 0001:000333d0       __scrt_dllmain_crt_thread_attach 00000001800343d0 f   LIBCMTD:utility.obj
 0001:00033400       __scrt_dllmain_crt_thread_detach 0000000180034400 f   LIBCMTD:utility.obj
 0001:00033420       __scrt_dllmain_exception_filter 0000000180034420 f   LIBCMTD:utility.obj
 0001:00033480       __scrt_dllmain_uninitialize_c 0000000180034480 f   LIBCMTD:utility.obj
 0001:000334b0       __scrt_dllmain_uninitialize_critical 00000001800344b0 f   LIBCMTD:utility.obj
 0001:000334d0       __scrt_initialize_crt      00000001800344d0 f   LIBCMTD:utility.obj
 0001:00033520       __scrt_initialize_onexit_tables 0000000180034520 f   LIBCMTD:utility.obj
 0001:00033630       __scrt_is_nonwritable_in_current_image 0000000180034630 f   LIBCMTD:utility.obj
 0001:000336c0       __scrt_release_startup_lock 00000001800346c0 f   LIBCMTD:utility.obj
 0001:000336f0       __scrt_uninitialize_crt    00000001800346f0 f   LIBCMTD:utility.obj
 0001:00033730       _onexit                    0000000180034730 f   LIBCMTD:utility.obj
 0001:000337c0       at_quick_exit              00000001800347c0 f   LIBCMTD:utility.obj
 0001:00033810       atexit                     0000000180034810 f   LIBCMTD:utility.obj
 0001:00033850       ??3@YAXPEAX@Z              0000000180034850 f   LIBCMTD:delete_scalar.obj
 0001:00033870       __raise_securityfailure    0000000180034870 f   LIBCMTD:gs_report.obj
 0001:000338b0       __report_gsfailure         00000001800348b0 f   LIBCMTD:gs_report.obj
 0001:00033990       __report_rangecheckfailure 0000000180034990 f   LIBCMTD:gs_report.obj
 0001:000339b0       __report_securityfailure   00000001800349b0 f   LIBCMTD:gs_report.obj
 0001:00033a50       __report_securityfailureEx 0000000180034a50 f   LIBCMTD:gs_report.obj
 0001:00033d00       ??$__crt_fast_decode_pointer@P6AHPEAU_RTL_CONDITION_VARIABLE@@PEAU_RTL_CRITICAL_SECTION@@K@Z@@YAP6AHPEAU_RTL_CONDITION_VARIABLE@@PEAU_RTL_CRITICAL_SECTION@@K@ZQ6AH01K@Z@Z 0000000180034d00 f i LIBCMTD:thread_safe_statics.obj
 0001:00033d40       ??$__crt_fast_decode_pointer@P6AXPEAU_RTL_CONDITION_VARIABLE@@@Z@@YAP6AXPEAU_RTL_CONDITION_VARIABLE@@@ZQ6AX0@Z@Z 0000000180034d40 f i LIBCMTD:thread_safe_statics.obj
 0001:00033d80       ??$__crt_fast_encode_pointer@P6AHPEAU_RTL_CONDITION_VARIABLE@@PEAU_RTL_CRITICAL_SECTION@@K@Z@@YAP6AHPEAU_RTL_CONDITION_VARIABLE@@PEAU_RTL_CRITICAL_SECTION@@K@ZQ6AH01K@Z@Z 0000000180034d80 f i LIBCMTD:thread_safe_statics.obj
 0001:00033dc0       ??$__crt_fast_encode_pointer@P6AXPEAU_RTL_CONDITION_VARIABLE@@@Z@@YAP6AXPEAU_RTL_CONDITION_VARIABLE@@@ZQ6AX0@Z@Z 0000000180034dc0 f i LIBCMTD:thread_safe_statics.obj
 0001:00033f50       ?__scrt_is_event_api_used@@YA_NQEAX@Z 0000000180034f50 f i LIBCMTD:thread_safe_statics.obj
 0001:00033fd0       _Init_thread_abort         0000000180034fd0 f   LIBCMTD:thread_safe_statics.obj
 0001:00034000       _Init_thread_footer        0000000180035000 f   LIBCMTD:thread_safe_statics.obj
 0001:00034060       _Init_thread_header        0000000180035060 f   LIBCMTD:thread_safe_statics.obj
 0001:000340f0       _Init_thread_lock          00000001800350f0 f   LIBCMTD:thread_safe_statics.obj
 0001:00034110       _Init_thread_notify        0000000180035110 f   LIBCMTD:thread_safe_statics.obj
 0001:00034180       _Init_thread_unlock        0000000180035180 f   LIBCMTD:thread_safe_statics.obj
 0001:000341a0       _Init_thread_wait          00000001800351a0 f   LIBCMTD:thread_safe_statics.obj
 0001:00034260       ??2@YAPEAX_KAEBUnothrow_t@std@@@Z 0000000180035260 f   LIBCMTD:new_scalar_nothrow.obj
 0001:000342a0       ??_U@YAPEAX_KAEBUnothrow_t@std@@@Z 00000001800352a0 f   LIBCMTD:new_array_nothrow.obj
 0001:000342d0       __GSHandlerCheck_SEH       00000001800352d0 f   LIBCMTD:gshandlerseh.obj
 0001:000343a0       _alloca_probe              00000001800353a0 f   LIBCMTD:chkstk.obj
 0001:000343a0       __chkstk                   00000001800353a0 f   LIBCMTD:chkstk.obj
 0001:000347f0       _CRT_INIT                  00000001800357f0 f   LIBCMTD:dll_dllmain.obj
 0001:00034820       _DllMainCRTStartup         0000000180035820 f   LIBCMTD:dll_dllmain.obj
 0001:000348f0       ?_RTC_AllocaFailure@@YAXPEAXPEAU_RTC_ALLOCA_NODE@@H@Z 00000001800358f0 f   LIBCMTD:error.obj
 0001:00034a50       ?_RTC_Failure@@YAXPEAXH@Z  0000000180035a50 f   LIBCMTD:error.obj
 0001:00034aa0       ?_RTC_StackFailure@@YAXPEAXPEBD@Z 0000000180035aa0 f   LIBCMTD:error.obj
 0001:00034ed0       _RTC_UninitUse             0000000180035ed0 f   LIBCMTD:error.obj
 0001:00034fa0       _vsprintf_s_l              0000000180035fa0 f i LIBCMTD:error.obj
 0001:00035010       sprintf_s                  0000000180036010 f i LIBCMTD:error.obj
 0001:00035040       ?_RTC_GetErrorFunc@@YAP6AHHPEBDH00ZZPEBX@Z 0000000180036040 f   LIBCMTD:userapi.obj
 0001:00035050       ?_RTC_GetErrorFuncW@@YAP6AHHPEB_WH00ZZPEBX@Z 0000000180036050 f   LIBCMTD:userapi.obj
 0001:00035060       _RTC_GetErrDesc            0000000180036060 f   LIBCMTD:userapi.obj
 0001:00035080       _RTC_NumErrors             0000000180036080 f   LIBCMTD:userapi.obj
 0001:00035090       _RTC_SetErrorFunc          0000000180036090 f   LIBCMTD:userapi.obj
 0001:000350b0       _RTC_SetErrorFuncW         00000001800360b0 f   LIBCMTD:userapi.obj
 0001:000350d0       _RTC_SetErrorType          00000001800360d0 f   LIBCMTD:userapi.obj
 0001:000350f0       ??2@YAPEAX_K@Z             00000001800360f0 f   LIBCMTD:new_scalar.obj
 0001:00035140       __isa_available_init       0000000180036140 f   LIBCMTD:cpu_disp.obj
 0001:000354b0       _get_startup_argv_mode     00000001800364b0 f   LIBCMTD:argv_mode.obj
 0001:000354c0       __scrt_is_ucrt_dll_in_use  00000001800364c0 f   LIBCMTD:ucrt_detection.obj
 0001:000354f0       __crt_debugger_hook        00000001800364f0 f   LIBCMTD:utility_desktop.obj
 0001:00035500       __scrt_fastfail            0000000180036500 f   LIBCMTD:utility_desktop.obj
 0001:000356a0       __scrt_get_show_window_mode 00000001800366a0 f   LIBCMTD:utility_desktop.obj
 0001:00035700       __scrt_initialize_mta      0000000180036700 f   LIBCMTD:utility_desktop.obj
 0001:00035710       __scrt_initialize_winrt    0000000180036710 f   LIBCMTD:utility_desktop.obj
 0001:00035720       __scrt_is_managed_app      0000000180036720 f   LIBCMTD:utility_desktop.obj
 0001:000357d0       __scrt_set_unhandled_exception_filter 00000001800367d0 f   LIBCMTD:utility_desktop.obj
 0001:000357f0       __scrt_stub_for_initialize_mta 00000001800367f0 f   LIBCMTD:utility_desktop.obj
 0001:000357f0       __scrt_exe_initialize_mta  00000001800367f0 f   LIBCMTD:utility_desktop.obj
 0001:00035800       __scrt_unhandled_exception_filter 0000000180036800 f   LIBCMTD:utility_desktop.obj
 0001:00035880       _guard_check_icall_nop     0000000180036880 f i LIBCMTD:guard_support.obj
 0001:00035890       ReadNoFence64              0000000180036890 f i LIBCMTD:guard_support.obj
 0001:000358b0       ReadPointerNoFence         00000001800368b0 f i LIBCMTD:guard_support.obj
 0001:000358d0       _guard_icall_checks_enforced 00000001800368d0 f i LIBCMTD:guard_support.obj
 0001:00035910       _guard_rf_checks_enforced  0000000180036910 f i LIBCMTD:guard_support.obj
 0001:000359e0       __security_init_cookie     00000001800369e0 f   LIBCMTD:gs_support.obj
 0001:00035a60       ?__scrt_initialize_type_info@@YAXXZ 0000000180036a60 f   LIBCMTD:tncleanup.obj
 0001:00035a80       ?__scrt_uninitialize_type_info@@YAXXZ 0000000180036a80 f   LIBCMTD:tncleanup.obj
 0001:00035aa0       __local_stdio_scanf_options 0000000180036aa0 f i LIBCMTD:default_local_stdio_options.obj
 0001:00035ab0       __scrt_initialize_default_local_stdio_options 0000000180036ab0 f   LIBCMTD:default_local_stdio_options.obj
 0001:00035b00       __scrt_get_dyn_tls_init_callback 0000000180036b00 f   LIBCMTD:dyn_tls_init.obj
 0001:00035b10       _RTC_Initialize            0000000180036b10 f   LIBCMTD:initsect.obj
 0001:00035b60       _RTC_Terminate             0000000180036b60 f   LIBCMTD:initsect.obj
 0001:000360c0       ?_RTC_GetSrcLine@@YAHPEAEPEA_WKPEAH1K@Z 00000001800370c0 f   LIBCMTD:pdblkup.obj
 0001:00036490       ??0bad_alloc@std@@AEAA@QEBD@Z 0000000180037490 f i LIBCMTD:throw_bad_alloc.obj
 0001:000364d0       ??0bad_alloc@std@@QEAA@AEBV01@@Z 00000001800374d0 f i LIBCMTD:throw_bad_alloc.obj
 0001:00036510       ??0bad_alloc@std@@QEAA@XZ  0000000180037510 f i LIBCMTD:throw_bad_alloc.obj
 0001:00036550       ??0bad_array_new_length@std@@QEAA@AEBV01@@Z 0000000180037550 f i LIBCMTD:throw_bad_alloc.obj
 0001:00036590       ??0bad_array_new_length@std@@QEAA@XZ 0000000180037590 f i LIBCMTD:throw_bad_alloc.obj
 0001:000365d0       ??0exception@std@@QEAA@AEBV01@@Z 00000001800375d0 f i LIBCMTD:throw_bad_alloc.obj
 0001:00036630       ??0exception@std@@QEAA@QEBDH@Z 0000000180037630 f i LIBCMTD:throw_bad_alloc.obj
 0001:00036680       ??1bad_alloc@std@@UEAA@XZ  0000000180037680 f i LIBCMTD:throw_bad_alloc.obj
 0001:000366a0       ??1bad_array_new_length@std@@UEAA@XZ 00000001800376a0 f i LIBCMTD:throw_bad_alloc.obj
 0001:000366c0       ??1exception@std@@UEAA@XZ  00000001800376c0 f i LIBCMTD:throw_bad_alloc.obj
 0001:000366f0       ??_Gbad_alloc@std@@UEAAPEAXI@Z 00000001800376f0 f i LIBCMTD:throw_bad_alloc.obj
 0001:000366f0       ??_Ebad_alloc@std@@UEAAPEAXI@Z 00000001800376f0 f i LIBCMTD:throw_bad_alloc.obj
 0001:00036730       ??_Gbad_array_new_length@std@@UEAAPEAXI@Z 0000000180037730 f i LIBCMTD:throw_bad_alloc.obj
 0001:00036730       ??_Ebad_array_new_length@std@@UEAAPEAXI@Z 0000000180037730 f i LIBCMTD:throw_bad_alloc.obj
 0001:00036770       ??_Gexception@std@@UEAAPEAXI@Z 0000000180037770 f i LIBCMTD:throw_bad_alloc.obj
 0001:00036770       ??_Eexception@std@@UEAAPEAXI@Z 0000000180037770 f i LIBCMTD:throw_bad_alloc.obj
 0001:000367b0       ?__scrt_throw_std_bad_alloc@@YAXXZ 00000001800377b0 f   LIBCMTD:throw_bad_alloc.obj
 0001:000367e0       ?__scrt_throw_std_bad_array_new_length@@YAXXZ 00000001800377e0 f   LIBCMTD:throw_bad_alloc.obj
 0001:00036810       ?what@exception@std@@UEBAPEBDXZ 0000000180037810 f i LIBCMTD:throw_bad_alloc.obj
 0001:00036850       ??1type_info@@UEAA@XZ      0000000180037850 f   LIBCMTD:std_type_info_static.obj
 0001:00036870       ??_Etype_info@@UEAAPEAXI@Z 0000000180037870 f i LIBCMTD:std_type_info_static.obj
 0001:00036870       ??_Gtype_info@@UEAAPEAXI@Z 0000000180037870 f i LIBCMTD:std_type_info_static.obj
 0001:000368ac       ??$?2PEAUHINSTANCE__@@@Wrapper@?$CSimpleArray@PEAUHINSTANCE__@@V?$CSimpleArrayEqualHelper@PEAUHINSTANCE__@@@ATL@@@ATL@@SAPEAX_KPEAPEAUHINSTANCE__@@@Z 00000001800378ac f i atls:atlbase.obj
 0001:000368b0       ??0?$CSimpleArray@PEAUHINSTANCE__@@V?$CSimpleArrayEqualHelper@PEAUHINSTANCE__@@@ATL@@@ATL@@QEAA@XZ 00000001800378b0 f i atls:atlbase.obj
 0001:000368c0       ??0CAtlBaseModule@ATL@@QEAA@XZ 00000001800378c0 f   atls:atlbase.obj
 0001:00036968       ??0Wrapper@?$CSimpleArray@PEAUHINSTANCE__@@V?$CSimpleArrayEqualHelper@PEAUHINSTANCE__@@@ATL@@@ATL@@QEAA@AEBQEAUHINSTANCE__@@@Z 0000000180037968 f i atls:atlbase.obj
 0001:00036974       ??0_ATL_BASE_MODULE70@ATL@@QEAA@XZ 0000000180037974 f i atls:atlbase.obj
 0001:000369a0       ??1?$CSimpleArray@PEAUHINSTANCE__@@V?$CSimpleArrayEqualHelper@PEAUHINSTANCE__@@@ATL@@@ATL@@QEAA@XZ 00000001800379a0 f i atls:atlbase.obj
 0001:000369c8       ??1CAtlBaseModule@ATL@@QEAA@XZ 00000001800379c8 f   atls:atlbase.obj
 0001:000369fc       ??1_ATL_BASE_MODULE70@ATL@@QEAA@XZ 00000001800379fc f i atls:atlbase.obj
 0001:00036a28       ??A?$CSimpleArray@PEAUHINSTANCE__@@V?$CSimpleArrayEqualHelper@PEAUHINSTANCE__@@@ATL@@@ATL@@QEAAAEAPEAUHINSTANCE__@@H@Z 0000000180037a28 f i atls:atlbase.obj
 0001:00036a54       ?Add@?$CSimpleArray@PEAUHINSTANCE__@@V?$CSimpleArrayEqualHelper@PEAUHINSTANCE__@@@ATL@@@ATL@@QEAAHAEBQEAUHINSTANCE__@@@Z 0000000180037a54 f i atls:atlbase.obj
 0001:00036b08       ?AddResourceInstance@CAtlBaseModule@ATL@@QEAA_NPEAUHINSTANCE__@@@Z 0000000180037b08 f   atls:atlbase.obj
 0001:00036b50       ?GetHInstanceAt@CAtlBaseModule@ATL@@QEAAPEAUHINSTANCE__@@H@Z 0000000180037b50 f   atls:atlbase.obj
 0001:00036bc8       ?GetSize@?$CSimpleArray@PEAUHINSTANCE__@@V?$CSimpleArrayEqualHelper@PEAUHINSTANCE__@@@ATL@@@ATL@@QEBAHXZ 0000000180037bc8 f i atls:atlbase.obj
 0001:00036bcc       ?InternalSetAtIndex@?$CSimpleArray@PEAUHINSTANCE__@@V?$CSimpleArrayEqualHelper@PEAUHINSTANCE__@@@ATL@@@ATL@@QEAAXHAEBQEAUHINSTANCE__@@@Z 0000000180037bcc f i atls:atlbase.obj
 0001:00036be4       ?RemoveAll@?$CSimpleArray@PEAUHINSTANCE__@@V?$CSimpleArrayEqualHelper@PEAUHINSTANCE__@@@ATL@@@ATL@@QEAAXXZ 0000000180037be4 f i atls:atlbase.obj
 0001:00036c0c       ?RemoveAt@?$CSimpleArray@PEAUHINSTANCE__@@V?$CSimpleArrayEqualHelper@PEAUHINSTANCE__@@@ATL@@@ATL@@QEAAHH@Z 0000000180037c0c f i atls:atlbase.obj
 0001:00036cb0       ?RemoveResourceInstance@CAtlBaseModule@ATL@@QEAA_NPEAUHINSTANCE__@@@Z 0000000180037cb0 f   atls:atlbase.obj
 0001:00036d38       ?memmove_s@Checked@ATL@@YAXPEAX_KPEBX1@Z 0000000180037d38 f i atls:atlbase.obj
 0001:000371e0       ?GetCodeAddress@_stdcallthunk@ATL@@QEAAPEAXXZ 00000001800381e0 f i atls:atlthunk.obj
 0001:0003720c       ?Init@_stdcallthunk@ATL@@QEAAH_KPEAX@Z 000000018003820c f i atls:atlthunk.obj
 0001:0003725c       ?__AllocStdCallThunk@@YAPEAXXZ 000000018003825c f   atls:atlthunk.obj
 0001:00037264       ?__AllocStdCallThunk@ATL@@YAPEAXXZ 0000000180038264 f   atls:atlthunk.obj
 0001:0003726c       ?__AllocStdCallThunk_cmn@@YAPEAXXZ 000000018003826c f   atls:atlthunk.obj
 0001:00037344       ?__FreeStdCallThunk@@YAXPEAX@Z 0000000180038344 f   atls:atlthunk.obj
 0001:00037364       ?__FreeStdCallThunk@ATL@@YAXPEAX@Z 0000000180038364 f   atls:atlthunk.obj
 0001:00037384       ?__FreeStdCallThunk_cmn@@YAXPEAX@Z 0000000180038384 f   atls:atlthunk.obj
 0001:00037424       AtlThunk_AllocateData      0000000180038424 f   atls:atlthunk.obj
 0001:000374a0       AtlThunk_DataToCode        00000001800384a0 f   atls:atlthunk.obj
 0001:000374f4       AtlThunk_FreeData          00000001800384f4 f   atls:atlthunk.obj
 0001:00037554       AtlThunk_InitData          0000000180038554 f   atls:atlthunk.obj
 0001:00037610       memset_repmovs             0000000180038610 f   libvcruntimed:memset.obj
 0001:00037630       memset                     0000000180038630 f   libvcruntimed:memset.obj
 0001:000377c0       ??$__crt_fast_decode_pointer@P6AXXZ@@YAP6AXXZQ6AXXZ@Z 00000001800387c0 f i libvcruntimed:purevirt.obj
 0001:00037800       ??$__crt_fast_encode_pointer@P6AXXZ@@YAP6AXXZQ6AXXZ@Z 0000000180038800 f i libvcruntimed:purevirt.obj
 0001:00037840       ??$__crt_interlocked_exchange_pointer@$$A6AXXZP6AXXZ@@YAP6AXXZPEDS6AXXZQ6AXXZ@Z 0000000180038840 f i libvcruntimed:purevirt.obj
 0001:00037860       ??$__crt_interlocked_read_pointer@$$A6AXXZ@@YAP6AXXZPEDS6AXXZ@Z 0000000180038860 f i libvcruntimed:purevirt.obj
 0001:00037880       ?__crt_interlocked_read_64@@YA_JPED_J@Z 0000000180038880 f i libvcruntimed:purevirt.obj
 0001:000378a0       _get_purecall_handler      00000001800388a0 f   libvcruntimed:purevirt.obj
 0001:000378c0       _purecall                  00000001800388c0 f   libvcruntimed:purevirt.obj
 0001:00037900       _set_purecall_handler      0000000180038900 f   libvcruntimed:purevirt.obj
 0001:00037940       memcmp                     0000000180038940 f   libvcruntimed:memcmp.obj
 0001:00037a20       memcpy_repmovs             0000000180038a20 f   libvcruntimed:memcpy.obj
 0001:00037a40       memmove                    0000000180038a40 f   libvcruntimed:memcpy.obj
 0001:00037a40       memcpy                     0000000180038a40 f   libvcruntimed:memcpy.obj
 0001:00037e80       wcsstr                     0000000180038e80 f   libvcruntimed:wcsstr.obj
 0001:000384e0       __vcrt_initialize          00000001800394e0 f   libvcruntimed:initialization.obj
 0001:00038520       __vcrt_thread_attach       0000000180039520 f   libvcruntimed:initialization.obj
 0001:00038540       __vcrt_thread_detach       0000000180039540 f   libvcruntimed:initialization.obj
 0001:00038560       __vcrt_uninitialize        0000000180039560 f   libvcruntimed:initialization.obj
 0001:00038590       __vcrt_uninitialize_critical 0000000180039590 f   libvcruntimed:initialization.obj
 0001:000385b0       __C_specific_handler       00000001800395b0 f   libvcruntimed:riscchandler.obj
 0001:000389f0       ??$?0AEAViterator@TryBlockMap@__FrameHandler3@@AEAV012@$0A@@?$pair@Viterator@TryBlockMap@__FrameHandler3@@V123@@std@@QEAA@AEAViterator@TryBlockMap@__FrameHandler3@@0@Z 00000001800399f0 f i libvcruntimed:risctrnsctrl.obj
 0001:00038a50       ??$?0AEAViterator@TryBlockMap@__FrameHandler4@@AEAV012@$0A@@?$pair@Viterator@TryBlockMap@__FrameHandler4@@V123@@std@@QEAA@AEAViterator@TryBlockMap@__FrameHandler4@@0@Z 0000000180039a50 f i libvcruntimed:risctrnsctrl.obj
 0001:00038c10       ??$_CallSETranslator@V__FrameHandler3@@@@YAHPEAUEHExceptionRecord@@PEA_KPEAU_CONTEXT@@PEAU_xDISPATCHER_CONTEXT@@PEBU_s_FuncInfo@@K1@Z 0000000180039c10 f i libvcruntimed:risctrnsctrl.obj
 0001:00038c90       ??$_CallSETranslator@V__FrameHandler4@@@@YAHPEAUEHExceptionRecord@@PEA_KPEAU_CONTEXT@@PEAU_xDISPATCHER_CONTEXT@@PEAUFuncInfo4@@K1@Z 0000000180039c90 f i libvcruntimed:risctrnsctrl.obj
 0001:00038d10       ??$forward@AEAViterator@TryBlockMap@__FrameHandler3@@@std@@YAAEAViterator@TryBlockMap@__FrameHandler3@@AEAV123@@Z 0000000180039d10 f i libvcruntimed:risctrnsctrl.obj
 0001:00038d20       ??$forward@AEAViterator@TryBlockMap@__FrameHandler4@@@std@@YAAEAViterator@TryBlockMap@__FrameHandler4@@AEAV123@@Z 0000000180039d20 f i libvcruntimed:risctrnsctrl.obj
 0001:00038d30       ??0FuncInfo4@@QEAA@XZ      0000000180039d30 f i libvcruntimed:risctrnsctrl.obj
 0001:00038d80       ??0iterator@TryBlockMap@__FrameHandler3@@QEAA@AEAV12@I@Z 0000000180039d80 f i libvcruntimed:risctrnsctrl.obj
 0001:00038db0       ??0iterator@TryBlockMap@__FrameHandler4@@QEAA@AEAV12@I@Z 0000000180039db0 f i libvcruntimed:risctrnsctrl.obj
 0001:00038de0       ??4iterator@TryBlockMap@__FrameHandler4@@QEAAAEAV012@AEBV012@@Z 0000000180039de0 f i libvcruntimed:risctrnsctrl.obj
 0001:00038e00       ??9iterator@TryBlockMap@__FrameHandler4@@QEBA_NAEBV012@@Z 0000000180039e00 f i libvcruntimed:risctrnsctrl.obj
 0001:00038e40       ??Diterator@TryBlockMap@__FrameHandler4@@QEAAPEAUTryBlockMapEntry4@@XZ 0000000180039e40 f i libvcruntimed:risctrnsctrl.obj
 0001:00038e60       ??Eiterator@TryBlockMap@__FrameHandler4@@QEAAAEAV012@XZ 0000000180039e60 f i libvcruntimed:risctrnsctrl.obj
 0001:00038ea0       ?CatchTryBlock@__FrameHandler3@@SAPEBU_s_TryBlockMapEntry@@PEBU_s_FuncInfo@@H@Z 0000000180039ea0 f   libvcruntimed:risctrnsctrl.obj
 0001:00038f40       ?DecompFuncInfo@@YAXPEAEAEAUFuncInfo4@@@Z 0000000180039f40 f i libvcruntimed:risctrnsctrl.obj
 0001:00039030       ?DecompTryBlock@TryBlockMap@__FrameHandler4@@AEAAXXZ 000000018003a030 f i libvcruntimed:risctrnsctrl.obj
 0001:000390b0       ?ExecutionInCatch@__FrameHandler3@@SA_NPEAU_xDISPATCHER_CONTEXT@@PEBU_s_FuncInfo@@@Z 000000018003a0b0 f   libvcruntimed:risctrnsctrl.obj
 0001:00039100       ?ExecutionInCatch@__FrameHandler4@@SA_NPEAU_xDISPATCHER_CONTEXT@@PEAUFuncInfo4@@@Z 000000018003a100 f   libvcruntimed:risctrnsctrl.obj
 0001:00039140       ?FrameUnwindToEmptyState@__FrameHandler3@@SAXPEA_KPEAU_xDISPATCHER_CONTEXT@@PEBU_s_FuncInfo@@@Z 000000018003a140 f   libvcruntimed:risctrnsctrl.obj
 0001:000391e0       ?FrameUnwindToEmptyState@__FrameHandler4@@SAXPEA_KPEAU_xDISPATCHER_CONTEXT@@PEAUFuncInfo4@@@Z 000000018003a1e0 f   libvcruntimed:risctrnsctrl.obj
 0001:00039230       ?GetEstablisherFrame@__FrameHandler3@@SAPEA_KPEA_KPEAU_xDISPATCHER_CONTEXT@@PEBU_s_FuncInfo@@0@Z 000000018003a230 f   libvcruntimed:risctrnsctrl.obj
 0001:000393a0       ?GetEstablisherFrame@__FrameHandler4@@SAPEA_KPEA_KPEAU_xDISPATCHER_CONTEXT@@PEAUFuncInfo4@@0@Z 000000018003a3a0 f   libvcruntimed:risctrnsctrl.obj
 0001:00039410       ?GetRangeOfTrysToCheck@__FrameHandler3@@SA?AU?$pair@Viterator@TryBlockMap@__FrameHandler3@@V123@@std@@AEAVTryBlockMap@1@HH@Z 000000018003a410 f   libvcruntimed:risctrnsctrl.obj
 0001:00039660       ?GetRangeOfTrysToCheck@__FrameHandler4@@SA?AU?$pair@Viterator@TryBlockMap@__FrameHandler4@@V123@@std@@AEAVTryBlockMap@1@HH@Z 000000018003a660 f   libvcruntimed:risctrnsctrl.obj
 0001:000397f0       ?ReadInt@@YAHPEAPEAE@Z     000000018003a7f0 f i libvcruntimed:risctrnsctrl.obj
 0001:00039830       ?ReadUnsigned@@YAIPEAPEAE@Z 000000018003a830 f i libvcruntimed:risctrnsctrl.obj
 0001:000398c0       ?UnwindNestedFrames@__FrameHandler3@@SAXPEA_KPEAUEHExceptionRecord@@PEAU_CONTEXT@@0PEAXPEBU_s_FuncInfo@@HHPEBU_s_HandlerType@@PEAU_xDISPATCHER_CONTEXT@@E@Z 000000018003a8c0 f   libvcruntimed:risctrnsctrl.obj
 0001:00039a30       ?UnwindNestedFrames@__FrameHandler4@@SAXPEA_KPEAUEHExceptionRecord@@PEAU_CONTEXT@@0PEAXPEAUFuncInfo4@@HHPEAUHandlerType4@@PEAU_xDISPATCHER_CONTEXT@@E@Z 000000018003aa30 f   libvcruntimed:risctrnsctrl.obj
 0001:00039c60       ?__FuncToImageRelOffset@@YA_KPEAU_xDISPATCHER_CONTEXT@@I@Z 000000018003ac60 f   libvcruntimed:risctrnsctrl.obj
 0001:00039c90       ?begin@TryBlockMap@__FrameHandler4@@QEAA?AViterator@12@XZ 000000018003ac90 f i libvcruntimed:risctrnsctrl.obj
 0001:00039cc0       ?end@TryBlockMap@__FrameHandler4@@QEAA?AViterator@12@XZ 000000018003acc0 f i libvcruntimed:risctrnsctrl.obj
 0001:00039cf0       ?getFuncInfo@TryBlockMap@__FrameHandler3@@QEAAPEBU_s_FuncInfo@@XZ 000000018003acf0 f i libvcruntimed:risctrnsctrl.obj
 0001:00039d00       ?getpDC@TryBlockMap@__FrameHandler3@@QEAAPEAU_xDISPATCHER_CONTEXT@@XZ 000000018003ad00 f i libvcruntimed:risctrnsctrl.obj
 0001:00039d10       ?incrementToSentinel@iterator@TryBlockMap@__FrameHandler4@@QEAAXXZ 000000018003ad10 f i libvcruntimed:risctrnsctrl.obj
 0001:00039d30       ?setBuffer@TryBlockMap@__FrameHandler4@@QEAAXViterator@12@@Z 000000018003ad30 f i libvcruntimed:risctrnsctrl.obj
 0001:00039da0       _CreateFrameInfo           000000018003ada0 f   libvcruntimed:risctrnsctrl.obj
 0001:00039e10       _FindAndUnlinkFrame        000000018003ae10 f   libvcruntimed:risctrnsctrl.obj
 0001:00039e90       _GetImageBase              000000018003ae90 f   libvcruntimed:risctrnsctrl.obj
 0001:00039eb0       _GetThrowImageBase         000000018003aeb0 f   libvcruntimed:risctrnsctrl.obj
 0001:00039ed0       _SetImageBase              000000018003aed0 f   libvcruntimed:risctrnsctrl.obj
 0001:00039ef0       _SetThrowImageBase         000000018003aef0 f   libvcruntimed:risctrnsctrl.obj
 0001:00039f10       __CxxFrameHandler          000000018003af10 f   libvcruntimed:risctrnsctrl.obj
 0001:00039f50       __CxxFrameHandler2         000000018003af50 f   libvcruntimed:risctrnsctrl.obj
 0001:00039f90       __CxxFrameHandler3         000000018003af90 f   libvcruntimed:risctrnsctrl.obj
 0001:0003a050       __CxxFrameHandler4         000000018003b050 f   libvcruntimed:risctrnsctrl.obj
 0001:0003a130       __C_specific_handler_noexcept 000000018003b130 f   libvcruntimed:chandler_noexcept.obj
 0001:0003a1e0       ??$?RD@__crt_internal_free_policy@@QEBAXQEBD@Z 000000018003b1e0 f i libvcruntimed:std_type_info.obj
 0001:0003a210       ??$?RX@__crt_internal_free_policy@@QEBAXQEBX@Z 000000018003b210 f i libvcruntimed:std_type_info.obj
 0001:0003a240       ??$__crt_interlocked_compare_exchange_pointer@$$CBDPEAD$$T@@YAPEBDPEDSEBDQEAD$$T@Z 000000018003b240 f i libvcruntimed:std_type_info.obj
 0001:0003a280       ??$__crt_interlocked_read_pointer@$$CBD@@YAPEBDPEDSEBD@Z 000000018003b280 f i libvcruntimed:std_type_info.obj
 0001:0003a2a0       ??0?$__crt_unique_heap_ptr@DU__crt_internal_free_policy@@@@QEAA@QEAD@Z 000000018003b2a0 f i libvcruntimed:std_type_info.obj
 0001:0003a2c0       ??0?$__crt_unique_heap_ptr@XU__crt_internal_free_policy@@@@QEAA@QEAX@Z 000000018003b2c0 f i libvcruntimed:std_type_info.obj
 0001:0003a2e0       ??1?$__crt_unique_heap_ptr@DU__crt_internal_free_policy@@@@QEAA@XZ 000000018003b2e0 f i libvcruntimed:std_type_info.obj
 0001:0003a300       ??1?$__crt_unique_heap_ptr@XU__crt_internal_free_policy@@@@QEAA@XZ 000000018003b300 f i libvcruntimed:std_type_info.obj
 0001:0003a340       ??B?$__crt_unique_heap_ptr@DU__crt_internal_free_policy@@@@QEBA_NXZ 000000018003b340 f i libvcruntimed:std_type_info.obj
 0001:0003a360       ??B?$__crt_unique_heap_ptr@XU__crt_internal_free_policy@@@@QEBA_NXZ 000000018003b360 f i libvcruntimed:std_type_info.obj
 0001:0003a3e0       ?detach@?$__crt_unique_heap_ptr@XU__crt_internal_free_policy@@@@QEAAPEAXXZ 000000018003b3e0 f i libvcruntimed:std_type_info.obj
 0001:0003a410       ?get@?$__crt_unique_heap_ptr@DU__crt_internal_free_policy@@@@QEBAPEADXZ 000000018003b410 f i libvcruntimed:std_type_info.obj
 0001:0003a420       ?get@?$__crt_unique_heap_ptr@XU__crt_internal_free_policy@@@@QEBAPEAXXZ 000000018003b420 f i libvcruntimed:std_type_info.obj
 0001:0003a430       ?is_valid@?$__crt_unique_heap_ptr@DU__crt_internal_free_policy@@@@QEBA_NXZ 000000018003b430 f i libvcruntimed:std_type_info.obj
 0001:0003a460       ?is_valid@?$__crt_unique_heap_ptr@XU__crt_internal_free_policy@@@@QEBA_NXZ 000000018003b460 f i libvcruntimed:std_type_info.obj
 0001:0003a490       ?release@?$__crt_unique_heap_ptr@DU__crt_internal_free_policy@@@@QEAAXXZ 000000018003b490 f i libvcruntimed:std_type_info.obj
 0001:0003a4c0       ?release@?$__crt_unique_heap_ptr@XU__crt_internal_free_policy@@@@QEAAXXZ 000000018003b4c0 f i libvcruntimed:std_type_info.obj
 0001:0003a4f0       __std_type_info_compare    000000018003b4f0 f   libvcruntimed:std_type_info.obj
 0001:0003a530       __std_type_info_destroy_list 000000018003b530 f   libvcruntimed:std_type_info.obj
 0001:0003a590       __std_type_info_hash       000000018003b590 f   libvcruntimed:std_type_info.obj
 0001:0003a640       __std_type_info_name       000000018003b640 f   libvcruntimed:std_type_info.obj
 0001:0003a930       __vcrt_GetModuleFileNameW  000000018003b930 f   libvcruntimed:winapi_thunks.obj
 0001:0003a960       __vcrt_GetModuleHandleW    000000018003b960 f   libvcruntimed:winapi_thunks.obj
 0001:0003a980       __vcrt_LoadLibraryExW      000000018003b980 f   libvcruntimed:winapi_thunks.obj
 0001:0003a9b0       ??$?RD@__crt_public_free_policy@@QEBAXQEBD@Z 000000018003b9b0 f i libvcruntimed:std_exception.obj
 0001:0003a9d0       ??0?$__crt_unique_heap_ptr@DU__crt_public_free_policy@@@@QEAA@QEAD@Z 000000018003b9d0 f i libvcruntimed:std_exception.obj
 0001:0003a9f0       ??1?$__crt_unique_heap_ptr@DU__crt_public_free_policy@@@@QEAA@XZ 000000018003b9f0 f i libvcruntimed:std_exception.obj
 0001:0003aa10       ??B?$__crt_unique_heap_ptr@DU__crt_public_free_policy@@@@QEBA_NXZ 000000018003ba10 f i libvcruntimed:std_exception.obj
 0001:0003aa30       ?detach@?$__crt_unique_heap_ptr@DU__crt_public_free_policy@@@@QEAAPEADXZ 000000018003ba30 f i libvcruntimed:std_exception.obj
 0001:0003aa60       ?get@?$__crt_unique_heap_ptr@DU__crt_public_free_policy@@@@QEBAPEADXZ 000000018003ba60 f i libvcruntimed:std_exception.obj
 0001:0003aa70       ?is_valid@?$__crt_unique_heap_ptr@DU__crt_public_free_policy@@@@QEBA_NXZ 000000018003ba70 f i libvcruntimed:std_exception.obj
 0001:0003aaa0       ?release@?$__crt_unique_heap_ptr@DU__crt_public_free_policy@@@@QEAAXXZ 000000018003baa0 f i libvcruntimed:std_exception.obj
 0001:0003aad0       __std_exception_copy       000000018003bad0 f   libvcruntimed:std_exception.obj
 0001:0003ac00       __std_exception_destroy    000000018003bc00 f   libvcruntimed:std_exception.obj
 0001:0003ac40       _CxxThrowException         000000018003bc40 f   libvcruntimed:throw.obj
 0001:0003ad90       ??$?B$$A6AXXZ@__crt_fast_encoded_nullptr_t@@QEBAP6AXXZXZ 000000018003bd90 f i libvcruntimed:purevirt_data.obj
 0001:0003adb0       ?__crt_fast_encode_pointer@@YA?AU__crt_fast_encoded_nullptr_t@@$$T@Z 000000018003bdb0 f i libvcruntimed:purevirt_data.obj
 0001:0003add0       __vcrt_initialize_pure_virtual_call_handler 000000018003bdd0 f   libvcruntimed:purevirt_data.obj
 0001:0003ae00       ??$?RU__vcrt_ptd@@@__crt_internal_free_policy@@QEBAXQEBU__vcrt_ptd@@@Z 000000018003be00 f i libvcruntimed:per_thread_data.obj
 0001:0003ae30       ??0?$__crt_unique_heap_ptr@U__vcrt_ptd@@U__crt_internal_free_policy@@@@QEAA@QEAU__vcrt_ptd@@@Z 000000018003be30 f i libvcruntimed:per_thread_data.obj
 0001:0003ae70       ??1?$__crt_unique_heap_ptr@U__vcrt_ptd@@U__crt_internal_free_policy@@@@QEAA@XZ 000000018003be70 f i libvcruntimed:per_thread_data.obj
 0001:0003aeb0       ??B?$__crt_unique_heap_ptr@U__vcrt_ptd@@U__crt_internal_free_policy@@@@QEBA_NXZ 000000018003beb0 f i libvcruntimed:per_thread_data.obj
 0001:0003aed0       ?detach@?$__crt_unique_heap_ptr@U__vcrt_ptd@@U__crt_internal_free_policy@@@@QEAAPEAU__vcrt_ptd@@XZ 000000018003bed0 f i libvcruntimed:per_thread_data.obj
 0001:0003af00       ?get@?$__crt_unique_heap_ptr@U__vcrt_ptd@@U__crt_internal_free_policy@@@@QEBAPEAU__vcrt_ptd@@XZ 000000018003bf00 f i libvcruntimed:per_thread_data.obj
 0001:0003af10       ?is_valid@?$__crt_unique_heap_ptr@U__vcrt_ptd@@U__crt_internal_free_policy@@@@QEBA_NXZ 000000018003bf10 f i libvcruntimed:per_thread_data.obj
 0001:0003af40       ?release@?$__crt_unique_heap_ptr@U__vcrt_ptd@@U__crt_internal_free_policy@@@@QEAAXXZ 000000018003bf40 f i libvcruntimed:per_thread_data.obj
 0001:0003afc0       __vcrt_freefls             000000018003bfc0 f   libvcruntimed:per_thread_data.obj
 0001:0003b000       __vcrt_freeptd             000000018003c000 f   libvcruntimed:per_thread_data.obj
 0001:0003b060       __vcrt_getptd              000000018003c060 f   libvcruntimed:per_thread_data.obj
 0001:0003b090       __vcrt_getptd_noexit       000000018003c090 f   libvcruntimed:per_thread_data.obj
 0001:0003b230       __vcrt_getptd_noinit       000000018003c230 f   libvcruntimed:per_thread_data.obj
 0001:0003b290       __vcrt_initialize_ptd      000000018003c290 f   libvcruntimed:per_thread_data.obj
 0001:0003b2e0       __vcrt_uninitialize_ptd    000000018003c2e0 f   libvcruntimed:per_thread_data.obj
 0001:0003b310       __vcrt_initialize_locks    000000018003c310 f   libvcruntimed:locks.obj
 0001:0003b380       __vcrt_lock                000000018003c380 f   libvcruntimed:locks.obj
 0001:0003b3b0       __vcrt_uninitialize_locks  000000018003c3b0 f   libvcruntimed:locks.obj
 0001:0003b410       __vcrt_unlock              000000018003c410 f   libvcruntimed:locks.obj
 0001:0003b440       ??$?BX@__crt_fast_encoded_nullptr_t@@QEBAPEAXXZ 000000018003c440 f i libvcruntimed:winapi_downlevel.obj
 0001:0003b460       ??$__crt_fast_decode_pointer@PEAX@@YAPEAXQEAX@Z 000000018003c460 f i libvcruntimed:winapi_downlevel.obj
 0001:0003b4a0       ??$__crt_fast_encode_pointer@PEAX@@YAPEAXQEAX@Z 000000018003c4a0 f i libvcruntimed:winapi_downlevel.obj
 0001:0003b4e0       ??$__crt_interlocked_exchange_pointer@UHINSTANCE__@@PEAU1@@@YAPEAUHINSTANCE__@@PEDSEAU0@QEAU0@@Z 000000018003c4e0 f i libvcruntimed:winapi_downlevel.obj
 0001:0003b500       ??$__crt_interlocked_exchange_pointer@UHINSTANCE__@@PEAX@@YAPEAUHINSTANCE__@@PEDSEAU0@QEAX@Z 000000018003c500 f i libvcruntimed:winapi_downlevel.obj
 0001:0003b520       ??$__crt_interlocked_exchange_pointer@XPEAX@@YAPEAXPEDSEAXQEAX@Z 000000018003c520 f i libvcruntimed:winapi_downlevel.obj
 0001:0003b540       ??$__crt_interlocked_read_pointer@UHINSTANCE__@@@@YAPEAUHINSTANCE__@@PEDSEAU0@@Z 000000018003c540 f i libvcruntimed:winapi_downlevel.obj
 0001:0003b560       ??$__crt_interlocked_read_pointer@X@@YAPEAXPEDSEAX@Z 000000018003c560 f i libvcruntimed:winapi_downlevel.obj
 0001:0003bac0       __vcrt_FlsAlloc            000000018003cac0 f   libvcruntimed:winapi_downlevel.obj
 0001:0003bb10       __vcrt_FlsFree             000000018003cb10 f   libvcruntimed:winapi_downlevel.obj
 0001:0003bb60       __vcrt_FlsGetValue         000000018003cb60 f   libvcruntimed:winapi_downlevel.obj
 0001:0003bbb0       __vcrt_FlsSetValue         000000018003cbb0 f   libvcruntimed:winapi_downlevel.obj
 0001:0003bc10       __vcrt_InitializeCriticalSectionEx 000000018003cc10 f   libvcruntimed:winapi_downlevel.obj
 0001:0003bc70       __vcrt_initialize_winapi_thunks 000000018003cc70 f   libvcruntimed:winapi_downlevel.obj
 0001:0003bcf0       __vcrt_uninitialize_winapi_thunks 000000018003ccf0 f   libvcruntimed:winapi_downlevel.obj
 0001:0003bda0       _NLG_Notify                000000018003cda0 f   libvcruntimed:notify.obj
 0001:0003bdc0       __NLG_Dispatch2            000000018003cdc0 f   libvcruntimed:notify.obj
 0001:0003bdd0       __NLG_Return2              000000018003cdd0 f   libvcruntimed:notify.obj
 0001:0003bdf0       __except_validate_context_record 000000018003cdf0 f   libvcruntimed:jbcxrval.obj
 0001:0003be50       __except_validate_jump_buffer 000000018003ce50 f   libvcruntimed:jbcxrval.obj
 0001:0003be70       __except_validate_jump_buffer_common 000000018003ce70 f i libvcruntimed:jbcxrval.obj
 0001:0003bef0       __DestructExceptionObject  000000018003cef0 f   libvcruntimed:ehhelpers.obj
 0001:0003bff0       ?_CallMemberFunction0@@YAXQEAX0@Z 000000018003cff0 f i libvcruntimed:ehhelpers.obj
 0001:0003c020       ?raw_name@type_info@@QEBAPEBDXZ 000000018003d020 f i libvcruntimed:ehhelpers.obj
 0001:0003c030       _IsExceptionObjectToBeDestroyed 000000018003d030 f   libvcruntimed:ehhelpers.obj
 0001:0003c080       _SetWinRTOutOfMemoryExceptionCallback 000000018003d080 f   libvcruntimed:ehhelpers.obj
 0001:0003c0a0       __AdjustPointer            000000018003d0a0 f   libvcruntimed:ehhelpers.obj
 0001:0003c120       __FrameUnwindFilter        000000018003d120 f   libvcruntimed:ehhelpers.obj
 0001:0003c1b0       __GetPlatformExceptionInfo 000000018003d1b0 f   libvcruntimed:ehhelpers.obj
 0001:0003c260       __current_exception        000000018003d260 f   libvcruntimed:ehhelpers.obj
 0001:0003c280       __current_exception_context 000000018003d280 f   libvcruntimed:ehhelpers.obj
 0001:0003c2a0       __processing_throw         000000018003d2a0 f   libvcruntimed:ehhelpers.obj
 0001:0003c2c0       __std_terminate            000000018003d2c0 f   libvcruntimed:ehhelpers.obj
 0001:0003c2d0       _is_exception_typeof       000000018003d2d0 f   libvcruntimed:ehhelpers.obj
 0001:0003c420       ?GetCurrentState@__FrameHandler3@@SAHPEA_KPEAU_xDISPATCHER_CONTEXT@@PEBU_s_FuncInfo@@@Z 000000018003d420 f   libvcruntimed:ehstate.obj
 0001:0003c480       ?GetUnwindTryBlock@__FrameHandler3@@SAHPEA_KPEAU_xDISPATCHER_CONTEXT@@PEBU_s_FuncInfo@@@Z 000000018003d480 f   libvcruntimed:ehstate.obj
 0001:0003c4d0       ?SetState@__FrameHandler3@@SAXPEA_KPEBU_s_FuncInfo@@H@Z 000000018003d4d0 f   libvcruntimed:ehstate.obj
 0001:0003c500       ?SetUnwindTryBlock@__FrameHandler3@@SAXPEA_KPEAU_xDISPATCHER_CONTEXT@@PEBU_s_FuncInfo@@H@Z 000000018003d500 f   libvcruntimed:ehstate.obj
 0001:0003c570       ?StateFromControlPc@__FrameHandler3@@SAHPEBU_s_FuncInfo@@PEAU_xDISPATCHER_CONTEXT@@@Z 000000018003d570 f   libvcruntimed:ehstate.obj
 0001:0003c5b0       ?StateFromControlPc@__FrameHandler4@@SAHPEAUFuncInfo4@@PEAU_xDISPATCHER_CONTEXT@@@Z 000000018003d5b0 f   libvcruntimed:ehstate.obj
 0001:0003c5f0       ?StateFromIp@__FrameHandler3@@SAHPEBU_s_FuncInfo@@PEAU_xDISPATCHER_CONTEXT@@_K@Z 000000018003d5f0 f   libvcruntimed:ehstate.obj
 0001:0003c6e0       ?StateFromIp@__FrameHandler4@@SAHPEAUFuncInfo4@@PEAU_xDISPATCHER_CONTEXT@@_K@Z 000000018003d6e0 f   libvcruntimed:ehstate.obj
 0001:0003e9b0       ??$TypeMatchHelper@V__FrameHandler3@@@@YAHPEBU_s_HandlerType@@PEBU_s_CatchableType@@PEBU_s_ThrowInfo@@@Z 000000018003f9b0 f i libvcruntimed:frame.obj
 0001:0003eba0       ??$TypeMatchHelper@V__FrameHandler4@@@@YAHPEAUHandlerType4@@PEBU_s_CatchableType@@PEBU_s_ThrowInfo@@@Z 000000018003fba0 f i libvcruntimed:frame.obj
 0001:0003ed90       ??$__InternalCxxFrameHandler@V__FrameHandler3@@@@YA?AW4_EXCEPTION_DISPOSITION@@PEAUEHExceptionRecord@@PEA_KPEAU_CONTEXT@@PEAU_xDISPATCHER_CONTEXT@@PEBU_s_FuncInfo@@H1E@Z 000000018003fd90 f i libvcruntimed:frame.obj
 0001:0003f210       ??$__InternalCxxFrameHandler@V__FrameHandler4@@@@YA?AW4_EXCEPTION_DISPOSITION@@PEAUEHExceptionRecord@@PEA_KPEAU_CONTEXT@@PEAU_xDISPATCHER_CONTEXT@@PEAUFuncInfo4@@H1E@Z 0000000180040210 f i libvcruntimed:frame.obj
 0001:0003f6b0       ??0HandlerMap@__FrameHandler3@@QEAA@PEBU_s_TryBlockMapEntry@@PEAU_xDISPATCHER_CONTEXT@@@Z 00000001800406b0 f i libvcruntimed:frame.obj
 0001:0003f6f0       ??0HandlerMap@__FrameHandler4@@QEAA@PEAUTryBlockMapEntry4@@PEAU_xDISPATCHER_CONTEXT@@@Z 00000001800406f0 f i libvcruntimed:frame.obj
 0001:0003f770       ??0HandlerType4@@QEAA@XZ   0000000180040770 f i libvcruntimed:frame.obj
 0001:0003f790       ??0TryBlockMap@__FrameHandler3@@QEAA@PEBU_s_FuncInfo@@PEAU_xDISPATCHER_CONTEXT@@@Z 0000000180040790 f i libvcruntimed:frame.obj
 0001:0003f7c0       ??0TryBlockMap@__FrameHandler4@@QEAA@PEAUFuncInfo4@@PEAU_xDISPATCHER_CONTEXT@@@Z 00000001800407c0 f i libvcruntimed:frame.obj
 0001:0003f850       ??0UWMap@@QEAA@PEAE@Z      0000000180040850 f i libvcruntimed:frame.obj
 0001:0003f8a0       ??0bad_exception@std@@QEAA@AEBV01@@Z 00000001800408a0 f i libvcruntimed:frame.obj
 0001:0003f8e0       ??0bad_exception@std@@QEAA@XZ 00000001800408e0 f i libvcruntimed:frame.obj
 0001:0003f920       ??0iterator@HandlerMap@__FrameHandler3@@QEAA@AEAV12@I@Z 0000000180040920 f i libvcruntimed:frame.obj
 0001:0003f950       ??0iterator@HandlerMap@__FrameHandler4@@QEAA@AEAV12@I@Z 0000000180040950 f i libvcruntimed:frame.obj
 0001:0003f980       ??0iterator@UWMap@@QEAA@AEAV1@PEAE@Z 0000000180040980 f i libvcruntimed:frame.obj
 0001:0003f9b0       ??1bad_exception@std@@UEAA@XZ 00000001800409b0 f i libvcruntimed:frame.obj
 0001:0003f9d0       ??4iterator@UWMap@@QEAAAEAV01@AEBV01@@Z 00000001800409d0 f i libvcruntimed:frame.obj
 0001:0003fa00       ??8iterator@HandlerMap@__FrameHandler3@@QEBA_NAEBV012@@Z 0000000180040a00 f i libvcruntimed:frame.obj
 0001:0003fa40       ??8iterator@HandlerMap@__FrameHandler4@@QEBA_NAEBV012@@Z 0000000180040a40 f i libvcruntimed:frame.obj
 0001:0003fa80       ??8type_info@@QEBA_NAEBV0@@Z 0000000180040a80 f i libvcruntimed:frame.obj
 0001:0003fad0       ??9iterator@HandlerMap@__FrameHandler3@@QEBA_NAEBV012@@Z 0000000180040ad0 f i libvcruntimed:frame.obj
 0001:0003fb10       ??9iterator@HandlerMap@__FrameHandler4@@QEBA_NAEBV012@@Z 0000000180040b10 f i libvcruntimed:frame.obj
 0001:0003fb50       ??Diterator@HandlerMap@__FrameHandler3@@QEAAPEBU_s_HandlerType@@XZ 0000000180040b50 f i libvcruntimed:frame.obj
 0001:0003fb80       ??Diterator@HandlerMap@__FrameHandler4@@QEAAPEAUHandlerType4@@XZ 0000000180040b80 f i libvcruntimed:frame.obj
 0001:0003fba0       ??Diterator@TryBlockMap@__FrameHandler3@@QEAAPEBU_s_TryBlockMapEntry@@XZ 0000000180040ba0 f i libvcruntimed:frame.obj
 0001:0003fbe0       ??Diterator@UWMap@@QEAA?AUUnwindMapEntry4@@XZ 0000000180040be0 f i libvcruntimed:frame.obj
 0001:0003fc40       ??Eiterator@HandlerMap@__FrameHandler3@@QEAAAEAV012@XZ 0000000180040c40 f i libvcruntimed:frame.obj
 0001:0003fc60       ??Eiterator@HandlerMap@__FrameHandler4@@QEAAAEAV012@XZ 0000000180040c60 f i libvcruntimed:frame.obj
 0001:0003fca0       ??Eiterator@TryBlockMap@__FrameHandler3@@QEAAAEAV012@XZ 0000000180040ca0 f i libvcruntimed:frame.obj
 0001:0003fcc0       ??Eiterator@UWMap@@QEAAAEAV01@XZ 0000000180040cc0 f i libvcruntimed:frame.obj
 0001:0003fd00       ??Giterator@UWMap@@QEBA_JAEBV01@@Z 0000000180040d00 f i libvcruntimed:frame.obj
 0001:0003fd20       ??Miterator@TryBlockMap@__FrameHandler3@@QEBA_NAEBV012@@Z 0000000180040d20 f i libvcruntimed:frame.obj
 0001:0003fd60       ??Miterator@TryBlockMap@__FrameHandler4@@QEBA_NAEBV012@@Z 0000000180040d60 f i libvcruntimed:frame.obj
 0001:0003fda0       ??Oiterator@UWMap@@QEBA_NAEBV01@@Z 0000000180040da0 f i libvcruntimed:frame.obj
 0001:0003fde0       ??Piterator@UWMap@@QEBA_NAEBV01@@Z 0000000180040de0 f i libvcruntimed:frame.obj
 0001:0003fe20       ??_Ebad_exception@std@@UEAAPEAXI@Z 0000000180040e20 f i libvcruntimed:frame.obj
 0001:0003fe20       ??_Gbad_exception@std@@UEAAPEAXI@Z 0000000180040e20 f i libvcruntimed:frame.obj
 0001:0003fe60       ?BuildCatchObject@__FrameHandler3@@SAXPEAUEHExceptionRecord@@PEAXPEBU_s_HandlerType@@PEBU_s_CatchableType@@@Z 0000000180040e60 f   libvcruntimed:frame.obj
 0001:0003fea0       ?BuildCatchObject@__FrameHandler4@@SAXPEAUEHExceptionRecord@@PEAXPEAUHandlerType4@@PEBU_s_CatchableType@@@Z 0000000180040ea0 f   libvcruntimed:frame.obj
 0001:0003fee0       ?BuildCatchObjectHelper@__FrameHandler3@@SAHPEAUEHExceptionRecord@@PEAXPEBU_s_HandlerType@@PEBU_s_CatchableType@@@Z 0000000180040ee0 f   libvcruntimed:frame.obj
 0001:0003ff20       ?BuildCatchObjectHelper@__FrameHandler4@@SAHPEAUEHExceptionRecord@@PEAXPEAUHandlerType4@@PEBU_s_CatchableType@@@Z 0000000180040f20 f   libvcruntimed:frame.obj
 0001:0003ff60       ?CxxCallCatchBlock@__FrameHandler3@@SAPEAXPEAU_EXCEPTION_RECORD@@@Z 0000000180040f60 f   libvcruntimed:frame.obj
 0001:000401c0       ?CxxCallCatchBlock@__FrameHandler4@@SAPEAXPEAU_EXCEPTION_RECORD@@@Z 00000001800411c0 f   libvcruntimed:frame.obj
 0001:00040500       ?DecompHandler@HandlerMap@__FrameHandler4@@AEAAXXZ 0000000180041500 f i libvcruntimed:frame.obj
 0001:00040790       ?FrameUnwindToState@__FrameHandler3@@SAXPEA_KPEAU_xDISPATCHER_CONTEXT@@PEBU_s_FuncInfo@@H@Z 0000000180041790 f   libvcruntimed:frame.obj
 0001:00040a20       ?FrameUnwindToState@__FrameHandler4@@SAXPEA_KPEAU_xDISPATCHER_CONTEXT@@PEAUFuncInfo4@@H@Z 0000000180041a20 f   libvcruntimed:frame.obj
 0001:00040dd0       ?GetHandlerSearchState@__FrameHandler3@@SAHPEA_KPEAU_xDISPATCHER_CONTEXT@@PEBU_s_FuncInfo@@@Z 0000000180041dd0 f i libvcruntimed:frame.obj
 0001:00040e80       ?GetHandlerSearchState@__FrameHandler4@@SAHPEA_KPEAU_xDISPATCHER_CONTEXT@@PEAUFuncInfo4@@@Z 0000000180041e80 f i libvcruntimed:frame.obj
 0001:00040ee0       ?GetMaxState@__FrameHandler3@@SAHPEAU_xDISPATCHER_CONTEXT@@PEBU_s_FuncInfo@@@Z 0000000180041ee0 f i libvcruntimed:frame.obj
 0001:00040f00       ?GetMaxState@__FrameHandler4@@SAHPEAU_xDISPATCHER_CONTEXT@@PEAUFuncInfo4@@@Z 0000000180041f00 f i libvcruntimed:frame.obj
 0001:00041160       ?ReadEntry@UWMap@@AEAAXXZ  0000000180042160 f i libvcruntimed:frame.obj
 0001:00041220       ?TypeMatch@__FrameHandler3@@SAHPEBU_s_HandlerType@@PEBU_s_CatchableType@@PEBU_s_ThrowInfo@@@Z 0000000180042220 f   libvcruntimed:frame.obj
 0001:00041250       ?TypeMatch@__FrameHandler4@@SAHPEAUHandlerType4@@PEBU_s_CatchableType@@PEBU_s_ThrowInfo@@@Z 0000000180042250 f   libvcruntimed:frame.obj
 0001:00041280       ?WalkBack@UWMap@@AEAAPEAEXZ 0000000180042280 f i libvcruntimed:frame.obj
 0001:000412d0       ?_CallMemberFunction1@@YAXQEAX00@Z 00000001800422d0 f i libvcruntimed:frame.obj
 0001:00041300       ?_CallMemberFunction2@@YAXQEAX00H@Z 0000000180042300 f i libvcruntimed:frame.obj
 0001:00041340       ?_ValidateExecute@@YA_NP6A_JXZ@Z 0000000180042340 f i libvcruntimed:frame.obj
 0001:00041360       ?_ValidateRead@@YA_NPEBXI@Z 0000000180042360 f i libvcruntimed:frame.obj
 0001:00041380       ?_ValidateWrite@@YA_NPEAXI@Z 0000000180042380 f i libvcruntimed:frame.obj
 0001:000413e0       ?begin@HandlerMap@__FrameHandler3@@QEAA?AViterator@12@XZ 00000001800423e0 f i libvcruntimed:frame.obj
 0001:00041410       ?begin@HandlerMap@__FrameHandler4@@QEAA?AViterator@12@XZ 0000000180042410 f i libvcruntimed:frame.obj
 0001:00041440       ?begin@UWMap@@QEAA?AViterator@1@XZ 0000000180042440 f i libvcruntimed:frame.obj
 0001:00041470       ?end@HandlerMap@__FrameHandler3@@QEAA?AViterator@12@XZ 0000000180042470 f i libvcruntimed:frame.obj
 0001:000414a0       ?end@HandlerMap@__FrameHandler4@@QEAA?AViterator@12@XZ 00000001800424a0 f i libvcruntimed:frame.obj
 0001:000414d0       ?getESTypes@__FrameHandler3@@SAPEBU_s_ESTypeList@@PEBU_s_FuncInfo@@@Z 00000001800424d0 f i libvcruntimed:frame.obj
 0001:00041510       ?getESTypes@__FrameHandler4@@SAPEBU_s_ESTypeList@@PEAUFuncInfo4@@@Z 0000000180042510 f i libvcruntimed:frame.obj
 0001:00041520       ?getLastEntry@HandlerMap@__FrameHandler3@@QEAAPEBU_s_HandlerType@@XZ 0000000180042520 f i libvcruntimed:frame.obj
 0001:00041540       ?getLastEntry@HandlerMap@__FrameHandler4@@QEAAPEAUHandlerType4@@XZ 0000000180042540 f i libvcruntimed:frame.obj
 0001:00041580       ?getMagicNum@__FrameHandler3@@SAIPEBU_s_FuncInfo@@@Z 0000000180042580 f i libvcruntimed:frame.obj
 0001:000415a0       ?getMagicNum@__FrameHandler4@@SAIPEAUFuncInfo4@@@Z 00000001800425a0 f i libvcruntimed:frame.obj
 0001:000415b0       ?getNumTryBlocks@TryBlockMap@__FrameHandler3@@QEAAIXZ 00000001800425b0 f i libvcruntimed:frame.obj
 0001:000415d0       ?getNumTryBlocks@TryBlockMap@__FrameHandler4@@QEAAIXZ 00000001800425d0 f i libvcruntimed:frame.obj
 0001:000415e0       ?getOffsetIter@UWMap@@QEAA?AViterator@1@_J@Z 00000001800425e0 f i libvcruntimed:frame.obj
 0001:00041620       ?getStartStop@UWMap@@QEAAXHHAEAViterator@1@0@Z 0000000180042620 f i libvcruntimed:frame.obj
 0001:00041780       ?getStateIter@UWMap@@QEAA?AViterator@1@H@Z 0000000180042780 f i libvcruntimed:frame.obj
 0001:00041840       ?isEHs@__FrameHandler3@@SA_NPEBU_s_FuncInfo@@@Z 0000000180042840 f i libvcruntimed:frame.obj
 0001:00041880       ?isEHs@__FrameHandler4@@SA_NPEAUFuncInfo4@@@Z 0000000180042880 f i libvcruntimed:frame.obj
 0001:000418a0       ?isNoExcept@__FrameHandler3@@SA_NPEBU_s_FuncInfo@@@Z 00000001800428a0 f i libvcruntimed:frame.obj
 0001:000418e0       ?isNoExcept@__FrameHandler4@@SA_NPEAUFuncInfo4@@@Z 00000001800428e0 f i libvcruntimed:frame.obj
 0001:00041900       ?reset@HandlerType4@@QEAAXXZ 0000000180042900 f i libvcruntimed:frame.obj
 0001:00041960       ?resetBuffer@HandlerMap@__FrameHandler4@@QEAAXXZ 0000000180042960 f i libvcruntimed:frame.obj
 0001:00041980       ?setBuffer@HandlerMap@__FrameHandler4@@QEAAXI@Z 0000000180042980 f i libvcruntimed:frame.obj
 0001:000419e0       __BuildCatchObject         00000001800429e0 f   libvcruntimed:frame.obj
 0001:00041a20       __BuildCatchObjectHelper   0000000180042a20 f   libvcruntimed:frame.obj
 0001:00041a60       __TypeMatch                0000000180042a60 f   libvcruntimed:frame.obj
 0001:00041a90       __vcrt_EncodePointer       0000000180042a90 f i libvcruntimed:frame.obj
 0001:00041ab0       ??0Block@_HeapManager@@QEAA@XZ 0000000180042ab0 f i libvcruntimed:undname.obj
 0001:00041ad0       ??0DName@@QEAA@AEAPEBDD@Z  0000000180042ad0 f   libvcruntimed:undname.obj
 0001:00041d80       ??0DName@@QEAA@AEBV0@@Z    0000000180042d80 f i libvcruntimed:undname.obj
 0001:00041db0       ??0DName@@QEAA@D@Z         0000000180042db0 f   libvcruntimed:undname.obj
 0001:00041e00       ??0DName@@QEAA@PEAV0@@Z    0000000180042e00 f   libvcruntimed:undname.obj
 0001:00041ee0       ??0DName@@QEAA@PEBD@Z      0000000180042ee0 f   libvcruntimed:undname.obj
 0001:00041f50       ??0DName@@QEAA@W4DNameStatus@@@Z 0000000180042f50 f   libvcruntimed:undname.obj
 0001:00042000       ??0DName@@QEAA@XZ          0000000180043000 f i libvcruntimed:undname.obj
 0001:00042030       ??0DName@@QEAA@_J@Z        0000000180043030 f   libvcruntimed:undname.obj
 0001:00042140       ??0DName@@QEAA@_K@Z        0000000180043140 f   libvcruntimed:undname.obj
 0001:00042210       ??0DNameNode@@IEAA@XZ      0000000180043210 f i libvcruntimed:undname.obj
 0001:00042230       ??0Replicator@@QEAA@XZ     0000000180043230 f i libvcruntimed:undname.obj
 0001:00042270       ??0UnDecorator@@QEAA@PEBDP6APEADJ@ZK@Z 0000000180043270 f i libvcruntimed:undname.obj
 0001:00042320       ??0charNode@@QEAA@D@Z      0000000180043320 f i libvcruntimed:undname.obj
 0001:00042360       ??0pDNameNode@@QEAA@PEAVDName@@@Z 0000000180043360 f   libvcruntimed:undname.obj
 0001:000423e0       ??0pairNode@@QEAA@PEBVDNameNode@@0@Z 00000001800433e0 f i libvcruntimed:undname.obj
 0001:00042440       ??0pcharNode@@QEAA@PEBDH@Z 0000000180043440 f   libvcruntimed:undname.obj
 0001:00042530       ??2@YAPEAX_KAEAV_HeapManager@@H@Z 0000000180043530 f i libvcruntimed:undname.obj
 0001:00042560       ??4DName@@QEAAAEAV0@AEBV0@@Z 0000000180043560 f   libvcruntimed:undname.obj
 0001:00042590       ??4DName@@QEAAAEAV0@D@Z    0000000180043590 f i libvcruntimed:undname.obj
 0001:000425e0       ??4DName@@QEAAAEAV0@PEAV0@@Z 00000001800435e0 f   libvcruntimed:undname.obj
 0001:000426b0       ??4DName@@QEAAAEAV0@PEBD@Z 00000001800436b0 f   libvcruntimed:undname.obj
 0001:00042700       ??4DName@@QEAAAEAV0@W4DNameStatus@@@Z 0000000180043700 f   libvcruntimed:undname.obj
 0001:00042790       ??AReplicator@@QEBA?AVDName@@H@Z 0000000180043790 f   libvcruntimed:undname.obj
 0001:00042820       ??H@YA?AVDName@@DAEBV0@@Z  0000000180043820 f i libvcruntimed:undname.obj
 0001:00042870       ??H@YA?AVDName@@PEBDAEBV0@@Z 0000000180043870 f i libvcruntimed:undname.obj
 0001:000428c0       ??H@YA?AVDName@@W4DNameStatus@@AEBV0@@Z 00000001800438c0 f i libvcruntimed:undname.obj
 0001:00042910       ??HDName@@QEBA?AV0@AEBV0@@Z 0000000180043910 f   libvcruntimed:undname.obj
 0001:00042960       ??HDName@@QEBA?AV0@D@Z     0000000180043960 f   libvcruntimed:undname.obj
 0001:000429b0       ??HDName@@QEBA?AV0@PEAV0@@Z 00000001800439b0 f   libvcruntimed:undname.obj
 0001:00042a00       ??HDName@@QEBA?AV0@PEBD@Z  0000000180043a00 f   libvcruntimed:undname.obj
 0001:00042a50       ??HDName@@QEBA?AV0@W4DNameStatus@@@Z 0000000180043a50 f   libvcruntimed:undname.obj
 0001:00042aa0       ??YDName@@QEAAAEAV0@AEBV0@@Z 0000000180043aa0 f   libvcruntimed:undname.obj
 0001:00042b30       ??YDName@@QEAAAEAV0@D@Z    0000000180043b30 f   libvcruntimed:undname.obj
 0001:00042bd0       ??YDName@@QEAAAEAV0@PEAV0@@Z 0000000180043bd0 f   libvcruntimed:undname.obj
 0001:00042cc0       ??YDName@@QEAAAEAV0@PEBD@Z 0000000180043cc0 f   libvcruntimed:undname.obj
 0001:00042d80       ??YDName@@QEAAAEAV0@W4DNameStatus@@@Z 0000000180043d80 f   libvcruntimed:undname.obj
 0001:00042df0       ??YReplicator@@QEAAAEAV0@AEBVDName@@@Z 0000000180043df0 f   libvcruntimed:undname.obj
 0001:00042eb0       ??_5DName@@QEAAAEAV0@AEBV0@@Z 0000000180043eb0 f   libvcruntimed:undname.obj
 0001:00042f20       ?Constructor@_HeapManager@@QEAAXP6APEAX_K@ZP6AXPEAX@Z@Z 0000000180043f20 f i libvcruntimed:undname.obj
 0001:00042f80       ?Destructor@_HeapManager@@QEAAXXZ 0000000180043f80 f i libvcruntimed:undname.obj
 0001:00043000       ?UScore@UnDecorator@@SAPEBDW4Tokens@@@Z 0000000180044000 f   libvcruntimed:undname.obj
 0001:00043040       ?append@DName@@AEAAXPEBVDNameNode@@@Z 0000000180044040 f   libvcruntimed:undname.obj
 0001:000430f0       ?composeDeclaration@UnDecorator@@CA?AVDName@@AEBV2@@Z 00000001800440f0 f i libvcruntimed:undname.obj
 0001:00045490       ?dbGetString@DName@@QEBAPEADXZ 0000000180046490 f   libvcruntimed:undname.obj
 0001:000454c0       ?doAccessSpecifiers@UnDecorator@@SAHXZ 00000001800464c0 f i libvcruntimed:undname.obj
 0001:000454f0       ?doAllocationLanguage@UnDecorator@@SAHXZ 00000001800464f0 f i libvcruntimed:undname.obj
 0001:00045520       ?doAllocationModel@UnDecorator@@SAHXZ 0000000180046520 f i libvcruntimed:undname.obj
 0001:00045550       ?doEcsu@UnDecorator@@SAHXZ 0000000180046550 f i libvcruntimed:undname.obj
 0001:00045580       ?doEllipsis@UnDecorator@@SAHXZ 0000000180046580 f i libvcruntimed:undname.obj
 0001:000455b0       ?doFunctionReturns@UnDecorator@@SAHXZ 00000001800465b0 f i libvcruntimed:undname.obj
 0001:000455e0       ?doMSKeywords@UnDecorator@@SAHXZ 00000001800465e0 f i libvcruntimed:undname.obj
 0001:00045610       ?doMemberTypes@UnDecorator@@SAHXZ 0000000180046610 f i libvcruntimed:undname.obj
 0001:00045640       ?doNameOnly@UnDecorator@@SAHXZ 0000000180046640 f i libvcruntimed:undname.obj
 0001:00045650       ?doNoIdentCharCheck@UnDecorator@@SAHXZ 0000000180046650 f i libvcruntimed:undname.obj
 0001:00045660       ?doPchar@DName@@AEAAXPEBDH@Z 0000000180046660 f   libvcruntimed:undname.obj
 0001:000457f0       ?doPtr64@UnDecorator@@SAHXZ 00000001800467f0 f i libvcruntimed:undname.obj
 0001:00045820       ?doRestrictionSpec@UnDecorator@@SAHXZ 0000000180046820 f i libvcruntimed:undname.obj
 0001:00045850       ?doThisTypes@UnDecorator@@SAHXZ 0000000180046850 f i libvcruntimed:undname.obj
 0001:00045880       ?doThrowTypes@UnDecorator@@SAHXZ 0000000180046880 f i libvcruntimed:undname.obj
 0001:000458b0       ?doTypeOnly@UnDecorator@@SAHXZ 00000001800468b0 f i libvcruntimed:undname.obj
 0001:000458c0       ?doUnderScore@UnDecorator@@SAHXZ 00000001800468c0 f i libvcruntimed:undname.obj
 0001:000458f0       ?getArgumentList@UnDecorator@@CA?AVDName@@XZ 00000001800468f0 f   libvcruntimed:undname.obj
 0001:00045aa0       ?getArgumentTypes@UnDecorator@@CA?AVDName@@XZ 0000000180046aa0 f   libvcruntimed:undname.obj
 0001:00045c50       ?getArrayType@UnDecorator@@CA?AVDName@@AEBV2@@Z 0000000180046c50 f i libvcruntimed:undname.obj
 0001:00045fd0       ?getBasedType@UnDecorator@@CA?AVDName@@XZ 0000000180046fd0 f   libvcruntimed:undname.obj
 0001:000460d0       ?getBasicDataType@UnDecorator@@CA?AVDName@@AEBV2@@Z 00000001800470d0 f   libvcruntimed:undname.obj
 0001:00046870       ?getCHPEName@UnDecorator@@QEAAPEADPEADH@Z 0000000180047870 f i libvcruntimed:undname.obj
 0001:00046a40       ?getCallIndex@UnDecorator@@CA?AVDName@@XZ 0000000180047a40 f i libvcruntimed:undname.obj
 0001:00046a60       ?getCallingConvention@UnDecorator@@CA?AVDName@@XZ 0000000180047a60 f   libvcruntimed:undname.obj
 0001:00046d10       ?getDataIndirectType@UnDecorator@@CA?AVDName@@AEBV2@PEBD0H@Z 0000000180047d10 f   libvcruntimed:undname.obj
 0001:000478f0       ?getDataIndirectType@UnDecorator@@CA?AVDName@@XZ 00000001800488f0 f i libvcruntimed:undname.obj
 0001:00047950       ?getDataType@UnDecorator@@CA?AVDName@@PEAV2@@Z 0000000180048950 f   libvcruntimed:undname.obj
 0001:00047ae0       ?getDecoratedName@UnDecorator@@CA?AVDName@@XZ 0000000180048ae0 f   libvcruntimed:undname.obj
 0001:00047fa0       ?getDimension@UnDecorator@@CA?AVDName@@_N@Z 0000000180048fa0 f   libvcruntimed:undname.obj
 0001:00048300       ?getDispatchTarget@UnDecorator@@CA?AVDName@@XZ 0000000180049300 f   libvcruntimed:undname.obj
 0001:000483d0       ?getDisplacement@UnDecorator@@CA?AVDName@@XZ 00000001800493d0 f i libvcruntimed:undname.obj
 0001:000483f0       ?getECSUDataType@UnDecorator@@CA?AVDName@@XZ 00000001800493f0 f   libvcruntimed:undname.obj
 0001:00048640       ?getECSUName@UnDecorator@@CA?AVDName@@XZ 0000000180049640 f i libvcruntimed:undname.obj
 0001:00048660       ?getEnumType@UnDecorator@@CA?AVDName@@XZ 0000000180049660 f i libvcruntimed:undname.obj
 0001:000487f0       ?getExtendedDataIndirectType@UnDecorator@@CA?AVDName@@AEAPEBDAEA_NH@Z 00000001800497f0 f   libvcruntimed:undname.obj
 0001:00048b30       ?getExternalDataType@UnDecorator@@CA?AVDName@@AEBV2@@Z 0000000180049b30 f i libvcruntimed:undname.obj
 0001:00048c10       ?getFunctionIndirectType@UnDecorator@@CA?AVDName@@AEBV2@@Z 0000000180049c10 f   libvcruntimed:undname.obj
 0001:000492e0       ?getGuardNumber@UnDecorator@@CA?AVDName@@XZ 000000018004a2e0 f i libvcruntimed:undname.obj
 0001:00049300       ?getLastChar@DName@@QEBADXZ 000000018004a300 f i libvcruntimed:undname.obj
 0001:00049350       ?getLastChar@DNameStatusNode@@UEBADXZ 000000018004a350 f i libvcruntimed:undname.obj
 0001:00049390       ?getLastChar@charNode@@UEBADXZ 000000018004a390 f i libvcruntimed:undname.obj
 0001:000493a0       ?getLastChar@pDNameNode@@UEBADXZ 000000018004a3a0 f i libvcruntimed:undname.obj
 0001:000493e0       ?getLastChar@pairNode@@UEBADXZ 000000018004a3e0 f i libvcruntimed:undname.obj
 0001:00049460       ?getLastChar@pcharNode@@UEBADXZ 000000018004a460 f i libvcruntimed:undname.obj
 0001:000494a0       ?getLexicalFrame@UnDecorator@@CA?AVDName@@XZ 000000018004a4a0 f i libvcruntimed:undname.obj
 0001:000494f0       ?getMemory@_HeapManager@@QEAAPEAX_KH@Z 000000018004a4f0 f   libvcruntimed:undname.obj
 0001:00049670       ?getNoexcept@UnDecorator@@CA?AVDName@@XZ 000000018004a670 f   libvcruntimed:undname.obj
 0001:00049700       ?getNumberOfDimensions@UnDecorator@@CAHXZ 000000018004a700 f   libvcruntimed:undname.obj
 0001:00049820       ?getOperatorName@UnDecorator@@CA?AVDName@@_NPEA_N@Z 000000018004a820 f i libvcruntimed:undname.obj
 0001:0004a680       ?getPointerType@UnDecorator@@CA?AVDName@@AEBV2@0@Z 000000018004b680 f i libvcruntimed:undname.obj
 0001:0004a6d0       ?getPointerTypeArray@UnDecorator@@CA?AVDName@@AEBV2@0@Z 000000018004b6d0 f i libvcruntimed:undname.obj
 0001:0004a720       ?getPrimaryDataType@UnDecorator@@CA?AVDName@@AEBV2@@Z 000000018004b720 f   libvcruntimed:undname.obj
 0001:0004ac10       ?getPtrRefDataType@UnDecorator@@CA?AVDName@@AEBV2@H@Z 000000018004bc10 f   libvcruntimed:undname.obj
 0001:0004aeb0       ?getPtrRefType@UnDecorator@@CA?AVDName@@AEBV2@0PEBD@Z 000000018004beb0 f   libvcruntimed:undname.obj
 0001:0004b0c0       ?getReferenceType@UnDecorator@@CA?AVDName@@AEBV2@0PEBD@Z 000000018004c0c0 f i libvcruntimed:undname.obj
 0001:0004b100       ?getRestrictionSpec@UnDecorator@@CA?AVDName@@XZ 000000018004c100 f   libvcruntimed:undname.obj
 0001:0004b2d0       ?getReturnType@UnDecorator@@CA?AVDName@@PEAV2@@Z 000000018004c2d0 f   libvcruntimed:undname.obj
 0001:0004b330       ?getScope@UnDecorator@@CA?AVDName@@XZ 000000018004c330 f   libvcruntimed:undname.obj
 0001:0004ba50       ?getScopedName@UnDecorator@@CA?AVDName@@XZ 000000018004ca50 f   libvcruntimed:undname.obj
 0001:0004bc00       ?getSignedDimension@UnDecorator@@CA?AVDName@@XZ 000000018004cc00 f   libvcruntimed:undname.obj
 0001:0004bc90       ?getStorageConvention@UnDecorator@@CA?AVDName@@XZ 000000018004cc90 f i libvcruntimed:undname.obj
 0001:0004bcb0       ?getString@DName@@QEBAPEADPEAD0@Z 000000018004ccb0 f i libvcruntimed:undname.obj
 0001:0004bd30       ?getString@DName@@QEBAPEADPEADH@Z 000000018004cd30 f i libvcruntimed:undname.obj
 0001:0004bdf0       ?getString@DNameStatusNode@@UEBAPEADPEAD0@Z 000000018004cdf0 f i libvcruntimed:undname.obj
 0001:0004be40       ?getString@charNode@@UEBAPEADPEAD0@Z 000000018004ce40 f i libvcruntimed:undname.obj
 0001:0004be80       ?getString@pDNameNode@@UEBAPEADPEAD0@Z 000000018004ce80 f i libvcruntimed:undname.obj
 0001:0004bee0       ?getString@pairNode@@UEBAPEADPEAD0@Z 000000018004cee0 f i libvcruntimed:undname.obj
 0001:0004bfb0       ?getString@pcharNode@@UEBAPEADPEAD0@Z 000000018004cfb0 f i libvcruntimed:undname.obj
 0001:0004bff0       ?getStringEncoding@UnDecorator@@CA?AVDName@@PEBDH@Z 000000018004cff0 f   libvcruntimed:undname.obj
 0001:0004c130       ?getStringHelper@@YAPEADPEADPEBD1H@Z 000000018004d130 f i libvcruntimed:undname.obj
 0001:0004c1a0       ?getSymbolName@UnDecorator@@CA?AVDName@@XZ 000000018004d1a0 f i libvcruntimed:undname.obj
 0001:0004c240       ?getTemplateArgumentList@UnDecorator@@CA?AVDName@@XZ 000000018004d240 f   libvcruntimed:undname.obj
 0001:0004c700       ?getTemplateConstant@UnDecorator@@CA?AVDName@@XZ 000000018004d700 f   libvcruntimed:undname.obj
 0001:0004ce20       ?getTemplateName@UnDecorator@@CA?AVDName@@_N@Z 000000018004de20 f   libvcruntimed:undname.obj
 0001:0004d080       ?getThisType@UnDecorator@@CA?AVDName@@XZ 000000018004e080 f i libvcruntimed:undname.obj
 0001:0004d0e0       ?getThrowTypes@UnDecorator@@CA?AVDName@@XZ 000000018004e0e0 f   libvcruntimed:undname.obj
 0001:0004d130       ?getTypeEncoding@UnDecorator@@CAHXZ 000000018004e130 f i libvcruntimed:undname.obj
 0001:0004dd30       ?getUndecoratedName@UnDecorator@@QEAAPEADPEADH@Z 000000018004ed30 f i libvcruntimed:undname.obj
 0001:0004def0       ?getVCallThunkType@UnDecorator@@CA?AVDName@@XZ 000000018004eef0 f i libvcruntimed:undname.obj
 0001:0004df70       ?getVbTableType@UnDecorator@@CA?AVDName@@AEBV2@@Z 000000018004ef70 f i libvcruntimed:undname.obj
 0001:0004dfa0       ?getVdispMapType@UnDecorator@@CA?AVDName@@AEBV2@@Z 000000018004efa0 f i libvcruntimed:undname.obj
 0001:0004e040       ?getVfTableType@UnDecorator@@CA?AVDName@@AEBV2@@Z 000000018004f040 f i libvcruntimed:undname.obj
 0001:0004e2a0       ?getZName@UnDecorator@@CA?AVDName@@_N0@Z 000000018004f2a0 f   libvcruntimed:undname.obj
 0001:0004e690       ?haveTemplateParameters@UnDecorator@@SAHXZ 000000018004f690 f i libvcruntimed:undname.obj
 0001:0004e6a0       ?isArray@DName@@QEBAHXZ    000000018004f6a0 f i libvcruntimed:undname.obj
 0001:0004e6c0       ?isComArray@DName@@QEBAHXZ 000000018004f6c0 f i libvcruntimed:undname.obj
 0001:0004e6e0       ?isEmpty@DName@@QEBAHXZ    000000018004f6e0 f i libvcruntimed:undname.obj
 0001:0004e710       ?isFull@Replicator@@QEBAHXZ 000000018004f710 f i libvcruntimed:undname.obj
 0001:0004e740       ?isNoTE@DName@@QEBAHXZ     000000018004f740 f i libvcruntimed:undname.obj
 0001:0004e760       ?isPinPtr@DName@@QEBAHXZ   000000018004f760 f i libvcruntimed:undname.obj
 0001:0004e780       ?isPtrRef@DName@@QEBAHXZ   000000018004f780 f i libvcruntimed:undname.obj
 0001:0004e7a0       ?isUDC@DName@@QEBAHXZ      000000018004f7a0 f i libvcruntimed:undname.obj
 0001:0004e7f0       ?isUDTThunk@DName@@QEBAHXZ 000000018004f7f0 f i libvcruntimed:undname.obj
 0001:0004e840       ?isVCallThunk@DName@@QEBAHXZ 000000018004f840 f i libvcruntimed:undname.obj
 0001:0004e860       ?isValid@DName@@QEBAHXZ    000000018004f860 f i libvcruntimed:undname.obj
 0001:0004e8a0       ?length@DName@@QEBAHXZ     000000018004f8a0 f i libvcruntimed:undname.obj
 0001:0004e8f0       ?length@DNameStatusNode@@UEBAHXZ 000000018004f8f0 f i libvcruntimed:undname.obj
 0001:0004e900       ?length@charNode@@UEBAHXZ  000000018004f900 f i libvcruntimed:undname.obj
 0001:0004e910       ?length@pDNameNode@@UEBAHXZ 000000018004f910 f i libvcruntimed:undname.obj
 0001:0004e950       ?length@pairNode@@UEBAHXZ  000000018004f950 f i libvcruntimed:undname.obj
 0001:0004e9e0       ?length@pcharNode@@UEBAHXZ 000000018004f9e0 f i libvcruntimed:undname.obj
 0001:0004e9f0       ?make@DNameStatusNode@@SAPEBV1@W4DNameStatus@@@Z 000000018004f9f0 f i libvcruntimed:undname.obj
 0001:0004ea40       ?parseDecoratedName@UnDecorator@@CA?AVDName@@XZ 000000018004fa40 f   libvcruntimed:undname.obj
 0001:0004ec20       ?setIsArray@DName@@QEAAXXZ 000000018004fc20 f i libvcruntimed:undname.obj
 0001:0004ec40       ?setIsComArray@DName@@QEAAXXZ 000000018004fc40 f i libvcruntimed:undname.obj
 0001:0004ec60       ?setIsNoTE@DName@@QEAAXXZ  000000018004fc60 f i libvcruntimed:undname.obj
 0001:0004ec80       ?setIsPinPtr@DName@@QEAAXXZ 000000018004fc80 f i libvcruntimed:undname.obj
 0001:0004eca0       ?setIsUDC@DName@@QEAAXXZ   000000018004fca0 f i libvcruntimed:undname.obj
 0001:0004ecd0       ?setIsVCallThunk@DName@@QEAAXXZ 000000018004fcd0 f i libvcruntimed:undname.obj
 0001:0004ecf0       ?setPtrRef@DName@@QEAAAEAV1@XZ 000000018004fcf0 f i libvcruntimed:undname.obj
 0001:0004ed10       ?status@DName@@QEBA?AW4DNameStatus@@XZ 000000018004fd10 f i libvcruntimed:undname.obj
 0001:0004ee40       __unDName                  000000018004fe40 f   libvcruntimed:undname.obj
 0001:0004eea0       __unDNameEx                000000018004fea0 f   libvcruntimed:undname.obj
 0001:0004ef60       unDNameGenerateCHPE        000000018004ff60 f   libvcruntimed:undname.obj
 0001:0004f020       _CallSettingFrame          0000000180050020 f   libvcruntimed:handlers.obj
 0001:0004f070       _CallSettingFrameEncoded   0000000180050070 f   libvcruntimed:handlers.obj
 0001:0004f0c0       ??$?0AEBV?$stream_output_adapter@D@__crt_stdio_output@@AEB_KAEBQEBDAEBQEAU__crt_locale_pointers@@AEBQEAD@?$format_validation_base@DV?$stream_output_adapter@D@__crt_stdio_output@@@__crt_stdio_output@@IEAA@AEBV?$stream_output_adapter@D@1@AEB_KAEBQEBDAEBQEAU__crt_locale_pointers@@AEBQEAD@Z 00000001800500c0 f i libucrtd:output.obj
 0001:0004f110       ??$?0AEBV?$stream_output_adapter@D@__crt_stdio_output@@AEB_KAEBQEBDAEBQEAU__crt_locale_pointers@@AEBQEAD@?$positional_parameter_base@DV?$stream_output_adapter@D@__crt_stdio_output@@@__crt_stdio_output@@IEAA@AEBV?$stream_output_adapter@D@1@AEB_KAEBQEBDAEBQEAU__crt_locale_pointers@@AEBQEAD@Z 0000000180050110 f i libucrtd:output.obj
 0001:0004f1b0       ??$?0AEBV?$stream_output_adapter@D@__crt_stdio_output@@AEB_KAEBQEBDAEBQEAU__crt_locale_pointers@@AEBQEAD@?$standard_base@DV?$stream_output_adapter@D@__crt_stdio_output@@@__crt_stdio_output@@IEAA@AEBV?$stream_output_adapter@D@1@AEB_KAEBQEBDAEBQEAU__crt_locale_pointers@@AEBQEAD@Z 00000001800501b0 f i libucrtd:output.obj
 0001:0004f220       ??$?0AEBV?$stream_output_adapter@_W@__crt_stdio_output@@AEB_KAEBQEB_WAEBQEAU__crt_locale_pointers@@AEBQEAD@?$format_validation_base@_WV?$stream_output_adapter@_W@__crt_stdio_output@@@__crt_stdio_output@@IEAA@AEBV?$stream_output_adapter@_W@1@AEB_KAEBQEB_WAEBQEAU__crt_locale_pointers@@AEBQEAD@Z 0000000180050220 f i libucrtd:output.obj
 0001:0004f270       ??$?0AEBV?$stream_output_adapter@_W@__crt_stdio_output@@AEB_KAEBQEB_WAEBQEAU__crt_locale_pointers@@AEBQEAD@?$positional_parameter_base@_WV?$stream_output_adapter@_W@__crt_stdio_output@@@__crt_stdio_output@@IEAA@AEBV?$stream_output_adapter@_W@1@AEB_KAEBQEB_WAEBQEAU__crt_locale_pointers@@AEBQEAD@Z 0000000180050270 f i libucrtd:output.obj
 0001:0004f310       ??$?0AEBV?$stream_output_adapter@_W@__crt_stdio_output@@AEB_KAEBQEB_WAEBQEAU__crt_locale_pointers@@AEBQEAD@?$standard_base@_WV?$stream_output_adapter@_W@__crt_stdio_output@@@__crt_stdio_output@@IEAA@AEBV?$stream_output_adapter@_W@1@AEB_KAEBQEB_WAEBQEAU__crt_locale_pointers@@AEBQEAD@Z 0000000180050310 f i libucrtd:output.obj
 0001:0004f380       ??$?0AEBV?$string_output_adapter@D@__crt_stdio_output@@AEB_KAEBQEBDAEBQEAU__crt_locale_pointers@@AEBQEAD@?$format_validation_base@DV?$string_output_adapter@D@__crt_stdio_output@@@__crt_stdio_output@@IEAA@AEBV?$string_output_adapter@D@1@AEB_KAEBQEBDAEBQEAU__crt_locale_pointers@@AEBQEAD@Z 0000000180050380 f i libucrtd:output.obj
 0001:0004f3d0       ??$?0AEBV?$string_output_adapter@D@__crt_stdio_output@@AEB_KAEBQEBDAEBQEAU__crt_locale_pointers@@AEBQEAD@?$positional_parameter_base@DV?$string_output_adapter@D@__crt_stdio_output@@@__crt_stdio_output@@IEAA@AEBV?$string_output_adapter@D@1@AEB_KAEBQEBDAEBQEAU__crt_locale_pointers@@AEBQEAD@Z 00000001800503d0 f i libucrtd:output.obj
 0001:0004f470       ??$?0AEBV?$string_output_adapter@D@__crt_stdio_output@@AEB_KAEBQEBDAEBQEAU__crt_locale_pointers@@AEBQEAD@?$standard_base@DV?$string_output_adapter@D@__crt_stdio_output@@@__crt_stdio_output@@IEAA@AEBV?$string_output_adapter@D@1@AEB_KAEBQEBDAEBQEAU__crt_locale_pointers@@AEBQEAD@Z 0000000180050470 f i libucrtd:output.obj
 0001:0004f4e0       ??$?0AEBV?$string_output_adapter@_W@__crt_stdio_output@@AEB_KAEBQEB_WAEBQEAU__crt_locale_pointers@@AEBQEAD@?$format_validation_base@_WV?$string_output_adapter@_W@__crt_stdio_output@@@__crt_stdio_output@@IEAA@AEBV?$string_output_adapter@_W@1@AEB_KAEBQEB_WAEBQEAU__crt_locale_pointers@@AEBQEAD@Z 00000001800504e0 f i libucrtd:output.obj
 0001:0004f530       ??$?0AEBV?$string_output_adapter@_W@__crt_stdio_output@@AEB_KAEBQEB_WAEBQEAU__crt_locale_pointers@@AEBQEAD@?$positional_parameter_base@_WV?$string_output_adapter@_W@__crt_stdio_output@@@__crt_stdio_output@@IEAA@AEBV?$string_output_adapter@_W@1@AEB_KAEBQEB_WAEBQEAU__crt_locale_pointers@@AEBQEAD@Z 0000000180050530 f i libucrtd:output.obj
 0001:0004f5d0       ??$?0AEBV?$string_output_adapter@_W@__crt_stdio_output@@AEB_KAEBQEB_WAEBQEAU__crt_locale_pointers@@AEBQEAD@?$standard_base@_WV?$string_output_adapter@_W@__crt_stdio_output@@@__crt_stdio_output@@IEAA@AEBV?$string_output_adapter@_W@1@AEB_KAEBQEB_WAEBQEAU__crt_locale_pointers@@AEBQEAD@Z 00000001800505d0 f i libucrtd:output.obj
 0001:0004f640       ??$?RV<lambda_2647abb55a408a205467c4169a724277>@@AEAV<lambda_576477a770bb5ab586b2d9569451c7f7>@@V<lambda_c2b006f504a10a4cf14b9a1fbce2a01e>@@@?$__crt_seh_guarded_call@H@@QEAAH$$QEAV<lambda_2647abb55a408a205467c4169a724277>@@AEAV<lambda_576477a770bb5ab586b2d9569451c7f7>@@$$QEAV<lambda_c2b006f504a10a4cf14b9a1fbce2a01e>@@@Z 0000000180050640 f i libucrtd:output.obj
 0001:0004f690       ??$?RV<lambda_2b8ba55cb2a29189d70f882b678c7350>@@AEAV<lambda_ab9668973a2a61b07c64846465621f55>@@V<lambda_748afda9c1ab82b4e15f74dcdf75db74>@@@?$__crt_seh_guarded_call@H@@QEAAH$$QEAV<lambda_2b8ba55cb2a29189d70f882b678c7350>@@AEAV<lambda_ab9668973a2a61b07c64846465621f55>@@$$QEAV<lambda_748afda9c1ab82b4e15f74dcdf75db74>@@@Z 0000000180050690 f i libucrtd:output.obj
 0001:0004f6e0       ??$?RV<lambda_4942f9dcb8a83a0b649775421cdab7f2>@@AEAV<lambda_9fdeb54d99e6c7e515b8c19e0613d470>@@V<lambda_f61bc4569557b8ad96931f67d51af400>@@@?$__crt_seh_guarded_call@H@@QEAAH$$QEAV<lambda_4942f9dcb8a83a0b649775421cdab7f2>@@AEAV<lambda_9fdeb54d99e6c7e515b8c19e0613d470>@@$$QEAV<lambda_f61bc4569557b8ad96931f67d51af400>@@@Z 00000001800506e0 f i libucrtd:output.obj
 0001:0004f730       ??$?RV<lambda_7b91131dde12e1c3dfc74ff76b3f2eac>@@AEAV<lambda_dd75445284c072d0bd3768540cc698fa>@@V<lambda_16bc4ecb55b4718497c16bceaea2ceaf>@@@?$__crt_seh_guarded_call@H@@QEAAH$$QEAV<lambda_7b91131dde12e1c3dfc74ff76b3f2eac>@@AEAV<lambda_dd75445284c072d0bd3768540cc698fa>@@$$QEAV<lambda_16bc4ecb55b4718497c16bceaea2ceaf>@@@Z 0000000180050730 f i libucrtd:output.obj
 0001:0004f780       ??$?RV<lambda_aa279a7bcb127014629d5b1d62c7325d>@@AEAV<lambda_0a64b6a4deda75c01876f29c44fc5eb3>@@V<lambda_3323e69fbefe9d1a11713e670d47cdfa>@@@?$__crt_seh_guarded_call@H@@QEAAH$$QEAV<lambda_aa279a7bcb127014629d5b1d62c7325d>@@AEAV<lambda_0a64b6a4deda75c01876f29c44fc5eb3>@@$$QEAV<lambda_3323e69fbefe9d1a11713e670d47cdfa>@@@Z 0000000180050780 f i libucrtd:output.obj
 0001:0004f7d0       ??$?RV<lambda_c232a0c49490a30f399a8430f51b50ba>@@AEAV<lambda_7b6c652cce95ef5b7c2ff34f92bf0578>@@V<lambda_c415c6f6d9d103d7e93818ef66b8cc8a>@@@?$__crt_seh_guarded_call@H@@QEAAH$$QEAV<lambda_c232a0c49490a30f399a8430f51b50ba>@@AEAV<lambda_7b6c652cce95ef5b7c2ff34f92bf0578>@@$$QEAV<lambda_c415c6f6d9d103d7e93818ef66b8cc8a>@@@Z 00000001800507d0 f i libucrtd:output.obj
 0001:0004f820       ??$__acrt_lock_stream_and_call@V<lambda_0a64b6a4deda75c01876f29c44fc5eb3>@@@@YAHQEAU_iobuf@@$$QEAV<lambda_0a64b6a4deda75c01876f29c44fc5eb3>@@@Z 0000000180050820 f i libucrtd:output.obj
 0001:0004f890       ??$__acrt_lock_stream_and_call@V<lambda_576477a770bb5ab586b2d9569451c7f7>@@@@YAHQEAU_iobuf@@$$QEAV<lambda_576477a770bb5ab586b2d9569451c7f7>@@@Z 0000000180050890 f i libucrtd:output.obj
 0001:0004f900       ??$__acrt_lock_stream_and_call@V<lambda_7b6c652cce95ef5b7c2ff34f92bf0578>@@@@YAHQEAU_iobuf@@$$QEAV<lambda_7b6c652cce95ef5b7c2ff34f92bf0578>@@@Z 0000000180050900 f i libucrtd:output.obj
 0001:0004f970       ??$__acrt_lock_stream_and_call@V<lambda_9fdeb54d99e6c7e515b8c19e0613d470>@@@@YAHQEAU_iobuf@@$$QEAV<lambda_9fdeb54d99e6c7e515b8c19e0613d470>@@@Z 0000000180050970 f i libucrtd:output.obj
 0001:0004f9e0       ??$__acrt_lock_stream_and_call@V<lambda_ab9668973a2a61b07c64846465621f55>@@@@YAHQEAU_iobuf@@$$QEAV<lambda_ab9668973a2a61b07c64846465621f55>@@@Z 00000001800509e0 f i libucrtd:output.obj
 0001:0004fa50       ??$__acrt_lock_stream_and_call@V<lambda_dd75445284c072d0bd3768540cc698fa>@@@@YAHQEAU_iobuf@@$$QEAV<lambda_dd75445284c072d0bd3768540cc698fa>@@@Z 0000000180050a50 f i libucrtd:output.obj
 0001:0004fac0       ??$__crt_interlocked_read@J@@YAJPEDJ@Z 0000000180050ac0 f i libucrtd:output.obj
 0001:000535a0       ??$count@D@formatting_buffer@__crt_stdio_output@@QEBA_KXZ 00000001800545a0 f i libucrtd:output.obj
 0001:000535f0       ??$data@D@formatting_buffer@__crt_stdio_output@@QEAAPEADXZ 00000001800545f0 f i libucrtd:output.obj
 0001:00053640       ??$data@_W@formatting_buffer@__crt_stdio_output@@QEAAPEA_WXZ 0000000180054640 f i libucrtd:output.obj
 0001:00053690       ??$ensure_buffer_is_big_enough@D@formatting_buffer@__crt_stdio_output@@QEAA_N_K@Z 0000000180054690 f i libucrtd:output.obj
 0001:000537c0       ??$extract_argument_from_va_list@C_J@?$positional_parameter_base@DV?$stream_output_adapter@D@__crt_stdio_output@@@__crt_stdio_output@@IEAA_NAEA_J@Z 00000001800547c0 f i libucrtd:output.obj
 0001:00053940       ??$extract_argument_from_va_list@C_J@?$positional_parameter_base@DV?$string_output_adapter@D@__crt_stdio_output@@@__crt_stdio_output@@IEAA_NAEA_J@Z 0000000180054940 f i libucrtd:output.obj
 0001:00053ac0       ??$extract_argument_from_va_list@C_J@?$positional_parameter_base@_WV?$stream_output_adapter@_W@__crt_stdio_output@@@__crt_stdio_output@@IEAA_NAEA_J@Z 0000000180054ac0 f i libucrtd:output.obj
 0001:00053c40       ??$extract_argument_from_va_list@C_J@?$positional_parameter_base@_WV?$string_output_adapter@_W@__crt_stdio_output@@@__crt_stdio_output@@IEAA_NAEA_J@Z 0000000180054c40 f i libucrtd:output.obj
 0001:00053dc0       ??$extract_argument_from_va_list@C_J@?$standard_base@DV?$stream_output_adapter@D@__crt_stdio_output@@@__crt_stdio_output@@IEAA_NAEA_J@Z 0000000180054dc0 f i libucrtd:output.obj
 0001:00053e00       ??$extract_argument_from_va_list@C_J@?$standard_base@DV?$string_output_adapter@D@__crt_stdio_output@@@__crt_stdio_output@@IEAA_NAEA_J@Z 0000000180054e00 f i libucrtd:output.obj
 0001:00053e40       ??$extract_argument_from_va_list@C_J@?$standard_base@_WV?$stream_output_adapter@_W@__crt_stdio_output@@@__crt_stdio_output@@IEAA_NAEA_J@Z 0000000180054e40 f i libucrtd:output.obj
 0001:00053e80       ??$extract_argument_from_va_list@C_J@?$standard_base@_WV?$string_output_adapter@_W@__crt_stdio_output@@@__crt_stdio_output@@IEAA_NAEA_J@Z 0000000180054e80 f i libucrtd:output.obj
 0001:00053ec0       ??$extract_argument_from_va_list@E_J@?$positional_parameter_base@DV?$stream_output_adapter@D@__crt_stdio_output@@@__crt_stdio_output@@IEAA_NAEA_J@Z 0000000180054ec0 f i libucrtd:output.obj
 0001:00054040       ??$extract_argument_from_va_list@E_J@?$positional_parameter_base@DV?$string_output_adapter@D@__crt_stdio_output@@@__crt_stdio_output@@IEAA_NAEA_J@Z 0000000180055040 f i libucrtd:output.obj
 0001:000541c0       ??$extract_argument_from_va_list@E_J@?$positional_parameter_base@_WV?$stream_output_adapter@_W@__crt_stdio_output@@@__crt_stdio_output@@IEAA_NAEA_J@Z 00000001800551c0 f i libucrtd:output.obj
 0001:00054340       ??$extract_argument_from_va_list@E_J@?$positional_parameter_base@_WV?$string_output_adapter@_W@__crt_stdio_output@@@__crt_stdio_output@@IEAA_NAEA_J@Z 0000000180055340 f i libucrtd:output.obj
 0001:000544c0       ??$extract_argument_from_va_list@E_J@?$standard_base@DV?$stream_output_adapter@D@__crt_stdio_output@@@__crt_stdio_output@@IEAA_NAEA_J@Z 00000001800554c0 f i libucrtd:output.obj
 0001:00054500       ??$extract_argument_from_va_list@E_J@?$standard_base@DV?$string_output_adapter@D@__crt_stdio_output@@@__crt_stdio_output@@IEAA_NAEA_J@Z 0000000180055500 f i libucrtd:output.obj
 0001:00054540       ??$extract_argument_from_va_list@E_J@?$standard_base@_WV?$stream_output_adapter@_W@__crt_stdio_output@@@__crt_stdio_output@@IEAA_NAEA_J@Z 0000000180055540 f i libucrtd:output.obj
 0001:00054580       ??$extract_argument_from_va_list@E_J@?$standard_base@_WV?$string_output_adapter@_W@__crt_stdio_output@@@__crt_stdio_output@@IEAA_NAEA_J@Z 0000000180055580 f i libucrtd:output.obj
 0001:000545c0       ??$extract_argument_from_va_list@F_J@?$positional_parameter_base@DV?$stream_output_adapter@D@__crt_stdio_output@@@__crt_stdio_output@@IEAA_NAEA_J@Z 00000001800555c0 f i libucrtd:output.obj
 0001:00054740       ??$extract_argument_from_va_list@F_J@?$positional_parameter_base@DV?$string_output_adapter@D@__crt_stdio_output@@@__crt_stdio_output@@IEAA_NAEA_J@Z 0000000180055740 f i libucrtd:output.obj
 0001:000548c0       ??$extract_argument_from_va_list@F_J@?$positional_parameter_base@_WV?$stream_output_adapter@_W@__crt_stdio_output@@@__crt_stdio_output@@IEAA_NAEA_J@Z 00000001800558c0 f i libucrtd:output.obj
 0001:00054a40       ??$extract_argument_from_va_list@F_J@?$positional_parameter_base@_WV?$string_output_adapter@_W@__crt_stdio_output@@@__crt_stdio_output@@IEAA_NAEA_J@Z 0000000180055a40 f i libucrtd:output.obj
 0001:00054bc0       ??$extract_argument_from_va_list@F_J@?$standard_base@DV?$stream_output_adapter@D@__crt_stdio_output@@@__crt_stdio_output@@IEAA_NAEA_J@Z 0000000180055bc0 f i libucrtd:output.obj
 0001:00054c00       ??$extract_argument_from_va_list@F_J@?$standard_base@DV?$string_output_adapter@D@__crt_stdio_output@@@__crt_stdio_output@@IEAA_NAEA_J@Z 0000000180055c00 f i libucrtd:output.obj
 0001:00054c40       ??$extract_argument_from_va_list@F_J@?$standard_base@_WV?$stream_output_adapter@_W@__crt_stdio_output@@@__crt_stdio_output@@IEAA_NAEA_J@Z 0000000180055c40 f i libucrtd:output.obj
 0001:00054c80       ??$extract_argument_from_va_list@F_J@?$standard_base@_WV?$string_output_adapter@_W@__crt_stdio_output@@@__crt_stdio_output@@IEAA_NAEA_J@Z 0000000180055c80 f i libucrtd:output.obj
 0001:00054cc0       ??$extract_argument_from_va_list@GD@?$positional_parameter_base@DV?$stream_output_adapter@D@__crt_stdio_output@@@__crt_stdio_output@@IEAA_NAEAD@Z 0000000180055cc0 f i libucrtd:output.obj
 0001:00054e40       ??$extract_argument_from_va_list@GD@?$positional_parameter_base@DV?$string_output_adapter@D@__crt_stdio_output@@@__crt_stdio_output@@IEAA_NAEAD@Z 0000000180055e40 f i libucrtd:output.obj
 0001:00054fc0       ??$extract_argument_from_va_list@GD@?$standard_base@DV?$stream_output_adapter@D@__crt_stdio_output@@@__crt_stdio_output@@IEAA_NAEAD@Z 0000000180055fc0 f i libucrtd:output.obj
 0001:00054ff0       ??$extract_argument_from_va_list@GD@?$standard_base@DV?$string_output_adapter@D@__crt_stdio_output@@@__crt_stdio_output@@IEAA_NAEAD@Z 0000000180055ff0 f i libucrtd:output.obj
 0001:00055020       ??$extract_argument_from_va_list@G_J@?$positional_parameter_base@DV?$stream_output_adapter@D@__crt_stdio_output@@@__crt_stdio_output@@IEAA_NAEA_J@Z 0000000180056020 f i libucrtd:output.obj
 0001:000551a0       ??$extract_argument_from_va_list@G_J@?$positional_parameter_base@DV?$string_output_adapter@D@__crt_stdio_output@@@__crt_stdio_output@@IEAA_NAEA_J@Z 00000001800561a0 f i libucrtd:output.obj
 0001:00055320       ??$extract_argument_from_va_list@G_J@?$positional_parameter_base@_WV?$stream_output_adapter@_W@__crt_stdio_output@@@__crt_stdio_output@@IEAA_NAEA_J@Z 0000000180056320 f i libucrtd:output.obj
 0001:000554a0       ??$extract_argument_from_va_list@G_J@?$positional_parameter_base@_WV?$string_output_adapter@_W@__crt_stdio_output@@@__crt_stdio_output@@IEAA_NAEA_J@Z 00000001800564a0 f i libucrtd:output.obj
 0001:00055620       ??$extract_argument_from_va_list@G_J@?$standard_base@DV?$stream_output_adapter@D@__crt_stdio_output@@@__crt_stdio_output@@IEAA_NAEA_J@Z 0000000180056620 f i libucrtd:output.obj
 0001:00055660       ??$extract_argument_from_va_list@G_J@?$standard_base@DV?$string_output_adapter@D@__crt_stdio_output@@@__crt_stdio_output@@IEAA_NAEA_J@Z 0000000180056660 f i libucrtd:output.obj
 0001:000556a0       ??$extract_argument_from_va_list@G_J@?$standard_base@_WV?$stream_output_adapter@_W@__crt_stdio_output@@@__crt_stdio_output@@IEAA_NAEA_J@Z 00000001800566a0 f i libucrtd:output.obj
 0001:000556e0       ??$extract_argument_from_va_list@G_J@?$standard_base@_WV?$string_output_adapter@_W@__crt_stdio_output@@@__crt_stdio_output@@IEAA_NAEA_J@Z 00000001800566e0 f i libucrtd:output.obj
 0001:00055720       ??$extract_argument_from_va_list@H_J@?$positional_parameter_base@DV?$stream_output_adapter@D@__crt_stdio_output@@@__crt_stdio_output@@IEAA_NAEA_J@Z 0000000180056720 f i libucrtd:output.obj
 0001:000558a0       ??$extract_argument_from_va_list@H_J@?$positional_parameter_base@DV?$string_output_adapter@D@__crt_stdio_output@@@__crt_stdio_output@@IEAA_NAEA_J@Z 00000001800568a0 f i libucrtd:output.obj
 0001:00055a20       ??$extract_argument_from_va_list@H_J@?$positional_parameter_base@_WV?$stream_output_adapter@_W@__crt_stdio_output@@@__crt_stdio_output@@IEAA_NAEA_J@Z 0000000180056a20 f i libucrtd:output.obj
 0001:00055ba0       ??$extract_argument_from_va_list@H_J@?$positional_parameter_base@_WV?$string_output_adapter@_W@__crt_stdio_output@@@__crt_stdio_output@@IEAA_NAEA_J@Z 0000000180056ba0 f i libucrtd:output.obj
 0001:00055d20       ??$extract_argument_from_va_list@H_J@?$standard_base@DV?$stream_output_adapter@D@__crt_stdio_output@@@__crt_stdio_output@@IEAA_NAEA_J@Z 0000000180056d20 f i libucrtd:output.obj
 0001:00055d50       ??$extract_argument_from_va_list@H_J@?$standard_base@DV?$string_output_adapter@D@__crt_stdio_output@@@__crt_stdio_output@@IEAA_NAEA_J@Z 0000000180056d50 f i libucrtd:output.obj
 0001:00055d80       ??$extract_argument_from_va_list@H_J@?$standard_base@_WV?$stream_output_adapter@_W@__crt_stdio_output@@@__crt_stdio_output@@IEAA_NAEA_J@Z 0000000180056d80 f i libucrtd:output.obj
 0001:00055db0       ??$extract_argument_from_va_list@H_J@?$standard_base@_WV?$string_output_adapter@_W@__crt_stdio_output@@@__crt_stdio_output@@IEAA_NAEA_J@Z 0000000180056db0 f i libucrtd:output.obj
 0001:00055de0       ??$extract_argument_from_va_list@I_J@?$positional_parameter_base@DV?$stream_output_adapter@D@__crt_stdio_output@@@__crt_stdio_output@@IEAA_NAEA_J@Z 0000000180056de0 f i libucrtd:output.obj
 0001:00055f60       ??$extract_argument_from_va_list@I_J@?$positional_parameter_base@DV?$string_output_adapter@D@__crt_stdio_output@@@__crt_stdio_output@@IEAA_NAEA_J@Z 0000000180056f60 f i libucrtd:output.obj
 0001:000560e0       ??$extract_argument_from_va_list@I_J@?$positional_parameter_base@_WV?$stream_output_adapter@_W@__crt_stdio_output@@@__crt_stdio_output@@IEAA_NAEA_J@Z 00000001800570e0 f i libucrtd:output.obj
 0001:00056260       ??$extract_argument_from_va_list@I_J@?$positional_parameter_base@_WV?$string_output_adapter@_W@__crt_stdio_output@@@__crt_stdio_output@@IEAA_NAEA_J@Z 0000000180057260 f i libucrtd:output.obj
 0001:000563e0       ??$extract_argument_from_va_list@I_J@?$standard_base@DV?$stream_output_adapter@D@__crt_stdio_output@@@__crt_stdio_output@@IEAA_NAEA_J@Z 00000001800573e0 f i libucrtd:output.obj
 0001:00056410       ??$extract_argument_from_va_list@I_J@?$standard_base@DV?$string_output_adapter@D@__crt_stdio_output@@@__crt_stdio_output@@IEAA_NAEA_J@Z 0000000180057410 f i libucrtd:output.obj
 0001:00056440       ??$extract_argument_from_va_list@I_J@?$standard_base@_WV?$stream_output_adapter@_W@__crt_stdio_output@@@__crt_stdio_output@@IEAA_NAEA_J@Z 0000000180057440 f i libucrtd:output.obj
 0001:00056470       ??$extract_argument_from_va_list@I_J@?$standard_base@_WV?$string_output_adapter@_W@__crt_stdio_output@@@__crt_stdio_output@@IEAA_NAEA_J@Z 0000000180057470 f i libucrtd:output.obj
 0001:000564a0       ??$extract_argument_from_va_list@PEADPEAD@?$positional_parameter_base@DV?$stream_output_adapter@D@__crt_stdio_output@@@__crt_stdio_output@@IEAA_NAEAPEAD@Z 00000001800574a0 f i libucrtd:output.obj
 0001:00056620       ??$extract_argument_from_va_list@PEADPEAD@?$positional_parameter_base@DV?$string_output_adapter@D@__crt_stdio_output@@@__crt_stdio_output@@IEAA_NAEAPEAD@Z 0000000180057620 f i libucrtd:output.obj
 0001:000567a0       ??$extract_argument_from_va_list@PEADPEAD@?$positional_parameter_base@_WV?$stream_output_adapter@_W@__crt_stdio_output@@@__crt_stdio_output@@IEAA_NAEAPEAD@Z 00000001800577a0 f i libucrtd:output.obj
 0001:00056920       ??$extract_argument_from_va_list@PEADPEAD@?$positional_parameter_base@_WV?$string_output_adapter@_W@__crt_stdio_output@@@__crt_stdio_output@@IEAA_NAEAPEAD@Z 0000000180057920 f i libucrtd:output.obj
 0001:00056aa0       ??$extract_argument_from_va_list@PEADPEAD@?$standard_base@DV?$stream_output_adapter@D@__crt_stdio_output@@@__crt_stdio_output@@IEAA_NAEAPEAD@Z 0000000180057aa0 f i libucrtd:output.obj
 0001:00056ad0       ??$extract_argument_from_va_list@PEADPEAD@?$standard_base@DV?$string_output_adapter@D@__crt_stdio_output@@@__crt_stdio_output@@IEAA_NAEAPEAD@Z 0000000180057ad0 f i libucrtd:output.obj
 0001:00056b00       ??$extract_argument_from_va_list@PEADPEAD@?$standard_base@_WV?$stream_output_adapter@_W@__crt_stdio_output@@@__crt_stdio_output@@IEAA_NAEAPEAD@Z 0000000180057b00 f i libucrtd:output.obj
 0001:00056b30       ??$extract_argument_from_va_list@PEADPEAD@?$standard_base@_WV?$string_output_adapter@_W@__crt_stdio_output@@@__crt_stdio_output@@IEAA_NAEAPEAD@Z 0000000180057b30 f i libucrtd:output.obj
 0001:00056b60       ??$extract_argument_from_va_list@PEAUansi_string@?1??type_case_Z@?$output_processor@DV?$stream_output_adapter@D@__crt_stdio_output@@V?$format_validation_base@DV?$stream_output_adapter@D@__crt_stdio_output@@@2@@__crt_stdio_output@@AEAA_NXZ@PEAU1?1??234@AEAA_NXZ@@?$standard_base@DV?$stream_output_adapter@D@__crt_stdio_output@@@__crt_stdio_output@@IEAA_NAEAPEAUansi_string@?1??type_case_Z@?$output_processor@DV?$stream_output_adapter@D@__crt_stdio_output@@V?$format_validation_base@DV?$stream_output_adapter@D@__crt_stdio_output@@@2@@1@AEAA_NXZ@@Z 0000000180057b60 f i libucrtd:output.obj
 0001:00056b90       ??$extract_argument_from_va_list@PEAUansi_string@?1??type_case_Z@?$output_processor@DV?$stream_output_adapter@D@__crt_stdio_output@@V?$positional_parameter_base@DV?$stream_output_adapter@D@__crt_stdio_output@@@2@@__crt_stdio_output@@AEAA_NXZ@PEAU1?1??234@AEAA_NXZ@@?$positional_parameter_base@DV?$stream_output_adapter@D@__crt_stdio_output@@@__crt_stdio_output@@IEAA_NAEAPEAUansi_string@?1??type_case_Z@?$output_processor@DV?$stream_output_adapter@D@__crt_stdio_output@@V?$positional_parameter_base@DV?$stream_output_adapter@D@__crt_stdio_output@@@2@@1@AEAA_NXZ@@Z 0000000180057b90 f i libucrtd:output.obj
 0001:00056d10       ??$extract_argument_from_va_list@PEAUansi_string@?1??type_case_Z@?$output_processor@DV?$stream_output_adapter@D@__crt_stdio_output@@V?$positional_parameter_base@DV?$stream_output_adapter@D@__crt_stdio_output@@@2@@__crt_stdio_output@@AEAA_NXZ@PEAU1?1??234@AEAA_NXZ@@?$standard_base@DV?$stream_output_adapter@D@__crt_stdio_output@@@__crt_stdio_output@@IEAA_NAEAPEAUansi_string@?1??type_case_Z@?$output_processor@DV?$stream_output_adapter@D@__crt_stdio_output@@V?$positional_parameter_base@DV?$stream_output_adapter@D@__crt_stdio_output@@@2@@1@AEAA_NXZ@@Z 0000000180057d10 f i libucrtd:output.obj
 0001:00056d40       ??$extract_argument_from_va_list@PEAUansi_string@?1??type_case_Z@?$output_processor@DV?$stream_output_adapter@D@__crt_stdio_output@@V?$standard_base@DV?$stream_output_adapter@D@__crt_stdio_output@@@2@@__crt_stdio_output@@AEAA_NXZ@PEAU1?1??234@AEAA_NXZ@@?$standard_base@DV?$stream_output_adapter@D@__crt_stdio_output@@@__crt_stdio_output@@IEAA_NAEAPEAUansi_string@?1??type_case_Z@?$output_processor@DV?$stream_output_adapter@D@__crt_stdio_output@@V?$standard_base@DV?$stream_output_adapter@D@__crt_stdio_output@@@2@@1@AEAA_NXZ@@Z 0000000180057d40 f i libucrtd:output.obj
 0001:00056d70       ??$extract_argument_from_va_list@PEAUansi_string@?1??type_case_Z@?$output_processor@DV?$string_output_adapter@D@__crt_stdio_output@@V?$format_validation_base@DV?$string_output_adapter@D@__crt_stdio_output@@@2@@__crt_stdio_output@@AEAA_NXZ@PEAU1?1??234@AEAA_NXZ@@?$standard_base@DV?$string_output_adapter@D@__crt_stdio_output@@@__crt_stdio_output@@IEAA_NAEAPEAUansi_string@?1??type_case_Z@?$output_processor@DV?$string_output_adapter@D@__crt_stdio_output@@V?$format_validation_base@DV?$string_output_adapter@D@__crt_stdio_output@@@2@@1@AEAA_NXZ@@Z 0000000180057d70 f i libucrtd:output.obj
 0001:00056da0       ??$extract_argument_from_va_list@PEAUansi_string@?1??type_case_Z@?$output_processor@DV?$string_output_adapter@D@__crt_stdio_output@@V?$positional_parameter_base@DV?$string_output_adapter@D@__crt_stdio_output@@@2@@__crt_stdio_output@@AEAA_NXZ@PEAU1?1??234@AEAA_NXZ@@?$positional_parameter_base@DV?$string_output_adapter@D@__crt_stdio_output@@@__crt_stdio_output@@IEAA_NAEAPEAUansi_string@?1??type_case_Z@?$output_processor@DV?$string_output_adapter@D@__crt_stdio_output@@V?$positional_parameter_base@DV?$string_output_adapter@D@__crt_stdio_output@@@2@@1@AEAA_NXZ@@Z 0000000180057da0 f i libucrtd:output.obj
 0001:00056f20       ??$extract_argument_from_va_list@PEAUansi_string@?1??type_case_Z@?$output_processor@DV?$string_output_adapter@D@__crt_stdio_output@@V?$positional_parameter_base@DV?$string_output_adapter@D@__crt_stdio_output@@@2@@__crt_stdio_output@@AEAA_NXZ@PEAU1?1??234@AEAA_NXZ@@?$standard_base@DV?$string_output_adapter@D@__crt_stdio_output@@@__crt_stdio_output@@IEAA_NAEAPEAUansi_string@?1??type_case_Z@?$output_processor@DV?$string_output_adapter@D@__crt_stdio_output@@V?$positional_parameter_base@DV?$string_output_adapter@D@__crt_stdio_output@@@2@@1@AEAA_NXZ@@Z 0000000180057f20 f i libucrtd:output.obj
 0001:00056f50       ??$extract_argument_from_va_list@PEAUansi_string@?1??type_case_Z@?$output_processor@DV?$string_output_adapter@D@__crt_stdio_output@@V?$standard_base@DV?$string_output_adapter@D@__crt_stdio_output@@@2@@__crt_stdio_output@@AEAA_NXZ@PEAU1?1??234@AEAA_NXZ@@?$standard_base@DV?$string_output_adapter@D@__crt_stdio_output@@@__crt_stdio_output@@IEAA_NAEAPEAUansi_string@?1??type_case_Z@?$output_processor@DV?$string_output_adapter@D@__crt_stdio_output@@V?$standard_base@DV?$string_output_adapter@D@__crt_stdio_output@@@2@@1@AEAA_NXZ@@Z 0000000180057f50 f i libucrtd:output.obj
 0001:00056f80       ??$extract_argument_from_va_list@PEAUansi_string@?1??type_case_Z@?$output_processor@_WV?$stream_output_adapter@_W@__crt_stdio_output@@V?$format_validation_base@_WV?$stream_output_adapter@_W@__crt_stdio_output@@@2@@__crt_stdio_output@@AEAA_NXZ@PEAU1?1??234@AEAA_NXZ@@?$standard_base@_WV?$stream_output_adapter@_W@__crt_stdio_output@@@__crt_stdio_output@@IEAA_NAEAPEAUansi_string@?1??type_case_Z@?$output_processor@_WV?$stream_output_adapter@_W@__crt_stdio_output@@V?$format_validation_base@_WV?$stream_output_adapter@_W@__crt_stdio_output@@@2@@1@AEAA_NXZ@@Z 0000000180057f80 f i libucrtd:output.obj
 0001:00056fb0       ??$extract_argument_from_va_list@PEAUansi_string@?1??type_case_Z@?$output_processor@_WV?$stream_output_adapter@_W@__crt_stdio_output@@V?$positional_parameter_base@_WV?$stream_output_adapter@_W@__crt_stdio_output@@@2@@__crt_stdio_output@@AEAA_NXZ@PEAU1?1??234@AEAA_NXZ@@?$positional_parameter_base@_WV?$stream_output_adapter@_W@__crt_stdio_output@@@__crt_stdio_output@@IEAA_NAEAPEAUansi_string@?1??type_case_Z@?$output_processor@_WV?$stream_output_adapter@_W@__crt_stdio_output@@V?$positional_parameter_base@_WV?$stream_output_adapter@_W@__crt_stdio_output@@@2@@1@AEAA_NXZ@@Z 0000000180057fb0 f i libucrtd:output.obj
 0001:00057130       ??$extract_argument_from_va_list@PEAUansi_string@?1??type_case_Z@?$output_processor@_WV?$stream_output_adapter@_W@__crt_stdio_output@@V?$positional_parameter_base@_WV?$stream_output_adapter@_W@__crt_stdio_output@@@2@@__crt_stdio_output@@AEAA_NXZ@PEAU1?1??234@AEAA_NXZ@@?$standard_base@_WV?$stream_output_adapter@_W@__crt_stdio_output@@@__crt_stdio_output@@IEAA_NAEAPEAUansi_string@?1??type_case_Z@?$output_processor@_WV?$stream_output_adapter@_W@__crt_stdio_output@@V?$positional_parameter_base@_WV?$stream_output_adapter@_W@__crt_stdio_output@@@2@@1@AEAA_NXZ@@Z 0000000180058130 f i libucrtd:output.obj
 0001:00057160       ??$extract_argument_from_va_list@PEAUansi_string@?1??type_case_Z@?$output_processor@_WV?$stream_output_adapter@_W@__crt_stdio_output@@V?$standard_base@_WV?$stream_output_adapter@_W@__crt_stdio_output@@@2@@__crt_stdio_output@@AEAA_NXZ@PEAU1?1??234@AEAA_NXZ@@?$standard_base@_WV?$stream_output_adapter@_W@__crt_stdio_output@@@__crt_stdio_output@@IEAA_NAEAPEAUansi_string@?1??type_case_Z@?$output_processor@_WV?$stream_output_adapter@_W@__crt_stdio_output@@V?$standard_base@_WV?$stream_output_adapter@_W@__crt_stdio_output@@@2@@1@AEAA_NXZ@@Z 0000000180058160 f i libucrtd:output.obj
 0001:00057190       ??$extract_argument_from_va_list@PEAUansi_string@?1??type_case_Z@?$output_processor@_WV?$string_output_adapter@_W@__crt_stdio_output@@V?$format_validation_base@_WV?$string_output_adapter@_W@__crt_stdio_output@@@2@@__crt_stdio_output@@AEAA_NXZ@PEAU1?1??234@AEAA_NXZ@@?$standard_base@_WV?$string_output_adapter@_W@__crt_stdio_output@@@__crt_stdio_output@@IEAA_NAEAPEAUansi_string@?1??type_case_Z@?$output_processor@_WV?$string_output_adapter@_W@__crt_stdio_output@@V?$format_validation_base@_WV?$string_output_adapter@_W@__crt_stdio_output@@@2@@1@AEAA_NXZ@@Z 0000000180058190 f i libucrtd:output.obj
 0001:000571c0       ??$extract_argument_from_va_list@PEAUansi_string@?1??type_case_Z@?$output_processor@_WV?$string_output_adapter@_W@__crt_stdio_output@@V?$positional_parameter_base@_WV?$string_output_adapter@_W@__crt_stdio_output@@@2@@__crt_stdio_output@@AEAA_NXZ@PEAU1?1??234@AEAA_NXZ@@?$positional_parameter_base@_WV?$string_output_adapter@_W@__crt_stdio_output@@@__crt_stdio_output@@IEAA_NAEAPEAUansi_string@?1??type_case_Z@?$output_processor@_WV?$string_output_adapter@_W@__crt_stdio_output@@V?$positional_parameter_base@_WV?$string_output_adapter@_W@__crt_stdio_output@@@2@@1@AEAA_NXZ@@Z 00000001800581c0 f i libucrtd:output.obj
 0001:00057340       ??$extract_argument_from_va_list@PEAUansi_string@?1??type_case_Z@?$output_processor@_WV?$string_output_adapter@_W@__crt_stdio_output@@V?$positional_parameter_base@_WV?$string_output_adapter@_W@__crt_stdio_output@@@2@@__crt_stdio_output@@AEAA_NXZ@PEAU1?1??234@AEAA_NXZ@@?$standard_base@_WV?$string_output_adapter@_W@__crt_stdio_output@@@__crt_stdio_output@@IEAA_NAEAPEAUansi_string@?1??type_case_Z@?$output_processor@_WV?$string_output_adapter@_W@__crt_stdio_output@@V?$positional_parameter_base@_WV?$string_output_adapter@_W@__crt_stdio_output@@@2@@1@AEAA_NXZ@@Z 0000000180058340 f i libucrtd:output.obj
 0001:00057370       ??$extract_argument_from_va_list@PEAUansi_string@?1??type_case_Z@?$output_processor@_WV?$string_output_adapter@_W@__crt_stdio_output@@V?$standard_base@_WV?$string_output_adapter@_W@__crt_stdio_output@@@2@@__crt_stdio_output@@AEAA_NXZ@PEAU1?1??234@AEAA_NXZ@@?$standard_base@_WV?$string_output_adapter@_W@__crt_stdio_output@@@__crt_stdio_output@@IEAA_NAEAPEAUansi_string@?1??type_case_Z@?$output_processor@_WV?$string_output_adapter@_W@__crt_stdio_output@@V?$standard_base@_WV?$string_output_adapter@_W@__crt_stdio_output@@@2@@1@AEAA_NXZ@@Z 0000000180058370 f i libucrtd:output.obj
 0001:000573a0       ??$extract_argument_from_va_list@PEAXPEAX@?$positional_parameter_base@DV?$stream_output_adapter@D@__crt_stdio_output@@@__crt_stdio_output@@IEAA_NAEAPEAX@Z 00000001800583a0 f i libucrtd:output.obj
 0001:00057520       ??$extract_argument_from_va_list@PEAXPEAX@?$positional_parameter_base@DV?$string_output_adapter@D@__crt_stdio_output@@@__crt_stdio_output@@IEAA_NAEAPEAX@Z 0000000180058520 f i libucrtd:output.obj
 0001:000576a0       ??$extract_argument_from_va_list@PEAXPEAX@?$positional_parameter_base@_WV?$stream_output_adapter@_W@__crt_stdio_output@@@__crt_stdio_output@@IEAA_NAEAPEAX@Z 00000001800586a0 f i libucrtd:output.obj
 0001:00057820       ??$extract_argument_from_va_list@PEAXPEAX@?$positional_parameter_base@_WV?$string_output_adapter@_W@__crt_stdio_output@@@__crt_stdio_output@@IEAA_NAEAPEAX@Z 0000000180058820 f i libucrtd:output.obj
 0001:000579a0       ??$extract_argument_from_va_list@PEAXPEAX@?$standard_base@DV?$stream_output_adapter@D@__crt_stdio_output@@@__crt_stdio_output@@IEAA_NAEAPEAX@Z 00000001800589a0 f i libucrtd:output.obj
 0001:000579d0       ??$extract_argument_from_va_list@PEAXPEAX@?$standard_base@DV?$string_output_adapter@D@__crt_stdio_output@@@__crt_stdio_output@@IEAA_NAEAPEAX@Z 00000001800589d0 f i libucrtd:output.obj
 0001:00057a00       ??$extract_argument_from_va_list@PEAXPEAX@?$standard_base@_WV?$stream_output_adapter@_W@__crt_stdio_output@@@__crt_stdio_output@@IEAA_NAEAPEAX@Z 0000000180058a00 f i libucrtd:output.obj
 0001:00057a30       ??$extract_argument_from_va_list@PEAXPEAX@?$standard_base@_WV?$string_output_adapter@_W@__crt_stdio_output@@@__crt_stdio_output@@IEAA_NAEAPEAX@Z 0000000180058a30 f i libucrtd:output.obj
 0001:00057a60       ??$extract_argument_from_va_list@U_CRT_DOUBLE@@U1@@?$positional_parameter_base@DV?$stream_output_adapter@D@__crt_stdio_output@@@__crt_stdio_output@@IEAA_NAEAU_CRT_DOUBLE@@@Z 0000000180058a60 f i libucrtd:output.obj
 0001:00057c00       ??$extract_argument_from_va_list@U_CRT_DOUBLE@@U1@@?$positional_parameter_base@DV?$string_output_adapter@D@__crt_stdio_output@@@__crt_stdio_output@@IEAA_NAEAU_CRT_DOUBLE@@@Z 0000000180058c00 f i libucrtd:output.obj
 0001:00057da0       ??$extract_argument_from_va_list@U_CRT_DOUBLE@@U1@@?$positional_parameter_base@_WV?$stream_output_adapter@_W@__crt_stdio_output@@@__crt_stdio_output@@IEAA_NAEAU_CRT_DOUBLE@@@Z 0000000180058da0 f i libucrtd:output.obj
 0001:00057f40       ??$extract_argument_from_va_list@U_CRT_DOUBLE@@U1@@?$positional_parameter_base@_WV?$string_output_adapter@_W@__crt_stdio_output@@@__crt_stdio_output@@IEAA_NAEAU_CRT_DOUBLE@@@Z 0000000180058f40 f i libucrtd:output.obj
 0001:000580e0       ??$extract_argument_from_va_list@U_CRT_DOUBLE@@U1@@?$standard_base@DV?$stream_output_adapter@D@__crt_stdio_output@@@__crt_stdio_output@@IEAA_NAEAU_CRT_DOUBLE@@@Z 00000001800590e0 f i libucrtd:output.obj
 0001:00058130       ??$extract_argument_from_va_list@U_CRT_DOUBLE@@U1@@?$standard_base@DV?$string_output_adapter@D@__crt_stdio_output@@@__crt_stdio_output@@IEAA_NAEAU_CRT_DOUBLE@@@Z 0000000180059130 f i libucrtd:output.obj
 0001:00058180       ??$extract_argument_from_va_list@U_CRT_DOUBLE@@U1@@?$standard_base@_WV?$stream_output_adapter@_W@__crt_stdio_output@@@__crt_stdio_output@@IEAA_NAEAU_CRT_DOUBLE@@@Z 0000000180059180 f i libucrtd:output.obj
 0001:000581d0       ??$extract_argument_from_va_list@U_CRT_DOUBLE@@U1@@?$standard_base@_WV?$string_output_adapter@_W@__crt_stdio_output@@@__crt_stdio_output@@IEAA_NAEAU_CRT_DOUBLE@@@Z 00000001800591d0 f i libucrtd:output.obj
 0001:00058220       ??$extract_argument_from_va_list@_J_J@?$positional_parameter_base@DV?$stream_output_adapter@D@__crt_stdio_output@@@__crt_stdio_output@@IEAA_NAEA_J@Z 0000000180059220 f i libucrtd:output.obj
 0001:000583a0       ??$extract_argument_from_va_list@_J_J@?$positional_parameter_base@DV?$string_output_adapter@D@__crt_stdio_output@@@__crt_stdio_output@@IEAA_NAEA_J@Z 00000001800593a0 f i libucrtd:output.obj
 0001:00058520       ??$extract_argument_from_va_list@_J_J@?$positional_parameter_base@_WV?$stream_output_adapter@_W@__crt_stdio_output@@@__crt_stdio_output@@IEAA_NAEA_J@Z 0000000180059520 f i libucrtd:output.obj
 0001:000586a0       ??$extract_argument_from_va_list@_J_J@?$positional_parameter_base@_WV?$string_output_adapter@_W@__crt_stdio_output@@@__crt_stdio_output@@IEAA_NAEA_J@Z 00000001800596a0 f i libucrtd:output.obj
 0001:00058820       ??$extract_argument_from_va_list@_J_J@?$standard_base@DV?$stream_output_adapter@D@__crt_stdio_output@@@__crt_stdio_output@@IEAA_NAEA_J@Z 0000000180059820 f i libucrtd:output.obj
 0001:00058850       ??$extract_argument_from_va_list@_J_J@?$standard_base@DV?$string_output_adapter@D@__crt_stdio_output@@@__crt_stdio_output@@IEAA_NAEA_J@Z 0000000180059850 f i libucrtd:output.obj
 0001:00058880       ??$extract_argument_from_va_list@_J_J@?$standard_base@_WV?$stream_output_adapter@_W@__crt_stdio_output@@@__crt_stdio_output@@IEAA_NAEA_J@Z 0000000180059880 f i libucrtd:output.obj
 0001:000588b0       ??$extract_argument_from_va_list@_J_J@?$standard_base@_WV?$string_output_adapter@_W@__crt_stdio_output@@@__crt_stdio_output@@IEAA_NAEA_J@Z 00000001800598b0 f i libucrtd:output.obj
 0001:000588e0       ??$extract_argument_from_va_list@_K_J@?$positional_parameter_base@DV?$stream_output_adapter@D@__crt_stdio_output@@@__crt_stdio_output@@IEAA_NAEA_J@Z 00000001800598e0 f i libucrtd:output.obj
 0001:00058a60       ??$extract_argument_from_va_list@_K_J@?$positional_parameter_base@DV?$string_output_adapter@D@__crt_stdio_output@@@__crt_stdio_output@@IEAA_NAEA_J@Z 0000000180059a60 f i libucrtd:output.obj
 0001:00058be0       ??$extract_argument_from_va_list@_K_J@?$positional_parameter_base@_WV?$stream_output_adapter@_W@__crt_stdio_output@@@__crt_stdio_output@@IEAA_NAEA_J@Z 0000000180059be0 f i libucrtd:output.obj
 0001:00058d60       ??$extract_argument_from_va_list@_K_J@?$positional_parameter_base@_WV?$string_output_adapter@_W@__crt_stdio_output@@@__crt_stdio_output@@IEAA_NAEA_J@Z 0000000180059d60 f i libucrtd:output.obj
 0001:00058ee0       ??$extract_argument_from_va_list@_K_J@?$standard_base@DV?$stream_output_adapter@D@__crt_stdio_output@@@__crt_stdio_output@@IEAA_NAEA_J@Z 0000000180059ee0 f i libucrtd:output.obj
 0001:00058f10       ??$extract_argument_from_va_list@_K_J@?$standard_base@DV?$string_output_adapter@D@__crt_stdio_output@@@__crt_stdio_output@@IEAA_NAEA_J@Z 0000000180059f10 f i libucrtd:output.obj
 0001:00058f40       ??$extract_argument_from_va_list@_K_J@?$standard_base@_WV?$stream_output_adapter@_W@__crt_stdio_output@@@__crt_stdio_output@@IEAA_NAEA_J@Z 0000000180059f40 f i libucrtd:output.obj
 0001:00058f70       ??$extract_argument_from_va_list@_K_J@?$standard_base@_WV?$string_output_adapter@_W@__crt_stdio_output@@@__crt_stdio_output@@IEAA_NAEA_J@Z 0000000180059f70 f i libucrtd:output.obj
 0001:00058fa0       ??$extract_argument_from_va_list@_W_W@?$positional_parameter_base@DV?$stream_output_adapter@D@__crt_stdio_output@@@__crt_stdio_output@@IEAA_NAEA_W@Z 0000000180059fa0 f i libucrtd:output.obj
 0001:00059120       ??$extract_argument_from_va_list@_W_W@?$positional_parameter_base@DV?$string_output_adapter@D@__crt_stdio_output@@@__crt_stdio_output@@IEAA_NAEA_W@Z 000000018005a120 f i libucrtd:output.obj
 0001:000592a0       ??$extract_argument_from_va_list@_W_W@?$positional_parameter_base@_WV?$stream_output_adapter@_W@__crt_stdio_output@@@__crt_stdio_output@@IEAA_NAEA_W@Z 000000018005a2a0 f i libucrtd:output.obj
 0001:00059420       ??$extract_argument_from_va_list@_W_W@?$positional_parameter_base@_WV?$string_output_adapter@_W@__crt_stdio_output@@@__crt_stdio_output@@IEAA_NAEA_W@Z 000000018005a420 f i libucrtd:output.obj
 0001:000595a0       ??$extract_argument_from_va_list@_W_W@?$standard_base@DV?$stream_output_adapter@D@__crt_stdio_output@@@__crt_stdio_output@@IEAA_NAEA_W@Z 000000018005a5a0 f i libucrtd:output.obj
 0001:000595d0       ??$extract_argument_from_va_list@_W_W@?$standard_base@DV?$string_output_adapter@D@__crt_stdio_output@@@__crt_stdio_output@@IEAA_NAEA_W@Z 000000018005a5d0 f i libucrtd:output.obj
 0001:00059600       ??$extract_argument_from_va_list@_W_W@?$standard_base@_WV?$stream_output_adapter@_W@__crt_stdio_output@@@__crt_stdio_output@@IEAA_NAEA_W@Z 000000018005a600 f i libucrtd:output.obj
 0001:00059630       ??$extract_argument_from_va_list@_W_W@?$standard_base@_WV?$string_output_adapter@_W@__crt_stdio_output@@@__crt_stdio_output@@IEAA_NAEA_W@Z 000000018005a630 f i libucrtd:output.obj
 0001:00059660       ??$get_parameter_type@D@?$positional_parameter_base@DV?$stream_output_adapter@D@__crt_stdio_output@@@__crt_stdio_output@@CA?AW4parameter_type@01@PEAD@Z 000000018005a660 f i libucrtd:output.obj
 0001:00059670       ??$get_parameter_type@D@?$positional_parameter_base@DV?$string_output_adapter@D@__crt_stdio_output@@@__crt_stdio_output@@CA?AW4parameter_type@01@PEAD@Z 000000018005a670 f i libucrtd:output.obj
 0001:00059680       ??$get_parameter_type@D@?$positional_parameter_base@_WV?$stream_output_adapter@_W@__crt_stdio_output@@@__crt_stdio_output@@CA?AW4parameter_type@01@PEAD@Z 000000018005a680 f i libucrtd:output.obj
 0001:00059690       ??$get_parameter_type@D@?$positional_parameter_base@_WV?$string_output_adapter@_W@__crt_stdio_output@@@__crt_stdio_output@@CA?AW4parameter_type@01@PEAD@Z 000000018005a690 f i libucrtd:output.obj
 0001:000596a0       ??$get_parameter_type@Uansi_string@?1??type_case_Z@?$output_processor@DV?$stream_output_adapter@D@__crt_stdio_output@@V?$positional_parameter_base@DV?$stream_output_adapter@D@__crt_stdio_output@@@2@@__crt_stdio_output@@AEAA_NXZ@@?$positional_parameter_base@DV?$stream_output_adapter@D@__crt_stdio_output@@@__crt_stdio_output@@CA?AW4parameter_type@01@PEAUansi_string@?1??type_case_Z@?$output_processor@DV?$stream_output_adapter@D@__crt_stdio_output@@V?$positional_parameter_base@DV?$stream_output_adapter@D@__crt_stdio_output@@@2@@1@AEAA_NXZ@@Z 000000018005a6a0 f i libucrtd:output.obj
 0001:000596b0       ??$get_parameter_type@Uansi_string@?1??type_case_Z@?$output_processor@DV?$string_output_adapter@D@__crt_stdio_output@@V?$positional_parameter_base@DV?$string_output_adapter@D@__crt_stdio_output@@@2@@__crt_stdio_output@@AEAA_NXZ@@?$positional_parameter_base@DV?$string_output_adapter@D@__crt_stdio_output@@@__crt_stdio_output@@CA?AW4parameter_type@01@PEAUansi_string@?1??type_case_Z@?$output_processor@DV?$string_output_adapter@D@__crt_stdio_output@@V?$positional_parameter_base@DV?$string_output_adapter@D@__crt_stdio_output@@@2@@1@AEAA_NXZ@@Z 000000018005a6b0 f i libucrtd:output.obj
 0001:000596c0       ??$get_parameter_type@Uansi_string@?1??type_case_Z@?$output_processor@_WV?$stream_output_adapter@_W@__crt_stdio_output@@V?$positional_parameter_base@_WV?$stream_output_adapter@_W@__crt_stdio_output@@@2@@__crt_stdio_output@@AEAA_NXZ@@?$positional_parameter_base@_WV?$stream_output_adapter@_W@__crt_stdio_output@@@__crt_stdio_output@@CA?AW4parameter_type@01@PEAUansi_string@?1??type_case_Z@?$output_processor@_WV?$stream_output_adapter@_W@__crt_stdio_output@@V?$positional_parameter_base@_WV?$stream_output_adapter@_W@__crt_stdio_output@@@2@@1@AEAA_NXZ@@Z 000000018005a6c0 f i libucrtd:output.obj
 0001:000596d0       ??$get_parameter_type@Uansi_string@?1??type_case_Z@?$output_processor@_WV?$string_output_adapter@_W@__crt_stdio_output@@V?$positional_parameter_base@_WV?$string_output_adapter@_W@__crt_stdio_output@@@2@@__crt_stdio_output@@AEAA_NXZ@@?$positional_parameter_base@_WV?$string_output_adapter@_W@__crt_stdio_output@@@__crt_stdio_output@@CA?AW4parameter_type@01@PEAUansi_string@?1??type_case_Z@?$output_processor@_WV?$string_output_adapter@_W@__crt_stdio_output@@V?$positional_parameter_base@_WV?$string_output_adapter@_W@__crt_stdio_output@@@2@@1@AEAA_NXZ@@Z 000000018005a6d0 f i libucrtd:output.obj
 0001:000596e0       ??$get_parameter_type@X@?$positional_parameter_base@DV?$stream_output_adapter@D@__crt_stdio_output@@@__crt_stdio_output@@CA?AW4parameter_type@01@PEAX@Z 000000018005a6e0 f i libucrtd:output.obj
 0001:000596f0       ??$get_parameter_type@X@?$positional_parameter_base@DV?$string_output_adapter@D@__crt_stdio_output@@@__crt_stdio_output@@CA?AW4parameter_type@01@PEAX@Z 000000018005a6f0 f i libucrtd:output.obj
 0001:00059700       ??$get_parameter_type@X@?$positional_parameter_base@_WV?$stream_output_adapter@_W@__crt_stdio_output@@@__crt_stdio_output@@CA?AW4parameter_type@01@PEAX@Z 000000018005a700 f i libucrtd:output.obj
 0001:00059710       ??$get_parameter_type@X@?$positional_parameter_base@_WV?$string_output_adapter@_W@__crt_stdio_output@@@__crt_stdio_output@@CA?AW4parameter_type@01@PEAX@Z 000000018005a710 f i libucrtd:output.obj
 0001:00059720       ??$is_character_specifier@D@?$positional_parameter_base@DV?$stream_output_adapter@D@__crt_stdio_output@@@__crt_stdio_output@@CA_ND@Z 000000018005a720 f i libucrtd:output.obj
 0001:00059760       ??$is_character_specifier@D@?$positional_parameter_base@DV?$string_output_adapter@D@__crt_stdio_output@@@__crt_stdio_output@@CA_ND@Z 000000018005a760 f i libucrtd:output.obj
 0001:000597a0       ??$is_character_specifier@_W@?$positional_parameter_base@_WV?$stream_output_adapter@_W@__crt_stdio_output@@@__crt_stdio_output@@CA_N_W@Z 000000018005a7a0 f i libucrtd:output.obj
 0001:000597e0       ??$is_character_specifier@_W@?$positional_parameter_base@_WV?$string_output_adapter@_W@__crt_stdio_output@@@__crt_stdio_output@@CA_N_W@Z 000000018005a7e0 f i libucrtd:output.obj
 0001:00059820       ??$is_integral_specifier@D@?$positional_parameter_base@DV?$stream_output_adapter@D@__crt_stdio_output@@@__crt_stdio_output@@CA_ND@Z 000000018005a820 f i libucrtd:output.obj
 0001:00059890       ??$is_integral_specifier@D@?$positional_parameter_base@DV?$string_output_adapter@D@__crt_stdio_output@@@__crt_stdio_output@@CA_ND@Z 000000018005a890 f i libucrtd:output.obj
 0001:00059900       ??$is_integral_specifier@_W@?$positional_parameter_base@_WV?$stream_output_adapter@_W@__crt_stdio_output@@@__crt_stdio_output@@CA_N_W@Z 000000018005a900 f i libucrtd:output.obj
 0001:00059970       ??$is_integral_specifier@_W@?$positional_parameter_base@_WV?$string_output_adapter@_W@__crt_stdio_output@@@__crt_stdio_output@@CA_N_W@Z 000000018005a970 f i libucrtd:output.obj
 0001:000599e0       ??$is_pointer_specifier@D@?$positional_parameter_base@DV?$stream_output_adapter@D@__crt_stdio_output@@@__crt_stdio_output@@CA_ND@Z 000000018005a9e0 f i libucrtd:output.obj
 0001:00059a10       ??$is_pointer_specifier@D@?$positional_parameter_base@DV?$string_output_adapter@D@__crt_stdio_output@@@__crt_stdio_output@@CA_ND@Z 000000018005aa10 f i libucrtd:output.obj
 0001:00059a40       ??$is_pointer_specifier@_W@?$positional_parameter_base@_WV?$stream_output_adapter@_W@__crt_stdio_output@@@__crt_stdio_output@@CA_N_W@Z 000000018005aa40 f i libucrtd:output.obj
 0001:00059a70       ??$is_pointer_specifier@_W@?$positional_parameter_base@_WV?$string_output_adapter@_W@__crt_stdio_output@@@__crt_stdio_output@@CA_N_W@Z 000000018005aa70 f i libucrtd:output.obj
 0001:00059aa0       ??$is_string_specifier@D@?$positional_parameter_base@DV?$stream_output_adapter@D@__crt_stdio_output@@@__crt_stdio_output@@CA_ND@Z 000000018005aaa0 f i libucrtd:output.obj
 0001:00059ae0       ??$is_string_specifier@D@?$positional_parameter_base@DV?$string_output_adapter@D@__crt_stdio_output@@@__crt_stdio_output@@CA_ND@Z 000000018005aae0 f i libucrtd:output.obj
 0001:00059b20       ??$is_string_specifier@_W@?$positional_parameter_base@_WV?$stream_output_adapter@_W@__crt_stdio_output@@@__crt_stdio_output@@CA_N_W@Z 000000018005ab20 f i libucrtd:output.obj
 0001:00059b60       ??$is_string_specifier@_W@?$positional_parameter_base@_WV?$string_output_adapter@_W@__crt_stdio_output@@@__crt_stdio_output@@CA_N_W@Z 000000018005ab60 f i libucrtd:output.obj
 0001:00059ba0       ??$is_wide_character_specifier@D@__crt_stdio_output@@YA_N_KDW4length_modifier@0@@Z 000000018005aba0 f i libucrtd:output.obj
 0001:00059c40       ??$is_wide_character_specifier@_W@__crt_stdio_output@@YA_N_K_WW4length_modifier@0@@Z 000000018005ac40 f i libucrtd:output.obj
 0001:00059d10       ??$peek_va_arg@C@__crt_stdio_output@@YACPEAD@Z 000000018005ad10 f i libucrtd:output.obj
 0001:00059d70       ??$peek_va_arg@E@__crt_stdio_output@@YAEPEAD@Z 000000018005ad70 f i libucrtd:output.obj
 0001:00059dd0       ??$peek_va_arg@F@__crt_stdio_output@@YAFPEAD@Z 000000018005add0 f i libucrtd:output.obj
 0001:00059e30       ??$peek_va_arg@G@__crt_stdio_output@@YAGPEAD@Z 000000018005ae30 f i libucrtd:output.obj
 0001:00059e90       ??$peek_va_arg@H@__crt_stdio_output@@YAHPEAD@Z 000000018005ae90 f i libucrtd:output.obj
 0001:00059ee0       ??$peek_va_arg@I@__crt_stdio_output@@YAIPEAD@Z 000000018005aee0 f i libucrtd:output.obj
 0001:00059f30       ??$peek_va_arg@PEAD@__crt_stdio_output@@YAPEADPEAD@Z 000000018005af30 f i libucrtd:output.obj
 0001:00059f90       ??$peek_va_arg@PEAUansi_string@?1??type_case_Z@?$output_processor@DV?$stream_output_adapter@D@__crt_stdio_output@@V?$positional_parameter_base@DV?$stream_output_adapter@D@__crt_stdio_output@@@2@@__crt_stdio_output@@AEAA_NXZ@@__crt_stdio_output@@YAPEAUansi_string@?1??type_case_Z@?$output_processor@DV?$stream_output_adapter@D@__crt_stdio_output@@V?$positional_parameter_base@DV?$stream_output_adapter@D@__crt_stdio_output@@@2@@0@AEAA_NXZ@PEAD@Z 000000018005af90 f i libucrtd:output.obj
 0001:00059ff0       ??$peek_va_arg@PEAUansi_string@?1??type_case_Z@?$output_processor@DV?$string_output_adapter@D@__crt_stdio_output@@V?$positional_parameter_base@DV?$string_output_adapter@D@__crt_stdio_output@@@2@@__crt_stdio_output@@AEAA_NXZ@@__crt_stdio_output@@YAPEAUansi_string@?1??type_case_Z@?$output_processor@DV?$string_output_adapter@D@__crt_stdio_output@@V?$positional_parameter_base@DV?$string_output_adapter@D@__crt_stdio_output@@@2@@0@AEAA_NXZ@PEAD@Z 000000018005aff0 f i libucrtd:output.obj
 0001:0005a050       ??$peek_va_arg@PEAUansi_string@?1??type_case_Z@?$output_processor@_WV?$stream_output_adapter@_W@__crt_stdio_output@@V?$positional_parameter_base@_WV?$stream_output_adapter@_W@__crt_stdio_output@@@2@@__crt_stdio_output@@AEAA_NXZ@@__crt_stdio_output@@YAPEAUansi_string@?1??type_case_Z@?$output_processor@_WV?$stream_output_adapter@_W@__crt_stdio_output@@V?$positional_parameter_base@_WV?$stream_output_adapter@_W@__crt_stdio_output@@@2@@0@AEAA_NXZ@PEAD@Z 000000018005b050 f i libucrtd:output.obj
 0001:0005a0b0       ??$peek_va_arg@PEAUansi_string@?1??type_case_Z@?$output_processor@_WV?$string_output_adapter@_W@__crt_stdio_output@@V?$positional_parameter_base@_WV?$string_output_adapter@_W@__crt_stdio_output@@@2@@__crt_stdio_output@@AEAA_NXZ@@__crt_stdio_output@@YAPEAUansi_string@?1??type_case_Z@?$output_processor@_WV?$string_output_adapter@_W@__crt_stdio_output@@V?$positional_parameter_base@_WV?$string_output_adapter@_W@__crt_stdio_output@@@2@@0@AEAA_NXZ@PEAD@Z 000000018005b0b0 f i libucrtd:output.obj
 0001:0005a110       ??$peek_va_arg@PEAX@__crt_stdio_output@@YAPEAXPEAD@Z 000000018005b110 f i libucrtd:output.obj
 0001:0005a170       ??$peek_va_arg@U_CRT_DOUBLE@@@__crt_stdio_output@@YA?AU_CRT_DOUBLE@@PEAD@Z 000000018005b170 f i libucrtd:output.obj
 0001:0005a1d0       ??$peek_va_arg@_J@__crt_stdio_output@@YA_JPEAD@Z 000000018005b1d0 f i libucrtd:output.obj
 0001:0005a230       ??$peek_va_arg@_K@__crt_stdio_output@@YA_KPEAD@Z 000000018005b230 f i libucrtd:output.obj
 0001:0005a290       ??$peek_va_arg@_W@__crt_stdio_output@@YA_WPEAD@Z 000000018005b290 f i libucrtd:output.obj
 0001:0005a2f0       ??$puttc_nolock@AEBDPEAU_iobuf@@@?$__crt_char_traits@D@@SAHAEBD$$QEAPEAU_iobuf@@@Z 000000018005b2f0 f i libucrtd:output.obj
 0001:0005a320       ??$puttc_nolock@AEB_WPEAU_iobuf@@@?$__crt_char_traits@_W@@SAGAEB_W$$QEAPEAU_iobuf@@@Z 000000018005b320 f i libucrtd:output.obj
 0001:0005a350       ??$read_va_arg@C@__crt_stdio_output@@YACAEAPEAD@Z 000000018005b350 f i libucrtd:output.obj
 0001:0005a3c0       ??$read_va_arg@E@__crt_stdio_output@@YAEAEAPEAD@Z 000000018005b3c0 f i libucrtd:output.obj
 0001:0005a430       ??$read_va_arg@F@__crt_stdio_output@@YAFAEAPEAD@Z 000000018005b430 f i libucrtd:output.obj
 0001:0005a4a0       ??$read_va_arg@G@__crt_stdio_output@@YAGAEAPEAD@Z 000000018005b4a0 f i libucrtd:output.obj
 0001:0005a510       ??$read_va_arg@H@__crt_stdio_output@@YAHAEAPEAD@Z 000000018005b510 f i libucrtd:output.obj
 0001:0005a570       ??$read_va_arg@I@__crt_stdio_output@@YAIAEAPEAD@Z 000000018005b570 f i libucrtd:output.obj
 0001:0005a5d0       ??$read_va_arg@PEAD@__crt_stdio_output@@YAPEADAEAPEAD@Z 000000018005b5d0 f i libucrtd:output.obj
 0001:0005a640       ??$read_va_arg@PEAUansi_string@?1??type_case_Z@?$output_processor@DV?$stream_output_adapter@D@__crt_stdio_output@@V?$format_validation_base@DV?$stream_output_adapter@D@__crt_stdio_output@@@2@@__crt_stdio_output@@AEAA_NXZ@@__crt_stdio_output@@YAPEAUansi_string@?1??type_case_Z@?$output_processor@DV?$stream_output_adapter@D@__crt_stdio_output@@V?$format_validation_base@DV?$stream_output_adapter@D@__crt_stdio_output@@@2@@0@AEAA_NXZ@AEAPEAD@Z 000000018005b640 f i libucrtd:output.obj
 0001:0005a6b0       ??$read_va_arg@PEAUansi_string@?1??type_case_Z@?$output_processor@DV?$stream_output_adapter@D@__crt_stdio_output@@V?$positional_parameter_base@DV?$stream_output_adapter@D@__crt_stdio_output@@@2@@__crt_stdio_output@@AEAA_NXZ@@__crt_stdio_output@@YAPEAUansi_string@?1??type_case_Z@?$output_processor@DV?$stream_output_adapter@D@__crt_stdio_output@@V?$positional_parameter_base@DV?$stream_output_adapter@D@__crt_stdio_output@@@2@@0@AEAA_NXZ@AEAPEAD@Z 000000018005b6b0 f i libucrtd:output.obj
 0001:0005a720       ??$read_va_arg@PEAUansi_string@?1??type_case_Z@?$output_processor@DV?$stream_output_adapter@D@__crt_stdio_output@@V?$standard_base@DV?$stream_output_adapter@D@__crt_stdio_output@@@2@@__crt_stdio_output@@AEAA_NXZ@@__crt_stdio_output@@YAPEAUansi_string@?1??type_case_Z@?$output_processor@DV?$stream_output_adapter@D@__crt_stdio_output@@V?$standard_base@DV?$stream_output_adapter@D@__crt_stdio_output@@@2@@0@AEAA_NXZ@AEAPEAD@Z 000000018005b720 f i libucrtd:output.obj
 0001:0005a790       ??$read_va_arg@PEAUansi_string@?1??type_case_Z@?$output_processor@DV?$string_output_adapter@D@__crt_stdio_output@@V?$format_validation_base@DV?$string_output_adapter@D@__crt_stdio_output@@@2@@__crt_stdio_output@@AEAA_NXZ@@__crt_stdio_output@@YAPEAUansi_string@?1??type_case_Z@?$output_processor@DV?$string_output_adapter@D@__crt_stdio_output@@V?$format_validation_base@DV?$string_output_adapter@D@__crt_stdio_output@@@2@@0@AEAA_NXZ@AEAPEAD@Z 000000018005b790 f i libucrtd:output.obj
 0001:0005a800       ??$read_va_arg@PEAUansi_string@?1??type_case_Z@?$output_processor@DV?$string_output_adapter@D@__crt_stdio_output@@V?$positional_parameter_base@DV?$string_output_adapter@D@__crt_stdio_output@@@2@@__crt_stdio_output@@AEAA_NXZ@@__crt_stdio_output@@YAPEAUansi_string@?1??type_case_Z@?$output_processor@DV?$string_output_adapter@D@__crt_stdio_output@@V?$positional_parameter_base@DV?$string_output_adapter@D@__crt_stdio_output@@@2@@0@AEAA_NXZ@AEAPEAD@Z 000000018005b800 f i libucrtd:output.obj
 0001:0005a870       ??$read_va_arg@PEAUansi_string@?1??type_case_Z@?$output_processor@DV?$string_output_adapter@D@__crt_stdio_output@@V?$standard_base@DV?$string_output_adapter@D@__crt_stdio_output@@@2@@__crt_stdio_output@@AEAA_NXZ@@__crt_stdio_output@@YAPEAUansi_string@?1??type_case_Z@?$output_processor@DV?$string_output_adapter@D@__crt_stdio_output@@V?$standard_base@DV?$string_output_adapter@D@__crt_stdio_output@@@2@@0@AEAA_NXZ@AEAPEAD@Z 000000018005b870 f i libucrtd:output.obj
 0001:0005a8e0       ??$read_va_arg@PEAUansi_string@?1??type_case_Z@?$output_processor@_WV?$stream_output_adapter@_W@__crt_stdio_output@@V?$format_validation_base@_WV?$stream_output_adapter@_W@__crt_stdio_output@@@2@@__crt_stdio_output@@AEAA_NXZ@@__crt_stdio_output@@YAPEAUansi_string@?1??type_case_Z@?$output_processor@_WV?$stream_output_adapter@_W@__crt_stdio_output@@V?$format_validation_base@_WV?$stream_output_adapter@_W@__crt_stdio_output@@@2@@0@AEAA_NXZ@AEAPEAD@Z 000000018005b8e0 f i libucrtd:output.obj
 0001:0005a950       ??$read_va_arg@PEAUansi_string@?1??type_case_Z@?$output_processor@_WV?$stream_output_adapter@_W@__crt_stdio_output@@V?$positional_parameter_base@_WV?$stream_output_adapter@_W@__crt_stdio_output@@@2@@__crt_stdio_output@@AEAA_NXZ@@__crt_stdio_output@@YAPEAUansi_string@?1??type_case_Z@?$output_processor@_WV?$stream_output_adapter@_W@__crt_stdio_output@@V?$positional_parameter_base@_WV?$stream_output_adapter@_W@__crt_stdio_output@@@2@@0@AEAA_NXZ@AEAPEAD@Z 000000018005b950 f i libucrtd:output.obj
 0001:0005a9c0       ??$read_va_arg@PEAUansi_string@?1??type_case_Z@?$output_processor@_WV?$stream_output_adapter@_W@__crt_stdio_output@@V?$standard_base@_WV?$stream_output_adapter@_W@__crt_stdio_output@@@2@@__crt_stdio_output@@AEAA_NXZ@@__crt_stdio_output@@YAPEAUansi_string@?1??type_case_Z@?$output_processor@_WV?$stream_output_adapter@_W@__crt_stdio_output@@V?$standard_base@_WV?$stream_output_adapter@_W@__crt_stdio_output@@@2@@0@AEAA_NXZ@AEAPEAD@Z 000000018005b9c0 f i libucrtd:output.obj
 0001:0005aa30       ??$read_va_arg@PEAUansi_string@?1??type_case_Z@?$output_processor@_WV?$string_output_adapter@_W@__crt_stdio_output@@V?$format_validation_base@_WV?$string_output_adapter@_W@__crt_stdio_output@@@2@@__crt_stdio_output@@AEAA_NXZ@@__crt_stdio_output@@YAPEAUansi_string@?1??type_case_Z@?$output_processor@_WV?$string_output_adapter@_W@__crt_stdio_output@@V?$format_validation_base@_WV?$string_output_adapter@_W@__crt_stdio_output@@@2@@0@AEAA_NXZ@AEAPEAD@Z 000000018005ba30 f i libucrtd:output.obj
 0001:0005aaa0       ??$read_va_arg@PEAUansi_string@?1??type_case_Z@?$output_processor@_WV?$string_output_adapter@_W@__crt_stdio_output@@V?$positional_parameter_base@_WV?$string_output_adapter@_W@__crt_stdio_output@@@2@@__crt_stdio_output@@AEAA_NXZ@@__crt_stdio_output@@YAPEAUansi_string@?1??type_case_Z@?$output_processor@_WV?$string_output_adapter@_W@__crt_stdio_output@@V?$positional_parameter_base@_WV?$string_output_adapter@_W@__crt_stdio_output@@@2@@0@AEAA_NXZ@AEAPEAD@Z 000000018005baa0 f i libucrtd:output.obj
 0001:0005ab10       ??$read_va_arg@PEAUansi_string@?1??type_case_Z@?$output_processor@_WV?$string_output_adapter@_W@__crt_stdio_output@@V?$standard_base@_WV?$string_output_adapter@_W@__crt_stdio_output@@@2@@__crt_stdio_output@@AEAA_NXZ@@__crt_stdio_output@@YAPEAUansi_string@?1??type_case_Z@?$output_processor@_WV?$string_output_adapter@_W@__crt_stdio_output@@V?$standard_base@_WV?$string_output_adapter@_W@__crt_stdio_output@@@2@@0@AEAA_NXZ@AEAPEAD@Z 000000018005bb10 f i libucrtd:output.obj
 0001:0005ab80       ??$read_va_arg@PEAX@__crt_stdio_output@@YAPEAXAEAPEAD@Z 000000018005bb80 f i libucrtd:output.obj
 0001:0005abf0       ??$read_va_arg@U_CRT_DOUBLE@@@__crt_stdio_output@@YA?AU_CRT_DOUBLE@@AEAPEAD@Z 000000018005bbf0 f i libucrtd:output.obj
 0001:0005ac60       ??$read_va_arg@_J@__crt_stdio_output@@YA_JAEAPEAD@Z 000000018005bc60 f i libucrtd:output.obj
 0001:0005acd0       ??$read_va_arg@_K@__crt_stdio_output@@YA_KAEAPEAD@Z 000000018005bcd0 f i libucrtd:output.obj
 0001:0005ad40       ??$read_va_arg@_W@__crt_stdio_output@@YA_WAEAPEAD@Z 000000018005bd40 f i libucrtd:output.obj
 0001:0005adb0       ??$scratch_count@D@formatting_buffer@__crt_stdio_output@@QEBA_KXZ 000000018005bdb0 f i libucrtd:output.obj
 0001:0005add0       ??$scratch_data@D@formatting_buffer@__crt_stdio_output@@QEAAPEADXZ 000000018005bdd0 f i libucrtd:output.obj
 0001:0005ae40       ??$tcstol@AEAPEBDPEAPEADH@?$__crt_char_traits@D@@SAJAEAPEBD$$QEAPEAPEAD$$QEAH@Z 000000018005be40 f i libucrtd:output.obj
 0001:0005ae80       ??$tcstol@AEAPEB_WPEAPEA_WH@?$__crt_char_traits@_W@@SAJAEAPEB_W$$QEAPEAPEA_W$$QEAH@Z 000000018005be80 f i libucrtd:output.obj
 0001:0005aec0       ??$tcstol@PEBDPEAPEADH@?$__crt_char_traits@D@@SAJ$$QEAPEBD$$QEAPEAPEAD$$QEAH@Z 000000018005bec0 f i libucrtd:output.obj
 0001:0005af00       ??$tcstol@PEB_WPEAPEA_WH@?$__crt_char_traits@_W@@SAJ$$QEAPEB_W$$QEAPEAPEA_W$$QEAH@Z 000000018005bf00 f i libucrtd:output.obj
 0001:0005af40       ??$type_case_integer_parse_into_buffer@I@?$output_processor@DV?$stream_output_adapter@D@__crt_stdio_output@@V?$format_validation_base@DV?$stream_output_adapter@D@__crt_stdio_output@@@2@@__crt_stdio_output@@AEAAXII_N@Z 000000018005bf40 f i libucrtd:output.obj
 0001:0005b060       ??$type_case_integer_parse_into_buffer@I@?$output_processor@DV?$stream_output_adapter@D@__crt_stdio_output@@V?$positional_parameter_base@DV?$stream_output_adapter@D@__crt_stdio_output@@@2@@__crt_stdio_output@@AEAAXII_N@Z 000000018005c060 f i libucrtd:output.obj
 0001:0005b180       ??$type_case_integer_parse_into_buffer@I@?$output_processor@DV?$stream_output_adapter@D@__crt_stdio_output@@V?$standard_base@DV?$stream_output_adapter@D@__crt_stdio_output@@@2@@__crt_stdio_output@@AEAAXII_N@Z 000000018005c180 f i libucrtd:output.obj
 0001:0005b2a0       ??$type_case_integer_parse_into_buffer@I@?$output_processor@DV?$string_output_adapter@D@__crt_stdio_output@@V?$format_validation_base@DV?$string_output_adapter@D@__crt_stdio_output@@@2@@__crt_stdio_output@@AEAAXII_N@Z 000000018005c2a0 f i libucrtd:output.obj
 0001:0005b3c0       ??$type_case_integer_parse_into_buffer@I@?$output_processor@DV?$string_output_adapter@D@__crt_stdio_output@@V?$positional_parameter_base@DV?$string_output_adapter@D@__crt_stdio_output@@@2@@__crt_stdio_output@@AEAAXII_N@Z 000000018005c3c0 f i libucrtd:output.obj
 0001:0005b4e0       ??$type_case_integer_parse_into_buffer@I@?$output_processor@DV?$string_output_adapter@D@__crt_stdio_output@@V?$standard_base@DV?$string_output_adapter@D@__crt_stdio_output@@@2@@__crt_stdio_output@@AEAAXII_N@Z 000000018005c4e0 f i libucrtd:output.obj
 0001:0005b600       ??$type_case_integer_parse_into_buffer@I@?$output_processor@_WV?$stream_output_adapter@_W@__crt_stdio_output@@V?$format_validation_base@_WV?$stream_output_adapter@_W@__crt_stdio_output@@@2@@__crt_stdio_output@@AEAAXII_N@Z 000000018005c600 f i libucrtd:output.obj
 0001:0005b730       ??$type_case_integer_parse_into_buffer@I@?$output_processor@_WV?$stream_output_adapter@_W@__crt_stdio_output@@V?$positional_parameter_base@_WV?$stream_output_adapter@_W@__crt_stdio_output@@@2@@__crt_stdio_output@@AEAAXII_N@Z 000000018005c730 f i libucrtd:output.obj
 0001:0005b860       ??$type_case_integer_parse_into_buffer@I@?$output_processor@_WV?$stream_output_adapter@_W@__crt_stdio_output@@V?$standard_base@_WV?$stream_output_adapter@_W@__crt_stdio_output@@@2@@__crt_stdio_output@@AEAAXII_N@Z 000000018005c860 f i libucrtd:output.obj
 0001:0005b990       ??$type_case_integer_parse_into_buffer@I@?$output_processor@_WV?$string_output_adapter@_W@__crt_stdio_output@@V?$format_validation_base@_WV?$string_output_adapter@_W@__crt_stdio_output@@@2@@__crt_stdio_output@@AEAAXII_N@Z 000000018005c990 f i libucrtd:output.obj
 0001:0005bac0       ??$type_case_integer_parse_into_buffer@I@?$output_processor@_WV?$string_output_adapter@_W@__crt_stdio_output@@V?$positional_parameter_base@_WV?$string_output_adapter@_W@__crt_stdio_output@@@2@@__crt_stdio_output@@AEAAXII_N@Z 000000018005cac0 f i libucrtd:output.obj
 0001:0005bbf0       ??$type_case_integer_parse_into_buffer@I@?$output_processor@_WV?$string_output_adapter@_W@__crt_stdio_output@@V?$standard_base@_WV?$string_output_adapter@_W@__crt_stdio_output@@@2@@__crt_stdio_output@@AEAAXII_N@Z 000000018005cbf0 f i libucrtd:output.obj
 0001:0005bd20       ??$type_case_integer_parse_into_buffer@_K@?$output_processor@DV?$stream_output_adapter@D@__crt_stdio_output@@V?$format_validation_base@DV?$stream_output_adapter@D@__crt_stdio_output@@@2@@__crt_stdio_output@@AEAAX_KI_N@Z 000000018005cd20 f i libucrtd:output.obj
 0001:0005be70       ??$type_case_integer_parse_into_buffer@_K@?$output_processor@DV?$stream_output_adapter@D@__crt_stdio_output@@V?$positional_parameter_base@DV?$stream_output_adapter@D@__crt_stdio_output@@@2@@__crt_stdio_output@@AEAAX_KI_N@Z 000000018005ce70 f i libucrtd:output.obj
 0001:0005bfc0       ??$type_case_integer_parse_into_buffer@_K@?$output_processor@DV?$stream_output_adapter@D@__crt_stdio_output@@V?$standard_base@DV?$stream_output_adapter@D@__crt_stdio_output@@@2@@__crt_stdio_output@@AEAAX_KI_N@Z 000000018005cfc0 f i libucrtd:output.obj
 0001:0005c110       ??$type_case_integer_parse_into_buffer@_K@?$output_processor@DV?$string_output_adapter@D@__crt_stdio_output@@V?$format_validation_base@DV?$string_output_adapter@D@__crt_stdio_output@@@2@@__crt_stdio_output@@AEAAX_KI_N@Z 000000018005d110 f i libucrtd:output.obj
 0001:0005c260       ??$type_case_integer_parse_into_buffer@_K@?$output_processor@DV?$string_output_adapter@D@__crt_stdio_output@@V?$positional_parameter_base@DV?$string_output_adapter@D@__crt_stdio_output@@@2@@__crt_stdio_output@@AEAAX_KI_N@Z 000000018005d260 f i libucrtd:output.obj
 0001:0005c3b0       ??$type_case_integer_parse_into_buffer@_K@?$output_processor@DV?$string_output_adapter@D@__crt_stdio_output@@V?$standard_base@DV?$string_output_adapter@D@__crt_stdio_output@@@2@@__crt_stdio_output@@AEAAX_KI_N@Z 000000018005d3b0 f i libucrtd:output.obj
 0001:0005c500       ??$type_case_integer_parse_into_buffer@_K@?$output_processor@_WV?$stream_output_adapter@_W@__crt_stdio_output@@V?$format_validation_base@_WV?$stream_output_adapter@_W@__crt_stdio_output@@@2@@__crt_stdio_output@@AEAAX_KI_N@Z 000000018005d500 f i libucrtd:output.obj
 0001:0005c650       ??$type_case_integer_parse_into_buffer@_K@?$output_processor@_WV?$stream_output_adapter@_W@__crt_stdio_output@@V?$positional_parameter_base@_WV?$stream_output_adapter@_W@__crt_stdio_output@@@2@@__crt_stdio_output@@AEAAX_KI_N@Z 000000018005d650 f i libucrtd:output.obj
 0001:0005c7a0       ??$type_case_integer_parse_into_buffer@_K@?$output_processor@_WV?$stream_output_adapter@_W@__crt_stdio_output@@V?$standard_base@_WV?$stream_output_adapter@_W@__crt_stdio_output@@@2@@__crt_stdio_output@@AEAAX_KI_N@Z 000000018005d7a0 f i libucrtd:output.obj
 0001:0005c8f0       ??$type_case_integer_parse_into_buffer@_K@?$output_processor@_WV?$string_output_adapter@_W@__crt_stdio_output@@V?$format_validation_base@_WV?$string_output_adapter@_W@__crt_stdio_output@@@2@@__crt_stdio_output@@AEAAX_KI_N@Z 000000018005d8f0 f i libucrtd:output.obj
 0001:0005ca40       ??$type_case_integer_parse_into_buffer@_K@?$output_processor@_WV?$string_output_adapter@_W@__crt_stdio_output@@V?$positional_parameter_base@_WV?$string_output_adapter@_W@__crt_stdio_output@@@2@@__crt_stdio_output@@AEAAX_KI_N@Z 000000018005da40 f i libucrtd:output.obj
 0001:0005cb90       ??$type_case_integer_parse_into_buffer@_K@?$output_processor@_WV?$string_output_adapter@_W@__crt_stdio_output@@V?$standard_base@_WV?$string_output_adapter@_W@__crt_stdio_output@@@2@@__crt_stdio_output@@AEAAX_KI_N@Z 000000018005db90 f i libucrtd:output.obj
 0001:0005cce0       ??$write_multiple_characters@V?$stream_output_adapter@D@__crt_stdio_output@@D@__crt_stdio_output@@YAXAEBV?$stream_output_adapter@D@0@DHQEAH@Z 000000018005dce0 f i libucrtd:output.obj
 0001:0005cd40       ??$write_multiple_characters@V?$stream_output_adapter@_W@__crt_stdio_output@@D@__crt_stdio_output@@YAXAEBV?$stream_output_adapter@_W@0@DHQEAH@Z 000000018005dd40 f i libucrtd:output.obj
 0001:0005cda0       ??$write_multiple_characters@V?$string_output_adapter@D@__crt_stdio_output@@D@__crt_stdio_output@@YAXAEBV?$string_output_adapter@D@0@DHQEAH@Z 000000018005dda0 f i libucrtd:output.obj
 0001:0005ce00       ??$write_multiple_characters@V?$string_output_adapter@_W@__crt_stdio_output@@D@__crt_stdio_output@@YAXAEBV?$string_output_adapter@_W@0@DHQEAH@Z 000000018005de00 f i libucrtd:output.obj
 0001:0005d220       ??0?$common_data@D@__crt_stdio_output@@IEAA@XZ 000000018005e220 f i libucrtd:output.obj
 0001:0005d2f0       ??0?$common_data@_W@__crt_stdio_output@@IEAA@XZ 000000018005e2f0 f i libucrtd:output.obj
 0001:0005d3c0       ??0?$output_adapter_data@DV?$stream_output_adapter@D@__crt_stdio_output@@@__crt_stdio_output@@IEAA@AEBV?$stream_output_adapter@D@1@_KQEBDQEAU__crt_locale_pointers@@QEAD@Z 000000018005e3c0 f i libucrtd:output.obj
 0001:0005d440       ??0?$output_adapter_data@DV?$string_output_adapter@D@__crt_stdio_output@@@__crt_stdio_output@@IEAA@AEBV?$string_output_adapter@D@1@_KQEBDQEAU__crt_locale_pointers@@QEAD@Z 000000018005e440 f i libucrtd:output.obj
 0001:0005d4c0       ??0?$output_adapter_data@_WV?$stream_output_adapter@_W@__crt_stdio_output@@@__crt_stdio_output@@IEAA@AEBV?$stream_output_adapter@_W@1@_KQEB_WQEAU__crt_locale_pointers@@QEAD@Z 000000018005e4c0 f i libucrtd:output.obj
 0001:0005d540       ??0?$output_adapter_data@_WV?$string_output_adapter@_W@__crt_stdio_output@@@__crt_stdio_output@@IEAA@AEBV?$string_output_adapter@_W@1@_KQEB_WQEAU__crt_locale_pointers@@QEAD@Z 000000018005e540 f i libucrtd:output.obj
 0001:0005d5c0       ??0?$output_processor@DV?$stream_output_adapter@D@__crt_stdio_output@@V?$format_validation_base@DV?$stream_output_adapter@D@__crt_stdio_output@@@2@@__crt_stdio_output@@QEAA@AEBV?$stream_output_adapter@D@1@_KQEBDQEAU__crt_locale_pointers@@QEAD@Z 000000018005e5c0 f i libucrtd:output.obj
 0001:0005d620       ??0?$output_processor@DV?$stream_output_adapter@D@__crt_stdio_output@@V?$positional_parameter_base@DV?$stream_output_adapter@D@__crt_stdio_output@@@2@@__crt_stdio_output@@QEAA@AEBV?$stream_output_adapter@D@1@_KQEBDQEAU__crt_locale_pointers@@QEAD@Z 000000018005e620 f i libucrtd:output.obj
 0001:0005d680       ??0?$output_processor@DV?$stream_output_adapter@D@__crt_stdio_output@@V?$standard_base@DV?$stream_output_adapter@D@__crt_stdio_output@@@2@@__crt_stdio_output@@QEAA@AEBV?$stream_output_adapter@D@1@_KQEBDQEAU__crt_locale_pointers@@QEAD@Z 000000018005e680 f i libucrtd:output.obj
 0001:0005d6e0       ??0?$output_processor@DV?$string_output_adapter@D@__crt_stdio_output@@V?$format_validation_base@DV?$string_output_adapter@D@__crt_stdio_output@@@2@@__crt_stdio_output@@QEAA@AEBV?$string_output_adapter@D@1@_KQEBDQEAU__crt_locale_pointers@@QEAD@Z 000000018005e6e0 f i libucrtd:output.obj
 0001:0005d740       ??0?$output_processor@DV?$string_output_adapter@D@__crt_stdio_output@@V?$positional_parameter_base@DV?$string_output_adapter@D@__crt_stdio_output@@@2@@__crt_stdio_output@@QEAA@AEBV?$string_output_adapter@D@1@_KQEBDQEAU__crt_locale_pointers@@QEAD@Z 000000018005e740 f i libucrtd:output.obj
 0001:0005d7a0       ??0?$output_processor@DV?$string_output_adapter@D@__crt_stdio_output@@V?$standard_base@DV?$string_output_adapter@D@__crt_stdio_output@@@2@@__crt_stdio_output@@QEAA@AEBV?$string_output_adapter@D@1@_KQEBDQEAU__crt_locale_pointers@@QEAD@Z 000000018005e7a0 f i libucrtd:output.obj
 0001:0005d800       ??0?$output_processor@_WV?$stream_output_adapter@_W@__crt_stdio_output@@V?$format_validation_base@_WV?$stream_output_adapter@_W@__crt_stdio_output@@@2@@__crt_stdio_output@@QEAA@AEBV?$stream_output_adapter@_W@1@_KQEB_WQEAU__crt_locale_pointers@@QEAD@Z 000000018005e800 f i libucrtd:output.obj
 0001:0005d860       ??0?$output_processor@_WV?$stream_output_adapter@_W@__crt_stdio_output@@V?$positional_parameter_base@_WV?$stream_output_adapter@_W@__crt_stdio_output@@@2@@__crt_stdio_output@@QEAA@AEBV?$stream_output_adapter@_W@1@_KQEB_WQEAU__crt_locale_pointers@@QEAD@Z 000000018005e860 f i libucrtd:output.obj
 0001:0005d8c0       ??0?$output_processor@_WV?$stream_output_adapter@_W@__crt_stdio_output@@V?$standard_base@_WV?$stream_output_adapter@_W@__crt_stdio_output@@@2@@__crt_stdio_output@@QEAA@AEBV?$stream_output_adapter@_W@1@_KQEB_WQEAU__crt_locale_pointers@@QEAD@Z 000000018005e8c0 f i libucrtd:output.obj
 0001:0005d920       ??0?$output_processor@_WV?$string_output_adapter@_W@__crt_stdio_output@@V?$format_validation_base@_WV?$string_output_adapter@_W@__crt_stdio_output@@@2@@__crt_stdio_output@@QEAA@AEBV?$string_output_adapter@_W@1@_KQEB_WQEAU__crt_locale_pointers@@QEAD@Z 000000018005e920 f i libucrtd:output.obj
 0001:0005d980       ??0?$output_processor@_WV?$string_output_adapter@_W@__crt_stdio_output@@V?$positional_parameter_base@_WV?$string_output_adapter@_W@__crt_stdio_output@@@2@@__crt_stdio_output@@QEAA@AEBV?$string_output_adapter@_W@1@_KQEB_WQEAU__crt_locale_pointers@@QEAD@Z 000000018005e980 f i libucrtd:output.obj
 0001:0005d9e0       ??0?$output_processor@_WV?$string_output_adapter@_W@__crt_stdio_output@@V?$standard_base@_WV?$string_output_adapter@_W@__crt_stdio_output@@@2@@__crt_stdio_output@@QEAA@AEBV?$string_output_adapter@_W@1@_KQEB_WQEAU__crt_locale_pointers@@QEAD@Z 000000018005e9e0 f i libucrtd:output.obj
 0001:0005da40       ??0?$stream_output_adapter@D@__crt_stdio_output@@QEAA@QEAU_iobuf@@@Z 000000018005ea40 f i libucrtd:output.obj
 0001:0005da70       ??0?$stream_output_adapter@_W@__crt_stdio_output@@QEAA@QEAU_iobuf@@@Z 000000018005ea70 f i libucrtd:output.obj
 0001:0005daa0       ??0?$string_output_adapter@D@__crt_stdio_output@@QEAA@QEAU?$string_output_adapter_context@D@1@@Z 000000018005eaa0 f i libucrtd:output.obj
 0001:0005dac0       ??0?$string_output_adapter@_W@__crt_stdio_output@@QEAA@QEAU?$string_output_adapter_context@_W@1@@Z 000000018005eac0 f i libucrtd:output.obj
 0001:0005dae0       ??0_LocaleUpdate@@QEAA@QEAU__crt_locale_pointers@@@Z 000000018005eae0 f i libucrtd:output.obj
 0001:0005dc00       ??0__acrt_stdio_temporary_buffering_guard@@QEAA@QEAU_iobuf@@@Z 000000018005ec00 f i libucrtd:output.obj
 0001:0005dc40       ??0__crt_errno_guard@@QEAA@QEAH@Z 000000018005ec40 f i libucrtd:output.obj
 0001:0005dc80       ??0__crt_stdio_stream@@QEAA@QEAU_iobuf@@@Z 000000018005ec80 f i libucrtd:output.obj
 0001:0005dca0       ??0formatting_buffer@__crt_stdio_output@@QEAA@XZ 000000018005eca0 f i libucrtd:output.obj
 0001:0005dce0       ??1?$common_data@D@__crt_stdio_output@@QEAA@XZ 000000018005ece0 f i libucrtd:output.obj
 0001:0005dd00       ??1?$common_data@_W@__crt_stdio_output@@QEAA@XZ 000000018005ed00 f i libucrtd:output.obj
 0001:0005dd20       ??1?$format_validation_base@DV?$stream_output_adapter@D@__crt_stdio_output@@@__crt_stdio_output@@QEAA@XZ 000000018005ed20 f i libucrtd:output.obj
 0001:0005dd40       ??1?$format_validation_base@DV?$string_output_adapter@D@__crt_stdio_output@@@__crt_stdio_output@@QEAA@XZ 000000018005ed40 f i libucrtd:output.obj
 0001:0005dd60       ??1?$format_validation_base@_WV?$stream_output_adapter@_W@__crt_stdio_output@@@__crt_stdio_output@@QEAA@XZ 000000018005ed60 f i libucrtd:output.obj
 0001:0005dd80       ??1?$format_validation_base@_WV?$string_output_adapter@_W@__crt_stdio_output@@@__crt_stdio_output@@QEAA@XZ 000000018005ed80 f i libucrtd:output.obj
 0001:0005dda0       ??1?$output_adapter_data@DV?$stream_output_adapter@D@__crt_stdio_output@@@__crt_stdio_output@@QEAA@XZ 000000018005eda0 f i libucrtd:output.obj
 0001:0005ddc0       ??1?$output_adapter_data@DV?$string_output_adapter@D@__crt_stdio_output@@@__crt_stdio_output@@QEAA@XZ 000000018005edc0 f i libucrtd:output.obj
 0001:0005dde0       ??1?$output_adapter_data@_WV?$stream_output_adapter@_W@__crt_stdio_output@@@__crt_stdio_output@@QEAA@XZ 000000018005ede0 f i libucrtd:output.obj
 0001:0005de00       ??1?$output_adapter_data@_WV?$string_output_adapter@_W@__crt_stdio_output@@@__crt_stdio_output@@QEAA@XZ 000000018005ee00 f i libucrtd:output.obj
 0001:0005de20       ??1?$output_processor@DV?$stream_output_adapter@D@__crt_stdio_output@@V?$format_validation_base@DV?$stream_output_adapter@D@__crt_stdio_output@@@2@@__crt_stdio_output@@QEAA@XZ 000000018005ee20 f i libucrtd:output.obj
 0001:0005de40       ??1?$output_processor@DV?$stream_output_adapter@D@__crt_stdio_output@@V?$positional_parameter_base@DV?$stream_output_adapter@D@__crt_stdio_output@@@2@@__crt_stdio_output@@QEAA@XZ 000000018005ee40 f i libucrtd:output.obj
 0001:0005de60       ??1?$output_processor@DV?$stream_output_adapter@D@__crt_stdio_output@@V?$standard_base@DV?$stream_output_adapter@D@__crt_stdio_output@@@2@@__crt_stdio_output@@QEAA@XZ 000000018005ee60 f i libucrtd:output.obj
 0001:0005de80       ??1?$output_processor@DV?$string_output_adapter@D@__crt_stdio_output@@V?$format_validation_base@DV?$string_output_adapter@D@__crt_stdio_output@@@2@@__crt_stdio_output@@QEAA@XZ 000000018005ee80 f i libucrtd:output.obj
 0001:0005dea0       ??1?$output_processor@DV?$string_output_adapter@D@__crt_stdio_output@@V?$positional_parameter_base@DV?$string_output_adapter@D@__crt_stdio_output@@@2@@__crt_stdio_output@@QEAA@XZ 000000018005eea0 f i libucrtd:output.obj
 0001:0005dec0       ??1?$output_processor@DV?$string_output_adapter@D@__crt_stdio_output@@V?$standard_base@DV?$string_output_adapter@D@__crt_stdio_output@@@2@@__crt_stdio_output@@QEAA@XZ 000000018005eec0 f i libucrtd:output.obj
 0001:0005dee0       ??1?$output_processor@_WV?$stream_output_adapter@_W@__crt_stdio_output@@V?$format_validation_base@_WV?$stream_output_adapter@_W@__crt_stdio_output@@@2@@__crt_stdio_output@@QEAA@XZ 000000018005eee0 f i libucrtd:output.obj
 0001:0005df00       ??1?$output_processor@_WV?$stream_output_adapter@_W@__crt_stdio_output@@V?$positional_parameter_base@_WV?$stream_output_adapter@_W@__crt_stdio_output@@@2@@__crt_stdio_output@@QEAA@XZ 000000018005ef00 f i libucrtd:output.obj
 0001:0005df20       ??1?$output_processor@_WV?$stream_output_adapter@_W@__crt_stdio_output@@V?$standard_base@_WV?$stream_output_adapter@_W@__crt_stdio_output@@@2@@__crt_stdio_output@@QEAA@XZ 000000018005ef20 f i libucrtd:output.obj
 0001:0005df40       ??1?$output_processor@_WV?$string_output_adapter@_W@__crt_stdio_output@@V?$format_validation_base@_WV?$string_output_adapter@_W@__crt_stdio_output@@@2@@__crt_stdio_output@@QEAA@XZ 000000018005ef40 f i libucrtd:output.obj
 0001:0005df60       ??1?$output_processor@_WV?$string_output_adapter@_W@__crt_stdio_output@@V?$positional_parameter_base@_WV?$string_output_adapter@_W@__crt_stdio_output@@@2@@__crt_stdio_output@@QEAA@XZ 000000018005ef60 f i libucrtd:output.obj
 0001:0005df80       ??1?$output_processor@_WV?$string_output_adapter@_W@__crt_stdio_output@@V?$standard_base@_WV?$string_output_adapter@_W@__crt_stdio_output@@@2@@__crt_stdio_output@@QEAA@XZ 000000018005ef80 f i libucrtd:output.obj
 0001:0005dfa0       ??1?$positional_parameter_base@DV?$stream_output_adapter@D@__crt_stdio_output@@@__crt_stdio_output@@QEAA@XZ 000000018005efa0 f i libucrtd:output.obj
 0001:0005dfc0       ??1?$positional_parameter_base@DV?$string_output_adapter@D@__crt_stdio_output@@@__crt_stdio_output@@QEAA@XZ 000000018005efc0 f i libucrtd:output.obj
 0001:0005dfe0       ??1?$positional_parameter_base@_WV?$stream_output_adapter@_W@__crt_stdio_output@@@__crt_stdio_output@@QEAA@XZ 000000018005efe0 f i libucrtd:output.obj
 0001:0005e000       ??1?$positional_parameter_base@_WV?$string_output_adapter@_W@__crt_stdio_output@@@__crt_stdio_output@@QEAA@XZ 000000018005f000 f i libucrtd:output.obj
 0001:0005e020       ??1?$standard_base@DV?$stream_output_adapter@D@__crt_stdio_output@@@__crt_stdio_output@@QEAA@XZ 000000018005f020 f i libucrtd:output.obj
 0001:0005e040       ??1?$standard_base@DV?$string_output_adapter@D@__crt_stdio_output@@@__crt_stdio_output@@QEAA@XZ 000000018005f040 f i libucrtd:output.obj
 0001:0005e060       ??1?$standard_base@_WV?$stream_output_adapter@_W@__crt_stdio_output@@@__crt_stdio_output@@QEAA@XZ 000000018005f060 f i libucrtd:output.obj
 0001:0005e080       ??1?$standard_base@_WV?$string_output_adapter@_W@__crt_stdio_output@@@__crt_stdio_output@@QEAA@XZ 000000018005f080 f i libucrtd:output.obj
 0001:0005e0a0       ??1_LocaleUpdate@@QEAA@XZ  000000018005f0a0 f i libucrtd:output.obj
 0001:0005e0e0       ??1__acrt_stdio_temporary_buffering_guard@@QEAA@XZ 000000018005f0e0 f i libucrtd:output.obj
 0001:0005e110       ??1__crt_errno_guard@@QEAA@XZ 000000018005f110 f i libucrtd:output.obj
 0001:0005e140       ??1formatting_buffer@__crt_stdio_output@@QEAA@XZ 000000018005f140 f i libucrtd:output.obj
 0001:0005e170       ??4?$__crt_unique_heap_ptr@DU__crt_internal_free_policy@@@@QEAAAEAV0@$$QEAV0@@Z 000000018005f170 f i libucrtd:output.obj
 0001:0005e1b0       ??C__crt_stdio_stream@@QEBAPEAU__crt_stdio_stream_data@@XZ 000000018005f1b0 f i libucrtd:output.obj
 0001:0005ea60       ?GetLocaleT@_LocaleUpdate@@QEAAPEAU__crt_locale_pointers@@XZ 000000018005fa60 f i libucrtd:output.obj
 0001:0005ea70       ?__crt_interlocked_read_32@@YAHPEDH@Z 000000018005fa70 f i libucrtd:output.obj
 0001:0005ea90       ?adjust_hexit@?$output_processor@DV?$stream_output_adapter@D@__crt_stdio_output@@V?$format_validation_base@DV?$stream_output_adapter@D@__crt_stdio_output@@@2@@__crt_stdio_output@@CADH_N@Z 000000018005fa90 f i libucrtd:output.obj
 0001:0005eae0       ?adjust_hexit@?$output_processor@DV?$stream_output_adapter@D@__crt_stdio_output@@V?$positional_parameter_base@DV?$stream_output_adapter@D@__crt_stdio_output@@@2@@__crt_stdio_output@@CADH_N@Z 000000018005fae0 f i libucrtd:output.obj
 0001:0005eb30       ?adjust_hexit@?$output_processor@DV?$stream_output_adapter@D@__crt_stdio_output@@V?$standard_base@DV?$stream_output_adapter@D@__crt_stdio_output@@@2@@__crt_stdio_output@@CADH_N@Z 000000018005fb30 f i libucrtd:output.obj
 0001:0005eb80       ?adjust_hexit@?$output_processor@DV?$string_output_adapter@D@__crt_stdio_output@@V?$format_validation_base@DV?$string_output_adapter@D@__crt_stdio_output@@@2@@__crt_stdio_output@@CADH_N@Z 000000018005fb80 f i libucrtd:output.obj
 0001:0005ebd0       ?adjust_hexit@?$output_processor@DV?$string_output_adapter@D@__crt_stdio_output@@V?$positional_parameter_base@DV?$string_output_adapter@D@__crt_stdio_output@@@2@@__crt_stdio_output@@CADH_N@Z 000000018005fbd0 f i libucrtd:output.obj
 0001:0005ec20       ?adjust_hexit@?$output_processor@DV?$string_output_adapter@D@__crt_stdio_output@@V?$standard_base@DV?$string_output_adapter@D@__crt_stdio_output@@@2@@__crt_stdio_output@@CADH_N@Z 000000018005fc20 f i libucrtd:output.obj
 0001:0005ec70       ?adjust_hexit@?$output_processor@_WV?$stream_output_adapter@_W@__crt_stdio_output@@V?$format_validation_base@_WV?$stream_output_adapter@_W@__crt_stdio_output@@@2@@__crt_stdio_output@@CADH_N@Z 000000018005fc70 f i libucrtd:output.obj
 0001:0005ecc0       ?adjust_hexit@?$output_processor@_WV?$stream_output_adapter@_W@__crt_stdio_output@@V?$positional_parameter_base@_WV?$stream_output_adapter@_W@__crt_stdio_output@@@2@@__crt_stdio_output@@CADH_N@Z 000000018005fcc0 f i libucrtd:output.obj
 0001:0005ed10       ?adjust_hexit@?$output_processor@_WV?$stream_output_adapter@_W@__crt_stdio_output@@V?$standard_base@_WV?$stream_output_adapter@_W@__crt_stdio_output@@@2@@__crt_stdio_output@@CADH_N@Z 000000018005fd10 f i libucrtd:output.obj
 0001:0005ed60       ?adjust_hexit@?$output_processor@_WV?$string_output_adapter@_W@__crt_stdio_output@@V?$format_validation_base@_WV?$string_output_adapter@_W@__crt_stdio_output@@@2@@__crt_stdio_output@@CADH_N@Z 000000018005fd60 f i libucrtd:output.obj
 0001:0005edb0       ?adjust_hexit@?$output_processor@_WV?$string_output_adapter@_W@__crt_stdio_output@@V?$positional_parameter_base@_WV?$string_output_adapter@_W@__crt_stdio_output@@@2@@__crt_stdio_output@@CADH_N@Z 000000018005fdb0 f i libucrtd:output.obj
 0001:0005ee00       ?adjust_hexit@?$output_processor@_WV?$string_output_adapter@_W@__crt_stdio_output@@V?$standard_base@_WV?$string_output_adapter@_W@__crt_stdio_output@@@2@@__crt_stdio_output@@CADH_N@Z 000000018005fe00 f i libucrtd:output.obj
 0001:0005ee50       ?advance_to_next_pass@?$positional_parameter_base@DV?$stream_output_adapter@D@__crt_stdio_output@@@__crt_stdio_output@@IEAA_NXZ 000000018005fe50 f i libucrtd:output.obj
 0001:0005ef00       ?advance_to_next_pass@?$positional_parameter_base@DV?$string_output_adapter@D@__crt_stdio_output@@@__crt_stdio_output@@IEAA_NXZ 000000018005ff00 f i libucrtd:output.obj
 0001:0005efb0       ?advance_to_next_pass@?$positional_parameter_base@_WV?$stream_output_adapter@_W@__crt_stdio_output@@@__crt_stdio_output@@IEAA_NXZ 000000018005ffb0 f i libucrtd:output.obj
 0001:0005f060       ?advance_to_next_pass@?$positional_parameter_base@_WV?$string_output_adapter@_W@__crt_stdio_output@@@__crt_stdio_output@@IEAA_NXZ 0000000180060060 f i libucrtd:output.obj
 0001:0005f110       ?advance_to_next_pass@?$standard_base@DV?$stream_output_adapter@D@__crt_stdio_output@@@__crt_stdio_output@@IEAA_NXZ 0000000180060110 f i libucrtd:output.obj
 0001:0005f160       ?advance_to_next_pass@?$standard_base@DV?$string_output_adapter@D@__crt_stdio_output@@@__crt_stdio_output@@IEAA_NXZ 0000000180060160 f i libucrtd:output.obj
 0001:0005f1b0       ?advance_to_next_pass@?$standard_base@_WV?$stream_output_adapter@_W@__crt_stdio_output@@@__crt_stdio_output@@IEAA_NXZ 00000001800601b0 f i libucrtd:output.obj
 0001:0005f200       ?advance_to_next_pass@?$standard_base@_WV?$string_output_adapter@_W@__crt_stdio_output@@@__crt_stdio_output@@IEAA_NXZ 0000000180060200 f i libucrtd:output.obj
 0001:0005f250       ?crop_zeroes@__crt_stdio_output@@YAXPEADQEAU__crt_locale_pointers@@@Z 0000000180060250 f i libucrtd:output.obj
 0001:0005f390       ?find_next_state@?$output_processor@DV?$stream_output_adapter@D@__crt_stdio_output@@V?$format_validation_base@DV?$stream_output_adapter@D@__crt_stdio_output@@@2@@__crt_stdio_output@@AEBA?AW4state@2@DW432@@Z 0000000180060390 f i libucrtd:output.obj
 0001:0005f430       ?find_next_state@?$output_processor@DV?$stream_output_adapter@D@__crt_stdio_output@@V?$positional_parameter_base@DV?$stream_output_adapter@D@__crt_stdio_output@@@2@@__crt_stdio_output@@AEBA?AW4state@2@DW432@@Z 0000000180060430 f i libucrtd:output.obj
 0001:0005f4d0       ?find_next_state@?$output_processor@DV?$stream_output_adapter@D@__crt_stdio_output@@V?$standard_base@DV?$stream_output_adapter@D@__crt_stdio_output@@@2@@__crt_stdio_output@@AEBA?AW4state@2@DW432@@Z 00000001800604d0 f i libucrtd:output.obj
 0001:0005f570       ?find_next_state@?$output_processor@DV?$string_output_adapter@D@__crt_stdio_output@@V?$format_validation_base@DV?$string_output_adapter@D@__crt_stdio_output@@@2@@__crt_stdio_output@@AEBA?AW4state@2@DW432@@Z 0000000180060570 f i libucrtd:output.obj
 0001:0005f610       ?find_next_state@?$output_processor@DV?$string_output_adapter@D@__crt_stdio_output@@V?$positional_parameter_base@DV?$string_output_adapter@D@__crt_stdio_output@@@2@@__crt_stdio_output@@AEBA?AW4state@2@DW432@@Z 0000000180060610 f i libucrtd:output.obj
 0001:0005f6b0       ?find_next_state@?$output_processor@DV?$string_output_adapter@D@__crt_stdio_output@@V?$standard_base@DV?$string_output_adapter@D@__crt_stdio_output@@@2@@__crt_stdio_output@@AEBA?AW4state@2@DW432@@Z 00000001800606b0 f i libucrtd:output.obj
 0001:0005f750       ?find_next_state@?$output_processor@_WV?$stream_output_adapter@_W@__crt_stdio_output@@V?$format_validation_base@_WV?$stream_output_adapter@_W@__crt_stdio_output@@@2@@__crt_stdio_output@@AEBA?AW4state@2@_WW432@@Z 0000000180060750 f i libucrtd:output.obj
 0001:0005f7f0       ?find_next_state@?$output_processor@_WV?$stream_output_adapter@_W@__crt_stdio_output@@V?$positional_parameter_base@_WV?$stream_output_adapter@_W@__crt_stdio_output@@@2@@__crt_stdio_output@@AEBA?AW4state@2@_WW432@@Z 00000001800607f0 f i libucrtd:output.obj
 0001:0005f890       ?find_next_state@?$output_processor@_WV?$stream_output_adapter@_W@__crt_stdio_output@@V?$standard_base@_WV?$stream_output_adapter@_W@__crt_stdio_output@@@2@@__crt_stdio_output@@AEBA?AW4state@2@_WW432@@Z 0000000180060890 f i libucrtd:output.obj
 0001:0005f930       ?find_next_state@?$output_processor@_WV?$string_output_adapter@_W@__crt_stdio_output@@V?$format_validation_base@_WV?$string_output_adapter@_W@__crt_stdio_output@@@2@@__crt_stdio_output@@AEBA?AW4state@2@_WW432@@Z 0000000180060930 f i libucrtd:output.obj
 0001:0005f9d0       ?find_next_state@?$output_processor@_WV?$string_output_adapter@_W@__crt_stdio_output@@V?$positional_parameter_base@_WV?$string_output_adapter@_W@__crt_stdio_output@@@2@@__crt_stdio_output@@AEBA?AW4state@2@_WW432@@Z 00000001800609d0 f i libucrtd:output.obj
 0001:0005fa70       ?find_next_state@?$output_processor@_WV?$string_output_adapter@_W@__crt_stdio_output@@V?$standard_base@_WV?$string_output_adapter@_W@__crt_stdio_output@@@2@@__crt_stdio_output@@AEBA?AW4state@2@_WW432@@Z 0000000180060a70 f i libucrtd:output.obj
 0001:0005fb10       ?force_decimal_point@__crt_stdio_output@@YAXPEADQEAU__crt_locale_pointers@@@Z 0000000180060b10 f i libucrtd:output.obj
 0001:0005fbf0       ?get_flags@__crt_stdio_stream@@QEBAJXZ 0000000180060bf0 f i libucrtd:output.obj
 0001:0005fc20       ?get_parameter_type@?$positional_parameter_base@DV?$stream_output_adapter@D@__crt_stdio_output@@@__crt_stdio_output@@CA?AW4parameter_type@12@F@Z 0000000180060c20 f i libucrtd:output.obj
 0001:0005fc30       ?get_parameter_type@?$positional_parameter_base@DV?$stream_output_adapter@D@__crt_stdio_output@@@__crt_stdio_output@@CA?AW4parameter_type@12@G@Z 0000000180060c30 f i libucrtd:output.obj
 0001:0005fc40       ?get_parameter_type@?$positional_parameter_base@DV?$stream_output_adapter@D@__crt_stdio_output@@@__crt_stdio_output@@CA?AW4parameter_type@12@H@Z 0000000180060c40 f i libucrtd:output.obj
 0001:0005fc50       ?get_parameter_type@?$positional_parameter_base@DV?$stream_output_adapter@D@__crt_stdio_output@@@__crt_stdio_output@@CA?AW4parameter_type@12@I@Z 0000000180060c50 f i libucrtd:output.obj
 0001:0005fc60       ?get_parameter_type@?$positional_parameter_base@DV?$stream_output_adapter@D@__crt_stdio_output@@@__crt_stdio_output@@CA?AW4parameter_type@12@U_CRT_DOUBLE@@@Z 0000000180060c60 f i libucrtd:output.obj
 0001:0005fc70       ?get_parameter_type@?$positional_parameter_base@DV?$stream_output_adapter@D@__crt_stdio_output@@@__crt_stdio_output@@CA?AW4parameter_type@12@_J@Z 0000000180060c70 f i libucrtd:output.obj
 0001:0005fc80       ?get_parameter_type@?$positional_parameter_base@DV?$stream_output_adapter@D@__crt_stdio_output@@@__crt_stdio_output@@CA?AW4parameter_type@12@_K@Z 0000000180060c80 f i libucrtd:output.obj
 0001:0005fc90       ?get_parameter_type@?$positional_parameter_base@DV?$stream_output_adapter@D@__crt_stdio_output@@@__crt_stdio_output@@CA?AW4parameter_type@12@_W@Z 0000000180060c90 f i libucrtd:output.obj
 0001:0005fca0       ?get_parameter_type@?$positional_parameter_base@DV?$string_output_adapter@D@__crt_stdio_output@@@__crt_stdio_output@@CA?AW4parameter_type@12@F@Z 0000000180060ca0 f i libucrtd:output.obj
 0001:0005fcb0       ?get_parameter_type@?$positional_parameter_base@DV?$string_output_adapter@D@__crt_stdio_output@@@__crt_stdio_output@@CA?AW4parameter_type@12@G@Z 0000000180060cb0 f i libucrtd:output.obj
 0001:0005fcc0       ?get_parameter_type@?$positional_parameter_base@DV?$string_output_adapter@D@__crt_stdio_output@@@__crt_stdio_output@@CA?AW4parameter_type@12@H@Z 0000000180060cc0 f i libucrtd:output.obj
 0001:0005fcd0       ?get_parameter_type@?$positional_parameter_base@DV?$string_output_adapter@D@__crt_stdio_output@@@__crt_stdio_output@@CA?AW4parameter_type@12@I@Z 0000000180060cd0 f i libucrtd:output.obj
 0001:0005fce0       ?get_parameter_type@?$positional_parameter_base@DV?$string_output_adapter@D@__crt_stdio_output@@@__crt_stdio_output@@CA?AW4parameter_type@12@U_CRT_DOUBLE@@@Z 0000000180060ce0 f i libucrtd:output.obj
 0001:0005fcf0       ?get_parameter_type@?$positional_parameter_base@DV?$string_output_adapter@D@__crt_stdio_output@@@__crt_stdio_output@@CA?AW4parameter_type@12@_J@Z 0000000180060cf0 f i libucrtd:output.obj
 0001:0005fd00       ?get_parameter_type@?$positional_parameter_base@DV?$string_output_adapter@D@__crt_stdio_output@@@__crt_stdio_output@@CA?AW4parameter_type@12@_K@Z 0000000180060d00 f i libucrtd:output.obj
 0001:0005fd10       ?get_parameter_type@?$positional_parameter_base@DV?$string_output_adapter@D@__crt_stdio_output@@@__crt_stdio_output@@CA?AW4parameter_type@12@_W@Z 0000000180060d10 f i libucrtd:output.obj
 0001:0005fd20       ?get_parameter_type@?$positional_parameter_base@_WV?$stream_output_adapter@_W@__crt_stdio_output@@@__crt_stdio_output@@CA?AW4parameter_type@12@F@Z 0000000180060d20 f i libucrtd:output.obj
 0001:0005fd30       ?get_parameter_type@?$positional_parameter_base@_WV?$stream_output_adapter@_W@__crt_stdio_output@@@__crt_stdio_output@@CA?AW4parameter_type@12@G@Z 0000000180060d30 f i libucrtd:output.obj
 0001:0005fd40       ?get_parameter_type@?$positional_parameter_base@_WV?$stream_output_adapter@_W@__crt_stdio_output@@@__crt_stdio_output@@CA?AW4parameter_type@12@H@Z 0000000180060d40 f i libucrtd:output.obj
 0001:0005fd50       ?get_parameter_type@?$positional_parameter_base@_WV?$stream_output_adapter@_W@__crt_stdio_output@@@__crt_stdio_output@@CA?AW4parameter_type@12@I@Z 0000000180060d50 f i libucrtd:output.obj
 0001:0005fd60       ?get_parameter_type@?$positional_parameter_base@_WV?$stream_output_adapter@_W@__crt_stdio_output@@@__crt_stdio_output@@CA?AW4parameter_type@12@U_CRT_DOUBLE@@@Z 0000000180060d60 f i libucrtd:output.obj
 0001:0005fd70       ?get_parameter_type@?$positional_parameter_base@_WV?$stream_output_adapter@_W@__crt_stdio_output@@@__crt_stdio_output@@CA?AW4parameter_type@12@_J@Z 0000000180060d70 f i libucrtd:output.obj
 0001:0005fd80       ?get_parameter_type@?$positional_parameter_base@_WV?$stream_output_adapter@_W@__crt_stdio_output@@@__crt_stdio_output@@CA?AW4parameter_type@12@_K@Z 0000000180060d80 f i libucrtd:output.obj
 0001:0005fd90       ?get_parameter_type@?$positional_parameter_base@_WV?$stream_output_adapter@_W@__crt_stdio_output@@@__crt_stdio_output@@CA?AW4parameter_type@12@_W@Z 0000000180060d90 f i libucrtd:output.obj
 0001:0005fda0       ?get_parameter_type@?$positional_parameter_base@_WV?$string_output_adapter@_W@__crt_stdio_output@@@__crt_stdio_output@@CA?AW4parameter_type@12@F@Z 0000000180060da0 f i libucrtd:output.obj
 0001:0005fdb0       ?get_parameter_type@?$positional_parameter_base@_WV?$string_output_adapter@_W@__crt_stdio_output@@@__crt_stdio_output@@CA?AW4parameter_type@12@G@Z 0000000180060db0 f i libucrtd:output.obj
 0001:0005fdc0       ?get_parameter_type@?$positional_parameter_base@_WV?$string_output_adapter@_W@__crt_stdio_output@@@__crt_stdio_output@@CA?AW4parameter_type@12@H@Z 0000000180060dc0 f i libucrtd:output.obj
 0001:0005fdd0       ?get_parameter_type@?$positional_parameter_base@_WV?$string_output_adapter@_W@__crt_stdio_output@@@__crt_stdio_output@@CA?AW4parameter_type@12@I@Z 0000000180060dd0 f i libucrtd:output.obj
 0001:0005fde0       ?get_parameter_type@?$positional_parameter_base@_WV?$string_output_adapter@_W@__crt_stdio_output@@@__crt_stdio_output@@CA?AW4parameter_type@12@U_CRT_DOUBLE@@@Z 0000000180060de0 f i libucrtd:output.obj
 0001:0005fdf0       ?get_parameter_type@?$positional_parameter_base@_WV?$string_output_adapter@_W@__crt_stdio_output@@@__crt_stdio_output@@CA?AW4parameter_type@12@_J@Z 0000000180060df0 f i libucrtd:output.obj
 0001:0005fe00       ?get_parameter_type@?$positional_parameter_base@_WV?$string_output_adapter@_W@__crt_stdio_output@@@__crt_stdio_output@@CA?AW4parameter_type@12@_K@Z 0000000180060e00 f i libucrtd:output.obj
 0001:0005fe10       ?get_parameter_type@?$positional_parameter_base@_WV?$string_output_adapter@_W@__crt_stdio_output@@@__crt_stdio_output@@CA?AW4parameter_type@12@_W@Z 0000000180060e10 f i libucrtd:output.obj
 0001:0005fe20       ?has_flag@?$output_processor@DV?$stream_output_adapter@D@__crt_stdio_output@@V?$format_validation_base@DV?$stream_output_adapter@D@__crt_stdio_output@@@2@@__crt_stdio_output@@AEBA_NI@Z 0000000180060e20 f i libucrtd:output.obj
 0001:0005fe60       ?has_flag@?$output_processor@DV?$stream_output_adapter@D@__crt_stdio_output@@V?$positional_parameter_base@DV?$stream_output_adapter@D@__crt_stdio_output@@@2@@__crt_stdio_output@@AEBA_NI@Z 0000000180060e60 f i libucrtd:output.obj
 0001:0005fea0       ?has_flag@?$output_processor@DV?$stream_output_adapter@D@__crt_stdio_output@@V?$standard_base@DV?$stream_output_adapter@D@__crt_stdio_output@@@2@@__crt_stdio_output@@AEBA_NI@Z 0000000180060ea0 f i libucrtd:output.obj
 0001:0005fee0       ?has_flag@?$output_processor@DV?$string_output_adapter@D@__crt_stdio_output@@V?$format_validation_base@DV?$string_output_adapter@D@__crt_stdio_output@@@2@@__crt_stdio_output@@AEBA_NI@Z 0000000180060ee0 f i libucrtd:output.obj
 0001:0005ff20       ?has_flag@?$output_processor@DV?$string_output_adapter@D@__crt_stdio_output@@V?$positional_parameter_base@DV?$string_output_adapter@D@__crt_stdio_output@@@2@@__crt_stdio_output@@AEBA_NI@Z 0000000180060f20 f i libucrtd:output.obj
 0001:0005ff60       ?has_flag@?$output_processor@DV?$string_output_adapter@D@__crt_stdio_output@@V?$standard_base@DV?$string_output_adapter@D@__crt_stdio_output@@@2@@__crt_stdio_output@@AEBA_NI@Z 0000000180060f60 f i libucrtd:output.obj
 0001:0005ffa0       ?has_flag@?$output_processor@_WV?$stream_output_adapter@_W@__crt_stdio_output@@V?$format_validation_base@_WV?$stream_output_adapter@_W@__crt_stdio_output@@@2@@__crt_stdio_output@@AEBA_NI@Z 0000000180060fa0 f i libucrtd:output.obj
 0001:0005ffe0       ?has_flag@?$output_processor@_WV?$stream_output_adapter@_W@__crt_stdio_output@@V?$positional_parameter_base@_WV?$stream_output_adapter@_W@__crt_stdio_output@@@2@@__crt_stdio_output@@AEBA_NI@Z 0000000180060fe0 f i libucrtd:output.obj
 0001:00060020       ?has_flag@?$output_processor@_WV?$stream_output_adapter@_W@__crt_stdio_output@@V?$standard_base@_WV?$stream_output_adapter@_W@__crt_stdio_output@@@2@@__crt_stdio_output@@AEBA_NI@Z 0000000180061020 f i libucrtd:output.obj
 0001:00060060       ?has_flag@?$output_processor@_WV?$string_output_adapter@_W@__crt_stdio_output@@V?$format_validation_base@_WV?$string_output_adapter@_W@__crt_stdio_output@@@2@@__crt_stdio_output@@AEBA_NI@Z 0000000180061060 f i libucrtd:output.obj
 0001:000600a0       ?has_flag@?$output_processor@_WV?$string_output_adapter@_W@__crt_stdio_output@@V?$positional_parameter_base@_WV?$string_output_adapter@_W@__crt_stdio_output@@@2@@__crt_stdio_output@@AEBA_NI@Z 00000001800610a0 f i libucrtd:output.obj
 0001:000600e0       ?has_flag@?$output_processor@_WV?$string_output_adapter@_W@__crt_stdio_output@@V?$standard_base@_WV?$string_output_adapter@_W@__crt_stdio_output@@@2@@__crt_stdio_output@@AEBA_NI@Z 00000001800610e0 f i libucrtd:output.obj
 0001:00060120       ?is_positional_parameter_reappearance_consistent@?$positional_parameter_base@DV?$stream_output_adapter@D@__crt_stdio_output@@@__crt_stdio_output@@AEAA_NAEBUparameter_data@12@W4parameter_type@12@DW4length_modifier@2@@Z 0000000180061120 f i libucrtd:output.obj
 0001:00060380       ?is_positional_parameter_reappearance_consistent@?$positional_parameter_base@DV?$string_output_adapter@D@__crt_stdio_output@@@__crt_stdio_output@@AEAA_NAEBUparameter_data@12@W4parameter_type@12@DW4length_modifier@2@@Z 0000000180061380 f i libucrtd:output.obj
 0001:000605e0       ?is_positional_parameter_reappearance_consistent@?$positional_parameter_base@_WV?$stream_output_adapter@_W@__crt_stdio_output@@@__crt_stdio_output@@AEAA_NAEBUparameter_data@12@W4parameter_type@12@_WW4length_modifier@2@@Z 00000001800615e0 f i libucrtd:output.obj
 0001:00060840       ?is_positional_parameter_reappearance_consistent@?$positional_parameter_base@_WV?$string_output_adapter@_W@__crt_stdio_output@@@__crt_stdio_output@@AEAA_NAEBUparameter_data@12@W4parameter_type@12@_WW4length_modifier@2@@Z 0000000180061840 f i libucrtd:output.obj
 0001:00060aa0       ?is_string_backed@__crt_stdio_stream@@QEBA_NXZ 0000000180061aa0 f i libucrtd:output.obj
 0001:00060ae0       ?narrow_null_string@?$output_processor@DV?$stream_output_adapter@D@__crt_stdio_output@@V?$format_validation_base@DV?$stream_output_adapter@D@__crt_stdio_output@@@2@@__crt_stdio_output@@CAPEADXZ 0000000180061ae0 f i libucrtd:output.obj
 0001:00060af0       ?narrow_null_string@?$output_processor@DV?$stream_output_adapter@D@__crt_stdio_output@@V?$positional_parameter_base@DV?$stream_output_adapter@D@__crt_stdio_output@@@2@@__crt_stdio_output@@CAPEADXZ 0000000180061af0 f i libucrtd:output.obj
 0001:00060b00       ?narrow_null_string@?$output_processor@DV?$stream_output_adapter@D@__crt_stdio_output@@V?$standard_base@DV?$stream_output_adapter@D@__crt_stdio_output@@@2@@__crt_stdio_output@@CAPEADXZ 0000000180061b00 f i libucrtd:output.obj
 0001:00060b10       ?narrow_null_string@?$output_processor@DV?$string_output_adapter@D@__crt_stdio_output@@V?$format_validation_base@DV?$string_output_adapter@D@__crt_stdio_output@@@2@@__crt_stdio_output@@CAPEADXZ 0000000180061b10 f i libucrtd:output.obj
 0001:00060b20       ?narrow_null_string@?$output_processor@DV?$string_output_adapter@D@__crt_stdio_output@@V?$positional_parameter_base@DV?$string_output_adapter@D@__crt_stdio_output@@@2@@__crt_stdio_output@@CAPEADXZ 0000000180061b20 f i libucrtd:output.obj
 0001:00060b30       ?narrow_null_string@?$output_processor@DV?$string_output_adapter@D@__crt_stdio_output@@V?$standard_base@DV?$string_output_adapter@D@__crt_stdio_output@@@2@@__crt_stdio_output@@CAPEADXZ 0000000180061b30 f i libucrtd:output.obj
 0001:00060b40       ?narrow_null_string@?$output_processor@_WV?$stream_output_adapter@_W@__crt_stdio_output@@V?$format_validation_base@_WV?$stream_output_adapter@_W@__crt_stdio_output@@@2@@__crt_stdio_output@@CAPEADXZ 0000000180061b40 f i libucrtd:output.obj
 0001:00060b50       ?narrow_null_string@?$output_processor@_WV?$stream_output_adapter@_W@__crt_stdio_output@@V?$positional_parameter_base@_WV?$stream_output_adapter@_W@__crt_stdio_output@@@2@@__crt_stdio_output@@CAPEADXZ 0000000180061b50 f i libucrtd:output.obj
 0001:00060b60       ?narrow_null_string@?$output_processor@_WV?$stream_output_adapter@_W@__crt_stdio_output@@V?$standard_base@_WV?$stream_output_adapter@_W@__crt_stdio_output@@@2@@__crt_stdio_output@@CAPEADXZ 0000000180061b60 f i libucrtd:output.obj
 0001:00060b70       ?narrow_null_string@?$output_processor@_WV?$string_output_adapter@_W@__crt_stdio_output@@V?$format_validation_base@_WV?$string_output_adapter@_W@__crt_stdio_output@@@2@@__crt_stdio_output@@CAPEADXZ 0000000180061b70 f i libucrtd:output.obj
 0001:00060b80       ?narrow_null_string@?$output_processor@_WV?$string_output_adapter@_W@__crt_stdio_output@@V?$positional_parameter_base@_WV?$string_output_adapter@_W@__crt_stdio_output@@@2@@__crt_stdio_output@@CAPEADXZ 0000000180061b80 f i libucrtd:output.obj
 0001:00060b90       ?narrow_null_string@?$output_processor@_WV?$string_output_adapter@_W@__crt_stdio_output@@V?$standard_base@_WV?$string_output_adapter@_W@__crt_stdio_output@@@2@@__crt_stdio_output@@CAPEADXZ 0000000180061b90 f i libucrtd:output.obj
 0001:00060ba0       ?parse_int_from_format_string@?$output_processor@DV?$stream_output_adapter@D@__crt_stdio_output@@V?$format_validation_base@DV?$stream_output_adapter@D@__crt_stdio_output@@@2@@__crt_stdio_output@@AEAA_NQEAH@Z 0000000180061ba0 f i libucrtd:output.obj
 0001:00060c80       ?parse_int_from_format_string@?$output_processor@DV?$stream_output_adapter@D@__crt_stdio_output@@V?$positional_parameter_base@DV?$stream_output_adapter@D@__crt_stdio_output@@@2@@__crt_stdio_output@@AEAA_NQEAH@Z 0000000180061c80 f i libucrtd:output.obj
 0001:00060d60       ?parse_int_from_format_string@?$output_processor@DV?$stream_output_adapter@D@__crt_stdio_output@@V?$standard_base@DV?$stream_output_adapter@D@__crt_stdio_output@@@2@@__crt_stdio_output@@AEAA_NQEAH@Z 0000000180061d60 f i libucrtd:output.obj
 0001:00060e40       ?parse_int_from_format_string@?$output_processor@DV?$string_output_adapter@D@__crt_stdio_output@@V?$format_validation_base@DV?$string_output_adapter@D@__crt_stdio_output@@@2@@__crt_stdio_output@@AEAA_NQEAH@Z 0000000180061e40 f i libucrtd:output.obj
 0001:00060f20       ?parse_int_from_format_string@?$output_processor@DV?$string_output_adapter@D@__crt_stdio_output@@V?$positional_parameter_base@DV?$string_output_adapter@D@__crt_stdio_output@@@2@@__crt_stdio_output@@AEAA_NQEAH@Z 0000000180061f20 f i libucrtd:output.obj
 0001:00061000       ?parse_int_from_format_string@?$output_processor@DV?$string_output_adapter@D@__crt_stdio_output@@V?$standard_base@DV?$string_output_adapter@D@__crt_stdio_output@@@2@@__crt_stdio_output@@AEAA_NQEAH@Z 0000000180062000 f i libucrtd:output.obj
 0001:000610e0       ?parse_int_from_format_string@?$output_processor@_WV?$stream_output_adapter@_W@__crt_stdio_output@@V?$format_validation_base@_WV?$stream_output_adapter@_W@__crt_stdio_output@@@2@@__crt_stdio_output@@AEAA_NQEAH@Z 00000001800620e0 f i libucrtd:output.obj
 0001:000611c0       ?parse_int_from_format_string@?$output_processor@_WV?$stream_output_adapter@_W@__crt_stdio_output@@V?$positional_parameter_base@_WV?$stream_output_adapter@_W@__crt_stdio_output@@@2@@__crt_stdio_output@@AEAA_NQEAH@Z 00000001800621c0 f i libucrtd:output.obj
 0001:000612a0       ?parse_int_from_format_string@?$output_processor@_WV?$stream_output_adapter@_W@__crt_stdio_output@@V?$standard_base@_WV?$stream_output_adapter@_W@__crt_stdio_output@@@2@@__crt_stdio_output@@AEAA_NQEAH@Z 00000001800622a0 f i libucrtd:output.obj
 0001:00061380       ?parse_int_from_format_string@?$output_processor@_WV?$string_output_adapter@_W@__crt_stdio_output@@V?$format_validation_base@_WV?$string_output_adapter@_W@__crt_stdio_output@@@2@@__crt_stdio_output@@AEAA_NQEAH@Z 0000000180062380 f i libucrtd:output.obj
 0001:00061460       ?parse_int_from_format_string@?$output_processor@_WV?$string_output_adapter@_W@__crt_stdio_output@@V?$positional_parameter_base@_WV?$string_output_adapter@_W@__crt_stdio_output@@@2@@__crt_stdio_output@@AEAA_NQEAH@Z 0000000180062460 f i libucrtd:output.obj
 0001:00061540       ?parse_int_from_format_string@?$output_processor@_WV?$string_output_adapter@_W@__crt_stdio_output@@V?$standard_base@_WV?$string_output_adapter@_W@__crt_stdio_output@@@2@@__crt_stdio_output@@AEAA_NQEAH@Z 0000000180062540 f i libucrtd:output.obj
 0001:00061620       ?process@?$output_processor@DV?$stream_output_adapter@D@__crt_stdio_output@@V?$format_validation_base@DV?$stream_output_adapter@D@__crt_stdio_output@@@2@@__crt_stdio_output@@QEAAHXZ 0000000180062620 f i libucrtd:output.obj
 0001:00061980       ?process@?$output_processor@DV?$stream_output_adapter@D@__crt_stdio_output@@V?$positional_parameter_base@DV?$stream_output_adapter@D@__crt_stdio_output@@@2@@__crt_stdio_output@@QEAAHXZ 0000000180062980 f i libucrtd:output.obj
 0001:00061ce0       ?process@?$output_processor@DV?$stream_output_adapter@D@__crt_stdio_output@@V?$standard_base@DV?$stream_output_adapter@D@__crt_stdio_output@@@2@@__crt_stdio_output@@QEAAHXZ 0000000180062ce0 f i libucrtd:output.obj
 0001:00062040       ?process@?$output_processor@DV?$string_output_adapter@D@__crt_stdio_output@@V?$format_validation_base@DV?$string_output_adapter@D@__crt_stdio_output@@@2@@__crt_stdio_output@@QEAAHXZ 0000000180063040 f i libucrtd:output.obj
 0001:000623a0       ?process@?$output_processor@DV?$string_output_adapter@D@__crt_stdio_output@@V?$positional_parameter_base@DV?$string_output_adapter@D@__crt_stdio_output@@@2@@__crt_stdio_output@@QEAAHXZ 00000001800633a0 f i libucrtd:output.obj
 0001:00062700       ?process@?$output_processor@DV?$string_output_adapter@D@__crt_stdio_output@@V?$standard_base@DV?$string_output_adapter@D@__crt_stdio_output@@@2@@__crt_stdio_output@@QEAAHXZ 0000000180063700 f i libucrtd:output.obj
 0001:00062a60       ?process@?$output_processor@_WV?$stream_output_adapter@_W@__crt_stdio_output@@V?$format_validation_base@_WV?$stream_output_adapter@_W@__crt_stdio_output@@@2@@__crt_stdio_output@@QEAAHXZ 0000000180063a60 f i libucrtd:output.obj
 0001:00062dc0       ?process@?$output_processor@_WV?$stream_output_adapter@_W@__crt_stdio_output@@V?$positional_parameter_base@_WV?$stream_output_adapter@_W@__crt_stdio_output@@@2@@__crt_stdio_output@@QEAAHXZ 0000000180063dc0 f i libucrtd:output.obj
 0001:00063120       ?process@?$output_processor@_WV?$stream_output_adapter@_W@__crt_stdio_output@@V?$standard_base@_WV?$stream_output_adapter@_W@__crt_stdio_output@@@2@@__crt_stdio_output@@QEAAHXZ 0000000180064120 f i libucrtd:output.obj
 0001:00063480       ?process@?$output_processor@_WV?$string_output_adapter@_W@__crt_stdio_output@@V?$format_validation_base@_WV?$string_output_adapter@_W@__crt_stdio_output@@@2@@__crt_stdio_output@@QEAAHXZ 0000000180064480 f i libucrtd:output.obj
 0001:000637e0       ?process@?$output_processor@_WV?$string_output_adapter@_W@__crt_stdio_output@@V?$positional_parameter_base@_WV?$string_output_adapter@_W@__crt_stdio_output@@@2@@__crt_stdio_output@@QEAAHXZ 00000001800647e0 f i libucrtd:output.obj
 0001:00063b40       ?process@?$output_processor@_WV?$string_output_adapter@_W@__crt_stdio_output@@V?$standard_base@_WV?$string_output_adapter@_W@__crt_stdio_output@@@2@@__crt_stdio_output@@QEAAHXZ 0000000180064b40 f i libucrtd:output.obj
 0001:00063ea0       ?public_stream@__crt_stdio_stream@@QEBAPEAU_iobuf@@XZ 0000000180064ea0 f i libucrtd:output.obj
 0001:00063eb0       ?set_flag@?$output_processor@DV?$stream_output_adapter@D@__crt_stdio_output@@V?$format_validation_base@DV?$stream_output_adapter@D@__crt_stdio_output@@@2@@__crt_stdio_output@@AEAAXI@Z 0000000180064eb0 f i libucrtd:output.obj
 0001:00063ed0       ?set_flag@?$output_processor@DV?$stream_output_adapter@D@__crt_stdio_output@@V?$positional_parameter_base@DV?$stream_output_adapter@D@__crt_stdio_output@@@2@@__crt_stdio_output@@AEAAXI@Z 0000000180064ed0 f i libucrtd:output.obj
 0001:00063ef0       ?set_flag@?$output_processor@DV?$stream_output_adapter@D@__crt_stdio_output@@V?$standard_base@DV?$stream_output_adapter@D@__crt_stdio_output@@@2@@__crt_stdio_output@@AEAAXI@Z 0000000180064ef0 f i libucrtd:output.obj
 0001:00063f10       ?set_flag@?$output_processor@DV?$string_output_adapter@D@__crt_stdio_output@@V?$format_validation_base@DV?$string_output_adapter@D@__crt_stdio_output@@@2@@__crt_stdio_output@@AEAAXI@Z 0000000180064f10 f i libucrtd:output.obj
 0001:00063f30       ?set_flag@?$output_processor@DV?$string_output_adapter@D@__crt_stdio_output@@V?$positional_parameter_base@DV?$string_output_adapter@D@__crt_stdio_output@@@2@@__crt_stdio_output@@AEAAXI@Z 0000000180064f30 f i libucrtd:output.obj
 0001:00063f50       ?set_flag@?$output_processor@DV?$string_output_adapter@D@__crt_stdio_output@@V?$standard_base@DV?$string_output_adapter@D@__crt_stdio_output@@@2@@__crt_stdio_output@@AEAAXI@Z 0000000180064f50 f i libucrtd:output.obj
 0001:00063f70       ?set_flag@?$output_processor@_WV?$stream_output_adapter@_W@__crt_stdio_output@@V?$format_validation_base@_WV?$stream_output_adapter@_W@__crt_stdio_output@@@2@@__crt_stdio_output@@AEAAXI@Z 0000000180064f70 f i libucrtd:output.obj
 0001:00063f90       ?set_flag@?$output_processor@_WV?$stream_output_adapter@_W@__crt_stdio_output@@V?$positional_parameter_base@_WV?$stream_output_adapter@_W@__crt_stdio_output@@@2@@__crt_stdio_output@@AEAAXI@Z 0000000180064f90 f i libucrtd:output.obj
 0001:00063fb0       ?set_flag@?$output_processor@_WV?$stream_output_adapter@_W@__crt_stdio_output@@V?$standard_base@_WV?$stream_output_adapter@_W@__crt_stdio_output@@@2@@__crt_stdio_output@@AEAAXI@Z 0000000180064fb0 f i libucrtd:output.obj
 0001:00063fd0       ?set_flag@?$output_processor@_WV?$string_output_adapter@_W@__crt_stdio_output@@V?$format_validation_base@_WV?$string_output_adapter@_W@__crt_stdio_output@@@2@@__crt_stdio_output@@AEAAXI@Z 0000000180064fd0 f i libucrtd:output.obj
 0001:00063ff0       ?set_flag@?$output_processor@_WV?$string_output_adapter@_W@__crt_stdio_output@@V?$positional_parameter_base@_WV?$string_output_adapter@_W@__crt_stdio_output@@@2@@__crt_stdio_output@@AEAAXI@Z 0000000180064ff0 f i libucrtd:output.obj
 0001:00064010       ?set_flag@?$output_processor@_WV?$string_output_adapter@_W@__crt_stdio_output@@V?$standard_base@_WV?$string_output_adapter@_W@__crt_stdio_output@@@2@@__crt_stdio_output@@AEAAXI@Z 0000000180065010 f i libucrtd:output.obj
 0001:00064030       ?should_format@?$positional_parameter_base@DV?$stream_output_adapter@D@__crt_stdio_output@@@__crt_stdio_output@@IEAA_NXZ 0000000180065030 f i libucrtd:output.obj
 0001:00064070       ?should_format@?$positional_parameter_base@DV?$string_output_adapter@D@__crt_stdio_output@@@__crt_stdio_output@@IEAA_NXZ 0000000180065070 f i libucrtd:output.obj
 0001:000640b0       ?should_format@?$positional_parameter_base@_WV?$stream_output_adapter@_W@__crt_stdio_output@@@__crt_stdio_output@@IEAA_NXZ 00000001800650b0 f i libucrtd:output.obj
 0001:000640f0       ?should_format@?$positional_parameter_base@_WV?$string_output_adapter@_W@__crt_stdio_output@@@__crt_stdio_output@@IEAA_NXZ 00000001800650f0 f i libucrtd:output.obj
 0001:00064130       ?should_format@?$standard_base@DV?$stream_output_adapter@D@__crt_stdio_output@@@__crt_stdio_output@@IEAA_NXZ 0000000180065130 f i libucrtd:output.obj
 0001:00064140       ?should_format@?$standard_base@DV?$string_output_adapter@D@__crt_stdio_output@@@__crt_stdio_output@@IEAA_NXZ 0000000180065140 f i libucrtd:output.obj
 0001:00064150       ?should_format@?$standard_base@_WV?$stream_output_adapter@_W@__crt_stdio_output@@@__crt_stdio_output@@IEAA_NXZ 0000000180065150 f i libucrtd:output.obj
 0001:00064160       ?should_format@?$standard_base@_WV?$string_output_adapter@_W@__crt_stdio_output@@@__crt_stdio_output@@IEAA_NXZ 0000000180065160 f i libucrtd:output.obj
 0001:00064170       ?should_skip_normal_state_processing@?$positional_parameter_base@DV?$stream_output_adapter@D@__crt_stdio_output@@@__crt_stdio_output@@IEAA_NXZ 0000000180065170 f i libucrtd:output.obj
 0001:000641c0       ?should_skip_normal_state_processing@?$positional_parameter_base@DV?$string_output_adapter@D@__crt_stdio_output@@@__crt_stdio_output@@IEAA_NXZ 00000001800651c0 f i libucrtd:output.obj
 0001:00064210       ?should_skip_normal_state_processing@?$positional_parameter_base@_WV?$stream_output_adapter@_W@__crt_stdio_output@@@__crt_stdio_output@@IEAA_NXZ 0000000180065210 f i libucrtd:output.obj
 0001:00064260       ?should_skip_normal_state_processing@?$positional_parameter_base@_WV?$string_output_adapter@_W@__crt_stdio_output@@@__crt_stdio_output@@IEAA_NXZ 0000000180065260 f i libucrtd:output.obj
 0001:000642b0       ?should_skip_normal_state_processing@?$standard_base@DV?$stream_output_adapter@D@__crt_stdio_output@@@__crt_stdio_output@@IEAA_NXZ 00000001800652b0 f i libucrtd:output.obj
 0001:000642c0       ?should_skip_normal_state_processing@?$standard_base@DV?$string_output_adapter@D@__crt_stdio_output@@@__crt_stdio_output@@IEAA_NXZ 00000001800652c0 f i libucrtd:output.obj
 0001:000642d0       ?should_skip_normal_state_processing@?$standard_base@_WV?$stream_output_adapter@_W@__crt_stdio_output@@@__crt_stdio_output@@IEAA_NXZ 00000001800652d0 f i libucrtd:output.obj
 0001:000642e0       ?should_skip_normal_state_processing@?$standard_base@_WV?$string_output_adapter@_W@__crt_stdio_output@@@__crt_stdio_output@@IEAA_NXZ 00000001800652e0 f i libucrtd:output.obj
 0001:000642f0       ?should_skip_type_state_output@?$positional_parameter_base@DV?$stream_output_adapter@D@__crt_stdio_output@@@__crt_stdio_output@@IEBA_NXZ 00000001800652f0 f i libucrtd:output.obj
 0001:00064330       ?should_skip_type_state_output@?$positional_parameter_base@DV?$string_output_adapter@D@__crt_stdio_output@@@__crt_stdio_output@@IEBA_NXZ 0000000180065330 f i libucrtd:output.obj
 0001:00064370       ?should_skip_type_state_output@?$positional_parameter_base@_WV?$stream_output_adapter@_W@__crt_stdio_output@@@__crt_stdio_output@@IEBA_NXZ 0000000180065370 f i libucrtd:output.obj
 0001:000643b0       ?should_skip_type_state_output@?$positional_parameter_base@_WV?$string_output_adapter@_W@__crt_stdio_output@@@__crt_stdio_output@@IEBA_NXZ 00000001800653b0 f i libucrtd:output.obj
 0001:000643f0       ?should_skip_type_state_output@?$standard_base@DV?$stream_output_adapter@D@__crt_stdio_output@@@__crt_stdio_output@@IEBA_NXZ 00000001800653f0 f i libucrtd:output.obj
 0001:00064400       ?should_skip_type_state_output@?$standard_base@DV?$string_output_adapter@D@__crt_stdio_output@@@__crt_stdio_output@@IEBA_NXZ 0000000180065400 f i libucrtd:output.obj
 0001:00064410       ?should_skip_type_state_output@?$standard_base@_WV?$stream_output_adapter@_W@__crt_stdio_output@@@__crt_stdio_output@@IEBA_NXZ 0000000180065410 f i libucrtd:output.obj
 0001:00064420       ?should_skip_type_state_output@?$standard_base@_WV?$string_output_adapter@_W@__crt_stdio_output@@@__crt_stdio_output@@IEBA_NXZ 0000000180065420 f i libucrtd:output.obj
 0001:00064430       ?state_case_dot@?$output_processor@DV?$stream_output_adapter@D@__crt_stdio_output@@V?$format_validation_base@DV?$stream_output_adapter@D@__crt_stdio_output@@@2@@__crt_stdio_output@@AEAA_NXZ 0000000180065430 f i libucrtd:output.obj
 0001:00064450       ?state_case_dot@?$output_processor@DV?$stream_output_adapter@D@__crt_stdio_output@@V?$positional_parameter_base@DV?$stream_output_adapter@D@__crt_stdio_output@@@2@@__crt_stdio_output@@AEAA_NXZ 0000000180065450 f i libucrtd:output.obj
 0001:00064470       ?state_case_dot@?$output_processor@DV?$stream_output_adapter@D@__crt_stdio_output@@V?$standard_base@DV?$stream_output_adapter@D@__crt_stdio_output@@@2@@__crt_stdio_output@@AEAA_NXZ 0000000180065470 f i libucrtd:output.obj
 0001:00064490       ?state_case_dot@?$output_processor@DV?$string_output_adapter@D@__crt_stdio_output@@V?$format_validation_base@DV?$string_output_adapter@D@__crt_stdio_output@@@2@@__crt_stdio_output@@AEAA_NXZ 0000000180065490 f i libucrtd:output.obj
 0001:000644b0       ?state_case_dot@?$output_processor@DV?$string_output_adapter@D@__crt_stdio_output@@V?$positional_parameter_base@DV?$string_output_adapter@D@__crt_stdio_output@@@2@@__crt_stdio_output@@AEAA_NXZ 00000001800654b0 f i libucrtd:output.obj
 0001:000644d0       ?state_case_dot@?$output_processor@DV?$string_output_adapter@D@__crt_stdio_output@@V?$standard_base@DV?$string_output_adapter@D@__crt_stdio_output@@@2@@__crt_stdio_output@@AEAA_NXZ 00000001800654d0 f i libucrtd:output.obj
 0001:000644f0       ?state_case_dot@?$output_processor@_WV?$stream_output_adapter@_W@__crt_stdio_output@@V?$format_validation_base@_WV?$stream_output_adapter@_W@__crt_stdio_output@@@2@@__crt_stdio_output@@AEAA_NXZ 00000001800654f0 f i libucrtd:output.obj
 0001:00064510       ?state_case_dot@?$output_processor@_WV?$stream_output_adapter@_W@__crt_stdio_output@@V?$positional_parameter_base@_WV?$stream_output_adapter@_W@__crt_stdio_output@@@2@@__crt_stdio_output@@AEAA_NXZ 0000000180065510 f i libucrtd:output.obj
 0001:00064530       ?state_case_dot@?$output_processor@_WV?$stream_output_adapter@_W@__crt_stdio_output@@V?$standard_base@_WV?$stream_output_adapter@_W@__crt_stdio_output@@@2@@__crt_stdio_output@@AEAA_NXZ 0000000180065530 f i libucrtd:output.obj
 0001:00064550       ?state_case_dot@?$output_processor@_WV?$string_output_adapter@_W@__crt_stdio_output@@V?$format_validation_base@_WV?$string_output_adapter@_W@__crt_stdio_output@@@2@@__crt_stdio_output@@AEAA_NXZ 0000000180065550 f i libucrtd:output.obj
 0001:00064570       ?state_case_dot@?$output_processor@_WV?$string_output_adapter@_W@__crt_stdio_output@@V?$positional_parameter_base@_WV?$string_output_adapter@_W@__crt_stdio_output@@@2@@__crt_stdio_output@@AEAA_NXZ 0000000180065570 f i libucrtd:output.obj
 0001:00064590       ?state_case_dot@?$output_processor@_WV?$string_output_adapter@_W@__crt_stdio_output@@V?$standard_base@_WV?$string_output_adapter@_W@__crt_stdio_output@@@2@@__crt_stdio_output@@AEAA_NXZ 0000000180065590 f i libucrtd:output.obj
 0001:000645b0       ?state_case_flag@?$output_processor@DV?$stream_output_adapter@D@__crt_stdio_output@@V?$format_validation_base@DV?$stream_output_adapter@D@__crt_stdio_output@@@2@@__crt_stdio_output@@AEAA_NXZ 00000001800655b0 f i libucrtd:output.obj
 0001:00064650       ?state_case_flag@?$output_processor@DV?$stream_output_adapter@D@__crt_stdio_output@@V?$positional_parameter_base@DV?$stream_output_adapter@D@__crt_stdio_output@@@2@@__crt_stdio_output@@AEAA_NXZ 0000000180065650 f i libucrtd:output.obj
 0001:000646f0       ?state_case_flag@?$output_processor@DV?$stream_output_adapter@D@__crt_stdio_output@@V?$standard_base@DV?$stream_output_adapter@D@__crt_stdio_output@@@2@@__crt_stdio_output@@AEAA_NXZ 00000001800656f0 f i libucrtd:output.obj
 0001:00064790       ?state_case_flag@?$output_processor@DV?$string_output_adapter@D@__crt_stdio_output@@V?$format_validation_base@DV?$string_output_adapter@D@__crt_stdio_output@@@2@@__crt_stdio_output@@AEAA_NXZ 0000000180065790 f i libucrtd:output.obj
 0001:00064830       ?state_case_flag@?$output_processor@DV?$string_output_adapter@D@__crt_stdio_output@@V?$positional_parameter_base@DV?$string_output_adapter@D@__crt_stdio_output@@@2@@__crt_stdio_output@@AEAA_NXZ 0000000180065830 f i libucrtd:output.obj
 0001:000648d0       ?state_case_flag@?$output_processor@DV?$string_output_adapter@D@__crt_stdio_output@@V?$standard_base@DV?$string_output_adapter@D@__crt_stdio_output@@@2@@__crt_stdio_output@@AEAA_NXZ 00000001800658d0 f i libucrtd:output.obj
 0001:00064970       ?state_case_flag@?$output_processor@_WV?$stream_output_adapter@_W@__crt_stdio_output@@V?$format_validation_base@_WV?$stream_output_adapter@_W@__crt_stdio_output@@@2@@__crt_stdio_output@@AEAA_NXZ 0000000180065970 f i libucrtd:output.obj
 0001:00064a10       ?state_case_flag@?$output_processor@_WV?$stream_output_adapter@_W@__crt_stdio_output@@V?$positional_parameter_base@_WV?$stream_output_adapter@_W@__crt_stdio_output@@@2@@__crt_stdio_output@@AEAA_NXZ 0000000180065a10 f i libucrtd:output.obj
 0001:00064ab0       ?state_case_flag@?$output_processor@_WV?$stream_output_adapter@_W@__crt_stdio_output@@V?$standard_base@_WV?$stream_output_adapter@_W@__crt_stdio_output@@@2@@__crt_stdio_output@@AEAA_NXZ 0000000180065ab0 f i libucrtd:output.obj
 0001:00064b50       ?state_case_flag@?$output_processor@_WV?$string_output_adapter@_W@__crt_stdio_output@@V?$format_validation_base@_WV?$string_output_adapter@_W@__crt_stdio_output@@@2@@__crt_stdio_output@@AEAA_NXZ 0000000180065b50 f i libucrtd:output.obj
 0001:00064bf0       ?state_case_flag@?$output_processor@_WV?$string_output_adapter@_W@__crt_stdio_output@@V?$positional_parameter_base@_WV?$string_output_adapter@_W@__crt_stdio_output@@@2@@__crt_stdio_output@@AEAA_NXZ 0000000180065bf0 f i libucrtd:output.obj
 0001:00064c90       ?state_case_flag@?$output_processor@_WV?$string_output_adapter@_W@__crt_stdio_output@@V?$standard_base@_WV?$string_output_adapter@_W@__crt_stdio_output@@@2@@__crt_stdio_output@@AEAA_NXZ 0000000180065c90 f i libucrtd:output.obj
 0001:00064d30       ?state_case_normal@?$output_processor@DV?$stream_output_adapter@D@__crt_stdio_output@@V?$format_validation_base@DV?$stream_output_adapter@D@__crt_stdio_output@@@2@@__crt_stdio_output@@AEAA_NXZ 0000000180065d30 f i libucrtd:output.obj
 0001:00064e10       ?state_case_normal@?$output_processor@DV?$stream_output_adapter@D@__crt_stdio_output@@V?$positional_parameter_base@DV?$stream_output_adapter@D@__crt_stdio_output@@@2@@__crt_stdio_output@@AEAA_NXZ 0000000180065e10 f i libucrtd:output.obj
 0001:00064ef0       ?state_case_normal@?$output_processor@DV?$stream_output_adapter@D@__crt_stdio_output@@V?$standard_base@DV?$stream_output_adapter@D@__crt_stdio_output@@@2@@__crt_stdio_output@@AEAA_NXZ 0000000180065ef0 f i libucrtd:output.obj
 0001:00064fd0       ?state_case_normal@?$output_processor@DV?$string_output_adapter@D@__crt_stdio_output@@V?$format_validation_base@DV?$string_output_adapter@D@__crt_stdio_output@@@2@@__crt_stdio_output@@AEAA_NXZ 0000000180065fd0 f i libucrtd:output.obj
 0001:000650b0       ?state_case_normal@?$output_processor@DV?$string_output_adapter@D@__crt_stdio_output@@V?$positional_parameter_base@DV?$string_output_adapter@D@__crt_stdio_output@@@2@@__crt_stdio_output@@AEAA_NXZ 00000001800660b0 f i libucrtd:output.obj
 0001:00065190       ?state_case_normal@?$output_processor@DV?$string_output_adapter@D@__crt_stdio_output@@V?$standard_base@DV?$string_output_adapter@D@__crt_stdio_output@@@2@@__crt_stdio_output@@AEAA_NXZ 0000000180066190 f i libucrtd:output.obj
 0001:00065270       ?state_case_normal@?$output_processor@_WV?$stream_output_adapter@_W@__crt_stdio_output@@V?$format_validation_base@_WV?$stream_output_adapter@_W@__crt_stdio_output@@@2@@__crt_stdio_output@@AEAA_NXZ 0000000180066270 f i libucrtd:output.obj
 0001:00065350       ?state_case_normal@?$output_processor@_WV?$stream_output_adapter@_W@__crt_stdio_output@@V?$positional_parameter_base@_WV?$stream_output_adapter@_W@__crt_stdio_output@@@2@@__crt_stdio_output@@AEAA_NXZ 0000000180066350 f i libucrtd:output.obj
 0001:00065430       ?state_case_normal@?$output_processor@_WV?$stream_output_adapter@_W@__crt_stdio_output@@V?$standard_base@_WV?$stream_output_adapter@_W@__crt_stdio_output@@@2@@__crt_stdio_output@@AEAA_NXZ 0000000180066430 f i libucrtd:output.obj
 0001:00065510       ?state_case_normal@?$output_processor@_WV?$string_output_adapter@_W@__crt_stdio_output@@V?$format_validation_base@_WV?$string_output_adapter@_W@__crt_stdio_output@@@2@@__crt_stdio_output@@AEAA_NXZ 0000000180066510 f i libucrtd:output.obj
 0001:000655f0       ?state_case_normal@?$output_processor@_WV?$string_output_adapter@_W@__crt_stdio_output@@V?$positional_parameter_base@_WV?$string_output_adapter@_W@__crt_stdio_output@@@2@@__crt_stdio_output@@AEAA_NXZ 00000001800665f0 f i libucrtd:output.obj
 0001:000656d0       ?state_case_normal@?$output_processor@_WV?$string_output_adapter@_W@__crt_stdio_output@@V?$standard_base@_WV?$string_output_adapter@_W@__crt_stdio_output@@@2@@__crt_stdio_output@@AEAA_NXZ 00000001800666d0 f i libucrtd:output.obj
 0001:000657b0       ?state_case_normal_common@?$output_processor@DV?$stream_output_adapter@D@__crt_stdio_output@@V?$format_validation_base@DV?$stream_output_adapter@D@__crt_stdio_output@@@2@@__crt_stdio_output@@AEAA_NXZ 00000001800667b0 f i libucrtd:output.obj
 0001:00065800       ?state_case_normal_common@?$output_processor@DV?$stream_output_adapter@D@__crt_stdio_output@@V?$positional_parameter_base@DV?$stream_output_adapter@D@__crt_stdio_output@@@2@@__crt_stdio_output@@AEAA_NXZ 0000000180066800 f i libucrtd:output.obj
 0001:00065850       ?state_case_normal_common@?$output_processor@DV?$stream_output_adapter@D@__crt_stdio_output@@V?$standard_base@DV?$stream_output_adapter@D@__crt_stdio_output@@@2@@__crt_stdio_output@@AEAA_NXZ 0000000180066850 f i libucrtd:output.obj
 0001:000658a0       ?state_case_normal_common@?$output_processor@DV?$string_output_adapter@D@__crt_stdio_output@@V?$format_validation_base@DV?$string_output_adapter@D@__crt_stdio_output@@@2@@__crt_stdio_output@@AEAA_NXZ 00000001800668a0 f i libucrtd:output.obj
 0001:000658f0       ?state_case_normal_common@?$output_processor@DV?$string_output_adapter@D@__crt_stdio_output@@V?$positional_parameter_base@DV?$string_output_adapter@D@__crt_stdio_output@@@2@@__crt_stdio_output@@AEAA_NXZ 00000001800668f0 f i libucrtd:output.obj
 0001:00065940       ?state_case_normal_common@?$output_processor@DV?$string_output_adapter@D@__crt_stdio_output@@V?$standard_base@DV?$string_output_adapter@D@__crt_stdio_output@@@2@@__crt_stdio_output@@AEAA_NXZ 0000000180066940 f i libucrtd:output.obj
 0001:00065990       ?state_case_normal_common@?$output_processor@_WV?$stream_output_adapter@_W@__crt_stdio_output@@V?$format_validation_base@_WV?$stream_output_adapter@_W@__crt_stdio_output@@@2@@__crt_stdio_output@@AEAA_NXZ 0000000180066990 f i libucrtd:output.obj
 0001:000659e0       ?state_case_normal_common@?$output_processor@_WV?$stream_output_adapter@_W@__crt_stdio_output@@V?$positional_parameter_base@_WV?$stream_output_adapter@_W@__crt_stdio_output@@@2@@__crt_stdio_output@@AEAA_NXZ 00000001800669e0 f i libucrtd:output.obj
 0001:00065a30       ?state_case_normal_common@?$output_processor@_WV?$stream_output_adapter@_W@__crt_stdio_output@@V?$standard_base@_WV?$stream_output_adapter@_W@__crt_stdio_output@@@2@@__crt_stdio_output@@AEAA_NXZ 0000000180066a30 f i libucrtd:output.obj
 0001:00065a80       ?state_case_normal_common@?$output_processor@_WV?$string_output_adapter@_W@__crt_stdio_output@@V?$format_validation_base@_WV?$string_output_adapter@_W@__crt_stdio_output@@@2@@__crt_stdio_output@@AEAA_NXZ 0000000180066a80 f i libucrtd:output.obj
 0001:00065ad0       ?state_case_normal_common@?$output_processor@_WV?$string_output_adapter@_W@__crt_stdio_output@@V?$positional_parameter_base@_WV?$string_output_adapter@_W@__crt_stdio_output@@@2@@__crt_stdio_output@@AEAA_NXZ 0000000180066ad0 f i libucrtd:output.obj
 0001:00065b20       ?state_case_normal_common@?$output_processor@_WV?$string_output_adapter@_W@__crt_stdio_output@@V?$standard_base@_WV?$string_output_adapter@_W@__crt_stdio_output@@@2@@__crt_stdio_output@@AEAA_NXZ 0000000180066b20 f i libucrtd:output.obj
 0001:00065b70       ?state_case_normal_tchar@?$output_processor@DV?$stream_output_adapter@D@__crt_stdio_output@@V?$format_validation_base@DV?$stream_output_adapter@D@__crt_stdio_output@@@2@@__crt_stdio_output@@AEAA_ND@Z 0000000180066b70 f i libucrtd:output.obj
 0001:00065cb0       ?state_case_normal_tchar@?$output_processor@DV?$stream_output_adapter@D@__crt_stdio_output@@V?$positional_parameter_base@DV?$stream_output_adapter@D@__crt_stdio_output@@@2@@__crt_stdio_output@@AEAA_ND@Z 0000000180066cb0 f i libucrtd:output.obj
 0001:00065df0       ?state_case_normal_tchar@?$output_processor@DV?$stream_output_adapter@D@__crt_stdio_output@@V?$standard_base@DV?$stream_output_adapter@D@__crt_stdio_output@@@2@@__crt_stdio_output@@AEAA_ND@Z 0000000180066df0 f i libucrtd:output.obj
 0001:00065f30       ?state_case_normal_tchar@?$output_processor@DV?$string_output_adapter@D@__crt_stdio_output@@V?$format_validation_base@DV?$string_output_adapter@D@__crt_stdio_output@@@2@@__crt_stdio_output@@AEAA_ND@Z 0000000180066f30 f i libucrtd:output.obj
 0001:00066070       ?state_case_normal_tchar@?$output_processor@DV?$string_output_adapter@D@__crt_stdio_output@@V?$positional_parameter_base@DV?$string_output_adapter@D@__crt_stdio_output@@@2@@__crt_stdio_output@@AEAA_ND@Z 0000000180067070 f i libucrtd:output.obj
 0001:000661b0       ?state_case_normal_tchar@?$output_processor@DV?$string_output_adapter@D@__crt_stdio_output@@V?$standard_base@DV?$string_output_adapter@D@__crt_stdio_output@@@2@@__crt_stdio_output@@AEAA_ND@Z 00000001800671b0 f i libucrtd:output.obj
 0001:000662f0       ?state_case_normal_tchar@?$output_processor@_WV?$stream_output_adapter@_W@__crt_stdio_output@@V?$format_validation_base@_WV?$stream_output_adapter@_W@__crt_stdio_output@@@2@@__crt_stdio_output@@AEAA_N_W@Z 00000001800672f0 f i libucrtd:output.obj
 0001:00066310       ?state_case_normal_tchar@?$output_processor@_WV?$stream_output_adapter@_W@__crt_stdio_output@@V?$positional_parameter_base@_WV?$stream_output_adapter@_W@__crt_stdio_output@@@2@@__crt_stdio_output@@AEAA_N_W@Z 0000000180067310 f i libucrtd:output.obj
 0001:00066330       ?state_case_normal_tchar@?$output_processor@_WV?$stream_output_adapter@_W@__crt_stdio_output@@V?$standard_base@_WV?$stream_output_adapter@_W@__crt_stdio_output@@@2@@__crt_stdio_output@@AEAA_N_W@Z 0000000180067330 f i libucrtd:output.obj
 0001:00066350       ?state_case_normal_tchar@?$output_processor@_WV?$string_output_adapter@_W@__crt_stdio_output@@V?$format_validation_base@_WV?$string_output_adapter@_W@__crt_stdio_output@@@2@@__crt_stdio_output@@AEAA_N_W@Z 0000000180067350 f i libucrtd:output.obj
 0001:00066370       ?state_case_normal_tchar@?$output_processor@_WV?$string_output_adapter@_W@__crt_stdio_output@@V?$positional_parameter_base@_WV?$string_output_adapter@_W@__crt_stdio_output@@@2@@__crt_stdio_output@@AEAA_N_W@Z 0000000180067370 f i libucrtd:output.obj
 0001:00066390       ?state_case_normal_tchar@?$output_processor@_WV?$string_output_adapter@_W@__crt_stdio_output@@V?$standard_base@_WV?$string_output_adapter@_W@__crt_stdio_output@@@2@@__crt_stdio_output@@AEAA_N_W@Z 0000000180067390 f i libucrtd:output.obj
 0001:000663b0       ?state_case_percent@?$output_processor@DV?$stream_output_adapter@D@__crt_stdio_output@@V?$format_validation_base@DV?$stream_output_adapter@D@__crt_stdio_output@@@2@@__crt_stdio_output@@AEAA_NXZ 00000001800673b0 f i libucrtd:output.obj
 0001:00066400       ?state_case_percent@?$output_processor@DV?$stream_output_adapter@D@__crt_stdio_output@@V?$positional_parameter_base@DV?$stream_output_adapter@D@__crt_stdio_output@@@2@@__crt_stdio_output@@AEAA_NXZ 0000000180067400 f i libucrtd:output.obj
 0001:00066450       ?state_case_percent@?$output_processor@DV?$stream_output_adapter@D@__crt_stdio_output@@V?$standard_base@DV?$stream_output_adapter@D@__crt_stdio_output@@@2@@__crt_stdio_output@@AEAA_NXZ 0000000180067450 f i libucrtd:output.obj
 0001:000664a0       ?state_case_percent@?$output_processor@DV?$string_output_adapter@D@__crt_stdio_output@@V?$format_validation_base@DV?$string_output_adapter@D@__crt_stdio_output@@@2@@__crt_stdio_output@@AEAA_NXZ 00000001800674a0 f i libucrtd:output.obj
 0001:000664f0       ?state_case_percent@?$output_processor@DV?$string_output_adapter@D@__crt_stdio_output@@V?$positional_parameter_base@DV?$string_output_adapter@D@__crt_stdio_output@@@2@@__crt_stdio_output@@AEAA_NXZ 00000001800674f0 f i libucrtd:output.obj
 0001:00066540       ?state_case_percent@?$output_processor@DV?$string_output_adapter@D@__crt_stdio_output@@V?$standard_base@DV?$string_output_adapter@D@__crt_stdio_output@@@2@@__crt_stdio_output@@AEAA_NXZ 0000000180067540 f i libucrtd:output.obj
 0001:00066590       ?state_case_percent@?$output_processor@_WV?$stream_output_adapter@_W@__crt_stdio_output@@V?$format_validation_base@_WV?$stream_output_adapter@_W@__crt_stdio_output@@@2@@__crt_stdio_output@@AEAA_NXZ 0000000180067590 f i libucrtd:output.obj
 0001:000665e0       ?state_case_percent@?$output_processor@_WV?$stream_output_adapter@_W@__crt_stdio_output@@V?$positional_parameter_base@_WV?$stream_output_adapter@_W@__crt_stdio_output@@@2@@__crt_stdio_output@@AEAA_NXZ 00000001800675e0 f i libucrtd:output.obj
 0001:00066630       ?state_case_percent@?$output_processor@_WV?$stream_output_adapter@_W@__crt_stdio_output@@V?$standard_base@_WV?$stream_output_adapter@_W@__crt_stdio_output@@@2@@__crt_stdio_output@@AEAA_NXZ 0000000180067630 f i libucrtd:output.obj
 0001:00066680       ?state_case_percent@?$output_processor@_WV?$string_output_adapter@_W@__crt_stdio_output@@V?$format_validation_base@_WV?$string_output_adapter@_W@__crt_stdio_output@@@2@@__crt_stdio_output@@AEAA_NXZ 0000000180067680 f i libucrtd:output.obj
 0001:000666d0       ?state_case_percent@?$output_processor@_WV?$string_output_adapter@_W@__crt_stdio_output@@V?$positional_parameter_base@_WV?$string_output_adapter@_W@__crt_stdio_output@@@2@@__crt_stdio_output@@AEAA_NXZ 00000001800676d0 f i libucrtd:output.obj
 0001:00066720       ?state_case_percent@?$output_processor@_WV?$string_output_adapter@_W@__crt_stdio_output@@V?$standard_base@_WV?$string_output_adapter@_W@__crt_stdio_output@@@2@@__crt_stdio_output@@AEAA_NXZ 0000000180067720 f i libucrtd:output.obj
 0001:00066770       ?state_case_precision@?$output_processor@DV?$stream_output_adapter@D@__crt_stdio_output@@V?$format_validation_base@DV?$stream_output_adapter@D@__crt_stdio_output@@@2@@__crt_stdio_output@@AEAA_NXZ 0000000180067770 f i libucrtd:output.obj
 0001:000667f0       ?state_case_precision@?$output_processor@DV?$stream_output_adapter@D@__crt_stdio_output@@V?$positional_parameter_base@DV?$stream_output_adapter@D@__crt_stdio_output@@@2@@__crt_stdio_output@@AEAA_NXZ 00000001800677f0 f i libucrtd:output.obj
 0001:00066870       ?state_case_precision@?$output_processor@DV?$stream_output_adapter@D@__crt_stdio_output@@V?$standard_base@DV?$stream_output_adapter@D@__crt_stdio_output@@@2@@__crt_stdio_output@@AEAA_NXZ 0000000180067870 f i libucrtd:output.obj
 0001:000668f0       ?state_case_precision@?$output_processor@DV?$string_output_adapter@D@__crt_stdio_output@@V?$format_validation_base@DV?$string_output_adapter@D@__crt_stdio_output@@@2@@__crt_stdio_output@@AEAA_NXZ 00000001800678f0 f i libucrtd:output.obj
 0001:00066970       ?state_case_precision@?$output_processor@DV?$string_output_adapter@D@__crt_stdio_output@@V?$positional_parameter_base@DV?$string_output_adapter@D@__crt_stdio_output@@@2@@__crt_stdio_output@@AEAA_NXZ 0000000180067970 f i libucrtd:output.obj
 0001:000669f0       ?state_case_precision@?$output_processor@DV?$string_output_adapter@D@__crt_stdio_output@@V?$standard_base@DV?$string_output_adapter@D@__crt_stdio_output@@@2@@__crt_stdio_output@@AEAA_NXZ 00000001800679f0 f i libucrtd:output.obj
 0001:00066a70       ?state_case_precision@?$output_processor@_WV?$stream_output_adapter@_W@__crt_stdio_output@@V?$format_validation_base@_WV?$stream_output_adapter@_W@__crt_stdio_output@@@2@@__crt_stdio_output@@AEAA_NXZ 0000000180067a70 f i libucrtd:output.obj
 0001:00066af0       ?state_case_precision@?$output_processor@_WV?$stream_output_adapter@_W@__crt_stdio_output@@V?$positional_parameter_base@_WV?$stream_output_adapter@_W@__crt_stdio_output@@@2@@__crt_stdio_output@@AEAA_NXZ 0000000180067af0 f i libucrtd:output.obj
 0001:00066b70       ?state_case_precision@?$output_processor@_WV?$stream_output_adapter@_W@__crt_stdio_output@@V?$standard_base@_WV?$stream_output_adapter@_W@__crt_stdio_output@@@2@@__crt_stdio_output@@AEAA_NXZ 0000000180067b70 f i libucrtd:output.obj
 0001:00066bf0       ?state_case_precision@?$output_processor@_WV?$string_output_adapter@_W@__crt_stdio_output@@V?$format_validation_base@_WV?$string_output_adapter@_W@__crt_stdio_output@@@2@@__crt_stdio_output@@AEAA_NXZ 0000000180067bf0 f i libucrtd:output.obj
 0001:00066c70       ?state_case_precision@?$output_processor@_WV?$string_output_adapter@_W@__crt_stdio_output@@V?$positional_parameter_base@_WV?$string_output_adapter@_W@__crt_stdio_output@@@2@@__crt_stdio_output@@AEAA_NXZ 0000000180067c70 f i libucrtd:output.obj
 0001:00066cf0       ?state_case_precision@?$output_processor@_WV?$string_output_adapter@_W@__crt_stdio_output@@V?$standard_base@_WV?$string_output_adapter@_W@__crt_stdio_output@@@2@@__crt_stdio_output@@AEAA_NXZ 0000000180067cf0 f i libucrtd:output.obj
 0001:00066d70       ?state_case_size@?$output_processor@DV?$stream_output_adapter@D@__crt_stdio_output@@V?$format_validation_base@DV?$stream_output_adapter@D@__crt_stdio_output@@@2@@__crt_stdio_output@@AEAA_NXZ 0000000180067d70 f i libucrtd:output.obj
 0001:000671f0       ?state_case_size@?$output_processor@DV?$stream_output_adapter@D@__crt_stdio_output@@V?$positional_parameter_base@DV?$stream_output_adapter@D@__crt_stdio_output@@@2@@__crt_stdio_output@@AEAA_NXZ 00000001800681f0 f i libucrtd:output.obj
 0001:00067670       ?state_case_size@?$output_processor@DV?$stream_output_adapter@D@__crt_stdio_output@@V?$standard_base@DV?$stream_output_adapter@D@__crt_stdio_output@@@2@@__crt_stdio_output@@AEAA_NXZ 0000000180068670 f i libucrtd:output.obj
 0001:00067af0       ?state_case_size@?$output_processor@DV?$string_output_adapter@D@__crt_stdio_output@@V?$format_validation_base@DV?$string_output_adapter@D@__crt_stdio_output@@@2@@__crt_stdio_output@@AEAA_NXZ 0000000180068af0 f i libucrtd:output.obj
 0001:00067f70       ?state_case_size@?$output_processor@DV?$string_output_adapter@D@__crt_stdio_output@@V?$positional_parameter_base@DV?$string_output_adapter@D@__crt_stdio_output@@@2@@__crt_stdio_output@@AEAA_NXZ 0000000180068f70 f i libucrtd:output.obj
 0001:000683f0       ?state_case_size@?$output_processor@DV?$string_output_adapter@D@__crt_stdio_output@@V?$standard_base@DV?$string_output_adapter@D@__crt_stdio_output@@@2@@__crt_stdio_output@@AEAA_NXZ 00000001800693f0 f i libucrtd:output.obj
 0001:00068870       ?state_case_size@?$output_processor@_WV?$stream_output_adapter@_W@__crt_stdio_output@@V?$format_validation_base@_WV?$stream_output_adapter@_W@__crt_stdio_output@@@2@@__crt_stdio_output@@AEAA_NXZ 0000000180069870 f i libucrtd:output.obj
 0001:00068cf0       ?state_case_size@?$output_processor@_WV?$stream_output_adapter@_W@__crt_stdio_output@@V?$positional_parameter_base@_WV?$stream_output_adapter@_W@__crt_stdio_output@@@2@@__crt_stdio_output@@AEAA_NXZ 0000000180069cf0 f i libucrtd:output.obj
 0001:00069170       ?state_case_size@?$output_processor@_WV?$stream_output_adapter@_W@__crt_stdio_output@@V?$standard_base@_WV?$stream_output_adapter@_W@__crt_stdio_output@@@2@@__crt_stdio_output@@AEAA_NXZ 000000018006a170 f i libucrtd:output.obj
 0001:000695f0       ?state_case_size@?$output_processor@_WV?$string_output_adapter@_W@__crt_stdio_output@@V?$format_validation_base@_WV?$string_output_adapter@_W@__crt_stdio_output@@@2@@__crt_stdio_output@@AEAA_NXZ 000000018006a5f0 f i libucrtd:output.obj
 0001:00069a70       ?state_case_size@?$output_processor@_WV?$string_output_adapter@_W@__crt_stdio_output@@V?$positional_parameter_base@_WV?$string_output_adapter@_W@__crt_stdio_output@@@2@@__crt_stdio_output@@AEAA_NXZ 000000018006aa70 f i libucrtd:output.obj
 0001:00069ef0       ?state_case_size@?$output_processor@_WV?$string_output_adapter@_W@__crt_stdio_output@@V?$standard_base@_WV?$string_output_adapter@_W@__crt_stdio_output@@@2@@__crt_stdio_output@@AEAA_NXZ 000000018006aef0 f i libucrtd:output.obj
 0001:0006a370       ?state_case_type@?$output_processor@DV?$stream_output_adapter@D@__crt_stdio_output@@V?$format_validation_base@DV?$stream_output_adapter@D@__crt_stdio_output@@@2@@__crt_stdio_output@@AEAA_NXZ 000000018006b370 f i libucrtd:output.obj
 0001:0006a800       ?state_case_type@?$output_processor@DV?$stream_output_adapter@D@__crt_stdio_output@@V?$positional_parameter_base@DV?$stream_output_adapter@D@__crt_stdio_output@@@2@@__crt_stdio_output@@AEAA_NXZ 000000018006b800 f i libucrtd:output.obj
 0001:0006ac90       ?state_case_type@?$output_processor@DV?$stream_output_adapter@D@__crt_stdio_output@@V?$standard_base@DV?$stream_output_adapter@D@__crt_stdio_output@@@2@@__crt_stdio_output@@AEAA_NXZ 000000018006bc90 f i libucrtd:output.obj
 0001:0006b120       ?state_case_type@?$output_processor@DV?$string_output_adapter@D@__crt_stdio_output@@V?$format_validation_base@DV?$string_output_adapter@D@__crt_stdio_output@@@2@@__crt_stdio_output@@AEAA_NXZ 000000018006c120 f i libucrtd:output.obj
 0001:0006b5b0       ?state_case_type@?$output_processor@DV?$string_output_adapter@D@__crt_stdio_output@@V?$positional_parameter_base@DV?$string_output_adapter@D@__crt_stdio_output@@@2@@__crt_stdio_output@@AEAA_NXZ 000000018006c5b0 f i libucrtd:output.obj
 0001:0006ba40       ?state_case_type@?$output_processor@DV?$string_output_adapter@D@__crt_stdio_output@@V?$standard_base@DV?$string_output_adapter@D@__crt_stdio_output@@@2@@__crt_stdio_output@@AEAA_NXZ 000000018006ca40 f i libucrtd:output.obj
 0001:0006bed0       ?state_case_type@?$output_processor@_WV?$stream_output_adapter@_W@__crt_stdio_output@@V?$format_validation_base@_WV?$stream_output_adapter@_W@__crt_stdio_output@@@2@@__crt_stdio_output@@AEAA_NXZ 000000018006ced0 f i libucrtd:output.obj
 0001:0006c3a0       ?state_case_type@?$output_processor@_WV?$stream_output_adapter@_W@__crt_stdio_output@@V?$positional_parameter_base@_WV?$stream_output_adapter@_W@__crt_stdio_output@@@2@@__crt_stdio_output@@AEAA_NXZ 000000018006d3a0 f i libucrtd:output.obj
 0001:0006c870       ?state_case_type@?$output_processor@_WV?$stream_output_adapter@_W@__crt_stdio_output@@V?$standard_base@_WV?$stream_output_adapter@_W@__crt_stdio_output@@@2@@__crt_stdio_output@@AEAA_NXZ 000000018006d870 f i libucrtd:output.obj
 0001:0006cd40       ?state_case_type@?$output_processor@_WV?$string_output_adapter@_W@__crt_stdio_output@@V?$format_validation_base@_WV?$string_output_adapter@_W@__crt_stdio_output@@@2@@__crt_stdio_output@@AEAA_NXZ 000000018006dd40 f i libucrtd:output.obj
 0001:0006d210       ?state_case_type@?$output_processor@_WV?$string_output_adapter@_W@__crt_stdio_output@@V?$positional_parameter_base@_WV?$string_output_adapter@_W@__crt_stdio_output@@@2@@__crt_stdio_output@@AEAA_NXZ 000000018006e210 f i libucrtd:output.obj
 0001:0006d6e0       ?state_case_type@?$output_processor@_WV?$string_output_adapter@_W@__crt_stdio_output@@V?$standard_base@_WV?$string_output_adapter@_W@__crt_stdio_output@@@2@@__crt_stdio_output@@AEAA_NXZ 000000018006e6e0 f i libucrtd:output.obj
 0001:0006dbb0       ?state_case_width@?$output_processor@DV?$stream_output_adapter@D@__crt_stdio_output@@V?$format_validation_base@DV?$stream_output_adapter@D@__crt_stdio_output@@@2@@__crt_stdio_output@@AEAA_NXZ 000000018006ebb0 f i libucrtd:output.obj
 0001:0006dc40       ?state_case_width@?$output_processor@DV?$stream_output_adapter@D@__crt_stdio_output@@V?$positional_parameter_base@DV?$stream_output_adapter@D@__crt_stdio_output@@@2@@__crt_stdio_output@@AEAA_NXZ 000000018006ec40 f i libucrtd:output.obj
 0001:0006dcd0       ?state_case_width@?$output_processor@DV?$stream_output_adapter@D@__crt_stdio_output@@V?$standard_base@DV?$stream_output_adapter@D@__crt_stdio_output@@@2@@__crt_stdio_output@@AEAA_NXZ 000000018006ecd0 f i libucrtd:output.obj
 0001:0006dd60       ?state_case_width@?$output_processor@DV?$string_output_adapter@D@__crt_stdio_output@@V?$format_validation_base@DV?$string_output_adapter@D@__crt_stdio_output@@@2@@__crt_stdio_output@@AEAA_NXZ 000000018006ed60 f i libucrtd:output.obj
 0001:0006ddf0       ?state_case_width@?$output_processor@DV?$string_output_adapter@D@__crt_stdio_output@@V?$positional_parameter_base@DV?$string_output_adapter@D@__crt_stdio_output@@@2@@__crt_stdio_output@@AEAA_NXZ 000000018006edf0 f i libucrtd:output.obj
 0001:0006de80       ?state_case_width@?$output_processor@DV?$string_output_adapter@D@__crt_stdio_output@@V?$standard_base@DV?$string_output_adapter@D@__crt_stdio_output@@@2@@__crt_stdio_output@@AEAA_NXZ 000000018006ee80 f i libucrtd:output.obj
 0001:0006df10       ?state_case_width@?$output_processor@_WV?$stream_output_adapter@_W@__crt_stdio_output@@V?$format_validation_base@_WV?$stream_output_adapter@_W@__crt_stdio_output@@@2@@__crt_stdio_output@@AEAA_NXZ 000000018006ef10 f i libucrtd:output.obj
 0001:0006dfa0       ?state_case_width@?$output_processor@_WV?$stream_output_adapter@_W@__crt_stdio_output@@V?$positional_parameter_base@_WV?$stream_output_adapter@_W@__crt_stdio_output@@@2@@__crt_stdio_output@@AEAA_NXZ 000000018006efa0 f i libucrtd:output.obj
 0001:0006e030       ?state_case_width@?$output_processor@_WV?$stream_output_adapter@_W@__crt_stdio_output@@V?$standard_base@_WV?$stream_output_adapter@_W@__crt_stdio_output@@@2@@__crt_stdio_output@@AEAA_NXZ 000000018006f030 f i libucrtd:output.obj
 0001:0006e0c0       ?state_case_width@?$output_processor@_WV?$string_output_adapter@_W@__crt_stdio_output@@V?$format_validation_base@_WV?$string_output_adapter@_W@__crt_stdio_output@@@2@@__crt_stdio_output@@AEAA_NXZ 000000018006f0c0 f i libucrtd:output.obj
 0001:0006e150       ?state_case_width@?$output_processor@_WV?$string_output_adapter@_W@__crt_stdio_output@@V?$positional_parameter_base@_WV?$string_output_adapter@_W@__crt_stdio_output@@@2@@__crt_stdio_output@@AEAA_NXZ 000000018006f150 f i libucrtd:output.obj
 0001:0006e1e0       ?state_case_width@?$output_processor@_WV?$string_output_adapter@_W@__crt_stdio_output@@V?$standard_base@_WV?$string_output_adapter@_W@__crt_stdio_output@@@2@@__crt_stdio_output@@AEAA_NXZ 000000018006f1e0 f i libucrtd:output.obj
 0001:0006e270       ?state_count@?$format_validation_base@DV?$stream_output_adapter@D@__crt_stdio_output@@@__crt_stdio_output@@KAIXZ 000000018006f270 f i libucrtd:output.obj
 0001:0006e280       ?state_count@?$format_validation_base@DV?$string_output_adapter@D@__crt_stdio_output@@@__crt_stdio_output@@KAIXZ 000000018006f280 f i libucrtd:output.obj
 0001:0006e290       ?state_count@?$format_validation_base@_WV?$stream_output_adapter@_W@__crt_stdio_output@@@__crt_stdio_output@@KAIXZ 000000018006f290 f i libucrtd:output.obj
 0001:0006e2a0       ?state_count@?$format_validation_base@_WV?$string_output_adapter@_W@__crt_stdio_output@@@__crt_stdio_output@@KAIXZ 000000018006f2a0 f i libucrtd:output.obj
 0001:0006e2b0       ?state_count@?$standard_base@DV?$stream_output_adapter@D@__crt_stdio_output@@@__crt_stdio_output@@KAIXZ 000000018006f2b0 f i libucrtd:output.obj
 0001:0006e2c0       ?state_count@?$standard_base@DV?$string_output_adapter@D@__crt_stdio_output@@@__crt_stdio_output@@KAIXZ 000000018006f2c0 f i libucrtd:output.obj
 0001:0006e2d0       ?state_count@?$standard_base@_WV?$stream_output_adapter@_W@__crt_stdio_output@@@__crt_stdio_output@@KAIXZ 000000018006f2d0 f i libucrtd:output.obj
 0001:0006e2e0       ?state_count@?$standard_base@_WV?$string_output_adapter@_W@__crt_stdio_output@@@__crt_stdio_output@@KAIXZ 000000018006f2e0 f i libucrtd:output.obj
 0001:0006e2f0       ?state_transition_table@?$format_validation_base@DV?$stream_output_adapter@D@__crt_stdio_output@@@__crt_stdio_output@@KAPEBEXZ 000000018006f2f0 f i libucrtd:output.obj
 0001:0006e300       ?state_transition_table@?$format_validation_base@DV?$string_output_adapter@D@__crt_stdio_output@@@__crt_stdio_output@@KAPEBEXZ 000000018006f300 f i libucrtd:output.obj
 0001:0006e310       ?state_transition_table@?$format_validation_base@_WV?$stream_output_adapter@_W@__crt_stdio_output@@@__crt_stdio_output@@KAPEBEXZ 000000018006f310 f i libucrtd:output.obj
 0001:0006e320       ?state_transition_table@?$format_validation_base@_WV?$string_output_adapter@_W@__crt_stdio_output@@@__crt_stdio_output@@KAPEBEXZ 000000018006f320 f i libucrtd:output.obj
 0001:0006e330       ?state_transition_table@?$standard_base@DV?$stream_output_adapter@D@__crt_stdio_output@@@__crt_stdio_output@@KAPEBEXZ 000000018006f330 f i libucrtd:output.obj
 0001:0006e340       ?state_transition_table@?$standard_base@DV?$string_output_adapter@D@__crt_stdio_output@@@__crt_stdio_output@@KAPEBEXZ 000000018006f340 f i libucrtd:output.obj
 0001:0006e350       ?state_transition_table@?$standard_base@_WV?$stream_output_adapter@_W@__crt_stdio_output@@@__crt_stdio_output@@KAPEBEXZ 000000018006f350 f i libucrtd:output.obj
 0001:0006e360       ?state_transition_table@?$standard_base@_WV?$string_output_adapter@_W@__crt_stdio_output@@@__crt_stdio_output@@KAPEBEXZ 000000018006f360 f i libucrtd:output.obj
 0001:0006e370       ?to_integer_size@__crt_stdio_output@@YA_KW4length_modifier@1@@Z 000000018006f370 f i libucrtd:output.obj
 0001:0006e420       ?type_case_X@?$output_processor@DV?$stream_output_adapter@D@__crt_stdio_output@@V?$format_validation_base@DV?$stream_output_adapter@D@__crt_stdio_output@@@2@@__crt_stdio_output@@AEAA_NXZ 000000018006f420 f i libucrtd:output.obj
 0001:0006e440       ?type_case_X@?$output_processor@DV?$stream_output_adapter@D@__crt_stdio_output@@V?$positional_parameter_base@DV?$stream_output_adapter@D@__crt_stdio_output@@@2@@__crt_stdio_output@@AEAA_NXZ 000000018006f440 f i libucrtd:output.obj
 0001:0006e460       ?type_case_X@?$output_processor@DV?$stream_output_adapter@D@__crt_stdio_output@@V?$standard_base@DV?$stream_output_adapter@D@__crt_stdio_output@@@2@@__crt_stdio_output@@AEAA_NXZ 000000018006f460 f i libucrtd:output.obj
 0001:0006e480       ?type_case_X@?$output_processor@DV?$string_output_adapter@D@__crt_stdio_output@@V?$format_validation_base@DV?$string_output_adapter@D@__crt_stdio_output@@@2@@__crt_stdio_output@@AEAA_NXZ 000000018006f480 f i libucrtd:output.obj
 0001:0006e4a0       ?type_case_X@?$output_processor@DV?$string_output_adapter@D@__crt_stdio_output@@V?$positional_parameter_base@DV?$string_output_adapter@D@__crt_stdio_output@@@2@@__crt_stdio_output@@AEAA_NXZ 000000018006f4a0 f i libucrtd:output.obj
 0001:0006e4c0       ?type_case_X@?$output_processor@DV?$string_output_adapter@D@__crt_stdio_output@@V?$standard_base@DV?$string_output_adapter@D@__crt_stdio_output@@@2@@__crt_stdio_output@@AEAA_NXZ 000000018006f4c0 f i libucrtd:output.obj
 0001:0006e4e0       ?type_case_X@?$output_processor@_WV?$stream_output_adapter@_W@__crt_stdio_output@@V?$format_validation_base@_WV?$stream_output_adapter@_W@__crt_stdio_output@@@2@@__crt_stdio_output@@AEAA_NXZ 000000018006f4e0 f i libucrtd:output.obj
 0001:0006e500       ?type_case_X@?$output_processor@_WV?$stream_output_adapter@_W@__crt_stdio_output@@V?$positional_parameter_base@_WV?$stream_output_adapter@_W@__crt_stdio_output@@@2@@__crt_stdio_output@@AEAA_NXZ 000000018006f500 f i libucrtd:output.obj
 0001:0006e520       ?type_case_X@?$output_processor@_WV?$stream_output_adapter@_W@__crt_stdio_output@@V?$standard_base@_WV?$stream_output_adapter@_W@__crt_stdio_output@@@2@@__crt_stdio_output@@AEAA_NXZ 000000018006f520 f i libucrtd:output.obj
 0001:0006e540       ?type_case_X@?$output_processor@_WV?$string_output_adapter@_W@__crt_stdio_output@@V?$format_validation_base@_WV?$string_output_adapter@_W@__crt_stdio_output@@@2@@__crt_stdio_output@@AEAA_NXZ 000000018006f540 f i libucrtd:output.obj
 0001:0006e560       ?type_case_X@?$output_processor@_WV?$string_output_adapter@_W@__crt_stdio_output@@V?$positional_parameter_base@_WV?$string_output_adapter@_W@__crt_stdio_output@@@2@@__crt_stdio_output@@AEAA_NXZ 000000018006f560 f i libucrtd:output.obj
 0001:0006e580       ?type_case_X@?$output_processor@_WV?$string_output_adapter@_W@__crt_stdio_output@@V?$standard_base@_WV?$string_output_adapter@_W@__crt_stdio_output@@@2@@__crt_stdio_output@@AEAA_NXZ 000000018006f580 f i libucrtd:output.obj
 0001:0006e5a0       ?type_case_Z@?$output_processor@DV?$stream_output_adapter@D@__crt_stdio_output@@V?$format_validation_base@DV?$stream_output_adapter@D@__crt_stdio_output@@@2@@__crt_stdio_output@@AEAA_NXZ 000000018006f5a0 f i libucrtd:output.obj
 0001:0006e6c0       ?type_case_Z@?$output_processor@DV?$stream_output_adapter@D@__crt_stdio_output@@V?$positional_parameter_base@DV?$stream_output_adapter@D@__crt_stdio_output@@@2@@__crt_stdio_output@@AEAA_NXZ 000000018006f6c0 f i libucrtd:output.obj
 0001:0006e7e0       ?type_case_Z@?$output_processor@DV?$stream_output_adapter@D@__crt_stdio_output@@V?$standard_base@DV?$stream_output_adapter@D@__crt_stdio_output@@@2@@__crt_stdio_output@@AEAA_NXZ 000000018006f7e0 f i libucrtd:output.obj
 0001:0006e900       ?type_case_Z@?$output_processor@DV?$string_output_adapter@D@__crt_stdio_output@@V?$format_validation_base@DV?$string_output_adapter@D@__crt_stdio_output@@@2@@__crt_stdio_output@@AEAA_NXZ 000000018006f900 f i libucrtd:output.obj
 0001:0006ea20       ?type_case_Z@?$output_processor@DV?$string_output_adapter@D@__crt_stdio_output@@V?$positional_parameter_base@DV?$string_output_adapter@D@__crt_stdio_output@@@2@@__crt_stdio_output@@AEAA_NXZ 000000018006fa20 f i libucrtd:output.obj
 0001:0006eb40       ?type_case_Z@?$output_processor@DV?$string_output_adapter@D@__crt_stdio_output@@V?$standard_base@DV?$string_output_adapter@D@__crt_stdio_output@@@2@@__crt_stdio_output@@AEAA_NXZ 000000018006fb40 f i libucrtd:output.obj
 0001:0006ec60       ?type_case_Z@?$output_processor@_WV?$stream_output_adapter@_W@__crt_stdio_output@@V?$format_validation_base@_WV?$stream_output_adapter@_W@__crt_stdio_output@@@2@@__crt_stdio_output@@AEAA_NXZ 000000018006fc60 f i libucrtd:output.obj
 0001:0006ed80       ?type_case_Z@?$output_processor@_WV?$stream_output_adapter@_W@__crt_stdio_output@@V?$positional_parameter_base@_WV?$stream_output_adapter@_W@__crt_stdio_output@@@2@@__crt_stdio_output@@AEAA_NXZ 000000018006fd80 f i libucrtd:output.obj
 0001:0006eea0       ?type_case_Z@?$output_processor@_WV?$stream_output_adapter@_W@__crt_stdio_output@@V?$standard_base@_WV?$stream_output_adapter@_W@__crt_stdio_output@@@2@@__crt_stdio_output@@AEAA_NXZ 000000018006fea0 f i libucrtd:output.obj
 0001:0006efc0       ?type_case_Z@?$output_processor@_WV?$string_output_adapter@_W@__crt_stdio_output@@V?$format_validation_base@_WV?$string_output_adapter@_W@__crt_stdio_output@@@2@@__crt_stdio_output@@AEAA_NXZ 000000018006ffc0 f i libucrtd:output.obj
 0001:0006f0e0       ?type_case_Z@?$output_processor@_WV?$string_output_adapter@_W@__crt_stdio_output@@V?$positional_parameter_base@_WV?$string_output_adapter@_W@__crt_stdio_output@@@2@@__crt_stdio_output@@AEAA_NXZ 00000001800700e0 f i libucrtd:output.obj
 0001:0006f200       ?type_case_Z@?$output_processor@_WV?$string_output_adapter@_W@__crt_stdio_output@@V?$standard_base@_WV?$string_output_adapter@_W@__crt_stdio_output@@@2@@__crt_stdio_output@@AEAA_NXZ 0000000180070200 f i libucrtd:output.obj
 0001:0006f320       ?type_case_a@?$output_processor@DV?$stream_output_adapter@D@__crt_stdio_output@@V?$format_validation_base@DV?$stream_output_adapter@D@__crt_stdio_output@@@2@@__crt_stdio_output@@AEAA_NXZ 0000000180070320 f i libucrtd:output.obj
 0001:0006f6d0       ?type_case_a@?$output_processor@DV?$stream_output_adapter@D@__crt_stdio_output@@V?$positional_parameter_base@DV?$stream_output_adapter@D@__crt_stdio_output@@@2@@__crt_stdio_output@@AEAA_NXZ 00000001800706d0 f i libucrtd:output.obj
 0001:0006fa80       ?type_case_a@?$output_processor@DV?$stream_output_adapter@D@__crt_stdio_output@@V?$standard_base@DV?$stream_output_adapter@D@__crt_stdio_output@@@2@@__crt_stdio_output@@AEAA_NXZ 0000000180070a80 f i libucrtd:output.obj
 0001:0006fe30       ?type_case_a@?$output_processor@DV?$string_output_adapter@D@__crt_stdio_output@@V?$format_validation_base@DV?$string_output_adapter@D@__crt_stdio_output@@@2@@__crt_stdio_output@@AEAA_NXZ 0000000180070e30 f i libucrtd:output.obj
 0001:000701e0       ?type_case_a@?$output_processor@DV?$string_output_adapter@D@__crt_stdio_output@@V?$positional_parameter_base@DV?$string_output_adapter@D@__crt_stdio_output@@@2@@__crt_stdio_output@@AEAA_NXZ 00000001800711e0 f i libucrtd:output.obj
 0001:00070590       ?type_case_a@?$output_processor@DV?$string_output_adapter@D@__crt_stdio_output@@V?$standard_base@DV?$string_output_adapter@D@__crt_stdio_output@@@2@@__crt_stdio_output@@AEAA_NXZ 0000000180071590 f i libucrtd:output.obj
 0001:00070940       ?type_case_a@?$output_processor@_WV?$stream_output_adapter@_W@__crt_stdio_output@@V?$format_validation_base@_WV?$stream_output_adapter@_W@__crt_stdio_output@@@2@@__crt_stdio_output@@AEAA_NXZ 0000000180071940 f i libucrtd:output.obj
 0001:00070cf0       ?type_case_a@?$output_processor@_WV?$stream_output_adapter@_W@__crt_stdio_output@@V?$positional_parameter_base@_WV?$stream_output_adapter@_W@__crt_stdio_output@@@2@@__crt_stdio_output@@AEAA_NXZ 0000000180071cf0 f i libucrtd:output.obj
 0001:000710a0       ?type_case_a@?$output_processor@_WV?$stream_output_adapter@_W@__crt_stdio_output@@V?$standard_base@_WV?$stream_output_adapter@_W@__crt_stdio_output@@@2@@__crt_stdio_output@@AEAA_NXZ 00000001800720a0 f i libucrtd:output.obj
 0001:00071450       ?type_case_a@?$output_processor@_WV?$string_output_adapter@_W@__crt_stdio_output@@V?$format_validation_base@_WV?$string_output_adapter@_W@__crt_stdio_output@@@2@@__crt_stdio_output@@AEAA_NXZ 0000000180072450 f i libucrtd:output.obj
 0001:00071800       ?type_case_a@?$output_processor@_WV?$string_output_adapter@_W@__crt_stdio_output@@V?$positional_parameter_base@_WV?$string_output_adapter@_W@__crt_stdio_output@@@2@@__crt_stdio_output@@AEAA_NXZ 0000000180072800 f i libucrtd:output.obj
 0001:00071bb0       ?type_case_a@?$output_processor@_WV?$string_output_adapter@_W@__crt_stdio_output@@V?$standard_base@_WV?$string_output_adapter@_W@__crt_stdio_output@@@2@@__crt_stdio_output@@AEAA_NXZ 0000000180072bb0 f i libucrtd:output.obj
 0001:00071f60       ?type_case_c@?$output_processor@DV?$stream_output_adapter@D@__crt_stdio_output@@V?$format_validation_base@DV?$stream_output_adapter@D@__crt_stdio_output@@@2@@__crt_stdio_output@@AEAA_NXZ 0000000180072f60 f i libucrtd:output.obj
 0001:00071f80       ?type_case_c@?$output_processor@DV?$stream_output_adapter@D@__crt_stdio_output@@V?$positional_parameter_base@DV?$stream_output_adapter@D@__crt_stdio_output@@@2@@__crt_stdio_output@@AEAA_NXZ 0000000180072f80 f i libucrtd:output.obj
 0001:00071fa0       ?type_case_c@?$output_processor@DV?$stream_output_adapter@D@__crt_stdio_output@@V?$standard_base@DV?$stream_output_adapter@D@__crt_stdio_output@@@2@@__crt_stdio_output@@AEAA_NXZ 0000000180072fa0 f i libucrtd:output.obj
 0001:00071fc0       ?type_case_c@?$output_processor@DV?$string_output_adapter@D@__crt_stdio_output@@V?$format_validation_base@DV?$string_output_adapter@D@__crt_stdio_output@@@2@@__crt_stdio_output@@AEAA_NXZ 0000000180072fc0 f i libucrtd:output.obj
 0001:00071fe0       ?type_case_c@?$output_processor@DV?$string_output_adapter@D@__crt_stdio_output@@V?$positional_parameter_base@DV?$string_output_adapter@D@__crt_stdio_output@@@2@@__crt_stdio_output@@AEAA_NXZ 0000000180072fe0 f i libucrtd:output.obj
 0001:00072000       ?type_case_c@?$output_processor@DV?$string_output_adapter@D@__crt_stdio_output@@V?$standard_base@DV?$string_output_adapter@D@__crt_stdio_output@@@2@@__crt_stdio_output@@AEAA_NXZ 0000000180073000 f i libucrtd:output.obj
 0001:00072020       ?type_case_c@?$output_processor@_WV?$stream_output_adapter@_W@__crt_stdio_output@@V?$format_validation_base@_WV?$stream_output_adapter@_W@__crt_stdio_output@@@2@@__crt_stdio_output@@AEAA_NXZ 0000000180073020 f i libucrtd:output.obj
 0001:00072040       ?type_case_c@?$output_processor@_WV?$stream_output_adapter@_W@__crt_stdio_output@@V?$positional_parameter_base@_WV?$stream_output_adapter@_W@__crt_stdio_output@@@2@@__crt_stdio_output@@AEAA_NXZ 0000000180073040 f i libucrtd:output.obj
 0001:00072060       ?type_case_c@?$output_processor@_WV?$stream_output_adapter@_W@__crt_stdio_output@@V?$standard_base@_WV?$stream_output_adapter@_W@__crt_stdio_output@@@2@@__crt_stdio_output@@AEAA_NXZ 0000000180073060 f i libucrtd:output.obj
 0001:00072080       ?type_case_c@?$output_processor@_WV?$string_output_adapter@_W@__crt_stdio_output@@V?$format_validation_base@_WV?$string_output_adapter@_W@__crt_stdio_output@@@2@@__crt_stdio_output@@AEAA_NXZ 0000000180073080 f i libucrtd:output.obj
 0001:000720a0       ?type_case_c@?$output_processor@_WV?$string_output_adapter@_W@__crt_stdio_output@@V?$positional_parameter_base@_WV?$string_output_adapter@_W@__crt_stdio_output@@@2@@__crt_stdio_output@@AEAA_NXZ 00000001800730a0 f i libucrtd:output.obj
 0001:000720c0       ?type_case_c@?$output_processor@_WV?$string_output_adapter@_W@__crt_stdio_output@@V?$standard_base@_WV?$string_output_adapter@_W@__crt_stdio_output@@@2@@__crt_stdio_output@@AEAA_NXZ 00000001800730c0 f i libucrtd:output.obj
 0001:000720e0       ?type_case_c_tchar@?$output_processor@DV?$stream_output_adapter@D@__crt_stdio_output@@V?$format_validation_base@DV?$stream_output_adapter@D@__crt_stdio_output@@@2@@__crt_stdio_output@@AEAA_ND@Z 00000001800730e0 f i libucrtd:output.obj
 0001:00072230       ?type_case_c_tchar@?$output_processor@DV?$stream_output_adapter@D@__crt_stdio_output@@V?$positional_parameter_base@DV?$stream_output_adapter@D@__crt_stdio_output@@@2@@__crt_stdio_output@@AEAA_ND@Z 0000000180073230 f i libucrtd:output.obj
 0001:00072380       ?type_case_c_tchar@?$output_processor@DV?$stream_output_adapter@D@__crt_stdio_output@@V?$standard_base@DV?$stream_output_adapter@D@__crt_stdio_output@@@2@@__crt_stdio_output@@AEAA_ND@Z 0000000180073380 f i libucrtd:output.obj
 0001:000724d0       ?type_case_c_tchar@?$output_processor@DV?$string_output_adapter@D@__crt_stdio_output@@V?$format_validation_base@DV?$string_output_adapter@D@__crt_stdio_output@@@2@@__crt_stdio_output@@AEAA_ND@Z 00000001800734d0 f i libucrtd:output.obj
 0001:00072620       ?type_case_c_tchar@?$output_processor@DV?$string_output_adapter@D@__crt_stdio_output@@V?$positional_parameter_base@DV?$string_output_adapter@D@__crt_stdio_output@@@2@@__crt_stdio_output@@AEAA_ND@Z 0000000180073620 f i libucrtd:output.obj
 0001:00072770       ?type_case_c_tchar@?$output_processor@DV?$string_output_adapter@D@__crt_stdio_output@@V?$standard_base@DV?$string_output_adapter@D@__crt_stdio_output@@@2@@__crt_stdio_output@@AEAA_ND@Z 0000000180073770 f i libucrtd:output.obj
 0001:000728c0       ?type_case_c_tchar@?$output_processor@_WV?$stream_output_adapter@_W@__crt_stdio_output@@V?$format_validation_base@_WV?$stream_output_adapter@_W@__crt_stdio_output@@@2@@__crt_stdio_output@@AEAA_N_W@Z 00000001800738c0 f i libucrtd:output.obj
 0001:000729f0       ?type_case_c_tchar@?$output_processor@_WV?$stream_output_adapter@_W@__crt_stdio_output@@V?$positional_parameter_base@_WV?$stream_output_adapter@_W@__crt_stdio_output@@@2@@__crt_stdio_output@@AEAA_N_W@Z 00000001800739f0 f i libucrtd:output.obj
 0001:00072b20       ?type_case_c_tchar@?$output_processor@_WV?$stream_output_adapter@_W@__crt_stdio_output@@V?$standard_base@_WV?$stream_output_adapter@_W@__crt_stdio_output@@@2@@__crt_stdio_output@@AEAA_N_W@Z 0000000180073b20 f i libucrtd:output.obj
 0001:00072c50       ?type_case_c_tchar@?$output_processor@_WV?$string_output_adapter@_W@__crt_stdio_output@@V?$format_validation_base@_WV?$string_output_adapter@_W@__crt_stdio_output@@@2@@__crt_stdio_output@@AEAA_N_W@Z 0000000180073c50 f i libucrtd:output.obj
 0001:00072d80       ?type_case_c_tchar@?$output_processor@_WV?$string_output_adapter@_W@__crt_stdio_output@@V?$positional_parameter_base@_WV?$string_output_adapter@_W@__crt_stdio_output@@@2@@__crt_stdio_output@@AEAA_N_W@Z 0000000180073d80 f i libucrtd:output.obj
 0001:00072eb0       ?type_case_c_tchar@?$output_processor@_WV?$string_output_adapter@_W@__crt_stdio_output@@V?$standard_base@_WV?$string_output_adapter@_W@__crt_stdio_output@@@2@@__crt_stdio_output@@AEAA_N_W@Z 0000000180073eb0 f i libucrtd:output.obj
 0001:00072fe0       ?type_case_d@?$output_processor@DV?$stream_output_adapter@D@__crt_stdio_output@@V?$format_validation_base@DV?$stream_output_adapter@D@__crt_stdio_output@@@2@@__crt_stdio_output@@AEAA_NXZ 0000000180073fe0 f i libucrtd:output.obj
 0001:00073010       ?type_case_d@?$output_processor@DV?$stream_output_adapter@D@__crt_stdio_output@@V?$positional_parameter_base@DV?$stream_output_adapter@D@__crt_stdio_output@@@2@@__crt_stdio_output@@AEAA_NXZ 0000000180074010 f i libucrtd:output.obj
 0001:00073040       ?type_case_d@?$output_processor@DV?$stream_output_adapter@D@__crt_stdio_output@@V?$standard_base@DV?$stream_output_adapter@D@__crt_stdio_output@@@2@@__crt_stdio_output@@AEAA_NXZ 0000000180074040 f i libucrtd:output.obj
 0001:00073070       ?type_case_d@?$output_processor@DV?$string_output_adapter@D@__crt_stdio_output@@V?$format_validation_base@DV?$string_output_adapter@D@__crt_stdio_output@@@2@@__crt_stdio_output@@AEAA_NXZ 0000000180074070 f i libucrtd:output.obj
 0001:000730a0       ?type_case_d@?$output_processor@DV?$string_output_adapter@D@__crt_stdio_output@@V?$positional_parameter_base@DV?$string_output_adapter@D@__crt_stdio_output@@@2@@__crt_stdio_output@@AEAA_NXZ 00000001800740a0 f i libucrtd:output.obj
 0001:000730d0       ?type_case_d@?$output_processor@DV?$string_output_adapter@D@__crt_stdio_output@@V?$standard_base@DV?$string_output_adapter@D@__crt_stdio_output@@@2@@__crt_stdio_output@@AEAA_NXZ 00000001800740d0 f i libucrtd:output.obj
 0001:00073100       ?type_case_d@?$output_processor@_WV?$stream_output_adapter@_W@__crt_stdio_output@@V?$format_validation_base@_WV?$stream_output_adapter@_W@__crt_stdio_output@@@2@@__crt_stdio_output@@AEAA_NXZ 0000000180074100 f i libucrtd:output.obj
 0001:00073130       ?type_case_d@?$output_processor@_WV?$stream_output_adapter@_W@__crt_stdio_output@@V?$positional_parameter_base@_WV?$stream_output_adapter@_W@__crt_stdio_output@@@2@@__crt_stdio_output@@AEAA_NXZ 0000000180074130 f i libucrtd:output.obj
 0001:00073160       ?type_case_d@?$output_processor@_WV?$stream_output_adapter@_W@__crt_stdio_output@@V?$standard_base@_WV?$stream_output_adapter@_W@__crt_stdio_output@@@2@@__crt_stdio_output@@AEAA_NXZ 0000000180074160 f i libucrtd:output.obj
 0001:00073190       ?type_case_d@?$output_processor@_WV?$string_output_adapter@_W@__crt_stdio_output@@V?$format_validation_base@_WV?$string_output_adapter@_W@__crt_stdio_output@@@2@@__crt_stdio_output@@AEAA_NXZ 0000000180074190 f i libucrtd:output.obj
 0001:000731c0       ?type_case_d@?$output_processor@_WV?$string_output_adapter@_W@__crt_stdio_output@@V?$positional_parameter_base@_WV?$string_output_adapter@_W@__crt_stdio_output@@@2@@__crt_stdio_output@@AEAA_NXZ 00000001800741c0 f i libucrtd:output.obj
 0001:000731f0       ?type_case_d@?$output_processor@_WV?$string_output_adapter@_W@__crt_stdio_output@@V?$standard_base@_WV?$string_output_adapter@_W@__crt_stdio_output@@@2@@__crt_stdio_output@@AEAA_NXZ 00000001800741f0 f i libucrtd:output.obj
 0001:00073220       ?type_case_integer@?$output_processor@DV?$stream_output_adapter@D@__crt_stdio_output@@V?$format_validation_base@DV?$stream_output_adapter@D@__crt_stdio_output@@@2@@__crt_stdio_output@@AEAA_NI_N@Z 0000000180074220 f i libucrtd:output.obj
 0001:00073650       ?type_case_integer@?$output_processor@DV?$stream_output_adapter@D@__crt_stdio_output@@V?$positional_parameter_base@DV?$stream_output_adapter@D@__crt_stdio_output@@@2@@__crt_stdio_output@@AEAA_NI_N@Z 0000000180074650 f i libucrtd:output.obj
 0001:00073a80       ?type_case_integer@?$output_processor@DV?$stream_output_adapter@D@__crt_stdio_output@@V?$standard_base@DV?$stream_output_adapter@D@__crt_stdio_output@@@2@@__crt_stdio_output@@AEAA_NI_N@Z 0000000180074a80 f i libucrtd:output.obj
 0001:00073eb0       ?type_case_integer@?$output_processor@DV?$string_output_adapter@D@__crt_stdio_output@@V?$format_validation_base@DV?$string_output_adapter@D@__crt_stdio_output@@@2@@__crt_stdio_output@@AEAA_NI_N@Z 0000000180074eb0 f i libucrtd:output.obj
 0001:000742e0       ?type_case_integer@?$output_processor@DV?$string_output_adapter@D@__crt_stdio_output@@V?$positional_parameter_base@DV?$string_output_adapter@D@__crt_stdio_output@@@2@@__crt_stdio_output@@AEAA_NI_N@Z 00000001800752e0 f i libucrtd:output.obj
 0001:00074710       ?type_case_integer@?$output_processor@DV?$string_output_adapter@D@__crt_stdio_output@@V?$standard_base@DV?$string_output_adapter@D@__crt_stdio_output@@@2@@__crt_stdio_output@@AEAA_NI_N@Z 0000000180075710 f i libucrtd:output.obj
 0001:00074b40       ?type_case_integer@?$output_processor@_WV?$stream_output_adapter@_W@__crt_stdio_output@@V?$format_validation_base@_WV?$stream_output_adapter@_W@__crt_stdio_output@@@2@@__crt_stdio_output@@AEAA_NI_N@Z 0000000180075b40 f i libucrtd:output.obj
 0001:00074f70       ?type_case_integer@?$output_processor@_WV?$stream_output_adapter@_W@__crt_stdio_output@@V?$positional_parameter_base@_WV?$stream_output_adapter@_W@__crt_stdio_output@@@2@@__crt_stdio_output@@AEAA_NI_N@Z 0000000180075f70 f i libucrtd:output.obj
 0001:000753a0       ?type_case_integer@?$output_processor@_WV?$stream_output_adapter@_W@__crt_stdio_output@@V?$standard_base@_WV?$stream_output_adapter@_W@__crt_stdio_output@@@2@@__crt_stdio_output@@AEAA_NI_N@Z 00000001800763a0 f i libucrtd:output.obj
 0001:000757d0       ?type_case_integer@?$output_processor@_WV?$string_output_adapter@_W@__crt_stdio_output@@V?$format_validation_base@_WV?$string_output_adapter@_W@__crt_stdio_output@@@2@@__crt_stdio_output@@AEAA_NI_N@Z 00000001800767d0 f i libucrtd:output.obj
 0001:00075c00       ?type_case_integer@?$output_processor@_WV?$string_output_adapter@_W@__crt_stdio_output@@V?$positional_parameter_base@_WV?$string_output_adapter@_W@__crt_stdio_output@@@2@@__crt_stdio_output@@AEAA_NI_N@Z 0000000180076c00 f i libucrtd:output.obj
 0001:00076030       ?type_case_integer@?$output_processor@_WV?$string_output_adapter@_W@__crt_stdio_output@@V?$standard_base@_WV?$string_output_adapter@_W@__crt_stdio_output@@@2@@__crt_stdio_output@@AEAA_NI_N@Z 0000000180077030 f i libucrtd:output.obj
 0001:00076460       ?type_case_n@?$output_processor@DV?$stream_output_adapter@D@__crt_stdio_output@@V?$format_validation_base@DV?$stream_output_adapter@D@__crt_stdio_output@@@2@@__crt_stdio_output@@AEAA_NXZ 0000000180077460 f i libucrtd:output.obj
 0001:000766a0       ?type_case_n@?$output_processor@DV?$stream_output_adapter@D@__crt_stdio_output@@V?$positional_parameter_base@DV?$stream_output_adapter@D@__crt_stdio_output@@@2@@__crt_stdio_output@@AEAA_NXZ 00000001800776a0 f i libucrtd:output.obj
 0001:000768e0       ?type_case_n@?$output_processor@DV?$stream_output_adapter@D@__crt_stdio_output@@V?$standard_base@DV?$stream_output_adapter@D@__crt_stdio_output@@@2@@__crt_stdio_output@@AEAA_NXZ 00000001800778e0 f i libucrtd:output.obj
 0001:00076b20       ?type_case_n@?$output_processor@DV?$string_output_adapter@D@__crt_stdio_output@@V?$format_validation_base@DV?$string_output_adapter@D@__crt_stdio_output@@@2@@__crt_stdio_output@@AEAA_NXZ 0000000180077b20 f i libucrtd:output.obj
 0001:00076d60       ?type_case_n@?$output_processor@DV?$string_output_adapter@D@__crt_stdio_output@@V?$positional_parameter_base@DV?$string_output_adapter@D@__crt_stdio_output@@@2@@__crt_stdio_output@@AEAA_NXZ 0000000180077d60 f i libucrtd:output.obj
 0001:00076fa0       ?type_case_n@?$output_processor@DV?$string_output_adapter@D@__crt_stdio_output@@V?$standard_base@DV?$string_output_adapter@D@__crt_stdio_output@@@2@@__crt_stdio_output@@AEAA_NXZ 0000000180077fa0 f i libucrtd:output.obj
 0001:000771e0       ?type_case_n@?$output_processor@_WV?$stream_output_adapter@_W@__crt_stdio_output@@V?$format_validation_base@_WV?$stream_output_adapter@_W@__crt_stdio_output@@@2@@__crt_stdio_output@@AEAA_NXZ 00000001800781e0 f i libucrtd:output.obj
 0001:00077420       ?type_case_n@?$output_processor@_WV?$stream_output_adapter@_W@__crt_stdio_output@@V?$positional_parameter_base@_WV?$stream_output_adapter@_W@__crt_stdio_output@@@2@@__crt_stdio_output@@AEAA_NXZ 0000000180078420 f i libucrtd:output.obj
 0001:00077660       ?type_case_n@?$output_processor@_WV?$stream_output_adapter@_W@__crt_stdio_output@@V?$standard_base@_WV?$stream_output_adapter@_W@__crt_stdio_output@@@2@@__crt_stdio_output@@AEAA_NXZ 0000000180078660 f i libucrtd:output.obj
 0001:000778a0       ?type_case_n@?$output_processor@_WV?$string_output_adapter@_W@__crt_stdio_output@@V?$format_validation_base@_WV?$string_output_adapter@_W@__crt_stdio_output@@@2@@__crt_stdio_output@@AEAA_NXZ 00000001800788a0 f i libucrtd:output.obj
 0001:00077ae0       ?type_case_n@?$output_processor@_WV?$string_output_adapter@_W@__crt_stdio_output@@V?$positional_parameter_base@_WV?$string_output_adapter@_W@__crt_stdio_output@@@2@@__crt_stdio_output@@AEAA_NXZ 0000000180078ae0 f i libucrtd:output.obj
 0001:00077d20       ?type_case_n@?$output_processor@_WV?$string_output_adapter@_W@__crt_stdio_output@@V?$standard_base@_WV?$string_output_adapter@_W@__crt_stdio_output@@@2@@__crt_stdio_output@@AEAA_NXZ 0000000180078d20 f i libucrtd:output.obj
 0001:00077f60       ?type_case_o@?$output_processor@DV?$stream_output_adapter@D@__crt_stdio_output@@V?$format_validation_base@DV?$stream_output_adapter@D@__crt_stdio_output@@@2@@__crt_stdio_output@@AEAA_NXZ 0000000180078f60 f i libucrtd:output.obj
 0001:00077fb0       ?type_case_o@?$output_processor@DV?$stream_output_adapter@D@__crt_stdio_output@@V?$positional_parameter_base@DV?$stream_output_adapter@D@__crt_stdio_output@@@2@@__crt_stdio_output@@AEAA_NXZ 0000000180078fb0 f i libucrtd:output.obj
 0001:00078000       ?type_case_o@?$output_processor@DV?$stream_output_adapter@D@__crt_stdio_output@@V?$standard_base@DV?$stream_output_adapter@D@__crt_stdio_output@@@2@@__crt_stdio_output@@AEAA_NXZ 0000000180079000 f i libucrtd:output.obj
 0001:00078050       ?type_case_o@?$output_processor@DV?$string_output_adapter@D@__crt_stdio_output@@V?$format_validation_base@DV?$string_output_adapter@D@__crt_stdio_output@@@2@@__crt_stdio_output@@AEAA_NXZ 0000000180079050 f i libucrtd:output.obj
 0001:000780a0       ?type_case_o@?$output_processor@DV?$string_output_adapter@D@__crt_stdio_output@@V?$positional_parameter_base@DV?$string_output_adapter@D@__crt_stdio_output@@@2@@__crt_stdio_output@@AEAA_NXZ 00000001800790a0 f i libucrtd:output.obj
 0001:000780f0       ?type_case_o@?$output_processor@DV?$string_output_adapter@D@__crt_stdio_output@@V?$standard_base@DV?$string_output_adapter@D@__crt_stdio_output@@@2@@__crt_stdio_output@@AEAA_NXZ 00000001800790f0 f i libucrtd:output.obj
 0001:00078140       ?type_case_o@?$output_processor@_WV?$stream_output_adapter@_W@__crt_stdio_output@@V?$format_validation_base@_WV?$stream_output_adapter@_W@__crt_stdio_output@@@2@@__crt_stdio_output@@AEAA_NXZ 0000000180079140 f i libucrtd:output.obj
 0001:00078190       ?type_case_o@?$output_processor@_WV?$stream_output_adapter@_W@__crt_stdio_output@@V?$positional_parameter_base@_WV?$stream_output_adapter@_W@__crt_stdio_output@@@2@@__crt_stdio_output@@AEAA_NXZ 0000000180079190 f i libucrtd:output.obj
 0001:000781e0       ?type_case_o@?$output_processor@_WV?$stream_output_adapter@_W@__crt_stdio_output@@V?$standard_base@_WV?$stream_output_adapter@_W@__crt_stdio_output@@@2@@__crt_stdio_output@@AEAA_NXZ 00000001800791e0 f i libucrtd:output.obj
 0001:00078230       ?type_case_o@?$output_processor@_WV?$string_output_adapter@_W@__crt_stdio_output@@V?$format_validation_base@_WV?$string_output_adapter@_W@__crt_stdio_output@@@2@@__crt_stdio_output@@AEAA_NXZ 0000000180079230 f i libucrtd:output.obj
 0001:00078280       ?type_case_o@?$output_processor@_WV?$string_output_adapter@_W@__crt_stdio_output@@V?$positional_parameter_base@_WV?$string_output_adapter@_W@__crt_stdio_output@@@2@@__crt_stdio_output@@AEAA_NXZ 0000000180079280 f i libucrtd:output.obj
 0001:000782d0       ?type_case_o@?$output_processor@_WV?$string_output_adapter@_W@__crt_stdio_output@@V?$standard_base@_WV?$string_output_adapter@_W@__crt_stdio_output@@@2@@__crt_stdio_output@@AEAA_NXZ 00000001800792d0 f i libucrtd:output.obj
 0001:00078320       ?type_case_p@?$output_processor@DV?$stream_output_adapter@D@__crt_stdio_output@@V?$format_validation_base@DV?$stream_output_adapter@D@__crt_stdio_output@@@2@@__crt_stdio_output@@AEAA_NXZ 0000000180079320 f i libucrtd:output.obj
 0001:00078360       ?type_case_p@?$output_processor@DV?$stream_output_adapter@D@__crt_stdio_output@@V?$positional_parameter_base@DV?$stream_output_adapter@D@__crt_stdio_output@@@2@@__crt_stdio_output@@AEAA_NXZ 0000000180079360 f i libucrtd:output.obj
 0001:000783a0       ?type_case_p@?$output_processor@DV?$stream_output_adapter@D@__crt_stdio_output@@V?$standard_base@DV?$stream_output_adapter@D@__crt_stdio_output@@@2@@__crt_stdio_output@@AEAA_NXZ 00000001800793a0 f i libucrtd:output.obj
 0001:000783e0       ?type_case_p@?$output_processor@DV?$string_output_adapter@D@__crt_stdio_output@@V?$format_validation_base@DV?$string_output_adapter@D@__crt_stdio_output@@@2@@__crt_stdio_output@@AEAA_NXZ 00000001800793e0 f i libucrtd:output.obj
 0001:00078420       ?type_case_p@?$output_processor@DV?$string_output_adapter@D@__crt_stdio_output@@V?$positional_parameter_base@DV?$string_output_adapter@D@__crt_stdio_output@@@2@@__crt_stdio_output@@AEAA_NXZ 0000000180079420 f i libucrtd:output.obj
 0001:00078460       ?type_case_p@?$output_processor@DV?$string_output_adapter@D@__crt_stdio_output@@V?$standard_base@DV?$string_output_adapter@D@__crt_stdio_output@@@2@@__crt_stdio_output@@AEAA_NXZ 0000000180079460 f i libucrtd:output.obj
 0001:000784a0       ?type_case_p@?$output_processor@_WV?$stream_output_adapter@_W@__crt_stdio_output@@V?$format_validation_base@_WV?$stream_output_adapter@_W@__crt_stdio_output@@@2@@__crt_stdio_output@@AEAA_NXZ 00000001800794a0 f i libucrtd:output.obj
 0001:000784e0       ?type_case_p@?$output_processor@_WV?$stream_output_adapter@_W@__crt_stdio_output@@V?$positional_parameter_base@_WV?$stream_output_adapter@_W@__crt_stdio_output@@@2@@__crt_stdio_output@@AEAA_NXZ 00000001800794e0 f i libucrtd:output.obj
 0001:00078520       ?type_case_p@?$output_processor@_WV?$stream_output_adapter@_W@__crt_stdio_output@@V?$standard_base@_WV?$stream_output_adapter@_W@__crt_stdio_output@@@2@@__crt_stdio_output@@AEAA_NXZ 0000000180079520 f i libucrtd:output.obj
 0001:00078560       ?type_case_p@?$output_processor@_WV?$string_output_adapter@_W@__crt_stdio_output@@V?$format_validation_base@_WV?$string_output_adapter@_W@__crt_stdio_output@@@2@@__crt_stdio_output@@AEAA_NXZ 0000000180079560 f i libucrtd:output.obj
 0001:000785a0       ?type_case_p@?$output_processor@_WV?$string_output_adapter@_W@__crt_stdio_output@@V?$positional_parameter_base@_WV?$string_output_adapter@_W@__crt_stdio_output@@@2@@__crt_stdio_output@@AEAA_NXZ 00000001800795a0 f i libucrtd:output.obj
 0001:000785e0       ?type_case_p@?$output_processor@_WV?$string_output_adapter@_W@__crt_stdio_output@@V?$standard_base@_WV?$string_output_adapter@_W@__crt_stdio_output@@@2@@__crt_stdio_output@@AEAA_NXZ 00000001800795e0 f i libucrtd:output.obj
 0001:00078620       ?type_case_s@?$output_processor@DV?$stream_output_adapter@D@__crt_stdio_output@@V?$format_validation_base@DV?$stream_output_adapter@D@__crt_stdio_output@@@2@@__crt_stdio_output@@AEAA_NXZ 0000000180079620 f i libucrtd:output.obj
 0001:00078740       ?type_case_s@?$output_processor@DV?$stream_output_adapter@D@__crt_stdio_output@@V?$positional_parameter_base@DV?$stream_output_adapter@D@__crt_stdio_output@@@2@@__crt_stdio_output@@AEAA_NXZ 0000000180079740 f i libucrtd:output.obj
 0001:00078860       ?type_case_s@?$output_processor@DV?$stream_output_adapter@D@__crt_stdio_output@@V?$standard_base@DV?$stream_output_adapter@D@__crt_stdio_output@@@2@@__crt_stdio_output@@AEAA_NXZ 0000000180079860 f i libucrtd:output.obj
 0001:00078980       ?type_case_s@?$output_processor@DV?$string_output_adapter@D@__crt_stdio_output@@V?$format_validation_base@DV?$string_output_adapter@D@__crt_stdio_output@@@2@@__crt_stdio_output@@AEAA_NXZ 0000000180079980 f i libucrtd:output.obj
 0001:00078aa0       ?type_case_s@?$output_processor@DV?$string_output_adapter@D@__crt_stdio_output@@V?$positional_parameter_base@DV?$string_output_adapter@D@__crt_stdio_output@@@2@@__crt_stdio_output@@AEAA_NXZ 0000000180079aa0 f i libucrtd:output.obj
 0001:00078bc0       ?type_case_s@?$output_processor@DV?$string_output_adapter@D@__crt_stdio_output@@V?$standard_base@DV?$string_output_adapter@D@__crt_stdio_output@@@2@@__crt_stdio_output@@AEAA_NXZ 0000000180079bc0 f i libucrtd:output.obj
 0001:00078ce0       ?type_case_s@?$output_processor@_WV?$stream_output_adapter@_W@__crt_stdio_output@@V?$format_validation_base@_WV?$stream_output_adapter@_W@__crt_stdio_output@@@2@@__crt_stdio_output@@AEAA_NXZ 0000000180079ce0 f i libucrtd:output.obj
 0001:00078e00       ?type_case_s@?$output_processor@_WV?$stream_output_adapter@_W@__crt_stdio_output@@V?$positional_parameter_base@_WV?$stream_output_adapter@_W@__crt_stdio_output@@@2@@__crt_stdio_output@@AEAA_NXZ 0000000180079e00 f i libucrtd:output.obj
 0001:00078f20       ?type_case_s@?$output_processor@_WV?$stream_output_adapter@_W@__crt_stdio_output@@V?$standard_base@_WV?$stream_output_adapter@_W@__crt_stdio_output@@@2@@__crt_stdio_output@@AEAA_NXZ 0000000180079f20 f i libucrtd:output.obj
 0001:00079040       ?type_case_s@?$output_processor@_WV?$string_output_adapter@_W@__crt_stdio_output@@V?$format_validation_base@_WV?$string_output_adapter@_W@__crt_stdio_output@@@2@@__crt_stdio_output@@AEAA_NXZ 000000018007a040 f i libucrtd:output.obj
 0001:00079160       ?type_case_s@?$output_processor@_WV?$string_output_adapter@_W@__crt_stdio_output@@V?$positional_parameter_base@_WV?$string_output_adapter@_W@__crt_stdio_output@@@2@@__crt_stdio_output@@AEAA_NXZ 000000018007a160 f i libucrtd:output.obj
 0001:00079280       ?type_case_s@?$output_processor@_WV?$string_output_adapter@_W@__crt_stdio_output@@V?$standard_base@_WV?$string_output_adapter@_W@__crt_stdio_output@@@2@@__crt_stdio_output@@AEAA_NXZ 000000018007a280 f i libucrtd:output.obj
 0001:000793a0       ?type_case_s_compute_narrow_string_length@?$output_processor@DV?$stream_output_adapter@D@__crt_stdio_output@@V?$format_validation_base@DV?$stream_output_adapter@D@__crt_stdio_output@@@2@@__crt_stdio_output@@AEBAHHD@Z 000000018007a3a0 f i libucrtd:output.obj
 0001:000793d0       ?type_case_s_compute_narrow_string_length@?$output_processor@DV?$stream_output_adapter@D@__crt_stdio_output@@V?$positional_parameter_base@DV?$stream_output_adapter@D@__crt_stdio_output@@@2@@__crt_stdio_output@@AEBAHHD@Z 000000018007a3d0 f i libucrtd:output.obj
 0001:00079400       ?type_case_s_compute_narrow_string_length@?$output_processor@DV?$stream_output_adapter@D@__crt_stdio_output@@V?$standard_base@DV?$stream_output_adapter@D@__crt_stdio_output@@@2@@__crt_stdio_output@@AEBAHHD@Z 000000018007a400 f i libucrtd:output.obj
 0001:00079430       ?type_case_s_compute_narrow_string_length@?$output_processor@DV?$string_output_adapter@D@__crt_stdio_output@@V?$format_validation_base@DV?$string_output_adapter@D@__crt_stdio_output@@@2@@__crt_stdio_output@@AEBAHHD@Z 000000018007a430 f i libucrtd:output.obj
 0001:00079460       ?type_case_s_compute_narrow_string_length@?$output_processor@DV?$string_output_adapter@D@__crt_stdio_output@@V?$positional_parameter_base@DV?$string_output_adapter@D@__crt_stdio_output@@@2@@__crt_stdio_output@@AEBAHHD@Z 000000018007a460 f i libucrtd:output.obj
 0001:00079490       ?type_case_s_compute_narrow_string_length@?$output_processor@DV?$string_output_adapter@D@__crt_stdio_output@@V?$standard_base@DV?$string_output_adapter@D@__crt_stdio_output@@@2@@__crt_stdio_output@@AEBAHHD@Z 000000018007a490 f i libucrtd:output.obj
 0001:000794c0       ?type_case_s_compute_narrow_string_length@?$output_processor@_WV?$stream_output_adapter@_W@__crt_stdio_output@@V?$format_validation_base@_WV?$stream_output_adapter@_W@__crt_stdio_output@@@2@@__crt_stdio_output@@AEBAHH_W@Z 000000018007a4c0 f i libucrtd:output.obj
 0001:00079550       ?type_case_s_compute_narrow_string_length@?$output_processor@_WV?$stream_output_adapter@_W@__crt_stdio_output@@V?$positional_parameter_base@_WV?$stream_output_adapter@_W@__crt_stdio_output@@@2@@__crt_stdio_output@@AEBAHH_W@Z 000000018007a550 f i libucrtd:output.obj
 0001:000795e0       ?type_case_s_compute_narrow_string_length@?$output_processor@_WV?$stream_output_adapter@_W@__crt_stdio_output@@V?$standard_base@_WV?$stream_output_adapter@_W@__crt_stdio_output@@@2@@__crt_stdio_output@@AEBAHH_W@Z 000000018007a5e0 f i libucrtd:output.obj
 0001:00079670       ?type_case_s_compute_narrow_string_length@?$output_processor@_WV?$string_output_adapter@_W@__crt_stdio_output@@V?$format_validation_base@_WV?$string_output_adapter@_W@__crt_stdio_output@@@2@@__crt_stdio_output@@AEBAHH_W@Z 000000018007a670 f i libucrtd:output.obj
 0001:00079700       ?type_case_s_compute_narrow_string_length@?$output_processor@_WV?$string_output_adapter@_W@__crt_stdio_output@@V?$positional_parameter_base@_WV?$string_output_adapter@_W@__crt_stdio_output@@@2@@__crt_stdio_output@@AEBAHH_W@Z 000000018007a700 f i libucrtd:output.obj
 0001:00079790       ?type_case_s_compute_narrow_string_length@?$output_processor@_WV?$string_output_adapter@_W@__crt_stdio_output@@V?$standard_base@_WV?$string_output_adapter@_W@__crt_stdio_output@@@2@@__crt_stdio_output@@AEBAHH_W@Z 000000018007a790 f i libucrtd:output.obj
 0001:00079820       ?type_case_u@?$output_processor@DV?$stream_output_adapter@D@__crt_stdio_output@@V?$format_validation_base@DV?$stream_output_adapter@D@__crt_stdio_output@@@2@@__crt_stdio_output@@AEAA_NXZ 000000018007a820 f i libucrtd:output.obj
 0001:00079840       ?type_case_u@?$output_processor@DV?$stream_output_adapter@D@__crt_stdio_output@@V?$positional_parameter_base@DV?$stream_output_adapter@D@__crt_stdio_output@@@2@@__crt_stdio_output@@AEAA_NXZ 000000018007a840 f i libucrtd:output.obj
 0001:00079860       ?type_case_u@?$output_processor@DV?$stream_output_adapter@D@__crt_stdio_output@@V?$standard_base@DV?$stream_output_adapter@D@__crt_stdio_output@@@2@@__crt_stdio_output@@AEAA_NXZ 000000018007a860 f i libucrtd:output.obj
 0001:00079880       ?type_case_u@?$output_processor@DV?$string_output_adapter@D@__crt_stdio_output@@V?$format_validation_base@DV?$string_output_adapter@D@__crt_stdio_output@@@2@@__crt_stdio_output@@AEAA_NXZ 000000018007a880 f i libucrtd:output.obj
 0001:000798a0       ?type_case_u@?$output_processor@DV?$string_output_adapter@D@__crt_stdio_output@@V?$positional_parameter_base@DV?$string_output_adapter@D@__crt_stdio_output@@@2@@__crt_stdio_output@@AEAA_NXZ 000000018007a8a0 f i libucrtd:output.obj
 0001:000798c0       ?type_case_u@?$output_processor@DV?$string_output_adapter@D@__crt_stdio_output@@V?$standard_base@DV?$string_output_adapter@D@__crt_stdio_output@@@2@@__crt_stdio_output@@AEAA_NXZ 000000018007a8c0 f i libucrtd:output.obj
 0001:000798e0       ?type_case_u@?$output_processor@_WV?$stream_output_adapter@_W@__crt_stdio_output@@V?$format_validation_base@_WV?$stream_output_adapter@_W@__crt_stdio_output@@@2@@__crt_stdio_output@@AEAA_NXZ 000000018007a8e0 f i libucrtd:output.obj
 0001:00079900       ?type_case_u@?$output_processor@_WV?$stream_output_adapter@_W@__crt_stdio_output@@V?$positional_parameter_base@_WV?$stream_output_adapter@_W@__crt_stdio_output@@@2@@__crt_stdio_output@@AEAA_NXZ 000000018007a900 f i libucrtd:output.obj
 0001:00079920       ?type_case_u@?$output_processor@_WV?$stream_output_adapter@_W@__crt_stdio_output@@V?$standard_base@_WV?$stream_output_adapter@_W@__crt_stdio_output@@@2@@__crt_stdio_output@@AEAA_NXZ 000000018007a920 f i libucrtd:output.obj
 0001:00079940       ?type_case_u@?$output_processor@_WV?$string_output_adapter@_W@__crt_stdio_output@@V?$format_validation_base@_WV?$string_output_adapter@_W@__crt_stdio_output@@@2@@__crt_stdio_output@@AEAA_NXZ 000000018007a940 f i libucrtd:output.obj
 0001:00079960       ?type_case_u@?$output_processor@_WV?$string_output_adapter@_W@__crt_stdio_output@@V?$positional_parameter_base@_WV?$string_output_adapter@_W@__crt_stdio_output@@@2@@__crt_stdio_output@@AEAA_NXZ 000000018007a960 f i libucrtd:output.obj
 0001:00079980       ?type_case_u@?$output_processor@_WV?$string_output_adapter@_W@__crt_stdio_output@@V?$standard_base@_WV?$string_output_adapter@_W@__crt_stdio_output@@@2@@__crt_stdio_output@@AEAA_NXZ 000000018007a980 f i libucrtd:output.obj
 0001:000799a0       ?type_case_x@?$output_processor@DV?$stream_output_adapter@D@__crt_stdio_output@@V?$format_validation_base@DV?$stream_output_adapter@D@__crt_stdio_output@@@2@@__crt_stdio_output@@AEAA_NXZ 000000018007a9a0 f i libucrtd:output.obj
 0001:000799c0       ?type_case_x@?$output_processor@DV?$stream_output_adapter@D@__crt_stdio_output@@V?$positional_parameter_base@DV?$stream_output_adapter@D@__crt_stdio_output@@@2@@__crt_stdio_output@@AEAA_NXZ 000000018007a9c0 f i libucrtd:output.obj
 0001:000799e0       ?type_case_x@?$output_processor@DV?$stream_output_adapter@D@__crt_stdio_output@@V?$standard_base@DV?$stream_output_adapter@D@__crt_stdio_output@@@2@@__crt_stdio_output@@AEAA_NXZ 000000018007a9e0 f i libucrtd:output.obj
 0001:00079a00       ?type_case_x@?$output_processor@DV?$string_output_adapter@D@__crt_stdio_output@@V?$format_validation_base@DV?$string_output_adapter@D@__crt_stdio_output@@@2@@__crt_stdio_output@@AEAA_NXZ 000000018007aa00 f i libucrtd:output.obj
 0001:00079a20       ?type_case_x@?$output_processor@DV?$string_output_adapter@D@__crt_stdio_output@@V?$positional_parameter_base@DV?$string_output_adapter@D@__crt_stdio_output@@@2@@__crt_stdio_output@@AEAA_NXZ 000000018007aa20 f i libucrtd:output.obj
 0001:00079a40       ?type_case_x@?$output_processor@DV?$string_output_adapter@D@__crt_stdio_output@@V?$standard_base@DV?$string_output_adapter@D@__crt_stdio_output@@@2@@__crt_stdio_output@@AEAA_NXZ 000000018007aa40 f i libucrtd:output.obj
 0001:00079a60       ?type_case_x@?$output_processor@_WV?$stream_output_adapter@_W@__crt_stdio_output@@V?$format_validation_base@_WV?$stream_output_adapter@_W@__crt_stdio_output@@@2@@__crt_stdio_output@@AEAA_NXZ 000000018007aa60 f i libucrtd:output.obj
 0001:00079a80       ?type_case_x@?$output_processor@_WV?$stream_output_adapter@_W@__crt_stdio_output@@V?$positional_parameter_base@_WV?$stream_output_adapter@_W@__crt_stdio_output@@@2@@__crt_stdio_output@@AEAA_NXZ 000000018007aa80 f i libucrtd:output.obj
 0001:00079aa0       ?type_case_x@?$output_processor@_WV?$stream_output_adapter@_W@__crt_stdio_output@@V?$standard_base@_WV?$stream_output_adapter@_W@__crt_stdio_output@@@2@@__crt_stdio_output@@AEAA_NXZ 000000018007aaa0 f i libucrtd:output.obj
 0001:00079ac0       ?type_case_x@?$output_processor@_WV?$string_output_adapter@_W@__crt_stdio_output@@V?$format_validation_base@_WV?$string_output_adapter@_W@__crt_stdio_output@@@2@@__crt_stdio_output@@AEAA_NXZ 000000018007aac0 f i libucrtd:output.obj
 0001:00079ae0       ?type_case_x@?$output_processor@_WV?$string_output_adapter@_W@__crt_stdio_output@@V?$positional_parameter_base@_WV?$string_output_adapter@_W@__crt_stdio_output@@@2@@__crt_stdio_output@@AEAA_NXZ 000000018007aae0 f i libucrtd:output.obj
 0001:00079b00       ?type_case_x@?$output_processor@_WV?$string_output_adapter@_W@__crt_stdio_output@@V?$standard_base@_WV?$string_output_adapter@_W@__crt_stdio_output@@@2@@__crt_stdio_output@@AEAA_NXZ 000000018007ab00 f i libucrtd:output.obj
 0001:00079b20       ?unset_flag@?$output_processor@DV?$stream_output_adapter@D@__crt_stdio_output@@V?$format_validation_base@DV?$stream_output_adapter@D@__crt_stdio_output@@@2@@__crt_stdio_output@@AEAAXI@Z 000000018007ab20 f i libucrtd:output.obj
 0001:00079b50       ?unset_flag@?$output_processor@DV?$stream_output_adapter@D@__crt_stdio_output@@V?$positional_parameter_base@DV?$stream_output_adapter@D@__crt_stdio_output@@@2@@__crt_stdio_output@@AEAAXI@Z 000000018007ab50 f i libucrtd:output.obj
 0001:00079b80       ?unset_flag@?$output_processor@DV?$stream_output_adapter@D@__crt_stdio_output@@V?$standard_base@DV?$stream_output_adapter@D@__crt_stdio_output@@@2@@__crt_stdio_output@@AEAAXI@Z 000000018007ab80 f i libucrtd:output.obj
 0001:00079bb0       ?unset_flag@?$output_processor@DV?$string_output_adapter@D@__crt_stdio_output@@V?$format_validation_base@DV?$string_output_adapter@D@__crt_stdio_output@@@2@@__crt_stdio_output@@AEAAXI@Z 000000018007abb0 f i libucrtd:output.obj
 0001:00079be0       ?unset_flag@?$output_processor@DV?$string_output_adapter@D@__crt_stdio_output@@V?$positional_parameter_base@DV?$string_output_adapter@D@__crt_stdio_output@@@2@@__crt_stdio_output@@AEAAXI@Z 000000018007abe0 f i libucrtd:output.obj
 0001:00079c10       ?unset_flag@?$output_processor@DV?$string_output_adapter@D@__crt_stdio_output@@V?$standard_base@DV?$string_output_adapter@D@__crt_stdio_output@@@2@@__crt_stdio_output@@AEAAXI@Z 000000018007ac10 f i libucrtd:output.obj
 0001:00079c40       ?unset_flag@?$output_processor@_WV?$stream_output_adapter@_W@__crt_stdio_output@@V?$format_validation_base@_WV?$stream_output_adapter@_W@__crt_stdio_output@@@2@@__crt_stdio_output@@AEAAXI@Z 000000018007ac40 f i libucrtd:output.obj
 0001:00079c70       ?unset_flag@?$output_processor@_WV?$stream_output_adapter@_W@__crt_stdio_output@@V?$positional_parameter_base@_WV?$stream_output_adapter@_W@__crt_stdio_output@@@2@@__crt_stdio_output@@AEAAXI@Z 000000018007ac70 f i libucrtd:output.obj
 0001:00079ca0       ?unset_flag@?$output_processor@_WV?$stream_output_adapter@_W@__crt_stdio_output@@V?$standard_base@_WV?$stream_output_adapter@_W@__crt_stdio_output@@@2@@__crt_stdio_output@@AEAAXI@Z 000000018007aca0 f i libucrtd:output.obj
 0001:00079cd0       ?unset_flag@?$output_processor@_WV?$string_output_adapter@_W@__crt_stdio_output@@V?$format_validation_base@_WV?$string_output_adapter@_W@__crt_stdio_output@@@2@@__crt_stdio_output@@AEAAXI@Z 000000018007acd0 f i libucrtd:output.obj
 0001:00079d00       ?unset_flag@?$output_processor@_WV?$string_output_adapter@_W@__crt_stdio_output@@V?$positional_parameter_base@_WV?$string_output_adapter@_W@__crt_stdio_output@@@2@@__crt_stdio_output@@AEAAXI@Z 000000018007ad00 f i libucrtd:output.obj
 0001:00079d30       ?unset_flag@?$output_processor@_WV?$string_output_adapter@_W@__crt_stdio_output@@V?$standard_base@_WV?$string_output_adapter@_W@__crt_stdio_output@@@2@@__crt_stdio_output@@AEAAXI@Z 000000018007ad30 f i libucrtd:output.obj
 0001:00079d60       ?update_field_width@?$positional_parameter_base@DV?$stream_output_adapter@D@__crt_stdio_output@@@__crt_stdio_output@@IEAA_NXZ 000000018007ad60 f i libucrtd:output.obj
 0001:00079f50       ?update_field_width@?$positional_parameter_base@DV?$string_output_adapter@D@__crt_stdio_output@@@__crt_stdio_output@@IEAA_NXZ 000000018007af50 f i libucrtd:output.obj
 0001:0007a140       ?update_field_width@?$positional_parameter_base@_WV?$stream_output_adapter@_W@__crt_stdio_output@@@__crt_stdio_output@@IEAA_NXZ 000000018007b140 f i libucrtd:output.obj
 0001:0007a330       ?update_field_width@?$positional_parameter_base@_WV?$string_output_adapter@_W@__crt_stdio_output@@@__crt_stdio_output@@IEAA_NXZ 000000018007b330 f i libucrtd:output.obj
 0001:0007a520       ?update_field_width@?$standard_base@DV?$stream_output_adapter@D@__crt_stdio_output@@@__crt_stdio_output@@IEAA_NXZ 000000018007b520 f i libucrtd:output.obj
 0001:0007a550       ?update_field_width@?$standard_base@DV?$string_output_adapter@D@__crt_stdio_output@@@__crt_stdio_output@@IEAA_NXZ 000000018007b550 f i libucrtd:output.obj
 0001:0007a580       ?update_field_width@?$standard_base@_WV?$stream_output_adapter@_W@__crt_stdio_output@@@__crt_stdio_output@@IEAA_NXZ 000000018007b580 f i libucrtd:output.obj
 0001:0007a5b0       ?update_field_width@?$standard_base@_WV?$string_output_adapter@_W@__crt_stdio_output@@@__crt_stdio_output@@IEAA_NXZ 000000018007b5b0 f i libucrtd:output.obj
 0001:0007a5e0       ?update_precision@?$positional_parameter_base@DV?$stream_output_adapter@D@__crt_stdio_output@@@__crt_stdio_output@@IEAA_NXZ 000000018007b5e0 f i libucrtd:output.obj
 0001:0007a7d0       ?update_precision@?$positional_parameter_base@DV?$string_output_adapter@D@__crt_stdio_output@@@__crt_stdio_output@@IEAA_NXZ 000000018007b7d0 f i libucrtd:output.obj
 0001:0007a9c0       ?update_precision@?$positional_parameter_base@_WV?$stream_output_adapter@_W@__crt_stdio_output@@@__crt_stdio_output@@IEAA_NXZ 000000018007b9c0 f i libucrtd:output.obj
 0001:0007abb0       ?update_precision@?$positional_parameter_base@_WV?$string_output_adapter@_W@__crt_stdio_output@@@__crt_stdio_output@@IEAA_NXZ 000000018007bbb0 f i libucrtd:output.obj
 0001:0007ada0       ?update_precision@?$standard_base@DV?$stream_output_adapter@D@__crt_stdio_output@@@__crt_stdio_output@@IEAA_NXZ 000000018007bda0 f i libucrtd:output.obj
 0001:0007add0       ?update_precision@?$standard_base@DV?$string_output_adapter@D@__crt_stdio_output@@@__crt_stdio_output@@IEAA_NXZ 000000018007bdd0 f i libucrtd:output.obj
 0001:0007ae00       ?update_precision@?$standard_base@_WV?$stream_output_adapter@_W@__crt_stdio_output@@@__crt_stdio_output@@IEAA_NXZ 000000018007be00 f i libucrtd:output.obj
 0001:0007ae30       ?update_precision@?$standard_base@_WV?$string_output_adapter@_W@__crt_stdio_output@@@__crt_stdio_output@@IEAA_NXZ 000000018007be30 f i libucrtd:output.obj
 0001:0007ae60       ?valid@__crt_stdio_stream@@QEBA_NXZ 000000018007be60 f i libucrtd:output.obj
 0001:0007ae90       ?validate@?$stream_output_adapter@D@__crt_stdio_output@@QEBA_NXZ 000000018007be90 f i libucrtd:output.obj
 0001:0007af70       ?validate@?$stream_output_adapter@_W@__crt_stdio_output@@QEBA_NXZ 000000018007bf70 f i libucrtd:output.obj
 0001:0007b050       ?validate@?$string_output_adapter@D@__crt_stdio_output@@QEBA_NXZ 000000018007c050 f i libucrtd:output.obj
 0001:0007b110       ?validate@?$string_output_adapter@_W@__crt_stdio_output@@QEBA_NXZ 000000018007c110 f i libucrtd:output.obj
 0001:0007b1d0       ?validate_and_store_parameter_data@?$positional_parameter_base@DV?$stream_output_adapter@D@__crt_stdio_output@@@__crt_stdio_output@@AEAA_NAEAUparameter_data@12@W4parameter_type@12@DW4length_modifier@2@@Z 000000018007c1d0 f i libucrtd:output.obj
 0001:0007b2f0       ?validate_and_store_parameter_data@?$positional_parameter_base@DV?$string_output_adapter@D@__crt_stdio_output@@@__crt_stdio_output@@AEAA_NAEAUparameter_data@12@W4parameter_type@12@DW4length_modifier@2@@Z 000000018007c2f0 f i libucrtd:output.obj
 0001:0007b410       ?validate_and_store_parameter_data@?$positional_parameter_base@_WV?$stream_output_adapter@_W@__crt_stdio_output@@@__crt_stdio_output@@AEAA_NAEAUparameter_data@12@W4parameter_type@12@_WW4length_modifier@2@@Z 000000018007c410 f i libucrtd:output.obj
 0001:0007b530       ?validate_and_store_parameter_data@?$positional_parameter_base@_WV?$string_output_adapter@_W@__crt_stdio_output@@@__crt_stdio_output@@AEAA_NAEAUparameter_data@12@W4parameter_type@12@_WW4length_modifier@2@@Z 000000018007c530 f i libucrtd:output.obj
 0001:0007b650       ?validate_and_update_state_at_beginning_of_format_character@?$positional_parameter_base@DV?$stream_output_adapter@D@__crt_stdio_output@@@__crt_stdio_output@@IEAA_NXZ 000000018007c650 f i libucrtd:output.obj
 0001:0007b930       ?validate_and_update_state_at_beginning_of_format_character@?$positional_parameter_base@DV?$string_output_adapter@D@__crt_stdio_output@@@__crt_stdio_output@@IEAA_NXZ 000000018007c930 f i libucrtd:output.obj
 0001:0007bc10       ?validate_and_update_state_at_beginning_of_format_character@?$positional_parameter_base@_WV?$stream_output_adapter@_W@__crt_stdio_output@@@__crt_stdio_output@@IEAA_NXZ 000000018007cc10 f i libucrtd:output.obj
 0001:0007bef0       ?validate_and_update_state_at_beginning_of_format_character@?$positional_parameter_base@_WV?$string_output_adapter@_W@__crt_stdio_output@@@__crt_stdio_output@@IEAA_NXZ 000000018007cef0 f i libucrtd:output.obj
 0001:0007c1d0       ?validate_and_update_state_at_beginning_of_format_character@?$standard_base@DV?$stream_output_adapter@D@__crt_stdio_output@@@__crt_stdio_output@@IEAA_NXZ 000000018007d1d0 f i libucrtd:output.obj
 0001:0007c1e0       ?validate_and_update_state_at_beginning_of_format_character@?$standard_base@DV?$string_output_adapter@D@__crt_stdio_output@@@__crt_stdio_output@@IEAA_NXZ 000000018007d1e0 f i libucrtd:output.obj
 0001:0007c1f0       ?validate_and_update_state_at_beginning_of_format_character@?$standard_base@_WV?$stream_output_adapter@_W@__crt_stdio_output@@@__crt_stdio_output@@IEAA_NXZ 000000018007d1f0 f i libucrtd:output.obj
 0001:0007c200       ?validate_and_update_state_at_beginning_of_format_character@?$standard_base@_WV?$string_output_adapter@_W@__crt_stdio_output@@@__crt_stdio_output@@IEAA_NXZ 000000018007d200 f i libucrtd:output.obj
 0001:0007c210       ?validate_and_update_state_at_end_of_format_string@?$format_validation_base@DV?$stream_output_adapter@D@__crt_stdio_output@@@__crt_stdio_output@@IEBA_NXZ 000000018007d210 f i libucrtd:output.obj
 0001:0007c2d0       ?validate_and_update_state_at_end_of_format_string@?$format_validation_base@DV?$string_output_adapter@D@__crt_stdio_output@@@__crt_stdio_output@@IEBA_NXZ 000000018007d2d0 f i libucrtd:output.obj
 0001:0007c390       ?validate_and_update_state_at_end_of_format_string@?$format_validation_base@_WV?$stream_output_adapter@_W@__crt_stdio_output@@@__crt_stdio_output@@IEBA_NXZ 000000018007d390 f i libucrtd:output.obj
 0001:0007c450       ?validate_and_update_state_at_end_of_format_string@?$format_validation_base@_WV?$string_output_adapter@_W@__crt_stdio_output@@@__crt_stdio_output@@IEBA_NXZ 000000018007d450 f i libucrtd:output.obj
 0001:0007c510       ?validate_and_update_state_at_end_of_format_string@?$positional_parameter_base@DV?$stream_output_adapter@D@__crt_stdio_output@@@__crt_stdio_output@@IEAA_NXZ 000000018007d510 f i libucrtd:output.obj
 0001:0007c700       ?validate_and_update_state_at_end_of_format_string@?$positional_parameter_base@DV?$string_output_adapter@D@__crt_stdio_output@@@__crt_stdio_output@@IEAA_NXZ 000000018007d700 f i libucrtd:output.obj
 0001:0007c8f0       ?validate_and_update_state_at_end_of_format_string@?$positional_parameter_base@_WV?$stream_output_adapter@_W@__crt_stdio_output@@@__crt_stdio_output@@IEAA_NXZ 000000018007d8f0 f i libucrtd:output.obj
 0001:0007cae0       ?validate_and_update_state_at_end_of_format_string@?$positional_parameter_base@_WV?$string_output_adapter@_W@__crt_stdio_output@@@__crt_stdio_output@@IEAA_NXZ 000000018007dae0 f i libucrtd:output.obj
 0001:0007ccd0       ?validate_and_update_state_at_end_of_format_string@?$standard_base@DV?$stream_output_adapter@D@__crt_stdio_output@@@__crt_stdio_output@@IEBA_NXZ 000000018007dcd0 f i libucrtd:output.obj
 0001:0007cce0       ?validate_and_update_state_at_end_of_format_string@?$standard_base@DV?$string_output_adapter@D@__crt_stdio_output@@@__crt_stdio_output@@IEBA_NXZ 000000018007dce0 f i libucrtd:output.obj
 0001:0007ccf0       ?validate_and_update_state_at_end_of_format_string@?$standard_base@_WV?$stream_output_adapter@_W@__crt_stdio_output@@@__crt_stdio_output@@IEBA_NXZ 000000018007dcf0 f i libucrtd:output.obj
 0001:0007cd00       ?validate_and_update_state_at_end_of_format_string@?$standard_base@_WV?$string_output_adapter@_W@__crt_stdio_output@@@__crt_stdio_output@@IEBA_NXZ 000000018007dd00 f i libucrtd:output.obj
 0001:0007cd10       ?validate_state_for_type_case_a@?$positional_parameter_base@DV?$stream_output_adapter@D@__crt_stdio_output@@@__crt_stdio_output@@IEAA_NXZ 000000018007dd10 f i libucrtd:output.obj
 0001:0007ce50       ?validate_state_for_type_case_a@?$positional_parameter_base@DV?$string_output_adapter@D@__crt_stdio_output@@@__crt_stdio_output@@IEAA_NXZ 000000018007de50 f i libucrtd:output.obj
 0001:0007cf90       ?validate_state_for_type_case_a@?$positional_parameter_base@_WV?$stream_output_adapter@_W@__crt_stdio_output@@@__crt_stdio_output@@IEAA_NXZ 000000018007df90 f i libucrtd:output.obj
 0001:0007d0d0       ?validate_state_for_type_case_a@?$positional_parameter_base@_WV?$string_output_adapter@_W@__crt_stdio_output@@@__crt_stdio_output@@IEAA_NXZ 000000018007e0d0 f i libucrtd:output.obj
 0001:0007d210       ?validate_state_for_type_case_a@?$standard_base@DV?$stream_output_adapter@D@__crt_stdio_output@@@__crt_stdio_output@@IEBA_NXZ 000000018007e210 f i libucrtd:output.obj
 0001:0007d220       ?validate_state_for_type_case_a@?$standard_base@DV?$string_output_adapter@D@__crt_stdio_output@@@__crt_stdio_output@@IEBA_NXZ 000000018007e220 f i libucrtd:output.obj
 0001:0007d230       ?validate_state_for_type_case_a@?$standard_base@_WV?$stream_output_adapter@_W@__crt_stdio_output@@@__crt_stdio_output@@IEBA_NXZ 000000018007e230 f i libucrtd:output.obj
 0001:0007d240       ?validate_state_for_type_case_a@?$standard_base@_WV?$string_output_adapter@_W@__crt_stdio_output@@@__crt_stdio_output@@IEBA_NXZ 000000018007e240 f i libucrtd:output.obj
 0001:0007d250       ?validate_stream_is_ansi_if_required@?$__acrt_stdio_char_traits@D@@SA_NQEAU_iobuf@@@Z 000000018007e250 f i libucrtd:output.obj
 0001:0007d3e0       ?validate_stream_is_ansi_if_required@?$__acrt_stdio_char_traits@_W@@SA_NQEAU_iobuf@@@Z 000000018007e3e0 f i libucrtd:output.obj
 0001:0007d3f0       ?wide_null_string@?$output_processor@DV?$stream_output_adapter@D@__crt_stdio_output@@V?$format_validation_base@DV?$stream_output_adapter@D@__crt_stdio_output@@@2@@__crt_stdio_output@@CAPEA_WXZ 000000018007e3f0 f i libucrtd:output.obj
 0001:0007d400       ?wide_null_string@?$output_processor@DV?$stream_output_adapter@D@__crt_stdio_output@@V?$positional_parameter_base@DV?$stream_output_adapter@D@__crt_stdio_output@@@2@@__crt_stdio_output@@CAPEA_WXZ 000000018007e400 f i libucrtd:output.obj
 0001:0007d410       ?wide_null_string@?$output_processor@DV?$stream_output_adapter@D@__crt_stdio_output@@V?$standard_base@DV?$stream_output_adapter@D@__crt_stdio_output@@@2@@__crt_stdio_output@@CAPEA_WXZ 000000018007e410 f i libucrtd:output.obj
 0001:0007d420       ?wide_null_string@?$output_processor@DV?$string_output_adapter@D@__crt_stdio_output@@V?$format_validation_base@DV?$string_output_adapter@D@__crt_stdio_output@@@2@@__crt_stdio_output@@CAPEA_WXZ 000000018007e420 f i libucrtd:output.obj
 0001:0007d430       ?wide_null_string@?$output_processor@DV?$string_output_adapter@D@__crt_stdio_output@@V?$positional_parameter_base@DV?$string_output_adapter@D@__crt_stdio_output@@@2@@__crt_stdio_output@@CAPEA_WXZ 000000018007e430 f i libucrtd:output.obj
 0001:0007d440       ?wide_null_string@?$output_processor@DV?$string_output_adapter@D@__crt_stdio_output@@V?$standard_base@DV?$string_output_adapter@D@__crt_stdio_output@@@2@@__crt_stdio_output@@CAPEA_WXZ 000000018007e440 f i libucrtd:output.obj
 0001:0007d450       ?wide_null_string@?$output_processor@_WV?$stream_output_adapter@_W@__crt_stdio_output@@V?$format_validation_base@_WV?$stream_output_adapter@_W@__crt_stdio_output@@@2@@__crt_stdio_output@@CAPEA_WXZ 000000018007e450 f i libucrtd:output.obj
 0001:0007d460       ?wide_null_string@?$output_processor@_WV?$stream_output_adapter@_W@__crt_stdio_output@@V?$positional_parameter_base@_WV?$stream_output_adapter@_W@__crt_stdio_output@@@2@@__crt_stdio_output@@CAPEA_WXZ 000000018007e460 f i libucrtd:output.obj
 0001:0007d470       ?wide_null_string@?$output_processor@_WV?$stream_output_adapter@_W@__crt_stdio_output@@V?$standard_base@_WV?$stream_output_adapter@_W@__crt_stdio_output@@@2@@__crt_stdio_output@@CAPEA_WXZ 000000018007e470 f i libucrtd:output.obj
 0001:0007d480       ?wide_null_string@?$output_processor@_WV?$string_output_adapter@_W@__crt_stdio_output@@V?$format_validation_base@_WV?$string_output_adapter@_W@__crt_stdio_output@@@2@@__crt_stdio_output@@CAPEA_WXZ 000000018007e480 f i libucrtd:output.obj
 0001:0007d490       ?wide_null_string@?$output_processor@_WV?$string_output_adapter@_W@__crt_stdio_output@@V?$positional_parameter_base@_WV?$string_output_adapter@_W@__crt_stdio_output@@@2@@__crt_stdio_output@@CAPEA_WXZ 000000018007e490 f i libucrtd:output.obj
 0001:0007d4a0       ?wide_null_string@?$output_processor@_WV?$string_output_adapter@_W@__crt_stdio_output@@V?$standard_base@_WV?$string_output_adapter@_W@__crt_stdio_output@@@2@@__crt_stdio_output@@CAPEA_WXZ 000000018007e4a0 f i libucrtd:output.obj
 0001:0007d4b0       ?write_character@?$stream_output_adapter@D@__crt_stdio_output@@QEBAXDQEAH@Z 000000018007e4b0 f i libucrtd:output.obj
 0001:0007d550       ?write_character@?$stream_output_adapter@_W@__crt_stdio_output@@QEBAX_WQEAH@Z 000000018007e550 f i libucrtd:output.obj
 0001:0007d5f0       ?write_character@?$string_output_adapter@D@__crt_stdio_output@@QEBA_NDQEAH@Z 000000018007e5f0 f i libucrtd:output.obj
 0001:0007d6b0       ?write_character@?$string_output_adapter@_W@__crt_stdio_output@@QEBA_N_WQEAH@Z 000000018007e6b0 f i libucrtd:output.obj
 0001:0007d770       ?write_stored_string_tchar@?$output_processor@DV?$stream_output_adapter@D@__crt_stdio_output@@V?$format_validation_base@DV?$stream_output_adapter@D@__crt_stdio_output@@@2@@__crt_stdio_output@@AEAA_ND@Z 000000018007e770 f i libucrtd:output.obj
 0001:0007d8d0       ?write_stored_string_tchar@?$output_processor@DV?$stream_output_adapter@D@__crt_stdio_output@@V?$positional_parameter_base@DV?$stream_output_adapter@D@__crt_stdio_output@@@2@@__crt_stdio_output@@AEAA_ND@Z 000000018007e8d0 f i libucrtd:output.obj
 0001:0007da30       ?write_stored_string_tchar@?$output_processor@DV?$stream_output_adapter@D@__crt_stdio_output@@V?$standard_base@DV?$stream_output_adapter@D@__crt_stdio_output@@@2@@__crt_stdio_output@@AEAA_ND@Z 000000018007ea30 f i libucrtd:output.obj
 0001:0007db90       ?write_stored_string_tchar@?$output_processor@DV?$string_output_adapter@D@__crt_stdio_output@@V?$format_validation_base@DV?$string_output_adapter@D@__crt_stdio_output@@@2@@__crt_stdio_output@@AEAA_ND@Z 000000018007eb90 f i libucrtd:output.obj
 0001:0007dcf0       ?write_stored_string_tchar@?$output_processor@DV?$string_output_adapter@D@__crt_stdio_output@@V?$positional_parameter_base@DV?$string_output_adapter@D@__crt_stdio_output@@@2@@__crt_stdio_output@@AEAA_ND@Z 000000018007ecf0 f i libucrtd:output.obj
 0001:0007de50       ?write_stored_string_tchar@?$output_processor@DV?$string_output_adapter@D@__crt_stdio_output@@V?$standard_base@DV?$string_output_adapter@D@__crt_stdio_output@@@2@@__crt_stdio_output@@AEAA_ND@Z 000000018007ee50 f i libucrtd:output.obj
 0001:0007dfb0       ?write_stored_string_tchar@?$output_processor@_WV?$stream_output_adapter@_W@__crt_stdio_output@@V?$format_validation_base@_WV?$stream_output_adapter@_W@__crt_stdio_output@@@2@@__crt_stdio_output@@AEAA_N_W@Z 000000018007efb0 f i libucrtd:output.obj
 0001:0007e0f0       ?write_stored_string_tchar@?$output_processor@_WV?$stream_output_adapter@_W@__crt_stdio_output@@V?$positional_parameter_base@_WV?$stream_output_adapter@_W@__crt_stdio_output@@@2@@__crt_stdio_output@@AEAA_N_W@Z 000000018007f0f0 f i libucrtd:output.obj
 0001:0007e230       ?write_stored_string_tchar@?$output_processor@_WV?$stream_output_adapter@_W@__crt_stdio_output@@V?$standard_base@_WV?$stream_output_adapter@_W@__crt_stdio_output@@@2@@__crt_stdio_output@@AEAA_N_W@Z 000000018007f230 f i libucrtd:output.obj
 0001:0007e370       ?write_stored_string_tchar@?$output_processor@_WV?$string_output_adapter@_W@__crt_stdio_output@@V?$format_validation_base@_WV?$string_output_adapter@_W@__crt_stdio_output@@@2@@__crt_stdio_output@@AEAA_N_W@Z 000000018007f370 f i libucrtd:output.obj
 0001:0007e4b0       ?write_stored_string_tchar@?$output_processor@_WV?$string_output_adapter@_W@__crt_stdio_output@@V?$positional_parameter_base@_WV?$string_output_adapter@_W@__crt_stdio_output@@@2@@__crt_stdio_output@@AEAA_N_W@Z 000000018007f4b0 f i libucrtd:output.obj
 0001:0007e5f0       ?write_stored_string_tchar@?$output_processor@_WV?$string_output_adapter@_W@__crt_stdio_output@@V?$standard_base@_WV?$string_output_adapter@_W@__crt_stdio_output@@@2@@__crt_stdio_output@@AEAA_N_W@Z 000000018007f5f0 f i libucrtd:output.obj
 0001:0007e730       ?write_string@?$stream_output_adapter@D@__crt_stdio_output@@QEBAXQEBDHQEAH1@Z 000000018007f730 f i libucrtd:output.obj
 0001:0007e830       ?write_string@?$stream_output_adapter@_W@__crt_stdio_output@@QEBAXQEB_WHQEAH1@Z 000000018007f830 f i libucrtd:output.obj
 0001:0007e930       ?write_string@?$string_output_adapter@D@__crt_stdio_output@@QEBAXQEBDHQEAH1@Z 000000018007f930 f i libucrtd:output.obj
 0001:0007eab0       ?write_string@?$string_output_adapter@_W@__crt_stdio_output@@QEBAXQEB_WHQEAH1@Z 000000018007fab0 f i libucrtd:output.obj
 0001:0007ec40       __acrt_isleadbyte_l_noupdate 000000018007fc40 f i libucrtd:output.obj
 0001:0007ec70       __acrt_locale_changed      000000018007fc70 f i libucrtd:output.obj
 0001:0007eca0       __stdio_common_vfprintf    000000018007fca0 f   libucrtd:output.obj
 0001:0007ece0       __stdio_common_vfprintf_p  000000018007fce0 f   libucrtd:output.obj
 0001:0007ed20       __stdio_common_vfprintf_s  000000018007fd20 f   libucrtd:output.obj
 0001:0007ed60       __stdio_common_vfwprintf   000000018007fd60 f   libucrtd:output.obj
 0001:0007eda0       __stdio_common_vfwprintf_p 000000018007fda0 f   libucrtd:output.obj
 0001:0007ede0       __stdio_common_vfwprintf_s 000000018007fde0 f   libucrtd:output.obj
 0001:0007ee20       __stdio_common_vsnprintf_s 000000018007fe20 f   libucrtd:output.obj
 0001:0007ee80       __stdio_common_vsnwprintf_s 000000018007fe80 f   libucrtd:output.obj
 0001:0007eee0       __stdio_common_vsprintf    000000018007fee0 f   libucrtd:output.obj
 0001:0007ef30       __stdio_common_vsprintf_p  000000018007ff30 f   libucrtd:output.obj
 0001:0007ef80       __stdio_common_vsprintf_s  000000018007ff80 f   libucrtd:output.obj
 0001:0007efd0       __stdio_common_vswprintf   000000018007ffd0 f   libucrtd:output.obj
 0001:0007f020       __stdio_common_vswprintf_p 0000000180080020 f   libucrtd:output.obj
 0001:0007f070       __stdio_common_vswprintf_s 0000000180080070 f   libucrtd:output.obj
 0001:0007f0c0       free                       00000001800800c0 f   libucrtd:free.obj
 0001:0007f0e0       malloc                     00000001800800e0 f   libucrtd:malloc.obj
 0001:0007f110       ??$?RU?$__crt_report_hook_node@D@@@__crt_internal_free_policy@@QEBAXQEBU?$__crt_report_hook_node@D@@@Z 0000000180080110 f i libucrtd:dbgrpt.obj
 0001:0007f140       ??$?RU?$__crt_report_hook_node@_W@@@__crt_internal_free_policy@@QEBAXQEBU?$__crt_report_hook_node@_W@@@Z 0000000180080140 f i libucrtd:dbgrpt.obj
 0001:0007f170       ??$?RV<lambda_48a95ab302c68b6787c202ce7b2428f2>@@AEAV<lambda_be7e00bcb36969a0670e3c91fd6c4917>@@V<lambda_95ad94005304955f3afd56db85f2c0f0>@@@?$__crt_seh_guarded_call@H@@QEAAH$$QEAV<lambda_48a95ab302c68b6787c202ce7b2428f2>@@AEAV<lambda_be7e00bcb36969a0670e3c91fd6c4917>@@$$QEAV<lambda_95ad94005304955f3afd56db85f2c0f0>@@@Z 0000000180080170 f i libucrtd:dbgrpt.obj
 0001:0007f1c0       ??$?RV<lambda_af6322564f367be6e210c9b3b377439e>@@AEAV<lambda_ade3d750d30aed7d611b25c09e4cbaa9>@@V<lambda_f1c030d06c6692bdc9654ba3f7602b04>@@@?$__crt_seh_guarded_call@H@@QEAAH$$QEAV<lambda_af6322564f367be6e210c9b3b377439e>@@AEAV<lambda_ade3d750d30aed7d611b25c09e4cbaa9>@@$$QEAV<lambda_f1c030d06c6692bdc9654ba3f7602b04>@@@Z 00000001800801c0 f i libucrtd:dbgrpt.obj
 0001:0007f210       ??$__acrt_lock_and_call@V<lambda_ade3d750d30aed7d611b25c09e4cbaa9>@@@@YAHW4__acrt_lock_id@@$$QEAV<lambda_ade3d750d30aed7d611b25c09e4cbaa9>@@@Z 0000000180080210 f i libucrtd:dbgrpt.obj
 0001:0007f280       ??$__acrt_lock_and_call@V<lambda_be7e00bcb36969a0670e3c91fd6c4917>@@@@YAHW4__acrt_lock_id@@$$QEAV<lambda_be7e00bcb36969a0670e3c91fd6c4917>@@@Z 0000000180080280 f i libucrtd:dbgrpt.obj
 0001:0007f2f0       ??$__vcrt_va_start_verify_argument_type@QEBD@@YAXXZ 00000001800802f0 f i libucrtd:dbgrpt.obj
 0001:0007f300       ??$__vcrt_va_start_verify_argument_type@QEB_W@@YAXXZ 0000000180080300 f i libucrtd:dbgrpt.obj
 0001:000803a0       ??$get_module_file_name@AEAPEAUHINSTANCE__@@AEAY0BAF@DK@?$__crt_char_traits@D@@SAKAEAPEAUHINSTANCE__@@AEAY0BAF@D$$QEAK@Z 00000001800813a0 f i libucrtd:dbgrpt.obj
 0001:000803e0       ??$get_module_file_name@AEAPEAUHINSTANCE__@@AEAY0BAF@_WK@?$__crt_char_traits@_W@@SAKAEAPEAUHINSTANCE__@@AEAY0BAF@_W$$QEAK@Z 00000001800813e0 f i libucrtd:dbgrpt.obj
 0001:00080420       ??$tcscpy_s@AEAY0BAF@D_KPEBD@?$__crt_char_traits@D@@SAHAEAY0BAF@D$$QEA_K$$QEAPEBD@Z 0000000180081420 f i libucrtd:dbgrpt.obj
 0001:00080460       ??$tcscpy_s@AEAY0BAF@_W_KPEB_W@?$__crt_char_traits@_W@@SAHAEAY0BAF@_W$$QEA_K$$QEAPEB_W@Z 0000000180081460 f i libucrtd:dbgrpt.obj
 0001:000804a0       ??$tcslen@AEAY0BAF@D@?$__crt_char_traits@D@@SA_KAEAY0BAF@D@Z 00000001800814a0 f i libucrtd:dbgrpt.obj
 0001:000804c0       ??$tcslen@AEAY0BAF@_W@?$__crt_char_traits@_W@@SA_KAEAY0BAF@_W@Z 00000001800814c0 f i libucrtd:dbgrpt.obj
 0001:000804e0       ??$tcslen@AEBQEBD@?$__crt_char_traits@D@@SA_KAEBQEBD@Z 00000001800814e0 f i libucrtd:dbgrpt.obj
 0001:00080500       ??$tcslen@AEBQEB_W@?$__crt_char_traits@_W@@SA_KAEBQEB_W@Z 0000000180081500 f i libucrtd:dbgrpt.obj
 0001:00080600       ??0?$__crt_unique_heap_ptr@U?$__crt_report_hook_node@D@@U__crt_internal_free_policy@@@@QEAA@QEAU?$__crt_report_hook_node@D@@@Z 0000000180081600 f i libucrtd:dbgrpt.obj
 0001:00080620       ??0?$__crt_unique_heap_ptr@U?$__crt_report_hook_node@_W@@U__crt_internal_free_policy@@@@QEAA@QEAU?$__crt_report_hook_node@_W@@@Z 0000000180081620 f i libucrtd:dbgrpt.obj
 0001:00080640       ??1?$__crt_unique_heap_ptr@U?$__crt_report_hook_node@D@@U__crt_internal_free_policy@@@@QEAA@XZ 0000000180081640 f i libucrtd:dbgrpt.obj
 0001:00080660       ??1?$__crt_unique_heap_ptr@U?$__crt_report_hook_node@_W@@U__crt_internal_free_policy@@@@QEAA@XZ 0000000180081660 f i libucrtd:dbgrpt.obj
 0001:00080680       ??B?$__crt_unique_heap_ptr@U?$__crt_report_hook_node@D@@U__crt_internal_free_policy@@@@QEBA_NXZ 0000000180081680 f i libucrtd:dbgrpt.obj
 0001:000806a0       ??B?$__crt_unique_heap_ptr@U?$__crt_report_hook_node@_W@@U__crt_internal_free_policy@@@@QEBA_NXZ 00000001800816a0 f i libucrtd:dbgrpt.obj
 0001:00080d80       ?detach@?$__crt_unique_heap_ptr@U?$__crt_report_hook_node@D@@U__crt_internal_free_policy@@@@QEAAPEAU?$__crt_report_hook_node@D@@XZ 0000000180081d80 f i libucrtd:dbgrpt.obj
 0001:00080db0       ?detach@?$__crt_unique_heap_ptr@U?$__crt_report_hook_node@_W@@U__crt_internal_free_policy@@@@QEAAPEAU?$__crt_report_hook_node@_W@@XZ 0000000180081db0 f i libucrtd:dbgrpt.obj
 0001:00080de0       ?get@?$__crt_unique_heap_ptr@U?$__crt_report_hook_node@D@@U__crt_internal_free_policy@@@@QEBAPEAU?$__crt_report_hook_node@D@@XZ 0000000180081de0 f i libucrtd:dbgrpt.obj
 0001:00080df0       ?get@?$__crt_unique_heap_ptr@U?$__crt_report_hook_node@_W@@U__crt_internal_free_policy@@@@QEBAPEAU?$__crt_report_hook_node@_W@@XZ 0000000180081df0 f i libucrtd:dbgrpt.obj
 0001:00080e60       ?is_valid@?$__crt_unique_heap_ptr@U?$__crt_report_hook_node@D@@U__crt_internal_free_policy@@@@QEBA_NXZ 0000000180081e60 f i libucrtd:dbgrpt.obj
 0001:00080e90       ?is_valid@?$__crt_unique_heap_ptr@U?$__crt_report_hook_node@_W@@U__crt_internal_free_policy@@@@QEBA_NXZ 0000000180081e90 f i libucrtd:dbgrpt.obj
 0001:00080ec0       ?release@?$__crt_unique_heap_ptr@U?$__crt_report_hook_node@D@@U__crt_internal_free_policy@@@@QEAAXXZ 0000000180081ec0 f i libucrtd:dbgrpt.obj
 0001:00080f00       ?release@?$__crt_unique_heap_ptr@U?$__crt_report_hook_node@_W@@U__crt_internal_free_policy@@@@QEAAXXZ 0000000180081f00 f i libucrtd:dbgrpt.obj
 0001:00080f40       _CrtDbgReport              0000000180081f40 f   libucrtd:dbgrpt.obj
 0001:00080fc0       _CrtDbgReportW             0000000180081fc0 f   libucrtd:dbgrpt.obj
 0001:00081040       _CrtSetReportHook2         0000000180082040 f   libucrtd:dbgrpt.obj
 0001:00081060       _CrtSetReportHookW2        0000000180082060 f   libucrtd:dbgrpt.obj
 0001:00081080       __acrt_MessageWindowA      0000000180082080 f   libucrtd:dbgrpt.obj
 0001:000810d0       __acrt_MessageWindowW      00000001800820d0 f   libucrtd:dbgrpt.obj
 0001:00081120       _invoke_watson_if_error    0000000180082120 f i libucrtd:dbgrpt.obj
 0001:00081170       _invoke_watson_if_oneof    0000000180082170 f i libucrtd:dbgrpt.obj
 0001:000811d0       _snwprintf_s               00000001800821d0 f i libucrtd:dbgrpt.obj
 0001:00081240       _vsnwprintf_s_l            0000000180082240 f i libucrtd:dbgrpt.obj
 0001:000817a0       wcscpy_s                   00000001800827a0 f   libucrtd:wcscpy_s.obj
 0001:000817d0       wcslen                     00000001800827d0 f   libucrtd:wcslen.obj
 0001:00081820       ??$__crt_fast_decode_pointer@P6AXPEB_W00I_K@Z@@YAP6AXPEB_W00I_K@ZQ6AX000I1@Z@Z 0000000180082820 f i libucrtd:invalid_parameter.obj
 0001:00081860       ??$__crt_fast_encode_pointer@P6AXPEB_W00I_K@Z@@YAP6AXPEB_W00I_K@ZQ6AX000I1@Z@Z 0000000180082860 f i libucrtd:invalid_parameter.obj
 0001:00081940       ?get_current_state_index@__crt_state_management@@YA_KXZ 0000000180082940 f i libucrtd:invalid_parameter.obj
 0001:00081950       ?initialize@?$dual_state_global@P6AXPEB_W00I_K@Z@__crt_state_management@@QEAAXQ6AXPEB_W00I_K@Z@Z 0000000180082950 f i libucrtd:invalid_parameter.obj
 0001:000819a0       ?value@?$dual_state_global@P6AXPEB_W00I_K@Z@__crt_state_management@@QEAAAEAP6AXPEB_W00I_K@ZXZ 00000001800829a0 f i libucrtd:invalid_parameter.obj
 0001:000819c0       __acrt_call_reportfault    00000001800829c0 f   libucrtd:invalid_parameter.obj
 0001:00081af0       __acrt_initialize_invalid_parameter_handler 0000000180082af0 f   libucrtd:invalid_parameter.obj
 0001:00081b10       _get_invalid_parameter_handler 0000000180082b10 f   libucrtd:invalid_parameter.obj
 0001:00081b30       _get_thread_local_invalid_parameter_handler 0000000180082b30 f   libucrtd:invalid_parameter.obj
 0001:00081b60       _invalid_parameter         0000000180082b60 f   libucrtd:invalid_parameter.obj
 0001:00081c70       _invalid_parameter_noinfo  0000000180082c70 f   libucrtd:invalid_parameter.obj
 0001:00081ca0       _invalid_parameter_noinfo_noreturn 0000000180082ca0 f   libucrtd:invalid_parameter.obj
 0001:00081ce0       _invoke_watson             0000000180082ce0 f   libucrtd:invalid_parameter.obj
 0001:00081d40       _set_invalid_parameter_handler 0000000180082d40 f   libucrtd:invalid_parameter.obj
 0001:00081d90       _set_thread_local_invalid_parameter_handler 0000000180082d90 f   libucrtd:invalid_parameter.obj
 0001:00081dd0       __acrt_errno_from_os_error 0000000180082dd0 f   libucrtd:errno.obj
 0001:00081e60       __acrt_errno_map_os_error  0000000180082e60 f   libucrtd:errno.obj
 0001:00081e90       __doserrno                 0000000180082e90 f   libucrtd:errno.obj
 0001:00081ec0       _errno                     0000000180082ec0 f   libucrtd:errno.obj
 0001:00081ef0       _get_doserrno              0000000180082ef0 f   libucrtd:errno.obj
 0001:00081fb0       _get_errno                 0000000180082fb0 f   libucrtd:errno.obj
 0001:00082070       _set_doserrno              0000000180083070 f   libucrtd:errno.obj
 0001:000820b0       _set_errno                 00000001800830b0 f   libucrtd:errno.obj
 0001:000820f0       calloc                     00000001800830f0 f   libucrtd:calloc.obj
 0001:00082130       _recalloc                  0000000180083130 f   libucrtd:recalloc.obj
 0001:00082180       _recalloc_base             0000000180083180 f   libucrtd:recalloc.obj
 0001:0008225c       _resetstkoflw              000000018008325c f   libucrtd:resetstk.obj
 0001:00082a00       wcscat_s                   0000000180083a00 f   libucrtd:wcscat_s.obj
 0001:000830c0       wcsncpy_s                  00000001800840c0 f   libucrtd:wcsncpy_s.obj
 0001:00083120       __acrt_get_locale_data_prefix 0000000180084120 f i libucrtd:_ctype.obj
 0001:00083140       __isascii                  0000000180084140 f i libucrtd:_ctype.obj
 0001:00083170       __iscsym                   0000000180084170 f i libucrtd:_ctype.obj
 0001:000831b0       __iscsymf                  00000001800841b0 f i libucrtd:_ctype.obj
 0001:000831f0       __toascii                  00000001800841f0 f i libucrtd:_ctype.obj
 0001:00083200       _chvalidchk_l              0000000180084200 f i libucrtd:_ctype.obj
 0001:00083230       _isalnum_l                 0000000180084230 f i libucrtd:_ctype.obj
 0001:00083280       _isalpha_l                 0000000180084280 f i libucrtd:_ctype.obj
 0001:000832d0       _isblank_l                 00000001800842d0 f i libucrtd:_ctype.obj
 0001:00083340       _ischartype_l              0000000180084340 f i libucrtd:_ctype.obj
 0001:000833a0       _iscntrl_l                 00000001800843a0 f i libucrtd:_ctype.obj
 0001:000833f0       _iscsym_l                  00000001800843f0 f i libucrtd:_ctype.obj
 0001:00083440       _iscsymf_l                 0000000180084440 f i libucrtd:_ctype.obj
 0001:00083490       _isdigit_l                 0000000180084490 f i libucrtd:_ctype.obj
 0001:000834e0       _isgraph_l                 00000001800844e0 f i libucrtd:_ctype.obj
 0001:00083530       _islower_l                 0000000180084530 f i libucrtd:_ctype.obj
 0001:00083580       _isprint_l                 0000000180084580 f i libucrtd:_ctype.obj
 0001:000835d0       _ispunct_l                 00000001800845d0 f i libucrtd:_ctype.obj
 0001:00083620       _isspace_l                 0000000180084620 f i libucrtd:_ctype.obj
 0001:00083670       _isupper_l                 0000000180084670 f i libucrtd:_ctype.obj
 0001:000836c0       _isxdigit_l                00000001800846c0 f i libucrtd:_ctype.obj
 0001:00083710       isalnum                    0000000180084710 f i libucrtd:_ctype.obj
 0001:00083750       isalpha                    0000000180084750 f i libucrtd:_ctype.obj
 0001:00083790       isblank                    0000000180084790 f i libucrtd:_ctype.obj
 0001:000837f0       iscntrl                    00000001800847f0 f i libucrtd:_ctype.obj
 0001:00083830       isdigit                    0000000180084830 f i libucrtd:_ctype.obj
 0001:00083870       isgraph                    0000000180084870 f i libucrtd:_ctype.obj
 0001:000838b0       islower                    00000001800848b0 f i libucrtd:_ctype.obj
 0001:000838f0       isprint                    00000001800848f0 f i libucrtd:_ctype.obj
 0001:00083930       ispunct                    0000000180084930 f i libucrtd:_ctype.obj
 0001:00083970       isspace                    0000000180084970 f i libucrtd:_ctype.obj
 0001:000839b0       isupper                    00000001800849b0 f i libucrtd:_ctype.obj
 0001:000839f0       isxdigit                   00000001800849f0 f i libucrtd:_ctype.obj
 0001:00083a30       wcscat                     0000000180084a30 f   libucrtd:wcscat.obj
 0001:00083ab0       wcscpy                     0000000180084ab0 f   libucrtd:wcscpy.obj
 0001:00084260       ??$open_file@AEBQEBDAEBQEBDAEBHPEAU_iobuf@@@?$__crt_char_traits@D@@SAPEAU_iobuf@@AEBQEBD0AEBH$$QEAPEAU1@@Z 0000000180085260 f i libucrtd:fopen.obj
 0001:000842b0       ??$open_file@AEBQEB_WAEBQEB_WAEBHPEAU_iobuf@@@?$__crt_char_traits@_W@@SAPEAU_iobuf@@AEBQEB_W0AEBH$$QEAPEAU1@@Z 00000001800852b0 f i libucrtd:fopen.obj
 0001:00084300       ?unlock@__crt_stdio_stream@@QEBAXXZ 0000000180085300 f i libucrtd:fopen.obj
 0001:00084320       _fsopen                    0000000180085320 f   libucrtd:fopen.obj
 0001:00084350       _wfopen                    0000000180085350 f   libucrtd:fopen.obj
 0001:00084380       _wfopen_s                  0000000180085380 f   libucrtd:fopen.obj
 0001:000843b0       _wfsopen                   00000001800853b0 f   libucrtd:fopen.obj
 0001:000843e0       fopen                      00000001800853e0 f   libucrtd:fopen.obj
 0001:00084410       fopen_s                    0000000180085410 f   libucrtd:fopen.obj
 0001:00084440       ?is_in_use@__crt_stdio_stream@@QEBA_NXZ 0000000180085440 f i libucrtd:fclose.obj
 0001:00084480       _fclose_nolock             0000000180085480 f   libucrtd:fclose.obj
 0001:00084610       fclose                     0000000180085610 f   libucrtd:fclose.obj
 0001:00084750       _fputc_nolock              0000000180085750 f   libucrtd:fputc.obj
 0001:00084800       _fputchar                  0000000180085800 f   libucrtd:fputc.obj
 0001:00084830       _putc_nolock               0000000180085830 f   libucrtd:fputc.obj
 0001:00084850       fputc                      0000000180085850 f   libucrtd:fputc.obj
 0001:00084af0       putc                       0000000180085af0 f   libucrtd:fputc.obj
 0001:00084b10       putchar                    0000000180085b10 f   libucrtd:fputc.obj
 0001:00084ba0       _seh_filter_dll            0000000180085ba0 f   libucrtd:exception_filter.obj
 0001:00084bd0       _seh_filter_exe            0000000180085bd0 f   libucrtd:exception_filter.obj
 0001:00084e80       ??$?B$$A6AXPEAXK0@Z@__crt_fast_encoded_nullptr_t@@QEBAP6AXPEAXK0@ZXZ 0000000180085e80 f i libucrtd:exit.obj
 0001:00084ea0       ??$__crt_fast_decode_pointer@P6AXPEAXK0@Z@@YAP6AXPEAXK0@ZQ6AX0K0@Z@Z 0000000180085ea0 f i libucrtd:exit.obj
 0001:00084ee0       ??$__crt_fast_encode_pointer@P6AXPEAXK0@Z@@YAP6AXPEAXK0@ZQ6AX0K0@Z@Z 0000000180085ee0 f i libucrtd:exit.obj
 0001:00084f20       ??$__crt_get_proc_address@P6AXI@Z@@YAP6AXI@ZQEAUHINSTANCE__@@QEBD@Z 0000000180085f20 f i libucrtd:exit.obj
 0001:00084f50       ??0?$__crt_unique_handle_t@U__crt_hmodule_traits@@@@QEAA@QEAUHINSTANCE__@@@Z 0000000180085f50 f i libucrtd:exit.obj
 0001:00084f70       ??1?$__crt_unique_handle_t@U__crt_hmodule_traits@@@@QEAA@XZ 0000000180085f70 f i libucrtd:exit.obj
 0001:00084fb0       ?close@?$__crt_unique_handle_t@U__crt_hmodule_traits@@@@QEAAXXZ 0000000180085fb0 f i libucrtd:exit.obj
 0001:00084ff0       ?close@__crt_hmodule_traits@@SA_NPEAUHINSTANCE__@@@Z 0000000180085ff0 f i libucrtd:exit.obj
 0001:000851c0       ?get@?$__crt_unique_handle_t@U__crt_hmodule_traits@@@@QEBAPEAUHINSTANCE__@@XZ 00000001800861c0 f i libucrtd:exit.obj
 0001:000851d0       ?get_address_of@?$__crt_unique_handle_t@U__crt_hmodule_traits@@@@QEAAPEAPEAUHINSTANCE__@@XZ 00000001800861d0 f i libucrtd:exit.obj
 0001:000851e0       ?get_invalid_value@__crt_hmodule_traits@@SAPEAUHINSTANCE__@@XZ 00000001800861e0 f i libucrtd:exit.obj
 0001:000853b0       _Exit                      00000001800863b0 f   libucrtd:exit.obj
 0001:000853d0       __acrt_initialize_thread_local_exit_callback 00000001800863d0 f   libucrtd:exit.obj
 0001:000853f0       _c_exit                    00000001800863f0 f   libucrtd:exit.obj
 0001:00085410       _cexit                     0000000180086410 f   libucrtd:exit.obj
 0001:00085430       _exit                      0000000180086430 f   libucrtd:exit.obj
 0001:00085450       _is_c_termination_complete 0000000180086450 f   libucrtd:exit.obj
 0001:00085470       _register_thread_local_exe_atexit_callback 0000000180086470 f   libucrtd:exit.obj
 0001:000854c0       exit                       00000001800864c0 f   libucrtd:exit.obj
 0001:000854e0       quick_exit                 00000001800864e0 f   libucrtd:exit.obj
 0001:00085500       ??$?RE@__crt_internal_free_policy@@QEBAXQEBE@Z 0000000180086500 f i libucrtd:argv_parsing.obj
 0001:00085530       ??$?RPEAD@__crt_internal_free_policy@@QEBAXQEBQEAD@Z 0000000180086530 f i libucrtd:argv_parsing.obj
 0001:00085560       ??$?RPEA_W@__crt_internal_free_policy@@QEBAXQEBQEA_W@Z 0000000180086560 f i libucrtd:argv_parsing.obj
 0001:00085c90       ??$get_module_file_name@$$TAEAY0BAF@DH@?$__crt_char_traits@D@@SAK$$QEA$$TAEAY0BAF@D$$QEAH@Z 0000000180086c90 f i libucrtd:argv_parsing.obj
 0001:00085cd0       ??$get_module_file_name@$$TAEAY0BAF@_WH@?$__crt_char_traits@_W@@SAK$$QEA$$TAEAY0BAF@_W$$QEAH@Z 0000000180086cd0 f i libucrtd:argv_parsing.obj
 0001:00086680       ??$set_program_name@PEAD@?$__crt_char_traits@D@@SAX$$QEAPEAD@Z 0000000180087680 f i libucrtd:argv_parsing.obj
 0001:000866a0       ??$set_program_name@PEA_W@?$__crt_char_traits@_W@@SAX$$QEAPEA_W@Z 00000001800876a0 f i libucrtd:argv_parsing.obj
 0001:00086700       ??0?$__crt_unique_heap_ptr@EU__crt_internal_free_policy@@@@QEAA@QEAE@Z 0000000180087700 f i libucrtd:argv_parsing.obj
 0001:00086720       ??0?$__crt_unique_heap_ptr@PEADU__crt_internal_free_policy@@@@QEAA@QEAPEAD@Z 0000000180087720 f i libucrtd:argv_parsing.obj
 0001:00086740       ??0?$__crt_unique_heap_ptr@PEA_WU__crt_internal_free_policy@@@@QEAA@QEAPEA_W@Z 0000000180087740 f i libucrtd:argv_parsing.obj
 0001:00086760       ??1?$__crt_unique_heap_ptr@EU__crt_internal_free_policy@@@@QEAA@XZ 0000000180087760 f i libucrtd:argv_parsing.obj
 0001:00086780       ??1?$__crt_unique_heap_ptr@PEADU__crt_internal_free_policy@@@@QEAA@XZ 0000000180087780 f i libucrtd:argv_parsing.obj
 0001:000867a0       ??1?$__crt_unique_heap_ptr@PEA_WU__crt_internal_free_policy@@@@QEAA@XZ 00000001800877a0 f i libucrtd:argv_parsing.obj
 0001:000867c0       ??B?$__crt_unique_heap_ptr@EU__crt_internal_free_policy@@@@QEBA_NXZ 00000001800877c0 f i libucrtd:argv_parsing.obj
 0001:000868a0       ?detach@?$__crt_unique_heap_ptr@EU__crt_internal_free_policy@@@@QEAAPEAEXZ 00000001800878a0 f i libucrtd:argv_parsing.obj
 0001:000868d0       ?detach@?$__crt_unique_heap_ptr@PEADU__crt_internal_free_policy@@@@QEAAPEAPEADXZ 00000001800878d0 f i libucrtd:argv_parsing.obj
 0001:00086900       ?detach@?$__crt_unique_heap_ptr@PEA_WU__crt_internal_free_policy@@@@QEAAPEAPEA_WXZ 0000000180087900 f i libucrtd:argv_parsing.obj
 0001:000869c0       ?get@?$__crt_unique_heap_ptr@EU__crt_internal_free_policy@@@@QEBAPEAEXZ 00000001800879c0 f i libucrtd:argv_parsing.obj
 0001:000869d0       ?get@?$__crt_unique_heap_ptr@PEADU__crt_internal_free_policy@@@@QEBAPEAPEADXZ 00000001800879d0 f i libucrtd:argv_parsing.obj
 0001:000869e0       ?get@?$__crt_unique_heap_ptr@PEA_WU__crt_internal_free_policy@@@@QEBAPEAPEA_WXZ 00000001800879e0 f i libucrtd:argv_parsing.obj
 0001:000869f0       ?get_address_of@?$__crt_unique_heap_ptr@PEADU__crt_internal_free_policy@@@@QEAAPEAPEAPEADXZ 00000001800879f0 f i libucrtd:argv_parsing.obj
 0001:00086a00       ?get_address_of@?$__crt_unique_heap_ptr@PEA_WU__crt_internal_free_policy@@@@QEAAPEAPEAPEA_WXZ 0000000180087a00 f i libucrtd:argv_parsing.obj
 0001:00086a50       ?is_valid@?$__crt_unique_heap_ptr@EU__crt_internal_free_policy@@@@QEBA_NXZ 0000000180087a50 f i libucrtd:argv_parsing.obj
 0001:00086a80       ?release@?$__crt_unique_heap_ptr@EU__crt_internal_free_policy@@@@QEAAXXZ 0000000180087a80 f i libucrtd:argv_parsing.obj
 0001:00086ac0       ?release@?$__crt_unique_heap_ptr@PEADU__crt_internal_free_policy@@@@QEAAXXZ 0000000180087ac0 f i libucrtd:argv_parsing.obj
 0001:00086b00       ?release@?$__crt_unique_heap_ptr@PEA_WU__crt_internal_free_policy@@@@QEAAXXZ 0000000180087b00 f i libucrtd:argv_parsing.obj
 0001:00086b90       __acrt_allocate_buffer_for_argv 0000000180087b90 f   libucrtd:argv_parsing.obj
 0001:00086cb0       _configure_narrow_argv     0000000180087cb0 f   libucrtd:argv_parsing.obj
 0001:00086cd0       _configure_wide_argv       0000000180087cd0 f   libucrtd:argv_parsing.obj
 0001:00086cf0       _set_pgmptr                0000000180087cf0 f i libucrtd:argv_parsing.obj
 0001:00086d10       _set_wpgmptr               0000000180087d10 f i libucrtd:argv_parsing.obj
 0001:00086d24       ??$?R_W@__crt_internal_free_policy@@QEBAXQEB_W@Z 0000000180087d24 f i libucrtd:environment_initialization.obj
 0001:00087288       ??$get_environment_from_os@$$$V@?$__crt_char_traits@D@@SAPEADXZ 0000000180088288 f i libucrtd:environment_initialization.obj
 0001:00087290       ??$get_environment_from_os@$$$V@?$__crt_char_traits@_W@@SAPEA_WXZ 0000000180088290 f i libucrtd:environment_initialization.obj
 0001:00087460       ??$set_variable_in_environment_nolock@PEADH@?$__crt_char_traits@D@@SAH$$QEAPEAD$$QEAH@Z 0000000180088460 f i libucrtd:environment_initialization.obj
 0001:0008746c       ??$set_variable_in_environment_nolock@PEA_WH@?$__crt_char_traits@_W@@SAH$$QEAPEA_W$$QEAH@Z 000000018008846c f i libucrtd:environment_initialization.obj
 0001:00087478       ??$tcscpy_s@PEADAEB_KAEAPEAD@?$__crt_char_traits@D@@SAH$$QEAPEADAEB_KAEAPEAD@Z 0000000180088478 f i libucrtd:environment_initialization.obj
 0001:00087488       ??$tcscpy_s@PEA_WAEB_KAEAPEA_W@?$__crt_char_traits@_W@@SAH$$QEAPEA_WAEB_KAEAPEA_W@Z 0000000180088488 f i libucrtd:environment_initialization.obj
 0001:00087498       ??$tcslen@AEAPEAD@?$__crt_char_traits@D@@SA_KAEAPEAD@Z 0000000180088498 f i libucrtd:environment_initialization.obj
 0001:000874ac       ??$tcslen@AEAPEA_W@?$__crt_char_traits@_W@@SA_KAEAPEA_W@Z 00000001800884ac f i libucrtd:environment_initialization.obj
 0001:000874c0       ??$uninitialize@A6AXAEAPEAPEAD@Z@?$dual_state_global@PEAPEAD@__crt_state_management@@QEAAXA6AXAEAPEAPEAD@Z@Z 00000001800884c0 f i libucrtd:environment_initialization.obj
 0001:00087508       ??$uninitialize@A6AXAEAPEAPEA_W@Z@?$dual_state_global@PEAPEA_W@__crt_state_management@@QEAAXA6AXAEAPEAPEA_W@Z@Z 0000000180088508 f i libucrtd:environment_initialization.obj
 0001:00087588       ??0?$__crt_unique_heap_ptr@_WU__crt_internal_free_policy@@@@QEAA@QEA_W@Z 0000000180088588 f i libucrtd:environment_initialization.obj
 0001:00087590       ??1?$__crt_unique_heap_ptr@_WU__crt_internal_free_policy@@@@QEAA@XZ 0000000180088590 f i libucrtd:environment_initialization.obj
 0001:000875b0       ??B?$__crt_unique_heap_ptr@PEADU__crt_internal_free_policy@@@@QEBA_NXZ 00000001800885b0 f i libucrtd:environment_initialization.obj
 0001:000875bc       ??B?$__crt_unique_heap_ptr@PEA_WU__crt_internal_free_policy@@@@QEBA_NXZ 00000001800885bc f i libucrtd:environment_initialization.obj
 0001:000875c8       ??B?$__crt_unique_heap_ptr@_WU__crt_internal_free_policy@@@@QEBA_NXZ 00000001800885c8 f i libucrtd:environment_initialization.obj
 0001:000875d4       ?__crt_compute_required_transform_buffer_count@@YA_KIQEBD@Z 00000001800885d4 f i libucrtd:environment_initialization.obj
 0001:000875fc       ?__crt_compute_required_transform_buffer_count@@YA_KIQEB_W@Z 00000001800885fc f i libucrtd:environment_initialization.obj
 0001:0008762c       ?__crt_transform_string@@YA_KIQEBDQEA_W_K@Z 000000018008862c f i libucrtd:environment_initialization.obj
 0001:00087650       ?__crt_transform_string@@YA_KIQEB_WQEAD_K@Z 0000000180088650 f i libucrtd:environment_initialization.obj
 0001:00087680       ?detach@?$__crt_unique_heap_ptr@DU__crt_internal_free_policy@@@@QEAAPEADXZ 0000000180088680 f i libucrtd:environment_initialization.obj
 0001:00087688       ?detach@?$__crt_unique_heap_ptr@_WU__crt_internal_free_policy@@@@QEAAPEA_WXZ 0000000180088688 f i libucrtd:environment_initialization.obj
 0001:00087690       ?get@?$__crt_unique_heap_ptr@_WU__crt_internal_free_policy@@@@QEBAPEA_WXZ 0000000180088690 f i libucrtd:environment_initialization.obj
 0001:000876c4       ?initialize@?$dual_state_global@PEAPEAD@__crt_state_management@@QEAAXQEAPEAD@Z 00000001800886c4 f i libucrtd:environment_initialization.obj
 0001:000876f8       ?initialize@?$dual_state_global@PEAPEA_W@__crt_state_management@@QEAAXQEAPEA_W@Z 00000001800886f8 f i libucrtd:environment_initialization.obj
 0001:0008772c       ?is_valid@?$__crt_unique_heap_ptr@PEADU__crt_internal_free_policy@@@@QEBA_NXZ 000000018008872c f i libucrtd:environment_initialization.obj
 0001:00087738       ?is_valid@?$__crt_unique_heap_ptr@PEA_WU__crt_internal_free_policy@@@@QEBA_NXZ 0000000180088738 f i libucrtd:environment_initialization.obj
 0001:00087744       ?is_valid@?$__crt_unique_heap_ptr@_WU__crt_internal_free_policy@@@@QEBA_NXZ 0000000180088744 f i libucrtd:environment_initialization.obj
 0001:0008775c       ?release@?$__crt_unique_heap_ptr@_WU__crt_internal_free_policy@@@@QEAAXXZ 000000018008875c f i libucrtd:environment_initialization.obj
 0001:0008777c       ?value@?$dual_state_global@PEAPEAD@__crt_state_management@@QEAAAEAPEAPEADXZ 000000018008877c f i libucrtd:environment_initialization.obj
 0001:00087780       ?value@?$dual_state_global@PEAPEA_W@__crt_state_management@@QEAAAEAPEAPEA_WXZ 0000000180088780 f i libucrtd:environment_initialization.obj
 0001:00087784       __dcrt_get_or_create_narrow_environment_nolock 0000000180088784 f   libucrtd:environment_initialization.obj
 0001:0008778c       __dcrt_get_or_create_wide_environment_nolock 000000018008878c f   libucrtd:environment_initialization.obj
 0001:00087794       __dcrt_uninitialize_environments_nolock 0000000180088794 f   libucrtd:environment_initialization.obj
 0001:000877cc       __p__environ               00000001800887cc f   libucrtd:environment_initialization.obj
 0001:000877d4       __p__wenviron              00000001800887d4 f   libucrtd:environment_initialization.obj
 0001:000877dc       _get_initial_narrow_environment 00000001800887dc f   libucrtd:environment_initialization.obj
 0001:00087800       _get_initial_wide_environment 0000000180088800 f   libucrtd:environment_initialization.obj
 0001:00087824       _initialize_narrow_environment 0000000180088824 f   libucrtd:environment_initialization.obj
 0001:0008782c       _initialize_wide_environment 000000018008882c f   libucrtd:environment_initialization.obj
 0001:00087840       ??$?BP6AXXZ@__crt_fast_encoded_nullptr_t@@QEBAPEAP6AXXZXZ 0000000180088840 f i libucrtd:onexit.obj
 0001:00087860       ??$?RP6AXXZ@__crt_internal_free_policy@@QEBAXQEBQ6AXXZ@Z 0000000180088860 f i libucrtd:onexit.obj
 0001:00087890       ??$?RV<lambda_b0d8f1f77f5878de4f648f281b223c15>@@AEAV<lambda_942beefa13ab35ff55f86422493ffd6a>@@V<lambda_7adb6fc9c0d6a5bd4e2d9c212ec7cdcc>@@@?$__crt_seh_guarded_call@H@@QEAAH$$QEAV<lambda_b0d8f1f77f5878de4f648f281b223c15>@@AEAV<lambda_942beefa13ab35ff55f86422493ffd6a>@@$$QEAV<lambda_7adb6fc9c0d6a5bd4e2d9c212ec7cdcc>@@@Z 0000000180088890 f i libucrtd:onexit.obj
 0001:000878e0       ??$?RV<lambda_d22e02de4d14401f49897516b29a2b7c>@@AEAV<lambda_e971338317bfa523bb8920b43d823727>@@V<lambda_b0b8599c9027f5b14541fbbd6863d1f1>@@@?$__crt_seh_guarded_call@H@@QEAAH$$QEAV<lambda_d22e02de4d14401f49897516b29a2b7c>@@AEAV<lambda_e971338317bfa523bb8920b43d823727>@@$$QEAV<lambda_b0b8599c9027f5b14541fbbd6863d1f1>@@@Z 00000001800888e0 f i libucrtd:onexit.obj
 0001:00087930       ??$__acrt_lock_and_call@V<lambda_942beefa13ab35ff55f86422493ffd6a>@@@@YAHW4__acrt_lock_id@@$$QEAV<lambda_942beefa13ab35ff55f86422493ffd6a>@@@Z 0000000180088930 f i libucrtd:onexit.obj
 0001:000879a0       ??$__acrt_lock_and_call@V<lambda_e971338317bfa523bb8920b43d823727>@@@@YAHW4__acrt_lock_id@@$$QEAV<lambda_e971338317bfa523bb8920b43d823727>@@@Z 00000001800889a0 f i libucrtd:onexit.obj
 0001:00087a10       ??$__crt_fast_encode_pointer@P6AHXZ@@YAP6AHXZQ6AHXZ@Z 0000000180088a10 f i libucrtd:onexit.obj
 0001:00087b20       ??0?$__crt_unique_heap_ptr@P6AXXZU__crt_internal_free_policy@@@@QEAA@QEAP6AXXZ@Z 0000000180088b20 f i libucrtd:onexit.obj
 0001:00087b40       ??1?$__crt_unique_heap_ptr@P6AXXZU__crt_internal_free_policy@@@@QEAA@XZ 0000000180088b40 f i libucrtd:onexit.obj
 0001:00088110       ?detach@?$__crt_unique_heap_ptr@P6AXXZU__crt_internal_free_policy@@@@QEAAPEAP6AXXZXZ 0000000180089110 f i libucrtd:onexit.obj
 0001:00088140       ?release@?$__crt_unique_heap_ptr@P6AXXZU__crt_internal_free_policy@@@@QEAAXXZ 0000000180089140 f i libucrtd:onexit.obj
 0001:00088180       _crt_at_quick_exit         0000000180089180 f   libucrtd:onexit.obj
 0001:000881a0       _crt_atexit                00000001800891a0 f   libucrtd:onexit.obj
 0001:000881c0       _execute_onexit_table      00000001800891c0 f   libucrtd:onexit.obj
 0001:000881f0       _initialize_onexit_table   00000001800891f0 f   libucrtd:onexit.obj
 0001:00088270       _register_onexit_function  0000000180089270 f   libucrtd:onexit.obj
 0001:000884f0       ?initialize@?$dual_state_global@PEAU__crt_locale_data@@@__crt_state_management@@QEAAXQEAU__crt_locale_data@@@Z 00000001800894f0 f i libucrtd:initialization.obj
 0001:00088540       __acrt_initialize          0000000180089540 f   libucrtd:initialization.obj
 0001:00088570       __acrt_thread_attach       0000000180089570 f   libucrtd:initialization.obj
 0001:00088590       __acrt_thread_detach       0000000180089590 f   libucrtd:initialization.obj
 0001:000885a0       __acrt_uninitialize        00000001800895a0 f   libucrtd:initialization.obj
 0001:000885d0       __acrt_uninitialize_critical 00000001800895d0 f   libucrtd:initialization.obj
 0001:0008a5d0       _CrtCheckMemory            000000018008b5d0 f   libucrtd:debug_heap.obj
 0001:0008a760       _CrtDoForAllClientObjects  000000018008b760 f   libucrtd:debug_heap.obj
 0001:0008a8a0       _CrtDumpMemoryLeaks        000000018008b8a0 f   libucrtd:debug_heap.obj
 0001:0008a960       _CrtGetAllocHook           000000018008b960 f   libucrtd:debug_heap.obj
 0001:0008a970       _CrtGetDumpClient          000000018008b970 f   libucrtd:debug_heap.obj
 0001:0008a980       _CrtIsMemoryBlock          000000018008b980 f   libucrtd:debug_heap.obj
 0001:0008aac0       _CrtIsValidHeapPointer     000000018008bac0 f   libucrtd:debug_heap.obj
 0001:0008ab00       _CrtIsValidPointer         000000018008bb00 f   libucrtd:debug_heap.obj
 0001:0008ab40       _CrtMemCheckpoint          000000018008bb40 f   libucrtd:debug_heap.obj
 0001:0008adc0       _CrtMemDifference          000000018008bdc0 f   libucrtd:debug_heap.obj
 0001:0008b120       _CrtMemDumpAllObjectsSince 000000018008c120 f   libucrtd:debug_heap.obj
 0001:0008b180       _CrtMemDumpStatistics      000000018008c180 f   libucrtd:debug_heap.obj
 0001:0008b310       _CrtReportBlockType        000000018008c310 f   libucrtd:debug_heap.obj
 0001:0008b340       _CrtSetAllocHook           000000018008c340 f   libucrtd:debug_heap.obj
 0001:0008b370       _CrtSetBreakAlloc          000000018008c370 f   libucrtd:debug_heap.obj
 0001:0008b3a0       _CrtSetDbgBlockType        000000018008c3a0 f   libucrtd:debug_heap.obj
 0001:0008b440       _CrtSetDbgFlag             000000018008c440 f   libucrtd:debug_heap.obj
 0001:0008b5a0       _CrtSetDumpClient          000000018008c5a0 f   libucrtd:debug_heap.obj
 0001:0008b5d0       __p__crtBreakAlloc         000000018008c5d0 f   libucrtd:debug_heap.obj
 0001:0008b5e0       __p__crtDbgFlag            000000018008c5e0 f   libucrtd:debug_heap.obj
 0001:0008b5f0       _aligned_free_dbg          000000018008c5f0 f   libucrtd:debug_heap.obj
 0001:0008b6e0       _aligned_malloc_dbg        000000018008c6e0 f   libucrtd:debug_heap.obj
 0001:0008b720       _aligned_msize_dbg         000000018008c720 f   libucrtd:debug_heap.obj
 0001:0008b8e0       _aligned_offset_malloc_dbg 000000018008c8e0 f   libucrtd:debug_heap.obj
 0001:0008bbd0       _aligned_offset_realloc_dbg 000000018008cbd0 f   libucrtd:debug_heap.obj
 0001:0008c080       _aligned_offset_recalloc_dbg 000000018008d080 f   libucrtd:debug_heap.obj
 0001:0008c1a0       _aligned_realloc_dbg       000000018008d1a0 f   libucrtd:debug_heap.obj
 0001:0008c1f0       _aligned_recalloc_dbg      000000018008d1f0 f   libucrtd:debug_heap.obj
 0001:0008c250       _calloc_dbg                000000018008d250 f   libucrtd:debug_heap.obj
 0001:0008c2f0       _expand_dbg                000000018008d2f0 f   libucrtd:debug_heap.obj
 0001:0008c420       _free_dbg                  000000018008d420 f   libucrtd:debug_heap.obj
 0001:0008c490       _malloc_dbg                000000018008d490 f   libucrtd:debug_heap.obj
 0001:0008c4d0       _msize_dbg                 000000018008d4d0 f   libucrtd:debug_heap.obj
 0001:0008c670       _realloc_dbg               000000018008d670 f   libucrtd:debug_heap.obj
 0001:0008c6e0       _recalloc_dbg              000000018008d6e0 f   libucrtd:debug_heap.obj
 0001:0008c7e0       _initterm                  000000018008d7e0 f   libucrtd:initterm.obj
 0001:0008c850       _initterm_e                000000018008d850 f   libucrtd:initterm.obj
 0001:0008cda0       strcpy_s                   000000018008dda0 f   libucrtd:strcpy_s.obj
 0001:0008d430       strcat_s                   000000018008e430 f   libucrtd:strcat_s.obj
 0001:0008d460       ??$?B$$A6AH_K@Z@__crt_fast_encoded_nullptr_t@@QEBAP6AH_K@ZXZ 000000018008e460 f i libucrtd:new_handler.obj
 0001:0008d480       ??$__crt_fast_decode_pointer@P6AH_K@Z@@YAP6AH_K@ZQ6AH0@Z@Z 000000018008e480 f i libucrtd:new_handler.obj
 0001:0008d4c0       ??$__crt_fast_encode_pointer@P6AH_K@Z@@YAP6AH_K@ZQ6AH0@Z@Z 000000018008e4c0 f i libucrtd:new_handler.obj
 0001:0008d500       ?_set_new_handler@@YAP6AH_K@ZH@Z 000000018008e500 f   libucrtd:new_handler.obj
 0001:0008d570       ?initialize@?$dual_state_global@P6AH_K@Z@__crt_state_management@@QEAAXQ6AH_K@Z@Z 000000018008e570 f i libucrtd:new_handler.obj
 0001:0008d5c0       ?value@?$dual_state_global@P6AH_K@Z@__crt_state_management@@QEAAAEAP6AH_K@ZXZ 000000018008e5c0 f i libucrtd:new_handler.obj
 0001:0008d5e0       __acrt_initialize_new_handler 000000018008e5e0 f   libucrtd:new_handler.obj
 0001:0008d600       _callnewh                  000000018008e600 f   libucrtd:new_handler.obj
 0001:0008d650       _query_new_handler         000000018008e650 f   libucrtd:new_handler.obj
 0001:0008d690       _set_new_handler           000000018008e690 f   libucrtd:new_handler.obj
 0001:0008d740       _get_terminate             000000018008e740 f   libucrtd:terminate.obj
 0001:0008d760       set_terminate              000000018008e760 f   libucrtd:terminate.obj
 0001:0008d7a0       terminate                  000000018008e7a0 f   libucrtd:terminate.obj
 0001:0008e5a0       _makepath                  000000018008f5a0 f   libucrtd:makepath.obj
 0001:0008e5f0       _makepath_s                000000018008f5f0 f   libucrtd:makepath.obj
 0001:0008e640       _wmakepath                 000000018008f640 f   libucrtd:makepath.obj
 0001:0008e690       _wmakepath_s               000000018008f690 f   libucrtd:makepath.obj
 0001:00090b60       ??$tcsncpy_s@AEAPEAD_KAEAPEBDAEB_K@?$__crt_char_traits@D@@SAHAEAPEAD$$QEA_KAEAPEBDAEB_K@Z 0000000180091b60 f i libucrtd:splitpath.obj
 0001:00090bb0       ??$tcsncpy_s@AEAPEAD_KAEAPEBDH@?$__crt_char_traits@D@@SAHAEAPEAD$$QEA_KAEAPEBD$$QEAH@Z 0000000180091bb0 f i libucrtd:splitpath.obj
 0001:00090c00       ??$tcsncpy_s@AEAPEA_W_KAEAPEB_WAEB_K@?$__crt_char_traits@_W@@SAHAEAPEA_W$$QEA_KAEAPEB_WAEB_K@Z 0000000180091c00 f i libucrtd:splitpath.obj
 0001:00090c50       ??$tcsncpy_s@AEAPEA_W_KAEAPEB_WH@?$__crt_char_traits@_W@@SAHAEAPEA_W$$QEA_KAEAPEB_W$$QEAH@Z 0000000180091c50 f i libucrtd:splitpath.obj
 0001:00090eb0       _splitpath                 0000000180091eb0 f   libucrtd:splitpath.obj
 0001:00090ef0       _splitpath_s               0000000180091ef0 f   libucrtd:splitpath.obj
 0001:00090f90       _wsplitpath                0000000180091f90 f   libucrtd:splitpath.obj
 0001:00090fd0       _wsplitpath_s              0000000180091fd0 f   libucrtd:splitpath.obj
 0001:00091070       _set_abort_behavior        0000000180092070 f   libucrtd:abort.obj
 0001:000910b0       abort                      00000001800920b0 f   libucrtd:abort.obj
 0001:00091140       strcmp                     0000000180092140 f   libucrtd:strcmp.obj
 0001:000911c0       strlen                     00000001800921c0 f   libucrtd:strlen.obj
 0001:00091270       wcsncmp                    0000000180092270 f   libucrtd:wcsncmp.obj
 0001:00091300       ??$is_overflow_condition@K@__crt_strtox@@YA_NIK@Z 0000000180092300 f i libucrtd:atox.obj
 0001:00091370       ??$is_overflow_condition@_K@__crt_strtox@@YA_NI_K@Z 0000000180092370 f i libucrtd:atox.obj
 0001:000913e0       ??$make_c_string_character_source@D$$T@__crt_strtox@@YA?AV?$c_string_character_source@D@0@QEBD$$T@Z 00000001800923e0 f i libucrtd:atox.obj
 0001:00091420       ??$make_c_string_character_source@_W$$T@__crt_strtox@@YA?AV?$c_string_character_source@_W@0@QEB_W$$T@Z 0000000180092420 f i libucrtd:atox.obj
 0001:00091460       ??$parse_integer@KV?$c_string_character_source@D@__crt_strtox@@@__crt_strtox@@YAKQEAU__crt_locale_pointers@@V?$c_string_character_source@D@0@H_N@Z 0000000180092460 f i libucrtd:atox.obj
 0001:000918f0       ??$parse_integer@KV?$c_string_character_source@_W@__crt_strtox@@@__crt_strtox@@YAKQEAU__crt_locale_pointers@@V?$c_string_character_source@_W@0@H_N@Z 00000001800928f0 f i libucrtd:atox.obj
 0001:00091da0       ??$parse_integer@_KV?$c_string_character_source@D@__crt_strtox@@@__crt_strtox@@YA_KQEAU__crt_locale_pointers@@V?$c_string_character_source@D@0@H_N@Z 0000000180092da0 f i libucrtd:atox.obj
 0001:000922c0       ??$parse_integer@_KV?$c_string_character_source@_W@__crt_strtox@@@__crt_strtox@@YA_KQEAU__crt_locale_pointers@@V?$c_string_character_source@_W@0@H_N@Z 00000001800932c0 f i libucrtd:atox.obj
 0001:000927e0       ??$parse_integer_from_string@JD$$T@__crt_strtox@@YAJQEBD$$THQEAU__crt_locale_pointers@@@Z 00000001800937e0 f i libucrtd:atox.obj
 0001:00092830       ??$parse_integer_from_string@J_W$$T@__crt_strtox@@YAJQEB_W$$THQEAU__crt_locale_pointers@@@Z 0000000180093830 f i libucrtd:atox.obj
 0001:00092880       ??$parse_integer_from_string@_JD$$T@__crt_strtox@@YA_JQEBD$$THQEAU__crt_locale_pointers@@@Z 0000000180093880 f i libucrtd:atox.obj
 0001:000928d0       ??$parse_integer_from_string@_J_W$$T@__crt_strtox@@YA_JQEB_W$$THQEAU__crt_locale_pointers@@@Z 00000001800938d0 f i libucrtd:atox.obj
 0001:00092920       ??0?$c_string_character_source@D@__crt_strtox@@QEAA@QEBDQEAPEBD@Z 0000000180093920 f i libucrtd:atox.obj
 0001:00092970       ??0?$c_string_character_source@_W@__crt_strtox@@QEAA@QEB_WQEAPEB_W@Z 0000000180093970 f i libucrtd:atox.obj
 0001:000929c0       ??1?$c_string_character_source@D@__crt_strtox@@QEAA@XZ 00000001800939c0 f i libucrtd:atox.obj
 0001:000929f0       ??1?$c_string_character_source@_W@__crt_strtox@@QEAA@XZ 00000001800939f0 f i libucrtd:atox.obj
 0001:00092a20       ?get@?$c_string_character_source@D@__crt_strtox@@QEAADXZ 0000000180093a20 f i libucrtd:atox.obj
 0001:00092a60       ?get@?$c_string_character_source@_W@__crt_strtox@@QEAA_WXZ 0000000180093a60 f i libucrtd:atox.obj
 0001:00092aa0       ?is_space@__crt_strtox@@YA_NDQEAU__crt_locale_pointers@@@Z 0000000180093aa0 f i libucrtd:atox.obj
 0001:00092af0       ?is_space@__crt_strtox@@YA_N_WPEAU__crt_locale_pointers@@@Z 0000000180093af0 f i libucrtd:atox.obj
 0001:00092b30       ?maximum_signed_value@__crt_strtox@@YAJK@Z 0000000180093b30 f i libucrtd:atox.obj
 0001:00092b40       ?maximum_signed_value@__crt_strtox@@YA_J_K@Z 0000000180093b40 f i libucrtd:atox.obj
 0001:00092b50       ?minimum_signed_value@__crt_strtox@@YAJK@Z 0000000180093b50 f i libucrtd:atox.obj
 0001:00092b60       ?minimum_signed_value@__crt_strtox@@YA_J_K@Z 0000000180093b60 f i libucrtd:atox.obj
 0001:00092b70       ?parse_digit@__crt_strtox@@YAID@Z 0000000180093b70 f i libucrtd:atox.obj
 0001:00092be0       ?parse_digit@__crt_strtox@@YAI_W@Z 0000000180093be0 f i libucrtd:atox.obj
 0001:00092c70       ?restore_state@?$c_string_character_source@D@__crt_strtox@@QEAA_NQEBD@Z 0000000180093c70 f i libucrtd:atox.obj
 0001:00092c90       ?restore_state@?$c_string_character_source@_W@__crt_strtox@@QEAA_NQEB_W@Z 0000000180093c90 f i libucrtd:atox.obj
 0001:00092cb0       ?save_state@?$c_string_character_source@D@__crt_strtox@@QEBAPEBDXZ 0000000180093cb0 f i libucrtd:atox.obj
 0001:00092cc0       ?save_state@?$c_string_character_source@_W@__crt_strtox@@QEBAPEB_WXZ 0000000180093cc0 f i libucrtd:atox.obj
 0001:00092cd0       ?unget@?$c_string_character_source@D@__crt_strtox@@QEAAXD@Z 0000000180093cd0 f i libucrtd:atox.obj
 0001:00092db0       ?unget@?$c_string_character_source@_W@__crt_strtox@@QEAAX_W@Z 0000000180093db0 f i libucrtd:atox.obj
 0001:00092e90       ?validate@?$c_string_character_source@D@__crt_strtox@@QEBA_NXZ 0000000180093e90 f i libucrtd:atox.obj
 0001:00092f50       ?validate@?$c_string_character_source@_W@__crt_strtox@@QEBA_NXZ 0000000180093f50 f i libucrtd:atox.obj
 0001:00093010       ?wide_character_to_digit@__crt_strtox@@YAH_W@Z 0000000180094010 f i libucrtd:atox.obj
 0001:00093380       _atoi64                    0000000180094380 f   libucrtd:atox.obj
 0001:000933b0       _atoi64_l                  00000001800943b0 f   libucrtd:atox.obj
 0001:000933e0       _atoi_l                    00000001800943e0 f   libucrtd:atox.obj
 0001:00093410       _atol_l                    0000000180094410 f   libucrtd:atox.obj
 0001:00093440       _atoll_l                   0000000180094440 f   libucrtd:atox.obj
 0001:00093470       _wtoi                      0000000180094470 f   libucrtd:atox.obj
 0001:000934a0       _wtoi64                    00000001800944a0 f   libucrtd:atox.obj
 0001:000934d0       _wtoi64_l                  00000001800944d0 f   libucrtd:atox.obj
 0001:00093500       _wtoi_l                    0000000180094500 f   libucrtd:atox.obj
 0001:00093530       _wtol                      0000000180094530 f   libucrtd:atox.obj
 0001:00093560       _wtol_l                    0000000180094560 f   libucrtd:atox.obj
 0001:00093590       _wtoll                     0000000180094590 f   libucrtd:atox.obj
 0001:000935c0       _wtoll_l                   00000001800945c0 f   libucrtd:atox.obj
 0001:000935f0       atoi                       00000001800945f0 f   libucrtd:atox.obj
 0001:00093620       atol                       0000000180094620 f   libucrtd:atox.obj
 0001:00093650       atoll                      0000000180094650 f   libucrtd:atox.obj
 0001:00093690       strncmp                    0000000180094690 f   libucrtd:strncmp.obj
 0001:00093e30       _tolower                   0000000180094e30 f   libucrtd:tolower_toupper.obj
 0001:00093e40       _tolower_l                 0000000180094e40 f   libucrtd:tolower_toupper.obj
 0001:00093e70       _toupper                   0000000180094e70 f   libucrtd:tolower_toupper.obj
 0001:00093e80       _toupper_l                 0000000180094e80 f   libucrtd:tolower_toupper.obj
 0001:00093eb0       tolower                    0000000180094eb0 f   libucrtd:tolower_toupper.obj
 0001:00093f10       toupper                    0000000180094f10 f   libucrtd:tolower_toupper.obj
 0001:00093f70       _CrtGetDebugFillThreshold  0000000180094f70 f   libucrtd:debug_fill_threshold.obj
 0001:00093f80       _CrtSetDebugFillThreshold  0000000180094f80 f   libucrtd:debug_fill_threshold.obj
 0001:00093fb0       ??$make_c_string_character_source@DPEAPEAD@__crt_strtox@@YA?AV?$c_string_character_source@D@0@QEBDQEAPEAD@Z 0000000180094fb0 f i libucrtd:strtox.obj
 0001:00093ff0       ??$make_c_string_character_source@_WPEAPEA_W@__crt_strtox@@YA?AV?$c_string_character_source@_W@0@QEB_WQEAPEA_W@Z 0000000180094ff0 f i libucrtd:strtox.obj
 0001:00094030       ??$parse_integer_from_string@JDPEAPEAD@__crt_strtox@@YAJQEBDQEAPEADHQEAU__crt_locale_pointers@@@Z 0000000180095030 f i libucrtd:strtox.obj
 0001:00094080       ??$parse_integer_from_string@J_WPEAPEA_W@__crt_strtox@@YAJQEB_WQEAPEA_WHQEAU__crt_locale_pointers@@@Z 0000000180095080 f i libucrtd:strtox.obj
 0001:000940d0       ??$parse_integer_from_string@KDPEAPEAD@__crt_strtox@@YAKQEBDQEAPEADHQEAU__crt_locale_pointers@@@Z 00000001800950d0 f i libucrtd:strtox.obj
 0001:00094120       ??$parse_integer_from_string@K_WPEAPEA_W@__crt_strtox@@YAKQEB_WQEAPEA_WHQEAU__crt_locale_pointers@@@Z 0000000180095120 f i libucrtd:strtox.obj
 0001:00094170       ??$parse_integer_from_string@_JDPEAPEAD@__crt_strtox@@YA_JQEBDQEAPEADHQEAU__crt_locale_pointers@@@Z 0000000180095170 f i libucrtd:strtox.obj
 0001:000941c0       ??$parse_integer_from_string@_J_WPEAPEA_W@__crt_strtox@@YA_JQEB_WQEAPEA_WHQEAU__crt_locale_pointers@@@Z 00000001800951c0 f i libucrtd:strtox.obj
 0001:00094210       ??$parse_integer_from_string@_KDPEAPEAD@__crt_strtox@@YA_KQEBDQEAPEADHQEAU__crt_locale_pointers@@@Z 0000000180095210 f i libucrtd:strtox.obj
 0001:00094260       ??$parse_integer_from_string@_K_WPEAPEA_W@__crt_strtox@@YA_KQEB_WQEAPEA_WHQEAU__crt_locale_pointers@@@Z 0000000180095260 f i libucrtd:strtox.obj
 0001:000942b0       _strtoi64                  00000001800952b0 f   libucrtd:strtox.obj
 0001:000942e0       _strtoi64_l                00000001800952e0 f   libucrtd:strtox.obj
 0001:00094320       _strtoimax_l               0000000180095320 f   libucrtd:strtox.obj
 0001:00094360       _strtol_l                  0000000180095360 f   libucrtd:strtox.obj
 0001:000943a0       _strtoll_l                 00000001800953a0 f   libucrtd:strtox.obj
 0001:000943e0       _strtoui64                 00000001800953e0 f   libucrtd:strtox.obj
 0001:00094410       _strtoui64_l               0000000180095410 f   libucrtd:strtox.obj
 0001:00094450       _strtoul_l                 0000000180095450 f   libucrtd:strtox.obj
 0001:00094490       _strtoull_l                0000000180095490 f   libucrtd:strtox.obj
 0001:000944d0       _strtoumax_l               00000001800954d0 f   libucrtd:strtox.obj
 0001:00094510       _wcstoi64                  0000000180095510 f   libucrtd:strtox.obj
 0001:00094540       _wcstoi64_l                0000000180095540 f   libucrtd:strtox.obj
 0001:00094580       _wcstoimax_l               0000000180095580 f   libucrtd:strtox.obj
 0001:000945c0       _wcstol_l                  00000001800955c0 f   libucrtd:strtox.obj
 0001:00094600       _wcstoll_l                 0000000180095600 f   libucrtd:strtox.obj
 0001:00094640       _wcstoui64                 0000000180095640 f   libucrtd:strtox.obj
 0001:00094670       _wcstoui64_l               0000000180095670 f   libucrtd:strtox.obj
 0001:000946b0       _wcstoul_l                 00000001800956b0 f   libucrtd:strtox.obj
 0001:000946f0       _wcstoull_l                00000001800956f0 f   libucrtd:strtox.obj
 0001:00094730       _wcstoumax_l               0000000180095730 f   libucrtd:strtox.obj
 0001:00094770       strtoimax                  0000000180095770 f   libucrtd:strtox.obj
 0001:000947a0       strtol                     00000001800957a0 f   libucrtd:strtox.obj
 0001:000947d0       strtoll                    00000001800957d0 f   libucrtd:strtox.obj
 0001:00094800       strtoul                    0000000180095800 f   libucrtd:strtox.obj
 0001:00094830       strtoull                   0000000180095830 f   libucrtd:strtox.obj
 0001:00094860       strtoumax                  0000000180095860 f   libucrtd:strtox.obj
 0001:00094890       wcstoimax                  0000000180095890 f   libucrtd:strtox.obj
 0001:000948c0       wcstol                     00000001800958c0 f   libucrtd:strtox.obj
 0001:000948f0       wcstoll                    00000001800958f0 f   libucrtd:strtox.obj
 0001:00094920       wcstoul                    0000000180095920 f   libucrtd:strtox.obj
 0001:00094950       wcstoull                   0000000180095950 f   libucrtd:strtox.obj
 0001:00094980       wcstoumax                  0000000180095980 f   libucrtd:strtox.obj
 0001:000949b0       _mbtowc_l                  00000001800959b0 f   libucrtd:mbtowc.obj
 0001:00094ce0       mbtowc                     0000000180095ce0 f   libucrtd:mbtowc.obj
 0001:00094d10       _wctomb_l                  0000000180095d10 f   libucrtd:wctomb.obj
 0001:00094dd0       _wctomb_s_l                0000000180095dd0 f   libucrtd:wctomb.obj
 0001:00095270       wctomb                     0000000180096270 f   libucrtd:wctomb.obj
 0001:000952d0       wctomb_s                   00000001800962d0 f   libucrtd:wctomb.obj
 0001:00095f60       ??1?$__crt_simd_cleanup_guard@$00@@QEAA@XZ 0000000180096f60 f i libucrtd:strnlen.obj
 0001:00095f70       ??1?$__crt_simd_cleanup_guard@$0A@@@QEAA@XZ 0000000180096f70 f i libucrtd:strnlen.obj
 0001:00095f80       ?compare_equals@?$__crt_simd_traits@$00E@@SA?AT__m256i@@T2@0@Z 0000000180096f80 f i libucrtd:strnlen.obj
 0001:00095fc0       ?compare_equals@?$__crt_simd_traits@$00G@@SA?AT__m256i@@T2@0@Z 0000000180096fc0 f i libucrtd:strnlen.obj
 0001:00096000       ?compare_equals@?$__crt_simd_traits@$0A@E@@SA?AT__m128i@@T2@0@Z 0000000180097000 f i libucrtd:strnlen.obj
 0001:00096030       ?compare_equals@?$__crt_simd_traits@$0A@G@@SA?AT__m128i@@T2@0@Z 0000000180097030 f i libucrtd:strnlen.obj
 0001:00096060       ?compute_byte_mask@?$__crt_simd_pack_traits@$00@@SAHT__m256i@@@Z 0000000180097060 f i libucrtd:strnlen.obj
 0001:00096080       ?compute_byte_mask@?$__crt_simd_pack_traits@$0A@@@SAHT__m128i@@@Z 0000000180097080 f i libucrtd:strnlen.obj
 0001:000960a0       ?get_zero_pack@?$__crt_simd_pack_traits@$00@@SA?AT__m256i@@XZ 00000001800970a0 f i libucrtd:strnlen.obj
 0001:000960d0       ?get_zero_pack@?$__crt_simd_pack_traits@$0A@@@SA?AT__m128i@@XZ 00000001800970d0 f i libucrtd:strnlen.obj
 0001:000960f0       strnlen                    00000001800970f0 f   libucrtd:strnlen.obj
 0001:00096120       wcsnlen                    0000000180097120 f   libucrtd:strnlen.obj
 0001:00096150       ??$?RU__acrt_ptd@@@__crt_internal_free_policy@@QEBAXQEBU__acrt_ptd@@@Z 0000000180097150 f i libucrtd:per_thread_data.obj
 0001:00096180       ??$?RV<lambda_5e887d1dcbef67a5eb4283622ba103bf>@@AEAV<lambda_4466841279450cc726390878d4a41900>@@V<lambda_341c25c0346d94847f1f3c463c57e077>@@@?$__crt_seh_guarded_call@X@@QEAAX$$QEAV<lambda_5e887d1dcbef67a5eb4283622ba103bf>@@AEAV<lambda_4466841279450cc726390878d4a41900>@@$$QEAV<lambda_341c25c0346d94847f1f3c463c57e077>@@@Z 0000000180097180 f i libucrtd:per_thread_data.obj
 0001:000961c0       ??$?RV<lambda_72d1df2b273a38828b1ce30cbf4cdab5>@@AEAV<lambda_876a65b173b8412d3a47c70a915b0cf4>@@V<lambda_41932305e351933ebe8f8be3ed8bb5dc>@@@?$__crt_seh_guarded_call@X@@QEAAX$$QEAV<lambda_72d1df2b273a38828b1ce30cbf4cdab5>@@AEAV<lambda_876a65b173b8412d3a47c70a915b0cf4>@@$$QEAV<lambda_41932305e351933ebe8f8be3ed8bb5dc>@@@Z 00000001800971c0 f i libucrtd:per_thread_data.obj
 0001:00096200       ??$?RV<lambda_8773731b9ba2edf4362dda13ebc82854>@@AEAV<lambda_6ac21da2756cd333d25ba1adc9a0001e>@@V<lambda_2c95662d60720604e97e3009a1ee1859>@@@?$__crt_seh_guarded_call@X@@QEAAX$$QEAV<lambda_8773731b9ba2edf4362dda13ebc82854>@@AEAV<lambda_6ac21da2756cd333d25ba1adc9a0001e>@@$$QEAV<lambda_2c95662d60720604e97e3009a1ee1859>@@@Z 0000000180097200 f i libucrtd:per_thread_data.obj
 0001:00096240       ??$?RV<lambda_fb3a7dec4e47f37f22dae91bb15c9095>@@AEAV<lambda_698284760c8add0bfb0756c19673e34b>@@V<lambda_dfb8eca1e75fef3034a8fb18dd509707>@@@?$__crt_seh_guarded_call@X@@QEAAX$$QEAV<lambda_fb3a7dec4e47f37f22dae91bb15c9095>@@AEAV<lambda_698284760c8add0bfb0756c19673e34b>@@$$QEAV<lambda_dfb8eca1e75fef3034a8fb18dd509707>@@@Z 0000000180097240 f i libucrtd:per_thread_data.obj
 0001:00096280       ??$__acrt_lock_and_call@V<lambda_4466841279450cc726390878d4a41900>@@@@YAXW4__acrt_lock_id@@$$QEAV<lambda_4466841279450cc726390878d4a41900>@@@Z 0000000180097280 f i libucrtd:per_thread_data.obj
 0001:000962f0       ??$__acrt_lock_and_call@V<lambda_698284760c8add0bfb0756c19673e34b>@@@@YAXW4__acrt_lock_id@@$$QEAV<lambda_698284760c8add0bfb0756c19673e34b>@@@Z 00000001800972f0 f i libucrtd:per_thread_data.obj
 0001:00096360       ??$__acrt_lock_and_call@V<lambda_6ac21da2756cd333d25ba1adc9a0001e>@@@@YAXW4__acrt_lock_id@@$$QEAV<lambda_6ac21da2756cd333d25ba1adc9a0001e>@@@Z 0000000180097360 f i libucrtd:per_thread_data.obj
 0001:000963d0       ??$__acrt_lock_and_call@V<lambda_876a65b173b8412d3a47c70a915b0cf4>@@@@YAXW4__acrt_lock_id@@$$QEAV<lambda_876a65b173b8412d3a47c70a915b0cf4>@@@Z 00000001800973d0 f i libucrtd:per_thread_data.obj
 0001:000965d0       ??0?$__crt_unique_heap_ptr@U__acrt_ptd@@U__crt_internal_free_policy@@@@QEAA@QEAU__acrt_ptd@@@Z 00000001800975d0 f i libucrtd:per_thread_data.obj
 0001:000965f0       ??0__crt_scoped_get_last_error_reset@@QEAA@XZ 00000001800975f0 f i libucrtd:per_thread_data.obj
 0001:00096610       ??1?$__crt_unique_heap_ptr@U__acrt_ptd@@U__crt_internal_free_policy@@@@QEAA@XZ 0000000180097610 f i libucrtd:per_thread_data.obj
 0001:00096630       ??1__crt_scoped_get_last_error_reset@@QEAA@XZ 0000000180097630 f i libucrtd:per_thread_data.obj
 0001:00096650       ??B?$__crt_unique_heap_ptr@U__acrt_ptd@@U__crt_internal_free_policy@@@@QEBA_NXZ 0000000180097650 f i libucrtd:per_thread_data.obj
 0001:000969a0       ?dangerous_get_state_array@?$dual_state_global@PEAU__crt_locale_data@@@__crt_state_management@@QEAAPEAPEAU__crt_locale_data@@XZ 00000001800979a0 f i libucrtd:per_thread_data.obj
 0001:00096b60       ?detach@?$__crt_unique_heap_ptr@U__acrt_ptd@@U__crt_internal_free_policy@@@@QEAAPEAU__acrt_ptd@@XZ 0000000180097b60 f i libucrtd:per_thread_data.obj
 0001:00096b90       ?get@?$__crt_unique_heap_ptr@U__acrt_ptd@@U__crt_internal_free_policy@@@@QEBAPEAU__acrt_ptd@@XZ 0000000180097b90 f i libucrtd:per_thread_data.obj
 0001:00096d00       ?is_valid@?$__crt_unique_heap_ptr@U__acrt_ptd@@U__crt_internal_free_policy@@@@QEBA_NXZ 0000000180097d00 f i libucrtd:per_thread_data.obj
 0001:00096d30       ?release@?$__crt_unique_heap_ptr@U__acrt_ptd@@U__crt_internal_free_policy@@@@QEAAXXZ 0000000180097d30 f i libucrtd:per_thread_data.obj
 0001:00096e70       ?value@?$dual_state_global@PEAU__crt_locale_data@@@__crt_state_management@@QEAAAEAPEAU__crt_locale_data@@XZ 0000000180097e70 f i libucrtd:per_thread_data.obj
 0001:00096e90       __acrt_freeptd             0000000180097e90 f   libucrtd:per_thread_data.obj
 0001:00096ed0       __acrt_getptd              0000000180097ed0 f   libucrtd:per_thread_data.obj
 0001:00096f00       __acrt_getptd_noexit       0000000180097f00 f   libucrtd:per_thread_data.obj
 0001:00096f10       __acrt_initialize_ptd      0000000180097f10 f   libucrtd:per_thread_data.obj
 0001:00096f50       __acrt_uninitialize_ptd    0000000180097f50 f   libucrtd:per_thread_data.obj
 0001:00096f80       __threadhandle             0000000180097f80 f   libucrtd:per_thread_data.obj
 0001:00096f90       __threadid                 0000000180097f90 f   libucrtd:per_thread_data.obj
 0001:00096fa0       __acrt_update_locale_info  0000000180097fa0 f   libucrtd:locale_update.obj
 0001:00096ff0       __acrt_update_multibyte_info 0000000180097ff0 f   libucrtd:locale_update.obj
 0001:00097040       ?__acrt_fp_classify@@YA?AW4__acrt_fp_class@@AEBN@Z 0000000180098040 f i libucrtd:cvt.obj
