 OPOSPOSKeyboard

 Timestamp is 5ed4593e (Mon Jun  1 10:26:22 2020)

 Preferred load address is 0000000180000000

 Start         Length     Name                   Class
 0001:00000000 00001400H .text$di                CODE
 0001:00001400 000d4b50H .text$mn                CODE
 0001:000d5f50 00000040H .text$mn$00             CODE
 0001:000d5f90 00001390H .text$x                 CODE
 0001:000d7320 000001b4H .text$yd                CODE
 0002:00000000 000006d8H .idata$5                DATA
 0002:000006d8 00000028H .00cfg                  DATA
 0002:00000700 00000008H .CRT$XCA                DATA
 0002:00000708 00000008H .CRT$XCL                DATA
 0002:00000710 000000d8H .CRT$XCU                DATA
 0002:000007e8 00000008H .CRT$XCZ                DATA
 0002:000007f0 00000008H .CRT$XIA                DATA
 0002:000007f8 00000028H .CRT$XIC                DATA
 0002:00000820 00000008H .CRT$XIZ                DATA
 0002:00000828 00000008H .CRT$XLA                DATA
 0002:00000830 00000008H .CRT$XLZ                DATA
 0002:00000838 00000008H .CRT$XPA                DATA
 0002:00000840 00000010H .CRT$XPX                DATA
 0002:00000850 00000008H .CRT$XPXA               DATA
 0002:00000858 00000008H .CRT$XPZ                DATA
 0002:00000860 00000008H .CRT$XTA                DATA
 0002:00000868 00000008H .CRT$XTZ                DATA
 0002:00000870 00000000H .gfids$y                DATA
 0002:00000870 0003b860H .rdata                  DATA
 0002:0003c0d0 00000028H .rdata$T                DATA
 0002:0003c0f8 0000056cH .rdata$r                DATA
 0002:0003c664 00000434H .rdata$zzzdbg           DATA
 0002:0003ca98 00000008H .rtc$IAA                DATA
 0002:0003caa0 00000030H .rtc$IMZ                DATA
 0002:0003cad0 00000008H .rtc$IZZ                DATA
 0002:0003cad8 00000008H .rtc$TAA                DATA
 0002:0003cae0 00000030H .rtc$TMZ                DATA
 0002:0003cb10 00000008H .rtc$TZZ                DATA
 0002:0003cb18 00000004H .tls                    DATA
 0002:0003cb1c 00000004H .tls$                   DATA
 0002:0003cb20 00000010H .tls$ZZZ                DATA
 0002:0003cb30 00009788H .xdata                  DATA
 0002:000462b8 00000150H .xdata$x                DATA
 0002:00046408 00000008H ATL$__a                 DATA
 0002:00046410 00000010H ATL$__z                 DATA
 0002:00046420 000000acH .edata                  DATA
 0002:000464cc 00000078H .idata$2                DATA
 0002:00046544 00000014H .idata$3                DATA
 0002:00046558 000006d8H .idata$4                DATA
 0002:00046c30 00000dbeH .idata$6                DATA
 0003:00000000 00000ec8H .data                   DATA
 0003:00000ec8 00000198H .data$r                 DATA
 0003:00001060 00003e9cH .bss                    DATA
 0004:00000000 0000c108H .pdata                  DATA
 0005:00000000 00000094H _RDATA                  DATA
 0006:00000000 00000220H .rsrc$01                DATA
 0006:00000220 00003b48H .rsrc$02                DATA

  Address         Publics by Value              Rva+Base               Lib:Object

 0000:00000000       ___safe_se_handler_count   0000000000000000     <absolute>
 0000:00000000       __guard_longjmp_count      0000000000000000     <absolute>
 0000:00000000       __dynamic_value_reloc_table 0000000000000000     <absolute>
 0000:00000000       __hybrid_auxiliary_iat     0000000000000000     <absolute>
 0000:00000000       __enclave_config           0000000000000000     <absolute>
 0000:00000000       __volatile_metadata        0000000000000000     <absolute>
 0000:00000000       __hybrid_code_map_count    0000000000000000     <absolute>
 0000:00000000       __guard_longjmp_table      0000000000000000     <absolute>
 0000:00000000       __guard_fids_count         0000000000000000     <absolute>
 0000:00000000       __AbsoluteZero             0000000000000000     <absolute>
 0000:00000000       __arm64x_native_entrypoint 0000000000000000     <absolute>
 0000:00000000       __guard_fids_table         0000000000000000     <absolute>
 0000:00000000       __guard_iat_table          0000000000000000     <absolute>
 0000:00000000       ___safe_se_handler_table   0000000000000000     <absolute>
 0000:00000000       __guard_eh_cont_count      0000000000000000     <absolute>
 0000:00000000       __x64_code_ranges_to_entry_points 0000000000000000     <absolute>
 0000:00000000       __guard_iat_count          0000000000000000     <absolute>
 0000:00000000       __guard_eh_cont_table      0000000000000000     <absolute>
 0000:00000000       __hybrid_code_map          0000000000000000     <absolute>
 0000:00000000       __arm64x_redirection_metadata 0000000000000000     <absolute>
 0000:00000100       __guard_flags              0000000000000100     <absolute>
 0000:00000000       __ImageBase                0000000180000000     <linker-defined>
 0001:00001400       ?_assert@@YAXPEB_W0I@Z     0000000180002400 f   Assert.obj
 0001:00001500       __local_stdio_printf_options 0000000180002500 f i Assert.obj
 0001:00001510       __vswprintf_l              0000000180002510 f i Assert.obj
 0001:00001570       _swprintf                  0000000180002570 f i Assert.obj
 0001:000015f0       _vswprintf_c_l             00000001800025f0 f i Assert.obj
 0001:00001680       _vswprintf_l               0000000180002680 f i Assert.obj
 0001:000016e0       ?cw_memcpy@@YAHPEADPEB_WH@Z 00000001800026e0 f   CWString.obj
 0001:00001770       ?cw_memcpy@@YAHPEA_WPEBDH@Z 0000000180002770 f   CWString.obj
 0001:000017f0       ?cw_memcpy@@YAHPEADPEBDH@Z 00000001800027f0 f   CWString.obj
 0001:00001890       ?cw_memcpy@@YAHPEA_WPEB_WH@Z 0000000180002890 f   CWString.obj
 0001:00001900       ?cw_memset@@YAXPEADDH@Z    0000000180002900 f   CWString.obj
 0001:00001970       ?cw_memset@@YAXPEA_W_WH@Z  0000000180002970 f   CWString.obj
 0001:00001a10       ?cw_strlen@@YAHPEBD@Z      0000000180002a10 f   CWString.obj
 0001:00001a80       ?cw_strlen@@YAHPEB_W@Z     0000000180002a80 f   CWString.obj
 0001:00001af0       ?cw_strcpy@@YAHPEADPEB_W@Z 0000000180002af0 f   CWString.obj
 0001:00001b40       ?cw_strcpy@@YAHPEA_WPEBD@Z 0000000180002b40 f   CWString.obj
 0001:00001b90       ?cw_strcpy@@YAHPEADPEBD@Z  0000000180002b90 f   CWString.obj
 0001:00001be0       ?cw_strcpy@@YAHPEA_WPEB_W@Z 0000000180002be0 f   CWString.obj
 0001:00001c30       ?cw_strcat@@YAHPEADPEB_W@Z 0000000180002c30 f   CWString.obj
 0001:00001c90       ?cw_strcat@@YAHPEA_WPEBD@Z 0000000180002c90 f   CWString.obj
 0001:00001cf0       ?cw_strcat@@YAHPEADPEBD@Z  0000000180002cf0 f   CWString.obj
 0001:00001d50       ?cw_strcat@@YAHPEA_WPEB_W@Z 0000000180002d50 f   CWString.obj
 0001:00001db0       ?cw_dup@@YAXPEBDAEAHAEAPEA_W1@Z 0000000180002db0 f   CWString.obj
 0001:00001ec0       ?cw_dup@@YAXPEB_WAEAHAEAPEAD1@Z 0000000180002ec0 f   CWString.obj
 0001:00001fb0       ?DupChar@_CW@@AEAAXXZ      0000000180002fb0 f   CWString.obj
 0001:00002010       ?DupWide@_CW@@AEAAXXZ      0000000180003010 f   CWString.obj
 0001:00002080       ?GetCharsMbcs@_CW@@QEAAHXZ 0000000180003080 f   CWString.obj
 0001:000020f0       ?GetCharsWide@_CW@@QEAAHXZ 00000001800030f0 f   CWString.obj
 0001:00002160       ?SetVARIANT_BOOL@OposVariant@@QEAAXF@Z 0000000180003160 f   OposVariant.obj
 0001:000021d0       ?SetVARIANT_BOOL_Ptr@OposVariant@@QEAAXPEAFAEAJ@Z 00000001800031d0 f   OposVariant.obj
 0001:00002240       ?GetLONG@OposVariant@@QEAAJXZ 0000000180003240 f   OposVariant.obj
 0001:000022a0       ?ChangeLONG@OposVariant@@QEAAXPEAJAEAJ@Z 00000001800032a0 f   OposVariant.obj
 0001:00002350       ?SetLONG@OposVariant@@QEAAXJ@Z 0000000180003350 f   OposVariant.obj
 0001:000023b0       ?SetLONG_Ptr@OposVariant@@QEAAXPEAJAEAJ@Z 00000001800033b0 f   OposVariant.obj
 0001:00002420       ?ChangeCURRENCY@OposVariant@@QEAAXPEATtagCY@@AEAJ@Z 0000000180003420 f   OposVariant.obj
 0001:000024d0       ?SetCURRENCY@OposVariant@@QEAAXTtagCY@@@Z 00000001800034d0 f   OposVariant.obj
 0001:00002530       ?SetCURRENCY_Ptr@OposVariant@@QEAAXPEATtagCY@@AEAJ@Z 0000000180003530 f   OposVariant.obj
 0001:000025a0       ?ChangeBSTR@OposVariant@@QEAAXPEAPEA_WAEAJ@Z 00000001800035a0 f   OposVariant.obj
 0001:00002650       ?SetBSTR@OposVariant@@QEAAXPEA_WAEAJ@Z 0000000180003650 f   OposVariant.obj
 0001:000026d0       ?SetBSTR_Copy@OposVariant@@QEAAXPEA_WAEAJ@Z 00000001800036d0 f   OposVariant.obj
 0001:00002780       ?SetBSTR_OutPtr@OposVariant@@QEAA_NPEAPEA_WAEAJ@Z 0000000180003780 f   OposVariant.obj
 0001:000027f0       ?SetBSTR_InOutPtr@OposVariant@@QEAA_NPEAPEA_WAEAJ@Z 00000001800037f0 f   OposVariant.obj
 0001:00002870       ?SetVARIANT@OposVariant@@QEAAXAEAUtagVARIANT@@GAEAJ@Z 0000000180003870 f   OposVariant.obj
 0001:00002910       ?SetVARIANT_Ptr@OposVariant@@QEAAXAEAPEAUtagVARIANT@@GAEAJ@Z 0000000180003910 f   OposVariant.obj
 0001:000029c0       ?SetString@OposVariant@@QEAAXPEB_WAEAJ@Z 00000001800039c0 f   OposVariant.obj
 0001:00002a70       ?SetDispatch_Ptr@OposVariant@@QEAAXPEAUIDispatch@@AEAJ@Z 0000000180003a70 f   OposVariant.obj
 0001:00002b00       ??0OposDispParms@@QEAA@PEAVOposVariant@@H@Z 0000000180003b00 f   OposVariant.obj
 0001:00002c10       ??1OposDispParms@@QEAA@XZ  0000000180003c10 f   OposVariant.obj
 0001:00002c60       ??$AtlMultiply@_K@ATL@@YAJPEA_K_K1@Z 0000000180003c60 f i OposVariant.obj
 0001:00002ce0       ??0?$CHeapPtr@_WVCCRTAllocator@ATL@@@ATL@@QEAA@XZ 0000000180003ce0 f i OposVariant.obj
 0001:00002d20       ??0?$CHeapPtrBase@_WVCCRTAllocator@ATL@@@ATL@@IEAA@XZ 0000000180003d20 f i OposVariant.obj
 0001:00002d40       ??0?$CSimpleArray@GV?$CSimpleArrayEqualHelper@G@ATL@@@ATL@@QEAA@XZ 0000000180003d40 f i OposVariant.obj
 0001:00002d80       ??0?$CTraceCategoryEx@$00$0A@@ATL@@QEAA@PEB_W@Z 0000000180003d80 f i OposVariant.obj
 0001:00002dc0       ??0?$CTraceCategoryEx@$01$0A@@ATL@@QEAA@PEB_W@Z 0000000180003dc0 f i OposVariant.obj
 0001:00002e00       ??0?$CTraceCategoryEx@$03$0A@@ATL@@QEAA@PEB_W@Z 0000000180003e00 f i OposVariant.obj
 0001:00002e40       ??0?$CTraceCategoryEx@$07$0A@@ATL@@QEAA@PEB_W@Z 0000000180003e40 f i OposVariant.obj
 0001:00002e80       ??0?$CTraceCategoryEx@$0BA@$0A@@ATL@@QEAA@PEB_W@Z 0000000180003e80 f i OposVariant.obj
 0001:00002ec0       ??0?$CTraceCategoryEx@$0BAA@$0A@@ATL@@QEAA@PEB_W@Z 0000000180003ec0 f i OposVariant.obj
 0001:00002f00       ??0?$CTraceCategoryEx@$0BAAA@$0A@@ATL@@QEAA@PEB_W@Z 0000000180003f00 f i OposVariant.obj
 0001:00002f40       ??0?$CTraceCategoryEx@$0BAAAA@$0A@@ATL@@QEAA@PEB_W@Z 0000000180003f40 f i OposVariant.obj
 0001:00002f80       ??0?$CTraceCategoryEx@$0BAAAAA@$0A@@ATL@@QEAA@PEB_W@Z 0000000180003f80 f i OposVariant.obj
 0001:00002fc0       ??0?$CTraceCategoryEx@$0CA@$0A@@ATL@@QEAA@PEB_W@Z 0000000180003fc0 f i OposVariant.obj
 0001:00003000       ??0?$CTraceCategoryEx@$0CAA@$0A@@ATL@@QEAA@PEB_W@Z 0000000180004000 f i OposVariant.obj
 0001:00003040       ??0?$CTraceCategoryEx@$0CAAA@$0A@@ATL@@QEAA@PEB_W@Z 0000000180004040 f i OposVariant.obj
 0001:00003080       ??0?$CTraceCategoryEx@$0CAAAA@$0A@@ATL@@QEAA@PEB_W@Z 0000000180004080 f i OposVariant.obj
 0001:000030c0       ??0?$CTraceCategoryEx@$0CAAAAA@$0A@@ATL@@QEAA@PEB_W@Z 00000001800040c0 f i OposVariant.obj
 0001:00003100       ??0?$CTraceCategoryEx@$0EA@$0A@@ATL@@QEAA@PEB_W@Z 0000000180004100 f i OposVariant.obj
 0001:00003140       ??0?$CTraceCategoryEx@$0EAA@$0A@@ATL@@QEAA@PEB_W@Z 0000000180004140 f i OposVariant.obj
 0001:00003180       ??0?$CTraceCategoryEx@$0EAAA@$0A@@ATL@@QEAA@PEB_W@Z 0000000180004180 f i OposVariant.obj
 0001:000031c0       ??0?$CTraceCategoryEx@$0EAAAA@$0A@@ATL@@QEAA@PEB_W@Z 00000001800041c0 f i OposVariant.obj
 0001:00003200       ??0?$CTraceCategoryEx@$0EAAAAA@$0A@@ATL@@QEAA@PEB_W@Z 0000000180004200 f i OposVariant.obj
 0001:00003240       ??0?$CTraceCategoryEx@$0IA@$0A@@ATL@@QEAA@PEB_W@Z 0000000180004240 f i OposVariant.obj
 0001:00003280       ??0?$CTraceCategoryEx@$0IAA@$0A@@ATL@@QEAA@PEB_W@Z 0000000180004280 f i OposVariant.obj
 0001:000032c0       ??0?$CTraceCategoryEx@$0IAAA@$0A@@ATL@@QEAA@PEB_W@Z 00000001800042c0 f i OposVariant.obj
 0001:00003300       ??0?$CTraceCategoryEx@$0IAAAA@$0A@@ATL@@QEAA@PEB_W@Z 0000000180004300 f i OposVariant.obj
 0001:00003340       ??0CAtlComModule@ATL@@QEAA@XZ 0000000180004340 f i OposVariant.obj
 0001:00003460       ??0CAtlWinModule@ATL@@QEAA@XZ 0000000180004460 f i OposVariant.obj
 0001:00003510       ??0CComCriticalSection@ATL@@QEAA@XZ 0000000180004510 f i OposVariant.obj
 0001:00003550       ??0CPreserveLastError@ATL@@QEAA@XZ 0000000180004550 f i OposVariant.obj
 0001:00003590       ??0CTraceFileAndLineInfo@ATL@@QEAA@PEBDH@Z 0000000180004590 f i OposVariant.obj
 0001:000035c0       ??0_ATL_COM_MODULE70@ATL@@QEAA@XZ 00000001800045c0 f i OposVariant.obj
 0001:00003600       ??0_ATL_WIN_MODULE70@ATL@@QEAA@XZ 0000000180004600 f i OposVariant.obj
 0001:00003650       ??1?$CHeapPtr@_WVCCRTAllocator@ATL@@@ATL@@QEAA@XZ 0000000180004650 f i OposVariant.obj
 0001:00003680       ??1?$CHeapPtrBase@_WVCCRTAllocator@ATL@@@ATL@@QEAA@XZ 0000000180004680 f i OposVariant.obj
 0001:000036b0       ??1?$CSimpleArray@GV?$CSimpleArrayEqualHelper@G@ATL@@@ATL@@QEAA@XZ 00000001800046b0 f i OposVariant.obj
 0001:000036e0       ??1CAtlComModule@ATL@@QEAA@XZ 00000001800046e0 f i OposVariant.obj
 0001:00003720       ??1CAtlWinModule@ATL@@QEAA@XZ 0000000180004720 f i OposVariant.obj
 0001:00003760       ??1CComBSTR@ATL@@QEAA@XZ   0000000180004760 f i OposVariant.obj
 0001:000037a0       ??1CComCriticalSection@ATL@@QEAA@XZ 00000001800047a0 f i OposVariant.obj
 0001:000037b0       ??1CPreserveLastError@ATL@@QEAA@XZ 00000001800047b0 f i OposVariant.obj
 0001:000037f0       ??1_ATL_COM_MODULE70@ATL@@QEAA@XZ 00000001800047f0 f i OposVariant.obj
 0001:00003830       ??1_ATL_WIN_MODULE70@ATL@@QEAA@XZ 0000000180004830 f i OposVariant.obj
 0001:00003880       ??1stringdispid@CComTypeInfoHolder@ATL@@QEAA@XZ 0000000180004880 f i OposVariant.obj
 0001:000038c0       ??A?$CSimpleArray@GV?$CSimpleArrayEqualHelper@G@ATL@@@ATL@@QEAAAEAGH@Z 00000001800048c0 f i OposVariant.obj
 0001:00003970       ??B?$CHeapPtrBase@_WVCCRTAllocator@ATL@@@ATL@@QEBAPEA_WXZ 0000000180004970 f i OposVariant.obj
 0001:00003980       ??B?$CTraceCategoryEx@$01$0A@@ATL@@QEAAIXZ 0000000180004980 f i OposVariant.obj
 0001:00003990       ??B?$CTraceCategoryEx@$0CA@$0A@@ATL@@QEAAIXZ 0000000180004990 f i OposVariant.obj
 0001:000039a0       ??RCTraceFileAndLineInfo@ATL@@QEBAXHIPEB_WZZ 00000001800049a0 f i OposVariant.obj
 0001:00003a50       ??_Estringdispid@CComTypeInfoHolder@ATL@@QEAAPEAXI@Z 0000000180004a50 f i OposVariant.obj
 0001:00003b00       ??_H@YAXPEAX_K1P6APEAX0@Z@Z 0000000180004b00 f i OposVariant.obj
 0001:00003b90       ??_I@YAXPEAX_K1P6AX0@Z@Z   0000000180004b90 f i OposVariant.obj
 0001:00003c40       ?Allocate@?$CHeapPtr@_WVCCRTAllocator@ATL@@@ATL@@QEAA_N_K@Z 0000000180004c40 f i OposVariant.obj
 0001:00003cc0       ?Allocate@CCRTAllocator@ATL@@SAPEAX_K@Z 0000000180004cc0 f i OposVariant.obj
 0001:00003cf0       ?AllocateBytes@?$CHeapPtrBase@_WVCCRTAllocator@ATL@@@ATL@@QEAA_N_K@Z 0000000180004cf0 f i OposVariant.obj
 0001:00003d90       ?AtlWinModuleInit@ATL@@YAJPEAU_ATL_WIN_MODULE70@1@@Z 0000000180004d90 f i OposVariant.obj
 0001:00003e90       ?AtlWinModuleTerm@ATL@@YAJPEAU_ATL_WIN_MODULE70@1@PEAUHINSTANCE__@@@Z 0000000180004e90 f i OposVariant.obj
 0001:00003f80       ?Clear@OposVariant@@QEAAJXZ 0000000180004f80 f i OposVariant.obj
 0001:00003fc0       ?Free@?$CHeapPtrBase@_WVCCRTAllocator@ATL@@@ATL@@QEAAXXZ 0000000180004fc0 f i OposVariant.obj
 0001:00004000       ?Free@CCRTAllocator@ATL@@SAXPEAX@Z 0000000180005000 f i OposVariant.obj
 0001:00004030       ?GetCategoryName@CTrace@ATL@@CAPEA_WI@Z 0000000180005030 f i OposVariant.obj
 0001:000040b0       ?GetModuleInstance@CAtlBaseModule@ATL@@QEAAPEAUHINSTANCE__@@XZ 00000001800050b0 f i OposVariant.obj
 0001:000040d0       ?GetSize@?$CSimpleArray@GV?$CSimpleArrayEqualHelper@G@ATL@@@ATL@@QEBAHXZ 00000001800050d0 f i OposVariant.obj
 0001:000040e0       ?Init@CComCriticalSection@ATL@@QEAAJXZ 00000001800050e0 f i OposVariant.obj
 0001:00004140       ?RegisterCategory@CTrace@ATL@@SAXPEB_WI@Z 0000000180005140 f i OposVariant.obj
 0001:00004220       ?RemoveAll@?$CSimpleArray@GV?$CSimpleArrayEqualHelper@G@ATL@@@ATL@@QEAAXXZ 0000000180005220 f i OposVariant.obj
 0001:000042b0       ?Term@CAtlComModule@ATL@@QEAAXXZ 00000001800052b0 f i OposVariant.obj
 0001:00004390       ?Term@CAtlWinModule@ATL@@QEAAXXZ 0000000180005390 f i OposVariant.obj
 0001:000043d0       ?Term@CComCriticalSection@ATL@@QEAAJXZ 00000001800053d0 f i OposVariant.obj
 0001:00004410       ?TraceV@CTrace@ATL@@CAXPEBDHIIPEB_W@Z 0000000180005410 f i OposVariant.obj
 0001:000046c0       ?TraceV@CTrace@ATL@@SAXPEBDHIIPEB_WPEAD@Z 00000001800056c0 f i OposVariant.obj
 0001:00004870       ?_AtlInitializeCriticalSectionEx@ATL@@YAHPEAU_RTL_CRITICAL_SECTION@@KK@Z 0000000180005870 f i OposVariant.obj
 0001:000048c0       ?_AtlRaiseException@ATL@@YAXKK@Z 00000001800058c0 f i OposVariant.obj
 0001:00004900       HRESULT_FROM_WIN32         0000000180005900 f i OposVariant.obj
 0001:00004950       _vswprintf_s_l             0000000180005950 f i OposVariant.obj
 0001:000049e0       swprintf_s                 00000001800059e0 f i OposVariant.obj
 0001:00004a70       ?ObjectMain@CComObjectRootBase@ATL@@SAX_N@Z 0000000180005a70 f i POSKeyboard.obj
 0001:00004a80       ?GetCategoryMap@CComObjectRootBase@ATL@@SAPEBU_ATL_CATMAP_ENTRY@2@XZ 0000000180005a80 f i POSKeyboard.obj
 0001:00004a90       ?GetObjectDescription@?$CComCoClass@VCOPOSPOSKeyboard@@$1?CLSID_OPOSPOSKeyboard@@3U_GUID@@B@ATL@@SAPEB_WXZ 0000000180005a90 f i POSKeyboard.obj
 0001:00004aa0       ?UpdateRegistry@COPOSPOSKeyboard@@SAJH@Z 0000000180005aa0 f i POSKeyboard.obj
 0001:00004ae0       ?CreateInstance@?$CComCreator@V?$CComObjectCached@VCComClassFactory@ATL@@@ATL@@@ATL@@SAJPEAXAEBU_GUID@@PEAPEAX@Z 0000000180005ae0 f i POSKeyboard.obj
 0001:00004cd0       ?CreateInstance@?$CComCreator2@V?$CComCreator@V?$CComObject@VCOPOSPOSKeyboard@@@ATL@@@ATL@@V?$CComCreator@V?$CComAggObject@VCOPOSPOSKeyboard@@@ATL@@@2@@ATL@@SAJPEAXAEBU_GUID@@PEAPEAX@Z 0000000180005cd0 f i POSKeyboard.obj
 0001:00004ee0       DllGetClassObject          0000000180005ee0 f   POSKeyboard.obj
 0001:00004f30       DllCanUnloadNow            0000000180005f30 f   POSKeyboard.obj
 0001:00004f80       DllRegisterServer          0000000180005f80 f   POSKeyboard.obj
 0001:00004fc0       DllUnregisterServer        0000000180005fc0 f   POSKeyboard.obj
 0001:000051c0       DllMain                    00000001800061c0 f   POSKeyboard.obj
 0001:00005240       ??$?2G@Wrapper@?$CSimpleArray@GV?$CSimpleArrayEqualHelper@G@ATL@@@ATL@@SAPEAX_KPEAG@Z 0000000180006240 f i POSKeyboard.obj
 0001:00005260       ??$?2PEA_W@?$Wrapper@PEA_W@?$CSimpleMap@PEA_WPEA_WVCExpansionVectorEqualHelper@ATL@@@ATL@@SAPEAX_KPEAPEA_W@Z 0000000180006260 f i POSKeyboard.obj
 0001:00005280       ??$?4UITypeInfo2@@@?$CComPtr@UITypeInfo@@@ATL@@QEAAPEAUITypeInfo@@AEBV?$CComPtr@UITypeInfo2@@@1@@Z 0000000180006280 f i POSKeyboard.obj
 0001:000052f0       ??$AtlAdd@_K@ATL@@YAJPEA_K_K1@Z 00000001800062f0 f i POSKeyboard.obj
 0001:00005360       ??$AtlAddThrow@_K@ATL@@YA_K_K0@Z 0000000180006360 f i POSKeyboard.obj
 0001:000053d0       ??$AtlModuleRegisterWndClassInfoT@VAtlModuleRegisterWndClassInfoParamW@ATL@@@ATL@@YAGPEAU_ATL_BASE_MODULE70@0@PEAU_ATL_WIN_MODULE70@0@PEAU_ATL_WNDCLASSINFOW@0@PEAP6A_JPEAUHWND__@@I_K_J@ZVAtlModuleRegisterWndClassInfoParamW@0@@Z 00000001800063d0 f i POSKeyboard.obj
 0001:000059a0       ??$AtlMultiply@H@ATL@@YAJPEAHHH@Z 00000001800069a0 f i POSKeyboard.obj
 0001:00005a10       ??$AtlMultiply@K@ATL@@YAJPEAKKK@Z 0000000180006a10 f i POSKeyboard.obj
 0001:00005a80       ??$AtlMultiplyThrow@_K@ATL@@YA_K_K0@Z 0000000180006a80 f i POSKeyboard.obj
 0001:00005af0       ??$QueryInterface@UIPersistStream@@@IUnknown@@QEAAJPEAPEAUIPersistStream@@@Z 0000000180006af0 f i POSKeyboard.obj
 0001:00005b40       ??$QueryInterface@UITypeInfo2@@@IUnknown@@QEAAJPEAPEAUITypeInfo2@@@Z 0000000180006b40 f i POSKeyboard.obj
 0001:00005b90       ??0?$CAtlModuleT@VCComModule@ATL@@@ATL@@QEAA@XZ 0000000180006b90 f i POSKeyboard.obj
 0001:00005bd0       ??0?$CAtlSafeAllocBufferManager@VCCRTAllocator@ATL@@@_ATL_SAFE_ALLOCA_IMPL@ATL@@QEAA@XZ 0000000180006bd0 f i POSKeyboard.obj
 0001:00005bf0       ??0?$CAutoVectorPtr@_W@ATL@@QEAA@XZ 0000000180006bf0 f i POSKeyboard.obj
 0001:00005c10       ??0?$CComAggObject@VCOPOSPOSKeyboard@@@ATL@@QEAA@PEAX@Z 0000000180006c10 f i POSKeyboard.obj
 0001:00005ca0       ??0?$CComContainedObject@VCOPOSPOSKeyboard@@@ATL@@QEAA@PEAX@Z 0000000180006ca0 f i POSKeyboard.obj
 0001:00005e40       ??0?$CComCritSecLock@VCComCriticalSection@ATL@@@ATL@@QEAA@AEAVCComCriticalSection@1@_N@Z 0000000180006e40 f i POSKeyboard.obj
 0001:00005eb0       ??0?$CComEnum@UIEnumConnectionPoints@@$1?_GUID_b196b285_bab4_101a_b69c_00aa00341d07@@3U__s_GUID@@BPEAUIConnectionPoint@@V?$_CopyInterface@UIConnectionPoint@@@ATL@@VCComSingleThreadModel@6@@ATL@@QEAA@XZ 0000000180006eb0 f i POSKeyboard.obj
 0001:00005f00       ??0?$CComEnum@UIEnumConnections@@$1?_GUID_b196b287_bab4_101a_b69c_00aa00341d07@@3U__s_GUID@@BUtagCONNECTDATA@@V?$_Copy@UtagCONNECTDATA@@@ATL@@VCComSingleThreadModel@6@@ATL@@QEAA@XZ 0000000180006f00 f i POSKeyboard.obj
 0001:00005f50       ??0?$CComEnumImpl@UIEnumConnectionPoints@@$1?_GUID_b196b285_bab4_101a_b69c_00aa00341d07@@3U__s_GUID@@BPEAUIConnectionPoint@@V?$_CopyInterface@UIConnectionPoint@@@ATL@@@ATL@@QEAA@XZ 0000000180006f50 f i POSKeyboard.obj
 0001:00005fd0       ??0?$CComEnumImpl@UIEnumConnections@@$1?_GUID_b196b287_bab4_101a_b69c_00aa00341d07@@3U__s_GUID@@BUtagCONNECTDATA@@V?$_Copy@UtagCONNECTDATA@@@ATL@@@ATL@@QEAA@XZ 0000000180006fd0 f i POSKeyboard.obj
 0001:00006050       ??0?$CComObject@V?$CComEnum@UIEnumConnectionPoints@@$1?_GUID_b196b285_bab4_101a_b69c_00aa00341d07@@3U__s_GUID@@BPEAUIConnectionPoint@@V?$_CopyInterface@UIConnectionPoint@@@ATL@@VCComSingleThreadModel@6@@ATL@@@ATL@@QEAA@PEAX@Z 0000000180007050 f i POSKeyboard.obj
 0001:000060b0       ??0?$CComObject@V?$CComEnum@UIEnumConnections@@$1?_GUID_b196b287_bab4_101a_b69c_00aa00341d07@@3U__s_GUID@@BUtagCONNECTDATA@@V?$_Copy@UtagCONNECTDATA@@@ATL@@VCComSingleThreadModel@6@@ATL@@@ATL@@QEAA@PEAX@Z 00000001800070b0 f i POSKeyboard.obj
 0001:00006110       ??0?$CComObject@VCOPOSPOSKeyboard@@@ATL@@QEAA@PEAX@Z 0000000180007110 f i POSKeyboard.obj
 0001:000062b0       ??0?$CComObjectCached@VCComClassFactory@ATL@@@ATL@@QEAA@PEAX@Z 00000001800072b0 f i POSKeyboard.obj
 0001:00006300       ??0?$CComObjectRootEx@VCComMultiThreadModel@ATL@@@ATL@@QEAA@XZ 0000000180007300 f i POSKeyboard.obj
 0001:00006350       ??0?$CComObjectRootEx@VCComSingleThreadModel@ATL@@@ATL@@QEAA@XZ 0000000180007350 f i POSKeyboard.obj
 0001:00006390       ??0?$CComPtr@UIAdviseSink@@@ATL@@QEAA@PEAUIAdviseSink@@@Z 0000000180007390 f i POSKeyboard.obj
 0001:000063d0       ??0?$CComPtr@UICatRegister@@@ATL@@QEAA@XZ 00000001800073d0 f i POSKeyboard.obj
 0001:00006410       ??0?$CComPtr@UIConnectionPoint@@@ATL@@QEAA@XZ 0000000180007410 f i POSKeyboard.obj
 0001:00006450       ??0?$CComPtr@UIConnectionPointContainer@@@ATL@@QEAA@XZ 0000000180007450 f i POSKeyboard.obj
 0001:00006490       ??0?$CComPtr@UIDataObject@@@ATL@@QEAA@XZ 0000000180007490 f i POSKeyboard.obj
 0001:000064d0       ??0?$CComPtr@UIDispatch@@@ATL@@QEAA@XZ 00000001800074d0 f i POSKeyboard.obj
 0001:00006510       ??0?$CComPtr@UIOleClientSite@@@ATL@@QEAA@PEAUIOleClientSite@@@Z 0000000180007510 f i POSKeyboard.obj
 0001:00006550       ??0?$CComPtr@UIOleControlSite@@@ATL@@QEAA@XZ 0000000180007550 f i POSKeyboard.obj
 0001:00006590       ??0?$CComPtr@UIOleInPlaceActiveObject@@@ATL@@QEAA@XZ 0000000180007590 f i POSKeyboard.obj
 0001:000065d0       ??0?$CComPtr@UIOleInPlaceFrame@@@ATL@@QEAA@XZ 00000001800075d0 f i POSKeyboard.obj
 0001:00006610       ??0?$CComPtr@UIOleInPlaceObject@@@ATL@@QEAA@XZ 0000000180007610 f i POSKeyboard.obj
 0001:00006650       ??0?$CComPtr@UIOleInPlaceUIWindow@@@ATL@@QEAA@XZ 0000000180007650 f i POSKeyboard.obj
 0001:00006690       ??0?$CComPtr@UIOleObject@@@ATL@@QEAA@XZ 0000000180007690 f i POSKeyboard.obj
 0001:000066d0       ??0?$CComPtr@UIPersistStream@@@ATL@@QEAA@XZ 00000001800076d0 f i POSKeyboard.obj
 0001:00006710       ??0?$CComPtr@UIPersistStreamInit@@@ATL@@QEAA@XZ 0000000180007710 f i POSKeyboard.obj
 0001:00006750       ??0?$CComPtr@UIPointerInactive@@@ATL@@QEAA@XZ 0000000180007750 f i POSKeyboard.obj
 0001:00006790       ??0?$CComPtr@UIProvideClassInfo2@@@ATL@@QEAA@XZ 0000000180007790 f i POSKeyboard.obj
 0001:000067d0       ??0?$CComPtr@UISpecifyPropertyPages@@@ATL@@QEAA@XZ 00000001800077d0 f i POSKeyboard.obj
 0001:00006810       ??0?$CComPtr@UIStream@@@ATL@@QEAA@XZ 0000000180007810 f i POSKeyboard.obj
 0001:00006850       ??0?$CComPtr@UITypeInfo2@@@ATL@@QEAA@XZ 0000000180007850 f i POSKeyboard.obj
 0001:00006890       ??0?$CComPtr@UITypeInfo@@@ATL@@QEAA@AEBV01@@Z 0000000180007890 f i POSKeyboard.obj
 0001:000068d0       ??0?$CComPtr@UITypeInfo@@@ATL@@QEAA@XZ 00000001800078d0 f i POSKeyboard.obj
 0001:00006910       ??0?$CComPtr@UITypeLib@@@ATL@@QEAA@XZ 0000000180007910 f i POSKeyboard.obj
 0001:00006950       ??0?$CComPtr@UIUnknown@@@ATL@@QEAA@AEBV01@@Z 0000000180007950 f i POSKeyboard.obj
 0001:00006990       ??0?$CComPtr@UIUnknown@@@ATL@@QEAA@PEAUIUnknown@@@Z 0000000180007990 f i POSKeyboard.obj
 0001:000069d0       ??0?$CComPtr@UIUnknown@@@ATL@@QEAA@XZ 00000001800079d0 f i POSKeyboard.obj
 0001:00006a10       ??0?$CComPtr@UIViewObjectEx@@@ATL@@QEAA@XZ 0000000180007a10 f i POSKeyboard.obj
 0001:00006a50       ??0?$CComPtrBase@UIAdviseSink@@@ATL@@IEAA@PEAUIAdviseSink@@@Z 0000000180007a50 f i POSKeyboard.obj
 0001:00006ab0       ??0?$CComPtrBase@UICatRegister@@@ATL@@IEAA@XZ 0000000180007ab0 f i POSKeyboard.obj
 0001:00006ad0       ??0?$CComPtrBase@UIConnectionPoint@@@ATL@@IEAA@XZ 0000000180007ad0 f i POSKeyboard.obj
 0001:00006af0       ??0?$CComPtrBase@UIConnectionPointContainer@@@ATL@@IEAA@XZ 0000000180007af0 f i POSKeyboard.obj
 0001:00006b10       ??0?$CComPtrBase@UIDataObject@@@ATL@@IEAA@XZ 0000000180007b10 f i POSKeyboard.obj
 0001:00006b30       ??0?$CComPtrBase@UIDispatch@@@ATL@@IEAA@XZ 0000000180007b30 f i POSKeyboard.obj
 0001:00006b50       ??0?$CComPtrBase@UIOleClientSite@@@ATL@@IEAA@PEAUIOleClientSite@@@Z 0000000180007b50 f i POSKeyboard.obj
 0001:00006bb0       ??0?$CComPtrBase@UIOleControlSite@@@ATL@@IEAA@XZ 0000000180007bb0 f i POSKeyboard.obj
 0001:00006bd0       ??0?$CComPtrBase@UIOleInPlaceActiveObject@@@ATL@@IEAA@XZ 0000000180007bd0 f i POSKeyboard.obj
 0001:00006bf0       ??0?$CComPtrBase@UIOleInPlaceFrame@@@ATL@@IEAA@XZ 0000000180007bf0 f i POSKeyboard.obj
 0001:00006c10       ??0?$CComPtrBase@UIOleInPlaceObject@@@ATL@@IEAA@XZ 0000000180007c10 f i POSKeyboard.obj
 0001:00006c30       ??0?$CComPtrBase@UIOleInPlaceUIWindow@@@ATL@@IEAA@XZ 0000000180007c30 f i POSKeyboard.obj
 0001:00006c50       ??0?$CComPtrBase@UIOleObject@@@ATL@@IEAA@XZ 0000000180007c50 f i POSKeyboard.obj
 0001:00006c70       ??0?$CComPtrBase@UIPersistStream@@@ATL@@IEAA@XZ 0000000180007c70 f i POSKeyboard.obj
 0001:00006c90       ??0?$CComPtrBase@UIPersistStreamInit@@@ATL@@IEAA@XZ 0000000180007c90 f i POSKeyboard.obj
 0001:00006cb0       ??0?$CComPtrBase@UIPointerInactive@@@ATL@@IEAA@XZ 0000000180007cb0 f i POSKeyboard.obj
 0001:00006cd0       ??0?$CComPtrBase@UIProvideClassInfo2@@@ATL@@IEAA@XZ 0000000180007cd0 f i POSKeyboard.obj
 0001:00006cf0       ??0?$CComPtrBase@UISpecifyPropertyPages@@@ATL@@IEAA@XZ 0000000180007cf0 f i POSKeyboard.obj
 0001:00006d10       ??0?$CComPtrBase@UIStream@@@ATL@@IEAA@XZ 0000000180007d10 f i POSKeyboard.obj
 0001:00006d30       ??0?$CComPtrBase@UITypeInfo2@@@ATL@@IEAA@XZ 0000000180007d30 f i POSKeyboard.obj
 0001:00006d50       ??0?$CComPtrBase@UITypeInfo@@@ATL@@IEAA@PEAUITypeInfo@@@Z 0000000180007d50 f i POSKeyboard.obj
 0001:00006db0       ??0?$CComPtrBase@UITypeInfo@@@ATL@@IEAA@XZ 0000000180007db0 f i POSKeyboard.obj
 0001:00006dd0       ??0?$CComPtrBase@UITypeLib@@@ATL@@IEAA@XZ 0000000180007dd0 f i POSKeyboard.obj
 0001:00006df0       ??0?$CComPtrBase@UIUnknown@@@ATL@@IEAA@PEAUIUnknown@@@Z 0000000180007df0 f i POSKeyboard.obj
 0001:00006e50       ??0?$CComPtrBase@UIUnknown@@@ATL@@IEAA@XZ 0000000180007e50 f i POSKeyboard.obj
 0001:00006e70       ??0?$CComPtrBase@UIViewObjectEx@@@ATL@@IEAA@XZ 0000000180007e70 f i POSKeyboard.obj
 0001:00006e90       ??0?$CComQIPtr@UIOleControlSite@@$1?_GUID_b196b289_bab4_101a_b69c_00aa00341d07@@3U__s_GUID@@B@ATL@@QEAA@PEAUIUnknown@@@Z 0000000180007e90 f i POSKeyboard.obj
 0001:00006f00       ??0?$CComQIPtr@UIOleObject@@$1?_GUID_00000112_0000_0000_c000_000000000046@@3U__s_GUID@@B@ATL@@QEAA@XZ 0000000180007f00 f i POSKeyboard.obj
 0001:00006f40       ??0?$CComQIPtr@UISpecifyPropertyPages@@$1?_GUID_b196b28b_bab4_101a_b69c_00aa00341d07@@3U__s_GUID@@B@ATL@@QEAA@XZ 0000000180007f40 f i POSKeyboard.obj
 0001:00006f80       ??0?$CSimpleMap@PEA_WPEA_WVCExpansionVectorEqualHelper@ATL@@@ATL@@QEAA@XZ 0000000180007f80 f i POSKeyboard.obj
 0001:00006fc0       ??0?$CTempBuffer@E$0BAA@VCCRTAllocator@ATL@@@ATL@@QEAA@XZ 0000000180007fc0 f i POSKeyboard.obj
 0001:00006fe0       ??0?$CTempBuffer@_W$0BAA@VCCRTAllocator@ATL@@@ATL@@QEAA@XZ 0000000180007fe0 f i POSKeyboard.obj
 0001:00007000       ??0?$CTempBuffer@_W$0EAA@VCCRTAllocator@ATL@@@ATL@@QEAA@XZ 0000000180008000 f i POSKeyboard.obj
 0001:00007020       ??0?$Wrapper@PEA_W@?$CSimpleMap@PEA_WPEA_WVCExpansionVectorEqualHelper@ATL@@@ATL@@QEAA@AEBQEA_W@Z 0000000180008020 f i POSKeyboard.obj
 0001:00007050       ??0CAtlModule@ATL@@QEAA@XZ 0000000180008050 f i POSKeyboard.obj
 0001:000071c0       ??0CComAutoDeleteCriticalSection@ATL@@QEAA@XZ 00000001800081c0 f i POSKeyboard.obj
 0001:00007200       ??0CComBSTR@ATL@@QEAA@XZ   0000000180008200 f i POSKeyboard.obj
 0001:00007220       ??0CComClassFactory@ATL@@QEAA@XZ 0000000180008220 f i POSKeyboard.obj
 0001:00007280       ??0CComModule@ATL@@QEAA@XZ 0000000180008280 f i POSKeyboard.obj
 0001:00007320       ??0CComObjectRootBase@ATL@@QEAA@XZ 0000000180008320 f i POSKeyboard.obj
 0001:00007340       ??0CComSafeDeleteCriticalSection@ATL@@QEAA@XZ 0000000180008340 f i POSKeyboard.obj
 0001:00007380       ??0CComVariant@ATL@@QEAA@XZ 0000000180008380 f i POSKeyboard.obj
 0001:000073d0       ??0CExpansionVector@ATL@@QEAA@XZ 00000001800083d0 f i POSKeyboard.obj
 0001:00007410       ??0CParseBuffer@CRegParser@ATL@@QEAA@H@Z 0000000180008410 f i POSKeyboard.obj
 0001:000074a0       ??0CRegKey@ATL@@QEAA@PEAUHKEY__@@@Z 00000001800084a0 f i POSKeyboard.obj
 0001:000074e0       ??0CRegKey@ATL@@QEAA@PEAVCAtlTransactionManager@1@@Z 00000001800084e0 f i POSKeyboard.obj
 0001:00007520       ??0CRegObject@ATL@@QEAA@XZ 0000000180008520 f i POSKeyboard.obj
 0001:00007580       ??0CRegParser@ATL@@QEAA@PEAVCRegObject@1@@Z 0000000180008580 f i POSKeyboard.obj
 0001:000075b0       ??0IClassFactory@@QEAA@XZ  00000001800085b0 f i POSKeyboard.obj
 0001:000075f0       ??0IEnumConnectionPoints@@QEAA@XZ 00000001800085f0 f i POSKeyboard.obj
 0001:00007630       ??0IEnumConnections@@QEAA@XZ 0000000180008630 f i POSKeyboard.obj
 0001:00007670       ??0IRegistrarBase@@QEAA@XZ 0000000180008670 f i POSKeyboard.obj
 0001:000076b0       ??0IUnknown@@QEAA@XZ       00000001800086b0 f i POSKeyboard.obj
 0001:000076c0       ??0ModuleLockHelper@ATL@@QEAA@XZ 00000001800086c0 f i POSKeyboard.obj
 0001:00007700       ??0OposVariant@@QEAA@XZ    0000000180008700 f i POSKeyboard.obj
 0001:00007720       ??0Wrapper@?$CSimpleArray@GV?$CSimpleArrayEqualHelper@G@ATL@@@ATL@@QEAA@AEBG@Z 0000000180008720 f i POSKeyboard.obj
 0001:00007750       ??0_ATL_MODULE70@ATL@@QEAA@XZ 0000000180008750 f i POSKeyboard.obj
 0001:00007790       ??0_ATL_MSG@ATL@@QEAA@PEAUHWND__@@I_K_JH@Z 0000000180008790 f i POSKeyboard.obj
 0001:00007820       ??0_U_MENUorID@ATL@@QEAA@I@Z 0000000180008820 f i POSKeyboard.obj
 0001:00007840       ??0_U_RECT@ATL@@QEAA@AEAUtagRECT@@@Z 0000000180008840 f i POSKeyboard.obj
 0001:00007860       ??0stringdispid@CComTypeInfoHolder@ATL@@QEAA@XZ 0000000180008860 f i POSKeyboard.obj
 0001:000078b0       ??1?$CAtlModuleT@VCComModule@ATL@@@ATL@@UEAA@XZ 00000001800088b0 f i POSKeyboard.obj
 0001:000078e0       ??1?$CAtlSafeAllocBufferManager@VCCRTAllocator@ATL@@@_ATL_SAFE_ALLOCA_IMPL@ATL@@QEAA@XZ 00000001800088e0 f i POSKeyboard.obj
 0001:00007940       ??1?$CAutoVectorPtr@_W@ATL@@QEAA@XZ 0000000180008940 f i POSKeyboard.obj
 0001:00007970       ??1?$CComAggObject@VCOPOSPOSKeyboard@@@ATL@@UEAA@XZ 0000000180008970 f i POSKeyboard.obj
 0001:000079f0       ??1?$CComContainedObject@VCOPOSPOSKeyboard@@@ATL@@UEAA@XZ 00000001800089f0 f i POSKeyboard.obj
 0001:00007a20       ??1?$CComCritSecLock@VCComCriticalSection@ATL@@@ATL@@QEAA@XZ 0000000180008a20 f i POSKeyboard.obj
 0001:00007a60       ??1?$CComEnum@UIEnumConnectionPoints@@$1?_GUID_b196b285_bab4_101a_b69c_00aa00341d07@@3U__s_GUID@@BPEAUIConnectionPoint@@V?$_CopyInterface@UIConnectionPoint@@@ATL@@VCComSingleThreadModel@6@@ATL@@UEAA@XZ 0000000180008a60 f i POSKeyboard.obj
 0001:00007aa0       ??1?$CComEnum@UIEnumConnections@@$1?_GUID_b196b287_bab4_101a_b69c_00aa00341d07@@3U__s_GUID@@BUtagCONNECTDATA@@V?$_Copy@UtagCONNECTDATA@@@ATL@@VCComSingleThreadModel@6@@ATL@@UEAA@XZ 0000000180008aa0 f i POSKeyboard.obj
 0001:00007ae0       ??1?$CComEnumImpl@UIEnumConnectionPoints@@$1?_GUID_b196b285_bab4_101a_b69c_00aa00341d07@@3U__s_GUID@@BPEAUIConnectionPoint@@V?$_CopyInterface@UIConnectionPoint@@@ATL@@@ATL@@UEAA@XZ 0000000180008ae0 f i POSKeyboard.obj
 0001:00007b80       ??1?$CComEnumImpl@UIEnumConnections@@$1?_GUID_b196b287_bab4_101a_b69c_00aa00341d07@@3U__s_GUID@@BUtagCONNECTDATA@@V?$_Copy@UtagCONNECTDATA@@@ATL@@@ATL@@UEAA@XZ 0000000180008b80 f i POSKeyboard.obj
 0001:00007c20       ??1?$CComObject@V?$CComEnum@UIEnumConnectionPoints@@$1?_GUID_b196b285_bab4_101a_b69c_00aa00341d07@@3U__s_GUID@@BPEAUIConnectionPoint@@V?$_CopyInterface@UIConnectionPoint@@@ATL@@VCComSingleThreadModel@6@@ATL@@@ATL@@UEAA@XZ 0000000180008c20 f i POSKeyboard.obj
 0001:00007c90       ??1?$CComObject@V?$CComEnum@UIEnumConnections@@$1?_GUID_b196b287_bab4_101a_b69c_00aa00341d07@@3U__s_GUID@@BUtagCONNECTDATA@@V?$_Copy@UtagCONNECTDATA@@@ATL@@VCComSingleThreadModel@6@@ATL@@@ATL@@UEAA@XZ 0000000180008c90 f i POSKeyboard.obj
 0001:00007d00       ??1?$CComObject@VCOPOSPOSKeyboard@@@ATL@@UEAA@XZ 0000000180008d00 f i POSKeyboard.obj
 0001:00007eb0       ??1?$CComObjectCached@VCComClassFactory@ATL@@@ATL@@UEAA@XZ 0000000180008eb0 f i POSKeyboard.obj
 0001:00007f10       ??1?$CComObjectRootEx@VCComMultiThreadModel@ATL@@@ATL@@QEAA@XZ 0000000180008f10 f i POSKeyboard.obj
 0001:00007f50       ??1?$CComObjectRootEx@VCComSingleThreadModel@ATL@@@ATL@@QEAA@XZ 0000000180008f50 f i POSKeyboard.obj
 0001:00007f80       ??1?$CComPtr@UIAdviseSink@@@ATL@@QEAA@XZ 0000000180008f80 f i POSKeyboard.obj
 0001:00007fb0       ??1?$CComPtr@UICatRegister@@@ATL@@QEAA@XZ 0000000180008fb0 f i POSKeyboard.obj
 0001:00007fe0       ??1?$CComPtr@UIConnectionPoint@@@ATL@@QEAA@XZ 0000000180008fe0 f i POSKeyboard.obj
 0001:00008010       ??1?$CComPtr@UIConnectionPointContainer@@@ATL@@QEAA@XZ 0000000180009010 f i POSKeyboard.obj
 0001:00008040       ??1?$CComPtr@UIDataObject@@@ATL@@QEAA@XZ 0000000180009040 f i POSKeyboard.obj
 0001:00008070       ??1?$CComPtr@UIDispatch@@@ATL@@QEAA@XZ 0000000180009070 f i POSKeyboard.obj
 0001:000080a0       ??1?$CComPtr@UIOleClientSite@@@ATL@@QEAA@XZ 00000001800090a0 f i POSKeyboard.obj
 0001:000080d0       ??1?$CComPtr@UIOleControlSite@@@ATL@@QEAA@XZ 00000001800090d0 f i POSKeyboard.obj
 0001:00008100       ??1?$CComPtr@UIOleInPlaceActiveObject@@@ATL@@QEAA@XZ 0000000180009100 f i POSKeyboard.obj
 0001:00008130       ??1?$CComPtr@UIOleInPlaceFrame@@@ATL@@QEAA@XZ 0000000180009130 f i POSKeyboard.obj
 0001:00008160       ??1?$CComPtr@UIOleInPlaceObject@@@ATL@@QEAA@XZ 0000000180009160 f i POSKeyboard.obj
 0001:00008190       ??1?$CComPtr@UIOleInPlaceUIWindow@@@ATL@@QEAA@XZ 0000000180009190 f i POSKeyboard.obj
 0001:000081c0       ??1?$CComPtr@UIOleObject@@@ATL@@QEAA@XZ 00000001800091c0 f i POSKeyboard.obj
 0001:000081f0       ??1?$CComPtr@UIPersistStream@@@ATL@@QEAA@XZ 00000001800091f0 f i POSKeyboard.obj
 0001:00008220       ??1?$CComPtr@UIPersistStreamInit@@@ATL@@QEAA@XZ 0000000180009220 f i POSKeyboard.obj
 0001:00008250       ??1?$CComPtr@UIPointerInactive@@@ATL@@QEAA@XZ 0000000180009250 f i POSKeyboard.obj
 0001:00008280       ??1?$CComPtr@UIProvideClassInfo2@@@ATL@@QEAA@XZ 0000000180009280 f i POSKeyboard.obj
 0001:000082b0       ??1?$CComPtr@UISpecifyPropertyPages@@@ATL@@QEAA@XZ 00000001800092b0 f i POSKeyboard.obj
 0001:000082e0       ??1?$CComPtr@UIStream@@@ATL@@QEAA@XZ 00000001800092e0 f i POSKeyboard.obj
 0001:00008310       ??1?$CComPtr@UITypeInfo2@@@ATL@@QEAA@XZ 0000000180009310 f i POSKeyboard.obj
 0001:00008340       ??1?$CComPtr@UITypeInfo@@@ATL@@QEAA@XZ 0000000180009340 f i POSKeyboard.obj
 0001:00008370       ??1?$CComPtr@UITypeLib@@@ATL@@QEAA@XZ 0000000180009370 f i POSKeyboard.obj
 0001:000083a0       ??1?$CComPtr@UIUnknown@@@ATL@@QEAA@XZ 00000001800093a0 f i POSKeyboard.obj
 0001:000083d0       ??1?$CComPtr@UIViewObjectEx@@@ATL@@QEAA@XZ 00000001800093d0 f i POSKeyboard.obj
 0001:00008400       ??1?$CComPtrBase@UIAdviseSink@@@ATL@@QEAA@XZ 0000000180009400 f i POSKeyboard.obj
 0001:00008450       ??1?$CComPtrBase@UICatRegister@@@ATL@@QEAA@XZ 0000000180009450 f i POSKeyboard.obj
 0001:000084a0       ??1?$CComPtrBase@UIConnectionPoint@@@ATL@@QEAA@XZ 00000001800094a0 f i POSKeyboard.obj
 0001:000084f0       ??1?$CComPtrBase@UIConnectionPointContainer@@@ATL@@QEAA@XZ 00000001800094f0 f i POSKeyboard.obj
 0001:00008540       ??1?$CComPtrBase@UIDataObject@@@ATL@@QEAA@XZ 0000000180009540 f i POSKeyboard.obj
 0001:00008590       ??1?$CComPtrBase@UIDispatch@@@ATL@@QEAA@XZ 0000000180009590 f i POSKeyboard.obj
 0001:000085e0       ??1?$CComPtrBase@UIOleClientSite@@@ATL@@QEAA@XZ 00000001800095e0 f i POSKeyboard.obj
 0001:00008630       ??1?$CComPtrBase@UIOleControlSite@@@ATL@@QEAA@XZ 0000000180009630 f i POSKeyboard.obj
 0001:00008680       ??1?$CComPtrBase@UIOleInPlaceActiveObject@@@ATL@@QEAA@XZ 0000000180009680 f i POSKeyboard.obj
 0001:000086d0       ??1?$CComPtrBase@UIOleInPlaceFrame@@@ATL@@QEAA@XZ 00000001800096d0 f i POSKeyboard.obj
 0001:00008720       ??1?$CComPtrBase@UIOleInPlaceObject@@@ATL@@QEAA@XZ 0000000180009720 f i POSKeyboard.obj
 0001:00008770       ??1?$CComPtrBase@UIOleInPlaceUIWindow@@@ATL@@QEAA@XZ 0000000180009770 f i POSKeyboard.obj
 0001:000087c0       ??1?$CComPtrBase@UIOleObject@@@ATL@@QEAA@XZ 00000001800097c0 f i POSKeyboard.obj
 0001:00008810       ??1?$CComPtrBase@UIPersistStream@@@ATL@@QEAA@XZ 0000000180009810 f i POSKeyboard.obj
 0001:00008860       ??1?$CComPtrBase@UIPersistStreamInit@@@ATL@@QEAA@XZ 0000000180009860 f i POSKeyboard.obj
 0001:000088b0       ??1?$CComPtrBase@UIPointerInactive@@@ATL@@QEAA@XZ 00000001800098b0 f i POSKeyboard.obj
 0001:00008900       ??1?$CComPtrBase@UIProvideClassInfo2@@@ATL@@QEAA@XZ 0000000180009900 f i POSKeyboard.obj
 0001:00008950       ??1?$CComPtrBase@UISpecifyPropertyPages@@@ATL@@QEAA@XZ 0000000180009950 f i POSKeyboard.obj
 0001:000089a0       ??1?$CComPtrBase@UIStream@@@ATL@@QEAA@XZ 00000001800099a0 f i POSKeyboard.obj
 0001:000089f0       ??1?$CComPtrBase@UITypeInfo2@@@ATL@@QEAA@XZ 00000001800099f0 f i POSKeyboard.obj
 0001:00008a40       ??1?$CComPtrBase@UITypeInfo@@@ATL@@QEAA@XZ 0000000180009a40 f i POSKeyboard.obj
 0001:00008a90       ??1?$CComPtrBase@UITypeLib@@@ATL@@QEAA@XZ 0000000180009a90 f i POSKeyboard.obj
 0001:00008ae0       ??1?$CComPtrBase@UIUnknown@@@ATL@@QEAA@XZ 0000000180009ae0 f i POSKeyboard.obj
 0001:00008b30       ??1?$CComPtrBase@UIViewObjectEx@@@ATL@@QEAA@XZ 0000000180009b30 f i POSKeyboard.obj
 0001:00008b80       ??1?$CComQIPtr@UIOleControlSite@@$1?_GUID_b196b289_bab4_101a_b69c_00aa00341d07@@3U__s_GUID@@B@ATL@@QEAA@XZ 0000000180009b80 f i POSKeyboard.obj
 0001:00008bb0       ??1?$CComQIPtr@UIOleObject@@$1?_GUID_00000112_0000_0000_c000_000000000046@@3U__s_GUID@@B@ATL@@QEAA@XZ 0000000180009bb0 f i POSKeyboard.obj
 0001:00008be0       ??1?$CComQIPtr@UISpecifyPropertyPages@@$1?_GUID_b196b28b_bab4_101a_b69c_00aa00341d07@@3U__s_GUID@@B@ATL@@QEAA@XZ 0000000180009be0 f i POSKeyboard.obj
 0001:00008c10       ??1?$CSimpleMap@PEA_WPEA_WVCExpansionVectorEqualHelper@ATL@@@ATL@@QEAA@XZ 0000000180009c10 f i POSKeyboard.obj
 0001:00008c40       ??1?$CTempBuffer@E$0BAA@VCCRTAllocator@ATL@@@ATL@@QEAA@XZ 0000000180009c40 f i POSKeyboard.obj
 0001:00008c90       ??1?$CTempBuffer@_W$0BAA@VCCRTAllocator@ATL@@@ATL@@QEAA@XZ 0000000180009c90 f i POSKeyboard.obj
 0001:00008ce0       ??1?$CTempBuffer@_W$0EAA@VCCRTAllocator@ATL@@@ATL@@QEAA@XZ 0000000180009ce0 f i POSKeyboard.obj
 0001:00008d30       ??1CAtlModule@ATL@@UEAA@XZ 0000000180009d30 f i POSKeyboard.obj
 0001:00008d70       ??1CComAutoDeleteCriticalSection@ATL@@QEAA@XZ 0000000180009d70 f i POSKeyboard.obj
 0001:00008da0       ??1CComClassFactory@ATL@@UEAA@XZ 0000000180009da0 f i POSKeyboard.obj
 0001:00008df0       ??1CComModule@ATL@@UEAA@XZ 0000000180009df0 f i POSKeyboard.obj
 0001:00008e30       ??1CComObjectRootBase@ATL@@QEAA@XZ 0000000180009e30 f i POSKeyboard.obj
 0001:00008e40       ??1CComSafeDeleteCriticalSection@ATL@@QEAA@XZ 0000000180009e40 f i POSKeyboard.obj
 0001:00008e90       ??1CComVariant@ATL@@QEAA@XZ 0000000180009e90 f i POSKeyboard.obj
 0001:00008f10       ??1CExpansionVector@ATL@@QEAA@XZ 0000000180009f10 f i POSKeyboard.obj
 0001:00008f50       ??1CParseBuffer@CRegParser@ATL@@QEAA@XZ 0000000180009f50 f i POSKeyboard.obj
 0001:00008f90       ??1CRegKey@ATL@@QEAA@XZ    0000000180009f90 f i POSKeyboard.obj
 0001:00008fc0       ??1CRegObject@ATL@@UEAA@XZ 0000000180009fc0 f i POSKeyboard.obj
 0001:00009010       ??1ModuleLockHelper@ATL@@QEAA@XZ 000000018000a010 f i POSKeyboard.obj
 0001:00009050       ??1OposVariant@@QEAA@XZ    000000018000a050 f i POSKeyboard.obj
 0001:00009090       ??1_ATL_MODULE70@ATL@@QEAA@XZ 000000018000a090 f i POSKeyboard.obj
 0001:000090d0       ??4?$CComPtr@UIAdviseSink@@@ATL@@QEAAPEAUIAdviseSink@@PEAU2@@Z 000000018000a0d0 f i POSKeyboard.obj
 0001:00009140       ??4?$CComPtr@UIOleClientSite@@@ATL@@QEAAPEAUIOleClientSite@@PEAU2@@Z 000000018000a140 f i POSKeyboard.obj
 0001:000091b0       ??4?$CComPtr@UIUnknown@@@ATL@@QEAAPEAUIUnknown@@PEAU2@@Z 000000018000a1b0 f i POSKeyboard.obj
 0001:00009220       ??4?$CComQIPtr@UIOleObject@@$1?_GUID_00000112_0000_0000_c000_000000000046@@3U__s_GUID@@B@ATL@@QEAAPEAUIOleObject@@PEAUIUnknown@@@Z 000000018000a220 f i POSKeyboard.obj
 0001:00009280       ??4?$CComQIPtr@UISpecifyPropertyPages@@$1?_GUID_b196b28b_bab4_101a_b69c_00aa00341d07@@3U__s_GUID@@B@ATL@@QEAAPEAUISpecifyPropertyPages@@PEAUIUnknown@@@Z 000000018000a280 f i POSKeyboard.obj
 0001:000092e0       ??7?$CComPtrBase@UIOleClientSite@@@ATL@@QEBA_NXZ 000000018000a2e0 f i POSKeyboard.obj
 0001:00009330       ??7?$CComPtrBase@UIOleInPlaceSiteWindowless@@@ATL@@QEBA_NXZ 000000018000a330 f i POSKeyboard.obj
 0001:00009380       ??7CComBSTR@ATL@@QEBA_NXZ  000000018000a380 f i POSKeyboard.obj
 0001:000093d0       ??8?$CComPtrBase@UIAdviseSink@@@ATL@@QEBA_NPEAUIAdviseSink@@@Z 000000018000a3d0 f i POSKeyboard.obj
 0001:00009420       ??8?$CComPtrBase@UIConnectionPointContainer@@@ATL@@QEBA_NPEAUIConnectionPointContainer@@@Z 000000018000a420 f i POSKeyboard.obj
 0001:00009470       ??8?$CComPtrBase@UIDataAdviseHolder@@@ATL@@QEBA_NPEAUIDataAdviseHolder@@@Z 000000018000a470 f i POSKeyboard.obj
 0001:000094c0       ??8?$CComPtrBase@UIOleAdviseHolder@@@ATL@@QEBA_NPEAUIOleAdviseHolder@@@Z 000000018000a4c0 f i POSKeyboard.obj
 0001:00009510       ??8?$CComPtrBase@UIOleClientSite@@@ATL@@QEBA_NPEAUIOleClientSite@@@Z 000000018000a510 f i POSKeyboard.obj
 0001:00009560       ??8?$CComPtrBase@UIOleControlSite@@@ATL@@QEBA_NPEAUIOleControlSite@@@Z 000000018000a560 f i POSKeyboard.obj
 0001:000095b0       ??8?$CComPtrBase@UIOleInPlaceObject@@@ATL@@QEBA_NPEAUIOleInPlaceObject@@@Z 000000018000a5b0 f i POSKeyboard.obj
 0001:00009600       ??8?$CComPtrBase@UIOleInPlaceSiteWindowless@@@ATL@@QEBA_NPEAUIOleInPlaceSiteWindowless@@@Z 000000018000a600 f i POSKeyboard.obj
 0001:00009650       ??8?$CComPtrBase@UIOleObject@@@ATL@@QEBA_NPEAUIOleObject@@@Z 000000018000a650 f i POSKeyboard.obj
 0001:000096a0       ??8?$CComPtrBase@UIPersistStream@@@ATL@@QEBA_NPEAUIPersistStream@@@Z 000000018000a6a0 f i POSKeyboard.obj
 0001:000096f0       ??8?$CComPtrBase@UIPersistStreamInit@@@ATL@@QEBA_NPEAUIPersistStreamInit@@@Z 000000018000a6f0 f i POSKeyboard.obj
 0001:00009740       ??8?$CComPtrBase@UIPointerInactive@@@ATL@@QEBA_NPEAUIPointerInactive@@@Z 000000018000a740 f i POSKeyboard.obj
 0001:00009790       ??8?$CComPtrBase@UIUnknown@@@ATL@@QEBA_NPEAUIUnknown@@@Z 000000018000a790 f i POSKeyboard.obj
 0001:000097e0       ??8?$CComPtrBase@UIViewObjectEx@@@ATL@@QEBA_NPEAUIViewObjectEx@@@Z 000000018000a7e0 f i POSKeyboard.obj
 0001:00009830       ??8CComBSTR@ATL@@QEBA_NH@Z 000000018000a830 f i POSKeyboard.obj
 0001:000098b0       ??9?$CComPtrBase@UIAdviseSink@@@ATL@@QEBA_NPEAUIAdviseSink@@@Z 000000018000a8b0 f i POSKeyboard.obj
 0001:00009910       ??9?$CComPtrBase@UIConnectionPointContainer@@@ATL@@QEBA_NPEAUIConnectionPointContainer@@@Z 000000018000a910 f i POSKeyboard.obj
 0001:00009970       ??9?$CComPtrBase@UIDataAdviseHolder@@@ATL@@QEBA_NPEAUIDataAdviseHolder@@@Z 000000018000a970 f i POSKeyboard.obj
 0001:000099d0       ??9?$CComPtrBase@UIOleAdviseHolder@@@ATL@@QEBA_NPEAUIOleAdviseHolder@@@Z 000000018000a9d0 f i POSKeyboard.obj
 0001:00009a30       ??9?$CComPtrBase@UIOleClientSite@@@ATL@@QEBA_NPEAUIOleClientSite@@@Z 000000018000aa30 f i POSKeyboard.obj
 0001:00009a90       ??9?$CComPtrBase@UIOleControlSite@@@ATL@@QEBA_NPEAUIOleControlSite@@@Z 000000018000aa90 f i POSKeyboard.obj
 0001:00009af0       ??9?$CComPtrBase@UIOleInPlaceObject@@@ATL@@QEBA_NPEAUIOleInPlaceObject@@@Z 000000018000aaf0 f i POSKeyboard.obj
 0001:00009b50       ??9?$CComPtrBase@UIOleInPlaceSiteWindowless@@@ATL@@QEBA_NPEAUIOleInPlaceSiteWindowless@@@Z 000000018000ab50 f i POSKeyboard.obj
 0001:00009bb0       ??9?$CComPtrBase@UIOleObject@@@ATL@@QEBA_NPEAUIOleObject@@@Z 000000018000abb0 f i POSKeyboard.obj
 0001:00009c10       ??9?$CComPtrBase@UIPersistStream@@@ATL@@QEBA_NPEAUIPersistStream@@@Z 000000018000ac10 f i POSKeyboard.obj
 0001:00009c70       ??9?$CComPtrBase@UIPersistStreamInit@@@ATL@@QEBA_NPEAUIPersistStreamInit@@@Z 000000018000ac70 f i POSKeyboard.obj
 0001:00009cd0       ??9?$CComPtrBase@UIPointerInactive@@@ATL@@QEBA_NPEAUIPointerInactive@@@Z 000000018000acd0 f i POSKeyboard.obj
 0001:00009d30       ??9?$CComPtrBase@UIUnknown@@@ATL@@QEBA_NPEAUIUnknown@@@Z 000000018000ad30 f i POSKeyboard.obj
 0001:00009d90       ??9?$CComPtrBase@UIViewObjectEx@@@ATL@@QEBA_NPEAUIViewObjectEx@@@Z 000000018000ad90 f i POSKeyboard.obj
 0001:00009df0       ??9CComBSTR@ATL@@QEBA_NH@Z 000000018000adf0 f i POSKeyboard.obj
 0001:00009e50       ??B?$CComPtrBase@UIAdviseSink@@@ATL@@QEBAPEAUIAdviseSink@@XZ 000000018000ae50 f i POSKeyboard.obj
 0001:00009e60       ??B?$CComPtrBase@UIDataAdviseHolder@@@ATL@@QEBAPEAUIDataAdviseHolder@@XZ 000000018000ae60 f i POSKeyboard.obj
 0001:00009e70       ??B?$CComPtrBase@UIDataObject@@@ATL@@QEBAPEAUIDataObject@@XZ 000000018000ae70 f i POSKeyboard.obj
 0001:00009e80       ??B?$CComPtrBase@UIOleAdviseHolder@@@ATL@@QEBAPEAUIOleAdviseHolder@@XZ 000000018000ae80 f i POSKeyboard.obj
 0001:00009e90       ??B?$CComPtrBase@UIOleClientSite@@@ATL@@QEBAPEAUIOleClientSite@@XZ 000000018000ae90 f i POSKeyboard.obj
 0001:00009ea0       ??B?$CComPtrBase@UIOleControlSite@@@ATL@@QEBAPEAUIOleControlSite@@XZ 000000018000aea0 f i POSKeyboard.obj
 0001:00009eb0       ??B?$CComPtrBase@UIOleInPlaceActiveObject@@@ATL@@QEBAPEAUIOleInPlaceActiveObject@@XZ 000000018000aeb0 f i POSKeyboard.obj
 0001:00009ec0       ??B?$CComPtrBase@UIOleInPlaceFrame@@@ATL@@QEBAPEAUIOleInPlaceFrame@@XZ 000000018000aec0 f i POSKeyboard.obj
 0001:00009ed0       ??B?$CComPtrBase@UIOleInPlaceSiteWindowless@@@ATL@@QEBAPEAUIOleInPlaceSiteWindowless@@XZ 000000018000aed0 f i POSKeyboard.obj
 0001:00009ee0       ??B?$CComPtrBase@UIOleInPlaceUIWindow@@@ATL@@QEBAPEAUIOleInPlaceUIWindow@@XZ 000000018000aee0 f i POSKeyboard.obj
 0001:00009ef0       ??B?$CComPtrBase@UIOleObject@@@ATL@@QEBAPEAUIOleObject@@XZ 000000018000aef0 f i POSKeyboard.obj
 0001:00009f00       ??B?$CComPtrBase@UIPersistStream@@@ATL@@QEBAPEAUIPersistStream@@XZ 000000018000af00 f i POSKeyboard.obj
 0001:00009f10       ??B?$CComPtrBase@UIProvideClassInfo2@@@ATL@@QEBAPEAUIProvideClassInfo2@@XZ 000000018000af10 f i POSKeyboard.obj
 0001:00009f20       ??B?$CComPtrBase@UISpecifyPropertyPages@@@ATL@@QEBAPEAUISpecifyPropertyPages@@XZ 000000018000af20 f i POSKeyboard.obj
 0001:00009f30       ??B?$CComPtrBase@UIStream@@@ATL@@QEBAPEAUIStream@@XZ 000000018000af30 f i POSKeyboard.obj
 0001:00009f40       ??B?$CComPtrBase@UITypeInfo2@@@ATL@@QEBAPEAUITypeInfo2@@XZ 000000018000af40 f i POSKeyboard.obj
 0001:00009f50       ??B?$CComPtrBase@UITypeInfo@@@ATL@@QEBAPEAUITypeInfo@@XZ 000000018000af50 f i POSKeyboard.obj
 0001:00009f60       ??B?$CComPtrBase@UITypeLib@@@ATL@@QEBAPEAUITypeLib@@XZ 000000018000af60 f i POSKeyboard.obj
 0001:00009f70       ??B?$CComPtrBase@UIUnknown@@@ATL@@QEBAPEAUIUnknown@@XZ 000000018000af70 f i POSKeyboard.obj
 0001:00009f80       ??B?$CTempBuffer@E$0BAA@VCCRTAllocator@ATL@@@ATL@@QEBAPEAEXZ 000000018000af80 f i POSKeyboard.obj
 0001:00009f90       ??B?$CTempBuffer@_W$0BAA@VCCRTAllocator@ATL@@@ATL@@QEBAPEA_WXZ 000000018000af90 f i POSKeyboard.obj
 0001:00009fa0       ??B?$CTempBuffer@_W$0EAA@VCCRTAllocator@ATL@@@ATL@@QEBAPEA_WXZ 000000018000afa0 f i POSKeyboard.obj
 0001:00009fb0       ??B?$CTraceCategoryEx@$00$0A@@ATL@@QEAAIXZ 000000018000afb0 f i POSKeyboard.obj
 0001:00009fc0       ??B?$CTraceCategoryEx@$07$0A@@ATL@@QEAAIXZ 000000018000afc0 f i POSKeyboard.obj
 0001:00009fd0       ??B?$CTraceCategoryEx@$0CAAA@$0A@@ATL@@QEAAIXZ 000000018000afd0 f i POSKeyboard.obj
 0001:00009fe0       ??B?$CTraceCategoryEx@$0EA@$0A@@ATL@@QEAAIXZ 000000018000afe0 f i POSKeyboard.obj
 0001:00009ff0       ??B?$CTraceCategoryEx@$0IAA@$0A@@ATL@@QEAAIXZ 000000018000aff0 f i POSKeyboard.obj
 0001:0000a000       ??BCComBSTR@ATL@@QEBAPEA_WXZ 000000018000b000 f i POSKeyboard.obj
 0001:0000a010       ??BCRegKey@ATL@@QEBAPEAUHKEY__@@XZ 000000018000b010 f i POSKeyboard.obj
 0001:0000a020       ??C?$CComPtrBase@UIAdviseSink@@@ATL@@QEBAPEAV?$_NoAddRefReleaseOnCComPtr@UIAdviseSink@@@1@XZ 000000018000b020 f i POSKeyboard.obj
 0001:0000a0a0       ??C?$CComPtrBase@UICatRegister@@@ATL@@QEBAPEAV?$_NoAddRefReleaseOnCComPtr@UICatRegister@@@1@XZ 000000018000b0a0 f i POSKeyboard.obj
 0001:0000a120       ??C?$CComPtrBase@UIConnectionPoint@@@ATL@@QEBAPEAV?$_NoAddRefReleaseOnCComPtr@UIConnectionPoint@@@1@XZ 000000018000b120 f i POSKeyboard.obj
 0001:0000a1a0       ??C?$CComPtrBase@UIConnectionPointContainer@@@ATL@@QEBAPEAV?$_NoAddRefReleaseOnCComPtr@UIConnectionPointContainer@@@1@XZ 000000018000b1a0 f i POSKeyboard.obj
 0001:0000a220       ??C?$CComPtrBase@UIDataAdviseHolder@@@ATL@@QEBAPEAV?$_NoAddRefReleaseOnCComPtr@UIDataAdviseHolder@@@1@XZ 000000018000b220 f i POSKeyboard.obj
 0001:0000a2a0       ??C?$CComPtrBase@UIOleAdviseHolder@@@ATL@@QEBAPEAV?$_NoAddRefReleaseOnCComPtr@UIOleAdviseHolder@@@1@XZ 000000018000b2a0 f i POSKeyboard.obj
 0001:0000a320       ??C?$CComPtrBase@UIOleClientSite@@@ATL@@QEBAPEAV?$_NoAddRefReleaseOnCComPtr@UIOleClientSite@@@1@XZ 000000018000b320 f i POSKeyboard.obj
 0001:0000a3a0       ??C?$CComPtrBase@UIOleControlSite@@@ATL@@QEBAPEAV?$_NoAddRefReleaseOnCComPtr@UIOleControlSite@@@1@XZ 000000018000b3a0 f i POSKeyboard.obj
 0001:0000a420       ??C?$CComPtrBase@UIOleInPlaceFrame@@@ATL@@QEBAPEAV?$_NoAddRefReleaseOnCComPtr@UIOleInPlaceFrame@@@1@XZ 000000018000b420 f i POSKeyboard.obj
 0001:0000a4a0       ??C?$CComPtrBase@UIOleInPlaceObject@@@ATL@@QEBAPEAV?$_NoAddRefReleaseOnCComPtr@UIOleInPlaceObject@@@1@XZ 000000018000b4a0 f i POSKeyboard.obj
 0001:0000a520       ??C?$CComPtrBase@UIOleInPlaceSiteWindowless@@@ATL@@QEBAPEAV?$_NoAddRefReleaseOnCComPtr@UIOleInPlaceSiteWindowless@@@1@XZ 000000018000b520 f i POSKeyboard.obj
 0001:0000a5a0       ??C?$CComPtrBase@UIOleInPlaceUIWindow@@@ATL@@QEBAPEAV?$_NoAddRefReleaseOnCComPtr@UIOleInPlaceUIWindow@@@1@XZ 000000018000b5a0 f i POSKeyboard.obj
 0001:0000a620       ??C?$CComPtrBase@UIOleObject@@@ATL@@QEBAPEAV?$_NoAddRefReleaseOnCComPtr@UIOleObject@@@1@XZ 000000018000b620 f i POSKeyboard.obj
 0001:0000a6a0       ??C?$CComPtrBase@UIPersistStream@@@ATL@@QEBAPEAV?$_NoAddRefReleaseOnCComPtr@UIPersistStream@@@1@XZ 000000018000b6a0 f i POSKeyboard.obj
 0001:0000a720       ??C?$CComPtrBase@UIPersistStreamInit@@@ATL@@QEBAPEAV?$_NoAddRefReleaseOnCComPtr@UIPersistStreamInit@@@1@XZ 000000018000b720 f i POSKeyboard.obj
 0001:0000a7a0       ??C?$CComPtrBase@UIPointerInactive@@@ATL@@QEBAPEAV?$_NoAddRefReleaseOnCComPtr@UIPointerInactive@@@1@XZ 000000018000b7a0 f i POSKeyboard.obj
 0001:0000a820       ??C?$CComPtrBase@UIProvideClassInfo2@@@ATL@@QEBAPEAV?$_NoAddRefReleaseOnCComPtr@UIProvideClassInfo2@@@1@XZ 000000018000b820 f i POSKeyboard.obj
 0001:0000a8a0       ??C?$CComPtrBase@UISpecifyPropertyPages@@@ATL@@QEBAPEAV?$_NoAddRefReleaseOnCComPtr@UISpecifyPropertyPages@@@1@XZ 000000018000b8a0 f i POSKeyboard.obj
 0001:0000a920       ??C?$CComPtrBase@UITypeInfo@@@ATL@@QEBAPEAV?$_NoAddRefReleaseOnCComPtr@UITypeInfo@@@1@XZ 000000018000b920 f i POSKeyboard.obj
 0001:0000a9a0       ??C?$CComPtrBase@UITypeLib@@@ATL@@QEBAPEAV?$_NoAddRefReleaseOnCComPtr@UITypeLib@@@1@XZ 000000018000b9a0 f i POSKeyboard.obj
 0001:0000aa20       ??C?$CComPtrBase@UIUnknown@@@ATL@@QEBAPEAV?$_NoAddRefReleaseOnCComPtr@UIUnknown@@@1@XZ 000000018000ba20 f i POSKeyboard.obj
 0001:0000aaa0       ??C?$CComPtrBase@UIViewObjectEx@@@ATL@@QEBAPEAV?$_NoAddRefReleaseOnCComPtr@UIViewObjectEx@@@1@XZ 000000018000baa0 f i POSKeyboard.obj
 0001:0000ab20       ??I?$CComPtrBase@UICatRegister@@@ATL@@QEAAPEAPEAUICatRegister@@XZ 000000018000bb20 f i POSKeyboard.obj
 0001:0000ab90       ??I?$CComPtrBase@UIConnectionPoint@@@ATL@@QEAAPEAPEAUIConnectionPoint@@XZ 000000018000bb90 f i POSKeyboard.obj
 0001:0000ac00       ??I?$CComPtrBase@UIConnectionPointContainer@@@ATL@@QEAAPEAPEAUIConnectionPointContainer@@XZ 000000018000bc00 f i POSKeyboard.obj
 0001:0000ac70       ??I?$CComPtrBase@UIDataAdviseHolder@@@ATL@@QEAAPEAPEAUIDataAdviseHolder@@XZ 000000018000bc70 f i POSKeyboard.obj
 0001:0000ace0       ??I?$CComPtrBase@UIDataObject@@@ATL@@QEAAPEAPEAUIDataObject@@XZ 000000018000bce0 f i POSKeyboard.obj
 0001:0000ad50       ??I?$CComPtrBase@UIDispatch@@@ATL@@QEAAPEAPEAUIDispatch@@XZ 000000018000bd50 f i POSKeyboard.obj
 0001:0000adc0       ??I?$CComPtrBase@UIOleAdviseHolder@@@ATL@@QEAAPEAPEAUIOleAdviseHolder@@XZ 000000018000bdc0 f i POSKeyboard.obj
 0001:0000ae30       ??I?$CComPtrBase@UIOleControlSite@@@ATL@@QEAAPEAPEAUIOleControlSite@@XZ 000000018000be30 f i POSKeyboard.obj
 0001:0000aea0       ??I?$CComPtrBase@UIOleInPlaceActiveObject@@@ATL@@QEAAPEAPEAUIOleInPlaceActiveObject@@XZ 000000018000bea0 f i POSKeyboard.obj
 0001:0000af10       ??I?$CComPtrBase@UIOleInPlaceFrame@@@ATL@@QEAAPEAPEAUIOleInPlaceFrame@@XZ 000000018000bf10 f i POSKeyboard.obj
 0001:0000af80       ??I?$CComPtrBase@UIOleInPlaceObject@@@ATL@@QEAAPEAPEAUIOleInPlaceObject@@XZ 000000018000bf80 f i POSKeyboard.obj
 0001:0000aff0       ??I?$CComPtrBase@UIOleInPlaceSiteWindowless@@@ATL@@QEAAPEAPEAUIOleInPlaceSiteWindowless@@XZ 000000018000bff0 f i POSKeyboard.obj
 0001:0000b060       ??I?$CComPtrBase@UIOleInPlaceUIWindow@@@ATL@@QEAAPEAPEAUIOleInPlaceUIWindow@@XZ 000000018000c060 f i POSKeyboard.obj
 0001:0000b0d0       ??I?$CComPtrBase@UIOleObject@@@ATL@@QEAAPEAPEAUIOleObject@@XZ 000000018000c0d0 f i POSKeyboard.obj
 0001:0000b140       ??I?$CComPtrBase@UIPersistStream@@@ATL@@QEAAPEAPEAUIPersistStream@@XZ 000000018000c140 f i POSKeyboard.obj
 0001:0000b1b0       ??I?$CComPtrBase@UIPointerInactive@@@ATL@@QEAAPEAPEAUIPointerInactive@@XZ 000000018000c1b0 f i POSKeyboard.obj
 0001:0000b220       ??I?$CComPtrBase@UIProvideClassInfo2@@@ATL@@QEAAPEAPEAUIProvideClassInfo2@@XZ 000000018000c220 f i POSKeyboard.obj
 0001:0000b290       ??I?$CComPtrBase@UIStream@@@ATL@@QEAAPEAPEAUIStream@@XZ 000000018000c290 f i POSKeyboard.obj
 0001:0000b300       ??I?$CComPtrBase@UITypeInfo2@@@ATL@@QEAAPEAPEAUITypeInfo2@@XZ 000000018000c300 f i POSKeyboard.obj
 0001:0000b370       ??I?$CComPtrBase@UITypeInfo@@@ATL@@QEAAPEAPEAUITypeInfo@@XZ 000000018000c370 f i POSKeyboard.obj
 0001:0000b3e0       ??I?$CComPtrBase@UITypeLib@@@ATL@@QEAAPEAPEAUITypeLib@@XZ 000000018000c3e0 f i POSKeyboard.obj
 0001:0000b450       ??I?$CComPtrBase@UIUnknown@@@ATL@@QEAAPEAPEAUIUnknown@@XZ 000000018000c450 f i POSKeyboard.obj
 0001:0000b4c0       ??I?$CComPtrBase@UIViewObjectEx@@@ATL@@QEAAPEAPEAUIViewObjectEx@@XZ 000000018000c4c0 f i POSKeyboard.obj
 0001:0000b530       ??ICComBSTR@ATL@@QEAAPEAPEA_WXZ 000000018000c530 f i POSKeyboard.obj
 0001:0000b540       ??_E?$CComContainedObject@VCOPOSPOSKeyboard@@@ATL@@W7EAAPEAXI@Z 000000018000c540 f i POSKeyboard.obj
 0001:0000b54c       ??_E?$CComContainedObject@VCOPOSPOSKeyboard@@@ATL@@WHA@EAAPEAXI@Z 000000018000c54c f i POSKeyboard.obj
 0001:0000b558       ??_E?$CComObject@VCOPOSPOSKeyboard@@@ATL@@W7EAAPEAXI@Z 000000018000c558 f i POSKeyboard.obj
 0001:0000b564       ??_E?$CComObject@VCOPOSPOSKeyboard@@@ATL@@WHA@EAAPEAXI@Z 000000018000c564 f i POSKeyboard.obj
 0001:0000b570       ??_E?$CComAggObject@VCOPOSPOSKeyboard@@@ATL@@UEAAPEAXI@Z 000000018000c570 f i POSKeyboard.obj
 0001:0000b570       ??_G?$CComAggObject@VCOPOSPOSKeyboard@@@ATL@@UEAAPEAXI@Z 000000018000c570 f i POSKeyboard.obj
 0001:0000b5d0       ??_G?$CComContainedObject@VCOPOSPOSKeyboard@@@ATL@@UEAAPEAXI@Z 000000018000c5d0 f i POSKeyboard.obj
 0001:0000b5d0       ??_E?$CComContainedObject@VCOPOSPOSKeyboard@@@ATL@@UEAAPEAXI@Z 000000018000c5d0 f i POSKeyboard.obj
 0001:0000b630       ??_E?$CComObject@V?$CComEnum@UIEnumConnectionPoints@@$1?_GUID_b196b285_bab4_101a_b69c_00aa00341d07@@3U__s_GUID@@BPEAUIConnectionPoint@@V?$_CopyInterface@UIConnectionPoint@@@ATL@@VCComSingleThreadModel@6@@ATL@@@ATL@@UEAAPEAXI@Z 000000018000c630 f i POSKeyboard.obj
 0001:0000b630       ??_G?$CComObject@V?$CComEnum@UIEnumConnectionPoints@@$1?_GUID_b196b285_bab4_101a_b69c_00aa00341d07@@3U__s_GUID@@BPEAUIConnectionPoint@@V?$_CopyInterface@UIConnectionPoint@@@ATL@@VCComSingleThreadModel@6@@ATL@@@ATL@@UEAAPEAXI@Z 000000018000c630 f i POSKeyboard.obj
 0001:0000b690       ??_G?$CComObject@V?$CComEnum@UIEnumConnections@@$1?_GUID_b196b287_bab4_101a_b69c_00aa00341d07@@3U__s_GUID@@BUtagCONNECTDATA@@V?$_Copy@UtagCONNECTDATA@@@ATL@@VCComSingleThreadModel@6@@ATL@@@ATL@@UEAAPEAXI@Z 000000018000c690 f i POSKeyboard.obj
 0001:0000b690       ??_E?$CComObject@V?$CComEnum@UIEnumConnections@@$1?_GUID_b196b287_bab4_101a_b69c_00aa00341d07@@3U__s_GUID@@BUtagCONNECTDATA@@V?$_Copy@UtagCONNECTDATA@@@ATL@@VCComSingleThreadModel@6@@ATL@@@ATL@@UEAAPEAXI@Z 000000018000c690 f i POSKeyboard.obj
 0001:0000b6f0       ??_G?$CComObject@VCOPOSPOSKeyboard@@@ATL@@UEAAPEAXI@Z 000000018000c6f0 f i POSKeyboard.obj
 0001:0000b6f0       ??_E?$CComObject@VCOPOSPOSKeyboard@@@ATL@@UEAAPEAXI@Z 000000018000c6f0 f i POSKeyboard.obj
 0001:0000b750       ??_G?$CComObjectCached@VCComClassFactory@ATL@@@ATL@@UEAAPEAXI@Z 000000018000c750 f i POSKeyboard.obj
 0001:0000b750       ??_E?$CComObjectCached@VCComClassFactory@ATL@@@ATL@@UEAAPEAXI@Z 000000018000c750 f i POSKeyboard.obj
 0001:0000b7b0       ??_GCComClassFactory@ATL@@UEAAPEAXI@Z 000000018000c7b0 f i POSKeyboard.obj
 0001:0000b7b0       ??_ECComClassFactory@ATL@@UEAAPEAXI@Z 000000018000c7b0 f i POSKeyboard.obj
 0001:0000b810       ??_ECComModule@ATL@@UEAAPEAXI@Z 000000018000c810 f i POSKeyboard.obj
 0001:0000b810       ??_GCComModule@ATL@@UEAAPEAXI@Z 000000018000c810 f i POSKeyboard.obj
 0001:0000b870       ??_ECRegObject@ATL@@UEAAPEAXI@Z 000000018000c870 f i POSKeyboard.obj
 0001:0000b870       ??_GCRegObject@ATL@@UEAAPEAXI@Z 000000018000c870 f i POSKeyboard.obj
 0001:0000b8d0       ?Add@?$CSimpleArray@GV?$CSimpleArrayEqualHelper@G@ATL@@@ATL@@QEAAHAEBG@Z 000000018000c8d0 f i POSKeyboard.obj
 0001:0000ba70       ?Add@?$CSimpleMap@PEA_WPEA_WVCExpansionVectorEqualHelper@ATL@@@ATL@@QEAAHAEBQEA_W0@Z 000000018000ca70 f i POSKeyboard.obj
 0001:0000bb60       ?Add@CComDynamicUnkArray@ATL@@QEAAKPEAUIUnknown@@@Z 000000018000cb60 f i POSKeyboard.obj
 0001:0000bd40       ?Add@CExpansionVector@ATL@@QEAAHPEB_W0@Z 000000018000cd40 f i POSKeyboard.obj
 0001:0000c070       ?AddChar@CParseBuffer@CRegParser@ATL@@QEAAHPEB_W@Z 000000018000d070 f i POSKeyboard.obj
 0001:0000c0c0       ?AddCommonRGSReplacements@?$CAtlModuleT@VCComModule@ATL@@@ATL@@UEAAJPEAUIRegistrarBase@@@Z 000000018000d0c0 f i POSKeyboard.obj
 0001:0000c120       ?AddCreateWndData@CAtlWinModule@ATL@@QEAAXPEAU_AtlCreateWndData@2@PEAX@Z 000000018000d120 f i POSKeyboard.obj
 0001:0000c170       ?AddRef@?$CComAggObject@VCOPOSPOSKeyboard@@@ATL@@UEAAKXZ 000000018000d170 f i POSKeyboard.obj
 0001:0000c1b0       ?AddRef@?$CComContainedObject@VCOPOSPOSKeyboard@@@ATL@@UEAAKXZ 000000018000d1b0 f i POSKeyboard.obj
 0001:0000c1e8       ?AddRef@?$CComContainedObject@VCOPOSPOSKeyboard@@@ATL@@WBAA@EAAKXZ 000000018000d1e8 f i POSKeyboard.obj
 0001:0000c1f4       ?AddRef@?$CComContainedObject@VCOPOSPOSKeyboard@@@ATL@@WBAI@EAAKXZ 000000018000d1f4 f i POSKeyboard.obj
 0001:0000c200       ?AddRef@?$CComContainedObject@VCOPOSPOSKeyboard@@@ATL@@WBBA@EAAKXZ 000000018000d200 f i POSKeyboard.obj
 0001:0000c20c       ?AddRef@?$CComContainedObject@VCOPOSPOSKeyboard@@@ATL@@WBBI@EAAKXZ 000000018000d20c f i POSKeyboard.obj
 0001:0000c218       ?AddRef@?$CComContainedObject@VCOPOSPOSKeyboard@@@ATL@@WBCI@EAAKXZ 000000018000d218 f i POSKeyboard.obj
 0001:0000c224       ?AddRef@?$CComContainedObject@VCOPOSPOSKeyboard@@@ATL@@WBEA@EAAKXZ 000000018000d224 f i POSKeyboard.obj
 0001:0000c230       ?AddRef@?$CComContainedObject@VCOPOSPOSKeyboard@@@ATL@@WLI@EAAKXZ 000000018000d230 f i POSKeyboard.obj
 0001:0000c23c       ?AddRef@?$CComContainedObject@VCOPOSPOSKeyboard@@@ATL@@WMA@EAAKXZ 000000018000d23c f i POSKeyboard.obj
 0001:0000c248       ?AddRef@?$CComContainedObject@VCOPOSPOSKeyboard@@@ATL@@WMI@EAAKXZ 000000018000d248 f i POSKeyboard.obj
 0001:0000c254       ?AddRef@?$CComContainedObject@VCOPOSPOSKeyboard@@@ATL@@WNA@EAAKXZ 000000018000d254 f i POSKeyboard.obj
 0001:0000c260       ?AddRef@?$CComContainedObject@VCOPOSPOSKeyboard@@@ATL@@WNI@EAAKXZ 000000018000d260 f i POSKeyboard.obj
 0001:0000c26c       ?AddRef@?$CComContainedObject@VCOPOSPOSKeyboard@@@ATL@@WOA@EAAKXZ 000000018000d26c f i POSKeyboard.obj
 0001:0000c278       ?AddRef@?$CComContainedObject@VCOPOSPOSKeyboard@@@ATL@@WOI@EAAKXZ 000000018000d278 f i POSKeyboard.obj
 0001:0000c284       ?AddRef@?$CComContainedObject@VCOPOSPOSKeyboard@@@ATL@@WPA@EAAKXZ 000000018000d284 f i POSKeyboard.obj
 0001:0000c290       ?AddRef@?$CComContainedObject@VCOPOSPOSKeyboard@@@ATL@@WPI@EAAKXZ 000000018000d290 f i POSKeyboard.obj
 0001:0000c2a0       ?AddRef@?$CComObject@V?$CComEnum@UIEnumConnectionPoints@@$1?_GUID_b196b285_bab4_101a_b69c_00aa00341d07@@3U__s_GUID@@BPEAUIConnectionPoint@@V?$_CopyInterface@UIConnectionPoint@@@ATL@@VCComSingleThreadModel@6@@ATL@@@ATL@@UEAAKXZ 000000018000d2a0 f i POSKeyboard.obj
 0001:0000c2e0       ?AddRef@?$CComObject@V?$CComEnum@UIEnumConnections@@$1?_GUID_b196b287_bab4_101a_b69c_00aa00341d07@@3U__s_GUID@@BUtagCONNECTDATA@@V?$_Copy@UtagCONNECTDATA@@@ATL@@VCComSingleThreadModel@6@@ATL@@@ATL@@UEAAKXZ 000000018000d2e0 f i POSKeyboard.obj
 0001:0000c320       ?AddRef@?$CComObject@VCOPOSPOSKeyboard@@@ATL@@UEAAKXZ 000000018000d320 f i POSKeyboard.obj
 0001:0000c358       ?AddRef@?$CComObject@VCOPOSPOSKeyboard@@@ATL@@WBAA@EAAKXZ 000000018000d358 f i POSKeyboard.obj
 0001:0000c364       ?AddRef@?$CComObject@VCOPOSPOSKeyboard@@@ATL@@WBAI@EAAKXZ 000000018000d364 f i POSKeyboard.obj
 0001:0000c370       ?AddRef@?$CComObject@VCOPOSPOSKeyboard@@@ATL@@WBBA@EAAKXZ 000000018000d370 f i POSKeyboard.obj
 0001:0000c37c       ?AddRef@?$CComObject@VCOPOSPOSKeyboard@@@ATL@@WBBI@EAAKXZ 000000018000d37c f i POSKeyboard.obj
 0001:0000c388       ?AddRef@?$CComObject@VCOPOSPOSKeyboard@@@ATL@@WBCI@EAAKXZ 000000018000d388 f i POSKeyboard.obj
 0001:0000c394       ?AddRef@?$CComObject@VCOPOSPOSKeyboard@@@ATL@@WBEA@EAAKXZ 000000018000d394 f i POSKeyboard.obj
 0001:0000c3a0       ?AddRef@?$CComObject@VCOPOSPOSKeyboard@@@ATL@@WLI@EAAKXZ 000000018000d3a0 f i POSKeyboard.obj
 0001:0000c3ac       ?AddRef@?$CComObject@VCOPOSPOSKeyboard@@@ATL@@WMA@EAAKXZ 000000018000d3ac f i POSKeyboard.obj
 0001:0000c3b8       ?AddRef@?$CComObject@VCOPOSPOSKeyboard@@@ATL@@WMI@EAAKXZ 000000018000d3b8 f i POSKeyboard.obj
 0001:0000c3c4       ?AddRef@?$CComObject@VCOPOSPOSKeyboard@@@ATL@@WNA@EAAKXZ 000000018000d3c4 f i POSKeyboard.obj
 0001:0000c3d0       ?AddRef@?$CComObject@VCOPOSPOSKeyboard@@@ATL@@WNI@EAAKXZ 000000018000d3d0 f i POSKeyboard.obj
 0001:0000c3dc       ?AddRef@?$CComObject@VCOPOSPOSKeyboard@@@ATL@@WOA@EAAKXZ 000000018000d3dc f i POSKeyboard.obj
 0001:0000c3e8       ?AddRef@?$CComObject@VCOPOSPOSKeyboard@@@ATL@@WOI@EAAKXZ 000000018000d3e8 f i POSKeyboard.obj
 0001:0000c3f4       ?AddRef@?$CComObject@VCOPOSPOSKeyboard@@@ATL@@WPA@EAAKXZ 000000018000d3f4 f i POSKeyboard.obj
 0001:0000c400       ?AddRef@?$CComObject@VCOPOSPOSKeyboard@@@ATL@@WPI@EAAKXZ 000000018000d400 f i POSKeyboard.obj
 0001:0000c410       ?AddRef@?$CComObjectCached@VCComClassFactory@ATL@@@ATL@@UEAAKXZ 000000018000d410 f i POSKeyboard.obj
 0001:0000c470       ?AddRef@CRegObject@ATL@@UEAAKXZ 000000018000d470 f i POSKeyboard.obj
 0001:0000c4e0       ?AddReplacement@CRegObject@ATL@@UEAAJPEB_W0@Z 000000018000d4e0 f i POSKeyboard.obj
 0001:0000c610       ?AddString@CParseBuffer@CRegParser@ATL@@QEAAHPEB_W@Z 000000018000d610 f i POSKeyboard.obj
 0001:0000c700       ?AddTermFunc@CAtlModule@ATL@@QEAAJP6AX_K@Z0@Z 000000018000d700 f i POSKeyboard.obj
 0001:0000c770       ?AddValue@CRegParser@ATL@@IEAAJAEAVCRegKey@2@PEB_WPEA_W@Z 000000018000d770 f i POSKeyboard.obj
 0001:0000d040       ?Advise@?$CProxy_IOPOSEvents@VCOPOSPOSKeyboard@@@@UEAAJPEAUIUnknown@@PEAK@Z 000000018000e040 f i POSKeyboard.obj
 0001:0000d0b0       ?Advise@?$IConnectionPointImpl@VCOPOSPOSKeyboard@@$1?DIID__IOPOSPOSKeyboardEvents@@3U_GUID@@BVCComDynamicUnkArray@ATL@@@ATL@@UEAAJPEAUIUnknown@@PEAK@Z 000000018000e0b0 f i POSKeyboard.obj
 0001:0000d2b0       ?Advise@?$IConnectionPointImpl@VCOPOSPOSKeyboard@@$1?IID_IPropertyNotifySink@@3U_GUID@@BVCComDynamicUnkArray@ATL@@@ATL@@UEAAJPEAUIUnknown@@PEAK@Z 000000018000e2b0 f i POSKeyboard.obj
 0001:0000d4b0       ?Advise@?$IOleObjectImpl@VCOPOSPOSKeyboard@@@ATL@@UEAAJPEAUIAdviseSink@@PEAK@Z 000000018000e4b0 f i POSKeyboard.obj
 0001:0000d570       ?Allocate@?$CAtlSafeAllocBufferManager@VCCRTAllocator@ATL@@@_ATL_SAFE_ALLOCA_IMPL@ATL@@QEAAPEAX_K@Z 000000018000e570 f i POSKeyboard.obj
 0001:0000d5f0       ?Allocate@?$CTempBuffer@E$0BAA@VCCRTAllocator@ATL@@@ATL@@QEAAPEAE_K@Z 000000018000e5f0 f i POSKeyboard.obj
 0001:0000d640       ?Allocate@?$CTempBuffer@_W$0BAA@VCCRTAllocator@ATL@@@ATL@@QEAAPEA_W_K@Z 000000018000e640 f i POSKeyboard.obj
 0001:0000d690       ?Allocate@?$CTempBuffer@_W$0EAA@VCCRTAllocator@ATL@@@ATL@@QEAAPEA_W_K@Z 000000018000e690 f i POSKeyboard.obj
 0001:0000d6e0       ?AllocateBytes@?$CTempBuffer@E$0BAA@VCCRTAllocator@ATL@@@ATL@@QEAAPEAE_K@Z 000000018000e6e0 f i POSKeyboard.obj
 0001:0000d790       ?AllocateBytes@?$CTempBuffer@_W$0BAA@VCCRTAllocator@ATL@@@ATL@@QEAAPEA_W_K@Z 000000018000e790 f i POSKeyboard.obj
 0001:0000d840       ?AllocateBytes@?$CTempBuffer@_W$0EAA@VCCRTAllocator@ATL@@@ATL@@QEAAPEA_W_K@Z 000000018000e840 f i POSKeyboard.obj
 0001:0000d8f0       ?AllocateHeap@?$CTempBuffer@E$0BAA@VCCRTAllocator@ATL@@@ATL@@AEAAX_K@Z 000000018000e8f0 f i POSKeyboard.obj
 0001:0000d950       ?AllocateHeap@?$CTempBuffer@_W$0BAA@VCCRTAllocator@ATL@@@ATL@@AEAAX_K@Z 000000018000e950 f i POSKeyboard.obj
 0001:0000d9b0       ?AllocateHeap@?$CTempBuffer@_W$0EAA@VCCRTAllocator@ATL@@@ATL@@AEAAX_K@Z 000000018000e9b0 f i POSKeyboard.obj
 0001:0000da10       ?Append@CParseBuffer@CRegParser@ATL@@QEAAHPEB_WH@Z 000000018000ea10 f i POSKeyboard.obj
 0001:0000dc40       ?AtlCallTermFunc@ATL@@YAXPEAU_ATL_MODULE70@1@@Z 000000018000ec40 f i POSKeyboard.obj
 0001:0000dcf0       ?AtlCoTaskMemCAlloc@ATL@@YAPEAXKK@Z 000000018000ecf0 f i POSKeyboard.obj
 0001:0000dd70       ?AtlCoTaskMemRecalloc@ATL@@YAPEAXPEAXKK@Z 000000018000ed70 f i POSKeyboard.obj
 0001:0000ddf0       ?AtlComModuleGetClassObject@ATL@@YAJPEAU_ATL_COM_MODULE70@1@AEBU_GUID@@1PEAPEAX@Z 000000018000edf0 f i POSKeyboard.obj
 0001:0000e120       ?AtlComModuleRegisterServer@ATL@@YAJPEAU_ATL_COM_MODULE70@1@HPEBU_GUID@@@Z 000000018000f120 f i POSKeyboard.obj
 0001:0000e320       ?AtlComModuleUnregisterServer@ATL@@YAJPEAU_ATL_COM_MODULE70@1@HPEBU_GUID@@@Z 000000018000f320 f i POSKeyboard.obj
 0001:0000e480       ?AtlComQIPtrAssign2@ATL@@YAXPEAPEAUIUnknown@@PEAU2@AEBU_GUID@@@Z 000000018000f480 f i POSKeyboard.obj
 0001:0000e510       ?AtlCreateTargetDC@ATL@@YAPEAUHDC__@@PEAU2@PEAUtagDVTARGETDEVICE@@@Z 000000018000f510 f i POSKeyboard.obj
 0001:0000e740       ?AtlCrtErrorCheck@ATL@@YAHH@Z 000000018000f740 f i POSKeyboard.obj
 0001:0000e7c0       ?AtlGetPerUserRegistration@ATL@@YAJPEA_N@Z 000000018000f7c0 f i POSKeyboard.obj
 0001:0000e7f0       ?AtlHiMetricToPixel@ATL@@YAXPEBUtagSIZE@@PEAU2@@Z 000000018000f7f0 f i POSKeyboard.obj
 0001:0000e9f0       ?AtlHresultFromLastError@ATL@@YAJXZ 000000018000f9f0 f i POSKeyboard.obj
 0001:0000ea20       ?AtlHresultFromWin32@ATL@@YAJK@Z 000000018000fa20 f i POSKeyboard.obj
 0001:0000ea50       ?AtlIPersistStreamInit_Load@ATL@@YAJPEAUIStream@@PEBUATL_PROPMAP_ENTRY@1@PEAXPEAUIUnknown@@@Z 000000018000fa50 f i POSKeyboard.obj
 0001:0000f0c0       ?AtlIPersistStreamInit_Save@ATL@@YAJPEAUIStream@@HPEBUATL_PROPMAP_ENTRY@1@PEAXPEAUIUnknown@@@Z 00000001800100c0 f i POSKeyboard.obj
 0001:0000f650       ?AtlInternalOleLoadFromStream@ATL@@YAJPEAUIStream@@AEBU_GUID@@PEAPEAXTClassesAllowedInStream@1@K@Z 0000000180010650 f i POSKeyboard.obj
 0001:0000f990       ?AtlInternalQueryInterface@ATL@@YAJPEAXPEBU_ATL_INTMAP_ENTRY@1@AEBU_GUID@@PEAPEAX@Z 0000000180010990 f i POSKeyboard.obj
 0001:0000fc50       ?AtlLoadTypeLib@ATL@@YAJPEAUHINSTANCE__@@PEB_WPEAPEA_WPEAPEAUITypeLib@@@Z 0000000180010c50 f i POSKeyboard.obj
 0001:00010120       ?AtlModuleAddTermFunc@ATL@@YAJPEAU_ATL_MODULE70@1@P6AX_K@Z1@Z 0000000180011120 f i POSKeyboard.obj
 0001:000102f0       ?AtlRegisterClassCategoriesHelper@ATL@@YAJAEBU_GUID@@PEBU_ATL_CATMAP_ENTRY@1@H@Z 00000001800112f0 f i POSKeyboard.obj
 0001:00010ac0       ?AtlRegisterTypeLib@ATL@@YAJPEAUHINSTANCE__@@PEB_W@Z 0000000180011ac0 f i POSKeyboard.obj
 0001:00010e20       ?AtlThrowImpl@ATL@@YAXJ@Z  0000000180011e20 f i POSKeyboard.obj
 0001:00010f00       ?AtlUnRegisterTypeLib@ATL@@YAJPEAUHINSTANCE__@@PEB_W@Z 0000000180011f00 f i POSKeyboard.obj
 0001:00011130       ?AtlWinModuleAddCreateWndData@ATL@@YAXPEAU_ATL_WIN_MODULE70@1@PEAU_AtlCreateWndData@1@PEAX@Z 0000000180012130 f i POSKeyboard.obj
 0001:00011320       ?AtlWinModuleExtractCreateWndData@ATL@@YAPEAXPEAU_ATL_WIN_MODULE70@1@@Z 0000000180012320 f i POSKeyboard.obj
 0001:00011520       ?AtlWinModuleRegisterClassExW@ATL@@YAGPEAU_ATL_WIN_MODULE70@1@PEBUtagWNDCLASSEXW@@@Z 0000000180012520 f i POSKeyboard.obj
 0001:000115f0       ?AtlWinModuleRegisterWndClassInfoW@ATL@@YAGPEAU_ATL_WIN_MODULE70@1@PEAU_ATL_BASE_MODULE70@1@PEAU_ATL_WNDCLASSINFOW@1@PEAP6A_JPEAUHWND__@@I_K_J@Z@Z 00000001800125f0 f i POSKeyboard.obj
 0001:00011660       ?Attach@?$CAutoVectorPtr@_W@ATL@@QEAAXPEA_W@Z 0000000180012660 f i POSKeyboard.obj
 0001:000116f0       ?Attach@CComBSTR@ATL@@QEAAXPEA_W@Z 00000001800126f0 f i POSKeyboard.obj
 0001:00011750       ?Attach@CRegKey@ATL@@QEAAXPEAUHKEY__@@@Z 0000000180012750 f i POSKeyboard.obj
 0001:000117f0       ?CanForceRemoveKey@CRegParser@ATL@@IEAAHPEB_W@Z 00000001800127f0 f i POSKeyboard.obj
 0001:00011860       ?ChToByte@CRegParser@ATL@@KAE_W@Z 0000000180012860 f i POSKeyboard.obj
 0001:000119c0       ?ChangeType@CComVariant@ATL@@QEAAJGPEBUtagVARIANT@@@Z 00000001800129c0 f i POSKeyboard.obj
 0001:00011a30       ?Cleanup@CComTypeInfoHolder@ATL@@SAX_K@Z 0000000180012a30 f i POSKeyboard.obj
 0001:00011b20       ?Clear@CComVariant@ATL@@QEAAJXZ 0000000180012b20 f i POSKeyboard.obj
 0001:00011b50       ?ClearReplacements@CExpansionVector@ATL@@QEAAJXZ 0000000180012b50 f i POSKeyboard.obj
 0001:00011bf0       ?ClearReplacements@CRegObject@ATL@@UEAAJXZ 0000000180012bf0 f i POSKeyboard.obj
 0001:00011c50       ?Clone@?$CComEnumImpl@UIEnumConnectionPoints@@$1?_GUID_b196b285_bab4_101a_b69c_00aa00341d07@@3U__s_GUID@@BPEAUIConnectionPoint@@V?$_CopyInterface@UIConnectionPoint@@@ATL@@@ATL@@UEAAJPEAPEAUIEnumConnectionPoints@@@Z 0000000180012c50 f i POSKeyboard.obj
 0001:00011e40       ?Clone@?$CComEnumImpl@UIEnumConnections@@$1?_GUID_b196b287_bab4_101a_b69c_00aa00341d07@@3U__s_GUID@@BUtagCONNECTDATA@@V?$_Copy@UtagCONNECTDATA@@@ATL@@@ATL@@UEAAJPEAPEAUIEnumConnections@@@Z 0000000180012e40 f i POSKeyboard.obj
 0001:00012030       ?Close@?$IOleObjectImpl@VCOPOSPOSKeyboard@@@ATL@@UEAAJK@Z 0000000180013030 f i POSKeyboard.obj
 0001:000120e0       ?Close@CRegKey@ATL@@QEAAJXZ 00000001800130e0 f i POSKeyboard.obj
 0001:00012150       ?ContextSensitiveHelp@?$IOleInPlaceActiveObjectImpl@VCOPOSPOSKeyboard@@@ATL@@UEAAJH@Z 0000000180013150 f i POSKeyboard.obj
 0001:000121d0       ?ContextSensitiveHelp@?$IOleInPlaceObjectWindowlessImpl@VCOPOSPOSKeyboard@@@ATL@@UEAAJH@Z 00000001800131d0 f i POSKeyboard.obj
 0001:00012250       ?ControlQueryInterface@?$CComControl@VCOPOSPOSKeyboard@@V?$CWindowImpl@VCOPOSPOSKeyboard@@VCWindow@ATL@@V?$CWinTraits@$0FGAAAAAA@$0A@@3@@ATL@@@ATL@@UEAAJAEBU_GUID@@PEAPEAX@Z 0000000180013250 f i POSKeyboard.obj
 0001:000122e0       ?CreateControlWindow@?$CComControl@VCOPOSPOSKeyboard@@V?$CWindowImpl@VCOPOSPOSKeyboard@@VCWindow@ATL@@V?$CWinTraits@$0FGAAAAAA@$0A@@3@@ATL@@@ATL@@UEAAPEAUHWND__@@PEAU3@AEAUtagRECT@@@Z 00000001800132e0 f i POSKeyboard.obj
 0001:000123d0       ?CreateInstance@?$CComCreator@V?$CComAggObject@VCOPOSPOSKeyboard@@@ATL@@@ATL@@SAJPEAXAEBU_GUID@@PEAPEAX@Z 00000001800133d0 f i POSKeyboard.obj
 0001:000125b0       ?CreateInstance@?$CComCreator@V?$CComObject@VCOPOSPOSKeyboard@@@ATL@@@ATL@@SAJPEAXAEBU_GUID@@PEAPEAX@Z 00000001800135b0 f i POSKeyboard.obj
 0001:000127b0       ?CreateInstance@?$CComObject@V?$CComEnum@UIEnumConnectionPoints@@$1?_GUID_b196b285_bab4_101a_b69c_00aa00341d07@@3U__s_GUID@@BPEAUIConnectionPoint@@V?$_CopyInterface@UIConnectionPoint@@@ATL@@VCComSingleThreadModel@6@@ATL@@@ATL@@SAJPEAPEAV12@@Z 00000001800137b0 f i POSKeyboard.obj
 0001:00012970       ?CreateInstance@?$CComObject@V?$CComEnum@UIEnumConnections@@$1?_GUID_b196b287_bab4_101a_b69c_00aa00341d07@@3U__s_GUID@@BUtagCONNECTDATA@@V?$_Copy@UtagCONNECTDATA@@@ATL@@VCComSingleThreadModel@6@@ATL@@@ATL@@SAJPEAPEAV12@@Z 0000000180013970 f i POSKeyboard.obj
 0001:00012b30       ?CreateInstance@CComClassFactory@ATL@@UEAAJPEAUIUnknown@@AEBU_GUID@@PEAPEAX@Z 0000000180013b30 f i POSKeyboard.obj
 0001:00012c50       ?DAdvise@?$IDataObjectImpl@VCOPOSPOSKeyboard@@@ATL@@UEAAJPEAUtagFORMATETC@@KPEAUIAdviseSink@@PEAK@Z 0000000180013c50 f i POSKeyboard.obj
 0001:00012db0       ?DEVMODEOLE2T_EX@@YAPEAU_devicemodeW@@PEAU1@@Z 0000000180013db0 f i POSKeyboard.obj
 0001:00012dc0       ?DUnadvise@?$IDataObjectImpl@VCOPOSPOSKeyboard@@@ATL@@UEAAJK@Z 0000000180013dc0 f i POSKeyboard.obj
 0001:00012ec0       ?Decrement@CComMultiThreadModel@ATL@@SAKPEAJ@Z 0000000180013ec0 f i POSKeyboard.obj
 0001:00012ee0       ?Decrement@CComSingleThreadModel@ATL@@SAKPEAJ@Z 0000000180013ee0 f i POSKeyboard.obj
 0001:00012f00       ?DefWindowProcW@?$CWindowImplBaseT@VCWindow@ATL@@V?$CWinTraits@$0FGAAAAAA@$0A@@2@@ATL@@QEAA_JI_K_J@Z 0000000180013f00 f i POSKeyboard.obj
 0001:00012f60       ?DefaultReflectionHandler@?$CWindowImplRoot@VCWindow@ATL@@@ATL@@SAHPEAUHWND__@@I_K_JAEA_J@Z 0000000180013f60 f i POSKeyboard.obj
 0001:00013050       ?DeleteSubKey@CRegKey@ATL@@QEAAJPEB_W@Z 0000000180014050 f i POSKeyboard.obj
 0001:00013180       ?DeleteValue@CRegKey@ATL@@QEAAJPEB_W@Z 0000000180014180 f i POSKeyboard.obj
 0001:00013210       ?Detach@?$CAutoVectorPtr@_W@ATL@@QEAAPEA_WXZ 0000000180014210 f i POSKeyboard.obj
 0001:00013250       ?Detach@?$CComPtrBase@UIPersistStream@@@ATL@@QEAAPEAUIPersistStream@@XZ 0000000180014250 f i POSKeyboard.obj
 0001:00013290       ?Detach@?$CComPtrBase@UITypeInfo@@@ATL@@QEAAPEAUITypeInfo@@XZ 0000000180014290 f i POSKeyboard.obj
 0001:000132d0       ?Detach@?$CComPtrBase@UIUnknown@@@ATL@@QEAAPEAUIUnknown@@XZ 00000001800142d0 f i POSKeyboard.obj
 0001:00013310       ?Detach@CComBSTR@ATL@@QEAAPEA_WXZ 0000000180014310 f i POSKeyboard.obj
 0001:00013350       ?Detach@CParseBuffer@CRegParser@ATL@@QEAAPEA_WXZ 0000000180014350 f i POSKeyboard.obj
 0001:000133b0       ?Detach@CRegKey@ATL@@QEAAPEAUHKEY__@@XZ 00000001800143b0 f i POSKeyboard.obj
 0001:00013410       ?DoEvent@COPOSPOSKeyboard@@IEAAXI_K_J@Z 0000000180014410 f i POSKeyboard.obj
 0001:00013550       ?DoVerb@?$IOleObjectImpl@VCOPOSPOSKeyboard@@@ATL@@UEAAJJPEAUtagMSG@@PEAUIOleClientSite@@JPEAUHWND__@@PEBUtagRECT@@@Z 0000000180014550 f i POSKeyboard.obj
 0001:00013860       ?DoVerbDiscardUndo@?$IOleObjectImpl@VCOPOSPOSKeyboard@@@ATL@@QEAAJPEBUtagRECT@@PEAUHWND__@@@Z 0000000180014860 f i POSKeyboard.obj
 0001:00013900       ?DoVerbHide@?$IOleObjectImpl@VCOPOSPOSKeyboard@@@ATL@@QEAAJPEBUtagRECT@@PEAUHWND__@@@Z 0000000180014900 f i POSKeyboard.obj
 0001:000139e0       ?DoVerbInPlaceActivate@?$IOleObjectImpl@VCOPOSPOSKeyboard@@@ATL@@QEAAJPEBUtagRECT@@PEAUHWND__@@@Z 00000001800149e0 f i POSKeyboard.obj
 0001:00013ac0       ?DoVerbOpen@?$IOleObjectImpl@VCOPOSPOSKeyboard@@@ATL@@QEAAJPEBUtagRECT@@PEAUHWND__@@@Z 0000000180014ac0 f i POSKeyboard.obj
 0001:00013b60       ?DoVerbPrimary@?$IOleObjectImpl@VCOPOSPOSKeyboard@@@ATL@@QEAAJPEBUtagRECT@@PEAUHWND__@@@Z 0000000180014b60 f i POSKeyboard.obj
 0001:00013ca0       ?DoVerbProperties@CComControlBase@ATL@@QEAAJPEBUtagRECT@@PEAUHWND__@@@Z 0000000180014ca0 f i POSKeyboard.obj
 0001:00014050       ?DoVerbShow@?$IOleObjectImpl@VCOPOSPOSKeyboard@@@ATL@@QEAAJPEBUtagRECT@@PEAUHWND__@@@Z 0000000180015050 f i POSKeyboard.obj
 0001:00014110       ?DoVerbUIActivate@?$IOleObjectImpl@VCOPOSPOSKeyboard@@@ATL@@QEAAJPEBUtagRECT@@PEAUHWND__@@@Z 0000000180015110 f i POSKeyboard.obj
 0001:000141f0       ?DoesVerbActivate@CComControlBase@ATL@@QEAAHJ@Z 00000001800151f0 f i POSKeyboard.obj
 0001:00014250       ?DoesVerbUIActivate@CComControlBase@ATL@@QEAAHJ@Z 0000000180015250 f i POSKeyboard.obj
 0001:000142d0       ?Draw@?$IViewObjectExImpl@VCOPOSPOSKeyboard@@@ATL@@UEAAJKJPEAXPEAUtagDVTARGETDEVICE@@PEAUHDC__@@2PEBU_RECTL@@3P6AH_K@Z4@Z 00000001800152d0 f i POSKeyboard.obj
 0001:000143f0       ?Empty@CComBSTR@ATL@@QEAAXXZ 00000001800153f0 f i POSKeyboard.obj
 0001:00014430       ?EnableModeless@?$IOleInPlaceActiveObjectImpl@VCOPOSPOSKeyboard@@@ATL@@UEAAJH@Z 0000000180015430 f i POSKeyboard.obj
 0001:000144a0       ?EndOfVar@CRegParser@ATL@@IEAAHXZ 00000001800154a0 f i POSKeyboard.obj
 0001:00014500       ?EnsureTI@CComTypeInfoHolder@ATL@@QEAAJK@Z 0000000180015500 f i POSKeyboard.obj
 0001:00014560       ?EnumAdvise@?$IOleObjectImpl@VCOPOSPOSKeyboard@@@ATL@@UEAAJPEAPEAUIEnumSTATDATA@@@Z 0000000180015560 f i POSKeyboard.obj
 0001:000146c0       ?EnumConnectionPoints@?$IConnectionPointContainerImpl@VCOPOSPOSKeyboard@@@ATL@@UEAAJPEAPEAUIEnumConnectionPoints@@@Z 00000001800156c0 f i POSKeyboard.obj
 0001:00014bb0       ?EnumConnections@?$IConnectionPointImpl@VCOPOSPOSKeyboard@@$1?DIID__IOPOSPOSKeyboardEvents@@3U_GUID@@BVCComDynamicUnkArray@ATL@@@ATL@@UEAAJPEAPEAUIEnumConnections@@@Z 0000000180015bb0 f i POSKeyboard.obj
 0001:00014f00       ?EnumConnections@?$IConnectionPointImpl@VCOPOSPOSKeyboard@@$1?IID_IPropertyNotifySink@@3U_GUID@@BVCComDynamicUnkArray@ATL@@@ATL@@UEAAJPEAPEAUIEnumConnections@@@Z 0000000180015f00 f i POSKeyboard.obj
 0001:00015250       ?EnumDAdvise@?$IDataObjectImpl@VCOPOSPOSKeyboard@@@ATL@@UEAAJPEAPEAUIEnumSTATDATA@@@Z 0000000180016250 f i POSKeyboard.obj
 0001:000153a0       ?EnumFormatEtc@?$IDataObjectImpl@VCOPOSPOSKeyboard@@@ATL@@UEAAJKPEAPEAUIEnumFORMATETC@@@Z 00000001800163a0 f i POSKeyboard.obj
 0001:00015430       ?EnumVerbs@?$IOleObjectImpl@VCOPOSPOSKeyboard@@@ATL@@UEAAJPEAPEAUIEnumOLEVERB@@@Z 0000000180016430 f i POSKeyboard.obj
 0001:00015500       ?EscapeSingleQuote@CAtlModule@ATL@@SAXPEA_W_KPEB_W@Z 0000000180016500 f i POSKeyboard.obj
 0001:00015600       ?ExtractCreateWndData@CAtlWinModule@ATL@@QEAAPEAXXZ 0000000180016600 f i POSKeyboard.obj
 0001:00015630       ?FAccessAllowed@?$IObjectSafetyImpl@VCOPOSPOSKeyboard@@$02@ATL@@MEAAHXZ 0000000180016630 f i POSKeyboard.obj
 0001:00015640       ?FinalConstruct@?$CComAggObject@VCOPOSPOSKeyboard@@@ATL@@QEAAJXZ 0000000180016640 f i POSKeyboard.obj
 0001:00015690       ?FinalConstruct@CComObjectRootBase@ATL@@QEAAJXZ 0000000180016690 f i POSKeyboard.obj
 0001:000156a0       ?FinalConstruct@CRegObject@ATL@@QEAAJXZ 00000001800166a0 f i POSKeyboard.obj
 0001:000156e0       ?FinalRelease@?$CComAggObject@VCOPOSPOSKeyboard@@@ATL@@QEAAXXZ 00000001800166e0 f i POSKeyboard.obj
 0001:00015730       ?FinalRelease@CComObjectRootBase@ATL@@QEAAXXZ 0000000180016730 f i POSKeyboard.obj
 0001:00015740       ?FindConnectionPoint@?$IConnectionPointContainerImpl@VCOPOSPOSKeyboard@@@ATL@@UEAAJAEBU_GUID@@PEAPEAUIConnectionPoint@@@Z 0000000180016740 f i POSKeyboard.obj
 0001:000158b0       ?FindKey@?$CSimpleMap@PEA_WPEA_WVCExpansionVectorEqualHelper@ATL@@@ATL@@QEBAHAEBQEA_W@Z 00000001800168b0 f i POSKeyboard.obj
 0001:00015930       ?FireTheEvent@?$CProxy_IOPOSEvents@VCOPOSPOSKeyboard@@@@IEAAXPEAUIUnknown@@PEAVOposVariant@@IAEAJPEB_WJ@Z 0000000180016930 f i POSKeyboard.obj
 0001:00015b10       ?FireViewChange@CComControlBase@ATL@@QEAAJXZ 0000000180016b10 f i POSKeyboard.obj
 0001:00015bf0       ?Fire_DataEvent@?$CProxy_IOPOSEvents@VCOPOSPOSKeyboard@@@@QEAAXJ@Z 0000000180016bf0 f i POSKeyboard.obj
 0001:00015de0       ?Fire_DirectIOEvent@?$CProxy_IOPOSEvents@VCOPOSPOSKeyboard@@@@QEAAXJPEAJPEAPEA_W@Z 0000000180016de0 f i POSKeyboard.obj
 0001:00016070       ?Fire_ErrorEvent@?$CProxy_IOPOSEvents@VCOPOSPOSKeyboard@@@@QEAAXJJJPEAJ@Z 0000000180017070 f i POSKeyboard.obj
 0001:00016320       ?Fire_StatusUpdateEvent@?$CProxy_IOPOSEvents@VCOPOSPOSKeyboard@@@@QEAAXJ@Z 0000000180017320 f i POSKeyboard.obj
 0001:00016510       ?FormatWindowClassName@AtlModuleRegisterWndClassInfoParamW@ATL@@SAXPEA_WKPEAX@Z 0000000180017510 f i POSKeyboard.obj
 0001:00016560       ?Free@?$CAutoVectorPtr@_W@ATL@@QEAAXXZ 0000000180017560 f i POSKeyboard.obj
 0001:000165b0       ?FreeHeap@?$CTempBuffer@E$0BAA@VCCRTAllocator@ATL@@@ATL@@AEAAXXZ 00000001800175b0 f i POSKeyboard.obj
 0001:000165f0       ?FreeHeap@?$CTempBuffer@_W$0BAA@VCCRTAllocator@ATL@@@ATL@@AEAAXXZ 00000001800175f0 f i POSKeyboard.obj
 0001:00016630       ?FreeHeap@?$CTempBuffer@_W$0EAA@VCCRTAllocator@ATL@@@ATL@@AEAAXXZ 0000000180017630 f i POSKeyboard.obj
 0001:00016670       ?Freeze@?$IViewObjectExImpl@VCOPOSPOSKeyboard@@@ATL@@UEAAJKJPEAXPEAK@Z 0000000180017670 f i POSKeyboard.obj
 0001:00016700       ?GenerateError@CRegParser@ATL@@IEAAJI@Z 0000000180017700 f i POSKeyboard.obj
 0001:00016720       ?GetAdvise@?$IViewObjectExImpl@VCOPOSPOSKeyboard@@@ATL@@UEAAJPEAK0PEAPEAUIAdviseSink@@@Z 0000000180017720 f i POSKeyboard.obj
 0001:00016870       ?GetAmbientLocaleID@CComControlBase@ATL@@QEAAJAEAK@Z 0000000180017870 f i POSKeyboard.obj
 0001:00016950       ?GetAmbientProperty@CComControlBase@ATL@@QEAAJJAEAUtagVARIANT@@@Z 0000000180017950 f i POSKeyboard.obj
 0001:000169c0       ?GetAmbientUserMode@CComControlBase@ATL@@QEAAJAEAH@Z 00000001800179c0 f i POSKeyboard.obj
 0001:00016ae0       ?GetAppId@?$CAtlModuleT@VCComModule@ATL@@@ATL@@SAPEB_WXZ 0000000180017ae0 f i POSKeyboard.obj
 0001:00016af0       ?GetAt@CComDynamicUnkArray@ATL@@QEAAPEAUIUnknown@@H@Z 0000000180017af0 f i POSKeyboard.obj
 0001:00016ba0       ?GetCanonicalFormatEtc@?$IDataObjectImpl@VCOPOSPOSKeyboard@@@ATL@@UEAAJPEAUtagFORMATETC@@0@Z 0000000180017ba0 f i POSKeyboard.obj
 0001:00016c30       ?GetClassID@?$IPersistStorageImpl@VCOPOSPOSKeyboard@@@ATL@@UEAAJPEAU_GUID@@@Z 0000000180017c30 f i POSKeyboard.obj
 0001:00016cd0       ?GetClassID@?$IPersistStreamInitImpl@VCOPOSPOSKeyboard@@@ATL@@UEAAJPEAU_GUID@@@Z 0000000180017cd0 f i POSKeyboard.obj
 0001:00016d70       ?GetClassInfoExW@AtlModuleRegisterWndClassInfoParamW@ATL@@SAHPEAUHINSTANCE__@@PEB_WPEAUtagWNDCLASSEXW@@@Z 0000000180017d70 f i POSKeyboard.obj
 0001:00016dc0       ?GetClassInfoW@?$IProvideClassInfo2Impl@$1?CLSID_OPOSPOSKeyboard@@3U_GUID@@B$1?DIID__IOPOSPOSKeyboardEvents@@3U2@B$1?LIBID_OposPOSKeyboard_CCO@@3U2@B$00$0A@VCComTypeInfoHolder@ATL@@@ATL@@UEAAJPEAPEAUITypeInfo@@@Z 0000000180017dc0 f i POSKeyboard.obj
 0001:00016e00       ?GetClassObject@CComModule@ATL@@QEAAJAEBU_GUID@@0PEAPEAX@Z 0000000180017e00 f i POSKeyboard.obj
 0001:00017070       ?GetClientSite@?$IOleObjectImpl@VCOPOSPOSKeyboard@@@ATL@@UEAAJPEAPEAUIOleClientSite@@@Z 0000000180018070 f i POSKeyboard.obj
 0001:00017120       ?GetClipboardData@?$IOleObjectImpl@VCOPOSPOSKeyboard@@@ATL@@UEAAJKPEAPEAUIDataObject@@@Z 0000000180018120 f i POSKeyboard.obj
 0001:000171b0       ?GetCodeAddress@CDynamicStdCallThunk2@ATL@@QEAAPEAXXZ 00000001800181b0 f i POSKeyboard.obj
 0001:000171f0       ?GetColorSet@?$IViewObjectExImpl@VCOPOSPOSKeyboard@@@ATL@@UEAAJKJPEAXPEAUtagDVTARGETDEVICE@@PEAUHDC__@@PEAPEAUtagLOGPALETTE@@@Z 00000001800181f0 f i POSKeyboard.obj
 0001:00017280       ?GetConnMap@COPOSPOSKeyboard@@SAPEBU_ATL_CONNMAP_ENTRY@ATL@@PEAH@Z 0000000180018280 f i POSKeyboard.obj
 0001:000173e0       ?GetConnectionInterface@?$IConnectionPointImpl@VCOPOSPOSKeyboard@@$1?DIID__IOPOSPOSKeyboardEvents@@3U_GUID@@BVCComDynamicUnkArray@ATL@@@ATL@@UEAAJPEAU_GUID@@@Z 00000001800183e0 f i POSKeyboard.obj
 0001:00017420       ?GetConnectionInterface@?$IConnectionPointImpl@VCOPOSPOSKeyboard@@$1?IID_IPropertyNotifySink@@3U_GUID@@BVCComDynamicUnkArray@ATL@@@ATL@@UEAAJPEAU_GUID@@@Z 0000000180018420 f i POSKeyboard.obj
 0001:00017460       ?GetConnectionPointContainer@?$IConnectionPointImpl@VCOPOSPOSKeyboard@@$1?DIID__IOPOSPOSKeyboardEvents@@3U_GUID@@BVCComDynamicUnkArray@ATL@@@ATL@@UEAAJPEAPEAUIConnectionPointContainer@@@Z 0000000180018460 f i POSKeyboard.obj
 0001:000174e0       ?GetConnectionPointContainer@?$IConnectionPointImpl@VCOPOSPOSKeyboard@@$1?IID_IPropertyNotifySink@@3U_GUID@@BVCComDynamicUnkArray@ATL@@@ATL@@UEAAJPEAPEAUIConnectionPointContainer@@@Z 00000001800184e0 f i POSKeyboard.obj
 0001:00017560       ?GetContentExtent@?$IQuickActivateImpl@VCOPOSPOSKeyboard@@@ATL@@UEAAJPEAUtagSIZE@@@Z 0000000180018560 f i POSKeyboard.obj
 0001:00017620       ?GetControlInfo@?$IOleControlImpl@VCOPOSPOSKeyboard@@@ATL@@UEAAJPEAUtagCONTROLINFO@@@Z 0000000180018620 f i POSKeyboard.obj
 0001:000176b0       ?GetCookie@CComDynamicUnkArray@ATL@@QEAAKPEAPEAUIUnknown@@@Z 00000001800186b0 f i POSKeyboard.obj
 0001:000177a0       ?GetData@?$IDataObjectImpl@VCOPOSPOSKeyboard@@@ATL@@UEAAJPEAUtagFORMATETC@@PEAUtagSTGMEDIUM@@@Z 00000001800187a0 f i POSKeyboard.obj
 0001:00017860       ?GetData@CAtlSafeAllocBufferNode@?$CAtlSafeAllocBufferManager@VCCRTAllocator@ATL@@@_ATL_SAFE_ALLOCA_IMPL@ATL@@QEAAPEAXXZ 0000000180018860 f i POSKeyboard.obj
 0001:00017880       ?GetDataHere@?$IDataObjectImpl@VCOPOSPOSKeyboard@@@ATL@@UEAAJPEAUtagFORMATETC@@PEAUtagSTGMEDIUM@@@Z 0000000180018880 f i POSKeyboard.obj
 0001:00017910       ?GetDropTarget@?$IOleInPlaceObjectWindowlessImpl@VCOPOSPOSKeyboard@@@ATL@@UEAAJPEAPEAUIDropTarget@@@Z 0000000180018910 f i POSKeyboard.obj
 0001:000179a0       ?GetExtent@?$IOleObjectImpl@VCOPOSPOSKeyboard@@@ATL@@UEAAJKPEAUtagSIZE@@@Z 00000001800189a0 f i POSKeyboard.obj
 0001:00017a70       ?GetExtent@?$IViewObjectExImpl@VCOPOSPOSKeyboard@@@ATL@@UEAAJKJPEAUtagDVTARGETDEVICE@@PEAUtagSIZE@@@Z 0000000180018a70 f i POSKeyboard.obj
 0001:00017b80       ?GetGITPtr@CAtlModule@ATL@@UEAAJPEAPEAUIGlobalInterfaceTable@@@Z 0000000180018b80 f i POSKeyboard.obj
 0001:00017cc0       ?GetGUID@?$IProvideClassInfo2Impl@$1?CLSID_OPOSPOSKeyboard@@3U_GUID@@B$1?DIID__IOPOSPOSKeyboardEvents@@3U2@B$1?LIBID_OposPOSKeyboard_CCO@@3U2@B$00$0A@VCComTypeInfoHolder@ATL@@@ATL@@UEAAJKPEAU_GUID@@@Z 0000000180018cc0 f i POSKeyboard.obj
 0001:00017d40       ?GetIDsOfNames@?$IDispatchImpl@UIOPOSPOSKeyboard@@$1?IID_IOPOSPOSKeyboard@@3U_GUID@@B$1?LIBID_OposPOSKeyboard_CCO@@3U3@B$00$0A@VCComTypeInfoHolder@ATL@@@ATL@@UEAAJAEBU_GUID@@PEAPEA_WIKPEAJ@Z 0000000180018d40 f i POSKeyboard.obj
 0001:00017da0       ?GetIDsOfNames@CComTypeInfoHolder@ATL@@QEAAJAEBU_GUID@@PEAPEA_WIKPEAJ@Z 0000000180018da0 f i POSKeyboard.obj
 0001:00017fc0       ?GetInterfaceSafetyOptions@?$IObjectSafetyImpl@VCOPOSPOSKeyboard@@$02@ATL@@UEAAJAEBU_GUID@@PEAK1@Z 0000000180018fc0 f i POSKeyboard.obj
 0001:00018160       ?GetKeyAt@?$CSimpleMap@PEA_WPEA_WVCExpansionVectorEqualHelper@ATL@@@ATL@@QEBAAEAPEA_WH@Z 0000000180019160 f i POSKeyboard.obj
 0001:00018210       ?GetLockCount@CAtlModule@ATL@@UEAAJXZ 0000000180019210 f i POSKeyboard.obj
 0001:00018220       ?GetMiscStatus@?$IOleObjectImpl@VCOPOSPOSKeyboard@@@ATL@@UEAAJKPEAK@Z 0000000180019220 f i POSKeyboard.obj
 0001:000182b0       ?GetMoniker@?$IOleObjectImpl@VCOPOSPOSKeyboard@@@ATL@@UEAAJKKPEAPEAUIMoniker@@@Z 00000001800192b0 f i POSKeyboard.obj
 0001:00018340       ?GetNaturalExtent@?$IViewObjectExImpl@VCOPOSPOSKeyboard@@@ATL@@UEAAJKJPEAUtagDVTARGETDEVICE@@PEAUHDC__@@PEAUtagExtentInfo@@PEAUtagSIZE@@@Z 0000000180019340 f i POSKeyboard.obj
 0001:000184d0       ?GetObjectCLSID@?$CComCoClass@VCOPOSPOSKeyboard@@$1?CLSID_OPOSPOSKeyboard@@3U_GUID@@B@ATL@@SAAEBU_GUID@@XZ 00000001800194d0 f i POSKeyboard.obj
 0001:000184e0       ?GetPages@?$ISpecifyPropertyPagesImpl@VCOPOSPOSKeyboard@@@ATL@@UEAAJPEAUtagCAUUID@@@Z 00000001800194e0 f i POSKeyboard.obj
 0001:00018570       ?GetPagesHelper@?$ISpecifyPropertyPagesImpl@VCOPOSPOSKeyboard@@@ATL@@IEAAJPEAUtagCAUUID@@PEBUATL_PROPMAP_ENTRY@2@@Z 0000000180019570 f i POSKeyboard.obj
 0001:000187e0       ?GetProperty@?$CComPtr@UIDispatch@@@ATL@@QEAAJJPEAUtagVARIANT@@@Z 00000001800197e0 f i POSKeyboard.obj
 0001:00018830       ?GetProperty@?$CComPtr@UIDispatch@@@ATL@@SAJPEAUIDispatch@@JPEAUtagVARIANT@@@Z 0000000180019830 f i POSKeyboard.obj
 0001:00018a00       ?GetPropertyMap@COPOSPOSKeyboard@@SAPEBUATL_PROPMAP_ENTRY@ATL@@XZ 0000000180019a00 f i POSKeyboard.obj
 0001:00018a10       ?GetRect@?$IViewObjectExImpl@VCOPOSPOSKeyboard@@@ATL@@UEAAJKPEAU_RECTL@@@Z 0000000180019a10 f i POSKeyboard.obj
 0001:00018aa0       ?GetSize@?$CSimpleMap@PEA_WPEA_WVCExpansionVectorEqualHelper@ATL@@@ATL@@QEBAHXZ 0000000180019aa0 f i POSKeyboard.obj
 0001:00018ab0       ?GetSize@CComDynamicUnkArray@ATL@@QEBAHXZ 0000000180019ab0 f i POSKeyboard.obj
 0001:00018ac0       ?GetSizeMax@?$IPersistStreamInitImpl@VCOPOSPOSKeyboard@@@ATL@@UEAAJPEAT_ULARGE_INTEGER@@@Z 0000000180019ac0 f i POSKeyboard.obj
 0001:00019250       ?GetSizeMax@CComVariant@ATL@@QEBAJPEAT_ULARGE_INTEGER@@@Z 000000018001a250 f i POSKeyboard.obj
 0001:00019680       ?GetStreamSize@CComBSTR@ATL@@SAKPEA_W@Z 000000018001a680 f i POSKeyboard.obj
 0001:000196e0       ?GetTI@CComTypeInfoHolder@ATL@@QEAAJK@Z 000000018001a6e0 f i POSKeyboard.obj
 0001:00019fb0       ?GetTI@CComTypeInfoHolder@ATL@@QEAAJKPEAPEAUITypeInfo@@@Z 000000018001afb0 f i POSKeyboard.obj
 0001:0001a0a0       ?GetTypeInfo@?$IDispatchImpl@UIOPOSPOSKeyboard@@$1?IID_IOPOSPOSKeyboard@@3U_GUID@@B$1?LIBID_OposPOSKeyboard_CCO@@3U3@B$00$0A@VCComTypeInfoHolder@ATL@@@ATL@@UEAAJIKPEAPEAUITypeInfo@@@Z 000000018001b0a0 f i POSKeyboard.obj
 0001:0001a0f0       ?GetTypeInfo@CComTypeInfoHolder@ATL@@QEAAJIKPEAPEAUITypeInfo@@@Z 000000018001b0f0 f i POSKeyboard.obj
 0001:0001a150       ?GetTypeInfoCount@?$IDispatchImpl@UIOPOSPOSKeyboard@@$1?IID_IOPOSPOSKeyboard@@3U_GUID@@B$1?LIBID_OposPOSKeyboard_CCO@@3U3@B$00$0A@VCComTypeInfoHolder@ATL@@@ATL@@UEAAJPEAI@Z 000000018001b150 f i POSKeyboard.obj
 0001:0001a180       ?GetUnknown@CComDynamicUnkArray@ATL@@QEAAPEAUIUnknown@@K@Z 000000018001b180 f i POSKeyboard.obj
 0001:0001a230       ?GetUnknown@COPOSPOSKeyboard@@QEAAPEAUIUnknown@@XZ 000000018001b230 f i POSKeyboard.obj
 0001:0001a260       ?GetUserClassID@?$IOleObjectImpl@VCOPOSPOSKeyboard@@@ATL@@UEAAJPEAU_GUID@@@Z 000000018001b260 f i POSKeyboard.obj
 0001:0001a340       ?GetUserType@?$IOleObjectImpl@VCOPOSPOSKeyboard@@@ATL@@UEAAJKPEAPEA_W@Z 000000018001b340 f i POSKeyboard.obj
 0001:0001a3d0       ?GetValueAt@?$CSimpleMap@PEA_WPEA_WVCExpansionVectorEqualHelper@ATL@@@ATL@@QEBAAEAPEA_WH@Z 000000018001b3d0 f i POSKeyboard.obj
 0001:0001a480       ?GetViewStatus@?$IViewObjectExImpl@VCOPOSPOSKeyboard@@@ATL@@UEAAJPEAK@Z 000000018001b480 f i POSKeyboard.obj
 0001:0001a580       ?GetWNDPROC@CWndProcThunk@ATL@@QEAAP6A_JPEAUHWND__@@I_K_J@ZXZ 000000018001b580 f i POSKeyboard.obj
 0001:0001a5c0       ?GetWindow@?$IOleInPlaceActiveObjectImpl@VCOPOSPOSKeyboard@@@ATL@@UEAAJPEAPEAUHWND__@@@Z 000000018001b5c0 f i POSKeyboard.obj
 0001:0001a6c0       ?GetWindow@?$IOleInPlaceObjectWindowlessImpl@VCOPOSPOSKeyboard@@@ATL@@UEAAJPEAPEAUHWND__@@@Z 000000018001b6c0 f i POSKeyboard.obj
 0001:0001a7c0       ?GetWindowProc@?$CWindowImplBaseT@VCWindow@ATL@@V?$CWinTraits@$0FGAAAAAA@$0A@@2@@ATL@@UEAAP6A_JPEAUHWND__@@I_K_J@ZXZ 000000018001b7c0 f i POSKeyboard.obj
 0001:0001a7d0       ?GetWndCaption@?$CWindowImpl@VCOPOSPOSKeyboard@@VCWindow@ATL@@V?$CWinTraits@$0FGAAAAAA@$0A@@3@@ATL@@SAPEB_WXZ 000000018001b7d0 f i POSKeyboard.obj
 0001:0001a7e0       ?GetWndClassInfo@?$CWindowImpl@VCOPOSPOSKeyboard@@VCWindow@ATL@@V?$CWinTraits@$0FGAAAAAA@$0A@@3@@ATL@@SAAEAU_ATL_WNDCLASSINFOW@2@XZ 000000018001b7e0 f i POSKeyboard.obj
 0001:0001a7f0       ?GetWndClassName@CWindow@ATL@@SAPEB_WXZ 000000018001b7f0 f i POSKeyboard.obj
 0001:0001a800       ?GetWndExStyle@?$CWinTraits@$0FGAAAAAA@$0A@@ATL@@SAKK@Z 000000018001b800 f i POSKeyboard.obj
 0001:0001a840       ?GetWndExStyle@?$CWindowImplBaseT@VCWindow@ATL@@V?$CWinTraits@$0FGAAAAAA@$0A@@2@@ATL@@SAKK@Z 000000018001b840 f i POSKeyboard.obj
 0001:0001a870       ?GetWndStyle@?$CWinTraits@$0FGAAAAAA@$0A@@ATL@@SAKK@Z 000000018001b870 f i POSKeyboard.obj
 0001:0001a8b0       ?GetWndStyle@?$CWindowImplBaseT@VCWindow@ATL@@V?$CWinTraits@$0FGAAAAAA@$0A@@2@@ATL@@SAKK@Z 000000018001b8b0 f i POSKeyboard.obj
 0001:0001a8e0       ?GetZoomInfo@CComControlBase@ATL@@QEAAXAEAUATL_DRAWINFO@@@Z 000000018001b8e0 f i POSKeyboard.obj
 0001:0001aa90       ?HKeyFromString@CRegParser@ATL@@KAPEAUHKEY__@@PEA_W@Z 000000018001ba90 f i POSKeyboard.obj
 0001:0001ab20       ?HandsOffStorage@?$IPersistStorageImpl@VCOPOSPOSKeyboard@@@ATL@@UEAAJXZ 000000018001bb20 f i POSKeyboard.obj
 0001:0001ab90       ?HasSubKeys@CRegParser@ATL@@IEAAHPEAUHKEY__@@@Z 000000018001bb90 f i POSKeyboard.obj
 0001:0001ad00       ?IDataObject_GetData@CComControlBase@ATL@@QEAAJPEAUtagFORMATETC@@PEAUtagSTGMEDIUM@@@Z 000000018001bd00 f i POSKeyboard.obj
 0001:0001b1b0       ?IOleInPlaceObject_InPlaceDeactivate@CComControlBase@ATL@@QEAAJXZ 000000018001c1b0 f i POSKeyboard.obj
 0001:0001b420       ?IOleInPlaceObject_SetObjectRects@CComControlBase@ATL@@QEAAJPEBUtagRECT@@0@Z 000000018001c420 f i POSKeyboard.obj
 0001:0001b600       ?IOleInPlaceObject_UIDeactivate@CComControlBase@ATL@@QEAAJXZ 000000018001c600 f i POSKeyboard.obj
 0001:0001b870       ?IOleObject_Advise@CComControlBase@ATL@@QEAAJPEAUIAdviseSink@@PEAK@Z 000000018001c870 f i POSKeyboard.obj
 0001:0001b920       ?IOleObject_Close@CComControlBase@ATL@@QEAAJK@Z 000000018001c920 f i POSKeyboard.obj
 0001:0001bc90       ?IOleObject_GetClientSite@CComControlBase@ATL@@QEAAJPEAPEAUIOleClientSite@@@Z 000000018001cc90 f i POSKeyboard.obj
 0001:0001bd60       ?IOleObject_SetClientSite@CComControlBase@ATL@@QEAAJPEAUIOleClientSite@@@Z 000000018001cd60 f i POSKeyboard.obj
 0001:0001be70       ?IOleObject_SetExtent@CComControlBase@ATL@@QEAAJKPEAUtagSIZE@@@Z 000000018001ce70 f i POSKeyboard.obj
 0001:0001bfe0       ?IPSI_GetIPersistStreamInit@?$IPersistStorageImpl@VCOPOSPOSKeyboard@@@ATL@@AEAAPEAUIPersistStreamInit@@XZ 000000018001cfe0 f i POSKeyboard.obj
 0001:0001c0a0       ?IPersistStreamInit_Load@?$IPersistStreamInitImpl@VCOPOSPOSKeyboard@@@ATL@@QEAAJPEAUIStream@@PEBUATL_PROPMAP_ENTRY@2@@Z 000000018001d0a0 f i POSKeyboard.obj
 0001:0001c140       ?IPersistStreamInit_Save@?$IPersistStreamInitImpl@VCOPOSPOSKeyboard@@@ATL@@QEAAJPEAUIStream@@HPEBUATL_PROPMAP_ENTRY@2@@Z 000000018001d140 f i POSKeyboard.obj
 0001:0001c200       ?IQuickActivate_QuickActivate@CComControlBase@ATL@@QEAAJPEAUtagQACONTAINER@@PEAUtagQACONTROL@@@Z 000000018001d200 f i POSKeyboard.obj
 0001:0001ca40       ?IViewObject_Draw@CComControlBase@ATL@@QEAAJKJPEAXPEAUtagDVTARGETDEVICE@@PEAUHDC__@@2PEBU_RECTL@@3@Z 000000018001da40 f i POSKeyboard.obj
 0001:0001ce90       ?InPlaceActivate@CComControlBase@ATL@@QEAAJJPEBUtagRECT@@@Z 000000018001de90 f i POSKeyboard.obj
 0001:0001da30       ?InPlaceDeactivate@?$IOleInPlaceObjectWindowlessImpl@VCOPOSPOSKeyboard@@@ATL@@UEAAJXZ 000000018001ea30 f i POSKeyboard.obj
 0001:0001dae0       ?Increment@CComMultiThreadModel@ATL@@SAKPEAJ@Z 000000018001eae0 f i POSKeyboard.obj
 0001:0001db00       ?Increment@CComSingleThreadModel@ATL@@SAKPEAJ@Z 000000018001eb00 f i POSKeyboard.obj
 0001:0001db20       ?Init@?$CComEnumImpl@UIEnumConnectionPoints@@$1?_GUID_b196b285_bab4_101a_b69c_00aa00341d07@@3U__s_GUID@@BPEAUIConnectionPoint@@V?$_CopyInterface@UIConnectionPoint@@@ATL@@@ATL@@QEAAJPEAPEAUIConnectionPoint@@0PEAUIUnknown@@W4CComEnumFlags@2@@Z 000000018001eb20 f i POSKeyboard.obj
 0001:0001de10       ?Init@?$CComEnumImpl@UIEnumConnections@@$1?_GUID_b196b287_bab4_101a_b69c_00aa00341d07@@3U__s_GUID@@BUtagCONNECTDATA@@V?$_Copy@UtagCONNECTDATA@@@ATL@@@ATL@@QEAAJPEAUtagCONNECTDATA@@0PEAUIUnknown@@W4CComEnumFlags@2@@Z 000000018001ee10 f i POSKeyboard.obj
 0001:0001e100       ?Init@CComFakeCriticalSection@ATL@@QEAAJXZ 000000018001f100 f i POSKeyboard.obj
 0001:0001e110       ?Init@CComModule@ATL@@QEAAJPEAU_ATL_OBJMAP_ENTRY30@2@PEAUHINSTANCE__@@PEBU_GUID@@@Z 000000018001f110 f i POSKeyboard.obj
 0001:0001e200       ?Init@CComSafeDeleteCriticalSection@ATL@@QEAAJXZ 000000018001f200 f i POSKeyboard.obj
 0001:0001e290       ?Init@CDynamicStdCallThunk2@ATL@@QEAAH_KPEAX@Z 000000018001f290 f i POSKeyboard.obj
 0001:0001e310       ?Init@CWndProcThunk@ATL@@QEAAHP6A_JPEAUHWND__@@I_K_J@ZPEAX@Z 000000018001f310 f i POSKeyboard.obj
 0001:0001e360       ?InitFromData@?$IOleObjectImpl@VCOPOSPOSKeyboard@@@ATL@@UEAAJPEAUIDataObject@@HK@Z 000000018001f360 f i POSKeyboard.obj
 0001:0001e3f0       ?InitLibId@?$CAtlModuleT@VCComModule@ATL@@@ATL@@SAXXZ 000000018001f3f0 f i POSKeyboard.obj
 0001:0001e400       ?InitNew@?$IPersistStorageImpl@VCOPOSPOSKeyboard@@@ATL@@UEAAJPEAUIStorage@@@Z 000000018001f400 f i POSKeyboard.obj
 0001:0001e4f0       ?InitNew@?$IPersistStreamInitImpl@VCOPOSPOSKeyboard@@@ATL@@UEAAJXZ 000000018001f4f0 f i POSKeyboard.obj
 0001:0001e5a0       ?InlineIsEqualUnknown@ATL@@YAHAEBU_GUID@@@Z 000000018001f5a0 f i POSKeyboard.obj
 0001:0001e630       ?InternalAddRef@?$CComObjectRootEx@VCComMultiThreadModel@ATL@@@ATL@@QEAAKXZ 000000018001f630 f i POSKeyboard.obj
 0001:0001e6b0       ?InternalAddRef@?$CComObjectRootEx@VCComSingleThreadModel@ATL@@@ATL@@QEAAKXZ 000000018001f6b0 f i POSKeyboard.obj
 0001:0001e730       ?InternalFinalConstructAddRef@CComObjectRootBase@ATL@@QEAAXXZ 000000018001f730 f i POSKeyboard.obj
 0001:0001e740       ?InternalFinalConstructAddRef@COPOSPOSKeyboard@@QEAAXXZ 000000018001f740 f i POSKeyboard.obj
 0001:0001e780       ?InternalFinalConstructRelease@CComObjectRootBase@ATL@@QEAAXXZ 000000018001f780 f i POSKeyboard.obj
 0001:0001e7f0       ?InternalFinalConstructRelease@COPOSPOSKeyboard@@QEAAXXZ 000000018001f7f0 f i POSKeyboard.obj
 0001:0001e830       ?InternalGetSite@CComControlBase@ATL@@QEAAJAEBU_GUID@@PEAPEAX@Z 000000018001f830 f i POSKeyboard.obj
 0001:0001e910       ?InternalQueryInterface@CComObjectRootBase@ATL@@SAJPEAXPEBU_ATL_INTMAP_ENTRY@2@AEBU_GUID@@PEAPEAX@Z 000000018001f910 f i POSKeyboard.obj
 0001:0001ea30       ?InternalRelease@?$CComObjectRootEx@VCComMultiThreadModel@ATL@@@ATL@@QEAAKXZ 000000018001fa30 f i POSKeyboard.obj
 0001:0001eab0       ?InternalRelease@?$CComObjectRootEx@VCComSingleThreadModel@ATL@@@ATL@@QEAAKXZ 000000018001fab0 f i POSKeyboard.obj
 0001:0001eb30       ?InternalSetAtIndex@?$CSimpleArray@GV?$CSimpleArrayEqualHelper@G@ATL@@@ATL@@QEAAXHAEBG@Z 000000018001fb30 f i POSKeyboard.obj
 0001:0001ebb0       ?InternalSetAtIndex@?$CSimpleMap@PEA_WPEA_WVCExpansionVectorEqualHelper@ATL@@@ATL@@QEAAXHAEBQEA_W0@Z 000000018001fbb0 f i POSKeyboard.obj
 0001:0001ec80       ?Invoke@?$IDispatchImpl@UIOPOSPOSKeyboard@@$1?IID_IOPOSPOSKeyboard@@3U_GUID@@B$1?LIBID_OposPOSKeyboard_CCO@@3U3@B$00$0A@VCComTypeInfoHolder@ATL@@@ATL@@UEAAJJAEBU_GUID@@KGPEAUtagDISPPARAMS@@PEAUtagVARIANT@@PEAUtagEXCEPINFO@@PEAI@Z 000000018001fc80 f i POSKeyboard.obj
 0001:0001ed20       ?Invoke@CComTypeInfoHolder@ATL@@QEAAJPEAUIDispatch@@JAEBU_GUID@@KGPEAUtagDISPPARAMS@@PEAUtagVARIANT@@PEAUtagEXCEPINFO@@PEAI@Z 000000018001fd20 f i POSKeyboard.obj
 0001:0001ede0       ?IsDirty@?$IPersistStorageImpl@VCOPOSPOSKeyboard@@@ATL@@UEAAJXZ 000000018001fde0 f i POSKeyboard.obj
 0001:0001eed0       ?IsDirty@?$IPersistStreamInitImpl@VCOPOSPOSKeyboard@@@ATL@@UEAAJXZ 000000018001fed0 f i POSKeyboard.obj
 0001:0001ef90       ?IsEqualKey@CExpansionVectorEqualHelper@ATL@@SA_NQEA_W0@Z 000000018001ff90 f i POSKeyboard.obj
 0001:0001efe0       ?IsEqualObject@?$CComPtrBase@UIOleClientSite@@@ATL@@QEAA_NPEAUIUnknown@@@Z 000000018001ffe0 f i POSKeyboard.obj
 0001:0001f130       ?IsEqualObject@?$CComPtrBase@UITypeInfo@@@ATL@@QEAA_NPEAUIUnknown@@@Z 0000000180020130 f i POSKeyboard.obj
 0001:0001f280       ?IsSpace@CRegParser@ATL@@IEAAH_W@Z 0000000180020280 f i POSKeyboard.obj
 0001:0001f2e0       ?IsUpToDate@?$IOleObjectImpl@VCOPOSPOSKeyboard@@@ATL@@UEAAJXZ 00000001800202e0 f i POSKeyboard.obj
 0001:0001f350       ?Length@CComBSTR@ATL@@QEBAIXZ 0000000180020350 f i POSKeyboard.obj
 0001:0001f390       ?Load@?$IPersistStorageImpl@VCOPOSPOSKeyboard@@@ATL@@UEAAJPEAUIStorage@@@Z 0000000180020390 f i POSKeyboard.obj
 0001:0001f540       ?Load@?$IPersistStreamInitImpl@VCOPOSPOSKeyboard@@@ATL@@UEAAJPEAUIStream@@@Z 0000000180020540 f i POSKeyboard.obj
 0001:0001f600       ?LoadCursorW@AtlModuleRegisterWndClassInfoParamW@ATL@@SAPEAUHICON__@@PEAUHINSTANCE__@@PEB_W@Z 0000000180020600 f i POSKeyboard.obj
 0001:0001f640       ?LoadNameCache@CComTypeInfoHolder@ATL@@QEAAJPEAUITypeInfo@@@Z 0000000180020640 f i POSKeyboard.obj
 0001:0001f980       ?Lock@?$CComCritSecLock@VCComCriticalSection@ATL@@@ATL@@QEAAJXZ 0000000180020980 f i POSKeyboard.obj
 0001:0001fa70       ?Lock@?$CComObjectRootEx@VCComSingleThreadModel@ATL@@@ATL@@QEAAXXZ 0000000180020a70 f i POSKeyboard.obj
 0001:0001fa80       ?Lock@CAtlModule@ATL@@UEAAJXZ 0000000180020a80 f i POSKeyboard.obj
 0001:0001fac0       ?Lock@CComCriticalSection@ATL@@QEAAJXZ 0000000180020ac0 f i POSKeyboard.obj
 0001:0001fb00       ?Lock@CComFakeCriticalSection@ATL@@QEAAJXZ 0000000180020b00 f i POSKeyboard.obj
 0001:0001fb10       ?LockServer@CComClassFactory@ATL@@UEAAJH@Z 0000000180020b10 f i POSKeyboard.obj
 0001:0001fb70       ?Lookup@?$CSimpleMap@PEA_WPEA_WVCExpansionVectorEqualHelper@ATL@@@ATL@@QEBAPEA_WAEBQEA_W@Z 0000000180020b70 f i POSKeyboard.obj
 0001:0001fbd0       ?Next@?$CComEnumImpl@UIEnumConnectionPoints@@$1?_GUID_b196b285_bab4_101a_b69c_00aa00341d07@@3U__s_GUID@@BPEAUIConnectionPoint@@V?$_CopyInterface@UIConnectionPoint@@@ATL@@@ATL@@UEAAJKPEAPEAUIConnectionPoint@@PEAK@Z 0000000180020bd0 f i POSKeyboard.obj
 0001:0001fd90       ?Next@?$CComEnumImpl@UIEnumConnections@@$1?_GUID_b196b287_bab4_101a_b69c_00aa00341d07@@3U__s_GUID@@BUtagCONNECTDATA@@V?$_Copy@UtagCONNECTDATA@@@ATL@@@ATL@@UEAAJKPEAUtagCONNECTDATA@@PEAK@Z 0000000180020d90 f i POSKeyboard.obj
 0001:0001ff50       ?NextToken@CRegParser@ATL@@IEAAJPEA_W@Z 0000000180020f50 f i POSKeyboard.obj
 0001:000202e0       ?OLE2CT_EX@@YAPEB_WPEB_WI@Z 00000001800212e0 f i POSKeyboard.obj
 0001:00020300       ?OLE2CT_EX_DEF@@YAPEB_WPEB_W@Z 0000000180021300 f i POSKeyboard.obj
 0001:00020310       ?OLE2T_EX@@YAPEA_WPEA_WI@Z 0000000180021310 f i POSKeyboard.obj
 0001:00020330       ?OnAmbientPropertyChange@?$IOleControlImpl@VCOPOSPOSKeyboard@@@ATL@@UEAAJJ@Z 0000000180021330 f i POSKeyboard.obj
 0001:000203f0       ?OnDocWindowActivate@?$IOleInPlaceActiveObjectImpl@VCOPOSPOSKeyboard@@@ATL@@UEAAJH@Z 00000001800213f0 f i POSKeyboard.obj
 0001:000204b0       ?OnDrawAdvanced@CComControlBase@ATL@@UEAAJAEAUATL_DRAWINFO@@@Z 00000001800214b0 f i POSKeyboard.obj
 0001:00020700       ?OnFinalMessage@?$CWindowImplBaseT@VCWindow@ATL@@V?$CWinTraits@$0FGAAAAAA@$0A@@2@@ATL@@UEAAXPEAUHWND__@@@Z 0000000180021700 f i POSKeyboard.obj
 0001:00020710       ?OnFrameWindowActivate@?$IOleInPlaceActiveObjectImpl@VCOPOSPOSKeyboard@@@ATL@@UEAAJH@Z 0000000180021710 f i POSKeyboard.obj
 0001:00020780       ?OnKillFocus@CComControlBase@ATL@@QEAA_JI_K_JAEAH@Z 0000000180021780 f i POSKeyboard.obj
 0001:00020870       ?OnMnemonic@?$IOleControlImpl@VCOPOSPOSKeyboard@@@ATL@@UEAAJPEAUtagMSG@@@Z 0000000180021870 f i POSKeyboard.obj
 0001:00020900       ?OnMouseActivate@CComControlBase@ATL@@QEAA_JI_K_JAEAH@Z 0000000180021900 f i POSKeyboard.obj
 0001:00020aa0       ?OnPaint@CComControlBase@ATL@@QEAA_JI_K_JAEAH@Z 0000000180021aa0 f i POSKeyboard.obj
 0001:00020c30       ?OnPostVerbDiscardUndo@?$IOleObjectImpl@VCOPOSPOSKeyboard@@@ATL@@QEAAJXZ 0000000180021c30 f i POSKeyboard.obj
 0001:00020c40       ?OnPostVerbHide@?$IOleObjectImpl@VCOPOSPOSKeyboard@@@ATL@@QEAAJXZ 0000000180021c40 f i POSKeyboard.obj
 0001:00020c50       ?OnPostVerbInPlaceActivate@?$IOleObjectImpl@VCOPOSPOSKeyboard@@@ATL@@QEAAJXZ 0000000180021c50 f i POSKeyboard.obj
 0001:00020c60       ?OnPostVerbOpen@?$IOleObjectImpl@VCOPOSPOSKeyboard@@@ATL@@QEAAJXZ 0000000180021c60 f i POSKeyboard.obj
 0001:00020c70       ?OnPostVerbShow@?$IOleObjectImpl@VCOPOSPOSKeyboard@@@ATL@@QEAAJXZ 0000000180021c70 f i POSKeyboard.obj
 0001:00020c80       ?OnPostVerbUIActivate@?$IOleObjectImpl@VCOPOSPOSKeyboard@@@ATL@@QEAAJXZ 0000000180021c80 f i POSKeyboard.obj
 0001:00020c90       ?OnPreVerbDiscardUndo@?$IOleObjectImpl@VCOPOSPOSKeyboard@@@ATL@@QEAAJXZ 0000000180021c90 f i POSKeyboard.obj
 0001:00020ca0       ?OnPreVerbHide@?$IOleObjectImpl@VCOPOSPOSKeyboard@@@ATL@@QEAAJXZ 0000000180021ca0 f i POSKeyboard.obj
 0001:00020cb0       ?OnPreVerbInPlaceActivate@?$IOleObjectImpl@VCOPOSPOSKeyboard@@@ATL@@QEAAJXZ 0000000180021cb0 f i POSKeyboard.obj
 0001:00020cc0       ?OnPreVerbOpen@?$IOleObjectImpl@VCOPOSPOSKeyboard@@@ATL@@QEAAJXZ 0000000180021cc0 f i POSKeyboard.obj
 0001:00020cd0       ?OnPreVerbShow@?$IOleObjectImpl@VCOPOSPOSKeyboard@@@ATL@@QEAAJXZ 0000000180021cd0 f i POSKeyboard.obj
 0001:00020ce0       ?OnPreVerbUIActivate@?$IOleObjectImpl@VCOPOSPOSKeyboard@@@ATL@@QEAAJXZ 0000000180021ce0 f i POSKeyboard.obj
 0001:00020cf0       ?OnSetFocus@CComControlBase@ATL@@QEAA_JI_K_JAEAH@Z 0000000180021cf0 f i POSKeyboard.obj
 0001:00020ef0       ?OnWindowMessage@?$IOleInPlaceObjectWindowlessImpl@VCOPOSPOSKeyboard@@@ATL@@UEAAJI_K_JPEA_J@Z 0000000180021ef0 f i POSKeyboard.obj
 0001:00021110       ?Open@CRegKey@ATL@@QEAAJPEAUHKEY__@@PEB_WK@Z 0000000180022110 f i POSKeyboard.obj
 0001:00021290       ?OuterAddRef@CComObjectRootBase@ATL@@QEAAKXZ 0000000180022290 f i POSKeyboard.obj
 0001:000212d0       ?OuterQueryInterface@CComObjectRootBase@ATL@@QEAAJAEBU_GUID@@PEAPEAX@Z 00000001800222d0 f i POSKeyboard.obj
 0001:00021320       ?OuterRelease@CComObjectRootBase@ATL@@QEAAKXZ 0000000180022320 f i POSKeyboard.obj
 0001:00021360       ?PreProcessBuffer@CRegParser@ATL@@QEAAJPEA_WPEAPEA_W@Z 0000000180022360 f i POSKeyboard.obj
 0001:00021a40       ?PreTranslateAccelerator@CComControlBase@ATL@@QEAAHPEAUtagMSG@@AEAJ@Z 0000000180022a40 f i POSKeyboard.obj
 0001:00021a60       ?ProcessWindowMessage@?$CComControl@VCOPOSPOSKeyboard@@V?$CWindowImpl@VCOPOSPOSKeyboard@@VCWindow@ATL@@V?$CWinTraits@$0FGAAAAAA@$0A@@3@@ATL@@@ATL@@UEAAHPEAUHWND__@@I_K_JAEA_JK@Z 0000000180022a60 f i POSKeyboard.obj
 0001:00021ce0       ?ProcessWindowMessage@COPOSPOSKeyboard@@UEAAHPEAUHWND__@@I_K_JAEA_JK@Z 0000000180022ce0 f i POSKeyboard.obj
 0001:00021e60       ?PutProperty@?$CComPtr@UIDispatch@@@ATL@@QEAAJJPEAUtagVARIANT@@@Z 0000000180022e60 f i POSKeyboard.obj
 0001:00021eb0       ?PutProperty@?$CComPtr@UIDispatch@@@ATL@@SAJPEAUIDispatch@@JPEAUtagVARIANT@@@Z 0000000180022eb0 f i POSKeyboard.obj
 0001:00022150       ?QueryGetData@?$IDataObjectImpl@VCOPOSPOSKeyboard@@@ATL@@UEAAJPEAUtagFORMATETC@@@Z 0000000180023150 f i POSKeyboard.obj
 0001:000221e0       ?QueryHitPoint@?$IViewObjectExImpl@VCOPOSPOSKeyboard@@@ATL@@UEAAJKPEBUtagRECT@@UtagPOINT@@JPEAK@Z 00000001800231e0 f i POSKeyboard.obj
 0001:00022350       ?QueryHitRect@?$IViewObjectExImpl@VCOPOSPOSKeyboard@@@ATL@@UEAAJKPEBUtagRECT@@0JPEAK@Z 0000000180023350 f i POSKeyboard.obj
 0001:00022520       ?QueryInterface@?$CComAggObject@VCOPOSPOSKeyboard@@@ATL@@UEAAJAEBU_GUID@@PEAPEAX@Z 0000000180023520 f i POSKeyboard.obj
 0001:00022610       ?QueryInterface@?$CComContainedObject@VCOPOSPOSKeyboard@@@ATL@@UEAAJAEBU_GUID@@PEAPEAX@Z 0000000180023610 f i POSKeyboard.obj
 0001:0002265c       ?QueryInterface@?$CComContainedObject@VCOPOSPOSKeyboard@@@ATL@@WBAA@EAAJAEBU_GUID@@PEAPEAX@Z 000000018002365c f i POSKeyboard.obj
 0001:00022668       ?QueryInterface@?$CComContainedObject@VCOPOSPOSKeyboard@@@ATL@@WBAI@EAAJAEBU_GUID@@PEAPEAX@Z 0000000180023668 f i POSKeyboard.obj
 0001:00022674       ?QueryInterface@?$CComContainedObject@VCOPOSPOSKeyboard@@@ATL@@WBBA@EAAJAEBU_GUID@@PEAPEAX@Z 0000000180023674 f i POSKeyboard.obj
 0001:00022680       ?QueryInterface@?$CComContainedObject@VCOPOSPOSKeyboard@@@ATL@@WBBI@EAAJAEBU_GUID@@PEAPEAX@Z 0000000180023680 f i POSKeyboard.obj
 0001:0002268c       ?QueryInterface@?$CComContainedObject@VCOPOSPOSKeyboard@@@ATL@@WLI@EAAJAEBU_GUID@@PEAPEAX@Z 000000018002368c f i POSKeyboard.obj
 0001:00022698       ?QueryInterface@?$CComContainedObject@VCOPOSPOSKeyboard@@@ATL@@WMA@EAAJAEBU_GUID@@PEAPEAX@Z 0000000180023698 f i POSKeyboard.obj
 0001:000226a4       ?QueryInterface@?$CComContainedObject@VCOPOSPOSKeyboard@@@ATL@@WMI@EAAJAEBU_GUID@@PEAPEAX@Z 00000001800236a4 f i POSKeyboard.obj
 0001:000226b0       ?QueryInterface@?$CComContainedObject@VCOPOSPOSKeyboard@@@ATL@@WNA@EAAJAEBU_GUID@@PEAPEAX@Z 00000001800236b0 f i POSKeyboard.obj
 0001:000226bc       ?QueryInterface@?$CComContainedObject@VCOPOSPOSKeyboard@@@ATL@@WNI@EAAJAEBU_GUID@@PEAPEAX@Z 00000001800236bc f i POSKeyboard.obj
 0001:000226c8       ?QueryInterface@?$CComContainedObject@VCOPOSPOSKeyboard@@@ATL@@WOA@EAAJAEBU_GUID@@PEAPEAX@Z 00000001800236c8 f i POSKeyboard.obj
 0001:000226d4       ?QueryInterface@?$CComContainedObject@VCOPOSPOSKeyboard@@@ATL@@WOI@EAAJAEBU_GUID@@PEAPEAX@Z 00000001800236d4 f i POSKeyboard.obj
 0001:000226e0       ?QueryInterface@?$CComContainedObject@VCOPOSPOSKeyboard@@@ATL@@WPA@EAAJAEBU_GUID@@PEAPEAX@Z 00000001800236e0 f i POSKeyboard.obj
 0001:000226ec       ?QueryInterface@?$CComContainedObject@VCOPOSPOSKeyboard@@@ATL@@WPI@EAAJAEBU_GUID@@PEAPEAX@Z 00000001800236ec f i POSKeyboard.obj
 0001:00022700       ?QueryInterface@?$CComObject@V?$CComEnum@UIEnumConnectionPoints@@$1?_GUID_b196b285_bab4_101a_b69c_00aa00341d07@@3U__s_GUID@@BPEAUIConnectionPoint@@V?$_CopyInterface@UIConnectionPoint@@@ATL@@VCComSingleThreadModel@6@@ATL@@@ATL@@UEAAJAEBU_GUID@@PEAPEAX@Z 0000000180023700 f i POSKeyboard.obj
 0001:00022750       ?QueryInterface@?$CComObject@V?$CComEnum@UIEnumConnections@@$1?_GUID_b196b287_bab4_101a_b69c_00aa00341d07@@3U__s_GUID@@BUtagCONNECTDATA@@V?$_Copy@UtagCONNECTDATA@@@ATL@@VCComSingleThreadModel@6@@ATL@@@ATL@@UEAAJAEBU_GUID@@PEAPEAX@Z 0000000180023750 f i POSKeyboard.obj
 0001:000227a0       ?QueryInterface@?$CComObject@VCOPOSPOSKeyboard@@@ATL@@UEAAJAEBU_GUID@@PEAPEAX@Z 00000001800237a0 f i POSKeyboard.obj
 0001:000227e4       ?QueryInterface@?$CComObject@VCOPOSPOSKeyboard@@@ATL@@WBAA@EAAJAEBU_GUID@@PEAPEAX@Z 00000001800237e4 f i POSKeyboard.obj
 0001:000227f0       ?QueryInterface@?$CComObject@VCOPOSPOSKeyboard@@@ATL@@WBAI@EAAJAEBU_GUID@@PEAPEAX@Z 00000001800237f0 f i POSKeyboard.obj
 0001:000227fc       ?QueryInterface@?$CComObject@VCOPOSPOSKeyboard@@@ATL@@WBBA@EAAJAEBU_GUID@@PEAPEAX@Z 00000001800237fc f i POSKeyboard.obj
 0001:00022808       ?QueryInterface@?$CComObject@VCOPOSPOSKeyboard@@@ATL@@WBBI@EAAJAEBU_GUID@@PEAPEAX@Z 0000000180023808 f i POSKeyboard.obj
 0001:00022814       ?QueryInterface@?$CComObject@VCOPOSPOSKeyboard@@@ATL@@WLI@EAAJAEBU_GUID@@PEAPEAX@Z 0000000180023814 f i POSKeyboard.obj
 0001:00022820       ?QueryInterface@?$CComObject@VCOPOSPOSKeyboard@@@ATL@@WMA@EAAJAEBU_GUID@@PEAPEAX@Z 0000000180023820 f i POSKeyboard.obj
 0001:0002282c       ?QueryInterface@?$CComObject@VCOPOSPOSKeyboard@@@ATL@@WMI@EAAJAEBU_GUID@@PEAPEAX@Z 000000018002382c f i POSKeyboard.obj
 0001:00022838       ?QueryInterface@?$CComObject@VCOPOSPOSKeyboard@@@ATL@@WNA@EAAJAEBU_GUID@@PEAPEAX@Z 0000000180023838 f i POSKeyboard.obj
 0001:00022844       ?QueryInterface@?$CComObject@VCOPOSPOSKeyboard@@@ATL@@WNI@EAAJAEBU_GUID@@PEAPEAX@Z 0000000180023844 f i POSKeyboard.obj
 0001:00022850       ?QueryInterface@?$CComObject@VCOPOSPOSKeyboard@@@ATL@@WOA@EAAJAEBU_GUID@@PEAPEAX@Z 0000000180023850 f i POSKeyboard.obj
 0001:0002285c       ?QueryInterface@?$CComObject@VCOPOSPOSKeyboard@@@ATL@@WOI@EAAJAEBU_GUID@@PEAPEAX@Z 000000018002385c f i POSKeyboard.obj
 0001:00022868       ?QueryInterface@?$CComObject@VCOPOSPOSKeyboard@@@ATL@@WPA@EAAJAEBU_GUID@@PEAPEAX@Z 0000000180023868 f i POSKeyboard.obj
 0001:00022874       ?QueryInterface@?$CComObject@VCOPOSPOSKeyboard@@@ATL@@WPI@EAAJAEBU_GUID@@PEAPEAX@Z 0000000180023874 f i POSKeyboard.obj
 0001:00022880       ?QueryInterface@?$CComObjectCached@VCComClassFactory@ATL@@@ATL@@UEAAJAEBU_GUID@@PEAPEAX@Z 0000000180023880 f i POSKeyboard.obj
 0001:000228d0       ?QueryInterface@CRegObject@ATL@@UEAAJAEBU_GUID@@PEAPEAX@Z 00000001800238d0 f i POSKeyboard.obj
 0001:00022950       ?QuickActivate@?$IQuickActivateImpl@VCOPOSPOSKeyboard@@@ATL@@UEAAJPEAUtagQACONTAINER@@PEAUtagQACONTROL@@@Z 0000000180023950 f i POSKeyboard.obj
 0001:00022a10       ?ReactivateAndUndo@?$IOleInPlaceObjectWindowlessImpl@VCOPOSPOSKeyboard@@@ATL@@UEAAJXZ 0000000180023a10 f i POSKeyboard.obj
 0001:00022a90       ?ReadFromStream@CComBSTR@ATL@@QEAAJPEAUIStream@@@Z 0000000180023a90 f i POSKeyboard.obj
 0001:00022f70       ?ReadFromStream@CComVariant@ATL@@QEAAJPEAUIStream@@GTClassesAllowedInStream@2@K@Z 0000000180023f70 f i POSKeyboard.obj
 0001:000233a0       ?RecurseDeleteKey@CRegKey@ATL@@QEAAJPEB_W@Z 00000001800243a0 f i POSKeyboard.obj
 0001:000235c0       ?RegCreateKeyExW@CAtlTransactionManager@ATL@@QEAAJPEAUHKEY__@@PEB_WKPEA_WKKQEAU_SECURITY_ATTRIBUTES@@PEAPEAU3@PEAK@Z 00000001800245c0 f i POSKeyboard.obj
 0001:00023790       ?RegDeleteKeyW@CAtlTransactionManager@ATL@@QEAAJPEAUHKEY__@@PEB_W@Z 0000000180024790 f i POSKeyboard.obj
 0001:000238a0       ?RegOpenKeyExW@CAtlTransactionManager@ATL@@QEAAJPEAUHKEY__@@PEB_WKKPEAPEAU3@@Z 00000001800248a0 f i POSKeyboard.obj
 0001:000239f0       ?Register@_ATL_WNDCLASSINFOW@ATL@@QEAAGPEAP6A_JPEAUHWND__@@I_K_J@Z@Z 00000001800249f0 f i POSKeyboard.obj
 0001:00023a40       ?RegisterBuffer@CRegParser@ATL@@QEAAJPEA_WH@Z 0000000180024a40 f i POSKeyboard.obj
 0001:00023e30       ?RegisterClassExW@AtlModuleRegisterWndClassInfoParamW@ATL@@SAGPEAU_ATL_WIN_MODULE70@2@PEBUtagWNDCLASSEXW@@@Z 0000000180024e30 f i POSKeyboard.obj
 0001:00023e70       ?RegisterFromResource@CRegObject@ATL@@IEAAJPEB_W00H@Z 0000000180024e70 f i POSKeyboard.obj
 0001:000242d0       ?RegisterServer@?$CAtlModuleT@VCComModule@ATL@@@ATL@@QEAAJHPEBU_GUID@@@Z 00000001800252d0 f i POSKeyboard.obj
 0001:00024350       ?RegisterServer@CAtlComModule@ATL@@QEAAJHPEBU_GUID@@@Z 0000000180025350 f i POSKeyboard.obj
 0001:00024390       ?RegisterServer@CComModule@ATL@@QEAAJHPEBU_GUID@@@Z 0000000180025390 f i POSKeyboard.obj
 0001:00024490       ?RegisterSubkeys@CRegParser@ATL@@IEAAJPEA_WPEAUHKEY__@@HH@Z 0000000180025490 f i POSKeyboard.obj
 0001:00025270       ?Release@?$CComAggObject@VCOPOSPOSKeyboard@@@ATL@@UEAAKXZ 0000000180026270 f i POSKeyboard.obj
 0001:00025320       ?Release@?$CComContainedObject@VCOPOSPOSKeyboard@@@ATL@@UEAAKXZ 0000000180026320 f i POSKeyboard.obj
 0001:00025358       ?Release@?$CComContainedObject@VCOPOSPOSKeyboard@@@ATL@@WBAA@EAAKXZ 0000000180026358 f i POSKeyboard.obj
 0001:00025364       ?Release@?$CComContainedObject@VCOPOSPOSKeyboard@@@ATL@@WBAI@EAAKXZ 0000000180026364 f i POSKeyboard.obj
 0001:00025370       ?Release@?$CComContainedObject@VCOPOSPOSKeyboard@@@ATL@@WBBA@EAAKXZ 0000000180026370 f i POSKeyboard.obj
 0001:0002537c       ?Release@?$CComContainedObject@VCOPOSPOSKeyboard@@@ATL@@WBBI@EAAKXZ 000000018002637c f i POSKeyboard.obj
 0001:00025388       ?Release@?$CComContainedObject@VCOPOSPOSKeyboard@@@ATL@@WBCI@EAAKXZ 0000000180026388 f i POSKeyboard.obj
 0001:00025394       ?Release@?$CComContainedObject@VCOPOSPOSKeyboard@@@ATL@@WBEA@EAAKXZ 0000000180026394 f i POSKeyboard.obj
 0001:000253a0       ?Release@?$CComContainedObject@VCOPOSPOSKeyboard@@@ATL@@WLI@EAAKXZ 00000001800263a0 f i POSKeyboard.obj
 0001:000253ac       ?Release@?$CComContainedObject@VCOPOSPOSKeyboard@@@ATL@@WMA@EAAKXZ 00000001800263ac f i POSKeyboard.obj
 0001:000253b8       ?Release@?$CComContainedObject@VCOPOSPOSKeyboard@@@ATL@@WMI@EAAKXZ 00000001800263b8 f i POSKeyboard.obj
 0001:000253c4       ?Release@?$CComContainedObject@VCOPOSPOSKeyboard@@@ATL@@WNA@EAAKXZ 00000001800263c4 f i POSKeyboard.obj
 0001:000253d0       ?Release@?$CComContainedObject@VCOPOSPOSKeyboard@@@ATL@@WNI@EAAKXZ 00000001800263d0 f i POSKeyboard.obj
 0001:000253dc       ?Release@?$CComContainedObject@VCOPOSPOSKeyboard@@@ATL@@WOA@EAAKXZ 00000001800263dc f i POSKeyboard.obj
 0001:000253e8       ?Release@?$CComContainedObject@VCOPOSPOSKeyboard@@@ATL@@WOI@EAAKXZ 00000001800263e8 f i POSKeyboard.obj
 0001:000253f4       ?Release@?$CComContainedObject@VCOPOSPOSKeyboard@@@ATL@@WPA@EAAKXZ 00000001800263f4 f i POSKeyboard.obj
 0001:00025400       ?Release@?$CComContainedObject@VCOPOSPOSKeyboard@@@ATL@@WPI@EAAKXZ 0000000180026400 f i POSKeyboard.obj
 0001:00025410       ?Release@?$CComObject@V?$CComEnum@UIEnumConnectionPoints@@$1?_GUID_b196b285_bab4_101a_b69c_00aa00341d07@@3U__s_GUID@@BPEAUIConnectionPoint@@V?$_CopyInterface@UIConnectionPoint@@@ATL@@VCComSingleThreadModel@6@@ATL@@@ATL@@UEAAKXZ 0000000180026410 f i POSKeyboard.obj
 0001:000254c0       ?Release@?$CComObject@V?$CComEnum@UIEnumConnections@@$1?_GUID_b196b287_bab4_101a_b69c_00aa00341d07@@3U__s_GUID@@BUtagCONNECTDATA@@V?$_Copy@UtagCONNECTDATA@@@ATL@@VCComSingleThreadModel@6@@ATL@@@ATL@@UEAAKXZ 00000001800264c0 f i POSKeyboard.obj
 0001:00025570       ?Release@?$CComObject@VCOPOSPOSKeyboard@@@ATL@@UEAAKXZ 0000000180026570 f i POSKeyboard.obj
 0001:00025628       ?Release@?$CComObject@VCOPOSPOSKeyboard@@@ATL@@WBAA@EAAKXZ 0000000180026628 f i POSKeyboard.obj
 0001:00025634       ?Release@?$CComObject@VCOPOSPOSKeyboard@@@ATL@@WBAI@EAAKXZ 0000000180026634 f i POSKeyboard.obj
 0001:00025640       ?Release@?$CComObject@VCOPOSPOSKeyboard@@@ATL@@WBBA@EAAKXZ 0000000180026640 f i POSKeyboard.obj
 0001:0002564c       ?Release@?$CComObject@VCOPOSPOSKeyboard@@@ATL@@WBBI@EAAKXZ 000000018002664c f i POSKeyboard.obj
 0001:00025658       ?Release@?$CComObject@VCOPOSPOSKeyboard@@@ATL@@WBCI@EAAKXZ 0000000180026658 f i POSKeyboard.obj
 0001:00025664       ?Release@?$CComObject@VCOPOSPOSKeyboard@@@ATL@@WBEA@EAAKXZ 0000000180026664 f i POSKeyboard.obj
 0001:00025670       ?Release@?$CComObject@VCOPOSPOSKeyboard@@@ATL@@WLI@EAAKXZ 0000000180026670 f i POSKeyboard.obj
 0001:0002567c       ?Release@?$CComObject@VCOPOSPOSKeyboard@@@ATL@@WMA@EAAKXZ 000000018002667c f i POSKeyboard.obj
 0001:00025688       ?Release@?$CComObject@VCOPOSPOSKeyboard@@@ATL@@WMI@EAAKXZ 0000000180026688 f i POSKeyboard.obj
 0001:00025694       ?Release@?$CComObject@VCOPOSPOSKeyboard@@@ATL@@WNA@EAAKXZ 0000000180026694 f i POSKeyboard.obj
 0001:000256a0       ?Release@?$CComObject@VCOPOSPOSKeyboard@@@ATL@@WNI@EAAKXZ 00000001800266a0 f i POSKeyboard.obj
 0001:000256ac       ?Release@?$CComObject@VCOPOSPOSKeyboard@@@ATL@@WOA@EAAKXZ 00000001800266ac f i POSKeyboard.obj
 0001:000256b8       ?Release@?$CComObject@VCOPOSPOSKeyboard@@@ATL@@WOI@EAAKXZ 00000001800266b8 f i POSKeyboard.obj
 0001:000256c4       ?Release@?$CComObject@VCOPOSPOSKeyboard@@@ATL@@WPA@EAAKXZ 00000001800266c4 f i POSKeyboard.obj
 0001:000256d0       ?Release@?$CComObject@VCOPOSPOSKeyboard@@@ATL@@WPI@EAAKXZ 00000001800266d0 f i POSKeyboard.obj
 0001:000256e0       ?Release@?$CComObjectCached@VCComClassFactory@ATL@@@ATL@@UEAAKXZ 00000001800266e0 f i POSKeyboard.obj
 0001:00025780       ?Release@?$CComPtrBase@UIAdviseSink@@@ATL@@QEAAXXZ 0000000180026780 f i POSKeyboard.obj
 0001:000257e0       ?Release@?$CComPtrBase@UIDispatch@@@ATL@@QEAAXXZ 00000001800267e0 f i POSKeyboard.obj
 0001:00025840       ?Release@?$CComPtrBase@UIOleInPlaceSiteWindowless@@@ATL@@QEAAXXZ 0000000180026840 f i POSKeyboard.obj
 0001:000258a0       ?Release@CRegObject@ATL@@UEAAKXZ 00000001800268a0 f i POSKeyboard.obj
 0001:00025910       ?Remove@CComDynamicUnkArray@ATL@@QEAAHK@Z 0000000180026910 f i POSKeyboard.obj
 0001:000259f0       ?RemoveAll@?$CSimpleMap@PEA_WPEA_WVCExpansionVectorEqualHelper@ATL@@@ATL@@QEAAXXZ 00000001800269f0 f i POSKeyboard.obj
 0001:00025a90       ?Reset@?$CComEnumImpl@UIEnumConnectionPoints@@$1?_GUID_b196b285_bab4_101a_b69c_00aa00341d07@@3U__s_GUID@@BPEAUIConnectionPoint@@V?$_CopyInterface@UIConnectionPoint@@@ATL@@@ATL@@UEAAJXZ 0000000180026a90 f i POSKeyboard.obj
 0001:00025ab0       ?Reset@?$CComEnumImpl@UIEnumConnections@@$1?_GUID_b196b287_bab4_101a_b69c_00aa00341d07@@3U__s_GUID@@BUtagCONNECTDATA@@V?$_Copy@UtagCONNECTDATA@@@ATL@@@ATL@@UEAAJXZ 0000000180026ab0 f i POSKeyboard.obj
 0001:00025ad0       ?ResizeBorder@?$IOleInPlaceActiveObjectImpl@VCOPOSPOSKeyboard@@@ATL@@UEAAJPEBUtagRECT@@PEAUIOleInPlaceUIWindow@@H@Z 0000000180026ad0 f i POSKeyboard.obj
 0001:00025b50       ?ResourceRegister@CRegObject@ATL@@QEAAJPEB_WI0@Z 0000000180026b50 f i POSKeyboard.obj
 0001:00025c30       ?ResourceRegisterSz@CRegObject@ATL@@QEAAJPEB_W00@Z 0000000180026c30 f i POSKeyboard.obj
 0001:00025d50       ?ResourceUnregister@CRegObject@ATL@@QEAAJPEB_WI0@Z 0000000180026d50 f i POSKeyboard.obj
 0001:00025e30       ?ResourceUnregisterSz@CRegObject@ATL@@QEAAJPEB_W00@Z 0000000180026e30 f i POSKeyboard.obj
 0001:00025f50       ?SOData@COPOSPOSKeyboard@@MEAAJJ@Z 0000000180026f50 f i POSKeyboard.obj
 0001:00025ff0       ?SODirectIO@COPOSPOSKeyboard@@MEAAJJPEAJPEAPEA_W@Z 0000000180026ff0 f i POSKeyboard.obj
 0001:00026230       ?SOError@COPOSPOSKeyboard@@MEAAJJJJPEAJ@Z 0000000180027230 f i POSKeyboard.obj
 0001:00026340       ?SOOutputCompleteDummy@COPOSPOSKeyboard@@MEAAJJ@Z 0000000180027340 f i POSKeyboard.obj
 0001:00026360       ?SOStatusUpdate@COPOSPOSKeyboard@@MEAAJJ@Z 0000000180027360 f i POSKeyboard.obj
 0001:00026400       ?Save@?$IPersistStorageImpl@VCOPOSPOSKeyboard@@@ATL@@UEAAJPEAUIStorage@@H@Z 0000000180027400 f i POSKeyboard.obj
 0001:000265c0       ?Save@?$IPersistStreamInitImpl@VCOPOSPOSKeyboard@@@ATL@@UEAAJPEAUIStream@@H@Z 00000001800275c0 f i POSKeyboard.obj
 0001:00026680       ?SaveCompleted@?$IPersistStorageImpl@VCOPOSPOSKeyboard@@@ATL@@UEAAJPEAUIStorage@@@Z 0000000180027680 f i POSKeyboard.obj
 0001:000266f0       ?SendOnDataChange@CComControlBase@ATL@@QEAAJK@Z 00000001800276f0 f i POSKeyboard.obj
 0001:000267e0       ?SendOnSave@CComControlBase@ATL@@QEAAJXZ 00000001800277e0 f i POSKeyboard.obj
 0001:00026850       ?SendOnViewChange@CComControlBase@ATL@@QEAAJKJ@Z 0000000180027850 f i POSKeyboard.obj
 0001:000268d0       ?SetAdvise@?$IViewObjectExImpl@VCOPOSPOSKeyboard@@@ATL@@UEAAJKKPEAUIAdviseSink@@@Z 00000001800278d0 f i POSKeyboard.obj
 0001:00026990       ?SetClientSite@?$IOleObjectImpl@VCOPOSPOSKeyboard@@@ATL@@UEAAJPEAUIOleClientSite@@@Z 0000000180027990 f i POSKeyboard.obj
 0001:00026a40       ?SetColorScheme@?$IOleObjectImpl@VCOPOSPOSKeyboard@@@ATL@@UEAAJPEAUtagLOGPALETTE@@@Z 0000000180027a40 f i POSKeyboard.obj
 0001:00026ad0       ?SetContentExtent@?$IQuickActivateImpl@VCOPOSPOSKeyboard@@@ATL@@UEAAJPEAUtagSIZE@@@Z 0000000180027ad0 f i POSKeyboard.obj
 0001:00026b90       ?SetControlFocus@CComControlBase@ATL@@QEAAHH@Z 0000000180027b90 f i POSKeyboard.obj
 0001:00026d20       ?SetDWORDValue@CRegKey@ATL@@QEAAJPEB_WK@Z 0000000180027d20 f i POSKeyboard.obj
 0001:00026dd0       ?SetData@?$IDataObjectImpl@VCOPOSPOSKeyboard@@@ATL@@UEAAJPEAUtagFORMATETC@@PEAUtagSTGMEDIUM@@H@Z 0000000180027dd0 f i POSKeyboard.obj
 0001:00026e60       ?SetExtent@?$IOleObjectImpl@VCOPOSPOSKeyboard@@@ATL@@UEAAJKPEAUtagSIZE@@@Z 0000000180027e60 f i POSKeyboard.obj
 0001:00026f20       ?SetHostNames@?$IOleObjectImpl@VCOPOSPOSKeyboard@@@ATL@@UEAAJPEB_W0@Z 0000000180027f20 f i POSKeyboard.obj
 0001:00026fa0       ?SetInterfaceSafetyOptions@?$IObjectSafetyImpl@VCOPOSPOSKeyboard@@$02@ATL@@UEAAJAEBU_GUID@@KK@Z 0000000180027fa0 f i POSKeyboard.obj
 0001:00027140       ?SetMoniker@?$IOleObjectImpl@VCOPOSPOSKeyboard@@@ATL@@UEAAJKPEAUIMoniker@@@Z 0000000180028140 f i POSKeyboard.obj
 0001:000271d0       ?SetMultiStringValue@CRegKey@ATL@@QEAAJPEB_W0@Z 00000001800281d0 f i POSKeyboard.obj
 0001:00027340       ?SetObjectRects@?$IOleInPlaceObjectWindowlessImpl@VCOPOSPOSKeyboard@@@ATL@@UEAAJPEBUtagRECT@@0@Z 0000000180028340 f i POSKeyboard.obj
 0001:00027400       ?SetStringValue@CRegKey@ATL@@QEAAJPEB_W0K@Z 0000000180028400 f i POSKeyboard.obj
 0001:00027580       ?SetVoid@CComClassFactory@ATL@@QEAAXPEAX@Z 0000000180028580 f i POSKeyboard.obj
 0001:000275a0       ?SetVoid@CComObjectRootBase@ATL@@QEAAXPEAX@Z 00000001800285a0 f i POSKeyboard.obj
 0001:000275b0       ?ShowWindow@CWindow@ATL@@QEAAHH@Z 00000001800285b0 f i POSKeyboard.obj
 0001:00027640       ?Skip@?$CComEnumImpl@UIEnumConnectionPoints@@$1?_GUID_b196b285_bab4_101a_b69c_00aa00341d07@@3U__s_GUID@@BPEAUIConnectionPoint@@V?$_CopyInterface@UIConnectionPoint@@@ATL@@@ATL@@UEAAJK@Z 0000000180028640 f i POSKeyboard.obj
 0001:000276e0       ?Skip@?$CComEnumImpl@UIEnumConnections@@$1?_GUID_b196b287_bab4_101a_b69c_00aa00341d07@@3U__s_GUID@@BUtagCONNECTDATA@@V?$_Copy@UtagCONNECTDATA@@@ATL@@@ATL@@UEAAJK@Z 00000001800286e0 f i POSKeyboard.obj
 0001:00027780       ?SkipAssignment@CRegParser@ATL@@IEAAJPEA_W@Z 0000000180028780 f i POSKeyboard.obj
 0001:00027880       ?SkipWhiteSpace@CRegParser@ATL@@IEAAXXZ 0000000180028880 f i POSKeyboard.obj
 0001:000278e0       ?StartWindowProc@?$CWindowImplBaseT@VCWindow@ATL@@V?$CWinTraits@$0FGAAAAAA@$0A@@2@@ATL@@SA_JPEAUHWND__@@I_K_J@Z 00000001800288e0 f i POSKeyboard.obj
 0001:00027a50       ?StrChrW@CRegParser@ATL@@KAPEA_WPEA_W_W@Z 0000000180028a50 f i POSKeyboard.obj
 0001:00027ad0       ?StrFromMap@CRegObject@ATL@@QEAAPEB_WPEA_W@Z 0000000180028ad0 f i POSKeyboard.obj
 0001:00027b90       ?Swap@?$CComPtrBase@UIAdviseSink@@@ATL@@IEAAXAEAV12@@Z 0000000180028b90 f i POSKeyboard.obj
 0001:00027bf0       ?Swap@?$CComPtrBase@UIOleClientSite@@@ATL@@IEAAXAEAV12@@Z 0000000180028bf0 f i POSKeyboard.obj
 0001:00027c50       ?Swap@?$CComPtrBase@UIUnknown@@@ATL@@IEAAXAEAV12@@Z 0000000180028c50 f i POSKeyboard.obj
 0001:00027cb0       ?T2COLE_EX@@YAPEB_WPEB_WI@Z 0000000180028cb0 f i POSKeyboard.obj
 0001:00027cd0       ?T2OLE_EX@@YAPEA_WPEA_WI@Z 0000000180028cd0 f i POSKeyboard.obj
 0001:00027cf0       ?Term@CAtlModule@ATL@@QEAAXXZ 0000000180028cf0 f i POSKeyboard.obj
 0001:00027db0       ?Term@CComModule@ATL@@QEAAXXZ 0000000180028db0 f i POSKeyboard.obj
 0001:00027ea0       ?TranslateAcceleratorW@?$IOleInPlaceActiveObjectImpl@VCOPOSPOSKeyboard@@@ATL@@UEAAJPEAUtagMSG@@@Z 0000000180028ea0 f i POSKeyboard.obj
 0001:00028110       ?UIDeactivate@?$IOleInPlaceObjectWindowlessImpl@VCOPOSPOSKeyboard@@@ATL@@UEAAJXZ 0000000180029110 f i POSKeyboard.obj
 0001:000281c0       ?Unadvise@?$CProxy_IOPOSEvents@VCOPOSPOSKeyboard@@@@UEAAJK@Z 00000001800291c0 f i POSKeyboard.obj
 0001:00028210       ?Unadvise@?$IConnectionPointImpl@VCOPOSPOSKeyboard@@$1?DIID__IOPOSPOSKeyboardEvents@@3U_GUID@@BVCComDynamicUnkArray@ATL@@@ATL@@UEAAJK@Z 0000000180029210 f i POSKeyboard.obj
 0001:00028300       ?Unadvise@?$IConnectionPointImpl@VCOPOSPOSKeyboard@@$1?IID_IPropertyNotifySink@@3U_GUID@@BVCComDynamicUnkArray@ATL@@@ATL@@UEAAJK@Z 0000000180029300 f i POSKeyboard.obj
 0001:000283f0       ?Unadvise@?$IOleObjectImpl@VCOPOSPOSKeyboard@@@ATL@@UEAAJK@Z 00000001800293f0 f i POSKeyboard.obj
 0001:000284e0       ?Unfreeze@?$IViewObjectExImpl@VCOPOSPOSKeyboard@@@ATL@@UEAAJK@Z 00000001800294e0 f i POSKeyboard.obj
 0001:00028560       ?Unlock@?$CComCritSecLock@VCComCriticalSection@ATL@@@ATL@@QEAAXXZ 0000000180029560 f i POSKeyboard.obj
 0001:000285f0       ?Unlock@?$CComObjectRootEx@VCComSingleThreadModel@ATL@@@ATL@@QEAAXXZ 00000001800295f0 f i POSKeyboard.obj
 0001:00028600       ?Unlock@CAtlModule@ATL@@UEAAJXZ 0000000180029600 f i POSKeyboard.obj
 0001:00028640       ?Unlock@CComCriticalSection@ATL@@QEAAJXZ 0000000180029640 f i POSKeyboard.obj
 0001:00028680       ?Unlock@CComFakeCriticalSection@ATL@@QEAAJXZ 0000000180029680 f i POSKeyboard.obj
 0001:00028690       ?UnregisterServer@?$CAtlModuleT@VCComModule@ATL@@@ATL@@QEAAJHPEBU_GUID@@@Z 0000000180029690 f i POSKeyboard.obj
 0001:00028700       ?UnregisterServer@CAtlComModule@ATL@@QEAAJHPEBU_GUID@@@Z 0000000180029700 f i POSKeyboard.obj
 0001:00028740       ?UnregisterServer@CComModule@ATL@@QEAAJHPEBU_GUID@@@Z 0000000180029740 f i POSKeyboard.obj
 0001:00028830       ?Update@?$IOleObjectImpl@VCOPOSPOSKeyboard@@@ATL@@UEAAJXZ 0000000180029830 f i POSKeyboard.obj
 0001:000288a0       ?UpdateRegistryFromResource@CAtlModule@ATL@@QEAAJIHPEAU_ATL_REGMAP_ENTRY@2@@Z 00000001800298a0 f i POSKeyboard.obj
 0001:00028dd0       ?UpdateRegistryFromResource@CAtlModule@ATL@@QEAAJPEB_WHPEAU_ATL_REGMAP_ENTRY@2@@Z 0000000180029dd0 f i POSKeyboard.obj
 0001:00029320       ?UpdateRegistryFromResource@CComModule@ATL@@UEAAJIHPEAU_ATL_REGMAP_ENTRY@2@@Z 000000018002a320 f i POSKeyboard.obj
 0001:00029370       ?UpdateRegistryFromResource@CComModule@ATL@@UEAAJPEB_WHPEAU_ATL_REGMAP_ENTRY@2@@Z 000000018002a370 f i POSKeyboard.obj
 0001:000293c0       ?UpdateRegistryFromResourceD@CComModule@ATL@@UEAAJIHPEAU_ATL_REGMAP_ENTRY@2@@Z 000000018002a3c0 f i POSKeyboard.obj
 0001:000293e0       ?UpdateRegistryFromResourceD@CComModule@ATL@@UEAAJPEB_WHPEAU_ATL_REGMAP_ENTRY@2@@Z 000000018002a3e0 f i POSKeyboard.obj
 0001:00029400       ?VTFromRegType@CRegParser@ATL@@KAHPEB_WAEAG@Z 000000018002a400 f i POSKeyboard.obj
 0001:000294e0       ?WindowProc@?$CWindowImplBaseT@VCWindow@ATL@@V?$CWinTraits@$0FGAAAAAA@$0A@@2@@ATL@@SA_JPEAUHWND__@@I_K_J@Z 000000018002a4e0 f i POSKeyboard.obj
 0001:000297c0       ?WriteToStream@CComBSTR@ATL@@QEAAJPEAUIStream@@@Z 000000018002a7c0 f i POSKeyboard.obj
 0001:00029930       ?WriteToStream@CComVariant@ATL@@QEAAJPEAUIStream@@@Z 000000018002a930 f i POSKeyboard.obj
 0001:00029d40       ?WriteToStream@CComVariant@ATL@@QEAAJPEAUIStream@@G@Z 000000018002ad40 f i POSKeyboard.obj
 0001:00029e20       ?_AtlFinalConstruct@CComObjectRootBase@ATL@@QEAAJXZ 000000018002ae20 f i POSKeyboard.obj
 0001:00029e30       ?_AtlGetConversionACP@ATL@@YAIXZ 000000018002ae30 f i POSKeyboard.obj
 0001:00029e40       ?_AtlInitialConstruct@?$CComAggObject@VCOPOSPOSKeyboard@@@ATL@@QEAAJXZ 000000018002ae40 f i POSKeyboard.obj
 0001:00029ea0       ?_AtlInitialConstruct@?$CComObjectRootEx@VCComMultiThreadModel@ATL@@@ATL@@QEAAJXZ 000000018002aea0 f i POSKeyboard.obj
 0001:00029ee0       ?_AtlInitialConstruct@?$CComObjectRootEx@VCComSingleThreadModel@ATL@@@ATL@@QEAAJXZ 000000018002aee0 f i POSKeyboard.obj
 0001:00029ef0       ?_AtlVerifyStackAvailable@_ATL_SAFE_ALLOCA_IMPL@ATL@@YA_N_K@Z 000000018002aef0 f i POSKeyboard.obj
 0001:0002a050       ?_GetEntries@?$CComEnum@UIEnumConnectionPoints@@$1?_GUID_b196b285_bab4_101a_b69c_00aa00341d07@@3U__s_GUID@@BPEAUIConnectionPoint@@V?$_CopyInterface@UIConnectionPoint@@@ATL@@VCComSingleThreadModel@6@@ATL@@SAPEBU_ATL_INTMAP_ENTRY@2@XZ 000000018002b050 f i POSKeyboard.obj
 0001:0002a070       ?_GetEntries@?$CComEnum@UIEnumConnections@@$1?_GUID_b196b287_bab4_101a_b69c_00aa00341d07@@3U__s_GUID@@BUtagCONNECTDATA@@V?$_Copy@UtagCONNECTDATA@@@ATL@@VCComSingleThreadModel@6@@ATL@@SAPEBU_ATL_INTMAP_ENTRY@2@XZ 000000018002b070 f i POSKeyboard.obj
 0001:0002a090       ?_GetEntries@CComClassFactory@ATL@@SAPEBU_ATL_INTMAP_ENTRY@2@XZ 000000018002b090 f i POSKeyboard.obj
 0001:0002a0b0       ?_GetEntries@COPOSPOSKeyboard@@SAPEBU_ATL_INTMAP_ENTRY@ATL@@XZ 000000018002b0b0 f i POSKeyboard.obj
 0001:0002a0d0       ?_GetRawUnknown@COPOSPOSKeyboard@@QEAAPEAUIUnknown@@XZ 000000018002b0d0 f i POSKeyboard.obj
 0001:0002a160       ?_GetViewStatus@COPOSPOSKeyboard@@QEAAKXZ 000000018002b160 f i POSKeyboard.obj
 0001:0002a170       ?_InternalQueryInterface@?$CComEnum@UIEnumConnectionPoints@@$1?_GUID_b196b285_bab4_101a_b69c_00aa00341d07@@3U__s_GUID@@BPEAUIConnectionPoint@@V?$_CopyInterface@UIConnectionPoint@@@ATL@@VCComSingleThreadModel@6@@ATL@@QEAAJAEBU_GUID@@PEAPEAX@Z 000000018002b170 f i POSKeyboard.obj
 0001:0002a1c0       ?_InternalQueryInterface@?$CComEnum@UIEnumConnections@@$1?_GUID_b196b287_bab4_101a_b69c_00aa00341d07@@3U__s_GUID@@BUtagCONNECTDATA@@V?$_Copy@UtagCONNECTDATA@@@ATL@@VCComSingleThreadModel@6@@ATL@@QEAAJAEBU_GUID@@PEAPEAX@Z 000000018002b1c0 f i POSKeyboard.obj
 0001:0002a210       ?_InternalQueryInterface@CComClassFactory@ATL@@QEAAJAEBU_GUID@@PEAPEAX@Z 000000018002b210 f i POSKeyboard.obj
 0001:0002a260       ?_InternalQueryInterface@COPOSPOSKeyboard@@QEAAJAEBU_GUID@@PEAPEAX@Z 000000018002b260 f i POSKeyboard.obj
 0001:0002a2b0       ?_LocCPQueryInterface@?$IConnectionPointImpl@VCOPOSPOSKeyboard@@$1?DIID__IOPOSPOSKeyboardEvents@@3U_GUID@@BVCComDynamicUnkArray@ATL@@@ATL@@UEAAJAEBU_GUID@@PEAPEAX@Z 000000018002b2b0 f i POSKeyboard.obj
 0001:0002a390       ?_LocCPQueryInterface@?$IConnectionPointImpl@VCOPOSPOSKeyboard@@$1?IID_IPropertyNotifySink@@3U_GUID@@BVCComDynamicUnkArray@ATL@@@ATL@@UEAAJAEBU_GUID@@PEAPEAX@Z 000000018002b390 f i POSKeyboard.obj
 0001:0002a470       ?atlCreate@?$CWindowImpl@VCOPOSPOSKeyboard@@VCWindow@ATL@@V?$CWinTraits@$0FGAAAAAA@$0A@@3@@ATL@@QEAAPEAUHWND__@@PEAU3@V_U_RECT@2@PEB_WKKV_U_MENUorID@2@PEAX@Z 000000018002b470 f i POSKeyboard.obj
 0001:0002a5a0       ?atlCreate@?$CWindowImplBaseT@VCWindow@ATL@@V?$CWinTraits@$0FGAAAAAA@$0A@@2@@ATL@@QEAAPEAUHWND__@@PEAU3@V_U_RECT@2@PEB_WKKV_U_MENUorID@2@GPEAX@Z 000000018002b5a0 f i POSKeyboard.obj
 0001:0002a800       ?atlCreate@CRegKey@ATL@@QEAAJPEAUHKEY__@@PEB_WPEA_WKKPEAU_SECURITY_ATTRIBUTES@@PEAK@Z 000000018002b800 f i POSKeyboard.obj
 0001:0002a9f0       ?begin@CComDynamicUnkArray@ATL@@QEAAPEAPEAUIUnknown@@XZ 000000018002b9f0 f i POSKeyboard.obj
 0001:0002aa00       ?copy@?$_Copy@UtagCONNECTDATA@@@ATL@@SAJPEAUtagCONNECTDATA@@PEBU3@@Z 000000018002ba00 f i POSKeyboard.obj
 0001:0002aaf0       ?copy@?$_CopyInterface@UIConnectionPoint@@@ATL@@SAJPEAPEAUIConnectionPoint@@PEBQEAU3@@Z 000000018002baf0 f i POSKeyboard.obj
 0001:0002abe0       ?destroy@?$_Copy@UtagCONNECTDATA@@@ATL@@SAXPEAUtagCONNECTDATA@@@Z 000000018002bbe0 f i POSKeyboard.obj
 0001:0002ac30       ?destroy@?$_CopyInterface@UIConnectionPoint@@@ATL@@SAXPEAPEAUIConnectionPoint@@@Z 000000018002bc30 f i POSKeyboard.obj
 0001:0002ac80       ?end@CComDynamicUnkArray@ATL@@QEAAPEAPEAUIUnknown@@XZ 000000018002bc80 f i POSKeyboard.obj
 0001:0002aca0       ?init@?$_Copy@UtagCONNECTDATA@@@ATL@@SAXPEAUtagCONNECTDATA@@@Z 000000018002bca0 f i POSKeyboard.obj
 0001:0002acb0       ?init@?$_CopyInterface@UIConnectionPoint@@@ATL@@SAXPEAPEAUIConnectionPoint@@@Z 000000018002bcb0 f i POSKeyboard.obj
 0001:0002acc0       ?memcpy_s@Checked@ATL@@YAXPEAX_KPEBX1@Z 000000018002bcc0 f i POSKeyboard.obj
 0001:0002ad20       ?ocscpy_s@@YA_NPEA_W_KPEB_W@Z 000000018002bd20 f i POSKeyboard.obj
 0001:0002ada0       ?ocslen@@YAHPEB_W@Z        000000018002bda0 f i POSKeyboard.obj
 0001:0002ade0       ?tcsncpy_s@Checked@ATL@@YAHPEA_W_KPEB_W1@Z 000000018002bde0 f i POSKeyboard.obj
 0001:0002ae40       ?wcscat_s@Checked@ATL@@YAXPEA_W_KPEB_W@Z 000000018002be40 f i POSKeyboard.obj
 0001:0002ae90       ?wcscpy_s@Checked@ATL@@YAXPEA_W_KPEB_W@Z 000000018002be90 f i POSKeyboard.obj
 0001:0002aee0       ?wcsncpy_s@Checked@ATL@@YAHPEA_W_KPEB_W1@Z 000000018002bee0 f i POSKeyboard.obj
 0001:0002af40       ?wcsstr@@YAPEA_WPEA_WPEB_W@Z 000000018002bf40 f i POSKeyboard.obj
 0001:0002af80       InlineIsEqualGUID          000000018002bf80 f i POSKeyboard.obj
 0001:0002b050       IsEqualGUID                000000018002c050 f i POSKeyboard.obj
 0001:0002b0b0       ??0COPOSPOSKeyboard@@QEAA@XZ 000000018002c0b0 f   POSKeyboardImpl.obj
 0001:0002b230       ?FinalConstruct@COPOSPOSKeyboard@@QEAAJXZ 000000018002c230 f   POSKeyboardImpl.obj
 0001:0002b320       ??1COPOSPOSKeyboard@@UEAA@XZ 000000018002c320 f   POSKeyboardImpl.obj
 0001:0002b400       ?WriteTrace@COPOSPOSKeyboard@@QEAAXPEB_WZZ 000000018002c400 f   POSKeyboardImpl.obj
 0001:0002b4c0       ?WriteTraceString@COPOSPOSKeyboard@@QEAAXPEB_WPEA_W@Z 000000018002c4c0 f   POSKeyboardImpl.obj
 0001:0002b900       ?WriteTraceString@COPOSPOSKeyboard@@QEAAXPEAXHHHPEB_WZZ 000000018002c900 f   POSKeyboardImpl.obj
 0001:0002bb90       ?WriteTraceError@COPOSPOSKeyboard@@QEAAXPEB_WK@Z 000000018002cb90 f   POSKeyboardImpl.obj
 0001:0002bc90       ?WriteTraceMethods@COPOSPOSKeyboard@@QEAAXPEAJH@Z 000000018002cc90 f   POSKeyboardImpl.obj
 0001:0002bd20       ?GetOposProp@COPOSPOSKeyboard@@IEAAJPEBDJPEAJJ@Z 000000018002cd20 f   POSKeyboardImpl.obj
 0001:0002c040       ?SetOposProp@COPOSPOSKeyboard@@IEAAJPEBDJJJ@Z 000000018002d040 f   POSKeyboardImpl.obj
 0001:0002c3a0       ?GetOposProp@COPOSPOSKeyboard@@IEAAJPEBDJPEAFJ@Z 000000018002d3a0 f   POSKeyboardImpl.obj
 0001:0002c440       ?SetOposProp@COPOSPOSKeyboard@@IEAAJPEBDJFJ@Z 000000018002d440 f   POSKeyboardImpl.obj
 0001:0002c4c0       ?GetOposProp@COPOSPOSKeyboard@@IEAAJPEBDJPEAPEA_WJ@Z 000000018002d4c0 f   POSKeyboardImpl.obj
 0001:0002c7e0       ?SetOposProp@COPOSPOSKeyboard@@IEAAJPEBDJPEA_WJ@Z 000000018002d7e0 f   POSKeyboardImpl.obj
 0001:0002cbc0       ?DoInvoke@COPOSPOSKeyboard@@IEAAJPEBDJPEAVOposVariant@@IHPEAJ_N@Z 000000018002dbc0 f   POSKeyboardImpl.obj
 0001:0002d710       ?SetCOFreezeEvents@COPOSPOSKeyboard@@IEAAXF@Z 000000018002e710 f   POSKeyboardImpl.obj
 0001:0002d8a0       ?FreezeEvents@COPOSPOSKeyboard@@MEAAJH@Z 000000018002e8a0 f   POSKeyboardImpl.obj
 0001:0002d9d0       ?OnDraw@COPOSPOSKeyboard@@MEAAJAEAUATL_DRAWINFO@@@Z 000000018002e9d0 f   POSKeyboardImpl.obj
 0001:0002dba0       ?SOProcessID@COPOSPOSKeyboard@@UEAAJPEAJ@Z 000000018002eba0 f   POSKeyboardImpl.obj
 0001:0002dc00       ?get_OpenResult@COPOSPOSKeyboard@@UEAAJPEAJ@Z 000000018002ec00 f   POSKeyboardImpl.obj
 0001:0002dc60       ?get_CheckHealthText@COPOSPOSKeyboard@@UEAAJPEAPEA_W@Z 000000018002ec60 f   POSKeyboardImpl.obj
 0001:0002dcc0       ?get_Claimed@COPOSPOSKeyboard@@UEAAJPEAF@Z 000000018002ecc0 f   POSKeyboardImpl.obj
 0001:0002dd20       ?get_DataEventEnabled@COPOSPOSKeyboard@@UEAAJPEAF@Z 000000018002ed20 f   POSKeyboardImpl.obj
 0001:0002dd80       ?put_DataEventEnabled@COPOSPOSKeyboard@@UEAAJF@Z 000000018002ed80 f   POSKeyboardImpl.obj
 0001:0002dde0       ?get_DeviceEnabled@COPOSPOSKeyboard@@UEAAJPEAF@Z 000000018002ede0 f   POSKeyboardImpl.obj
 0001:0002de40       ?put_DeviceEnabled@COPOSPOSKeyboard@@UEAAJF@Z 000000018002ee40 f   POSKeyboardImpl.obj
 0001:0002dea0       ?get_FreezeEvents@COPOSPOSKeyboard@@UEAAJPEAF@Z 000000018002eea0 f   POSKeyboardImpl.obj
 0001:0002df00       ?put_FreezeEvents@COPOSPOSKeyboard@@UEAAJF@Z 000000018002ef00 f   POSKeyboardImpl.obj
 0001:0002dfe0       ?get_ResultCode@COPOSPOSKeyboard@@UEAAJPEAJ@Z 000000018002efe0 f   POSKeyboardImpl.obj
 0001:0002e0b0       ?get_ResultCodeExtended@COPOSPOSKeyboard@@UEAAJPEAJ@Z 000000018002f0b0 f   POSKeyboardImpl.obj
 0001:0002e110       ?get_State@COPOSPOSKeyboard@@UEAAJPEAJ@Z 000000018002f110 f   POSKeyboardImpl.obj
 0001:0002e1a0       ?get_ControlObjectDescription@COPOSPOSKeyboard@@UEAAJPEAPEA_W@Z 000000018002f1a0 f   POSKeyboardImpl.obj
 0001:0002e220       ?get_ControlObjectVersion@COPOSPOSKeyboard@@UEAAJPEAJ@Z 000000018002f220 f   POSKeyboardImpl.obj
 0001:0002e280       ?get_ServiceObjectDescription@COPOSPOSKeyboard@@UEAAJPEAPEA_W@Z 000000018002f280 f   POSKeyboardImpl.obj
 0001:0002e2e0       ?get_ServiceObjectVersion@COPOSPOSKeyboard@@UEAAJPEAJ@Z 000000018002f2e0 f   POSKeyboardImpl.obj
 0001:0002e340       ?get_DeviceDescription@COPOSPOSKeyboard@@UEAAJPEAPEA_W@Z 000000018002f340 f   POSKeyboardImpl.obj
 0001:0002e3a0       ?get_DeviceName@COPOSPOSKeyboard@@UEAAJPEAPEA_W@Z 000000018002f3a0 f   POSKeyboardImpl.obj
 0001:0002e400       ?CheckHealth@COPOSPOSKeyboard@@UEAAJJPEAJ@Z 000000018002f400 f   POSKeyboardImpl.obj
 0001:0002e4c0       ?ClaimDevice@COPOSPOSKeyboard@@UEAAJJPEAJ@Z 000000018002f4c0 f   POSKeyboardImpl.obj
 0001:0002e5e0       ?ClearInput@COPOSPOSKeyboard@@UEAAJPEAJ@Z 000000018002f5e0 f   POSKeyboardImpl.obj
 0001:0002e650       ?Close@COPOSPOSKeyboard@@UEAAJPEAJ@Z 000000018002f650 f   POSKeyboardImpl.obj
 0001:0002e760       ?DirectIO@COPOSPOSKeyboard@@UEAAJJPEAJPEAPEA_W0@Z 000000018002f760 f   POSKeyboardImpl.obj
 0001:0002e8e0       ?Open@COPOSPOSKeyboard@@UEAAJPEA_WPEAJ@Z 000000018002f8e0 f   POSKeyboardImpl.obj
 0001:0002fdc0       ?ReleaseDevice@COPOSPOSKeyboard@@UEAAJPEAJ@Z 0000000180030dc0 f   POSKeyboardImpl.obj
 0001:0002fe70       ?get_POSKeyData@COPOSPOSKeyboard@@UEAAJPEAJ@Z 0000000180030e70 f   POSKeyboardImpl.obj
 0001:0002fed0       ?get_AutoDisable@COPOSPOSKeyboard@@UEAAJPEAF@Z 0000000180030ed0 f   POSKeyboardImpl.obj
 0001:0002ff30       ?put_AutoDisable@COPOSPOSKeyboard@@UEAAJF@Z 0000000180030f30 f   POSKeyboardImpl.obj
 0001:0002ff90       ?get_BinaryConversion@COPOSPOSKeyboard@@UEAAJPEAJ@Z 0000000180030f90 f   POSKeyboardImpl.obj
 0001:0002fff0       ?put_BinaryConversion@COPOSPOSKeyboard@@UEAAJJ@Z 0000000180030ff0 f   POSKeyboardImpl.obj
 0001:00030060       ?get_DataCount@COPOSPOSKeyboard@@UEAAJPEAJ@Z 0000000180031060 f   POSKeyboardImpl.obj
 0001:000300c0       ?get_CapKeyUp@COPOSPOSKeyboard@@UEAAJPEAF@Z 00000001800310c0 f   POSKeyboardImpl.obj
 0001:00030120       ?get_EventTypes@COPOSPOSKeyboard@@UEAAJPEAJ@Z 0000000180031120 f   POSKeyboardImpl.obj
 0001:00030180       ?put_EventTypes@COPOSPOSKeyboard@@UEAAJJ@Z 0000000180031180 f   POSKeyboardImpl.obj
 0001:000301e0       ?get_POSKeyEventType@COPOSPOSKeyboard@@UEAAJPEAJ@Z 00000001800311e0 f   POSKeyboardImpl.obj
 0001:00030240       ?get_CapPowerReporting@COPOSPOSKeyboard@@UEAAJPEAJ@Z 0000000180031240 f   POSKeyboardImpl.obj
 0001:000302a0       ?get_PowerNotify@COPOSPOSKeyboard@@UEAAJPEAJ@Z 00000001800312a0 f   POSKeyboardImpl.obj
 0001:00030300       ?put_PowerNotify@COPOSPOSKeyboard@@UEAAJJ@Z 0000000180031300 f   POSKeyboardImpl.obj
 0001:00030360       ?get_PowerState@COPOSPOSKeyboard@@UEAAJPEAJ@Z 0000000180031360 f   POSKeyboardImpl.obj
 0001:000303c0       ?get_CapStatisticsReporting@COPOSPOSKeyboard@@UEAAJPEAF@Z 00000001800313c0 f   POSKeyboardImpl.obj
 0001:00030420       ?get_CapUpdateStatistics@COPOSPOSKeyboard@@UEAAJPEAF@Z 0000000180031420 f   POSKeyboardImpl.obj
 0001:00030480       ?ResetStatistics@COPOSPOSKeyboard@@UEAAJPEA_WPEAJ@Z 0000000180031480 f   POSKeyboardImpl.obj
 0001:00030560       ?RetrieveStatistics@COPOSPOSKeyboard@@UEAAJPEAPEA_WPEAJ@Z 0000000180031560 f   POSKeyboardImpl.obj
 0001:00030640       ?UpdateStatistics@COPOSPOSKeyboard@@UEAAJPEA_WPEAJ@Z 0000000180031640 f   POSKeyboardImpl.obj
 0001:00030720       ?get_CapCompareFirmwareVersion@COPOSPOSKeyboard@@UEAAJPEAF@Z 0000000180031720 f   POSKeyboardImpl.obj
 0001:00030780       ?get_CapUpdateFirmware@COPOSPOSKeyboard@@UEAAJPEAF@Z 0000000180031780 f   POSKeyboardImpl.obj
 0001:000307e0       ?CompareFirmwareVersion@COPOSPOSKeyboard@@UEAAJPEA_WPEAJ1@Z 00000001800317e0 f   POSKeyboardImpl.obj
 0001:00030920       ?UpdateFirmware@COPOSPOSKeyboard@@UEAAJPEA_WPEAJ@Z 0000000180031920 f   POSKeyboardImpl.obj
 0001:00030a00       ??0?$CComControl@VCOPOSPOSKeyboard@@V?$CWindowImpl@VCOPOSPOSKeyboard@@VCWindow@ATL@@V?$CWinTraits@$0FGAAAAAA@$0A@@3@@ATL@@@ATL@@QEAA@XZ 0000000180031a00 f i POSKeyboardImpl.obj
 0001:00030a50       ??0?$CComPtr@UIAdviseSink@@@ATL@@QEAA@XZ 0000000180031a50 f i POSKeyboardImpl.obj
 0001:00030a90       ??0?$CComPtr@UIDataAdviseHolder@@@ATL@@QEAA@XZ 0000000180031a90 f i POSKeyboardImpl.obj
 0001:00030ad0       ??0?$CComPtr@UIOleAdviseHolder@@@ATL@@QEAA@XZ 0000000180031ad0 f i POSKeyboardImpl.obj
 0001:00030b10       ??0?$CComPtr@UIOleClientSite@@@ATL@@QEAA@XZ 0000000180031b10 f i POSKeyboardImpl.obj
 0001:00030b50       ??0?$CComPtr@UIOleInPlaceSiteWindowless@@@ATL@@QEAA@XZ 0000000180031b50 f i POSKeyboardImpl.obj
 0001:00030b90       ??0?$CComPtrBase@UIAdviseSink@@@ATL@@IEAA@XZ 0000000180031b90 f i POSKeyboardImpl.obj
 0001:00030bb0       ??0?$CComPtrBase@UIDataAdviseHolder@@@ATL@@IEAA@XZ 0000000180031bb0 f i POSKeyboardImpl.obj
 0001:00030bd0       ??0?$CComPtrBase@UIOleAdviseHolder@@@ATL@@IEAA@XZ 0000000180031bd0 f i POSKeyboardImpl.obj
 0001:00030bf0       ??0?$CComPtrBase@UIOleClientSite@@@ATL@@IEAA@XZ 0000000180031bf0 f i POSKeyboardImpl.obj
 0001:00030c10       ??0?$CComPtrBase@UIOleInPlaceSiteWindowless@@@ATL@@IEAA@XZ 0000000180031c10 f i POSKeyboardImpl.obj
 0001:00030c30       ??0?$CComQIPtr@UIDispatch@@$1?_GUID_00020400_0000_0000_c000_000000000046@@3U__s_GUID@@B@ATL@@QEAA@XZ 0000000180031c30 f i POSKeyboardImpl.obj
 0001:00030c70       ??0?$CProxy_IOPOSEvents@VCOPOSPOSKeyboard@@@@QEAA@PEAVCOPOSPOSKeyboard@@@Z 0000000180031c70 f i POSKeyboardImpl.obj
 0001:00030d00       ??0?$CWindowImpl@VCOPOSPOSKeyboard@@VCWindow@ATL@@V?$CWinTraits@$0FGAAAAAA@$0A@@3@@ATL@@QEAA@XZ 0000000180031d00 f i POSKeyboardImpl.obj
 0001:00030d40       ??0?$CWindowImplBaseT@VCWindow@ATL@@V?$CWinTraits@$0FGAAAAAA@$0A@@2@@ATL@@QEAA@XZ 0000000180031d40 f i POSKeyboardImpl.obj
 0001:00030d90       ??0?$CWindowImplRoot@VCWindow@ATL@@@ATL@@QEAA@XZ 0000000180031d90 f i POSKeyboardImpl.obj
 0001:00030e00       ??0?$IConnectionPointContainerImpl@VCOPOSPOSKeyboard@@@ATL@@QEAA@XZ 0000000180031e00 f i POSKeyboardImpl.obj
 0001:00030e40       ??0?$IConnectionPointImpl@VCOPOSPOSKeyboard@@$1?DIID__IOPOSPOSKeyboardEvents@@3U_GUID@@BVCComDynamicUnkArray@ATL@@@ATL@@QEAA@XZ 0000000180031e40 f i POSKeyboardImpl.obj
 0001:00030e90       ??0?$IConnectionPointImpl@VCOPOSPOSKeyboard@@$1?IID_IPropertyNotifySink@@3U_GUID@@BVCComDynamicUnkArray@ATL@@@ATL@@QEAA@XZ 0000000180031e90 f i POSKeyboardImpl.obj
 0001:00030ee0       ??0?$IDataObjectImpl@VCOPOSPOSKeyboard@@@ATL@@QEAA@XZ 0000000180031ee0 f i POSKeyboardImpl.obj
 0001:00030f20       ??0?$IDispatchImpl@UIOPOSPOSKeyboard@@$1?IID_IOPOSPOSKeyboard@@3U_GUID@@B$1?LIBID_OposPOSKeyboard_CCO@@3U3@B$00$0A@VCComTypeInfoHolder@ATL@@@ATL@@QEAA@XZ 0000000180031f20 f i POSKeyboardImpl.obj
 0001:00030f60       ??0?$IObjectSafetyImpl@VCOPOSPOSKeyboard@@$02@ATL@@QEAA@XZ 0000000180031f60 f i POSKeyboardImpl.obj
 0001:00030fa0       ??0?$IOleControlImpl@VCOPOSPOSKeyboard@@@ATL@@QEAA@XZ 0000000180031fa0 f i POSKeyboardImpl.obj
 0001:00030fe0       ??0?$IOleInPlaceActiveObjectImpl@VCOPOSPOSKeyboard@@@ATL@@QEAA@XZ 0000000180031fe0 f i POSKeyboardImpl.obj
 0001:00031020       ??0?$IOleInPlaceObjectWindowlessImpl@VCOPOSPOSKeyboard@@@ATL@@QEAA@XZ 0000000180032020 f i POSKeyboardImpl.obj
 0001:00031060       ??0?$IOleObjectImpl@VCOPOSPOSKeyboard@@@ATL@@QEAA@XZ 0000000180032060 f i POSKeyboardImpl.obj
 0001:000310a0       ??0?$IPersistStorageImpl@VCOPOSPOSKeyboard@@@ATL@@QEAA@XZ 00000001800320a0 f i POSKeyboardImpl.obj
 0001:000310e0       ??0?$IPersistStreamInitImpl@VCOPOSPOSKeyboard@@@ATL@@QEAA@XZ 00000001800320e0 f i POSKeyboardImpl.obj
 0001:00031120       ??0?$IPropertyNotifySinkCP@VCOPOSPOSKeyboard@@VCComDynamicUnkArray@ATL@@@ATL@@QEAA@XZ 0000000180032120 f i POSKeyboardImpl.obj
 0001:00031160       ??0?$IProvideClassInfo2Impl@$1?CLSID_OPOSPOSKeyboard@@3U_GUID@@B$1?DIID__IOPOSPOSKeyboardEvents@@3U2@B$1?LIBID_OposPOSKeyboard_CCO@@3U2@B$00$0A@VCComTypeInfoHolder@ATL@@@ATL@@QEAA@XZ 0000000180032160 f i POSKeyboardImpl.obj
 0001:000311a0       ??0?$IQuickActivateImpl@VCOPOSPOSKeyboard@@@ATL@@QEAA@XZ 00000001800321a0 f i POSKeyboardImpl.obj
 0001:000311e0       ??0?$ISpecifyPropertyPagesImpl@VCOPOSPOSKeyboard@@@ATL@@QEAA@XZ 00000001800321e0 f i POSKeyboardImpl.obj
 0001:00031220       ??0?$IViewObjectExImpl@VCOPOSPOSKeyboard@@@ATL@@QEAA@XZ 0000000180032220 f i POSKeyboardImpl.obj
 0001:00031260       ??0?$_ICPLocator@$1?DIID__IOPOSPOSKeyboardEvents@@3U_GUID@@B@ATL@@QEAA@XZ 0000000180032260 f i POSKeyboardImpl.obj
 0001:00031270       ??0?$_ICPLocator@$1?IID_IPropertyNotifySink@@3U_GUID@@B@ATL@@QEAA@XZ 0000000180032270 f i POSKeyboardImpl.obj
 0001:00031280       ??0CComControlBase@ATL@@QEAA@AEAPEAUHWND__@@@Z 0000000180032280 f i POSKeyboardImpl.obj
 0001:000314a0       ??0CComDynamicUnkArray@ATL@@QEAA@XZ 00000001800324a0 f i POSKeyboardImpl.obj
 0001:000314d0       ??0CDynamicStdCallThunk2@ATL@@QEAA@XZ 00000001800324d0 f i POSKeyboardImpl.obj
 0001:000314f0       ??0CMessageMap@ATL@@QEAA@XZ 00000001800324f0 f i POSKeyboardImpl.obj
 0001:00031500       ??0CWindow@ATL@@QEAA@PEAUHWND__@@@Z 0000000180032500 f i POSKeyboardImpl.obj
 0001:00031520       ??0CWndProcThunk@ATL@@QEAA@XZ 0000000180032520 f i POSKeyboardImpl.obj
 0001:00031560       ??0IConnectionPointContainer@@QEAA@XZ 0000000180032560 f i POSKeyboardImpl.obj
 0001:000315a0       ??0IDataObject@@QEAA@XZ    00000001800325a0 f i POSKeyboardImpl.obj
 0001:000315e0       ??0IDispatch@@QEAA@XZ      00000001800325e0 f i POSKeyboardImpl.obj
 0001:00031620       ??0IOPOSPOSKeyboard@@QEAA@XZ 0000000180032620 f i POSKeyboardImpl.obj
 0001:00031660       ??0IOPOSPOSKeyboard_1_5@@QEAA@XZ 0000000180032660 f i POSKeyboardImpl.obj
 0001:000316a0       ??0IOPOSPOSKeyboard_1_8@@QEAA@XZ 00000001800326a0 f i POSKeyboardImpl.obj
 0001:000316e0       ??0IOPOSPOSKeyboard_1_9@@QEAA@XZ 00000001800326e0 f i POSKeyboardImpl.obj
 0001:00031720       ??0IObjectSafety@@QEAA@XZ  0000000180032720 f i POSKeyboardImpl.obj
 0001:00031760       ??0IOleControl@@QEAA@XZ    0000000180032760 f i POSKeyboardImpl.obj
 0001:000317a0       ??0IOleInPlaceActiveObject@@QEAA@XZ 00000001800327a0 f i POSKeyboardImpl.obj
 0001:000317e0       ??0IOleInPlaceObject@@QEAA@XZ 00000001800327e0 f i POSKeyboardImpl.obj
 0001:00031820       ??0IOleInPlaceObjectWindowless@@QEAA@XZ 0000000180032820 f i POSKeyboardImpl.obj
 0001:00031860       ??0IOleObject@@QEAA@XZ     0000000180032860 f i POSKeyboardImpl.obj
 0001:000318a0       ??0IOleWindow@@QEAA@XZ     00000001800328a0 f i POSKeyboardImpl.obj
 0001:000318e0       ??0IPersist@@QEAA@XZ       00000001800328e0 f i POSKeyboardImpl.obj
 0001:00031920       ??0IPersistStorage@@QEAA@XZ 0000000180032920 f i POSKeyboardImpl.obj
 0001:00031960       ??0IPersistStreamInit@@QEAA@XZ 0000000180032960 f i POSKeyboardImpl.obj
 0001:000319a0       ??0IProvideClassInfo2@@QEAA@XZ 00000001800329a0 f i POSKeyboardImpl.obj
 0001:000319e0       ??0IProvideClassInfo@@QEAA@XZ 00000001800329e0 f i POSKeyboardImpl.obj
 0001:00031a20       ??0IQuickActivate@@QEAA@XZ 0000000180032a20 f i POSKeyboardImpl.obj
 0001:00031a60       ??0ISpecifyPropertyPages@@QEAA@XZ 0000000180032a60 f i POSKeyboardImpl.obj
 0001:00031aa0       ??0IViewObject2@@QEAA@XZ   0000000180032aa0 f i POSKeyboardImpl.obj
 0001:00031ae0       ??0IViewObject@@QEAA@XZ    0000000180032ae0 f i POSKeyboardImpl.obj
 0001:00031b20       ??0IViewObjectEx@@QEAA@XZ  0000000180032b20 f i POSKeyboardImpl.obj
 0001:00031b60       ??0OposVariantResult@@QEAA@XZ 0000000180032b60 f i POSKeyboardImpl.obj
 0001:00031ba0       ??0_CW@@QEAA@PEBD@Z        0000000180032ba0 f i POSKeyboardImpl.obj
 0001:00031bf0       ??0_CW@@QEAA@PEB_W@Z       0000000180032bf0 f i POSKeyboardImpl.obj
 0001:00031c40       ??0_CWNCC@@QEAA@PEBD@Z     0000000180032c40 f i POSKeyboardImpl.obj
 0001:00031c80       ??1?$CComControl@VCOPOSPOSKeyboard@@V?$CWindowImpl@VCOPOSPOSKeyboard@@VCWindow@ATL@@V?$CWinTraits@$0FGAAAAAA@$0A@@3@@ATL@@@ATL@@UEAA@XZ 0000000180032c80 f i POSKeyboardImpl.obj
 0001:00031cc0       ??1?$CComPtr@UIDataAdviseHolder@@@ATL@@QEAA@XZ 0000000180032cc0 f i POSKeyboardImpl.obj
 0001:00031cf0       ??1?$CComPtr@UIOleAdviseHolder@@@ATL@@QEAA@XZ 0000000180032cf0 f i POSKeyboardImpl.obj
 0001:00031d20       ??1?$CComPtr@UIOleInPlaceSiteWindowless@@@ATL@@QEAA@XZ 0000000180032d20 f i POSKeyboardImpl.obj
 0001:00031d50       ??1?$CComPtrBase@UIDataAdviseHolder@@@ATL@@QEAA@XZ 0000000180032d50 f i POSKeyboardImpl.obj
 0001:00031da0       ??1?$CComPtrBase@UIOleAdviseHolder@@@ATL@@QEAA@XZ 0000000180032da0 f i POSKeyboardImpl.obj
 0001:00031df0       ??1?$CComPtrBase@UIOleInPlaceSiteWindowless@@@ATL@@QEAA@XZ 0000000180032df0 f i POSKeyboardImpl.obj
 0001:00031e40       ??1?$CComQIPtr@UIDispatch@@$1?_GUID_00020400_0000_0000_c000_000000000046@@3U__s_GUID@@B@ATL@@QEAA@XZ 0000000180032e40 f i POSKeyboardImpl.obj
 0001:00031e70       ??1?$CProxy_IOPOSEvents@VCOPOSPOSKeyboard@@@@QEAA@XZ 0000000180032e70 f i POSKeyboardImpl.obj
 0001:00031ea0       ??1?$CWindowImpl@VCOPOSPOSKeyboard@@VCWindow@ATL@@V?$CWinTraits@$0FGAAAAAA@$0A@@3@@ATL@@UEAA@XZ 0000000180032ea0 f i POSKeyboardImpl.obj
 0001:00031ed0       ??1?$CWindowImplBaseT@VCWindow@ATL@@V?$CWinTraits@$0FGAAAAAA@$0A@@2@@ATL@@UEAA@XZ 0000000180032ed0 f i POSKeyboardImpl.obj
 0001:00031f00       ??1?$CWindowImplRoot@VCWindow@ATL@@@ATL@@UEAA@XZ 0000000180032f00 f i POSKeyboardImpl.obj
 0001:00031fc0       ??1?$IConnectionPointImpl@VCOPOSPOSKeyboard@@$1?DIID__IOPOSPOSKeyboardEvents@@3U_GUID@@BVCComDynamicUnkArray@ATL@@@ATL@@QEAA@XZ 0000000180032fc0 f i POSKeyboardImpl.obj
 0001:00032060       ??1?$IConnectionPointImpl@VCOPOSPOSKeyboard@@$1?IID_IPropertyNotifySink@@3U_GUID@@BVCComDynamicUnkArray@ATL@@@ATL@@QEAA@XZ 0000000180033060 f i POSKeyboardImpl.obj
 0001:00032100       ??1?$IPropertyNotifySinkCP@VCOPOSPOSKeyboard@@VCComDynamicUnkArray@ATL@@@ATL@@QEAA@XZ 0000000180033100 f i POSKeyboardImpl.obj
 0001:00032130       ??1CComControlBase@ATL@@UEAA@XZ 0000000180033130 f i POSKeyboardImpl.obj
 0001:00032220       ??1CComDynamicUnkArray@ATL@@QEAA@XZ 0000000180033220 f i POSKeyboardImpl.obj
 0001:00032260       ??1CDynamicStdCallThunk2@ATL@@QEAA@XZ 0000000180033260 f i POSKeyboardImpl.obj
 0001:000322a0       ??1CWndProcThunk@ATL@@QEAA@XZ 00000001800332a0 f i POSKeyboardImpl.obj
 0001:000322e0       ??1OposVariantResult@@QEAA@XZ 00000001800332e0 f i POSKeyboardImpl.obj
 0001:00032320       ??1_CW@@QEAA@XZ            0000000180033320 f i POSKeyboardImpl.obj
 0001:000323a0       ??1_CWNCC@@QEAA@XZ         00000001800333a0 f i POSKeyboardImpl.obj
 0001:000323d0       ??B_CW@@QEAAPEB_WXZ        00000001800333d0 f i POSKeyboardImpl.obj
 0001:00032420       ??B_CWNCC@@QEAAPEA_WXZ     0000000180033420 f i POSKeyboardImpl.obj
 0001:00032450       ??_EOposVariant@@QEAAPEAXI@Z 0000000180033450 f i POSKeyboardImpl.obj
 0001:00032500       ?EventClaim@COPOSPOSKeyboard@@IEAAXXZ 0000000180033500 f i POSKeyboardImpl.obj
 0001:00032550       ?EventClose@COPOSPOSKeyboard@@IEAAXXZ 0000000180033550 f i POSKeyboardImpl.obj
 0001:000325f0       ?EventInit@COPOSPOSKeyboard@@IEAAJXZ 00000001800335f0 f i POSKeyboardImpl.obj
 0001:000328a0       ?EventOpen@COPOSPOSKeyboard@@IEAAXXZ 00000001800338a0 f i POSKeyboardImpl.obj
 0001:000328e0       ?EventPreCloseRelease@COPOSPOSKeyboard@@IEAAXXZ 00000001800338e0 f i POSKeyboardImpl.obj
 0001:00032960       ?EventUninit@COPOSPOSKeyboard@@IEAAXXZ 0000000180033960 f i POSKeyboardImpl.obj
 0001:00032a90       ?EventWindowProc@COPOSPOSKeyboard@@IEAA_JI_K_J@Z 0000000180033a90 f i POSKeyboardImpl.obj
 0001:00032c60       ?FireEventCleanup@COPOSPOSKeyboard@@IEAAXXZ 0000000180033c60 f i POSKeyboardImpl.obj
 0001:00032cb0       ?FireEventSetup@COPOSPOSKeyboard@@IEAA_NXZ 0000000180033cb0 f i POSKeyboardImpl.obj
 0001:00032d30       ?GetModuleInstance@CComModule@ATL@@QEAAPEAUHINSTANCE__@@XZ 0000000180033d30 f i POSKeyboardImpl.obj
 0001:00032d40       ?SetRC@COPOSPOSKeyboard@@IEAAJJ@Z 0000000180033d40 f i POSKeyboardImpl.obj
 0001:00032d60       ?s_EventWindowProc@COPOSPOSKeyboard@@KA_JPEAUHWND__@@I_K_J@Z 0000000180033d60 f i POSKeyboardImpl.obj
 0001:00032e10       _snwprintf                 0000000180033e10 f i POSKeyboardImpl.obj
 0001:00032ea0       _vfwprintf_l               0000000180033ea0 f i POSKeyboardImpl.obj
 0001:00032f00       _vsnwprintf                0000000180033f00 f i POSKeyboardImpl.obj
 0001:00032f60       _vsnwprintf_l              0000000180033f60 f i POSKeyboardImpl.obj
 0001:00032ff0       vfwprintf                  0000000180033ff0 f i POSKeyboardImpl.obj
 0001:00033035       DebugBreak                 0000000180034035 f   kernel32:KERNEL32.dll
 0001:0003303b       Sleep                      000000018003403b f   kernel32:KERNEL32.dll
 0001:00033041       GetCurrentProcess          0000000180034041 f   kernel32:KERNEL32.dll
 0001:00033047       TerminateProcess           0000000180034047 f   kernel32:KERNEL32.dll
 0001:0003304d       MultiByteToWideChar        000000018003404d f   kernel32:KERNEL32.dll
 0001:00033053       WideCharToMultiByte        0000000180034053 f   kernel32:KERNEL32.dll
 0001:00033059       DecodePointer              0000000180034059 f   kernel32:KERNEL32.dll
 0001:0003305f       RaiseException             000000018003405f f   kernel32:KERNEL32.dll
 0001:00033065       GetLastError               0000000180034065 f   kernel32:KERNEL32.dll
 0001:0003306b       SetLastError               000000018003406b f   kernel32:KERNEL32.dll
 0001:00033071       InitializeCriticalSectionEx 0000000180034071 f   kernel32:KERNEL32.dll
 0001:00033077       DeleteCriticalSection      0000000180034077 f   kernel32:KERNEL32.dll
 0001:0003307d       EncodePointer              000000018003407d f   kernel32:KERNEL32.dll
 0001:00033083       EnterCriticalSection       0000000180034083 f   kernel32:KERNEL32.dll
 0001:00033089       LeaveCriticalSection       0000000180034089 f   kernel32:KERNEL32.dll
 0001:0003308f       ResetEvent                 000000018003408f f   kernel32:KERNEL32.dll
 0001:00033095       ReleaseMutex               0000000180034095 f   kernel32:KERNEL32.dll
 0001:0003309b       WaitForSingleObject        000000018003409b f   kernel32:KERNEL32.dll
 0001:000330a1       GetCurrentThreadId         00000001800340a1 f   kernel32:KERNEL32.dll
 0001:000330a7       DisableThreadLibraryCalls  00000001800340a7 f   kernel32:KERNEL32.dll
 0001:000330ad       FreeLibrary                00000001800340ad f   kernel32:KERNEL32.dll
 0001:000330b3       GetModuleFileNameW         00000001800340b3 f   kernel32:KERNEL32.dll
 0001:000330b9       GetModuleHandleW           00000001800340b9 f   kernel32:KERNEL32.dll
 0001:000330bf       GetProcAddress             00000001800340bf f   kernel32:KERNEL32.dll
 0001:000330c5       LoadLibraryExW             00000001800340c5 f   kernel32:KERNEL32.dll
 0001:000330cb       LoadResource               00000001800340cb f   kernel32:KERNEL32.dll
 0001:000330d1       SizeofResource             00000001800340d1 f   kernel32:KERNEL32.dll
 0001:000330d7       FindResourceW              00000001800340d7 f   kernel32:KERNEL32.dll
 0001:000330dd       GlobalAlloc                00000001800340dd f   kernel32:KERNEL32.dll
 0001:000330e3       GlobalUnlock               00000001800340e3 f   kernel32:KERNEL32.dll
 0001:000330e9       GlobalLock                 00000001800340e9 f   kernel32:KERNEL32.dll
 0001:000330ef       MulDiv                     00000001800340ef f   kernel32:KERNEL32.dll
 0001:000330f5       lstrcmpiW                  00000001800340f5 f   kernel32:KERNEL32.dll
 0001:000330fb       DeleteFileW                00000001800340fb f   kernel32:KERNEL32.dll
 0001:00033101       CloseHandle                0000000180034101 f   kernel32:KERNEL32.dll
 0001:00033107       SetEvent                   0000000180034107 f   kernel32:KERNEL32.dll
 0001:0003310d       CreateMutexW               000000018003410d f   kernel32:KERNEL32.dll
 0001:00033113       CreateEventW               0000000180034113 f   kernel32:KERNEL32.dll
 0001:00033119       GetCurrentProcessId        0000000180034119 f   kernel32:KERNEL32.dll
 0001:0003311f       LocalFree                  000000018003411f f   kernel32:KERNEL32.dll
 0001:00033125       FormatMessageW             0000000180034125 f   kernel32:KERNEL32.dll
 0001:0003312b       GetActiveWindow            000000018003412b f   user32:USER32.dll
 0001:00033131       MessageBoxW                0000000180034131 f   user32:USER32.dll
 0001:00033137       UnregisterClassW           0000000180034137 f   user32:USER32.dll
 0001:0003313d       PostMessageW               000000018003413d f   user32:USER32.dll
 0001:00033143       DefWindowProcW             0000000180034143 f   user32:USER32.dll
 0001:00033149       CallWindowProcW            0000000180034149 f   user32:USER32.dll
 0001:0003314f       RegisterClassExW           000000018003414f f   user32:USER32.dll
 0001:00033155       GetClassInfoExW            0000000180034155 f   user32:USER32.dll
 0001:0003315b       CreateWindowExW            000000018003415b f   user32:USER32.dll
 0001:00033161       IsWindow                   0000000180034161 f   user32:USER32.dll
 0001:00033167       IsChild                    0000000180034167 f   user32:USER32.dll
 0001:0003316d       DestroyWindow              000000018003416d f   user32:USER32.dll
 0001:00033173       ShowWindow                 0000000180034173 f   user32:USER32.dll
 0001:00033179       SetWindowPos               0000000180034179 f   user32:USER32.dll
 0001:0003317f       CharNextW                  000000018003417f f   user32:USER32.dll
 0001:00033185       SetFocus                   0000000180034185 f   user32:USER32.dll
 0001:0003318b       GetFocus                   000000018003418b f   user32:USER32.dll
 0001:00033191       GetKeyState                0000000180034191 f   user32:USER32.dll
 0001:00033197       GetDC                      0000000180034197 f   user32:USER32.dll
 0001:0003319d       ReleaseDC                  000000018003419d f   user32:USER32.dll
 0001:000331a3       BeginPaint                 00000001800341a3 f   user32:USER32.dll
 0001:000331a9       EndPaint                   00000001800341a9 f   user32:USER32.dll
 0001:000331af       SetWindowRgn               00000001800341af f   user32:USER32.dll
 0001:000331b5       InvalidateRect             00000001800341b5 f   user32:USER32.dll
 0001:000331bb       GetClientRect              00000001800341bb f   user32:USER32.dll
 0001:000331c1       IntersectRect              00000001800341c1 f   user32:USER32.dll
 0001:000331c7       UnionRect                  00000001800341c7 f   user32:USER32.dll
 0001:000331cd       OffsetRect                 00000001800341cd f   user32:USER32.dll
 0001:000331d3       EqualRect                  00000001800341d3 f   user32:USER32.dll
 0001:000331d9       PtInRect                   00000001800341d9 f   user32:USER32.dll
 0001:000331df       GetWindowLongPtrW          00000001800341df f   user32:USER32.dll
 0001:000331e5       SetWindowLongPtrW          00000001800341e5 f   user32:USER32.dll
 0001:000331eb       GetParent                  00000001800341eb f   user32:USER32.dll
 0001:000331f1       LoadCursorW                00000001800341f1 f   user32:USER32.dll
 0001:000331f7       PeekMessageW               00000001800341f7 f   user32:USER32.dll
 0001:000331fd       RegisterClassW             00000001800341fd f   user32:USER32.dll
 0001:00033203       LoadBitmapW                0000000180034203 f   user32:USER32.dll
 0001:00033209       CloseMetaFile              0000000180034209 f   gdi32:GDI32.dll
 0001:0003320f       CreateDCW                  000000018003420f f   gdi32:GDI32.dll
 0001:00033215       CreateMetaFileW            0000000180034215 f   gdi32:GDI32.dll
 0001:0003321b       CreateRectRgnIndirect      000000018003421b f   gdi32:GDI32.dll
 0001:00033221       DeleteDC                   0000000180034221 f   gdi32:GDI32.dll
 0001:00033227       DeleteMetaFile             0000000180034227 f   gdi32:GDI32.dll
 0001:0003322d       GetDeviceCaps              000000018003422d f   gdi32:GDI32.dll
 0001:00033233       RestoreDC                  0000000180034233 f   gdi32:GDI32.dll
 0001:00033239       SaveDC                     0000000180034239 f   gdi32:GDI32.dll
 0001:0003323f       SetMapMode                 000000018003423f f   gdi32:GDI32.dll
 0001:00033245       LPtoDP                     0000000180034245 f   gdi32:GDI32.dll
 0001:0003324b       SetViewportOrgEx           000000018003424b f   gdi32:GDI32.dll
 0001:00033251       SetWindowExtEx             0000000180034251 f   gdi32:GDI32.dll
 0001:00033257       SetWindowOrgEx             0000000180034257 f   gdi32:GDI32.dll
 0001:0003325d       BitBlt                     000000018003425d f   gdi32:GDI32.dll
 0001:00033263       CreateCompatibleDC         0000000180034263 f   gdi32:GDI32.dll
 0001:00033269       DeleteObject               0000000180034269 f   gdi32:GDI32.dll
 0001:0003326f       SelectObject               000000018003426f f   gdi32:GDI32.dll
 0001:00033275       GetObjectW                 0000000180034275 f   gdi32:GDI32.dll
 0001:0003327b       RegCloseKey                000000018003427b f   advapi32:ADVAPI32.dll
 0001:00033281       RegCreateKeyExW            0000000180034281 f   advapi32:ADVAPI32.dll
 0001:00033287       RegDeleteKeyW              0000000180034287 f   advapi32:ADVAPI32.dll
 0001:0003328d       RegDeleteValueW            000000018003428d f   advapi32:ADVAPI32.dll
 0001:00033293       RegEnumKeyExW              0000000180034293 f   advapi32:ADVAPI32.dll
 0001:00033299       RegOpenKeyExW              0000000180034299 f   advapi32:ADVAPI32.dll
 0001:0003329f       RegQueryInfoKeyW           000000018003429f f   advapi32:ADVAPI32.dll
 0001:000332a5       RegSetValueExW             00000001800342a5 f   advapi32:ADVAPI32.dll
 0001:000332ab       RegQueryValueExW           00000001800342ab f   advapi32:ADVAPI32.dll
 0001:000332b1       CoCreateInstance           00000001800342b1 f   ole32:ole32.dll
 0001:000332b7       StringFromGUID2            00000001800342b7 f   ole32:ole32.dll
 0001:000332bd       CoTaskMemAlloc             00000001800342bd f   ole32:ole32.dll
 0001:000332c3       CoTaskMemRealloc           00000001800342c3 f   ole32:ole32.dll
 0001:000332c9       CoTaskMemFree              00000001800342c9 f   ole32:ole32.dll
 0001:000332cf       ReadClassStm               00000001800342cf f   ole32:ole32.dll
 0001:000332d5       WriteClassStm              00000001800342d5 f   ole32:ole32.dll
 0001:000332db       CreateDataAdviseHolder     00000001800342db f   ole32:ole32.dll
 0001:000332e1       OleSaveToStream            00000001800342e1 f   ole32:ole32.dll
 0001:000332e7       CreateOleAdviseHolder      00000001800342e7 f   ole32:ole32.dll
 0001:000332ed       OleRegGetUserType          00000001800342ed f   ole32:ole32.dll
 0001:000332f3       OleRegGetMiscStatus        00000001800342f3 f   ole32:ole32.dll
 0001:000332f9       OleRegEnumVerbs            00000001800342f9 f   ole32:ole32.dll
 0001:000332ff       CLSIDFromProgID            00000001800342ff f   ole32:ole32.dll
 0001:00033305       SysAllocString             0000000180034305 f   oleaut32:OLEAUT32.dll
 0001:0003330b       SysAllocStringLen          000000018003430b f   oleaut32:OLEAUT32.dll
 0001:00033311       SysFreeString              0000000180034311 f   oleaut32:OLEAUT32.dll
 0001:00033317       SysStringLen               0000000180034317 f   oleaut32:OLEAUT32.dll
 0001:0003331d       VariantClear               000000018003431d f   oleaut32:OLEAUT32.dll
 0001:00033323       VariantCopyInd             0000000180034323 f   oleaut32:OLEAUT32.dll
 0001:00033329       VariantChangeType          0000000180034329 f   oleaut32:OLEAUT32.dll
 0001:0003332f       SysStringByteLen           000000018003432f f   oleaut32:OLEAUT32.dll
 0001:00033335       SysAllocStringByteLen      0000000180034335 f   oleaut32:OLEAUT32.dll
 0001:0003333b       VariantInit                000000018003433b f   oleaut32:OLEAUT32.dll
 0001:00033341       VarUI4FromStr              0000000180034341 f   oleaut32:OLEAUT32.dll
 0001:00033347       LoadTypeLib                0000000180034347 f   oleaut32:OLEAUT32.dll
 0001:0003334d       LoadRegTypeLib             000000018003434d f   oleaut32:OLEAUT32.dll
 0001:00033353       RegisterTypeLib            0000000180034353 f   oleaut32:OLEAUT32.dll
 0001:00033359       UnRegisterTypeLib          0000000180034359 f   oleaut32:OLEAUT32.dll
 0001:0003335f       OleCreatePropertyFrame     000000018003435f f   oleaut32:OLEAUT32.dll
 0001:00033370       _RTC_AllocaHelper          0000000180034370 f   LIBCMTD:stack.obj
 0001:000333b0       _RTC_CheckStackVars        00000001800343b0 f   LIBCMTD:stack.obj
 0001:00033440       _RTC_CheckStackVars2       0000000180034440 f   LIBCMTD:stack.obj
 0001:00033550       _CRT_RTC_INIT              0000000180034550 f   LIBCMTD:init.obj
 0001:00033560       _CRT_RTC_INITW             0000000180034560 f   LIBCMTD:init.obj
 0001:00033570       _RTC_InitBase              0000000180034570 f   LIBCMTD:init.obj
 0001:000335b0       _RTC_Shutdown              00000001800345b0 f   LIBCMTD:init.obj
 0001:000335e0       __GSHandlerCheck           00000001800345e0 f   LIBCMTD:gshandler.obj
 0001:00033620       __GSHandlerCheckCommon     0000000180034620 f   LIBCMTD:gshandler.obj
 0001:00033730       __security_check_cookie    0000000180034730 f   LIBCMTD:amdsecgs.obj
 0001:00033760       ??_U@YAPEAX_K@Z            0000000180034760 f   LIBCMTD:new_array.obj
 0001:00033780       ??3@YAXPEAX_K@Z            0000000180034780 f   LIBCMTD:delete_scalar_size.obj
 0001:000337a0       ??_V@YAXPEAX@Z             00000001800347a0 f   LIBCMTD:delete_array.obj
 0001:000337c0       ??_V@YAXPEAX_K@Z           00000001800347c0 f   LIBCMTD:delete_array_size.obj
 0001:000337e0       ?configure_argv@__scrt_narrow_argv_policy@@SAHXZ 00000001800347e0 f i LIBCMTD:utility.obj
 0001:000338d0       ?initialize_environment@__scrt_narrow_environment_policy@@SAHXZ 00000001800348d0 f i LIBCMTD:utility.obj
 0001:00033970       NtCurrentTeb               0000000180034970 f i LIBCMTD:utility.obj
 0001:00033980       __scrt_acquire_startup_lock 0000000180034980 f   LIBCMTD:utility.obj
 0001:000339f0       __scrt_dllmain_after_initialize_c 00000001800349f0 f   LIBCMTD:utility.obj
 0001:00033a20       __scrt_dllmain_before_initialize_c 0000000180034a20 f   LIBCMTD:utility.obj
 0001:00033a40       __scrt_dllmain_crt_thread_attach 0000000180034a40 f   LIBCMTD:utility.obj
 0001:00033a70       __scrt_dllmain_crt_thread_detach 0000000180034a70 f   LIBCMTD:utility.obj
 0001:00033a90       __scrt_dllmain_exception_filter 0000000180034a90 f   LIBCMTD:utility.obj
 0001:00033b00       __scrt_dllmain_uninitialize_c 0000000180034b00 f   LIBCMTD:utility.obj
 0001:00033b30       __scrt_dllmain_uninitialize_critical 0000000180034b30 f   LIBCMTD:utility.obj
 0001:00033b50       __scrt_initialize_crt      0000000180034b50 f   LIBCMTD:utility.obj
 0001:00033ba0       __scrt_initialize_onexit_tables 0000000180034ba0 f   LIBCMTD:utility.obj
 0001:00033cb0       __scrt_is_nonwritable_in_current_image 0000000180034cb0 f   LIBCMTD:utility.obj
 0001:00033d40       __scrt_release_startup_lock 0000000180034d40 f   LIBCMTD:utility.obj
 0001:00033d70       __scrt_uninitialize_crt    0000000180034d70 f   LIBCMTD:utility.obj
 0001:00033db0       _onexit                    0000000180034db0 f   LIBCMTD:utility.obj
 0001:00033e30       at_quick_exit              0000000180034e30 f   LIBCMTD:utility.obj
 0001:00033e80       atexit                     0000000180034e80 f   LIBCMTD:utility.obj
 0001:00033ec0       ??3@YAXPEAX@Z              0000000180034ec0 f   LIBCMTD:delete_scalar.obj
 0001:00033ee0       __raise_securityfailure    0000000180034ee0 f   LIBCMTD:gs_report.obj
 0001:00033f20       __report_gsfailure         0000000180034f20 f   LIBCMTD:gs_report.obj
 0001:00034000       __report_rangecheckfailure 0000000180035000 f   LIBCMTD:gs_report.obj
 0001:00034020       __report_securityfailure   0000000180035020 f   LIBCMTD:gs_report.obj
 0001:000340c0       __report_securityfailureEx 00000001800350c0 f   LIBCMTD:gs_report.obj
 0001:00034480       _Init_thread_abort         0000000180035480 f   LIBCMTD:thread_safe_statics.obj
 0001:000344b0       _Init_thread_footer        00000001800354b0 f   LIBCMTD:thread_safe_statics.obj
 0001:00034510       _Init_thread_header        0000000180035510 f   LIBCMTD:thread_safe_statics.obj
 0001:000345a0       _Init_thread_lock          00000001800355a0 f   LIBCMTD:thread_safe_statics.obj
 0001:000345c0       _Init_thread_notify        00000001800355c0 f   LIBCMTD:thread_safe_statics.obj
 0001:00034620       _Init_thread_unlock        0000000180035620 f   LIBCMTD:thread_safe_statics.obj
 0001:00034640       _Init_thread_wait          0000000180035640 f   LIBCMTD:thread_safe_statics.obj
 0001:000346f0       ??2@YAPEAX_KAEBUnothrow_t@std@@@Z 00000001800356f0 f   LIBCMTD:new_scalar_nothrow.obj
 0001:00034730       ??_U@YAPEAX_KAEBUnothrow_t@std@@@Z 0000000180035730 f   LIBCMTD:new_array_nothrow.obj
 0001:00034760       __GSHandlerCheck_SEH       0000000180035760 f   LIBCMTD:gshandlerseh.obj
 0001:00034830       __chkstk                   0000000180035830 f   LIBCMTD:chkstk.obj
 0001:00034830       _alloca_probe              0000000180035830 f   LIBCMTD:chkstk.obj
 0001:00034ca0       _CRT_INIT                  0000000180035ca0 f   LIBCMTD:dll_dllmain.obj
 0001:00034cd0       _DllMainCRTStartup         0000000180035cd0 f   LIBCMTD:dll_dllmain.obj
 0001:00034da0       ?_RTC_AllocaFailure@@YAXPEAXPEAU_RTC_ALLOCA_NODE@@H@Z 0000000180035da0 f   LIBCMTD:error.obj
 0001:00034f00       ?_RTC_Failure@@YAXPEAXH@Z  0000000180035f00 f   LIBCMTD:error.obj
 0001:00034f50       ?_RTC_StackFailure@@YAXPEAXPEBD@Z 0000000180035f50 f   LIBCMTD:error.obj
 0001:00035380       _RTC_UninitUse             0000000180036380 f   LIBCMTD:error.obj
 0001:00035450       _vsprintf_s_l              0000000180036450 f i LIBCMTD:error.obj
 0001:000354c0       sprintf_s                  00000001800364c0 f i LIBCMTD:error.obj
 0001:000354f0       ?_RTC_GetErrorFunc@@YAP6AHHPEBDH00ZZPEBX@Z 00000001800364f0 f   LIBCMTD:userapi.obj
 0001:00035500       ?_RTC_GetErrorFuncW@@YAP6AHHPEB_WH00ZZPEBX@Z 0000000180036500 f   LIBCMTD:userapi.obj
 0001:00035510       _RTC_GetErrDesc            0000000180036510 f   LIBCMTD:userapi.obj
 0001:00035530       _RTC_NumErrors             0000000180036530 f   LIBCMTD:userapi.obj
 0001:00035540       _RTC_SetErrorFunc          0000000180036540 f   LIBCMTD:userapi.obj
 0001:00035560       _RTC_SetErrorFuncW         0000000180036560 f   LIBCMTD:userapi.obj
 0001:00035580       _RTC_SetErrorType          0000000180036580 f   LIBCMTD:userapi.obj
 0001:000355a0       ??2@YAPEAX_K@Z             00000001800365a0 f   LIBCMTD:new_scalar.obj
 0001:000355f0       __isa_available_init       00000001800365f0 f   LIBCMTD:cpu_disp.obj
 0001:00035990       _get_startup_argv_mode     0000000180036990 f   LIBCMTD:argv_mode.obj
 0001:000359a0       __scrt_is_ucrt_dll_in_use  00000001800369a0 f   LIBCMTD:ucrt_detection.obj
 0001:000359d0       __crt_debugger_hook        00000001800369d0 f   LIBCMTD:utility_desktop.obj
 0001:000359e0       __scrt_fastfail            00000001800369e0 f   LIBCMTD:utility_desktop.obj
 0001:00035b80       __scrt_get_show_window_mode 0000000180036b80 f   LIBCMTD:utility_desktop.obj
 0001:00035be0       __scrt_initialize_mta      0000000180036be0 f   LIBCMTD:utility_desktop.obj
 0001:00035bf0       __scrt_initialize_winrt    0000000180036bf0 f   LIBCMTD:utility_desktop.obj
 0001:00035c00       __scrt_is_managed_app      0000000180036c00 f   LIBCMTD:utility_desktop.obj
 0001:00035cb0       __scrt_set_unhandled_exception_filter 0000000180036cb0 f   LIBCMTD:utility_desktop.obj
 0001:00035cd0       __scrt_exe_initialize_mta  0000000180036cd0 f   LIBCMTD:utility_desktop.obj
 0001:00035cd0       __scrt_stub_for_initialize_mta 0000000180036cd0 f   LIBCMTD:utility_desktop.obj
 0001:00035ce0       __scrt_unhandled_exception_filter 0000000180036ce0 f   LIBCMTD:utility_desktop.obj
 0001:00035d80       _guard_check_icall_nop     0000000180036d80 f i LIBCMTD:guard_support.obj
 0001:00035d90       ReadNoFence64              0000000180036d90 f i LIBCMTD:guard_support.obj
 0001:00035db0       ReadPointerNoFence         0000000180036db0 f i LIBCMTD:guard_support.obj
 0001:00035dd0       _guard_icall_checks_enforced 0000000180036dd0 f i LIBCMTD:guard_support.obj
 0001:00035e10       _guard_rf_checks_enforced  0000000180036e10 f i LIBCMTD:guard_support.obj
 0001:00035ee0       __security_init_cookie     0000000180036ee0 f   LIBCMTD:gs_support.obj
 0001:00035f60       ?__scrt_initialize_type_info@@YAXXZ 0000000180036f60 f   LIBCMTD:tncleanup.obj
 0001:00035f80       ?__scrt_uninitialize_type_info@@YAXXZ 0000000180036f80 f   LIBCMTD:tncleanup.obj
 0001:00035fa0       __local_stdio_scanf_options 0000000180036fa0 f i LIBCMTD:default_local_stdio_options.obj
 0001:00035fb0       __scrt_initialize_default_local_stdio_options 0000000180036fb0 f   LIBCMTD:default_local_stdio_options.obj
 0001:00036000       __scrt_get_dyn_tls_init_callback 0000000180037000 f   LIBCMTD:dyn_tls_init.obj
 0001:00036010       _RTC_Initialize            0000000180037010 f   LIBCMTD:initsect.obj
 0001:00036060       _RTC_Terminate             0000000180037060 f   LIBCMTD:initsect.obj
 0001:000365c0       ?_RTC_GetSrcLine@@YAHPEAEPEA_WKPEAH1K@Z 00000001800375c0 f   LIBCMTD:pdblkup.obj
 0001:00036990       ??0bad_alloc@std@@AEAA@QEBD@Z 0000000180037990 f i LIBCMTD:throw_bad_alloc.obj
 0001:000369d0       ??0bad_alloc@std@@QEAA@AEBV01@@Z 00000001800379d0 f i LIBCMTD:throw_bad_alloc.obj
 0001:00036a10       ??0bad_alloc@std@@QEAA@XZ  0000000180037a10 f i LIBCMTD:throw_bad_alloc.obj
 0001:00036a50       ??0bad_array_new_length@std@@QEAA@AEBV01@@Z 0000000180037a50 f i LIBCMTD:throw_bad_alloc.obj
 0001:00036a90       ??0bad_array_new_length@std@@QEAA@XZ 0000000180037a90 f i LIBCMTD:throw_bad_alloc.obj
 0001:00036ad0       ??0exception@std@@QEAA@AEBV01@@Z 0000000180037ad0 f i LIBCMTD:throw_bad_alloc.obj
 0001:00036b30       ??0exception@std@@QEAA@QEBDH@Z 0000000180037b30 f i LIBCMTD:throw_bad_alloc.obj
 0001:00036b80       ??1bad_alloc@std@@UEAA@XZ  0000000180037b80 f i LIBCMTD:throw_bad_alloc.obj
 0001:00036ba0       ??1bad_array_new_length@std@@UEAA@XZ 0000000180037ba0 f i LIBCMTD:throw_bad_alloc.obj
 0001:00036bc0       ??1exception@std@@UEAA@XZ  0000000180037bc0 f i LIBCMTD:throw_bad_alloc.obj
 0001:00036bf0       ??_Ebad_alloc@std@@UEAAPEAXI@Z 0000000180037bf0 f i LIBCMTD:throw_bad_alloc.obj
 0001:00036bf0       ??_Gbad_alloc@std@@UEAAPEAXI@Z 0000000180037bf0 f i LIBCMTD:throw_bad_alloc.obj
 0001:00036c30       ??_Ebad_array_new_length@std@@UEAAPEAXI@Z 0000000180037c30 f i LIBCMTD:throw_bad_alloc.obj
 0001:00036c30       ??_Gbad_array_new_length@std@@UEAAPEAXI@Z 0000000180037c30 f i LIBCMTD:throw_bad_alloc.obj
 0001:00036c70       ??_Gexception@std@@UEAAPEAXI@Z 0000000180037c70 f i LIBCMTD:throw_bad_alloc.obj
 0001:00036c70       ??_Eexception@std@@UEAAPEAXI@Z 0000000180037c70 f i LIBCMTD:throw_bad_alloc.obj
 0001:00036cb0       ?__scrt_throw_std_bad_alloc@@YAXXZ 0000000180037cb0 f   LIBCMTD:throw_bad_alloc.obj
 0001:00036ce0       ?__scrt_throw_std_bad_array_new_length@@YAXXZ 0000000180037ce0 f   LIBCMTD:throw_bad_alloc.obj
 0001:00036d10       ?what@exception@std@@UEBAPEBDXZ 0000000180037d10 f i LIBCMTD:throw_bad_alloc.obj
 0001:00036d50       ??1type_info@@UEAA@XZ      0000000180037d50 f   LIBCMTD:std_type_info_static.obj
 0001:00036d70       ??_Etype_info@@UEAAPEAXI@Z 0000000180037d70 f i LIBCMTD:std_type_info_static.obj
 0001:00036d70       ??_Gtype_info@@UEAAPEAXI@Z 0000000180037d70 f i LIBCMTD:std_type_info_static.obj
 0001:00036dac       ??$?2PEAUHINSTANCE__@@@Wrapper@?$CSimpleArray@PEAUHINSTANCE__@@V?$CSimpleArrayEqualHelper@PEAUHINSTANCE__@@@ATL@@@ATL@@SAPEAX_KPEAPEAUHINSTANCE__@@@Z 0000000180037dac f i atls:atlbase.obj
 0001:00036db0       ??0?$CSimpleArray@PEAUHINSTANCE__@@V?$CSimpleArrayEqualHelper@PEAUHINSTANCE__@@@ATL@@@ATL@@QEAA@XZ 0000000180037db0 f i atls:atlbase.obj
 0001:00036dc0       ??0CAtlBaseModule@ATL@@QEAA@XZ 0000000180037dc0 f   atls:atlbase.obj
 0001:00036e68       ??0Wrapper@?$CSimpleArray@PEAUHINSTANCE__@@V?$CSimpleArrayEqualHelper@PEAUHINSTANCE__@@@ATL@@@ATL@@QEAA@AEBQEAUHINSTANCE__@@@Z 0000000180037e68 f i atls:atlbase.obj
 0001:00036e74       ??0_ATL_BASE_MODULE70@ATL@@QEAA@XZ 0000000180037e74 f i atls:atlbase.obj
 0001:00036ea0       ??1?$CSimpleArray@PEAUHINSTANCE__@@V?$CSimpleArrayEqualHelper@PEAUHINSTANCE__@@@ATL@@@ATL@@QEAA@XZ 0000000180037ea0 f i atls:atlbase.obj
 0001:00036ec8       ??1CAtlBaseModule@ATL@@QEAA@XZ 0000000180037ec8 f   atls:atlbase.obj
 0001:00036efc       ??1_ATL_BASE_MODULE70@ATL@@QEAA@XZ 0000000180037efc f i atls:atlbase.obj
 0001:00036f28       ??A?$CSimpleArray@PEAUHINSTANCE__@@V?$CSimpleArrayEqualHelper@PEAUHINSTANCE__@@@ATL@@@ATL@@QEAAAEAPEAUHINSTANCE__@@H@Z 0000000180037f28 f i atls:atlbase.obj
 0001:00036f54       ?Add@?$CSimpleArray@PEAUHINSTANCE__@@V?$CSimpleArrayEqualHelper@PEAUHINSTANCE__@@@ATL@@@ATL@@QEAAHAEBQEAUHINSTANCE__@@@Z 0000000180037f54 f i atls:atlbase.obj
 0001:00037008       ?AddResourceInstance@CAtlBaseModule@ATL@@QEAA_NPEAUHINSTANCE__@@@Z 0000000180038008 f   atls:atlbase.obj
 0001:00037050       ?GetHInstanceAt@CAtlBaseModule@ATL@@QEAAPEAUHINSTANCE__@@H@Z 0000000180038050 f   atls:atlbase.obj
 0001:000370c8       ?GetSize@?$CSimpleArray@PEAUHINSTANCE__@@V?$CSimpleArrayEqualHelper@PEAUHINSTANCE__@@@ATL@@@ATL@@QEBAHXZ 00000001800380c8 f i atls:atlbase.obj
 0001:000370cc       ?InternalSetAtIndex@?$CSimpleArray@PEAUHINSTANCE__@@V?$CSimpleArrayEqualHelper@PEAUHINSTANCE__@@@ATL@@@ATL@@QEAAXHAEBQEAUHINSTANCE__@@@Z 00000001800380cc f i atls:atlbase.obj
 0001:000370e4       ?RemoveAll@?$CSimpleArray@PEAUHINSTANCE__@@V?$CSimpleArrayEqualHelper@PEAUHINSTANCE__@@@ATL@@@ATL@@QEAAXXZ 00000001800380e4 f i atls:atlbase.obj
 0001:0003710c       ?RemoveAt@?$CSimpleArray@PEAUHINSTANCE__@@V?$CSimpleArrayEqualHelper@PEAUHINSTANCE__@@@ATL@@@ATL@@QEAAHH@Z 000000018003810c f i atls:atlbase.obj
 0001:000371b0       ?RemoveResourceInstance@CAtlBaseModule@ATL@@QEAA_NPEAUHINSTANCE__@@@Z 00000001800381b0 f   atls:atlbase.obj
 0001:00037230       ?memmove_s@Checked@ATL@@YAXPEAX_KPEBX1@Z 0000000180038230 f i atls:atlbase.obj
 0001:000376d8       ?GetCodeAddress@_stdcallthunk@ATL@@QEAAPEAXXZ 00000001800386d8 f i atls:atlthunk.obj
 0001:00037704       ?Init@_stdcallthunk@ATL@@QEAAH_KPEAX@Z 0000000180038704 f i atls:atlthunk.obj
 0001:00037754       ?__AllocStdCallThunk@@YAPEAXXZ 0000000180038754 f   atls:atlthunk.obj
 0001:0003775c       ?__AllocStdCallThunk@ATL@@YAPEAXXZ 000000018003875c f   atls:atlthunk.obj
 0001:00037764       ?__AllocStdCallThunk_cmn@@YAPEAXXZ 0000000180038764 f   atls:atlthunk.obj
 0001:0003783c       ?__FreeStdCallThunk@@YAXPEAX@Z 000000018003883c f   atls:atlthunk.obj
 0001:0003785c       ?__FreeStdCallThunk@ATL@@YAXPEAX@Z 000000018003885c f   atls:atlthunk.obj
 0001:0003787c       ?__FreeStdCallThunk_cmn@@YAXPEAX@Z 000000018003887c f   atls:atlthunk.obj
 0001:0003791c       AtlThunk_AllocateData      000000018003891c f   atls:atlthunk.obj
 0001:00037998       AtlThunk_DataToCode        0000000180038998 f   atls:atlthunk.obj
 0001:000379ec       AtlThunk_FreeData          00000001800389ec f   atls:atlthunk.obj
 0001:00037a4c       AtlThunk_InitData          0000000180038a4c f   atls:atlthunk.obj
 0001:00037b10       memset_repmovs             0000000180038b10 f   libvcruntimed:memset.obj
 0001:00037b30       memset                     0000000180038b30 f   libvcruntimed:memset.obj
 0001:00037cc0       ??$__crt_interlocked_exchange_pointer@$$A6AXXZP6AXXZ@@YAP6AXXZPEDS6AXXZQ6AXXZ@Z 0000000180038cc0 f i libvcruntimed:purevirt.obj
 0001:00037ce0       ??$__crt_interlocked_read_pointer@$$A6AXXZ@@YAP6AXXZPEDS6AXXZ@Z 0000000180038ce0 f i libvcruntimed:purevirt.obj
 0001:00037d00       ?__crt_interlocked_read_64@@YA_JPED_J@Z 0000000180038d00 f i libvcruntimed:purevirt.obj
 0001:00037d20       _get_purecall_handler      0000000180038d20 f   libvcruntimed:purevirt.obj
 0001:00037d40       _purecall                  0000000180038d40 f   libvcruntimed:purevirt.obj
 0001:00037d80       _set_purecall_handler      0000000180038d80 f   libvcruntimed:purevirt.obj
 0001:00037db0       memcmp                     0000000180038db0 f   libvcruntimed:memcmp.obj
 0001:00037e90       memcpy_repmovs             0000000180038e90 f   libvcruntimed:memcpy.obj
 0001:00037eb0       memcpy                     0000000180038eb0 f   libvcruntimed:memcpy.obj
 0001:00037eb0       memmove                    0000000180038eb0 f   libvcruntimed:memcpy.obj
 0001:00038290       wcsstr                     0000000180039290 f   libvcruntimed:wcsstr.obj
 0001:000388f0       __vcrt_initialize          00000001800398f0 f   libvcruntimed:initialization.obj
 0001:00038930       __vcrt_thread_attach       0000000180039930 f   libvcruntimed:initialization.obj
 0001:00038950       __vcrt_thread_detach       0000000180039950 f   libvcruntimed:initialization.obj
 0001:00038970       __vcrt_uninitialize        0000000180039970 f   libvcruntimed:initialization.obj
 0001:00038990       __vcrt_uninitialize_critical 0000000180039990 f   libvcruntimed:initialization.obj
 0001:000389b0       __C_specific_handler       00000001800399b0 f   libvcruntimed:riscchandler.obj
 0001:00038e20       ??$?0AEAViterator@TryBlockMap4@FH4@@AEAV012@$0A@@?$pair@Viterator@TryBlockMap4@FH4@@V123@@std@@QEAA@AEAViterator@TryBlockMap4@FH4@@0@Z 0000000180039e20 f i libvcruntimed:risctrnsctrl.obj
 0001:00038e80       ??$?0AEAViterator@TryBlockMap@__FrameHandler3@@AEAV012@$0A@@?$pair@Viterator@TryBlockMap@__FrameHandler3@@V123@@std@@QEAA@AEAViterator@TryBlockMap@__FrameHandler3@@0@Z 0000000180039e80 f i libvcruntimed:risctrnsctrl.obj
 0001:00039050       ??$_CallSETranslator@V__FrameHandler3@@@@YAHPEAUEHExceptionRecord@@PEA_KPEAU_CONTEXT@@PEAU_xDISPATCHER_CONTEXT@@PEBU_s_FuncInfo@@K1H@Z 000000018003a050 f i libvcruntimed:risctrnsctrl.obj
 0001:000390e0       ??$_CallSETranslator@V__FrameHandler4@@@@YAHPEAUEHExceptionRecord@@PEA_KPEAU_CONTEXT@@PEAU_xDISPATCHER_CONTEXT@@PEAUFuncInfo4@FH4@@K1H@Z 000000018003a0e0 f i libvcruntimed:risctrnsctrl.obj
 0001:00039170       ??$forward@AEAViterator@TryBlockMap4@FH4@@@std@@YAAEAViterator@TryBlockMap4@FH4@@AEAV123@@Z 000000018003a170 f i libvcruntimed:risctrnsctrl.obj
 0001:00039180       ??$forward@AEAViterator@TryBlockMap@__FrameHandler3@@@std@@YAAEAViterator@TryBlockMap@__FrameHandler3@@AEAV123@@Z 000000018003a180 f i libvcruntimed:risctrnsctrl.obj
 0001:00039190       ??0FuncInfo4@FH4@@QEAA@XZ  000000018003a190 f i libvcruntimed:risctrnsctrl.obj
 0001:00039200       ??0FuncInfoHeader@FH4@@QEAA@XZ 000000018003a200 f i libvcruntimed:risctrnsctrl.obj
 0001:00039220       ??0iterator@TryBlockMap4@FH4@@QEAA@AEAV12@I@Z 000000018003a220 f i libvcruntimed:risctrnsctrl.obj
 0001:00039250       ??0iterator@TryBlockMap@__FrameHandler3@@QEAA@AEAV12@I@Z 000000018003a250 f i libvcruntimed:risctrnsctrl.obj
 0001:00039280       ??4iterator@TryBlockMap4@FH4@@QEAAAEAV012@AEBV012@@Z 000000018003a280 f i libvcruntimed:risctrnsctrl.obj
 0001:000392a0       ??9iterator@TryBlockMap4@FH4@@QEBA_NAEBV012@@Z 000000018003a2a0 f i libvcruntimed:risctrnsctrl.obj
 0001:000392e0       ??Diterator@TryBlockMap4@FH4@@QEAA?AUTryBlockMapEntry4@2@XZ 000000018003a2e0 f i libvcruntimed:risctrnsctrl.obj
 0001:00039310       ??Eiterator@TryBlockMap4@FH4@@QEAAAEAV012@XZ 000000018003a310 f i libvcruntimed:risctrnsctrl.obj
 0001:00039350       ?CatchTryBlock@__FrameHandler3@@SAPEBU_s_TryBlockMapEntry@@PEBU_s_FuncInfo@@H@Z 000000018003a350 f   libvcruntimed:risctrnsctrl.obj
 0001:000393e0       ?DecompFuncInfo@FH4@@YA_JPEAEAEAUFuncInfo4@1@_KH@Z 000000018003a3e0 f i libvcruntimed:risctrnsctrl.obj
 0001:00039420       ?DecompFuncInfo@FH4@@YA_JPEAEAEAUFuncInfo4@1@_KH_N@Z 000000018003a420 f i libvcruntimed:risctrnsctrl.obj
 0001:000395f0       ?DecompTryBlock@TryBlockMap4@FH4@@AEAAXXZ 000000018003a5f0 f i libvcruntimed:risctrnsctrl.obj
 0001:00039670       ?ExecutionInCatch@__FrameHandler3@@SA_NPEAU_xDISPATCHER_CONTEXT@@PEBU_s_FuncInfo@@@Z 000000018003a670 f   libvcruntimed:risctrnsctrl.obj
 0001:000396c0       ?ExecutionInCatch@__FrameHandler4@@SA_NPEAU_xDISPATCHER_CONTEXT@@PEAUFuncInfo4@FH4@@@Z 000000018003a6c0 f   libvcruntimed:risctrnsctrl.obj
 0001:000396e0       ?FrameUnwindToEmptyState@__FrameHandler3@@SAXPEA_KPEAU_xDISPATCHER_CONTEXT@@PEBU_s_FuncInfo@@@Z 000000018003a6e0 f   libvcruntimed:risctrnsctrl.obj
 0001:00039780       ?FrameUnwindToEmptyState@__FrameHandler4@@SAXPEA_KPEAU_xDISPATCHER_CONTEXT@@PEAUFuncInfo4@FH4@@@Z 000000018003a780 f   libvcruntimed:risctrnsctrl.obj
 0001:000397d0       ?GetEstablisherFrame@__FrameHandler3@@SAPEA_KPEA_KPEAU_xDISPATCHER_CONTEXT@@PEBU_s_FuncInfo@@0@Z 000000018003a7d0 f   libvcruntimed:risctrnsctrl.obj
 0001:00039940       ?GetEstablisherFrame@__FrameHandler4@@SAPEA_KPEA_KPEAU_xDISPATCHER_CONTEXT@@PEAUFuncInfo4@FH4@@0@Z 000000018003a940 f   libvcruntimed:risctrnsctrl.obj
 0001:000399b0       ?GetRangeOfTrysToCheck@__FrameHandler3@@SA?AU?$pair@Viterator@TryBlockMap@__FrameHandler3@@V123@@std@@AEAVTryBlockMap@1@HPEAU_xDISPATCHER_CONTEXT@@PEBU_s_FuncInfo@@H@Z 000000018003a9b0 f   libvcruntimed:risctrnsctrl.obj
 0001:00039bf0       ?GetRangeOfTrysToCheck@__FrameHandler4@@SA?AU?$pair@Viterator@TryBlockMap4@FH4@@V123@@std@@AEAVTryBlockMap4@FH4@@HPEAU_xDISPATCHER_CONTEXT@@PEAUFuncInfo4@5@H@Z 000000018003abf0 f   libvcruntimed:risctrnsctrl.obj
 0001:00039da0       ?ReadInt@FH4@@YAHPEAPEAE@Z 000000018003ada0 f i libvcruntimed:risctrnsctrl.obj
 0001:00039de0       ?ReadUnsigned@FH4@@YAIPEAPEAE@Z 000000018003ade0 f i libvcruntimed:risctrnsctrl.obj
 0001:00039e70       ?UnwindNestedFrames@__FrameHandler3@@SAXPEA_KPEAUEHExceptionRecord@@PEAU_CONTEXT@@0PEAXPEBU_s_FuncInfo@@HHPEBU_s_HandlerType@@PEAU_xDISPATCHER_CONTEXT@@E@Z 000000018003ae70 f   libvcruntimed:risctrnsctrl.obj
 0001:00039fe0       ?UnwindNestedFrames@__FrameHandler4@@SAXPEA_KPEAUEHExceptionRecord@@PEAU_CONTEXT@@0PEAXPEAUFuncInfo4@FH4@@HHPEAUHandlerType4@5@PEAU_xDISPATCHER_CONTEXT@@E@Z 000000018003afe0 f   libvcruntimed:risctrnsctrl.obj
 0001:0003a1b0       ?begin@TryBlockMap4@FH4@@QEAA?AViterator@12@XZ 000000018003b1b0 f i libvcruntimed:risctrnsctrl.obj
 0001:0003a1e0       ?end@TryBlockMap4@FH4@@QEAA?AViterator@12@XZ 000000018003b1e0 f i libvcruntimed:risctrnsctrl.obj
 0001:0003a210       ?imageRelToByteBuffer@FH4@@YAPEAE_KH@Z 000000018003b210 f i libvcruntimed:risctrnsctrl.obj
 0001:0003a230       ?incrementToSentinel@iterator@TryBlockMap4@FH4@@QEAAXXZ 000000018003b230 f i libvcruntimed:risctrnsctrl.obj
 0001:0003a250       ?setBuffer@TryBlockMap4@FH4@@QEAAXViterator@12@@Z 000000018003b250 f i libvcruntimed:risctrnsctrl.obj
 0001:0003a2c0       _CreateFrameInfo           000000018003b2c0 f   libvcruntimed:risctrnsctrl.obj
 0001:0003a330       _FindAndUnlinkFrame        000000018003b330 f   libvcruntimed:risctrnsctrl.obj
 0001:0003a3b0       _GetImageBase              000000018003b3b0 f   libvcruntimed:risctrnsctrl.obj
 0001:0003a3d0       _GetThrowImageBase         000000018003b3d0 f   libvcruntimed:risctrnsctrl.obj
 0001:0003a3f0       _SetImageBase              000000018003b3f0 f   libvcruntimed:risctrnsctrl.obj
 0001:0003a410       _SetThrowImageBase         000000018003b410 f   libvcruntimed:risctrnsctrl.obj
 0001:0003a430       __CxxFrameHandler          000000018003b430 f   libvcruntimed:risctrnsctrl.obj
 0001:0003a470       __CxxFrameHandler2         000000018003b470 f   libvcruntimed:risctrnsctrl.obj
 0001:0003a4b0       __CxxFrameHandler3         000000018003b4b0 f   libvcruntimed:risctrnsctrl.obj
 0001:0003a590       __CxxFrameHandler4         000000018003b590 f   libvcruntimed:risctrnsctrl.obj
 0001:0003a6a0       __C_specific_handler_noexcept 000000018003b6a0 f   libvcruntimed:chandler_noexcept.obj
 0001:0003a730       __DestructExceptionObject  000000018003b730 f   libvcruntimed:ehhelpers.obj
 0001:0003a830       ?_CallMemberFunction0@@YAXQEAX0@Z 000000018003b830 f i libvcruntimed:ehhelpers.obj
 0001:0003a900       ?raw_name@type_info@@QEBAPEBDXZ 000000018003b900 f i libvcruntimed:ehhelpers.obj
 0001:0003a910       _IsExceptionObjectToBeDestroyed 000000018003b910 f   libvcruntimed:ehhelpers.obj
 0001:0003a960       _SetWinRTOutOfMemoryExceptionCallback 000000018003b960 f   libvcruntimed:ehhelpers.obj
 0001:0003a980       __AdjustPointer            000000018003b980 f   libvcruntimed:ehhelpers.obj
 0001:0003aa00       __FrameUnwindFilter        000000018003ba00 f   libvcruntimed:ehhelpers.obj
 0001:0003aab0       __GetPlatformExceptionInfo 000000018003bab0 f   libvcruntimed:ehhelpers.obj
 0001:0003ab60       __current_exception        000000018003bb60 f   libvcruntimed:ehhelpers.obj
 0001:0003ab80       __current_exception_context 000000018003bb80 f   libvcruntimed:ehhelpers.obj
 0001:0003aba0       __processing_throw         000000018003bba0 f   libvcruntimed:ehhelpers.obj
 0001:0003abc0       __std_terminate            000000018003bbc0 f   libvcruntimed:ehhelpers.obj
 0001:0003abd0       _is_exception_typeof       000000018003bbd0 f   libvcruntimed:ehhelpers.obj
 0001:0003ad60       ??$?RD@__crt_internal_free_policy@@QEBAXQEBD@Z 000000018003bd60 f i libvcruntimed:std_type_info.obj
 0001:0003ad90       ??$?RX@__crt_internal_free_policy@@QEBAXQEBX@Z 000000018003bd90 f i libvcruntimed:std_type_info.obj
 0001:0003adc0       ??$__crt_interlocked_compare_exchange_pointer@$$CBDPEAD$$T@@YAPEBDPEDSEBDQEAD$$T@Z 000000018003bdc0 f i libvcruntimed:std_type_info.obj
 0001:0003ae00       ??$__crt_interlocked_read_pointer@$$CBD@@YAPEBDPEDSEBD@Z 000000018003be00 f i libvcruntimed:std_type_info.obj
 0001:0003ae20       ??0?$__crt_unique_heap_ptr@DU__crt_internal_free_policy@@@@QEAA@QEAD@Z 000000018003be20 f i libvcruntimed:std_type_info.obj
 0001:0003ae40       ??0?$__crt_unique_heap_ptr@XU__crt_internal_free_policy@@@@QEAA@QEAX@Z 000000018003be40 f i libvcruntimed:std_type_info.obj
 0001:0003ae60       ??1?$__crt_unique_heap_ptr@DU__crt_internal_free_policy@@@@QEAA@XZ 000000018003be60 f i libvcruntimed:std_type_info.obj
 0001:0003ae80       ??1?$__crt_unique_heap_ptr@XU__crt_internal_free_policy@@@@QEAA@XZ 000000018003be80 f i libvcruntimed:std_type_info.obj
 0001:0003aea0       ??B?$__crt_unique_heap_ptr@DU__crt_internal_free_policy@@@@QEBA_NXZ 000000018003bea0 f i libvcruntimed:std_type_info.obj
 0001:0003aec0       ??B?$__crt_unique_heap_ptr@XU__crt_internal_free_policy@@@@QEBA_NXZ 000000018003bec0 f i libvcruntimed:std_type_info.obj
 0001:0003af60       ?detach@?$__crt_unique_heap_ptr@XU__crt_internal_free_policy@@@@QEAAPEAXXZ 000000018003bf60 f i libvcruntimed:std_type_info.obj
 0001:0003af90       ?get@?$__crt_unique_heap_ptr@DU__crt_internal_free_policy@@@@QEBAPEADXZ 000000018003bf90 f i libvcruntimed:std_type_info.obj
 0001:0003afa0       ?get@?$__crt_unique_heap_ptr@XU__crt_internal_free_policy@@@@QEBAPEAXXZ 000000018003bfa0 f i libvcruntimed:std_type_info.obj
 0001:0003afb0       ?is_valid@?$__crt_unique_heap_ptr@DU__crt_internal_free_policy@@@@QEBA_NXZ 000000018003bfb0 f i libvcruntimed:std_type_info.obj
 0001:0003afe0       ?is_valid@?$__crt_unique_heap_ptr@XU__crt_internal_free_policy@@@@QEBA_NXZ 000000018003bfe0 f i libvcruntimed:std_type_info.obj
 0001:0003b010       ?release@?$__crt_unique_heap_ptr@DU__crt_internal_free_policy@@@@QEAAXXZ 000000018003c010 f i libvcruntimed:std_type_info.obj
 0001:0003b040       ?release@?$__crt_unique_heap_ptr@XU__crt_internal_free_policy@@@@QEAAXXZ 000000018003c040 f i libvcruntimed:std_type_info.obj
 0001:0003b070       __std_type_info_compare    000000018003c070 f   libvcruntimed:std_type_info.obj
 0001:0003b0b0       __std_type_info_destroy_list 000000018003c0b0 f   libvcruntimed:std_type_info.obj
 0001:0003b110       __std_type_info_hash       000000018003c110 f   libvcruntimed:std_type_info.obj
 0001:0003b1c0       __std_type_info_name       000000018003c1c0 f   libvcruntimed:std_type_info.obj
 0001:0003b470       __vcrt_GetModuleFileNameW  000000018003c470 f   libvcruntimed:winapi_thunks.obj
 0001:0003b4a0       __vcrt_GetModuleHandleW    000000018003c4a0 f   libvcruntimed:winapi_thunks.obj
 0001:0003b4c0       __vcrt_LoadLibraryExW      000000018003c4c0 f   libvcruntimed:winapi_thunks.obj
 0001:0003b4f0       ??$?RD@__crt_public_free_policy@@QEBAXQEBD@Z 000000018003c4f0 f i libvcruntimed:std_exception.obj
 0001:0003b510       ??0?$__crt_unique_heap_ptr@DU__crt_public_free_policy@@@@QEAA@QEAD@Z 000000018003c510 f i libvcruntimed:std_exception.obj
 0001:0003b530       ??1?$__crt_unique_heap_ptr@DU__crt_public_free_policy@@@@QEAA@XZ 000000018003c530 f i libvcruntimed:std_exception.obj
 0001:0003b550       ??B?$__crt_unique_heap_ptr@DU__crt_public_free_policy@@@@QEBA_NXZ 000000018003c550 f i libvcruntimed:std_exception.obj
 0001:0003b570       ?detach@?$__crt_unique_heap_ptr@DU__crt_public_free_policy@@@@QEAAPEADXZ 000000018003c570 f i libvcruntimed:std_exception.obj
 0001:0003b5a0       ?get@?$__crt_unique_heap_ptr@DU__crt_public_free_policy@@@@QEBAPEADXZ 000000018003c5a0 f i libvcruntimed:std_exception.obj
 0001:0003b5b0       ?is_valid@?$__crt_unique_heap_ptr@DU__crt_public_free_policy@@@@QEBA_NXZ 000000018003c5b0 f i libvcruntimed:std_exception.obj
 0001:0003b5e0       ?release@?$__crt_unique_heap_ptr@DU__crt_public_free_policy@@@@QEAAXXZ 000000018003c5e0 f i libvcruntimed:std_exception.obj
 0001:0003b610       __std_exception_copy       000000018003c610 f   libvcruntimed:std_exception.obj
 0001:0003b750       __std_exception_destroy    000000018003c750 f   libvcruntimed:std_exception.obj
 0001:0003b790       _CxxThrowException         000000018003c790 f   libvcruntimed:throw.obj
 0001:0003b8c0       ??$?RU__vcrt_ptd@@@__crt_internal_free_policy@@QEBAXQEBU__vcrt_ptd@@@Z 000000018003c8c0 f i libvcruntimed:per_thread_data.obj
 0001:0003b8f0       ??0?$__crt_unique_heap_ptr@U__vcrt_ptd@@U__crt_internal_free_policy@@@@QEAA@QEAU__vcrt_ptd@@@Z 000000018003c8f0 f i libvcruntimed:per_thread_data.obj
 0001:0003b930       ??1?$__crt_unique_heap_ptr@U__vcrt_ptd@@U__crt_internal_free_policy@@@@QEAA@XZ 000000018003c930 f i libvcruntimed:per_thread_data.obj
 0001:0003b970       ??B?$__crt_unique_heap_ptr@U__vcrt_ptd@@U__crt_internal_free_policy@@@@QEBA_NXZ 000000018003c970 f i libvcruntimed:per_thread_data.obj
 0001:0003b990       ?detach@?$__crt_unique_heap_ptr@U__vcrt_ptd@@U__crt_internal_free_policy@@@@QEAAPEAU__vcrt_ptd@@XZ 000000018003c990 f i libvcruntimed:per_thread_data.obj
 0001:0003b9c0       ?get@?$__crt_unique_heap_ptr@U__vcrt_ptd@@U__crt_internal_free_policy@@@@QEBAPEAU__vcrt_ptd@@XZ 000000018003c9c0 f i libvcruntimed:per_thread_data.obj
 0001:0003b9d0       ?is_valid@?$__crt_unique_heap_ptr@U__vcrt_ptd@@U__crt_internal_free_policy@@@@QEBA_NXZ 000000018003c9d0 f i libvcruntimed:per_thread_data.obj
 0001:0003ba00       ?release@?$__crt_unique_heap_ptr@U__vcrt_ptd@@U__crt_internal_free_policy@@@@QEAAXXZ 000000018003ca00 f i libvcruntimed:per_thread_data.obj
 0001:0003ba70       __vcrt_freefls             000000018003ca70 f   libvcruntimed:per_thread_data.obj
 0001:0003bab0       __vcrt_freeptd             000000018003cab0 f   libvcruntimed:per_thread_data.obj
 0001:0003bb10       __vcrt_getptd              000000018003cb10 f   libvcruntimed:per_thread_data.obj
 0001:0003bb40       __vcrt_getptd_noexit       000000018003cb40 f   libvcruntimed:per_thread_data.obj
 0001:0003bce0       __vcrt_getptd_noinit       000000018003cce0 f   libvcruntimed:per_thread_data.obj
 0001:0003bd40       __vcrt_initialize_ptd      000000018003cd40 f   libvcruntimed:per_thread_data.obj
 0001:0003bd90       __vcrt_uninitialize_ptd    000000018003cd90 f   libvcruntimed:per_thread_data.obj
 0001:0003bdc0       __vcrt_initialize_locks    000000018003cdc0 f   libvcruntimed:locks.obj
 0001:0003be30       __vcrt_lock                000000018003ce30 f   libvcruntimed:locks.obj
 0001:0003be60       __vcrt_uninitialize_locks  000000018003ce60 f   libvcruntimed:locks.obj
 0001:0003bec0       __vcrt_unlock              000000018003cec0 f   libvcruntimed:locks.obj
 0001:0003bf00       _NLG_Notify                000000018003cf00 f   libvcruntimed:notify.obj
 0001:0003bf20       __NLG_Dispatch2            000000018003cf20 f   libvcruntimed:notify.obj
 0001:0003bf30       __NLG_Return2              000000018003cf30 f   libvcruntimed:notify.obj
 0001:0003bf50       __except_validate_context_record 000000018003cf50 f   libvcruntimed:jbcxrval.obj
 0001:0003bfb0       __except_validate_jump_buffer 000000018003cfb0 f   libvcruntimed:jbcxrval.obj
 0001:0003bfd0       __except_validate_jump_buffer_common 000000018003cfd0 f i libvcruntimed:jbcxrval.obj
 0001:0003c050       ?GetCurrentState@__FrameHandler3@@SAHPEA_KPEAU_xDISPATCHER_CONTEXT@@PEBU_s_FuncInfo@@@Z 000000018003d050 f   libvcruntimed:ehstate.obj
 0001:0003c0b0       ?GetUnwindTryBlock@__FrameHandler3@@SAHPEA_KPEAU_xDISPATCHER_CONTEXT@@PEBU_s_FuncInfo@@@Z 000000018003d0b0 f   libvcruntimed:ehstate.obj
 0001:0003c100       ?SetState@__FrameHandler3@@SAXPEA_KPEBU_s_FuncInfo@@H@Z 000000018003d100 f   libvcruntimed:ehstate.obj
 0001:0003c130       ?SetUnwindTryBlock@__FrameHandler3@@SAXPEA_KPEAU_xDISPATCHER_CONTEXT@@PEBU_s_FuncInfo@@H@Z 000000018003d130 f   libvcruntimed:ehstate.obj
 0001:0003c1a0       ?StateFromControlPc@__FrameHandler3@@SAHPEBU_s_FuncInfo@@PEAU_xDISPATCHER_CONTEXT@@@Z 000000018003d1a0 f   libvcruntimed:ehstate.obj
 0001:0003c1e0       ?StateFromControlPc@__FrameHandler4@@SAHPEAUFuncInfo4@FH4@@PEAU_xDISPATCHER_CONTEXT@@@Z 000000018003d1e0 f   libvcruntimed:ehstate.obj
 0001:0003c220       ?StateFromIp@__FrameHandler3@@SAHPEBU_s_FuncInfo@@PEAU_xDISPATCHER_CONTEXT@@_K@Z 000000018003d220 f   libvcruntimed:ehstate.obj
 0001:0003c310       ?StateFromIp@__FrameHandler4@@SAHPEAUFuncInfo4@FH4@@PEAU_xDISPATCHER_CONTEXT@@_K@Z 000000018003d310 f   libvcruntimed:ehstate.obj
 0001:0003c400       ?__FuncRelToRealOffset@@YA_KPEAU_xDISPATCHER_CONTEXT@@I@Z 000000018003d400 f i libvcruntimed:ehstate.obj
 0001:0003c430       ?__RVAtoRealOffset@@YA_KPEAU_xDISPATCHER_CONTEXT@@H@Z 000000018003d430 f i libvcruntimed:ehstate.obj
 0001:0003e6b0       ??$TypeMatchHelper@V__FrameHandler3@@@@YAHPEBU_s_HandlerType@@PEBU_s_CatchableType@@PEBU_s_ThrowInfo@@@Z 000000018003f6b0 f i libvcruntimed:frame.obj
 0001:0003e8b0       ??$TypeMatchHelper@V__FrameHandler4@@@@YAHPEAUHandlerType4@FH4@@PEBU_s_CatchableType@@PEBU_s_ThrowInfo@@@Z 000000018003f8b0 f i libvcruntimed:frame.obj
 0001:0003eac0       ??$__InternalCxxFrameHandler@V__FrameHandler3@@@@YA?AW4_EXCEPTION_DISPOSITION@@PEAUEHExceptionRecord@@PEA_KPEAU_CONTEXT@@PEAU_xDISPATCHER_CONTEXT@@PEBU_s_FuncInfo@@H1E@Z 000000018003fac0 f i libvcruntimed:frame.obj
 0001:0003ef30       ??$__InternalCxxFrameHandler@V__FrameHandler4@@@@YA?AW4_EXCEPTION_DISPOSITION@@PEAUEHExceptionRecord@@PEA_KPEAU_CONTEXT@@PEAU_xDISPATCHER_CONTEXT@@PEAUFuncInfo4@FH4@@H1E@Z 000000018003ff30 f i libvcruntimed:frame.obj
 0001:0003f3c0       ??0HandlerMap4@FH4@@QEAA@PEBUTryBlockMapEntry4@1@_KH@Z 00000001800403c0 f i libvcruntimed:frame.obj
 0001:0003f480       ??0HandlerMap@__FrameHandler3@@QEAA@PEBU_s_TryBlockMapEntry@@_KI@Z 0000000180040480 f i libvcruntimed:frame.obj
 0001:0003f4d0       ??0HandlerType4@FH4@@QEAA@XZ 00000001800404d0 f i libvcruntimed:frame.obj
 0001:0003f4f0       ??0TryBlockMap4@FH4@@QEAA@PEBUFuncInfo4@1@_K@Z 00000001800404f0 f i libvcruntimed:frame.obj
 0001:0003f580       ??0TryBlockMap@__FrameHandler3@@QEAA@PEBU_s_FuncInfo@@_K@Z 0000000180040580 f i libvcruntimed:frame.obj
 0001:0003f5b0       ??0UWMap4@FH4@@QEAA@PEBUFuncInfo4@1@_K@Z 00000001800405b0 f i libvcruntimed:frame.obj
 0001:0003f620       ??0bad_exception@std@@QEAA@AEBV01@@Z 0000000180040620 f i libvcruntimed:frame.obj
 0001:0003f660       ??0bad_exception@std@@QEAA@XZ 0000000180040660 f i libvcruntimed:frame.obj
 0001:0003f6a0       ??0iterator@HandlerMap4@FH4@@QEAA@AEAV12@I@Z 00000001800406a0 f i libvcruntimed:frame.obj
 0001:0003f6d0       ??0iterator@HandlerMap@__FrameHandler3@@QEAA@AEAV12@I@Z 00000001800406d0 f i libvcruntimed:frame.obj
 0001:0003f700       ??0iterator@UWMap4@FH4@@QEAA@AEAV12@PEAE@Z 0000000180040700 f i libvcruntimed:frame.obj
 0001:0003f730       ??1bad_exception@std@@UEAA@XZ 0000000180040730 f i libvcruntimed:frame.obj
 0001:0003f750       ??4iterator@UWMap4@FH4@@QEAAAEAV012@AEBV012@@Z 0000000180040750 f i libvcruntimed:frame.obj
 0001:0003f7a0       ??8iterator@HandlerMap4@FH4@@QEBA_NAEBV012@@Z 00000001800407a0 f i libvcruntimed:frame.obj
 0001:0003f7e0       ??8iterator@HandlerMap@__FrameHandler3@@QEBA_NAEBV012@@Z 00000001800407e0 f i libvcruntimed:frame.obj
 0001:0003f820       ??8type_info@@QEBA_NAEBV0@@Z 0000000180040820 f i libvcruntimed:frame.obj
 0001:0003f870       ??9iterator@HandlerMap4@FH4@@QEBA_NAEBV012@@Z 0000000180040870 f i libvcruntimed:frame.obj
 0001:0003f8b0       ??9iterator@HandlerMap@__FrameHandler3@@QEBA_NAEBV012@@Z 00000001800408b0 f i libvcruntimed:frame.obj
 0001:0003f8f0       ??Diterator@HandlerMap4@FH4@@QEAA?AUHandlerType4@2@XZ 00000001800408f0 f i libvcruntimed:frame.obj
 0001:0003f920       ??Diterator@HandlerMap@__FrameHandler3@@QEAA?BU_s_HandlerType@@XZ 0000000180040920 f i libvcruntimed:frame.obj
 0001:0003f960       ??Diterator@TryBlockMap@__FrameHandler3@@QEAA?BU_s_TryBlockMapEntry@@XZ 0000000180040960 f i libvcruntimed:frame.obj
 0001:0003f9b0       ??Diterator@UWMap4@FH4@@QEAA?AUUnwindMapEntry4@2@XZ 00000001800409b0 f i libvcruntimed:frame.obj
 0001:0003fa30       ??Eiterator@HandlerMap4@FH4@@QEAAAEAV012@XZ 0000000180040a30 f i libvcruntimed:frame.obj
 0001:0003fa70       ??Eiterator@HandlerMap@__FrameHandler3@@QEAAAEAV012@XZ 0000000180040a70 f i libvcruntimed:frame.obj
 0001:0003fa90       ??Eiterator@TryBlockMap@__FrameHandler3@@QEAAAEAV012@XZ 0000000180040a90 f i libvcruntimed:frame.obj
 0001:0003fab0       ??Eiterator@UWMap4@FH4@@QEAAAEAV012@XZ 0000000180040ab0 f i libvcruntimed:frame.obj
 0001:0003faf0       ??Giterator@UWMap4@FH4@@QEBA_JAEBV012@@Z 0000000180040af0 f i libvcruntimed:frame.obj
 0001:0003fb10       ??Miterator@TryBlockMap4@FH4@@QEBA_NAEBV012@@Z 0000000180040b10 f i libvcruntimed:frame.obj
 0001:0003fb50       ??Miterator@TryBlockMap@__FrameHandler3@@QEBA_NAEBV012@@Z 0000000180040b50 f i libvcruntimed:frame.obj
 0001:0003fb90       ??Oiterator@UWMap4@FH4@@QEBA_NAEBV012@@Z 0000000180040b90 f i libvcruntimed:frame.obj
 0001:0003fbd0       ??Piterator@UWMap4@FH4@@QEBA_NAEBV012@@Z 0000000180040bd0 f i libvcruntimed:frame.obj
 0001:0003fc10       ??_Gbad_exception@std@@UEAAPEAXI@Z 0000000180040c10 f i libvcruntimed:frame.obj
 0001:0003fc10       ??_Ebad_exception@std@@UEAAPEAXI@Z 0000000180040c10 f i libvcruntimed:frame.obj
 0001:0003fc50       ?BuildCatchObject@__FrameHandler3@@SAXPEAUEHExceptionRecord@@PEAXPEBU_s_HandlerType@@PEBU_s_CatchableType@@@Z 0000000180040c50 f   libvcruntimed:frame.obj
 0001:0003fc90       ?BuildCatchObject@__FrameHandler4@@SAXPEAUEHExceptionRecord@@PEAXPEAUHandlerType4@FH4@@PEBU_s_CatchableType@@@Z 0000000180040c90 f   libvcruntimed:frame.obj
 0001:0003fcd0       ?BuildCatchObjectHelper@__FrameHandler3@@SAHPEAUEHExceptionRecord@@PEAXPEBU_s_HandlerType@@PEBU_s_CatchableType@@@Z 0000000180040cd0 f   libvcruntimed:frame.obj
 0001:0003fd10       ?BuildCatchObjectHelper@__FrameHandler4@@SAHPEAUEHExceptionRecord@@PEAXPEAUHandlerType4@FH4@@PEBU_s_CatchableType@@@Z 0000000180040d10 f   libvcruntimed:frame.obj
 0001:0003fd50       ?CxxCallCatchBlock@__FrameHandler3@@SAPEAXPEAU_EXCEPTION_RECORD@@@Z 0000000180040d50 f   libvcruntimed:frame.obj
 0001:0003ffb0       ?CxxCallCatchBlock@__FrameHandler4@@SAPEAXPEAU_EXCEPTION_RECORD@@@Z 0000000180040fb0 f   libvcruntimed:frame.obj
 0001:000402e0       ?DecompHandler@HandlerMap4@FH4@@AEAAXXZ 00000001800412e0 f i libvcruntimed:frame.obj
 0001:000406b0       ?FrameUnwindToState@__FrameHandler3@@SAXPEA_KPEAU_xDISPATCHER_CONTEXT@@PEBU_s_FuncInfo@@H@Z 00000001800416b0 f   libvcruntimed:frame.obj
 0001:00040900       ?FrameUnwindToState@__FrameHandler4@@SAXPEA_KPEAU_xDISPATCHER_CONTEXT@@PEAUFuncInfo4@FH4@@H@Z 0000000180041900 f   libvcruntimed:frame.obj
 0001:00040c10       ?GetHandlerSearchState@__FrameHandler3@@SAHPEA_KPEAU_xDISPATCHER_CONTEXT@@PEBU_s_FuncInfo@@@Z 0000000180041c10 f i libvcruntimed:frame.obj
 0001:00040cc0       ?GetHandlerSearchState@__FrameHandler4@@SAHPEA_KPEAU_xDISPATCHER_CONTEXT@@PEAUFuncInfo4@FH4@@@Z 0000000180041cc0 f i libvcruntimed:frame.obj
 0001:00040d40       ?GetMaxState@__FrameHandler3@@SAHPEAU_xDISPATCHER_CONTEXT@@PEBU_s_FuncInfo@@@Z 0000000180041d40 f i libvcruntimed:frame.obj
 0001:00040d60       ?GetMaxState@__FrameHandler4@@SAHPEAU_xDISPATCHER_CONTEXT@@PEAUFuncInfo4@FH4@@@Z 0000000180041d60 f i libvcruntimed:frame.obj
 0001:00040f90       ?ReadEntry@UWMap4@FH4@@AEAAXPEAPEAE@Z 0000000180041f90 f i libvcruntimed:frame.obj
 0001:00041040       ?TypeMatch@__FrameHandler3@@SAHPEBU_s_HandlerType@@PEBU_s_CatchableType@@PEBU_s_ThrowInfo@@@Z 0000000180042040 f   libvcruntimed:frame.obj
 0001:00041070       ?TypeMatch@__FrameHandler4@@SAHPEAUHandlerType4@FH4@@PEBU_s_CatchableType@@PEBU_s_ThrowInfo@@@Z 0000000180042070 f   libvcruntimed:frame.obj
 0001:000410a0       ?WalkBack@UWMap4@FH4@@AEAAXPEAPEAE@Z 00000001800420a0 f i libvcruntimed:frame.obj
 0001:000410f0       ?WalkBack@iterator@UWMap4@FH4@@QEAAXXZ 00000001800420f0 f i libvcruntimed:frame.obj
 0001:00041130       ?WalkForward@UWMap4@FH4@@AEAAXPEAPEAE@Z 0000000180042130 f i libvcruntimed:frame.obj
 0001:00041160       ?_CallMemberFunction1@@YAXQEAX00@Z 0000000180042160 f i libvcruntimed:frame.obj
 0001:000411a0       ?_CallMemberFunction2@@YAXQEAX00H@Z 00000001800421a0 f i libvcruntimed:frame.obj
 0001:00041230       ?begin@HandlerMap4@FH4@@QEAA?AViterator@12@XZ 0000000180042230 f i libvcruntimed:frame.obj
 0001:00041260       ?begin@HandlerMap@__FrameHandler3@@QEAA?AViterator@12@XZ 0000000180042260 f i libvcruntimed:frame.obj
 0001:00041290       ?begin@UWMap4@FH4@@QEAA?AViterator@12@XZ 0000000180042290 f i libvcruntimed:frame.obj
 0001:000412c0       ?end@HandlerMap4@FH4@@QEAA?AViterator@12@XZ 00000001800422c0 f i libvcruntimed:frame.obj
 0001:000412f0       ?end@HandlerMap@__FrameHandler3@@QEAA?AViterator@12@XZ 00000001800422f0 f i libvcruntimed:frame.obj
 0001:00041320       ?getESTypes@__FrameHandler3@@SAPEBU_s_ESTypeList@@PEBU_s_FuncInfo@@@Z 0000000180042320 f i libvcruntimed:frame.obj
 0001:00041360       ?getESTypes@__FrameHandler4@@SAPEBU_s_ESTypeList@@PEAUFuncInfo4@FH4@@@Z 0000000180042360 f i libvcruntimed:frame.obj
 0001:00041370       ?getLastEntry@HandlerMap4@FH4@@QEAAPEAUHandlerType4@2@XZ 0000000180042370 f i libvcruntimed:frame.obj
 0001:000413b0       ?getLastEntry@HandlerMap@__FrameHandler3@@QEAAPEBU_s_HandlerType@@XZ 00000001800423b0 f i libvcruntimed:frame.obj
 0001:000413d0       ?getMagicNum@__FrameHandler3@@SAIPEBU_s_FuncInfo@@@Z 00000001800423d0 f i libvcruntimed:frame.obj
 0001:000413f0       ?getMagicNum@__FrameHandler4@@SAIPEAUFuncInfo4@FH4@@@Z 00000001800423f0 f i libvcruntimed:frame.obj
 0001:00041400       ?getNumTryBlocks@TryBlockMap4@FH4@@QEAAIXZ 0000000180042400 f i libvcruntimed:frame.obj
 0001:00041410       ?getNumTryBlocks@TryBlockMap@__FrameHandler3@@QEAAIXZ 0000000180042410 f i libvcruntimed:frame.obj
 0001:00041430       ?getStartStop@UWMap4@FH4@@QEAAXHHAEAViterator@12@0@Z 0000000180042430 f i libvcruntimed:frame.obj
 0001:00041550       ?getStateFromIterators@UWMap4@FH4@@SAHAEBViterator@12@H0H0@Z 0000000180042550 f i libvcruntimed:frame.obj
 0001:00041690       ?isEHs@__FrameHandler3@@SA_NPEBU_s_FuncInfo@@@Z 0000000180042690 f i libvcruntimed:frame.obj
 0001:000416d0       ?isEHs@__FrameHandler4@@SA_NPEAUFuncInfo4@FH4@@@Z 00000001800426d0 f i libvcruntimed:frame.obj
 0001:000416f0       ?isNoExcept@__FrameHandler3@@SA_NPEBU_s_FuncInfo@@@Z 00000001800426f0 f i libvcruntimed:frame.obj
 0001:00041730       ?isNoExcept@__FrameHandler4@@SA_NPEAUFuncInfo4@FH4@@@Z 0000000180042730 f i libvcruntimed:frame.obj
 0001:00041750       ?reset@HandlerType4@FH4@@QEAAXXZ 0000000180042750 f i libvcruntimed:frame.obj
 0001:000417b0       ?resetBuffer@HandlerMap4@FH4@@QEAAXXZ 00000001800427b0 f i libvcruntimed:frame.obj
 0001:000417d0       ?setBuffer@HandlerMap4@FH4@@QEAAXI@Z 00000001800427d0 f i libvcruntimed:frame.obj
 0001:00041830       __BuildCatchObject         0000000180042830 f   libvcruntimed:frame.obj
 0001:00041870       __BuildCatchObjectHelper   0000000180042870 f   libvcruntimed:frame.obj
 0001:000418b0       __TypeMatch                00000001800428b0 f   libvcruntimed:frame.obj
 0001:000418e0       __vcrt_EncodePointer       00000001800428e0 f i libvcruntimed:frame.obj
 0001:00041900       ??$?0$00@DName@@QEAA@PEBDU?$StringLifeSelector@$00@@@Z 0000000180042900 f i libvcruntimed:undname.obj
 0001:00041970       ??$?0$00@pcharNode@@QEAA@PEBDHU?$StringLifeSelector@$00@@@Z 0000000180042970 f i libvcruntimed:undname.obj
 0001:000419d0       ??$?0$01@DName@@QEAA@PEBDU?$StringLifeSelector@$01@@@Z 00000001800429d0 f i libvcruntimed:undname.obj
 0001:00041a40       ??$?0$01@pcharNode@@QEAA@PEBDHU?$StringLifeSelector@$01@@@Z 0000000180042a40 f i libvcruntimed:undname.obj
 0001:00041af0       ??$?0$0A@@DName@@QEAA@PEBDU?$StringLifeSelector@$0A@@@@Z 0000000180042af0 f i libvcruntimed:undname.obj
 0001:00041b60       ??$?0$0A@@pcharNode@@QEAA@PEBDHU?$StringLifeSelector@$0A@@@@Z 0000000180042b60 f i libvcruntimed:undname.obj
 0001:00041c10       ??$?0_K$0A@@?$optional@_K@std@@QEAA@$$QEA_K@Z 0000000180042c10 f i libvcruntimed:undname.obj
 0001:00041c60       ??$?0_K@?$_Optional_construct_base@_K@std@@QEAA@Uin_place_t@1@$$QEA_K@Z 0000000180042c60 f i libvcruntimed:undname.obj
 0001:00041c90       ??$?0_K@?$_Optional_destruct_base@_K$00@std@@QEAA@Uin_place_t@1@$$QEA_K@Z 0000000180042c90 f i libvcruntimed:undname.obj
 0001:00041cd0       ??$append@VDNameNode@@@DName@@AEAAXPEBVDNameNode@@@Z 0000000180042cd0 f i libvcruntimed:undname.obj
 0001:00041d80       ??$append@VDNameStatusNode@@@DName@@AEAAXPEBVDNameStatusNode@@@Z 0000000180042d80 f i libvcruntimed:undname.obj
 0001:00041e30       ??$append@VcharNode@@@DName@@AEAAXPEBVcharNode@@@Z 0000000180042e30 f i libvcruntimed:undname.obj
 0001:00041ee0       ??$append@VpDNameNode@@@DName@@AEAAXPEBVpDNameNode@@@Z 0000000180042ee0 f i libvcruntimed:undname.obj
 0001:00041f90       ??$append@VpcharNode@@@DName@@AEAAXPEBVpcharNode@@@Z 0000000180042f90 f i libvcruntimed:undname.obj
 0001:00042040       ??$doPchar@$00@DName@@AEAAXPEBDH@Z 0000000180043040 f i libvcruntimed:undname.obj
 0001:000421a0       ??$doPchar@$01@DName@@AEAAXPEBDH@Z 00000001800431a0 f i libvcruntimed:undname.obj
 0001:00042300       ??$doPchar@$0A@@DName@@AEAAXPEBDH@Z 0000000180043300 f i libvcruntimed:undname.obj
 0001:00042460       ??$forward@_K@std@@YA$$QEA_KAEA_K@Z 0000000180043460 f i libvcruntimed:undname.obj
 0001:00042470       ??$size@D$04@std@@YA_KAEAY04$$CBD@Z 0000000180043470 f i libvcruntimed:undname.obj
 0001:00042480       ??$size@D$0EB@@std@@YA_KAEAY0EB@$$CBD@Z 0000000180043480 f i libvcruntimed:undname.obj
 0001:00042490       ??0?$_Optional_construct_base@_K@std@@QEAA@XZ 0000000180043490 f i libvcruntimed:undname.obj
 0001:000424b0       ??0?$_Optional_destruct_base@_K$00@std@@QEAA@XZ 00000001800434b0 f i libvcruntimed:undname.obj
 0001:000424d0       ??0?$optional@_K@std@@QEAA@XZ 00000001800434d0 f i libvcruntimed:undname.obj
 0001:00042500       ??0Block@_HeapManager@@QEAA@XZ 0000000180043500 f i libvcruntimed:undname.obj
 0001:00042520       ??0DName@@QEAA@AEAPEBDD@Z  0000000180043520 f   libvcruntimed:undname.obj
 0001:000426f0       ??0DName@@QEAA@AEBUStringLiteral@@@Z 00000001800436f0 f   libvcruntimed:undname.obj
 0001:00042750       ??0DName@@QEAA@AEBV0@@Z    0000000180043750 f i libvcruntimed:undname.obj
 0001:00042780       ??0DName@@QEAA@D@Z         0000000180043780 f   libvcruntimed:undname.obj
 0001:000427c0       ??0DName@@QEAA@PEAV0@@Z    00000001800437c0 f   libvcruntimed:undname.obj
 0001:000428a0       ??0DName@@QEAA@W4DNameStatus@@@Z 00000001800438a0 f   libvcruntimed:undname.obj
 0001:00042950       ??0DName@@QEAA@XZ          0000000180043950 f i libvcruntimed:undname.obj
 0001:00042980       ??0DName@@QEAA@_J@Z        0000000180043980 f   libvcruntimed:undname.obj
 0001:00042a90       ??0DName@@QEAA@_K@Z        0000000180043a90 f   libvcruntimed:undname.obj
 0001:00042b60       ??0DNameNode@@IEAA@XZ      0000000180043b60 f i libvcruntimed:undname.obj
 0001:00042b80       ??0Replicator@@QEAA@XZ     0000000180043b80 f i libvcruntimed:undname.obj
 0001:00042bc0       ??0UnDecorator@@QEAA@PEBDP6APEADJ@ZK@Z 0000000180043bc0 f i libvcruntimed:undname.obj
 0001:00042c70       ??0charNode@@QEAA@D@Z      0000000180043c70 f i libvcruntimed:undname.obj
 0001:00042cb0       ??0pDNameNode@@QEAA@PEAVDName@@@Z 0000000180043cb0 f   libvcruntimed:undname.obj
 0001:00042d30       ??0pairNode@@QEAA@PEBVDNameNode@@0@Z 0000000180043d30 f i libvcruntimed:undname.obj
 0001:00042db0       ??2@YAPEAX_KAEAV_HeapManager@@H@Z 0000000180043db0 f   libvcruntimed:undname.obj
 0001:00042e10       ??4DName@@QEAAAEAV0@AEBUStringLiteral@@@Z 0000000180043e10 f   libvcruntimed:undname.obj
 0001:00042e60       ??4DName@@QEAAAEAV0@AEBV0@@Z 0000000180043e60 f   libvcruntimed:undname.obj
 0001:00042e90       ??4DName@@QEAAAEAV0@D@Z    0000000180043e90 f i libvcruntimed:undname.obj
 0001:00042ed0       ??4DName@@QEAAAEAV0@PEAV0@@Z 0000000180043ed0 f   libvcruntimed:undname.obj
 0001:00042fa0       ??4DName@@QEAAAEAV0@W4DNameStatus@@@Z 0000000180043fa0 f   libvcruntimed:undname.obj
 0001:00043030       ??AReplicator@@QEBA?AVDName@@H@Z 0000000180044030 f   libvcruntimed:undname.obj
 0001:000430c0       ??B?$optional@_K@std@@QEBA_NXZ 00000001800440c0 f i libvcruntimed:undname.obj
 0001:000430d0       ??D?$optional@_K@std@@QEGAAAEA_KXZ 00000001800440d0 f i libvcruntimed:undname.obj
 0001:000430e0       ??H@YA?AVDName@@AEBUStringLiteral@@AEBV0@@Z 00000001800440e0 f i libvcruntimed:undname.obj
 0001:00043130       ??H@YA?AVDName@@DAEBV0@@Z  0000000180044130 f i libvcruntimed:undname.obj
 0001:00043180       ??H@YA?AVDName@@W4DNameStatus@@AEBV0@@Z 0000000180044180 f i libvcruntimed:undname.obj
 0001:000431d0       ??HDName@@QEBA?AV0@AEBUStringLiteral@@@Z 00000001800441d0 f   libvcruntimed:undname.obj
 0001:00043220       ??HDName@@QEBA?AV0@AEBV0@@Z 0000000180044220 f   libvcruntimed:undname.obj
 0001:00043270       ??HDName@@QEBA?AV0@D@Z     0000000180044270 f   libvcruntimed:undname.obj
 0001:000432c0       ??HDName@@QEBA?AV0@PEAV0@@Z 00000001800442c0 f   libvcruntimed:undname.obj
 0001:00043310       ??HDName@@QEBA?AV0@W4DNameStatus@@@Z 0000000180044310 f   libvcruntimed:undname.obj
 0001:00043360       ??HStringLiteral@@QEBA?AU0@H@Z 0000000180044360 f i libvcruntimed:undname.obj
 0001:000433a0       ??YDName@@QEAAAEAV0@AEBUStringLiteral@@@Z 00000001800443a0 f   libvcruntimed:undname.obj
 0001:00043470       ??YDName@@QEAAAEAV0@AEBV0@@Z 0000000180044470 f   libvcruntimed:undname.obj
 0001:00043530       ??YDName@@QEAAAEAV0@D@Z    0000000180044530 f   libvcruntimed:undname.obj
 0001:000435d0       ??YDName@@QEAAAEAV0@PEAV0@@Z 00000001800445d0 f   libvcruntimed:undname.obj
 0001:000436b0       ??YDName@@QEAAAEAV0@W4DNameStatus@@@Z 00000001800446b0 f   libvcruntimed:undname.obj
 0001:00043720       ??YReplicator@@QEAAAEAV0@AEBVDName@@@Z 0000000180044720 f   libvcruntimed:undname.obj
 0001:000437e0       ??_5DName@@QEAAAEAV0@AEBV0@@Z 00000001800447e0 f   libvcruntimed:undname.obj
 0001:00043850       ??__K_l@@YA?AUStringLiteral@@PEBD_K@Z 0000000180044850 f i libvcruntimed:undname.obj
 0001:000438a0       ?Constructor@_HeapManager@@QEAAXP6APEAX_K@ZP6AXPEAX@Z@Z 00000001800448a0 f i libvcruntimed:undname.obj
 0001:00043900       ?Destructor@_HeapManager@@QEAAXXZ 0000000180044900 f i libvcruntimed:undname.obj
 0001:000439a0       ?UScore@UnDecorator@@SA?AUStringLiteral@@W4Tokens@@@Z 00000001800449a0 f   libvcruntimed:undname.obj
 0001:00043a30       ?composeDeclaration@UnDecorator@@CA?AVDName@@AEBV2@@Z 0000000180044a30 f i libvcruntimed:undname.obj
 0001:00045f30       ?dbGetString@DName@@QEBAPEADXZ 0000000180046f30 f   libvcruntimed:undname.obj
 0001:00045f60       ?doAccessSpecifiers@UnDecorator@@SAHXZ 0000000180046f60 f i libvcruntimed:undname.obj
 0001:00045f90       ?doAllocationLanguage@UnDecorator@@SAHXZ 0000000180046f90 f i libvcruntimed:undname.obj
 0001:00045fc0       ?doAllocationModel@UnDecorator@@SAHXZ 0000000180046fc0 f i libvcruntimed:undname.obj
 0001:00045ff0       ?doEcsu@UnDecorator@@SAHXZ 0000000180046ff0 f i libvcruntimed:undname.obj
 0001:00046020       ?doEllipsis@UnDecorator@@SAHXZ 0000000180047020 f i libvcruntimed:undname.obj
 0001:00046050       ?doFunctionReturns@UnDecorator@@SAHXZ 0000000180047050 f i libvcruntimed:undname.obj
 0001:00046080       ?doMSKeywords@UnDecorator@@SAHXZ 0000000180047080 f i libvcruntimed:undname.obj
 0001:000460b0       ?doMemberTypes@UnDecorator@@SAHXZ 00000001800470b0 f i libvcruntimed:undname.obj
 0001:000460e0       ?doNameOnly@UnDecorator@@SAHXZ 00000001800470e0 f i libvcruntimed:undname.obj
 0001:000460f0       ?doNoIdentCharCheck@UnDecorator@@SAHXZ 00000001800470f0 f i libvcruntimed:undname.obj
 0001:00046100       ?doPchar@DName@@AEAAXD@Z   0000000180047100 f   libvcruntimed:undname.obj
 0001:00046190       ?doPtr64@UnDecorator@@SAHXZ 0000000180047190 f i libvcruntimed:undname.obj
 0001:000461c0       ?doRestrictionSpec@UnDecorator@@SAHXZ 00000001800471c0 f i libvcruntimed:undname.obj
 0001:000461f0       ?doThisTypes@UnDecorator@@SAHXZ 00000001800471f0 f i libvcruntimed:undname.obj
 0001:00046220       ?doThrowTypes@UnDecorator@@SAHXZ 0000000180047220 f i libvcruntimed:undname.obj
 0001:00046250       ?doTypeOnly@UnDecorator@@SAHXZ 0000000180047250 f i libvcruntimed:undname.obj
 0001:00046260       ?doUnderScore@UnDecorator@@SAHXZ 0000000180047260 f i libvcruntimed:undname.obj
 0001:00046290       ?getArgumentList@UnDecorator@@CA?AVDName@@XZ 0000000180047290 f   libvcruntimed:undname.obj
 0001:00046430       ?getArgumentTypes@UnDecorator@@CA?AVDName@@XZ 0000000180047430 f   libvcruntimed:undname.obj
 0001:00046790       ?getArrayObject@UnDecorator@@CA?AVDName@@XZ 0000000180047790 f   libvcruntimed:undname.obj
 0001:000468b0       ?getArrayType@UnDecorator@@CA?AVDName@@AEBV2@@Z 00000001800478b0 f i libvcruntimed:undname.obj
 0001:00046c70       ?getBasedType@UnDecorator@@CA?AVDName@@XZ 0000000180047c70 f   libvcruntimed:undname.obj
 0001:00046de0       ?getBasicDataType@UnDecorator@@CA?AVDName@@AEBV2@@Z 0000000180047de0 f   libvcruntimed:undname.obj
 0001:00047ab0       ?getCHPEName@UnDecorator@@QEAAPEADPEADH@Z 0000000180048ab0 f i libvcruntimed:undname.obj
 0001:00047c80       ?getCallIndex@UnDecorator@@CA?AVDName@@XZ 0000000180048c80 f i libvcruntimed:undname.obj
 0001:00047ca0       ?getCallingConvention@UnDecorator@@CA?AVDName@@XZ 0000000180048ca0 f   libvcruntimed:undname.obj
 0001:00048040       ?getDataIndirectType@UnDecorator@@CA?AVDName@@AEBV2@W4IndirectionKind@@0H@Z 0000000180049040 f   libvcruntimed:undname.obj
 0001:00048ce0       ?getDataIndirectType@UnDecorator@@CA?AVDName@@XZ 0000000180049ce0 f i libvcruntimed:undname.obj
 0001:00048d30       ?getDataType@UnDecorator@@CA?AVDName@@PEAV2@@Z 0000000180049d30 f   libvcruntimed:undname.obj
 0001:00048f10       ?getDecoratedName@UnDecorator@@CA?AVDName@@XZ 0000000180049f10 f   libvcruntimed:undname.obj
 0001:00049400       ?getDimension@UnDecorator@@CA?AVDName@@_N@Z 000000018004a400 f   libvcruntimed:undname.obj
 0001:00049710       ?getDispatchTarget@UnDecorator@@CA?AVDName@@XZ 000000018004a710 f   libvcruntimed:undname.obj
 0001:000497e0       ?getDisplacement@UnDecorator@@CA?AVDName@@XZ 000000018004a7e0 f i libvcruntimed:undname.obj
 0001:00049800       ?getECSUDataType@UnDecorator@@CA?AVDName@@XZ 000000018004a800 f   libvcruntimed:undname.obj
 0001:00049b90       ?getECSUName@UnDecorator@@CA?AVDName@@XZ 000000018004ab90 f i libvcruntimed:undname.obj
 0001:00049bb0       ?getEnumType@UnDecorator@@CA?AVDName@@XZ 000000018004abb0 f i libvcruntimed:undname.obj
 0001:00049e40       ?getExtendedDataIndirectType@UnDecorator@@CA?AVDName@@AEAW4IndirectionKind@@AEA_NH@Z 000000018004ae40 f   libvcruntimed:undname.obj
 0001:0004a160       ?getExternalDataType@UnDecorator@@CA?AVDName@@AEBV2@@Z 000000018004b160 f i libvcruntimed:undname.obj
 0001:0004a240       ?getFloatingPoint@UnDecorator@@CA?AVDName@@H@Z 000000018004b240 f   libvcruntimed:undname.obj
 0001:0004a4b0       ?getFunctionIndirectType@UnDecorator@@CA?AVDName@@AEBV2@@Z 000000018004b4b0 f   libvcruntimed:undname.obj
 0001:0004aae0       ?getGuardNumber@UnDecorator@@CA?AVDName@@XZ 000000018004bae0 f i libvcruntimed:undname.obj
 0001:0004ab00       ?getLastChar@DName@@QEBADXZ 000000018004bb00 f i libvcruntimed:undname.obj
 0001:0004ab50       ?getLastChar@DNameStatusNode@@UEBADXZ 000000018004bb50 f i libvcruntimed:undname.obj
 0001:0004ab90       ?getLastChar@charNode@@UEBADXZ 000000018004bb90 f i libvcruntimed:undname.obj
 0001:0004aba0       ?getLastChar@pDNameNode@@UEBADXZ 000000018004bba0 f i libvcruntimed:undname.obj
 0001:0004abe0       ?getLastChar@pairNode@@UEBADXZ 000000018004bbe0 f i libvcruntimed:undname.obj
 0001:0004ac60       ?getLastChar@pcharNode@@UEBADXZ 000000018004bc60 f i libvcruntimed:undname.obj
 0001:0004aca0       ?getLexicalFrame@UnDecorator@@CA?AVDName@@XZ 000000018004bca0 f i libvcruntimed:undname.obj
 0001:0004acf0       ?getMemoryWithBuffer@_HeapManager@@QEAAPEAX_K@Z 000000018004bcf0 f   libvcruntimed:undname.obj
 0001:0004ae40       ?getMemoryWithoutBuffer@_HeapManager@@QEAAPEAX_K@Z 000000018004be40 f   libvcruntimed:undname.obj
 0001:0004ae90       ?getNoexcept@UnDecorator@@CA?AVDName@@XZ 000000018004be90 f   libvcruntimed:undname.obj
 0001:0004af40       ?getNumberOfDimensions@UnDecorator@@CAHXZ 000000018004bf40 f   libvcruntimed:undname.obj
 0001:0004b060       ?getOperatorName@UnDecorator@@CA?AVDName@@_NPEA_N@Z 000000018004c060 f i libvcruntimed:undname.obj
 0001:0004bf70       ?getPointerType@UnDecorator@@CA?AVDName@@AEBV2@0@Z 000000018004cf70 f i libvcruntimed:undname.obj
 0001:0004bfb0       ?getPointerTypeArray@UnDecorator@@CA?AVDName@@AEBV2@0@Z 000000018004cfb0 f i libvcruntimed:undname.obj
 0001:0004bff0       ?getPrimaryDataType@UnDecorator@@CA?AVDName@@AEBV2@@Z 000000018004cff0 f   libvcruntimed:undname.obj
 0001:0004c5e0       ?getPtrRefDataType@UnDecorator@@CA?AVDName@@AEBV2@H@Z 000000018004d5e0 f   libvcruntimed:undname.obj
 0001:0004c9d0       ?getPtrRefType@UnDecorator@@CA?AVDName@@AEBV2@0W4IndirectionKind@@@Z 000000018004d9d0 f   libvcruntimed:undname.obj
 0001:0004cc10       ?getReferenceType@UnDecorator@@CA?AVDName@@AEBV2@0W4IndirectionKind@@@Z 000000018004dc10 f i libvcruntimed:undname.obj
 0001:0004cc50       ?getRestrictionSpec@UnDecorator@@CA?AVDName@@XZ 000000018004dc50 f   libvcruntimed:undname.obj
 0001:0004cee0       ?getReturnType@UnDecorator@@CA?AVDName@@PEAV2@@Z 000000018004dee0 f   libvcruntimed:undname.obj
 0001:0004cf40       ?getScope@UnDecorator@@CA?AVDName@@XZ 000000018004df40 f   libvcruntimed:undname.obj
 0001:0004d690       ?getScopedName@UnDecorator@@CA?AVDName@@XZ 000000018004e690 f   libvcruntimed:undname.obj
 0001:0004d890       ?getSignedDimension@UnDecorator@@CA?AVDName@@XZ 000000018004e890 f   libvcruntimed:undname.obj
 0001:0004d920       ?getStorageConvention@UnDecorator@@CA?AVDName@@XZ 000000018004e920 f i libvcruntimed:undname.obj
 0001:0004d940       ?getString@DName@@QEBAPEADPEAD0@Z 000000018004e940 f i libvcruntimed:undname.obj
 0001:0004d9c0       ?getString@DName@@QEBAPEADPEADH@Z 000000018004e9c0 f i libvcruntimed:undname.obj
 0001:0004da80       ?getString@DNameStatusNode@@UEBAPEADPEAD0@Z 000000018004ea80 f i libvcruntimed:undname.obj
 0001:0004dad0       ?getString@charNode@@UEBAPEADPEAD0@Z 000000018004ead0 f i libvcruntimed:undname.obj
 0001:0004db10       ?getString@pDNameNode@@UEBAPEADPEAD0@Z 000000018004eb10 f i libvcruntimed:undname.obj
 0001:0004db70       ?getString@pairNode@@UEBAPEADPEAD0@Z 000000018004eb70 f i libvcruntimed:undname.obj
 0001:0004dc40       ?getString@pcharNode@@UEBAPEADPEAD0@Z 000000018004ec40 f i libvcruntimed:undname.obj
 0001:0004dc80       ?getStringEncoding@UnDecorator@@CA?AVDName@@W4PrefixKind@@H@Z 000000018004ec80 f   libvcruntimed:undname.obj
 0001:0004dde0       ?getStringHelper@@YAPEADPEADPEBD1H@Z 000000018004ede0 f i libvcruntimed:undname.obj
 0001:0004de50       ?getStringObject@UnDecorator@@CA?AVDName@@XZ 000000018004ee50 f   libvcruntimed:undname.obj
 0001:0004df30       ?getSymbolName@UnDecorator@@CA?AVDName@@XZ 000000018004ef30 f i libvcruntimed:undname.obj
 0001:0004dfd0       ?getTemplateArgumentList@UnDecorator@@CA?AVDName@@XZ 000000018004efd0 f   libvcruntimed:undname.obj
 0001:0004e2e0       ?getTemplateName@UnDecorator@@CA?AVDName@@_N@Z 000000018004f2e0 f   libvcruntimed:undname.obj
 0001:0004e520       ?getTemplateNonTypeArgument@UnDecorator@@CA?AVDName@@XZ 000000018004f520 f   libvcruntimed:undname.obj
 0001:0004ec10       ?getTemplateTypeArgument@UnDecorator@@CA?AVDName@@XZ 000000018004fc10 f   libvcruntimed:undname.obj
 0001:0004ee80       ?getThisType@UnDecorator@@CA?AVDName@@XZ 000000018004fe80 f i libvcruntimed:undname.obj
 0001:0004eed0       ?getThrowTypes@UnDecorator@@CA?AVDName@@XZ 000000018004fed0 f   libvcruntimed:undname.obj
 0001:0004ef20       ?getTypeEncoding@UnDecorator@@CAHXZ 000000018004ff20 f i libvcruntimed:undname.obj
 0001:0004fb50       ?getUndecoratedName@UnDecorator@@QEAAPEADPEADH@Z 0000000180050b50 f i libvcruntimed:undname.obj
 0001:0004fd40       ?getVCallThunkType@UnDecorator@@CA?AVDName@@XZ 0000000180050d40 f i libvcruntimed:undname.obj
 0001:0004fdf0       ?getValue@UnDecorator@@CA?AV?$optional@_K@std@@XZ 0000000180050df0 f   libvcruntimed:undname.obj
 0001:0004fec0       ?getValueObject@UnDecorator@@CA?AVDName@@XZ 0000000180050ec0 f   libvcruntimed:undname.obj
 0001:00050080       ?getVbTableType@UnDecorator@@CA?AVDName@@AEBV2@@Z 0000000180051080 f i libvcruntimed:undname.obj
 0001:000500b0       ?getVdispMapType@UnDecorator@@CA?AVDName@@AEBV2@@Z 00000001800510b0 f i libvcruntimed:undname.obj
 0001:00050170       ?getVfTableType@UnDecorator@@CA?AVDName@@AEBV2@@Z 0000000180051170 f i libvcruntimed:undname.obj
 0001:00050410       ?getZName@UnDecorator@@CA?AVDName@@_N0@Z 0000000180051410 f   libvcruntimed:undname.obj
 0001:000508a0       ?haveTemplateParameters@UnDecorator@@SAHXZ 00000001800518a0 f i libvcruntimed:undname.obj
 0001:000508b0       ?isArray@DName@@QEBAHXZ    00000001800518b0 f i libvcruntimed:undname.obj
 0001:000508d0       ?isComArray@DName@@QEBAHXZ 00000001800518d0 f i libvcruntimed:undname.obj
 0001:000508f0       ?isEmpty@DName@@QEBAHXZ    00000001800518f0 f i libvcruntimed:undname.obj
 0001:00050920       ?isFull@Replicator@@QEBAHXZ 0000000180051920 f i libvcruntimed:undname.obj
 0001:00050950       ?isNoTE@DName@@QEBAHXZ     0000000180051950 f i libvcruntimed:undname.obj
 0001:00050970       ?isPinPtr@DName@@QEBAHXZ   0000000180051970 f i libvcruntimed:undname.obj
 0001:00050990       ?isPtrRef@DName@@QEBAHXZ   0000000180051990 f i libvcruntimed:undname.obj
 0001:000509b0       ?isUDC@DName@@QEBAHXZ      00000001800519b0 f i libvcruntimed:undname.obj
 0001:00050a00       ?isUDTThunk@DName@@QEBAHXZ 0000000180051a00 f i libvcruntimed:undname.obj
 0001:00050a50       ?isVCallThunk@DName@@QEBAHXZ 0000000180051a50 f i libvcruntimed:undname.obj
 0001:00050a70       ?isValid@DName@@QEBAHXZ    0000000180051a70 f i libvcruntimed:undname.obj
 0001:00050ab0       ?length@DName@@QEBAHXZ     0000000180051ab0 f i libvcruntimed:undname.obj
 0001:00050b00       ?length@DNameStatusNode@@UEBAHXZ 0000000180051b00 f i libvcruntimed:undname.obj
 0001:00050b10       ?length@charNode@@UEBAHXZ  0000000180051b10 f i libvcruntimed:undname.obj
 0001:00050b20       ?length@pDNameNode@@UEBAHXZ 0000000180051b20 f i libvcruntimed:undname.obj
 0001:00050b60       ?length@pairNode@@UEBAHXZ  0000000180051b60 f i libvcruntimed:undname.obj
 0001:00050bf0       ?length@pcharNode@@UEBAHXZ 0000000180051bf0 f i libvcruntimed:undname.obj
 0001:00050c00       ?make@DNameStatusNode@@SAPEBV1@W4DNameStatus@@@Z 0000000180051c00 f i libvcruntimed:undname.obj
 0001:00050c50       ?parseDecoratedName@UnDecorator@@CA?AVDName@@XZ 0000000180051c50 f   libvcruntimed:undname.obj
 0001:00050e40       ?raw_length@DNameStatusNode@@UEBAHXZ 0000000180051e40 f i libvcruntimed:undname.obj
 0001:00050e60       ?raw_length@charNode@@UEBAHXZ 0000000180051e60 f i libvcruntimed:undname.obj
 0001:00050e80       ?raw_length@pDNameNode@@UEBAHXZ 0000000180051e80 f i libvcruntimed:undname.obj
 0001:00050e90       ?raw_length@pairNode@@UEBAHXZ 0000000180051e90 f i libvcruntimed:undname.obj
 0001:00050ea0       ?raw_length@pcharNode@@UEBAHXZ 0000000180051ea0 f i libvcruntimed:undname.obj
 0001:00050ec0       ?setIsArray@DName@@QEAAXXZ 0000000180051ec0 f i libvcruntimed:undname.obj
 0001:00050ee0       ?setIsComArray@DName@@QEAAXXZ 0000000180051ee0 f i libvcruntimed:undname.obj
 0001:00050f00       ?setIsNoTE@DName@@QEAAXXZ  0000000180051f00 f i libvcruntimed:undname.obj
 0001:00050f20       ?setIsPinPtr@DName@@QEAAXXZ 0000000180051f20 f i libvcruntimed:undname.obj
 0001:00050f40       ?setIsUDC@DName@@QEAAXXZ   0000000180051f40 f i libvcruntimed:undname.obj
 0001:00050f70       ?setIsVCallThunk@DName@@QEAAXXZ 0000000180051f70 f i libvcruntimed:undname.obj
 0001:00050f90       ?setPtrRef@DName@@QEAAAEAV1@XZ 0000000180051f90 f i libvcruntimed:undname.obj
 0001:00050fb0       ?status@DName@@QEBA?AW4DNameStatus@@XZ 0000000180051fb0 f i libvcruntimed:undname.obj
 0001:000510e0       __unDName                  00000001800520e0 f   libvcruntimed:undname.obj
 0001:00051140       __unDNameEx                0000000180052140 f   libvcruntimed:undname.obj
 0001:00051200       unDNameGenerateCHPE        0000000180052200 f   libvcruntimed:undname.obj
 0001:000512b0       ??$__crt_interlocked_exchange_pointer@UHINSTANCE__@@PEAU1@@@YAPEAUHINSTANCE__@@PEDSEAU0@QEAU0@@Z 00000001800522b0 f i libvcruntimed:winapi_downlevel.obj
 0001:000512d0       ??$__crt_interlocked_exchange_pointer@UHINSTANCE__@@PEAX@@YAPEAUHINSTANCE__@@PEDSEAU0@QEAX@Z 00000001800522d0 f i libvcruntimed:winapi_downlevel.obj
 0001:000512f0       ??$__crt_interlocked_exchange_pointer@XPEAX@@YAPEAXPEDSEAXQEAX@Z 00000001800522f0 f i libvcruntimed:winapi_downlevel.obj
 0001:00051310       ??$__crt_interlocked_read_pointer@UHINSTANCE__@@@@YAPEAUHINSTANCE__@@PEDSEAU0@@Z 0000000180052310 f i libvcruntimed:winapi_downlevel.obj
 0001:00051330       ??$__crt_interlocked_read_pointer@X@@YAPEAXPEDSEAX@Z 0000000180052330 f i libvcruntimed:winapi_downlevel.obj
 0001:00051840       __vcrt_FlsAlloc            0000000180052840 f   libvcruntimed:winapi_downlevel.obj
 0001:00051890       __vcrt_FlsFree             0000000180052890 f   libvcruntimed:winapi_downlevel.obj
 0001:000518e0       __vcrt_FlsGetValue         00000001800528e0 f   libvcruntimed:winapi_downlevel.obj
 0001:00051930       __vcrt_FlsSetValue         0000000180052930 f   libvcruntimed:winapi_downlevel.obj
 0001:00051990       __vcrt_InitializeCriticalSectionEx 0000000180052990 f   libvcruntimed:winapi_downlevel.obj
 0001:00051a10       _CallSettingFrame          0000000180052a10 f   libvcruntimed:handlers.obj
 0001:00051a60       _CallSettingFrame_LookupContinuationIndex 0000000180052a60 f   libvcruntimed:handlers.obj
 0001:00051a90       _CallSettingFrame_NotifyContinuationAddr 0000000180052a90 f   libvcruntimed:handlers.obj
 0001:00051ac0       _CallSettingFrameEncoded   0000000180052ac0 f   libvcruntimed:handlers.obj
 0001:00051b10       ??$?0AEBV?$stream_output_adapter@D@__crt_stdio_output@@AEB_KAEBQEBDAEBQEAU__crt_locale_pointers@@AEBQEAD@?$format_validation_base@DV?$stream_output_adapter@D@__crt_stdio_output@@@__crt_stdio_output@@IEAA@AEBV?$stream_output_adapter@D@1@AEB_KAEBQEBDAEBQEAU__crt_locale_pointers@@AEBQEAD@Z 0000000180052b10 f i libucrtd:output.obj
 0001:00051b60       ??$?0AEBV?$stream_output_adapter@D@__crt_stdio_output@@AEB_KAEBQEBDAEBQEAU__crt_locale_pointers@@AEBQEAD@?$positional_parameter_base@DV?$stream_output_adapter@D@__crt_stdio_output@@@__crt_stdio_output@@IEAA@AEBV?$stream_output_adapter@D@1@AEB_KAEBQEBDAEBQEAU__crt_locale_pointers@@AEBQEAD@Z 0000000180052b60 f i libucrtd:output.obj
 0001:00051c00       ??$?0AEBV?$stream_output_adapter@D@__crt_stdio_output@@AEB_KAEBQEBDAEBQEAU__crt_locale_pointers@@AEBQEAD@?$standard_base@DV?$stream_output_adapter@D@__crt_stdio_output@@@__crt_stdio_output@@IEAA@AEBV?$stream_output_adapter@D@1@AEB_KAEBQEBDAEBQEAU__crt_locale_pointers@@AEBQEAD@Z 0000000180052c00 f i libucrtd:output.obj
 0001:00051c70       ??$?0AEBV?$stream_output_adapter@_W@__crt_stdio_output@@AEB_KAEBQEB_WAEBQEAU__crt_locale_pointers@@AEBQEAD@?$format_validation_base@_WV?$stream_output_adapter@_W@__crt_stdio_output@@@__crt_stdio_output@@IEAA@AEBV?$stream_output_adapter@_W@1@AEB_KAEBQEB_WAEBQEAU__crt_locale_pointers@@AEBQEAD@Z 0000000180052c70 f i libucrtd:output.obj
 0001:00051cc0       ??$?0AEBV?$stream_output_adapter@_W@__crt_stdio_output@@AEB_KAEBQEB_WAEBQEAU__crt_locale_pointers@@AEBQEAD@?$positional_parameter_base@_WV?$stream_output_adapter@_W@__crt_stdio_output@@@__crt_stdio_output@@IEAA@AEBV?$stream_output_adapter@_W@1@AEB_KAEBQEB_WAEBQEAU__crt_locale_pointers@@AEBQEAD@Z 0000000180052cc0 f i libucrtd:output.obj
 0001:00051d60       ??$?0AEBV?$stream_output_adapter@_W@__crt_stdio_output@@AEB_KAEBQEB_WAEBQEAU__crt_locale_pointers@@AEBQEAD@?$standard_base@_WV?$stream_output_adapter@_W@__crt_stdio_output@@@__crt_stdio_output@@IEAA@AEBV?$stream_output_adapter@_W@1@AEB_KAEBQEB_WAEBQEAU__crt_locale_pointers@@AEBQEAD@Z 0000000180052d60 f i libucrtd:output.obj
 0001:00051dd0       ??$?0AEBV?$string_output_adapter@D@__crt_stdio_output@@AEB_KAEBQEBDAEBQEAU__crt_locale_pointers@@AEBQEAD@?$format_validation_base@DV?$string_output_adapter@D@__crt_stdio_output@@@__crt_stdio_output@@IEAA@AEBV?$string_output_adapter@D@1@AEB_KAEBQEBDAEBQEAU__crt_locale_pointers@@AEBQEAD@Z 0000000180052dd0 f i libucrtd:output.obj
 0001:00051e20       ??$?0AEBV?$string_output_adapter@D@__crt_stdio_output@@AEB_KAEBQEBDAEBQEAU__crt_locale_pointers@@AEBQEAD@?$positional_parameter_base@DV?$string_output_adapter@D@__crt_stdio_output@@@__crt_stdio_output@@IEAA@AEBV?$string_output_adapter@D@1@AEB_KAEBQEBDAEBQEAU__crt_locale_pointers@@AEBQEAD@Z 0000000180052e20 f i libucrtd:output.obj
 0001:00051ec0       ??$?0AEBV?$string_output_adapter@D@__crt_stdio_output@@AEB_KAEBQEBDAEBQEAU__crt_locale_pointers@@AEBQEAD@?$standard_base@DV?$string_output_adapter@D@__crt_stdio_output@@@__crt_stdio_output@@IEAA@AEBV?$string_output_adapter@D@1@AEB_KAEBQEBDAEBQEAU__crt_locale_pointers@@AEBQEAD@Z 0000000180052ec0 f i libucrtd:output.obj
 0001:00051f30       ??$?0AEBV?$string_output_adapter@_W@__crt_stdio_output@@AEB_KAEBQEB_WAEBQEAU__crt_locale_pointers@@AEBQEAD@?$format_validation_base@_WV?$string_output_adapter@_W@__crt_stdio_output@@@__crt_stdio_output@@IEAA@AEBV?$string_output_adapter@_W@1@AEB_KAEBQEB_WAEBQEAU__crt_locale_pointers@@AEBQEAD@Z 0000000180052f30 f i libucrtd:output.obj
 0001:00051f80       ??$?0AEBV?$string_output_adapter@_W@__crt_stdio_output@@AEB_KAEBQEB_WAEBQEAU__crt_locale_pointers@@AEBQEAD@?$positional_parameter_base@_WV?$string_output_adapter@_W@__crt_stdio_output@@@__crt_stdio_output@@IEAA@AEBV?$string_output_adapter@_W@1@AEB_KAEBQEB_WAEBQEAU__crt_locale_pointers@@AEBQEAD@Z 0000000180052f80 f i libucrtd:output.obj
 0001:00052020       ??$?0AEBV?$string_output_adapter@_W@__crt_stdio_output@@AEB_KAEBQEB_WAEBQEAU__crt_locale_pointers@@AEBQEAD@?$standard_base@_WV?$string_output_adapter@_W@__crt_stdio_output@@@__crt_stdio_output@@IEAA@AEBV?$string_output_adapter@_W@1@AEB_KAEBQEB_WAEBQEAU__crt_locale_pointers@@AEBQEAD@Z 0000000180053020 f i libucrtd:output.obj
 0001:00052450       ??$__crt_interlocked_read@J@@YAJPEDJ@Z 0000000180053450 f i libucrtd:output.obj
 0001:00055f30       ??$count@D@formatting_buffer@__crt_stdio_output@@QEBA_KXZ 0000000180056f30 f i libucrtd:output.obj
 0001:00055f80       ??$count@_W@formatting_buffer@__crt_stdio_output@@QEBA_KXZ 0000000180056f80 f i libucrtd:output.obj
 0001:00055fd0       ??$data@D@formatting_buffer@__crt_stdio_output@@QEAAPEADXZ 0000000180056fd0 f i libucrtd:output.obj
 0001:00056020       ??$data@_W@formatting_buffer@__crt_stdio_output@@QEAAPEA_WXZ 0000000180057020 f i libucrtd:output.obj
 0001:00056070       ??$ensure_buffer_is_big_enough@D@formatting_buffer@__crt_stdio_output@@QEAA_N_K@Z 0000000180057070 f i libucrtd:output.obj
 0001:000561a0       ??$ensure_buffer_is_big_enough@_W@formatting_buffer@__crt_stdio_output@@QEAA_N_K@Z 00000001800571a0 f i libucrtd:output.obj
 0001:000562d0       ??$extract_argument_from_va_list@C_J@?$positional_parameter_base@DV?$stream_output_adapter@D@__crt_stdio_output@@@__crt_stdio_output@@IEAA_NAEA_J@Z 00000001800572d0 f i libucrtd:output.obj
 0001:00056450       ??$extract_argument_from_va_list@C_J@?$positional_parameter_base@DV?$string_output_adapter@D@__crt_stdio_output@@@__crt_stdio_output@@IEAA_NAEA_J@Z 0000000180057450 f i libucrtd:output.obj
 0001:000565d0       ??$extract_argument_from_va_list@C_J@?$positional_parameter_base@_WV?$stream_output_adapter@_W@__crt_stdio_output@@@__crt_stdio_output@@IEAA_NAEA_J@Z 00000001800575d0 f i libucrtd:output.obj
 0001:00056750       ??$extract_argument_from_va_list@C_J@?$positional_parameter_base@_WV?$string_output_adapter@_W@__crt_stdio_output@@@__crt_stdio_output@@IEAA_NAEA_J@Z 0000000180057750 f i libucrtd:output.obj
 0001:000568d0       ??$extract_argument_from_va_list@C_J@?$standard_base@DV?$stream_output_adapter@D@__crt_stdio_output@@@__crt_stdio_output@@IEAA_NAEA_J@Z 00000001800578d0 f i libucrtd:output.obj
 0001:00056910       ??$extract_argument_from_va_list@C_J@?$standard_base@DV?$string_output_adapter@D@__crt_stdio_output@@@__crt_stdio_output@@IEAA_NAEA_J@Z 0000000180057910 f i libucrtd:output.obj
 0001:00056950       ??$extract_argument_from_va_list@C_J@?$standard_base@_WV?$stream_output_adapter@_W@__crt_stdio_output@@@__crt_stdio_output@@IEAA_NAEA_J@Z 0000000180057950 f i libucrtd:output.obj
 0001:00056990       ??$extract_argument_from_va_list@C_J@?$standard_base@_WV?$string_output_adapter@_W@__crt_stdio_output@@@__crt_stdio_output@@IEAA_NAEA_J@Z 0000000180057990 f i libucrtd:output.obj
 0001:000569d0       ??$extract_argument_from_va_list@E_J@?$positional_parameter_base@DV?$stream_output_adapter@D@__crt_stdio_output@@@__crt_stdio_output@@IEAA_NAEA_J@Z 00000001800579d0 f i libucrtd:output.obj
 0001:00056b50       ??$extract_argument_from_va_list@E_J@?$positional_parameter_base@DV?$string_output_adapter@D@__crt_stdio_output@@@__crt_stdio_output@@IEAA_NAEA_J@Z 0000000180057b50 f i libucrtd:output.obj
 0001:00056cd0       ??$extract_argument_from_va_list@E_J@?$positional_parameter_base@_WV?$stream_output_adapter@_W@__crt_stdio_output@@@__crt_stdio_output@@IEAA_NAEA_J@Z 0000000180057cd0 f i libucrtd:output.obj
 0001:00056e50       ??$extract_argument_from_va_list@E_J@?$positional_parameter_base@_WV?$string_output_adapter@_W@__crt_stdio_output@@@__crt_stdio_output@@IEAA_NAEA_J@Z 0000000180057e50 f i libucrtd:output.obj
 0001:00056fd0       ??$extract_argument_from_va_list@E_J@?$standard_base@DV?$stream_output_adapter@D@__crt_stdio_output@@@__crt_stdio_output@@IEAA_NAEA_J@Z 0000000180057fd0 f i libucrtd:output.obj
 0001:00057010       ??$extract_argument_from_va_list@E_J@?$standard_base@DV?$string_output_adapter@D@__crt_stdio_output@@@__crt_stdio_output@@IEAA_NAEA_J@Z 0000000180058010 f i libucrtd:output.obj
 0001:00057050       ??$extract_argument_from_va_list@E_J@?$standard_base@_WV?$stream_output_adapter@_W@__crt_stdio_output@@@__crt_stdio_output@@IEAA_NAEA_J@Z 0000000180058050 f i libucrtd:output.obj
 0001:00057090       ??$extract_argument_from_va_list@E_J@?$standard_base@_WV?$string_output_adapter@_W@__crt_stdio_output@@@__crt_stdio_output@@IEAA_NAEA_J@Z 0000000180058090 f i libucrtd:output.obj
 0001:000570d0       ??$extract_argument_from_va_list@F_J@?$positional_parameter_base@DV?$stream_output_adapter@D@__crt_stdio_output@@@__crt_stdio_output@@IEAA_NAEA_J@Z 00000001800580d0 f i libucrtd:output.obj
 0001:00057250       ??$extract_argument_from_va_list@F_J@?$positional_parameter_base@DV?$string_output_adapter@D@__crt_stdio_output@@@__crt_stdio_output@@IEAA_NAEA_J@Z 0000000180058250 f i libucrtd:output.obj
 0001:000573d0       ??$extract_argument_from_va_list@F_J@?$positional_parameter_base@_WV?$stream_output_adapter@_W@__crt_stdio_output@@@__crt_stdio_output@@IEAA_NAEA_J@Z 00000001800583d0 f i libucrtd:output.obj
 0001:00057550       ??$extract_argument_from_va_list@F_J@?$positional_parameter_base@_WV?$string_output_adapter@_W@__crt_stdio_output@@@__crt_stdio_output@@IEAA_NAEA_J@Z 0000000180058550 f i libucrtd:output.obj
 0001:000576d0       ??$extract_argument_from_va_list@F_J@?$standard_base@DV?$stream_output_adapter@D@__crt_stdio_output@@@__crt_stdio_output@@IEAA_NAEA_J@Z 00000001800586d0 f i libucrtd:output.obj
 0001:00057710       ??$extract_argument_from_va_list@F_J@?$standard_base@DV?$string_output_adapter@D@__crt_stdio_output@@@__crt_stdio_output@@IEAA_NAEA_J@Z 0000000180058710 f i libucrtd:output.obj
 0001:00057750       ??$extract_argument_from_va_list@F_J@?$standard_base@_WV?$stream_output_adapter@_W@__crt_stdio_output@@@__crt_stdio_output@@IEAA_NAEA_J@Z 0000000180058750 f i libucrtd:output.obj
 0001:00057790       ??$extract_argument_from_va_list@F_J@?$standard_base@_WV?$string_output_adapter@_W@__crt_stdio_output@@@__crt_stdio_output@@IEAA_NAEA_J@Z 0000000180058790 f i libucrtd:output.obj
 0001:000577d0       ??$extract_argument_from_va_list@GD@?$positional_parameter_base@DV?$stream_output_adapter@D@__crt_stdio_output@@@__crt_stdio_output@@IEAA_NAEAD@Z 00000001800587d0 f i libucrtd:output.obj
 0001:00057950       ??$extract_argument_from_va_list@GD@?$positional_parameter_base@DV?$string_output_adapter@D@__crt_stdio_output@@@__crt_stdio_output@@IEAA_NAEAD@Z 0000000180058950 f i libucrtd:output.obj
 0001:00057ad0       ??$extract_argument_from_va_list@GD@?$standard_base@DV?$stream_output_adapter@D@__crt_stdio_output@@@__crt_stdio_output@@IEAA_NAEAD@Z 0000000180058ad0 f i libucrtd:output.obj
 0001:00057b00       ??$extract_argument_from_va_list@GD@?$standard_base@DV?$string_output_adapter@D@__crt_stdio_output@@@__crt_stdio_output@@IEAA_NAEAD@Z 0000000180058b00 f i libucrtd:output.obj
 0001:00057b30       ??$extract_argument_from_va_list@G_J@?$positional_parameter_base@DV?$stream_output_adapter@D@__crt_stdio_output@@@__crt_stdio_output@@IEAA_NAEA_J@Z 0000000180058b30 f i libucrtd:output.obj
 0001:00057cb0       ??$extract_argument_from_va_list@G_J@?$positional_parameter_base@DV?$string_output_adapter@D@__crt_stdio_output@@@__crt_stdio_output@@IEAA_NAEA_J@Z 0000000180058cb0 f i libucrtd:output.obj
 0001:00057e30       ??$extract_argument_from_va_list@G_J@?$positional_parameter_base@_WV?$stream_output_adapter@_W@__crt_stdio_output@@@__crt_stdio_output@@IEAA_NAEA_J@Z 0000000180058e30 f i libucrtd:output.obj
 0001:00057fb0       ??$extract_argument_from_va_list@G_J@?$positional_parameter_base@_WV?$string_output_adapter@_W@__crt_stdio_output@@@__crt_stdio_output@@IEAA_NAEA_J@Z 0000000180058fb0 f i libucrtd:output.obj
 0001:00058130       ??$extract_argument_from_va_list@G_J@?$standard_base@DV?$stream_output_adapter@D@__crt_stdio_output@@@__crt_stdio_output@@IEAA_NAEA_J@Z 0000000180059130 f i libucrtd:output.obj
 0001:00058170       ??$extract_argument_from_va_list@G_J@?$standard_base@DV?$string_output_adapter@D@__crt_stdio_output@@@__crt_stdio_output@@IEAA_NAEA_J@Z 0000000180059170 f i libucrtd:output.obj
 0001:000581b0       ??$extract_argument_from_va_list@G_J@?$standard_base@_WV?$stream_output_adapter@_W@__crt_stdio_output@@@__crt_stdio_output@@IEAA_NAEA_J@Z 00000001800591b0 f i libucrtd:output.obj
 0001:000581f0       ??$extract_argument_from_va_list@G_J@?$standard_base@_WV?$string_output_adapter@_W@__crt_stdio_output@@@__crt_stdio_output@@IEAA_NAEA_J@Z 00000001800591f0 f i libucrtd:output.obj
 0001:00058230       ??$extract_argument_from_va_list@H_J@?$positional_parameter_base@DV?$stream_output_adapter@D@__crt_stdio_output@@@__crt_stdio_output@@IEAA_NAEA_J@Z 0000000180059230 f i libucrtd:output.obj
 0001:000583b0       ??$extract_argument_from_va_list@H_J@?$positional_parameter_base@DV?$string_output_adapter@D@__crt_stdio_output@@@__crt_stdio_output@@IEAA_NAEA_J@Z 00000001800593b0 f i libucrtd:output.obj
 0001:00058530       ??$extract_argument_from_va_list@H_J@?$positional_parameter_base@_WV?$stream_output_adapter@_W@__crt_stdio_output@@@__crt_stdio_output@@IEAA_NAEA_J@Z 0000000180059530 f i libucrtd:output.obj
 0001:000586b0       ??$extract_argument_from_va_list@H_J@?$positional_parameter_base@_WV?$string_output_adapter@_W@__crt_stdio_output@@@__crt_stdio_output@@IEAA_NAEA_J@Z 00000001800596b0 f i libucrtd:output.obj
 0001:00058830       ??$extract_argument_from_va_list@H_J@?$standard_base@DV?$stream_output_adapter@D@__crt_stdio_output@@@__crt_stdio_output@@IEAA_NAEA_J@Z 0000000180059830 f i libucrtd:output.obj
 0001:00058860       ??$extract_argument_from_va_list@H_J@?$standard_base@DV?$string_output_adapter@D@__crt_stdio_output@@@__crt_stdio_output@@IEAA_NAEA_J@Z 0000000180059860 f i libucrtd:output.obj
 0001:00058890       ??$extract_argument_from_va_list@H_J@?$standard_base@_WV?$stream_output_adapter@_W@__crt_stdio_output@@@__crt_stdio_output@@IEAA_NAEA_J@Z 0000000180059890 f i libucrtd:output.obj
 0001:000588c0       ??$extract_argument_from_va_list@H_J@?$standard_base@_WV?$string_output_adapter@_W@__crt_stdio_output@@@__crt_stdio_output@@IEAA_NAEA_J@Z 00000001800598c0 f i libucrtd:output.obj
 0001:000588f0       ??$extract_argument_from_va_list@I_J@?$positional_parameter_base@DV?$stream_output_adapter@D@__crt_stdio_output@@@__crt_stdio_output@@IEAA_NAEA_J@Z 00000001800598f0 f i libucrtd:output.obj
 0001:00058a70       ??$extract_argument_from_va_list@I_J@?$positional_parameter_base@DV?$string_output_adapter@D@__crt_stdio_output@@@__crt_stdio_output@@IEAA_NAEA_J@Z 0000000180059a70 f i libucrtd:output.obj
 0001:00058bf0       ??$extract_argument_from_va_list@I_J@?$positional_parameter_base@_WV?$stream_output_adapter@_W@__crt_stdio_output@@@__crt_stdio_output@@IEAA_NAEA_J@Z 0000000180059bf0 f i libucrtd:output.obj
 0001:00058d70       ??$extract_argument_from_va_list@I_J@?$positional_parameter_base@_WV?$string_output_adapter@_W@__crt_stdio_output@@@__crt_stdio_output@@IEAA_NAEA_J@Z 0000000180059d70 f i libucrtd:output.obj
 0001:00058ef0       ??$extract_argument_from_va_list@I_J@?$standard_base@DV?$stream_output_adapter@D@__crt_stdio_output@@@__crt_stdio_output@@IEAA_NAEA_J@Z 0000000180059ef0 f i libucrtd:output.obj
 0001:00058f20       ??$extract_argument_from_va_list@I_J@?$standard_base@DV?$string_output_adapter@D@__crt_stdio_output@@@__crt_stdio_output@@IEAA_NAEA_J@Z 0000000180059f20 f i libucrtd:output.obj
 0001:00058f50       ??$extract_argument_from_va_list@I_J@?$standard_base@_WV?$stream_output_adapter@_W@__crt_stdio_output@@@__crt_stdio_output@@IEAA_NAEA_J@Z 0000000180059f50 f i libucrtd:output.obj
 0001:00058f80       ??$extract_argument_from_va_list@I_J@?$standard_base@_WV?$string_output_adapter@_W@__crt_stdio_output@@@__crt_stdio_output@@IEAA_NAEA_J@Z 0000000180059f80 f i libucrtd:output.obj
 0001:00058fb0       ??$extract_argument_from_va_list@PEADPEAD@?$positional_parameter_base@DV?$stream_output_adapter@D@__crt_stdio_output@@@__crt_stdio_output@@IEAA_NAEAPEAD@Z 0000000180059fb0 f i libucrtd:output.obj
 0001:00059130       ??$extract_argument_from_va_list@PEADPEAD@?$positional_parameter_base@DV?$string_output_adapter@D@__crt_stdio_output@@@__crt_stdio_output@@IEAA_NAEAPEAD@Z 000000018005a130 f i libucrtd:output.obj
 0001:000592b0       ??$extract_argument_from_va_list@PEADPEAD@?$positional_parameter_base@_WV?$stream_output_adapter@_W@__crt_stdio_output@@@__crt_stdio_output@@IEAA_NAEAPEAD@Z 000000018005a2b0 f i libucrtd:output.obj
 0001:00059430       ??$extract_argument_from_va_list@PEADPEAD@?$positional_parameter_base@_WV?$string_output_adapter@_W@__crt_stdio_output@@@__crt_stdio_output@@IEAA_NAEAPEAD@Z 000000018005a430 f i libucrtd:output.obj
 0001:000595b0       ??$extract_argument_from_va_list@PEADPEAD@?$standard_base@DV?$stream_output_adapter@D@__crt_stdio_output@@@__crt_stdio_output@@IEAA_NAEAPEAD@Z 000000018005a5b0 f i libucrtd:output.obj
 0001:000595e0       ??$extract_argument_from_va_list@PEADPEAD@?$standard_base@DV?$string_output_adapter@D@__crt_stdio_output@@@__crt_stdio_output@@IEAA_NAEAPEAD@Z 000000018005a5e0 f i libucrtd:output.obj
 0001:00059610       ??$extract_argument_from_va_list@PEADPEAD@?$standard_base@_WV?$stream_output_adapter@_W@__crt_stdio_output@@@__crt_stdio_output@@IEAA_NAEAPEAD@Z 000000018005a610 f i libucrtd:output.obj
 0001:00059640       ??$extract_argument_from_va_list@PEADPEAD@?$standard_base@_WV?$string_output_adapter@_W@__crt_stdio_output@@@__crt_stdio_output@@IEAA_NAEAPEAD@Z 000000018005a640 f i libucrtd:output.obj
 0001:00059670       ??$extract_argument_from_va_list@PEAUansi_string@?1??type_case_Z@?$output_processor@DV?$stream_output_adapter@D@__crt_stdio_output@@V?$format_validation_base@DV?$stream_output_adapter@D@__crt_stdio_output@@@2@@__crt_stdio_output@@AEAA_NXZ@PEAU1?1??234@AEAA_NXZ@@?$standard_base@DV?$stream_output_adapter@D@__crt_stdio_output@@@__crt_stdio_output@@IEAA_NAEAPEAUansi_string@?1??type_case_Z@?$output_processor@DV?$stream_output_adapter@D@__crt_stdio_output@@V?$format_validation_base@DV?$stream_output_adapter@D@__crt_stdio_output@@@2@@1@AEAA_NXZ@@Z 000000018005a670 f i libucrtd:output.obj
 0001:000596a0       ??$extract_argument_from_va_list@PEAUansi_string@?1??type_case_Z@?$output_processor@DV?$stream_output_adapter@D@__crt_stdio_output@@V?$positional_parameter_base@DV?$stream_output_adapter@D@__crt_stdio_output@@@2@@__crt_stdio_output@@AEAA_NXZ@PEAU1?1??234@AEAA_NXZ@@?$positional_parameter_base@DV?$stream_output_adapter@D@__crt_stdio_output@@@__crt_stdio_output@@IEAA_NAEAPEAUansi_string@?1??type_case_Z@?$output_processor@DV?$stream_output_adapter@D@__crt_stdio_output@@V?$positional_parameter_base@DV?$stream_output_adapter@D@__crt_stdio_output@@@2@@1@AEAA_NXZ@@Z 000000018005a6a0 f i libucrtd:output.obj
 0001:00059820       ??$extract_argument_from_va_list@PEAUansi_string@?1??type_case_Z@?$output_processor@DV?$stream_output_adapter@D@__crt_stdio_output@@V?$positional_parameter_base@DV?$stream_output_adapter@D@__crt_stdio_output@@@2@@__crt_stdio_output@@AEAA_NXZ@PEAU1?1??234@AEAA_NXZ@@?$standard_base@DV?$stream_output_adapter@D@__crt_stdio_output@@@__crt_stdio_output@@IEAA_NAEAPEAUansi_string@?1??type_case_Z@?$output_processor@DV?$stream_output_adapter@D@__crt_stdio_output@@V?$positional_parameter_base@DV?$stream_output_adapter@D@__crt_stdio_output@@@2@@1@AEAA_NXZ@@Z 000000018005a820 f i libucrtd:output.obj
 0001:00059850       ??$extract_argument_from_va_list@PEAUansi_string@?1??type_case_Z@?$output_processor@DV?$stream_output_adapter@D@__crt_stdio_output@@V?$standard_base@DV?$stream_output_adapter@D@__crt_stdio_output@@@2@@__crt_stdio_output@@AEAA_NXZ@PEAU1?1??234@AEAA_NXZ@@?$standard_base@DV?$stream_output_adapter@D@__crt_stdio_output@@@__crt_stdio_output@@IEAA_NAEAPEAUansi_string@?1??type_case_Z@?$output_processor@DV?$stream_output_adapter@D@__crt_stdio_output@@V?$standard_base@DV?$stream_output_adapter@D@__crt_stdio_output@@@2@@1@AEAA_NXZ@@Z 000000018005a850 f i libucrtd:output.obj
 0001:00059880       ??$extract_argument_from_va_list@PEAUansi_string@?1??type_case_Z@?$output_processor@DV?$string_output_adapter@D@__crt_stdio_output@@V?$format_validation_base@DV?$string_output_adapter@D@__crt_stdio_output@@@2@@__crt_stdio_output@@AEAA_NXZ@PEAU1?1??234@AEAA_NXZ@@?$standard_base@DV?$string_output_adapter@D@__crt_stdio_output@@@__crt_stdio_output@@IEAA_NAEAPEAUansi_string@?1??type_case_Z@?$output_processor@DV?$string_output_adapter@D@__crt_stdio_output@@V?$format_validation_base@DV?$string_output_adapter@D@__crt_stdio_output@@@2@@1@AEAA_NXZ@@Z 000000018005a880 f i libucrtd:output.obj
 0001:000598b0       ??$extract_argument_from_va_list@PEAUansi_string@?1??type_case_Z@?$output_processor@DV?$string_output_adapter@D@__crt_stdio_output@@V?$positional_parameter_base@DV?$string_output_adapter@D@__crt_stdio_output@@@2@@__crt_stdio_output@@AEAA_NXZ@PEAU1?1??234@AEAA_NXZ@@?$positional_parameter_base@DV?$string_output_adapter@D@__crt_stdio_output@@@__crt_stdio_output@@IEAA_NAEAPEAUansi_string@?1??type_case_Z@?$output_processor@DV?$string_output_adapter@D@__crt_stdio_output@@V?$positional_parameter_base@DV?$string_output_adapter@D@__crt_stdio_output@@@2@@1@AEAA_NXZ@@Z 000000018005a8b0 f i libucrtd:output.obj
 0001:00059a30       ??$extract_argument_from_va_list@PEAUansi_string@?1??type_case_Z@?$output_processor@DV?$string_output_adapter@D@__crt_stdio_output@@V?$positional_parameter_base@DV?$string_output_adapter@D@__crt_stdio_output@@@2@@__crt_stdio_output@@AEAA_NXZ@PEAU1?1??234@AEAA_NXZ@@?$standard_base@DV?$string_output_adapter@D@__crt_stdio_output@@@__crt_stdio_output@@IEAA_NAEAPEAUansi_string@?1??type_case_Z@?$output_processor@DV?$string_output_adapter@D@__crt_stdio_output@@V?$positional_parameter_base@DV?$string_output_adapter@D@__crt_stdio_output@@@2@@1@AEAA_NXZ@@Z 000000018005aa30 f i libucrtd:output.obj
 0001:00059a60       ??$extract_argument_from_va_list@PEAUansi_string@?1??type_case_Z@?$output_processor@DV?$string_output_adapter@D@__crt_stdio_output@@V?$standard_base@DV?$string_output_adapter@D@__crt_stdio_output@@@2@@__crt_stdio_output@@AEAA_NXZ@PEAU1?1??234@AEAA_NXZ@@?$standard_base@DV?$string_output_adapter@D@__crt_stdio_output@@@__crt_stdio_output@@IEAA_NAEAPEAUansi_string@?1??type_case_Z@?$output_processor@DV?$string_output_adapter@D@__crt_stdio_output@@V?$standard_base@DV?$string_output_adapter@D@__crt_stdio_output@@@2@@1@AEAA_NXZ@@Z 000000018005aa60 f i libucrtd:output.obj
 0001:00059a90       ??$extract_argument_from_va_list@PEAUansi_string@?1??type_case_Z@?$output_processor@_WV?$stream_output_adapter@_W@__crt_stdio_output@@V?$format_validation_base@_WV?$stream_output_adapter@_W@__crt_stdio_output@@@2@@__crt_stdio_output@@AEAA_NXZ@PEAU1?1??234@AEAA_NXZ@@?$standard_base@_WV?$stream_output_adapter@_W@__crt_stdio_output@@@__crt_stdio_output@@IEAA_NAEAPEAUansi_string@?1??type_case_Z@?$output_processor@_WV?$stream_output_adapter@_W@__crt_stdio_output@@V?$format_validation_base@_WV?$stream_output_adapter@_W@__crt_stdio_output@@@2@@1@AEAA_NXZ@@Z 000000018005aa90 f i libucrtd:output.obj
 0001:00059ac0       ??$extract_argument_from_va_list@PEAUansi_string@?1??type_case_Z@?$output_processor@_WV?$stream_output_adapter@_W@__crt_stdio_output@@V?$positional_parameter_base@_WV?$stream_output_adapter@_W@__crt_stdio_output@@@2@@__crt_stdio_output@@AEAA_NXZ@PEAU1?1??234@AEAA_NXZ@@?$positional_parameter_base@_WV?$stream_output_adapter@_W@__crt_stdio_output@@@__crt_stdio_output@@IEAA_NAEAPEAUansi_string@?1??type_case_Z@?$output_processor@_WV?$stream_output_adapter@_W@__crt_stdio_output@@V?$positional_parameter_base@_WV?$stream_output_adapter@_W@__crt_stdio_output@@@2@@1@AEAA_NXZ@@Z 000000018005aac0 f i libucrtd:output.obj
 0001:00059c40       ??$extract_argument_from_va_list@PEAUansi_string@?1??type_case_Z@?$output_processor@_WV?$stream_output_adapter@_W@__crt_stdio_output@@V?$positional_parameter_base@_WV?$stream_output_adapter@_W@__crt_stdio_output@@@2@@__crt_stdio_output@@AEAA_NXZ@PEAU1?1??234@AEAA_NXZ@@?$standard_base@_WV?$stream_output_adapter@_W@__crt_stdio_output@@@__crt_stdio_output@@IEAA_NAEAPEAUansi_string@?1??type_case_Z@?$output_processor@_WV?$stream_output_adapter@_W@__crt_stdio_output@@V?$positional_parameter_base@_WV?$stream_output_adapter@_W@__crt_stdio_output@@@2@@1@AEAA_NXZ@@Z 000000018005ac40 f i libucrtd:output.obj
 0001:00059c70       ??$extract_argument_from_va_list@PEAUansi_string@?1??type_case_Z@?$output_processor@_WV?$stream_output_adapter@_W@__crt_stdio_output@@V?$standard_base@_WV?$stream_output_adapter@_W@__crt_stdio_output@@@2@@__crt_stdio_output@@AEAA_NXZ@PEAU1?1??234@AEAA_NXZ@@?$standard_base@_WV?$stream_output_adapter@_W@__crt_stdio_output@@@__crt_stdio_output@@IEAA_NAEAPEAUansi_string@?1??type_case_Z@?$output_processor@_WV?$stream_output_adapter@_W@__crt_stdio_output@@V?$standard_base@_WV?$stream_output_adapter@_W@__crt_stdio_output@@@2@@1@AEAA_NXZ@@Z 000000018005ac70 f i libucrtd:output.obj
 0001:00059ca0       ??$extract_argument_from_va_list@PEAUansi_string@?1??type_case_Z@?$output_processor@_WV?$string_output_adapter@_W@__crt_stdio_output@@V?$format_validation_base@_WV?$string_output_adapter@_W@__crt_stdio_output@@@2@@__crt_stdio_output@@AEAA_NXZ@PEAU1?1??234@AEAA_NXZ@@?$standard_base@_WV?$string_output_adapter@_W@__crt_stdio_output@@@__crt_stdio_output@@IEAA_NAEAPEAUansi_string@?1??type_case_Z@?$output_processor@_WV?$string_output_adapter@_W@__crt_stdio_output@@V?$format_validation_base@_WV?$string_output_adapter@_W@__crt_stdio_output@@@2@@1@AEAA_NXZ@@Z 000000018005aca0 f i libucrtd:output.obj
 0001:00059cd0       ??$extract_argument_from_va_list@PEAUansi_string@?1??type_case_Z@?$output_processor@_WV?$string_output_adapter@_W@__crt_stdio_output@@V?$positional_parameter_base@_WV?$string_output_adapter@_W@__crt_stdio_output@@@2@@__crt_stdio_output@@AEAA_NXZ@PEAU1?1??234@AEAA_NXZ@@?$positional_parameter_base@_WV?$string_output_adapter@_W@__crt_stdio_output@@@__crt_stdio_output@@IEAA_NAEAPEAUansi_string@?1??type_case_Z@?$output_processor@_WV?$string_output_adapter@_W@__crt_stdio_output@@V?$positional_parameter_base@_WV?$string_output_adapter@_W@__crt_stdio_output@@@2@@1@AEAA_NXZ@@Z 000000018005acd0 f i libucrtd:output.obj
 0001:00059e50       ??$extract_argument_from_va_list@PEAUansi_string@?1??type_case_Z@?$output_processor@_WV?$string_output_adapter@_W@__crt_stdio_output@@V?$positional_parameter_base@_WV?$string_output_adapter@_W@__crt_stdio_output@@@2@@__crt_stdio_output@@AEAA_NXZ@PEAU1?1??234@AEAA_NXZ@@?$standard_base@_WV?$string_output_adapter@_W@__crt_stdio_output@@@__crt_stdio_output@@IEAA_NAEAPEAUansi_string@?1??type_case_Z@?$output_processor@_WV?$string_output_adapter@_W@__crt_stdio_output@@V?$positional_parameter_base@_WV?$string_output_adapter@_W@__crt_stdio_output@@@2@@1@AEAA_NXZ@@Z 000000018005ae50 f i libucrtd:output.obj
 0001:00059e80       ??$extract_argument_from_va_list@PEAUansi_string@?1??type_case_Z@?$output_processor@_WV?$string_output_adapter@_W@__crt_stdio_output@@V?$standard_base@_WV?$string_output_adapter@_W@__crt_stdio_output@@@2@@__crt_stdio_output@@AEAA_NXZ@PEAU1?1??234@AEAA_NXZ@@?$standard_base@_WV?$string_output_adapter@_W@__crt_stdio_output@@@__crt_stdio_output@@IEAA_NAEAPEAUansi_string@?1??type_case_Z@?$output_processor@_WV?$string_output_adapter@_W@__crt_stdio_output@@V?$standard_base@_WV?$string_output_adapter@_W@__crt_stdio_output@@@2@@1@AEAA_NXZ@@Z 000000018005ae80 f i libucrtd:output.obj
 0001:00059eb0       ??$extract_argument_from_va_list@PEAXPEAX@?$positional_parameter_base@DV?$stream_output_adapter@D@__crt_stdio_output@@@__crt_stdio_output@@IEAA_NAEAPEAX@Z 000000018005aeb0 f i libucrtd:output.obj
 0001:0005a030       ??$extract_argument_from_va_list@PEAXPEAX@?$positional_parameter_base@DV?$string_output_adapter@D@__crt_stdio_output@@@__crt_stdio_output@@IEAA_NAEAPEAX@Z 000000018005b030 f i libucrtd:output.obj
 0001:0005a1b0       ??$extract_argument_from_va_list@PEAXPEAX@?$positional_parameter_base@_WV?$stream_output_adapter@_W@__crt_stdio_output@@@__crt_stdio_output@@IEAA_NAEAPEAX@Z 000000018005b1b0 f i libucrtd:output.obj
 0001:0005a330       ??$extract_argument_from_va_list@PEAXPEAX@?$positional_parameter_base@_WV?$string_output_adapter@_W@__crt_stdio_output@@@__crt_stdio_output@@IEAA_NAEAPEAX@Z 000000018005b330 f i libucrtd:output.obj
 0001:0005a4b0       ??$extract_argument_from_va_list@PEAXPEAX@?$standard_base@DV?$stream_output_adapter@D@__crt_stdio_output@@@__crt_stdio_output@@IEAA_NAEAPEAX@Z 000000018005b4b0 f i libucrtd:output.obj
 0001:0005a4e0       ??$extract_argument_from_va_list@PEAXPEAX@?$standard_base@DV?$string_output_adapter@D@__crt_stdio_output@@@__crt_stdio_output@@IEAA_NAEAPEAX@Z 000000018005b4e0 f i libucrtd:output.obj
 0001:0005a510       ??$extract_argument_from_va_list@PEAXPEAX@?$standard_base@_WV?$stream_output_adapter@_W@__crt_stdio_output@@@__crt_stdio_output@@IEAA_NAEAPEAX@Z 000000018005b510 f i libucrtd:output.obj
 0001:0005a540       ??$extract_argument_from_va_list@PEAXPEAX@?$standard_base@_WV?$string_output_adapter@_W@__crt_stdio_output@@@__crt_stdio_output@@IEAA_NAEAPEAX@Z 000000018005b540 f i libucrtd:output.obj
 0001:0005a570       ??$extract_argument_from_va_list@U_CRT_DOUBLE@@U1@@?$positional_parameter_base@DV?$stream_output_adapter@D@__crt_stdio_output@@@__crt_stdio_output@@IEAA_NAEAU_CRT_DOUBLE@@@Z 000000018005b570 f i libucrtd:output.obj
 0001:0005a710       ??$extract_argument_from_va_list@U_CRT_DOUBLE@@U1@@?$positional_parameter_base@DV?$string_output_adapter@D@__crt_stdio_output@@@__crt_stdio_output@@IEAA_NAEAU_CRT_DOUBLE@@@Z 000000018005b710 f i libucrtd:output.obj
 0001:0005a8b0       ??$extract_argument_from_va_list@U_CRT_DOUBLE@@U1@@?$positional_parameter_base@_WV?$stream_output_adapter@_W@__crt_stdio_output@@@__crt_stdio_output@@IEAA_NAEAU_CRT_DOUBLE@@@Z 000000018005b8b0 f i libucrtd:output.obj
 0001:0005aa50       ??$extract_argument_from_va_list@U_CRT_DOUBLE@@U1@@?$positional_parameter_base@_WV?$string_output_adapter@_W@__crt_stdio_output@@@__crt_stdio_output@@IEAA_NAEAU_CRT_DOUBLE@@@Z 000000018005ba50 f i libucrtd:output.obj
 0001:0005abf0       ??$extract_argument_from_va_list@U_CRT_DOUBLE@@U1@@?$standard_base@DV?$stream_output_adapter@D@__crt_stdio_output@@@__crt_stdio_output@@IEAA_NAEAU_CRT_DOUBLE@@@Z 000000018005bbf0 f i libucrtd:output.obj
 0001:0005ac40       ??$extract_argument_from_va_list@U_CRT_DOUBLE@@U1@@?$standard_base@DV?$string_output_adapter@D@__crt_stdio_output@@@__crt_stdio_output@@IEAA_NAEAU_CRT_DOUBLE@@@Z 000000018005bc40 f i libucrtd:output.obj
 0001:0005ac90       ??$extract_argument_from_va_list@U_CRT_DOUBLE@@U1@@?$standard_base@_WV?$stream_output_adapter@_W@__crt_stdio_output@@@__crt_stdio_output@@IEAA_NAEAU_CRT_DOUBLE@@@Z 000000018005bc90 f i libucrtd:output.obj
 0001:0005ace0       ??$extract_argument_from_va_list@U_CRT_DOUBLE@@U1@@?$standard_base@_WV?$string_output_adapter@_W@__crt_stdio_output@@@__crt_stdio_output@@IEAA_NAEAU_CRT_DOUBLE@@@Z 000000018005bce0 f i libucrtd:output.obj
 0001:0005ad30       ??$extract_argument_from_va_list@_J_J@?$positional_parameter_base@DV?$stream_output_adapter@D@__crt_stdio_output@@@__crt_stdio_output@@IEAA_NAEA_J@Z 000000018005bd30 f i libucrtd:output.obj
 0001:0005aeb0       ??$extract_argument_from_va_list@_J_J@?$positional_parameter_base@DV?$string_output_adapter@D@__crt_stdio_output@@@__crt_stdio_output@@IEAA_NAEA_J@Z 000000018005beb0 f i libucrtd:output.obj
 0001:0005b030       ??$extract_argument_from_va_list@_J_J@?$positional_parameter_base@_WV?$stream_output_adapter@_W@__crt_stdio_output@@@__crt_stdio_output@@IEAA_NAEA_J@Z 000000018005c030 f i libucrtd:output.obj
 0001:0005b1b0       ??$extract_argument_from_va_list@_J_J@?$positional_parameter_base@_WV?$string_output_adapter@_W@__crt_stdio_output@@@__crt_stdio_output@@IEAA_NAEA_J@Z 000000018005c1b0 f i libucrtd:output.obj
 0001:0005b330       ??$extract_argument_from_va_list@_J_J@?$standard_base@DV?$stream_output_adapter@D@__crt_stdio_output@@@__crt_stdio_output@@IEAA_NAEA_J@Z 000000018005c330 f i libucrtd:output.obj
 0001:0005b360       ??$extract_argument_from_va_list@_J_J@?$standard_base@DV?$string_output_adapter@D@__crt_stdio_output@@@__crt_stdio_output@@IEAA_NAEA_J@Z 000000018005c360 f i libucrtd:output.obj
 0001:0005b390       ??$extract_argument_from_va_list@_J_J@?$standard_base@_WV?$stream_output_adapter@_W@__crt_stdio_output@@@__crt_stdio_output@@IEAA_NAEA_J@Z 000000018005c390 f i libucrtd:output.obj
 0001:0005b3c0       ??$extract_argument_from_va_list@_J_J@?$standard_base@_WV?$string_output_adapter@_W@__crt_stdio_output@@@__crt_stdio_output@@IEAA_NAEA_J@Z 000000018005c3c0 f i libucrtd:output.obj
 0001:0005b3f0       ??$extract_argument_from_va_list@_K_J@?$positional_parameter_base@DV?$stream_output_adapter@D@__crt_stdio_output@@@__crt_stdio_output@@IEAA_NAEA_J@Z 000000018005c3f0 f i libucrtd:output.obj
 0001:0005b570       ??$extract_argument_from_va_list@_K_J@?$positional_parameter_base@DV?$string_output_adapter@D@__crt_stdio_output@@@__crt_stdio_output@@IEAA_NAEA_J@Z 000000018005c570 f i libucrtd:output.obj
 0001:0005b6f0       ??$extract_argument_from_va_list@_K_J@?$positional_parameter_base@_WV?$stream_output_adapter@_W@__crt_stdio_output@@@__crt_stdio_output@@IEAA_NAEA_J@Z 000000018005c6f0 f i libucrtd:output.obj
 0001:0005b870       ??$extract_argument_from_va_list@_K_J@?$positional_parameter_base@_WV?$string_output_adapter@_W@__crt_stdio_output@@@__crt_stdio_output@@IEAA_NAEA_J@Z 000000018005c870 f i libucrtd:output.obj
 0001:0005b9f0       ??$extract_argument_from_va_list@_K_J@?$standard_base@DV?$stream_output_adapter@D@__crt_stdio_output@@@__crt_stdio_output@@IEAA_NAEA_J@Z 000000018005c9f0 f i libucrtd:output.obj
 0001:0005ba20       ??$extract_argument_from_va_list@_K_J@?$standard_base@DV?$string_output_adapter@D@__crt_stdio_output@@@__crt_stdio_output@@IEAA_NAEA_J@Z 000000018005ca20 f i libucrtd:output.obj
 0001:0005ba50       ??$extract_argument_from_va_list@_K_J@?$standard_base@_WV?$stream_output_adapter@_W@__crt_stdio_output@@@__crt_stdio_output@@IEAA_NAEA_J@Z 000000018005ca50 f i libucrtd:output.obj
 0001:0005ba80       ??$extract_argument_from_va_list@_K_J@?$standard_base@_WV?$string_output_adapter@_W@__crt_stdio_output@@@__crt_stdio_output@@IEAA_NAEA_J@Z 000000018005ca80 f i libucrtd:output.obj
 0001:0005bab0       ??$extract_argument_from_va_list@_W_W@?$positional_parameter_base@DV?$stream_output_adapter@D@__crt_stdio_output@@@__crt_stdio_output@@IEAA_NAEA_W@Z 000000018005cab0 f i libucrtd:output.obj
 0001:0005bc30       ??$extract_argument_from_va_list@_W_W@?$positional_parameter_base@DV?$string_output_adapter@D@__crt_stdio_output@@@__crt_stdio_output@@IEAA_NAEA_W@Z 000000018005cc30 f i libucrtd:output.obj
 0001:0005bdb0       ??$extract_argument_from_va_list@_W_W@?$positional_parameter_base@_WV?$stream_output_adapter@_W@__crt_stdio_output@@@__crt_stdio_output@@IEAA_NAEA_W@Z 000000018005cdb0 f i libucrtd:output.obj
 0001:0005bf30       ??$extract_argument_from_va_list@_W_W@?$positional_parameter_base@_WV?$string_output_adapter@_W@__crt_stdio_output@@@__crt_stdio_output@@IEAA_NAEA_W@Z 000000018005cf30 f i libucrtd:output.obj
 0001:0005c0b0       ??$extract_argument_from_va_list@_W_W@?$standard_base@DV?$stream_output_adapter@D@__crt_stdio_output@@@__crt_stdio_output@@IEAA_NAEA_W@Z 000000018005d0b0 f i libucrtd:output.obj
 0001:0005c0e0       ??$extract_argument_from_va_list@_W_W@?$standard_base@DV?$string_output_adapter@D@__crt_stdio_output@@@__crt_stdio_output@@IEAA_NAEA_W@Z 000000018005d0e0 f i libucrtd:output.obj
 0001:0005c110       ??$extract_argument_from_va_list@_W_W@?$standard_base@_WV?$stream_output_adapter@_W@__crt_stdio_output@@@__crt_stdio_output@@IEAA_NAEA_W@Z 000000018005d110 f i libucrtd:output.obj
 0001:0005c140       ??$extract_argument_from_va_list@_W_W@?$standard_base@_WV?$string_output_adapter@_W@__crt_stdio_output@@@__crt_stdio_output@@IEAA_NAEA_W@Z 000000018005d140 f i libucrtd:output.obj
 0001:0005c170       ??$get_parameter_type@D@?$positional_parameter_base@DV?$stream_output_adapter@D@__crt_stdio_output@@@__crt_stdio_output@@CA?AW4parameter_type@01@PEAD@Z 000000018005d170 f i libucrtd:output.obj
 0001:0005c180       ??$get_parameter_type@D@?$positional_parameter_base@DV?$string_output_adapter@D@__crt_stdio_output@@@__crt_stdio_output@@CA?AW4parameter_type@01@PEAD@Z 000000018005d180 f i libucrtd:output.obj
 0001:0005c190       ??$get_parameter_type@D@?$positional_parameter_base@_WV?$stream_output_adapter@_W@__crt_stdio_output@@@__crt_stdio_output@@CA?AW4parameter_type@01@PEAD@Z 000000018005d190 f i libucrtd:output.obj
 0001:0005c1a0       ??$get_parameter_type@D@?$positional_parameter_base@_WV?$string_output_adapter@_W@__crt_stdio_output@@@__crt_stdio_output@@CA?AW4parameter_type@01@PEAD@Z 000000018005d1a0 f i libucrtd:output.obj
 0001:0005c1b0       ??$get_parameter_type@Uansi_string@?1??type_case_Z@?$output_processor@DV?$stream_output_adapter@D@__crt_stdio_output@@V?$positional_parameter_base@DV?$stream_output_adapter@D@__crt_stdio_output@@@2@@__crt_stdio_output@@AEAA_NXZ@@?$positional_parameter_base@DV?$stream_output_adapter@D@__crt_stdio_output@@@__crt_stdio_output@@CA?AW4parameter_type@01@PEAUansi_string@?1??type_case_Z@?$output_processor@DV?$stream_output_adapter@D@__crt_stdio_output@@V?$positional_parameter_base@DV?$stream_output_adapter@D@__crt_stdio_output@@@2@@1@AEAA_NXZ@@Z 000000018005d1b0 f i libucrtd:output.obj
 0001:0005c1c0       ??$get_parameter_type@Uansi_string@?1??type_case_Z@?$output_processor@DV?$string_output_adapter@D@__crt_stdio_output@@V?$positional_parameter_base@DV?$string_output_adapter@D@__crt_stdio_output@@@2@@__crt_stdio_output@@AEAA_NXZ@@?$positional_parameter_base@DV?$string_output_adapter@D@__crt_stdio_output@@@__crt_stdio_output@@CA?AW4parameter_type@01@PEAUansi_string@?1??type_case_Z@?$output_processor@DV?$string_output_adapter@D@__crt_stdio_output@@V?$positional_parameter_base@DV?$string_output_adapter@D@__crt_stdio_output@@@2@@1@AEAA_NXZ@@Z 000000018005d1c0 f i libucrtd:output.obj
 0001:0005c1d0       ??$get_parameter_type@Uansi_string@?1??type_case_Z@?$output_processor@_WV?$stream_output_adapter@_W@__crt_stdio_output@@V?$positional_parameter_base@_WV?$stream_output_adapter@_W@__crt_stdio_output@@@2@@__crt_stdio_output@@AEAA_NXZ@@?$positional_parameter_base@_WV?$stream_output_adapter@_W@__crt_stdio_output@@@__crt_stdio_output@@CA?AW4parameter_type@01@PEAUansi_string@?1??type_case_Z@?$output_processor@_WV?$stream_output_adapter@_W@__crt_stdio_output@@V?$positional_parameter_base@_WV?$stream_output_adapter@_W@__crt_stdio_output@@@2@@1@AEAA_NXZ@@Z 000000018005d1d0 f i libucrtd:output.obj
 0001:0005c1e0       ??$get_parameter_type@Uansi_string@?1??type_case_Z@?$output_processor@_WV?$string_output_adapter@_W@__crt_stdio_output@@V?$positional_parameter_base@_WV?$string_output_adapter@_W@__crt_stdio_output@@@2@@__crt_stdio_output@@AEAA_NXZ@@?$positional_parameter_base@_WV?$string_output_adapter@_W@__crt_stdio_output@@@__crt_stdio_output@@CA?AW4parameter_type@01@PEAUansi_string@?1??type_case_Z@?$output_processor@_WV?$string_output_adapter@_W@__crt_stdio_output@@V?$positional_parameter_base@_WV?$string_output_adapter@_W@__crt_stdio_output@@@2@@1@AEAA_NXZ@@Z 000000018005d1e0 f i libucrtd:output.obj
 0001:0005c1f0       ??$get_parameter_type@X@?$positional_parameter_base@DV?$stream_output_adapter@D@__crt_stdio_output@@@__crt_stdio_output@@CA?AW4parameter_type@01@PEAX@Z 000000018005d1f0 f i libucrtd:output.obj
 0001:0005c200       ??$get_parameter_type@X@?$positional_parameter_base@DV?$string_output_adapter@D@__crt_stdio_output@@@__crt_stdio_output@@CA?AW4parameter_type@01@PEAX@Z 000000018005d200 f i libucrtd:output.obj
 0001:0005c210       ??$get_parameter_type@X@?$positional_parameter_base@_WV?$stream_output_adapter@_W@__crt_stdio_output@@@__crt_stdio_output@@CA?AW4parameter_type@01@PEAX@Z 000000018005d210 f i libucrtd:output.obj
 0001:0005c220       ??$get_parameter_type@X@?$positional_parameter_base@_WV?$string_output_adapter@_W@__crt_stdio_output@@@__crt_stdio_output@@CA?AW4parameter_type@01@PEAX@Z 000000018005d220 f i libucrtd:output.obj
 0001:0005c230       ??$is_character_specifier@D@?$positional_parameter_base@DV?$stream_output_adapter@D@__crt_stdio_output@@@__crt_stdio_output@@CA_ND@Z 000000018005d230 f i libucrtd:output.obj
 0001:0005c270       ??$is_character_specifier@D@?$positional_parameter_base@DV?$string_output_adapter@D@__crt_stdio_output@@@__crt_stdio_output@@CA_ND@Z 000000018005d270 f i libucrtd:output.obj
 0001:0005c2b0       ??$is_character_specifier@_W@?$positional_parameter_base@_WV?$stream_output_adapter@_W@__crt_stdio_output@@@__crt_stdio_output@@CA_N_W@Z 000000018005d2b0 f i libucrtd:output.obj
 0001:0005c2f0       ??$is_character_specifier@_W@?$positional_parameter_base@_WV?$string_output_adapter@_W@__crt_stdio_output@@@__crt_stdio_output@@CA_N_W@Z 000000018005d2f0 f i libucrtd:output.obj
 0001:0005c330       ??$is_integral_specifier@D@?$positional_parameter_base@DV?$stream_output_adapter@D@__crt_stdio_output@@@__crt_stdio_output@@CA_ND@Z 000000018005d330 f i libucrtd:output.obj
 0001:0005c3a0       ??$is_integral_specifier@D@?$positional_parameter_base@DV?$string_output_adapter@D@__crt_stdio_output@@@__crt_stdio_output@@CA_ND@Z 000000018005d3a0 f i libucrtd:output.obj
 0001:0005c410       ??$is_integral_specifier@_W@?$positional_parameter_base@_WV?$stream_output_adapter@_W@__crt_stdio_output@@@__crt_stdio_output@@CA_N_W@Z 000000018005d410 f i libucrtd:output.obj
 0001:0005c480       ??$is_integral_specifier@_W@?$positional_parameter_base@_WV?$string_output_adapter@_W@__crt_stdio_output@@@__crt_stdio_output@@CA_N_W@Z 000000018005d480 f i libucrtd:output.obj
 0001:0005c4f0       ??$is_pointer_specifier@D@?$positional_parameter_base@DV?$stream_output_adapter@D@__crt_stdio_output@@@__crt_stdio_output@@CA_ND@Z 000000018005d4f0 f i libucrtd:output.obj
 0001:0005c520       ??$is_pointer_specifier@D@?$positional_parameter_base@DV?$string_output_adapter@D@__crt_stdio_output@@@__crt_stdio_output@@CA_ND@Z 000000018005d520 f i libucrtd:output.obj
 0001:0005c550       ??$is_pointer_specifier@_W@?$positional_parameter_base@_WV?$stream_output_adapter@_W@__crt_stdio_output@@@__crt_stdio_output@@CA_N_W@Z 000000018005d550 f i libucrtd:output.obj
 0001:0005c580       ??$is_pointer_specifier@_W@?$positional_parameter_base@_WV?$string_output_adapter@_W@__crt_stdio_output@@@__crt_stdio_output@@CA_N_W@Z 000000018005d580 f i libucrtd:output.obj
 0001:0005c5b0       ??$is_string_specifier@D@?$positional_parameter_base@DV?$stream_output_adapter@D@__crt_stdio_output@@@__crt_stdio_output@@CA_ND@Z 000000018005d5b0 f i libucrtd:output.obj
 0001:0005c5f0       ??$is_string_specifier@D@?$positional_parameter_base@DV?$string_output_adapter@D@__crt_stdio_output@@@__crt_stdio_output@@CA_ND@Z 000000018005d5f0 f i libucrtd:output.obj
 0001:0005c630       ??$is_string_specifier@_W@?$positional_parameter_base@_WV?$stream_output_adapter@_W@__crt_stdio_output@@@__crt_stdio_output@@CA_N_W@Z 000000018005d630 f i libucrtd:output.obj
 0001:0005c670       ??$is_string_specifier@_W@?$positional_parameter_base@_WV?$string_output_adapter@_W@__crt_stdio_output@@@__crt_stdio_output@@CA_N_W@Z 000000018005d670 f i libucrtd:output.obj
 0001:0005c6b0       ??$is_wide_character_specifier@D@__crt_stdio_output@@YA_N_KDW4length_modifier@0@@Z 000000018005d6b0 f i libucrtd:output.obj
 0001:0005c750       ??$is_wide_character_specifier@_W@__crt_stdio_output@@YA_N_K_WW4length_modifier@0@@Z 000000018005d750 f i libucrtd:output.obj
 0001:0005c820       ??$peek_va_arg@C@__crt_stdio_output@@YACPEAD@Z 000000018005d820 f i libucrtd:output.obj
 0001:0005c880       ??$peek_va_arg@E@__crt_stdio_output@@YAEPEAD@Z 000000018005d880 f i libucrtd:output.obj
 0001:0005c8e0       ??$peek_va_arg@F@__crt_stdio_output@@YAFPEAD@Z 000000018005d8e0 f i libucrtd:output.obj
 0001:0005c940       ??$peek_va_arg@G@__crt_stdio_output@@YAGPEAD@Z 000000018005d940 f i libucrtd:output.obj
 0001:0005c9a0       ??$peek_va_arg@H@__crt_stdio_output@@YAHPEAD@Z 000000018005d9a0 f i libucrtd:output.obj
 0001:0005c9f0       ??$peek_va_arg@I@__crt_stdio_output@@YAIPEAD@Z 000000018005d9f0 f i libucrtd:output.obj
 0001:0005ca40       ??$peek_va_arg@PEAD@__crt_stdio_output@@YAPEADPEAD@Z 000000018005da40 f i libucrtd:output.obj
 0001:0005caa0       ??$peek_va_arg@PEAUansi_string@?1??type_case_Z@?$output_processor@DV?$stream_output_adapter@D@__crt_stdio_output@@V?$positional_parameter_base@DV?$stream_output_adapter@D@__crt_stdio_output@@@2@@__crt_stdio_output@@AEAA_NXZ@@__crt_stdio_output@@YAPEAUansi_string@?1??type_case_Z@?$output_processor@DV?$stream_output_adapter@D@__crt_stdio_output@@V?$positional_parameter_base@DV?$stream_output_adapter@D@__crt_stdio_output@@@2@@0@AEAA_NXZ@PEAD@Z 000000018005daa0 f i libucrtd:output.obj
 0001:0005cb00       ??$peek_va_arg@PEAUansi_string@?1??type_case_Z@?$output_processor@DV?$string_output_adapter@D@__crt_stdio_output@@V?$positional_parameter_base@DV?$string_output_adapter@D@__crt_stdio_output@@@2@@__crt_stdio_output@@AEAA_NXZ@@__crt_stdio_output@@YAPEAUansi_string@?1??type_case_Z@?$output_processor@DV?$string_output_adapter@D@__crt_stdio_output@@V?$positional_parameter_base@DV?$string_output_adapter@D@__crt_stdio_output@@@2@@0@AEAA_NXZ@PEAD@Z 000000018005db00 f i libucrtd:output.obj
 0001:0005cb60       ??$peek_va_arg@PEAUansi_string@?1??type_case_Z@?$output_processor@_WV?$stream_output_adapter@_W@__crt_stdio_output@@V?$positional_parameter_base@_WV?$stream_output_adapter@_W@__crt_stdio_output@@@2@@__crt_stdio_output@@AEAA_NXZ@@__crt_stdio_output@@YAPEAUansi_string@?1??type_case_Z@?$output_processor@_WV?$stream_output_adapter@_W@__crt_stdio_output@@V?$positional_parameter_base@_WV?$stream_output_adapter@_W@__crt_stdio_output@@@2@@0@AEAA_NXZ@PEAD@Z 000000018005db60 f i libucrtd:output.obj
 0001:0005cbc0       ??$peek_va_arg@PEAUansi_string@?1??type_case_Z@?$output_processor@_WV?$string_output_adapter@_W@__crt_stdio_output@@V?$positional_parameter_base@_WV?$string_output_adapter@_W@__crt_stdio_output@@@2@@__crt_stdio_output@@AEAA_NXZ@@__crt_stdio_output@@YAPEAUansi_string@?1??type_case_Z@?$output_processor@_WV?$string_output_adapter@_W@__crt_stdio_output@@V?$positional_parameter_base@_WV?$string_output_adapter@_W@__crt_stdio_output@@@2@@0@AEAA_NXZ@PEAD@Z 000000018005dbc0 f i libucrtd:output.obj
 0001:0005cc20       ??$peek_va_arg@PEAX@__crt_stdio_output@@YAPEAXPEAD@Z 000000018005dc20 f i libucrtd:output.obj
 0001:0005cc80       ??$peek_va_arg@U_CRT_DOUBLE@@@__crt_stdio_output@@YA?AU_CRT_DOUBLE@@PEAD@Z 000000018005dc80 f i libucrtd:output.obj
 0001:0005cce0       ??$peek_va_arg@_J@__crt_stdio_output@@YA_JPEAD@Z 000000018005dce0 f i libucrtd:output.obj
 0001:0005cd40       ??$peek_va_arg@_K@__crt_stdio_output@@YA_KPEAD@Z 000000018005dd40 f i libucrtd:output.obj
 0001:0005cda0       ??$peek_va_arg@_W@__crt_stdio_output@@YA_WPEAD@Z 000000018005dda0 f i libucrtd:output.obj
 0001:0005ce00       ??$puttc_nolock@AEBDPEAU_iobuf@@@?$__crt_char_traits@D@@SAHAEBD$$QEAPEAU_iobuf@@@Z 000000018005de00 f i libucrtd:output.obj
 0001:0005ce30       ??$puttc_nolock@AEB_WPEAU_iobuf@@@?$__crt_char_traits@_W@@SAGAEB_W$$QEAPEAU_iobuf@@@Z 000000018005de30 f i libucrtd:output.obj
 0001:0005ce60       ??$read_va_arg@C@__crt_stdio_output@@YACAEAPEAD@Z 000000018005de60 f i libucrtd:output.obj
 0001:0005ced0       ??$read_va_arg@E@__crt_stdio_output@@YAEAEAPEAD@Z 000000018005ded0 f i libucrtd:output.obj
 0001:0005cf40       ??$read_va_arg@F@__crt_stdio_output@@YAFAEAPEAD@Z 000000018005df40 f i libucrtd:output.obj
 0001:0005cfb0       ??$read_va_arg@G@__crt_stdio_output@@YAGAEAPEAD@Z 000000018005dfb0 f i libucrtd:output.obj
 0001:0005d020       ??$read_va_arg@H@__crt_stdio_output@@YAHAEAPEAD@Z 000000018005e020 f i libucrtd:output.obj
 0001:0005d080       ??$read_va_arg@I@__crt_stdio_output@@YAIAEAPEAD@Z 000000018005e080 f i libucrtd:output.obj
 0001:0005d0e0       ??$read_va_arg@PEAD@__crt_stdio_output@@YAPEADAEAPEAD@Z 000000018005e0e0 f i libucrtd:output.obj
 0001:0005d150       ??$read_va_arg@PEAUansi_string@?1??type_case_Z@?$output_processor@DV?$stream_output_adapter@D@__crt_stdio_output@@V?$format_validation_base@DV?$stream_output_adapter@D@__crt_stdio_output@@@2@@__crt_stdio_output@@AEAA_NXZ@@__crt_stdio_output@@YAPEAUansi_string@?1??type_case_Z@?$output_processor@DV?$stream_output_adapter@D@__crt_stdio_output@@V?$format_validation_base@DV?$stream_output_adapter@D@__crt_stdio_output@@@2@@0@AEAA_NXZ@AEAPEAD@Z 000000018005e150 f i libucrtd:output.obj
 0001:0005d1c0       ??$read_va_arg@PEAUansi_string@?1??type_case_Z@?$output_processor@DV?$stream_output_adapter@D@__crt_stdio_output@@V?$positional_parameter_base@DV?$stream_output_adapter@D@__crt_stdio_output@@@2@@__crt_stdio_output@@AEAA_NXZ@@__crt_stdio_output@@YAPEAUansi_string@?1??type_case_Z@?$output_processor@DV?$stream_output_adapter@D@__crt_stdio_output@@V?$positional_parameter_base@DV?$stream_output_adapter@D@__crt_stdio_output@@@2@@0@AEAA_NXZ@AEAPEAD@Z 000000018005e1c0 f i libucrtd:output.obj
 0001:0005d230       ??$read_va_arg@PEAUansi_string@?1??type_case_Z@?$output_processor@DV?$stream_output_adapter@D@__crt_stdio_output@@V?$standard_base@DV?$stream_output_adapter@D@__crt_stdio_output@@@2@@__crt_stdio_output@@AEAA_NXZ@@__crt_stdio_output@@YAPEAUansi_string@?1??type_case_Z@?$output_processor@DV?$stream_output_adapter@D@__crt_stdio_output@@V?$standard_base@DV?$stream_output_adapter@D@__crt_stdio_output@@@2@@0@AEAA_NXZ@AEAPEAD@Z 000000018005e230 f i libucrtd:output.obj
 0001:0005d2a0       ??$read_va_arg@PEAUansi_string@?1??type_case_Z@?$output_processor@DV?$string_output_adapter@D@__crt_stdio_output@@V?$format_validation_base@DV?$string_output_adapter@D@__crt_stdio_output@@@2@@__crt_stdio_output@@AEAA_NXZ@@__crt_stdio_output@@YAPEAUansi_string@?1??type_case_Z@?$output_processor@DV?$string_output_adapter@D@__crt_stdio_output@@V?$format_validation_base@DV?$string_output_adapter@D@__crt_stdio_output@@@2@@0@AEAA_NXZ@AEAPEAD@Z 000000018005e2a0 f i libucrtd:output.obj
 0001:0005d310       ??$read_va_arg@PEAUansi_string@?1??type_case_Z@?$output_processor@DV?$string_output_adapter@D@__crt_stdio_output@@V?$positional_parameter_base@DV?$string_output_adapter@D@__crt_stdio_output@@@2@@__crt_stdio_output@@AEAA_NXZ@@__crt_stdio_output@@YAPEAUansi_string@?1??type_case_Z@?$output_processor@DV?$string_output_adapter@D@__crt_stdio_output@@V?$positional_parameter_base@DV?$string_output_adapter@D@__crt_stdio_output@@@2@@0@AEAA_NXZ@AEAPEAD@Z 000000018005e310 f i libucrtd:output.obj
 0001:0005d380       ??$read_va_arg@PEAUansi_string@?1??type_case_Z@?$output_processor@DV?$string_output_adapter@D@__crt_stdio_output@@V?$standard_base@DV?$string_output_adapter@D@__crt_stdio_output@@@2@@__crt_stdio_output@@AEAA_NXZ@@__crt_stdio_output@@YAPEAUansi_string@?1??type_case_Z@?$output_processor@DV?$string_output_adapter@D@__crt_stdio_output@@V?$standard_base@DV?$string_output_adapter@D@__crt_stdio_output@@@2@@0@AEAA_NXZ@AEAPEAD@Z 000000018005e380 f i libucrtd:output.obj
 0001:0005d3f0       ??$read_va_arg@PEAUansi_string@?1??type_case_Z@?$output_processor@_WV?$stream_output_adapter@_W@__crt_stdio_output@@V?$format_validation_base@_WV?$stream_output_adapter@_W@__crt_stdio_output@@@2@@__crt_stdio_output@@AEAA_NXZ@@__crt_stdio_output@@YAPEAUansi_string@?1??type_case_Z@?$output_processor@_WV?$stream_output_adapter@_W@__crt_stdio_output@@V?$format_validation_base@_WV?$stream_output_adapter@_W@__crt_stdio_output@@@2@@0@AEAA_NXZ@AEAPEAD@Z 000000018005e3f0 f i libucrtd:output.obj
 0001:0005d460       ??$read_va_arg@PEAUansi_string@?1??type_case_Z@?$output_processor@_WV?$stream_output_adapter@_W@__crt_stdio_output@@V?$positional_parameter_base@_WV?$stream_output_adapter@_W@__crt_stdio_output@@@2@@__crt_stdio_output@@AEAA_NXZ@@__crt_stdio_output@@YAPEAUansi_string@?1??type_case_Z@?$output_processor@_WV?$stream_output_adapter@_W@__crt_stdio_output@@V?$positional_parameter_base@_WV?$stream_output_adapter@_W@__crt_stdio_output@@@2@@0@AEAA_NXZ@AEAPEAD@Z 000000018005e460 f i libucrtd:output.obj
 0001:0005d4d0       ??$read_va_arg@PEAUansi_string@?1??type_case_Z@?$output_processor@_WV?$stream_output_adapter@_W@__crt_stdio_output@@V?$standard_base@_WV?$stream_output_adapter@_W@__crt_stdio_output@@@2@@__crt_stdio_output@@AEAA_NXZ@@__crt_stdio_output@@YAPEAUansi_string@?1??type_case_Z@?$output_processor@_WV?$stream_output_adapter@_W@__crt_stdio_output@@V?$standard_base@_WV?$stream_output_adapter@_W@__crt_stdio_output@@@2@@0@AEAA_NXZ@AEAPEAD@Z 000000018005e4d0 f i libucrtd:output.obj
 0001:0005d540       ??$read_va_arg@PEAUansi_string@?1??type_case_Z@?$output_processor@_WV?$string_output_adapter@_W@__crt_stdio_output@@V?$format_validation_base@_WV?$string_output_adapter@_W@__crt_stdio_output@@@2@@__crt_stdio_output@@AEAA_NXZ@@__crt_stdio_output@@YAPEAUansi_string@?1??type_case_Z@?$output_processor@_WV?$string_output_adapter@_W@__crt_stdio_output@@V?$format_validation_base@_WV?$string_output_adapter@_W@__crt_stdio_output@@@2@@0@AEAA_NXZ@AEAPEAD@Z 000000018005e540 f i libucrtd:output.obj
 0001:0005d5b0       ??$read_va_arg@PEAUansi_string@?1??type_case_Z@?$output_processor@_WV?$string_output_adapter@_W@__crt_stdio_output@@V?$positional_parameter_base@_WV?$string_output_adapter@_W@__crt_stdio_output@@@2@@__crt_stdio_output@@AEAA_NXZ@@__crt_stdio_output@@YAPEAUansi_string@?1??type_case_Z@?$output_processor@_WV?$string_output_adapter@_W@__crt_stdio_output@@V?$positional_parameter_base@_WV?$string_output_adapter@_W@__crt_stdio_output@@@2@@0@AEAA_NXZ@AEAPEAD@Z 000000018005e5b0 f i libucrtd:output.obj
 0001:0005d620       ??$read_va_arg@PEAUansi_string@?1??type_case_Z@?$output_processor@_WV?$string_output_adapter@_W@__crt_stdio_output@@V?$standard_base@_WV?$string_output_adapter@_W@__crt_stdio_output@@@2@@__crt_stdio_output@@AEAA_NXZ@@__crt_stdio_output@@YAPEAUansi_string@?1??type_case_Z@?$output_processor@_WV?$string_output_adapter@_W@__crt_stdio_output@@V?$standard_base@_WV?$string_output_adapter@_W@__crt_stdio_output@@@2@@0@AEAA_NXZ@AEAPEAD@Z 000000018005e620 f i libucrtd:output.obj
 0001:0005d690       ??$read_va_arg@PEAX@__crt_stdio_output@@YAPEAXAEAPEAD@Z 000000018005e690 f i libucrtd:output.obj
 0001:0005d700       ??$read_va_arg@U_CRT_DOUBLE@@@__crt_stdio_output@@YA?AU_CRT_DOUBLE@@AEAPEAD@Z 000000018005e700 f i libucrtd:output.obj
 0001:0005d770       ??$read_va_arg@_J@__crt_stdio_output@@YA_JAEAPEAD@Z 000000018005e770 f i libucrtd:output.obj
 0001:0005d7e0       ??$read_va_arg@_K@__crt_stdio_output@@YA_KAEAPEAD@Z 000000018005e7e0 f i libucrtd:output.obj
 0001:0005d850       ??$read_va_arg@_W@__crt_stdio_output@@YA_WAEAPEAD@Z 000000018005e850 f i libucrtd:output.obj
 0001:0005d8c0       ??$scratch_count@D@formatting_buffer@__crt_stdio_output@@QEBA_KXZ 000000018005e8c0 f i libucrtd:output.obj
 0001:0005d8e0       ??$scratch_data@D@formatting_buffer@__crt_stdio_output@@QEAAPEADXZ 000000018005e8e0 f i libucrtd:output.obj
 0001:0005d950       ??$tcstol@AEAPEBDPEAPEADH@?$__crt_char_traits@D@@SAJAEAPEBD$$QEAPEAPEAD$$QEAH@Z 000000018005e950 f i libucrtd:output.obj
 0001:0005d990       ??$tcstol@AEAPEB_WPEAPEA_WH@?$__crt_char_traits@_W@@SAJAEAPEB_W$$QEAPEAPEA_W$$QEAH@Z 000000018005e990 f i libucrtd:output.obj
 0001:0005d9d0       ??$tcstol@PEBDPEAPEADH@?$__crt_char_traits@D@@SAJ$$QEAPEBD$$QEAPEAPEAD$$QEAH@Z 000000018005e9d0 f i libucrtd:output.obj
 0001:0005da10       ??$tcstol@PEB_WPEAPEA_WH@?$__crt_char_traits@_W@@SAJ$$QEAPEB_W$$QEAPEAPEA_W$$QEAH@Z 000000018005ea10 f i libucrtd:output.obj
 0001:0005da50       ??$type_case_integer_parse_into_buffer@I@?$output_processor@DV?$stream_output_adapter@D@__crt_stdio_output@@V?$format_validation_base@DV?$stream_output_adapter@D@__crt_stdio_output@@@2@@__crt_stdio_output@@AEAAXII_N@Z 000000018005ea50 f i libucrtd:output.obj
 0001:0005db80       ??$type_case_integer_parse_into_buffer@I@?$output_processor@DV?$stream_output_adapter@D@__crt_stdio_output@@V?$positional_parameter_base@DV?$stream_output_adapter@D@__crt_stdio_output@@@2@@__crt_stdio_output@@AEAAXII_N@Z 000000018005eb80 f i libucrtd:output.obj
 0001:0005dcb0       ??$type_case_integer_parse_into_buffer@I@?$output_processor@DV?$stream_output_adapter@D@__crt_stdio_output@@V?$standard_base@DV?$stream_output_adapter@D@__crt_stdio_output@@@2@@__crt_stdio_output@@AEAAXII_N@Z 000000018005ecb0 f i libucrtd:output.obj
 0001:0005dde0       ??$type_case_integer_parse_into_buffer@I@?$output_processor@DV?$string_output_adapter@D@__crt_stdio_output@@V?$format_validation_base@DV?$string_output_adapter@D@__crt_stdio_output@@@2@@__crt_stdio_output@@AEAAXII_N@Z 000000018005ede0 f i libucrtd:output.obj
 0001:0005df10       ??$type_case_integer_parse_into_buffer@I@?$output_processor@DV?$string_output_adapter@D@__crt_stdio_output@@V?$positional_parameter_base@DV?$string_output_adapter@D@__crt_stdio_output@@@2@@__crt_stdio_output@@AEAAXII_N@Z 000000018005ef10 f i libucrtd:output.obj
 0001:0005e040       ??$type_case_integer_parse_into_buffer@I@?$output_processor@DV?$string_output_adapter@D@__crt_stdio_output@@V?$standard_base@DV?$string_output_adapter@D@__crt_stdio_output@@@2@@__crt_stdio_output@@AEAAXII_N@Z 000000018005f040 f i libucrtd:output.obj
 0001:0005e170       ??$type_case_integer_parse_into_buffer@I@?$output_processor@_WV?$stream_output_adapter@_W@__crt_stdio_output@@V?$format_validation_base@_WV?$stream_output_adapter@_W@__crt_stdio_output@@@2@@__crt_stdio_output@@AEAAXII_N@Z 000000018005f170 f i libucrtd:output.obj
 0001:0005e2b0       ??$type_case_integer_parse_into_buffer@I@?$output_processor@_WV?$stream_output_adapter@_W@__crt_stdio_output@@V?$positional_parameter_base@_WV?$stream_output_adapter@_W@__crt_stdio_output@@@2@@__crt_stdio_output@@AEAAXII_N@Z 000000018005f2b0 f i libucrtd:output.obj
 0001:0005e3f0       ??$type_case_integer_parse_into_buffer@I@?$output_processor@_WV?$stream_output_adapter@_W@__crt_stdio_output@@V?$standard_base@_WV?$stream_output_adapter@_W@__crt_stdio_output@@@2@@__crt_stdio_output@@AEAAXII_N@Z 000000018005f3f0 f i libucrtd:output.obj
 0001:0005e530       ??$type_case_integer_parse_into_buffer@I@?$output_processor@_WV?$string_output_adapter@_W@__crt_stdio_output@@V?$format_validation_base@_WV?$string_output_adapter@_W@__crt_stdio_output@@@2@@__crt_stdio_output@@AEAAXII_N@Z 000000018005f530 f i libucrtd:output.obj
 0001:0005e670       ??$type_case_integer_parse_into_buffer@I@?$output_processor@_WV?$string_output_adapter@_W@__crt_stdio_output@@V?$positional_parameter_base@_WV?$string_output_adapter@_W@__crt_stdio_output@@@2@@__crt_stdio_output@@AEAAXII_N@Z 000000018005f670 f i libucrtd:output.obj
 0001:0005e7b0       ??$type_case_integer_parse_into_buffer@I@?$output_processor@_WV?$string_output_adapter@_W@__crt_stdio_output@@V?$standard_base@_WV?$string_output_adapter@_W@__crt_stdio_output@@@2@@__crt_stdio_output@@AEAAXII_N@Z 000000018005f7b0 f i libucrtd:output.obj
 0001:0005e8f0       ??$type_case_integer_parse_into_buffer@_K@?$output_processor@DV?$stream_output_adapter@D@__crt_stdio_output@@V?$format_validation_base@DV?$stream_output_adapter@D@__crt_stdio_output@@@2@@__crt_stdio_output@@AEAAX_KI_N@Z 000000018005f8f0 f i libucrtd:output.obj
 0001:0005ea40       ??$type_case_integer_parse_into_buffer@_K@?$output_processor@DV?$stream_output_adapter@D@__crt_stdio_output@@V?$positional_parameter_base@DV?$stream_output_adapter@D@__crt_stdio_output@@@2@@__crt_stdio_output@@AEAAX_KI_N@Z 000000018005fa40 f i libucrtd:output.obj
 0001:0005eb90       ??$type_case_integer_parse_into_buffer@_K@?$output_processor@DV?$stream_output_adapter@D@__crt_stdio_output@@V?$standard_base@DV?$stream_output_adapter@D@__crt_stdio_output@@@2@@__crt_stdio_output@@AEAAX_KI_N@Z 000000018005fb90 f i libucrtd:output.obj
 0001:0005ece0       ??$type_case_integer_parse_into_buffer@_K@?$output_processor@DV?$string_output_adapter@D@__crt_stdio_output@@V?$format_validation_base@DV?$string_output_adapter@D@__crt_stdio_output@@@2@@__crt_stdio_output@@AEAAX_KI_N@Z 000000018005fce0 f i libucrtd:output.obj
 0001:0005ee30       ??$type_case_integer_parse_into_buffer@_K@?$output_processor@DV?$string_output_adapter@D@__crt_stdio_output@@V?$positional_parameter_base@DV?$string_output_adapter@D@__crt_stdio_output@@@2@@__crt_stdio_output@@AEAAX_KI_N@Z 000000018005fe30 f i libucrtd:output.obj
 0001:0005ef80       ??$type_case_integer_parse_into_buffer@_K@?$output_processor@DV?$string_output_adapter@D@__crt_stdio_output@@V?$standard_base@DV?$string_output_adapter@D@__crt_stdio_output@@@2@@__crt_stdio_output@@AEAAX_KI_N@Z 000000018005ff80 f i libucrtd:output.obj
 0001:0005f0d0       ??$type_case_integer_parse_into_buffer@_K@?$output_processor@_WV?$stream_output_adapter@_W@__crt_stdio_output@@V?$format_validation_base@_WV?$stream_output_adapter@_W@__crt_stdio_output@@@2@@__crt_stdio_output@@AEAAX_KI_N@Z 00000001800600d0 f i libucrtd:output.obj
 0001:0005f230       ??$type_case_integer_parse_into_buffer@_K@?$output_processor@_WV?$stream_output_adapter@_W@__crt_stdio_output@@V?$positional_parameter_base@_WV?$stream_output_adapter@_W@__crt_stdio_output@@@2@@__crt_stdio_output@@AEAAX_KI_N@Z 0000000180060230 f i libucrtd:output.obj
 0001:0005f390       ??$type_case_integer_parse_into_buffer@_K@?$output_processor@_WV?$stream_output_adapter@_W@__crt_stdio_output@@V?$standard_base@_WV?$stream_output_adapter@_W@__crt_stdio_output@@@2@@__crt_stdio_output@@AEAAX_KI_N@Z 0000000180060390 f i libucrtd:output.obj
 0001:0005f4f0       ??$type_case_integer_parse_into_buffer@_K@?$output_processor@_WV?$string_output_adapter@_W@__crt_stdio_output@@V?$format_validation_base@_WV?$string_output_adapter@_W@__crt_stdio_output@@@2@@__crt_stdio_output@@AEAAX_KI_N@Z 00000001800604f0 f i libucrtd:output.obj
 0001:0005f650       ??$type_case_integer_parse_into_buffer@_K@?$output_processor@_WV?$string_output_adapter@_W@__crt_stdio_output@@V?$positional_parameter_base@_WV?$string_output_adapter@_W@__crt_stdio_output@@@2@@__crt_stdio_output@@AEAAX_KI_N@Z 0000000180060650 f i libucrtd:output.obj
 0001:0005f7b0       ??$type_case_integer_parse_into_buffer@_K@?$output_processor@_WV?$string_output_adapter@_W@__crt_stdio_output@@V?$standard_base@_WV?$string_output_adapter@_W@__crt_stdio_output@@@2@@__crt_stdio_output@@AEAAX_KI_N@Z 00000001800607b0 f i libucrtd:output.obj
 0001:0005f910       ??$write_multiple_characters@V?$stream_output_adapter@D@__crt_stdio_output@@D@__crt_stdio_output@@YAXAEBV?$stream_output_adapter@D@0@DHQEAH@Z 0000000180060910 f i libucrtd:output.obj
 0001:0005f970       ??$write_multiple_characters@V?$stream_output_adapter@_W@__crt_stdio_output@@D@__crt_stdio_output@@YAXAEBV?$stream_output_adapter@_W@0@DHQEAH@Z 0000000180060970 f i libucrtd:output.obj
 0001:0005f9d0       ??$write_multiple_characters@V?$string_output_adapter@D@__crt_stdio_output@@D@__crt_stdio_output@@YAXAEBV?$string_output_adapter@D@0@DHQEAH@Z 00000001800609d0 f i libucrtd:output.obj
 0001:0005fa30       ??$write_multiple_characters@V?$string_output_adapter@_W@__crt_stdio_output@@D@__crt_stdio_output@@YAXAEBV?$string_output_adapter@_W@0@DHQEAH@Z 0000000180060a30 f i libucrtd:output.obj
 0001:0005fe50       ??0?$common_data@D@__crt_stdio_output@@IEAA@XZ 0000000180060e50 f i libucrtd:output.obj
 0001:0005ff20       ??0?$common_data@_W@__crt_stdio_output@@IEAA@XZ 0000000180060f20 f i libucrtd:output.obj
 0001:0005fff0       ??0?$output_adapter_data@DV?$stream_output_adapter@D@__crt_stdio_output@@@__crt_stdio_output@@IEAA@AEBV?$stream_output_adapter@D@1@_KQEBDQEAU__crt_locale_pointers@@QEAD@Z 0000000180060ff0 f i libucrtd:output.obj
 0001:00060070       ??0?$output_adapter_data@DV?$string_output_adapter@D@__crt_stdio_output@@@__crt_stdio_output@@IEAA@AEBV?$string_output_adapter@D@1@_KQEBDQEAU__crt_locale_pointers@@QEAD@Z 0000000180061070 f i libucrtd:output.obj
 0001:000600f0       ??0?$output_adapter_data@_WV?$stream_output_adapter@_W@__crt_stdio_output@@@__crt_stdio_output@@IEAA@AEBV?$stream_output_adapter@_W@1@_KQEB_WQEAU__crt_locale_pointers@@QEAD@Z 00000001800610f0 f i libucrtd:output.obj
 0001:00060170       ??0?$output_adapter_data@_WV?$string_output_adapter@_W@__crt_stdio_output@@@__crt_stdio_output@@IEAA@AEBV?$string_output_adapter@_W@1@_KQEB_WQEAU__crt_locale_pointers@@QEAD@Z 0000000180061170 f i libucrtd:output.obj
 0001:000601f0       ??0?$output_processor@DV?$stream_output_adapter@D@__crt_stdio_output@@V?$format_validation_base@DV?$stream_output_adapter@D@__crt_stdio_output@@@2@@__crt_stdio_output@@QEAA@AEBV?$stream_output_adapter@D@1@_KQEBDQEAU__crt_locale_pointers@@QEAD@Z 00000001800611f0 f i libucrtd:output.obj
 0001:00060240       ??0?$output_processor@DV?$stream_output_adapter@D@__crt_stdio_output@@V?$positional_parameter_base@DV?$stream_output_adapter@D@__crt_stdio_output@@@2@@__crt_stdio_output@@QEAA@AEBV?$stream_output_adapter@D@1@_KQEBDQEAU__crt_locale_pointers@@QEAD@Z 0000000180061240 f i libucrtd:output.obj
 0001:00060290       ??0?$output_processor@DV?$stream_output_adapter@D@__crt_stdio_output@@V?$standard_base@DV?$stream_output_adapter@D@__crt_stdio_output@@@2@@__crt_stdio_output@@QEAA@AEBV?$stream_output_adapter@D@1@_KQEBDQEAU__crt_locale_pointers@@QEAD@Z 0000000180061290 f i libucrtd:output.obj
 0001:000602e0       ??0?$output_processor@DV?$string_output_adapter@D@__crt_stdio_output@@V?$format_validation_base@DV?$string_output_adapter@D@__crt_stdio_output@@@2@@__crt_stdio_output@@QEAA@AEBV?$string_output_adapter@D@1@_KQEBDQEAU__crt_locale_pointers@@QEAD@Z 00000001800612e0 f i libucrtd:output.obj
 0001:00060330       ??0?$output_processor@DV?$string_output_adapter@D@__crt_stdio_output@@V?$positional_parameter_base@DV?$string_output_adapter@D@__crt_stdio_output@@@2@@__crt_stdio_output@@QEAA@AEBV?$string_output_adapter@D@1@_KQEBDQEAU__crt_locale_pointers@@QEAD@Z 0000000180061330 f i libucrtd:output.obj
 0001:00060380       ??0?$output_processor@DV?$string_output_adapter@D@__crt_stdio_output@@V?$standard_base@DV?$string_output_adapter@D@__crt_stdio_output@@@2@@__crt_stdio_output@@QEAA@AEBV?$string_output_adapter@D@1@_KQEBDQEAU__crt_locale_pointers@@QEAD@Z 0000000180061380 f i libucrtd:output.obj
 0001:000603d0       ??0?$output_processor@_WV?$stream_output_adapter@_W@__crt_stdio_output@@V?$format_validation_base@_WV?$stream_output_adapter@_W@__crt_stdio_output@@@2@@__crt_stdio_output@@QEAA@AEBV?$stream_output_adapter@_W@1@_KQEB_WQEAU__crt_locale_pointers@@QEAD@Z 00000001800613d0 f i libucrtd:output.obj
 0001:00060420       ??0?$output_processor@_WV?$stream_output_adapter@_W@__crt_stdio_output@@V?$positional_parameter_base@_WV?$stream_output_adapter@_W@__crt_stdio_output@@@2@@__crt_stdio_output@@QEAA@AEBV?$stream_output_adapter@_W@1@_KQEB_WQEAU__crt_locale_pointers@@QEAD@Z 0000000180061420 f i libucrtd:output.obj
 0001:00060470       ??0?$output_processor@_WV?$stream_output_adapter@_W@__crt_stdio_output@@V?$standard_base@_WV?$stream_output_adapter@_W@__crt_stdio_output@@@2@@__crt_stdio_output@@QEAA@AEBV?$stream_output_adapter@_W@1@_KQEB_WQEAU__crt_locale_pointers@@QEAD@Z 0000000180061470 f i libucrtd:output.obj
 0001:000604c0       ??0?$output_processor@_WV?$string_output_adapter@_W@__crt_stdio_output@@V?$format_validation_base@_WV?$string_output_adapter@_W@__crt_stdio_output@@@2@@__crt_stdio_output@@QEAA@AEBV?$string_output_adapter@_W@1@_KQEB_WQEAU__crt_locale_pointers@@QEAD@Z 00000001800614c0 f i libucrtd:output.obj
 0001:00060510       ??0?$output_processor@_WV?$string_output_adapter@_W@__crt_stdio_output@@V?$positional_parameter_base@_WV?$string_output_adapter@_W@__crt_stdio_output@@@2@@__crt_stdio_output@@QEAA@AEBV?$string_output_adapter@_W@1@_KQEB_WQEAU__crt_locale_pointers@@QEAD@Z 0000000180061510 f i libucrtd:output.obj
 0001:00060560       ??0?$output_processor@_WV?$string_output_adapter@_W@__crt_stdio_output@@V?$standard_base@_WV?$string_output_adapter@_W@__crt_stdio_output@@@2@@__crt_stdio_output@@QEAA@AEBV?$string_output_adapter@_W@1@_KQEB_WQEAU__crt_locale_pointers@@QEAD@Z 0000000180061560 f i libucrtd:output.obj
 0001:000605b0       ??0?$stream_output_adapter@D@__crt_stdio_output@@QEAA@QEAU_iobuf@@@Z 00000001800615b0 f i libucrtd:output.obj
 0001:000605e0       ??0?$stream_output_adapter@_W@__crt_stdio_output@@QEAA@QEAU_iobuf@@@Z 00000001800615e0 f i libucrtd:output.obj
 0001:00060610       ??0?$string_output_adapter@D@__crt_stdio_output@@QEAA@QEAU?$string_output_adapter_context@D@1@@Z 0000000180061610 f i libucrtd:output.obj
 0001:00060630       ??0?$string_output_adapter@_W@__crt_stdio_output@@QEAA@QEAU?$string_output_adapter_context@_W@1@@Z 0000000180061630 f i libucrtd:output.obj
 0001:00060650       ??0_LocaleUpdate@@QEAA@QEAU__crt_locale_pointers@@@Z 0000000180061650 f i libucrtd:output.obj
 0001:00060770       ??0__acrt_stdio_temporary_buffering_guard@@QEAA@QEAU_iobuf@@@Z 0000000180061770 f i libucrtd:output.obj
 0001:000607b0       ??0__crt_deferred_errno_cache@@QEAA@XZ 00000001800617b0 f i libucrtd:output.obj
 0001:000607d0       ??0__crt_errno_guard@@QEAA@QEAH@Z 00000001800617d0 f i libucrtd:output.obj
 0001:00060810       ??0__crt_stdio_stream@@QEAA@QEAU_iobuf@@@Z 0000000180061810 f i libucrtd:output.obj
 0001:00060830       ??0formatting_buffer@__crt_stdio_output@@QEAA@XZ 0000000180061830 f i libucrtd:output.obj
 0001:00060870       ??1?$common_data@D@__crt_stdio_output@@QEAA@XZ 0000000180061870 f i libucrtd:output.obj
 0001:00060890       ??1?$common_data@_W@__crt_stdio_output@@QEAA@XZ 0000000180061890 f i libucrtd:output.obj
 0001:000608b0       ??1?$format_validation_base@DV?$stream_output_adapter@D@__crt_stdio_output@@@__crt_stdio_output@@QEAA@XZ 00000001800618b0 f i libucrtd:output.obj
 0001:000608d0       ??1?$format_validation_base@DV?$string_output_adapter@D@__crt_stdio_output@@@__crt_stdio_output@@QEAA@XZ 00000001800618d0 f i libucrtd:output.obj
 0001:000608f0       ??1?$format_validation_base@_WV?$stream_output_adapter@_W@__crt_stdio_output@@@__crt_stdio_output@@QEAA@XZ 00000001800618f0 f i libucrtd:output.obj
 0001:00060910       ??1?$format_validation_base@_WV?$string_output_adapter@_W@__crt_stdio_output@@@__crt_stdio_output@@QEAA@XZ 0000000180061910 f i libucrtd:output.obj
 0001:00060930       ??1?$output_adapter_data@DV?$stream_output_adapter@D@__crt_stdio_output@@@__crt_stdio_output@@QEAA@XZ 0000000180061930 f i libucrtd:output.obj
 0001:00060950       ??1?$output_adapter_data@DV?$string_output_adapter@D@__crt_stdio_output@@@__crt_stdio_output@@QEAA@XZ 0000000180061950 f i libucrtd:output.obj
 0001:00060970       ??1?$output_adapter_data@_WV?$stream_output_adapter@_W@__crt_stdio_output@@@__crt_stdio_output@@QEAA@XZ 0000000180061970 f i libucrtd:output.obj
 0001:00060990       ??1?$output_adapter_data@_WV?$string_output_adapter@_W@__crt_stdio_output@@@__crt_stdio_output@@QEAA@XZ 0000000180061990 f i libucrtd:output.obj
 0001:000609b0       ??1?$output_processor@DV?$stream_output_adapter@D@__crt_stdio_output@@V?$format_validation_base@DV?$stream_output_adapter@D@__crt_stdio_output@@@2@@__crt_stdio_output@@QEAA@XZ 00000001800619b0 f i libucrtd:output.obj
 0001:000609d0       ??1?$output_processor@DV?$stream_output_adapter@D@__crt_stdio_output@@V?$positional_parameter_base@DV?$stream_output_adapter@D@__crt_stdio_output@@@2@@__crt_stdio_output@@QEAA@XZ 00000001800619d0 f i libucrtd:output.obj
 0001:000609f0       ??1?$output_processor@DV?$stream_output_adapter@D@__crt_stdio_output@@V?$standard_base@DV?$stream_output_adapter@D@__crt_stdio_output@@@2@@__crt_stdio_output@@QEAA@XZ 00000001800619f0 f i libucrtd:output.obj
 0001:00060a10       ??1?$output_processor@DV?$string_output_adapter@D@__crt_stdio_output@@V?$format_validation_base@DV?$string_output_adapter@D@__crt_stdio_output@@@2@@__crt_stdio_output@@QEAA@XZ 0000000180061a10 f i libucrtd:output.obj
 0001:00060a30       ??1?$output_processor@DV?$string_output_adapter@D@__crt_stdio_output@@V?$positional_parameter_base@DV?$string_output_adapter@D@__crt_stdio_output@@@2@@__crt_stdio_output@@QEAA@XZ 0000000180061a30 f i libucrtd:output.obj
 0001:00060a50       ??1?$output_processor@DV?$string_output_adapter@D@__crt_stdio_output@@V?$standard_base@DV?$string_output_adapter@D@__crt_stdio_output@@@2@@__crt_stdio_output@@QEAA@XZ 0000000180061a50 f i libucrtd:output.obj
 0001:00060a70       ??1?$output_processor@_WV?$stream_output_adapter@_W@__crt_stdio_output@@V?$format_validation_base@_WV?$stream_output_adapter@_W@__crt_stdio_output@@@2@@__crt_stdio_output@@QEAA@XZ 0000000180061a70 f i libucrtd:output.obj
 0001:00060a90       ??1?$output_processor@_WV?$stream_output_adapter@_W@__crt_stdio_output@@V?$positional_parameter_base@_WV?$stream_output_adapter@_W@__crt_stdio_output@@@2@@__crt_stdio_output@@QEAA@XZ 0000000180061a90 f i libucrtd:output.obj
 0001:00060ab0       ??1?$output_processor@_WV?$stream_output_adapter@_W@__crt_stdio_output@@V?$standard_base@_WV?$stream_output_adapter@_W@__crt_stdio_output@@@2@@__crt_stdio_output@@QEAA@XZ 0000000180061ab0 f i libucrtd:output.obj
 0001:00060ad0       ??1?$output_processor@_WV?$string_output_adapter@_W@__crt_stdio_output@@V?$format_validation_base@_WV?$string_output_adapter@_W@__crt_stdio_output@@@2@@__crt_stdio_output@@QEAA@XZ 0000000180061ad0 f i libucrtd:output.obj
 0001:00060af0       ??1?$output_processor@_WV?$string_output_adapter@_W@__crt_stdio_output@@V?$positional_parameter_base@_WV?$string_output_adapter@_W@__crt_stdio_output@@@2@@__crt_stdio_output@@QEAA@XZ 0000000180061af0 f i libucrtd:output.obj
 0001:00060b10       ??1?$output_processor@_WV?$string_output_adapter@_W@__crt_stdio_output@@V?$standard_base@_WV?$string_output_adapter@_W@__crt_stdio_output@@@2@@__crt_stdio_output@@QEAA@XZ 0000000180061b10 f i libucrtd:output.obj
 0001:00060b30       ??1?$positional_parameter_base@DV?$stream_output_adapter@D@__crt_stdio_output@@@__crt_stdio_output@@QEAA@XZ 0000000180061b30 f i libucrtd:output.obj
 0001:00060b50       ??1?$positional_parameter_base@DV?$string_output_adapter@D@__crt_stdio_output@@@__crt_stdio_output@@QEAA@XZ 0000000180061b50 f i libucrtd:output.obj
 0001:00060b70       ??1?$positional_parameter_base@_WV?$stream_output_adapter@_W@__crt_stdio_output@@@__crt_stdio_output@@QEAA@XZ 0000000180061b70 f i libucrtd:output.obj
 0001:00060b90       ??1?$positional_parameter_base@_WV?$string_output_adapter@_W@__crt_stdio_output@@@__crt_stdio_output@@QEAA@XZ 0000000180061b90 f i libucrtd:output.obj
 0001:00060bb0       ??1?$standard_base@DV?$stream_output_adapter@D@__crt_stdio_output@@@__crt_stdio_output@@QEAA@XZ 0000000180061bb0 f i libucrtd:output.obj
 0001:00060bd0       ??1?$standard_base@DV?$string_output_adapter@D@__crt_stdio_output@@@__crt_stdio_output@@QEAA@XZ 0000000180061bd0 f i libucrtd:output.obj
 0001:00060bf0       ??1?$standard_base@_WV?$stream_output_adapter@_W@__crt_stdio_output@@@__crt_stdio_output@@QEAA@XZ 0000000180061bf0 f i libucrtd:output.obj
 0001:00060c10       ??1?$standard_base@_WV?$string_output_adapter@_W@__crt_stdio_output@@@__crt_stdio_output@@QEAA@XZ 0000000180061c10 f i libucrtd:output.obj
 0001:00060c30       ??1_LocaleUpdate@@QEAA@XZ  0000000180061c30 f i libucrtd:output.obj
 0001:00060c60       ??1__acrt_stdio_temporary_buffering_guard@@QEAA@XZ 0000000180061c60 f i libucrtd:output.obj
 0001:00060c90       ??1__crt_errno_guard@@QEAA@XZ 0000000180061c90 f i libucrtd:output.obj
 0001:00060cc0       ??1formatting_buffer@__crt_stdio_output@@QEAA@XZ 0000000180061cc0 f i libucrtd:output.obj
 0001:00060cf0       ??4?$__crt_unique_heap_ptr@DU__crt_internal_free_policy@@@@QEAAAEAV0@$$QEAV0@@Z 0000000180061cf0 f i libucrtd:output.obj
 0001:00060d30       ??A?$spectre_mitigated_lookup_table@Ustate_transition_pair@__crt_stdio_output@@$0IA@@__crt_stdio_output@@QEBAAEBUstate_transition_pair@1@_K@Z 0000000180061d30 f i libucrtd:output.obj
 0001:00060d50       ??C__crt_stdio_stream@@QEBAPEAU__crt_stdio_stream_data@@XZ 0000000180061d50 f i libucrtd:output.obj
 0001:00061600       ?GetLocaleT@_LocaleUpdate@@QEAAPEAU__crt_locale_pointers@@XZ 0000000180062600 f i libucrtd:output.obj
 0001:00061610       ?__crt_interlocked_read_32@@YAHPEDH@Z 0000000180062610 f i libucrtd:output.obj
 0001:00061630       ?adjust_hexit@?$output_processor@DV?$stream_output_adapter@D@__crt_stdio_output@@V?$format_validation_base@DV?$stream_output_adapter@D@__crt_stdio_output@@@2@@__crt_stdio_output@@CADH_N@Z 0000000180062630 f i libucrtd:output.obj
 0001:00061680       ?adjust_hexit@?$output_processor@DV?$stream_output_adapter@D@__crt_stdio_output@@V?$positional_parameter_base@DV?$stream_output_adapter@D@__crt_stdio_output@@@2@@__crt_stdio_output@@CADH_N@Z 0000000180062680 f i libucrtd:output.obj
 0001:000616d0       ?adjust_hexit@?$output_processor@DV?$stream_output_adapter@D@__crt_stdio_output@@V?$standard_base@DV?$stream_output_adapter@D@__crt_stdio_output@@@2@@__crt_stdio_output@@CADH_N@Z 00000001800626d0 f i libucrtd:output.obj
 0001:00061720       ?adjust_hexit@?$output_processor@DV?$string_output_adapter@D@__crt_stdio_output@@V?$format_validation_base@DV?$string_output_adapter@D@__crt_stdio_output@@@2@@__crt_stdio_output@@CADH_N@Z 0000000180062720 f i libucrtd:output.obj
 0001:00061770       ?adjust_hexit@?$output_processor@DV?$string_output_adapter@D@__crt_stdio_output@@V?$positional_parameter_base@DV?$string_output_adapter@D@__crt_stdio_output@@@2@@__crt_stdio_output@@CADH_N@Z 0000000180062770 f i libucrtd:output.obj
 0001:000617c0       ?adjust_hexit@?$output_processor@DV?$string_output_adapter@D@__crt_stdio_output@@V?$standard_base@DV?$string_output_adapter@D@__crt_stdio_output@@@2@@__crt_stdio_output@@CADH_N@Z 00000001800627c0 f i libucrtd:output.obj
 0001:00061810       ?adjust_hexit@?$output_processor@_WV?$stream_output_adapter@_W@__crt_stdio_output@@V?$format_validation_base@_WV?$stream_output_adapter@_W@__crt_stdio_output@@@2@@__crt_stdio_output@@CADH_N@Z 0000000180062810 f i libucrtd:output.obj
 0001:00061860       ?adjust_hexit@?$output_processor@_WV?$stream_output_adapter@_W@__crt_stdio_output@@V?$positional_parameter_base@_WV?$stream_output_adapter@_W@__crt_stdio_output@@@2@@__crt_stdio_output@@CADH_N@Z 0000000180062860 f i libucrtd:output.obj
 0001:000618b0       ?adjust_hexit@?$output_processor@_WV?$stream_output_adapter@_W@__crt_stdio_output@@V?$standard_base@_WV?$stream_output_adapter@_W@__crt_stdio_output@@@2@@__crt_stdio_output@@CADH_N@Z 00000001800628b0 f i libucrtd:output.obj
 0001:00061900       ?adjust_hexit@?$output_processor@_WV?$string_output_adapter@_W@__crt_stdio_output@@V?$format_validation_base@_WV?$string_output_adapter@_W@__crt_stdio_output@@@2@@__crt_stdio_output@@CADH_N@Z 0000000180062900 f i libucrtd:output.obj
 0001:00061950       ?adjust_hexit@?$output_processor@_WV?$string_output_adapter@_W@__crt_stdio_output@@V?$positional_parameter_base@_WV?$string_output_adapter@_W@__crt_stdio_output@@@2@@__crt_stdio_output@@CADH_N@Z 0000000180062950 f i libucrtd:output.obj
 0001:000619a0       ?adjust_hexit@?$output_processor@_WV?$string_output_adapter@_W@__crt_stdio_output@@V?$standard_base@_WV?$string_output_adapter@_W@__crt_stdio_output@@@2@@__crt_stdio_output@@CADH_N@Z 00000001800629a0 f i libucrtd:output.obj
 0001:000619f0       ?advance_to_next_pass@?$positional_parameter_base@DV?$stream_output_adapter@D@__crt_stdio_output@@@__crt_stdio_output@@IEAA_NXZ 00000001800629f0 f i libucrtd:output.obj
 0001:00061aa0       ?advance_to_next_pass@?$positional_parameter_base@DV?$string_output_adapter@D@__crt_stdio_output@@@__crt_stdio_output@@IEAA_NXZ 0000000180062aa0 f i libucrtd:output.obj
 0001:00061b50       ?advance_to_next_pass@?$positional_parameter_base@_WV?$stream_output_adapter@_W@__crt_stdio_output@@@__crt_stdio_output@@IEAA_NXZ 0000000180062b50 f i libucrtd:output.obj
 0001:00061c00       ?advance_to_next_pass@?$positional_parameter_base@_WV?$string_output_adapter@_W@__crt_stdio_output@@@__crt_stdio_output@@IEAA_NXZ 0000000180062c00 f i libucrtd:output.obj
 0001:00061cb0       ?advance_to_next_pass@?$standard_base@DV?$stream_output_adapter@D@__crt_stdio_output@@@__crt_stdio_output@@IEAA_NXZ 0000000180062cb0 f i libucrtd:output.obj
 0001:00061d00       ?advance_to_next_pass@?$standard_base@DV?$string_output_adapter@D@__crt_stdio_output@@@__crt_stdio_output@@IEAA_NXZ 0000000180062d00 f i libucrtd:output.obj
 0001:00061d50       ?advance_to_next_pass@?$standard_base@_WV?$stream_output_adapter@_W@__crt_stdio_output@@@__crt_stdio_output@@IEAA_NXZ 0000000180062d50 f i libucrtd:output.obj
 0001:00061da0       ?advance_to_next_pass@?$standard_base@_WV?$string_output_adapter@_W@__crt_stdio_output@@@__crt_stdio_output@@IEAA_NXZ 0000000180062da0 f i libucrtd:output.obj
 0001:00061df0       ?crop_zeroes@__crt_stdio_output@@YAXPEADQEAU__crt_locale_pointers@@@Z 0000000180062df0 f i libucrtd:output.obj
 0001:00061f30       ?find_next_state@?$output_processor@DV?$stream_output_adapter@D@__crt_stdio_output@@V?$format_validation_base@DV?$stream_output_adapter@D@__crt_stdio_output@@@2@@__crt_stdio_output@@AEBA?AW4state@2@DW432@@Z 0000000180062f30 f i libucrtd:output.obj
 0001:00061fc0       ?find_next_state@?$output_processor@DV?$stream_output_adapter@D@__crt_stdio_output@@V?$positional_parameter_base@DV?$stream_output_adapter@D@__crt_stdio_output@@@2@@__crt_stdio_output@@AEBA?AW4state@2@DW432@@Z 0000000180062fc0 f i libucrtd:output.obj
 0001:00062050       ?find_next_state@?$output_processor@DV?$stream_output_adapter@D@__crt_stdio_output@@V?$standard_base@DV?$stream_output_adapter@D@__crt_stdio_output@@@2@@__crt_stdio_output@@AEBA?AW4state@2@DW432@@Z 0000000180063050 f i libucrtd:output.obj
 0001:000620e0       ?find_next_state@?$output_processor@DV?$string_output_adapter@D@__crt_stdio_output@@V?$format_validation_base@DV?$string_output_adapter@D@__crt_stdio_output@@@2@@__crt_stdio_output@@AEBA?AW4state@2@DW432@@Z 00000001800630e0 f i libucrtd:output.obj
 0001:00062170       ?find_next_state@?$output_processor@DV?$string_output_adapter@D@__crt_stdio_output@@V?$positional_parameter_base@DV?$string_output_adapter@D@__crt_stdio_output@@@2@@__crt_stdio_output@@AEBA?AW4state@2@DW432@@Z 0000000180063170 f i libucrtd:output.obj
 0001:00062200       ?find_next_state@?$output_processor@DV?$string_output_adapter@D@__crt_stdio_output@@V?$standard_base@DV?$string_output_adapter@D@__crt_stdio_output@@@2@@__crt_stdio_output@@AEBA?AW4state@2@DW432@@Z 0000000180063200 f i libucrtd:output.obj
 0001:00062290       ?find_next_state@?$output_processor@_WV?$stream_output_adapter@_W@__crt_stdio_output@@V?$format_validation_base@_WV?$stream_output_adapter@_W@__crt_stdio_output@@@2@@__crt_stdio_output@@AEBA?AW4state@2@_WW432@@Z 0000000180063290 f i libucrtd:output.obj
 0001:00062320       ?find_next_state@?$output_processor@_WV?$stream_output_adapter@_W@__crt_stdio_output@@V?$positional_parameter_base@_WV?$stream_output_adapter@_W@__crt_stdio_output@@@2@@__crt_stdio_output@@AEBA?AW4state@2@_WW432@@Z 0000000180063320 f i libucrtd:output.obj
 0001:000623b0       ?find_next_state@?$output_processor@_WV?$stream_output_adapter@_W@__crt_stdio_output@@V?$standard_base@_WV?$stream_output_adapter@_W@__crt_stdio_output@@@2@@__crt_stdio_output@@AEBA?AW4state@2@_WW432@@Z 00000001800633b0 f i libucrtd:output.obj
 0001:00062440       ?find_next_state@?$output_processor@_WV?$string_output_adapter@_W@__crt_stdio_output@@V?$format_validation_base@_WV?$string_output_adapter@_W@__crt_stdio_output@@@2@@__crt_stdio_output@@AEBA?AW4state@2@_WW432@@Z 0000000180063440 f i libucrtd:output.obj
 0001:000624d0       ?find_next_state@?$output_processor@_WV?$string_output_adapter@_W@__crt_stdio_output@@V?$positional_parameter_base@_WV?$string_output_adapter@_W@__crt_stdio_output@@@2@@__crt_stdio_output@@AEBA?AW4state@2@_WW432@@Z 00000001800634d0 f i libucrtd:output.obj
 0001:00062560       ?find_next_state@?$output_processor@_WV?$string_output_adapter@_W@__crt_stdio_output@@V?$standard_base@_WV?$string_output_adapter@_W@__crt_stdio_output@@@2@@__crt_stdio_output@@AEBA?AW4state@2@_WW432@@Z 0000000180063560 f i libucrtd:output.obj
 0001:000625f0       ?force_decimal_point@__crt_stdio_output@@YAXPEADQEAU__crt_locale_pointers@@@Z 00000001800635f0 f i libucrtd:output.obj
 0001:000626f0       ?get@__crt_deferred_errno_cache@@QEAAAEAHXZ 00000001800636f0 f i libucrtd:output.obj
 0001:00062720       ?get_flags@__crt_stdio_stream@@QEBAJXZ 0000000180063720 f i libucrtd:output.obj
 0001:00062750       ?get_parameter_type@?$positional_parameter_base@DV?$stream_output_adapter@D@__crt_stdio_output@@@__crt_stdio_output@@CA?AW4parameter_type@12@F@Z 0000000180063750 f i libucrtd:output.obj
 0001:00062760       ?get_parameter_type@?$positional_parameter_base@DV?$stream_output_adapter@D@__crt_stdio_output@@@__crt_stdio_output@@CA?AW4parameter_type@12@G@Z 0000000180063760 f i libucrtd:output.obj
 0001:00062770       ?get_parameter_type@?$positional_parameter_base@DV?$stream_output_adapter@D@__crt_stdio_output@@@__crt_stdio_output@@CA?AW4parameter_type@12@H@Z 0000000180063770 f i libucrtd:output.obj
 0001:00062780       ?get_parameter_type@?$positional_parameter_base@DV?$stream_output_adapter@D@__crt_stdio_output@@@__crt_stdio_output@@CA?AW4parameter_type@12@I@Z 0000000180063780 f i libucrtd:output.obj
 0001:00062790       ?get_parameter_type@?$positional_parameter_base@DV?$stream_output_adapter@D@__crt_stdio_output@@@__crt_stdio_output@@CA?AW4parameter_type@12@U_CRT_DOUBLE@@@Z 0000000180063790 f i libucrtd:output.obj
 0001:000627a0       ?get_parameter_type@?$positional_parameter_base@DV?$stream_output_adapter@D@__crt_stdio_output@@@__crt_stdio_output@@CA?AW4parameter_type@12@_J@Z 00000001800637a0 f i libucrtd:output.obj
 0001:000627b0       ?get_parameter_type@?$positional_parameter_base@DV?$stream_output_adapter@D@__crt_stdio_output@@@__crt_stdio_output@@CA?AW4parameter_type@12@_K@Z 00000001800637b0 f i libucrtd:output.obj
 0001:000627c0       ?get_parameter_type@?$positional_parameter_base@DV?$stream_output_adapter@D@__crt_stdio_output@@@__crt_stdio_output@@CA?AW4parameter_type@12@_W@Z 00000001800637c0 f i libucrtd:output.obj
 0001:000627d0       ?get_parameter_type@?$positional_parameter_base@DV?$string_output_adapter@D@__crt_stdio_output@@@__crt_stdio_output@@CA?AW4parameter_type@12@F@Z 00000001800637d0 f i libucrtd:output.obj
 0001:000627e0       ?get_parameter_type@?$positional_parameter_base@DV?$string_output_adapter@D@__crt_stdio_output@@@__crt_stdio_output@@CA?AW4parameter_type@12@G@Z 00000001800637e0 f i libucrtd:output.obj
 0001:000627f0       ?get_parameter_type@?$positional_parameter_base@DV?$string_output_adapter@D@__crt_stdio_output@@@__crt_stdio_output@@CA?AW4parameter_type@12@H@Z 00000001800637f0 f i libucrtd:output.obj
 0001:00062800       ?get_parameter_type@?$positional_parameter_base@DV?$string_output_adapter@D@__crt_stdio_output@@@__crt_stdio_output@@CA?AW4parameter_type@12@I@Z 0000000180063800 f i libucrtd:output.obj
 0001:00062810       ?get_parameter_type@?$positional_parameter_base@DV?$string_output_adapter@D@__crt_stdio_output@@@__crt_stdio_output@@CA?AW4parameter_type@12@U_CRT_DOUBLE@@@Z 0000000180063810 f i libucrtd:output.obj
 0001:00062820       ?get_parameter_type@?$positional_parameter_base@DV?$string_output_adapter@D@__crt_stdio_output@@@__crt_stdio_output@@CA?AW4parameter_type@12@_J@Z 0000000180063820 f i libucrtd:output.obj
 0001:00062830       ?get_parameter_type@?$positional_parameter_base@DV?$string_output_adapter@D@__crt_stdio_output@@@__crt_stdio_output@@CA?AW4parameter_type@12@_K@Z 0000000180063830 f i libucrtd:output.obj
 0001:00062840       ?get_parameter_type@?$positional_parameter_base@DV?$string_output_adapter@D@__crt_stdio_output@@@__crt_stdio_output@@CA?AW4parameter_type@12@_W@Z 0000000180063840 f i libucrtd:output.obj
 0001:00062850       ?get_parameter_type@?$positional_parameter_base@_WV?$stream_output_adapter@_W@__crt_stdio_output@@@__crt_stdio_output@@CA?AW4parameter_type@12@F@Z 0000000180063850 f i libucrtd:output.obj
 0001:00062860       ?get_parameter_type@?$positional_parameter_base@_WV?$stream_output_adapter@_W@__crt_stdio_output@@@__crt_stdio_output@@CA?AW4parameter_type@12@G@Z 0000000180063860 f i libucrtd:output.obj
 0001:00062870       ?get_parameter_type@?$positional_parameter_base@_WV?$stream_output_adapter@_W@__crt_stdio_output@@@__crt_stdio_output@@CA?AW4parameter_type@12@H@Z 0000000180063870 f i libucrtd:output.obj
 0001:00062880       ?get_parameter_type@?$positional_parameter_base@_WV?$stream_output_adapter@_W@__crt_stdio_output@@@__crt_stdio_output@@CA?AW4parameter_type@12@I@Z 0000000180063880 f i libucrtd:output.obj
 0001:00062890       ?get_parameter_type@?$positional_parameter_base@_WV?$stream_output_adapter@_W@__crt_stdio_output@@@__crt_stdio_output@@CA?AW4parameter_type@12@U_CRT_DOUBLE@@@Z 0000000180063890 f i libucrtd:output.obj
 0001:000628a0       ?get_parameter_type@?$positional_parameter_base@_WV?$stream_output_adapter@_W@__crt_stdio_output@@@__crt_stdio_output@@CA?AW4parameter_type@12@_J@Z 00000001800638a0 f i libucrtd:output.obj
 0001:000628b0       ?get_parameter_type@?$positional_parameter_base@_WV?$stream_output_adapter@_W@__crt_stdio_output@@@__crt_stdio_output@@CA?AW4parameter_type@12@_K@Z 00000001800638b0 f i libucrtd:output.obj
 0001:000628c0       ?get_parameter_type@?$positional_parameter_base@_WV?$stream_output_adapter@_W@__crt_stdio_output@@@__crt_stdio_output@@CA?AW4parameter_type@12@_W@Z 00000001800638c0 f i libucrtd:output.obj
 0001:000628d0       ?get_parameter_type@?$positional_parameter_base@_WV?$string_output_adapter@_W@__crt_stdio_output@@@__crt_stdio_output@@CA?AW4parameter_type@12@F@Z 00000001800638d0 f i libucrtd:output.obj
 0001:000628e0       ?get_parameter_type@?$positional_parameter_base@_WV?$string_output_adapter@_W@__crt_stdio_output@@@__crt_stdio_output@@CA?AW4parameter_type@12@G@Z 00000001800638e0 f i libucrtd:output.obj
 0001:000628f0       ?get_parameter_type@?$positional_parameter_base@_WV?$string_output_adapter@_W@__crt_stdio_output@@@__crt_stdio_output@@CA?AW4parameter_type@12@H@Z 00000001800638f0 f i libucrtd:output.obj
 0001:00062900       ?get_parameter_type@?$positional_parameter_base@_WV?$string_output_adapter@_W@__crt_stdio_output@@@__crt_stdio_output@@CA?AW4parameter_type@12@I@Z 0000000180063900 f i libucrtd:output.obj
 0001:00062910       ?get_parameter_type@?$positional_parameter_base@_WV?$string_output_adapter@_W@__crt_stdio_output@@@__crt_stdio_output@@CA?AW4parameter_type@12@U_CRT_DOUBLE@@@Z 0000000180063910 f i libucrtd:output.obj
 0001:00062920       ?get_parameter_type@?$positional_parameter_base@_WV?$string_output_adapter@_W@__crt_stdio_output@@@__crt_stdio_output@@CA?AW4parameter_type@12@_J@Z 0000000180063920 f i libucrtd:output.obj
 0001:00062930       ?get_parameter_type@?$positional_parameter_base@_WV?$string_output_adapter@_W@__crt_stdio_output@@@__crt_stdio_output@@CA?AW4parameter_type@12@_K@Z 0000000180063930 f i libucrtd:output.obj
 0001:00062940       ?get_parameter_type@?$positional_parameter_base@_WV?$string_output_adapter@_W@__crt_stdio_output@@@__crt_stdio_output@@CA?AW4parameter_type@12@_W@Z 0000000180063940 f i libucrtd:output.obj
 0001:00062950       ?has_flag@?$output_processor@DV?$stream_output_adapter@D@__crt_stdio_output@@V?$format_validation_base@DV?$stream_output_adapter@D@__crt_stdio_output@@@2@@__crt_stdio_output@@AEBA_NI@Z 0000000180063950 f i libucrtd:output.obj
 0001:00062990       ?has_flag@?$output_processor@DV?$stream_output_adapter@D@__crt_stdio_output@@V?$positional_parameter_base@DV?$stream_output_adapter@D@__crt_stdio_output@@@2@@__crt_stdio_output@@AEBA_NI@Z 0000000180063990 f i libucrtd:output.obj
 0001:000629d0       ?has_flag@?$output_processor@DV?$stream_output_adapter@D@__crt_stdio_output@@V?$standard_base@DV?$stream_output_adapter@D@__crt_stdio_output@@@2@@__crt_stdio_output@@AEBA_NI@Z 00000001800639d0 f i libucrtd:output.obj
 0001:00062a10       ?has_flag@?$output_processor@DV?$string_output_adapter@D@__crt_stdio_output@@V?$format_validation_base@DV?$string_output_adapter@D@__crt_stdio_output@@@2@@__crt_stdio_output@@AEBA_NI@Z 0000000180063a10 f i libucrtd:output.obj
 0001:00062a50       ?has_flag@?$output_processor@DV?$string_output_adapter@D@__crt_stdio_output@@V?$positional_parameter_base@DV?$string_output_adapter@D@__crt_stdio_output@@@2@@__crt_stdio_output@@AEBA_NI@Z 0000000180063a50 f i libucrtd:output.obj
 0001:00062a90       ?has_flag@?$output_processor@DV?$string_output_adapter@D@__crt_stdio_output@@V?$standard_base@DV?$string_output_adapter@D@__crt_stdio_output@@@2@@__crt_stdio_output@@AEBA_NI@Z 0000000180063a90 f i libucrtd:output.obj
 0001:00062ad0       ?has_flag@?$output_processor@_WV?$stream_output_adapter@_W@__crt_stdio_output@@V?$format_validation_base@_WV?$stream_output_adapter@_W@__crt_stdio_output@@@2@@__crt_stdio_output@@AEBA_NI@Z 0000000180063ad0 f i libucrtd:output.obj
 0001:00062b10       ?has_flag@?$output_processor@_WV?$stream_output_adapter@_W@__crt_stdio_output@@V?$positional_parameter_base@_WV?$stream_output_adapter@_W@__crt_stdio_output@@@2@@__crt_stdio_output@@AEBA_NI@Z 0000000180063b10 f i libucrtd:output.obj
 0001:00062b50       ?has_flag@?$output_processor@_WV?$stream_output_adapter@_W@__crt_stdio_output@@V?$standard_base@_WV?$stream_output_adapter@_W@__crt_stdio_output@@@2@@__crt_stdio_output@@AEBA_NI@Z 0000000180063b50 f i libucrtd:output.obj
 0001:00062b90       ?has_flag@?$output_processor@_WV?$string_output_adapter@_W@__crt_stdio_output@@V?$format_validation_base@_WV?$string_output_adapter@_W@__crt_stdio_output@@@2@@__crt_stdio_output@@AEBA_NI@Z 0000000180063b90 f i libucrtd:output.obj
 0001:00062bd0       ?has_flag@?$output_processor@_WV?$string_output_adapter@_W@__crt_stdio_output@@V?$positional_parameter_base@_WV?$string_output_adapter@_W@__crt_stdio_output@@@2@@__crt_stdio_output@@AEBA_NI@Z 0000000180063bd0 f i libucrtd:output.obj
 0001:00062c10       ?has_flag@?$output_processor@_WV?$string_output_adapter@_W@__crt_stdio_output@@V?$standard_base@_WV?$string_output_adapter@_W@__crt_stdio_output@@@2@@__crt_stdio_output@@AEBA_NI@Z 0000000180063c10 f i libucrtd:output.obj
 0001:00062c50       ?is_positional_parameter_reappearance_consistent@?$positional_parameter_base@DV?$stream_output_adapter@D@__crt_stdio_output@@@__crt_stdio_output@@AEAA_NAEBUparameter_data@12@W4parameter_type@12@DW4length_modifier@2@@Z 0000000180063c50 f i libucrtd:output.obj
 0001:00062eb0       ?is_positional_parameter_reappearance_consistent@?$positional_parameter_base@DV?$string_output_adapter@D@__crt_stdio_output@@@__crt_stdio_output@@AEAA_NAEBUparameter_data@12@W4parameter_type@12@DW4length_modifier@2@@Z 0000000180063eb0 f i libucrtd:output.obj
 0001:00063110       ?is_positional_parameter_reappearance_consistent@?$positional_parameter_base@_WV?$stream_output_adapter@_W@__crt_stdio_output@@@__crt_stdio_output@@AEAA_NAEBUparameter_data@12@W4parameter_type@12@_WW4length_modifier@2@@Z 0000000180064110 f i libucrtd:output.obj
 0001:00063370       ?is_positional_parameter_reappearance_consistent@?$positional_parameter_base@_WV?$string_output_adapter@_W@__crt_stdio_output@@@__crt_stdio_output@@AEAA_NAEBUparameter_data@12@W4parameter_type@12@_WW4length_modifier@2@@Z 0000000180064370 f i libucrtd:output.obj
 0001:000635d0       ?is_string_backed@__crt_stdio_stream@@QEBA_NXZ 00000001800645d0 f i libucrtd:output.obj
 0001:00063610       ?narrow_null_string@?$output_processor@DV?$stream_output_adapter@D@__crt_stdio_output@@V?$format_validation_base@DV?$stream_output_adapter@D@__crt_stdio_output@@@2@@__crt_stdio_output@@CAPEADXZ 0000000180064610 f i libucrtd:output.obj
 0001:00063620       ?narrow_null_string@?$output_processor@DV?$stream_output_adapter@D@__crt_stdio_output@@V?$positional_parameter_base@DV?$stream_output_adapter@D@__crt_stdio_output@@@2@@__crt_stdio_output@@CAPEADXZ 0000000180064620 f i libucrtd:output.obj
 0001:00063630       ?narrow_null_string@?$output_processor@DV?$stream_output_adapter@D@__crt_stdio_output@@V?$standard_base@DV?$stream_output_adapter@D@__crt_stdio_output@@@2@@__crt_stdio_output@@CAPEADXZ 0000000180064630 f i libucrtd:output.obj
 0001:00063640       ?narrow_null_string@?$output_processor@DV?$string_output_adapter@D@__crt_stdio_output@@V?$format_validation_base@DV?$string_output_adapter@D@__crt_stdio_output@@@2@@__crt_stdio_output@@CAPEADXZ 0000000180064640 f i libucrtd:output.obj
 0001:00063650       ?narrow_null_string@?$output_processor@DV?$string_output_adapter@D@__crt_stdio_output@@V?$positional_parameter_base@DV?$string_output_adapter@D@__crt_stdio_output@@@2@@__crt_stdio_output@@CAPEADXZ 0000000180064650 f i libucrtd:output.obj
 0001:00063660       ?narrow_null_string@?$output_processor@DV?$string_output_adapter@D@__crt_stdio_output@@V?$standard_base@DV?$string_output_adapter@D@__crt_stdio_output@@@2@@__crt_stdio_output@@CAPEADXZ 0000000180064660 f i libucrtd:output.obj
 0001:00063670       ?narrow_null_string@?$output_processor@_WV?$stream_output_adapter@_W@__crt_stdio_output@@V?$format_validation_base@_WV?$stream_output_adapter@_W@__crt_stdio_output@@@2@@__crt_stdio_output@@CAPEADXZ 0000000180064670 f i libucrtd:output.obj
 0001:00063680       ?narrow_null_string@?$output_processor@_WV?$stream_output_adapter@_W@__crt_stdio_output@@V?$positional_parameter_base@_WV?$stream_output_adapter@_W@__crt_stdio_output@@@2@@__crt_stdio_output@@CAPEADXZ 0000000180064680 f i libucrtd:output.obj
 0001:00063690       ?narrow_null_string@?$output_processor@_WV?$stream_output_adapter@_W@__crt_stdio_output@@V?$standard_base@_WV?$stream_output_adapter@_W@__crt_stdio_output@@@2@@__crt_stdio_output@@CAPEADXZ 0000000180064690 f i libucrtd:output.obj
 0001:000636a0       ?narrow_null_string@?$output_processor@_WV?$string_output_adapter@_W@__crt_stdio_output@@V?$format_validation_base@_WV?$string_output_adapter@_W@__crt_stdio_output@@@2@@__crt_stdio_output@@CAPEADXZ 00000001800646a0 f i libucrtd:output.obj
 0001:000636b0       ?narrow_null_string@?$output_processor@_WV?$string_output_adapter@_W@__crt_stdio_output@@V?$positional_parameter_base@_WV?$string_output_adapter@_W@__crt_stdio_output@@@2@@__crt_stdio_output@@CAPEADXZ 00000001800646b0 f i libucrtd:output.obj
 0001:000636c0       ?narrow_null_string@?$output_processor@_WV?$string_output_adapter@_W@__crt_stdio_output@@V?$standard_base@_WV?$string_output_adapter@_W@__crt_stdio_output@@@2@@__crt_stdio_output@@CAPEADXZ 00000001800646c0 f i libucrtd:output.obj
 0001:000636d0       ?parse_int_from_format_string@?$output_processor@DV?$stream_output_adapter@D@__crt_stdio_output@@V?$format_validation_base@DV?$stream_output_adapter@D@__crt_stdio_output@@@2@@__crt_stdio_output@@AEAA_NQEAH@Z 00000001800646d0 f i libucrtd:output.obj
 0001:000637c0       ?parse_int_from_format_string@?$output_processor@DV?$stream_output_adapter@D@__crt_stdio_output@@V?$positional_parameter_base@DV?$stream_output_adapter@D@__crt_stdio_output@@@2@@__crt_stdio_output@@AEAA_NQEAH@Z 00000001800647c0 f i libucrtd:output.obj
 0001:000638b0       ?parse_int_from_format_string@?$output_processor@DV?$stream_output_adapter@D@__crt_stdio_output@@V?$standard_base@DV?$stream_output_adapter@D@__crt_stdio_output@@@2@@__crt_stdio_output@@AEAA_NQEAH@Z 00000001800648b0 f i libucrtd:output.obj
 0001:000639a0       ?parse_int_from_format_string@?$output_processor@DV?$string_output_adapter@D@__crt_stdio_output@@V?$format_validation_base@DV?$string_output_adapter@D@__crt_stdio_output@@@2@@__crt_stdio_output@@AEAA_NQEAH@Z 00000001800649a0 f i libucrtd:output.obj
 0001:00063a90       ?parse_int_from_format_string@?$output_processor@DV?$string_output_adapter@D@__crt_stdio_output@@V?$positional_parameter_base@DV?$string_output_adapter@D@__crt_stdio_output@@@2@@__crt_stdio_output@@AEAA_NQEAH@Z 0000000180064a90 f i libucrtd:output.obj
 0001:00063b80       ?parse_int_from_format_string@?$output_processor@DV?$string_output_adapter@D@__crt_stdio_output@@V?$standard_base@DV?$string_output_adapter@D@__crt_stdio_output@@@2@@__crt_stdio_output@@AEAA_NQEAH@Z 0000000180064b80 f i libucrtd:output.obj
 0001:00063c70       ?parse_int_from_format_string@?$output_processor@_WV?$stream_output_adapter@_W@__crt_stdio_output@@V?$format_validation_base@_WV?$stream_output_adapter@_W@__crt_stdio_output@@@2@@__crt_stdio_output@@AEAA_NQEAH@Z 0000000180064c70 f i libucrtd:output.obj
 0001:00063d60       ?parse_int_from_format_string@?$output_processor@_WV?$stream_output_adapter@_W@__crt_stdio_output@@V?$positional_parameter_base@_WV?$stream_output_adapter@_W@__crt_stdio_output@@@2@@__crt_stdio_output@@AEAA_NQEAH@Z 0000000180064d60 f i libucrtd:output.obj
 0001:00063e50       ?parse_int_from_format_string@?$output_processor@_WV?$stream_output_adapter@_W@__crt_stdio_output@@V?$standard_base@_WV?$stream_output_adapter@_W@__crt_stdio_output@@@2@@__crt_stdio_output@@AEAA_NQEAH@Z 0000000180064e50 f i libucrtd:output.obj
 0001:00063f40       ?parse_int_from_format_string@?$output_processor@_WV?$string_output_adapter@_W@__crt_stdio_output@@V?$format_validation_base@_WV?$string_output_adapter@_W@__crt_stdio_output@@@2@@__crt_stdio_output@@AEAA_NQEAH@Z 0000000180064f40 f i libucrtd:output.obj
 0001:00064030       ?parse_int_from_format_string@?$output_processor@_WV?$string_output_adapter@_W@__crt_stdio_output@@V?$positional_parameter_base@_WV?$string_output_adapter@_W@__crt_stdio_output@@@2@@__crt_stdio_output@@AEAA_NQEAH@Z 0000000180065030 f i libucrtd:output.obj
 0001:00064120       ?parse_int_from_format_string@?$output_processor@_WV?$string_output_adapter@_W@__crt_stdio_output@@V?$standard_base@_WV?$string_output_adapter@_W@__crt_stdio_output@@@2@@__crt_stdio_output@@AEAA_NQEAH@Z 0000000180065120 f i libucrtd:output.obj
 0001:00064210       ?process@?$output_processor@DV?$stream_output_adapter@D@__crt_stdio_output@@V?$format_validation_base@DV?$stream_output_adapter@D@__crt_stdio_output@@@2@@__crt_stdio_output@@QEAAHXZ 0000000180065210 f i libucrtd:output.obj
 0001:00064570       ?process@?$output_processor@DV?$stream_output_adapter@D@__crt_stdio_output@@V?$positional_parameter_base@DV?$stream_output_adapter@D@__crt_stdio_output@@@2@@__crt_stdio_output@@QEAAHXZ 0000000180065570 f i libucrtd:output.obj
 0001:000648d0       ?process@?$output_processor@DV?$stream_output_adapter@D@__crt_stdio_output@@V?$standard_base@DV?$stream_output_adapter@D@__crt_stdio_output@@@2@@__crt_stdio_output@@QEAAHXZ 00000001800658d0 f i libucrtd:output.obj
 0001:00064c30       ?process@?$output_processor@DV?$string_output_adapter@D@__crt_stdio_output@@V?$format_validation_base@DV?$string_output_adapter@D@__crt_stdio_output@@@2@@__crt_stdio_output@@QEAAHXZ 0000000180065c30 f i libucrtd:output.obj
 0001:00064f90       ?process@?$output_processor@DV?$string_output_adapter@D@__crt_stdio_output@@V?$positional_parameter_base@DV?$string_output_adapter@D@__crt_stdio_output@@@2@@__crt_stdio_output@@QEAAHXZ 0000000180065f90 f i libucrtd:output.obj
 0001:000652f0       ?process@?$output_processor@DV?$string_output_adapter@D@__crt_stdio_output@@V?$standard_base@DV?$string_output_adapter@D@__crt_stdio_output@@@2@@__crt_stdio_output@@QEAAHXZ 00000001800662f0 f i libucrtd:output.obj
 0001:00065650       ?process@?$output_processor@_WV?$stream_output_adapter@_W@__crt_stdio_output@@V?$format_validation_base@_WV?$stream_output_adapter@_W@__crt_stdio_output@@@2@@__crt_stdio_output@@QEAAHXZ 0000000180066650 f i libucrtd:output.obj
 0001:000659b0       ?process@?$output_processor@_WV?$stream_output_adapter@_W@__crt_stdio_output@@V?$positional_parameter_base@_WV?$stream_output_adapter@_W@__crt_stdio_output@@@2@@__crt_stdio_output@@QEAAHXZ 00000001800669b0 f i libucrtd:output.obj
 0001:00065d10       ?process@?$output_processor@_WV?$stream_output_adapter@_W@__crt_stdio_output@@V?$standard_base@_WV?$stream_output_adapter@_W@__crt_stdio_output@@@2@@__crt_stdio_output@@QEAAHXZ 0000000180066d10 f i libucrtd:output.obj
 0001:00066070       ?process@?$output_processor@_WV?$string_output_adapter@_W@__crt_stdio_output@@V?$format_validation_base@_WV?$string_output_adapter@_W@__crt_stdio_output@@@2@@__crt_stdio_output@@QEAAHXZ 0000000180067070 f i libucrtd:output.obj
 0001:000663d0       ?process@?$output_processor@_WV?$string_output_adapter@_W@__crt_stdio_output@@V?$positional_parameter_base@_WV?$string_output_adapter@_W@__crt_stdio_output@@@2@@__crt_stdio_output@@QEAAHXZ 00000001800673d0 f i libucrtd:output.obj
 0001:00066730       ?process@?$output_processor@_WV?$string_output_adapter@_W@__crt_stdio_output@@V?$standard_base@_WV?$string_output_adapter@_W@__crt_stdio_output@@@2@@__crt_stdio_output@@QEAAHXZ 0000000180067730 f i libucrtd:output.obj
 0001:00066a90       ?public_stream@__crt_stdio_stream@@QEBAPEAU_iobuf@@XZ 0000000180067a90 f i libucrtd:output.obj
 0001:00066aa0       ?set_flag@?$output_processor@DV?$stream_output_adapter@D@__crt_stdio_output@@V?$format_validation_base@DV?$stream_output_adapter@D@__crt_stdio_output@@@2@@__crt_stdio_output@@AEAAXI@Z 0000000180067aa0 f i libucrtd:output.obj
 0001:00066ac0       ?set_flag@?$output_processor@DV?$stream_output_adapter@D@__crt_stdio_output@@V?$positional_parameter_base@DV?$stream_output_adapter@D@__crt_stdio_output@@@2@@__crt_stdio_output@@AEAAXI@Z 0000000180067ac0 f i libucrtd:output.obj
 0001:00066ae0       ?set_flag@?$output_processor@DV?$stream_output_adapter@D@__crt_stdio_output@@V?$standard_base@DV?$stream_output_adapter@D@__crt_stdio_output@@@2@@__crt_stdio_output@@AEAAXI@Z 0000000180067ae0 f i libucrtd:output.obj
 0001:00066b00       ?set_flag@?$output_processor@DV?$string_output_adapter@D@__crt_stdio_output@@V?$format_validation_base@DV?$string_output_adapter@D@__crt_stdio_output@@@2@@__crt_stdio_output@@AEAAXI@Z 0000000180067b00 f i libucrtd:output.obj
 0001:00066b20       ?set_flag@?$output_processor@DV?$string_output_adapter@D@__crt_stdio_output@@V?$positional_parameter_base@DV?$string_output_adapter@D@__crt_stdio_output@@@2@@__crt_stdio_output@@AEAAXI@Z 0000000180067b20 f i libucrtd:output.obj
 0001:00066b40       ?set_flag@?$output_processor@DV?$string_output_adapter@D@__crt_stdio_output@@V?$standard_base@DV?$string_output_adapter@D@__crt_stdio_output@@@2@@__crt_stdio_output@@AEAAXI@Z 0000000180067b40 f i libucrtd:output.obj
 0001:00066b60       ?set_flag@?$output_processor@_WV?$stream_output_adapter@_W@__crt_stdio_output@@V?$format_validation_base@_WV?$stream_output_adapter@_W@__crt_stdio_output@@@2@@__crt_stdio_output@@AEAAXI@Z 0000000180067b60 f i libucrtd:output.obj
 0001:00066b80       ?set_flag@?$output_processor@_WV?$stream_output_adapter@_W@__crt_stdio_output@@V?$positional_parameter_base@_WV?$stream_output_adapter@_W@__crt_stdio_output@@@2@@__crt_stdio_output@@AEAAXI@Z 0000000180067b80 f i libucrtd:output.obj
 0001:00066ba0       ?set_flag@?$output_processor@_WV?$stream_output_adapter@_W@__crt_stdio_output@@V?$standard_base@_WV?$stream_output_adapter@_W@__crt_stdio_output@@@2@@__crt_stdio_output@@AEAAXI@Z 0000000180067ba0 f i libucrtd:output.obj
 0001:00066bc0       ?set_flag@?$output_processor@_WV?$string_output_adapter@_W@__crt_stdio_output@@V?$format_validation_base@_WV?$string_output_adapter@_W@__crt_stdio_output@@@2@@__crt_stdio_output@@AEAAXI@Z 0000000180067bc0 f i libucrtd:output.obj
 0001:00066be0       ?set_flag@?$output_processor@_WV?$string_output_adapter@_W@__crt_stdio_output@@V?$positional_parameter_base@_WV?$string_output_adapter@_W@__crt_stdio_output@@@2@@__crt_stdio_output@@AEAAXI@Z 0000000180067be0 f i libucrtd:output.obj
 0001:00066c00       ?set_flag@?$output_processor@_WV?$string_output_adapter@_W@__crt_stdio_output@@V?$standard_base@_WV?$string_output_adapter@_W@__crt_stdio_output@@@2@@__crt_stdio_output@@AEAAXI@Z 0000000180067c00 f i libucrtd:output.obj
 0001:00066c20       ?should_format@?$positional_parameter_base@DV?$stream_output_adapter@D@__crt_stdio_output@@@__crt_stdio_output@@IEAA_NXZ 0000000180067c20 f i libucrtd:output.obj
 0001:00066c60       ?should_format@?$positional_parameter_base@DV?$string_output_adapter@D@__crt_stdio_output@@@__crt_stdio_output@@IEAA_NXZ 0000000180067c60 f i libucrtd:output.obj
 0001:00066ca0       ?should_format@?$positional_parameter_base@_WV?$stream_output_adapter@_W@__crt_stdio_output@@@__crt_stdio_output@@IEAA_NXZ 0000000180067ca0 f i libucrtd:output.obj
 0001:00066ce0       ?should_format@?$positional_parameter_base@_WV?$string_output_adapter@_W@__crt_stdio_output@@@__crt_stdio_output@@IEAA_NXZ 0000000180067ce0 f i libucrtd:output.obj
 0001:00066d20       ?should_format@?$standard_base@DV?$stream_output_adapter@D@__crt_stdio_output@@@__crt_stdio_output@@IEAA_NXZ 0000000180067d20 f i libucrtd:output.obj
 0001:00066d30       ?should_format@?$standard_base@DV?$string_output_adapter@D@__crt_stdio_output@@@__crt_stdio_output@@IEAA_NXZ 0000000180067d30 f i libucrtd:output.obj
 0001:00066d40       ?should_format@?$standard_base@_WV?$stream_output_adapter@_W@__crt_stdio_output@@@__crt_stdio_output@@IEAA_NXZ 0000000180067d40 f i libucrtd:output.obj
 0001:00066d50       ?should_format@?$standard_base@_WV?$string_output_adapter@_W@__crt_stdio_output@@@__crt_stdio_output@@IEAA_NXZ 0000000180067d50 f i libucrtd:output.obj
 0001:00066d60       ?should_skip_normal_state_processing@?$positional_parameter_base@DV?$stream_output_adapter@D@__crt_stdio_output@@@__crt_stdio_output@@IEAA_NXZ 0000000180067d60 f i libucrtd:output.obj
 0001:00066db0       ?should_skip_normal_state_processing@?$positional_parameter_base@DV?$string_output_adapter@D@__crt_stdio_output@@@__crt_stdio_output@@IEAA_NXZ 0000000180067db0 f i libucrtd:output.obj
 0001:00066e00       ?should_skip_normal_state_processing@?$positional_parameter_base@_WV?$stream_output_adapter@_W@__crt_stdio_output@@@__crt_stdio_output@@IEAA_NXZ 0000000180067e00 f i libucrtd:output.obj
 0001:00066e50       ?should_skip_normal_state_processing@?$positional_parameter_base@_WV?$string_output_adapter@_W@__crt_stdio_output@@@__crt_stdio_output@@IEAA_NXZ 0000000180067e50 f i libucrtd:output.obj
 0001:00066ea0       ?should_skip_normal_state_processing@?$standard_base@DV?$stream_output_adapter@D@__crt_stdio_output@@@__crt_stdio_output@@IEAA_NXZ 0000000180067ea0 f i libucrtd:output.obj
 0001:00066eb0       ?should_skip_normal_state_processing@?$standard_base@DV?$string_output_adapter@D@__crt_stdio_output@@@__crt_stdio_output@@IEAA_NXZ 0000000180067eb0 f i libucrtd:output.obj
 0001:00066ec0       ?should_skip_normal_state_processing@?$standard_base@_WV?$stream_output_adapter@_W@__crt_stdio_output@@@__crt_stdio_output@@IEAA_NXZ 0000000180067ec0 f i libucrtd:output.obj
 0001:00066ed0       ?should_skip_normal_state_processing@?$standard_base@_WV?$string_output_adapter@_W@__crt_stdio_output@@@__crt_stdio_output@@IEAA_NXZ 0000000180067ed0 f i libucrtd:output.obj
 0001:00066ee0       ?should_skip_type_state_output@?$positional_parameter_base@DV?$stream_output_adapter@D@__crt_stdio_output@@@__crt_stdio_output@@IEBA_NXZ 0000000180067ee0 f i libucrtd:output.obj
 0001:00066f20       ?should_skip_type_state_output@?$positional_parameter_base@DV?$string_output_adapter@D@__crt_stdio_output@@@__crt_stdio_output@@IEBA_NXZ 0000000180067f20 f i libucrtd:output.obj
 0001:00066f60       ?should_skip_type_state_output@?$positional_parameter_base@_WV?$stream_output_adapter@_W@__crt_stdio_output@@@__crt_stdio_output@@IEBA_NXZ 0000000180067f60 f i libucrtd:output.obj
 0001:00066fa0       ?should_skip_type_state_output@?$positional_parameter_base@_WV?$string_output_adapter@_W@__crt_stdio_output@@@__crt_stdio_output@@IEBA_NXZ 0000000180067fa0 f i libucrtd:output.obj
 0001:00066fe0       ?should_skip_type_state_output@?$standard_base@DV?$stream_output_adapter@D@__crt_stdio_output@@@__crt_stdio_output@@IEBA_NXZ 0000000180067fe0 f i libucrtd:output.obj
 0001:00066ff0       ?should_skip_type_state_output@?$standard_base@DV?$string_output_adapter@D@__crt_stdio_output@@@__crt_stdio_output@@IEBA_NXZ 0000000180067ff0 f i libucrtd:output.obj
 0001:00067000       ?should_skip_type_state_output@?$standard_base@_WV?$stream_output_adapter@_W@__crt_stdio_output@@@__crt_stdio_output@@IEBA_NXZ 0000000180068000 f i libucrtd:output.obj
 0001:00067010       ?should_skip_type_state_output@?$standard_base@_WV?$string_output_adapter@_W@__crt_stdio_output@@@__crt_stdio_output@@IEBA_NXZ 0000000180068010 f i libucrtd:output.obj
 0001:00067020       ?state_case_dot@?$output_processor@DV?$stream_output_adapter@D@__crt_stdio_output@@V?$format_validation_base@DV?$stream_output_adapter@D@__crt_stdio_output@@@2@@__crt_stdio_output@@AEAA_NXZ 0000000180068020 f i libucrtd:output.obj
 0001:00067040       ?state_case_dot@?$output_processor@DV?$stream_output_adapter@D@__crt_stdio_output@@V?$positional_parameter_base@DV?$stream_output_adapter@D@__crt_stdio_output@@@2@@__crt_stdio_output@@AEAA_NXZ 0000000180068040 f i libucrtd:output.obj
 0001:00067060       ?state_case_dot@?$output_processor@DV?$stream_output_adapter@D@__crt_stdio_output@@V?$standard_base@DV?$stream_output_adapter@D@__crt_stdio_output@@@2@@__crt_stdio_output@@AEAA_NXZ 0000000180068060 f i libucrtd:output.obj
 0001:00067080       ?state_case_dot@?$output_processor@DV?$string_output_adapter@D@__crt_stdio_output@@V?$format_validation_base@DV?$string_output_adapter@D@__crt_stdio_output@@@2@@__crt_stdio_output@@AEAA_NXZ 0000000180068080 f i libucrtd:output.obj
 0001:000670a0       ?state_case_dot@?$output_processor@DV?$string_output_adapter@D@__crt_stdio_output@@V?$positional_parameter_base@DV?$string_output_adapter@D@__crt_stdio_output@@@2@@__crt_stdio_output@@AEAA_NXZ 00000001800680a0 f i libucrtd:output.obj
 0001:000670c0       ?state_case_dot@?$output_processor@DV?$string_output_adapter@D@__crt_stdio_output@@V?$standard_base@DV?$string_output_adapter@D@__crt_stdio_output@@@2@@__crt_stdio_output@@AEAA_NXZ 00000001800680c0 f i libucrtd:output.obj
 0001:000670e0       ?state_case_dot@?$output_processor@_WV?$stream_output_adapter@_W@__crt_stdio_output@@V?$format_validation_base@_WV?$stream_output_adapter@_W@__crt_stdio_output@@@2@@__crt_stdio_output@@AEAA_NXZ 00000001800680e0 f i libucrtd:output.obj
 0001:00067100       ?state_case_dot@?$output_processor@_WV?$stream_output_adapter@_W@__crt_stdio_output@@V?$positional_parameter_base@_WV?$stream_output_adapter@_W@__crt_stdio_output@@@2@@__crt_stdio_output@@AEAA_NXZ 0000000180068100 f i libucrtd:output.obj
 0001:00067120       ?state_case_dot@?$output_processor@_WV?$stream_output_adapter@_W@__crt_stdio_output@@V?$standard_base@_WV?$stream_output_adapter@_W@__crt_stdio_output@@@2@@__crt_stdio_output@@AEAA_NXZ 0000000180068120 f i libucrtd:output.obj
 0001:00067140       ?state_case_dot@?$output_processor@_WV?$string_output_adapter@_W@__crt_stdio_output@@V?$format_validation_base@_WV?$string_output_adapter@_W@__crt_stdio_output@@@2@@__crt_stdio_output@@AEAA_NXZ 0000000180068140 f i libucrtd:output.obj
 0001:00067160       ?state_case_dot@?$output_processor@_WV?$string_output_adapter@_W@__crt_stdio_output@@V?$positional_parameter_base@_WV?$string_output_adapter@_W@__crt_stdio_output@@@2@@__crt_stdio_output@@AEAA_NXZ 0000000180068160 f i libucrtd:output.obj
 0001:00067180       ?state_case_dot@?$output_processor@_WV?$string_output_adapter@_W@__crt_stdio_output@@V?$standard_base@_WV?$string_output_adapter@_W@__crt_stdio_output@@@2@@__crt_stdio_output@@AEAA_NXZ 0000000180068180 f i libucrtd:output.obj
 0001:000671a0       ?state_case_flag@?$output_processor@DV?$stream_output_adapter@D@__crt_stdio_output@@V?$format_validation_base@DV?$stream_output_adapter@D@__crt_stdio_output@@@2@@__crt_stdio_output@@AEAA_NXZ 00000001800681a0 f i libucrtd:output.obj
 0001:00067240       ?state_case_flag@?$output_processor@DV?$stream_output_adapter@D@__crt_stdio_output@@V?$positional_parameter_base@DV?$stream_output_adapter@D@__crt_stdio_output@@@2@@__crt_stdio_output@@AEAA_NXZ 0000000180068240 f i libucrtd:output.obj
 0001:000672e0       ?state_case_flag@?$output_processor@DV?$stream_output_adapter@D@__crt_stdio_output@@V?$standard_base@DV?$stream_output_adapter@D@__crt_stdio_output@@@2@@__crt_stdio_output@@AEAA_NXZ 00000001800682e0 f i libucrtd:output.obj
 0001:00067380       ?state_case_flag@?$output_processor@DV?$string_output_adapter@D@__crt_stdio_output@@V?$format_validation_base@DV?$string_output_adapter@D@__crt_stdio_output@@@2@@__crt_stdio_output@@AEAA_NXZ 0000000180068380 f i libucrtd:output.obj
 0001:00067420       ?state_case_flag@?$output_processor@DV?$string_output_adapter@D@__crt_stdio_output@@V?$positional_parameter_base@DV?$string_output_adapter@D@__crt_stdio_output@@@2@@__crt_stdio_output@@AEAA_NXZ 0000000180068420 f i libucrtd:output.obj
 0001:000674c0       ?state_case_flag@?$output_processor@DV?$string_output_adapter@D@__crt_stdio_output@@V?$standard_base@DV?$string_output_adapter@D@__crt_stdio_output@@@2@@__crt_stdio_output@@AEAA_NXZ 00000001800684c0 f i libucrtd:output.obj
 0001:00067560       ?state_case_flag@?$output_processor@_WV?$stream_output_adapter@_W@__crt_stdio_output@@V?$format_validation_base@_WV?$stream_output_adapter@_W@__crt_stdio_output@@@2@@__crt_stdio_output@@AEAA_NXZ 0000000180068560 f i libucrtd:output.obj
 0001:00067600       ?state_case_flag@?$output_processor@_WV?$stream_output_adapter@_W@__crt_stdio_output@@V?$positional_parameter_base@_WV?$stream_output_adapter@_W@__crt_stdio_output@@@2@@__crt_stdio_output@@AEAA_NXZ 0000000180068600 f i libucrtd:output.obj
 0001:000676a0       ?state_case_flag@?$output_processor@_WV?$stream_output_adapter@_W@__crt_stdio_output@@V?$standard_base@_WV?$stream_output_adapter@_W@__crt_stdio_output@@@2@@__crt_stdio_output@@AEAA_NXZ 00000001800686a0 f i libucrtd:output.obj
 0001:00067740       ?state_case_flag@?$output_processor@_WV?$string_output_adapter@_W@__crt_stdio_output@@V?$format_validation_base@_WV?$string_output_adapter@_W@__crt_stdio_output@@@2@@__crt_stdio_output@@AEAA_NXZ 0000000180068740 f i libucrtd:output.obj
 0001:000677e0       ?state_case_flag@?$output_processor@_WV?$string_output_adapter@_W@__crt_stdio_output@@V?$positional_parameter_base@_WV?$string_output_adapter@_W@__crt_stdio_output@@@2@@__crt_stdio_output@@AEAA_NXZ 00000001800687e0 f i libucrtd:output.obj
 0001:00067880       ?state_case_flag@?$output_processor@_WV?$string_output_adapter@_W@__crt_stdio_output@@V?$standard_base@_WV?$string_output_adapter@_W@__crt_stdio_output@@@2@@__crt_stdio_output@@AEAA_NXZ 0000000180068880 f i libucrtd:output.obj
 0001:00067920       ?state_case_normal@?$output_processor@DV?$stream_output_adapter@D@__crt_stdio_output@@V?$format_validation_base@DV?$stream_output_adapter@D@__crt_stdio_output@@@2@@__crt_stdio_output@@AEAA_NXZ 0000000180068920 f i libucrtd:output.obj
 0001:00067a00       ?state_case_normal@?$output_processor@DV?$stream_output_adapter@D@__crt_stdio_output@@V?$positional_parameter_base@DV?$stream_output_adapter@D@__crt_stdio_output@@@2@@__crt_stdio_output@@AEAA_NXZ 0000000180068a00 f i libucrtd:output.obj
 0001:00067ae0       ?state_case_normal@?$output_processor@DV?$stream_output_adapter@D@__crt_stdio_output@@V?$standard_base@DV?$stream_output_adapter@D@__crt_stdio_output@@@2@@__crt_stdio_output@@AEAA_NXZ 0000000180068ae0 f i libucrtd:output.obj
 0001:00067bc0       ?state_case_normal@?$output_processor@DV?$string_output_adapter@D@__crt_stdio_output@@V?$format_validation_base@DV?$string_output_adapter@D@__crt_stdio_output@@@2@@__crt_stdio_output@@AEAA_NXZ 0000000180068bc0 f i libucrtd:output.obj
 0001:00067ca0       ?state_case_normal@?$output_processor@DV?$string_output_adapter@D@__crt_stdio_output@@V?$positional_parameter_base@DV?$string_output_adapter@D@__crt_stdio_output@@@2@@__crt_stdio_output@@AEAA_NXZ 0000000180068ca0 f i libucrtd:output.obj
 0001:00067d80       ?state_case_normal@?$output_processor@DV?$string_output_adapter@D@__crt_stdio_output@@V?$standard_base@DV?$string_output_adapter@D@__crt_stdio_output@@@2@@__crt_stdio_output@@AEAA_NXZ 0000000180068d80 f i libucrtd:output.obj
 0001:00067e60       ?state_case_normal@?$output_processor@_WV?$stream_output_adapter@_W@__crt_stdio_output@@V?$format_validation_base@_WV?$stream_output_adapter@_W@__crt_stdio_output@@@2@@__crt_stdio_output@@AEAA_NXZ 0000000180068e60 f i libucrtd:output.obj
 0001:00067f40       ?state_case_normal@?$output_processor@_WV?$stream_output_adapter@_W@__crt_stdio_output@@V?$positional_parameter_base@_WV?$stream_output_adapter@_W@__crt_stdio_output@@@2@@__crt_stdio_output@@AEAA_NXZ 0000000180068f40 f i libucrtd:output.obj
 0001:00068020       ?state_case_normal@?$output_processor@_WV?$stream_output_adapter@_W@__crt_stdio_output@@V?$standard_base@_WV?$stream_output_adapter@_W@__crt_stdio_output@@@2@@__crt_stdio_output@@AEAA_NXZ 0000000180069020 f i libucrtd:output.obj
 0001:00068100       ?state_case_normal@?$output_processor@_WV?$string_output_adapter@_W@__crt_stdio_output@@V?$format_validation_base@_WV?$string_output_adapter@_W@__crt_stdio_output@@@2@@__crt_stdio_output@@AEAA_NXZ 0000000180069100 f i libucrtd:output.obj
 0001:000681e0       ?state_case_normal@?$output_processor@_WV?$string_output_adapter@_W@__crt_stdio_output@@V?$positional_parameter_base@_WV?$string_output_adapter@_W@__crt_stdio_output@@@2@@__crt_stdio_output@@AEAA_NXZ 00000001800691e0 f i libucrtd:output.obj
 0001:000682c0       ?state_case_normal@?$output_processor@_WV?$string_output_adapter@_W@__crt_stdio_output@@V?$standard_base@_WV?$string_output_adapter@_W@__crt_stdio_output@@@2@@__crt_stdio_output@@AEAA_NXZ 00000001800692c0 f i libucrtd:output.obj
 0001:000683a0       ?state_case_normal_common@?$output_processor@DV?$stream_output_adapter@D@__crt_stdio_output@@V?$format_validation_base@DV?$stream_output_adapter@D@__crt_stdio_output@@@2@@__crt_stdio_output@@AEAA_NXZ 00000001800693a0 f i libucrtd:output.obj
 0001:000683f0       ?state_case_normal_common@?$output_processor@DV?$stream_output_adapter@D@__crt_stdio_output@@V?$positional_parameter_base@DV?$stream_output_adapter@D@__crt_stdio_output@@@2@@__crt_stdio_output@@AEAA_NXZ 00000001800693f0 f i libucrtd:output.obj
 0001:00068440       ?state_case_normal_common@?$output_processor@DV?$stream_output_adapter@D@__crt_stdio_output@@V?$standard_base@DV?$stream_output_adapter@D@__crt_stdio_output@@@2@@__crt_stdio_output@@AEAA_NXZ 0000000180069440 f i libucrtd:output.obj
 0001:00068490       ?state_case_normal_common@?$output_processor@DV?$string_output_adapter@D@__crt_stdio_output@@V?$format_validation_base@DV?$string_output_adapter@D@__crt_stdio_output@@@2@@__crt_stdio_output@@AEAA_NXZ 0000000180069490 f i libucrtd:output.obj
 0001:000684e0       ?state_case_normal_common@?$output_processor@DV?$string_output_adapter@D@__crt_stdio_output@@V?$positional_parameter_base@DV?$string_output_adapter@D@__crt_stdio_output@@@2@@__crt_stdio_output@@AEAA_NXZ 00000001800694e0 f i libucrtd:output.obj
 0001:00068530       ?state_case_normal_common@?$output_processor@DV?$string_output_adapter@D@__crt_stdio_output@@V?$standard_base@DV?$string_output_adapter@D@__crt_stdio_output@@@2@@__crt_stdio_output@@AEAA_NXZ 0000000180069530 f i libucrtd:output.obj
 0001:00068580       ?state_case_normal_common@?$output_processor@_WV?$stream_output_adapter@_W@__crt_stdio_output@@V?$format_validation_base@_WV?$stream_output_adapter@_W@__crt_stdio_output@@@2@@__crt_stdio_output@@AEAA_NXZ 0000000180069580 f i libucrtd:output.obj
 0001:000685d0       ?state_case_normal_common@?$output_processor@_WV?$stream_output_adapter@_W@__crt_stdio_output@@V?$positional_parameter_base@_WV?$stream_output_adapter@_W@__crt_stdio_output@@@2@@__crt_stdio_output@@AEAA_NXZ 00000001800695d0 f i libucrtd:output.obj
 0001:00068620       ?state_case_normal_common@?$output_processor@_WV?$stream_output_adapter@_W@__crt_stdio_output@@V?$standard_base@_WV?$stream_output_adapter@_W@__crt_stdio_output@@@2@@__crt_stdio_output@@AEAA_NXZ 0000000180069620 f i libucrtd:output.obj
 0001:00068670       ?state_case_normal_common@?$output_processor@_WV?$string_output_adapter@_W@__crt_stdio_output@@V?$format_validation_base@_WV?$string_output_adapter@_W@__crt_stdio_output@@@2@@__crt_stdio_output@@AEAA_NXZ 0000000180069670 f i libucrtd:output.obj
 0001:000686c0       ?state_case_normal_common@?$output_processor@_WV?$string_output_adapter@_W@__crt_stdio_output@@V?$positional_parameter_base@_WV?$string_output_adapter@_W@__crt_stdio_output@@@2@@__crt_stdio_output@@AEAA_NXZ 00000001800696c0 f i libucrtd:output.obj
 0001:00068710       ?state_case_normal_common@?$output_processor@_WV?$string_output_adapter@_W@__crt_stdio_output@@V?$standard_base@_WV?$string_output_adapter@_W@__crt_stdio_output@@@2@@__crt_stdio_output@@AEAA_NXZ 0000000180069710 f i libucrtd:output.obj
 0001:00068760       ?state_case_normal_tchar@?$output_processor@DV?$stream_output_adapter@D@__crt_stdio_output@@V?$format_validation_base@DV?$stream_output_adapter@D@__crt_stdio_output@@@2@@__crt_stdio_output@@AEAA_ND@Z 0000000180069760 f i libucrtd:output.obj
 0001:000688a0       ?state_case_normal_tchar@?$output_processor@DV?$stream_output_adapter@D@__crt_stdio_output@@V?$positional_parameter_base@DV?$stream_output_adapter@D@__crt_stdio_output@@@2@@__crt_stdio_output@@AEAA_ND@Z 00000001800698a0 f i libucrtd:output.obj
 0001:000689e0       ?state_case_normal_tchar@?$output_processor@DV?$stream_output_adapter@D@__crt_stdio_output@@V?$standard_base@DV?$stream_output_adapter@D@__crt_stdio_output@@@2@@__crt_stdio_output@@AEAA_ND@Z 00000001800699e0 f i libucrtd:output.obj
 0001:00068b20       ?state_case_normal_tchar@?$output_processor@DV?$string_output_adapter@D@__crt_stdio_output@@V?$format_validation_base@DV?$string_output_adapter@D@__crt_stdio_output@@@2@@__crt_stdio_output@@AEAA_ND@Z 0000000180069b20 f i libucrtd:output.obj
 0001:00068c60       ?state_case_normal_tchar@?$output_processor@DV?$string_output_adapter@D@__crt_stdio_output@@V?$positional_parameter_base@DV?$string_output_adapter@D@__crt_stdio_output@@@2@@__crt_stdio_output@@AEAA_ND@Z 0000000180069c60 f i libucrtd:output.obj
 0001:00068da0       ?state_case_normal_tchar@?$output_processor@DV?$string_output_adapter@D@__crt_stdio_output@@V?$standard_base@DV?$string_output_adapter@D@__crt_stdio_output@@@2@@__crt_stdio_output@@AEAA_ND@Z 0000000180069da0 f i libucrtd:output.obj
 0001:00068ee0       ?state_case_normal_tchar@?$output_processor@_WV?$stream_output_adapter@_W@__crt_stdio_output@@V?$format_validation_base@_WV?$stream_output_adapter@_W@__crt_stdio_output@@@2@@__crt_stdio_output@@AEAA_N_W@Z 0000000180069ee0 f i libucrtd:output.obj
 0001:00068f00       ?state_case_normal_tchar@?$output_processor@_WV?$stream_output_adapter@_W@__crt_stdio_output@@V?$positional_parameter_base@_WV?$stream_output_adapter@_W@__crt_stdio_output@@@2@@__crt_stdio_output@@AEAA_N_W@Z 0000000180069f00 f i libucrtd:output.obj
 0001:00068f20       ?state_case_normal_tchar@?$output_processor@_WV?$stream_output_adapter@_W@__crt_stdio_output@@V?$standard_base@_WV?$stream_output_adapter@_W@__crt_stdio_output@@@2@@__crt_stdio_output@@AEAA_N_W@Z 0000000180069f20 f i libucrtd:output.obj
 0001:00068f40       ?state_case_normal_tchar@?$output_processor@_WV?$string_output_adapter@_W@__crt_stdio_output@@V?$format_validation_base@_WV?$string_output_adapter@_W@__crt_stdio_output@@@2@@__crt_stdio_output@@AEAA_N_W@Z 0000000180069f40 f i libucrtd:output.obj
 0001:00068f60       ?state_case_normal_tchar@?$output_processor@_WV?$string_output_adapter@_W@__crt_stdio_output@@V?$positional_parameter_base@_WV?$string_output_adapter@_W@__crt_stdio_output@@@2@@__crt_stdio_output@@AEAA_N_W@Z 0000000180069f60 f i libucrtd:output.obj
 0001:00068f80       ?state_case_normal_tchar@?$output_processor@_WV?$string_output_adapter@_W@__crt_stdio_output@@V?$standard_base@_WV?$string_output_adapter@_W@__crt_stdio_output@@@2@@__crt_stdio_output@@AEAA_N_W@Z 0000000180069f80 f i libucrtd:output.obj
 0001:00068fa0       ?state_case_percent@?$output_processor@DV?$stream_output_adapter@D@__crt_stdio_output@@V?$format_validation_base@DV?$stream_output_adapter@D@__crt_stdio_output@@@2@@__crt_stdio_output@@AEAA_NXZ 0000000180069fa0 f i libucrtd:output.obj
 0001:00068ff0       ?state_case_percent@?$output_processor@DV?$stream_output_adapter@D@__crt_stdio_output@@V?$positional_parameter_base@DV?$stream_output_adapter@D@__crt_stdio_output@@@2@@__crt_stdio_output@@AEAA_NXZ 0000000180069ff0 f i libucrtd:output.obj
 0001:00069040       ?state_case_percent@?$output_processor@DV?$stream_output_adapter@D@__crt_stdio_output@@V?$standard_base@DV?$stream_output_adapter@D@__crt_stdio_output@@@2@@__crt_stdio_output@@AEAA_NXZ 000000018006a040 f i libucrtd:output.obj
 0001:00069090       ?state_case_percent@?$output_processor@DV?$string_output_adapter@D@__crt_stdio_output@@V?$format_validation_base@DV?$string_output_adapter@D@__crt_stdio_output@@@2@@__crt_stdio_output@@AEAA_NXZ 000000018006a090 f i libucrtd:output.obj
 0001:000690e0       ?state_case_percent@?$output_processor@DV?$string_output_adapter@D@__crt_stdio_output@@V?$positional_parameter_base@DV?$string_output_adapter@D@__crt_stdio_output@@@2@@__crt_stdio_output@@AEAA_NXZ 000000018006a0e0 f i libucrtd:output.obj
 0001:00069130       ?state_case_percent@?$output_processor@DV?$string_output_adapter@D@__crt_stdio_output@@V?$standard_base@DV?$string_output_adapter@D@__crt_stdio_output@@@2@@__crt_stdio_output@@AEAA_NXZ 000000018006a130 f i libucrtd:output.obj
 0001:00069180       ?state_case_percent@?$output_processor@_WV?$stream_output_adapter@_W@__crt_stdio_output@@V?$format_validation_base@_WV?$stream_output_adapter@_W@__crt_stdio_output@@@2@@__crt_stdio_output@@AEAA_NXZ 000000018006a180 f i libucrtd:output.obj
 0001:000691d0       ?state_case_percent@?$output_processor@_WV?$stream_output_adapter@_W@__crt_stdio_output@@V?$positional_parameter_base@_WV?$stream_output_adapter@_W@__crt_stdio_output@@@2@@__crt_stdio_output@@AEAA_NXZ 000000018006a1d0 f i libucrtd:output.obj
 0001:00069220       ?state_case_percent@?$output_processor@_WV?$stream_output_adapter@_W@__crt_stdio_output@@V?$standard_base@_WV?$stream_output_adapter@_W@__crt_stdio_output@@@2@@__crt_stdio_output@@AEAA_NXZ 000000018006a220 f i libucrtd:output.obj
 0001:00069270       ?state_case_percent@?$output_processor@_WV?$string_output_adapter@_W@__crt_stdio_output@@V?$format_validation_base@_WV?$string_output_adapter@_W@__crt_stdio_output@@@2@@__crt_stdio_output@@AEAA_NXZ 000000018006a270 f i libucrtd:output.obj
 0001:000692c0       ?state_case_percent@?$output_processor@_WV?$string_output_adapter@_W@__crt_stdio_output@@V?$positional_parameter_base@_WV?$string_output_adapter@_W@__crt_stdio_output@@@2@@__crt_stdio_output@@AEAA_NXZ 000000018006a2c0 f i libucrtd:output.obj
 0001:00069310       ?state_case_percent@?$output_processor@_WV?$string_output_adapter@_W@__crt_stdio_output@@V?$standard_base@_WV?$string_output_adapter@_W@__crt_stdio_output@@@2@@__crt_stdio_output@@AEAA_NXZ 000000018006a310 f i libucrtd:output.obj
 0001:00069360       ?state_case_precision@?$output_processor@DV?$stream_output_adapter@D@__crt_stdio_output@@V?$format_validation_base@DV?$stream_output_adapter@D@__crt_stdio_output@@@2@@__crt_stdio_output@@AEAA_NXZ 000000018006a360 f i libucrtd:output.obj
 0001:000693e0       ?state_case_precision@?$output_processor@DV?$stream_output_adapter@D@__crt_stdio_output@@V?$positional_parameter_base@DV?$stream_output_adapter@D@__crt_stdio_output@@@2@@__crt_stdio_output@@AEAA_NXZ 000000018006a3e0 f i libucrtd:output.obj
 0001:00069460       ?state_case_precision@?$output_processor@DV?$stream_output_adapter@D@__crt_stdio_output@@V?$standard_base@DV?$stream_output_adapter@D@__crt_stdio_output@@@2@@__crt_stdio_output@@AEAA_NXZ 000000018006a460 f i libucrtd:output.obj
 0001:000694e0       ?state_case_precision@?$output_processor@DV?$string_output_adapter@D@__crt_stdio_output@@V?$format_validation_base@DV?$string_output_adapter@D@__crt_stdio_output@@@2@@__crt_stdio_output@@AEAA_NXZ 000000018006a4e0 f i libucrtd:output.obj
 0001:00069560       ?state_case_precision@?$output_processor@DV?$string_output_adapter@D@__crt_stdio_output@@V?$positional_parameter_base@DV?$string_output_adapter@D@__crt_stdio_output@@@2@@__crt_stdio_output@@AEAA_NXZ 000000018006a560 f i libucrtd:output.obj
 0001:000695e0       ?state_case_precision@?$output_processor@DV?$string_output_adapter@D@__crt_stdio_output@@V?$standard_base@DV?$string_output_adapter@D@__crt_stdio_output@@@2@@__crt_stdio_output@@AEAA_NXZ 000000018006a5e0 f i libucrtd:output.obj
 0001:00069660       ?state_case_precision@?$output_processor@_WV?$stream_output_adapter@_W@__crt_stdio_output@@V?$format_validation_base@_WV?$stream_output_adapter@_W@__crt_stdio_output@@@2@@__crt_stdio_output@@AEAA_NXZ 000000018006a660 f i libucrtd:output.obj
 0001:000696e0       ?state_case_precision@?$output_processor@_WV?$stream_output_adapter@_W@__crt_stdio_output@@V?$positional_parameter_base@_WV?$stream_output_adapter@_W@__crt_stdio_output@@@2@@__crt_stdio_output@@AEAA_NXZ 000000018006a6e0 f i libucrtd:output.obj
 0001:00069760       ?state_case_precision@?$output_processor@_WV?$stream_output_adapter@_W@__crt_stdio_output@@V?$standard_base@_WV?$stream_output_adapter@_W@__crt_stdio_output@@@2@@__crt_stdio_output@@AEAA_NXZ 000000018006a760 f i libucrtd:output.obj
 0001:000697e0       ?state_case_precision@?$output_processor@_WV?$string_output_adapter@_W@__crt_stdio_output@@V?$format_validation_base@_WV?$string_output_adapter@_W@__crt_stdio_output@@@2@@__crt_stdio_output@@AEAA_NXZ 000000018006a7e0 f i libucrtd:output.obj
 0001:00069860       ?state_case_precision@?$output_processor@_WV?$string_output_adapter@_W@__crt_stdio_output@@V?$positional_parameter_base@_WV?$string_output_adapter@_W@__crt_stdio_output@@@2@@__crt_stdio_output@@AEAA_NXZ 000000018006a860 f i libucrtd:output.obj
 0001:000698e0       ?state_case_precision@?$output_processor@_WV?$string_output_adapter@_W@__crt_stdio_output@@V?$standard_base@_WV?$string_output_adapter@_W@__crt_stdio_output@@@2@@__crt_stdio_output@@AEAA_NXZ 000000018006a8e0 f i libucrtd:output.obj
 0001:00069960       ?state_case_size@?$output_processor@DV?$stream_output_adapter@D@__crt_stdio_output@@V?$format_validation_base@DV?$stream_output_adapter@D@__crt_stdio_output@@@2@@__crt_stdio_output@@AEAA_NXZ 000000018006a960 f i libucrtd:output.obj
 0001:00069de0       ?state_case_size@?$output_processor@DV?$stream_output_adapter@D@__crt_stdio_output@@V?$positional_parameter_base@DV?$stream_output_adapter@D@__crt_stdio_output@@@2@@__crt_stdio_output@@AEAA_NXZ 000000018006ade0 f i libucrtd:output.obj
 0001:0006a260       ?state_case_size@?$output_processor@DV?$stream_output_adapter@D@__crt_stdio_output@@V?$standard_base@DV?$stream_output_adapter@D@__crt_stdio_output@@@2@@__crt_stdio_output@@AEAA_NXZ 000000018006b260 f i libucrtd:output.obj
 0001:0006a6e0       ?state_case_size@?$output_processor@DV?$string_output_adapter@D@__crt_stdio_output@@V?$format_validation_base@DV?$string_output_adapter@D@__crt_stdio_output@@@2@@__crt_stdio_output@@AEAA_NXZ 000000018006b6e0 f i libucrtd:output.obj
 0001:0006ab60       ?state_case_size@?$output_processor@DV?$string_output_adapter@D@__crt_stdio_output@@V?$positional_parameter_base@DV?$string_output_adapter@D@__crt_stdio_output@@@2@@__crt_stdio_output@@AEAA_NXZ 000000018006bb60 f i libucrtd:output.obj
 0001:0006afe0       ?state_case_size@?$output_processor@DV?$string_output_adapter@D@__crt_stdio_output@@V?$standard_base@DV?$string_output_adapter@D@__crt_stdio_output@@@2@@__crt_stdio_output@@AEAA_NXZ 000000018006bfe0 f i libucrtd:output.obj
 0001:0006b460       ?state_case_size@?$output_processor@_WV?$stream_output_adapter@_W@__crt_stdio_output@@V?$format_validation_base@_WV?$stream_output_adapter@_W@__crt_stdio_output@@@2@@__crt_stdio_output@@AEAA_NXZ 000000018006c460 f i libucrtd:output.obj
 0001:0006b8e0       ?state_case_size@?$output_processor@_WV?$stream_output_adapter@_W@__crt_stdio_output@@V?$positional_parameter_base@_WV?$stream_output_adapter@_W@__crt_stdio_output@@@2@@__crt_stdio_output@@AEAA_NXZ 000000018006c8e0 f i libucrtd:output.obj
 0001:0006bd60       ?state_case_size@?$output_processor@_WV?$stream_output_adapter@_W@__crt_stdio_output@@V?$standard_base@_WV?$stream_output_adapter@_W@__crt_stdio_output@@@2@@__crt_stdio_output@@AEAA_NXZ 000000018006cd60 f i libucrtd:output.obj
 0001:0006c1e0       ?state_case_size@?$output_processor@_WV?$string_output_adapter@_W@__crt_stdio_output@@V?$format_validation_base@_WV?$string_output_adapter@_W@__crt_stdio_output@@@2@@__crt_stdio_output@@AEAA_NXZ 000000018006d1e0 f i libucrtd:output.obj
 0001:0006c660       ?state_case_size@?$output_processor@_WV?$string_output_adapter@_W@__crt_stdio_output@@V?$positional_parameter_base@_WV?$string_output_adapter@_W@__crt_stdio_output@@@2@@__crt_stdio_output@@AEAA_NXZ 000000018006d660 f i libucrtd:output.obj
 0001:0006cae0       ?state_case_size@?$output_processor@_WV?$string_output_adapter@_W@__crt_stdio_output@@V?$standard_base@_WV?$string_output_adapter@_W@__crt_stdio_output@@@2@@__crt_stdio_output@@AEAA_NXZ 000000018006dae0 f i libucrtd:output.obj
 0001:0006cf60       ?state_case_type@?$output_processor@DV?$stream_output_adapter@D@__crt_stdio_output@@V?$format_validation_base@DV?$stream_output_adapter@D@__crt_stdio_output@@@2@@__crt_stdio_output@@AEAA_NXZ 000000018006df60 f i libucrtd:output.obj
 0001:0006d400       ?state_case_type@?$output_processor@DV?$stream_output_adapter@D@__crt_stdio_output@@V?$positional_parameter_base@DV?$stream_output_adapter@D@__crt_stdio_output@@@2@@__crt_stdio_output@@AEAA_NXZ 000000018006e400 f i libucrtd:output.obj
 0001:0006d8a0       ?state_case_type@?$output_processor@DV?$stream_output_adapter@D@__crt_stdio_output@@V?$standard_base@DV?$stream_output_adapter@D@__crt_stdio_output@@@2@@__crt_stdio_output@@AEAA_NXZ 000000018006e8a0 f i libucrtd:output.obj
 0001:0006dd40       ?state_case_type@?$output_processor@DV?$string_output_adapter@D@__crt_stdio_output@@V?$format_validation_base@DV?$string_output_adapter@D@__crt_stdio_output@@@2@@__crt_stdio_output@@AEAA_NXZ 000000018006ed40 f i libucrtd:output.obj
 0001:0006e1e0       ?state_case_type@?$output_processor@DV?$string_output_adapter@D@__crt_stdio_output@@V?$positional_parameter_base@DV?$string_output_adapter@D@__crt_stdio_output@@@2@@__crt_stdio_output@@AEAA_NXZ 000000018006f1e0 f i libucrtd:output.obj
 0001:0006e680       ?state_case_type@?$output_processor@DV?$string_output_adapter@D@__crt_stdio_output@@V?$standard_base@DV?$string_output_adapter@D@__crt_stdio_output@@@2@@__crt_stdio_output@@AEAA_NXZ 000000018006f680 f i libucrtd:output.obj
 0001:0006eb20       ?state_case_type@?$output_processor@_WV?$stream_output_adapter@_W@__crt_stdio_output@@V?$format_validation_base@_WV?$stream_output_adapter@_W@__crt_stdio_output@@@2@@__crt_stdio_output@@AEAA_NXZ 000000018006fb20 f i libucrtd:output.obj
 0001:0006f080       ?state_case_type@?$output_processor@_WV?$stream_output_adapter@_W@__crt_stdio_output@@V?$positional_parameter_base@_WV?$stream_output_adapter@_W@__crt_stdio_output@@@2@@__crt_stdio_output@@AEAA_NXZ 0000000180070080 f i libucrtd:output.obj
 0001:0006f5e0       ?state_case_type@?$output_processor@_WV?$stream_output_adapter@_W@__crt_stdio_output@@V?$standard_base@_WV?$stream_output_adapter@_W@__crt_stdio_output@@@2@@__crt_stdio_output@@AEAA_NXZ 00000001800705e0 f i libucrtd:output.obj
 0001:0006fb40       ?state_case_type@?$output_processor@_WV?$string_output_adapter@_W@__crt_stdio_output@@V?$format_validation_base@_WV?$string_output_adapter@_W@__crt_stdio_output@@@2@@__crt_stdio_output@@AEAA_NXZ 0000000180070b40 f i libucrtd:output.obj
 0001:000700a0       ?state_case_type@?$output_processor@_WV?$string_output_adapter@_W@__crt_stdio_output@@V?$positional_parameter_base@_WV?$string_output_adapter@_W@__crt_stdio_output@@@2@@__crt_stdio_output@@AEAA_NXZ 00000001800710a0 f i libucrtd:output.obj
 0001:00070600       ?state_case_type@?$output_processor@_WV?$string_output_adapter@_W@__crt_stdio_output@@V?$standard_base@_WV?$string_output_adapter@_W@__crt_stdio_output@@@2@@__crt_stdio_output@@AEAA_NXZ 0000000180071600 f i libucrtd:output.obj
 0001:00070b60       ?state_case_width@?$output_processor@DV?$stream_output_adapter@D@__crt_stdio_output@@V?$format_validation_base@DV?$stream_output_adapter@D@__crt_stdio_output@@@2@@__crt_stdio_output@@AEAA_NXZ 0000000180071b60 f i libucrtd:output.obj
 0001:00070bf0       ?state_case_width@?$output_processor@DV?$stream_output_adapter@D@__crt_stdio_output@@V?$positional_parameter_base@DV?$stream_output_adapter@D@__crt_stdio_output@@@2@@__crt_stdio_output@@AEAA_NXZ 0000000180071bf0 f i libucrtd:output.obj
 0001:00070c80       ?state_case_width@?$output_processor@DV?$stream_output_adapter@D@__crt_stdio_output@@V?$standard_base@DV?$stream_output_adapter@D@__crt_stdio_output@@@2@@__crt_stdio_output@@AEAA_NXZ 0000000180071c80 f i libucrtd:output.obj
 0001:00070d10       ?state_case_width@?$output_processor@DV?$string_output_adapter@D@__crt_stdio_output@@V?$format_validation_base@DV?$string_output_adapter@D@__crt_stdio_output@@@2@@__crt_stdio_output@@AEAA_NXZ 0000000180071d10 f i libucrtd:output.obj
 0001:00070da0       ?state_case_width@?$output_processor@DV?$string_output_adapter@D@__crt_stdio_output@@V?$positional_parameter_base@DV?$string_output_adapter@D@__crt_stdio_output@@@2@@__crt_stdio_output@@AEAA_NXZ 0000000180071da0 f i libucrtd:output.obj
 0001:00070e30       ?state_case_width@?$output_processor@DV?$string_output_adapter@D@__crt_stdio_output@@V?$standard_base@DV?$string_output_adapter@D@__crt_stdio_output@@@2@@__crt_stdio_output@@AEAA_NXZ 0000000180071e30 f i libucrtd:output.obj
 0001:00070ec0       ?state_case_width@?$output_processor@_WV?$stream_output_adapter@_W@__crt_stdio_output@@V?$format_validation_base@_WV?$stream_output_adapter@_W@__crt_stdio_output@@@2@@__crt_stdio_output@@AEAA_NXZ 0000000180071ec0 f i libucrtd:output.obj
 0001:00070f50       ?state_case_width@?$output_processor@_WV?$stream_output_adapter@_W@__crt_stdio_output@@V?$positional_parameter_base@_WV?$stream_output_adapter@_W@__crt_stdio_output@@@2@@__crt_stdio_output@@AEAA_NXZ 0000000180071f50 f i libucrtd:output.obj
 0001:00070fe0       ?state_case_width@?$output_processor@_WV?$stream_output_adapter@_W@__crt_stdio_output@@V?$standard_base@_WV?$stream_output_adapter@_W@__crt_stdio_output@@@2@@__crt_stdio_output@@AEAA_NXZ 0000000180071fe0 f i libucrtd:output.obj
 0001:00071070       ?state_case_width@?$output_processor@_WV?$string_output_adapter@_W@__crt_stdio_output@@V?$format_validation_base@_WV?$string_output_adapter@_W@__crt_stdio_output@@@2@@__crt_stdio_output@@AEAA_NXZ 0000000180072070 f i libucrtd:output.obj
 0001:00071100       ?state_case_width@?$output_processor@_WV?$string_output_adapter@_W@__crt_stdio_output@@V?$positional_parameter_base@_WV?$string_output_adapter@_W@__crt_stdio_output@@@2@@__crt_stdio_output@@AEAA_NXZ 0000000180072100 f i libucrtd:output.obj
 0001:00071190       ?state_case_width@?$output_processor@_WV?$string_output_adapter@_W@__crt_stdio_output@@V?$standard_base@_WV?$string_output_adapter@_W@__crt_stdio_output@@@2@@__crt_stdio_output@@AEAA_NXZ 0000000180072190 f i libucrtd:output.obj
 0001:00071220       ?state_count@?$format_validation_base@DV?$stream_output_adapter@D@__crt_stdio_output@@@__crt_stdio_output@@KAIXZ 0000000180072220 f i libucrtd:output.obj
 0001:00071230       ?state_count@?$format_validation_base@DV?$string_output_adapter@D@__crt_stdio_output@@@__crt_stdio_output@@KAIXZ 0000000180072230 f i libucrtd:output.obj
 0001:00071240       ?state_count@?$format_validation_base@_WV?$stream_output_adapter@_W@__crt_stdio_output@@@__crt_stdio_output@@KAIXZ 0000000180072240 f i libucrtd:output.obj
 0001:00071250       ?state_count@?$format_validation_base@_WV?$string_output_adapter@_W@__crt_stdio_output@@@__crt_stdio_output@@KAIXZ 0000000180072250 f i libucrtd:output.obj
 0001:00071260       ?state_count@?$standard_base@DV?$stream_output_adapter@D@__crt_stdio_output@@@__crt_stdio_output@@KAIXZ 0000000180072260 f i libucrtd:output.obj
 0001:00071270       ?state_count@?$standard_base@DV?$string_output_adapter@D@__crt_stdio_output@@@__crt_stdio_output@@KAIXZ 0000000180072270 f i libucrtd:output.obj
 0001:00071280       ?state_count@?$standard_base@_WV?$stream_output_adapter@_W@__crt_stdio_output@@@__crt_stdio_output@@KAIXZ 0000000180072280 f i libucrtd:output.obj
 0001:00071290       ?state_count@?$standard_base@_WV?$string_output_adapter@_W@__crt_stdio_output@@@__crt_stdio_output@@KAIXZ 0000000180072290 f i libucrtd:output.obj
 0001:000712a0       ?state_transition_table@?$format_validation_base@DV?$stream_output_adapter@D@__crt_stdio_output@@@__crt_stdio_output@@KAAEBV?$spectre_mitigated_lookup_table@Ustate_transition_pair@__crt_stdio_output@@$0IA@@2@XZ 00000001800722a0 f i libucrtd:output.obj
 0001:000712b0       ?state_transition_table@?$format_validation_base@DV?$string_output_adapter@D@__crt_stdio_output@@@__crt_stdio_output@@KAAEBV?$spectre_mitigated_lookup_table@Ustate_transition_pair@__crt_stdio_output@@$0IA@@2@XZ 00000001800722b0 f i libucrtd:output.obj
 0001:000712c0       ?state_transition_table@?$format_validation_base@_WV?$stream_output_adapter@_W@__crt_stdio_output@@@__crt_stdio_output@@KAAEBV?$spectre_mitigated_lookup_table@Ustate_transition_pair@__crt_stdio_output@@$0IA@@2@XZ 00000001800722c0 f i libucrtd:output.obj
 0001:000712d0       ?state_transition_table@?$format_validation_base@_WV?$string_output_adapter@_W@__crt_stdio_output@@@__crt_stdio_output@@KAAEBV?$spectre_mitigated_lookup_table@Ustate_transition_pair@__crt_stdio_output@@$0IA@@2@XZ 00000001800722d0 f i libucrtd:output.obj
 0001:000712e0       ?state_transition_table@?$standard_base@DV?$stream_output_adapter@D@__crt_stdio_output@@@__crt_stdio_output@@KAAEBV?$spectre_mitigated_lookup_table@Ustate_transition_pair@__crt_stdio_output@@$0IA@@2@XZ 00000001800722e0 f i libucrtd:output.obj
 0001:000712f0       ?state_transition_table@?$standard_base@DV?$string_output_adapter@D@__crt_stdio_output@@@__crt_stdio_output@@KAAEBV?$spectre_mitigated_lookup_table@Ustate_transition_pair@__crt_stdio_output@@$0IA@@2@XZ 00000001800722f0 f i libucrtd:output.obj
 0001:00071300       ?state_transition_table@?$standard_base@_WV?$stream_output_adapter@_W@__crt_stdio_output@@@__crt_stdio_output@@KAAEBV?$spectre_mitigated_lookup_table@Ustate_transition_pair@__crt_stdio_output@@$0IA@@2@XZ 0000000180072300 f i libucrtd:output.obj
 0001:00071310       ?state_transition_table@?$standard_base@_WV?$string_output_adapter@_W@__crt_stdio_output@@@__crt_stdio_output@@KAAEBV?$spectre_mitigated_lookup_table@Ustate_transition_pair@__crt_stdio_output@@$0IA@@2@XZ 0000000180072310 f i libucrtd:output.obj
 0001:00071320       ?tchar_string@?$common_data@D@__crt_stdio_output@@IEAAAEAPEADD@Z 0000000180072320 f i libucrtd:output.obj
 0001:00071340       ?tchar_string@?$common_data@D@__crt_stdio_output@@IEAAAEAPEADXZ 0000000180072340 f i libucrtd:output.obj
 0001:00071360       ?tchar_string@?$common_data@_W@__crt_stdio_output@@IEAAAEAPEA_WXZ 0000000180072360 f i libucrtd:output.obj
 0001:00071380       ?tchar_string@?$common_data@_W@__crt_stdio_output@@IEAAAEAPEA_W_W@Z 0000000180072380 f i libucrtd:output.obj
 0001:000713a0       ?to_integer_size@__crt_stdio_output@@YA_KW4length_modifier@1@@Z 00000001800723a0 f i libucrtd:output.obj
 0001:00071450       ?type_case_X@?$output_processor@DV?$stream_output_adapter@D@__crt_stdio_output@@V?$format_validation_base@DV?$stream_output_adapter@D@__crt_stdio_output@@@2@@__crt_stdio_output@@AEAA_NXZ 0000000180072450 f i libucrtd:output.obj
 0001:00071470       ?type_case_X@?$output_processor@DV?$stream_output_adapter@D@__crt_stdio_output@@V?$positional_parameter_base@DV?$stream_output_adapter@D@__crt_stdio_output@@@2@@__crt_stdio_output@@AEAA_NXZ 0000000180072470 f i libucrtd:output.obj
 0001:00071490       ?type_case_X@?$output_processor@DV?$stream_output_adapter@D@__crt_stdio_output@@V?$standard_base@DV?$stream_output_adapter@D@__crt_stdio_output@@@2@@__crt_stdio_output@@AEAA_NXZ 0000000180072490 f i libucrtd:output.obj
 0001:000714b0       ?type_case_X@?$output_processor@DV?$string_output_adapter@D@__crt_stdio_output@@V?$format_validation_base@DV?$string_output_adapter@D@__crt_stdio_output@@@2@@__crt_stdio_output@@AEAA_NXZ 00000001800724b0 f i libucrtd:output.obj
 0001:000714d0       ?type_case_X@?$output_processor@DV?$string_output_adapter@D@__crt_stdio_output@@V?$positional_parameter_base@DV?$string_output_adapter@D@__crt_stdio_output@@@2@@__crt_stdio_output@@AEAA_NXZ 00000001800724d0 f i libucrtd:output.obj
 0001:000714f0       ?type_case_X@?$output_processor@DV?$string_output_adapter@D@__crt_stdio_output@@V?$standard_base@DV?$string_output_adapter@D@__crt_stdio_output@@@2@@__crt_stdio_output@@AEAA_NXZ 00000001800724f0 f i libucrtd:output.obj
 0001:00071510       ?type_case_X@?$output_processor@_WV?$stream_output_adapter@_W@__crt_stdio_output@@V?$format_validation_base@_WV?$stream_output_adapter@_W@__crt_stdio_output@@@2@@__crt_stdio_output@@AEAA_NXZ 0000000180072510 f i libucrtd:output.obj
 0001:00071530       ?type_case_X@?$output_processor@_WV?$stream_output_adapter@_W@__crt_stdio_output@@V?$positional_parameter_base@_WV?$stream_output_adapter@_W@__crt_stdio_output@@@2@@__crt_stdio_output@@AEAA_NXZ 0000000180072530 f i libucrtd:output.obj
 0001:00071550       ?type_case_X@?$output_processor@_WV?$stream_output_adapter@_W@__crt_stdio_output@@V?$standard_base@_WV?$stream_output_adapter@_W@__crt_stdio_output@@@2@@__crt_stdio_output@@AEAA_NXZ 0000000180072550 f i libucrtd:output.obj
 0001:00071570       ?type_case_X@?$output_processor@_WV?$string_output_adapter@_W@__crt_stdio_output@@V?$format_validation_base@_WV?$string_output_adapter@_W@__crt_stdio_output@@@2@@__crt_stdio_output@@AEAA_NXZ 0000000180072570 f i libucrtd:output.obj
 0001:00071590       ?type_case_X@?$output_processor@_WV?$string_output_adapter@_W@__crt_stdio_output@@V?$positional_parameter_base@_WV?$string_output_adapter@_W@__crt_stdio_output@@@2@@__crt_stdio_output@@AEAA_NXZ 0000000180072590 f i libucrtd:output.obj
 0001:000715b0       ?type_case_X@?$output_processor@_WV?$string_output_adapter@_W@__crt_stdio_output@@V?$standard_base@_WV?$string_output_adapter@_W@__crt_stdio_output@@@2@@__crt_stdio_output@@AEAA_NXZ 00000001800725b0 f i libucrtd:output.obj
 0001:000715d0       ?type_case_Z@?$output_processor@DV?$stream_output_adapter@D@__crt_stdio_output@@V?$format_validation_base@DV?$stream_output_adapter@D@__crt_stdio_output@@@2@@__crt_stdio_output@@AEAA_NXZ 00000001800725d0 f i libucrtd:output.obj
 0001:000716f0       ?type_case_Z@?$output_processor@DV?$stream_output_adapter@D@__crt_stdio_output@@V?$positional_parameter_base@DV?$stream_output_adapter@D@__crt_stdio_output@@@2@@__crt_stdio_output@@AEAA_NXZ 00000001800726f0 f i libucrtd:output.obj
 0001:00071810       ?type_case_Z@?$output_processor@DV?$stream_output_adapter@D@__crt_stdio_output@@V?$standard_base@DV?$stream_output_adapter@D@__crt_stdio_output@@@2@@__crt_stdio_output@@AEAA_NXZ 0000000180072810 f i libucrtd:output.obj
 0001:00071930       ?type_case_Z@?$output_processor@DV?$string_output_adapter@D@__crt_stdio_output@@V?$format_validation_base@DV?$string_output_adapter@D@__crt_stdio_output@@@2@@__crt_stdio_output@@AEAA_NXZ 0000000180072930 f i libucrtd:output.obj
 0001:00071a50       ?type_case_Z@?$output_processor@DV?$string_output_adapter@D@__crt_stdio_output@@V?$positional_parameter_base@DV?$string_output_adapter@D@__crt_stdio_output@@@2@@__crt_stdio_output@@AEAA_NXZ 0000000180072a50 f i libucrtd:output.obj
 0001:00071b70       ?type_case_Z@?$output_processor@DV?$string_output_adapter@D@__crt_stdio_output@@V?$standard_base@DV?$string_output_adapter@D@__crt_stdio_output@@@2@@__crt_stdio_output@@AEAA_NXZ 0000000180072b70 f i libucrtd:output.obj
 0001:00071c90       ?type_case_Z@?$output_processor@_WV?$stream_output_adapter@_W@__crt_stdio_output@@V?$format_validation_base@_WV?$stream_output_adapter@_W@__crt_stdio_output@@@2@@__crt_stdio_output@@AEAA_NXZ 0000000180072c90 f i libucrtd:output.obj
 0001:00071db0       ?type_case_Z@?$output_processor@_WV?$stream_output_adapter@_W@__crt_stdio_output@@V?$positional_parameter_base@_WV?$stream_output_adapter@_W@__crt_stdio_output@@@2@@__crt_stdio_output@@AEAA_NXZ 0000000180072db0 f i libucrtd:output.obj
 0001:00071ed0       ?type_case_Z@?$output_processor@_WV?$stream_output_adapter@_W@__crt_stdio_output@@V?$standard_base@_WV?$stream_output_adapter@_W@__crt_stdio_output@@@2@@__crt_stdio_output@@AEAA_NXZ 0000000180072ed0 f i libucrtd:output.obj
 0001:00071ff0       ?type_case_Z@?$output_processor@_WV?$string_output_adapter@_W@__crt_stdio_output@@V?$format_validation_base@_WV?$string_output_adapter@_W@__crt_stdio_output@@@2@@__crt_stdio_output@@AEAA_NXZ 0000000180072ff0 f i libucrtd:output.obj
 0001:00072110       ?type_case_Z@?$output_processor@_WV?$string_output_adapter@_W@__crt_stdio_output@@V?$positional_parameter_base@_WV?$string_output_adapter@_W@__crt_stdio_output@@@2@@__crt_stdio_output@@AEAA_NXZ 0000000180073110 f i libucrtd:output.obj
 0001:00072230       ?type_case_Z@?$output_processor@_WV?$string_output_adapter@_W@__crt_stdio_output@@V?$standard_base@_WV?$string_output_adapter@_W@__crt_stdio_output@@@2@@__crt_stdio_output@@AEAA_NXZ 0000000180073230 f i libucrtd:output.obj
 0001:00072350       ?type_case_a@?$output_processor@DV?$stream_output_adapter@D@__crt_stdio_output@@V?$format_validation_base@DV?$stream_output_adapter@D@__crt_stdio_output@@@2@@__crt_stdio_output@@AEAA_NXZ 0000000180073350 f i libucrtd:output.obj
 0001:00072720       ?type_case_a@?$output_processor@DV?$stream_output_adapter@D@__crt_stdio_output@@V?$positional_parameter_base@DV?$stream_output_adapter@D@__crt_stdio_output@@@2@@__crt_stdio_output@@AEAA_NXZ 0000000180073720 f i libucrtd:output.obj
 0001:00072af0       ?type_case_a@?$output_processor@DV?$stream_output_adapter@D@__crt_stdio_output@@V?$standard_base@DV?$stream_output_adapter@D@__crt_stdio_output@@@2@@__crt_stdio_output@@AEAA_NXZ 0000000180073af0 f i libucrtd:output.obj
 0001:00072ec0       ?type_case_a@?$output_processor@DV?$string_output_adapter@D@__crt_stdio_output@@V?$format_validation_base@DV?$string_output_adapter@D@__crt_stdio_output@@@2@@__crt_stdio_output@@AEAA_NXZ 0000000180073ec0 f i libucrtd:output.obj
 0001:00073290       ?type_case_a@?$output_processor@DV?$string_output_adapter@D@__crt_stdio_output@@V?$positional_parameter_base@DV?$string_output_adapter@D@__crt_stdio_output@@@2@@__crt_stdio_output@@AEAA_NXZ 0000000180074290 f i libucrtd:output.obj
 0001:00073660       ?type_case_a@?$output_processor@DV?$string_output_adapter@D@__crt_stdio_output@@V?$standard_base@DV?$string_output_adapter@D@__crt_stdio_output@@@2@@__crt_stdio_output@@AEAA_NXZ 0000000180074660 f i libucrtd:output.obj
 0001:00073a30       ?type_case_a@?$output_processor@_WV?$stream_output_adapter@_W@__crt_stdio_output@@V?$format_validation_base@_WV?$stream_output_adapter@_W@__crt_stdio_output@@@2@@__crt_stdio_output@@AEAA_NXZ 0000000180074a30 f i libucrtd:output.obj
 0001:00073e00       ?type_case_a@?$output_processor@_WV?$stream_output_adapter@_W@__crt_stdio_output@@V?$positional_parameter_base@_WV?$stream_output_adapter@_W@__crt_stdio_output@@@2@@__crt_stdio_output@@AEAA_NXZ 0000000180074e00 f i libucrtd:output.obj
 0001:000741d0       ?type_case_a@?$output_processor@_WV?$stream_output_adapter@_W@__crt_stdio_output@@V?$standard_base@_WV?$stream_output_adapter@_W@__crt_stdio_output@@@2@@__crt_stdio_output@@AEAA_NXZ 00000001800751d0 f i libucrtd:output.obj
 0001:000745a0       ?type_case_a@?$output_processor@_WV?$string_output_adapter@_W@__crt_stdio_output@@V?$format_validation_base@_WV?$string_output_adapter@_W@__crt_stdio_output@@@2@@__crt_stdio_output@@AEAA_NXZ 00000001800755a0 f i libucrtd:output.obj
 0001:00074970       ?type_case_a@?$output_processor@_WV?$string_output_adapter@_W@__crt_stdio_output@@V?$positional_parameter_base@_WV?$string_output_adapter@_W@__crt_stdio_output@@@2@@__crt_stdio_output@@AEAA_NXZ 0000000180075970 f i libucrtd:output.obj
 0001:00074d40       ?type_case_a@?$output_processor@_WV?$string_output_adapter@_W@__crt_stdio_output@@V?$standard_base@_WV?$string_output_adapter@_W@__crt_stdio_output@@@2@@__crt_stdio_output@@AEAA_NXZ 0000000180075d40 f i libucrtd:output.obj
 0001:00075110       ?type_case_c@?$output_processor@DV?$stream_output_adapter@D@__crt_stdio_output@@V?$format_validation_base@DV?$stream_output_adapter@D@__crt_stdio_output@@@2@@__crt_stdio_output@@AEAA_NXZ 0000000180076110 f i libucrtd:output.obj
 0001:00075130       ?type_case_c@?$output_processor@DV?$stream_output_adapter@D@__crt_stdio_output@@V?$positional_parameter_base@DV?$stream_output_adapter@D@__crt_stdio_output@@@2@@__crt_stdio_output@@AEAA_NXZ 0000000180076130 f i libucrtd:output.obj
 0001:00075150       ?type_case_c@?$output_processor@DV?$stream_output_adapter@D@__crt_stdio_output@@V?$standard_base@DV?$stream_output_adapter@D@__crt_stdio_output@@@2@@__crt_stdio_output@@AEAA_NXZ 0000000180076150 f i libucrtd:output.obj
 0001:00075170       ?type_case_c@?$output_processor@DV?$string_output_adapter@D@__crt_stdio_output@@V?$format_validation_base@DV?$string_output_adapter@D@__crt_stdio_output@@@2@@__crt_stdio_output@@AEAA_NXZ 0000000180076170 f i libucrtd:output.obj
 0001:00075190       ?type_case_c@?$output_processor@DV?$string_output_adapter@D@__crt_stdio_output@@V?$positional_parameter_base@DV?$string_output_adapter@D@__crt_stdio_output@@@2@@__crt_stdio_output@@AEAA_NXZ 0000000180076190 f i libucrtd:output.obj
 0001:000751b0       ?type_case_c@?$output_processor@DV?$string_output_adapter@D@__crt_stdio_output@@V?$standard_base@DV?$string_output_adapter@D@__crt_stdio_output@@@2@@__crt_stdio_output@@AEAA_NXZ 00000001800761b0 f i libucrtd:output.obj
 0001:000751d0       ?type_case_c@?$output_processor@_WV?$stream_output_adapter@_W@__crt_stdio_output@@V?$format_validation_base@_WV?$stream_output_adapter@_W@__crt_stdio_output@@@2@@__crt_stdio_output@@AEAA_NXZ 00000001800761d0 f i libucrtd:output.obj
 0001:000751f0       ?type_case_c@?$output_processor@_WV?$stream_output_adapter@_W@__crt_stdio_output@@V?$positional_parameter_base@_WV?$stream_output_adapter@_W@__crt_stdio_output@@@2@@__crt_stdio_output@@AEAA_NXZ 00000001800761f0 f i libucrtd:output.obj
 0001:00075210       ?type_case_c@?$output_processor@_WV?$stream_output_adapter@_W@__crt_stdio_output@@V?$standard_base@_WV?$stream_output_adapter@_W@__crt_stdio_output@@@2@@__crt_stdio_output@@AEAA_NXZ 0000000180076210 f i libucrtd:output.obj
 0001:00075230       ?type_case_c@?$output_processor@_WV?$string_output_adapter@_W@__crt_stdio_output@@V?$format_validation_base@_WV?$string_output_adapter@_W@__crt_stdio_output@@@2@@__crt_stdio_output@@AEAA_NXZ 0000000180076230 f i libucrtd:output.obj
 0001:00075250       ?type_case_c@?$output_processor@_WV?$string_output_adapter@_W@__crt_stdio_output@@V?$positional_parameter_base@_WV?$string_output_adapter@_W@__crt_stdio_output@@@2@@__crt_stdio_output@@AEAA_NXZ 0000000180076250 f i libucrtd:output.obj
 0001:00075270       ?type_case_c@?$output_processor@_WV?$string_output_adapter@_W@__crt_stdio_output@@V?$standard_base@_WV?$string_output_adapter@_W@__crt_stdio_output@@@2@@__crt_stdio_output@@AEAA_NXZ 0000000180076270 f i libucrtd:output.obj
 0001:00075290       ?type_case_c_tchar@?$output_processor@DV?$stream_output_adapter@D@__crt_stdio_output@@V?$format_validation_base@DV?$stream_output_adapter@D@__crt_stdio_output@@@2@@__crt_stdio_output@@AEAA_ND@Z 0000000180076290 f i libucrtd:output.obj
 0001:000753f0       ?type_case_c_tchar@?$output_processor@DV?$stream_output_adapter@D@__crt_stdio_output@@V?$positional_parameter_base@DV?$stream_output_adapter@D@__crt_stdio_output@@@2@@__crt_stdio_output@@AEAA_ND@Z 00000001800763f0 f i libucrtd:output.obj
 0001:00075550       ?type_case_c_tchar@?$output_processor@DV?$stream_output_adapter@D@__crt_stdio_output@@V?$standard_base@DV?$stream_output_adapter@D@__crt_stdio_output@@@2@@__crt_stdio_output@@AEAA_ND@Z 0000000180076550 f i libucrtd:output.obj
 0001:000756b0       ?type_case_c_tchar@?$output_processor@DV?$string_output_adapter@D@__crt_stdio_output@@V?$format_validation_base@DV?$string_output_adapter@D@__crt_stdio_output@@@2@@__crt_stdio_output@@AEAA_ND@Z 00000001800766b0 f i libucrtd:output.obj
 0001:00075810       ?type_case_c_tchar@?$output_processor@DV?$string_output_adapter@D@__crt_stdio_output@@V?$positional_parameter_base@DV?$string_output_adapter@D@__crt_stdio_output@@@2@@__crt_stdio_output@@AEAA_ND@Z 0000000180076810 f i libucrtd:output.obj
 0001:00075970       ?type_case_c_tchar@?$output_processor@DV?$string_output_adapter@D@__crt_stdio_output@@V?$standard_base@DV?$string_output_adapter@D@__crt_stdio_output@@@2@@__crt_stdio_output@@AEAA_ND@Z 0000000180076970 f i libucrtd:output.obj
 0001:00075ad0       ?type_case_c_tchar@?$output_processor@_WV?$stream_output_adapter@_W@__crt_stdio_output@@V?$format_validation_base@_WV?$stream_output_adapter@_W@__crt_stdio_output@@@2@@__crt_stdio_output@@AEAA_N_W@Z 0000000180076ad0 f i libucrtd:output.obj
 0001:00075c00       ?type_case_c_tchar@?$output_processor@_WV?$stream_output_adapter@_W@__crt_stdio_output@@V?$positional_parameter_base@_WV?$stream_output_adapter@_W@__crt_stdio_output@@@2@@__crt_stdio_output@@AEAA_N_W@Z 0000000180076c00 f i libucrtd:output.obj
 0001:00075d30       ?type_case_c_tchar@?$output_processor@_WV?$stream_output_adapter@_W@__crt_stdio_output@@V?$standard_base@_WV?$stream_output_adapter@_W@__crt_stdio_output@@@2@@__crt_stdio_output@@AEAA_N_W@Z 0000000180076d30 f i libucrtd:output.obj
 0001:00075e60       ?type_case_c_tchar@?$output_processor@_WV?$string_output_adapter@_W@__crt_stdio_output@@V?$format_validation_base@_WV?$string_output_adapter@_W@__crt_stdio_output@@@2@@__crt_stdio_output@@AEAA_N_W@Z 0000000180076e60 f i libucrtd:output.obj
 0001:00075f90       ?type_case_c_tchar@?$output_processor@_WV?$string_output_adapter@_W@__crt_stdio_output@@V?$positional_parameter_base@_WV?$string_output_adapter@_W@__crt_stdio_output@@@2@@__crt_stdio_output@@AEAA_N_W@Z 0000000180076f90 f i libucrtd:output.obj
 0001:000760c0       ?type_case_c_tchar@?$output_processor@_WV?$string_output_adapter@_W@__crt_stdio_output@@V?$standard_base@_WV?$string_output_adapter@_W@__crt_stdio_output@@@2@@__crt_stdio_output@@AEAA_N_W@Z 00000001800770c0 f i libucrtd:output.obj
 0001:000761f0       ?type_case_d@?$output_processor@DV?$stream_output_adapter@D@__crt_stdio_output@@V?$format_validation_base@DV?$stream_output_adapter@D@__crt_stdio_output@@@2@@__crt_stdio_output@@AEAA_NXZ 00000001800771f0 f i libucrtd:output.obj
 0001:00076220       ?type_case_d@?$output_processor@DV?$stream_output_adapter@D@__crt_stdio_output@@V?$positional_parameter_base@DV?$stream_output_adapter@D@__crt_stdio_output@@@2@@__crt_stdio_output@@AEAA_NXZ 0000000180077220 f i libucrtd:output.obj
 0001:00076250       ?type_case_d@?$output_processor@DV?$stream_output_adapter@D@__crt_stdio_output@@V?$standard_base@DV?$stream_output_adapter@D@__crt_stdio_output@@@2@@__crt_stdio_output@@AEAA_NXZ 0000000180077250 f i libucrtd:output.obj
 0001:00076280       ?type_case_d@?$output_processor@DV?$string_output_adapter@D@__crt_stdio_output@@V?$format_validation_base@DV?$string_output_adapter@D@__crt_stdio_output@@@2@@__crt_stdio_output@@AEAA_NXZ 0000000180077280 f i libucrtd:output.obj
 0001:000762b0       ?type_case_d@?$output_processor@DV?$string_output_adapter@D@__crt_stdio_output@@V?$positional_parameter_base@DV?$string_output_adapter@D@__crt_stdio_output@@@2@@__crt_stdio_output@@AEAA_NXZ 00000001800772b0 f i libucrtd:output.obj
 0001:000762e0       ?type_case_d@?$output_processor@DV?$string_output_adapter@D@__crt_stdio_output@@V?$standard_base@DV?$string_output_adapter@D@__crt_stdio_output@@@2@@__crt_stdio_output@@AEAA_NXZ 00000001800772e0 f i libucrtd:output.obj
 0001:00076310       ?type_case_d@?$output_processor@_WV?$stream_output_adapter@_W@__crt_stdio_output@@V?$format_validation_base@_WV?$stream_output_adapter@_W@__crt_stdio_output@@@2@@__crt_stdio_output@@AEAA_NXZ 0000000180077310 f i libucrtd:output.obj
 0001:00076340       ?type_case_d@?$output_processor@_WV?$stream_output_adapter@_W@__crt_stdio_output@@V?$positional_parameter_base@_WV?$stream_output_adapter@_W@__crt_stdio_output@@@2@@__crt_stdio_output@@AEAA_NXZ 0000000180077340 f i libucrtd:output.obj
 0001:00076370       ?type_case_d@?$output_processor@_WV?$stream_output_adapter@_W@__crt_stdio_output@@V?$standard_base@_WV?$stream_output_adapter@_W@__crt_stdio_output@@@2@@__crt_stdio_output@@AEAA_NXZ 0000000180077370 f i libucrtd:output.obj
 0001:000763a0       ?type_case_d@?$output_processor@_WV?$string_output_adapter@_W@__crt_stdio_output@@V?$format_validation_base@_WV?$string_output_adapter@_W@__crt_stdio_output@@@2@@__crt_stdio_output@@AEAA_NXZ 00000001800773a0 f i libucrtd:output.obj
 0001:000763d0       ?type_case_d@?$output_processor@_WV?$string_output_adapter@_W@__crt_stdio_output@@V?$positional_parameter_base@_WV?$string_output_adapter@_W@__crt_stdio_output@@@2@@__crt_stdio_output@@AEAA_NXZ 00000001800773d0 f i libucrtd:output.obj
 0001:00076400       ?type_case_d@?$output_processor@_WV?$string_output_adapter@_W@__crt_stdio_output@@V?$standard_base@_WV?$string_output_adapter@_W@__crt_stdio_output@@@2@@__crt_stdio_output@@AEAA_NXZ 0000000180077400 f i libucrtd:output.obj
 0001:00076430       ?type_case_integer@?$output_processor@DV?$stream_output_adapter@D@__crt_stdio_output@@V?$format_validation_base@DV?$stream_output_adapter@D@__crt_stdio_output@@@2@@__crt_stdio_output@@AEAA_NI_N@Z 0000000180077430 f i libucrtd:output.obj
 0001:00076880       ?type_case_integer@?$output_processor@DV?$stream_output_adapter@D@__crt_stdio_output@@V?$positional_parameter_base@DV?$stream_output_adapter@D@__crt_stdio_output@@@2@@__crt_stdio_output@@AEAA_NI_N@Z 0000000180077880 f i libucrtd:output.obj
 0001:00076cd0       ?type_case_integer@?$output_processor@DV?$stream_output_adapter@D@__crt_stdio_output@@V?$standard_base@DV?$stream_output_adapter@D@__crt_stdio_output@@@2@@__crt_stdio_output@@AEAA_NI_N@Z 0000000180077cd0 f i libucrtd:output.obj
 0001:00077120       ?type_case_integer@?$output_processor@DV?$string_output_adapter@D@__crt_stdio_output@@V?$format_validation_base@DV?$string_output_adapter@D@__crt_stdio_output@@@2@@__crt_stdio_output@@AEAA_NI_N@Z 0000000180078120 f i libucrtd:output.obj
 0001:00077570       ?type_case_integer@?$output_processor@DV?$string_output_adapter@D@__crt_stdio_output@@V?$positional_parameter_base@DV?$string_output_adapter@D@__crt_stdio_output@@@2@@__crt_stdio_output@@AEAA_NI_N@Z 0000000180078570 f i libucrtd:output.obj
 0001:000779c0       ?type_case_integer@?$output_processor@DV?$string_output_adapter@D@__crt_stdio_output@@V?$standard_base@DV?$string_output_adapter@D@__crt_stdio_output@@@2@@__crt_stdio_output@@AEAA_NI_N@Z 00000001800789c0 f i libucrtd:output.obj
 0001:00077e10       ?type_case_integer@?$output_processor@_WV?$stream_output_adapter@_W@__crt_stdio_output@@V?$format_validation_base@_WV?$stream_output_adapter@_W@__crt_stdio_output@@@2@@__crt_stdio_output@@AEAA_NI_N@Z 0000000180078e10 f i libucrtd:output.obj
 0001:00078260       ?type_case_integer@?$output_processor@_WV?$stream_output_adapter@_W@__crt_stdio_output@@V?$positional_parameter_base@_WV?$stream_output_adapter@_W@__crt_stdio_output@@@2@@__crt_stdio_output@@AEAA_NI_N@Z 0000000180079260 f i libucrtd:output.obj
 0001:000786b0       ?type_case_integer@?$output_processor@_WV?$stream_output_adapter@_W@__crt_stdio_output@@V?$standard_base@_WV?$stream_output_adapter@_W@__crt_stdio_output@@@2@@__crt_stdio_output@@AEAA_NI_N@Z 00000001800796b0 f i libucrtd:output.obj
 0001:00078b00       ?type_case_integer@?$output_processor@_WV?$string_output_adapter@_W@__crt_stdio_output@@V?$format_validation_base@_WV?$string_output_adapter@_W@__crt_stdio_output@@@2@@__crt_stdio_output@@AEAA_NI_N@Z 0000000180079b00 f i libucrtd:output.obj
 0001:00078f50       ?type_case_integer@?$output_processor@_WV?$string_output_adapter@_W@__crt_stdio_output@@V?$positional_parameter_base@_WV?$string_output_adapter@_W@__crt_stdio_output@@@2@@__crt_stdio_output@@AEAA_NI_N@Z 0000000180079f50 f i libucrtd:output.obj
 0001:000793a0       ?type_case_integer@?$output_processor@_WV?$string_output_adapter@_W@__crt_stdio_output@@V?$standard_base@_WV?$string_output_adapter@_W@__crt_stdio_output@@@2@@__crt_stdio_output@@AEAA_NI_N@Z 000000018007a3a0 f i libucrtd:output.obj
 0001:000797f0       ?type_case_n@?$output_processor@DV?$stream_output_adapter@D@__crt_stdio_output@@V?$format_validation_base@DV?$stream_output_adapter@D@__crt_stdio_output@@@2@@__crt_stdio_output@@AEAA_NXZ 000000018007a7f0 f i libucrtd:output.obj
 0001:00079a30       ?type_case_n@?$output_processor@DV?$stream_output_adapter@D@__crt_stdio_output@@V?$positional_parameter_base@DV?$stream_output_adapter@D@__crt_stdio_output@@@2@@__crt_stdio_output@@AEAA_NXZ 000000018007aa30 f i libucrtd:output.obj
 0001:00079c70       ?type_case_n@?$output_processor@DV?$stream_output_adapter@D@__crt_stdio_output@@V?$standard_base@DV?$stream_output_adapter@D@__crt_stdio_output@@@2@@__crt_stdio_output@@AEAA_NXZ 000000018007ac70 f i libucrtd:output.obj
 0001:00079eb0       ?type_case_n@?$output_processor@DV?$string_output_adapter@D@__crt_stdio_output@@V?$format_validation_base@DV?$string_output_adapter@D@__crt_stdio_output@@@2@@__crt_stdio_output@@AEAA_NXZ 000000018007aeb0 f i libucrtd:output.obj
 0001:0007a0f0       ?type_case_n@?$output_processor@DV?$string_output_adapter@D@__crt_stdio_output@@V?$positional_parameter_base@DV?$string_output_adapter@D@__crt_stdio_output@@@2@@__crt_stdio_output@@AEAA_NXZ 000000018007b0f0 f i libucrtd:output.obj
 0001:0007a330       ?type_case_n@?$output_processor@DV?$string_output_adapter@D@__crt_stdio_output@@V?$standard_base@DV?$string_output_adapter@D@__crt_stdio_output@@@2@@__crt_stdio_output@@AEAA_NXZ 000000018007b330 f i libucrtd:output.obj
 0001:0007a570       ?type_case_n@?$output_processor@_WV?$stream_output_adapter@_W@__crt_stdio_output@@V?$format_validation_base@_WV?$stream_output_adapter@_W@__crt_stdio_output@@@2@@__crt_stdio_output@@AEAA_NXZ 000000018007b570 f i libucrtd:output.obj
 0001:0007a7b0       ?type_case_n@?$output_processor@_WV?$stream_output_adapter@_W@__crt_stdio_output@@V?$positional_parameter_base@_WV?$stream_output_adapter@_W@__crt_stdio_output@@@2@@__crt_stdio_output@@AEAA_NXZ 000000018007b7b0 f i libucrtd:output.obj
 0001:0007a9f0       ?type_case_n@?$output_processor@_WV?$stream_output_adapter@_W@__crt_stdio_output@@V?$standard_base@_WV?$stream_output_adapter@_W@__crt_stdio_output@@@2@@__crt_stdio_output@@AEAA_NXZ 000000018007b9f0 f i libucrtd:output.obj
 0001:0007ac30       ?type_case_n@?$output_processor@_WV?$string_output_adapter@_W@__crt_stdio_output@@V?$format_validation_base@_WV?$string_output_adapter@_W@__crt_stdio_output@@@2@@__crt_stdio_output@@AEAA_NXZ 000000018007bc30 f i libucrtd:output.obj
 0001:0007ae70       ?type_case_n@?$output_processor@_WV?$string_output_adapter@_W@__crt_stdio_output@@V?$positional_parameter_base@_WV?$string_output_adapter@_W@__crt_stdio_output@@@2@@__crt_stdio_output@@AEAA_NXZ 000000018007be70 f i libucrtd:output.obj
 0001:0007b0b0       ?type_case_n@?$output_processor@_WV?$string_output_adapter@_W@__crt_stdio_output@@V?$standard_base@_WV?$string_output_adapter@_W@__crt_stdio_output@@@2@@__crt_stdio_output@@AEAA_NXZ 000000018007c0b0 f i libucrtd:output.obj
 0001:0007b2f0       ?type_case_o@?$output_processor@DV?$stream_output_adapter@D@__crt_stdio_output@@V?$format_validation_base@DV?$stream_output_adapter@D@__crt_stdio_output@@@2@@__crt_stdio_output@@AEAA_NXZ 000000018007c2f0 f i libucrtd:output.obj
 0001:0007b340       ?type_case_o@?$output_processor@DV?$stream_output_adapter@D@__crt_stdio_output@@V?$positional_parameter_base@DV?$stream_output_adapter@D@__crt_stdio_output@@@2@@__crt_stdio_output@@AEAA_NXZ 000000018007c340 f i libucrtd:output.obj
 0001:0007b390       ?type_case_o@?$output_processor@DV?$stream_output_adapter@D@__crt_stdio_output@@V?$standard_base@DV?$stream_output_adapter@D@__crt_stdio_output@@@2@@__crt_stdio_output@@AEAA_NXZ 000000018007c390 f i libucrtd:output.obj
 0001:0007b3e0       ?type_case_o@?$output_processor@DV?$string_output_adapter@D@__crt_stdio_output@@V?$format_validation_base@DV?$string_output_adapter@D@__crt_stdio_output@@@2@@__crt_stdio_output@@AEAA_NXZ 000000018007c3e0 f i libucrtd:output.obj
 0001:0007b430       ?type_case_o@?$output_processor@DV?$string_output_adapter@D@__crt_stdio_output@@V?$positional_parameter_base@DV?$string_output_adapter@D@__crt_stdio_output@@@2@@__crt_stdio_output@@AEAA_NXZ 000000018007c430 f i libucrtd:output.obj
 0001:0007b480       ?type_case_o@?$output_processor@DV?$string_output_adapter@D@__crt_stdio_output@@V?$standard_base@DV?$string_output_adapter@D@__crt_stdio_output@@@2@@__crt_stdio_output@@AEAA_NXZ 000000018007c480 f i libucrtd:output.obj
 0001:0007b4d0       ?type_case_o@?$output_processor@_WV?$stream_output_adapter@_W@__crt_stdio_output@@V?$format_validation_base@_WV?$stream_output_adapter@_W@__crt_stdio_output@@@2@@__crt_stdio_output@@AEAA_NXZ 000000018007c4d0 f i libucrtd:output.obj
 0001:0007b520       ?type_case_o@?$output_processor@_WV?$stream_output_adapter@_W@__crt_stdio_output@@V?$positional_parameter_base@_WV?$stream_output_adapter@_W@__crt_stdio_output@@@2@@__crt_stdio_output@@AEAA_NXZ 000000018007c520 f i libucrtd:output.obj
 0001:0007b570       ?type_case_o@?$output_processor@_WV?$stream_output_adapter@_W@__crt_stdio_output@@V?$standard_base@_WV?$stream_output_adapter@_W@__crt_stdio_output@@@2@@__crt_stdio_output@@AEAA_NXZ 000000018007c570 f i libucrtd:output.obj
 0001:0007b5c0       ?type_case_o@?$output_processor@_WV?$string_output_adapter@_W@__crt_stdio_output@@V?$format_validation_base@_WV?$string_output_adapter@_W@__crt_stdio_output@@@2@@__crt_stdio_output@@AEAA_NXZ 000000018007c5c0 f i libucrtd:output.obj
 0001:0007b610       ?type_case_o@?$output_processor@_WV?$string_output_adapter@_W@__crt_stdio_output@@V?$positional_parameter_base@_WV?$string_output_adapter@_W@__crt_stdio_output@@@2@@__crt_stdio_output@@AEAA_NXZ 000000018007c610 f i libucrtd:output.obj
 0001:0007b660       ?type_case_o@?$output_processor@_WV?$string_output_adapter@_W@__crt_stdio_output@@V?$standard_base@_WV?$string_output_adapter@_W@__crt_stdio_output@@@2@@__crt_stdio_output@@AEAA_NXZ 000000018007c660 f i libucrtd:output.obj
 0001:0007b6b0       ?type_case_p@?$output_processor@DV?$stream_output_adapter@D@__crt_stdio_output@@V?$format_validation_base@DV?$stream_output_adapter@D@__crt_stdio_output@@@2@@__crt_stdio_output@@AEAA_NXZ 000000018007c6b0 f i libucrtd:output.obj
 0001:0007b6f0       ?type_case_p@?$output_processor@DV?$stream_output_adapter@D@__crt_stdio_output@@V?$positional_parameter_base@DV?$stream_output_adapter@D@__crt_stdio_output@@@2@@__crt_stdio_output@@AEAA_NXZ 000000018007c6f0 f i libucrtd:output.obj
 0001:0007b730       ?type_case_p@?$output_processor@DV?$stream_output_adapter@D@__crt_stdio_output@@V?$standard_base@DV?$stream_output_adapter@D@__crt_stdio_output@@@2@@__crt_stdio_output@@AEAA_NXZ 000000018007c730 f i libucrtd:output.obj
 0001:0007b770       ?type_case_p@?$output_processor@DV?$string_output_adapter@D@__crt_stdio_output@@V?$format_validation_base@DV?$string_output_adapter@D@__crt_stdio_output@@@2@@__crt_stdio_output@@AEAA_NXZ 000000018007c770 f i libucrtd:output.obj
 0001:0007b7b0       ?type_case_p@?$output_processor@DV?$string_output_adapter@D@__crt_stdio_output@@V?$positional_parameter_base@DV?$string_output_adapter@D@__crt_stdio_output@@@2@@__crt_stdio_output@@AEAA_NXZ 000000018007c7b0 f i libucrtd:output.obj
 0001:0007b7f0       ?type_case_p@?$output_processor@DV?$string_output_adapter@D@__crt_stdio_output@@V?$standard_base@DV?$string_output_adapter@D@__crt_stdio_output@@@2@@__crt_stdio_output@@AEAA_NXZ 000000018007c7f0 f i libucrtd:output.obj
 0001:0007b830       ?type_case_p@?$output_processor@_WV?$stream_output_adapter@_W@__crt_stdio_output@@V?$format_validation_base@_WV?$stream_output_adapter@_W@__crt_stdio_output@@@2@@__crt_stdio_output@@AEAA_NXZ 000000018007c830 f i libucrtd:output.obj
 0001:0007b870       ?type_case_p@?$output_processor@_WV?$stream_output_adapter@_W@__crt_stdio_output@@V?$positional_parameter_base@_WV?$stream_output_adapter@_W@__crt_stdio_output@@@2@@__crt_stdio_output@@AEAA_NXZ 000000018007c870 f i libucrtd:output.obj
 0001:0007b8b0       ?type_case_p@?$output_processor@_WV?$stream_output_adapter@_W@__crt_stdio_output@@V?$standard_base@_WV?$stream_output_adapter@_W@__crt_stdio_output@@@2@@__crt_stdio_output@@AEAA_NXZ 000000018007c8b0 f i libucrtd:output.obj
 0001:0007b8f0       ?type_case_p@?$output_processor@_WV?$string_output_adapter@_W@__crt_stdio_output@@V?$format_validation_base@_WV?$string_output_adapter@_W@__crt_stdio_output@@@2@@__crt_stdio_output@@AEAA_NXZ 000000018007c8f0 f i libucrtd:output.obj
 0001:0007b930       ?type_case_p@?$output_processor@_WV?$string_output_adapter@_W@__crt_stdio_output@@V?$positional_parameter_base@_WV?$string_output_adapter@_W@__crt_stdio_output@@@2@@__crt_stdio_output@@AEAA_NXZ 000000018007c930 f i libucrtd:output.obj
 0001:0007b970       ?type_case_p@?$output_processor@_WV?$string_output_adapter@_W@__crt_stdio_output@@V?$standard_base@_WV?$string_output_adapter@_W@__crt_stdio_output@@@2@@__crt_stdio_output@@AEAA_NXZ 000000018007c970 f i libucrtd:output.obj
 0001:0007b9b0       ?type_case_s@?$output_processor@DV?$stream_output_adapter@D@__crt_stdio_output@@V?$format_validation_base@DV?$stream_output_adapter@D@__crt_stdio_output@@@2@@__crt_stdio_output@@AEAA_NXZ 000000018007c9b0 f i libucrtd:output.obj
 0001:0007bad0       ?type_case_s@?$output_processor@DV?$stream_output_adapter@D@__crt_stdio_output@@V?$positional_parameter_base@DV?$stream_output_adapter@D@__crt_stdio_output@@@2@@__crt_stdio_output@@AEAA_NXZ 000000018007cad0 f i libucrtd:output.obj
 0001:0007bbf0       ?type_case_s@?$output_processor@DV?$stream_output_adapter@D@__crt_stdio_output@@V?$standard_base@DV?$stream_output_adapter@D@__crt_stdio_output@@@2@@__crt_stdio_output@@AEAA_NXZ 000000018007cbf0 f i libucrtd:output.obj
 0001:0007bd10       ?type_case_s@?$output_processor@DV?$string_output_adapter@D@__crt_stdio_output@@V?$format_validation_base@DV?$string_output_adapter@D@__crt_stdio_output@@@2@@__crt_stdio_output@@AEAA_NXZ 000000018007cd10 f i libucrtd:output.obj
 0001:0007be30       ?type_case_s@?$output_processor@DV?$string_output_adapter@D@__crt_stdio_output@@V?$positional_parameter_base@DV?$string_output_adapter@D@__crt_stdio_output@@@2@@__crt_stdio_output@@AEAA_NXZ 000000018007ce30 f i libucrtd:output.obj
 0001:0007bf50       ?type_case_s@?$output_processor@DV?$string_output_adapter@D@__crt_stdio_output@@V?$standard_base@DV?$string_output_adapter@D@__crt_stdio_output@@@2@@__crt_stdio_output@@AEAA_NXZ 000000018007cf50 f i libucrtd:output.obj
 0001:0007c070       ?type_case_s@?$output_processor@_WV?$stream_output_adapter@_W@__crt_stdio_output@@V?$format_validation_base@_WV?$stream_output_adapter@_W@__crt_stdio_output@@@2@@__crt_stdio_output@@AEAA_NXZ 000000018007d070 f i libucrtd:output.obj
 0001:0007c190       ?type_case_s@?$output_processor@_WV?$stream_output_adapter@_W@__crt_stdio_output@@V?$positional_parameter_base@_WV?$stream_output_adapter@_W@__crt_stdio_output@@@2@@__crt_stdio_output@@AEAA_NXZ 000000018007d190 f i libucrtd:output.obj
 0001:0007c2b0       ?type_case_s@?$output_processor@_WV?$stream_output_adapter@_W@__crt_stdio_output@@V?$standard_base@_WV?$stream_output_adapter@_W@__crt_stdio_output@@@2@@__crt_stdio_output@@AEAA_NXZ 000000018007d2b0 f i libucrtd:output.obj
 0001:0007c3d0       ?type_case_s@?$output_processor@_WV?$string_output_adapter@_W@__crt_stdio_output@@V?$format_validation_base@_WV?$string_output_adapter@_W@__crt_stdio_output@@@2@@__crt_stdio_output@@AEAA_NXZ 000000018007d3d0 f i libucrtd:output.obj
 0001:0007c4f0       ?type_case_s@?$output_processor@_WV?$string_output_adapter@_W@__crt_stdio_output@@V?$positional_parameter_base@_WV?$string_output_adapter@_W@__crt_stdio_output@@@2@@__crt_stdio_output@@AEAA_NXZ 000000018007d4f0 f i libucrtd:output.obj
 0001:0007c610       ?type_case_s@?$output_processor@_WV?$string_output_adapter@_W@__crt_stdio_output@@V?$standard_base@_WV?$string_output_adapter@_W@__crt_stdio_output@@@2@@__crt_stdio_output@@AEAA_NXZ 000000018007d610 f i libucrtd:output.obj
 0001:0007c730       ?type_case_s_compute_narrow_string_length@?$output_processor@DV?$stream_output_adapter@D@__crt_stdio_output@@V?$format_validation_base@DV?$stream_output_adapter@D@__crt_stdio_output@@@2@@__crt_stdio_output@@AEBAHHD@Z 000000018007d730 f i libucrtd:output.obj
 0001:0007c760       ?type_case_s_compute_narrow_string_length@?$output_processor@DV?$stream_output_adapter@D@__crt_stdio_output@@V?$positional_parameter_base@DV?$stream_output_adapter@D@__crt_stdio_output@@@2@@__crt_stdio_output@@AEBAHHD@Z 000000018007d760 f i libucrtd:output.obj
 0001:0007c790       ?type_case_s_compute_narrow_string_length@?$output_processor@DV?$stream_output_adapter@D@__crt_stdio_output@@V?$standard_base@DV?$stream_output_adapter@D@__crt_stdio_output@@@2@@__crt_stdio_output@@AEBAHHD@Z 000000018007d790 f i libucrtd:output.obj
 0001:0007c7c0       ?type_case_s_compute_narrow_string_length@?$output_processor@DV?$string_output_adapter@D@__crt_stdio_output@@V?$format_validation_base@DV?$string_output_adapter@D@__crt_stdio_output@@@2@@__crt_stdio_output@@AEBAHHD@Z 000000018007d7c0 f i libucrtd:output.obj
 0001:0007c7f0       ?type_case_s_compute_narrow_string_length@?$output_processor@DV?$string_output_adapter@D@__crt_stdio_output@@V?$positional_parameter_base@DV?$string_output_adapter@D@__crt_stdio_output@@@2@@__crt_stdio_output@@AEBAHHD@Z 000000018007d7f0 f i libucrtd:output.obj
 0001:0007c820       ?type_case_s_compute_narrow_string_length@?$output_processor@DV?$string_output_adapter@D@__crt_stdio_output@@V?$standard_base@DV?$string_output_adapter@D@__crt_stdio_output@@@2@@__crt_stdio_output@@AEBAHHD@Z 000000018007d820 f i libucrtd:output.obj
 0001:0007c850       ?type_case_s_compute_narrow_string_length@?$output_processor@_WV?$stream_output_adapter@_W@__crt_stdio_output@@V?$format_validation_base@_WV?$stream_output_adapter@_W@__crt_stdio_output@@@2@@__crt_stdio_output@@AEBAHH_W@Z 000000018007d850 f i libucrtd:output.obj
 0001:0007c8e0       ?type_case_s_compute_narrow_string_length@?$output_processor@_WV?$stream_output_adapter@_W@__crt_stdio_output@@V?$positional_parameter_base@_WV?$stream_output_adapter@_W@__crt_stdio_output@@@2@@__crt_stdio_output@@AEBAHH_W@Z 000000018007d8e0 f i libucrtd:output.obj
 0001:0007c970       ?type_case_s_compute_narrow_string_length@?$output_processor@_WV?$stream_output_adapter@_W@__crt_stdio_output@@V?$standard_base@_WV?$stream_output_adapter@_W@__crt_stdio_output@@@2@@__crt_stdio_output@@AEBAHH_W@Z 000000018007d970 f i libucrtd:output.obj
 0001:0007ca00       ?type_case_s_compute_narrow_string_length@?$output_processor@_WV?$string_output_adapter@_W@__crt_stdio_output@@V?$format_validation_base@_WV?$string_output_adapter@_W@__crt_stdio_output@@@2@@__crt_stdio_output@@AEBAHH_W@Z 000000018007da00 f i libucrtd:output.obj
 0001:0007ca90       ?type_case_s_compute_narrow_string_length@?$output_processor@_WV?$string_output_adapter@_W@__crt_stdio_output@@V?$positional_parameter_base@_WV?$string_output_adapter@_W@__crt_stdio_output@@@2@@__crt_stdio_output@@AEBAHH_W@Z 000000018007da90 f i libucrtd:output.obj
 0001:0007cb20       ?type_case_s_compute_narrow_string_length@?$output_processor@_WV?$string_output_adapter@_W@__crt_stdio_output@@V?$standard_base@_WV?$string_output_adapter@_W@__crt_stdio_output@@@2@@__crt_stdio_output@@AEBAHH_W@Z 000000018007db20 f i libucrtd:output.obj
 0001:0007cbb0       ?type_case_u@?$output_processor@DV?$stream_output_adapter@D@__crt_stdio_output@@V?$format_validation_base@DV?$stream_output_adapter@D@__crt_stdio_output@@@2@@__crt_stdio_output@@AEAA_NXZ 000000018007dbb0 f i libucrtd:output.obj
 0001:0007cbd0       ?type_case_u@?$output_processor@DV?$stream_output_adapter@D@__crt_stdio_output@@V?$positional_parameter_base@DV?$stream_output_adapter@D@__crt_stdio_output@@@2@@__crt_stdio_output@@AEAA_NXZ 000000018007dbd0 f i libucrtd:output.obj
 0001:0007cbf0       ?type_case_u@?$output_processor@DV?$stream_output_adapter@D@__crt_stdio_output@@V?$standard_base@DV?$stream_output_adapter@D@__crt_stdio_output@@@2@@__crt_stdio_output@@AEAA_NXZ 000000018007dbf0 f i libucrtd:output.obj
 0001:0007cc10       ?type_case_u@?$output_processor@DV?$string_output_adapter@D@__crt_stdio_output@@V?$format_validation_base@DV?$string_output_adapter@D@__crt_stdio_output@@@2@@__crt_stdio_output@@AEAA_NXZ 000000018007dc10 f i libucrtd:output.obj
 0001:0007cc30       ?type_case_u@?$output_processor@DV?$string_output_adapter@D@__crt_stdio_output@@V?$positional_parameter_base@DV?$string_output_adapter@D@__crt_stdio_output@@@2@@__crt_stdio_output@@AEAA_NXZ 000000018007dc30 f i libucrtd:output.obj
 0001:0007cc50       ?type_case_u@?$output_processor@DV?$string_output_adapter@D@__crt_stdio_output@@V?$standard_base@DV?$string_output_adapter@D@__crt_stdio_output@@@2@@__crt_stdio_output@@AEAA_NXZ 000000018007dc50 f i libucrtd:output.obj
 0001:0007cc70       ?type_case_u@?$output_processor@_WV?$stream_output_adapter@_W@__crt_stdio_output@@V?$format_validation_base@_WV?$stream_output_adapter@_W@__crt_stdio_output@@@2@@__crt_stdio_output@@AEAA_NXZ 000000018007dc70 f i libucrtd:output.obj
 0001:0007cc90       ?type_case_u@?$output_processor@_WV?$stream_output_adapter@_W@__crt_stdio_output@@V?$positional_parameter_base@_WV?$stream_output_adapter@_W@__crt_stdio_output@@@2@@__crt_stdio_output@@AEAA_NXZ 000000018007dc90 f i libucrtd:output.obj
 0001:0007ccb0       ?type_case_u@?$output_processor@_WV?$stream_output_adapter@_W@__crt_stdio_output@@V?$standard_base@_WV?$stream_output_adapter@_W@__crt_stdio_output@@@2@@__crt_stdio_output@@AEAA_NXZ 000000018007dcb0 f i libucrtd:output.obj
 0001:0007ccd0       ?type_case_u@?$output_processor@_WV?$string_output_adapter@_W@__crt_stdio_output@@V?$format_validation_base@_WV?$string_output_adapter@_W@__crt_stdio_output@@@2@@__crt_stdio_output@@AEAA_NXZ 000000018007dcd0 f i libucrtd:output.obj
 0001:0007ccf0       ?type_case_u@?$output_processor@_WV?$string_output_adapter@_W@__crt_stdio_output@@V?$positional_parameter_base@_WV?$string_output_adapter@_W@__crt_stdio_output@@@2@@__crt_stdio_output@@AEAA_NXZ 000000018007dcf0 f i libucrtd:output.obj
 0001:0007cd10       ?type_case_u@?$output_processor@_WV?$string_output_adapter@_W@__crt_stdio_output@@V?$standard_base@_WV?$string_output_adapter@_W@__crt_stdio_output@@@2@@__crt_stdio_output@@AEAA_NXZ 000000018007dd10 f i libucrtd:output.obj
 0001:0007cd30       ?type_case_x@?$output_processor@DV?$stream_output_adapter@D@__crt_stdio_output@@V?$format_validation_base@DV?$stream_output_adapter@D@__crt_stdio_output@@@2@@__crt_stdio_output@@AEAA_NXZ 000000018007dd30 f i libucrtd:output.obj
 0001:0007cd50       ?type_case_x@?$output_processor@DV?$stream_output_adapter@D@__crt_stdio_output@@V?$positional_parameter_base@DV?$stream_output_adapter@D@__crt_stdio_output@@@2@@__crt_stdio_output@@AEAA_NXZ 000000018007dd50 f i libucrtd:output.obj
 0001:0007cd70       ?type_case_x@?$output_processor@DV?$stream_output_adapter@D@__crt_stdio_output@@V?$standard_base@DV?$stream_output_adapter@D@__crt_stdio_output@@@2@@__crt_stdio_output@@AEAA_NXZ 000000018007dd70 f i libucrtd:output.obj
 0001:0007cd90       ?type_case_x@?$output_processor@DV?$string_output_adapter@D@__crt_stdio_output@@V?$format_validation_base@DV?$string_output_adapter@D@__crt_stdio_output@@@2@@__crt_stdio_output@@AEAA_NXZ 000000018007dd90 f i libucrtd:output.obj
 0001:0007cdb0       ?type_case_x@?$output_processor@DV?$string_output_adapter@D@__crt_stdio_output@@V?$positional_parameter_base@DV?$string_output_adapter@D@__crt_stdio_output@@@2@@__crt_stdio_output@@AEAA_NXZ 000000018007ddb0 f i libucrtd:output.obj
 0001:0007cdd0       ?type_case_x@?$output_processor@DV?$string_output_adapter@D@__crt_stdio_output@@V?$standard_base@DV?$string_output_adapter@D@__crt_stdio_output@@@2@@__crt_stdio_output@@AEAA_NXZ 000000018007ddd0 f i libucrtd:output.obj
 0001:0007cdf0       ?type_case_x@?$output_processor@_WV?$stream_output_adapter@_W@__crt_stdio_output@@V?$format_validation_base@_WV?$stream_output_adapter@_W@__crt_stdio_output@@@2@@__crt_stdio_output@@AEAA_NXZ 000000018007ddf0 f i libucrtd:output.obj
 0001:0007ce10       ?type_case_x@?$output_processor@_WV?$stream_output_adapter@_W@__crt_stdio_output@@V?$positional_parameter_base@_WV?$stream_output_adapter@_W@__crt_stdio_output@@@2@@__crt_stdio_output@@AEAA_NXZ 000000018007de10 f i libucrtd:output.obj
 0001:0007ce30       ?type_case_x@?$output_processor@_WV?$stream_output_adapter@_W@__crt_stdio_output@@V?$standard_base@_WV?$stream_output_adapter@_W@__crt_stdio_output@@@2@@__crt_stdio_output@@AEAA_NXZ 000000018007de30 f i libucrtd:output.obj
 0001:0007ce50       ?type_case_x@?$output_processor@_WV?$string_output_adapter@_W@__crt_stdio_output@@V?$format_validation_base@_WV?$string_output_adapter@_W@__crt_stdio_output@@@2@@__crt_stdio_output@@AEAA_NXZ 000000018007de50 f i libucrtd:output.obj
 0001:0007ce70       ?type_case_x@?$output_processor@_WV?$string_output_adapter@_W@__crt_stdio_output@@V?$positional_parameter_base@_WV?$string_output_adapter@_W@__crt_stdio_output@@@2@@__crt_stdio_output@@AEAA_NXZ 000000018007de70 f i libucrtd:output.obj
 0001:0007ce90       ?type_case_x@?$output_processor@_WV?$string_output_adapter@_W@__crt_stdio_output@@V?$standard_base@_WV?$string_output_adapter@_W@__crt_stdio_output@@@2@@__crt_stdio_output@@AEAA_NXZ 000000018007de90 f i libucrtd:output.obj
 0001:0007ceb0       ?unset_flag@?$output_processor@DV?$stream_output_adapter@D@__crt_stdio_output@@V?$format_validation_base@DV?$stream_output_adapter@D@__crt_stdio_output@@@2@@__crt_stdio_output@@AEAAXI@Z 000000018007deb0 f i libucrtd:output.obj
 0001:0007cee0       ?unset_flag@?$output_processor@DV?$stream_output_adapter@D@__crt_stdio_output@@V?$positional_parameter_base@DV?$stream_output_adapter@D@__crt_stdio_output@@@2@@__crt_stdio_output@@AEAAXI@Z 000000018007dee0 f i libucrtd:output.obj
 0001:0007cf10       ?unset_flag@?$output_processor@DV?$stream_output_adapter@D@__crt_stdio_output@@V?$standard_base@DV?$stream_output_adapter@D@__crt_stdio_output@@@2@@__crt_stdio_output@@AEAAXI@Z 000000018007df10 f i libucrtd:output.obj
 0001:0007cf40       ?unset_flag@?$output_processor@DV?$string_output_adapter@D@__crt_stdio_output@@V?$format_validation_base@DV?$string_output_adapter@D@__crt_stdio_output@@@2@@__crt_stdio_output@@AEAAXI@Z 000000018007df40 f i libucrtd:output.obj
 0001:0007cf70       ?unset_flag@?$output_processor@DV?$string_output_adapter@D@__crt_stdio_output@@V?$positional_parameter_base@DV?$string_output_adapter@D@__crt_stdio_output@@@2@@__crt_stdio_output@@AEAAXI@Z 000000018007df70 f i libucrtd:output.obj
 0001:0007cfa0       ?unset_flag@?$output_processor@DV?$string_output_adapter@D@__crt_stdio_output@@V?$standard_base@DV?$string_output_adapter@D@__crt_stdio_output@@@2@@__crt_stdio_output@@AEAAXI@Z 000000018007dfa0 f i libucrtd:output.obj
 0001:0007cfd0       ?unset_flag@?$output_processor@_WV?$stream_output_adapter@_W@__crt_stdio_output@@V?$format_validation_base@_WV?$stream_output_adapter@_W@__crt_stdio_output@@@2@@__crt_stdio_output@@AEAAXI@Z 000000018007dfd0 f i libucrtd:output.obj
 0001:0007d000       ?unset_flag@?$output_processor@_WV?$stream_output_adapter@_W@__crt_stdio_output@@V?$positional_parameter_base@_WV?$stream_output_adapter@_W@__crt_stdio_output@@@2@@__crt_stdio_output@@AEAAXI@Z 000000018007e000 f i libucrtd:output.obj
 0001:0007d030       ?unset_flag@?$output_processor@_WV?$stream_output_adapter@_W@__crt_stdio_output@@V?$standard_base@_WV?$stream_output_adapter@_W@__crt_stdio_output@@@2@@__crt_stdio_output@@AEAAXI@Z 000000018007e030 f i libucrtd:output.obj
 0001:0007d060       ?unset_flag@?$output_processor@_WV?$string_output_adapter@_W@__crt_stdio_output@@V?$format_validation_base@_WV?$string_output_adapter@_W@__crt_stdio_output@@@2@@__crt_stdio_output@@AEAAXI@Z 000000018007e060 f i libucrtd:output.obj
 0001:0007d090       ?unset_flag@?$output_processor@_WV?$string_output_adapter@_W@__crt_stdio_output@@V?$positional_parameter_base@_WV?$string_output_adapter@_W@__crt_stdio_output@@@2@@__crt_stdio_output@@AEAAXI@Z 000000018007e090 f i libucrtd:output.obj
 0001:0007d0c0       ?unset_flag@?$output_processor@_WV?$string_output_adapter@_W@__crt_stdio_output@@V?$standard_base@_WV?$string_output_adapter@_W@__crt_stdio_output@@@2@@__crt_stdio_output@@AEAAXI@Z 000000018007e0c0 f i libucrtd:output.obj
 0001:0007d0f0       ?update_field_width@?$positional_parameter_base@DV?$stream_output_adapter@D@__crt_stdio_output@@@__crt_stdio_output@@IEAA_NXZ 000000018007e0f0 f i libucrtd:output.obj
 0001:0007d2e0       ?update_field_width@?$positional_parameter_base@DV?$string_output_adapter@D@__crt_stdio_output@@@__crt_stdio_output@@IEAA_NXZ 000000018007e2e0 f i libucrtd:output.obj
 0001:0007d4d0       ?update_field_width@?$positional_parameter_base@_WV?$stream_output_adapter@_W@__crt_stdio_output@@@__crt_stdio_output@@IEAA_NXZ 000000018007e4d0 f i libucrtd:output.obj
 0001:0007d6c0       ?update_field_width@?$positional_parameter_base@_WV?$string_output_adapter@_W@__crt_stdio_output@@@__crt_stdio_output@@IEAA_NXZ 000000018007e6c0 f i libucrtd:output.obj
 0001:0007d8b0       ?update_field_width@?$standard_base@DV?$stream_output_adapter@D@__crt_stdio_output@@@__crt_stdio_output@@IEAA_NXZ 000000018007e8b0 f i libucrtd:output.obj
 0001:0007d8e0       ?update_field_width@?$standard_base@DV?$string_output_adapter@D@__crt_stdio_output@@@__crt_stdio_output@@IEAA_NXZ 000000018007e8e0 f i libucrtd:output.obj
 0001:0007d910       ?update_field_width@?$standard_base@_WV?$stream_output_adapter@_W@__crt_stdio_output@@@__crt_stdio_output@@IEAA_NXZ 000000018007e910 f i libucrtd:output.obj
 0001:0007d940       ?update_field_width@?$standard_base@_WV?$string_output_adapter@_W@__crt_stdio_output@@@__crt_stdio_output@@IEAA_NXZ 000000018007e940 f i libucrtd:output.obj
 0001:0007d970       ?update_precision@?$positional_parameter_base@DV?$stream_output_adapter@D@__crt_stdio_output@@@__crt_stdio_output@@IEAA_NXZ 000000018007e970 f i libucrtd:output.obj
 0001:0007db60       ?update_precision@?$positional_parameter_base@DV?$string_output_adapter@D@__crt_stdio_output@@@__crt_stdio_output@@IEAA_NXZ 000000018007eb60 f i libucrtd:output.obj
 0001:0007dd50       ?update_precision@?$positional_parameter_base@_WV?$stream_output_adapter@_W@__crt_stdio_output@@@__crt_stdio_output@@IEAA_NXZ 000000018007ed50 f i libucrtd:output.obj
 0001:0007df40       ?update_precision@?$positional_parameter_base@_WV?$string_output_adapter@_W@__crt_stdio_output@@@__crt_stdio_output@@IEAA_NXZ 000000018007ef40 f i libucrtd:output.obj
 0001:0007e130       ?update_precision@?$standard_base@DV?$stream_output_adapter@D@__crt_stdio_output@@@__crt_stdio_output@@IEAA_NXZ 000000018007f130 f i libucrtd:output.obj
 0001:0007e160       ?update_precision@?$standard_base@DV?$string_output_adapter@D@__crt_stdio_output@@@__crt_stdio_output@@IEAA_NXZ 000000018007f160 f i libucrtd:output.obj
 0001:0007e190       ?update_precision@?$standard_base@_WV?$stream_output_adapter@_W@__crt_stdio_output@@@__crt_stdio_output@@IEAA_NXZ 000000018007f190 f i libucrtd:output.obj
 0001:0007e1c0       ?update_precision@?$standard_base@_WV?$string_output_adapter@_W@__crt_stdio_output@@@__crt_stdio_output@@IEAA_NXZ 000000018007f1c0 f i libucrtd:output.obj
 0001:0007e1f0       ?valid@__crt_stdio_stream@@QEBA_NXZ 000000018007f1f0 f i libucrtd:output.obj
 0001:0007e220       ?validate@?$stream_output_adapter@D@__crt_stdio_output@@QEBA_NXZ 000000018007f220 f i libucrtd:output.obj
 0001:0007e300       ?validate@?$stream_output_adapter@_W@__crt_stdio_output@@QEBA_NXZ 000000018007f300 f i libucrtd:output.obj
 0001:0007e3e0       ?validate@?$string_output_adapter@D@__crt_stdio_output@@QEBA_NXZ 000000018007f3e0 f i libucrtd:output.obj
 0001:0007e4a0       ?validate@?$string_output_adapter@_W@__crt_stdio_output@@QEBA_NXZ 000000018007f4a0 f i libucrtd:output.obj
 0001:0007e560       ?validate_and_store_parameter_data@?$positional_parameter_base@DV?$stream_output_adapter@D@__crt_stdio_output@@@__crt_stdio_output@@AEAA_NAEAUparameter_data@12@W4parameter_type@12@DW4length_modifier@2@@Z 000000018007f560 f i libucrtd:output.obj
 0001:0007e680       ?validate_and_store_parameter_data@?$positional_parameter_base@DV?$string_output_adapter@D@__crt_stdio_output@@@__crt_stdio_output@@AEAA_NAEAUparameter_data@12@W4parameter_type@12@DW4length_modifier@2@@Z 000000018007f680 f i libucrtd:output.obj
 0001:0007e7a0       ?validate_and_store_parameter_data@?$positional_parameter_base@_WV?$stream_output_adapter@_W@__crt_stdio_output@@@__crt_stdio_output@@AEAA_NAEAUparameter_data@12@W4parameter_type@12@_WW4length_modifier@2@@Z 000000018007f7a0 f i libucrtd:output.obj
 0001:0007e8c0       ?validate_and_store_parameter_data@?$positional_parameter_base@_WV?$string_output_adapter@_W@__crt_stdio_output@@@__crt_stdio_output@@AEAA_NAEAUparameter_data@12@W4parameter_type@12@_WW4length_modifier@2@@Z 000000018007f8c0 f i libucrtd:output.obj
 0001:0007e9e0       ?validate_and_update_state_at_beginning_of_format_character@?$positional_parameter_base@DV?$stream_output_adapter@D@__crt_stdio_output@@@__crt_stdio_output@@IEAA_NXZ 000000018007f9e0 f i libucrtd:output.obj
 0001:0007ecc0       ?validate_and_update_state_at_beginning_of_format_character@?$positional_parameter_base@DV?$string_output_adapter@D@__crt_stdio_output@@@__crt_stdio_output@@IEAA_NXZ 000000018007fcc0 f i libucrtd:output.obj
 0001:0007efa0       ?validate_and_update_state_at_beginning_of_format_character@?$positional_parameter_base@_WV?$stream_output_adapter@_W@__crt_stdio_output@@@__crt_stdio_output@@IEAA_NXZ 000000018007ffa0 f i libucrtd:output.obj
 0001:0007f280       ?validate_and_update_state_at_beginning_of_format_character@?$positional_parameter_base@_WV?$string_output_adapter@_W@__crt_stdio_output@@@__crt_stdio_output@@IEAA_NXZ 0000000180080280 f i libucrtd:output.obj
 0001:0007f560       ?validate_and_update_state_at_beginning_of_format_character@?$standard_base@DV?$stream_output_adapter@D@__crt_stdio_output@@@__crt_stdio_output@@IEAA_NXZ 0000000180080560 f i libucrtd:output.obj
 0001:0007f570       ?validate_and_update_state_at_beginning_of_format_character@?$standard_base@DV?$string_output_adapter@D@__crt_stdio_output@@@__crt_stdio_output@@IEAA_NXZ 0000000180080570 f i libucrtd:output.obj
 0001:0007f580       ?validate_and_update_state_at_beginning_of_format_character@?$standard_base@_WV?$stream_output_adapter@_W@__crt_stdio_output@@@__crt_stdio_output@@IEAA_NXZ 0000000180080580 f i libucrtd:output.obj
 0001:0007f590       ?validate_and_update_state_at_beginning_of_format_character@?$standard_base@_WV?$string_output_adapter@_W@__crt_stdio_output@@@__crt_stdio_output@@IEAA_NXZ 0000000180080590 f i libucrtd:output.obj
 0001:0007f5a0       ?validate_and_update_state_at_end_of_format_string@?$format_validation_base@DV?$stream_output_adapter@D@__crt_stdio_output@@@__crt_stdio_output@@IEBA_NXZ 00000001800805a0 f i libucrtd:output.obj
 0001:0007f660       ?validate_and_update_state_at_end_of_format_string@?$format_validation_base@DV?$string_output_adapter@D@__crt_stdio_output@@@__crt_stdio_output@@IEBA_NXZ 0000000180080660 f i libucrtd:output.obj
 0001:0007f720       ?validate_and_update_state_at_end_of_format_string@?$format_validation_base@_WV?$stream_output_adapter@_W@__crt_stdio_output@@@__crt_stdio_output@@IEBA_NXZ 0000000180080720 f i libucrtd:output.obj
 0001:0007f7e0       ?validate_and_update_state_at_end_of_format_string@?$format_validation_base@_WV?$string_output_adapter@_W@__crt_stdio_output@@@__crt_stdio_output@@IEBA_NXZ 00000001800807e0 f i libucrtd:output.obj
 0001:0007f8a0       ?validate_and_update_state_at_end_of_format_string@?$positional_parameter_base@DV?$stream_output_adapter@D@__crt_stdio_output@@@__crt_stdio_output@@IEAA_NXZ 00000001800808a0 f i libucrtd:output.obj
 0001:0007fa90       ?validate_and_update_state_at_end_of_format_string@?$positional_parameter_base@DV?$string_output_adapter@D@__crt_stdio_output@@@__crt_stdio_output@@IEAA_NXZ 0000000180080a90 f i libucrtd:output.obj
 0001:0007fc80       ?validate_and_update_state_at_end_of_format_string@?$positional_parameter_base@_WV?$stream_output_adapter@_W@__crt_stdio_output@@@__crt_stdio_output@@IEAA_NXZ 0000000180080c80 f i libucrtd:output.obj
 0001:0007fe70       ?validate_and_update_state_at_end_of_format_string@?$positional_parameter_base@_WV?$string_output_adapter@_W@__crt_stdio_output@@@__crt_stdio_output@@IEAA_NXZ 0000000180080e70 f i libucrtd:output.obj
 0001:00080060       ?validate_and_update_state_at_end_of_format_string@?$standard_base@DV?$stream_output_adapter@D@__crt_stdio_output@@@__crt_stdio_output@@IEBA_NXZ 0000000180081060 f i libucrtd:output.obj
 0001:00080070       ?validate_and_update_state_at_end_of_format_string@?$standard_base@DV?$string_output_adapter@D@__crt_stdio_output@@@__crt_stdio_output@@IEBA_NXZ 0000000180081070 f i libucrtd:output.obj
 0001:00080080       ?validate_and_update_state_at_end_of_format_string@?$standard_base@_WV?$stream_output_adapter@_W@__crt_stdio_output@@@__crt_stdio_output@@IEBA_NXZ 0000000180081080 f i libucrtd:output.obj
 0001:00080090       ?validate_and_update_state_at_end_of_format_string@?$standard_base@_WV?$string_output_adapter@_W@__crt_stdio_output@@@__crt_stdio_output@@IEBA_NXZ 0000000180081090 f i libucrtd:output.obj
 0001:000800a0       ?validate_state_for_type_case_a@?$positional_parameter_base@DV?$stream_output_adapter@D@__crt_stdio_output@@@__crt_stdio_output@@IEAA_NXZ 00000001800810a0 f i libucrtd:output.obj
 0001:000801e0       ?validate_state_for_type_case_a@?$positional_parameter_base@DV?$string_output_adapter@D@__crt_stdio_output@@@__crt_stdio_output@@IEAA_NXZ 00000001800811e0 f i libucrtd:output.obj
 0001:00080320       ?validate_state_for_type_case_a@?$positional_parameter_base@_WV?$stream_output_adapter@_W@__crt_stdio_output@@@__crt_stdio_output@@IEAA_NXZ 0000000180081320 f i libucrtd:output.obj
 0001:00080460       ?validate_state_for_type_case_a@?$positional_parameter_base@_WV?$string_output_adapter@_W@__crt_stdio_output@@@__crt_stdio_output@@IEAA_NXZ 0000000180081460 f i libucrtd:output.obj
 0001:000805a0       ?validate_state_for_type_case_a@?$standard_base@DV?$stream_output_adapter@D@__crt_stdio_output@@@__crt_stdio_output@@IEBA_NXZ 00000001800815a0 f i libucrtd:output.obj
 0001:000805b0       ?validate_state_for_type_case_a@?$standard_base@DV?$string_output_adapter@D@__crt_stdio_output@@@__crt_stdio_output@@IEBA_NXZ 00000001800815b0 f i libucrtd:output.obj
 0001:000805c0       ?validate_state_for_type_case_a@?$standard_base@_WV?$stream_output_adapter@_W@__crt_stdio_output@@@__crt_stdio_output@@IEBA_NXZ 00000001800815c0 f i libucrtd:output.obj
 0001:000805d0       ?validate_state_for_type_case_a@?$standard_base@_WV?$string_output_adapter@_W@__crt_stdio_output@@@__crt_stdio_output@@IEBA_NXZ 00000001800815d0 f i libucrtd:output.obj
 0001:000805e0       ?validate_stream_is_ansi_if_required@?$__acrt_stdio_char_traits@D@@SA_NQEAU_iobuf@@@Z 00000001800815e0 f i libucrtd:output.obj
 0001:00080770       ?validate_stream_is_ansi_if_required@?$__acrt_stdio_char_traits@_W@@SA_NQEAU_iobuf@@@Z 0000000180081770 f i libucrtd:output.obj
 0001:00080780       ?wide_null_string@?$output_processor@DV?$stream_output_adapter@D@__crt_stdio_output@@V?$format_validation_base@DV?$stream_output_adapter@D@__crt_stdio_output@@@2@@__crt_stdio_output@@CAPEA_WXZ 0000000180081780 f i libucrtd:output.obj
 0001:00080790       ?wide_null_string@?$output_processor@DV?$stream_output_adapter@D@__crt_stdio_output@@V?$positional_parameter_base@DV?$stream_output_adapter@D@__crt_stdio_output@@@2@@__crt_stdio_output@@CAPEA_WXZ 0000000180081790 f i libucrtd:output.obj
 0001:000807a0       ?wide_null_string@?$output_processor@DV?$stream_output_adapter@D@__crt_stdio_output@@V?$standard_base@DV?$stream_output_adapter@D@__crt_stdio_output@@@2@@__crt_stdio_output@@CAPEA_WXZ 00000001800817a0 f i libucrtd:output.obj
 0001:000807b0       ?wide_null_string@?$output_processor@DV?$string_output_adapter@D@__crt_stdio_output@@V?$format_validation_base@DV?$string_output_adapter@D@__crt_stdio_output@@@2@@__crt_stdio_output@@CAPEA_WXZ 00000001800817b0 f i libucrtd:output.obj
 0001:000807c0       ?wide_null_string@?$output_processor@DV?$string_output_adapter@D@__crt_stdio_output@@V?$positional_parameter_base@DV?$string_output_adapter@D@__crt_stdio_output@@@2@@__crt_stdio_output@@CAPEA_WXZ 00000001800817c0 f i libucrtd:output.obj
 0001:000807d0       ?wide_null_string@?$output_processor@DV?$string_output_adapter@D@__crt_stdio_output@@V?$standard_base@DV?$string_output_adapter@D@__crt_stdio_output@@@2@@__crt_stdio_output@@CAPEA_WXZ 00000001800817d0 f i libucrtd:output.obj
 0001:000807e0       ?wide_null_string@?$output_processor@_WV?$stream_output_adapter@_W@__crt_stdio_output@@V?$format_validation_base@_WV?$stream_output_adapter@_W@__crt_stdio_output@@@2@@__crt_stdio_output@@CAPEA_WXZ 00000001800817e0 f i libucrtd:output.obj
 0001:000807f0       ?wide_null_string@?$output_processor@_WV?$stream_output_adapter@_W@__crt_stdio_output@@V?$positional_parameter_base@_WV?$stream_output_adapter@_W@__crt_stdio_output@@@2@@__crt_stdio_output@@CAPEA_WXZ 00000001800817f0 f i libucrtd:output.obj
 0001:00080800       ?wide_null_string@?$output_processor@_WV?$stream_output_adapter@_W@__crt_stdio_output@@V?$standard_base@_WV?$stream_output_adapter@_W@__crt_stdio_output@@@2@@__crt_stdio_output@@CAPEA_WXZ 0000000180081800 f i libucrtd:output.obj
 0001:00080810       ?wide_null_string@?$output_processor@_WV?$string_output_adapter@_W@__crt_stdio_output@@V?$format_validation_base@_WV?$string_output_adapter@_W@__crt_stdio_output@@@2@@__crt_stdio_output@@CAPEA_WXZ 0000000180081810 f i libucrtd:output.obj
 0001:00080820       ?wide_null_string@?$output_processor@_WV?$string_output_adapter@_W@__crt_stdio_output@@V?$positional_parameter_base@_WV?$string_output_adapter@_W@__crt_stdio_output@@@2@@__crt_stdio_output@@CAPEA_WXZ 0000000180081820 f i libucrtd:output.obj
 0001:00080830       ?wide_null_string@?$output_processor@_WV?$string_output_adapter@_W@__crt_stdio_output@@V?$standard_base@_WV?$string_output_adapter@_W@__crt_stdio_output@@@2@@__crt_stdio_output@@CAPEA_WXZ 0000000180081830 f i libucrtd:output.obj
 0001:00080840       ?write_character@?$output_adapter_common@DV?$stream_output_adapter@D@__crt_stdio_output@@@__crt_stdio_output@@QEBAXDQEAH@Z 0000000180081840 f i libucrtd:output.obj
 0001:00080890       ?write_character@?$output_adapter_common@_WV?$stream_output_adapter@_W@__crt_stdio_output@@@__crt_stdio_output@@QEBAX_WQEAH@Z 0000000180081890 f i libucrtd:output.obj
 0001:000808e0       ?write_character@?$string_output_adapter@D@__crt_stdio_output@@QEBA_NDQEAH@Z 00000001800818e0 f i libucrtd:output.obj
 0001:000809a0       ?write_character@?$string_output_adapter@_W@__crt_stdio_output@@QEBA_N_WQEAH@Z 00000001800819a0 f i libucrtd:output.obj
 0001:00080a60       ?write_character_without_count_update@?$stream_output_adapter@D@__crt_stdio_output@@QEBA_ND@Z 0000000180081a60 f i libucrtd:output.obj
 0001:00080ae0       ?write_character_without_count_update@?$stream_output_adapter@_W@__crt_stdio_output@@QEBA_N_W@Z 0000000180081ae0 f i libucrtd:output.obj
 0001:00080b70       ?write_stored_string_tchar@?$output_processor@DV?$stream_output_adapter@D@__crt_stdio_output@@V?$format_validation_base@DV?$stream_output_adapter@D@__crt_stdio_output@@@2@@__crt_stdio_output@@AEAA_ND@Z 0000000180081b70 f i libucrtd:output.obj
 0001:00080d30       ?write_stored_string_tchar@?$output_processor@DV?$stream_output_adapter@D@__crt_stdio_output@@V?$positional_parameter_base@DV?$stream_output_adapter@D@__crt_stdio_output@@@2@@__crt_stdio_output@@AEAA_ND@Z 0000000180081d30 f i libucrtd:output.obj
 0001:00080ef0       ?write_stored_string_tchar@?$output_processor@DV?$stream_output_adapter@D@__crt_stdio_output@@V?$standard_base@DV?$stream_output_adapter@D@__crt_stdio_output@@@2@@__crt_stdio_output@@AEAA_ND@Z 0000000180081ef0 f i libucrtd:output.obj
 0001:000810b0       ?write_stored_string_tchar@?$output_processor@DV?$string_output_adapter@D@__crt_stdio_output@@V?$format_validation_base@DV?$string_output_adapter@D@__crt_stdio_output@@@2@@__crt_stdio_output@@AEAA_ND@Z 00000001800820b0 f i libucrtd:output.obj
 0001:00081270       ?write_stored_string_tchar@?$output_processor@DV?$string_output_adapter@D@__crt_stdio_output@@V?$positional_parameter_base@DV?$string_output_adapter@D@__crt_stdio_output@@@2@@__crt_stdio_output@@AEAA_ND@Z 0000000180082270 f i libucrtd:output.obj
 0001:00081430       ?write_stored_string_tchar@?$output_processor@DV?$string_output_adapter@D@__crt_stdio_output@@V?$standard_base@DV?$string_output_adapter@D@__crt_stdio_output@@@2@@__crt_stdio_output@@AEAA_ND@Z 0000000180082430 f i libucrtd:output.obj
 0001:000815f0       ?write_stored_string_tchar@?$output_processor@_WV?$stream_output_adapter@_W@__crt_stdio_output@@V?$format_validation_base@_WV?$stream_output_adapter@_W@__crt_stdio_output@@@2@@__crt_stdio_output@@AEAA_N_W@Z 00000001800825f0 f i libucrtd:output.obj
 0001:00081740       ?write_stored_string_tchar@?$output_processor@_WV?$stream_output_adapter@_W@__crt_stdio_output@@V?$positional_parameter_base@_WV?$stream_output_adapter@_W@__crt_stdio_output@@@2@@__crt_stdio_output@@AEAA_N_W@Z 0000000180082740 f i libucrtd:output.obj
 0001:00081890       ?write_stored_string_tchar@?$output_processor@_WV?$stream_output_adapter@_W@__crt_stdio_output@@V?$standard_base@_WV?$stream_output_adapter@_W@__crt_stdio_output@@@2@@__crt_stdio_output@@AEAA_N_W@Z 0000000180082890 f i libucrtd:output.obj
 0001:000819e0       ?write_stored_string_tchar@?$output_processor@_WV?$string_output_adapter@_W@__crt_stdio_output@@V?$format_validation_base@_WV?$string_output_adapter@_W@__crt_stdio_output@@@2@@__crt_stdio_output@@AEAA_N_W@Z 00000001800829e0 f i libucrtd:output.obj
 0001:00081b30       ?write_stored_string_tchar@?$output_processor@_WV?$string_output_adapter@_W@__crt_stdio_output@@V?$positional_parameter_base@_WV?$string_output_adapter@_W@__crt_stdio_output@@@2@@__crt_stdio_output@@AEAA_N_W@Z 0000000180082b30 f i libucrtd:output.obj
 0001:00081c80       ?write_stored_string_tchar@?$output_processor@_WV?$string_output_adapter@_W@__crt_stdio_output@@V?$standard_base@_WV?$string_output_adapter@_W@__crt_stdio_output@@@2@@__crt_stdio_output@@AEAA_N_W@Z 0000000180082c80 f i libucrtd:output.obj
 0001:00081dd0       ?write_string@?$stream_output_adapter@D@__crt_stdio_output@@QEBAXQEBDHQEAHAEAV__crt_deferred_errno_cache@@@Z 0000000180082dd0 f i libucrtd:output.obj
 0001:00081e50       ?write_string@?$stream_output_adapter@_W@__crt_stdio_output@@QEBAXQEB_WHQEAHAEAV__crt_deferred_errno_cache@@@Z 0000000180082e50 f i libucrtd:output.obj
 0001:00081ed0       ?write_string@?$string_output_adapter@D@__crt_stdio_output@@QEBAXQEBDHQEAHAEAV__crt_deferred_errno_cache@@@Z 0000000180082ed0 f i libucrtd:output.obj
 0001:00082040       ?write_string@?$string_output_adapter@_W@__crt_stdio_output@@QEBAXQEB_WHQEAHAEAV__crt_deferred_errno_cache@@@Z 0000000180083040 f i libucrtd:output.obj
 0001:000821b0       ?write_string_impl@?$output_adapter_common@DV?$stream_output_adapter@D@__crt_stdio_output@@@__crt_stdio_output@@IEBAXQEBDHQEAHAEAV__crt_deferred_errno_cache@@@Z 00000001800831b0 f i libucrtd:output.obj
 0001:00082290       ?write_string_impl@?$output_adapter_common@_WV?$stream_output_adapter@_W@__crt_stdio_output@@@__crt_stdio_output@@IEBAXQEB_WHQEAHAEAV__crt_deferred_errno_cache@@@Z 0000000180083290 f i libucrtd:output.obj
 0001:00082370       __acrt_disable_global_locale_sync 0000000180083370 f i libucrtd:output.obj
 0001:000823a0       __acrt_enable_global_locale_sync 00000001800833a0 f i libucrtd:output.obj
 0001:000823d0       __acrt_isleadbyte_l_noupdate 00000001800833d0 f i libucrtd:output.obj
 0001:00082400       __acrt_locale_changed      0000000180083400 f i libucrtd:output.obj
 0001:00082430       __acrt_locale_get_ctype_array_value 0000000180083430 f i libucrtd:output.obj
 0001:00082470       __stdio_common_vfprintf    0000000180083470 f   libucrtd:output.obj
 0001:000824b0       __stdio_common_vfprintf_p  00000001800834b0 f   libucrtd:output.obj
 0001:000824f0       __stdio_common_vfprintf_s  00000001800834f0 f   libucrtd:output.obj
 0001:00082530       __stdio_common_vfwprintf   0000000180083530 f   libucrtd:output.obj
 0001:00082570       __stdio_common_vfwprintf_p 0000000180083570 f   libucrtd:output.obj
 0001:000825b0       __stdio_common_vfwprintf_s 00000001800835b0 f   libucrtd:output.obj
 0001:000825f0       __stdio_common_vsnprintf_s 00000001800835f0 f   libucrtd:output.obj
 0001:00082650       __stdio_common_vsnwprintf_s 0000000180083650 f   libucrtd:output.obj
 0001:000826b0       __stdio_common_vsprintf    00000001800836b0 f   libucrtd:output.obj
 0001:00082700       __stdio_common_vsprintf_p  0000000180083700 f   libucrtd:output.obj
 0001:00082750       __stdio_common_vsprintf_s  0000000180083750 f   libucrtd:output.obj
 0001:000827a0       __stdio_common_vswprintf   00000001800837a0 f   libucrtd:output.obj
 0001:000827f0       __stdio_common_vswprintf_p 00000001800837f0 f   libucrtd:output.obj
 0001:00082840       __stdio_common_vswprintf_s 0000000180083840 f   libucrtd:output.obj
 0001:00082890       _ctype_fast_check_internal 0000000180083890 f i libucrtd:output.obj
 0001:000828c0       _isdigit_fast_internal     00000001800838c0 f i libucrtd:output.obj
 0001:000828f0       _tolower_fast_internal     00000001800838f0 f i libucrtd:output.obj
 0001:00082920       free                       0000000180083920 f   libucrtd:free.obj
 0001:00082950       malloc                     0000000180083950 f   libucrtd:malloc.obj
 0001:00082980       ??$?RU?$__crt_report_hook_node@D@@@__crt_internal_free_policy@@QEBAXQEBU?$__crt_report_hook_node@D@@@Z 0000000180083980 f i libucrtd:dbgrpt.obj
 0001:000829b0       ??$?RU?$__crt_report_hook_node@_W@@@__crt_internal_free_policy@@QEBAXQEBU?$__crt_report_hook_node@_W@@@Z 00000001800839b0 f i libucrtd:dbgrpt.obj
 0001:00083bf0       ??$get_module_file_name@AEAPEAUHINSTANCE__@@AEAY0BAF@DK@?$__crt_char_traits@D@@SAKAEAPEAUHINSTANCE__@@AEAY0BAF@D$$QEAK@Z 0000000180084bf0 f i libucrtd:dbgrpt.obj
 0001:00083c30       ??$get_module_file_name@AEAPEAUHINSTANCE__@@AEAY0BAF@_WK@?$__crt_char_traits@_W@@SAKAEAPEAUHINSTANCE__@@AEAY0BAF@_W$$QEAK@Z 0000000180084c30 f i libucrtd:dbgrpt.obj
 0001:00083c70       ??$tcscpy_s@AEAY0BAF@D_KPEBD@?$__crt_char_traits@D@@SAHAEAY0BAF@D$$QEA_K$$QEAPEBD@Z 0000000180084c70 f i libucrtd:dbgrpt.obj
 0001:00083cb0       ??$tcscpy_s@AEAY0BAF@_W_KPEB_W@?$__crt_char_traits@_W@@SAHAEAY0BAF@_W$$QEA_K$$QEAPEB_W@Z 0000000180084cb0 f i libucrtd:dbgrpt.obj
 0001:00083cf0       ??$tcslen@AEAY0BAF@D@?$__crt_char_traits@D@@SA_KAEAY0BAF@D@Z 0000000180084cf0 f i libucrtd:dbgrpt.obj
 0001:00083d10       ??$tcslen@AEAY0BAF@_W@?$__crt_char_traits@_W@@SA_KAEAY0BAF@_W@Z 0000000180084d10 f i libucrtd:dbgrpt.obj
 0001:00083d30       ??$tcslen@AEBQEBD@?$__crt_char_traits@D@@SA_KAEBQEBD@Z 0000000180084d30 f i libucrtd:dbgrpt.obj
 0001:00083d50       ??$tcslen@AEBQEB_W@?$__crt_char_traits@_W@@SA_KAEBQEB_W@Z 0000000180084d50 f i libucrtd:dbgrpt.obj
 0001:00083e50       ??0?$__crt_unique_heap_ptr@U?$__crt_report_hook_node@D@@U__crt_internal_free_policy@@@@QEAA@QEAU?$__crt_report_hook_node@D@@@Z 0000000180084e50 f i libucrtd:dbgrpt.obj
 0001:00083e70       ??0?$__crt_unique_heap_ptr@U?$__crt_report_hook_node@_W@@U__crt_internal_free_policy@@@@QEAA@QEAU?$__crt_report_hook_node@_W@@@Z 0000000180084e70 f i libucrtd:dbgrpt.obj
 0001:00083e90       ??1?$__crt_unique_heap_ptr@U?$__crt_report_hook_node@D@@U__crt_internal_free_policy@@@@QEAA@XZ 0000000180084e90 f i libucrtd:dbgrpt.obj
 0001:00083eb0       ??1?$__crt_unique_heap_ptr@U?$__crt_report_hook_node@_W@@U__crt_internal_free_policy@@@@QEAA@XZ 0000000180084eb0 f i libucrtd:dbgrpt.obj
 0001:00083ed0       ??B?$__crt_unique_heap_ptr@U?$__crt_report_hook_node@D@@U__crt_internal_free_policy@@@@QEBA_NXZ 0000000180084ed0 f i libucrtd:dbgrpt.obj
 0001:00083ef0       ??B?$__crt_unique_heap_ptr@U?$__crt_report_hook_node@_W@@U__crt_internal_free_policy@@@@QEBA_NXZ 0000000180084ef0 f i libucrtd:dbgrpt.obj
 0001:000845d0       ?detach@?$__crt_unique_heap_ptr@U?$__crt_report_hook_node@D@@U__crt_internal_free_policy@@@@QEAAPEAU?$__crt_report_hook_node@D@@XZ 00000001800855d0 f i libucrtd:dbgrpt.obj
 0001:00084600       ?detach@?$__crt_unique_heap_ptr@U?$__crt_report_hook_node@_W@@U__crt_internal_free_policy@@@@QEAAPEAU?$__crt_report_hook_node@_W@@XZ 0000000180085600 f i libucrtd:dbgrpt.obj
 0001:00084630       ?get@?$__crt_unique_heap_ptr@U?$__crt_report_hook_node@D@@U__crt_internal_free_policy@@@@QEBAPEAU?$__crt_report_hook_node@D@@XZ 0000000180085630 f i libucrtd:dbgrpt.obj
 0001:00084640       ?get@?$__crt_unique_heap_ptr@U?$__crt_report_hook_node@_W@@U__crt_internal_free_policy@@@@QEBAPEAU?$__crt_report_hook_node@_W@@XZ 0000000180085640 f i libucrtd:dbgrpt.obj
 0001:000846b0       ?is_valid@?$__crt_unique_heap_ptr@U?$__crt_report_hook_node@D@@U__crt_internal_free_policy@@@@QEBA_NXZ 00000001800856b0 f i libucrtd:dbgrpt.obj
 0001:000846e0       ?is_valid@?$__crt_unique_heap_ptr@U?$__crt_report_hook_node@_W@@U__crt_internal_free_policy@@@@QEBA_NXZ 00000001800856e0 f i libucrtd:dbgrpt.obj
 0001:00084710       ?release@?$__crt_unique_heap_ptr@U?$__crt_report_hook_node@D@@U__crt_internal_free_policy@@@@QEAAXXZ 0000000180085710 f i libucrtd:dbgrpt.obj
 0001:00084740       ?release@?$__crt_unique_heap_ptr@U?$__crt_report_hook_node@_W@@U__crt_internal_free_policy@@@@QEAAXXZ 0000000180085740 f i libucrtd:dbgrpt.obj
 0001:00084770       _CrtDbgReport              0000000180085770 f   libucrtd:dbgrpt.obj
 0001:000847f0       _CrtDbgReportW             00000001800857f0 f   libucrtd:dbgrpt.obj
 0001:00084870       _CrtSetReportHook2         0000000180085870 f   libucrtd:dbgrpt.obj
 0001:00084890       _CrtSetReportHookW2        0000000180085890 f   libucrtd:dbgrpt.obj
 0001:000848b0       __acrt_MessageWindowA      00000001800858b0 f   libucrtd:dbgrpt.obj
 0001:00084900       __acrt_MessageWindowW      0000000180085900 f   libucrtd:dbgrpt.obj
 0001:00084950       _invoke_watson_if_error    0000000180085950 f i libucrtd:dbgrpt.obj
 0001:000849a0       _invoke_watson_if_oneof    00000001800859a0 f i libucrtd:dbgrpt.obj
 0001:00084a00       _snwprintf_s               0000000180085a00 f i libucrtd:dbgrpt.obj
 0001:00084a70       _vsnwprintf_s_l            0000000180085a70 f i libucrtd:dbgrpt.obj
 0001:00084fd0       wcscpy_s                   0000000180085fd0 f   libucrtd:wcscpy_s.obj
 0001:00086360       ??1?$__crt_simd_cleanup_guard@$00@@QEAA@XZ 0000000180087360 f i libucrtd:strnlen.obj
 0001:00086370       ??1?$__crt_simd_cleanup_guard@$0A@@@QEAA@XZ 0000000180087370 f i libucrtd:strnlen.obj
 0001:00086380       ?compare_equals@?$__crt_simd_traits@$00E@@SA?AT__m256i@@T2@0@Z 0000000180087380 f i libucrtd:strnlen.obj
 0001:000863c0       ?compare_equals@?$__crt_simd_traits@$00G@@SA?AT__m256i@@T2@0@Z 00000001800873c0 f i libucrtd:strnlen.obj
 0001:00086400       ?compare_equals@?$__crt_simd_traits@$0A@E@@SA?AT__m128i@@T2@0@Z 0000000180087400 f i libucrtd:strnlen.obj
 0001:00086430       ?compare_equals@?$__crt_simd_traits@$0A@G@@SA?AT__m128i@@T2@0@Z 0000000180087430 f i libucrtd:strnlen.obj
 0001:00086460       ?compute_byte_mask@?$__crt_simd_pack_traits@$00@@SAHT__m256i@@@Z 0000000180087460 f i libucrtd:strnlen.obj
 0001:00086480       ?compute_byte_mask@?$__crt_simd_pack_traits@$0A@@@SAHT__m128i@@@Z 0000000180087480 f i libucrtd:strnlen.obj
 0001:000864a0       ?get_zero_pack@?$__crt_simd_pack_traits@$00@@SA?AT__m256i@@XZ 00000001800874a0 f i libucrtd:strnlen.obj
 0001:000864d0       ?get_zero_pack@?$__crt_simd_pack_traits@$0A@@@SA?AT__m128i@@XZ 00000001800874d0 f i libucrtd:strnlen.obj
 0001:000864f0       strnlen                    00000001800874f0 f   libucrtd:strnlen.obj
 0001:00086520       wcslen                     0000000180087520 f   libucrtd:strnlen.obj
 0001:00086540       wcsnlen                    0000000180087540 f   libucrtd:strnlen.obj
 0001:00086570       ??$__crt_fast_decode_pointer@P6AXPEB_W00I_K@Z@@YAP6AXPEB_W00I_K@ZQ6AX000I1@Z@Z 0000000180087570 f i libucrtd:invalid_parameter.obj
 0001:000865b0       ??$__crt_fast_encode_pointer@P6AXPEB_W00I_K@Z@@YAP6AXPEB_W00I_K@ZQ6AX000I1@Z@Z 00000001800875b0 f i libucrtd:invalid_parameter.obj
 0001:000865f0       ??$initialize_from_array@$$BY00Q6AXPEB_W00I_K@Z@?$dual_state_global@P6AXPEB_W00I_K@Z@__crt_state_management@@QEAAXAEAY00Q6AXPEB_W00I_K@Z@Z 00000001800875f0 f i libucrtd:invalid_parameter.obj
 0001:00086650       ?__crt_rotate_pointer_value@@YA_K_KH@Z 0000000180087650 f i libucrtd:invalid_parameter.obj
 0001:00086710       ?dangerous_get_state_array@?$dual_state_global@P6AXPEB_W00I_K@Z@__crt_state_management@@QEAAPEAP6AXPEB_W00I_K@ZXZ 0000000180087710 f i libucrtd:invalid_parameter.obj
 0001:00086720       ?get_current_state_index@__crt_state_management@@YA_KXZ 0000000180087720 f i libucrtd:invalid_parameter.obj
 0001:00086730       ?value@?$dual_state_global@P6AXPEB_W00I_K@Z@__crt_state_management@@QEAAAEAP6AXPEB_W00I_K@ZXZ 0000000180087730 f i libucrtd:invalid_parameter.obj
 0001:00086750       __acrt_call_reportfault    0000000180087750 f   libucrtd:invalid_parameter.obj
 0001:00086880       __acrt_initialize_invalid_parameter_handler 0000000180087880 f   libucrtd:invalid_parameter.obj
 0001:000868b0       _get_invalid_parameter_handler 00000001800878b0 f   libucrtd:invalid_parameter.obj
 0001:000868d0       _get_thread_local_invalid_parameter_handler 00000001800878d0 f   libucrtd:invalid_parameter.obj
 0001:00086900       _invalid_parameter         0000000180087900 f   libucrtd:invalid_parameter.obj
 0001:00086a00       _invalid_parameter_noinfo  0000000180087a00 f   libucrtd:invalid_parameter.obj
 0001:00086a30       _invalid_parameter_noinfo_noreturn 0000000180087a30 f   libucrtd:invalid_parameter.obj
 0001:00086a70       _invoke_watson             0000000180087a70 f   libucrtd:invalid_parameter.obj
 0001:00086ad0       _set_invalid_parameter_handler 0000000180087ad0 f   libucrtd:invalid_parameter.obj
 0001:00086b20       _set_thread_local_invalid_parameter_handler 0000000180087b20 f   libucrtd:invalid_parameter.obj
 0001:00086b60       __acrt_errno_from_os_error 0000000180087b60 f   libucrtd:errno.obj
 0001:00086bf0       __acrt_errno_map_os_error  0000000180087bf0 f   libucrtd:errno.obj
 0001:00086c20       __doserrno                 0000000180087c20 f   libucrtd:errno.obj
 0001:00086c50       _errno                     0000000180087c50 f   libucrtd:errno.obj
 0001:00086c80       _get_doserrno              0000000180087c80 f   libucrtd:errno.obj
 0001:00086d40       _get_errno                 0000000180087d40 f   libucrtd:errno.obj
 0001:00086e00       _set_doserrno              0000000180087e00 f   libucrtd:errno.obj
 0001:00086e40       _set_errno                 0000000180087e40 f   libucrtd:errno.obj
 0001:00086e80       calloc                     0000000180087e80 f   libucrtd:calloc.obj
 0001:00086ec0       _recalloc                  0000000180087ec0 f   libucrtd:recalloc.obj
 0001:00086f10       _recalloc_base             0000000180087f10 f   libucrtd:recalloc.obj
 0001:00086fec       _resetstkoflw              0000000180087fec f   libucrtd:resetstk.obj
 0001:000877a0       wcscat_s                   00000001800887a0 f   libucrtd:wcscat_s.obj
 0001:00087e70       wcsncpy_s                  0000000180088e70 f   libucrtd:wcsncpy_s.obj
 0001:00087ff0       __isascii                  0000000180088ff0 f   libucrtd:_ctype.obj
 0001:00088020       __iscsym                   0000000180089020 f   libucrtd:_ctype.obj
 0001:00088060       __iscsymf                  0000000180089060 f   libucrtd:_ctype.obj
 0001:000880a0       __toascii                  00000001800890a0 f   libucrtd:_ctype.obj
 0001:000880b0       _isalnum_l                 00000001800890b0 f   libucrtd:_ctype.obj
 0001:000880e0       _isalpha_l                 00000001800890e0 f   libucrtd:_ctype.obj
 0001:00088110       _isblank_l                 0000000180089110 f   libucrtd:_ctype.obj
 0001:00088140       _iscntrl_l                 0000000180089140 f   libucrtd:_ctype.obj
 0001:00088170       _iscsym_l                  0000000180089170 f   libucrtd:_ctype.obj
 0001:000881c0       _iscsymf_l                 00000001800891c0 f   libucrtd:_ctype.obj
 0001:00088210       _isdigit_l                 0000000180089210 f   libucrtd:_ctype.obj
 0001:00088240       _isgraph_l                 0000000180089240 f   libucrtd:_ctype.obj
 0001:00088270       _islower_l                 0000000180089270 f   libucrtd:_ctype.obj
 0001:000882a0       _isprint_l                 00000001800892a0 f   libucrtd:_ctype.obj
 0001:000882d0       _ispunct_l                 00000001800892d0 f   libucrtd:_ctype.obj
 0001:00088300       _isspace_l                 0000000180089300 f   libucrtd:_ctype.obj
 0001:00088330       _isupper_l                 0000000180089330 f   libucrtd:_ctype.obj
 0001:00088360       _isxdigit_l                0000000180089360 f   libucrtd:_ctype.obj
 0001:00088390       isalnum                    0000000180089390 f   libucrtd:_ctype.obj
 0001:000883b0       isalpha                    00000001800893b0 f   libucrtd:_ctype.obj
 0001:000883d0       isblank                    00000001800893d0 f   libucrtd:_ctype.obj
 0001:00088400       iscntrl                    0000000180089400 f   libucrtd:_ctype.obj
 0001:00088420       isdigit                    0000000180089420 f   libucrtd:_ctype.obj
 0001:00088440       isgraph                    0000000180089440 f   libucrtd:_ctype.obj
 0001:00088460       islower                    0000000180089460 f   libucrtd:_ctype.obj
 0001:00088480       isprint                    0000000180089480 f   libucrtd:_ctype.obj
 0001:000884a0       ispunct                    00000001800894a0 f   libucrtd:_ctype.obj
 0001:000884c0       isspace                    00000001800894c0 f   libucrtd:_ctype.obj
 0001:000884e0       isupper                    00000001800894e0 f   libucrtd:_ctype.obj
 0001:00088500       isxdigit                   0000000180089500 f   libucrtd:_ctype.obj
 0001:00088520       wcscat                     0000000180089520 f   libucrtd:wcscat.obj
 0001:000885a0       wcscpy                     00000001800895a0 f   libucrtd:wcscpy.obj
 0001:00088d50       ??$open_file@AEBQEBDAEBQEBDAEBHPEAU_iobuf@@@?$__crt_char_traits@D@@SAPEAU_iobuf@@AEBQEBD0AEBH$$QEAPEAU1@@Z 0000000180089d50 f i libucrtd:fopen.obj
 0001:00088da0       ??$open_file@AEBQEB_WAEBQEB_WAEBHPEAU_iobuf@@@?$__crt_char_traits@_W@@SAPEAU_iobuf@@AEBQEB_W0AEBH$$QEAPEAU1@@Z 0000000180089da0 f i libucrtd:fopen.obj
 0001:00088df0       ?unlock@__crt_stdio_stream@@QEBAXXZ 0000000180089df0 f i libucrtd:fopen.obj
 0001:00088e10       _fsopen                    0000000180089e10 f   libucrtd:fopen.obj
 0001:00088e40       _wfopen                    0000000180089e40 f   libucrtd:fopen.obj
 0001:00088e70       _wfopen_s                  0000000180089e70 f   libucrtd:fopen.obj
 0001:00088ea0       _wfsopen                   0000000180089ea0 f   libucrtd:fopen.obj
 0001:00088ed0       fopen                      0000000180089ed0 f   libucrtd:fopen.obj
 0001:00088f00       fopen_s                    0000000180089f00 f   libucrtd:fopen.obj
 0001:00088f30       ?is_in_use@__crt_stdio_stream@@QEBA_NXZ 0000000180089f30 f i libucrtd:fclose.obj
 0001:00088f70       _fclose_nolock             0000000180089f70 f   libucrtd:fclose.obj
 0001:00089100       fclose                     000000018008a100 f   libucrtd:fclose.obj
 0001:00089240       _fputc_nolock              000000018008a240 f   libucrtd:fputc.obj
 0001:000892f0       _fputchar                  000000018008a2f0 f   libucrtd:fputc.obj
 0001:00089320       _putc_nolock               000000018008a320 f   libucrtd:fputc.obj
 0001:00089340       fputc                      000000018008a340 f   libucrtd:fputc.obj
 0001:000895e0       putc                       000000018008a5e0 f   libucrtd:fputc.obj
 0001:00089600       putchar                    000000018008a600 f   libucrtd:fputc.obj
 0001:00089690       _seh_filter_dll            000000018008a690 f   libucrtd:exception_filter.obj
 0001:000896c0       _seh_filter_exe            000000018008a6c0 f   libucrtd:exception_filter.obj
 0001:00089960       ??$?B$$A6AXPEAXK0@Z@__crt_fast_encoded_nullptr_t@@QEBAP6AXPEAXK0@ZXZ 000000018008a960 f i libucrtd:exit.obj
 0001:00089a10       ??$__crt_fast_decode_pointer@P6AXPEAXK0@Z@@YAP6AXPEAXK0@ZQ6AX0K0@Z@Z 000000018008aa10 f i libucrtd:exit.obj
 0001:00089a50       ??$__crt_fast_encode_pointer@P6AXPEAXK0@Z@@YAP6AXPEAXK0@ZQ6AX0K0@Z@Z 000000018008aa50 f i libucrtd:exit.obj
 0001:00089a90       ??$__crt_get_proc_address@P6AXI@Z@@YAP6AXI@ZQEAUHINSTANCE__@@QEBD@Z 000000018008aa90 f i libucrtd:exit.obj
 0001:00089b50       ??0?$__crt_unique_handle_t@U__crt_hmodule_traits@@@@QEAA@QEAUHINSTANCE__@@@Z 000000018008ab50 f i libucrtd:exit.obj
 0001:00089b70       ??1?$__crt_unique_handle_t@U__crt_hmodule_traits@@@@QEAA@XZ 000000018008ab70 f i libucrtd:exit.obj
 0001:00089cd0       ?__acrt_select_exit_lock@@YA?AW4__acrt_lock_id@@XZ 000000018008acd0 f i libucrtd:exit.obj
 0001:00089ce0       ?__crt_fast_encode_pointer@@YA?AU__crt_fast_encoded_nullptr_t@@$$T@Z 000000018008ace0 f i libucrtd:exit.obj
 0001:00089d20       ?close@?$__crt_unique_handle_t@U__crt_hmodule_traits@@@@QEAAXXZ 000000018008ad20 f i libucrtd:exit.obj
 0001:00089d60       ?close@__crt_hmodule_traits@@SA_NPEAUHINSTANCE__@@@Z 000000018008ad60 f i libucrtd:exit.obj
 0001:00089e70       ?get@?$__crt_unique_handle_t@U__crt_hmodule_traits@@@@QEBAPEAUHINSTANCE__@@XZ 000000018008ae70 f i libucrtd:exit.obj
 0001:00089e80       ?get_address_of@?$__crt_unique_handle_t@U__crt_hmodule_traits@@@@QEAAPEAPEAUHINSTANCE__@@XZ 000000018008ae80 f i libucrtd:exit.obj
 0001:00089e90       ?get_invalid_value@__crt_hmodule_traits@@SAPEAUHINSTANCE__@@XZ 000000018008ae90 f i libucrtd:exit.obj
 0001:0008a050       _Exit                      000000018008b050 f   libucrtd:exit.obj
 0001:0008a070       __acrt_initialize_thread_local_exit_callback 000000018008b070 f   libucrtd:exit.obj
 0001:0008a090       _c_exit                    000000018008b090 f   libucrtd:exit.obj
 0001:0008a0b0       _cexit                     000000018008b0b0 f   libucrtd:exit.obj
 0001:0008a0d0       _exit                      000000018008b0d0 f   libucrtd:exit.obj
 0001:0008a0f0       _is_c_termination_complete 000000018008b0f0 f   libucrtd:exit.obj
 0001:0008a110       _register_thread_local_exe_atexit_callback 000000018008b110 f   libucrtd:exit.obj
 0001:0008a160       exit                       000000018008b160 f   libucrtd:exit.obj
 0001:0008a180       quick_exit                 000000018008b180 f   libucrtd:exit.obj
 0001:0008a1a0       ??$?RE@__crt_internal_free_policy@@QEBAXQEBE@Z 000000018008b1a0 f i libucrtd:argv_parsing.obj
 0001:0008a1d0       ??$?RPEAD@__crt_internal_free_policy@@QEBAXQEBQEAD@Z 000000018008b1d0 f i libucrtd:argv_parsing.obj
 0001:0008a200       ??$?RPEA_W@__crt_internal_free_policy@@QEBAXQEBQEA_W@Z 000000018008b200 f i libucrtd:argv_parsing.obj
 0001:0008a950       ??$get_module_file_name@$$TAEAY0BAF@DH@?$__crt_char_traits@D@@SAK$$QEA$$TAEAY0BAF@D$$QEAH@Z 000000018008b950 f i libucrtd:argv_parsing.obj
 0001:0008a990       ??$get_module_file_name@$$TAEAY0BAF@_WH@?$__crt_char_traits@_W@@SAK$$QEA$$TAEAY0BAF@_W$$QEAH@Z 000000018008b990 f i libucrtd:argv_parsing.obj
 0001:0008b340       ??$set_program_name@PEAD@?$__crt_char_traits@D@@SAX$$QEAPEAD@Z 000000018008c340 f i libucrtd:argv_parsing.obj
 0001:0008b360       ??$set_program_name@PEA_W@?$__crt_char_traits@_W@@SAX$$QEAPEA_W@Z 000000018008c360 f i libucrtd:argv_parsing.obj
 0001:0008b3c0       ??0?$__crt_unique_heap_ptr@EU__crt_internal_free_policy@@@@QEAA@QEAE@Z 000000018008c3c0 f i libucrtd:argv_parsing.obj
 0001:0008b3e0       ??0?$__crt_unique_heap_ptr@PEADU__crt_internal_free_policy@@@@QEAA@QEAPEAD@Z 000000018008c3e0 f i libucrtd:argv_parsing.obj
 0001:0008b400       ??0?$__crt_unique_heap_ptr@PEA_WU__crt_internal_free_policy@@@@QEAA@QEAPEA_W@Z 000000018008c400 f i libucrtd:argv_parsing.obj
 0001:0008b420       ??1?$__crt_unique_heap_ptr@EU__crt_internal_free_policy@@@@QEAA@XZ 000000018008c420 f i libucrtd:argv_parsing.obj
 0001:0008b440       ??1?$__crt_unique_heap_ptr@PEADU__crt_internal_free_policy@@@@QEAA@XZ 000000018008c440 f i libucrtd:argv_parsing.obj
 0001:0008b460       ??1?$__crt_unique_heap_ptr@PEA_WU__crt_internal_free_policy@@@@QEAA@XZ 000000018008c460 f i libucrtd:argv_parsing.obj
 0001:0008b480       ??B?$__crt_unique_heap_ptr@EU__crt_internal_free_policy@@@@QEBA_NXZ 000000018008c480 f i libucrtd:argv_parsing.obj
 0001:0008b560       ?detach@?$__crt_unique_heap_ptr@EU__crt_internal_free_policy@@@@QEAAPEAEXZ 000000018008c560 f i libucrtd:argv_parsing.obj
 0001:0008b590       ?detach@?$__crt_unique_heap_ptr@PEADU__crt_internal_free_policy@@@@QEAAPEAPEADXZ 000000018008c590 f i libucrtd:argv_parsing.obj
 0001:0008b5c0       ?detach@?$__crt_unique_heap_ptr@PEA_WU__crt_internal_free_policy@@@@QEAAPEAPEA_WXZ 000000018008c5c0 f i libucrtd:argv_parsing.obj
 0001:0008b680       ?get@?$__crt_unique_heap_ptr@EU__crt_internal_free_policy@@@@QEBAPEAEXZ 000000018008c680 f i libucrtd:argv_parsing.obj
 0001:0008b690       ?get@?$__crt_unique_heap_ptr@PEADU__crt_internal_free_policy@@@@QEBAPEAPEADXZ 000000018008c690 f i libucrtd:argv_parsing.obj
 0001:0008b6a0       ?get@?$__crt_unique_heap_ptr@PEA_WU__crt_internal_free_policy@@@@QEBAPEAPEA_WXZ 000000018008c6a0 f i libucrtd:argv_parsing.obj
 0001:0008b6b0       ?get_address_of@?$__crt_unique_heap_ptr@PEADU__crt_internal_free_policy@@@@QEAAPEAPEAPEADXZ 000000018008c6b0 f i libucrtd:argv_parsing.obj
 0001:0008b6c0       ?get_address_of@?$__crt_unique_heap_ptr@PEA_WU__crt_internal_free_policy@@@@QEAAPEAPEAPEA_WXZ 000000018008c6c0 f i libucrtd:argv_parsing.obj
 0001:0008b710       ?is_valid@?$__crt_unique_heap_ptr@EU__crt_internal_free_policy@@@@QEBA_NXZ 000000018008c710 f i libucrtd:argv_parsing.obj
 0001:0008b740       ?release@?$__crt_unique_heap_ptr@EU__crt_internal_free_policy@@@@QEAAXXZ 000000018008c740 f i libucrtd:argv_parsing.obj
 0001:0008b770       ?release@?$__crt_unique_heap_ptr@PEADU__crt_internal_free_policy@@@@QEAAXXZ 000000018008c770 f i libucrtd:argv_parsing.obj
 0001:0008b7a0       ?release@?$__crt_unique_heap_ptr@PEA_WU__crt_internal_free_policy@@@@QEAAXXZ 000000018008c7a0 f i libucrtd:argv_parsing.obj
 0001:0008b820       __acrt_allocate_buffer_for_argv 000000018008c820 f   libucrtd:argv_parsing.obj
 0001:0008b940       _configure_narrow_argv     000000018008c940 f   libucrtd:argv_parsing.obj
 0001:0008b960       _configure_wide_argv       000000018008c960 f   libucrtd:argv_parsing.obj
 0001:0008b980       _set_pgmptr                000000018008c980 f i libucrtd:argv_parsing.obj
 0001:0008b9a0       _set_wpgmptr               000000018008c9a0 f i libucrtd:argv_parsing.obj
 0001:0008b9b4       ??$?R_W@__crt_internal_free_policy@@QEBAXQEB_W@Z 000000018008c9b4 f i libucrtd:environment_initialization.obj
 0001:0008bf8c       ??$get_environment_from_os@$$V@?$__crt_char_traits@D@@SAPEADXZ 000000018008cf8c f i libucrtd:environment_initialization.obj
 0001:0008bf94       ??$get_environment_from_os@$$V@?$__crt_char_traits@_W@@SAPEA_WXZ 000000018008cf94 f i libucrtd:environment_initialization.obj
 0001:0008c164       ??$set_variable_in_environment_nolock@PEADH@?$__crt_char_traits@D@@SAH$$QEAPEAD$$QEAH@Z 000000018008d164 f i libucrtd:environment_initialization.obj
 0001:0008c170       ??$set_variable_in_environment_nolock@PEA_WH@?$__crt_char_traits@_W@@SAH$$QEAPEA_W$$QEAH@Z 000000018008d170 f i libucrtd:environment_initialization.obj
 0001:0008c17c       ??$tcscpy_s@PEADAEB_KAEAPEAD@?$__crt_char_traits@D@@SAH$$QEAPEADAEB_KAEAPEAD@Z 000000018008d17c f i libucrtd:environment_initialization.obj
 0001:0008c18c       ??$tcscpy_s@PEA_WAEB_KAEAPEA_W@?$__crt_char_traits@_W@@SAH$$QEAPEA_WAEB_KAEAPEA_W@Z 000000018008d18c f i libucrtd:environment_initialization.obj
 0001:0008c19c       ??$tcslen@AEAPEAD@?$__crt_char_traits@D@@SA_KAEAPEAD@Z 000000018008d19c f i libucrtd:environment_initialization.obj
 0001:0008c1b0       ??$tcslen@AEAPEA_W@?$__crt_char_traits@_W@@SA_KAEAPEA_W@Z 000000018008d1b0 f i libucrtd:environment_initialization.obj
 0001:0008c1c4       ??$uninitialize@A6AXAEAPEAPEAD@Z@?$dual_state_global@PEAPEAD@__crt_state_management@@QEAAXA6AXAEAPEAPEAD@Z@Z 000000018008d1c4 f i libucrtd:environment_initialization.obj
 0001:0008c208       ??$uninitialize@A6AXAEAPEAPEA_W@Z@?$dual_state_global@PEAPEA_W@__crt_state_management@@QEAAXA6AXAEAPEAPEA_W@Z@Z 000000018008d208 f i libucrtd:environment_initialization.obj
 0001:0008c284       ??0?$__crt_unique_heap_ptr@_WU__crt_internal_free_policy@@@@QEAA@QEA_W@Z 000000018008d284 f i libucrtd:environment_initialization.obj
 0001:0008c28c       ??1?$__crt_unique_heap_ptr@_WU__crt_internal_free_policy@@@@QEAA@XZ 000000018008d28c f i libucrtd:environment_initialization.obj
 0001:0008c2ac       ??B?$__crt_unique_heap_ptr@PEADU__crt_internal_free_policy@@@@QEBA_NXZ 000000018008d2ac f i libucrtd:environment_initialization.obj
 0001:0008c2b4       ??B?$__crt_unique_heap_ptr@PEA_WU__crt_internal_free_policy@@@@QEBA_NXZ 000000018008d2b4 f i libucrtd:environment_initialization.obj
 0001:0008c2bc       ??B?$__crt_unique_heap_ptr@_WU__crt_internal_free_policy@@@@QEBA_NXZ 000000018008d2bc f i libucrtd:environment_initialization.obj
 0001:0008c2c4       ?__crt_compute_required_transform_buffer_count@@YA_KIQEBD@Z 000000018008d2c4 f i libucrtd:environment_initialization.obj
 0001:0008c2e8       ?__crt_compute_required_transform_buffer_count@@YA_KIQEB_W@Z 000000018008d2e8 f i libucrtd:environment_initialization.obj
 0001:0008c318       ?__crt_transform_string@@YA_KIQEBDQEA_W_K@Z 000000018008d318 f i libucrtd:environment_initialization.obj
 0001:0008c33c       ?__crt_transform_string@@YA_KIQEB_WQEAD_K@Z 000000018008d33c f i libucrtd:environment_initialization.obj
 0001:0008c36c       ?detach@?$__crt_unique_heap_ptr@DU__crt_internal_free_policy@@@@QEAAPEADXZ 000000018008d36c f i libucrtd:environment_initialization.obj
 0001:0008c374       ?detach@?$__crt_unique_heap_ptr@_WU__crt_internal_free_policy@@@@QEAAPEA_WXZ 000000018008d374 f i libucrtd:environment_initialization.obj
 0001:0008c37c       ?get@?$__crt_unique_heap_ptr@_WU__crt_internal_free_policy@@@@QEBAPEA_WXZ 000000018008d37c f i libucrtd:environment_initialization.obj
 0001:0008c3b0       ?initialize@?$dual_state_global@PEAPEAD@__crt_state_management@@QEAAXQEAPEAD@Z 000000018008d3b0 f i libucrtd:environment_initialization.obj
 0001:0008c3d8       ?initialize@?$dual_state_global@PEAPEA_W@__crt_state_management@@QEAAXQEAPEA_W@Z 000000018008d3d8 f i libucrtd:environment_initialization.obj
 0001:0008c400       ?is_valid@?$__crt_unique_heap_ptr@PEADU__crt_internal_free_policy@@@@QEBA_NXZ 000000018008d400 f i libucrtd:environment_initialization.obj
 0001:0008c408       ?is_valid@?$__crt_unique_heap_ptr@PEA_WU__crt_internal_free_policy@@@@QEBA_NXZ 000000018008d408 f i libucrtd:environment_initialization.obj
 0001:0008c410       ?is_valid@?$__crt_unique_heap_ptr@_WU__crt_internal_free_policy@@@@QEBA_NXZ 000000018008d410 f i libucrtd:environment_initialization.obj
 0001:0008c424       ?release@?$__crt_unique_heap_ptr@_WU__crt_internal_free_policy@@@@QEAAXXZ 000000018008d424 f i libucrtd:environment_initialization.obj
 0001:0008c444       ?value@?$dual_state_global@PEAPEAD@__crt_state_management@@QEAAAEAPEAPEADXZ 000000018008d444 f i libucrtd:environment_initialization.obj
 0001:0008c448       ?value@?$dual_state_global@PEAPEA_W@__crt_state_management@@QEAAAEAPEAPEA_WXZ 000000018008d448 f i libucrtd:environment_initialization.obj
 0001:0008c44c       __dcrt_get_or_create_narrow_environment_nolock 000000018008d44c f   libucrtd:environment_initialization.obj
 0001:0008c488       __dcrt_get_or_create_wide_environment_nolock 000000018008d488 f   libucrtd:environment_initialization.obj
 0001:0008c4c4       __dcrt_uninitialize_environments_nolock 000000018008d4c4 f   libucrtd:environment_initialization.obj
 0001:0008c4fc       __p__environ               000000018008d4fc f   libucrtd:environment_initialization.obj
 0001:0008c504       __p__wenviron              000000018008d504 f   libucrtd:environment_initialization.obj
 0001:0008c50c       _get_initial_narrow_environment 000000018008d50c f   libucrtd:environment_initialization.obj
 0001:0008c55c       _get_initial_wide_environment 000000018008d55c f   libucrtd:environment_initialization.obj
 0001:0008c5ac       _initialize_narrow_environment 000000018008d5ac f   libucrtd:environment_initialization.obj
 0001:0008c5b4       _initialize_wide_environment 000000018008d5b4 f   libucrtd:environment_initialization.obj
 0001:0008c5c0       ??$?B$$A6AXXZ@__crt_fast_encoded_nullptr_t@@QEBAP6AXXZXZ 000000018008d5c0 f i libucrtd:onexit.obj
 0001:0008c5e0       ??$?BP6AXXZ@__crt_fast_encoded_nullptr_t@@QEBAPEAP6AXXZXZ 000000018008d5e0 f i libucrtd:onexit.obj
 0001:0008c600       ??$?RP6AXXZ@__crt_internal_free_policy@@QEBAXQEBQ6AXXZ@Z 000000018008d600 f i libucrtd:onexit.obj
 0001:0008c770       ??$__crt_fast_decode_pointer@P6AXXZ@@YAP6AXXZQ6AXXZ@Z 000000018008d770 f i libucrtd:onexit.obj
 0001:0008c7b0       ??$__crt_fast_decode_pointer@PEAP6AXXZ@@YAPEAP6AXXZQEAP6AXXZ@Z 000000018008d7b0 f i libucrtd:onexit.obj
 0001:0008c7f0       ??$__crt_fast_encode_pointer@P6AHXZ@@YAP6AHXZQ6AHXZ@Z 000000018008d7f0 f i libucrtd:onexit.obj
 0001:0008c830       ??$__crt_fast_encode_pointer@P6AXXZ@@YAP6AXXZQ6AXXZ@Z 000000018008d830 f i libucrtd:onexit.obj
 0001:0008c870       ??$__crt_fast_encode_pointer@PEAP6AXXZ@@YAPEAP6AXXZQEAP6AXXZ@Z 000000018008d870 f i libucrtd:onexit.obj
 0001:0008c980       ??0?$__crt_unique_heap_ptr@P6AXXZU__crt_internal_free_policy@@@@QEAA@QEAP6AXXZ@Z 000000018008d980 f i libucrtd:onexit.obj
 0001:0008c9a0       ??1?$__crt_unique_heap_ptr@P6AXXZU__crt_internal_free_policy@@@@QEAA@XZ 000000018008d9a0 f i libucrtd:onexit.obj
 0001:0008c9c0       ??1scoped_global_state_reset@__crt_state_management@@QEAA@XZ 000000018008d9c0 f i libucrtd:onexit.obj
 0001:0008cf90       ?detach@?$__crt_unique_heap_ptr@P6AXXZU__crt_internal_free_policy@@@@QEAAPEAP6AXXZXZ 000000018008df90 f i libucrtd:onexit.obj
 0001:0008cfc0       ?release@?$__crt_unique_heap_ptr@P6AXXZU__crt_internal_free_policy@@@@QEAAXXZ 000000018008dfc0 f i libucrtd:onexit.obj
 0001:0008cff0       _crt_at_quick_exit         000000018008dff0 f   libucrtd:onexit.obj
 0001:0008d010       _crt_atexit                000000018008e010 f   libucrtd:onexit.obj
 0001:0008d030       _execute_onexit_table      000000018008e030 f   libucrtd:onexit.obj
 0001:0008d070       _initialize_onexit_table   000000018008e070 f   libucrtd:onexit.obj
 0001:0008d0f0       _register_onexit_function  000000018008e0f0 f   libucrtd:onexit.obj
 0001:0008d360       ??$?BX@__crt_fast_encoded_nullptr_t@@QEBAPEAXXZ 000000018008e360 f i libucrtd:initialization.obj
 0001:0008d380       ??$__crt_fast_encode_pointer@PEAX@@YAPEAXQEAX@Z 000000018008e380 f i libucrtd:initialization.obj
 0001:0008d470       ?initialize@?$dual_state_global@PEAU__crt_locale_data@@@__crt_state_management@@QEAAXQEAU__crt_locale_data@@@Z 000000018008e470 f i libucrtd:initialization.obj
 0001:0008d4c0       __acrt_initialize          000000018008e4c0 f   libucrtd:initialization.obj
 0001:0008d4f0       __acrt_thread_attach       000000018008e4f0 f   libucrtd:initialization.obj
 0001:0008d510       __acrt_thread_detach       000000018008e510 f   libucrtd:initialization.obj
 0001:0008d520       __acrt_uninitialize        000000018008e520 f   libucrtd:initialization.obj
 0001:0008d550       __acrt_uninitialize_critical 000000018008e550 f   libucrtd:initialization.obj
 0001:0008f540       _CrtCheckMemory            0000000180090540 f   libucrtd:debug_heap.obj
 0001:0008f6d0       _CrtDoForAllClientObjects  00000001800906d0 f   libucrtd:debug_heap.obj
 0001:0008f800       _CrtDumpMemoryLeaks        0000000180090800 f   libucrtd:debug_heap.obj
 0001:0008f8c0       _CrtGetAllocHook           00000001800908c0 f   libucrtd:debug_heap.obj
 0001:0008f8d0       _CrtGetDumpClient          00000001800908d0 f   libucrtd:debug_heap.obj
 0001:0008f8e0       _CrtIsMemoryBlock          00000001800908e0 f   libucrtd:debug_heap.obj
 0001:0008fa20       _CrtIsValidHeapPointer     0000000180090a20 f   libucrtd:debug_heap.obj
 0001:0008fa60       _CrtIsValidPointer         0000000180090a60 f   libucrtd:debug_heap.obj
 0001:0008faa0       _CrtMemCheckpoint          0000000180090aa0 f   libucrtd:debug_heap.obj
 0001:0008fd20       _CrtMemDifference          0000000180090d20 f   libucrtd:debug_heap.obj
 0001:00090080       _CrtMemDumpAllObjectsSince 0000000180091080 f   libucrtd:debug_heap.obj
 0001:000900e0       _CrtMemDumpStatistics      00000001800910e0 f   libucrtd:debug_heap.obj
 0001:00090280       _CrtReportBlockType        0000000180091280 f   libucrtd:debug_heap.obj
 0001:000902b0       _CrtSetAllocHook           00000001800912b0 f   libucrtd:debug_heap.obj
 0001:000902e0       _CrtSetBreakAlloc          00000001800912e0 f   libucrtd:debug_heap.obj
 0001:00090310       _CrtSetDbgBlockType        0000000180091310 f   libucrtd:debug_heap.obj
 0001:000903b0       _CrtSetDbgFlag             00000001800913b0 f   libucrtd:debug_heap.obj
 0001:00090510       _CrtSetDumpClient          0000000180091510 f   libucrtd:debug_heap.obj
 0001:00090540       __acrt_get_locale_data_prefix 0000000180091540 f i libucrtd:debug_heap.obj
 0001:00090560       __p__crtBreakAlloc         0000000180091560 f   libucrtd:debug_heap.obj
 0001:00090570       __p__crtDbgFlag            0000000180091570 f   libucrtd:debug_heap.obj
 0001:00090580       _aligned_free_dbg          0000000180091580 f   libucrtd:debug_heap.obj
 0001:00090670       _aligned_malloc_dbg        0000000180091670 f   libucrtd:debug_heap.obj
 0001:000906b0       _aligned_msize_dbg         00000001800916b0 f   libucrtd:debug_heap.obj
 0001:00090880       _aligned_offset_malloc_dbg 0000000180091880 f   libucrtd:debug_heap.obj
 0001:00090b70       _aligned_offset_realloc_dbg 0000000180091b70 f   libucrtd:debug_heap.obj
 0001:00091020       _aligned_offset_recalloc_dbg 0000000180092020 f   libucrtd:debug_heap.obj
 0001:00091140       _aligned_realloc_dbg       0000000180092140 f   libucrtd:debug_heap.obj
 0001:00091190       _aligned_recalloc_dbg      0000000180092190 f   libucrtd:debug_heap.obj
 0001:000911f0       _calloc_dbg                00000001800921f0 f   libucrtd:debug_heap.obj
 0001:00091290       _chvalidchk_l              0000000180092290 f i libucrtd:debug_heap.obj
 0001:000912c0       _expand_dbg                00000001800922c0 f   libucrtd:debug_heap.obj
 0001:000913f0       _free_dbg                  00000001800923f0 f   libucrtd:debug_heap.obj
 0001:00091460       _ischartype_l              0000000180092460 f i libucrtd:debug_heap.obj
 0001:000914f0       _malloc_dbg                00000001800924f0 f   libucrtd:debug_heap.obj
 0001:00091530       _msize_dbg                 0000000180092530 f   libucrtd:debug_heap.obj
 0001:000916d0       _realloc_dbg               00000001800926d0 f   libucrtd:debug_heap.obj
 0001:00091740       _recalloc_dbg              0000000180092740 f   libucrtd:debug_heap.obj
 0001:00091840       _initterm                  0000000180092840 f   libucrtd:initterm.obj
 0001:000918a0       _initterm_e                00000001800928a0 f   libucrtd:initterm.obj
 0001:00091df0       strcpy_s                   0000000180092df0 f   libucrtd:strcpy_s.obj
 0001:00092490       strcat_s                   0000000180093490 f   libucrtd:strcat_s.obj
 0001:000924c0       ??$?B$$A6AH_K@Z@__crt_fast_encoded_nullptr_t@@QEBAP6AH_K@ZXZ 00000001800934c0 f i libucrtd:new_handler.obj
 0001:000924e0       ??$__crt_fast_decode_pointer@P6AH_K@Z@@YAP6AH_K@ZQ6AH0@Z@Z 00000001800934e0 f i libucrtd:new_handler.obj
 0001:00092520       ??$__crt_fast_encode_pointer@P6AH_K@Z@@YAP6AH_K@ZQ6AH0@Z@Z 0000000180093520 f i libucrtd:new_handler.obj
 0001:00092560       ?_set_new_handler@@YAP6AH_K@ZH@Z 0000000180093560 f   libucrtd:new_handler.obj
 0001:000925d0       ?initialize@?$dual_state_global@P6AH_K@Z@__crt_state_management@@QEAAXQ6AH_K@Z@Z 00000001800935d0 f i libucrtd:new_handler.obj
 0001:00092620       ?value@?$dual_state_global@P6AH_K@Z@__crt_state_management@@QEAAAEAP6AH_K@ZXZ 0000000180093620 f i libucrtd:new_handler.obj
 0001:00092640       __acrt_initialize_new_handler 0000000180093640 f   libucrtd:new_handler.obj
 0001:00092660       _callnewh                  0000000180093660 f   libucrtd:new_handler.obj
 0001:000926b0       _query_new_handler         00000001800936b0 f   libucrtd:new_handler.obj
 0001:000926f0       _set_new_handler           00000001800936f0 f   libucrtd:new_handler.obj
 0001:000927a0       _get_terminate             00000001800937a0 f   libucrtd:terminate.obj
 0001:000927c0       set_terminate              00000001800937c0 f   libucrtd:terminate.obj
 0001:00092800       terminate                  0000000180093800 f   libucrtd:terminate.obj
 0001:00093600       _makepath                  0000000180094600 f   libucrtd:makepath.obj
 0001:00093650       _makepath_s                0000000180094650 f   libucrtd:makepath.obj
 0001:000936a0       _wmakepath                 00000001800946a0 f   libucrtd:makepath.obj
 0001:000936f0       _wmakepath_s               00000001800946f0 f   libucrtd:makepath.obj
 0001:00095d20       ??$tcsncpy_s@AEAPEAD_KAEAPEBDAEB_K@?$__crt_char_traits@D@@SAHAEAPEAD$$QEA_KAEAPEBDAEB_K@Z 0000000180096d20 f i libucrtd:splitpath.obj
 0001:00095d70       ??$tcsncpy_s@AEAPEAD_KAEAPEBDH@?$__crt_char_traits@D@@SAHAEAPEAD$$QEA_KAEAPEBD$$QEAH@Z 0000000180096d70 f i libucrtd:splitpath.obj
 0001:00095dc0       ??$tcsncpy_s@AEAPEA_W_KAEAPEB_WAEB_K@?$__crt_char_traits@_W@@SAHAEAPEA_W$$QEA_KAEAPEB_WAEB_K@Z 0000000180096dc0 f i libucrtd:splitpath.obj
 0001:00095e10       ??$tcsncpy_s@AEAPEA_W_KAEAPEB_WH@?$__crt_char_traits@_W@@SAHAEAPEA_W$$QEA_KAEAPEB_W$$QEAH@Z 0000000180096e10 f i libucrtd:splitpath.obj
 0001:000960c0       _splitpath                 00000001800970c0 f   libucrtd:splitpath.obj
 0001:00096100       _splitpath_s               0000000180097100 f   libucrtd:splitpath.obj
 0001:000961a0       _wsplitpath                00000001800971a0 f   libucrtd:splitpath.obj
 0001:000961e0       _wsplitpath_s              00000001800971e0 f   libucrtd:splitpath.obj
 0001:00096280       _set_abort_behavior        0000000180097280 f   libucrtd:abort.obj
 0001:000962c0       abort                      00000001800972c0 f   libucrtd:abort.obj
 0001:00096350       strcmp                     0000000180097350 f   libucrtd:strcmp.obj
 0001:000963d0       strlen                     00000001800973d0 f   libucrtd:strlen.obj
 0001:00096480       ??$is_overflow_condition@K@__crt_strtox@@YA_NIK@Z 0000000180097480 f i libucrtd:atox.obj
 0001:000964f0       ??$is_overflow_condition@_K@__crt_strtox@@YA_NI_K@Z 00000001800974f0 f i libucrtd:atox.obj
 0001:00096560       ??$make_c_string_character_source@D$$T@__crt_strtox@@YA?AV?$c_string_character_source@D@0@QEBD$$T@Z 0000000180097560 f i libucrtd:atox.obj
 0001:000965a0       ??$make_c_string_character_source@_W$$T@__crt_strtox@@YA?AV?$c_string_character_source@_W@0@QEB_W$$T@Z 00000001800975a0 f i libucrtd:atox.obj
 0001:000965e0       ??$parse_integer@KV?$c_string_character_source@D@__crt_strtox@@@__crt_strtox@@YAKQEAU__crt_locale_pointers@@V?$c_string_character_source@D@0@H_N@Z 00000001800975e0 f i libucrtd:atox.obj
 0001:00096a70       ??$parse_integer@KV?$c_string_character_source@_W@__crt_strtox@@@__crt_strtox@@YAKQEAU__crt_locale_pointers@@V?$c_string_character_source@_W@0@H_N@Z 0000000180097a70 f i libucrtd:atox.obj
 0001:00096f20       ??$parse_integer@_KV?$c_string_character_source@D@__crt_strtox@@@__crt_strtox@@YA_KQEAU__crt_locale_pointers@@V?$c_string_character_source@D@0@H_N@Z 0000000180097f20 f i libucrtd:atox.obj
 0001:00097440       ??$parse_integer@_KV?$c_string_character_source@_W@__crt_strtox@@@__crt_strtox@@YA_KQEAU__crt_locale_pointers@@V?$c_string_character_source@_W@0@H_N@Z 0000000180098440 f i libucrtd:atox.obj
 0001:00097960       ??$parse_integer_from_string@JD$$T@__crt_strtox@@YAJQEBD$$THQEAU__crt_locale_pointers@@@Z 0000000180098960 f i libucrtd:atox.obj
 0001:000979b0       ??$parse_integer_from_string@J_W$$T@__crt_strtox@@YAJQEB_W$$THQEAU__crt_locale_pointers@@@Z 00000001800989b0 f i libucrtd:atox.obj
 0001:00097a00       ??$parse_integer_from_string@_JD$$T@__crt_strtox@@YA_JQEBD$$THQEAU__crt_locale_pointers@@@Z 0000000180098a00 f i libucrtd:atox.obj
 0001:00097a50       ??$parse_integer_from_string@_J_W$$T@__crt_strtox@@YA_JQEB_W$$THQEAU__crt_locale_pointers@@@Z 0000000180098a50 f i libucrtd:atox.obj
 0001:00097aa0       ??0?$c_string_character_source@D@__crt_strtox@@QEAA@QEBDQEAPEBD@Z 0000000180098aa0 f i libucrtd:atox.obj
 0001:00097af0       ??0?$c_string_character_source@_W@__crt_strtox@@QEAA@QEB_WQEAPEB_W@Z 0000000180098af0 f i libucrtd:atox.obj
 0001:00097b40       ??1?$c_string_character_source@D@__crt_strtox@@QEAA@XZ 0000000180098b40 f i libucrtd:atox.obj
 0001:00097b70       ??1?$c_string_character_source@_W@__crt_strtox@@QEAA@XZ 0000000180098b70 f i libucrtd:atox.obj
 0001:00097ba0       ?get@?$c_string_character_source@D@__crt_strtox@@QEAADXZ 0000000180098ba0 f i libucrtd:atox.obj
 0001:00097be0       ?get@?$c_string_character_source@_W@__crt_strtox@@QEAA_WXZ 0000000180098be0 f i libucrtd:atox.obj
 0001:00097c20       ?is_space@__crt_strtox@@YA_NDQEAU__crt_locale_pointers@@@Z 0000000180098c20 f i libucrtd:atox.obj
 0001:00097c70       ?is_space@__crt_strtox@@YA_N_WPEAU__crt_locale_pointers@@@Z 0000000180098c70 f i libucrtd:atox.obj
 0001:00097cb0       ?maximum_signed_value@__crt_strtox@@YAJK@Z 0000000180098cb0 f i libucrtd:atox.obj
 0001:00097cc0       ?maximum_signed_value@__crt_strtox@@YA_J_K@Z 0000000180098cc0 f i libucrtd:atox.obj
 0001:00097cd0       ?minimum_signed_value@__crt_strtox@@YAJK@Z 0000000180098cd0 f i libucrtd:atox.obj
 0001:00097ce0       ?minimum_signed_value@__crt_strtox@@YA_J_K@Z 0000000180098ce0 f i libucrtd:atox.obj
 0001:00097cf0       ?parse_digit@__crt_strtox@@YAID@Z 0000000180098cf0 f i libucrtd:atox.obj
 0001:00097d60       ?parse_digit@__crt_strtox@@YAI_W@Z 0000000180098d60 f i libucrtd:atox.obj
 0001:00097db0       ?restore_state@?$c_string_character_source@D@__crt_strtox@@QEAA_NQEBD@Z 0000000180098db0 f i libucrtd:atox.obj
 0001:00097dd0       ?restore_state@?$c_string_character_source@_W@__crt_strtox@@QEAA_NQEB_W@Z 0000000180098dd0 f i libucrtd:atox.obj
 0001:00097df0       ?save_state@?$c_string_character_source@D@__crt_strtox@@QEBAPEBDXZ 0000000180098df0 f i libucrtd:atox.obj
 0001:00097e00       ?save_state@?$c_string_character_source@_W@__crt_strtox@@QEBAPEB_WXZ 0000000180098e00 f i libucrtd:atox.obj
 0001:00097e10       ?unget@?$c_string_character_source@D@__crt_strtox@@QEAAXD@Z 0000000180098e10 f i libucrtd:atox.obj
 0001:00097ef0       ?unget@?$c_string_character_source@_W@__crt_strtox@@QEAAX_W@Z 0000000180098ef0 f i libucrtd:atox.obj
 0001:00097fd0       ?validate@?$c_string_character_source@D@__crt_strtox@@QEBA_NXZ 0000000180098fd0 f i libucrtd:atox.obj
 0001:00098090       ?validate@?$c_string_character_source@_W@__crt_strtox@@QEBA_NXZ 0000000180099090 f i libucrtd:atox.obj
 0001:00098150       ?wide_character_to_digit@__crt_strtox@@YAH_W@Z 0000000180099150 f i libucrtd:atox.obj
 0001:000984c0       __ascii_iswalpha           00000001800994c0 f i libucrtd:atox.obj
 0001:00098500       __ascii_toupper            0000000180099500 f i libucrtd:atox.obj
 0001:00098520       __ascii_towupper           0000000180099520 f i libucrtd:atox.obj
 0001:00098540       _atoi64                    0000000180099540 f   libucrtd:atox.obj
 0001:00098570       _atoi64_l                  0000000180099570 f   libucrtd:atox.obj
 0001:000985a0       _atoi_l                    00000001800995a0 f   libucrtd:atox.obj
 0001:000985d0       _atol_l                    00000001800995d0 f   libucrtd:atox.obj
 0001:00098600       _atoll_l                   0000000180099600 f   libucrtd:atox.obj
 0001:00098630       _wtoi                      0000000180099630 f   libucrtd:atox.obj
 0001:00098660       _wtoi64                    0000000180099660 f   libucrtd:atox.obj
 0001:00098690       _wtoi64_l                  0000000180099690 f   libucrtd:atox.obj
 0001:000986c0       _wtoi_l                    00000001800996c0 f   libucrtd:atox.obj
 0001:000986f0       _wtol                      00000001800996f0 f   libucrtd:atox.obj
 0001:00098720       _wtol_l                    0000000180099720 f   libucrtd:atox.obj
 0001:00098750       _wtoll                     0000000180099750 f   libucrtd:atox.obj
 0001:00098780       _wtoll_l                   0000000180099780 f   libucrtd:atox.obj
 0001:000987b0       atoi                       00000001800997b0 f   libucrtd:atox.obj
 0001:000987e0       atol                       00000001800997e0 f   libucrtd:atox.obj
 0001:00098810       atoll                      0000000180099810 f   libucrtd:atox.obj
 0001:00098850       strncmp                    0000000180099850 f   libucrtd:strncmp.obj
 0001:000988d0       wcsncmp                    00000001800998d0 f   libucrtd:wcsncmp.obj
 0001:00098960       _CrtGetDebugFillThreshold  0000000180099960 f   libucrtd:debug_fill_threshold.obj
 0001:00098970       _CrtSetDebugFillThreshold  0000000180099970 f   libucrtd:debug_fill_threshold.obj
 0001:000989a0       ??$make_c_string_character_source@DPEAPEAD@__crt_strtox@@YA?AV?$c_string_character_source@D@0@QEBDQEAPEAD@Z 00000001800999a0 f i libucrtd:strtox.obj
 0001:000989e0       ??$make_c_string_character_source@_WPEAPEA_W@__crt_strtox@@YA?AV?$c_string_character_source@_W@0@QEB_WQEAPEA_W@Z 00000001800999e0 f i libucrtd:strtox.obj
 0001:00098a20       ??$parse_integer_from_string@JDPEAPEAD@__crt_strtox@@YAJQEBDQEAPEADHQEAU__crt_locale_pointers@@@Z 0000000180099a20 f i libucrtd:strtox.obj
 0001:00098a70       ??$parse_integer_from_string@J_WPEAPEA_W@__crt_strtox@@YAJQEB_WQEAPEA_WHQEAU__crt_locale_pointers@@@Z 0000000180099a70 f i libucrtd:strtox.obj
 0001:00098ac0       ??$parse_integer_from_string@KDPEAPEAD@__crt_strtox@@YAKQEBDQEAPEADHQEAU__crt_locale_pointers@@@Z 0000000180099ac0 f i libucrtd:strtox.obj
 0001:00098b10       ??$parse_integer_from_string@K_WPEAPEA_W@__crt_strtox@@YAKQEB_WQEAPEA_WHQEAU__crt_locale_pointers@@@Z 0000000180099b10 f i libucrtd:strtox.obj
 0001:00098b60       ??$parse_integer_from_string@_JDPEAPEAD@__crt_strtox@@YA_JQEBDQEAPEADHQEAU__crt_locale_pointers@@@Z 0000000180099b60 f i libucrtd:strtox.obj
 0001:00098bb0       ??$parse_integer_from_string@_J_WPEAPEA_W@__crt_strtox@@YA_JQEB_WQEAPEA_WHQEAU__crt_locale_pointers@@@Z 0000000180099bb0 f i libucrtd:strtox.obj
 0001:00098c00       ??$parse_integer_from_string@_KDPEAPEAD@__crt_strtox@@YA_KQEBDQEAPEADHQEAU__crt_locale_pointers@@@Z 0000000180099c00 f i libucrtd:strtox.obj
 0001:00098c50       ??$parse_integer_from_string@_K_WPEAPEA_W@__crt_strtox@@YA_KQEB_WQEAPEA_WHQEAU__crt_locale_pointers@@@Z 0000000180099c50 f i libucrtd:strtox.obj
 0001:00098ca0       _strtoi64                  0000000180099ca0 f   libucrtd:strtox.obj
 0001:00098cd0       _strtoi64_l                0000000180099cd0 f   libucrtd:strtox.obj
 0001:00098d10       _strtoimax_l               0000000180099d10 f   libucrtd:strtox.obj
 0001:00098d50       _strtol_l                  0000000180099d50 f   libucrtd:strtox.obj
 0001:00098d90       _strtoll_l                 0000000180099d90 f   libucrtd:strtox.obj
 0001:00098dd0       _strtoui64                 0000000180099dd0 f   libucrtd:strtox.obj
 0001:00098e00       _strtoui64_l               0000000180099e00 f   libucrtd:strtox.obj
 0001:00098e40       _strtoul_l                 0000000180099e40 f   libucrtd:strtox.obj
 0001:00098e80       _strtoull_l                0000000180099e80 f   libucrtd:strtox.obj
 0001:00098ec0       _strtoumax_l               0000000180099ec0 f   libucrtd:strtox.obj
 0001:00098f00       _wcstoi64                  0000000180099f00 f   libucrtd:strtox.obj
 0001:00098f30       _wcstoi64_l                0000000180099f30 f   libucrtd:strtox.obj
 0001:00098f70       _wcstoimax_l               0000000180099f70 f   libucrtd:strtox.obj
 0001:00098fb0       _wcstol_l                  0000000180099fb0 f   libucrtd:strtox.obj
 0001:00098ff0       _wcstoll_l                 0000000180099ff0 f   libucrtd:strtox.obj
 0001:00099030       _wcstoui64                 000000018009a030 f   libucrtd:strtox.obj
 0001:00099060       _wcstoui64_l               000000018009a060 f   libucrtd:strtox.obj
 0001:000990a0       _wcstoul_l                 000000018009a0a0 f   libucrtd:strtox.obj
 0001:000990e0       _wcstoull_l                000000018009a0e0 f   libucrtd:strtox.obj
 0001:00099120       _wcstoumax_l               000000018009a120 f   libucrtd:strtox.obj
 0001:00099160       strtoimax                  000000018009a160 f   libucrtd:strtox.obj
 0001:00099190       strtol                     000000018009a190 f   libucrtd:strtox.obj
 0001:000991c0       strtoll                    000000018009a1c0 f   libucrtd:strtox.obj
 0001:000991f0       strtoul                    000000018009a1f0 f   libucrtd:strtox.obj
 0001:00099220       strtoull                   000000018009a220 f   libucrtd:strtox.obj
 0001:00099250       strtoumax                  000000018009a250 f   libucrtd:strtox.obj
 0001:00099280       wcstoimax                  000000018009a280 f   libucrtd:strtox.obj
 0001:000992b0       wcstol                     000000018009a2b0 f   libucrtd:strtox.obj
 0001:000992e0       wcstoll                    000000018009a2e0 f   libucrtd:strtox.obj
 0001:00099310       wcstoul                    000000018009a310 f   libucrtd:strtox.obj
 0001:00099340       wcstoull                   000000018009a340 f   libucrtd:strtox.obj
 0001:00099370       wcstoumax                  000000018009a370 f   libucrtd:strtox.obj
 0001:000993a0       _mbtowc_l                  000000018009a3a0 f   libucrtd:mbtowc.obj
 0001:00099800       mbtowc                     000000018009a800 f   libucrtd:mbtowc.obj
 0001:00099830       _wctomb_l                  000000018009a830 f   libucrtd:wctomb.obj
 0001:000998f0       _wctomb_s_l                000000018009a8f0 f   libucrtd:wctomb.obj
 0001:00099e70       wctomb                     000000018009ae70 f   libucrtd:wctomb.obj
 0001:00099ed0       wctomb_s                   000000018009aed0 f   libucrtd:wctomb.obj
 0001:00099f20       ??$?RU__acrt_ptd@@@__crt_internal_free_policy@@QEBAXQEBU__acrt_ptd@@@Z 000000018009af20 f i libucrtd:per_thread_data.obj
 0001:0009a320       ??0?$__crt_unique_heap_ptr@U__acrt_ptd@@U__crt_internal_free_policy@@@@QEAA@QEAU__acrt_ptd@@@Z 000000018009b320 f i libucrtd:per_thread_data.obj
 0001:0009a340       ??0__crt_scoped_get_last_error_reset@@QEAA@XZ 000000018009b340 f i libucrtd:per_thread_data.obj
 0001:0009a360       ??1?$__crt_unique_heap_ptr@U__acrt_ptd@@U__crt_internal_free_policy@@@@QEAA@XZ 000000018009b360 f i libucrtd:per_thread_data.obj
 0001:0009a380       ??1__crt_scoped_get_last_error_reset@@QEAA@XZ 000000018009b380 f i libucrtd:per_thread_data.obj
 0001:0009a3a0       ??B?$__crt_unique_heap_ptr@U__acrt_ptd@@U__crt_internal_free_policy@@@@QEBA_NXZ 000000018009b3a0 f i libucrtd:per_thread_data.obj
 0001:0009a6f0       ?dangerous_get_state_array@?$dual_state_global@PEAU__crt_locale_data@@@__crt_state_management@@QEAAPEAPEAU__crt_locale_data@@XZ 000000018009b6f0 f i libucrtd:per_thread_data.obj
 0001:0009a8b0       ?detach@?$__crt_unique_heap_ptr@U__acrt_ptd@@U__crt_internal_free_policy@@@@QEAAPEAU__acrt_ptd@@XZ 000000018009b8b0 f i libucrtd:per_thread_data.obj
 0001:0009a8e0       ?get@?$__crt_unique_heap_ptr@U__acrt_ptd@@U__crt_internal_free_policy@@@@QEBAPEAU__acrt_ptd@@XZ 000000018009b8e0 f i libucrtd:per_thread_data.obj
 0001:0009a8f0       ?get_current_state_index@__crt_state_management@@YA_KAEBV__crt_scoped_get_last_error_reset@@@Z 000000018009b8f0 f i libucrtd:per_thread_data.obj
 0001:0009aaa0       ?is_valid@?$__crt_unique_heap_ptr@U__acrt_ptd@@U__crt_internal_free_policy@@@@QEBA_NXZ 000000018009baa0 f i libucrtd:per_thread_data.obj
 0001:0009aad0       ?release@?$__crt_unique_heap_ptr@U__acrt_ptd@@U__crt_internal_free_policy@@@@QEAAXXZ 000000018009bad0 f i libucrtd:per_thread_data.obj
