 OPOSBillAcceptor

 Timestamp is 5defa810 (Tue Dec 10 23:13:36 2019)

 Preferred load address is 0000000180000000

 Start         Length     Name                   Class
 0001:00000000 00001400H .text$di                CODE
 0001:00001400 000d41b0H .text$mn                CODE
 0001:000d55b0 00000020H .text$mn$00             CODE
 0001:000d55d0 00001370H .text$x                 CODE
 0001:000d6940 000001b4H .text$yd                CODE
 0002:00000000 000006d8H .idata$5                DATA
 0002:000006d8 00000010H .00cfg                  DATA
 0002:000006e8 00000008H .CRT$XCA                DATA
 0002:000006f0 00000008H .CRT$XCL                DATA
 0002:000006f8 000000d8H .CRT$XCU                DATA
 0002:000007d0 00000008H .CRT$XCZ                DATA
 0002:000007d8 00000008H .CRT$XIA                DATA
 0002:000007e0 00000020H .CRT$XIC                DATA
 0002:00000800 00000008H .CRT$XIZ                DATA
 0002:00000808 00000008H .CRT$XLA                DATA
 0002:00000810 00000008H .CRT$XLZ                DATA
 0002:00000818 00000008H .CRT$XPA                DATA
 0002:00000820 00000010H .CRT$XPX                DATA
 0002:00000830 00000008H .CRT$XPXA               DATA
 0002:00000838 00000008H .CRT$XPZ                DATA
 0002:00000840 00000008H .CRT$XTA                DATA
 0002:00000848 00000008H .CRT$XTZ                DATA
 0002:00000850 00000000H .gfids$y                DATA
 0002:00000850 0003b288H .rdata                  DATA
 0002:0003bad8 00000028H .rdata$T                DATA
 0002:0003bb00 0000056cH .rdata$r                DATA
 0002:0003c06c 00000434H .rdata$zzzdbg           DATA
 0002:0003c4a0 00000008H .rtc$IAA                DATA
 0002:0003c4a8 00000030H .rtc$IMZ                DATA
 0002:0003c4d8 00000008H .rtc$IZZ                DATA
 0002:0003c4e0 00000008H .rtc$TAA                DATA
 0002:0003c4e8 00000030H .rtc$TMZ                DATA
 0002:0003c518 00000008H .rtc$TZZ                DATA
 0002:0003c520 00000004H .tls                    DATA
 0002:0003c524 00000004H .tls$                   DATA
 0002:0003c528 00000008H .tls$ZZZ                DATA
 0002:0003c530 000097b8H .xdata                  DATA
 0002:00045ce8 00000150H .xdata$x                DATA
 0002:00045e38 00000008H ATL$__a                 DATA
 0002:00045e40 00000010H ATL$__z                 DATA
 0002:00045e50 000000b0H .edata                  DATA
 0002:00045f00 00000078H .idata$2                DATA
 0002:00045f78 00000018H .idata$3                DATA
 0002:00045f90 000006d8H .idata$4                DATA
 0002:00046668 00000db8H .idata$6                DATA
 0003:00000000 00000ec8H .data                   DATA
 0003:00000ec8 00000198H .data$r                 DATA
 0003:00001060 00003e9cH .bss                    DATA
 0004:00000000 0000c078H .pdata                  DATA
 0005:00000000 00000094H _RDATA                  DATA
 0006:00000000 00000220H .rsrc$01                DATA
 0006:00000220 00004110H .rsrc$02                DATA

  Address         Publics by Value              Rva+Base               Lib:Object

 0000:00000000       __enclave_config           0000000000000000     <absolute>
 0000:00000000       __hybrid_code_map          0000000000000000     <absolute>
 0000:00000000       __AbsoluteZero             0000000000000000     <absolute>
 0000:00000000       __guard_longjmp_count      0000000000000000     <absolute>
 0000:00000000       __guard_longjmp_table      0000000000000000     <absolute>
 0000:00000000       __dynamic_value_reloc_table 0000000000000000     <absolute>
 0000:00000000       ___safe_se_handler_table   0000000000000000     <absolute>
 0000:00000000       __hybrid_code_map_count    0000000000000000     <absolute>
 0000:00000000       __guard_fids_table         0000000000000000     <absolute>
 0000:00000000       __guard_iat_table          0000000000000000     <absolute>
 0000:00000000       __volatile_metadata        0000000000000000     <absolute>
 0000:00000000       __hybrid_auxiliary_iat     0000000000000000     <absolute>
 0000:00000000       ___safe_se_handler_count   0000000000000000     <absolute>
 0000:00000000       __guard_iat_count          0000000000000000     <absolute>
 0000:00000000       __guard_fids_count         0000000000000000     <absolute>
 0000:00000100       __guard_flags              0000000000000100     <absolute>
 0000:00000000       __ImageBase                0000000180000000     <linker-defined>
 0001:00001400       ?_assert@@YAXPEB_W0I@Z     0000000180002400 f   Assert.obj
 0001:00001500       __local_stdio_printf_options 0000000180002500 f i Assert.obj
 0001:00001510       __vswprintf_l              0000000180002510 f i Assert.obj
 0001:00001570       _swprintf                  0000000180002570 f i Assert.obj
 0001:000015f0       _vswprintf_c_l             00000001800025f0 f i Assert.obj
 0001:00001680       _vswprintf_l               0000000180002680 f i Assert.obj
 0001:000016e0       ?cw_memcpy@@YAHPEADPEB_WH@Z 00000001800026e0 f   CWString.obj
 0001:00001770       ?cw_memcpy@@YAHPEA_WPEBDH@Z 0000000180002770 f   CWString.obj
 0001:000017f0       ?cw_memcpy@@YAHPEADPEBDH@Z 00000001800027f0 f   CWString.obj
 0001:00001890       ?cw_memcpy@@YAHPEA_WPEB_WH@Z 0000000180002890 f   CWString.obj
 0001:00001900       ?cw_memset@@YAXPEADDH@Z    0000000180002900 f   CWString.obj
 0001:00001970       ?cw_memset@@YAXPEA_W_WH@Z  0000000180002970 f   CWString.obj
 0001:00001a10       ?cw_strlen@@YAHPEBD@Z      0000000180002a10 f   CWString.obj
 0001:00001a80       ?cw_strlen@@YAHPEB_W@Z     0000000180002a80 f   CWString.obj
 0001:00001af0       ?cw_strcpy@@YAHPEADPEB_W@Z 0000000180002af0 f   CWString.obj
 0001:00001b40       ?cw_strcpy@@YAHPEA_WPEBD@Z 0000000180002b40 f   CWString.obj
 0001:00001b90       ?cw_strcpy@@YAHPEADPEBD@Z  0000000180002b90 f   CWString.obj
 0001:00001be0       ?cw_strcpy@@YAHPEA_WPEB_W@Z 0000000180002be0 f   CWString.obj
 0001:00001c30       ?cw_strcat@@YAHPEADPEB_W@Z 0000000180002c30 f   CWString.obj
 0001:00001c90       ?cw_strcat@@YAHPEA_WPEBD@Z 0000000180002c90 f   CWString.obj
 0001:00001cf0       ?cw_strcat@@YAHPEADPEBD@Z  0000000180002cf0 f   CWString.obj
 0001:00001d50       ?cw_strcat@@YAHPEA_WPEB_W@Z 0000000180002d50 f   CWString.obj
 0001:00001db0       ?cw_dup@@YAXPEBDAEAHAEAPEA_W1@Z 0000000180002db0 f   CWString.obj
 0001:00001ec0       ?cw_dup@@YAXPEB_WAEAHAEAPEAD1@Z 0000000180002ec0 f   CWString.obj
 0001:00001fb0       ?DupChar@_CW@@AEAAXXZ      0000000180002fb0 f   CWString.obj
 0001:00002010       ?DupWide@_CW@@AEAAXXZ      0000000180003010 f   CWString.obj
 0001:00002080       ?GetCharsMbcs@_CW@@QEAAHXZ 0000000180003080 f   CWString.obj
 0001:000020f0       ?GetCharsWide@_CW@@QEAAHXZ 00000001800030f0 f   CWString.obj
 0001:00002160       ?SetVARIANT_BOOL@OposVariant@@QEAAXF@Z 0000000180003160 f   OposVariant.obj
 0001:000021d0       ?SetVARIANT_BOOL_Ptr@OposVariant@@QEAAXPEAFAEAJ@Z 00000001800031d0 f   OposVariant.obj
 0001:00002240       ?GetLONG@OposVariant@@QEAAJXZ 0000000180003240 f   OposVariant.obj
 0001:000022a0       ?ChangeLONG@OposVariant@@QEAAXPEAJAEAJ@Z 00000001800032a0 f   OposVariant.obj
 0001:00002350       ?SetLONG@OposVariant@@QEAAXJ@Z 0000000180003350 f   OposVariant.obj
 0001:000023b0       ?SetLONG_Ptr@OposVariant@@QEAAXPEAJAEAJ@Z 00000001800033b0 f   OposVariant.obj
 0001:00002420       ?ChangeCURRENCY@OposVariant@@QEAAXPEATtagCY@@AEAJ@Z 0000000180003420 f   OposVariant.obj
 0001:000024d0       ?SetCURRENCY@OposVariant@@QEAAXTtagCY@@@Z 00000001800034d0 f   OposVariant.obj
 0001:00002530       ?SetCURRENCY_Ptr@OposVariant@@QEAAXPEATtagCY@@AEAJ@Z 0000000180003530 f   OposVariant.obj
 0001:000025a0       ?ChangeBSTR@OposVariant@@QEAAXPEAPEA_WAEAJ@Z 00000001800035a0 f   OposVariant.obj
 0001:00002650       ?SetBSTR@OposVariant@@QEAAXPEA_WAEAJ@Z 0000000180003650 f   OposVariant.obj
 0001:000026d0       ?SetBSTR_Copy@OposVariant@@QEAAXPEA_WAEAJ@Z 00000001800036d0 f   OposVariant.obj
 0001:00002780       ?SetBSTR_OutPtr@OposVariant@@QEAA_NPEAPEA_WAEAJ@Z 0000000180003780 f   OposVariant.obj
 0001:000027f0       ?SetBSTR_InOutPtr@OposVariant@@QEAA_NPEAPEA_WAEAJ@Z 00000001800037f0 f   OposVariant.obj
 0001:00002870       ?SetVARIANT@OposVariant@@QEAAXAEAUtagVARIANT@@GAEAJ@Z 0000000180003870 f   OposVariant.obj
 0001:00002910       ?SetVARIANT_Ptr@OposVariant@@QEAAXAEAPEAUtagVARIANT@@GAEAJ@Z 0000000180003910 f   OposVariant.obj
 0001:000029c0       ?SetString@OposVariant@@QEAAXPEB_WAEAJ@Z 00000001800039c0 f   OposVariant.obj
 0001:00002a70       ?SetDispatch_Ptr@OposVariant@@QEAAXPEAUIDispatch@@AEAJ@Z 0000000180003a70 f   OposVariant.obj
 0001:00002b00       ??0OposDispParms@@QEAA@PEAVOposVariant@@H@Z 0000000180003b00 f   OposVariant.obj
 0001:00002c10       ??1OposDispParms@@QEAA@XZ  0000000180003c10 f   OposVariant.obj
 0001:00002c60       ??$AtlMultiply@_K@ATL@@YAJPEA_K_K1@Z 0000000180003c60 f i OposVariant.obj
 0001:00002ce0       ??0?$CHeapPtr@_WVCCRTAllocator@ATL@@@ATL@@QEAA@XZ 0000000180003ce0 f i OposVariant.obj
 0001:00002d20       ??0?$CHeapPtrBase@_WVCCRTAllocator@ATL@@@ATL@@IEAA@XZ 0000000180003d20 f i OposVariant.obj
 0001:00002d40       ??0?$CSimpleArray@GV?$CSimpleArrayEqualHelper@G@ATL@@@ATL@@QEAA@XZ 0000000180003d40 f i OposVariant.obj
 0001:00002d80       ??0?$CTraceCategoryEx@$00$0A@@ATL@@QEAA@PEB_W@Z 0000000180003d80 f i OposVariant.obj
 0001:00002dc0       ??0?$CTraceCategoryEx@$01$0A@@ATL@@QEAA@PEB_W@Z 0000000180003dc0 f i OposVariant.obj
 0001:00002e00       ??0?$CTraceCategoryEx@$03$0A@@ATL@@QEAA@PEB_W@Z 0000000180003e00 f i OposVariant.obj
 0001:00002e40       ??0?$CTraceCategoryEx@$07$0A@@ATL@@QEAA@PEB_W@Z 0000000180003e40 f i OposVariant.obj
 0001:00002e80       ??0?$CTraceCategoryEx@$0BA@$0A@@ATL@@QEAA@PEB_W@Z 0000000180003e80 f i OposVariant.obj
 0001:00002ec0       ??0?$CTraceCategoryEx@$0BAA@$0A@@ATL@@QEAA@PEB_W@Z 0000000180003ec0 f i OposVariant.obj
 0001:00002f00       ??0?$CTraceCategoryEx@$0BAAA@$0A@@ATL@@QEAA@PEB_W@Z 0000000180003f00 f i OposVariant.obj
 0001:00002f40       ??0?$CTraceCategoryEx@$0BAAAA@$0A@@ATL@@QEAA@PEB_W@Z 0000000180003f40 f i OposVariant.obj
 0001:00002f80       ??0?$CTraceCategoryEx@$0BAAAAA@$0A@@ATL@@QEAA@PEB_W@Z 0000000180003f80 f i OposVariant.obj
 0001:00002fc0       ??0?$CTraceCategoryEx@$0CA@$0A@@ATL@@QEAA@PEB_W@Z 0000000180003fc0 f i OposVariant.obj
 0001:00003000       ??0?$CTraceCategoryEx@$0CAA@$0A@@ATL@@QEAA@PEB_W@Z 0000000180004000 f i OposVariant.obj
 0001:00003040       ??0?$CTraceCategoryEx@$0CAAA@$0A@@ATL@@QEAA@PEB_W@Z 0000000180004040 f i OposVariant.obj
 0001:00003080       ??0?$CTraceCategoryEx@$0CAAAA@$0A@@ATL@@QEAA@PEB_W@Z 0000000180004080 f i OposVariant.obj
 0001:000030c0       ??0?$CTraceCategoryEx@$0CAAAAA@$0A@@ATL@@QEAA@PEB_W@Z 00000001800040c0 f i OposVariant.obj
 0001:00003100       ??0?$CTraceCategoryEx@$0EA@$0A@@ATL@@QEAA@PEB_W@Z 0000000180004100 f i OposVariant.obj
 0001:00003140       ??0?$CTraceCategoryEx@$0EAA@$0A@@ATL@@QEAA@PEB_W@Z 0000000180004140 f i OposVariant.obj
 0001:00003180       ??0?$CTraceCategoryEx@$0EAAA@$0A@@ATL@@QEAA@PEB_W@Z 0000000180004180 f i OposVariant.obj
 0001:000031c0       ??0?$CTraceCategoryEx@$0EAAAA@$0A@@ATL@@QEAA@PEB_W@Z 00000001800041c0 f i OposVariant.obj
 0001:00003200       ??0?$CTraceCategoryEx@$0EAAAAA@$0A@@ATL@@QEAA@PEB_W@Z 0000000180004200 f i OposVariant.obj
 0001:00003240       ??0?$CTraceCategoryEx@$0IA@$0A@@ATL@@QEAA@PEB_W@Z 0000000180004240 f i OposVariant.obj
 0001:00003280       ??0?$CTraceCategoryEx@$0IAA@$0A@@ATL@@QEAA@PEB_W@Z 0000000180004280 f i OposVariant.obj
 0001:000032c0       ??0?$CTraceCategoryEx@$0IAAA@$0A@@ATL@@QEAA@PEB_W@Z 00000001800042c0 f i OposVariant.obj
 0001:00003300       ??0?$CTraceCategoryEx@$0IAAAA@$0A@@ATL@@QEAA@PEB_W@Z 0000000180004300 f i OposVariant.obj
 0001:00003340       ??0CAtlComModule@ATL@@QEAA@XZ 0000000180004340 f i OposVariant.obj
 0001:00003460       ??0CAtlWinModule@ATL@@QEAA@XZ 0000000180004460 f i OposVariant.obj
 0001:00003510       ??0CComCriticalSection@ATL@@QEAA@XZ 0000000180004510 f i OposVariant.obj
 0001:00003550       ??0CPreserveLastError@ATL@@QEAA@XZ 0000000180004550 f i OposVariant.obj
 0001:00003590       ??0CTraceFileAndLineInfo@ATL@@QEAA@PEBDH@Z 0000000180004590 f i OposVariant.obj
 0001:000035c0       ??0_ATL_COM_MODULE70@ATL@@QEAA@XZ 00000001800045c0 f i OposVariant.obj
 0001:00003600       ??0_ATL_WIN_MODULE70@ATL@@QEAA@XZ 0000000180004600 f i OposVariant.obj
 0001:00003650       ??1?$CHeapPtr@_WVCCRTAllocator@ATL@@@ATL@@QEAA@XZ 0000000180004650 f i OposVariant.obj
 0001:00003680       ??1?$CHeapPtrBase@_WVCCRTAllocator@ATL@@@ATL@@QEAA@XZ 0000000180004680 f i OposVariant.obj
 0001:000036b0       ??1?$CSimpleArray@GV?$CSimpleArrayEqualHelper@G@ATL@@@ATL@@QEAA@XZ 00000001800046b0 f i OposVariant.obj
 0001:000036e0       ??1CAtlComModule@ATL@@QEAA@XZ 00000001800046e0 f i OposVariant.obj
 0001:00003720       ??1CAtlWinModule@ATL@@QEAA@XZ 0000000180004720 f i OposVariant.obj
 0001:00003760       ??1CComBSTR@ATL@@QEAA@XZ   0000000180004760 f i OposVariant.obj
 0001:000037a0       ??1CComCriticalSection@ATL@@QEAA@XZ 00000001800047a0 f i OposVariant.obj
 0001:000037b0       ??1CPreserveLastError@ATL@@QEAA@XZ 00000001800047b0 f i OposVariant.obj
 0001:000037f0       ??1_ATL_COM_MODULE70@ATL@@QEAA@XZ 00000001800047f0 f i OposVariant.obj
 0001:00003830       ??1_ATL_WIN_MODULE70@ATL@@QEAA@XZ 0000000180004830 f i OposVariant.obj
 0001:00003880       ??1stringdispid@CComTypeInfoHolder@ATL@@QEAA@XZ 0000000180004880 f i OposVariant.obj
 0001:000038c0       ??A?$CSimpleArray@GV?$CSimpleArrayEqualHelper@G@ATL@@@ATL@@QEAAAEAGH@Z 00000001800048c0 f i OposVariant.obj
 0001:00003970       ??B?$CHeapPtrBase@_WVCCRTAllocator@ATL@@@ATL@@QEBAPEA_WXZ 0000000180004970 f i OposVariant.obj
 0001:00003980       ??B?$CTraceCategoryEx@$01$0A@@ATL@@QEAAIXZ 0000000180004980 f i OposVariant.obj
 0001:00003990       ??B?$CTraceCategoryEx@$0CA@$0A@@ATL@@QEAAIXZ 0000000180004990 f i OposVariant.obj
 0001:000039a0       ??RCTraceFileAndLineInfo@ATL@@QEBAXHIPEB_WZZ 00000001800049a0 f i OposVariant.obj
 0001:00003a50       ??_Estringdispid@CComTypeInfoHolder@ATL@@QEAAPEAXI@Z 0000000180004a50 f i OposVariant.obj
 0001:00003b00       ??_H@YAXPEAX_K1P6APEAX0@Z@Z 0000000180004b00 f i OposVariant.obj
 0001:00003b90       ??_I@YAXPEAX_K1P6AX0@Z@Z   0000000180004b90 f i OposVariant.obj
 0001:00003c40       ?Allocate@?$CHeapPtr@_WVCCRTAllocator@ATL@@@ATL@@QEAA_N_K@Z 0000000180004c40 f i OposVariant.obj
 0001:00003cc0       ?Allocate@CCRTAllocator@ATL@@SAPEAX_K@Z 0000000180004cc0 f i OposVariant.obj
 0001:00003cf0       ?AllocateBytes@?$CHeapPtrBase@_WVCCRTAllocator@ATL@@@ATL@@QEAA_N_K@Z 0000000180004cf0 f i OposVariant.obj
 0001:00003d90       ?AtlWinModuleInit@ATL@@YAJPEAU_ATL_WIN_MODULE70@1@@Z 0000000180004d90 f i OposVariant.obj
 0001:00003e90       ?AtlWinModuleTerm@ATL@@YAJPEAU_ATL_WIN_MODULE70@1@PEAUHINSTANCE__@@@Z 0000000180004e90 f i OposVariant.obj
 0001:00003f80       ?Clear@OposVariant@@QEAAJXZ 0000000180004f80 f i OposVariant.obj
 0001:00003fc0       ?Free@?$CHeapPtrBase@_WVCCRTAllocator@ATL@@@ATL@@QEAAXXZ 0000000180004fc0 f i OposVariant.obj
 0001:00004000       ?Free@CCRTAllocator@ATL@@SAXPEAX@Z 0000000180005000 f i OposVariant.obj
 0001:00004030       ?GetCategoryName@CTrace@ATL@@CAPEA_WI@Z 0000000180005030 f i OposVariant.obj
 0001:000040b0       ?GetModuleInstance@CAtlBaseModule@ATL@@QEAAPEAUHINSTANCE__@@XZ 00000001800050b0 f i OposVariant.obj
 0001:000040d0       ?GetSize@?$CSimpleArray@GV?$CSimpleArrayEqualHelper@G@ATL@@@ATL@@QEBAHXZ 00000001800050d0 f i OposVariant.obj
 0001:000040e0       ?Init@CComCriticalSection@ATL@@QEAAJXZ 00000001800050e0 f i OposVariant.obj
 0001:00004140       ?RegisterCategory@CTrace@ATL@@SAXPEB_WI@Z 0000000180005140 f i OposVariant.obj
 0001:00004220       ?RemoveAll@?$CSimpleArray@GV?$CSimpleArrayEqualHelper@G@ATL@@@ATL@@QEAAXXZ 0000000180005220 f i OposVariant.obj
 0001:000042b0       ?Term@CAtlComModule@ATL@@QEAAXXZ 00000001800052b0 f i OposVariant.obj
 0001:00004390       ?Term@CAtlWinModule@ATL@@QEAAXXZ 0000000180005390 f i OposVariant.obj
 0001:000043d0       ?Term@CComCriticalSection@ATL@@QEAAJXZ 00000001800053d0 f i OposVariant.obj
 0001:00004410       ?TraceV@CTrace@ATL@@CAXPEBDHIIPEB_W@Z 0000000180005410 f i OposVariant.obj
 0001:000046c0       ?TraceV@CTrace@ATL@@SAXPEBDHIIPEB_WPEAD@Z 00000001800056c0 f i OposVariant.obj
 0001:00004870       ?_AtlInitializeCriticalSectionEx@ATL@@YAHPEAU_RTL_CRITICAL_SECTION@@KK@Z 0000000180005870 f i OposVariant.obj
 0001:000048c0       ?_AtlRaiseException@ATL@@YAXKK@Z 00000001800058c0 f i OposVariant.obj
 0001:00004900       HRESULT_FROM_WIN32         0000000180005900 f i OposVariant.obj
 0001:00004950       _vswprintf_s_l             0000000180005950 f i OposVariant.obj
 0001:000049e0       swprintf_s                 00000001800059e0 f i OposVariant.obj
 0001:00004a70       ?ObjectMain@CComObjectRootBase@ATL@@SAX_N@Z 0000000180005a70 f i BillAcceptor.obj
 0001:00004a80       ?GetCategoryMap@CComObjectRootBase@ATL@@SAPEBU_ATL_CATMAP_ENTRY@2@XZ 0000000180005a80 f i BillAcceptor.obj
 0001:00004a90       ?GetObjectDescription@?$CComCoClass@VCOPOSBillAcceptor@@$1?CLSID_OPOSBillAcceptor@@3U_GUID@@B@ATL@@SAPEB_WXZ 0000000180005a90 f i BillAcceptor.obj
 0001:00004aa0       ?UpdateRegistry@COPOSBillAcceptor@@SAJH@Z 0000000180005aa0 f i BillAcceptor.obj
 0001:00004ae0       ?CreateInstance@?$CComCreator@V?$CComObjectCached@VCComClassFactory@ATL@@@ATL@@@ATL@@SAJPEAXAEBU_GUID@@PEAPEAX@Z 0000000180005ae0 f i BillAcceptor.obj
 0001:00004cd0       ?CreateInstance@?$CComCreator2@V?$CComCreator@V?$CComObject@VCOPOSBillAcceptor@@@ATL@@@ATL@@V?$CComCreator@V?$CComAggObject@VCOPOSBillAcceptor@@@ATL@@@2@@ATL@@SAJPEAXAEBU_GUID@@PEAPEAX@Z 0000000180005cd0 f i BillAcceptor.obj
 0001:00004ee0       DllGetClassObject          0000000180005ee0 f   BillAcceptor.obj
 0001:00004f30       DllCanUnloadNow            0000000180005f30 f   BillAcceptor.obj
 0001:00004f80       DllRegisterServer          0000000180005f80 f   BillAcceptor.obj
 0001:00004fc0       DllUnregisterServer        0000000180005fc0 f   BillAcceptor.obj
 0001:000051c0       DllMain                    00000001800061c0 f   BillAcceptor.obj
 0001:00005240       ??$?2G@Wrapper@?$CSimpleArray@GV?$CSimpleArrayEqualHelper@G@ATL@@@ATL@@SAPEAX_KPEAG@Z 0000000180006240 f i BillAcceptor.obj
 0001:00005260       ??$?2PEA_W@?$Wrapper@PEA_W@?$CSimpleMap@PEA_WPEA_WVCExpansionVectorEqualHelper@ATL@@@ATL@@SAPEAX_KPEAPEA_W@Z 0000000180006260 f i BillAcceptor.obj
 0001:00005280       ??$?4UITypeInfo2@@@?$CComPtr@UITypeInfo@@@ATL@@QEAAPEAUITypeInfo@@AEBV?$CComPtr@UITypeInfo2@@@1@@Z 0000000180006280 f i BillAcceptor.obj
 0001:000052f0       ??$AtlAdd@_K@ATL@@YAJPEA_K_K1@Z 00000001800062f0 f i BillAcceptor.obj
 0001:00005360       ??$AtlAddThrow@_K@ATL@@YA_K_K0@Z 0000000180006360 f i BillAcceptor.obj
 0001:000053d0       ??$AtlModuleRegisterWndClassInfoT@VAtlModuleRegisterWndClassInfoParamW@ATL@@@ATL@@YAGPEAU_ATL_BASE_MODULE70@0@PEAU_ATL_WIN_MODULE70@0@PEAU_ATL_WNDCLASSINFOW@0@PEAP6A_JPEAUHWND__@@I_K_J@ZVAtlModuleRegisterWndClassInfoParamW@0@@Z 00000001800063d0 f i BillAcceptor.obj
 0001:000059a0       ??$AtlMultiply@H@ATL@@YAJPEAHHH@Z 00000001800069a0 f i BillAcceptor.obj
 0001:00005a10       ??$AtlMultiply@K@ATL@@YAJPEAKKK@Z 0000000180006a10 f i BillAcceptor.obj
 0001:00005a80       ??$AtlMultiplyThrow@_K@ATL@@YA_K_K0@Z 0000000180006a80 f i BillAcceptor.obj
 0001:00005af0       ??$QueryInterface@UIPersistStream@@@IUnknown@@QEAAJPEAPEAUIPersistStream@@@Z 0000000180006af0 f i BillAcceptor.obj
 0001:00005b40       ??$QueryInterface@UITypeInfo2@@@IUnknown@@QEAAJPEAPEAUITypeInfo2@@@Z 0000000180006b40 f i BillAcceptor.obj
 0001:00005b90       ??0?$CAtlModuleT@VCComModule@ATL@@@ATL@@QEAA@XZ 0000000180006b90 f i BillAcceptor.obj
 0001:00005bd0       ??0?$CAtlSafeAllocBufferManager@VCCRTAllocator@ATL@@@_ATL_SAFE_ALLOCA_IMPL@ATL@@QEAA@XZ 0000000180006bd0 f i BillAcceptor.obj
 0001:00005bf0       ??0?$CAutoVectorPtr@_W@ATL@@QEAA@XZ 0000000180006bf0 f i BillAcceptor.obj
 0001:00005c10       ??0?$CComAggObject@VCOPOSBillAcceptor@@@ATL@@QEAA@PEAX@Z 0000000180006c10 f i BillAcceptor.obj
 0001:00005ca0       ??0?$CComContainedObject@VCOPOSBillAcceptor@@@ATL@@QEAA@PEAX@Z 0000000180006ca0 f i BillAcceptor.obj
 0001:00005e40       ??0?$CComCritSecLock@VCComCriticalSection@ATL@@@ATL@@QEAA@AEAVCComCriticalSection@1@_N@Z 0000000180006e40 f i BillAcceptor.obj
 0001:00005eb0       ??0?$CComEnum@UIEnumConnectionPoints@@$1?_GUID_b196b285_bab4_101a_b69c_00aa00341d07@@3U__s_GUID@@BPEAUIConnectionPoint@@V?$_CopyInterface@UIConnectionPoint@@@ATL@@VCComSingleThreadModel@6@@ATL@@QEAA@XZ 0000000180006eb0 f i BillAcceptor.obj
 0001:00005f00       ??0?$CComEnum@UIEnumConnections@@$1?_GUID_b196b287_bab4_101a_b69c_00aa00341d07@@3U__s_GUID@@BUtagCONNECTDATA@@V?$_Copy@UtagCONNECTDATA@@@ATL@@VCComSingleThreadModel@6@@ATL@@QEAA@XZ 0000000180006f00 f i BillAcceptor.obj
 0001:00005f50       ??0?$CComEnumImpl@UIEnumConnectionPoints@@$1?_GUID_b196b285_bab4_101a_b69c_00aa00341d07@@3U__s_GUID@@BPEAUIConnectionPoint@@V?$_CopyInterface@UIConnectionPoint@@@ATL@@@ATL@@QEAA@XZ 0000000180006f50 f i BillAcceptor.obj
 0001:00005fd0       ??0?$CComEnumImpl@UIEnumConnections@@$1?_GUID_b196b287_bab4_101a_b69c_00aa00341d07@@3U__s_GUID@@BUtagCONNECTDATA@@V?$_Copy@UtagCONNECTDATA@@@ATL@@@ATL@@QEAA@XZ 0000000180006fd0 f i BillAcceptor.obj
 0001:00006050       ??0?$CComObject@V?$CComEnum@UIEnumConnectionPoints@@$1?_GUID_b196b285_bab4_101a_b69c_00aa00341d07@@3U__s_GUID@@BPEAUIConnectionPoint@@V?$_CopyInterface@UIConnectionPoint@@@ATL@@VCComSingleThreadModel@6@@ATL@@@ATL@@QEAA@PEAX@Z 0000000180007050 f i BillAcceptor.obj
 0001:000060b0       ??0?$CComObject@V?$CComEnum@UIEnumConnections@@$1?_GUID_b196b287_bab4_101a_b69c_00aa00341d07@@3U__s_GUID@@BUtagCONNECTDATA@@V?$_Copy@UtagCONNECTDATA@@@ATL@@VCComSingleThreadModel@6@@ATL@@@ATL@@QEAA@PEAX@Z 00000001800070b0 f i BillAcceptor.obj
 0001:00006110       ??0?$CComObject@VCOPOSBillAcceptor@@@ATL@@QEAA@PEAX@Z 0000000180007110 f i BillAcceptor.obj
 0001:000062b0       ??0?$CComObjectCached@VCComClassFactory@ATL@@@ATL@@QEAA@PEAX@Z 00000001800072b0 f i BillAcceptor.obj
 0001:00006300       ??0?$CComObjectRootEx@VCComMultiThreadModel@ATL@@@ATL@@QEAA@XZ 0000000180007300 f i BillAcceptor.obj
 0001:00006350       ??0?$CComObjectRootEx@VCComSingleThreadModel@ATL@@@ATL@@QEAA@XZ 0000000180007350 f i BillAcceptor.obj
 0001:00006390       ??0?$CComPtr@UIAdviseSink@@@ATL@@QEAA@PEAUIAdviseSink@@@Z 0000000180007390 f i BillAcceptor.obj
 0001:000063d0       ??0?$CComPtr@UICatRegister@@@ATL@@QEAA@XZ 00000001800073d0 f i BillAcceptor.obj
 0001:00006410       ??0?$CComPtr@UIConnectionPoint@@@ATL@@QEAA@XZ 0000000180007410 f i BillAcceptor.obj
 0001:00006450       ??0?$CComPtr@UIConnectionPointContainer@@@ATL@@QEAA@XZ 0000000180007450 f i BillAcceptor.obj
 0001:00006490       ??0?$CComPtr@UIDataObject@@@ATL@@QEAA@XZ 0000000180007490 f i BillAcceptor.obj
 0001:000064d0       ??0?$CComPtr@UIDispatch@@@ATL@@QEAA@XZ 00000001800074d0 f i BillAcceptor.obj
 0001:00006510       ??0?$CComPtr@UIOleClientSite@@@ATL@@QEAA@PEAUIOleClientSite@@@Z 0000000180007510 f i BillAcceptor.obj
 0001:00006550       ??0?$CComPtr@UIOleControlSite@@@ATL@@QEAA@XZ 0000000180007550 f i BillAcceptor.obj
 0001:00006590       ??0?$CComPtr@UIOleInPlaceActiveObject@@@ATL@@QEAA@XZ 0000000180007590 f i BillAcceptor.obj
 0001:000065d0       ??0?$CComPtr@UIOleInPlaceFrame@@@ATL@@QEAA@XZ 00000001800075d0 f i BillAcceptor.obj
 0001:00006610       ??0?$CComPtr@UIOleInPlaceObject@@@ATL@@QEAA@XZ 0000000180007610 f i BillAcceptor.obj
 0001:00006650       ??0?$CComPtr@UIOleInPlaceUIWindow@@@ATL@@QEAA@XZ 0000000180007650 f i BillAcceptor.obj
 0001:00006690       ??0?$CComPtr@UIOleObject@@@ATL@@QEAA@XZ 0000000180007690 f i BillAcceptor.obj
 0001:000066d0       ??0?$CComPtr@UIPersistStream@@@ATL@@QEAA@XZ 00000001800076d0 f i BillAcceptor.obj
 0001:00006710       ??0?$CComPtr@UIPersistStreamInit@@@ATL@@QEAA@XZ 0000000180007710 f i BillAcceptor.obj
 0001:00006750       ??0?$CComPtr@UIPointerInactive@@@ATL@@QEAA@XZ 0000000180007750 f i BillAcceptor.obj
 0001:00006790       ??0?$CComPtr@UIProvideClassInfo2@@@ATL@@QEAA@XZ 0000000180007790 f i BillAcceptor.obj
 0001:000067d0       ??0?$CComPtr@UISpecifyPropertyPages@@@ATL@@QEAA@XZ 00000001800077d0 f i BillAcceptor.obj
 0001:00006810       ??0?$CComPtr@UIStream@@@ATL@@QEAA@XZ 0000000180007810 f i BillAcceptor.obj
 0001:00006850       ??0?$CComPtr@UITypeInfo2@@@ATL@@QEAA@XZ 0000000180007850 f i BillAcceptor.obj
 0001:00006890       ??0?$CComPtr@UITypeInfo@@@ATL@@QEAA@AEBV01@@Z 0000000180007890 f i BillAcceptor.obj
 0001:000068d0       ??0?$CComPtr@UITypeInfo@@@ATL@@QEAA@XZ 00000001800078d0 f i BillAcceptor.obj
 0001:00006910       ??0?$CComPtr@UITypeLib@@@ATL@@QEAA@XZ 0000000180007910 f i BillAcceptor.obj
 0001:00006950       ??0?$CComPtr@UIUnknown@@@ATL@@QEAA@AEBV01@@Z 0000000180007950 f i BillAcceptor.obj
 0001:00006990       ??0?$CComPtr@UIUnknown@@@ATL@@QEAA@PEAUIUnknown@@@Z 0000000180007990 f i BillAcceptor.obj
 0001:000069d0       ??0?$CComPtr@UIUnknown@@@ATL@@QEAA@XZ 00000001800079d0 f i BillAcceptor.obj
 0001:00006a10       ??0?$CComPtr@UIViewObjectEx@@@ATL@@QEAA@XZ 0000000180007a10 f i BillAcceptor.obj
 0001:00006a50       ??0?$CComPtrBase@UIAdviseSink@@@ATL@@IEAA@PEAUIAdviseSink@@@Z 0000000180007a50 f i BillAcceptor.obj
 0001:00006ab0       ??0?$CComPtrBase@UICatRegister@@@ATL@@IEAA@XZ 0000000180007ab0 f i BillAcceptor.obj
 0001:00006ad0       ??0?$CComPtrBase@UIConnectionPoint@@@ATL@@IEAA@XZ 0000000180007ad0 f i BillAcceptor.obj
 0001:00006af0       ??0?$CComPtrBase@UIConnectionPointContainer@@@ATL@@IEAA@XZ 0000000180007af0 f i BillAcceptor.obj
 0001:00006b10       ??0?$CComPtrBase@UIDataObject@@@ATL@@IEAA@XZ 0000000180007b10 f i BillAcceptor.obj
 0001:00006b30       ??0?$CComPtrBase@UIDispatch@@@ATL@@IEAA@XZ 0000000180007b30 f i BillAcceptor.obj
 0001:00006b50       ??0?$CComPtrBase@UIOleClientSite@@@ATL@@IEAA@PEAUIOleClientSite@@@Z 0000000180007b50 f i BillAcceptor.obj
 0001:00006bb0       ??0?$CComPtrBase@UIOleControlSite@@@ATL@@IEAA@XZ 0000000180007bb0 f i BillAcceptor.obj
 0001:00006bd0       ??0?$CComPtrBase@UIOleInPlaceActiveObject@@@ATL@@IEAA@XZ 0000000180007bd0 f i BillAcceptor.obj
 0001:00006bf0       ??0?$CComPtrBase@UIOleInPlaceFrame@@@ATL@@IEAA@XZ 0000000180007bf0 f i BillAcceptor.obj
 0001:00006c10       ??0?$CComPtrBase@UIOleInPlaceObject@@@ATL@@IEAA@XZ 0000000180007c10 f i BillAcceptor.obj
 0001:00006c30       ??0?$CComPtrBase@UIOleInPlaceUIWindow@@@ATL@@IEAA@XZ 0000000180007c30 f i BillAcceptor.obj
 0001:00006c50       ??0?$CComPtrBase@UIOleObject@@@ATL@@IEAA@XZ 0000000180007c50 f i BillAcceptor.obj
 0001:00006c70       ??0?$CComPtrBase@UIPersistStream@@@ATL@@IEAA@XZ 0000000180007c70 f i BillAcceptor.obj
 0001:00006c90       ??0?$CComPtrBase@UIPersistStreamInit@@@ATL@@IEAA@XZ 0000000180007c90 f i BillAcceptor.obj
 0001:00006cb0       ??0?$CComPtrBase@UIPointerInactive@@@ATL@@IEAA@XZ 0000000180007cb0 f i BillAcceptor.obj
 0001:00006cd0       ??0?$CComPtrBase@UIProvideClassInfo2@@@ATL@@IEAA@XZ 0000000180007cd0 f i BillAcceptor.obj
 0001:00006cf0       ??0?$CComPtrBase@UISpecifyPropertyPages@@@ATL@@IEAA@XZ 0000000180007cf0 f i BillAcceptor.obj
 0001:00006d10       ??0?$CComPtrBase@UIStream@@@ATL@@IEAA@XZ 0000000180007d10 f i BillAcceptor.obj
 0001:00006d30       ??0?$CComPtrBase@UITypeInfo2@@@ATL@@IEAA@XZ 0000000180007d30 f i BillAcceptor.obj
 0001:00006d50       ??0?$CComPtrBase@UITypeInfo@@@ATL@@IEAA@PEAUITypeInfo@@@Z 0000000180007d50 f i BillAcceptor.obj
 0001:00006db0       ??0?$CComPtrBase@UITypeInfo@@@ATL@@IEAA@XZ 0000000180007db0 f i BillAcceptor.obj
 0001:00006dd0       ??0?$CComPtrBase@UITypeLib@@@ATL@@IEAA@XZ 0000000180007dd0 f i BillAcceptor.obj
 0001:00006df0       ??0?$CComPtrBase@UIUnknown@@@ATL@@IEAA@PEAUIUnknown@@@Z 0000000180007df0 f i BillAcceptor.obj
 0001:00006e50       ??0?$CComPtrBase@UIUnknown@@@ATL@@IEAA@XZ 0000000180007e50 f i BillAcceptor.obj
 0001:00006e70       ??0?$CComPtrBase@UIViewObjectEx@@@ATL@@IEAA@XZ 0000000180007e70 f i BillAcceptor.obj
 0001:00006e90       ??0?$CComQIPtr@UIOleControlSite@@$1?_GUID_b196b289_bab4_101a_b69c_00aa00341d07@@3U__s_GUID@@B@ATL@@QEAA@PEAUIUnknown@@@Z 0000000180007e90 f i BillAcceptor.obj
 0001:00006f00       ??0?$CComQIPtr@UIOleObject@@$1?_GUID_00000112_0000_0000_c000_000000000046@@3U__s_GUID@@B@ATL@@QEAA@XZ 0000000180007f00 f i BillAcceptor.obj
 0001:00006f40       ??0?$CComQIPtr@UISpecifyPropertyPages@@$1?_GUID_b196b28b_bab4_101a_b69c_00aa00341d07@@3U__s_GUID@@B@ATL@@QEAA@XZ 0000000180007f40 f i BillAcceptor.obj
 0001:00006f80       ??0?$CSimpleMap@PEA_WPEA_WVCExpansionVectorEqualHelper@ATL@@@ATL@@QEAA@XZ 0000000180007f80 f i BillAcceptor.obj
 0001:00006fc0       ??0?$CTempBuffer@E$0BAA@VCCRTAllocator@ATL@@@ATL@@QEAA@XZ 0000000180007fc0 f i BillAcceptor.obj
 0001:00006fe0       ??0?$CTempBuffer@_W$0BAA@VCCRTAllocator@ATL@@@ATL@@QEAA@XZ 0000000180007fe0 f i BillAcceptor.obj
 0001:00007000       ??0?$CTempBuffer@_W$0EAA@VCCRTAllocator@ATL@@@ATL@@QEAA@XZ 0000000180008000 f i BillAcceptor.obj
 0001:00007020       ??0?$Wrapper@PEA_W@?$CSimpleMap@PEA_WPEA_WVCExpansionVectorEqualHelper@ATL@@@ATL@@QEAA@AEBQEA_W@Z 0000000180008020 f i BillAcceptor.obj
 0001:00007050       ??0CAtlModule@ATL@@QEAA@XZ 0000000180008050 f i BillAcceptor.obj
 0001:000071c0       ??0CComAutoDeleteCriticalSection@ATL@@QEAA@XZ 00000001800081c0 f i BillAcceptor.obj
 0001:00007200       ??0CComBSTR@ATL@@QEAA@XZ   0000000180008200 f i BillAcceptor.obj
 0001:00007220       ??0CComClassFactory@ATL@@QEAA@XZ 0000000180008220 f i BillAcceptor.obj
 0001:00007280       ??0CComModule@ATL@@QEAA@XZ 0000000180008280 f i BillAcceptor.obj
 0001:00007320       ??0CComObjectRootBase@ATL@@QEAA@XZ 0000000180008320 f i BillAcceptor.obj
 0001:00007340       ??0CComSafeDeleteCriticalSection@ATL@@QEAA@XZ 0000000180008340 f i BillAcceptor.obj
 0001:00007380       ??0CComVariant@ATL@@QEAA@XZ 0000000180008380 f i BillAcceptor.obj
 0001:000073d0       ??0CExpansionVector@ATL@@QEAA@XZ 00000001800083d0 f i BillAcceptor.obj
 0001:00007410       ??0CParseBuffer@CRegParser@ATL@@QEAA@H@Z 0000000180008410 f i BillAcceptor.obj
 0001:000074a0       ??0CRegKey@ATL@@QEAA@PEAUHKEY__@@@Z 00000001800084a0 f i BillAcceptor.obj
 0001:000074e0       ??0CRegKey@ATL@@QEAA@PEAVCAtlTransactionManager@1@@Z 00000001800084e0 f i BillAcceptor.obj
 0001:00007520       ??0CRegObject@ATL@@QEAA@XZ 0000000180008520 f i BillAcceptor.obj
 0001:00007580       ??0CRegParser@ATL@@QEAA@PEAVCRegObject@1@@Z 0000000180008580 f i BillAcceptor.obj
 0001:000075b0       ??0IClassFactory@@QEAA@XZ  00000001800085b0 f i BillAcceptor.obj
 0001:000075f0       ??0IEnumConnectionPoints@@QEAA@XZ 00000001800085f0 f i BillAcceptor.obj
 0001:00007630       ??0IEnumConnections@@QEAA@XZ 0000000180008630 f i BillAcceptor.obj
 0001:00007670       ??0IRegistrarBase@@QEAA@XZ 0000000180008670 f i BillAcceptor.obj
 0001:000076b0       ??0IUnknown@@QEAA@XZ       00000001800086b0 f i BillAcceptor.obj
 0001:000076c0       ??0ModuleLockHelper@ATL@@QEAA@XZ 00000001800086c0 f i BillAcceptor.obj
 0001:00007700       ??0OposVariant@@QEAA@XZ    0000000180008700 f i BillAcceptor.obj
 0001:00007720       ??0Wrapper@?$CSimpleArray@GV?$CSimpleArrayEqualHelper@G@ATL@@@ATL@@QEAA@AEBG@Z 0000000180008720 f i BillAcceptor.obj
 0001:00007750       ??0_ATL_MODULE70@ATL@@QEAA@XZ 0000000180008750 f i BillAcceptor.obj
 0001:00007790       ??0_ATL_MSG@ATL@@QEAA@PEAUHWND__@@I_K_JH@Z 0000000180008790 f i BillAcceptor.obj
 0001:00007820       ??0_U_MENUorID@ATL@@QEAA@I@Z 0000000180008820 f i BillAcceptor.obj
 0001:00007840       ??0_U_RECT@ATL@@QEAA@AEAUtagRECT@@@Z 0000000180008840 f i BillAcceptor.obj
 0001:00007860       ??0stringdispid@CComTypeInfoHolder@ATL@@QEAA@XZ 0000000180008860 f i BillAcceptor.obj
 0001:000078b0       ??1?$CAtlModuleT@VCComModule@ATL@@@ATL@@UEAA@XZ 00000001800088b0 f i BillAcceptor.obj
 0001:000078e0       ??1?$CAtlSafeAllocBufferManager@VCCRTAllocator@ATL@@@_ATL_SAFE_ALLOCA_IMPL@ATL@@QEAA@XZ 00000001800088e0 f i BillAcceptor.obj
 0001:00007940       ??1?$CAutoVectorPtr@_W@ATL@@QEAA@XZ 0000000180008940 f i BillAcceptor.obj
 0001:00007970       ??1?$CComAggObject@VCOPOSBillAcceptor@@@ATL@@UEAA@XZ 0000000180008970 f i BillAcceptor.obj
 0001:000079f0       ??1?$CComContainedObject@VCOPOSBillAcceptor@@@ATL@@UEAA@XZ 00000001800089f0 f i BillAcceptor.obj
 0001:00007a20       ??1?$CComCritSecLock@VCComCriticalSection@ATL@@@ATL@@QEAA@XZ 0000000180008a20 f i BillAcceptor.obj
 0001:00007a60       ??1?$CComEnum@UIEnumConnectionPoints@@$1?_GUID_b196b285_bab4_101a_b69c_00aa00341d07@@3U__s_GUID@@BPEAUIConnectionPoint@@V?$_CopyInterface@UIConnectionPoint@@@ATL@@VCComSingleThreadModel@6@@ATL@@UEAA@XZ 0000000180008a60 f i BillAcceptor.obj
 0001:00007aa0       ??1?$CComEnum@UIEnumConnections@@$1?_GUID_b196b287_bab4_101a_b69c_00aa00341d07@@3U__s_GUID@@BUtagCONNECTDATA@@V?$_Copy@UtagCONNECTDATA@@@ATL@@VCComSingleThreadModel@6@@ATL@@UEAA@XZ 0000000180008aa0 f i BillAcceptor.obj
 0001:00007ae0       ??1?$CComEnumImpl@UIEnumConnectionPoints@@$1?_GUID_b196b285_bab4_101a_b69c_00aa00341d07@@3U__s_GUID@@BPEAUIConnectionPoint@@V?$_CopyInterface@UIConnectionPoint@@@ATL@@@ATL@@UEAA@XZ 0000000180008ae0 f i BillAcceptor.obj
 0001:00007b80       ??1?$CComEnumImpl@UIEnumConnections@@$1?_GUID_b196b287_bab4_101a_b69c_00aa00341d07@@3U__s_GUID@@BUtagCONNECTDATA@@V?$_Copy@UtagCONNECTDATA@@@ATL@@@ATL@@UEAA@XZ 0000000180008b80 f i BillAcceptor.obj
 0001:00007c20       ??1?$CComObject@V?$CComEnum@UIEnumConnectionPoints@@$1?_GUID_b196b285_bab4_101a_b69c_00aa00341d07@@3U__s_GUID@@BPEAUIConnectionPoint@@V?$_CopyInterface@UIConnectionPoint@@@ATL@@VCComSingleThreadModel@6@@ATL@@@ATL@@UEAA@XZ 0000000180008c20 f i BillAcceptor.obj
 0001:00007c90       ??1?$CComObject@V?$CComEnum@UIEnumConnections@@$1?_GUID_b196b287_bab4_101a_b69c_00aa00341d07@@3U__s_GUID@@BUtagCONNECTDATA@@V?$_Copy@UtagCONNECTDATA@@@ATL@@VCComSingleThreadModel@6@@ATL@@@ATL@@UEAA@XZ 0000000180008c90 f i BillAcceptor.obj
 0001:00007d00       ??1?$CComObject@VCOPOSBillAcceptor@@@ATL@@UEAA@XZ 0000000180008d00 f i BillAcceptor.obj
 0001:00007eb0       ??1?$CComObjectCached@VCComClassFactory@ATL@@@ATL@@UEAA@XZ 0000000180008eb0 f i BillAcceptor.obj
 0001:00007f10       ??1?$CComObjectRootEx@VCComMultiThreadModel@ATL@@@ATL@@QEAA@XZ 0000000180008f10 f i BillAcceptor.obj
 0001:00007f50       ??1?$CComObjectRootEx@VCComSingleThreadModel@ATL@@@ATL@@QEAA@XZ 0000000180008f50 f i BillAcceptor.obj
 0001:00007f80       ??1?$CComPtr@UIAdviseSink@@@ATL@@QEAA@XZ 0000000180008f80 f i BillAcceptor.obj
 0001:00007fb0       ??1?$CComPtr@UICatRegister@@@ATL@@QEAA@XZ 0000000180008fb0 f i BillAcceptor.obj
 0001:00007fe0       ??1?$CComPtr@UIConnectionPoint@@@ATL@@QEAA@XZ 0000000180008fe0 f i BillAcceptor.obj
 0001:00008010       ??1?$CComPtr@UIConnectionPointContainer@@@ATL@@QEAA@XZ 0000000180009010 f i BillAcceptor.obj
 0001:00008040       ??1?$CComPtr@UIDataObject@@@ATL@@QEAA@XZ 0000000180009040 f i BillAcceptor.obj
 0001:00008070       ??1?$CComPtr@UIDispatch@@@ATL@@QEAA@XZ 0000000180009070 f i BillAcceptor.obj
 0001:000080a0       ??1?$CComPtr@UIOleClientSite@@@ATL@@QEAA@XZ 00000001800090a0 f i BillAcceptor.obj
 0001:000080d0       ??1?$CComPtr@UIOleControlSite@@@ATL@@QEAA@XZ 00000001800090d0 f i BillAcceptor.obj
 0001:00008100       ??1?$CComPtr@UIOleInPlaceActiveObject@@@ATL@@QEAA@XZ 0000000180009100 f i BillAcceptor.obj
 0001:00008130       ??1?$CComPtr@UIOleInPlaceFrame@@@ATL@@QEAA@XZ 0000000180009130 f i BillAcceptor.obj
 0001:00008160       ??1?$CComPtr@UIOleInPlaceObject@@@ATL@@QEAA@XZ 0000000180009160 f i BillAcceptor.obj
 0001:00008190       ??1?$CComPtr@UIOleInPlaceUIWindow@@@ATL@@QEAA@XZ 0000000180009190 f i BillAcceptor.obj
 0001:000081c0       ??1?$CComPtr@UIOleObject@@@ATL@@QEAA@XZ 00000001800091c0 f i BillAcceptor.obj
 0001:000081f0       ??1?$CComPtr@UIPersistStream@@@ATL@@QEAA@XZ 00000001800091f0 f i BillAcceptor.obj
 0001:00008220       ??1?$CComPtr@UIPersistStreamInit@@@ATL@@QEAA@XZ 0000000180009220 f i BillAcceptor.obj
 0001:00008250       ??1?$CComPtr@UIPointerInactive@@@ATL@@QEAA@XZ 0000000180009250 f i BillAcceptor.obj
 0001:00008280       ??1?$CComPtr@UIProvideClassInfo2@@@ATL@@QEAA@XZ 0000000180009280 f i BillAcceptor.obj
 0001:000082b0       ??1?$CComPtr@UISpecifyPropertyPages@@@ATL@@QEAA@XZ 00000001800092b0 f i BillAcceptor.obj
 0001:000082e0       ??1?$CComPtr@UIStream@@@ATL@@QEAA@XZ 00000001800092e0 f i BillAcceptor.obj
 0001:00008310       ??1?$CComPtr@UITypeInfo2@@@ATL@@QEAA@XZ 0000000180009310 f i BillAcceptor.obj
 0001:00008340       ??1?$CComPtr@UITypeInfo@@@ATL@@QEAA@XZ 0000000180009340 f i BillAcceptor.obj
 0001:00008370       ??1?$CComPtr@UITypeLib@@@ATL@@QEAA@XZ 0000000180009370 f i BillAcceptor.obj
 0001:000083a0       ??1?$CComPtr@UIUnknown@@@ATL@@QEAA@XZ 00000001800093a0 f i BillAcceptor.obj
 0001:000083d0       ??1?$CComPtr@UIViewObjectEx@@@ATL@@QEAA@XZ 00000001800093d0 f i BillAcceptor.obj
 0001:00008400       ??1?$CComPtrBase@UIAdviseSink@@@ATL@@QEAA@XZ 0000000180009400 f i BillAcceptor.obj
 0001:00008450       ??1?$CComPtrBase@UICatRegister@@@ATL@@QEAA@XZ 0000000180009450 f i BillAcceptor.obj
 0001:000084a0       ??1?$CComPtrBase@UIConnectionPoint@@@ATL@@QEAA@XZ 00000001800094a0 f i BillAcceptor.obj
 0001:000084f0       ??1?$CComPtrBase@UIConnectionPointContainer@@@ATL@@QEAA@XZ 00000001800094f0 f i BillAcceptor.obj
 0001:00008540       ??1?$CComPtrBase@UIDataObject@@@ATL@@QEAA@XZ 0000000180009540 f i BillAcceptor.obj
 0001:00008590       ??1?$CComPtrBase@UIDispatch@@@ATL@@QEAA@XZ 0000000180009590 f i BillAcceptor.obj
 0001:000085e0       ??1?$CComPtrBase@UIOleClientSite@@@ATL@@QEAA@XZ 00000001800095e0 f i BillAcceptor.obj
 0001:00008630       ??1?$CComPtrBase@UIOleControlSite@@@ATL@@QEAA@XZ 0000000180009630 f i BillAcceptor.obj
 0001:00008680       ??1?$CComPtrBase@UIOleInPlaceActiveObject@@@ATL@@QEAA@XZ 0000000180009680 f i BillAcceptor.obj
 0001:000086d0       ??1?$CComPtrBase@UIOleInPlaceFrame@@@ATL@@QEAA@XZ 00000001800096d0 f i BillAcceptor.obj
 0001:00008720       ??1?$CComPtrBase@UIOleInPlaceObject@@@ATL@@QEAA@XZ 0000000180009720 f i BillAcceptor.obj
 0001:00008770       ??1?$CComPtrBase@UIOleInPlaceUIWindow@@@ATL@@QEAA@XZ 0000000180009770 f i BillAcceptor.obj
 0001:000087c0       ??1?$CComPtrBase@UIOleObject@@@ATL@@QEAA@XZ 00000001800097c0 f i BillAcceptor.obj
 0001:00008810       ??1?$CComPtrBase@UIPersistStream@@@ATL@@QEAA@XZ 0000000180009810 f i BillAcceptor.obj
 0001:00008860       ??1?$CComPtrBase@UIPersistStreamInit@@@ATL@@QEAA@XZ 0000000180009860 f i BillAcceptor.obj
 0001:000088b0       ??1?$CComPtrBase@UIPointerInactive@@@ATL@@QEAA@XZ 00000001800098b0 f i BillAcceptor.obj
 0001:00008900       ??1?$CComPtrBase@UIProvideClassInfo2@@@ATL@@QEAA@XZ 0000000180009900 f i BillAcceptor.obj
 0001:00008950       ??1?$CComPtrBase@UISpecifyPropertyPages@@@ATL@@QEAA@XZ 0000000180009950 f i BillAcceptor.obj
 0001:000089a0       ??1?$CComPtrBase@UIStream@@@ATL@@QEAA@XZ 00000001800099a0 f i BillAcceptor.obj
 0001:000089f0       ??1?$CComPtrBase@UITypeInfo2@@@ATL@@QEAA@XZ 00000001800099f0 f i BillAcceptor.obj
 0001:00008a40       ??1?$CComPtrBase@UITypeInfo@@@ATL@@QEAA@XZ 0000000180009a40 f i BillAcceptor.obj
 0001:00008a90       ??1?$CComPtrBase@UITypeLib@@@ATL@@QEAA@XZ 0000000180009a90 f i BillAcceptor.obj
 0001:00008ae0       ??1?$CComPtrBase@UIUnknown@@@ATL@@QEAA@XZ 0000000180009ae0 f i BillAcceptor.obj
 0001:00008b30       ??1?$CComPtrBase@UIViewObjectEx@@@ATL@@QEAA@XZ 0000000180009b30 f i BillAcceptor.obj
 0001:00008b80       ??1?$CComQIPtr@UIOleControlSite@@$1?_GUID_b196b289_bab4_101a_b69c_00aa00341d07@@3U__s_GUID@@B@ATL@@QEAA@XZ 0000000180009b80 f i BillAcceptor.obj
 0001:00008bb0       ??1?$CComQIPtr@UIOleObject@@$1?_GUID_00000112_0000_0000_c000_000000000046@@3U__s_GUID@@B@ATL@@QEAA@XZ 0000000180009bb0 f i BillAcceptor.obj
 0001:00008be0       ??1?$CComQIPtr@UISpecifyPropertyPages@@$1?_GUID_b196b28b_bab4_101a_b69c_00aa00341d07@@3U__s_GUID@@B@ATL@@QEAA@XZ 0000000180009be0 f i BillAcceptor.obj
 0001:00008c10       ??1?$CSimpleMap@PEA_WPEA_WVCExpansionVectorEqualHelper@ATL@@@ATL@@QEAA@XZ 0000000180009c10 f i BillAcceptor.obj
 0001:00008c40       ??1?$CTempBuffer@E$0BAA@VCCRTAllocator@ATL@@@ATL@@QEAA@XZ 0000000180009c40 f i BillAcceptor.obj
 0001:00008c90       ??1?$CTempBuffer@_W$0BAA@VCCRTAllocator@ATL@@@ATL@@QEAA@XZ 0000000180009c90 f i BillAcceptor.obj
 0001:00008ce0       ??1?$CTempBuffer@_W$0EAA@VCCRTAllocator@ATL@@@ATL@@QEAA@XZ 0000000180009ce0 f i BillAcceptor.obj
 0001:00008d30       ??1CAtlModule@ATL@@UEAA@XZ 0000000180009d30 f i BillAcceptor.obj
 0001:00008d70       ??1CComAutoDeleteCriticalSection@ATL@@QEAA@XZ 0000000180009d70 f i BillAcceptor.obj
 0001:00008da0       ??1CComClassFactory@ATL@@UEAA@XZ 0000000180009da0 f i BillAcceptor.obj
 0001:00008df0       ??1CComModule@ATL@@UEAA@XZ 0000000180009df0 f i BillAcceptor.obj
 0001:00008e30       ??1CComObjectRootBase@ATL@@QEAA@XZ 0000000180009e30 f i BillAcceptor.obj
 0001:00008e40       ??1CComSafeDeleteCriticalSection@ATL@@QEAA@XZ 0000000180009e40 f i BillAcceptor.obj
 0001:00008e90       ??1CComVariant@ATL@@QEAA@XZ 0000000180009e90 f i BillAcceptor.obj
 0001:00008f10       ??1CExpansionVector@ATL@@QEAA@XZ 0000000180009f10 f i BillAcceptor.obj
 0001:00008f50       ??1CParseBuffer@CRegParser@ATL@@QEAA@XZ 0000000180009f50 f i BillAcceptor.obj
 0001:00008f90       ??1CRegKey@ATL@@QEAA@XZ    0000000180009f90 f i BillAcceptor.obj
 0001:00008fc0       ??1CRegObject@ATL@@UEAA@XZ 0000000180009fc0 f i BillAcceptor.obj
 0001:00009010       ??1ModuleLockHelper@ATL@@QEAA@XZ 000000018000a010 f i BillAcceptor.obj
 0001:00009050       ??1OposVariant@@QEAA@XZ    000000018000a050 f i BillAcceptor.obj
 0001:00009090       ??1_ATL_MODULE70@ATL@@QEAA@XZ 000000018000a090 f i BillAcceptor.obj
 0001:000090d0       ??4?$CComPtr@UIAdviseSink@@@ATL@@QEAAPEAUIAdviseSink@@PEAU2@@Z 000000018000a0d0 f i BillAcceptor.obj
 0001:00009140       ??4?$CComPtr@UIOleClientSite@@@ATL@@QEAAPEAUIOleClientSite@@PEAU2@@Z 000000018000a140 f i BillAcceptor.obj
 0001:000091b0       ??4?$CComPtr@UIUnknown@@@ATL@@QEAAPEAUIUnknown@@PEAU2@@Z 000000018000a1b0 f i BillAcceptor.obj
 0001:00009220       ??4?$CComQIPtr@UIOleObject@@$1?_GUID_00000112_0000_0000_c000_000000000046@@3U__s_GUID@@B@ATL@@QEAAPEAUIOleObject@@PEAUIUnknown@@@Z 000000018000a220 f i BillAcceptor.obj
 0001:00009280       ??4?$CComQIPtr@UISpecifyPropertyPages@@$1?_GUID_b196b28b_bab4_101a_b69c_00aa00341d07@@3U__s_GUID@@B@ATL@@QEAAPEAUISpecifyPropertyPages@@PEAUIUnknown@@@Z 000000018000a280 f i BillAcceptor.obj
 0001:000092e0       ??7?$CComPtrBase@UIOleClientSite@@@ATL@@QEBA_NXZ 000000018000a2e0 f i BillAcceptor.obj
 0001:00009330       ??7?$CComPtrBase@UIOleInPlaceSiteWindowless@@@ATL@@QEBA_NXZ 000000018000a330 f i BillAcceptor.obj
 0001:00009380       ??7CComBSTR@ATL@@QEBA_NXZ  000000018000a380 f i BillAcceptor.obj
 0001:000093d0       ??8?$CComPtrBase@UIAdviseSink@@@ATL@@QEBA_NPEAUIAdviseSink@@@Z 000000018000a3d0 f i BillAcceptor.obj
 0001:00009420       ??8?$CComPtrBase@UIConnectionPointContainer@@@ATL@@QEBA_NPEAUIConnectionPointContainer@@@Z 000000018000a420 f i BillAcceptor.obj
 0001:00009470       ??8?$CComPtrBase@UIDataAdviseHolder@@@ATL@@QEBA_NPEAUIDataAdviseHolder@@@Z 000000018000a470 f i BillAcceptor.obj
 0001:000094c0       ??8?$CComPtrBase@UIOleAdviseHolder@@@ATL@@QEBA_NPEAUIOleAdviseHolder@@@Z 000000018000a4c0 f i BillAcceptor.obj
 0001:00009510       ??8?$CComPtrBase@UIOleClientSite@@@ATL@@QEBA_NPEAUIOleClientSite@@@Z 000000018000a510 f i BillAcceptor.obj
 0001:00009560       ??8?$CComPtrBase@UIOleControlSite@@@ATL@@QEBA_NPEAUIOleControlSite@@@Z 000000018000a560 f i BillAcceptor.obj
 0001:000095b0       ??8?$CComPtrBase@UIOleInPlaceObject@@@ATL@@QEBA_NPEAUIOleInPlaceObject@@@Z 000000018000a5b0 f i BillAcceptor.obj
 0001:00009600       ??8?$CComPtrBase@UIOleInPlaceSiteWindowless@@@ATL@@QEBA_NPEAUIOleInPlaceSiteWindowless@@@Z 000000018000a600 f i BillAcceptor.obj
 0001:00009650       ??8?$CComPtrBase@UIOleObject@@@ATL@@QEBA_NPEAUIOleObject@@@Z 000000018000a650 f i BillAcceptor.obj
 0001:000096a0       ??8?$CComPtrBase@UIPersistStream@@@ATL@@QEBA_NPEAUIPersistStream@@@Z 000000018000a6a0 f i BillAcceptor.obj
 0001:000096f0       ??8?$CComPtrBase@UIPersistStreamInit@@@ATL@@QEBA_NPEAUIPersistStreamInit@@@Z 000000018000a6f0 f i BillAcceptor.obj
 0001:00009740       ??8?$CComPtrBase@UIPointerInactive@@@ATL@@QEBA_NPEAUIPointerInactive@@@Z 000000018000a740 f i BillAcceptor.obj
 0001:00009790       ??8?$CComPtrBase@UIUnknown@@@ATL@@QEBA_NPEAUIUnknown@@@Z 000000018000a790 f i BillAcceptor.obj
 0001:000097e0       ??8?$CComPtrBase@UIViewObjectEx@@@ATL@@QEBA_NPEAUIViewObjectEx@@@Z 000000018000a7e0 f i BillAcceptor.obj
 0001:00009830       ??8CComBSTR@ATL@@QEBA_NH@Z 000000018000a830 f i BillAcceptor.obj
 0001:000098b0       ??9?$CComPtrBase@UIAdviseSink@@@ATL@@QEBA_NPEAUIAdviseSink@@@Z 000000018000a8b0 f i BillAcceptor.obj
 0001:00009910       ??9?$CComPtrBase@UIConnectionPointContainer@@@ATL@@QEBA_NPEAUIConnectionPointContainer@@@Z 000000018000a910 f i BillAcceptor.obj
 0001:00009970       ??9?$CComPtrBase@UIDataAdviseHolder@@@ATL@@QEBA_NPEAUIDataAdviseHolder@@@Z 000000018000a970 f i BillAcceptor.obj
 0001:000099d0       ??9?$CComPtrBase@UIOleAdviseHolder@@@ATL@@QEBA_NPEAUIOleAdviseHolder@@@Z 000000018000a9d0 f i BillAcceptor.obj
 0001:00009a30       ??9?$CComPtrBase@UIOleClientSite@@@ATL@@QEBA_NPEAUIOleClientSite@@@Z 000000018000aa30 f i BillAcceptor.obj
 0001:00009a90       ??9?$CComPtrBase@UIOleControlSite@@@ATL@@QEBA_NPEAUIOleControlSite@@@Z 000000018000aa90 f i BillAcceptor.obj
 0001:00009af0       ??9?$CComPtrBase@UIOleInPlaceObject@@@ATL@@QEBA_NPEAUIOleInPlaceObject@@@Z 000000018000aaf0 f i BillAcceptor.obj
 0001:00009b50       ??9?$CComPtrBase@UIOleInPlaceSiteWindowless@@@ATL@@QEBA_NPEAUIOleInPlaceSiteWindowless@@@Z 000000018000ab50 f i BillAcceptor.obj
 0001:00009bb0       ??9?$CComPtrBase@UIOleObject@@@ATL@@QEBA_NPEAUIOleObject@@@Z 000000018000abb0 f i BillAcceptor.obj
 0001:00009c10       ??9?$CComPtrBase@UIPersistStream@@@ATL@@QEBA_NPEAUIPersistStream@@@Z 000000018000ac10 f i BillAcceptor.obj
 0001:00009c70       ??9?$CComPtrBase@UIPersistStreamInit@@@ATL@@QEBA_NPEAUIPersistStreamInit@@@Z 000000018000ac70 f i BillAcceptor.obj
 0001:00009cd0       ??9?$CComPtrBase@UIPointerInactive@@@ATL@@QEBA_NPEAUIPointerInactive@@@Z 000000018000acd0 f i BillAcceptor.obj
 0001:00009d30       ??9?$CComPtrBase@UIUnknown@@@ATL@@QEBA_NPEAUIUnknown@@@Z 000000018000ad30 f i BillAcceptor.obj
 0001:00009d90       ??9?$CComPtrBase@UIViewObjectEx@@@ATL@@QEBA_NPEAUIViewObjectEx@@@Z 000000018000ad90 f i BillAcceptor.obj
 0001:00009df0       ??9CComBSTR@ATL@@QEBA_NH@Z 000000018000adf0 f i BillAcceptor.obj
 0001:00009e50       ??B?$CComPtrBase@UIAdviseSink@@@ATL@@QEBAPEAUIAdviseSink@@XZ 000000018000ae50 f i BillAcceptor.obj
 0001:00009e60       ??B?$CComPtrBase@UIDataAdviseHolder@@@ATL@@QEBAPEAUIDataAdviseHolder@@XZ 000000018000ae60 f i BillAcceptor.obj
 0001:00009e70       ??B?$CComPtrBase@UIDataObject@@@ATL@@QEBAPEAUIDataObject@@XZ 000000018000ae70 f i BillAcceptor.obj
 0001:00009e80       ??B?$CComPtrBase@UIOleAdviseHolder@@@ATL@@QEBAPEAUIOleAdviseHolder@@XZ 000000018000ae80 f i BillAcceptor.obj
 0001:00009e90       ??B?$CComPtrBase@UIOleClientSite@@@ATL@@QEBAPEAUIOleClientSite@@XZ 000000018000ae90 f i BillAcceptor.obj
 0001:00009ea0       ??B?$CComPtrBase@UIOleControlSite@@@ATL@@QEBAPEAUIOleControlSite@@XZ 000000018000aea0 f i BillAcceptor.obj
 0001:00009eb0       ??B?$CComPtrBase@UIOleInPlaceActiveObject@@@ATL@@QEBAPEAUIOleInPlaceActiveObject@@XZ 000000018000aeb0 f i BillAcceptor.obj
 0001:00009ec0       ??B?$CComPtrBase@UIOleInPlaceFrame@@@ATL@@QEBAPEAUIOleInPlaceFrame@@XZ 000000018000aec0 f i BillAcceptor.obj
 0001:00009ed0       ??B?$CComPtrBase@UIOleInPlaceSiteWindowless@@@ATL@@QEBAPEAUIOleInPlaceSiteWindowless@@XZ 000000018000aed0 f i BillAcceptor.obj
 0001:00009ee0       ??B?$CComPtrBase@UIOleInPlaceUIWindow@@@ATL@@QEBAPEAUIOleInPlaceUIWindow@@XZ 000000018000aee0 f i BillAcceptor.obj
 0001:00009ef0       ??B?$CComPtrBase@UIOleObject@@@ATL@@QEBAPEAUIOleObject@@XZ 000000018000aef0 f i BillAcceptor.obj
 0001:00009f00       ??B?$CComPtrBase@UIPersistStream@@@ATL@@QEBAPEAUIPersistStream@@XZ 000000018000af00 f i BillAcceptor.obj
 0001:00009f10       ??B?$CComPtrBase@UIProvideClassInfo2@@@ATL@@QEBAPEAUIProvideClassInfo2@@XZ 000000018000af10 f i BillAcceptor.obj
 0001:00009f20       ??B?$CComPtrBase@UISpecifyPropertyPages@@@ATL@@QEBAPEAUISpecifyPropertyPages@@XZ 000000018000af20 f i BillAcceptor.obj
 0001:00009f30       ??B?$CComPtrBase@UIStream@@@ATL@@QEBAPEAUIStream@@XZ 000000018000af30 f i BillAcceptor.obj
 0001:00009f40       ??B?$CComPtrBase@UITypeInfo2@@@ATL@@QEBAPEAUITypeInfo2@@XZ 000000018000af40 f i BillAcceptor.obj
 0001:00009f50       ??B?$CComPtrBase@UITypeInfo@@@ATL@@QEBAPEAUITypeInfo@@XZ 000000018000af50 f i BillAcceptor.obj
 0001:00009f60       ??B?$CComPtrBase@UITypeLib@@@ATL@@QEBAPEAUITypeLib@@XZ 000000018000af60 f i BillAcceptor.obj
 0001:00009f70       ??B?$CComPtrBase@UIUnknown@@@ATL@@QEBAPEAUIUnknown@@XZ 000000018000af70 f i BillAcceptor.obj
 0001:00009f80       ??B?$CTempBuffer@E$0BAA@VCCRTAllocator@ATL@@@ATL@@QEBAPEAEXZ 000000018000af80 f i BillAcceptor.obj
 0001:00009f90       ??B?$CTempBuffer@_W$0BAA@VCCRTAllocator@ATL@@@ATL@@QEBAPEA_WXZ 000000018000af90 f i BillAcceptor.obj
 0001:00009fa0       ??B?$CTempBuffer@_W$0EAA@VCCRTAllocator@ATL@@@ATL@@QEBAPEA_WXZ 000000018000afa0 f i BillAcceptor.obj
 0001:00009fb0       ??B?$CTraceCategoryEx@$00$0A@@ATL@@QEAAIXZ 000000018000afb0 f i BillAcceptor.obj
 0001:00009fc0       ??B?$CTraceCategoryEx@$07$0A@@ATL@@QEAAIXZ 000000018000afc0 f i BillAcceptor.obj
 0001:00009fd0       ??B?$CTraceCategoryEx@$0CAAA@$0A@@ATL@@QEAAIXZ 000000018000afd0 f i BillAcceptor.obj
 0001:00009fe0       ??B?$CTraceCategoryEx@$0EA@$0A@@ATL@@QEAAIXZ 000000018000afe0 f i BillAcceptor.obj
 0001:00009ff0       ??B?$CTraceCategoryEx@$0IAA@$0A@@ATL@@QEAAIXZ 000000018000aff0 f i BillAcceptor.obj
 0001:0000a000       ??BCComBSTR@ATL@@QEBAPEA_WXZ 000000018000b000 f i BillAcceptor.obj
 0001:0000a010       ??BCRegKey@ATL@@QEBAPEAUHKEY__@@XZ 000000018000b010 f i BillAcceptor.obj
 0001:0000a020       ??C?$CComPtrBase@UIAdviseSink@@@ATL@@QEBAPEAV?$_NoAddRefReleaseOnCComPtr@UIAdviseSink@@@1@XZ 000000018000b020 f i BillAcceptor.obj
 0001:0000a0a0       ??C?$CComPtrBase@UICatRegister@@@ATL@@QEBAPEAV?$_NoAddRefReleaseOnCComPtr@UICatRegister@@@1@XZ 000000018000b0a0 f i BillAcceptor.obj
 0001:0000a120       ??C?$CComPtrBase@UIConnectionPoint@@@ATL@@QEBAPEAV?$_NoAddRefReleaseOnCComPtr@UIConnectionPoint@@@1@XZ 000000018000b120 f i BillAcceptor.obj
 0001:0000a1a0       ??C?$CComPtrBase@UIConnectionPointContainer@@@ATL@@QEBAPEAV?$_NoAddRefReleaseOnCComPtr@UIConnectionPointContainer@@@1@XZ 000000018000b1a0 f i BillAcceptor.obj
 0001:0000a220       ??C?$CComPtrBase@UIDataAdviseHolder@@@ATL@@QEBAPEAV?$_NoAddRefReleaseOnCComPtr@UIDataAdviseHolder@@@1@XZ 000000018000b220 f i BillAcceptor.obj
 0001:0000a2a0       ??C?$CComPtrBase@UIOleAdviseHolder@@@ATL@@QEBAPEAV?$_NoAddRefReleaseOnCComPtr@UIOleAdviseHolder@@@1@XZ 000000018000b2a0 f i BillAcceptor.obj
 0001:0000a320       ??C?$CComPtrBase@UIOleClientSite@@@ATL@@QEBAPEAV?$_NoAddRefReleaseOnCComPtr@UIOleClientSite@@@1@XZ 000000018000b320 f i BillAcceptor.obj
 0001:0000a3a0       ??C?$CComPtrBase@UIOleControlSite@@@ATL@@QEBAPEAV?$_NoAddRefReleaseOnCComPtr@UIOleControlSite@@@1@XZ 000000018000b3a0 f i BillAcceptor.obj
 0001:0000a420       ??C?$CComPtrBase@UIOleInPlaceFrame@@@ATL@@QEBAPEAV?$_NoAddRefReleaseOnCComPtr@UIOleInPlaceFrame@@@1@XZ 000000018000b420 f i BillAcceptor.obj
 0001:0000a4a0       ??C?$CComPtrBase@UIOleInPlaceObject@@@ATL@@QEBAPEAV?$_NoAddRefReleaseOnCComPtr@UIOleInPlaceObject@@@1@XZ 000000018000b4a0 f i BillAcceptor.obj
 0001:0000a520       ??C?$CComPtrBase@UIOleInPlaceSiteWindowless@@@ATL@@QEBAPEAV?$_NoAddRefReleaseOnCComPtr@UIOleInPlaceSiteWindowless@@@1@XZ 000000018000b520 f i BillAcceptor.obj
 0001:0000a5a0       ??C?$CComPtrBase@UIOleInPlaceUIWindow@@@ATL@@QEBAPEAV?$_NoAddRefReleaseOnCComPtr@UIOleInPlaceUIWindow@@@1@XZ 000000018000b5a0 f i BillAcceptor.obj
 0001:0000a620       ??C?$CComPtrBase@UIOleObject@@@ATL@@QEBAPEAV?$_NoAddRefReleaseOnCComPtr@UIOleObject@@@1@XZ 000000018000b620 f i BillAcceptor.obj
 0001:0000a6a0       ??C?$CComPtrBase@UIPersistStream@@@ATL@@QEBAPEAV?$_NoAddRefReleaseOnCComPtr@UIPersistStream@@@1@XZ 000000018000b6a0 f i BillAcceptor.obj
 0001:0000a720       ??C?$CComPtrBase@UIPersistStreamInit@@@ATL@@QEBAPEAV?$_NoAddRefReleaseOnCComPtr@UIPersistStreamInit@@@1@XZ 000000018000b720 f i BillAcceptor.obj
 0001:0000a7a0       ??C?$CComPtrBase@UIPointerInactive@@@ATL@@QEBAPEAV?$_NoAddRefReleaseOnCComPtr@UIPointerInactive@@@1@XZ 000000018000b7a0 f i BillAcceptor.obj
 0001:0000a820       ??C?$CComPtrBase@UIProvideClassInfo2@@@ATL@@QEBAPEAV?$_NoAddRefReleaseOnCComPtr@UIProvideClassInfo2@@@1@XZ 000000018000b820 f i BillAcceptor.obj
 0001:0000a8a0       ??C?$CComPtrBase@UISpecifyPropertyPages@@@ATL@@QEBAPEAV?$_NoAddRefReleaseOnCComPtr@UISpecifyPropertyPages@@@1@XZ 000000018000b8a0 f i BillAcceptor.obj
 0001:0000a920       ??C?$CComPtrBase@UITypeInfo@@@ATL@@QEBAPEAV?$_NoAddRefReleaseOnCComPtr@UITypeInfo@@@1@XZ 000000018000b920 f i BillAcceptor.obj
 0001:0000a9a0       ??C?$CComPtrBase@UITypeLib@@@ATL@@QEBAPEAV?$_NoAddRefReleaseOnCComPtr@UITypeLib@@@1@XZ 000000018000b9a0 f i BillAcceptor.obj
 0001:0000aa20       ??C?$CComPtrBase@UIUnknown@@@ATL@@QEBAPEAV?$_NoAddRefReleaseOnCComPtr@UIUnknown@@@1@XZ 000000018000ba20 f i BillAcceptor.obj
 0001:0000aaa0       ??C?$CComPtrBase@UIViewObjectEx@@@ATL@@QEBAPEAV?$_NoAddRefReleaseOnCComPtr@UIViewObjectEx@@@1@XZ 000000018000baa0 f i BillAcceptor.obj
 0001:0000ab20       ??I?$CComPtrBase@UICatRegister@@@ATL@@QEAAPEAPEAUICatRegister@@XZ 000000018000bb20 f i BillAcceptor.obj
 0001:0000ab90       ??I?$CComPtrBase@UIConnectionPoint@@@ATL@@QEAAPEAPEAUIConnectionPoint@@XZ 000000018000bb90 f i BillAcceptor.obj
 0001:0000ac00       ??I?$CComPtrBase@UIConnectionPointContainer@@@ATL@@QEAAPEAPEAUIConnectionPointContainer@@XZ 000000018000bc00 f i BillAcceptor.obj
 0001:0000ac70       ??I?$CComPtrBase@UIDataAdviseHolder@@@ATL@@QEAAPEAPEAUIDataAdviseHolder@@XZ 000000018000bc70 f i BillAcceptor.obj
 0001:0000ace0       ??I?$CComPtrBase@UIDataObject@@@ATL@@QEAAPEAPEAUIDataObject@@XZ 000000018000bce0 f i BillAcceptor.obj
 0001:0000ad50       ??I?$CComPtrBase@UIDispatch@@@ATL@@QEAAPEAPEAUIDispatch@@XZ 000000018000bd50 f i BillAcceptor.obj
 0001:0000adc0       ??I?$CComPtrBase@UIOleAdviseHolder@@@ATL@@QEAAPEAPEAUIOleAdviseHolder@@XZ 000000018000bdc0 f i BillAcceptor.obj
 0001:0000ae30       ??I?$CComPtrBase@UIOleControlSite@@@ATL@@QEAAPEAPEAUIOleControlSite@@XZ 000000018000be30 f i BillAcceptor.obj
 0001:0000aea0       ??I?$CComPtrBase@UIOleInPlaceActiveObject@@@ATL@@QEAAPEAPEAUIOleInPlaceActiveObject@@XZ 000000018000bea0 f i BillAcceptor.obj
 0001:0000af10       ??I?$CComPtrBase@UIOleInPlaceFrame@@@ATL@@QEAAPEAPEAUIOleInPlaceFrame@@XZ 000000018000bf10 f i BillAcceptor.obj
 0001:0000af80       ??I?$CComPtrBase@UIOleInPlaceObject@@@ATL@@QEAAPEAPEAUIOleInPlaceObject@@XZ 000000018000bf80 f i BillAcceptor.obj
 0001:0000aff0       ??I?$CComPtrBase@UIOleInPlaceSiteWindowless@@@ATL@@QEAAPEAPEAUIOleInPlaceSiteWindowless@@XZ 000000018000bff0 f i BillAcceptor.obj
 0001:0000b060       ??I?$CComPtrBase@UIOleInPlaceUIWindow@@@ATL@@QEAAPEAPEAUIOleInPlaceUIWindow@@XZ 000000018000c060 f i BillAcceptor.obj
 0001:0000b0d0       ??I?$CComPtrBase@UIOleObject@@@ATL@@QEAAPEAPEAUIOleObject@@XZ 000000018000c0d0 f i BillAcceptor.obj
 0001:0000b140       ??I?$CComPtrBase@UIPersistStream@@@ATL@@QEAAPEAPEAUIPersistStream@@XZ 000000018000c140 f i BillAcceptor.obj
 0001:0000b1b0       ??I?$CComPtrBase@UIPointerInactive@@@ATL@@QEAAPEAPEAUIPointerInactive@@XZ 000000018000c1b0 f i BillAcceptor.obj
 0001:0000b220       ??I?$CComPtrBase@UIProvideClassInfo2@@@ATL@@QEAAPEAPEAUIProvideClassInfo2@@XZ 000000018000c220 f i BillAcceptor.obj
 0001:0000b290       ??I?$CComPtrBase@UIStream@@@ATL@@QEAAPEAPEAUIStream@@XZ 000000018000c290 f i BillAcceptor.obj
 0001:0000b300       ??I?$CComPtrBase@UITypeInfo2@@@ATL@@QEAAPEAPEAUITypeInfo2@@XZ 000000018000c300 f i BillAcceptor.obj
 0001:0000b370       ??I?$CComPtrBase@UITypeInfo@@@ATL@@QEAAPEAPEAUITypeInfo@@XZ 000000018000c370 f i BillAcceptor.obj
 0001:0000b3e0       ??I?$CComPtrBase@UITypeLib@@@ATL@@QEAAPEAPEAUITypeLib@@XZ 000000018000c3e0 f i BillAcceptor.obj
 0001:0000b450       ??I?$CComPtrBase@UIUnknown@@@ATL@@QEAAPEAPEAUIUnknown@@XZ 000000018000c450 f i BillAcceptor.obj
 0001:0000b4c0       ??I?$CComPtrBase@UIViewObjectEx@@@ATL@@QEAAPEAPEAUIViewObjectEx@@XZ 000000018000c4c0 f i BillAcceptor.obj
 0001:0000b530       ??ICComBSTR@ATL@@QEAAPEAPEA_WXZ 000000018000c530 f i BillAcceptor.obj
 0001:0000b540       ??_E?$CComContainedObject@VCOPOSBillAcceptor@@@ATL@@W7EAAPEAXI@Z 000000018000c540 f i BillAcceptor.obj
 0001:0000b54c       ??_E?$CComContainedObject@VCOPOSBillAcceptor@@@ATL@@WHA@EAAPEAXI@Z 000000018000c54c f i BillAcceptor.obj
 0001:0000b558       ??_E?$CComObject@VCOPOSBillAcceptor@@@ATL@@W7EAAPEAXI@Z 000000018000c558 f i BillAcceptor.obj
 0001:0000b564       ??_E?$CComObject@VCOPOSBillAcceptor@@@ATL@@WHA@EAAPEAXI@Z 000000018000c564 f i BillAcceptor.obj
 0001:0000b570       ??_G?$CComAggObject@VCOPOSBillAcceptor@@@ATL@@UEAAPEAXI@Z 000000018000c570 f i BillAcceptor.obj
 0001:0000b570       ??_E?$CComAggObject@VCOPOSBillAcceptor@@@ATL@@UEAAPEAXI@Z 000000018000c570 f i BillAcceptor.obj
 0001:0000b5d0       ??_E?$CComContainedObject@VCOPOSBillAcceptor@@@ATL@@UEAAPEAXI@Z 000000018000c5d0 f i BillAcceptor.obj
 0001:0000b5d0       ??_G?$CComContainedObject@VCOPOSBillAcceptor@@@ATL@@UEAAPEAXI@Z 000000018000c5d0 f i BillAcceptor.obj
 0001:0000b630       ??_G?$CComObject@V?$CComEnum@UIEnumConnectionPoints@@$1?_GUID_b196b285_bab4_101a_b69c_00aa00341d07@@3U__s_GUID@@BPEAUIConnectionPoint@@V?$_CopyInterface@UIConnectionPoint@@@ATL@@VCComSingleThreadModel@6@@ATL@@@ATL@@UEAAPEAXI@Z 000000018000c630 f i BillAcceptor.obj
 0001:0000b630       ??_E?$CComObject@V?$CComEnum@UIEnumConnectionPoints@@$1?_GUID_b196b285_bab4_101a_b69c_00aa00341d07@@3U__s_GUID@@BPEAUIConnectionPoint@@V?$_CopyInterface@UIConnectionPoint@@@ATL@@VCComSingleThreadModel@6@@ATL@@@ATL@@UEAAPEAXI@Z 000000018000c630 f i BillAcceptor.obj
 0001:0000b690       ??_G?$CComObject@V?$CComEnum@UIEnumConnections@@$1?_GUID_b196b287_bab4_101a_b69c_00aa00341d07@@3U__s_GUID@@BUtagCONNECTDATA@@V?$_Copy@UtagCONNECTDATA@@@ATL@@VCComSingleThreadModel@6@@ATL@@@ATL@@UEAAPEAXI@Z 000000018000c690 f i BillAcceptor.obj
 0001:0000b690       ??_E?$CComObject@V?$CComEnum@UIEnumConnections@@$1?_GUID_b196b287_bab4_101a_b69c_00aa00341d07@@3U__s_GUID@@BUtagCONNECTDATA@@V?$_Copy@UtagCONNECTDATA@@@ATL@@VCComSingleThreadModel@6@@ATL@@@ATL@@UEAAPEAXI@Z 000000018000c690 f i BillAcceptor.obj
 0001:0000b6f0       ??_G?$CComObject@VCOPOSBillAcceptor@@@ATL@@UEAAPEAXI@Z 000000018000c6f0 f i BillAcceptor.obj
 0001:0000b6f0       ??_E?$CComObject@VCOPOSBillAcceptor@@@ATL@@UEAAPEAXI@Z 000000018000c6f0 f i BillAcceptor.obj
 0001:0000b750       ??_E?$CComObjectCached@VCComClassFactory@ATL@@@ATL@@UEAAPEAXI@Z 000000018000c750 f i BillAcceptor.obj
 0001:0000b750       ??_G?$CComObjectCached@VCComClassFactory@ATL@@@ATL@@UEAAPEAXI@Z 000000018000c750 f i BillAcceptor.obj
 0001:0000b7b0       ??_ECComClassFactory@ATL@@UEAAPEAXI@Z 000000018000c7b0 f i BillAcceptor.obj
 0001:0000b7b0       ??_GCComClassFactory@ATL@@UEAAPEAXI@Z 000000018000c7b0 f i BillAcceptor.obj
 0001:0000b810       ??_GCComModule@ATL@@UEAAPEAXI@Z 000000018000c810 f i BillAcceptor.obj
 0001:0000b810       ??_ECComModule@ATL@@UEAAPEAXI@Z 000000018000c810 f i BillAcceptor.obj
 0001:0000b870       ??_GCRegObject@ATL@@UEAAPEAXI@Z 000000018000c870 f i BillAcceptor.obj
 0001:0000b870       ??_ECRegObject@ATL@@UEAAPEAXI@Z 000000018000c870 f i BillAcceptor.obj
 0001:0000b8d0       ?Add@?$CSimpleArray@GV?$CSimpleArrayEqualHelper@G@ATL@@@ATL@@QEAAHAEBG@Z 000000018000c8d0 f i BillAcceptor.obj
 0001:0000ba70       ?Add@?$CSimpleMap@PEA_WPEA_WVCExpansionVectorEqualHelper@ATL@@@ATL@@QEAAHAEBQEA_W0@Z 000000018000ca70 f i BillAcceptor.obj
 0001:0000bb60       ?Add@CComDynamicUnkArray@ATL@@QEAAKPEAUIUnknown@@@Z 000000018000cb60 f i BillAcceptor.obj
 0001:0000bd40       ?Add@CExpansionVector@ATL@@QEAAHPEB_W0@Z 000000018000cd40 f i BillAcceptor.obj
 0001:0000c070       ?AddChar@CParseBuffer@CRegParser@ATL@@QEAAHPEB_W@Z 000000018000d070 f i BillAcceptor.obj
 0001:0000c0c0       ?AddCommonRGSReplacements@?$CAtlModuleT@VCComModule@ATL@@@ATL@@UEAAJPEAUIRegistrarBase@@@Z 000000018000d0c0 f i BillAcceptor.obj
 0001:0000c120       ?AddCreateWndData@CAtlWinModule@ATL@@QEAAXPEAU_AtlCreateWndData@2@PEAX@Z 000000018000d120 f i BillAcceptor.obj
 0001:0000c170       ?AddRef@?$CComAggObject@VCOPOSBillAcceptor@@@ATL@@UEAAKXZ 000000018000d170 f i BillAcceptor.obj
 0001:0000c1b0       ?AddRef@?$CComContainedObject@VCOPOSBillAcceptor@@@ATL@@UEAAKXZ 000000018000d1b0 f i BillAcceptor.obj
 0001:0000c1e8       ?AddRef@?$CComContainedObject@VCOPOSBillAcceptor@@@ATL@@WBAA@EAAKXZ 000000018000d1e8 f i BillAcceptor.obj
 0001:0000c1f4       ?AddRef@?$CComContainedObject@VCOPOSBillAcceptor@@@ATL@@WBAI@EAAKXZ 000000018000d1f4 f i BillAcceptor.obj
 0001:0000c200       ?AddRef@?$CComContainedObject@VCOPOSBillAcceptor@@@ATL@@WBBA@EAAKXZ 000000018000d200 f i BillAcceptor.obj
 0001:0000c20c       ?AddRef@?$CComContainedObject@VCOPOSBillAcceptor@@@ATL@@WBBI@EAAKXZ 000000018000d20c f i BillAcceptor.obj
 0001:0000c218       ?AddRef@?$CComContainedObject@VCOPOSBillAcceptor@@@ATL@@WBCI@EAAKXZ 000000018000d218 f i BillAcceptor.obj
 0001:0000c224       ?AddRef@?$CComContainedObject@VCOPOSBillAcceptor@@@ATL@@WBEA@EAAKXZ 000000018000d224 f i BillAcceptor.obj
 0001:0000c230       ?AddRef@?$CComContainedObject@VCOPOSBillAcceptor@@@ATL@@WLI@EAAKXZ 000000018000d230 f i BillAcceptor.obj
 0001:0000c23c       ?AddRef@?$CComContainedObject@VCOPOSBillAcceptor@@@ATL@@WMA@EAAKXZ 000000018000d23c f i BillAcceptor.obj
 0001:0000c248       ?AddRef@?$CComContainedObject@VCOPOSBillAcceptor@@@ATL@@WMI@EAAKXZ 000000018000d248 f i BillAcceptor.obj
 0001:0000c254       ?AddRef@?$CComContainedObject@VCOPOSBillAcceptor@@@ATL@@WNA@EAAKXZ 000000018000d254 f i BillAcceptor.obj
 0001:0000c260       ?AddRef@?$CComContainedObject@VCOPOSBillAcceptor@@@ATL@@WNI@EAAKXZ 000000018000d260 f i BillAcceptor.obj
 0001:0000c26c       ?AddRef@?$CComContainedObject@VCOPOSBillAcceptor@@@ATL@@WOA@EAAKXZ 000000018000d26c f i BillAcceptor.obj
 0001:0000c278       ?AddRef@?$CComContainedObject@VCOPOSBillAcceptor@@@ATL@@WOI@EAAKXZ 000000018000d278 f i BillAcceptor.obj
 0001:0000c284       ?AddRef@?$CComContainedObject@VCOPOSBillAcceptor@@@ATL@@WPA@EAAKXZ 000000018000d284 f i BillAcceptor.obj
 0001:0000c290       ?AddRef@?$CComContainedObject@VCOPOSBillAcceptor@@@ATL@@WPI@EAAKXZ 000000018000d290 f i BillAcceptor.obj
 0001:0000c2a0       ?AddRef@?$CComObject@V?$CComEnum@UIEnumConnectionPoints@@$1?_GUID_b196b285_bab4_101a_b69c_00aa00341d07@@3U__s_GUID@@BPEAUIConnectionPoint@@V?$_CopyInterface@UIConnectionPoint@@@ATL@@VCComSingleThreadModel@6@@ATL@@@ATL@@UEAAKXZ 000000018000d2a0 f i BillAcceptor.obj
 0001:0000c2e0       ?AddRef@?$CComObject@V?$CComEnum@UIEnumConnections@@$1?_GUID_b196b287_bab4_101a_b69c_00aa00341d07@@3U__s_GUID@@BUtagCONNECTDATA@@V?$_Copy@UtagCONNECTDATA@@@ATL@@VCComSingleThreadModel@6@@ATL@@@ATL@@UEAAKXZ 000000018000d2e0 f i BillAcceptor.obj
 0001:0000c320       ?AddRef@?$CComObject@VCOPOSBillAcceptor@@@ATL@@UEAAKXZ 000000018000d320 f i BillAcceptor.obj
 0001:0000c358       ?AddRef@?$CComObject@VCOPOSBillAcceptor@@@ATL@@WBAA@EAAKXZ 000000018000d358 f i BillAcceptor.obj
 0001:0000c364       ?AddRef@?$CComObject@VCOPOSBillAcceptor@@@ATL@@WBAI@EAAKXZ 000000018000d364 f i BillAcceptor.obj
 0001:0000c370       ?AddRef@?$CComObject@VCOPOSBillAcceptor@@@ATL@@WBBA@EAAKXZ 000000018000d370 f i BillAcceptor.obj
 0001:0000c37c       ?AddRef@?$CComObject@VCOPOSBillAcceptor@@@ATL@@WBBI@EAAKXZ 000000018000d37c f i BillAcceptor.obj
 0001:0000c388       ?AddRef@?$CComObject@VCOPOSBillAcceptor@@@ATL@@WBCI@EAAKXZ 000000018000d388 f i BillAcceptor.obj
 0001:0000c394       ?AddRef@?$CComObject@VCOPOSBillAcceptor@@@ATL@@WBEA@EAAKXZ 000000018000d394 f i BillAcceptor.obj
 0001:0000c3a0       ?AddRef@?$CComObject@VCOPOSBillAcceptor@@@ATL@@WLI@EAAKXZ 000000018000d3a0 f i BillAcceptor.obj
 0001:0000c3ac       ?AddRef@?$CComObject@VCOPOSBillAcceptor@@@ATL@@WMA@EAAKXZ 000000018000d3ac f i BillAcceptor.obj
 0001:0000c3b8       ?AddRef@?$CComObject@VCOPOSBillAcceptor@@@ATL@@WMI@EAAKXZ 000000018000d3b8 f i BillAcceptor.obj
 0001:0000c3c4       ?AddRef@?$CComObject@VCOPOSBillAcceptor@@@ATL@@WNA@EAAKXZ 000000018000d3c4 f i BillAcceptor.obj
 0001:0000c3d0       ?AddRef@?$CComObject@VCOPOSBillAcceptor@@@ATL@@WNI@EAAKXZ 000000018000d3d0 f i BillAcceptor.obj
 0001:0000c3dc       ?AddRef@?$CComObject@VCOPOSBillAcceptor@@@ATL@@WOA@EAAKXZ 000000018000d3dc f i BillAcceptor.obj
 0001:0000c3e8       ?AddRef@?$CComObject@VCOPOSBillAcceptor@@@ATL@@WOI@EAAKXZ 000000018000d3e8 f i BillAcceptor.obj
 0001:0000c3f4       ?AddRef@?$CComObject@VCOPOSBillAcceptor@@@ATL@@WPA@EAAKXZ 000000018000d3f4 f i BillAcceptor.obj
 0001:0000c400       ?AddRef@?$CComObject@VCOPOSBillAcceptor@@@ATL@@WPI@EAAKXZ 000000018000d400 f i BillAcceptor.obj
 0001:0000c410       ?AddRef@?$CComObjectCached@VCComClassFactory@ATL@@@ATL@@UEAAKXZ 000000018000d410 f i BillAcceptor.obj
 0001:0000c470       ?AddRef@CRegObject@ATL@@UEAAKXZ 000000018000d470 f i BillAcceptor.obj
 0001:0000c4e0       ?AddReplacement@CRegObject@ATL@@UEAAJPEB_W0@Z 000000018000d4e0 f i BillAcceptor.obj
 0001:0000c610       ?AddString@CParseBuffer@CRegParser@ATL@@QEAAHPEB_W@Z 000000018000d610 f i BillAcceptor.obj
 0001:0000c700       ?AddTermFunc@CAtlModule@ATL@@QEAAJP6AX_K@Z0@Z 000000018000d700 f i BillAcceptor.obj
 0001:0000c770       ?AddValue@CRegParser@ATL@@IEAAJAEAVCRegKey@2@PEB_WPEA_W@Z 000000018000d770 f i BillAcceptor.obj
 0001:0000d040       ?Advise@?$CProxy_IOPOSEvents@VCOPOSBillAcceptor@@@@UEAAJPEAUIUnknown@@PEAK@Z 000000018000e040 f i BillAcceptor.obj
 0001:0000d0b0       ?Advise@?$IConnectionPointImpl@VCOPOSBillAcceptor@@$1?DIID__IOPOSBillAcceptorEvents@@3U_GUID@@BVCComDynamicUnkArray@ATL@@@ATL@@UEAAJPEAUIUnknown@@PEAK@Z 000000018000e0b0 f i BillAcceptor.obj
 0001:0000d2b0       ?Advise@?$IConnectionPointImpl@VCOPOSBillAcceptor@@$1?IID_IPropertyNotifySink@@3U_GUID@@BVCComDynamicUnkArray@ATL@@@ATL@@UEAAJPEAUIUnknown@@PEAK@Z 000000018000e2b0 f i BillAcceptor.obj
 0001:0000d4b0       ?Advise@?$IOleObjectImpl@VCOPOSBillAcceptor@@@ATL@@UEAAJPEAUIAdviseSink@@PEAK@Z 000000018000e4b0 f i BillAcceptor.obj
 0001:0000d570       ?Allocate@?$CAtlSafeAllocBufferManager@VCCRTAllocator@ATL@@@_ATL_SAFE_ALLOCA_IMPL@ATL@@QEAAPEAX_K@Z 000000018000e570 f i BillAcceptor.obj
 0001:0000d5f0       ?Allocate@?$CTempBuffer@E$0BAA@VCCRTAllocator@ATL@@@ATL@@QEAAPEAE_K@Z 000000018000e5f0 f i BillAcceptor.obj
 0001:0000d640       ?Allocate@?$CTempBuffer@_W$0BAA@VCCRTAllocator@ATL@@@ATL@@QEAAPEA_W_K@Z 000000018000e640 f i BillAcceptor.obj
 0001:0000d690       ?Allocate@?$CTempBuffer@_W$0EAA@VCCRTAllocator@ATL@@@ATL@@QEAAPEA_W_K@Z 000000018000e690 f i BillAcceptor.obj
 0001:0000d6e0       ?AllocateBytes@?$CTempBuffer@E$0BAA@VCCRTAllocator@ATL@@@ATL@@QEAAPEAE_K@Z 000000018000e6e0 f i BillAcceptor.obj
 0001:0000d790       ?AllocateBytes@?$CTempBuffer@_W$0BAA@VCCRTAllocator@ATL@@@ATL@@QEAAPEA_W_K@Z 000000018000e790 f i BillAcceptor.obj
 0001:0000d840       ?AllocateBytes@?$CTempBuffer@_W$0EAA@VCCRTAllocator@ATL@@@ATL@@QEAAPEA_W_K@Z 000000018000e840 f i BillAcceptor.obj
 0001:0000d8f0       ?AllocateHeap@?$CTempBuffer@E$0BAA@VCCRTAllocator@ATL@@@ATL@@AEAAX_K@Z 000000018000e8f0 f i BillAcceptor.obj
 0001:0000d950       ?AllocateHeap@?$CTempBuffer@_W$0BAA@VCCRTAllocator@ATL@@@ATL@@AEAAX_K@Z 000000018000e950 f i BillAcceptor.obj
 0001:0000d9b0       ?AllocateHeap@?$CTempBuffer@_W$0EAA@VCCRTAllocator@ATL@@@ATL@@AEAAX_K@Z 000000018000e9b0 f i BillAcceptor.obj
 0001:0000da10       ?Append@CParseBuffer@CRegParser@ATL@@QEAAHPEB_WH@Z 000000018000ea10 f i BillAcceptor.obj
 0001:0000dc40       ?AtlCallTermFunc@ATL@@YAXPEAU_ATL_MODULE70@1@@Z 000000018000ec40 f i BillAcceptor.obj
 0001:0000dcf0       ?AtlCoTaskMemCAlloc@ATL@@YAPEAXKK@Z 000000018000ecf0 f i BillAcceptor.obj
 0001:0000dd70       ?AtlCoTaskMemRecalloc@ATL@@YAPEAXPEAXKK@Z 000000018000ed70 f i BillAcceptor.obj
 0001:0000ddf0       ?AtlComModuleGetClassObject@ATL@@YAJPEAU_ATL_COM_MODULE70@1@AEBU_GUID@@1PEAPEAX@Z 000000018000edf0 f i BillAcceptor.obj
 0001:0000e120       ?AtlComModuleRegisterServer@ATL@@YAJPEAU_ATL_COM_MODULE70@1@HPEBU_GUID@@@Z 000000018000f120 f i BillAcceptor.obj
 0001:0000e320       ?AtlComModuleUnregisterServer@ATL@@YAJPEAU_ATL_COM_MODULE70@1@HPEBU_GUID@@@Z 000000018000f320 f i BillAcceptor.obj
 0001:0000e480       ?AtlComQIPtrAssign2@ATL@@YAXPEAPEAUIUnknown@@PEAU2@AEBU_GUID@@@Z 000000018000f480 f i BillAcceptor.obj
 0001:0000e510       ?AtlCreateTargetDC@ATL@@YAPEAUHDC__@@PEAU2@PEAUtagDVTARGETDEVICE@@@Z 000000018000f510 f i BillAcceptor.obj
 0001:0000e740       ?AtlCrtErrorCheck@ATL@@YAHH@Z 000000018000f740 f i BillAcceptor.obj
 0001:0000e7c0       ?AtlGetPerUserRegistration@ATL@@YAJPEA_N@Z 000000018000f7c0 f i BillAcceptor.obj
 0001:0000e7f0       ?AtlHiMetricToPixel@ATL@@YAXPEBUtagSIZE@@PEAU2@@Z 000000018000f7f0 f i BillAcceptor.obj
 0001:0000e9f0       ?AtlHresultFromLastError@ATL@@YAJXZ 000000018000f9f0 f i BillAcceptor.obj
 0001:0000ea20       ?AtlHresultFromWin32@ATL@@YAJK@Z 000000018000fa20 f i BillAcceptor.obj
 0001:0000ea50       ?AtlIPersistStreamInit_Load@ATL@@YAJPEAUIStream@@PEBUATL_PROPMAP_ENTRY@1@PEAXPEAUIUnknown@@@Z 000000018000fa50 f i BillAcceptor.obj
 0001:0000f0c0       ?AtlIPersistStreamInit_Save@ATL@@YAJPEAUIStream@@HPEBUATL_PROPMAP_ENTRY@1@PEAXPEAUIUnknown@@@Z 00000001800100c0 f i BillAcceptor.obj
 0001:0000f650       ?AtlInternalOleLoadFromStream@ATL@@YAJPEAUIStream@@AEBU_GUID@@PEAPEAXTClassesAllowedInStream@1@K@Z 0000000180010650 f i BillAcceptor.obj
 0001:0000f990       ?AtlInternalQueryInterface@ATL@@YAJPEAXPEBU_ATL_INTMAP_ENTRY@1@AEBU_GUID@@PEAPEAX@Z 0000000180010990 f i BillAcceptor.obj
 0001:0000fc50       ?AtlLoadTypeLib@ATL@@YAJPEAUHINSTANCE__@@PEB_WPEAPEA_WPEAPEAUITypeLib@@@Z 0000000180010c50 f i BillAcceptor.obj
 0001:00010120       ?AtlModuleAddTermFunc@ATL@@YAJPEAU_ATL_MODULE70@1@P6AX_K@Z1@Z 0000000180011120 f i BillAcceptor.obj
 0001:000102f0       ?AtlRegisterClassCategoriesHelper@ATL@@YAJAEBU_GUID@@PEBU_ATL_CATMAP_ENTRY@1@H@Z 00000001800112f0 f i BillAcceptor.obj
 0001:00010ac0       ?AtlRegisterTypeLib@ATL@@YAJPEAUHINSTANCE__@@PEB_W@Z 0000000180011ac0 f i BillAcceptor.obj
 0001:00010e20       ?AtlThrowImpl@ATL@@YAXJ@Z  0000000180011e20 f i BillAcceptor.obj
 0001:00010f00       ?AtlUnRegisterTypeLib@ATL@@YAJPEAUHINSTANCE__@@PEB_W@Z 0000000180011f00 f i BillAcceptor.obj
 0001:00011130       ?AtlWinModuleAddCreateWndData@ATL@@YAXPEAU_ATL_WIN_MODULE70@1@PEAU_AtlCreateWndData@1@PEAX@Z 0000000180012130 f i BillAcceptor.obj
 0001:00011320       ?AtlWinModuleExtractCreateWndData@ATL@@YAPEAXPEAU_ATL_WIN_MODULE70@1@@Z 0000000180012320 f i BillAcceptor.obj
 0001:00011520       ?AtlWinModuleRegisterClassExW@ATL@@YAGPEAU_ATL_WIN_MODULE70@1@PEBUtagWNDCLASSEXW@@@Z 0000000180012520 f i BillAcceptor.obj
 0001:000115f0       ?AtlWinModuleRegisterWndClassInfoW@ATL@@YAGPEAU_ATL_WIN_MODULE70@1@PEAU_ATL_BASE_MODULE70@1@PEAU_ATL_WNDCLASSINFOW@1@PEAP6A_JPEAUHWND__@@I_K_J@Z@Z 00000001800125f0 f i BillAcceptor.obj
 0001:00011660       ?Attach@?$CAutoVectorPtr@_W@ATL@@QEAAXPEA_W@Z 0000000180012660 f i BillAcceptor.obj
 0001:000116f0       ?Attach@CComBSTR@ATL@@QEAAXPEA_W@Z 00000001800126f0 f i BillAcceptor.obj
 0001:00011750       ?Attach@CRegKey@ATL@@QEAAXPEAUHKEY__@@@Z 0000000180012750 f i BillAcceptor.obj
 0001:000117f0       ?CanForceRemoveKey@CRegParser@ATL@@IEAAHPEB_W@Z 00000001800127f0 f i BillAcceptor.obj
 0001:00011860       ?ChToByte@CRegParser@ATL@@KAE_W@Z 0000000180012860 f i BillAcceptor.obj
 0001:000119c0       ?ChangeType@CComVariant@ATL@@QEAAJGPEBUtagVARIANT@@@Z 00000001800129c0 f i BillAcceptor.obj
 0001:00011a30       ?Cleanup@CComTypeInfoHolder@ATL@@SAX_K@Z 0000000180012a30 f i BillAcceptor.obj
 0001:00011b20       ?Clear@CComVariant@ATL@@QEAAJXZ 0000000180012b20 f i BillAcceptor.obj
 0001:00011b50       ?ClearReplacements@CExpansionVector@ATL@@QEAAJXZ 0000000180012b50 f i BillAcceptor.obj
 0001:00011bf0       ?ClearReplacements@CRegObject@ATL@@UEAAJXZ 0000000180012bf0 f i BillAcceptor.obj
 0001:00011c50       ?Clone@?$CComEnumImpl@UIEnumConnectionPoints@@$1?_GUID_b196b285_bab4_101a_b69c_00aa00341d07@@3U__s_GUID@@BPEAUIConnectionPoint@@V?$_CopyInterface@UIConnectionPoint@@@ATL@@@ATL@@UEAAJPEAPEAUIEnumConnectionPoints@@@Z 0000000180012c50 f i BillAcceptor.obj
 0001:00011e40       ?Clone@?$CComEnumImpl@UIEnumConnections@@$1?_GUID_b196b287_bab4_101a_b69c_00aa00341d07@@3U__s_GUID@@BUtagCONNECTDATA@@V?$_Copy@UtagCONNECTDATA@@@ATL@@@ATL@@UEAAJPEAPEAUIEnumConnections@@@Z 0000000180012e40 f i BillAcceptor.obj
 0001:00012030       ?Close@?$IOleObjectImpl@VCOPOSBillAcceptor@@@ATL@@UEAAJK@Z 0000000180013030 f i BillAcceptor.obj
 0001:000120e0       ?Close@CRegKey@ATL@@QEAAJXZ 00000001800130e0 f i BillAcceptor.obj
 0001:00012150       ?ContextSensitiveHelp@?$IOleInPlaceActiveObjectImpl@VCOPOSBillAcceptor@@@ATL@@UEAAJH@Z 0000000180013150 f i BillAcceptor.obj
 0001:000121d0       ?ContextSensitiveHelp@?$IOleInPlaceObjectWindowlessImpl@VCOPOSBillAcceptor@@@ATL@@UEAAJH@Z 00000001800131d0 f i BillAcceptor.obj
 0001:00012250       ?ControlQueryInterface@?$CComControl@VCOPOSBillAcceptor@@V?$CWindowImpl@VCOPOSBillAcceptor@@VCWindow@ATL@@V?$CWinTraits@$0FGAAAAAA@$0A@@3@@ATL@@@ATL@@UEAAJAEBU_GUID@@PEAPEAX@Z 0000000180013250 f i BillAcceptor.obj
 0001:000122e0       ?CreateControlWindow@?$CComControl@VCOPOSBillAcceptor@@V?$CWindowImpl@VCOPOSBillAcceptor@@VCWindow@ATL@@V?$CWinTraits@$0FGAAAAAA@$0A@@3@@ATL@@@ATL@@UEAAPEAUHWND__@@PEAU3@AEAUtagRECT@@@Z 00000001800132e0 f i BillAcceptor.obj
 0001:000123d0       ?CreateInstance@?$CComCreator@V?$CComAggObject@VCOPOSBillAcceptor@@@ATL@@@ATL@@SAJPEAXAEBU_GUID@@PEAPEAX@Z 00000001800133d0 f i BillAcceptor.obj
 0001:000125b0       ?CreateInstance@?$CComCreator@V?$CComObject@VCOPOSBillAcceptor@@@ATL@@@ATL@@SAJPEAXAEBU_GUID@@PEAPEAX@Z 00000001800135b0 f i BillAcceptor.obj
 0001:000127b0       ?CreateInstance@?$CComObject@V?$CComEnum@UIEnumConnectionPoints@@$1?_GUID_b196b285_bab4_101a_b69c_00aa00341d07@@3U__s_GUID@@BPEAUIConnectionPoint@@V?$_CopyInterface@UIConnectionPoint@@@ATL@@VCComSingleThreadModel@6@@ATL@@@ATL@@SAJPEAPEAV12@@Z 00000001800137b0 f i BillAcceptor.obj
 0001:00012970       ?CreateInstance@?$CComObject@V?$CComEnum@UIEnumConnections@@$1?_GUID_b196b287_bab4_101a_b69c_00aa00341d07@@3U__s_GUID@@BUtagCONNECTDATA@@V?$_Copy@UtagCONNECTDATA@@@ATL@@VCComSingleThreadModel@6@@ATL@@@ATL@@SAJPEAPEAV12@@Z 0000000180013970 f i BillAcceptor.obj
 0001:00012b30       ?CreateInstance@CComClassFactory@ATL@@UEAAJPEAUIUnknown@@AEBU_GUID@@PEAPEAX@Z 0000000180013b30 f i BillAcceptor.obj
 0001:00012c50       ?DAdvise@?$IDataObjectImpl@VCOPOSBillAcceptor@@@ATL@@UEAAJPEAUtagFORMATETC@@KPEAUIAdviseSink@@PEAK@Z 0000000180013c50 f i BillAcceptor.obj
 0001:00012db0       ?DEVMODEOLE2T_EX@@YAPEAU_devicemodeW@@PEAU1@@Z 0000000180013db0 f i BillAcceptor.obj
 0001:00012dc0       ?DUnadvise@?$IDataObjectImpl@VCOPOSBillAcceptor@@@ATL@@UEAAJK@Z 0000000180013dc0 f i BillAcceptor.obj
 0001:00012ec0       ?Decrement@CComMultiThreadModel@ATL@@SAKPEAJ@Z 0000000180013ec0 f i BillAcceptor.obj
 0001:00012ee0       ?Decrement@CComSingleThreadModel@ATL@@SAKPEAJ@Z 0000000180013ee0 f i BillAcceptor.obj
 0001:00012f00       ?DefWindowProcW@?$CWindowImplBaseT@VCWindow@ATL@@V?$CWinTraits@$0FGAAAAAA@$0A@@2@@ATL@@QEAA_JI_K_J@Z 0000000180013f00 f i BillAcceptor.obj
 0001:00012f60       ?DefaultReflectionHandler@?$CWindowImplRoot@VCWindow@ATL@@@ATL@@SAHPEAUHWND__@@I_K_JAEA_J@Z 0000000180013f60 f i BillAcceptor.obj
 0001:00013050       ?DeleteSubKey@CRegKey@ATL@@QEAAJPEB_W@Z 0000000180014050 f i BillAcceptor.obj
 0001:00013180       ?DeleteValue@CRegKey@ATL@@QEAAJPEB_W@Z 0000000180014180 f i BillAcceptor.obj
 0001:00013210       ?Detach@?$CAutoVectorPtr@_W@ATL@@QEAAPEA_WXZ 0000000180014210 f i BillAcceptor.obj
 0001:00013250       ?Detach@?$CComPtrBase@UIPersistStream@@@ATL@@QEAAPEAUIPersistStream@@XZ 0000000180014250 f i BillAcceptor.obj
 0001:00013290       ?Detach@?$CComPtrBase@UITypeInfo@@@ATL@@QEAAPEAUITypeInfo@@XZ 0000000180014290 f i BillAcceptor.obj
 0001:000132d0       ?Detach@?$CComPtrBase@UIUnknown@@@ATL@@QEAAPEAUIUnknown@@XZ 00000001800142d0 f i BillAcceptor.obj
 0001:00013310       ?Detach@CComBSTR@ATL@@QEAAPEA_WXZ 0000000180014310 f i BillAcceptor.obj
 0001:00013350       ?Detach@CParseBuffer@CRegParser@ATL@@QEAAPEA_WXZ 0000000180014350 f i BillAcceptor.obj
 0001:000133b0       ?Detach@CRegKey@ATL@@QEAAPEAUHKEY__@@XZ 00000001800143b0 f i BillAcceptor.obj
 0001:00013410       ?DoEvent@COPOSBillAcceptor@@IEAAXI_K_J@Z 0000000180014410 f i BillAcceptor.obj
 0001:00013550       ?DoVerb@?$IOleObjectImpl@VCOPOSBillAcceptor@@@ATL@@UEAAJJPEAUtagMSG@@PEAUIOleClientSite@@JPEAUHWND__@@PEBUtagRECT@@@Z 0000000180014550 f i BillAcceptor.obj
 0001:00013860       ?DoVerbDiscardUndo@?$IOleObjectImpl@VCOPOSBillAcceptor@@@ATL@@QEAAJPEBUtagRECT@@PEAUHWND__@@@Z 0000000180014860 f i BillAcceptor.obj
 0001:00013900       ?DoVerbHide@?$IOleObjectImpl@VCOPOSBillAcceptor@@@ATL@@QEAAJPEBUtagRECT@@PEAUHWND__@@@Z 0000000180014900 f i BillAcceptor.obj
 0001:000139e0       ?DoVerbInPlaceActivate@?$IOleObjectImpl@VCOPOSBillAcceptor@@@ATL@@QEAAJPEBUtagRECT@@PEAUHWND__@@@Z 00000001800149e0 f i BillAcceptor.obj
 0001:00013ac0       ?DoVerbOpen@?$IOleObjectImpl@VCOPOSBillAcceptor@@@ATL@@QEAAJPEBUtagRECT@@PEAUHWND__@@@Z 0000000180014ac0 f i BillAcceptor.obj
 0001:00013b60       ?DoVerbPrimary@?$IOleObjectImpl@VCOPOSBillAcceptor@@@ATL@@QEAAJPEBUtagRECT@@PEAUHWND__@@@Z 0000000180014b60 f i BillAcceptor.obj
 0001:00013ca0       ?DoVerbProperties@CComControlBase@ATL@@QEAAJPEBUtagRECT@@PEAUHWND__@@@Z 0000000180014ca0 f i BillAcceptor.obj
 0001:00014050       ?DoVerbShow@?$IOleObjectImpl@VCOPOSBillAcceptor@@@ATL@@QEAAJPEBUtagRECT@@PEAUHWND__@@@Z 0000000180015050 f i BillAcceptor.obj
 0001:00014110       ?DoVerbUIActivate@?$IOleObjectImpl@VCOPOSBillAcceptor@@@ATL@@QEAAJPEBUtagRECT@@PEAUHWND__@@@Z 0000000180015110 f i BillAcceptor.obj
 0001:000141f0       ?DoesVerbActivate@CComControlBase@ATL@@QEAAHJ@Z 00000001800151f0 f i BillAcceptor.obj
 0001:00014250       ?DoesVerbUIActivate@CComControlBase@ATL@@QEAAHJ@Z 0000000180015250 f i BillAcceptor.obj
 0001:000142d0       ?Draw@?$IViewObjectExImpl@VCOPOSBillAcceptor@@@ATL@@UEAAJKJPEAXPEAUtagDVTARGETDEVICE@@PEAUHDC__@@2PEBU_RECTL@@3P6AH_K@Z4@Z 00000001800152d0 f i BillAcceptor.obj
 0001:000143f0       ?Empty@CComBSTR@ATL@@QEAAXXZ 00000001800153f0 f i BillAcceptor.obj
 0001:00014430       ?EnableModeless@?$IOleInPlaceActiveObjectImpl@VCOPOSBillAcceptor@@@ATL@@UEAAJH@Z 0000000180015430 f i BillAcceptor.obj
 0001:000144a0       ?EndOfVar@CRegParser@ATL@@IEAAHXZ 00000001800154a0 f i BillAcceptor.obj
 0001:00014500       ?EnsureTI@CComTypeInfoHolder@ATL@@QEAAJK@Z 0000000180015500 f i BillAcceptor.obj
 0001:00014560       ?EnumAdvise@?$IOleObjectImpl@VCOPOSBillAcceptor@@@ATL@@UEAAJPEAPEAUIEnumSTATDATA@@@Z 0000000180015560 f i BillAcceptor.obj
 0001:000146c0       ?EnumConnectionPoints@?$IConnectionPointContainerImpl@VCOPOSBillAcceptor@@@ATL@@UEAAJPEAPEAUIEnumConnectionPoints@@@Z 00000001800156c0 f i BillAcceptor.obj
 0001:00014bb0       ?EnumConnections@?$IConnectionPointImpl@VCOPOSBillAcceptor@@$1?DIID__IOPOSBillAcceptorEvents@@3U_GUID@@BVCComDynamicUnkArray@ATL@@@ATL@@UEAAJPEAPEAUIEnumConnections@@@Z 0000000180015bb0 f i BillAcceptor.obj
 0001:00014f00       ?EnumConnections@?$IConnectionPointImpl@VCOPOSBillAcceptor@@$1?IID_IPropertyNotifySink@@3U_GUID@@BVCComDynamicUnkArray@ATL@@@ATL@@UEAAJPEAPEAUIEnumConnections@@@Z 0000000180015f00 f i BillAcceptor.obj
 0001:00015250       ?EnumDAdvise@?$IDataObjectImpl@VCOPOSBillAcceptor@@@ATL@@UEAAJPEAPEAUIEnumSTATDATA@@@Z 0000000180016250 f i BillAcceptor.obj
 0001:000153a0       ?EnumFormatEtc@?$IDataObjectImpl@VCOPOSBillAcceptor@@@ATL@@UEAAJKPEAPEAUIEnumFORMATETC@@@Z 00000001800163a0 f i BillAcceptor.obj
 0001:00015430       ?EnumVerbs@?$IOleObjectImpl@VCOPOSBillAcceptor@@@ATL@@UEAAJPEAPEAUIEnumOLEVERB@@@Z 0000000180016430 f i BillAcceptor.obj
 0001:00015500       ?EscapeSingleQuote@CAtlModule@ATL@@SAXPEA_W_KPEB_W@Z 0000000180016500 f i BillAcceptor.obj
 0001:00015600       ?ExtractCreateWndData@CAtlWinModule@ATL@@QEAAPEAXXZ 0000000180016600 f i BillAcceptor.obj
 0001:00015630       ?FAccessAllowed@?$IObjectSafetyImpl@VCOPOSBillAcceptor@@$02@ATL@@MEAAHXZ 0000000180016630 f i BillAcceptor.obj
 0001:00015640       ?FinalConstruct@?$CComAggObject@VCOPOSBillAcceptor@@@ATL@@QEAAJXZ 0000000180016640 f i BillAcceptor.obj
 0001:00015690       ?FinalConstruct@CComObjectRootBase@ATL@@QEAAJXZ 0000000180016690 f i BillAcceptor.obj
 0001:000156a0       ?FinalConstruct@CRegObject@ATL@@QEAAJXZ 00000001800166a0 f i BillAcceptor.obj
 0001:000156e0       ?FinalRelease@?$CComAggObject@VCOPOSBillAcceptor@@@ATL@@QEAAXXZ 00000001800166e0 f i BillAcceptor.obj
 0001:00015730       ?FinalRelease@CComObjectRootBase@ATL@@QEAAXXZ 0000000180016730 f i BillAcceptor.obj
 0001:00015740       ?FindConnectionPoint@?$IConnectionPointContainerImpl@VCOPOSBillAcceptor@@@ATL@@UEAAJAEBU_GUID@@PEAPEAUIConnectionPoint@@@Z 0000000180016740 f i BillAcceptor.obj
 0001:000158b0       ?FindKey@?$CSimpleMap@PEA_WPEA_WVCExpansionVectorEqualHelper@ATL@@@ATL@@QEBAHAEBQEA_W@Z 00000001800168b0 f i BillAcceptor.obj
 0001:00015930       ?FireTheEvent@?$CProxy_IOPOSEvents@VCOPOSBillAcceptor@@@@IEAAXPEAUIUnknown@@PEAVOposVariant@@IAEAJPEB_WJ@Z 0000000180016930 f i BillAcceptor.obj
 0001:00015b10       ?FireViewChange@CComControlBase@ATL@@QEAAJXZ 0000000180016b10 f i BillAcceptor.obj
 0001:00015bf0       ?Fire_DataEvent@?$CProxy_IOPOSEvents@VCOPOSBillAcceptor@@@@QEAAXJ@Z 0000000180016bf0 f i BillAcceptor.obj
 0001:00015de0       ?Fire_DirectIOEvent@?$CProxy_IOPOSEvents@VCOPOSBillAcceptor@@@@QEAAXJPEAJPEAPEA_W@Z 0000000180016de0 f i BillAcceptor.obj
 0001:00016070       ?Fire_StatusUpdateEvent@?$CProxy_IOPOSEvents@VCOPOSBillAcceptor@@@@QEAAXJ@Z 0000000180017070 f i BillAcceptor.obj
 0001:00016260       ?FormatWindowClassName@AtlModuleRegisterWndClassInfoParamW@ATL@@SAXPEA_WKPEAX@Z 0000000180017260 f i BillAcceptor.obj
 0001:000162b0       ?Free@?$CAutoVectorPtr@_W@ATL@@QEAAXXZ 00000001800172b0 f i BillAcceptor.obj
 0001:00016300       ?FreeHeap@?$CTempBuffer@E$0BAA@VCCRTAllocator@ATL@@@ATL@@AEAAXXZ 0000000180017300 f i BillAcceptor.obj
 0001:00016340       ?FreeHeap@?$CTempBuffer@_W$0BAA@VCCRTAllocator@ATL@@@ATL@@AEAAXXZ 0000000180017340 f i BillAcceptor.obj
 0001:00016380       ?FreeHeap@?$CTempBuffer@_W$0EAA@VCCRTAllocator@ATL@@@ATL@@AEAAXXZ 0000000180017380 f i BillAcceptor.obj
 0001:000163c0       ?Freeze@?$IViewObjectExImpl@VCOPOSBillAcceptor@@@ATL@@UEAAJKJPEAXPEAK@Z 00000001800173c0 f i BillAcceptor.obj
 0001:00016450       ?GenerateError@CRegParser@ATL@@IEAAJI@Z 0000000180017450 f i BillAcceptor.obj
 0001:00016470       ?GetAdvise@?$IViewObjectExImpl@VCOPOSBillAcceptor@@@ATL@@UEAAJPEAK0PEAPEAUIAdviseSink@@@Z 0000000180017470 f i BillAcceptor.obj
 0001:000165c0       ?GetAmbientLocaleID@CComControlBase@ATL@@QEAAJAEAK@Z 00000001800175c0 f i BillAcceptor.obj
 0001:000166a0       ?GetAmbientProperty@CComControlBase@ATL@@QEAAJJAEAUtagVARIANT@@@Z 00000001800176a0 f i BillAcceptor.obj
 0001:00016710       ?GetAmbientUserMode@CComControlBase@ATL@@QEAAJAEAH@Z 0000000180017710 f i BillAcceptor.obj
 0001:00016830       ?GetAppId@?$CAtlModuleT@VCComModule@ATL@@@ATL@@SAPEB_WXZ 0000000180017830 f i BillAcceptor.obj
 0001:00016840       ?GetAt@CComDynamicUnkArray@ATL@@QEAAPEAUIUnknown@@H@Z 0000000180017840 f i BillAcceptor.obj
 0001:000168f0       ?GetCanonicalFormatEtc@?$IDataObjectImpl@VCOPOSBillAcceptor@@@ATL@@UEAAJPEAUtagFORMATETC@@0@Z 00000001800178f0 f i BillAcceptor.obj
 0001:00016980       ?GetClassID@?$IPersistStorageImpl@VCOPOSBillAcceptor@@@ATL@@UEAAJPEAU_GUID@@@Z 0000000180017980 f i BillAcceptor.obj
 0001:00016a20       ?GetClassID@?$IPersistStreamInitImpl@VCOPOSBillAcceptor@@@ATL@@UEAAJPEAU_GUID@@@Z 0000000180017a20 f i BillAcceptor.obj
 0001:00016ac0       ?GetClassInfoExW@AtlModuleRegisterWndClassInfoParamW@ATL@@SAHPEAUHINSTANCE__@@PEB_WPEAUtagWNDCLASSEXW@@@Z 0000000180017ac0 f i BillAcceptor.obj
 0001:00016b10       ?GetClassInfoW@?$IProvideClassInfo2Impl@$1?CLSID_OPOSBillAcceptor@@3U_GUID@@B$1?DIID__IOPOSBillAcceptorEvents@@3U2@B$1?LIBID_OposBillAcceptor_CCO@@3U2@B$00$0A@VCComTypeInfoHolder@ATL@@@ATL@@UEAAJPEAPEAUITypeInfo@@@Z 0000000180017b10 f i BillAcceptor.obj
 0001:00016b50       ?GetClassObject@CComModule@ATL@@QEAAJAEBU_GUID@@0PEAPEAX@Z 0000000180017b50 f i BillAcceptor.obj
 0001:00016dc0       ?GetClientSite@?$IOleObjectImpl@VCOPOSBillAcceptor@@@ATL@@UEAAJPEAPEAUIOleClientSite@@@Z 0000000180017dc0 f i BillAcceptor.obj
 0001:00016e70       ?GetClipboardData@?$IOleObjectImpl@VCOPOSBillAcceptor@@@ATL@@UEAAJKPEAPEAUIDataObject@@@Z 0000000180017e70 f i BillAcceptor.obj
 0001:00016f00       ?GetCodeAddress@CDynamicStdCallThunk2@ATL@@QEAAPEAXXZ 0000000180017f00 f i BillAcceptor.obj
 0001:00016f40       ?GetColorSet@?$IViewObjectExImpl@VCOPOSBillAcceptor@@@ATL@@UEAAJKJPEAXPEAUtagDVTARGETDEVICE@@PEAUHDC__@@PEAPEAUtagLOGPALETTE@@@Z 0000000180017f40 f i BillAcceptor.obj
 0001:00016fd0       ?GetConnMap@COPOSBillAcceptor@@SAPEBU_ATL_CONNMAP_ENTRY@ATL@@PEAH@Z 0000000180017fd0 f i BillAcceptor.obj
 0001:00017130       ?GetConnectionInterface@?$IConnectionPointImpl@VCOPOSBillAcceptor@@$1?DIID__IOPOSBillAcceptorEvents@@3U_GUID@@BVCComDynamicUnkArray@ATL@@@ATL@@UEAAJPEAU_GUID@@@Z 0000000180018130 f i BillAcceptor.obj
 0001:00017170       ?GetConnectionInterface@?$IConnectionPointImpl@VCOPOSBillAcceptor@@$1?IID_IPropertyNotifySink@@3U_GUID@@BVCComDynamicUnkArray@ATL@@@ATL@@UEAAJPEAU_GUID@@@Z 0000000180018170 f i BillAcceptor.obj
 0001:000171b0       ?GetConnectionPointContainer@?$IConnectionPointImpl@VCOPOSBillAcceptor@@$1?DIID__IOPOSBillAcceptorEvents@@3U_GUID@@BVCComDynamicUnkArray@ATL@@@ATL@@UEAAJPEAPEAUIConnectionPointContainer@@@Z 00000001800181b0 f i BillAcceptor.obj
 0001:00017230       ?GetConnectionPointContainer@?$IConnectionPointImpl@VCOPOSBillAcceptor@@$1?IID_IPropertyNotifySink@@3U_GUID@@BVCComDynamicUnkArray@ATL@@@ATL@@UEAAJPEAPEAUIConnectionPointContainer@@@Z 0000000180018230 f i BillAcceptor.obj
 0001:000172b0       ?GetContentExtent@?$IQuickActivateImpl@VCOPOSBillAcceptor@@@ATL@@UEAAJPEAUtagSIZE@@@Z 00000001800182b0 f i BillAcceptor.obj
 0001:00017370       ?GetControlInfo@?$IOleControlImpl@VCOPOSBillAcceptor@@@ATL@@UEAAJPEAUtagCONTROLINFO@@@Z 0000000180018370 f i BillAcceptor.obj
 0001:00017400       ?GetCookie@CComDynamicUnkArray@ATL@@QEAAKPEAPEAUIUnknown@@@Z 0000000180018400 f i BillAcceptor.obj
 0001:000174f0       ?GetData@?$IDataObjectImpl@VCOPOSBillAcceptor@@@ATL@@UEAAJPEAUtagFORMATETC@@PEAUtagSTGMEDIUM@@@Z 00000001800184f0 f i BillAcceptor.obj
 0001:000175b0       ?GetData@CAtlSafeAllocBufferNode@?$CAtlSafeAllocBufferManager@VCCRTAllocator@ATL@@@_ATL_SAFE_ALLOCA_IMPL@ATL@@QEAAPEAXXZ 00000001800185b0 f i BillAcceptor.obj
 0001:000175d0       ?GetDataHere@?$IDataObjectImpl@VCOPOSBillAcceptor@@@ATL@@UEAAJPEAUtagFORMATETC@@PEAUtagSTGMEDIUM@@@Z 00000001800185d0 f i BillAcceptor.obj
 0001:00017660       ?GetDropTarget@?$IOleInPlaceObjectWindowlessImpl@VCOPOSBillAcceptor@@@ATL@@UEAAJPEAPEAUIDropTarget@@@Z 0000000180018660 f i BillAcceptor.obj
 0001:000176f0       ?GetExtent@?$IOleObjectImpl@VCOPOSBillAcceptor@@@ATL@@UEAAJKPEAUtagSIZE@@@Z 00000001800186f0 f i BillAcceptor.obj
 0001:000177c0       ?GetExtent@?$IViewObjectExImpl@VCOPOSBillAcceptor@@@ATL@@UEAAJKJPEAUtagDVTARGETDEVICE@@PEAUtagSIZE@@@Z 00000001800187c0 f i BillAcceptor.obj
 0001:000178d0       ?GetGITPtr@CAtlModule@ATL@@UEAAJPEAPEAUIGlobalInterfaceTable@@@Z 00000001800188d0 f i BillAcceptor.obj
 0001:00017a10       ?GetGUID@?$IProvideClassInfo2Impl@$1?CLSID_OPOSBillAcceptor@@3U_GUID@@B$1?DIID__IOPOSBillAcceptorEvents@@3U2@B$1?LIBID_OposBillAcceptor_CCO@@3U2@B$00$0A@VCComTypeInfoHolder@ATL@@@ATL@@UEAAJKPEAU_GUID@@@Z 0000000180018a10 f i BillAcceptor.obj
 0001:00017a90       ?GetIDsOfNames@?$IDispatchImpl@UIOPOSBillAcceptor@@$1?IID_IOPOSBillAcceptor@@3U_GUID@@B$1?LIBID_OposBillAcceptor_CCO@@3U3@B$00$0A@VCComTypeInfoHolder@ATL@@@ATL@@UEAAJAEBU_GUID@@PEAPEA_WIKPEAJ@Z 0000000180018a90 f i BillAcceptor.obj
 0001:00017af0       ?GetIDsOfNames@CComTypeInfoHolder@ATL@@QEAAJAEBU_GUID@@PEAPEA_WIKPEAJ@Z 0000000180018af0 f i BillAcceptor.obj
 0001:00017d10       ?GetInterfaceSafetyOptions@?$IObjectSafetyImpl@VCOPOSBillAcceptor@@$02@ATL@@UEAAJAEBU_GUID@@PEAK1@Z 0000000180018d10 f i BillAcceptor.obj
 0001:00017eb0       ?GetKeyAt@?$CSimpleMap@PEA_WPEA_WVCExpansionVectorEqualHelper@ATL@@@ATL@@QEBAAEAPEA_WH@Z 0000000180018eb0 f i BillAcceptor.obj
 0001:00017f60       ?GetLockCount@CAtlModule@ATL@@UEAAJXZ 0000000180018f60 f i BillAcceptor.obj
 0001:00017f70       ?GetMiscStatus@?$IOleObjectImpl@VCOPOSBillAcceptor@@@ATL@@UEAAJKPEAK@Z 0000000180018f70 f i BillAcceptor.obj
 0001:00018000       ?GetMoniker@?$IOleObjectImpl@VCOPOSBillAcceptor@@@ATL@@UEAAJKKPEAPEAUIMoniker@@@Z 0000000180019000 f i BillAcceptor.obj
 0001:00018090       ?GetNaturalExtent@?$IViewObjectExImpl@VCOPOSBillAcceptor@@@ATL@@UEAAJKJPEAUtagDVTARGETDEVICE@@PEAUHDC__@@PEAUtagExtentInfo@@PEAUtagSIZE@@@Z 0000000180019090 f i BillAcceptor.obj
 0001:00018220       ?GetObjectCLSID@?$CComCoClass@VCOPOSBillAcceptor@@$1?CLSID_OPOSBillAcceptor@@3U_GUID@@B@ATL@@SAAEBU_GUID@@XZ 0000000180019220 f i BillAcceptor.obj
 0001:00018230       ?GetPages@?$ISpecifyPropertyPagesImpl@VCOPOSBillAcceptor@@@ATL@@UEAAJPEAUtagCAUUID@@@Z 0000000180019230 f i BillAcceptor.obj
 0001:000182c0       ?GetPagesHelper@?$ISpecifyPropertyPagesImpl@VCOPOSBillAcceptor@@@ATL@@IEAAJPEAUtagCAUUID@@PEBUATL_PROPMAP_ENTRY@2@@Z 00000001800192c0 f i BillAcceptor.obj
 0001:00018530       ?GetProperty@?$CComPtr@UIDispatch@@@ATL@@QEAAJJPEAUtagVARIANT@@@Z 0000000180019530 f i BillAcceptor.obj
 0001:00018580       ?GetProperty@?$CComPtr@UIDispatch@@@ATL@@SAJPEAUIDispatch@@JPEAUtagVARIANT@@@Z 0000000180019580 f i BillAcceptor.obj
 0001:00018750       ?GetPropertyMap@COPOSBillAcceptor@@SAPEBUATL_PROPMAP_ENTRY@ATL@@XZ 0000000180019750 f i BillAcceptor.obj
 0001:00018760       ?GetRect@?$IViewObjectExImpl@VCOPOSBillAcceptor@@@ATL@@UEAAJKPEAU_RECTL@@@Z 0000000180019760 f i BillAcceptor.obj
 0001:000187f0       ?GetSize@?$CSimpleMap@PEA_WPEA_WVCExpansionVectorEqualHelper@ATL@@@ATL@@QEBAHXZ 00000001800197f0 f i BillAcceptor.obj
 0001:00018800       ?GetSize@CComDynamicUnkArray@ATL@@QEBAHXZ 0000000180019800 f i BillAcceptor.obj
 0001:00018810       ?GetSizeMax@?$IPersistStreamInitImpl@VCOPOSBillAcceptor@@@ATL@@UEAAJPEAT_ULARGE_INTEGER@@@Z 0000000180019810 f i BillAcceptor.obj
 0001:00018fa0       ?GetSizeMax@CComVariant@ATL@@QEBAJPEAT_ULARGE_INTEGER@@@Z 0000000180019fa0 f i BillAcceptor.obj
 0001:000193d0       ?GetStreamSize@CComBSTR@ATL@@SAKPEA_W@Z 000000018001a3d0 f i BillAcceptor.obj
 0001:00019430       ?GetTI@CComTypeInfoHolder@ATL@@QEAAJK@Z 000000018001a430 f i BillAcceptor.obj
 0001:00019d00       ?GetTI@CComTypeInfoHolder@ATL@@QEAAJKPEAPEAUITypeInfo@@@Z 000000018001ad00 f i BillAcceptor.obj
 0001:00019df0       ?GetTypeInfo@?$IDispatchImpl@UIOPOSBillAcceptor@@$1?IID_IOPOSBillAcceptor@@3U_GUID@@B$1?LIBID_OposBillAcceptor_CCO@@3U3@B$00$0A@VCComTypeInfoHolder@ATL@@@ATL@@UEAAJIKPEAPEAUITypeInfo@@@Z 000000018001adf0 f i BillAcceptor.obj
 0001:00019e40       ?GetTypeInfo@CComTypeInfoHolder@ATL@@QEAAJIKPEAPEAUITypeInfo@@@Z 000000018001ae40 f i BillAcceptor.obj
 0001:00019ea0       ?GetTypeInfoCount@?$IDispatchImpl@UIOPOSBillAcceptor@@$1?IID_IOPOSBillAcceptor@@3U_GUID@@B$1?LIBID_OposBillAcceptor_CCO@@3U3@B$00$0A@VCComTypeInfoHolder@ATL@@@ATL@@UEAAJPEAI@Z 000000018001aea0 f i BillAcceptor.obj
 0001:00019ed0       ?GetUnknown@CComDynamicUnkArray@ATL@@QEAAPEAUIUnknown@@K@Z 000000018001aed0 f i BillAcceptor.obj
 0001:00019f80       ?GetUnknown@COPOSBillAcceptor@@QEAAPEAUIUnknown@@XZ 000000018001af80 f i BillAcceptor.obj
 0001:00019fb0       ?GetUserClassID@?$IOleObjectImpl@VCOPOSBillAcceptor@@@ATL@@UEAAJPEAU_GUID@@@Z 000000018001afb0 f i BillAcceptor.obj
 0001:0001a090       ?GetUserType@?$IOleObjectImpl@VCOPOSBillAcceptor@@@ATL@@UEAAJKPEAPEA_W@Z 000000018001b090 f i BillAcceptor.obj
 0001:0001a120       ?GetValueAt@?$CSimpleMap@PEA_WPEA_WVCExpansionVectorEqualHelper@ATL@@@ATL@@QEBAAEAPEA_WH@Z 000000018001b120 f i BillAcceptor.obj
 0001:0001a1d0       ?GetViewStatus@?$IViewObjectExImpl@VCOPOSBillAcceptor@@@ATL@@UEAAJPEAK@Z 000000018001b1d0 f i BillAcceptor.obj
 0001:0001a2d0       ?GetWNDPROC@CWndProcThunk@ATL@@QEAAP6A_JPEAUHWND__@@I_K_J@ZXZ 000000018001b2d0 f i BillAcceptor.obj
 0001:0001a310       ?GetWindow@?$IOleInPlaceActiveObjectImpl@VCOPOSBillAcceptor@@@ATL@@UEAAJPEAPEAUHWND__@@@Z 000000018001b310 f i BillAcceptor.obj
 0001:0001a410       ?GetWindow@?$IOleInPlaceObjectWindowlessImpl@VCOPOSBillAcceptor@@@ATL@@UEAAJPEAPEAUHWND__@@@Z 000000018001b410 f i BillAcceptor.obj
 0001:0001a510       ?GetWindowProc@?$CWindowImplBaseT@VCWindow@ATL@@V?$CWinTraits@$0FGAAAAAA@$0A@@2@@ATL@@UEAAP6A_JPEAUHWND__@@I_K_J@ZXZ 000000018001b510 f i BillAcceptor.obj
 0001:0001a520       ?GetWndCaption@?$CWindowImpl@VCOPOSBillAcceptor@@VCWindow@ATL@@V?$CWinTraits@$0FGAAAAAA@$0A@@3@@ATL@@SAPEB_WXZ 000000018001b520 f i BillAcceptor.obj
 0001:0001a530       ?GetWndClassInfo@?$CWindowImpl@VCOPOSBillAcceptor@@VCWindow@ATL@@V?$CWinTraits@$0FGAAAAAA@$0A@@3@@ATL@@SAAEAU_ATL_WNDCLASSINFOW@2@XZ 000000018001b530 f i BillAcceptor.obj
 0001:0001a540       ?GetWndClassName@CWindow@ATL@@SAPEB_WXZ 000000018001b540 f i BillAcceptor.obj
 0001:0001a550       ?GetWndExStyle@?$CWinTraits@$0FGAAAAAA@$0A@@ATL@@SAKK@Z 000000018001b550 f i BillAcceptor.obj
 0001:0001a590       ?GetWndExStyle@?$CWindowImplBaseT@VCWindow@ATL@@V?$CWinTraits@$0FGAAAAAA@$0A@@2@@ATL@@SAKK@Z 000000018001b590 f i BillAcceptor.obj
 0001:0001a5c0       ?GetWndStyle@?$CWinTraits@$0FGAAAAAA@$0A@@ATL@@SAKK@Z 000000018001b5c0 f i BillAcceptor.obj
 0001:0001a600       ?GetWndStyle@?$CWindowImplBaseT@VCWindow@ATL@@V?$CWinTraits@$0FGAAAAAA@$0A@@2@@ATL@@SAKK@Z 000000018001b600 f i BillAcceptor.obj
 0001:0001a630       ?GetZoomInfo@CComControlBase@ATL@@QEAAXAEAUATL_DRAWINFO@@@Z 000000018001b630 f i BillAcceptor.obj
 0001:0001a7e0       ?HKeyFromString@CRegParser@ATL@@KAPEAUHKEY__@@PEA_W@Z 000000018001b7e0 f i BillAcceptor.obj
 0001:0001a870       ?HandsOffStorage@?$IPersistStorageImpl@VCOPOSBillAcceptor@@@ATL@@UEAAJXZ 000000018001b870 f i BillAcceptor.obj
 0001:0001a8e0       ?HasSubKeys@CRegParser@ATL@@IEAAHPEAUHKEY__@@@Z 000000018001b8e0 f i BillAcceptor.obj
 0001:0001aa50       ?IDataObject_GetData@CComControlBase@ATL@@QEAAJPEAUtagFORMATETC@@PEAUtagSTGMEDIUM@@@Z 000000018001ba50 f i BillAcceptor.obj
 0001:0001af00       ?IOleInPlaceObject_InPlaceDeactivate@CComControlBase@ATL@@QEAAJXZ 000000018001bf00 f i BillAcceptor.obj
 0001:0001b170       ?IOleInPlaceObject_SetObjectRects@CComControlBase@ATL@@QEAAJPEBUtagRECT@@0@Z 000000018001c170 f i BillAcceptor.obj
 0001:0001b350       ?IOleInPlaceObject_UIDeactivate@CComControlBase@ATL@@QEAAJXZ 000000018001c350 f i BillAcceptor.obj
 0001:0001b5c0       ?IOleObject_Advise@CComControlBase@ATL@@QEAAJPEAUIAdviseSink@@PEAK@Z 000000018001c5c0 f i BillAcceptor.obj
 0001:0001b670       ?IOleObject_Close@CComControlBase@ATL@@QEAAJK@Z 000000018001c670 f i BillAcceptor.obj
 0001:0001b9e0       ?IOleObject_GetClientSite@CComControlBase@ATL@@QEAAJPEAPEAUIOleClientSite@@@Z 000000018001c9e0 f i BillAcceptor.obj
 0001:0001bab0       ?IOleObject_SetClientSite@CComControlBase@ATL@@QEAAJPEAUIOleClientSite@@@Z 000000018001cab0 f i BillAcceptor.obj
 0001:0001bbc0       ?IOleObject_SetExtent@CComControlBase@ATL@@QEAAJKPEAUtagSIZE@@@Z 000000018001cbc0 f i BillAcceptor.obj
 0001:0001bd30       ?IPSI_GetIPersistStreamInit@?$IPersistStorageImpl@VCOPOSBillAcceptor@@@ATL@@AEAAPEAUIPersistStreamInit@@XZ 000000018001cd30 f i BillAcceptor.obj
 0001:0001bdf0       ?IPersistStreamInit_Load@?$IPersistStreamInitImpl@VCOPOSBillAcceptor@@@ATL@@QEAAJPEAUIStream@@PEBUATL_PROPMAP_ENTRY@2@@Z 000000018001cdf0 f i BillAcceptor.obj
 0001:0001be90       ?IPersistStreamInit_Save@?$IPersistStreamInitImpl@VCOPOSBillAcceptor@@@ATL@@QEAAJPEAUIStream@@HPEBUATL_PROPMAP_ENTRY@2@@Z 000000018001ce90 f i BillAcceptor.obj
 0001:0001bf50       ?IQuickActivate_QuickActivate@CComControlBase@ATL@@QEAAJPEAUtagQACONTAINER@@PEAUtagQACONTROL@@@Z 000000018001cf50 f i BillAcceptor.obj
 0001:0001c790       ?IViewObject_Draw@CComControlBase@ATL@@QEAAJKJPEAXPEAUtagDVTARGETDEVICE@@PEAUHDC__@@2PEBU_RECTL@@3@Z 000000018001d790 f i BillAcceptor.obj
 0001:0001cbe0       ?InPlaceActivate@CComControlBase@ATL@@QEAAJJPEBUtagRECT@@@Z 000000018001dbe0 f i BillAcceptor.obj
 0001:0001d780       ?InPlaceDeactivate@?$IOleInPlaceObjectWindowlessImpl@VCOPOSBillAcceptor@@@ATL@@UEAAJXZ 000000018001e780 f i BillAcceptor.obj
 0001:0001d830       ?Increment@CComMultiThreadModel@ATL@@SAKPEAJ@Z 000000018001e830 f i BillAcceptor.obj
 0001:0001d850       ?Increment@CComSingleThreadModel@ATL@@SAKPEAJ@Z 000000018001e850 f i BillAcceptor.obj
 0001:0001d870       ?Init@?$CComEnumImpl@UIEnumConnectionPoints@@$1?_GUID_b196b285_bab4_101a_b69c_00aa00341d07@@3U__s_GUID@@BPEAUIConnectionPoint@@V?$_CopyInterface@UIConnectionPoint@@@ATL@@@ATL@@QEAAJPEAPEAUIConnectionPoint@@0PEAUIUnknown@@W4CComEnumFlags@2@@Z 000000018001e870 f i BillAcceptor.obj
 0001:0001db60       ?Init@?$CComEnumImpl@UIEnumConnections@@$1?_GUID_b196b287_bab4_101a_b69c_00aa00341d07@@3U__s_GUID@@BUtagCONNECTDATA@@V?$_Copy@UtagCONNECTDATA@@@ATL@@@ATL@@QEAAJPEAUtagCONNECTDATA@@0PEAUIUnknown@@W4CComEnumFlags@2@@Z 000000018001eb60 f i BillAcceptor.obj
 0001:0001de50       ?Init@CComFakeCriticalSection@ATL@@QEAAJXZ 000000018001ee50 f i BillAcceptor.obj
 0001:0001de60       ?Init@CComModule@ATL@@QEAAJPEAU_ATL_OBJMAP_ENTRY30@2@PEAUHINSTANCE__@@PEBU_GUID@@@Z 000000018001ee60 f i BillAcceptor.obj
 0001:0001df50       ?Init@CComSafeDeleteCriticalSection@ATL@@QEAAJXZ 000000018001ef50 f i BillAcceptor.obj
 0001:0001dfe0       ?Init@CDynamicStdCallThunk2@ATL@@QEAAH_KPEAX@Z 000000018001efe0 f i BillAcceptor.obj
 0001:0001e060       ?Init@CWndProcThunk@ATL@@QEAAHP6A_JPEAUHWND__@@I_K_J@ZPEAX@Z 000000018001f060 f i BillAcceptor.obj
 0001:0001e0b0       ?InitFromData@?$IOleObjectImpl@VCOPOSBillAcceptor@@@ATL@@UEAAJPEAUIDataObject@@HK@Z 000000018001f0b0 f i BillAcceptor.obj
 0001:0001e140       ?InitLibId@?$CAtlModuleT@VCComModule@ATL@@@ATL@@SAXXZ 000000018001f140 f i BillAcceptor.obj
 0001:0001e150       ?InitNew@?$IPersistStorageImpl@VCOPOSBillAcceptor@@@ATL@@UEAAJPEAUIStorage@@@Z 000000018001f150 f i BillAcceptor.obj
 0001:0001e240       ?InitNew@?$IPersistStreamInitImpl@VCOPOSBillAcceptor@@@ATL@@UEAAJXZ 000000018001f240 f i BillAcceptor.obj
 0001:0001e2f0       ?InlineIsEqualUnknown@ATL@@YAHAEBU_GUID@@@Z 000000018001f2f0 f i BillAcceptor.obj
 0001:0001e380       ?InternalAddRef@?$CComObjectRootEx@VCComMultiThreadModel@ATL@@@ATL@@QEAAKXZ 000000018001f380 f i BillAcceptor.obj
 0001:0001e400       ?InternalAddRef@?$CComObjectRootEx@VCComSingleThreadModel@ATL@@@ATL@@QEAAKXZ 000000018001f400 f i BillAcceptor.obj
 0001:0001e480       ?InternalFinalConstructAddRef@CComObjectRootBase@ATL@@QEAAXXZ 000000018001f480 f i BillAcceptor.obj
 0001:0001e490       ?InternalFinalConstructAddRef@COPOSBillAcceptor@@QEAAXXZ 000000018001f490 f i BillAcceptor.obj
 0001:0001e4d0       ?InternalFinalConstructRelease@CComObjectRootBase@ATL@@QEAAXXZ 000000018001f4d0 f i BillAcceptor.obj
 0001:0001e540       ?InternalFinalConstructRelease@COPOSBillAcceptor@@QEAAXXZ 000000018001f540 f i BillAcceptor.obj
 0001:0001e580       ?InternalGetSite@CComControlBase@ATL@@QEAAJAEBU_GUID@@PEAPEAX@Z 000000018001f580 f i BillAcceptor.obj
 0001:0001e660       ?InternalQueryInterface@CComObjectRootBase@ATL@@SAJPEAXPEBU_ATL_INTMAP_ENTRY@2@AEBU_GUID@@PEAPEAX@Z 000000018001f660 f i BillAcceptor.obj
 0001:0001e780       ?InternalRelease@?$CComObjectRootEx@VCComMultiThreadModel@ATL@@@ATL@@QEAAKXZ 000000018001f780 f i BillAcceptor.obj
 0001:0001e800       ?InternalRelease@?$CComObjectRootEx@VCComSingleThreadModel@ATL@@@ATL@@QEAAKXZ 000000018001f800 f i BillAcceptor.obj
 0001:0001e880       ?InternalSetAtIndex@?$CSimpleArray@GV?$CSimpleArrayEqualHelper@G@ATL@@@ATL@@QEAAXHAEBG@Z 000000018001f880 f i BillAcceptor.obj
 0001:0001e900       ?InternalSetAtIndex@?$CSimpleMap@PEA_WPEA_WVCExpansionVectorEqualHelper@ATL@@@ATL@@QEAAXHAEBQEA_W0@Z 000000018001f900 f i BillAcceptor.obj
 0001:0001e9d0       ?Invoke@?$IDispatchImpl@UIOPOSBillAcceptor@@$1?IID_IOPOSBillAcceptor@@3U_GUID@@B$1?LIBID_OposBillAcceptor_CCO@@3U3@B$00$0A@VCComTypeInfoHolder@ATL@@@ATL@@UEAAJJAEBU_GUID@@KGPEAUtagDISPPARAMS@@PEAUtagVARIANT@@PEAUtagEXCEPINFO@@PEAI@Z 000000018001f9d0 f i BillAcceptor.obj
 0001:0001ea70       ?Invoke@CComTypeInfoHolder@ATL@@QEAAJPEAUIDispatch@@JAEBU_GUID@@KGPEAUtagDISPPARAMS@@PEAUtagVARIANT@@PEAUtagEXCEPINFO@@PEAI@Z 000000018001fa70 f i BillAcceptor.obj
 0001:0001eb30       ?IsDirty@?$IPersistStorageImpl@VCOPOSBillAcceptor@@@ATL@@UEAAJXZ 000000018001fb30 f i BillAcceptor.obj
 0001:0001ec20       ?IsDirty@?$IPersistStreamInitImpl@VCOPOSBillAcceptor@@@ATL@@UEAAJXZ 000000018001fc20 f i BillAcceptor.obj
 0001:0001ece0       ?IsEqualKey@CExpansionVectorEqualHelper@ATL@@SA_NQEA_W0@Z 000000018001fce0 f i BillAcceptor.obj
 0001:0001ed30       ?IsEqualObject@?$CComPtrBase@UIOleClientSite@@@ATL@@QEAA_NPEAUIUnknown@@@Z 000000018001fd30 f i BillAcceptor.obj
 0001:0001ee80       ?IsEqualObject@?$CComPtrBase@UITypeInfo@@@ATL@@QEAA_NPEAUIUnknown@@@Z 000000018001fe80 f i BillAcceptor.obj
 0001:0001efd0       ?IsSpace@CRegParser@ATL@@IEAAH_W@Z 000000018001ffd0 f i BillAcceptor.obj
 0001:0001f030       ?IsUpToDate@?$IOleObjectImpl@VCOPOSBillAcceptor@@@ATL@@UEAAJXZ 0000000180020030 f i BillAcceptor.obj
 0001:0001f0a0       ?Length@CComBSTR@ATL@@QEBAIXZ 00000001800200a0 f i BillAcceptor.obj
 0001:0001f0e0       ?Load@?$IPersistStorageImpl@VCOPOSBillAcceptor@@@ATL@@UEAAJPEAUIStorage@@@Z 00000001800200e0 f i BillAcceptor.obj
 0001:0001f290       ?Load@?$IPersistStreamInitImpl@VCOPOSBillAcceptor@@@ATL@@UEAAJPEAUIStream@@@Z 0000000180020290 f i BillAcceptor.obj
 0001:0001f350       ?LoadCursorW@AtlModuleRegisterWndClassInfoParamW@ATL@@SAPEAUHICON__@@PEAUHINSTANCE__@@PEB_W@Z 0000000180020350 f i BillAcceptor.obj
 0001:0001f390       ?LoadNameCache@CComTypeInfoHolder@ATL@@QEAAJPEAUITypeInfo@@@Z 0000000180020390 f i BillAcceptor.obj
 0001:0001f6d0       ?Lock@?$CComCritSecLock@VCComCriticalSection@ATL@@@ATL@@QEAAJXZ 00000001800206d0 f i BillAcceptor.obj
 0001:0001f7c0       ?Lock@?$CComObjectRootEx@VCComSingleThreadModel@ATL@@@ATL@@QEAAXXZ 00000001800207c0 f i BillAcceptor.obj
 0001:0001f7d0       ?Lock@CAtlModule@ATL@@UEAAJXZ 00000001800207d0 f i BillAcceptor.obj
 0001:0001f810       ?Lock@CComCriticalSection@ATL@@QEAAJXZ 0000000180020810 f i BillAcceptor.obj
 0001:0001f850       ?Lock@CComFakeCriticalSection@ATL@@QEAAJXZ 0000000180020850 f i BillAcceptor.obj
 0001:0001f860       ?LockServer@CComClassFactory@ATL@@UEAAJH@Z 0000000180020860 f i BillAcceptor.obj
 0001:0001f8c0       ?Lookup@?$CSimpleMap@PEA_WPEA_WVCExpansionVectorEqualHelper@ATL@@@ATL@@QEBAPEA_WAEBQEA_W@Z 00000001800208c0 f i BillAcceptor.obj
 0001:0001f920       ?Next@?$CComEnumImpl@UIEnumConnectionPoints@@$1?_GUID_b196b285_bab4_101a_b69c_00aa00341d07@@3U__s_GUID@@BPEAUIConnectionPoint@@V?$_CopyInterface@UIConnectionPoint@@@ATL@@@ATL@@UEAAJKPEAPEAUIConnectionPoint@@PEAK@Z 0000000180020920 f i BillAcceptor.obj
 0001:0001fae0       ?Next@?$CComEnumImpl@UIEnumConnections@@$1?_GUID_b196b287_bab4_101a_b69c_00aa00341d07@@3U__s_GUID@@BUtagCONNECTDATA@@V?$_Copy@UtagCONNECTDATA@@@ATL@@@ATL@@UEAAJKPEAUtagCONNECTDATA@@PEAK@Z 0000000180020ae0 f i BillAcceptor.obj
 0001:0001fca0       ?NextToken@CRegParser@ATL@@IEAAJPEA_W@Z 0000000180020ca0 f i BillAcceptor.obj
 0001:00020030       ?OLE2CT_EX@@YAPEB_WPEB_WI@Z 0000000180021030 f i BillAcceptor.obj
 0001:00020050       ?OLE2CT_EX_DEF@@YAPEB_WPEB_W@Z 0000000180021050 f i BillAcceptor.obj
 0001:00020060       ?OLE2T_EX@@YAPEA_WPEA_WI@Z 0000000180021060 f i BillAcceptor.obj
 0001:00020080       ?OnAmbientPropertyChange@?$IOleControlImpl@VCOPOSBillAcceptor@@@ATL@@UEAAJJ@Z 0000000180021080 f i BillAcceptor.obj
 0001:00020140       ?OnDocWindowActivate@?$IOleInPlaceActiveObjectImpl@VCOPOSBillAcceptor@@@ATL@@UEAAJH@Z 0000000180021140 f i BillAcceptor.obj
 0001:00020200       ?OnDrawAdvanced@CComControlBase@ATL@@UEAAJAEAUATL_DRAWINFO@@@Z 0000000180021200 f i BillAcceptor.obj
 0001:00020450       ?OnFinalMessage@?$CWindowImplBaseT@VCWindow@ATL@@V?$CWinTraits@$0FGAAAAAA@$0A@@2@@ATL@@UEAAXPEAUHWND__@@@Z 0000000180021450 f i BillAcceptor.obj
 0001:00020460       ?OnFrameWindowActivate@?$IOleInPlaceActiveObjectImpl@VCOPOSBillAcceptor@@@ATL@@UEAAJH@Z 0000000180021460 f i BillAcceptor.obj
 0001:000204d0       ?OnKillFocus@CComControlBase@ATL@@QEAA_JI_K_JAEAH@Z 00000001800214d0 f i BillAcceptor.obj
 0001:000205c0       ?OnMnemonic@?$IOleControlImpl@VCOPOSBillAcceptor@@@ATL@@UEAAJPEAUtagMSG@@@Z 00000001800215c0 f i BillAcceptor.obj
 0001:00020650       ?OnMouseActivate@CComControlBase@ATL@@QEAA_JI_K_JAEAH@Z 0000000180021650 f i BillAcceptor.obj
 0001:000207f0       ?OnPaint@CComControlBase@ATL@@QEAA_JI_K_JAEAH@Z 00000001800217f0 f i BillAcceptor.obj
 0001:00020980       ?OnPostVerbDiscardUndo@?$IOleObjectImpl@VCOPOSBillAcceptor@@@ATL@@QEAAJXZ 0000000180021980 f i BillAcceptor.obj
 0001:00020990       ?OnPostVerbHide@?$IOleObjectImpl@VCOPOSBillAcceptor@@@ATL@@QEAAJXZ 0000000180021990 f i BillAcceptor.obj
 0001:000209a0       ?OnPostVerbInPlaceActivate@?$IOleObjectImpl@VCOPOSBillAcceptor@@@ATL@@QEAAJXZ 00000001800219a0 f i BillAcceptor.obj
 0001:000209b0       ?OnPostVerbOpen@?$IOleObjectImpl@VCOPOSBillAcceptor@@@ATL@@QEAAJXZ 00000001800219b0 f i BillAcceptor.obj
 0001:000209c0       ?OnPostVerbShow@?$IOleObjectImpl@VCOPOSBillAcceptor@@@ATL@@QEAAJXZ 00000001800219c0 f i BillAcceptor.obj
 0001:000209d0       ?OnPostVerbUIActivate@?$IOleObjectImpl@VCOPOSBillAcceptor@@@ATL@@QEAAJXZ 00000001800219d0 f i BillAcceptor.obj
 0001:000209e0       ?OnPreVerbDiscardUndo@?$IOleObjectImpl@VCOPOSBillAcceptor@@@ATL@@QEAAJXZ 00000001800219e0 f i BillAcceptor.obj
 0001:000209f0       ?OnPreVerbHide@?$IOleObjectImpl@VCOPOSBillAcceptor@@@ATL@@QEAAJXZ 00000001800219f0 f i BillAcceptor.obj
 0001:00020a00       ?OnPreVerbInPlaceActivate@?$IOleObjectImpl@VCOPOSBillAcceptor@@@ATL@@QEAAJXZ 0000000180021a00 f i BillAcceptor.obj
 0001:00020a10       ?OnPreVerbOpen@?$IOleObjectImpl@VCOPOSBillAcceptor@@@ATL@@QEAAJXZ 0000000180021a10 f i BillAcceptor.obj
 0001:00020a20       ?OnPreVerbShow@?$IOleObjectImpl@VCOPOSBillAcceptor@@@ATL@@QEAAJXZ 0000000180021a20 f i BillAcceptor.obj
 0001:00020a30       ?OnPreVerbUIActivate@?$IOleObjectImpl@VCOPOSBillAcceptor@@@ATL@@QEAAJXZ 0000000180021a30 f i BillAcceptor.obj
 0001:00020a40       ?OnSetFocus@CComControlBase@ATL@@QEAA_JI_K_JAEAH@Z 0000000180021a40 f i BillAcceptor.obj
 0001:00020c40       ?OnWindowMessage@?$IOleInPlaceObjectWindowlessImpl@VCOPOSBillAcceptor@@@ATL@@UEAAJI_K_JPEA_J@Z 0000000180021c40 f i BillAcceptor.obj
 0001:00020e60       ?Open@CRegKey@ATL@@QEAAJPEAUHKEY__@@PEB_WK@Z 0000000180021e60 f i BillAcceptor.obj
 0001:00020fe0       ?OuterAddRef@CComObjectRootBase@ATL@@QEAAKXZ 0000000180021fe0 f i BillAcceptor.obj
 0001:00021020       ?OuterQueryInterface@CComObjectRootBase@ATL@@QEAAJAEBU_GUID@@PEAPEAX@Z 0000000180022020 f i BillAcceptor.obj
 0001:00021070       ?OuterRelease@CComObjectRootBase@ATL@@QEAAKXZ 0000000180022070 f i BillAcceptor.obj
 0001:000210b0       ?PreProcessBuffer@CRegParser@ATL@@QEAAJPEA_WPEAPEA_W@Z 00000001800220b0 f i BillAcceptor.obj
 0001:00021790       ?PreTranslateAccelerator@CComControlBase@ATL@@QEAAHPEAUtagMSG@@AEAJ@Z 0000000180022790 f i BillAcceptor.obj
 0001:000217b0       ?ProcessWindowMessage@?$CComControl@VCOPOSBillAcceptor@@V?$CWindowImpl@VCOPOSBillAcceptor@@VCWindow@ATL@@V?$CWinTraits@$0FGAAAAAA@$0A@@3@@ATL@@@ATL@@UEAAHPEAUHWND__@@I_K_JAEA_JK@Z 00000001800227b0 f i BillAcceptor.obj
 0001:00021a30       ?ProcessWindowMessage@COPOSBillAcceptor@@UEAAHPEAUHWND__@@I_K_JAEA_JK@Z 0000000180022a30 f i BillAcceptor.obj
 0001:00021bb0       ?PutProperty@?$CComPtr@UIDispatch@@@ATL@@QEAAJJPEAUtagVARIANT@@@Z 0000000180022bb0 f i BillAcceptor.obj
 0001:00021c00       ?PutProperty@?$CComPtr@UIDispatch@@@ATL@@SAJPEAUIDispatch@@JPEAUtagVARIANT@@@Z 0000000180022c00 f i BillAcceptor.obj
 0001:00021ea0       ?QueryGetData@?$IDataObjectImpl@VCOPOSBillAcceptor@@@ATL@@UEAAJPEAUtagFORMATETC@@@Z 0000000180022ea0 f i BillAcceptor.obj
 0001:00021f30       ?QueryHitPoint@?$IViewObjectExImpl@VCOPOSBillAcceptor@@@ATL@@UEAAJKPEBUtagRECT@@UtagPOINT@@JPEAK@Z 0000000180022f30 f i BillAcceptor.obj
 0001:000220a0       ?QueryHitRect@?$IViewObjectExImpl@VCOPOSBillAcceptor@@@ATL@@UEAAJKPEBUtagRECT@@0JPEAK@Z 00000001800230a0 f i BillAcceptor.obj
 0001:00022270       ?QueryInterface@?$CComAggObject@VCOPOSBillAcceptor@@@ATL@@UEAAJAEBU_GUID@@PEAPEAX@Z 0000000180023270 f i BillAcceptor.obj
 0001:00022360       ?QueryInterface@?$CComContainedObject@VCOPOSBillAcceptor@@@ATL@@UEAAJAEBU_GUID@@PEAPEAX@Z 0000000180023360 f i BillAcceptor.obj
 0001:000223ac       ?QueryInterface@?$CComContainedObject@VCOPOSBillAcceptor@@@ATL@@WBAA@EAAJAEBU_GUID@@PEAPEAX@Z 00000001800233ac f i BillAcceptor.obj
 0001:000223b8       ?QueryInterface@?$CComContainedObject@VCOPOSBillAcceptor@@@ATL@@WBAI@EAAJAEBU_GUID@@PEAPEAX@Z 00000001800233b8 f i BillAcceptor.obj
 0001:000223c4       ?QueryInterface@?$CComContainedObject@VCOPOSBillAcceptor@@@ATL@@WBBA@EAAJAEBU_GUID@@PEAPEAX@Z 00000001800233c4 f i BillAcceptor.obj
 0001:000223d0       ?QueryInterface@?$CComContainedObject@VCOPOSBillAcceptor@@@ATL@@WBBI@EAAJAEBU_GUID@@PEAPEAX@Z 00000001800233d0 f i BillAcceptor.obj
 0001:000223dc       ?QueryInterface@?$CComContainedObject@VCOPOSBillAcceptor@@@ATL@@WLI@EAAJAEBU_GUID@@PEAPEAX@Z 00000001800233dc f i BillAcceptor.obj
 0001:000223e8       ?QueryInterface@?$CComContainedObject@VCOPOSBillAcceptor@@@ATL@@WMA@EAAJAEBU_GUID@@PEAPEAX@Z 00000001800233e8 f i BillAcceptor.obj
 0001:000223f4       ?QueryInterface@?$CComContainedObject@VCOPOSBillAcceptor@@@ATL@@WMI@EAAJAEBU_GUID@@PEAPEAX@Z 00000001800233f4 f i BillAcceptor.obj
 0001:00022400       ?QueryInterface@?$CComContainedObject@VCOPOSBillAcceptor@@@ATL@@WNA@EAAJAEBU_GUID@@PEAPEAX@Z 0000000180023400 f i BillAcceptor.obj
 0001:0002240c       ?QueryInterface@?$CComContainedObject@VCOPOSBillAcceptor@@@ATL@@WNI@EAAJAEBU_GUID@@PEAPEAX@Z 000000018002340c f i BillAcceptor.obj
 0001:00022418       ?QueryInterface@?$CComContainedObject@VCOPOSBillAcceptor@@@ATL@@WOA@EAAJAEBU_GUID@@PEAPEAX@Z 0000000180023418 f i BillAcceptor.obj
 0001:00022424       ?QueryInterface@?$CComContainedObject@VCOPOSBillAcceptor@@@ATL@@WOI@EAAJAEBU_GUID@@PEAPEAX@Z 0000000180023424 f i BillAcceptor.obj
 0001:00022430       ?QueryInterface@?$CComContainedObject@VCOPOSBillAcceptor@@@ATL@@WPA@EAAJAEBU_GUID@@PEAPEAX@Z 0000000180023430 f i BillAcceptor.obj
 0001:0002243c       ?QueryInterface@?$CComContainedObject@VCOPOSBillAcceptor@@@ATL@@WPI@EAAJAEBU_GUID@@PEAPEAX@Z 000000018002343c f i BillAcceptor.obj
 0001:00022450       ?QueryInterface@?$CComObject@V?$CComEnum@UIEnumConnectionPoints@@$1?_GUID_b196b285_bab4_101a_b69c_00aa00341d07@@3U__s_GUID@@BPEAUIConnectionPoint@@V?$_CopyInterface@UIConnectionPoint@@@ATL@@VCComSingleThreadModel@6@@ATL@@@ATL@@UEAAJAEBU_GUID@@PEAPEAX@Z 0000000180023450 f i BillAcceptor.obj
 0001:000224a0       ?QueryInterface@?$CComObject@V?$CComEnum@UIEnumConnections@@$1?_GUID_b196b287_bab4_101a_b69c_00aa00341d07@@3U__s_GUID@@BUtagCONNECTDATA@@V?$_Copy@UtagCONNECTDATA@@@ATL@@VCComSingleThreadModel@6@@ATL@@@ATL@@UEAAJAEBU_GUID@@PEAPEAX@Z 00000001800234a0 f i BillAcceptor.obj
 0001:000224f0       ?QueryInterface@?$CComObject@VCOPOSBillAcceptor@@@ATL@@UEAAJAEBU_GUID@@PEAPEAX@Z 00000001800234f0 f i BillAcceptor.obj
 0001:00022534       ?QueryInterface@?$CComObject@VCOPOSBillAcceptor@@@ATL@@WBAA@EAAJAEBU_GUID@@PEAPEAX@Z 0000000180023534 f i BillAcceptor.obj
 0001:00022540       ?QueryInterface@?$CComObject@VCOPOSBillAcceptor@@@ATL@@WBAI@EAAJAEBU_GUID@@PEAPEAX@Z 0000000180023540 f i BillAcceptor.obj
 0001:0002254c       ?QueryInterface@?$CComObject@VCOPOSBillAcceptor@@@ATL@@WBBA@EAAJAEBU_GUID@@PEAPEAX@Z 000000018002354c f i BillAcceptor.obj
 0001:00022558       ?QueryInterface@?$CComObject@VCOPOSBillAcceptor@@@ATL@@WBBI@EAAJAEBU_GUID@@PEAPEAX@Z 0000000180023558 f i BillAcceptor.obj
 0001:00022564       ?QueryInterface@?$CComObject@VCOPOSBillAcceptor@@@ATL@@WLI@EAAJAEBU_GUID@@PEAPEAX@Z 0000000180023564 f i BillAcceptor.obj
 0001:00022570       ?QueryInterface@?$CComObject@VCOPOSBillAcceptor@@@ATL@@WMA@EAAJAEBU_GUID@@PEAPEAX@Z 0000000180023570 f i BillAcceptor.obj
 0001:0002257c       ?QueryInterface@?$CComObject@VCOPOSBillAcceptor@@@ATL@@WMI@EAAJAEBU_GUID@@PEAPEAX@Z 000000018002357c f i BillAcceptor.obj
 0001:00022588       ?QueryInterface@?$CComObject@VCOPOSBillAcceptor@@@ATL@@WNA@EAAJAEBU_GUID@@PEAPEAX@Z 0000000180023588 f i BillAcceptor.obj
 0001:00022594       ?QueryInterface@?$CComObject@VCOPOSBillAcceptor@@@ATL@@WNI@EAAJAEBU_GUID@@PEAPEAX@Z 0000000180023594 f i BillAcceptor.obj
 0001:000225a0       ?QueryInterface@?$CComObject@VCOPOSBillAcceptor@@@ATL@@WOA@EAAJAEBU_GUID@@PEAPEAX@Z 00000001800235a0 f i BillAcceptor.obj
 0001:000225ac       ?QueryInterface@?$CComObject@VCOPOSBillAcceptor@@@ATL@@WOI@EAAJAEBU_GUID@@PEAPEAX@Z 00000001800235ac f i BillAcceptor.obj
 0001:000225b8       ?QueryInterface@?$CComObject@VCOPOSBillAcceptor@@@ATL@@WPA@EAAJAEBU_GUID@@PEAPEAX@Z 00000001800235b8 f i BillAcceptor.obj
 0001:000225c4       ?QueryInterface@?$CComObject@VCOPOSBillAcceptor@@@ATL@@WPI@EAAJAEBU_GUID@@PEAPEAX@Z 00000001800235c4 f i BillAcceptor.obj
 0001:000225d0       ?QueryInterface@?$CComObjectCached@VCComClassFactory@ATL@@@ATL@@UEAAJAEBU_GUID@@PEAPEAX@Z 00000001800235d0 f i BillAcceptor.obj
 0001:00022620       ?QueryInterface@CRegObject@ATL@@UEAAJAEBU_GUID@@PEAPEAX@Z 0000000180023620 f i BillAcceptor.obj
 0001:000226a0       ?QuickActivate@?$IQuickActivateImpl@VCOPOSBillAcceptor@@@ATL@@UEAAJPEAUtagQACONTAINER@@PEAUtagQACONTROL@@@Z 00000001800236a0 f i BillAcceptor.obj
 0001:00022760       ?ReactivateAndUndo@?$IOleInPlaceObjectWindowlessImpl@VCOPOSBillAcceptor@@@ATL@@UEAAJXZ 0000000180023760 f i BillAcceptor.obj
 0001:000227e0       ?ReadFromStream@CComBSTR@ATL@@QEAAJPEAUIStream@@@Z 00000001800237e0 f i BillAcceptor.obj
 0001:00022cc0       ?ReadFromStream@CComVariant@ATL@@QEAAJPEAUIStream@@GTClassesAllowedInStream@2@K@Z 0000000180023cc0 f i BillAcceptor.obj
 0001:000230f0       ?RecurseDeleteKey@CRegKey@ATL@@QEAAJPEB_W@Z 00000001800240f0 f i BillAcceptor.obj
 0001:00023310       ?RegCreateKeyExW@CAtlTransactionManager@ATL@@QEAAJPEAUHKEY__@@PEB_WKPEA_WKKQEAU_SECURITY_ATTRIBUTES@@PEAPEAU3@PEAK@Z 0000000180024310 f i BillAcceptor.obj
 0001:000234e0       ?RegDeleteKeyW@CAtlTransactionManager@ATL@@QEAAJPEAUHKEY__@@PEB_W@Z 00000001800244e0 f i BillAcceptor.obj
 0001:000235f0       ?RegOpenKeyExW@CAtlTransactionManager@ATL@@QEAAJPEAUHKEY__@@PEB_WKKPEAPEAU3@@Z 00000001800245f0 f i BillAcceptor.obj
 0001:00023740       ?Register@_ATL_WNDCLASSINFOW@ATL@@QEAAGPEAP6A_JPEAUHWND__@@I_K_J@Z@Z 0000000180024740 f i BillAcceptor.obj
 0001:00023790       ?RegisterBuffer@CRegParser@ATL@@QEAAJPEA_WH@Z 0000000180024790 f i BillAcceptor.obj
 0001:00023b80       ?RegisterClassExW@AtlModuleRegisterWndClassInfoParamW@ATL@@SAGPEAU_ATL_WIN_MODULE70@2@PEBUtagWNDCLASSEXW@@@Z 0000000180024b80 f i BillAcceptor.obj
 0001:00023bc0       ?RegisterFromResource@CRegObject@ATL@@IEAAJPEB_W00H@Z 0000000180024bc0 f i BillAcceptor.obj
 0001:00024020       ?RegisterServer@?$CAtlModuleT@VCComModule@ATL@@@ATL@@QEAAJHPEBU_GUID@@@Z 0000000180025020 f i BillAcceptor.obj
 0001:000240a0       ?RegisterServer@CAtlComModule@ATL@@QEAAJHPEBU_GUID@@@Z 00000001800250a0 f i BillAcceptor.obj
 0001:000240e0       ?RegisterServer@CComModule@ATL@@QEAAJHPEBU_GUID@@@Z 00000001800250e0 f i BillAcceptor.obj
 0001:000241e0       ?RegisterSubkeys@CRegParser@ATL@@IEAAJPEA_WPEAUHKEY__@@HH@Z 00000001800251e0 f i BillAcceptor.obj
 0001:00024fc0       ?Release@?$CComAggObject@VCOPOSBillAcceptor@@@ATL@@UEAAKXZ 0000000180025fc0 f i BillAcceptor.obj
 0001:00025070       ?Release@?$CComContainedObject@VCOPOSBillAcceptor@@@ATL@@UEAAKXZ 0000000180026070 f i BillAcceptor.obj
 0001:000250a8       ?Release@?$CComContainedObject@VCOPOSBillAcceptor@@@ATL@@WBAA@EAAKXZ 00000001800260a8 f i BillAcceptor.obj
 0001:000250b4       ?Release@?$CComContainedObject@VCOPOSBillAcceptor@@@ATL@@WBAI@EAAKXZ 00000001800260b4 f i BillAcceptor.obj
 0001:000250c0       ?Release@?$CComContainedObject@VCOPOSBillAcceptor@@@ATL@@WBBA@EAAKXZ 00000001800260c0 f i BillAcceptor.obj
 0001:000250cc       ?Release@?$CComContainedObject@VCOPOSBillAcceptor@@@ATL@@WBBI@EAAKXZ 00000001800260cc f i BillAcceptor.obj
 0001:000250d8       ?Release@?$CComContainedObject@VCOPOSBillAcceptor@@@ATL@@WBCI@EAAKXZ 00000001800260d8 f i BillAcceptor.obj
 0001:000250e4       ?Release@?$CComContainedObject@VCOPOSBillAcceptor@@@ATL@@WBEA@EAAKXZ 00000001800260e4 f i BillAcceptor.obj
 0001:000250f0       ?Release@?$CComContainedObject@VCOPOSBillAcceptor@@@ATL@@WLI@EAAKXZ 00000001800260f0 f i BillAcceptor.obj
 0001:000250fc       ?Release@?$CComContainedObject@VCOPOSBillAcceptor@@@ATL@@WMA@EAAKXZ 00000001800260fc f i BillAcceptor.obj
 0001:00025108       ?Release@?$CComContainedObject@VCOPOSBillAcceptor@@@ATL@@WMI@EAAKXZ 0000000180026108 f i BillAcceptor.obj
 0001:00025114       ?Release@?$CComContainedObject@VCOPOSBillAcceptor@@@ATL@@WNA@EAAKXZ 0000000180026114 f i BillAcceptor.obj
 0001:00025120       ?Release@?$CComContainedObject@VCOPOSBillAcceptor@@@ATL@@WNI@EAAKXZ 0000000180026120 f i BillAcceptor.obj
 0001:0002512c       ?Release@?$CComContainedObject@VCOPOSBillAcceptor@@@ATL@@WOA@EAAKXZ 000000018002612c f i BillAcceptor.obj
 0001:00025138       ?Release@?$CComContainedObject@VCOPOSBillAcceptor@@@ATL@@WOI@EAAKXZ 0000000180026138 f i BillAcceptor.obj
 0001:00025144       ?Release@?$CComContainedObject@VCOPOSBillAcceptor@@@ATL@@WPA@EAAKXZ 0000000180026144 f i BillAcceptor.obj
 0001:00025150       ?Release@?$CComContainedObject@VCOPOSBillAcceptor@@@ATL@@WPI@EAAKXZ 0000000180026150 f i BillAcceptor.obj
 0001:00025160       ?Release@?$CComObject@V?$CComEnum@UIEnumConnectionPoints@@$1?_GUID_b196b285_bab4_101a_b69c_00aa00341d07@@3U__s_GUID@@BPEAUIConnectionPoint@@V?$_CopyInterface@UIConnectionPoint@@@ATL@@VCComSingleThreadModel@6@@ATL@@@ATL@@UEAAKXZ 0000000180026160 f i BillAcceptor.obj
 0001:00025210       ?Release@?$CComObject@V?$CComEnum@UIEnumConnections@@$1?_GUID_b196b287_bab4_101a_b69c_00aa00341d07@@3U__s_GUID@@BUtagCONNECTDATA@@V?$_Copy@UtagCONNECTDATA@@@ATL@@VCComSingleThreadModel@6@@ATL@@@ATL@@UEAAKXZ 0000000180026210 f i BillAcceptor.obj
 0001:000252c0       ?Release@?$CComObject@VCOPOSBillAcceptor@@@ATL@@UEAAKXZ 00000001800262c0 f i BillAcceptor.obj
 0001:00025378       ?Release@?$CComObject@VCOPOSBillAcceptor@@@ATL@@WBAA@EAAKXZ 0000000180026378 f i BillAcceptor.obj
 0001:00025384       ?Release@?$CComObject@VCOPOSBillAcceptor@@@ATL@@WBAI@EAAKXZ 0000000180026384 f i BillAcceptor.obj
 0001:00025390       ?Release@?$CComObject@VCOPOSBillAcceptor@@@ATL@@WBBA@EAAKXZ 0000000180026390 f i BillAcceptor.obj
 0001:0002539c       ?Release@?$CComObject@VCOPOSBillAcceptor@@@ATL@@WBBI@EAAKXZ 000000018002639c f i BillAcceptor.obj
 0001:000253a8       ?Release@?$CComObject@VCOPOSBillAcceptor@@@ATL@@WBCI@EAAKXZ 00000001800263a8 f i BillAcceptor.obj
 0001:000253b4       ?Release@?$CComObject@VCOPOSBillAcceptor@@@ATL@@WBEA@EAAKXZ 00000001800263b4 f i BillAcceptor.obj
 0001:000253c0       ?Release@?$CComObject@VCOPOSBillAcceptor@@@ATL@@WLI@EAAKXZ 00000001800263c0 f i BillAcceptor.obj
 0001:000253cc       ?Release@?$CComObject@VCOPOSBillAcceptor@@@ATL@@WMA@EAAKXZ 00000001800263cc f i BillAcceptor.obj
 0001:000253d8       ?Release@?$CComObject@VCOPOSBillAcceptor@@@ATL@@WMI@EAAKXZ 00000001800263d8 f i BillAcceptor.obj
 0001:000253e4       ?Release@?$CComObject@VCOPOSBillAcceptor@@@ATL@@WNA@EAAKXZ 00000001800263e4 f i BillAcceptor.obj
 0001:000253f0       ?Release@?$CComObject@VCOPOSBillAcceptor@@@ATL@@WNI@EAAKXZ 00000001800263f0 f i BillAcceptor.obj
 0001:000253fc       ?Release@?$CComObject@VCOPOSBillAcceptor@@@ATL@@WOA@EAAKXZ 00000001800263fc f i BillAcceptor.obj
 0001:00025408       ?Release@?$CComObject@VCOPOSBillAcceptor@@@ATL@@WOI@EAAKXZ 0000000180026408 f i BillAcceptor.obj
 0001:00025414       ?Release@?$CComObject@VCOPOSBillAcceptor@@@ATL@@WPA@EAAKXZ 0000000180026414 f i BillAcceptor.obj
 0001:00025420       ?Release@?$CComObject@VCOPOSBillAcceptor@@@ATL@@WPI@EAAKXZ 0000000180026420 f i BillAcceptor.obj
 0001:00025430       ?Release@?$CComObjectCached@VCComClassFactory@ATL@@@ATL@@UEAAKXZ 0000000180026430 f i BillAcceptor.obj
 0001:000254d0       ?Release@?$CComPtrBase@UIAdviseSink@@@ATL@@QEAAXXZ 00000001800264d0 f i BillAcceptor.obj
 0001:00025530       ?Release@?$CComPtrBase@UIDispatch@@@ATL@@QEAAXXZ 0000000180026530 f i BillAcceptor.obj
 0001:00025590       ?Release@?$CComPtrBase@UIOleInPlaceSiteWindowless@@@ATL@@QEAAXXZ 0000000180026590 f i BillAcceptor.obj
 0001:000255f0       ?Release@CRegObject@ATL@@UEAAKXZ 00000001800265f0 f i BillAcceptor.obj
 0001:00025660       ?Remove@CComDynamicUnkArray@ATL@@QEAAHK@Z 0000000180026660 f i BillAcceptor.obj
 0001:00025740       ?RemoveAll@?$CSimpleMap@PEA_WPEA_WVCExpansionVectorEqualHelper@ATL@@@ATL@@QEAAXXZ 0000000180026740 f i BillAcceptor.obj
 0001:000257e0       ?Reset@?$CComEnumImpl@UIEnumConnectionPoints@@$1?_GUID_b196b285_bab4_101a_b69c_00aa00341d07@@3U__s_GUID@@BPEAUIConnectionPoint@@V?$_CopyInterface@UIConnectionPoint@@@ATL@@@ATL@@UEAAJXZ 00000001800267e0 f i BillAcceptor.obj
 0001:00025800       ?Reset@?$CComEnumImpl@UIEnumConnections@@$1?_GUID_b196b287_bab4_101a_b69c_00aa00341d07@@3U__s_GUID@@BUtagCONNECTDATA@@V?$_Copy@UtagCONNECTDATA@@@ATL@@@ATL@@UEAAJXZ 0000000180026800 f i BillAcceptor.obj
 0001:00025820       ?ResizeBorder@?$IOleInPlaceActiveObjectImpl@VCOPOSBillAcceptor@@@ATL@@UEAAJPEBUtagRECT@@PEAUIOleInPlaceUIWindow@@H@Z 0000000180026820 f i BillAcceptor.obj
 0001:000258a0       ?ResourceRegister@CRegObject@ATL@@QEAAJPEB_WI0@Z 00000001800268a0 f i BillAcceptor.obj
 0001:00025980       ?ResourceRegisterSz@CRegObject@ATL@@QEAAJPEB_W00@Z 0000000180026980 f i BillAcceptor.obj
 0001:00025aa0       ?ResourceUnregister@CRegObject@ATL@@QEAAJPEB_WI0@Z 0000000180026aa0 f i BillAcceptor.obj
 0001:00025b80       ?ResourceUnregisterSz@CRegObject@ATL@@QEAAJPEB_W00@Z 0000000180026b80 f i BillAcceptor.obj
 0001:00025ca0       ?SOData@COPOSBillAcceptor@@MEAAJJ@Z 0000000180026ca0 f i BillAcceptor.obj
 0001:00025d40       ?SODirectIO@COPOSBillAcceptor@@MEAAJJPEAJPEAPEA_W@Z 0000000180026d40 f i BillAcceptor.obj
 0001:00025f80       ?SOErrorDummy@COPOSBillAcceptor@@MEAAJJJJPEAJ@Z 0000000180026f80 f i BillAcceptor.obj
 0001:00025fa0       ?SOOutputCompleteDummy@COPOSBillAcceptor@@MEAAJJ@Z 0000000180026fa0 f i BillAcceptor.obj
 0001:00025fc0       ?SOStatusUpdate@COPOSBillAcceptor@@MEAAJJ@Z 0000000180026fc0 f i BillAcceptor.obj
 0001:00026060       ?Save@?$IPersistStorageImpl@VCOPOSBillAcceptor@@@ATL@@UEAAJPEAUIStorage@@H@Z 0000000180027060 f i BillAcceptor.obj
 0001:00026220       ?Save@?$IPersistStreamInitImpl@VCOPOSBillAcceptor@@@ATL@@UEAAJPEAUIStream@@H@Z 0000000180027220 f i BillAcceptor.obj
 0001:000262e0       ?SaveCompleted@?$IPersistStorageImpl@VCOPOSBillAcceptor@@@ATL@@UEAAJPEAUIStorage@@@Z 00000001800272e0 f i BillAcceptor.obj
 0001:00026350       ?SendOnDataChange@CComControlBase@ATL@@QEAAJK@Z 0000000180027350 f i BillAcceptor.obj
 0001:00026440       ?SendOnSave@CComControlBase@ATL@@QEAAJXZ 0000000180027440 f i BillAcceptor.obj
 0001:000264b0       ?SendOnViewChange@CComControlBase@ATL@@QEAAJKJ@Z 00000001800274b0 f i BillAcceptor.obj
 0001:00026530       ?SetAdvise@?$IViewObjectExImpl@VCOPOSBillAcceptor@@@ATL@@UEAAJKKPEAUIAdviseSink@@@Z 0000000180027530 f i BillAcceptor.obj
 0001:000265f0       ?SetClientSite@?$IOleObjectImpl@VCOPOSBillAcceptor@@@ATL@@UEAAJPEAUIOleClientSite@@@Z 00000001800275f0 f i BillAcceptor.obj
 0001:000266a0       ?SetColorScheme@?$IOleObjectImpl@VCOPOSBillAcceptor@@@ATL@@UEAAJPEAUtagLOGPALETTE@@@Z 00000001800276a0 f i BillAcceptor.obj
 0001:00026730       ?SetContentExtent@?$IQuickActivateImpl@VCOPOSBillAcceptor@@@ATL@@UEAAJPEAUtagSIZE@@@Z 0000000180027730 f i BillAcceptor.obj
 0001:000267f0       ?SetControlFocus@CComControlBase@ATL@@QEAAHH@Z 00000001800277f0 f i BillAcceptor.obj
 0001:00026980       ?SetDWORDValue@CRegKey@ATL@@QEAAJPEB_WK@Z 0000000180027980 f i BillAcceptor.obj
 0001:00026a30       ?SetData@?$IDataObjectImpl@VCOPOSBillAcceptor@@@ATL@@UEAAJPEAUtagFORMATETC@@PEAUtagSTGMEDIUM@@H@Z 0000000180027a30 f i BillAcceptor.obj
 0001:00026ac0       ?SetExtent@?$IOleObjectImpl@VCOPOSBillAcceptor@@@ATL@@UEAAJKPEAUtagSIZE@@@Z 0000000180027ac0 f i BillAcceptor.obj
 0001:00026b80       ?SetHostNames@?$IOleObjectImpl@VCOPOSBillAcceptor@@@ATL@@UEAAJPEB_W0@Z 0000000180027b80 f i BillAcceptor.obj
 0001:00026c00       ?SetInterfaceSafetyOptions@?$IObjectSafetyImpl@VCOPOSBillAcceptor@@$02@ATL@@UEAAJAEBU_GUID@@KK@Z 0000000180027c00 f i BillAcceptor.obj
 0001:00026da0       ?SetMoniker@?$IOleObjectImpl@VCOPOSBillAcceptor@@@ATL@@UEAAJKPEAUIMoniker@@@Z 0000000180027da0 f i BillAcceptor.obj
 0001:00026e30       ?SetMultiStringValue@CRegKey@ATL@@QEAAJPEB_W0@Z 0000000180027e30 f i BillAcceptor.obj
 0001:00026fa0       ?SetObjectRects@?$IOleInPlaceObjectWindowlessImpl@VCOPOSBillAcceptor@@@ATL@@UEAAJPEBUtagRECT@@0@Z 0000000180027fa0 f i BillAcceptor.obj
 0001:00027060       ?SetStringValue@CRegKey@ATL@@QEAAJPEB_W0K@Z 0000000180028060 f i BillAcceptor.obj
 0001:000271e0       ?SetVoid@CComClassFactory@ATL@@QEAAXPEAX@Z 00000001800281e0 f i BillAcceptor.obj
 0001:00027200       ?SetVoid@CComObjectRootBase@ATL@@QEAAXPEAX@Z 0000000180028200 f i BillAcceptor.obj
 0001:00027210       ?ShowWindow@CWindow@ATL@@QEAAHH@Z 0000000180028210 f i BillAcceptor.obj
 0001:000272a0       ?Skip@?$CComEnumImpl@UIEnumConnectionPoints@@$1?_GUID_b196b285_bab4_101a_b69c_00aa00341d07@@3U__s_GUID@@BPEAUIConnectionPoint@@V?$_CopyInterface@UIConnectionPoint@@@ATL@@@ATL@@UEAAJK@Z 00000001800282a0 f i BillAcceptor.obj
 0001:00027340       ?Skip@?$CComEnumImpl@UIEnumConnections@@$1?_GUID_b196b287_bab4_101a_b69c_00aa00341d07@@3U__s_GUID@@BUtagCONNECTDATA@@V?$_Copy@UtagCONNECTDATA@@@ATL@@@ATL@@UEAAJK@Z 0000000180028340 f i BillAcceptor.obj
 0001:000273e0       ?SkipAssignment@CRegParser@ATL@@IEAAJPEA_W@Z 00000001800283e0 f i BillAcceptor.obj
 0001:000274e0       ?SkipWhiteSpace@CRegParser@ATL@@IEAAXXZ 00000001800284e0 f i BillAcceptor.obj
 0001:00027540       ?StartWindowProc@?$CWindowImplBaseT@VCWindow@ATL@@V?$CWinTraits@$0FGAAAAAA@$0A@@2@@ATL@@SA_JPEAUHWND__@@I_K_J@Z 0000000180028540 f i BillAcceptor.obj
 0001:000276b0       ?StrChrW@CRegParser@ATL@@KAPEA_WPEA_W_W@Z 00000001800286b0 f i BillAcceptor.obj
 0001:00027730       ?StrFromMap@CRegObject@ATL@@QEAAPEB_WPEA_W@Z 0000000180028730 f i BillAcceptor.obj
 0001:000277f0       ?Swap@?$CComPtrBase@UIAdviseSink@@@ATL@@IEAAXAEAV12@@Z 00000001800287f0 f i BillAcceptor.obj
 0001:00027850       ?Swap@?$CComPtrBase@UIOleClientSite@@@ATL@@IEAAXAEAV12@@Z 0000000180028850 f i BillAcceptor.obj
 0001:000278b0       ?Swap@?$CComPtrBase@UIUnknown@@@ATL@@IEAAXAEAV12@@Z 00000001800288b0 f i BillAcceptor.obj
 0001:00027910       ?T2COLE_EX@@YAPEB_WPEB_WI@Z 0000000180028910 f i BillAcceptor.obj
 0001:00027930       ?T2OLE_EX@@YAPEA_WPEA_WI@Z 0000000180028930 f i BillAcceptor.obj
 0001:00027950       ?Term@CAtlModule@ATL@@QEAAXXZ 0000000180028950 f i BillAcceptor.obj
 0001:00027a10       ?Term@CComModule@ATL@@QEAAXXZ 0000000180028a10 f i BillAcceptor.obj
 0001:00027b00       ?TranslateAcceleratorW@?$IOleInPlaceActiveObjectImpl@VCOPOSBillAcceptor@@@ATL@@UEAAJPEAUtagMSG@@@Z 0000000180028b00 f i BillAcceptor.obj
 0001:00027d70       ?UIDeactivate@?$IOleInPlaceObjectWindowlessImpl@VCOPOSBillAcceptor@@@ATL@@UEAAJXZ 0000000180028d70 f i BillAcceptor.obj
 0001:00027e20       ?Unadvise@?$CProxy_IOPOSEvents@VCOPOSBillAcceptor@@@@UEAAJK@Z 0000000180028e20 f i BillAcceptor.obj
 0001:00027e70       ?Unadvise@?$IConnectionPointImpl@VCOPOSBillAcceptor@@$1?DIID__IOPOSBillAcceptorEvents@@3U_GUID@@BVCComDynamicUnkArray@ATL@@@ATL@@UEAAJK@Z 0000000180028e70 f i BillAcceptor.obj
 0001:00027f60       ?Unadvise@?$IConnectionPointImpl@VCOPOSBillAcceptor@@$1?IID_IPropertyNotifySink@@3U_GUID@@BVCComDynamicUnkArray@ATL@@@ATL@@UEAAJK@Z 0000000180028f60 f i BillAcceptor.obj
 0001:00028050       ?Unadvise@?$IOleObjectImpl@VCOPOSBillAcceptor@@@ATL@@UEAAJK@Z 0000000180029050 f i BillAcceptor.obj
 0001:00028140       ?Unfreeze@?$IViewObjectExImpl@VCOPOSBillAcceptor@@@ATL@@UEAAJK@Z 0000000180029140 f i BillAcceptor.obj
 0001:000281c0       ?Unlock@?$CComCritSecLock@VCComCriticalSection@ATL@@@ATL@@QEAAXXZ 00000001800291c0 f i BillAcceptor.obj
 0001:00028250       ?Unlock@?$CComObjectRootEx@VCComSingleThreadModel@ATL@@@ATL@@QEAAXXZ 0000000180029250 f i BillAcceptor.obj
 0001:00028260       ?Unlock@CAtlModule@ATL@@UEAAJXZ 0000000180029260 f i BillAcceptor.obj
 0001:000282a0       ?Unlock@CComCriticalSection@ATL@@QEAAJXZ 00000001800292a0 f i BillAcceptor.obj
 0001:000282e0       ?Unlock@CComFakeCriticalSection@ATL@@QEAAJXZ 00000001800292e0 f i BillAcceptor.obj
 0001:000282f0       ?UnregisterServer@?$CAtlModuleT@VCComModule@ATL@@@ATL@@QEAAJHPEBU_GUID@@@Z 00000001800292f0 f i BillAcceptor.obj
 0001:00028360       ?UnregisterServer@CAtlComModule@ATL@@QEAAJHPEBU_GUID@@@Z 0000000180029360 f i BillAcceptor.obj
 0001:000283a0       ?UnregisterServer@CComModule@ATL@@QEAAJHPEBU_GUID@@@Z 00000001800293a0 f i BillAcceptor.obj
 0001:00028490       ?Update@?$IOleObjectImpl@VCOPOSBillAcceptor@@@ATL@@UEAAJXZ 0000000180029490 f i BillAcceptor.obj
 0001:00028500       ?UpdateRegistryFromResource@CAtlModule@ATL@@QEAAJIHPEAU_ATL_REGMAP_ENTRY@2@@Z 0000000180029500 f i BillAcceptor.obj
 0001:00028a30       ?UpdateRegistryFromResource@CAtlModule@ATL@@QEAAJPEB_WHPEAU_ATL_REGMAP_ENTRY@2@@Z 0000000180029a30 f i BillAcceptor.obj
 0001:00028f80       ?UpdateRegistryFromResource@CComModule@ATL@@UEAAJIHPEAU_ATL_REGMAP_ENTRY@2@@Z 0000000180029f80 f i BillAcceptor.obj
 0001:00028fd0       ?UpdateRegistryFromResource@CComModule@ATL@@UEAAJPEB_WHPEAU_ATL_REGMAP_ENTRY@2@@Z 0000000180029fd0 f i BillAcceptor.obj
 0001:00029020       ?UpdateRegistryFromResourceD@CComModule@ATL@@UEAAJIHPEAU_ATL_REGMAP_ENTRY@2@@Z 000000018002a020 f i BillAcceptor.obj
 0001:00029040       ?UpdateRegistryFromResourceD@CComModule@ATL@@UEAAJPEB_WHPEAU_ATL_REGMAP_ENTRY@2@@Z 000000018002a040 f i BillAcceptor.obj
 0001:00029060       ?VTFromRegType@CRegParser@ATL@@KAHPEB_WAEAG@Z 000000018002a060 f i BillAcceptor.obj
 0001:00029140       ?WindowProc@?$CWindowImplBaseT@VCWindow@ATL@@V?$CWinTraits@$0FGAAAAAA@$0A@@2@@ATL@@SA_JPEAUHWND__@@I_K_J@Z 000000018002a140 f i BillAcceptor.obj
 0001:00029420       ?WriteToStream@CComBSTR@ATL@@QEAAJPEAUIStream@@@Z 000000018002a420 f i BillAcceptor.obj
 0001:00029590       ?WriteToStream@CComVariant@ATL@@QEAAJPEAUIStream@@@Z 000000018002a590 f i BillAcceptor.obj
 0001:000299a0       ?WriteToStream@CComVariant@ATL@@QEAAJPEAUIStream@@G@Z 000000018002a9a0 f i BillAcceptor.obj
 0001:00029a80       ?_AtlFinalConstruct@CComObjectRootBase@ATL@@QEAAJXZ 000000018002aa80 f i BillAcceptor.obj
 0001:00029a90       ?_AtlGetConversionACP@ATL@@YAIXZ 000000018002aa90 f i BillAcceptor.obj
 0001:00029aa0       ?_AtlInitialConstruct@?$CComAggObject@VCOPOSBillAcceptor@@@ATL@@QEAAJXZ 000000018002aaa0 f i BillAcceptor.obj
 0001:00029b00       ?_AtlInitialConstruct@?$CComObjectRootEx@VCComMultiThreadModel@ATL@@@ATL@@QEAAJXZ 000000018002ab00 f i BillAcceptor.obj
 0001:00029b40       ?_AtlInitialConstruct@?$CComObjectRootEx@VCComSingleThreadModel@ATL@@@ATL@@QEAAJXZ 000000018002ab40 f i BillAcceptor.obj
 0001:00029b50       ?_AtlVerifyStackAvailable@_ATL_SAFE_ALLOCA_IMPL@ATL@@YA_N_K@Z 000000018002ab50 f i BillAcceptor.obj
 0001:00029cb0       ?_GetEntries@?$CComEnum@UIEnumConnectionPoints@@$1?_GUID_b196b285_bab4_101a_b69c_00aa00341d07@@3U__s_GUID@@BPEAUIConnectionPoint@@V?$_CopyInterface@UIConnectionPoint@@@ATL@@VCComSingleThreadModel@6@@ATL@@SAPEBU_ATL_INTMAP_ENTRY@2@XZ 000000018002acb0 f i BillAcceptor.obj
 0001:00029cd0       ?_GetEntries@?$CComEnum@UIEnumConnections@@$1?_GUID_b196b287_bab4_101a_b69c_00aa00341d07@@3U__s_GUID@@BUtagCONNECTDATA@@V?$_Copy@UtagCONNECTDATA@@@ATL@@VCComSingleThreadModel@6@@ATL@@SAPEBU_ATL_INTMAP_ENTRY@2@XZ 000000018002acd0 f i BillAcceptor.obj
 0001:00029cf0       ?_GetEntries@CComClassFactory@ATL@@SAPEBU_ATL_INTMAP_ENTRY@2@XZ 000000018002acf0 f i BillAcceptor.obj
 0001:00029d10       ?_GetEntries@COPOSBillAcceptor@@SAPEBU_ATL_INTMAP_ENTRY@ATL@@XZ 000000018002ad10 f i BillAcceptor.obj
 0001:00029d30       ?_GetRawUnknown@COPOSBillAcceptor@@QEAAPEAUIUnknown@@XZ 000000018002ad30 f i BillAcceptor.obj
 0001:00029dc0       ?_GetViewStatus@COPOSBillAcceptor@@QEAAKXZ 000000018002adc0 f i BillAcceptor.obj
 0001:00029dd0       ?_InternalQueryInterface@?$CComEnum@UIEnumConnectionPoints@@$1?_GUID_b196b285_bab4_101a_b69c_00aa00341d07@@3U__s_GUID@@BPEAUIConnectionPoint@@V?$_CopyInterface@UIConnectionPoint@@@ATL@@VCComSingleThreadModel@6@@ATL@@QEAAJAEBU_GUID@@PEAPEAX@Z 000000018002add0 f i BillAcceptor.obj
 0001:00029e20       ?_InternalQueryInterface@?$CComEnum@UIEnumConnections@@$1?_GUID_b196b287_bab4_101a_b69c_00aa00341d07@@3U__s_GUID@@BUtagCONNECTDATA@@V?$_Copy@UtagCONNECTDATA@@@ATL@@VCComSingleThreadModel@6@@ATL@@QEAAJAEBU_GUID@@PEAPEAX@Z 000000018002ae20 f i BillAcceptor.obj
 0001:00029e70       ?_InternalQueryInterface@CComClassFactory@ATL@@QEAAJAEBU_GUID@@PEAPEAX@Z 000000018002ae70 f i BillAcceptor.obj
 0001:00029ec0       ?_InternalQueryInterface@COPOSBillAcceptor@@QEAAJAEBU_GUID@@PEAPEAX@Z 000000018002aec0 f i BillAcceptor.obj
 0001:00029f10       ?_LocCPQueryInterface@?$IConnectionPointImpl@VCOPOSBillAcceptor@@$1?DIID__IOPOSBillAcceptorEvents@@3U_GUID@@BVCComDynamicUnkArray@ATL@@@ATL@@UEAAJAEBU_GUID@@PEAPEAX@Z 000000018002af10 f i BillAcceptor.obj
 0001:00029ff0       ?_LocCPQueryInterface@?$IConnectionPointImpl@VCOPOSBillAcceptor@@$1?IID_IPropertyNotifySink@@3U_GUID@@BVCComDynamicUnkArray@ATL@@@ATL@@UEAAJAEBU_GUID@@PEAPEAX@Z 000000018002aff0 f i BillAcceptor.obj
 0001:0002a0d0       ?atlCreate@?$CWindowImpl@VCOPOSBillAcceptor@@VCWindow@ATL@@V?$CWinTraits@$0FGAAAAAA@$0A@@3@@ATL@@QEAAPEAUHWND__@@PEAU3@V_U_RECT@2@PEB_WKKV_U_MENUorID@2@PEAX@Z 000000018002b0d0 f i BillAcceptor.obj
 0001:0002a200       ?atlCreate@?$CWindowImplBaseT@VCWindow@ATL@@V?$CWinTraits@$0FGAAAAAA@$0A@@2@@ATL@@QEAAPEAUHWND__@@PEAU3@V_U_RECT@2@PEB_WKKV_U_MENUorID@2@GPEAX@Z 000000018002b200 f i BillAcceptor.obj
 0001:0002a460       ?atlCreate@CRegKey@ATL@@QEAAJPEAUHKEY__@@PEB_WPEA_WKKPEAU_SECURITY_ATTRIBUTES@@PEAK@Z 000000018002b460 f i BillAcceptor.obj
 0001:0002a650       ?begin@CComDynamicUnkArray@ATL@@QEAAPEAPEAUIUnknown@@XZ 000000018002b650 f i BillAcceptor.obj
 0001:0002a660       ?copy@?$_Copy@UtagCONNECTDATA@@@ATL@@SAJPEAUtagCONNECTDATA@@PEBU3@@Z 000000018002b660 f i BillAcceptor.obj
 0001:0002a750       ?copy@?$_CopyInterface@UIConnectionPoint@@@ATL@@SAJPEAPEAUIConnectionPoint@@PEBQEAU3@@Z 000000018002b750 f i BillAcceptor.obj
 0001:0002a840       ?destroy@?$_Copy@UtagCONNECTDATA@@@ATL@@SAXPEAUtagCONNECTDATA@@@Z 000000018002b840 f i BillAcceptor.obj
 0001:0002a890       ?destroy@?$_CopyInterface@UIConnectionPoint@@@ATL@@SAXPEAPEAUIConnectionPoint@@@Z 000000018002b890 f i BillAcceptor.obj
 0001:0002a8e0       ?end@CComDynamicUnkArray@ATL@@QEAAPEAPEAUIUnknown@@XZ 000000018002b8e0 f i BillAcceptor.obj
 0001:0002a900       ?init@?$_Copy@UtagCONNECTDATA@@@ATL@@SAXPEAUtagCONNECTDATA@@@Z 000000018002b900 f i BillAcceptor.obj
 0001:0002a910       ?init@?$_CopyInterface@UIConnectionPoint@@@ATL@@SAXPEAPEAUIConnectionPoint@@@Z 000000018002b910 f i BillAcceptor.obj
 0001:0002a920       ?memcpy_s@Checked@ATL@@YAXPEAX_KPEBX1@Z 000000018002b920 f i BillAcceptor.obj
 0001:0002a980       ?ocscpy_s@@YA_NPEA_W_KPEB_W@Z 000000018002b980 f i BillAcceptor.obj
 0001:0002aa00       ?ocslen@@YAHPEB_W@Z        000000018002ba00 f i BillAcceptor.obj
 0001:0002aa40       ?tcsncpy_s@Checked@ATL@@YAHPEA_W_KPEB_W1@Z 000000018002ba40 f i BillAcceptor.obj
 0001:0002aaa0       ?wcscat_s@Checked@ATL@@YAXPEA_W_KPEB_W@Z 000000018002baa0 f i BillAcceptor.obj
 0001:0002aaf0       ?wcscpy_s@Checked@ATL@@YAXPEA_W_KPEB_W@Z 000000018002baf0 f i BillAcceptor.obj
 0001:0002ab40       ?wcsncpy_s@Checked@ATL@@YAHPEA_W_KPEB_W1@Z 000000018002bb40 f i BillAcceptor.obj
 0001:0002aba0       ?wcsstr@@YAPEA_WPEA_WPEB_W@Z 000000018002bba0 f i BillAcceptor.obj
 0001:0002abe0       InlineIsEqualGUID          000000018002bbe0 f i BillAcceptor.obj
 0001:0002acb0       IsEqualGUID                000000018002bcb0 f i BillAcceptor.obj
 0001:0002ad10       ??0COPOSBillAcceptor@@QEAA@XZ 000000018002bd10 f   BillAcceptorImpl.obj
 0001:0002ae90       ?FinalConstruct@COPOSBillAcceptor@@QEAAJXZ 000000018002be90 f   BillAcceptorImpl.obj
 0001:0002af80       ??1COPOSBillAcceptor@@UEAA@XZ 000000018002bf80 f   BillAcceptorImpl.obj
 0001:0002b060       ?WriteTrace@COPOSBillAcceptor@@QEAAXPEB_WZZ 000000018002c060 f   BillAcceptorImpl.obj
 0001:0002b120       ?WriteTraceString@COPOSBillAcceptor@@QEAAXPEB_WPEA_W@Z 000000018002c120 f   BillAcceptorImpl.obj
 0001:0002b560       ?WriteTraceString@COPOSBillAcceptor@@QEAAXPEAXHHHPEB_WZZ 000000018002c560 f   BillAcceptorImpl.obj
 0001:0002b7f0       ?WriteTraceError@COPOSBillAcceptor@@QEAAXPEB_WK@Z 000000018002c7f0 f   BillAcceptorImpl.obj
 0001:0002b8f0       ?WriteTraceMethods@COPOSBillAcceptor@@QEAAXPEAJH@Z 000000018002c8f0 f   BillAcceptorImpl.obj
 0001:0002b980       ?GetOposProp@COPOSBillAcceptor@@IEAAJPEBDJPEAJJ@Z 000000018002c980 f   BillAcceptorImpl.obj
 0001:0002bca0       ?SetOposProp@COPOSBillAcceptor@@IEAAJPEBDJJJ@Z 000000018002cca0 f   BillAcceptorImpl.obj
 0001:0002c000       ?GetOposProp@COPOSBillAcceptor@@IEAAJPEBDJPEAFJ@Z 000000018002d000 f   BillAcceptorImpl.obj
 0001:0002c0a0       ?SetOposProp@COPOSBillAcceptor@@IEAAJPEBDJFJ@Z 000000018002d0a0 f   BillAcceptorImpl.obj
 0001:0002c120       ?GetOposProp@COPOSBillAcceptor@@IEAAJPEBDJPEAPEA_WJ@Z 000000018002d120 f   BillAcceptorImpl.obj
 0001:0002c440       ?SetOposProp@COPOSBillAcceptor@@IEAAJPEBDJPEA_WJ@Z 000000018002d440 f   BillAcceptorImpl.obj
 0001:0002c820       ?DoInvoke@COPOSBillAcceptor@@IEAAJPEBDJPEAVOposVariant@@IHPEAJ_N@Z 000000018002d820 f   BillAcceptorImpl.obj
 0001:0002d370       ?SetCOFreezeEvents@COPOSBillAcceptor@@IEAAXF@Z 000000018002e370 f   BillAcceptorImpl.obj
 0001:0002d500       ?FreezeEvents@COPOSBillAcceptor@@MEAAJH@Z 000000018002e500 f   BillAcceptorImpl.obj
 0001:0002d630       ?OnDraw@COPOSBillAcceptor@@MEAAJAEAUATL_DRAWINFO@@@Z 000000018002e630 f   BillAcceptorImpl.obj
 0001:0002d800       ?SOProcessID@COPOSBillAcceptor@@UEAAJPEAJ@Z 000000018002e800 f   BillAcceptorImpl.obj
 0001:0002d860       ?get_OpenResult@COPOSBillAcceptor@@UEAAJPEAJ@Z 000000018002e860 f   BillAcceptorImpl.obj
 0001:0002d8c0       ?get_BinaryConversion@COPOSBillAcceptor@@UEAAJPEAJ@Z 000000018002e8c0 f   BillAcceptorImpl.obj
 0001:0002d920       ?put_BinaryConversion@COPOSBillAcceptor@@UEAAJJ@Z 000000018002e920 f   BillAcceptorImpl.obj
 0001:0002d990       ?get_CapPowerReporting@COPOSBillAcceptor@@UEAAJPEAJ@Z 000000018002e990 f   BillAcceptorImpl.obj
 0001:0002d9f0       ?get_CheckHealthText@COPOSBillAcceptor@@UEAAJPEAPEA_W@Z 000000018002e9f0 f   BillAcceptorImpl.obj
 0001:0002da50       ?get_Claimed@COPOSBillAcceptor@@UEAAJPEAF@Z 000000018002ea50 f   BillAcceptorImpl.obj
 0001:0002dab0       ?get_DataCount@COPOSBillAcceptor@@UEAAJPEAJ@Z 000000018002eab0 f   BillAcceptorImpl.obj
 0001:0002db10       ?get_DataEventEnabled@COPOSBillAcceptor@@UEAAJPEAF@Z 000000018002eb10 f   BillAcceptorImpl.obj
 0001:0002db70       ?put_DataEventEnabled@COPOSBillAcceptor@@UEAAJF@Z 000000018002eb70 f   BillAcceptorImpl.obj
 0001:0002dbd0       ?get_DeviceEnabled@COPOSBillAcceptor@@UEAAJPEAF@Z 000000018002ebd0 f   BillAcceptorImpl.obj
 0001:0002dc30       ?put_DeviceEnabled@COPOSBillAcceptor@@UEAAJF@Z 000000018002ec30 f   BillAcceptorImpl.obj
 0001:0002dc90       ?get_FreezeEvents@COPOSBillAcceptor@@UEAAJPEAF@Z 000000018002ec90 f   BillAcceptorImpl.obj
 0001:0002dcf0       ?put_FreezeEvents@COPOSBillAcceptor@@UEAAJF@Z 000000018002ecf0 f   BillAcceptorImpl.obj
 0001:0002ddd0       ?get_PowerNotify@COPOSBillAcceptor@@UEAAJPEAJ@Z 000000018002edd0 f   BillAcceptorImpl.obj
 0001:0002de30       ?put_PowerNotify@COPOSBillAcceptor@@UEAAJJ@Z 000000018002ee30 f   BillAcceptorImpl.obj
 0001:0002de90       ?get_PowerState@COPOSBillAcceptor@@UEAAJPEAJ@Z 000000018002ee90 f   BillAcceptorImpl.obj
 0001:0002def0       ?get_ResultCode@COPOSBillAcceptor@@UEAAJPEAJ@Z 000000018002eef0 f   BillAcceptorImpl.obj
 0001:0002dfc0       ?get_ResultCodeExtended@COPOSBillAcceptor@@UEAAJPEAJ@Z 000000018002efc0 f   BillAcceptorImpl.obj
 0001:0002e020       ?get_State@COPOSBillAcceptor@@UEAAJPEAJ@Z 000000018002f020 f   BillAcceptorImpl.obj
 0001:0002e0b0       ?get_ControlObjectDescription@COPOSBillAcceptor@@UEAAJPEAPEA_W@Z 000000018002f0b0 f   BillAcceptorImpl.obj
 0001:0002e130       ?get_ControlObjectVersion@COPOSBillAcceptor@@UEAAJPEAJ@Z 000000018002f130 f   BillAcceptorImpl.obj
 0001:0002e190       ?get_ServiceObjectDescription@COPOSBillAcceptor@@UEAAJPEAPEA_W@Z 000000018002f190 f   BillAcceptorImpl.obj
 0001:0002e1f0       ?get_ServiceObjectVersion@COPOSBillAcceptor@@UEAAJPEAJ@Z 000000018002f1f0 f   BillAcceptorImpl.obj
 0001:0002e250       ?get_DeviceDescription@COPOSBillAcceptor@@UEAAJPEAPEA_W@Z 000000018002f250 f   BillAcceptorImpl.obj
 0001:0002e2b0       ?get_DeviceName@COPOSBillAcceptor@@UEAAJPEAPEA_W@Z 000000018002f2b0 f   BillAcceptorImpl.obj
 0001:0002e310       ?get_CapStatisticsReporting@COPOSBillAcceptor@@UEAAJPEAF@Z 000000018002f310 f   BillAcceptorImpl.obj
 0001:0002e370       ?get_CapUpdateStatistics@COPOSBillAcceptor@@UEAAJPEAF@Z 000000018002f370 f   BillAcceptorImpl.obj
 0001:0002e3d0       ?get_CapCompareFirmwareVersion@COPOSBillAcceptor@@UEAAJPEAF@Z 000000018002f3d0 f   BillAcceptorImpl.obj
 0001:0002e430       ?get_CapUpdateFirmware@COPOSBillAcceptor@@UEAAJPEAF@Z 000000018002f430 f   BillAcceptorImpl.obj
 0001:0002e490       ?CheckHealth@COPOSBillAcceptor@@UEAAJJPEAJ@Z 000000018002f490 f   BillAcceptorImpl.obj
 0001:0002e550       ?ClaimDevice@COPOSBillAcceptor@@UEAAJJPEAJ@Z 000000018002f550 f   BillAcceptorImpl.obj
 0001:0002e670       ?ClearInput@COPOSBillAcceptor@@UEAAJPEAJ@Z 000000018002f670 f   BillAcceptorImpl.obj
 0001:0002e6e0       ?Close@COPOSBillAcceptor@@UEAAJPEAJ@Z 000000018002f6e0 f   BillAcceptorImpl.obj
 0001:0002e7f0       ?DirectIO@COPOSBillAcceptor@@UEAAJJPEAJPEAPEA_W0@Z 000000018002f7f0 f   BillAcceptorImpl.obj
 0001:0002e970       ?Open@COPOSBillAcceptor@@UEAAJPEA_WPEAJ@Z 000000018002f970 f   BillAcceptorImpl.obj
 0001:0002fe50       ?ReleaseDevice@COPOSBillAcceptor@@UEAAJPEAJ@Z 0000000180030e50 f   BillAcceptorImpl.obj
 0001:0002ff00       ?ResetStatistics@COPOSBillAcceptor@@UEAAJPEA_WPEAJ@Z 0000000180030f00 f   BillAcceptorImpl.obj
 0001:0002ffe0       ?RetrieveStatistics@COPOSBillAcceptor@@UEAAJPEAPEA_WPEAJ@Z 0000000180030fe0 f   BillAcceptorImpl.obj
 0001:000300c0       ?UpdateStatistics@COPOSBillAcceptor@@UEAAJPEA_WPEAJ@Z 00000001800310c0 f   BillAcceptorImpl.obj
 0001:000301a0       ?CompareFirmwareVersion@COPOSBillAcceptor@@UEAAJPEA_WPEAJ1@Z 00000001800311a0 f   BillAcceptorImpl.obj
 0001:000302e0       ?UpdateFirmware@COPOSBillAcceptor@@UEAAJPEA_WPEAJ@Z 00000001800312e0 f   BillAcceptorImpl.obj
 0001:000303c0       ?get_CapDiscrepancy@COPOSBillAcceptor@@UEAAJPEAF@Z 00000001800313c0 f   BillAcceptorImpl.obj
 0001:00030420       ?get_CapFullSensor@COPOSBillAcceptor@@UEAAJPEAF@Z 0000000180031420 f   BillAcceptorImpl.obj
 0001:00030480       ?get_CapJamSensor@COPOSBillAcceptor@@UEAAJPEAF@Z 0000000180031480 f   BillAcceptorImpl.obj
 0001:000304e0       ?get_CapNearFullSensor@COPOSBillAcceptor@@UEAAJPEAF@Z 00000001800314e0 f   BillAcceptorImpl.obj
 0001:00030540       ?get_CapPauseDeposit@COPOSBillAcceptor@@UEAAJPEAF@Z 0000000180031540 f   BillAcceptorImpl.obj
 0001:000305a0       ?get_CapRealTimeData@COPOSBillAcceptor@@UEAAJPEAF@Z 00000001800315a0 f   BillAcceptorImpl.obj
 0001:00030600       ?get_CurrencyCode@COPOSBillAcceptor@@UEAAJPEAPEA_W@Z 0000000180031600 f   BillAcceptorImpl.obj
 0001:00030660       ?put_CurrencyCode@COPOSBillAcceptor@@UEAAJPEA_W@Z 0000000180031660 f   BillAcceptorImpl.obj
 0001:000306c0       ?get_DepositAmount@COPOSBillAcceptor@@UEAAJPEAJ@Z 00000001800316c0 f   BillAcceptorImpl.obj
 0001:00030720       ?get_DepositCashList@COPOSBillAcceptor@@UEAAJPEAPEA_W@Z 0000000180031720 f   BillAcceptorImpl.obj
 0001:00030780       ?get_DepositCodeList@COPOSBillAcceptor@@UEAAJPEAPEA_W@Z 0000000180031780 f   BillAcceptorImpl.obj
 0001:000307e0       ?get_DepositCounts@COPOSBillAcceptor@@UEAAJPEAPEA_W@Z 00000001800317e0 f   BillAcceptorImpl.obj
 0001:00030840       ?get_DepositStatus@COPOSBillAcceptor@@UEAAJPEAJ@Z 0000000180031840 f   BillAcceptorImpl.obj
 0001:000308a0       ?get_FullStatus@COPOSBillAcceptor@@UEAAJPEAJ@Z 00000001800318a0 f   BillAcceptorImpl.obj
 0001:00030900       ?get_RealTimeDataEnabled@COPOSBillAcceptor@@UEAAJPEAF@Z 0000000180031900 f   BillAcceptorImpl.obj
 0001:00030960       ?put_RealTimeDataEnabled@COPOSBillAcceptor@@UEAAJF@Z 0000000180031960 f   BillAcceptorImpl.obj
 0001:000309c0       ?AdjustCashCounts@COPOSBillAcceptor@@UEAAJPEA_WPEAJ@Z 00000001800319c0 f   BillAcceptorImpl.obj
 0001:00030aa0       ?BeginDeposit@COPOSBillAcceptor@@UEAAJPEAJ@Z 0000000180031aa0 f   BillAcceptorImpl.obj
 0001:00030b10       ?EndDeposit@COPOSBillAcceptor@@UEAAJJPEAJ@Z 0000000180031b10 f   BillAcceptorImpl.obj
 0001:00030bd0       ?FixDeposit@COPOSBillAcceptor@@UEAAJPEAJ@Z 0000000180031bd0 f   BillAcceptorImpl.obj
 0001:00030c40       ?PauseDeposit@COPOSBillAcceptor@@UEAAJJPEAJ@Z 0000000180031c40 f   BillAcceptorImpl.obj
 0001:00030d00       ?ReadCashCounts@COPOSBillAcceptor@@UEAAJPEAPEA_WPEAFPEAJ@Z 0000000180031d00 f   BillAcceptorImpl.obj
 0001:00030e30       ??0?$CComControl@VCOPOSBillAcceptor@@V?$CWindowImpl@VCOPOSBillAcceptor@@VCWindow@ATL@@V?$CWinTraits@$0FGAAAAAA@$0A@@3@@ATL@@@ATL@@QEAA@XZ 0000000180031e30 f i BillAcceptorImpl.obj
 0001:00030e80       ??0?$CComPtr@UIAdviseSink@@@ATL@@QEAA@XZ 0000000180031e80 f i BillAcceptorImpl.obj
 0001:00030ec0       ??0?$CComPtr@UIDataAdviseHolder@@@ATL@@QEAA@XZ 0000000180031ec0 f i BillAcceptorImpl.obj
 0001:00030f00       ??0?$CComPtr@UIOleAdviseHolder@@@ATL@@QEAA@XZ 0000000180031f00 f i BillAcceptorImpl.obj
 0001:00030f40       ??0?$CComPtr@UIOleClientSite@@@ATL@@QEAA@XZ 0000000180031f40 f i BillAcceptorImpl.obj
 0001:00030f80       ??0?$CComPtr@UIOleInPlaceSiteWindowless@@@ATL@@QEAA@XZ 0000000180031f80 f i BillAcceptorImpl.obj
 0001:00030fc0       ??0?$CComPtrBase@UIAdviseSink@@@ATL@@IEAA@XZ 0000000180031fc0 f i BillAcceptorImpl.obj
 0001:00030fe0       ??0?$CComPtrBase@UIDataAdviseHolder@@@ATL@@IEAA@XZ 0000000180031fe0 f i BillAcceptorImpl.obj
 0001:00031000       ??0?$CComPtrBase@UIOleAdviseHolder@@@ATL@@IEAA@XZ 0000000180032000 f i BillAcceptorImpl.obj
 0001:00031020       ??0?$CComPtrBase@UIOleClientSite@@@ATL@@IEAA@XZ 0000000180032020 f i BillAcceptorImpl.obj
 0001:00031040       ??0?$CComPtrBase@UIOleInPlaceSiteWindowless@@@ATL@@IEAA@XZ 0000000180032040 f i BillAcceptorImpl.obj
 0001:00031060       ??0?$CComQIPtr@UIDispatch@@$1?_GUID_00020400_0000_0000_c000_000000000046@@3U__s_GUID@@B@ATL@@QEAA@XZ 0000000180032060 f i BillAcceptorImpl.obj
 0001:000310a0       ??0?$CProxy_IOPOSEvents@VCOPOSBillAcceptor@@@@QEAA@PEAVCOPOSBillAcceptor@@@Z 00000001800320a0 f i BillAcceptorImpl.obj
 0001:00031120       ??0?$CWindowImpl@VCOPOSBillAcceptor@@VCWindow@ATL@@V?$CWinTraits@$0FGAAAAAA@$0A@@3@@ATL@@QEAA@XZ 0000000180032120 f i BillAcceptorImpl.obj
 0001:00031160       ??0?$CWindowImplBaseT@VCWindow@ATL@@V?$CWinTraits@$0FGAAAAAA@$0A@@2@@ATL@@QEAA@XZ 0000000180032160 f i BillAcceptorImpl.obj
 0001:000311b0       ??0?$CWindowImplRoot@VCWindow@ATL@@@ATL@@QEAA@XZ 00000001800321b0 f i BillAcceptorImpl.obj
 0001:00031220       ??0?$IConnectionPointContainerImpl@VCOPOSBillAcceptor@@@ATL@@QEAA@XZ 0000000180032220 f i BillAcceptorImpl.obj
 0001:00031260       ??0?$IConnectionPointImpl@VCOPOSBillAcceptor@@$1?DIID__IOPOSBillAcceptorEvents@@3U_GUID@@BVCComDynamicUnkArray@ATL@@@ATL@@QEAA@XZ 0000000180032260 f i BillAcceptorImpl.obj
 0001:000312b0       ??0?$IConnectionPointImpl@VCOPOSBillAcceptor@@$1?IID_IPropertyNotifySink@@3U_GUID@@BVCComDynamicUnkArray@ATL@@@ATL@@QEAA@XZ 00000001800322b0 f i BillAcceptorImpl.obj
 0001:00031300       ??0?$IDataObjectImpl@VCOPOSBillAcceptor@@@ATL@@QEAA@XZ 0000000180032300 f i BillAcceptorImpl.obj
 0001:00031340       ??0?$IDispatchImpl@UIOPOSBillAcceptor@@$1?IID_IOPOSBillAcceptor@@3U_GUID@@B$1?LIBID_OposBillAcceptor_CCO@@3U3@B$00$0A@VCComTypeInfoHolder@ATL@@@ATL@@QEAA@XZ 0000000180032340 f i BillAcceptorImpl.obj
 0001:00031380       ??0?$IObjectSafetyImpl@VCOPOSBillAcceptor@@$02@ATL@@QEAA@XZ 0000000180032380 f i BillAcceptorImpl.obj
 0001:000313c0       ??0?$IOleControlImpl@VCOPOSBillAcceptor@@@ATL@@QEAA@XZ 00000001800323c0 f i BillAcceptorImpl.obj
 0001:00031400       ??0?$IOleInPlaceActiveObjectImpl@VCOPOSBillAcceptor@@@ATL@@QEAA@XZ 0000000180032400 f i BillAcceptorImpl.obj
 0001:00031440       ??0?$IOleInPlaceObjectWindowlessImpl@VCOPOSBillAcceptor@@@ATL@@QEAA@XZ 0000000180032440 f i BillAcceptorImpl.obj
 0001:00031480       ??0?$IOleObjectImpl@VCOPOSBillAcceptor@@@ATL@@QEAA@XZ 0000000180032480 f i BillAcceptorImpl.obj
 0001:000314c0       ??0?$IPersistStorageImpl@VCOPOSBillAcceptor@@@ATL@@QEAA@XZ 00000001800324c0 f i BillAcceptorImpl.obj
 0001:00031500       ??0?$IPersistStreamInitImpl@VCOPOSBillAcceptor@@@ATL@@QEAA@XZ 0000000180032500 f i BillAcceptorImpl.obj
 0001:00031540       ??0?$IPropertyNotifySinkCP@VCOPOSBillAcceptor@@VCComDynamicUnkArray@ATL@@@ATL@@QEAA@XZ 0000000180032540 f i BillAcceptorImpl.obj
 0001:00031580       ??0?$IProvideClassInfo2Impl@$1?CLSID_OPOSBillAcceptor@@3U_GUID@@B$1?DIID__IOPOSBillAcceptorEvents@@3U2@B$1?LIBID_OposBillAcceptor_CCO@@3U2@B$00$0A@VCComTypeInfoHolder@ATL@@@ATL@@QEAA@XZ 0000000180032580 f i BillAcceptorImpl.obj
 0001:000315c0       ??0?$IQuickActivateImpl@VCOPOSBillAcceptor@@@ATL@@QEAA@XZ 00000001800325c0 f i BillAcceptorImpl.obj
 0001:00031600       ??0?$ISpecifyPropertyPagesImpl@VCOPOSBillAcceptor@@@ATL@@QEAA@XZ 0000000180032600 f i BillAcceptorImpl.obj
 0001:00031640       ??0?$IViewObjectExImpl@VCOPOSBillAcceptor@@@ATL@@QEAA@XZ 0000000180032640 f i BillAcceptorImpl.obj
 0001:00031680       ??0?$_ICPLocator@$1?DIID__IOPOSBillAcceptorEvents@@3U_GUID@@B@ATL@@QEAA@XZ 0000000180032680 f i BillAcceptorImpl.obj
 0001:00031690       ??0?$_ICPLocator@$1?IID_IPropertyNotifySink@@3U_GUID@@B@ATL@@QEAA@XZ 0000000180032690 f i BillAcceptorImpl.obj
 0001:000316a0       ??0CComControlBase@ATL@@QEAA@AEAPEAUHWND__@@@Z 00000001800326a0 f i BillAcceptorImpl.obj
 0001:000318c0       ??0CComDynamicUnkArray@ATL@@QEAA@XZ 00000001800328c0 f i BillAcceptorImpl.obj
 0001:000318f0       ??0CDynamicStdCallThunk2@ATL@@QEAA@XZ 00000001800328f0 f i BillAcceptorImpl.obj
 0001:00031910       ??0CMessageMap@ATL@@QEAA@XZ 0000000180032910 f i BillAcceptorImpl.obj
 0001:00031920       ??0CWindow@ATL@@QEAA@PEAUHWND__@@@Z 0000000180032920 f i BillAcceptorImpl.obj
 0001:00031940       ??0CWndProcThunk@ATL@@QEAA@XZ 0000000180032940 f i BillAcceptorImpl.obj
 0001:00031980       ??0IConnectionPointContainer@@QEAA@XZ 0000000180032980 f i BillAcceptorImpl.obj
 0001:000319c0       ??0IDataObject@@QEAA@XZ    00000001800329c0 f i BillAcceptorImpl.obj
 0001:00031a00       ??0IDispatch@@QEAA@XZ      0000000180032a00 f i BillAcceptorImpl.obj
 0001:00031a40       ??0IOPOSBillAcceptor@@QEAA@XZ 0000000180032a40 f i BillAcceptorImpl.obj
 0001:00031a80       ??0IOPOSBillAcceptor_1_11@@QEAA@XZ 0000000180032a80 f i BillAcceptorImpl.obj
 0001:00031ac0       ??0IObjectSafety@@QEAA@XZ  0000000180032ac0 f i BillAcceptorImpl.obj
 0001:00031b00       ??0IOleControl@@QEAA@XZ    0000000180032b00 f i BillAcceptorImpl.obj
 0001:00031b40       ??0IOleInPlaceActiveObject@@QEAA@XZ 0000000180032b40 f i BillAcceptorImpl.obj
 0001:00031b80       ??0IOleInPlaceObject@@QEAA@XZ 0000000180032b80 f i BillAcceptorImpl.obj
 0001:00031bc0       ??0IOleInPlaceObjectWindowless@@QEAA@XZ 0000000180032bc0 f i BillAcceptorImpl.obj
 0001:00031c00       ??0IOleObject@@QEAA@XZ     0000000180032c00 f i BillAcceptorImpl.obj
 0001:00031c40       ??0IOleWindow@@QEAA@XZ     0000000180032c40 f i BillAcceptorImpl.obj
 0001:00031c80       ??0IPersist@@QEAA@XZ       0000000180032c80 f i BillAcceptorImpl.obj
 0001:00031cc0       ??0IPersistStorage@@QEAA@XZ 0000000180032cc0 f i BillAcceptorImpl.obj
 0001:00031d00       ??0IPersistStreamInit@@QEAA@XZ 0000000180032d00 f i BillAcceptorImpl.obj
 0001:00031d40       ??0IProvideClassInfo2@@QEAA@XZ 0000000180032d40 f i BillAcceptorImpl.obj
 0001:00031d80       ??0IProvideClassInfo@@QEAA@XZ 0000000180032d80 f i BillAcceptorImpl.obj
 0001:00031dc0       ??0IQuickActivate@@QEAA@XZ 0000000180032dc0 f i BillAcceptorImpl.obj
 0001:00031e00       ??0ISpecifyPropertyPages@@QEAA@XZ 0000000180032e00 f i BillAcceptorImpl.obj
 0001:00031e40       ??0IViewObject2@@QEAA@XZ   0000000180032e40 f i BillAcceptorImpl.obj
 0001:00031e80       ??0IViewObject@@QEAA@XZ    0000000180032e80 f i BillAcceptorImpl.obj
 0001:00031ec0       ??0IViewObjectEx@@QEAA@XZ  0000000180032ec0 f i BillAcceptorImpl.obj
 0001:00031f00       ??0OposVariantResult@@QEAA@XZ 0000000180032f00 f i BillAcceptorImpl.obj
 0001:00031f40       ??0_CW@@QEAA@PEBD@Z        0000000180032f40 f i BillAcceptorImpl.obj
 0001:00031f90       ??0_CW@@QEAA@PEB_W@Z       0000000180032f90 f i BillAcceptorImpl.obj
 0001:00031fe0       ??0_CWNCC@@QEAA@PEBD@Z     0000000180032fe0 f i BillAcceptorImpl.obj
 0001:00032020       ??1?$CComControl@VCOPOSBillAcceptor@@V?$CWindowImpl@VCOPOSBillAcceptor@@VCWindow@ATL@@V?$CWinTraits@$0FGAAAAAA@$0A@@3@@ATL@@@ATL@@UEAA@XZ 0000000180033020 f i BillAcceptorImpl.obj
 0001:00032060       ??1?$CComPtr@UIDataAdviseHolder@@@ATL@@QEAA@XZ 0000000180033060 f i BillAcceptorImpl.obj
 0001:00032090       ??1?$CComPtr@UIOleAdviseHolder@@@ATL@@QEAA@XZ 0000000180033090 f i BillAcceptorImpl.obj
 0001:000320c0       ??1?$CComPtr@UIOleInPlaceSiteWindowless@@@ATL@@QEAA@XZ 00000001800330c0 f i BillAcceptorImpl.obj
 0001:000320f0       ??1?$CComPtrBase@UIDataAdviseHolder@@@ATL@@QEAA@XZ 00000001800330f0 f i BillAcceptorImpl.obj
 0001:00032140       ??1?$CComPtrBase@UIOleAdviseHolder@@@ATL@@QEAA@XZ 0000000180033140 f i BillAcceptorImpl.obj
 0001:00032190       ??1?$CComPtrBase@UIOleInPlaceSiteWindowless@@@ATL@@QEAA@XZ 0000000180033190 f i BillAcceptorImpl.obj
 0001:000321e0       ??1?$CComQIPtr@UIDispatch@@$1?_GUID_00020400_0000_0000_c000_000000000046@@3U__s_GUID@@B@ATL@@QEAA@XZ 00000001800331e0 f i BillAcceptorImpl.obj
 0001:00032210       ??1?$CProxy_IOPOSEvents@VCOPOSBillAcceptor@@@@QEAA@XZ 0000000180033210 f i BillAcceptorImpl.obj
 0001:00032240       ??1?$CWindowImpl@VCOPOSBillAcceptor@@VCWindow@ATL@@V?$CWinTraits@$0FGAAAAAA@$0A@@3@@ATL@@UEAA@XZ 0000000180033240 f i BillAcceptorImpl.obj
 0001:00032270       ??1?$CWindowImplBaseT@VCWindow@ATL@@V?$CWinTraits@$0FGAAAAAA@$0A@@2@@ATL@@UEAA@XZ 0000000180033270 f i BillAcceptorImpl.obj
 0001:000322a0       ??1?$CWindowImplRoot@VCWindow@ATL@@@ATL@@UEAA@XZ 00000001800332a0 f i BillAcceptorImpl.obj
 0001:00032360       ??1?$IConnectionPointImpl@VCOPOSBillAcceptor@@$1?DIID__IOPOSBillAcceptorEvents@@3U_GUID@@BVCComDynamicUnkArray@ATL@@@ATL@@QEAA@XZ 0000000180033360 f i BillAcceptorImpl.obj
 0001:00032400       ??1?$IConnectionPointImpl@VCOPOSBillAcceptor@@$1?IID_IPropertyNotifySink@@3U_GUID@@BVCComDynamicUnkArray@ATL@@@ATL@@QEAA@XZ 0000000180033400 f i BillAcceptorImpl.obj
 0001:000324a0       ??1?$IPropertyNotifySinkCP@VCOPOSBillAcceptor@@VCComDynamicUnkArray@ATL@@@ATL@@QEAA@XZ 00000001800334a0 f i BillAcceptorImpl.obj
 0001:000324d0       ??1CComControlBase@ATL@@UEAA@XZ 00000001800334d0 f i BillAcceptorImpl.obj
 0001:000325c0       ??1CComDynamicUnkArray@ATL@@QEAA@XZ 00000001800335c0 f i BillAcceptorImpl.obj
 0001:00032600       ??1CDynamicStdCallThunk2@ATL@@QEAA@XZ 0000000180033600 f i BillAcceptorImpl.obj
 0001:00032640       ??1CWndProcThunk@ATL@@QEAA@XZ 0000000180033640 f i BillAcceptorImpl.obj
 0001:00032680       ??1OposVariantResult@@QEAA@XZ 0000000180033680 f i BillAcceptorImpl.obj
 0001:000326c0       ??1_CW@@QEAA@XZ            00000001800336c0 f i BillAcceptorImpl.obj
 0001:00032740       ??1_CWNCC@@QEAA@XZ         0000000180033740 f i BillAcceptorImpl.obj
 0001:00032770       ??B_CW@@QEAAPEB_WXZ        0000000180033770 f i BillAcceptorImpl.obj
 0001:000327c0       ??B_CWNCC@@QEAAPEA_WXZ     00000001800337c0 f i BillAcceptorImpl.obj
 0001:000327f0       ??_EOposVariant@@QEAAPEAXI@Z 00000001800337f0 f i BillAcceptorImpl.obj
 0001:000328a0       ?EventClaim@COPOSBillAcceptor@@IEAAXXZ 00000001800338a0 f i BillAcceptorImpl.obj
 0001:000328f0       ?EventClose@COPOSBillAcceptor@@IEAAXXZ 00000001800338f0 f i BillAcceptorImpl.obj
 0001:00032990       ?EventInit@COPOSBillAcceptor@@IEAAJXZ 0000000180033990 f i BillAcceptorImpl.obj
 0001:00032c40       ?EventOpen@COPOSBillAcceptor@@IEAAXXZ 0000000180033c40 f i BillAcceptorImpl.obj
 0001:00032c80       ?EventPreCloseRelease@COPOSBillAcceptor@@IEAAXXZ 0000000180033c80 f i BillAcceptorImpl.obj
 0001:00032d00       ?EventUninit@COPOSBillAcceptor@@IEAAXXZ 0000000180033d00 f i BillAcceptorImpl.obj
 0001:00032e30       ?EventWindowProc@COPOSBillAcceptor@@IEAA_JI_K_J@Z 0000000180033e30 f i BillAcceptorImpl.obj
 0001:00032f90       ?FireEventCleanup@COPOSBillAcceptor@@IEAAXXZ 0000000180033f90 f i BillAcceptorImpl.obj
 0001:00032fe0       ?FireEventSetup@COPOSBillAcceptor@@IEAA_NXZ 0000000180033fe0 f i BillAcceptorImpl.obj
 0001:00033060       ?GetModuleInstance@CComModule@ATL@@QEAAPEAUHINSTANCE__@@XZ 0000000180034060 f i BillAcceptorImpl.obj
 0001:00033070       ?SetRC@COPOSBillAcceptor@@IEAAJJ@Z 0000000180034070 f i BillAcceptorImpl.obj
 0001:00033090       ?s_EventWindowProc@COPOSBillAcceptor@@KA_JPEAUHWND__@@I_K_J@Z 0000000180034090 f i BillAcceptorImpl.obj
 0001:00033140       _snwprintf                 0000000180034140 f i BillAcceptorImpl.obj
 0001:000331d0       _vfwprintf_l               00000001800341d0 f i BillAcceptorImpl.obj
 0001:00033230       _vsnwprintf                0000000180034230 f i BillAcceptorImpl.obj
 0001:00033290       _vsnwprintf_l              0000000180034290 f i BillAcceptorImpl.obj
 0001:00033320       vfwprintf                  0000000180034320 f i BillAcceptorImpl.obj
 0001:00033365       DebugBreak                 0000000180034365 f   kernel32:KERNEL32.dll
 0001:0003336b       Sleep                      000000018003436b f   kernel32:KERNEL32.dll
 0001:00033371       GetCurrentProcess          0000000180034371 f   kernel32:KERNEL32.dll
 0001:00033377       TerminateProcess           0000000180034377 f   kernel32:KERNEL32.dll
 0001:0003337d       MultiByteToWideChar        000000018003437d f   kernel32:KERNEL32.dll
 0001:00033383       WideCharToMultiByte        0000000180034383 f   kernel32:KERNEL32.dll
 0001:00033389       DecodePointer              0000000180034389 f   kernel32:KERNEL32.dll
 0001:0003338f       RaiseException             000000018003438f f   kernel32:KERNEL32.dll
 0001:00033395       GetLastError               0000000180034395 f   kernel32:KERNEL32.dll
 0001:0003339b       SetLastError               000000018003439b f   kernel32:KERNEL32.dll
 0001:000333a1       InitializeCriticalSectionEx 00000001800343a1 f   kernel32:KERNEL32.dll
 0001:000333a7       DeleteCriticalSection      00000001800343a7 f   kernel32:KERNEL32.dll
 0001:000333ad       EncodePointer              00000001800343ad f   kernel32:KERNEL32.dll
 0001:000333b3       EnterCriticalSection       00000001800343b3 f   kernel32:KERNEL32.dll
 0001:000333b9       LeaveCriticalSection       00000001800343b9 f   kernel32:KERNEL32.dll
 0001:000333bf       ResetEvent                 00000001800343bf f   kernel32:KERNEL32.dll
 0001:000333c5       ReleaseMutex               00000001800343c5 f   kernel32:KERNEL32.dll
 0001:000333cb       WaitForSingleObject        00000001800343cb f   kernel32:KERNEL32.dll
 0001:000333d1       GetCurrentThreadId         00000001800343d1 f   kernel32:KERNEL32.dll
 0001:000333d7       DisableThreadLibraryCalls  00000001800343d7 f   kernel32:KERNEL32.dll
 0001:000333dd       FreeLibrary                00000001800343dd f   kernel32:KERNEL32.dll
 0001:000333e3       GetModuleFileNameW         00000001800343e3 f   kernel32:KERNEL32.dll
 0001:000333e9       GetModuleHandleW           00000001800343e9 f   kernel32:KERNEL32.dll
 0001:000333ef       GetProcAddress             00000001800343ef f   kernel32:KERNEL32.dll
 0001:000333f5       LoadLibraryExW             00000001800343f5 f   kernel32:KERNEL32.dll
 0001:000333fb       LoadResource               00000001800343fb f   kernel32:KERNEL32.dll
 0001:00033401       SizeofResource             0000000180034401 f   kernel32:KERNEL32.dll
 0001:00033407       FindResourceW              0000000180034407 f   kernel32:KERNEL32.dll
 0001:0003340d       GlobalAlloc                000000018003440d f   kernel32:KERNEL32.dll
 0001:00033413       GlobalUnlock               0000000180034413 f   kernel32:KERNEL32.dll
 0001:00033419       GlobalLock                 0000000180034419 f   kernel32:KERNEL32.dll
 0001:0003341f       MulDiv                     000000018003441f f   kernel32:KERNEL32.dll
 0001:00033425       lstrcmpiW                  0000000180034425 f   kernel32:KERNEL32.dll
 0001:0003342b       DeleteFileW                000000018003442b f   kernel32:KERNEL32.dll
 0001:00033431       CloseHandle                0000000180034431 f   kernel32:KERNEL32.dll
 0001:00033437       SetEvent                   0000000180034437 f   kernel32:KERNEL32.dll
 0001:0003343d       CreateMutexW               000000018003443d f   kernel32:KERNEL32.dll
 0001:00033443       CreateEventW               0000000180034443 f   kernel32:KERNEL32.dll
 0001:00033449       GetCurrentProcessId        0000000180034449 f   kernel32:KERNEL32.dll
 0001:0003344f       LocalFree                  000000018003444f f   kernel32:KERNEL32.dll
 0001:00033455       FormatMessageW             0000000180034455 f   kernel32:KERNEL32.dll
 0001:0003345b       GetActiveWindow            000000018003445b f   user32:USER32.dll
 0001:00033461       MessageBoxW                0000000180034461 f   user32:USER32.dll
 0001:00033467       UnregisterClassW           0000000180034467 f   user32:USER32.dll
 0001:0003346d       PostMessageW               000000018003446d f   user32:USER32.dll
 0001:00033473       DefWindowProcW             0000000180034473 f   user32:USER32.dll
 0001:00033479       CallWindowProcW            0000000180034479 f   user32:USER32.dll
 0001:0003347f       RegisterClassExW           000000018003447f f   user32:USER32.dll
 0001:00033485       GetClassInfoExW            0000000180034485 f   user32:USER32.dll
 0001:0003348b       CreateWindowExW            000000018003448b f   user32:USER32.dll
 0001:00033491       IsWindow                   0000000180034491 f   user32:USER32.dll
 0001:00033497       IsChild                    0000000180034497 f   user32:USER32.dll
 0001:0003349d       DestroyWindow              000000018003449d f   user32:USER32.dll
 0001:000334a3       ShowWindow                 00000001800344a3 f   user32:USER32.dll
 0001:000334a9       SetWindowPos               00000001800344a9 f   user32:USER32.dll
 0001:000334af       CharNextW                  00000001800344af f   user32:USER32.dll
 0001:000334b5       SetFocus                   00000001800344b5 f   user32:USER32.dll
 0001:000334bb       GetFocus                   00000001800344bb f   user32:USER32.dll
 0001:000334c1       GetKeyState                00000001800344c1 f   user32:USER32.dll
 0001:000334c7       GetDC                      00000001800344c7 f   user32:USER32.dll
 0001:000334cd       ReleaseDC                  00000001800344cd f   user32:USER32.dll
 0001:000334d3       BeginPaint                 00000001800344d3 f   user32:USER32.dll
 0001:000334d9       EndPaint                   00000001800344d9 f   user32:USER32.dll
 0001:000334df       SetWindowRgn               00000001800344df f   user32:USER32.dll
 0001:000334e5       InvalidateRect             00000001800344e5 f   user32:USER32.dll
 0001:000334eb       GetClientRect              00000001800344eb f   user32:USER32.dll
 0001:000334f1       IntersectRect              00000001800344f1 f   user32:USER32.dll
 0001:000334f7       UnionRect                  00000001800344f7 f   user32:USER32.dll
 0001:000334fd       OffsetRect                 00000001800344fd f   user32:USER32.dll
 0001:00033503       EqualRect                  0000000180034503 f   user32:USER32.dll
 0001:00033509       PtInRect                   0000000180034509 f   user32:USER32.dll
 0001:0003350f       GetWindowLongPtrW          000000018003450f f   user32:USER32.dll
 0001:00033515       SetWindowLongPtrW          0000000180034515 f   user32:USER32.dll
 0001:0003351b       GetParent                  000000018003451b f   user32:USER32.dll
 0001:00033521       LoadCursorW                0000000180034521 f   user32:USER32.dll
 0001:00033527       PeekMessageW               0000000180034527 f   user32:USER32.dll
 0001:0003352d       RegisterClassW             000000018003452d f   user32:USER32.dll
 0001:00033533       LoadBitmapW                0000000180034533 f   user32:USER32.dll
 0001:00033539       CloseMetaFile              0000000180034539 f   gdi32:GDI32.dll
 0001:0003353f       CreateDCW                  000000018003453f f   gdi32:GDI32.dll
 0001:00033545       CreateMetaFileW            0000000180034545 f   gdi32:GDI32.dll
 0001:0003354b       CreateRectRgnIndirect      000000018003454b f   gdi32:GDI32.dll
 0001:00033551       DeleteDC                   0000000180034551 f   gdi32:GDI32.dll
 0001:00033557       DeleteMetaFile             0000000180034557 f   gdi32:GDI32.dll
 0001:0003355d       GetDeviceCaps              000000018003455d f   gdi32:GDI32.dll
 0001:00033563       RestoreDC                  0000000180034563 f   gdi32:GDI32.dll
 0001:00033569       SaveDC                     0000000180034569 f   gdi32:GDI32.dll
 0001:0003356f       SetMapMode                 000000018003456f f   gdi32:GDI32.dll
 0001:00033575       LPtoDP                     0000000180034575 f   gdi32:GDI32.dll
 0001:0003357b       SetViewportOrgEx           000000018003457b f   gdi32:GDI32.dll
 0001:00033581       SetWindowExtEx             0000000180034581 f   gdi32:GDI32.dll
 0001:00033587       SetWindowOrgEx             0000000180034587 f   gdi32:GDI32.dll
 0001:0003358d       BitBlt                     000000018003458d f   gdi32:GDI32.dll
 0001:00033593       CreateCompatibleDC         0000000180034593 f   gdi32:GDI32.dll
 0001:00033599       DeleteObject               0000000180034599 f   gdi32:GDI32.dll
 0001:0003359f       SelectObject               000000018003459f f   gdi32:GDI32.dll
 0001:000335a5       GetObjectW                 00000001800345a5 f   gdi32:GDI32.dll
 0001:000335ab       RegCloseKey                00000001800345ab f   advapi32:ADVAPI32.dll
 0001:000335b1       RegCreateKeyExW            00000001800345b1 f   advapi32:ADVAPI32.dll
 0001:000335b7       RegDeleteKeyW              00000001800345b7 f   advapi32:ADVAPI32.dll
 0001:000335bd       RegDeleteValueW            00000001800345bd f   advapi32:ADVAPI32.dll
 0001:000335c3       RegEnumKeyExW              00000001800345c3 f   advapi32:ADVAPI32.dll
 0001:000335c9       RegOpenKeyExW              00000001800345c9 f   advapi32:ADVAPI32.dll
 0001:000335cf       RegQueryInfoKeyW           00000001800345cf f   advapi32:ADVAPI32.dll
 0001:000335d5       RegSetValueExW             00000001800345d5 f   advapi32:ADVAPI32.dll
 0001:000335db       RegQueryValueExW           00000001800345db f   advapi32:ADVAPI32.dll
 0001:000335e1       CoCreateInstance           00000001800345e1 f   ole32:ole32.dll
 0001:000335e7       StringFromGUID2            00000001800345e7 f   ole32:ole32.dll
 0001:000335ed       CoTaskMemAlloc             00000001800345ed f   ole32:ole32.dll
 0001:000335f3       CoTaskMemRealloc           00000001800345f3 f   ole32:ole32.dll
 0001:000335f9       CoTaskMemFree              00000001800345f9 f   ole32:ole32.dll
 0001:000335ff       ReadClassStm               00000001800345ff f   ole32:ole32.dll
 0001:00033605       WriteClassStm              0000000180034605 f   ole32:ole32.dll
 0001:0003360b       CreateDataAdviseHolder     000000018003460b f   ole32:ole32.dll
 0001:00033611       OleSaveToStream            0000000180034611 f   ole32:ole32.dll
 0001:00033617       CreateOleAdviseHolder      0000000180034617 f   ole32:ole32.dll
 0001:0003361d       OleRegGetUserType          000000018003461d f   ole32:ole32.dll
 0001:00033623       OleRegGetMiscStatus        0000000180034623 f   ole32:ole32.dll
 0001:00033629       OleRegEnumVerbs            0000000180034629 f   ole32:ole32.dll
 0001:0003362f       CLSIDFromProgID            000000018003462f f   ole32:ole32.dll
 0001:00033635       SysAllocString             0000000180034635 f   oleaut32:OLEAUT32.dll
 0001:0003363b       SysAllocStringLen          000000018003463b f   oleaut32:OLEAUT32.dll
 0001:00033641       SysFreeString              0000000180034641 f   oleaut32:OLEAUT32.dll
 0001:00033647       SysStringLen               0000000180034647 f   oleaut32:OLEAUT32.dll
 0001:0003364d       VariantClear               000000018003464d f   oleaut32:OLEAUT32.dll
 0001:00033653       VariantCopyInd             0000000180034653 f   oleaut32:OLEAUT32.dll
 0001:00033659       VariantChangeType          0000000180034659 f   oleaut32:OLEAUT32.dll
 0001:0003365f       SysStringByteLen           000000018003465f f   oleaut32:OLEAUT32.dll
 0001:00033665       SysAllocStringByteLen      0000000180034665 f   oleaut32:OLEAUT32.dll
 0001:0003366b       VariantInit                000000018003466b f   oleaut32:OLEAUT32.dll
 0001:00033671       VarUI4FromStr              0000000180034671 f   oleaut32:OLEAUT32.dll
 0001:00033677       LoadTypeLib                0000000180034677 f   oleaut32:OLEAUT32.dll
 0001:0003367d       LoadRegTypeLib             000000018003467d f   oleaut32:OLEAUT32.dll
 0001:00033683       RegisterTypeLib            0000000180034683 f   oleaut32:OLEAUT32.dll
 0001:00033689       UnRegisterTypeLib          0000000180034689 f   oleaut32:OLEAUT32.dll
 0001:0003368f       OleCreatePropertyFrame     000000018003468f f   oleaut32:OLEAUT32.dll
 0001:000336a0       _RTC_AllocaHelper          00000001800346a0 f   LIBCMTD:stack.obj
 0001:000336e0       _RTC_CheckStackVars        00000001800346e0 f   LIBCMTD:stack.obj
 0001:00033770       _RTC_CheckStackVars2       0000000180034770 f   LIBCMTD:stack.obj
 0001:00033880       _CRT_RTC_INIT              0000000180034880 f   LIBCMTD:init.obj
 0001:00033890       _CRT_RTC_INITW             0000000180034890 f   LIBCMTD:init.obj
 0001:000338a0       _RTC_InitBase              00000001800348a0 f   LIBCMTD:init.obj
 0001:000338e0       _RTC_Shutdown              00000001800348e0 f   LIBCMTD:init.obj
 0001:00033910       __GSHandlerCheck           0000000180034910 f   LIBCMTD:gshandler.obj
 0001:00033950       __GSHandlerCheckCommon     0000000180034950 f   LIBCMTD:gshandler.obj
 0001:00033a60       __security_check_cookie    0000000180034a60 f   LIBCMTD:amdsecgs.obj
 0001:00033a90       ??_U@YAPEAX_K@Z            0000000180034a90 f   LIBCMTD:new_array.obj
 0001:00033ab0       ??3@YAXPEAX_K@Z            0000000180034ab0 f   LIBCMTD:delete_scalar_size.obj
 0001:00033ad0       ??_V@YAXPEAX@Z             0000000180034ad0 f   LIBCMTD:delete_array.obj
 0001:00033af0       ??_V@YAXPEAX_K@Z           0000000180034af0 f   LIBCMTD:delete_array_size.obj
 0001:00033b10       ?configure_argv@__scrt_narrow_argv_policy@@SAHXZ 0000000180034b10 f i LIBCMTD:utility.obj
 0001:00033c00       ?initialize_environment@__scrt_narrow_environment_policy@@SAHXZ 0000000180034c00 f i LIBCMTD:utility.obj
 0001:00033ca0       NtCurrentTeb               0000000180034ca0 f i LIBCMTD:utility.obj
 0001:00033cb0       __scrt_acquire_startup_lock 0000000180034cb0 f   LIBCMTD:utility.obj
 0001:00033d20       __scrt_dllmain_after_initialize_c 0000000180034d20 f   LIBCMTD:utility.obj
 0001:00033d50       __scrt_dllmain_before_initialize_c 0000000180034d50 f   LIBCMTD:utility.obj
 0001:00033d70       __scrt_dllmain_crt_thread_attach 0000000180034d70 f   LIBCMTD:utility.obj
 0001:00033da0       __scrt_dllmain_crt_thread_detach 0000000180034da0 f   LIBCMTD:utility.obj
 0001:00033dc0       __scrt_dllmain_exception_filter 0000000180034dc0 f   LIBCMTD:utility.obj
 0001:00033e30       __scrt_dllmain_uninitialize_c 0000000180034e30 f   LIBCMTD:utility.obj
 0001:00033e60       __scrt_dllmain_uninitialize_critical 0000000180034e60 f   LIBCMTD:utility.obj
 0001:00033e80       __scrt_initialize_crt      0000000180034e80 f   LIBCMTD:utility.obj
 0001:00033ed0       __scrt_initialize_onexit_tables 0000000180034ed0 f   LIBCMTD:utility.obj
 0001:00033fe0       __scrt_is_nonwritable_in_current_image 0000000180034fe0 f   LIBCMTD:utility.obj
 0001:00034070       __scrt_release_startup_lock 0000000180035070 f   LIBCMTD:utility.obj
 0001:000340a0       __scrt_uninitialize_crt    00000001800350a0 f   LIBCMTD:utility.obj
 0001:000340e0       _onexit                    00000001800350e0 f   LIBCMTD:utility.obj
 0001:00034160       at_quick_exit              0000000180035160 f   LIBCMTD:utility.obj
 0001:000341b0       atexit                     00000001800351b0 f   LIBCMTD:utility.obj
 0001:000341f0       ??3@YAXPEAX@Z              00000001800351f0 f   LIBCMTD:delete_scalar.obj
 0001:00034210       __raise_securityfailure    0000000180035210 f   LIBCMTD:gs_report.obj
 0001:00034250       __report_gsfailure         0000000180035250 f   LIBCMTD:gs_report.obj
 0001:00034330       __report_rangecheckfailure 0000000180035330 f   LIBCMTD:gs_report.obj
 0001:00034350       __report_securityfailure   0000000180035350 f   LIBCMTD:gs_report.obj
 0001:000343f0       __report_securityfailureEx 00000001800353f0 f   LIBCMTD:gs_report.obj
 0001:000347b0       _Init_thread_abort         00000001800357b0 f   LIBCMTD:thread_safe_statics.obj
 0001:000347e0       _Init_thread_footer        00000001800357e0 f   LIBCMTD:thread_safe_statics.obj
 0001:00034840       _Init_thread_header        0000000180035840 f   LIBCMTD:thread_safe_statics.obj
 0001:000348d0       _Init_thread_lock          00000001800358d0 f   LIBCMTD:thread_safe_statics.obj
 0001:000348f0       _Init_thread_notify        00000001800358f0 f   LIBCMTD:thread_safe_statics.obj
 0001:00034950       _Init_thread_unlock        0000000180035950 f   LIBCMTD:thread_safe_statics.obj
 0001:00034970       _Init_thread_wait          0000000180035970 f   LIBCMTD:thread_safe_statics.obj
 0001:00034a20       ??2@YAPEAX_KAEBUnothrow_t@std@@@Z 0000000180035a20 f   LIBCMTD:new_scalar_nothrow.obj
 0001:00034a60       ??_U@YAPEAX_KAEBUnothrow_t@std@@@Z 0000000180035a60 f   LIBCMTD:new_array_nothrow.obj
 0001:00034a90       __GSHandlerCheck_SEH       0000000180035a90 f   LIBCMTD:gshandlerseh.obj
 0001:00034b60       __chkstk                   0000000180035b60 f   LIBCMTD:chkstk.obj
 0001:00034b60       _alloca_probe              0000000180035b60 f   LIBCMTD:chkstk.obj
 0001:00034fd0       _CRT_INIT                  0000000180035fd0 f   LIBCMTD:dll_dllmain.obj
 0001:00035000       _DllMainCRTStartup         0000000180036000 f   LIBCMTD:dll_dllmain.obj
 0001:000350d0       ?_RTC_AllocaFailure@@YAXPEAXPEAU_RTC_ALLOCA_NODE@@H@Z 00000001800360d0 f   LIBCMTD:error.obj
 0001:00035230       ?_RTC_Failure@@YAXPEAXH@Z  0000000180036230 f   LIBCMTD:error.obj
 0001:00035280       ?_RTC_StackFailure@@YAXPEAXPEBD@Z 0000000180036280 f   LIBCMTD:error.obj
 0001:000356b0       _RTC_UninitUse             00000001800366b0 f   LIBCMTD:error.obj
 0001:00035780       _vsprintf_s_l              0000000180036780 f i LIBCMTD:error.obj
 0001:000357f0       sprintf_s                  00000001800367f0 f i LIBCMTD:error.obj
 0001:00035820       ?_RTC_GetErrorFunc@@YAP6AHHPEBDH00ZZPEBX@Z 0000000180036820 f   LIBCMTD:userapi.obj
 0001:00035830       ?_RTC_GetErrorFuncW@@YAP6AHHPEB_WH00ZZPEBX@Z 0000000180036830 f   LIBCMTD:userapi.obj
 0001:00035840       _RTC_GetErrDesc            0000000180036840 f   LIBCMTD:userapi.obj
 0001:00035860       _RTC_NumErrors             0000000180036860 f   LIBCMTD:userapi.obj
 0001:00035870       _RTC_SetErrorFunc          0000000180036870 f   LIBCMTD:userapi.obj
 0001:00035890       _RTC_SetErrorFuncW         0000000180036890 f   LIBCMTD:userapi.obj
 0001:000358b0       _RTC_SetErrorType          00000001800368b0 f   LIBCMTD:userapi.obj
 0001:000358d0       ??2@YAPEAX_K@Z             00000001800368d0 f   LIBCMTD:new_scalar.obj
 0001:00035920       __isa_available_init       0000000180036920 f   LIBCMTD:cpu_disp.obj
 0001:00035cc0       _get_startup_argv_mode     0000000180036cc0 f   LIBCMTD:argv_mode.obj
 0001:00035cd0       __scrt_is_ucrt_dll_in_use  0000000180036cd0 f   LIBCMTD:ucrt_detection.obj
 0001:00035d00       __crt_debugger_hook        0000000180036d00 f   LIBCMTD:utility_desktop.obj
 0001:00035d10       __scrt_fastfail            0000000180036d10 f   LIBCMTD:utility_desktop.obj
 0001:00035eb0       __scrt_get_show_window_mode 0000000180036eb0 f   LIBCMTD:utility_desktop.obj
 0001:00035f10       __scrt_initialize_mta      0000000180036f10 f   LIBCMTD:utility_desktop.obj
 0001:00035f20       __scrt_initialize_winrt    0000000180036f20 f   LIBCMTD:utility_desktop.obj
 0001:00035f30       __scrt_is_managed_app      0000000180036f30 f   LIBCMTD:utility_desktop.obj
 0001:00035fe0       __scrt_set_unhandled_exception_filter 0000000180036fe0 f   LIBCMTD:utility_desktop.obj
 0001:00036000       __scrt_exe_initialize_mta  0000000180037000 f   LIBCMTD:utility_desktop.obj
 0001:00036000       __scrt_stub_for_initialize_mta 0000000180037000 f   LIBCMTD:utility_desktop.obj
 0001:00036010       __scrt_unhandled_exception_filter 0000000180037010 f   LIBCMTD:utility_desktop.obj
 0001:000360b0       _guard_check_icall_nop     00000001800370b0 f i LIBCMTD:guard_support.obj
 0001:000360c0       ReadNoFence64              00000001800370c0 f i LIBCMTD:guard_support.obj
 0001:000360e0       ReadPointerNoFence         00000001800370e0 f i LIBCMTD:guard_support.obj
 0001:00036100       _guard_icall_checks_enforced 0000000180037100 f i LIBCMTD:guard_support.obj
 0001:00036140       _guard_rf_checks_enforced  0000000180037140 f i LIBCMTD:guard_support.obj
 0001:00036210       __security_init_cookie     0000000180037210 f   LIBCMTD:gs_support.obj
 0001:00036290       ?__scrt_initialize_type_info@@YAXXZ 0000000180037290 f   LIBCMTD:tncleanup.obj
 0001:000362b0       ?__scrt_uninitialize_type_info@@YAXXZ 00000001800372b0 f   LIBCMTD:tncleanup.obj
 0001:000362d0       __local_stdio_scanf_options 00000001800372d0 f i LIBCMTD:default_local_stdio_options.obj
 0001:000362e0       __scrt_initialize_default_local_stdio_options 00000001800372e0 f   LIBCMTD:default_local_stdio_options.obj
 0001:00036330       __scrt_get_dyn_tls_init_callback 0000000180037330 f   LIBCMTD:dyn_tls_init.obj
 0001:00036340       _RTC_Initialize            0000000180037340 f   LIBCMTD:initsect.obj
 0001:00036390       _RTC_Terminate             0000000180037390 f   LIBCMTD:initsect.obj
 0001:000368f0       ?_RTC_GetSrcLine@@YAHPEAEPEA_WKPEAH1K@Z 00000001800378f0 f   LIBCMTD:pdblkup.obj
 0001:00036cc0       ??0bad_alloc@std@@AEAA@QEBD@Z 0000000180037cc0 f i LIBCMTD:throw_bad_alloc.obj
 0001:00036d00       ??0bad_alloc@std@@QEAA@AEBV01@@Z 0000000180037d00 f i LIBCMTD:throw_bad_alloc.obj
 0001:00036d40       ??0bad_alloc@std@@QEAA@XZ  0000000180037d40 f i LIBCMTD:throw_bad_alloc.obj
 0001:00036d80       ??0bad_array_new_length@std@@QEAA@AEBV01@@Z 0000000180037d80 f i LIBCMTD:throw_bad_alloc.obj
 0001:00036dc0       ??0bad_array_new_length@std@@QEAA@XZ 0000000180037dc0 f i LIBCMTD:throw_bad_alloc.obj
 0001:00036e00       ??0exception@std@@QEAA@AEBV01@@Z 0000000180037e00 f i LIBCMTD:throw_bad_alloc.obj
 0001:00036e60       ??0exception@std@@QEAA@QEBDH@Z 0000000180037e60 f i LIBCMTD:throw_bad_alloc.obj
 0001:00036eb0       ??1bad_alloc@std@@UEAA@XZ  0000000180037eb0 f i LIBCMTD:throw_bad_alloc.obj
 0001:00036ed0       ??1bad_array_new_length@std@@UEAA@XZ 0000000180037ed0 f i LIBCMTD:throw_bad_alloc.obj
 0001:00036ef0       ??1exception@std@@UEAA@XZ  0000000180037ef0 f i LIBCMTD:throw_bad_alloc.obj
 0001:00036f20       ??_Ebad_alloc@std@@UEAAPEAXI@Z 0000000180037f20 f i LIBCMTD:throw_bad_alloc.obj
 0001:00036f20       ??_Gbad_alloc@std@@UEAAPEAXI@Z 0000000180037f20 f i LIBCMTD:throw_bad_alloc.obj
 0001:00036f60       ??_Ebad_array_new_length@std@@UEAAPEAXI@Z 0000000180037f60 f i LIBCMTD:throw_bad_alloc.obj
 0001:00036f60       ??_Gbad_array_new_length@std@@UEAAPEAXI@Z 0000000180037f60 f i LIBCMTD:throw_bad_alloc.obj
 0001:00036fa0       ??_Gexception@std@@UEAAPEAXI@Z 0000000180037fa0 f i LIBCMTD:throw_bad_alloc.obj
 0001:00036fa0       ??_Eexception@std@@UEAAPEAXI@Z 0000000180037fa0 f i LIBCMTD:throw_bad_alloc.obj
 0001:00036fe0       ?__scrt_throw_std_bad_alloc@@YAXXZ 0000000180037fe0 f   LIBCMTD:throw_bad_alloc.obj
 0001:00037010       ?__scrt_throw_std_bad_array_new_length@@YAXXZ 0000000180038010 f   LIBCMTD:throw_bad_alloc.obj
 0001:00037040       ?what@exception@std@@UEBAPEBDXZ 0000000180038040 f i LIBCMTD:throw_bad_alloc.obj
 0001:00037080       ??1type_info@@UEAA@XZ      0000000180038080 f   LIBCMTD:std_type_info_static.obj
 0001:000370a0       ??_Etype_info@@UEAAPEAXI@Z 00000001800380a0 f i LIBCMTD:std_type_info_static.obj
 0001:000370a0       ??_Gtype_info@@UEAAPEAXI@Z 00000001800380a0 f i LIBCMTD:std_type_info_static.obj
 0001:000370dc       ??$?2PEAUHINSTANCE__@@@Wrapper@?$CSimpleArray@PEAUHINSTANCE__@@V?$CSimpleArrayEqualHelper@PEAUHINSTANCE__@@@ATL@@@ATL@@SAPEAX_KPEAPEAUHINSTANCE__@@@Z 00000001800380dc f i atls:atlbase.obj
 0001:000370e0       ??0?$CSimpleArray@PEAUHINSTANCE__@@V?$CSimpleArrayEqualHelper@PEAUHINSTANCE__@@@ATL@@@ATL@@QEAA@XZ 00000001800380e0 f i atls:atlbase.obj
 0001:000370f0       ??0CAtlBaseModule@ATL@@QEAA@XZ 00000001800380f0 f   atls:atlbase.obj
 0001:00037198       ??0Wrapper@?$CSimpleArray@PEAUHINSTANCE__@@V?$CSimpleArrayEqualHelper@PEAUHINSTANCE__@@@ATL@@@ATL@@QEAA@AEBQEAUHINSTANCE__@@@Z 0000000180038198 f i atls:atlbase.obj
 0001:000371a4       ??0_ATL_BASE_MODULE70@ATL@@QEAA@XZ 00000001800381a4 f i atls:atlbase.obj
 0001:000371d0       ??1?$CSimpleArray@PEAUHINSTANCE__@@V?$CSimpleArrayEqualHelper@PEAUHINSTANCE__@@@ATL@@@ATL@@QEAA@XZ 00000001800381d0 f i atls:atlbase.obj
 0001:000371f8       ??1CAtlBaseModule@ATL@@QEAA@XZ 00000001800381f8 f   atls:atlbase.obj
 0001:0003722c       ??1_ATL_BASE_MODULE70@ATL@@QEAA@XZ 000000018003822c f i atls:atlbase.obj
 0001:00037258       ??A?$CSimpleArray@PEAUHINSTANCE__@@V?$CSimpleArrayEqualHelper@PEAUHINSTANCE__@@@ATL@@@ATL@@QEAAAEAPEAUHINSTANCE__@@H@Z 0000000180038258 f i atls:atlbase.obj
 0001:00037284       ?Add@?$CSimpleArray@PEAUHINSTANCE__@@V?$CSimpleArrayEqualHelper@PEAUHINSTANCE__@@@ATL@@@ATL@@QEAAHAEBQEAUHINSTANCE__@@@Z 0000000180038284 f i atls:atlbase.obj
 0001:00037338       ?AddResourceInstance@CAtlBaseModule@ATL@@QEAA_NPEAUHINSTANCE__@@@Z 0000000180038338 f   atls:atlbase.obj
 0001:00037380       ?GetHInstanceAt@CAtlBaseModule@ATL@@QEAAPEAUHINSTANCE__@@H@Z 0000000180038380 f   atls:atlbase.obj
 0001:000373f8       ?GetSize@?$CSimpleArray@PEAUHINSTANCE__@@V?$CSimpleArrayEqualHelper@PEAUHINSTANCE__@@@ATL@@@ATL@@QEBAHXZ 00000001800383f8 f i atls:atlbase.obj
 0001:000373fc       ?InternalSetAtIndex@?$CSimpleArray@PEAUHINSTANCE__@@V?$CSimpleArrayEqualHelper@PEAUHINSTANCE__@@@ATL@@@ATL@@QEAAXHAEBQEAUHINSTANCE__@@@Z 00000001800383fc f i atls:atlbase.obj
 0001:00037414       ?RemoveAll@?$CSimpleArray@PEAUHINSTANCE__@@V?$CSimpleArrayEqualHelper@PEAUHINSTANCE__@@@ATL@@@ATL@@QEAAXXZ 0000000180038414 f i atls:atlbase.obj
 0001:0003743c       ?RemoveAt@?$CSimpleArray@PEAUHINSTANCE__@@V?$CSimpleArrayEqualHelper@PEAUHINSTANCE__@@@ATL@@@ATL@@QEAAHH@Z 000000018003843c f i atls:atlbase.obj
 0001:000374e0       ?RemoveResourceInstance@CAtlBaseModule@ATL@@QEAA_NPEAUHINSTANCE__@@@Z 00000001800384e0 f   atls:atlbase.obj
 0001:00037560       ?memmove_s@Checked@ATL@@YAXPEAX_KPEBX1@Z 0000000180038560 f i atls:atlbase.obj
 0001:00037a08       ?GetCodeAddress@_stdcallthunk@ATL@@QEAAPEAXXZ 0000000180038a08 f i atls:atlthunk.obj
 0001:00037a34       ?Init@_stdcallthunk@ATL@@QEAAH_KPEAX@Z 0000000180038a34 f i atls:atlthunk.obj
 0001:00037a84       ?__AllocStdCallThunk@@YAPEAXXZ 0000000180038a84 f   atls:atlthunk.obj
 0001:00037a8c       ?__AllocStdCallThunk@ATL@@YAPEAXXZ 0000000180038a8c f   atls:atlthunk.obj
 0001:00037a94       ?__AllocStdCallThunk_cmn@@YAPEAXXZ 0000000180038a94 f   atls:atlthunk.obj
 0001:00037b6c       ?__FreeStdCallThunk@@YAXPEAX@Z 0000000180038b6c f   atls:atlthunk.obj
 0001:00037b8c       ?__FreeStdCallThunk@ATL@@YAXPEAX@Z 0000000180038b8c f   atls:atlthunk.obj
 0001:00037bac       ?__FreeStdCallThunk_cmn@@YAXPEAX@Z 0000000180038bac f   atls:atlthunk.obj
 0001:00037c4c       AtlThunk_AllocateData      0000000180038c4c f   atls:atlthunk.obj
 0001:00037cc8       AtlThunk_DataToCode        0000000180038cc8 f   atls:atlthunk.obj
 0001:00037d1c       AtlThunk_FreeData          0000000180038d1c f   atls:atlthunk.obj
 0001:00037d7c       AtlThunk_InitData          0000000180038d7c f   atls:atlthunk.obj
 0001:00037e40       memset_repmovs             0000000180038e40 f   libvcruntimed:memset.obj
 0001:00037e60       memset                     0000000180038e60 f   libvcruntimed:memset.obj
 0001:00037ff0       ??$__crt_interlocked_exchange_pointer@$$A6AXXZP6AXXZ@@YAP6AXXZPEDS6AXXZQ6AXXZ@Z 0000000180038ff0 f i libvcruntimed:purevirt.obj
 0001:00038010       ??$__crt_interlocked_read_pointer@$$A6AXXZ@@YAP6AXXZPEDS6AXXZ@Z 0000000180039010 f i libvcruntimed:purevirt.obj
 0001:00038030       ?__crt_interlocked_read_64@@YA_JPED_J@Z 0000000180039030 f i libvcruntimed:purevirt.obj
 0001:00038050       _get_purecall_handler      0000000180039050 f   libvcruntimed:purevirt.obj
 0001:00038070       _purecall                  0000000180039070 f   libvcruntimed:purevirt.obj
 0001:000380b0       _set_purecall_handler      00000001800390b0 f   libvcruntimed:purevirt.obj
 0001:000380e0       memcmp                     00000001800390e0 f   libvcruntimed:memcmp.obj
 0001:000381c0       memcpy_repmovs             00000001800391c0 f   libvcruntimed:memcpy.obj
 0001:000381e0       memcpy                     00000001800391e0 f   libvcruntimed:memcpy.obj
 0001:000381e0       memmove                    00000001800391e0 f   libvcruntimed:memcpy.obj
 0001:000385c0       wcsstr                     00000001800395c0 f   libvcruntimed:wcsstr.obj
 0001:00038c20       __vcrt_initialize          0000000180039c20 f   libvcruntimed:initialization.obj
 0001:00038c60       __vcrt_thread_attach       0000000180039c60 f   libvcruntimed:initialization.obj
 0001:00038c80       __vcrt_thread_detach       0000000180039c80 f   libvcruntimed:initialization.obj
 0001:00038ca0       __vcrt_uninitialize        0000000180039ca0 f   libvcruntimed:initialization.obj
 0001:00038cc0       __vcrt_uninitialize_critical 0000000180039cc0 f   libvcruntimed:initialization.obj
 0001:00038ce0       __C_specific_handler       0000000180039ce0 f   libvcruntimed:riscchandler.obj
 0001:00039150       ??$?0AEAViterator@TryBlockMap4@FH4@@AEAV012@$0A@@?$pair@Viterator@TryBlockMap4@FH4@@V123@@std@@QEAA@AEAViterator@TryBlockMap4@FH4@@0@Z 000000018003a150 f i libvcruntimed:risctrnsctrl.obj
 0001:000391b0       ??$?0AEAViterator@TryBlockMap@__FrameHandler3@@AEAV012@$0A@@?$pair@Viterator@TryBlockMap@__FrameHandler3@@V123@@std@@QEAA@AEAViterator@TryBlockMap@__FrameHandler3@@0@Z 000000018003a1b0 f i libvcruntimed:risctrnsctrl.obj
 0001:00039370       ??$_CallSETranslator@V__FrameHandler3@@@@YAHPEAUEHExceptionRecord@@PEA_KPEAU_CONTEXT@@PEAU_xDISPATCHER_CONTEXT@@PEBU_s_FuncInfo@@K1@Z 000000018003a370 f i libvcruntimed:risctrnsctrl.obj
 0001:00039400       ??$_CallSETranslator@V__FrameHandler4@@@@YAHPEAUEHExceptionRecord@@PEA_KPEAU_CONTEXT@@PEAU_xDISPATCHER_CONTEXT@@PEAUFuncInfo4@FH4@@K1@Z 000000018003a400 f i libvcruntimed:risctrnsctrl.obj
 0001:00039490       ??$forward@AEAViterator@TryBlockMap4@FH4@@@std@@YAAEAViterator@TryBlockMap4@FH4@@AEAV123@@Z 000000018003a490 f i libvcruntimed:risctrnsctrl.obj
 0001:000394a0       ??$forward@AEAViterator@TryBlockMap@__FrameHandler3@@@std@@YAAEAViterator@TryBlockMap@__FrameHandler3@@AEAV123@@Z 000000018003a4a0 f i libvcruntimed:risctrnsctrl.obj
 0001:000394b0       ??0FuncInfo4@FH4@@QEAA@XZ  000000018003a4b0 f i libvcruntimed:risctrnsctrl.obj
 0001:00039520       ??0FuncInfoHeader@FH4@@QEAA@XZ 000000018003a520 f i libvcruntimed:risctrnsctrl.obj
 0001:00039540       ??0iterator@TryBlockMap4@FH4@@QEAA@AEAV12@I@Z 000000018003a540 f i libvcruntimed:risctrnsctrl.obj
 0001:00039570       ??0iterator@TryBlockMap@__FrameHandler3@@QEAA@AEAV12@I@Z 000000018003a570 f i libvcruntimed:risctrnsctrl.obj
 0001:000395a0       ??4iterator@TryBlockMap4@FH4@@QEAAAEAV012@AEBV012@@Z 000000018003a5a0 f i libvcruntimed:risctrnsctrl.obj
 0001:000395c0       ??9iterator@TryBlockMap4@FH4@@QEBA_NAEBV012@@Z 000000018003a5c0 f i libvcruntimed:risctrnsctrl.obj
 0001:00039600       ??Diterator@TryBlockMap4@FH4@@QEAA?AUTryBlockMapEntry4@2@XZ 000000018003a600 f i libvcruntimed:risctrnsctrl.obj
 0001:00039630       ??Eiterator@TryBlockMap4@FH4@@QEAAAEAV012@XZ 000000018003a630 f i libvcruntimed:risctrnsctrl.obj
 0001:00039670       ?CatchTryBlock@__FrameHandler3@@SAPEBU_s_TryBlockMapEntry@@PEBU_s_FuncInfo@@H@Z 000000018003a670 f   libvcruntimed:risctrnsctrl.obj
 0001:00039700       ?DecompFuncInfo@FH4@@YA_JPEAEAEAUFuncInfo4@1@_KH@Z 000000018003a700 f i libvcruntimed:risctrnsctrl.obj
 0001:00039740       ?DecompFuncInfo@FH4@@YA_JPEAEAEAUFuncInfo4@1@_KH_N@Z 000000018003a740 f i libvcruntimed:risctrnsctrl.obj
 0001:00039910       ?DecompTryBlock@TryBlockMap4@FH4@@AEAAXXZ 000000018003a910 f i libvcruntimed:risctrnsctrl.obj
 0001:00039990       ?ExecutionInCatch@__FrameHandler3@@SA_NPEAU_xDISPATCHER_CONTEXT@@PEBU_s_FuncInfo@@@Z 000000018003a990 f   libvcruntimed:risctrnsctrl.obj
 0001:000399e0       ?ExecutionInCatch@__FrameHandler4@@SA_NPEAU_xDISPATCHER_CONTEXT@@PEAUFuncInfo4@FH4@@@Z 000000018003a9e0 f   libvcruntimed:risctrnsctrl.obj
 0001:00039a00       ?FrameUnwindToEmptyState@__FrameHandler3@@SAXPEA_KPEAU_xDISPATCHER_CONTEXT@@PEBU_s_FuncInfo@@@Z 000000018003aa00 f   libvcruntimed:risctrnsctrl.obj
 0001:00039aa0       ?FrameUnwindToEmptyState@__FrameHandler4@@SAXPEA_KPEAU_xDISPATCHER_CONTEXT@@PEAUFuncInfo4@FH4@@@Z 000000018003aaa0 f   libvcruntimed:risctrnsctrl.obj
 0001:00039af0       ?GetEstablisherFrame@__FrameHandler3@@SAPEA_KPEA_KPEAU_xDISPATCHER_CONTEXT@@PEBU_s_FuncInfo@@0@Z 000000018003aaf0 f   libvcruntimed:risctrnsctrl.obj
 0001:00039c60       ?GetEstablisherFrame@__FrameHandler4@@SAPEA_KPEA_KPEAU_xDISPATCHER_CONTEXT@@PEAUFuncInfo4@FH4@@0@Z 000000018003ac60 f   libvcruntimed:risctrnsctrl.obj
 0001:00039cd0       ?GetRangeOfTrysToCheck@__FrameHandler3@@SA?AU?$pair@Viterator@TryBlockMap@__FrameHandler3@@V123@@std@@AEAVTryBlockMap@1@HPEAU_xDISPATCHER_CONTEXT@@PEBU_s_FuncInfo@@H@Z 000000018003acd0 f   libvcruntimed:risctrnsctrl.obj
 0001:00039f10       ?GetRangeOfTrysToCheck@__FrameHandler4@@SA?AU?$pair@Viterator@TryBlockMap4@FH4@@V123@@std@@AEAVTryBlockMap4@FH4@@HPEAU_xDISPATCHER_CONTEXT@@PEAUFuncInfo4@5@H@Z 000000018003af10 f   libvcruntimed:risctrnsctrl.obj
 0001:0003a0c0       ?ReadInt@FH4@@YAHPEAPEAE@Z 000000018003b0c0 f i libvcruntimed:risctrnsctrl.obj
 0001:0003a100       ?ReadUnsigned@FH4@@YAIPEAPEAE@Z 000000018003b100 f i libvcruntimed:risctrnsctrl.obj
 0001:0003a190       ?UnwindNestedFrames@__FrameHandler3@@SAXPEA_KPEAUEHExceptionRecord@@PEAU_CONTEXT@@0PEAXPEBU_s_FuncInfo@@HHPEBU_s_HandlerType@@PEAU_xDISPATCHER_CONTEXT@@E@Z 000000018003b190 f   libvcruntimed:risctrnsctrl.obj
 0001:0003a300       ?UnwindNestedFrames@__FrameHandler4@@SAXPEA_KPEAUEHExceptionRecord@@PEAU_CONTEXT@@0PEAXPEAUFuncInfo4@FH4@@HHPEAUHandlerType4@5@PEAU_xDISPATCHER_CONTEXT@@E@Z 000000018003b300 f   libvcruntimed:risctrnsctrl.obj
 0001:0003a4d0       ?begin@TryBlockMap4@FH4@@QEAA?AViterator@12@XZ 000000018003b4d0 f i libvcruntimed:risctrnsctrl.obj
 0001:0003a500       ?end@TryBlockMap4@FH4@@QEAA?AViterator@12@XZ 000000018003b500 f i libvcruntimed:risctrnsctrl.obj
 0001:0003a530       ?imageRelToByteBuffer@FH4@@YAPEAE_KH@Z 000000018003b530 f i libvcruntimed:risctrnsctrl.obj
 0001:0003a550       ?incrementToSentinel@iterator@TryBlockMap4@FH4@@QEAAXXZ 000000018003b550 f i libvcruntimed:risctrnsctrl.obj
 0001:0003a570       ?setBuffer@TryBlockMap4@FH4@@QEAAXViterator@12@@Z 000000018003b570 f i libvcruntimed:risctrnsctrl.obj
 0001:0003a5e0       _CreateFrameInfo           000000018003b5e0 f   libvcruntimed:risctrnsctrl.obj
 0001:0003a650       _FindAndUnlinkFrame        000000018003b650 f   libvcruntimed:risctrnsctrl.obj
 0001:0003a6d0       _GetImageBase              000000018003b6d0 f   libvcruntimed:risctrnsctrl.obj
 0001:0003a6f0       _GetThrowImageBase         000000018003b6f0 f   libvcruntimed:risctrnsctrl.obj
 0001:0003a710       _SetImageBase              000000018003b710 f   libvcruntimed:risctrnsctrl.obj
 0001:0003a730       _SetThrowImageBase         000000018003b730 f   libvcruntimed:risctrnsctrl.obj
 0001:0003a750       __CxxFrameHandler          000000018003b750 f   libvcruntimed:risctrnsctrl.obj
 0001:0003a790       __CxxFrameHandler2         000000018003b790 f   libvcruntimed:risctrnsctrl.obj
 0001:0003a7d0       __CxxFrameHandler3         000000018003b7d0 f   libvcruntimed:risctrnsctrl.obj
 0001:0003a8b0       __CxxFrameHandler4         000000018003b8b0 f   libvcruntimed:risctrnsctrl.obj
 0001:0003a9c0       __C_specific_handler_noexcept 000000018003b9c0 f   libvcruntimed:chandler_noexcept.obj
 0001:0003aa50       __DestructExceptionObject  000000018003ba50 f   libvcruntimed:ehhelpers.obj
 0001:0003ab50       ?_CallMemberFunction0@@YAXQEAX0@Z 000000018003bb50 f i libvcruntimed:ehhelpers.obj
 0001:0003ac20       ?raw_name@type_info@@QEBAPEBDXZ 000000018003bc20 f i libvcruntimed:ehhelpers.obj
 0001:0003ac30       _IsExceptionObjectToBeDestroyed 000000018003bc30 f   libvcruntimed:ehhelpers.obj
 0001:0003ac80       _SetWinRTOutOfMemoryExceptionCallback 000000018003bc80 f   libvcruntimed:ehhelpers.obj
 0001:0003aca0       __AdjustPointer            000000018003bca0 f   libvcruntimed:ehhelpers.obj
 0001:0003ad20       __FrameUnwindFilter        000000018003bd20 f   libvcruntimed:ehhelpers.obj
 0001:0003add0       __GetPlatformExceptionInfo 000000018003bdd0 f   libvcruntimed:ehhelpers.obj
 0001:0003ae80       __current_exception        000000018003be80 f   libvcruntimed:ehhelpers.obj
 0001:0003aea0       __current_exception_context 000000018003bea0 f   libvcruntimed:ehhelpers.obj
 0001:0003aec0       __processing_throw         000000018003bec0 f   libvcruntimed:ehhelpers.obj
 0001:0003aee0       __std_terminate            000000018003bee0 f   libvcruntimed:ehhelpers.obj
 0001:0003aef0       _is_exception_typeof       000000018003bef0 f   libvcruntimed:ehhelpers.obj
 0001:0003b080       ??$?RD@__crt_internal_free_policy@@QEBAXQEBD@Z 000000018003c080 f i libvcruntimed:std_type_info.obj
 0001:0003b0b0       ??$?RX@__crt_internal_free_policy@@QEBAXQEBX@Z 000000018003c0b0 f i libvcruntimed:std_type_info.obj
 0001:0003b0e0       ??$__crt_interlocked_compare_exchange_pointer@$$CBDPEAD$$T@@YAPEBDPEDSEBDQEAD$$T@Z 000000018003c0e0 f i libvcruntimed:std_type_info.obj
 0001:0003b120       ??$__crt_interlocked_read_pointer@$$CBD@@YAPEBDPEDSEBD@Z 000000018003c120 f i libvcruntimed:std_type_info.obj
 0001:0003b140       ??0?$__crt_unique_heap_ptr@DU__crt_internal_free_policy@@@@QEAA@QEAD@Z 000000018003c140 f i libvcruntimed:std_type_info.obj
 0001:0003b160       ??0?$__crt_unique_heap_ptr@XU__crt_internal_free_policy@@@@QEAA@QEAX@Z 000000018003c160 f i libvcruntimed:std_type_info.obj
 0001:0003b180       ??1?$__crt_unique_heap_ptr@DU__crt_internal_free_policy@@@@QEAA@XZ 000000018003c180 f i libvcruntimed:std_type_info.obj
 0001:0003b1a0       ??1?$__crt_unique_heap_ptr@XU__crt_internal_free_policy@@@@QEAA@XZ 000000018003c1a0 f i libvcruntimed:std_type_info.obj
 0001:0003b1c0       ??B?$__crt_unique_heap_ptr@DU__crt_internal_free_policy@@@@QEBA_NXZ 000000018003c1c0 f i libvcruntimed:std_type_info.obj
 0001:0003b1e0       ??B?$__crt_unique_heap_ptr@XU__crt_internal_free_policy@@@@QEBA_NXZ 000000018003c1e0 f i libvcruntimed:std_type_info.obj
 0001:0003b280       ?detach@?$__crt_unique_heap_ptr@XU__crt_internal_free_policy@@@@QEAAPEAXXZ 000000018003c280 f i libvcruntimed:std_type_info.obj
 0001:0003b2b0       ?get@?$__crt_unique_heap_ptr@DU__crt_internal_free_policy@@@@QEBAPEADXZ 000000018003c2b0 f i libvcruntimed:std_type_info.obj
 0001:0003b2c0       ?get@?$__crt_unique_heap_ptr@XU__crt_internal_free_policy@@@@QEBAPEAXXZ 000000018003c2c0 f i libvcruntimed:std_type_info.obj
 0001:0003b2d0       ?is_valid@?$__crt_unique_heap_ptr@DU__crt_internal_free_policy@@@@QEBA_NXZ 000000018003c2d0 f i libvcruntimed:std_type_info.obj
 0001:0003b300       ?is_valid@?$__crt_unique_heap_ptr@XU__crt_internal_free_policy@@@@QEBA_NXZ 000000018003c300 f i libvcruntimed:std_type_info.obj
 0001:0003b330       ?release@?$__crt_unique_heap_ptr@DU__crt_internal_free_policy@@@@QEAAXXZ 000000018003c330 f i libvcruntimed:std_type_info.obj
 0001:0003b360       ?release@?$__crt_unique_heap_ptr@XU__crt_internal_free_policy@@@@QEAAXXZ 000000018003c360 f i libvcruntimed:std_type_info.obj
 0001:0003b390       __std_type_info_compare    000000018003c390 f   libvcruntimed:std_type_info.obj
 0001:0003b3d0       __std_type_info_destroy_list 000000018003c3d0 f   libvcruntimed:std_type_info.obj
 0001:0003b430       __std_type_info_hash       000000018003c430 f   libvcruntimed:std_type_info.obj
 0001:0003b4e0       __std_type_info_name       000000018003c4e0 f   libvcruntimed:std_type_info.obj
 0001:0003b790       __vcrt_GetModuleFileNameW  000000018003c790 f   libvcruntimed:winapi_thunks.obj
 0001:0003b7c0       __vcrt_GetModuleHandleW    000000018003c7c0 f   libvcruntimed:winapi_thunks.obj
 0001:0003b7e0       __vcrt_LoadLibraryExW      000000018003c7e0 f   libvcruntimed:winapi_thunks.obj
 0001:0003b810       ??$?RD@__crt_public_free_policy@@QEBAXQEBD@Z 000000018003c810 f i libvcruntimed:std_exception.obj
 0001:0003b830       ??0?$__crt_unique_heap_ptr@DU__crt_public_free_policy@@@@QEAA@QEAD@Z 000000018003c830 f i libvcruntimed:std_exception.obj
 0001:0003b850       ??1?$__crt_unique_heap_ptr@DU__crt_public_free_policy@@@@QEAA@XZ 000000018003c850 f i libvcruntimed:std_exception.obj
 0001:0003b870       ??B?$__crt_unique_heap_ptr@DU__crt_public_free_policy@@@@QEBA_NXZ 000000018003c870 f i libvcruntimed:std_exception.obj
 0001:0003b890       ?detach@?$__crt_unique_heap_ptr@DU__crt_public_free_policy@@@@QEAAPEADXZ 000000018003c890 f i libvcruntimed:std_exception.obj
 0001:0003b8c0       ?get@?$__crt_unique_heap_ptr@DU__crt_public_free_policy@@@@QEBAPEADXZ 000000018003c8c0 f i libvcruntimed:std_exception.obj
 0001:0003b8d0       ?is_valid@?$__crt_unique_heap_ptr@DU__crt_public_free_policy@@@@QEBA_NXZ 000000018003c8d0 f i libvcruntimed:std_exception.obj
 0001:0003b900       ?release@?$__crt_unique_heap_ptr@DU__crt_public_free_policy@@@@QEAAXXZ 000000018003c900 f i libvcruntimed:std_exception.obj
 0001:0003b930       __std_exception_copy       000000018003c930 f   libvcruntimed:std_exception.obj
 0001:0003ba70       __std_exception_destroy    000000018003ca70 f   libvcruntimed:std_exception.obj
 0001:0003bab0       _CxxThrowException         000000018003cab0 f   libvcruntimed:throw.obj
 0001:0003bbe0       ??$?RU__vcrt_ptd@@@__crt_internal_free_policy@@QEBAXQEBU__vcrt_ptd@@@Z 000000018003cbe0 f i libvcruntimed:per_thread_data.obj
 0001:0003bc10       ??0?$__crt_unique_heap_ptr@U__vcrt_ptd@@U__crt_internal_free_policy@@@@QEAA@QEAU__vcrt_ptd@@@Z 000000018003cc10 f i libvcruntimed:per_thread_data.obj
 0001:0003bc50       ??1?$__crt_unique_heap_ptr@U__vcrt_ptd@@U__crt_internal_free_policy@@@@QEAA@XZ 000000018003cc50 f i libvcruntimed:per_thread_data.obj
 0001:0003bc90       ??B?$__crt_unique_heap_ptr@U__vcrt_ptd@@U__crt_internal_free_policy@@@@QEBA_NXZ 000000018003cc90 f i libvcruntimed:per_thread_data.obj
 0001:0003bcb0       ?detach@?$__crt_unique_heap_ptr@U__vcrt_ptd@@U__crt_internal_free_policy@@@@QEAAPEAU__vcrt_ptd@@XZ 000000018003ccb0 f i libvcruntimed:per_thread_data.obj
 0001:0003bce0       ?get@?$__crt_unique_heap_ptr@U__vcrt_ptd@@U__crt_internal_free_policy@@@@QEBAPEAU__vcrt_ptd@@XZ 000000018003cce0 f i libvcruntimed:per_thread_data.obj
 0001:0003bcf0       ?is_valid@?$__crt_unique_heap_ptr@U__vcrt_ptd@@U__crt_internal_free_policy@@@@QEBA_NXZ 000000018003ccf0 f i libvcruntimed:per_thread_data.obj
 0001:0003bd20       ?release@?$__crt_unique_heap_ptr@U__vcrt_ptd@@U__crt_internal_free_policy@@@@QEAAXXZ 000000018003cd20 f i libvcruntimed:per_thread_data.obj
 0001:0003bd90       __vcrt_freefls             000000018003cd90 f   libvcruntimed:per_thread_data.obj
 0001:0003bdd0       __vcrt_freeptd             000000018003cdd0 f   libvcruntimed:per_thread_data.obj
 0001:0003be30       __vcrt_getptd              000000018003ce30 f   libvcruntimed:per_thread_data.obj
 0001:0003be60       __vcrt_getptd_noexit       000000018003ce60 f   libvcruntimed:per_thread_data.obj
 0001:0003c000       __vcrt_getptd_noinit       000000018003d000 f   libvcruntimed:per_thread_data.obj
 0001:0003c060       __vcrt_initialize_ptd      000000018003d060 f   libvcruntimed:per_thread_data.obj
 0001:0003c0b0       __vcrt_uninitialize_ptd    000000018003d0b0 f   libvcruntimed:per_thread_data.obj
 0001:0003c0e0       __vcrt_initialize_locks    000000018003d0e0 f   libvcruntimed:locks.obj
 0001:0003c150       __vcrt_lock                000000018003d150 f   libvcruntimed:locks.obj
 0001:0003c180       __vcrt_uninitialize_locks  000000018003d180 f   libvcruntimed:locks.obj
 0001:0003c1e0       __vcrt_unlock              000000018003d1e0 f   libvcruntimed:locks.obj
 0001:0003c220       _NLG_Notify                000000018003d220 f   libvcruntimed:notify.obj
 0001:0003c240       __NLG_Dispatch2            000000018003d240 f   libvcruntimed:notify.obj
 0001:0003c250       __NLG_Return2              000000018003d250 f   libvcruntimed:notify.obj
 0001:0003c270       __except_validate_context_record 000000018003d270 f   libvcruntimed:jbcxrval.obj
 0001:0003c2d0       __except_validate_jump_buffer 000000018003d2d0 f   libvcruntimed:jbcxrval.obj
 0001:0003c2f0       __except_validate_jump_buffer_common 000000018003d2f0 f i libvcruntimed:jbcxrval.obj
 0001:0003c370       ?GetCurrentState@__FrameHandler3@@SAHPEA_KPEAU_xDISPATCHER_CONTEXT@@PEBU_s_FuncInfo@@@Z 000000018003d370 f   libvcruntimed:ehstate.obj
 0001:0003c3d0       ?GetUnwindTryBlock@__FrameHandler3@@SAHPEA_KPEAU_xDISPATCHER_CONTEXT@@PEBU_s_FuncInfo@@@Z 000000018003d3d0 f   libvcruntimed:ehstate.obj
 0001:0003c420       ?SetState@__FrameHandler3@@SAXPEA_KPEBU_s_FuncInfo@@H@Z 000000018003d420 f   libvcruntimed:ehstate.obj
 0001:0003c450       ?SetUnwindTryBlock@__FrameHandler3@@SAXPEA_KPEAU_xDISPATCHER_CONTEXT@@PEBU_s_FuncInfo@@H@Z 000000018003d450 f   libvcruntimed:ehstate.obj
 0001:0003c4c0       ?StateFromControlPc@__FrameHandler3@@SAHPEBU_s_FuncInfo@@PEAU_xDISPATCHER_CONTEXT@@@Z 000000018003d4c0 f   libvcruntimed:ehstate.obj
 0001:0003c500       ?StateFromControlPc@__FrameHandler4@@SAHPEAUFuncInfo4@FH4@@PEAU_xDISPATCHER_CONTEXT@@@Z 000000018003d500 f   libvcruntimed:ehstate.obj
 0001:0003c540       ?StateFromIp@__FrameHandler3@@SAHPEBU_s_FuncInfo@@PEAU_xDISPATCHER_CONTEXT@@_K@Z 000000018003d540 f   libvcruntimed:ehstate.obj
 0001:0003c630       ?StateFromIp@__FrameHandler4@@SAHPEAUFuncInfo4@FH4@@PEAU_xDISPATCHER_CONTEXT@@_K@Z 000000018003d630 f   libvcruntimed:ehstate.obj
 0001:0003c720       ?__FuncRelToRealOffset@@YA_KPEAU_xDISPATCHER_CONTEXT@@I@Z 000000018003d720 f i libvcruntimed:ehstate.obj
 0001:0003c750       ?__RVAtoRealOffset@@YA_KPEAU_xDISPATCHER_CONTEXT@@H@Z 000000018003d750 f i libvcruntimed:ehstate.obj
 0001:0003e9c0       ??$TypeMatchHelper@V__FrameHandler3@@@@YAHPEBU_s_HandlerType@@PEBU_s_CatchableType@@PEBU_s_ThrowInfo@@@Z 000000018003f9c0 f i libvcruntimed:frame.obj
 0001:0003ebc0       ??$TypeMatchHelper@V__FrameHandler4@@@@YAHPEAUHandlerType4@FH4@@PEBU_s_CatchableType@@PEBU_s_ThrowInfo@@@Z 000000018003fbc0 f i libvcruntimed:frame.obj
 0001:0003edd0       ??$__InternalCxxFrameHandler@V__FrameHandler3@@@@YA?AW4_EXCEPTION_DISPOSITION@@PEAUEHExceptionRecord@@PEA_KPEAU_CONTEXT@@PEAU_xDISPATCHER_CONTEXT@@PEBU_s_FuncInfo@@H1E@Z 000000018003fdd0 f i libvcruntimed:frame.obj
 0001:0003f240       ??$__InternalCxxFrameHandler@V__FrameHandler4@@@@YA?AW4_EXCEPTION_DISPOSITION@@PEAUEHExceptionRecord@@PEA_KPEAU_CONTEXT@@PEAU_xDISPATCHER_CONTEXT@@PEAUFuncInfo4@FH4@@H1E@Z 0000000180040240 f i libvcruntimed:frame.obj
 0001:0003f6d0       ??0HandlerMap4@FH4@@QEAA@PEBUTryBlockMapEntry4@1@_KH@Z 00000001800406d0 f i libvcruntimed:frame.obj
 0001:0003f790       ??0HandlerMap@__FrameHandler3@@QEAA@PEBU_s_TryBlockMapEntry@@_KI@Z 0000000180040790 f i libvcruntimed:frame.obj
 0001:0003f7e0       ??0HandlerType4@FH4@@QEAA@XZ 00000001800407e0 f i libvcruntimed:frame.obj
 0001:0003f800       ??0TryBlockMap4@FH4@@QEAA@PEBUFuncInfo4@1@_K@Z 0000000180040800 f i libvcruntimed:frame.obj
 0001:0003f890       ??0TryBlockMap@__FrameHandler3@@QEAA@PEBU_s_FuncInfo@@_K@Z 0000000180040890 f i libvcruntimed:frame.obj
 0001:0003f8c0       ??0UWMap4@FH4@@QEAA@PEBUFuncInfo4@1@_K@Z 00000001800408c0 f i libvcruntimed:frame.obj
 0001:0003f930       ??0bad_exception@std@@QEAA@AEBV01@@Z 0000000180040930 f i libvcruntimed:frame.obj
 0001:0003f970       ??0bad_exception@std@@QEAA@XZ 0000000180040970 f i libvcruntimed:frame.obj
 0001:0003f9b0       ??0iterator@HandlerMap4@FH4@@QEAA@AEAV12@I@Z 00000001800409b0 f i libvcruntimed:frame.obj
 0001:0003f9e0       ??0iterator@HandlerMap@__FrameHandler3@@QEAA@AEAV12@I@Z 00000001800409e0 f i libvcruntimed:frame.obj
 0001:0003fa10       ??0iterator@UWMap4@FH4@@QEAA@AEAV12@PEAE@Z 0000000180040a10 f i libvcruntimed:frame.obj
 0001:0003fa40       ??1bad_exception@std@@UEAA@XZ 0000000180040a40 f i libvcruntimed:frame.obj
 0001:0003fa60       ??4iterator@UWMap4@FH4@@QEAAAEAV012@AEBV012@@Z 0000000180040a60 f i libvcruntimed:frame.obj
 0001:0003fab0       ??8iterator@HandlerMap4@FH4@@QEBA_NAEBV012@@Z 0000000180040ab0 f i libvcruntimed:frame.obj
 0001:0003faf0       ??8iterator@HandlerMap@__FrameHandler3@@QEBA_NAEBV012@@Z 0000000180040af0 f i libvcruntimed:frame.obj
 0001:0003fb30       ??8type_info@@QEBA_NAEBV0@@Z 0000000180040b30 f i libvcruntimed:frame.obj
 0001:0003fb80       ??9iterator@HandlerMap4@FH4@@QEBA_NAEBV012@@Z 0000000180040b80 f i libvcruntimed:frame.obj
 0001:0003fbc0       ??9iterator@HandlerMap@__FrameHandler3@@QEBA_NAEBV012@@Z 0000000180040bc0 f i libvcruntimed:frame.obj
 0001:0003fc00       ??Diterator@HandlerMap4@FH4@@QEAA?AUHandlerType4@2@XZ 0000000180040c00 f i libvcruntimed:frame.obj
 0001:0003fc30       ??Diterator@HandlerMap@__FrameHandler3@@QEAA?BU_s_HandlerType@@XZ 0000000180040c30 f i libvcruntimed:frame.obj
 0001:0003fc70       ??Diterator@TryBlockMap@__FrameHandler3@@QEAA?BU_s_TryBlockMapEntry@@XZ 0000000180040c70 f i libvcruntimed:frame.obj
 0001:0003fcc0       ??Diterator@UWMap4@FH4@@QEAA?AUUnwindMapEntry4@2@XZ 0000000180040cc0 f i libvcruntimed:frame.obj
 0001:0003fd40       ??Eiterator@HandlerMap4@FH4@@QEAAAEAV012@XZ 0000000180040d40 f i libvcruntimed:frame.obj
 0001:0003fd80       ??Eiterator@HandlerMap@__FrameHandler3@@QEAAAEAV012@XZ 0000000180040d80 f i libvcruntimed:frame.obj
 0001:0003fda0       ??Eiterator@TryBlockMap@__FrameHandler3@@QEAAAEAV012@XZ 0000000180040da0 f i libvcruntimed:frame.obj
 0001:0003fdc0       ??Eiterator@UWMap4@FH4@@QEAAAEAV012@XZ 0000000180040dc0 f i libvcruntimed:frame.obj
 0001:0003fe00       ??Giterator@UWMap4@FH4@@QEBA_JAEBV012@@Z 0000000180040e00 f i libvcruntimed:frame.obj
 0001:0003fe20       ??Miterator@TryBlockMap4@FH4@@QEBA_NAEBV012@@Z 0000000180040e20 f i libvcruntimed:frame.obj
 0001:0003fe60       ??Miterator@TryBlockMap@__FrameHandler3@@QEBA_NAEBV012@@Z 0000000180040e60 f i libvcruntimed:frame.obj
 0001:0003fea0       ??Oiterator@UWMap4@FH4@@QEBA_NAEBV012@@Z 0000000180040ea0 f i libvcruntimed:frame.obj
 0001:0003fee0       ??Piterator@UWMap4@FH4@@QEBA_NAEBV012@@Z 0000000180040ee0 f i libvcruntimed:frame.obj
 0001:0003ff20       ??_Ebad_exception@std@@UEAAPEAXI@Z 0000000180040f20 f i libvcruntimed:frame.obj
 0001:0003ff20       ??_Gbad_exception@std@@UEAAPEAXI@Z 0000000180040f20 f i libvcruntimed:frame.obj
 0001:0003ff60       ?BuildCatchObject@__FrameHandler3@@SAXPEAUEHExceptionRecord@@PEAXPEBU_s_HandlerType@@PEBU_s_CatchableType@@@Z 0000000180040f60 f   libvcruntimed:frame.obj
 0001:0003ffa0       ?BuildCatchObject@__FrameHandler4@@SAXPEAUEHExceptionRecord@@PEAXPEAUHandlerType4@FH4@@PEBU_s_CatchableType@@@Z 0000000180040fa0 f   libvcruntimed:frame.obj
 0001:0003ffe0       ?BuildCatchObjectHelper@__FrameHandler3@@SAHPEAUEHExceptionRecord@@PEAXPEBU_s_HandlerType@@PEBU_s_CatchableType@@@Z 0000000180040fe0 f   libvcruntimed:frame.obj
 0001:00040020       ?BuildCatchObjectHelper@__FrameHandler4@@SAHPEAUEHExceptionRecord@@PEAXPEAUHandlerType4@FH4@@PEBU_s_CatchableType@@@Z 0000000180041020 f   libvcruntimed:frame.obj
 0001:00040060       ?CxxCallCatchBlock@__FrameHandler3@@SAPEAXPEAU_EXCEPTION_RECORD@@@Z 0000000180041060 f   libvcruntimed:frame.obj
 0001:000402c0       ?CxxCallCatchBlock@__FrameHandler4@@SAPEAXPEAU_EXCEPTION_RECORD@@@Z 00000001800412c0 f   libvcruntimed:frame.obj
 0001:000405f0       ?DecompHandler@HandlerMap4@FH4@@AEAAXXZ 00000001800415f0 f i libvcruntimed:frame.obj
 0001:000409c0       ?FrameUnwindToState@__FrameHandler3@@SAXPEA_KPEAU_xDISPATCHER_CONTEXT@@PEBU_s_FuncInfo@@H@Z 00000001800419c0 f   libvcruntimed:frame.obj
 0001:00040c10       ?FrameUnwindToState@__FrameHandler4@@SAXPEA_KPEAU_xDISPATCHER_CONTEXT@@PEAUFuncInfo4@FH4@@H@Z 0000000180041c10 f   libvcruntimed:frame.obj
 0001:00040f60       ?GetHandlerSearchState@__FrameHandler3@@SAHPEA_KPEAU_xDISPATCHER_CONTEXT@@PEBU_s_FuncInfo@@@Z 0000000180041f60 f i libvcruntimed:frame.obj
 0001:00041010       ?GetHandlerSearchState@__FrameHandler4@@SAHPEA_KPEAU_xDISPATCHER_CONTEXT@@PEAUFuncInfo4@FH4@@@Z 0000000180042010 f i libvcruntimed:frame.obj
 0001:00041090       ?GetMaxState@__FrameHandler3@@SAHPEAU_xDISPATCHER_CONTEXT@@PEBU_s_FuncInfo@@@Z 0000000180042090 f i libvcruntimed:frame.obj
 0001:000410b0       ?GetMaxState@__FrameHandler4@@SAHPEAU_xDISPATCHER_CONTEXT@@PEAUFuncInfo4@FH4@@@Z 00000001800420b0 f i libvcruntimed:frame.obj
 0001:000412e0       ?ReadEntry@UWMap4@FH4@@AEAAXPEAPEAE@Z 00000001800422e0 f i libvcruntimed:frame.obj
 0001:00041390       ?TypeMatch@__FrameHandler3@@SAHPEBU_s_HandlerType@@PEBU_s_CatchableType@@PEBU_s_ThrowInfo@@@Z 0000000180042390 f   libvcruntimed:frame.obj
 0001:000413c0       ?TypeMatch@__FrameHandler4@@SAHPEAUHandlerType4@FH4@@PEBU_s_CatchableType@@PEBU_s_ThrowInfo@@@Z 00000001800423c0 f   libvcruntimed:frame.obj
 0001:000413f0       ?WalkBack@UWMap4@FH4@@AEAAXPEAPEAE@Z 00000001800423f0 f i libvcruntimed:frame.obj
 0001:00041440       ?WalkBack@iterator@UWMap4@FH4@@QEAAXXZ 0000000180042440 f i libvcruntimed:frame.obj
 0001:00041480       ?WalkForward@UWMap4@FH4@@AEAAXPEAPEAE@Z 0000000180042480 f i libvcruntimed:frame.obj
 0001:000414b0       ?_CallMemberFunction1@@YAXQEAX00@Z 00000001800424b0 f i libvcruntimed:frame.obj
 0001:000414f0       ?_CallMemberFunction2@@YAXQEAX00H@Z 00000001800424f0 f i libvcruntimed:frame.obj
 0001:00041580       ?begin@HandlerMap4@FH4@@QEAA?AViterator@12@XZ 0000000180042580 f i libvcruntimed:frame.obj
 0001:000415b0       ?begin@HandlerMap@__FrameHandler3@@QEAA?AViterator@12@XZ 00000001800425b0 f i libvcruntimed:frame.obj
 0001:000415e0       ?begin@UWMap4@FH4@@QEAA?AViterator@12@XZ 00000001800425e0 f i libvcruntimed:frame.obj
 0001:00041610       ?end@HandlerMap4@FH4@@QEAA?AViterator@12@XZ 0000000180042610 f i libvcruntimed:frame.obj
 0001:00041640       ?end@HandlerMap@__FrameHandler3@@QEAA?AViterator@12@XZ 0000000180042640 f i libvcruntimed:frame.obj
 0001:00041670       ?getESTypes@__FrameHandler3@@SAPEBU_s_ESTypeList@@PEBU_s_FuncInfo@@@Z 0000000180042670 f i libvcruntimed:frame.obj
 0001:000416b0       ?getESTypes@__FrameHandler4@@SAPEBU_s_ESTypeList@@PEAUFuncInfo4@FH4@@@Z 00000001800426b0 f i libvcruntimed:frame.obj
 0001:000416c0       ?getLastEntry@HandlerMap4@FH4@@QEAAPEAUHandlerType4@2@XZ 00000001800426c0 f i libvcruntimed:frame.obj
 0001:00041700       ?getLastEntry@HandlerMap@__FrameHandler3@@QEAAPEBU_s_HandlerType@@XZ 0000000180042700 f i libvcruntimed:frame.obj
 0001:00041720       ?getMagicNum@__FrameHandler3@@SAIPEBU_s_FuncInfo@@@Z 0000000180042720 f i libvcruntimed:frame.obj
 0001:00041740       ?getMagicNum@__FrameHandler4@@SAIPEAUFuncInfo4@FH4@@@Z 0000000180042740 f i libvcruntimed:frame.obj
 0001:00041750       ?getNumTryBlocks@TryBlockMap4@FH4@@QEAAIXZ 0000000180042750 f i libvcruntimed:frame.obj
 0001:00041760       ?getNumTryBlocks@TryBlockMap@__FrameHandler3@@QEAAIXZ 0000000180042760 f i libvcruntimed:frame.obj
 0001:00041780       ?getStartStop@UWMap4@FH4@@QEAAXHHAEAViterator@12@0@Z 0000000180042780 f i libvcruntimed:frame.obj
 0001:000418a0       ?getStateFromIterators@UWMap4@FH4@@SAHAEBViterator@12@H0H0@Z 00000001800428a0 f i libvcruntimed:frame.obj
 0001:000419e0       ?isEHs@__FrameHandler3@@SA_NPEBU_s_FuncInfo@@@Z 00000001800429e0 f i libvcruntimed:frame.obj
 0001:00041a20       ?isEHs@__FrameHandler4@@SA_NPEAUFuncInfo4@FH4@@@Z 0000000180042a20 f i libvcruntimed:frame.obj
 0001:00041a40       ?isNoExcept@__FrameHandler3@@SA_NPEBU_s_FuncInfo@@@Z 0000000180042a40 f i libvcruntimed:frame.obj
 0001:00041a80       ?isNoExcept@__FrameHandler4@@SA_NPEAUFuncInfo4@FH4@@@Z 0000000180042a80 f i libvcruntimed:frame.obj
 0001:00041aa0       ?reset@HandlerType4@FH4@@QEAAXXZ 0000000180042aa0 f i libvcruntimed:frame.obj
 0001:00041b00       ?resetBuffer@HandlerMap4@FH4@@QEAAXXZ 0000000180042b00 f i libvcruntimed:frame.obj
 0001:00041b20       ?setBuffer@HandlerMap4@FH4@@QEAAXI@Z 0000000180042b20 f i libvcruntimed:frame.obj
 0001:00041b80       __BuildCatchObject         0000000180042b80 f   libvcruntimed:frame.obj
 0001:00041bc0       __BuildCatchObjectHelper   0000000180042bc0 f   libvcruntimed:frame.obj
 0001:00041c00       __TypeMatch                0000000180042c00 f   libvcruntimed:frame.obj
 0001:00041c30       __vcrt_EncodePointer       0000000180042c30 f i libvcruntimed:frame.obj
 0001:00041c50       ??$?0$00@DName@@QEAA@PEBDU?$StringLifeSelector@$00@@@Z 0000000180042c50 f i libvcruntimed:undname.obj
 0001:00041cc0       ??$?0$00@pcharNode@@QEAA@PEBDHU?$StringLifeSelector@$00@@@Z 0000000180042cc0 f i libvcruntimed:undname.obj
 0001:00041d20       ??$?0$01@DName@@QEAA@PEBDU?$StringLifeSelector@$01@@@Z 0000000180042d20 f i libvcruntimed:undname.obj
 0001:00041d90       ??$?0$01@pcharNode@@QEAA@PEBDHU?$StringLifeSelector@$01@@@Z 0000000180042d90 f i libvcruntimed:undname.obj
 0001:00041e40       ??$?0$0A@@DName@@QEAA@PEBDU?$StringLifeSelector@$0A@@@@Z 0000000180042e40 f i libvcruntimed:undname.obj
 0001:00041eb0       ??$?0$0A@@pcharNode@@QEAA@PEBDHU?$StringLifeSelector@$0A@@@@Z 0000000180042eb0 f i libvcruntimed:undname.obj
 0001:00041f60       ??$append@VDNameNode@@@DName@@AEAAXPEBVDNameNode@@@Z 0000000180042f60 f i libvcruntimed:undname.obj
 0001:00042010       ??$append@VDNameStatusNode@@@DName@@AEAAXPEBVDNameStatusNode@@@Z 0000000180043010 f i libvcruntimed:undname.obj
 0001:000420c0       ??$append@VcharNode@@@DName@@AEAAXPEBVcharNode@@@Z 00000001800430c0 f i libvcruntimed:undname.obj
 0001:00042170       ??$append@VpDNameNode@@@DName@@AEAAXPEBVpDNameNode@@@Z 0000000180043170 f i libvcruntimed:undname.obj
 0001:00042220       ??$append@VpcharNode@@@DName@@AEAAXPEBVpcharNode@@@Z 0000000180043220 f i libvcruntimed:undname.obj
 0001:000422d0       ??$doPchar@$00@DName@@AEAAXPEBDH@Z 00000001800432d0 f i libvcruntimed:undname.obj
 0001:00042430       ??$doPchar@$01@DName@@AEAAXPEBDH@Z 0000000180043430 f i libvcruntimed:undname.obj
 0001:00042590       ??$doPchar@$0A@@DName@@AEAAXPEBDH@Z 0000000180043590 f i libvcruntimed:undname.obj
 0001:000426f0       ??0Block@_HeapManager@@QEAA@XZ 00000001800436f0 f i libvcruntimed:undname.obj
 0001:00042710       ??0DName@@QEAA@AEAPEBDD@Z  0000000180043710 f   libvcruntimed:undname.obj
 0001:000428e0       ??0DName@@QEAA@AEBUStringLiteral@@@Z 00000001800438e0 f   libvcruntimed:undname.obj
 0001:00042940       ??0DName@@QEAA@AEBV0@@Z    0000000180043940 f i libvcruntimed:undname.obj
 0001:00042970       ??0DName@@QEAA@D@Z         0000000180043970 f   libvcruntimed:undname.obj
 0001:000429b0       ??0DName@@QEAA@PEAV0@@Z    00000001800439b0 f   libvcruntimed:undname.obj
 0001:00042a90       ??0DName@@QEAA@W4DNameStatus@@@Z 0000000180043a90 f   libvcruntimed:undname.obj
 0001:00042b40       ??0DName@@QEAA@XZ          0000000180043b40 f i libvcruntimed:undname.obj
 0001:00042b70       ??0DName@@QEAA@_J@Z        0000000180043b70 f   libvcruntimed:undname.obj
 0001:00042c80       ??0DName@@QEAA@_K@Z        0000000180043c80 f   libvcruntimed:undname.obj
 0001:00042d50       ??0DNameNode@@IEAA@XZ      0000000180043d50 f i libvcruntimed:undname.obj
 0001:00042d70       ??0Replicator@@QEAA@XZ     0000000180043d70 f i libvcruntimed:undname.obj
 0001:00042db0       ??0UnDecorator@@QEAA@PEBDP6APEADJ@ZK@Z 0000000180043db0 f i libvcruntimed:undname.obj
 0001:00042e60       ??0charNode@@QEAA@D@Z      0000000180043e60 f i libvcruntimed:undname.obj
 0001:00042ea0       ??0pDNameNode@@QEAA@PEAVDName@@@Z 0000000180043ea0 f   libvcruntimed:undname.obj
 0001:00042f20       ??0pairNode@@QEAA@PEBVDNameNode@@0@Z 0000000180043f20 f i libvcruntimed:undname.obj
 0001:00042fa0       ??2@YAPEAX_KAEAV_HeapManager@@H@Z 0000000180043fa0 f   libvcruntimed:undname.obj
 0001:00043000       ??4DName@@QEAAAEAV0@AEBUStringLiteral@@@Z 0000000180044000 f   libvcruntimed:undname.obj
 0001:00043050       ??4DName@@QEAAAEAV0@AEBV0@@Z 0000000180044050 f   libvcruntimed:undname.obj
 0001:00043080       ??4DName@@QEAAAEAV0@D@Z    0000000180044080 f i libvcruntimed:undname.obj
 0001:000430c0       ??4DName@@QEAAAEAV0@PEAV0@@Z 00000001800440c0 f   libvcruntimed:undname.obj
 0001:00043190       ??4DName@@QEAAAEAV0@W4DNameStatus@@@Z 0000000180044190 f   libvcruntimed:undname.obj
 0001:00043220       ??AReplicator@@QEBA?AVDName@@H@Z 0000000180044220 f   libvcruntimed:undname.obj
 0001:000432b0       ??H@YA?AVDName@@AEBUStringLiteral@@AEBV0@@Z 00000001800442b0 f i libvcruntimed:undname.obj
 0001:00043300       ??H@YA?AVDName@@DAEBV0@@Z  0000000180044300 f i libvcruntimed:undname.obj
 0001:00043350       ??H@YA?AVDName@@W4DNameStatus@@AEBV0@@Z 0000000180044350 f i libvcruntimed:undname.obj
 0001:000433a0       ??HDName@@QEBA?AV0@AEBUStringLiteral@@@Z 00000001800443a0 f   libvcruntimed:undname.obj
 0001:000433f0       ??HDName@@QEBA?AV0@AEBV0@@Z 00000001800443f0 f   libvcruntimed:undname.obj
 0001:00043440       ??HDName@@QEBA?AV0@D@Z     0000000180044440 f   libvcruntimed:undname.obj
 0001:00043490       ??HDName@@QEBA?AV0@PEAV0@@Z 0000000180044490 f   libvcruntimed:undname.obj
 0001:000434e0       ??HDName@@QEBA?AV0@W4DNameStatus@@@Z 00000001800444e0 f   libvcruntimed:undname.obj
 0001:00043530       ??HStringLiteral@@QEBA?AU0@H@Z 0000000180044530 f i libvcruntimed:undname.obj
 0001:00043570       ??YDName@@QEAAAEAV0@AEBUStringLiteral@@@Z 0000000180044570 f   libvcruntimed:undname.obj
 0001:00043640       ??YDName@@QEAAAEAV0@AEBV0@@Z 0000000180044640 f   libvcruntimed:undname.obj
 0001:00043700       ??YDName@@QEAAAEAV0@D@Z    0000000180044700 f   libvcruntimed:undname.obj
 0001:000437a0       ??YDName@@QEAAAEAV0@PEAV0@@Z 00000001800447a0 f   libvcruntimed:undname.obj
 0001:00043880       ??YDName@@QEAAAEAV0@W4DNameStatus@@@Z 0000000180044880 f   libvcruntimed:undname.obj
 0001:000438f0       ??YReplicator@@QEAAAEAV0@AEBVDName@@@Z 00000001800448f0 f   libvcruntimed:undname.obj
 0001:000439b0       ??_5DName@@QEAAAEAV0@AEBV0@@Z 00000001800449b0 f   libvcruntimed:undname.obj
 0001:00043a20       ??__K_l@@YA?AUStringLiteral@@PEBD_K@Z 0000000180044a20 f i libvcruntimed:undname.obj
 0001:00043a70       ?Constructor@_HeapManager@@QEAAXP6APEAX_K@ZP6AXPEAX@Z@Z 0000000180044a70 f i libvcruntimed:undname.obj
 0001:00043ad0       ?Destructor@_HeapManager@@QEAAXXZ 0000000180044ad0 f i libvcruntimed:undname.obj
 0001:00043b70       ?UScore@UnDecorator@@SA?AUStringLiteral@@W4Tokens@@@Z 0000000180044b70 f   libvcruntimed:undname.obj
 0001:00043c00       ?composeDeclaration@UnDecorator@@CA?AVDName@@AEBV2@@Z 0000000180044c00 f i libvcruntimed:undname.obj
 0001:00046100       ?dbGetString@DName@@QEBAPEADXZ 0000000180047100 f   libvcruntimed:undname.obj
 0001:00046130       ?doAccessSpecifiers@UnDecorator@@SAHXZ 0000000180047130 f i libvcruntimed:undname.obj
 0001:00046160       ?doAllocationLanguage@UnDecorator@@SAHXZ 0000000180047160 f i libvcruntimed:undname.obj
 0001:00046190       ?doAllocationModel@UnDecorator@@SAHXZ 0000000180047190 f i libvcruntimed:undname.obj
 0001:000461c0       ?doEcsu@UnDecorator@@SAHXZ 00000001800471c0 f i libvcruntimed:undname.obj
 0001:000461f0       ?doEllipsis@UnDecorator@@SAHXZ 00000001800471f0 f i libvcruntimed:undname.obj
 0001:00046220       ?doFunctionReturns@UnDecorator@@SAHXZ 0000000180047220 f i libvcruntimed:undname.obj
 0001:00046250       ?doMSKeywords@UnDecorator@@SAHXZ 0000000180047250 f i libvcruntimed:undname.obj
 0001:00046280       ?doMemberTypes@UnDecorator@@SAHXZ 0000000180047280 f i libvcruntimed:undname.obj
 0001:000462b0       ?doNameOnly@UnDecorator@@SAHXZ 00000001800472b0 f i libvcruntimed:undname.obj
 0001:000462c0       ?doNoIdentCharCheck@UnDecorator@@SAHXZ 00000001800472c0 f i libvcruntimed:undname.obj
 0001:000462d0       ?doPchar@DName@@AEAAXD@Z   00000001800472d0 f   libvcruntimed:undname.obj
 0001:00046360       ?doPtr64@UnDecorator@@SAHXZ 0000000180047360 f i libvcruntimed:undname.obj
 0001:00046390       ?doRestrictionSpec@UnDecorator@@SAHXZ 0000000180047390 f i libvcruntimed:undname.obj
 0001:000463c0       ?doThisTypes@UnDecorator@@SAHXZ 00000001800473c0 f i libvcruntimed:undname.obj
 0001:000463f0       ?doThrowTypes@UnDecorator@@SAHXZ 00000001800473f0 f i libvcruntimed:undname.obj
 0001:00046420       ?doTypeOnly@UnDecorator@@SAHXZ 0000000180047420 f i libvcruntimed:undname.obj
 0001:00046430       ?doUnderScore@UnDecorator@@SAHXZ 0000000180047430 f i libvcruntimed:undname.obj
 0001:00046460       ?getArgumentList@UnDecorator@@CA?AVDName@@XZ 0000000180047460 f   libvcruntimed:undname.obj
 0001:00046600       ?getArgumentTypes@UnDecorator@@CA?AVDName@@XZ 0000000180047600 f   libvcruntimed:undname.obj
 0001:00046960       ?getArrayType@UnDecorator@@CA?AVDName@@AEBV2@@Z 0000000180047960 f i libvcruntimed:undname.obj
 0001:00046d20       ?getBasedType@UnDecorator@@CA?AVDName@@XZ 0000000180047d20 f   libvcruntimed:undname.obj
 0001:00046e90       ?getBasicDataType@UnDecorator@@CA?AVDName@@AEBV2@@Z 0000000180047e90 f   libvcruntimed:undname.obj
 0001:00047b60       ?getCHPEName@UnDecorator@@QEAAPEADPEADH@Z 0000000180048b60 f i libvcruntimed:undname.obj
 0001:00047d30       ?getCallIndex@UnDecorator@@CA?AVDName@@XZ 0000000180048d30 f i libvcruntimed:undname.obj
 0001:00047d50       ?getCallingConvention@UnDecorator@@CA?AVDName@@XZ 0000000180048d50 f   libvcruntimed:undname.obj
 0001:000480f0       ?getDataIndirectType@UnDecorator@@CA?AVDName@@AEBV2@W4IndirectionKind@@0H@Z 00000001800490f0 f   libvcruntimed:undname.obj
 0001:00048d90       ?getDataIndirectType@UnDecorator@@CA?AVDName@@XZ 0000000180049d90 f i libvcruntimed:undname.obj
 0001:00048de0       ?getDataType@UnDecorator@@CA?AVDName@@PEAV2@@Z 0000000180049de0 f   libvcruntimed:undname.obj
 0001:00048fc0       ?getDecoratedName@UnDecorator@@CA?AVDName@@XZ 0000000180049fc0 f   libvcruntimed:undname.obj
 0001:000494c0       ?getDimension@UnDecorator@@CA?AVDName@@_N@Z 000000018004a4c0 f   libvcruntimed:undname.obj
 0001:00049870       ?getDispatchTarget@UnDecorator@@CA?AVDName@@XZ 000000018004a870 f   libvcruntimed:undname.obj
 0001:00049940       ?getDisplacement@UnDecorator@@CA?AVDName@@XZ 000000018004a940 f i libvcruntimed:undname.obj
 0001:00049960       ?getECSUDataType@UnDecorator@@CA?AVDName@@XZ 000000018004a960 f   libvcruntimed:undname.obj
 0001:00049cd0       ?getECSUName@UnDecorator@@CA?AVDName@@XZ 000000018004acd0 f i libvcruntimed:undname.obj
 0001:00049cf0       ?getEnumType@UnDecorator@@CA?AVDName@@XZ 000000018004acf0 f i libvcruntimed:undname.obj
 0001:00049f80       ?getExtendedDataIndirectType@UnDecorator@@CA?AVDName@@AEAW4IndirectionKind@@AEA_NH@Z 000000018004af80 f   libvcruntimed:undname.obj
 0001:0004a2a0       ?getExternalDataType@UnDecorator@@CA?AVDName@@AEBV2@@Z 000000018004b2a0 f i libvcruntimed:undname.obj
 0001:0004a380       ?getFunctionIndirectType@UnDecorator@@CA?AVDName@@AEBV2@@Z 000000018004b380 f   libvcruntimed:undname.obj
 0001:0004a9b0       ?getGuardNumber@UnDecorator@@CA?AVDName@@XZ 000000018004b9b0 f i libvcruntimed:undname.obj
 0001:0004a9d0       ?getLastChar@DName@@QEBADXZ 000000018004b9d0 f i libvcruntimed:undname.obj
 0001:0004aa20       ?getLastChar@DNameStatusNode@@UEBADXZ 000000018004ba20 f i libvcruntimed:undname.obj
 0001:0004aa60       ?getLastChar@charNode@@UEBADXZ 000000018004ba60 f i libvcruntimed:undname.obj
 0001:0004aa70       ?getLastChar@pDNameNode@@UEBADXZ 000000018004ba70 f i libvcruntimed:undname.obj
 0001:0004aab0       ?getLastChar@pairNode@@UEBADXZ 000000018004bab0 f i libvcruntimed:undname.obj
 0001:0004ab30       ?getLastChar@pcharNode@@UEBADXZ 000000018004bb30 f i libvcruntimed:undname.obj
 0001:0004ab70       ?getLexicalFrame@UnDecorator@@CA?AVDName@@XZ 000000018004bb70 f i libvcruntimed:undname.obj
 0001:0004abc0       ?getMemoryWithBuffer@_HeapManager@@QEAAPEAX_K@Z 000000018004bbc0 f   libvcruntimed:undname.obj
 0001:0004ad10       ?getMemoryWithoutBuffer@_HeapManager@@QEAAPEAX_K@Z 000000018004bd10 f   libvcruntimed:undname.obj
 0001:0004ad60       ?getNoexcept@UnDecorator@@CA?AVDName@@XZ 000000018004bd60 f   libvcruntimed:undname.obj
 0001:0004ae10       ?getNumberOfDimensions@UnDecorator@@CAHXZ 000000018004be10 f   libvcruntimed:undname.obj
 0001:0004af30       ?getOperatorName@UnDecorator@@CA?AVDName@@_NPEA_N@Z 000000018004bf30 f i libvcruntimed:undname.obj
 0001:0004bde0       ?getPointerType@UnDecorator@@CA?AVDName@@AEBV2@0@Z 000000018004cde0 f i libvcruntimed:undname.obj
 0001:0004be20       ?getPointerTypeArray@UnDecorator@@CA?AVDName@@AEBV2@0@Z 000000018004ce20 f i libvcruntimed:undname.obj
 0001:0004be60       ?getPrimaryDataType@UnDecorator@@CA?AVDName@@AEBV2@@Z 000000018004ce60 f   libvcruntimed:undname.obj
 0001:0004c450       ?getPtrRefDataType@UnDecorator@@CA?AVDName@@AEBV2@H@Z 000000018004d450 f   libvcruntimed:undname.obj
 0001:0004c840       ?getPtrRefType@UnDecorator@@CA?AVDName@@AEBV2@0W4IndirectionKind@@@Z 000000018004d840 f   libvcruntimed:undname.obj
 0001:0004ca80       ?getReferenceType@UnDecorator@@CA?AVDName@@AEBV2@0W4IndirectionKind@@@Z 000000018004da80 f i libvcruntimed:undname.obj
 0001:0004cac0       ?getRestrictionSpec@UnDecorator@@CA?AVDName@@XZ 000000018004dac0 f   libvcruntimed:undname.obj
 0001:0004cd50       ?getReturnType@UnDecorator@@CA?AVDName@@PEAV2@@Z 000000018004dd50 f   libvcruntimed:undname.obj
 0001:0004cdb0       ?getScope@UnDecorator@@CA?AVDName@@XZ 000000018004ddb0 f   libvcruntimed:undname.obj
 0001:0004d500       ?getScopedName@UnDecorator@@CA?AVDName@@XZ 000000018004e500 f   libvcruntimed:undname.obj
 0001:0004d700       ?getSignedDimension@UnDecorator@@CA?AVDName@@XZ 000000018004e700 f   libvcruntimed:undname.obj
 0001:0004d790       ?getStorageConvention@UnDecorator@@CA?AVDName@@XZ 000000018004e790 f i libvcruntimed:undname.obj
 0001:0004d7b0       ?getString@DName@@QEBAPEADPEAD0@Z 000000018004e7b0 f i libvcruntimed:undname.obj
 0001:0004d830       ?getString@DName@@QEBAPEADPEADH@Z 000000018004e830 f i libvcruntimed:undname.obj
 0001:0004d8f0       ?getString@DNameStatusNode@@UEBAPEADPEAD0@Z 000000018004e8f0 f i libvcruntimed:undname.obj
 0001:0004d940       ?getString@charNode@@UEBAPEADPEAD0@Z 000000018004e940 f i libvcruntimed:undname.obj
 0001:0004d980       ?getString@pDNameNode@@UEBAPEADPEAD0@Z 000000018004e980 f i libvcruntimed:undname.obj
 0001:0004d9e0       ?getString@pairNode@@UEBAPEADPEAD0@Z 000000018004e9e0 f i libvcruntimed:undname.obj
 0001:0004dab0       ?getString@pcharNode@@UEBAPEADPEAD0@Z 000000018004eab0 f i libvcruntimed:undname.obj
 0001:0004daf0       ?getStringEncoding@UnDecorator@@CA?AVDName@@W4PrefixKind@@H@Z 000000018004eaf0 f   libvcruntimed:undname.obj
 0001:0004dc50       ?getStringHelper@@YAPEADPEADPEBD1H@Z 000000018004ec50 f i libvcruntimed:undname.obj
 0001:0004dcc0       ?getSymbolName@UnDecorator@@CA?AVDName@@XZ 000000018004ecc0 f i libvcruntimed:undname.obj
 0001:0004dd60       ?getTemplateArgumentList@UnDecorator@@CA?AVDName@@XZ 000000018004ed60 f   libvcruntimed:undname.obj
 0001:0004e070       ?getTemplateName@UnDecorator@@CA?AVDName@@_N@Z 000000018004f070 f   libvcruntimed:undname.obj
 0001:0004e2b0       ?getTemplateNonTypeArgument@UnDecorator@@CA?AVDName@@XZ 000000018004f2b0 f   libvcruntimed:undname.obj
 0001:0004eaf0       ?getTemplateTypeArgument@UnDecorator@@CA?AVDName@@XZ 000000018004faf0 f   libvcruntimed:undname.obj
 0001:0004ed60       ?getThisType@UnDecorator@@CA?AVDName@@XZ 000000018004fd60 f i libvcruntimed:undname.obj
 0001:0004edb0       ?getThrowTypes@UnDecorator@@CA?AVDName@@XZ 000000018004fdb0 f   libvcruntimed:undname.obj
 0001:0004ee00       ?getTypeEncoding@UnDecorator@@CAHXZ 000000018004fe00 f i libvcruntimed:undname.obj
 0001:0004fa30       ?getUndecoratedName@UnDecorator@@QEAAPEADPEADH@Z 0000000180050a30 f i libvcruntimed:undname.obj
 0001:0004fc20       ?getVCallThunkType@UnDecorator@@CA?AVDName@@XZ 0000000180050c20 f i libvcruntimed:undname.obj
 0001:0004fcd0       ?getVbTableType@UnDecorator@@CA?AVDName@@AEBV2@@Z 0000000180050cd0 f i libvcruntimed:undname.obj
 0001:0004fd00       ?getVdispMapType@UnDecorator@@CA?AVDName@@AEBV2@@Z 0000000180050d00 f i libvcruntimed:undname.obj
 0001:0004fdc0       ?getVfTableType@UnDecorator@@CA?AVDName@@AEBV2@@Z 0000000180050dc0 f i libvcruntimed:undname.obj
 0001:00050060       ?getZName@UnDecorator@@CA?AVDName@@_N0@Z 0000000180051060 f   libvcruntimed:undname.obj
 0001:000504f0       ?haveTemplateParameters@UnDecorator@@SAHXZ 00000001800514f0 f i libvcruntimed:undname.obj
 0001:00050500       ?isArray@DName@@QEBAHXZ    0000000180051500 f i libvcruntimed:undname.obj
 0001:00050520       ?isComArray@DName@@QEBAHXZ 0000000180051520 f i libvcruntimed:undname.obj
 0001:00050540       ?isEmpty@DName@@QEBAHXZ    0000000180051540 f i libvcruntimed:undname.obj
 0001:00050570       ?isFull@Replicator@@QEBAHXZ 0000000180051570 f i libvcruntimed:undname.obj
 0001:000505a0       ?isNoTE@DName@@QEBAHXZ     00000001800515a0 f i libvcruntimed:undname.obj
 0001:000505c0       ?isPinPtr@DName@@QEBAHXZ   00000001800515c0 f i libvcruntimed:undname.obj
 0001:000505e0       ?isPtrRef@DName@@QEBAHXZ   00000001800515e0 f i libvcruntimed:undname.obj
 0001:00050600       ?isUDC@DName@@QEBAHXZ      0000000180051600 f i libvcruntimed:undname.obj
 0001:00050650       ?isUDTThunk@DName@@QEBAHXZ 0000000180051650 f i libvcruntimed:undname.obj
 0001:000506a0       ?isVCallThunk@DName@@QEBAHXZ 00000001800516a0 f i libvcruntimed:undname.obj
 0001:000506c0       ?isValid@DName@@QEBAHXZ    00000001800516c0 f i libvcruntimed:undname.obj
 0001:00050700       ?length@DName@@QEBAHXZ     0000000180051700 f i libvcruntimed:undname.obj
 0001:00050750       ?length@DNameStatusNode@@UEBAHXZ 0000000180051750 f i libvcruntimed:undname.obj
 0001:00050760       ?length@charNode@@UEBAHXZ  0000000180051760 f i libvcruntimed:undname.obj
 0001:00050770       ?length@pDNameNode@@UEBAHXZ 0000000180051770 f i libvcruntimed:undname.obj
 0001:000507b0       ?length@pairNode@@UEBAHXZ  00000001800517b0 f i libvcruntimed:undname.obj
 0001:00050840       ?length@pcharNode@@UEBAHXZ 0000000180051840 f i libvcruntimed:undname.obj
 0001:00050850       ?make@DNameStatusNode@@SAPEBV1@W4DNameStatus@@@Z 0000000180051850 f i libvcruntimed:undname.obj
 0001:000508a0       ?parseDecoratedName@UnDecorator@@CA?AVDName@@XZ 00000001800518a0 f   libvcruntimed:undname.obj
 0001:00050a90       ?raw_length@DNameStatusNode@@UEBAHXZ 0000000180051a90 f i libvcruntimed:undname.obj
 0001:00050ab0       ?raw_length@charNode@@UEBAHXZ 0000000180051ab0 f i libvcruntimed:undname.obj
 0001:00050ad0       ?raw_length@pDNameNode@@UEBAHXZ 0000000180051ad0 f i libvcruntimed:undname.obj
 0001:00050ae0       ?raw_length@pairNode@@UEBAHXZ 0000000180051ae0 f i libvcruntimed:undname.obj
 0001:00050af0       ?raw_length@pcharNode@@UEBAHXZ 0000000180051af0 f i libvcruntimed:undname.obj
 0001:00050b10       ?setIsArray@DName@@QEAAXXZ 0000000180051b10 f i libvcruntimed:undname.obj
 0001:00050b30       ?setIsComArray@DName@@QEAAXXZ 0000000180051b30 f i libvcruntimed:undname.obj
 0001:00050b50       ?setIsNoTE@DName@@QEAAXXZ  0000000180051b50 f i libvcruntimed:undname.obj
 0001:00050b70       ?setIsPinPtr@DName@@QEAAXXZ 0000000180051b70 f i libvcruntimed:undname.obj
 0001:00050b90       ?setIsUDC@DName@@QEAAXXZ   0000000180051b90 f i libvcruntimed:undname.obj
 0001:00050bc0       ?setIsVCallThunk@DName@@QEAAXXZ 0000000180051bc0 f i libvcruntimed:undname.obj
 0001:00050be0       ?setPtrRef@DName@@QEAAAEAV1@XZ 0000000180051be0 f i libvcruntimed:undname.obj
 0001:00050c00       ?status@DName@@QEBA?AW4DNameStatus@@XZ 0000000180051c00 f i libvcruntimed:undname.obj
 0001:00050d30       __unDName                  0000000180051d30 f   libvcruntimed:undname.obj
 0001:00050d90       __unDNameEx                0000000180051d90 f   libvcruntimed:undname.obj
 0001:00050e50       unDNameGenerateCHPE        0000000180051e50 f   libvcruntimed:undname.obj
 0001:00050f00       ??$__crt_interlocked_exchange_pointer@UHINSTANCE__@@PEAU1@@@YAPEAUHINSTANCE__@@PEDSEAU0@QEAU0@@Z 0000000180051f00 f i libvcruntimed:winapi_downlevel.obj
 0001:00050f20       ??$__crt_interlocked_exchange_pointer@UHINSTANCE__@@PEAX@@YAPEAUHINSTANCE__@@PEDSEAU0@QEAX@Z 0000000180051f20 f i libvcruntimed:winapi_downlevel.obj
 0001:00050f40       ??$__crt_interlocked_exchange_pointer@XPEAX@@YAPEAXPEDSEAXQEAX@Z 0000000180051f40 f i libvcruntimed:winapi_downlevel.obj
 0001:00050f60       ??$__crt_interlocked_read_pointer@UHINSTANCE__@@@@YAPEAUHINSTANCE__@@PEDSEAU0@@Z 0000000180051f60 f i libvcruntimed:winapi_downlevel.obj
 0001:00050f80       ??$__crt_interlocked_read_pointer@X@@YAPEAXPEDSEAX@Z 0000000180051f80 f i libvcruntimed:winapi_downlevel.obj
 0001:00051490       __vcrt_FlsAlloc            0000000180052490 f   libvcruntimed:winapi_downlevel.obj
 0001:000514e0       __vcrt_FlsFree             00000001800524e0 f   libvcruntimed:winapi_downlevel.obj
 0001:00051530       __vcrt_FlsGetValue         0000000180052530 f   libvcruntimed:winapi_downlevel.obj
 0001:00051580       __vcrt_FlsSetValue         0000000180052580 f   libvcruntimed:winapi_downlevel.obj
 0001:000515e0       __vcrt_InitializeCriticalSectionEx 00000001800525e0 f   libvcruntimed:winapi_downlevel.obj
 0001:00051660       _CallSettingFrame          0000000180052660 f   libvcruntimed:handlers.obj
 0001:000516b0       _CallSettingFrame_LookupContinuationIndex 00000001800526b0 f   libvcruntimed:handlers.obj
 0001:000516e0       _CallSettingFrame_NotifyContinuationAddr 00000001800526e0 f   libvcruntimed:handlers.obj
 0001:00051710       _CallSettingFrameEncoded   0000000180052710 f   libvcruntimed:handlers.obj
 0001:00051760       ??$?0AEBV?$stream_output_adapter@D@__crt_stdio_output@@AEB_KAEBQEBDAEBQEAU__crt_locale_pointers@@AEBQEAD@?$format_validation_base@DV?$stream_output_adapter@D@__crt_stdio_output@@@__crt_stdio_output@@IEAA@AEBV?$stream_output_adapter@D@1@AEB_KAEBQEBDAEBQEAU__crt_locale_pointers@@AEBQEAD@Z 0000000180052760 f i libucrtd:output.obj
 0001:000517b0       ??$?0AEBV?$stream_output_adapter@D@__crt_stdio_output@@AEB_KAEBQEBDAEBQEAU__crt_locale_pointers@@AEBQEAD@?$positional_parameter_base@DV?$stream_output_adapter@D@__crt_stdio_output@@@__crt_stdio_output@@IEAA@AEBV?$stream_output_adapter@D@1@AEB_KAEBQEBDAEBQEAU__crt_locale_pointers@@AEBQEAD@Z 00000001800527b0 f i libucrtd:output.obj
 0001:00051850       ??$?0AEBV?$stream_output_adapter@D@__crt_stdio_output@@AEB_KAEBQEBDAEBQEAU__crt_locale_pointers@@AEBQEAD@?$standard_base@DV?$stream_output_adapter@D@__crt_stdio_output@@@__crt_stdio_output@@IEAA@AEBV?$stream_output_adapter@D@1@AEB_KAEBQEBDAEBQEAU__crt_locale_pointers@@AEBQEAD@Z 0000000180052850 f i libucrtd:output.obj
 0001:000518c0       ??$?0AEBV?$stream_output_adapter@_W@__crt_stdio_output@@AEB_KAEBQEB_WAEBQEAU__crt_locale_pointers@@AEBQEAD@?$format_validation_base@_WV?$stream_output_adapter@_W@__crt_stdio_output@@@__crt_stdio_output@@IEAA@AEBV?$stream_output_adapter@_W@1@AEB_KAEBQEB_WAEBQEAU__crt_locale_pointers@@AEBQEAD@Z 00000001800528c0 f i libucrtd:output.obj
 0001:00051910       ??$?0AEBV?$stream_output_adapter@_W@__crt_stdio_output@@AEB_KAEBQEB_WAEBQEAU__crt_locale_pointers@@AEBQEAD@?$positional_parameter_base@_WV?$stream_output_adapter@_W@__crt_stdio_output@@@__crt_stdio_output@@IEAA@AEBV?$stream_output_adapter@_W@1@AEB_KAEBQEB_WAEBQEAU__crt_locale_pointers@@AEBQEAD@Z 0000000180052910 f i libucrtd:output.obj
 0001:000519b0       ??$?0AEBV?$stream_output_adapter@_W@__crt_stdio_output@@AEB_KAEBQEB_WAEBQEAU__crt_locale_pointers@@AEBQEAD@?$standard_base@_WV?$stream_output_adapter@_W@__crt_stdio_output@@@__crt_stdio_output@@IEAA@AEBV?$stream_output_adapter@_W@1@AEB_KAEBQEB_WAEBQEAU__crt_locale_pointers@@AEBQEAD@Z 00000001800529b0 f i libucrtd:output.obj
 0001:00051a20       ??$?0AEBV?$string_output_adapter@D@__crt_stdio_output@@AEB_KAEBQEBDAEBQEAU__crt_locale_pointers@@AEBQEAD@?$format_validation_base@DV?$string_output_adapter@D@__crt_stdio_output@@@__crt_stdio_output@@IEAA@AEBV?$string_output_adapter@D@1@AEB_KAEBQEBDAEBQEAU__crt_locale_pointers@@AEBQEAD@Z 0000000180052a20 f i libucrtd:output.obj
 0001:00051a70       ??$?0AEBV?$string_output_adapter@D@__crt_stdio_output@@AEB_KAEBQEBDAEBQEAU__crt_locale_pointers@@AEBQEAD@?$positional_parameter_base@DV?$string_output_adapter@D@__crt_stdio_output@@@__crt_stdio_output@@IEAA@AEBV?$string_output_adapter@D@1@AEB_KAEBQEBDAEBQEAU__crt_locale_pointers@@AEBQEAD@Z 0000000180052a70 f i libucrtd:output.obj
 0001:00051b10       ??$?0AEBV?$string_output_adapter@D@__crt_stdio_output@@AEB_KAEBQEBDAEBQEAU__crt_locale_pointers@@AEBQEAD@?$standard_base@DV?$string_output_adapter@D@__crt_stdio_output@@@__crt_stdio_output@@IEAA@AEBV?$string_output_adapter@D@1@AEB_KAEBQEBDAEBQEAU__crt_locale_pointers@@AEBQEAD@Z 0000000180052b10 f i libucrtd:output.obj
 0001:00051b80       ??$?0AEBV?$string_output_adapter@_W@__crt_stdio_output@@AEB_KAEBQEB_WAEBQEAU__crt_locale_pointers@@AEBQEAD@?$format_validation_base@_WV?$string_output_adapter@_W@__crt_stdio_output@@@__crt_stdio_output@@IEAA@AEBV?$string_output_adapter@_W@1@AEB_KAEBQEB_WAEBQEAU__crt_locale_pointers@@AEBQEAD@Z 0000000180052b80 f i libucrtd:output.obj
 0001:00051bd0       ??$?0AEBV?$string_output_adapter@_W@__crt_stdio_output@@AEB_KAEBQEB_WAEBQEAU__crt_locale_pointers@@AEBQEAD@?$positional_parameter_base@_WV?$string_output_adapter@_W@__crt_stdio_output@@@__crt_stdio_output@@IEAA@AEBV?$string_output_adapter@_W@1@AEB_KAEBQEB_WAEBQEAU__crt_locale_pointers@@AEBQEAD@Z 0000000180052bd0 f i libucrtd:output.obj
 0001:00051c70       ??$?0AEBV?$string_output_adapter@_W@__crt_stdio_output@@AEB_KAEBQEB_WAEBQEAU__crt_locale_pointers@@AEBQEAD@?$standard_base@_WV?$string_output_adapter@_W@__crt_stdio_output@@@__crt_stdio_output@@IEAA@AEBV?$string_output_adapter@_W@1@AEB_KAEBQEB_WAEBQEAU__crt_locale_pointers@@AEBQEAD@Z 0000000180052c70 f i libucrtd:output.obj
 0001:000520a0       ??$__crt_interlocked_read@J@@YAJPEDJ@Z 00000001800530a0 f i libucrtd:output.obj
 0001:00055b80       ??$count@D@formatting_buffer@__crt_stdio_output@@QEBA_KXZ 0000000180056b80 f i libucrtd:output.obj
 0001:00055bd0       ??$count@_W@formatting_buffer@__crt_stdio_output@@QEBA_KXZ 0000000180056bd0 f i libucrtd:output.obj
 0001:00055c20       ??$data@D@formatting_buffer@__crt_stdio_output@@QEAAPEADXZ 0000000180056c20 f i libucrtd:output.obj
 0001:00055c70       ??$data@_W@formatting_buffer@__crt_stdio_output@@QEAAPEA_WXZ 0000000180056c70 f i libucrtd:output.obj
 0001:00055cc0       ??$ensure_buffer_is_big_enough@D@formatting_buffer@__crt_stdio_output@@QEAA_N_K@Z 0000000180056cc0 f i libucrtd:output.obj
 0001:00055df0       ??$ensure_buffer_is_big_enough@_W@formatting_buffer@__crt_stdio_output@@QEAA_N_K@Z 0000000180056df0 f i libucrtd:output.obj
 0001:00055f20       ??$extract_argument_from_va_list@C_J@?$positional_parameter_base@DV?$stream_output_adapter@D@__crt_stdio_output@@@__crt_stdio_output@@IEAA_NAEA_J@Z 0000000180056f20 f i libucrtd:output.obj
 0001:000560a0       ??$extract_argument_from_va_list@C_J@?$positional_parameter_base@DV?$string_output_adapter@D@__crt_stdio_output@@@__crt_stdio_output@@IEAA_NAEA_J@Z 00000001800570a0 f i libucrtd:output.obj
 0001:00056220       ??$extract_argument_from_va_list@C_J@?$positional_parameter_base@_WV?$stream_output_adapter@_W@__crt_stdio_output@@@__crt_stdio_output@@IEAA_NAEA_J@Z 0000000180057220 f i libucrtd:output.obj
 0001:000563a0       ??$extract_argument_from_va_list@C_J@?$positional_parameter_base@_WV?$string_output_adapter@_W@__crt_stdio_output@@@__crt_stdio_output@@IEAA_NAEA_J@Z 00000001800573a0 f i libucrtd:output.obj
 0001:00056520       ??$extract_argument_from_va_list@C_J@?$standard_base@DV?$stream_output_adapter@D@__crt_stdio_output@@@__crt_stdio_output@@IEAA_NAEA_J@Z 0000000180057520 f i libucrtd:output.obj
 0001:00056560       ??$extract_argument_from_va_list@C_J@?$standard_base@DV?$string_output_adapter@D@__crt_stdio_output@@@__crt_stdio_output@@IEAA_NAEA_J@Z 0000000180057560 f i libucrtd:output.obj
 0001:000565a0       ??$extract_argument_from_va_list@C_J@?$standard_base@_WV?$stream_output_adapter@_W@__crt_stdio_output@@@__crt_stdio_output@@IEAA_NAEA_J@Z 00000001800575a0 f i libucrtd:output.obj
 0001:000565e0       ??$extract_argument_from_va_list@C_J@?$standard_base@_WV?$string_output_adapter@_W@__crt_stdio_output@@@__crt_stdio_output@@IEAA_NAEA_J@Z 00000001800575e0 f i libucrtd:output.obj
 0001:00056620       ??$extract_argument_from_va_list@E_J@?$positional_parameter_base@DV?$stream_output_adapter@D@__crt_stdio_output@@@__crt_stdio_output@@IEAA_NAEA_J@Z 0000000180057620 f i libucrtd:output.obj
 0001:000567a0       ??$extract_argument_from_va_list@E_J@?$positional_parameter_base@DV?$string_output_adapter@D@__crt_stdio_output@@@__crt_stdio_output@@IEAA_NAEA_J@Z 00000001800577a0 f i libucrtd:output.obj
 0001:00056920       ??$extract_argument_from_va_list@E_J@?$positional_parameter_base@_WV?$stream_output_adapter@_W@__crt_stdio_output@@@__crt_stdio_output@@IEAA_NAEA_J@Z 0000000180057920 f i libucrtd:output.obj
 0001:00056aa0       ??$extract_argument_from_va_list@E_J@?$positional_parameter_base@_WV?$string_output_adapter@_W@__crt_stdio_output@@@__crt_stdio_output@@IEAA_NAEA_J@Z 0000000180057aa0 f i libucrtd:output.obj
 0001:00056c20       ??$extract_argument_from_va_list@E_J@?$standard_base@DV?$stream_output_adapter@D@__crt_stdio_output@@@__crt_stdio_output@@IEAA_NAEA_J@Z 0000000180057c20 f i libucrtd:output.obj
 0001:00056c60       ??$extract_argument_from_va_list@E_J@?$standard_base@DV?$string_output_adapter@D@__crt_stdio_output@@@__crt_stdio_output@@IEAA_NAEA_J@Z 0000000180057c60 f i libucrtd:output.obj
 0001:00056ca0       ??$extract_argument_from_va_list@E_J@?$standard_base@_WV?$stream_output_adapter@_W@__crt_stdio_output@@@__crt_stdio_output@@IEAA_NAEA_J@Z 0000000180057ca0 f i libucrtd:output.obj
 0001:00056ce0       ??$extract_argument_from_va_list@E_J@?$standard_base@_WV?$string_output_adapter@_W@__crt_stdio_output@@@__crt_stdio_output@@IEAA_NAEA_J@Z 0000000180057ce0 f i libucrtd:output.obj
 0001:00056d20       ??$extract_argument_from_va_list@F_J@?$positional_parameter_base@DV?$stream_output_adapter@D@__crt_stdio_output@@@__crt_stdio_output@@IEAA_NAEA_J@Z 0000000180057d20 f i libucrtd:output.obj
 0001:00056ea0       ??$extract_argument_from_va_list@F_J@?$positional_parameter_base@DV?$string_output_adapter@D@__crt_stdio_output@@@__crt_stdio_output@@IEAA_NAEA_J@Z 0000000180057ea0 f i libucrtd:output.obj
 0001:00057020       ??$extract_argument_from_va_list@F_J@?$positional_parameter_base@_WV?$stream_output_adapter@_W@__crt_stdio_output@@@__crt_stdio_output@@IEAA_NAEA_J@Z 0000000180058020 f i libucrtd:output.obj
 0001:000571a0       ??$extract_argument_from_va_list@F_J@?$positional_parameter_base@_WV?$string_output_adapter@_W@__crt_stdio_output@@@__crt_stdio_output@@IEAA_NAEA_J@Z 00000001800581a0 f i libucrtd:output.obj
 0001:00057320       ??$extract_argument_from_va_list@F_J@?$standard_base@DV?$stream_output_adapter@D@__crt_stdio_output@@@__crt_stdio_output@@IEAA_NAEA_J@Z 0000000180058320 f i libucrtd:output.obj
 0001:00057360       ??$extract_argument_from_va_list@F_J@?$standard_base@DV?$string_output_adapter@D@__crt_stdio_output@@@__crt_stdio_output@@IEAA_NAEA_J@Z 0000000180058360 f i libucrtd:output.obj
 0001:000573a0       ??$extract_argument_from_va_list@F_J@?$standard_base@_WV?$stream_output_adapter@_W@__crt_stdio_output@@@__crt_stdio_output@@IEAA_NAEA_J@Z 00000001800583a0 f i libucrtd:output.obj
 0001:000573e0       ??$extract_argument_from_va_list@F_J@?$standard_base@_WV?$string_output_adapter@_W@__crt_stdio_output@@@__crt_stdio_output@@IEAA_NAEA_J@Z 00000001800583e0 f i libucrtd:output.obj
 0001:00057420       ??$extract_argument_from_va_list@GD@?$positional_parameter_base@DV?$stream_output_adapter@D@__crt_stdio_output@@@__crt_stdio_output@@IEAA_NAEAD@Z 0000000180058420 f i libucrtd:output.obj
 0001:000575a0       ??$extract_argument_from_va_list@GD@?$positional_parameter_base@DV?$string_output_adapter@D@__crt_stdio_output@@@__crt_stdio_output@@IEAA_NAEAD@Z 00000001800585a0 f i libucrtd:output.obj
 0001:00057720       ??$extract_argument_from_va_list@GD@?$standard_base@DV?$stream_output_adapter@D@__crt_stdio_output@@@__crt_stdio_output@@IEAA_NAEAD@Z 0000000180058720 f i libucrtd:output.obj
 0001:00057750       ??$extract_argument_from_va_list@GD@?$standard_base@DV?$string_output_adapter@D@__crt_stdio_output@@@__crt_stdio_output@@IEAA_NAEAD@Z 0000000180058750 f i libucrtd:output.obj
 0001:00057780       ??$extract_argument_from_va_list@G_J@?$positional_parameter_base@DV?$stream_output_adapter@D@__crt_stdio_output@@@__crt_stdio_output@@IEAA_NAEA_J@Z 0000000180058780 f i libucrtd:output.obj
 0001:00057900       ??$extract_argument_from_va_list@G_J@?$positional_parameter_base@DV?$string_output_adapter@D@__crt_stdio_output@@@__crt_stdio_output@@IEAA_NAEA_J@Z 0000000180058900 f i libucrtd:output.obj
 0001:00057a80       ??$extract_argument_from_va_list@G_J@?$positional_parameter_base@_WV?$stream_output_adapter@_W@__crt_stdio_output@@@__crt_stdio_output@@IEAA_NAEA_J@Z 0000000180058a80 f i libucrtd:output.obj
 0001:00057c00       ??$extract_argument_from_va_list@G_J@?$positional_parameter_base@_WV?$string_output_adapter@_W@__crt_stdio_output@@@__crt_stdio_output@@IEAA_NAEA_J@Z 0000000180058c00 f i libucrtd:output.obj
 0001:00057d80       ??$extract_argument_from_va_list@G_J@?$standard_base@DV?$stream_output_adapter@D@__crt_stdio_output@@@__crt_stdio_output@@IEAA_NAEA_J@Z 0000000180058d80 f i libucrtd:output.obj
 0001:00057dc0       ??$extract_argument_from_va_list@G_J@?$standard_base@DV?$string_output_adapter@D@__crt_stdio_output@@@__crt_stdio_output@@IEAA_NAEA_J@Z 0000000180058dc0 f i libucrtd:output.obj
 0001:00057e00       ??$extract_argument_from_va_list@G_J@?$standard_base@_WV?$stream_output_adapter@_W@__crt_stdio_output@@@__crt_stdio_output@@IEAA_NAEA_J@Z 0000000180058e00 f i libucrtd:output.obj
 0001:00057e40       ??$extract_argument_from_va_list@G_J@?$standard_base@_WV?$string_output_adapter@_W@__crt_stdio_output@@@__crt_stdio_output@@IEAA_NAEA_J@Z 0000000180058e40 f i libucrtd:output.obj
 0001:00057e80       ??$extract_argument_from_va_list@H_J@?$positional_parameter_base@DV?$stream_output_adapter@D@__crt_stdio_output@@@__crt_stdio_output@@IEAA_NAEA_J@Z 0000000180058e80 f i libucrtd:output.obj
 0001:00058000       ??$extract_argument_from_va_list@H_J@?$positional_parameter_base@DV?$string_output_adapter@D@__crt_stdio_output@@@__crt_stdio_output@@IEAA_NAEA_J@Z 0000000180059000 f i libucrtd:output.obj
 0001:00058180       ??$extract_argument_from_va_list@H_J@?$positional_parameter_base@_WV?$stream_output_adapter@_W@__crt_stdio_output@@@__crt_stdio_output@@IEAA_NAEA_J@Z 0000000180059180 f i libucrtd:output.obj
 0001:00058300       ??$extract_argument_from_va_list@H_J@?$positional_parameter_base@_WV?$string_output_adapter@_W@__crt_stdio_output@@@__crt_stdio_output@@IEAA_NAEA_J@Z 0000000180059300 f i libucrtd:output.obj
 0001:00058480       ??$extract_argument_from_va_list@H_J@?$standard_base@DV?$stream_output_adapter@D@__crt_stdio_output@@@__crt_stdio_output@@IEAA_NAEA_J@Z 0000000180059480 f i libucrtd:output.obj
 0001:000584b0       ??$extract_argument_from_va_list@H_J@?$standard_base@DV?$string_output_adapter@D@__crt_stdio_output@@@__crt_stdio_output@@IEAA_NAEA_J@Z 00000001800594b0 f i libucrtd:output.obj
 0001:000584e0       ??$extract_argument_from_va_list@H_J@?$standard_base@_WV?$stream_output_adapter@_W@__crt_stdio_output@@@__crt_stdio_output@@IEAA_NAEA_J@Z 00000001800594e0 f i libucrtd:output.obj
 0001:00058510       ??$extract_argument_from_va_list@H_J@?$standard_base@_WV?$string_output_adapter@_W@__crt_stdio_output@@@__crt_stdio_output@@IEAA_NAEA_J@Z 0000000180059510 f i libucrtd:output.obj
 0001:00058540       ??$extract_argument_from_va_list@I_J@?$positional_parameter_base@DV?$stream_output_adapter@D@__crt_stdio_output@@@__crt_stdio_output@@IEAA_NAEA_J@Z 0000000180059540 f i libucrtd:output.obj
 0001:000586c0       ??$extract_argument_from_va_list@I_J@?$positional_parameter_base@DV?$string_output_adapter@D@__crt_stdio_output@@@__crt_stdio_output@@IEAA_NAEA_J@Z 00000001800596c0 f i libucrtd:output.obj
 0001:00058840       ??$extract_argument_from_va_list@I_J@?$positional_parameter_base@_WV?$stream_output_adapter@_W@__crt_stdio_output@@@__crt_stdio_output@@IEAA_NAEA_J@Z 0000000180059840 f i libucrtd:output.obj
 0001:000589c0       ??$extract_argument_from_va_list@I_J@?$positional_parameter_base@_WV?$string_output_adapter@_W@__crt_stdio_output@@@__crt_stdio_output@@IEAA_NAEA_J@Z 00000001800599c0 f i libucrtd:output.obj
 0001:00058b40       ??$extract_argument_from_va_list@I_J@?$standard_base@DV?$stream_output_adapter@D@__crt_stdio_output@@@__crt_stdio_output@@IEAA_NAEA_J@Z 0000000180059b40 f i libucrtd:output.obj
 0001:00058b70       ??$extract_argument_from_va_list@I_J@?$standard_base@DV?$string_output_adapter@D@__crt_stdio_output@@@__crt_stdio_output@@IEAA_NAEA_J@Z 0000000180059b70 f i libucrtd:output.obj
 0001:00058ba0       ??$extract_argument_from_va_list@I_J@?$standard_base@_WV?$stream_output_adapter@_W@__crt_stdio_output@@@__crt_stdio_output@@IEAA_NAEA_J@Z 0000000180059ba0 f i libucrtd:output.obj
 0001:00058bd0       ??$extract_argument_from_va_list@I_J@?$standard_base@_WV?$string_output_adapter@_W@__crt_stdio_output@@@__crt_stdio_output@@IEAA_NAEA_J@Z 0000000180059bd0 f i libucrtd:output.obj
 0001:00058c00       ??$extract_argument_from_va_list@PEADPEAD@?$positional_parameter_base@DV?$stream_output_adapter@D@__crt_stdio_output@@@__crt_stdio_output@@IEAA_NAEAPEAD@Z 0000000180059c00 f i libucrtd:output.obj
 0001:00058d80       ??$extract_argument_from_va_list@PEADPEAD@?$positional_parameter_base@DV?$string_output_adapter@D@__crt_stdio_output@@@__crt_stdio_output@@IEAA_NAEAPEAD@Z 0000000180059d80 f i libucrtd:output.obj
 0001:00058f00       ??$extract_argument_from_va_list@PEADPEAD@?$positional_parameter_base@_WV?$stream_output_adapter@_W@__crt_stdio_output@@@__crt_stdio_output@@IEAA_NAEAPEAD@Z 0000000180059f00 f i libucrtd:output.obj
 0001:00059080       ??$extract_argument_from_va_list@PEADPEAD@?$positional_parameter_base@_WV?$string_output_adapter@_W@__crt_stdio_output@@@__crt_stdio_output@@IEAA_NAEAPEAD@Z 000000018005a080 f i libucrtd:output.obj
 0001:00059200       ??$extract_argument_from_va_list@PEADPEAD@?$standard_base@DV?$stream_output_adapter@D@__crt_stdio_output@@@__crt_stdio_output@@IEAA_NAEAPEAD@Z 000000018005a200 f i libucrtd:output.obj
 0001:00059230       ??$extract_argument_from_va_list@PEADPEAD@?$standard_base@DV?$string_output_adapter@D@__crt_stdio_output@@@__crt_stdio_output@@IEAA_NAEAPEAD@Z 000000018005a230 f i libucrtd:output.obj
 0001:00059260       ??$extract_argument_from_va_list@PEADPEAD@?$standard_base@_WV?$stream_output_adapter@_W@__crt_stdio_output@@@__crt_stdio_output@@IEAA_NAEAPEAD@Z 000000018005a260 f i libucrtd:output.obj
 0001:00059290       ??$extract_argument_from_va_list@PEADPEAD@?$standard_base@_WV?$string_output_adapter@_W@__crt_stdio_output@@@__crt_stdio_output@@IEAA_NAEAPEAD@Z 000000018005a290 f i libucrtd:output.obj
 0001:00059b00       ??$extract_argument_from_va_list@PEAXPEAX@?$positional_parameter_base@DV?$stream_output_adapter@D@__crt_stdio_output@@@__crt_stdio_output@@IEAA_NAEAPEAX@Z 000000018005ab00 f i libucrtd:output.obj
 0001:00059c80       ??$extract_argument_from_va_list@PEAXPEAX@?$positional_parameter_base@DV?$string_output_adapter@D@__crt_stdio_output@@@__crt_stdio_output@@IEAA_NAEAPEAX@Z 000000018005ac80 f i libucrtd:output.obj
 0001:00059e00       ??$extract_argument_from_va_list@PEAXPEAX@?$positional_parameter_base@_WV?$stream_output_adapter@_W@__crt_stdio_output@@@__crt_stdio_output@@IEAA_NAEAPEAX@Z 000000018005ae00 f i libucrtd:output.obj
 0001:00059f80       ??$extract_argument_from_va_list@PEAXPEAX@?$positional_parameter_base@_WV?$string_output_adapter@_W@__crt_stdio_output@@@__crt_stdio_output@@IEAA_NAEAPEAX@Z 000000018005af80 f i libucrtd:output.obj
 0001:0005a100       ??$extract_argument_from_va_list@PEAXPEAX@?$standard_base@DV?$stream_output_adapter@D@__crt_stdio_output@@@__crt_stdio_output@@IEAA_NAEAPEAX@Z 000000018005b100 f i libucrtd:output.obj
 0001:0005a130       ??$extract_argument_from_va_list@PEAXPEAX@?$standard_base@DV?$string_output_adapter@D@__crt_stdio_output@@@__crt_stdio_output@@IEAA_NAEAPEAX@Z 000000018005b130 f i libucrtd:output.obj
 0001:0005a160       ??$extract_argument_from_va_list@PEAXPEAX@?$standard_base@_WV?$stream_output_adapter@_W@__crt_stdio_output@@@__crt_stdio_output@@IEAA_NAEAPEAX@Z 000000018005b160 f i libucrtd:output.obj
 0001:0005a190       ??$extract_argument_from_va_list@PEAXPEAX@?$standard_base@_WV?$string_output_adapter@_W@__crt_stdio_output@@@__crt_stdio_output@@IEAA_NAEAPEAX@Z 000000018005b190 f i libucrtd:output.obj
 0001:0005a1c0       ??$extract_argument_from_va_list@U_CRT_DOUBLE@@U1@@?$positional_parameter_base@DV?$stream_output_adapter@D@__crt_stdio_output@@@__crt_stdio_output@@IEAA_NAEAU_CRT_DOUBLE@@@Z 000000018005b1c0 f i libucrtd:output.obj
 0001:0005a360       ??$extract_argument_from_va_list@U_CRT_DOUBLE@@U1@@?$positional_parameter_base@DV?$string_output_adapter@D@__crt_stdio_output@@@__crt_stdio_output@@IEAA_NAEAU_CRT_DOUBLE@@@Z 000000018005b360 f i libucrtd:output.obj
 0001:0005a500       ??$extract_argument_from_va_list@U_CRT_DOUBLE@@U1@@?$positional_parameter_base@_WV?$stream_output_adapter@_W@__crt_stdio_output@@@__crt_stdio_output@@IEAA_NAEAU_CRT_DOUBLE@@@Z 000000018005b500 f i libucrtd:output.obj
 0001:0005a6a0       ??$extract_argument_from_va_list@U_CRT_DOUBLE@@U1@@?$positional_parameter_base@_WV?$string_output_adapter@_W@__crt_stdio_output@@@__crt_stdio_output@@IEAA_NAEAU_CRT_DOUBLE@@@Z 000000018005b6a0 f i libucrtd:output.obj
 0001:0005a840       ??$extract_argument_from_va_list@U_CRT_DOUBLE@@U1@@?$standard_base@DV?$stream_output_adapter@D@__crt_stdio_output@@@__crt_stdio_output@@IEAA_NAEAU_CRT_DOUBLE@@@Z 000000018005b840 f i libucrtd:output.obj
 0001:0005a890       ??$extract_argument_from_va_list@U_CRT_DOUBLE@@U1@@?$standard_base@DV?$string_output_adapter@D@__crt_stdio_output@@@__crt_stdio_output@@IEAA_NAEAU_CRT_DOUBLE@@@Z 000000018005b890 f i libucrtd:output.obj
 0001:0005a8e0       ??$extract_argument_from_va_list@U_CRT_DOUBLE@@U1@@?$standard_base@_WV?$stream_output_adapter@_W@__crt_stdio_output@@@__crt_stdio_output@@IEAA_NAEAU_CRT_DOUBLE@@@Z 000000018005b8e0 f i libucrtd:output.obj
 0001:0005a930       ??$extract_argument_from_va_list@U_CRT_DOUBLE@@U1@@?$standard_base@_WV?$string_output_adapter@_W@__crt_stdio_output@@@__crt_stdio_output@@IEAA_NAEAU_CRT_DOUBLE@@@Z 000000018005b930 f i libucrtd:output.obj
 0001:0005a980       ??$extract_argument_from_va_list@_J_J@?$positional_parameter_base@DV?$stream_output_adapter@D@__crt_stdio_output@@@__crt_stdio_output@@IEAA_NAEA_J@Z 000000018005b980 f i libucrtd:output.obj
 0001:0005ab00       ??$extract_argument_from_va_list@_J_J@?$positional_parameter_base@DV?$string_output_adapter@D@__crt_stdio_output@@@__crt_stdio_output@@IEAA_NAEA_J@Z 000000018005bb00 f i libucrtd:output.obj
 0001:0005ac80       ??$extract_argument_from_va_list@_J_J@?$positional_parameter_base@_WV?$stream_output_adapter@_W@__crt_stdio_output@@@__crt_stdio_output@@IEAA_NAEA_J@Z 000000018005bc80 f i libucrtd:output.obj
 0001:0005ae00       ??$extract_argument_from_va_list@_J_J@?$positional_parameter_base@_WV?$string_output_adapter@_W@__crt_stdio_output@@@__crt_stdio_output@@IEAA_NAEA_J@Z 000000018005be00 f i libucrtd:output.obj
 0001:0005af80       ??$extract_argument_from_va_list@_J_J@?$standard_base@DV?$stream_output_adapter@D@__crt_stdio_output@@@__crt_stdio_output@@IEAA_NAEA_J@Z 000000018005bf80 f i libucrtd:output.obj
 0001:0005afb0       ??$extract_argument_from_va_list@_J_J@?$standard_base@DV?$string_output_adapter@D@__crt_stdio_output@@@__crt_stdio_output@@IEAA_NAEA_J@Z 000000018005bfb0 f i libucrtd:output.obj
 0001:0005afe0       ??$extract_argument_from_va_list@_J_J@?$standard_base@_WV?$stream_output_adapter@_W@__crt_stdio_output@@@__crt_stdio_output@@IEAA_NAEA_J@Z 000000018005bfe0 f i libucrtd:output.obj
 0001:0005b010       ??$extract_argument_from_va_list@_J_J@?$standard_base@_WV?$string_output_adapter@_W@__crt_stdio_output@@@__crt_stdio_output@@IEAA_NAEA_J@Z 000000018005c010 f i libucrtd:output.obj
 0001:0005b040       ??$extract_argument_from_va_list@_K_J@?$positional_parameter_base@DV?$stream_output_adapter@D@__crt_stdio_output@@@__crt_stdio_output@@IEAA_NAEA_J@Z 000000018005c040 f i libucrtd:output.obj
 0001:0005b1c0       ??$extract_argument_from_va_list@_K_J@?$positional_parameter_base@DV?$string_output_adapter@D@__crt_stdio_output@@@__crt_stdio_output@@IEAA_NAEA_J@Z 000000018005c1c0 f i libucrtd:output.obj
 0001:0005b340       ??$extract_argument_from_va_list@_K_J@?$positional_parameter_base@_WV?$stream_output_adapter@_W@__crt_stdio_output@@@__crt_stdio_output@@IEAA_NAEA_J@Z 000000018005c340 f i libucrtd:output.obj
 0001:0005b4c0       ??$extract_argument_from_va_list@_K_J@?$positional_parameter_base@_WV?$string_output_adapter@_W@__crt_stdio_output@@@__crt_stdio_output@@IEAA_NAEA_J@Z 000000018005c4c0 f i libucrtd:output.obj
 0001:0005b640       ??$extract_argument_from_va_list@_K_J@?$standard_base@DV?$stream_output_adapter@D@__crt_stdio_output@@@__crt_stdio_output@@IEAA_NAEA_J@Z 000000018005c640 f i libucrtd:output.obj
 0001:0005b670       ??$extract_argument_from_va_list@_K_J@?$standard_base@DV?$string_output_adapter@D@__crt_stdio_output@@@__crt_stdio_output@@IEAA_NAEA_J@Z 000000018005c670 f i libucrtd:output.obj
 0001:0005b6a0       ??$extract_argument_from_va_list@_K_J@?$standard_base@_WV?$stream_output_adapter@_W@__crt_stdio_output@@@__crt_stdio_output@@IEAA_NAEA_J@Z 000000018005c6a0 f i libucrtd:output.obj
 0001:0005b6d0       ??$extract_argument_from_va_list@_K_J@?$standard_base@_WV?$string_output_adapter@_W@__crt_stdio_output@@@__crt_stdio_output@@IEAA_NAEA_J@Z 000000018005c6d0 f i libucrtd:output.obj
 0001:0005b700       ??$extract_argument_from_va_list@_W_W@?$positional_parameter_base@DV?$stream_output_adapter@D@__crt_stdio_output@@@__crt_stdio_output@@IEAA_NAEA_W@Z 000000018005c700 f i libucrtd:output.obj
 0001:0005b880       ??$extract_argument_from_va_list@_W_W@?$positional_parameter_base@DV?$string_output_adapter@D@__crt_stdio_output@@@__crt_stdio_output@@IEAA_NAEA_W@Z 000000018005c880 f i libucrtd:output.obj
 0001:0005ba00       ??$extract_argument_from_va_list@_W_W@?$positional_parameter_base@_WV?$stream_output_adapter@_W@__crt_stdio_output@@@__crt_stdio_output@@IEAA_NAEA_W@Z 000000018005ca00 f i libucrtd:output.obj
 0001:0005bb80       ??$extract_argument_from_va_list@_W_W@?$positional_parameter_base@_WV?$string_output_adapter@_W@__crt_stdio_output@@@__crt_stdio_output@@IEAA_NAEA_W@Z 000000018005cb80 f i libucrtd:output.obj
 0001:0005bd00       ??$extract_argument_from_va_list@_W_W@?$standard_base@DV?$stream_output_adapter@D@__crt_stdio_output@@@__crt_stdio_output@@IEAA_NAEA_W@Z 000000018005cd00 f i libucrtd:output.obj
 0001:0005bd30       ??$extract_argument_from_va_list@_W_W@?$standard_base@DV?$string_output_adapter@D@__crt_stdio_output@@@__crt_stdio_output@@IEAA_NAEA_W@Z 000000018005cd30 f i libucrtd:output.obj
 0001:0005bd60       ??$extract_argument_from_va_list@_W_W@?$standard_base@_WV?$stream_output_adapter@_W@__crt_stdio_output@@@__crt_stdio_output@@IEAA_NAEA_W@Z 000000018005cd60 f i libucrtd:output.obj
 0001:0005bd90       ??$extract_argument_from_va_list@_W_W@?$standard_base@_WV?$string_output_adapter@_W@__crt_stdio_output@@@__crt_stdio_output@@IEAA_NAEA_W@Z 000000018005cd90 f i libucrtd:output.obj
 0001:0005bdc0       ??$get_parameter_type@D@?$positional_parameter_base@DV?$stream_output_adapter@D@__crt_stdio_output@@@__crt_stdio_output@@CA?AW4parameter_type@01@PEAD@Z 000000018005cdc0 f i libucrtd:output.obj
 0001:0005bdd0       ??$get_parameter_type@D@?$positional_parameter_base@DV?$string_output_adapter@D@__crt_stdio_output@@@__crt_stdio_output@@CA?AW4parameter_type@01@PEAD@Z 000000018005cdd0 f i libucrtd:output.obj
 0001:0005bde0       ??$get_parameter_type@D@?$positional_parameter_base@_WV?$stream_output_adapter@_W@__crt_stdio_output@@@__crt_stdio_output@@CA?AW4parameter_type@01@PEAD@Z 000000018005cde0 f i libucrtd:output.obj
 0001:0005bdf0       ??$get_parameter_type@D@?$positional_parameter_base@_WV?$string_output_adapter@_W@__crt_stdio_output@@@__crt_stdio_output@@CA?AW4parameter_type@01@PEAD@Z 000000018005cdf0 f i libucrtd:output.obj
 0001:0005be40       ??$get_parameter_type@X@?$positional_parameter_base@DV?$stream_output_adapter@D@__crt_stdio_output@@@__crt_stdio_output@@CA?AW4parameter_type@01@PEAX@Z 000000018005ce40 f i libucrtd:output.obj
 0001:0005be50       ??$get_parameter_type@X@?$positional_parameter_base@DV?$string_output_adapter@D@__crt_stdio_output@@@__crt_stdio_output@@CA?AW4parameter_type@01@PEAX@Z 000000018005ce50 f i libucrtd:output.obj
 0001:0005be60       ??$get_parameter_type@X@?$positional_parameter_base@_WV?$stream_output_adapter@_W@__crt_stdio_output@@@__crt_stdio_output@@CA?AW4parameter_type@01@PEAX@Z 000000018005ce60 f i libucrtd:output.obj
 0001:0005be70       ??$get_parameter_type@X@?$positional_parameter_base@_WV?$string_output_adapter@_W@__crt_stdio_output@@@__crt_stdio_output@@CA?AW4parameter_type@01@PEAX@Z 000000018005ce70 f i libucrtd:output.obj
 0001:0005be80       ??$is_character_specifier@D@?$positional_parameter_base@DV?$stream_output_adapter@D@__crt_stdio_output@@@__crt_stdio_output@@CA_ND@Z 000000018005ce80 f i libucrtd:output.obj
 0001:0005bec0       ??$is_character_specifier@D@?$positional_parameter_base@DV?$string_output_adapter@D@__crt_stdio_output@@@__crt_stdio_output@@CA_ND@Z 000000018005cec0 f i libucrtd:output.obj
 0001:0005bf00       ??$is_character_specifier@_W@?$positional_parameter_base@_WV?$stream_output_adapter@_W@__crt_stdio_output@@@__crt_stdio_output@@CA_N_W@Z 000000018005cf00 f i libucrtd:output.obj
 0001:0005bf40       ??$is_character_specifier@_W@?$positional_parameter_base@_WV?$string_output_adapter@_W@__crt_stdio_output@@@__crt_stdio_output@@CA_N_W@Z 000000018005cf40 f i libucrtd:output.obj
 0001:0005bf80       ??$is_integral_specifier@D@?$positional_parameter_base@DV?$stream_output_adapter@D@__crt_stdio_output@@@__crt_stdio_output@@CA_ND@Z 000000018005cf80 f i libucrtd:output.obj
 0001:0005bff0       ??$is_integral_specifier@D@?$positional_parameter_base@DV?$string_output_adapter@D@__crt_stdio_output@@@__crt_stdio_output@@CA_ND@Z 000000018005cff0 f i libucrtd:output.obj
 0001:0005c060       ??$is_integral_specifier@_W@?$positional_parameter_base@_WV?$stream_output_adapter@_W@__crt_stdio_output@@@__crt_stdio_output@@CA_N_W@Z 000000018005d060 f i libucrtd:output.obj
 0001:0005c0d0       ??$is_integral_specifier@_W@?$positional_parameter_base@_WV?$string_output_adapter@_W@__crt_stdio_output@@@__crt_stdio_output@@CA_N_W@Z 000000018005d0d0 f i libucrtd:output.obj
 0001:0005c140       ??$is_pointer_specifier@D@?$positional_parameter_base@DV?$stream_output_adapter@D@__crt_stdio_output@@@__crt_stdio_output@@CA_ND@Z 000000018005d140 f i libucrtd:output.obj
 0001:0005c170       ??$is_pointer_specifier@D@?$positional_parameter_base@DV?$string_output_adapter@D@__crt_stdio_output@@@__crt_stdio_output@@CA_ND@Z 000000018005d170 f i libucrtd:output.obj
 0001:0005c1a0       ??$is_pointer_specifier@_W@?$positional_parameter_base@_WV?$stream_output_adapter@_W@__crt_stdio_output@@@__crt_stdio_output@@CA_N_W@Z 000000018005d1a0 f i libucrtd:output.obj
 0001:0005c1d0       ??$is_pointer_specifier@_W@?$positional_parameter_base@_WV?$string_output_adapter@_W@__crt_stdio_output@@@__crt_stdio_output@@CA_N_W@Z 000000018005d1d0 f i libucrtd:output.obj
 0001:0005c200       ??$is_string_specifier@D@?$positional_parameter_base@DV?$stream_output_adapter@D@__crt_stdio_output@@@__crt_stdio_output@@CA_ND@Z 000000018005d200 f i libucrtd:output.obj
 0001:0005c240       ??$is_string_specifier@D@?$positional_parameter_base@DV?$string_output_adapter@D@__crt_stdio_output@@@__crt_stdio_output@@CA_ND@Z 000000018005d240 f i libucrtd:output.obj
 0001:0005c280       ??$is_string_specifier@_W@?$positional_parameter_base@_WV?$stream_output_adapter@_W@__crt_stdio_output@@@__crt_stdio_output@@CA_N_W@Z 000000018005d280 f i libucrtd:output.obj
 0001:0005c2c0       ??$is_string_specifier@_W@?$positional_parameter_base@_WV?$string_output_adapter@_W@__crt_stdio_output@@@__crt_stdio_output@@CA_N_W@Z 000000018005d2c0 f i libucrtd:output.obj
 0001:0005c300       ??$is_wide_character_specifier@D@__crt_stdio_output@@YA_N_KDW4length_modifier@0@@Z 000000018005d300 f i libucrtd:output.obj
 0001:0005c3a0       ??$is_wide_character_specifier@_W@__crt_stdio_output@@YA_N_K_WW4length_modifier@0@@Z 000000018005d3a0 f i libucrtd:output.obj
 0001:0005c470       ??$peek_va_arg@C@__crt_stdio_output@@YACPEAD@Z 000000018005d470 f i libucrtd:output.obj
 0001:0005c4d0       ??$peek_va_arg@E@__crt_stdio_output@@YAEPEAD@Z 000000018005d4d0 f i libucrtd:output.obj
 0001:0005c530       ??$peek_va_arg@F@__crt_stdio_output@@YAFPEAD@Z 000000018005d530 f i libucrtd:output.obj
 0001:0005c590       ??$peek_va_arg@G@__crt_stdio_output@@YAGPEAD@Z 000000018005d590 f i libucrtd:output.obj
 0001:0005c5f0       ??$peek_va_arg@H@__crt_stdio_output@@YAHPEAD@Z 000000018005d5f0 f i libucrtd:output.obj
 0001:0005c640       ??$peek_va_arg@I@__crt_stdio_output@@YAIPEAD@Z 000000018005d640 f i libucrtd:output.obj
 0001:0005c690       ??$peek_va_arg@PEAD@__crt_stdio_output@@YAPEADPEAD@Z 000000018005d690 f i libucrtd:output.obj
 0001:0005c870       ??$peek_va_arg@PEAX@__crt_stdio_output@@YAPEAXPEAD@Z 000000018005d870 f i libucrtd:output.obj
 0001:0005c8d0       ??$peek_va_arg@U_CRT_DOUBLE@@@__crt_stdio_output@@YA?AU_CRT_DOUBLE@@PEAD@Z 000000018005d8d0 f i libucrtd:output.obj
 0001:0005c930       ??$peek_va_arg@_J@__crt_stdio_output@@YA_JPEAD@Z 000000018005d930 f i libucrtd:output.obj
 0001:0005c990       ??$peek_va_arg@_K@__crt_stdio_output@@YA_KPEAD@Z 000000018005d990 f i libucrtd:output.obj
 0001:0005c9f0       ??$peek_va_arg@_W@__crt_stdio_output@@YA_WPEAD@Z 000000018005d9f0 f i libucrtd:output.obj
 0001:0005ca50       ??$puttc_nolock@AEBDPEAU_iobuf@@@?$__crt_char_traits@D@@SAHAEBD$$QEAPEAU_iobuf@@@Z 000000018005da50 f i libucrtd:output.obj
 0001:0005ca80       ??$puttc_nolock@AEB_WPEAU_iobuf@@@?$__crt_char_traits@_W@@SAGAEB_W$$QEAPEAU_iobuf@@@Z 000000018005da80 f i libucrtd:output.obj
 0001:0005cab0       ??$read_va_arg@C@__crt_stdio_output@@YACAEAPEAD@Z 000000018005dab0 f i libucrtd:output.obj
 0001:0005cb20       ??$read_va_arg@E@__crt_stdio_output@@YAEAEAPEAD@Z 000000018005db20 f i libucrtd:output.obj
 0001:0005cb90       ??$read_va_arg@F@__crt_stdio_output@@YAFAEAPEAD@Z 000000018005db90 f i libucrtd:output.obj
 0001:0005cc00       ??$read_va_arg@G@__crt_stdio_output@@YAGAEAPEAD@Z 000000018005dc00 f i libucrtd:output.obj
 0001:0005cc70       ??$read_va_arg@H@__crt_stdio_output@@YAHAEAPEAD@Z 000000018005dc70 f i libucrtd:output.obj
 0001:0005ccd0       ??$read_va_arg@I@__crt_stdio_output@@YAIAEAPEAD@Z 000000018005dcd0 f i libucrtd:output.obj
 0001:0005cd30       ??$read_va_arg@PEAD@__crt_stdio_output@@YAPEADAEAPEAD@Z 000000018005dd30 f i libucrtd:output.obj
 0001:0005d2e0       ??$read_va_arg@PEAX@__crt_stdio_output@@YAPEAXAEAPEAD@Z 000000018005e2e0 f i libucrtd:output.obj
 0001:0005d350       ??$read_va_arg@U_CRT_DOUBLE@@@__crt_stdio_output@@YA?AU_CRT_DOUBLE@@AEAPEAD@Z 000000018005e350 f i libucrtd:output.obj
 0001:0005d3c0       ??$read_va_arg@_J@__crt_stdio_output@@YA_JAEAPEAD@Z 000000018005e3c0 f i libucrtd:output.obj
 0001:0005d430       ??$read_va_arg@_K@__crt_stdio_output@@YA_KAEAPEAD@Z 000000018005e430 f i libucrtd:output.obj
 0001:0005d4a0       ??$read_va_arg@_W@__crt_stdio_output@@YA_WAEAPEAD@Z 000000018005e4a0 f i libucrtd:output.obj
 0001:0005d510       ??$scratch_count@D@formatting_buffer@__crt_stdio_output@@QEBA_KXZ 000000018005e510 f i libucrtd:output.obj
 0001:0005d530       ??$scratch_data@D@formatting_buffer@__crt_stdio_output@@QEAAPEADXZ 000000018005e530 f i libucrtd:output.obj
 0001:0005d5a0       ??$tcstol@AEAPEBDPEAPEADH@?$__crt_char_traits@D@@SAJAEAPEBD$$QEAPEAPEAD$$QEAH@Z 000000018005e5a0 f i libucrtd:output.obj
 0001:0005d5e0       ??$tcstol@AEAPEB_WPEAPEA_WH@?$__crt_char_traits@_W@@SAJAEAPEB_W$$QEAPEAPEA_W$$QEAH@Z 000000018005e5e0 f i libucrtd:output.obj
 0001:0005d620       ??$tcstol@PEBDPEAPEADH@?$__crt_char_traits@D@@SAJ$$QEAPEBD$$QEAPEAPEAD$$QEAH@Z 000000018005e620 f i libucrtd:output.obj
 0001:0005d660       ??$tcstol@PEB_WPEAPEA_WH@?$__crt_char_traits@_W@@SAJ$$QEAPEB_W$$QEAPEAPEA_W$$QEAH@Z 000000018005e660 f i libucrtd:output.obj
 0001:0005d6a0       ??$type_case_integer_parse_into_buffer@I@?$output_processor@DV?$stream_output_adapter@D@__crt_stdio_output@@V?$format_validation_base@DV?$stream_output_adapter@D@__crt_stdio_output@@@2@@__crt_stdio_output@@AEAAXII_N@Z 000000018005e6a0 f i libucrtd:output.obj
 0001:0005d7d0       ??$type_case_integer_parse_into_buffer@I@?$output_processor@DV?$stream_output_adapter@D@__crt_stdio_output@@V?$positional_parameter_base@DV?$stream_output_adapter@D@__crt_stdio_output@@@2@@__crt_stdio_output@@AEAAXII_N@Z 000000018005e7d0 f i libucrtd:output.obj
 0001:0005d900       ??$type_case_integer_parse_into_buffer@I@?$output_processor@DV?$stream_output_adapter@D@__crt_stdio_output@@V?$standard_base@DV?$stream_output_adapter@D@__crt_stdio_output@@@2@@__crt_stdio_output@@AEAAXII_N@Z 000000018005e900 f i libucrtd:output.obj
 0001:0005da30       ??$type_case_integer_parse_into_buffer@I@?$output_processor@DV?$string_output_adapter@D@__crt_stdio_output@@V?$format_validation_base@DV?$string_output_adapter@D@__crt_stdio_output@@@2@@__crt_stdio_output@@AEAAXII_N@Z 000000018005ea30 f i libucrtd:output.obj
 0001:0005db60       ??$type_case_integer_parse_into_buffer@I@?$output_processor@DV?$string_output_adapter@D@__crt_stdio_output@@V?$positional_parameter_base@DV?$string_output_adapter@D@__crt_stdio_output@@@2@@__crt_stdio_output@@AEAAXII_N@Z 000000018005eb60 f i libucrtd:output.obj
 0001:0005dc90       ??$type_case_integer_parse_into_buffer@I@?$output_processor@DV?$string_output_adapter@D@__crt_stdio_output@@V?$standard_base@DV?$string_output_adapter@D@__crt_stdio_output@@@2@@__crt_stdio_output@@AEAAXII_N@Z 000000018005ec90 f i libucrtd:output.obj
 0001:0005ddc0       ??$type_case_integer_parse_into_buffer@I@?$output_processor@_WV?$stream_output_adapter@_W@__crt_stdio_output@@V?$format_validation_base@_WV?$stream_output_adapter@_W@__crt_stdio_output@@@2@@__crt_stdio_output@@AEAAXII_N@Z 000000018005edc0 f i libucrtd:output.obj
 0001:0005df00       ??$type_case_integer_parse_into_buffer@I@?$output_processor@_WV?$stream_output_adapter@_W@__crt_stdio_output@@V?$positional_parameter_base@_WV?$stream_output_adapter@_W@__crt_stdio_output@@@2@@__crt_stdio_output@@AEAAXII_N@Z 000000018005ef00 f i libucrtd:output.obj
 0001:0005e040       ??$type_case_integer_parse_into_buffer@I@?$output_processor@_WV?$stream_output_adapter@_W@__crt_stdio_output@@V?$standard_base@_WV?$stream_output_adapter@_W@__crt_stdio_output@@@2@@__crt_stdio_output@@AEAAXII_N@Z 000000018005f040 f i libucrtd:output.obj
 0001:0005e180       ??$type_case_integer_parse_into_buffer@I@?$output_processor@_WV?$string_output_adapter@_W@__crt_stdio_output@@V?$format_validation_base@_WV?$string_output_adapter@_W@__crt_stdio_output@@@2@@__crt_stdio_output@@AEAAXII_N@Z 000000018005f180 f i libucrtd:output.obj
 0001:0005e2c0       ??$type_case_integer_parse_into_buffer@I@?$output_processor@_WV?$string_output_adapter@_W@__crt_stdio_output@@V?$positional_parameter_base@_WV?$string_output_adapter@_W@__crt_stdio_output@@@2@@__crt_stdio_output@@AEAAXII_N@Z 000000018005f2c0 f i libucrtd:output.obj
 0001:0005e400       ??$type_case_integer_parse_into_buffer@I@?$output_processor@_WV?$string_output_adapter@_W@__crt_stdio_output@@V?$standard_base@_WV?$string_output_adapter@_W@__crt_stdio_output@@@2@@__crt_stdio_output@@AEAAXII_N@Z 000000018005f400 f i libucrtd:output.obj
 0001:0005e540       ??$type_case_integer_parse_into_buffer@_K@?$output_processor@DV?$stream_output_adapter@D@__crt_stdio_output@@V?$format_validation_base@DV?$stream_output_adapter@D@__crt_stdio_output@@@2@@__crt_stdio_output@@AEAAX_KI_N@Z 000000018005f540 f i libucrtd:output.obj
 0001:0005e690       ??$type_case_integer_parse_into_buffer@_K@?$output_processor@DV?$stream_output_adapter@D@__crt_stdio_output@@V?$positional_parameter_base@DV?$stream_output_adapter@D@__crt_stdio_output@@@2@@__crt_stdio_output@@AEAAX_KI_N@Z 000000018005f690 f i libucrtd:output.obj
 0001:0005e7e0       ??$type_case_integer_parse_into_buffer@_K@?$output_processor@DV?$stream_output_adapter@D@__crt_stdio_output@@V?$standard_base@DV?$stream_output_adapter@D@__crt_stdio_output@@@2@@__crt_stdio_output@@AEAAX_KI_N@Z 000000018005f7e0 f i libucrtd:output.obj
 0001:0005e930       ??$type_case_integer_parse_into_buffer@_K@?$output_processor@DV?$string_output_adapter@D@__crt_stdio_output@@V?$format_validation_base@DV?$string_output_adapter@D@__crt_stdio_output@@@2@@__crt_stdio_output@@AEAAX_KI_N@Z 000000018005f930 f i libucrtd:output.obj
 0001:0005ea80       ??$type_case_integer_parse_into_buffer@_K@?$output_processor@DV?$string_output_adapter@D@__crt_stdio_output@@V?$positional_parameter_base@DV?$string_output_adapter@D@__crt_stdio_output@@@2@@__crt_stdio_output@@AEAAX_KI_N@Z 000000018005fa80 f i libucrtd:output.obj
 0001:0005ebd0       ??$type_case_integer_parse_into_buffer@_K@?$output_processor@DV?$string_output_adapter@D@__crt_stdio_output@@V?$standard_base@DV?$string_output_adapter@D@__crt_stdio_output@@@2@@__crt_stdio_output@@AEAAX_KI_N@Z 000000018005fbd0 f i libucrtd:output.obj
 0001:0005ed20       ??$type_case_integer_parse_into_buffer@_K@?$output_processor@_WV?$stream_output_adapter@_W@__crt_stdio_output@@V?$format_validation_base@_WV?$stream_output_adapter@_W@__crt_stdio_output@@@2@@__crt_stdio_output@@AEAAX_KI_N@Z 000000018005fd20 f i libucrtd:output.obj
 0001:0005ee80       ??$type_case_integer_parse_into_buffer@_K@?$output_processor@_WV?$stream_output_adapter@_W@__crt_stdio_output@@V?$positional_parameter_base@_WV?$stream_output_adapter@_W@__crt_stdio_output@@@2@@__crt_stdio_output@@AEAAX_KI_N@Z 000000018005fe80 f i libucrtd:output.obj
 0001:0005efe0       ??$type_case_integer_parse_into_buffer@_K@?$output_processor@_WV?$stream_output_adapter@_W@__crt_stdio_output@@V?$standard_base@_WV?$stream_output_adapter@_W@__crt_stdio_output@@@2@@__crt_stdio_output@@AEAAX_KI_N@Z 000000018005ffe0 f i libucrtd:output.obj
 0001:0005f140       ??$type_case_integer_parse_into_buffer@_K@?$output_processor@_WV?$string_output_adapter@_W@__crt_stdio_output@@V?$format_validation_base@_WV?$string_output_adapter@_W@__crt_stdio_output@@@2@@__crt_stdio_output@@AEAAX_KI_N@Z 0000000180060140 f i libucrtd:output.obj
 0001:0005f2a0       ??$type_case_integer_parse_into_buffer@_K@?$output_processor@_WV?$string_output_adapter@_W@__crt_stdio_output@@V?$positional_parameter_base@_WV?$string_output_adapter@_W@__crt_stdio_output@@@2@@__crt_stdio_output@@AEAAX_KI_N@Z 00000001800602a0 f i libucrtd:output.obj
 0001:0005f400       ??$type_case_integer_parse_into_buffer@_K@?$output_processor@_WV?$string_output_adapter@_W@__crt_stdio_output@@V?$standard_base@_WV?$string_output_adapter@_W@__crt_stdio_output@@@2@@__crt_stdio_output@@AEAAX_KI_N@Z 0000000180060400 f i libucrtd:output.obj
 0001:0005f560       ??$write_multiple_characters@V?$stream_output_adapter@D@__crt_stdio_output@@D@__crt_stdio_output@@YAXAEBV?$stream_output_adapter@D@0@DHQEAH@Z 0000000180060560 f i libucrtd:output.obj
 0001:0005f5c0       ??$write_multiple_characters@V?$stream_output_adapter@_W@__crt_stdio_output@@D@__crt_stdio_output@@YAXAEBV?$stream_output_adapter@_W@0@DHQEAH@Z 00000001800605c0 f i libucrtd:output.obj
 0001:0005f620       ??$write_multiple_characters@V?$string_output_adapter@D@__crt_stdio_output@@D@__crt_stdio_output@@YAXAEBV?$string_output_adapter@D@0@DHQEAH@Z 0000000180060620 f i libucrtd:output.obj
 0001:0005f680       ??$write_multiple_characters@V?$string_output_adapter@_W@__crt_stdio_output@@D@__crt_stdio_output@@YAXAEBV?$string_output_adapter@_W@0@DHQEAH@Z 0000000180060680 f i libucrtd:output.obj
 0001:0005faa0       ??0?$common_data@D@__crt_stdio_output@@IEAA@XZ 0000000180060aa0 f i libucrtd:output.obj
 0001:0005fb70       ??0?$common_data@_W@__crt_stdio_output@@IEAA@XZ 0000000180060b70 f i libucrtd:output.obj
 0001:0005fc40       ??0?$output_adapter_data@DV?$stream_output_adapter@D@__crt_stdio_output@@@__crt_stdio_output@@IEAA@AEBV?$stream_output_adapter@D@1@_KQEBDQEAU__crt_locale_pointers@@QEAD@Z 0000000180060c40 f i libucrtd:output.obj
 0001:0005fcc0       ??0?$output_adapter_data@DV?$string_output_adapter@D@__crt_stdio_output@@@__crt_stdio_output@@IEAA@AEBV?$string_output_adapter@D@1@_KQEBDQEAU__crt_locale_pointers@@QEAD@Z 0000000180060cc0 f i libucrtd:output.obj
 0001:0005fd40       ??0?$output_adapter_data@_WV?$stream_output_adapter@_W@__crt_stdio_output@@@__crt_stdio_output@@IEAA@AEBV?$stream_output_adapter@_W@1@_KQEB_WQEAU__crt_locale_pointers@@QEAD@Z 0000000180060d40 f i libucrtd:output.obj
 0001:0005fdc0       ??0?$output_adapter_data@_WV?$string_output_adapter@_W@__crt_stdio_output@@@__crt_stdio_output@@IEAA@AEBV?$string_output_adapter@_W@1@_KQEB_WQEAU__crt_locale_pointers@@QEAD@Z 0000000180060dc0 f i libucrtd:output.obj
 0001:0005fe40       ??0?$output_processor@DV?$stream_output_adapter@D@__crt_stdio_output@@V?$format_validation_base@DV?$stream_output_adapter@D@__crt_stdio_output@@@2@@__crt_stdio_output@@QEAA@AEBV?$stream_output_adapter@D@1@_KQEBDQEAU__crt_locale_pointers@@QEAD@Z 0000000180060e40 f i libucrtd:output.obj
 0001:0005fe90       ??0?$output_processor@DV?$stream_output_adapter@D@__crt_stdio_output@@V?$positional_parameter_base@DV?$stream_output_adapter@D@__crt_stdio_output@@@2@@__crt_stdio_output@@QEAA@AEBV?$stream_output_adapter@D@1@_KQEBDQEAU__crt_locale_pointers@@QEAD@Z 0000000180060e90 f i libucrtd:output.obj
 0001:0005fee0       ??0?$output_processor@DV?$stream_output_adapter@D@__crt_stdio_output@@V?$standard_base@DV?$stream_output_adapter@D@__crt_stdio_output@@@2@@__crt_stdio_output@@QEAA@AEBV?$stream_output_adapter@D@1@_KQEBDQEAU__crt_locale_pointers@@QEAD@Z 0000000180060ee0 f i libucrtd:output.obj
 0001:0005ff30       ??0?$output_processor@DV?$string_output_adapter@D@__crt_stdio_output@@V?$format_validation_base@DV?$string_output_adapter@D@__crt_stdio_output@@@2@@__crt_stdio_output@@QEAA@AEBV?$string_output_adapter@D@1@_KQEBDQEAU__crt_locale_pointers@@QEAD@Z 0000000180060f30 f i libucrtd:output.obj
 0001:0005ff80       ??0?$output_processor@DV?$string_output_adapter@D@__crt_stdio_output@@V?$positional_parameter_base@DV?$string_output_adapter@D@__crt_stdio_output@@@2@@__crt_stdio_output@@QEAA@AEBV?$string_output_adapter@D@1@_KQEBDQEAU__crt_locale_pointers@@QEAD@Z 0000000180060f80 f i libucrtd:output.obj
 0001:0005ffd0       ??0?$output_processor@DV?$string_output_adapter@D@__crt_stdio_output@@V?$standard_base@DV?$string_output_adapter@D@__crt_stdio_output@@@2@@__crt_stdio_output@@QEAA@AEBV?$string_output_adapter@D@1@_KQEBDQEAU__crt_locale_pointers@@QEAD@Z 0000000180060fd0 f i libucrtd:output.obj
 0001:00060020       ??0?$output_processor@_WV?$stream_output_adapter@_W@__crt_stdio_output@@V?$format_validation_base@_WV?$stream_output_adapter@_W@__crt_stdio_output@@@2@@__crt_stdio_output@@QEAA@AEBV?$stream_output_adapter@_W@1@_KQEB_WQEAU__crt_locale_pointers@@QEAD@Z 0000000180061020 f i libucrtd:output.obj
 0001:00060070       ??0?$output_processor@_WV?$stream_output_adapter@_W@__crt_stdio_output@@V?$positional_parameter_base@_WV?$stream_output_adapter@_W@__crt_stdio_output@@@2@@__crt_stdio_output@@QEAA@AEBV?$stream_output_adapter@_W@1@_KQEB_WQEAU__crt_locale_pointers@@QEAD@Z 0000000180061070 f i libucrtd:output.obj
 0001:000600c0       ??0?$output_processor@_WV?$stream_output_adapter@_W@__crt_stdio_output@@V?$standard_base@_WV?$stream_output_adapter@_W@__crt_stdio_output@@@2@@__crt_stdio_output@@QEAA@AEBV?$stream_output_adapter@_W@1@_KQEB_WQEAU__crt_locale_pointers@@QEAD@Z 00000001800610c0 f i libucrtd:output.obj
 0001:00060110       ??0?$output_processor@_WV?$string_output_adapter@_W@__crt_stdio_output@@V?$format_validation_base@_WV?$string_output_adapter@_W@__crt_stdio_output@@@2@@__crt_stdio_output@@QEAA@AEBV?$string_output_adapter@_W@1@_KQEB_WQEAU__crt_locale_pointers@@QEAD@Z 0000000180061110 f i libucrtd:output.obj
 0001:00060160       ??0?$output_processor@_WV?$string_output_adapter@_W@__crt_stdio_output@@V?$positional_parameter_base@_WV?$string_output_adapter@_W@__crt_stdio_output@@@2@@__crt_stdio_output@@QEAA@AEBV?$string_output_adapter@_W@1@_KQEB_WQEAU__crt_locale_pointers@@QEAD@Z 0000000180061160 f i libucrtd:output.obj
 0001:000601b0       ??0?$output_processor@_WV?$string_output_adapter@_W@__crt_stdio_output@@V?$standard_base@_WV?$string_output_adapter@_W@__crt_stdio_output@@@2@@__crt_stdio_output@@QEAA@AEBV?$string_output_adapter@_W@1@_KQEB_WQEAU__crt_locale_pointers@@QEAD@Z 00000001800611b0 f i libucrtd:output.obj
 0001:00060200       ??0?$stream_output_adapter@D@__crt_stdio_output@@QEAA@QEAU_iobuf@@@Z 0000000180061200 f i libucrtd:output.obj
 0001:00060230       ??0?$stream_output_adapter@_W@__crt_stdio_output@@QEAA@QEAU_iobuf@@@Z 0000000180061230 f i libucrtd:output.obj
 0001:00060260       ??0?$string_output_adapter@D@__crt_stdio_output@@QEAA@QEAU?$string_output_adapter_context@D@1@@Z 0000000180061260 f i libucrtd:output.obj
 0001:00060280       ??0?$string_output_adapter@_W@__crt_stdio_output@@QEAA@QEAU?$string_output_adapter_context@_W@1@@Z 0000000180061280 f i libucrtd:output.obj
 0001:000602a0       ??0_LocaleUpdate@@QEAA@QEAU__crt_locale_pointers@@@Z 00000001800612a0 f i libucrtd:output.obj
 0001:000603c0       ??0__acrt_stdio_temporary_buffering_guard@@QEAA@QEAU_iobuf@@@Z 00000001800613c0 f i libucrtd:output.obj
 0001:00060400       ??0__crt_deferred_errno_cache@@QEAA@XZ 0000000180061400 f i libucrtd:output.obj
 0001:00060420       ??0__crt_errno_guard@@QEAA@QEAH@Z 0000000180061420 f i libucrtd:output.obj
 0001:00060460       ??0__crt_stdio_stream@@QEAA@QEAU_iobuf@@@Z 0000000180061460 f i libucrtd:output.obj
 0001:00060480       ??0formatting_buffer@__crt_stdio_output@@QEAA@XZ 0000000180061480 f i libucrtd:output.obj
 0001:000604c0       ??1?$common_data@D@__crt_stdio_output@@QEAA@XZ 00000001800614c0 f i libucrtd:output.obj
 0001:000604e0       ??1?$common_data@_W@__crt_stdio_output@@QEAA@XZ 00000001800614e0 f i libucrtd:output.obj
 0001:00060500       ??1?$format_validation_base@DV?$stream_output_adapter@D@__crt_stdio_output@@@__crt_stdio_output@@QEAA@XZ 0000000180061500 f i libucrtd:output.obj
 0001:00060520       ??1?$format_validation_base@DV?$string_output_adapter@D@__crt_stdio_output@@@__crt_stdio_output@@QEAA@XZ 0000000180061520 f i libucrtd:output.obj
 0001:00060540       ??1?$format_validation_base@_WV?$stream_output_adapter@_W@__crt_stdio_output@@@__crt_stdio_output@@QEAA@XZ 0000000180061540 f i libucrtd:output.obj
 0001:00060560       ??1?$format_validation_base@_WV?$string_output_adapter@_W@__crt_stdio_output@@@__crt_stdio_output@@QEAA@XZ 0000000180061560 f i libucrtd:output.obj
 0001:00060580       ??1?$output_adapter_data@DV?$stream_output_adapter@D@__crt_stdio_output@@@__crt_stdio_output@@QEAA@XZ 0000000180061580 f i libucrtd:output.obj
 0001:000605a0       ??1?$output_adapter_data@DV?$string_output_adapter@D@__crt_stdio_output@@@__crt_stdio_output@@QEAA@XZ 00000001800615a0 f i libucrtd:output.obj
 0001:000605c0       ??1?$output_adapter_data@_WV?$stream_output_adapter@_W@__crt_stdio_output@@@__crt_stdio_output@@QEAA@XZ 00000001800615c0 f i libucrtd:output.obj
 0001:000605e0       ??1?$output_adapter_data@_WV?$string_output_adapter@_W@__crt_stdio_output@@@__crt_stdio_output@@QEAA@XZ 00000001800615e0 f i libucrtd:output.obj
 0001:00060600       ??1?$output_processor@DV?$stream_output_adapter@D@__crt_stdio_output@@V?$format_validation_base@DV?$stream_output_adapter@D@__crt_stdio_output@@@2@@__crt_stdio_output@@QEAA@XZ 0000000180061600 f i libucrtd:output.obj
 0001:00060620       ??1?$output_processor@DV?$stream_output_adapter@D@__crt_stdio_output@@V?$positional_parameter_base@DV?$stream_output_adapter@D@__crt_stdio_output@@@2@@__crt_stdio_output@@QEAA@XZ 0000000180061620 f i libucrtd:output.obj
 0001:00060640       ??1?$output_processor@DV?$stream_output_adapter@D@__crt_stdio_output@@V?$standard_base@DV?$stream_output_adapter@D@__crt_stdio_output@@@2@@__crt_stdio_output@@QEAA@XZ 0000000180061640 f i libucrtd:output.obj
 0001:00060660       ??1?$output_processor@DV?$string_output_adapter@D@__crt_stdio_output@@V?$format_validation_base@DV?$string_output_adapter@D@__crt_stdio_output@@@2@@__crt_stdio_output@@QEAA@XZ 0000000180061660 f i libucrtd:output.obj
 0001:00060680       ??1?$output_processor@DV?$string_output_adapter@D@__crt_stdio_output@@V?$positional_parameter_base@DV?$string_output_adapter@D@__crt_stdio_output@@@2@@__crt_stdio_output@@QEAA@XZ 0000000180061680 f i libucrtd:output.obj
 0001:000606a0       ??1?$output_processor@DV?$string_output_adapter@D@__crt_stdio_output@@V?$standard_base@DV?$string_output_adapter@D@__crt_stdio_output@@@2@@__crt_stdio_output@@QEAA@XZ 00000001800616a0 f i libucrtd:output.obj
 0001:000606c0       ??1?$output_processor@_WV?$stream_output_adapter@_W@__crt_stdio_output@@V?$format_validation_base@_WV?$stream_output_adapter@_W@__crt_stdio_output@@@2@@__crt_stdio_output@@QEAA@XZ 00000001800616c0 f i libucrtd:output.obj
 0001:000606e0       ??1?$output_processor@_WV?$stream_output_adapter@_W@__crt_stdio_output@@V?$positional_parameter_base@_WV?$stream_output_adapter@_W@__crt_stdio_output@@@2@@__crt_stdio_output@@QEAA@XZ 00000001800616e0 f i libucrtd:output.obj
 0001:00060700       ??1?$output_processor@_WV?$stream_output_adapter@_W@__crt_stdio_output@@V?$standard_base@_WV?$stream_output_adapter@_W@__crt_stdio_output@@@2@@__crt_stdio_output@@QEAA@XZ 0000000180061700 f i libucrtd:output.obj
 0001:00060720       ??1?$output_processor@_WV?$string_output_adapter@_W@__crt_stdio_output@@V?$format_validation_base@_WV?$string_output_adapter@_W@__crt_stdio_output@@@2@@__crt_stdio_output@@QEAA@XZ 0000000180061720 f i libucrtd:output.obj
 0001:00060740       ??1?$output_processor@_WV?$string_output_adapter@_W@__crt_stdio_output@@V?$positional_parameter_base@_WV?$string_output_adapter@_W@__crt_stdio_output@@@2@@__crt_stdio_output@@QEAA@XZ 0000000180061740 f i libucrtd:output.obj
 0001:00060760       ??1?$output_processor@_WV?$string_output_adapter@_W@__crt_stdio_output@@V?$standard_base@_WV?$string_output_adapter@_W@__crt_stdio_output@@@2@@__crt_stdio_output@@QEAA@XZ 0000000180061760 f i libucrtd:output.obj
 0001:00060780       ??1?$positional_parameter_base@DV?$stream_output_adapter@D@__crt_stdio_output@@@__crt_stdio_output@@QEAA@XZ 0000000180061780 f i libucrtd:output.obj
 0001:000607a0       ??1?$positional_parameter_base@DV?$string_output_adapter@D@__crt_stdio_output@@@__crt_stdio_output@@QEAA@XZ 00000001800617a0 f i libucrtd:output.obj
 0001:000607c0       ??1?$positional_parameter_base@_WV?$stream_output_adapter@_W@__crt_stdio_output@@@__crt_stdio_output@@QEAA@XZ 00000001800617c0 f i libucrtd:output.obj
 0001:000607e0       ??1?$positional_parameter_base@_WV?$string_output_adapter@_W@__crt_stdio_output@@@__crt_stdio_output@@QEAA@XZ 00000001800617e0 f i libucrtd:output.obj
 0001:00060800       ??1?$standard_base@DV?$stream_output_adapter@D@__crt_stdio_output@@@__crt_stdio_output@@QEAA@XZ 0000000180061800 f i libucrtd:output.obj
 0001:00060820       ??1?$standard_base@DV?$string_output_adapter@D@__crt_stdio_output@@@__crt_stdio_output@@QEAA@XZ 0000000180061820 f i libucrtd:output.obj
 0001:00060840       ??1?$standard_base@_WV?$stream_output_adapter@_W@__crt_stdio_output@@@__crt_stdio_output@@QEAA@XZ 0000000180061840 f i libucrtd:output.obj
 0001:00060860       ??1?$standard_base@_WV?$string_output_adapter@_W@__crt_stdio_output@@@__crt_stdio_output@@QEAA@XZ 0000000180061860 f i libucrtd:output.obj
 0001:00060880       ??1_LocaleUpdate@@QEAA@XZ  0000000180061880 f i libucrtd:output.obj
 0001:000608c0       ??1__acrt_stdio_temporary_buffering_guard@@QEAA@XZ 00000001800618c0 f i libucrtd:output.obj
 0001:000608f0       ??1__crt_errno_guard@@QEAA@XZ 00000001800618f0 f i libucrtd:output.obj
 0001:00060920       ??1formatting_buffer@__crt_stdio_output@@QEAA@XZ 0000000180061920 f i libucrtd:output.obj
 0001:00060950       ??4?$__crt_unique_heap_ptr@DU__crt_internal_free_policy@@@@QEAAAEAV0@$$QEAV0@@Z 0000000180061950 f i libucrtd:output.obj
 0001:00060990       ??C__crt_stdio_stream@@QEBAPEAU__crt_stdio_stream_data@@XZ 0000000180061990 f i libucrtd:output.obj
 0001:00061240       ?GetLocaleT@_LocaleUpdate@@QEAAPEAU__crt_locale_pointers@@XZ 0000000180062240 f i libucrtd:output.obj
 0001:00061250       ?__crt_interlocked_read_32@@YAHPEDH@Z 0000000180062250 f i libucrtd:output.obj
 0001:00061270       ?adjust_hexit@?$output_processor@DV?$stream_output_adapter@D@__crt_stdio_output@@V?$format_validation_base@DV?$stream_output_adapter@D@__crt_stdio_output@@@2@@__crt_stdio_output@@CADH_N@Z 0000000180062270 f i libucrtd:output.obj
 0001:000612c0       ?adjust_hexit@?$output_processor@DV?$stream_output_adapter@D@__crt_stdio_output@@V?$positional_parameter_base@DV?$stream_output_adapter@D@__crt_stdio_output@@@2@@__crt_stdio_output@@CADH_N@Z 00000001800622c0 f i libucrtd:output.obj
 0001:00061310       ?adjust_hexit@?$output_processor@DV?$stream_output_adapter@D@__crt_stdio_output@@V?$standard_base@DV?$stream_output_adapter@D@__crt_stdio_output@@@2@@__crt_stdio_output@@CADH_N@Z 0000000180062310 f i libucrtd:output.obj
 0001:00061360       ?adjust_hexit@?$output_processor@DV?$string_output_adapter@D@__crt_stdio_output@@V?$format_validation_base@DV?$string_output_adapter@D@__crt_stdio_output@@@2@@__crt_stdio_output@@CADH_N@Z 0000000180062360 f i libucrtd:output.obj
 0001:000613b0       ?adjust_hexit@?$output_processor@DV?$string_output_adapter@D@__crt_stdio_output@@V?$positional_parameter_base@DV?$string_output_adapter@D@__crt_stdio_output@@@2@@__crt_stdio_output@@CADH_N@Z 00000001800623b0 f i libucrtd:output.obj
 0001:00061400       ?adjust_hexit@?$output_processor@DV?$string_output_adapter@D@__crt_stdio_output@@V?$standard_base@DV?$string_output_adapter@D@__crt_stdio_output@@@2@@__crt_stdio_output@@CADH_N@Z 0000000180062400 f i libucrtd:output.obj
 0001:00061450       ?adjust_hexit@?$output_processor@_WV?$stream_output_adapter@_W@__crt_stdio_output@@V?$format_validation_base@_WV?$stream_output_adapter@_W@__crt_stdio_output@@@2@@__crt_stdio_output@@CADH_N@Z 0000000180062450 f i libucrtd:output.obj
 0001:000614a0       ?adjust_hexit@?$output_processor@_WV?$stream_output_adapter@_W@__crt_stdio_output@@V?$positional_parameter_base@_WV?$stream_output_adapter@_W@__crt_stdio_output@@@2@@__crt_stdio_output@@CADH_N@Z 00000001800624a0 f i libucrtd:output.obj
 0001:000614f0       ?adjust_hexit@?$output_processor@_WV?$stream_output_adapter@_W@__crt_stdio_output@@V?$standard_base@_WV?$stream_output_adapter@_W@__crt_stdio_output@@@2@@__crt_stdio_output@@CADH_N@Z 00000001800624f0 f i libucrtd:output.obj
 0001:00061540       ?adjust_hexit@?$output_processor@_WV?$string_output_adapter@_W@__crt_stdio_output@@V?$format_validation_base@_WV?$string_output_adapter@_W@__crt_stdio_output@@@2@@__crt_stdio_output@@CADH_N@Z 0000000180062540 f i libucrtd:output.obj
 0001:00061590       ?adjust_hexit@?$output_processor@_WV?$string_output_adapter@_W@__crt_stdio_output@@V?$positional_parameter_base@_WV?$string_output_adapter@_W@__crt_stdio_output@@@2@@__crt_stdio_output@@CADH_N@Z 0000000180062590 f i libucrtd:output.obj
 0001:000615e0       ?adjust_hexit@?$output_processor@_WV?$string_output_adapter@_W@__crt_stdio_output@@V?$standard_base@_WV?$string_output_adapter@_W@__crt_stdio_output@@@2@@__crt_stdio_output@@CADH_N@Z 00000001800625e0 f i libucrtd:output.obj
 0001:00061630       ?advance_to_next_pass@?$positional_parameter_base@DV?$stream_output_adapter@D@__crt_stdio_output@@@__crt_stdio_output@@IEAA_NXZ 0000000180062630 f i libucrtd:output.obj
 0001:000616e0       ?advance_to_next_pass@?$positional_parameter_base@DV?$string_output_adapter@D@__crt_stdio_output@@@__crt_stdio_output@@IEAA_NXZ 00000001800626e0 f i libucrtd:output.obj
 0001:00061790       ?advance_to_next_pass@?$positional_parameter_base@_WV?$stream_output_adapter@_W@__crt_stdio_output@@@__crt_stdio_output@@IEAA_NXZ 0000000180062790 f i libucrtd:output.obj
 0001:00061840       ?advance_to_next_pass@?$positional_parameter_base@_WV?$string_output_adapter@_W@__crt_stdio_output@@@__crt_stdio_output@@IEAA_NXZ 0000000180062840 f i libucrtd:output.obj
 0001:000618f0       ?advance_to_next_pass@?$standard_base@DV?$stream_output_adapter@D@__crt_stdio_output@@@__crt_stdio_output@@IEAA_NXZ 00000001800628f0 f i libucrtd:output.obj
 0001:00061940       ?advance_to_next_pass@?$standard_base@DV?$string_output_adapter@D@__crt_stdio_output@@@__crt_stdio_output@@IEAA_NXZ 0000000180062940 f i libucrtd:output.obj
 0001:00061990       ?advance_to_next_pass@?$standard_base@_WV?$stream_output_adapter@_W@__crt_stdio_output@@@__crt_stdio_output@@IEAA_NXZ 0000000180062990 f i libucrtd:output.obj
 0001:000619e0       ?advance_to_next_pass@?$standard_base@_WV?$string_output_adapter@_W@__crt_stdio_output@@@__crt_stdio_output@@IEAA_NXZ 00000001800629e0 f i libucrtd:output.obj
 0001:00061a30       ?crop_zeroes@__crt_stdio_output@@YAXPEADQEAU__crt_locale_pointers@@@Z 0000000180062a30 f i libucrtd:output.obj
 0001:00061b70       ?find_next_state@?$output_processor@DV?$stream_output_adapter@D@__crt_stdio_output@@V?$format_validation_base@DV?$stream_output_adapter@D@__crt_stdio_output@@@2@@__crt_stdio_output@@AEBA?AW4state@2@DW432@@Z 0000000180062b70 f i libucrtd:output.obj
 0001:00061c10       ?find_next_state@?$output_processor@DV?$stream_output_adapter@D@__crt_stdio_output@@V?$positional_parameter_base@DV?$stream_output_adapter@D@__crt_stdio_output@@@2@@__crt_stdio_output@@AEBA?AW4state@2@DW432@@Z 0000000180062c10 f i libucrtd:output.obj
 0001:00061cb0       ?find_next_state@?$output_processor@DV?$stream_output_adapter@D@__crt_stdio_output@@V?$standard_base@DV?$stream_output_adapter@D@__crt_stdio_output@@@2@@__crt_stdio_output@@AEBA?AW4state@2@DW432@@Z 0000000180062cb0 f i libucrtd:output.obj
 0001:00061d50       ?find_next_state@?$output_processor@DV?$string_output_adapter@D@__crt_stdio_output@@V?$format_validation_base@DV?$string_output_adapter@D@__crt_stdio_output@@@2@@__crt_stdio_output@@AEBA?AW4state@2@DW432@@Z 0000000180062d50 f i libucrtd:output.obj
 0001:00061df0       ?find_next_state@?$output_processor@DV?$string_output_adapter@D@__crt_stdio_output@@V?$positional_parameter_base@DV?$string_output_adapter@D@__crt_stdio_output@@@2@@__crt_stdio_output@@AEBA?AW4state@2@DW432@@Z 0000000180062df0 f i libucrtd:output.obj
 0001:00061e90       ?find_next_state@?$output_processor@DV?$string_output_adapter@D@__crt_stdio_output@@V?$standard_base@DV?$string_output_adapter@D@__crt_stdio_output@@@2@@__crt_stdio_output@@AEBA?AW4state@2@DW432@@Z 0000000180062e90 f i libucrtd:output.obj
 0001:00061f30       ?find_next_state@?$output_processor@_WV?$stream_output_adapter@_W@__crt_stdio_output@@V?$format_validation_base@_WV?$stream_output_adapter@_W@__crt_stdio_output@@@2@@__crt_stdio_output@@AEBA?AW4state@2@_WW432@@Z 0000000180062f30 f i libucrtd:output.obj
 0001:00061fd0       ?find_next_state@?$output_processor@_WV?$stream_output_adapter@_W@__crt_stdio_output@@V?$positional_parameter_base@_WV?$stream_output_adapter@_W@__crt_stdio_output@@@2@@__crt_stdio_output@@AEBA?AW4state@2@_WW432@@Z 0000000180062fd0 f i libucrtd:output.obj
 0001:00062070       ?find_next_state@?$output_processor@_WV?$stream_output_adapter@_W@__crt_stdio_output@@V?$standard_base@_WV?$stream_output_adapter@_W@__crt_stdio_output@@@2@@__crt_stdio_output@@AEBA?AW4state@2@_WW432@@Z 0000000180063070 f i libucrtd:output.obj
 0001:00062110       ?find_next_state@?$output_processor@_WV?$string_output_adapter@_W@__crt_stdio_output@@V?$format_validation_base@_WV?$string_output_adapter@_W@__crt_stdio_output@@@2@@__crt_stdio_output@@AEBA?AW4state@2@_WW432@@Z 0000000180063110 f i libucrtd:output.obj
 0001:000621b0       ?find_next_state@?$output_processor@_WV?$string_output_adapter@_W@__crt_stdio_output@@V?$positional_parameter_base@_WV?$string_output_adapter@_W@__crt_stdio_output@@@2@@__crt_stdio_output@@AEBA?AW4state@2@_WW432@@Z 00000001800631b0 f i libucrtd:output.obj
 0001:00062250       ?find_next_state@?$output_processor@_WV?$string_output_adapter@_W@__crt_stdio_output@@V?$standard_base@_WV?$string_output_adapter@_W@__crt_stdio_output@@@2@@__crt_stdio_output@@AEBA?AW4state@2@_WW432@@Z 0000000180063250 f i libucrtd:output.obj
 0001:000622f0       ?force_decimal_point@__crt_stdio_output@@YAXPEADQEAU__crt_locale_pointers@@@Z 00000001800632f0 f i libucrtd:output.obj
 0001:000623f0       ?get@__crt_deferred_errno_cache@@QEAAAEAHXZ 00000001800633f0 f i libucrtd:output.obj
 0001:00062420       ?get_flags@__crt_stdio_stream@@QEBAJXZ 0000000180063420 f i libucrtd:output.obj
 0001:00062450       ?get_parameter_type@?$positional_parameter_base@DV?$stream_output_adapter@D@__crt_stdio_output@@@__crt_stdio_output@@CA?AW4parameter_type@12@F@Z 0000000180063450 f i libucrtd:output.obj
 0001:00062460       ?get_parameter_type@?$positional_parameter_base@DV?$stream_output_adapter@D@__crt_stdio_output@@@__crt_stdio_output@@CA?AW4parameter_type@12@G@Z 0000000180063460 f i libucrtd:output.obj
 0001:00062470       ?get_parameter_type@?$positional_parameter_base@DV?$stream_output_adapter@D@__crt_stdio_output@@@__crt_stdio_output@@CA?AW4parameter_type@12@H@Z 0000000180063470 f i libucrtd:output.obj
 0001:00062480       ?get_parameter_type@?$positional_parameter_base@DV?$stream_output_adapter@D@__crt_stdio_output@@@__crt_stdio_output@@CA?AW4parameter_type@12@I@Z 0000000180063480 f i libucrtd:output.obj
 0001:00062490       ?get_parameter_type@?$positional_parameter_base@DV?$stream_output_adapter@D@__crt_stdio_output@@@__crt_stdio_output@@CA?AW4parameter_type@12@U_CRT_DOUBLE@@@Z 0000000180063490 f i libucrtd:output.obj
 0001:000624a0       ?get_parameter_type@?$positional_parameter_base@DV?$stream_output_adapter@D@__crt_stdio_output@@@__crt_stdio_output@@CA?AW4parameter_type@12@_J@Z 00000001800634a0 f i libucrtd:output.obj
 0001:000624b0       ?get_parameter_type@?$positional_parameter_base@DV?$stream_output_adapter@D@__crt_stdio_output@@@__crt_stdio_output@@CA?AW4parameter_type@12@_K@Z 00000001800634b0 f i libucrtd:output.obj
 0001:000624c0       ?get_parameter_type@?$positional_parameter_base@DV?$stream_output_adapter@D@__crt_stdio_output@@@__crt_stdio_output@@CA?AW4parameter_type@12@_W@Z 00000001800634c0 f i libucrtd:output.obj
 0001:000624d0       ?get_parameter_type@?$positional_parameter_base@DV?$string_output_adapter@D@__crt_stdio_output@@@__crt_stdio_output@@CA?AW4parameter_type@12@F@Z 00000001800634d0 f i libucrtd:output.obj
 0001:000624e0       ?get_parameter_type@?$positional_parameter_base@DV?$string_output_adapter@D@__crt_stdio_output@@@__crt_stdio_output@@CA?AW4parameter_type@12@G@Z 00000001800634e0 f i libucrtd:output.obj
 0001:000624f0       ?get_parameter_type@?$positional_parameter_base@DV?$string_output_adapter@D@__crt_stdio_output@@@__crt_stdio_output@@CA?AW4parameter_type@12@H@Z 00000001800634f0 f i libucrtd:output.obj
 0001:00062500       ?get_parameter_type@?$positional_parameter_base@DV?$string_output_adapter@D@__crt_stdio_output@@@__crt_stdio_output@@CA?AW4parameter_type@12@I@Z 0000000180063500 f i libucrtd:output.obj
 0001:00062510       ?get_parameter_type@?$positional_parameter_base@DV?$string_output_adapter@D@__crt_stdio_output@@@__crt_stdio_output@@CA?AW4parameter_type@12@U_CRT_DOUBLE@@@Z 0000000180063510 f i libucrtd:output.obj
 0001:00062520       ?get_parameter_type@?$positional_parameter_base@DV?$string_output_adapter@D@__crt_stdio_output@@@__crt_stdio_output@@CA?AW4parameter_type@12@_J@Z 0000000180063520 f i libucrtd:output.obj
 0001:00062530       ?get_parameter_type@?$positional_parameter_base@DV?$string_output_adapter@D@__crt_stdio_output@@@__crt_stdio_output@@CA?AW4parameter_type@12@_K@Z 0000000180063530 f i libucrtd:output.obj
 0001:00062540       ?get_parameter_type@?$positional_parameter_base@DV?$string_output_adapter@D@__crt_stdio_output@@@__crt_stdio_output@@CA?AW4parameter_type@12@_W@Z 0000000180063540 f i libucrtd:output.obj
 0001:00062550       ?get_parameter_type@?$positional_parameter_base@_WV?$stream_output_adapter@_W@__crt_stdio_output@@@__crt_stdio_output@@CA?AW4parameter_type@12@F@Z 0000000180063550 f i libucrtd:output.obj
 0001:00062560       ?get_parameter_type@?$positional_parameter_base@_WV?$stream_output_adapter@_W@__crt_stdio_output@@@__crt_stdio_output@@CA?AW4parameter_type@12@G@Z 0000000180063560 f i libucrtd:output.obj
 0001:00062570       ?get_parameter_type@?$positional_parameter_base@_WV?$stream_output_adapter@_W@__crt_stdio_output@@@__crt_stdio_output@@CA?AW4parameter_type@12@H@Z 0000000180063570 f i libucrtd:output.obj
 0001:00062580       ?get_parameter_type@?$positional_parameter_base@_WV?$stream_output_adapter@_W@__crt_stdio_output@@@__crt_stdio_output@@CA?AW4parameter_type@12@I@Z 0000000180063580 f i libucrtd:output.obj
 0001:00062590       ?get_parameter_type@?$positional_parameter_base@_WV?$stream_output_adapter@_W@__crt_stdio_output@@@__crt_stdio_output@@CA?AW4parameter_type@12@U_CRT_DOUBLE@@@Z 0000000180063590 f i libucrtd:output.obj
 0001:000625a0       ?get_parameter_type@?$positional_parameter_base@_WV?$stream_output_adapter@_W@__crt_stdio_output@@@__crt_stdio_output@@CA?AW4parameter_type@12@_J@Z 00000001800635a0 f i libucrtd:output.obj
 0001:000625b0       ?get_parameter_type@?$positional_parameter_base@_WV?$stream_output_adapter@_W@__crt_stdio_output@@@__crt_stdio_output@@CA?AW4parameter_type@12@_K@Z 00000001800635b0 f i libucrtd:output.obj
 0001:000625c0       ?get_parameter_type@?$positional_parameter_base@_WV?$stream_output_adapter@_W@__crt_stdio_output@@@__crt_stdio_output@@CA?AW4parameter_type@12@_W@Z 00000001800635c0 f i libucrtd:output.obj
 0001:000625d0       ?get_parameter_type@?$positional_parameter_base@_WV?$string_output_adapter@_W@__crt_stdio_output@@@__crt_stdio_output@@CA?AW4parameter_type@12@F@Z 00000001800635d0 f i libucrtd:output.obj
 0001:000625e0       ?get_parameter_type@?$positional_parameter_base@_WV?$string_output_adapter@_W@__crt_stdio_output@@@__crt_stdio_output@@CA?AW4parameter_type@12@G@Z 00000001800635e0 f i libucrtd:output.obj
 0001:000625f0       ?get_parameter_type@?$positional_parameter_base@_WV?$string_output_adapter@_W@__crt_stdio_output@@@__crt_stdio_output@@CA?AW4parameter_type@12@H@Z 00000001800635f0 f i libucrtd:output.obj
 0001:00062600       ?get_parameter_type@?$positional_parameter_base@_WV?$string_output_adapter@_W@__crt_stdio_output@@@__crt_stdio_output@@CA?AW4parameter_type@12@I@Z 0000000180063600 f i libucrtd:output.obj
 0001:00062610       ?get_parameter_type@?$positional_parameter_base@_WV?$string_output_adapter@_W@__crt_stdio_output@@@__crt_stdio_output@@CA?AW4parameter_type@12@U_CRT_DOUBLE@@@Z 0000000180063610 f i libucrtd:output.obj
 0001:00062620       ?get_parameter_type@?$positional_parameter_base@_WV?$string_output_adapter@_W@__crt_stdio_output@@@__crt_stdio_output@@CA?AW4parameter_type@12@_J@Z 0000000180063620 f i libucrtd:output.obj
 0001:00062630       ?get_parameter_type@?$positional_parameter_base@_WV?$string_output_adapter@_W@__crt_stdio_output@@@__crt_stdio_output@@CA?AW4parameter_type@12@_K@Z 0000000180063630 f i libucrtd:output.obj
 0001:00062640       ?get_parameter_type@?$positional_parameter_base@_WV?$string_output_adapter@_W@__crt_stdio_output@@@__crt_stdio_output@@CA?AW4parameter_type@12@_W@Z 0000000180063640 f i libucrtd:output.obj
 0001:00062650       ?has_flag@?$output_processor@DV?$stream_output_adapter@D@__crt_stdio_output@@V?$format_validation_base@DV?$stream_output_adapter@D@__crt_stdio_output@@@2@@__crt_stdio_output@@AEBA_NI@Z 0000000180063650 f i libucrtd:output.obj
 0001:00062690       ?has_flag@?$output_processor@DV?$stream_output_adapter@D@__crt_stdio_output@@V?$positional_parameter_base@DV?$stream_output_adapter@D@__crt_stdio_output@@@2@@__crt_stdio_output@@AEBA_NI@Z 0000000180063690 f i libucrtd:output.obj
 0001:000626d0       ?has_flag@?$output_processor@DV?$stream_output_adapter@D@__crt_stdio_output@@V?$standard_base@DV?$stream_output_adapter@D@__crt_stdio_output@@@2@@__crt_stdio_output@@AEBA_NI@Z 00000001800636d0 f i libucrtd:output.obj
 0001:00062710       ?has_flag@?$output_processor@DV?$string_output_adapter@D@__crt_stdio_output@@V?$format_validation_base@DV?$string_output_adapter@D@__crt_stdio_output@@@2@@__crt_stdio_output@@AEBA_NI@Z 0000000180063710 f i libucrtd:output.obj
 0001:00062750       ?has_flag@?$output_processor@DV?$string_output_adapter@D@__crt_stdio_output@@V?$positional_parameter_base@DV?$string_output_adapter@D@__crt_stdio_output@@@2@@__crt_stdio_output@@AEBA_NI@Z 0000000180063750 f i libucrtd:output.obj
 0001:00062790       ?has_flag@?$output_processor@DV?$string_output_adapter@D@__crt_stdio_output@@V?$standard_base@DV?$string_output_adapter@D@__crt_stdio_output@@@2@@__crt_stdio_output@@AEBA_NI@Z 0000000180063790 f i libucrtd:output.obj
 0001:000627d0       ?has_flag@?$output_processor@_WV?$stream_output_adapter@_W@__crt_stdio_output@@V?$format_validation_base@_WV?$stream_output_adapter@_W@__crt_stdio_output@@@2@@__crt_stdio_output@@AEBA_NI@Z 00000001800637d0 f i libucrtd:output.obj
 0001:00062810       ?has_flag@?$output_processor@_WV?$stream_output_adapter@_W@__crt_stdio_output@@V?$positional_parameter_base@_WV?$stream_output_adapter@_W@__crt_stdio_output@@@2@@__crt_stdio_output@@AEBA_NI@Z 0000000180063810 f i libucrtd:output.obj
 0001:00062850       ?has_flag@?$output_processor@_WV?$stream_output_adapter@_W@__crt_stdio_output@@V?$standard_base@_WV?$stream_output_adapter@_W@__crt_stdio_output@@@2@@__crt_stdio_output@@AEBA_NI@Z 0000000180063850 f i libucrtd:output.obj
 0001:00062890       ?has_flag@?$output_processor@_WV?$string_output_adapter@_W@__crt_stdio_output@@V?$format_validation_base@_WV?$string_output_adapter@_W@__crt_stdio_output@@@2@@__crt_stdio_output@@AEBA_NI@Z 0000000180063890 f i libucrtd:output.obj
 0001:000628d0       ?has_flag@?$output_processor@_WV?$string_output_adapter@_W@__crt_stdio_output@@V?$positional_parameter_base@_WV?$string_output_adapter@_W@__crt_stdio_output@@@2@@__crt_stdio_output@@AEBA_NI@Z 00000001800638d0 f i libucrtd:output.obj
 0001:00062910       ?has_flag@?$output_processor@_WV?$string_output_adapter@_W@__crt_stdio_output@@V?$standard_base@_WV?$string_output_adapter@_W@__crt_stdio_output@@@2@@__crt_stdio_output@@AEBA_NI@Z 0000000180063910 f i libucrtd:output.obj
 0001:00062950       ?is_positional_parameter_reappearance_consistent@?$positional_parameter_base@DV?$stream_output_adapter@D@__crt_stdio_output@@@__crt_stdio_output@@AEAA_NAEBUparameter_data@12@W4parameter_type@12@DW4length_modifier@2@@Z 0000000180063950 f i libucrtd:output.obj
 0001:00062bb0       ?is_positional_parameter_reappearance_consistent@?$positional_parameter_base@DV?$string_output_adapter@D@__crt_stdio_output@@@__crt_stdio_output@@AEAA_NAEBUparameter_data@12@W4parameter_type@12@DW4length_modifier@2@@Z 0000000180063bb0 f i libucrtd:output.obj
 0001:00062e10       ?is_positional_parameter_reappearance_consistent@?$positional_parameter_base@_WV?$stream_output_adapter@_W@__crt_stdio_output@@@__crt_stdio_output@@AEAA_NAEBUparameter_data@12@W4parameter_type@12@_WW4length_modifier@2@@Z 0000000180063e10 f i libucrtd:output.obj
 0001:00063070       ?is_positional_parameter_reappearance_consistent@?$positional_parameter_base@_WV?$string_output_adapter@_W@__crt_stdio_output@@@__crt_stdio_output@@AEAA_NAEBUparameter_data@12@W4parameter_type@12@_WW4length_modifier@2@@Z 0000000180064070 f i libucrtd:output.obj
 0001:000632d0       ?is_string_backed@__crt_stdio_stream@@QEBA_NXZ 00000001800642d0 f i libucrtd:output.obj
 0001:00063310       ?narrow_null_string@?$output_processor@DV?$stream_output_adapter@D@__crt_stdio_output@@V?$format_validation_base@DV?$stream_output_adapter@D@__crt_stdio_output@@@2@@__crt_stdio_output@@CAPEADXZ 0000000180064310 f i libucrtd:output.obj
 0001:00063320       ?narrow_null_string@?$output_processor@DV?$stream_output_adapter@D@__crt_stdio_output@@V?$positional_parameter_base@DV?$stream_output_adapter@D@__crt_stdio_output@@@2@@__crt_stdio_output@@CAPEADXZ 0000000180064320 f i libucrtd:output.obj
 0001:00063330       ?narrow_null_string@?$output_processor@DV?$stream_output_adapter@D@__crt_stdio_output@@V?$standard_base@DV?$stream_output_adapter@D@__crt_stdio_output@@@2@@__crt_stdio_output@@CAPEADXZ 0000000180064330 f i libucrtd:output.obj
 0001:00063340       ?narrow_null_string@?$output_processor@DV?$string_output_adapter@D@__crt_stdio_output@@V?$format_validation_base@DV?$string_output_adapter@D@__crt_stdio_output@@@2@@__crt_stdio_output@@CAPEADXZ 0000000180064340 f i libucrtd:output.obj
 0001:00063350       ?narrow_null_string@?$output_processor@DV?$string_output_adapter@D@__crt_stdio_output@@V?$positional_parameter_base@DV?$string_output_adapter@D@__crt_stdio_output@@@2@@__crt_stdio_output@@CAPEADXZ 0000000180064350 f i libucrtd:output.obj
 0001:00063360       ?narrow_null_string@?$output_processor@DV?$string_output_adapter@D@__crt_stdio_output@@V?$standard_base@DV?$string_output_adapter@D@__crt_stdio_output@@@2@@__crt_stdio_output@@CAPEADXZ 0000000180064360 f i libucrtd:output.obj
 0001:00063370       ?narrow_null_string@?$output_processor@_WV?$stream_output_adapter@_W@__crt_stdio_output@@V?$format_validation_base@_WV?$stream_output_adapter@_W@__crt_stdio_output@@@2@@__crt_stdio_output@@CAPEADXZ 0000000180064370 f i libucrtd:output.obj
 0001:00063380       ?narrow_null_string@?$output_processor@_WV?$stream_output_adapter@_W@__crt_stdio_output@@V?$positional_parameter_base@_WV?$stream_output_adapter@_W@__crt_stdio_output@@@2@@__crt_stdio_output@@CAPEADXZ 0000000180064380 f i libucrtd:output.obj
 0001:00063390       ?narrow_null_string@?$output_processor@_WV?$stream_output_adapter@_W@__crt_stdio_output@@V?$standard_base@_WV?$stream_output_adapter@_W@__crt_stdio_output@@@2@@__crt_stdio_output@@CAPEADXZ 0000000180064390 f i libucrtd:output.obj
 0001:000633a0       ?narrow_null_string@?$output_processor@_WV?$string_output_adapter@_W@__crt_stdio_output@@V?$format_validation_base@_WV?$string_output_adapter@_W@__crt_stdio_output@@@2@@__crt_stdio_output@@CAPEADXZ 00000001800643a0 f i libucrtd:output.obj
 0001:000633b0       ?narrow_null_string@?$output_processor@_WV?$string_output_adapter@_W@__crt_stdio_output@@V?$positional_parameter_base@_WV?$string_output_adapter@_W@__crt_stdio_output@@@2@@__crt_stdio_output@@CAPEADXZ 00000001800643b0 f i libucrtd:output.obj
 0001:000633c0       ?narrow_null_string@?$output_processor@_WV?$string_output_adapter@_W@__crt_stdio_output@@V?$standard_base@_WV?$string_output_adapter@_W@__crt_stdio_output@@@2@@__crt_stdio_output@@CAPEADXZ 00000001800643c0 f i libucrtd:output.obj
 0001:000633d0       ?parse_int_from_format_string@?$output_processor@DV?$stream_output_adapter@D@__crt_stdio_output@@V?$format_validation_base@DV?$stream_output_adapter@D@__crt_stdio_output@@@2@@__crt_stdio_output@@AEAA_NQEAH@Z 00000001800643d0 f i libucrtd:output.obj
 0001:000634c0       ?parse_int_from_format_string@?$output_processor@DV?$stream_output_adapter@D@__crt_stdio_output@@V?$positional_parameter_base@DV?$stream_output_adapter@D@__crt_stdio_output@@@2@@__crt_stdio_output@@AEAA_NQEAH@Z 00000001800644c0 f i libucrtd:output.obj
 0001:000635b0       ?parse_int_from_format_string@?$output_processor@DV?$stream_output_adapter@D@__crt_stdio_output@@V?$standard_base@DV?$stream_output_adapter@D@__crt_stdio_output@@@2@@__crt_stdio_output@@AEAA_NQEAH@Z 00000001800645b0 f i libucrtd:output.obj
 0001:000636a0       ?parse_int_from_format_string@?$output_processor@DV?$string_output_adapter@D@__crt_stdio_output@@V?$format_validation_base@DV?$string_output_adapter@D@__crt_stdio_output@@@2@@__crt_stdio_output@@AEAA_NQEAH@Z 00000001800646a0 f i libucrtd:output.obj
 0001:00063790       ?parse_int_from_format_string@?$output_processor@DV?$string_output_adapter@D@__crt_stdio_output@@V?$positional_parameter_base@DV?$string_output_adapter@D@__crt_stdio_output@@@2@@__crt_stdio_output@@AEAA_NQEAH@Z 0000000180064790 f i libucrtd:output.obj
 0001:00063880       ?parse_int_from_format_string@?$output_processor@DV?$string_output_adapter@D@__crt_stdio_output@@V?$standard_base@DV?$string_output_adapter@D@__crt_stdio_output@@@2@@__crt_stdio_output@@AEAA_NQEAH@Z 0000000180064880 f i libucrtd:output.obj
 0001:00063970       ?parse_int_from_format_string@?$output_processor@_WV?$stream_output_adapter@_W@__crt_stdio_output@@V?$format_validation_base@_WV?$stream_output_adapter@_W@__crt_stdio_output@@@2@@__crt_stdio_output@@AEAA_NQEAH@Z 0000000180064970 f i libucrtd:output.obj
 0001:00063a60       ?parse_int_from_format_string@?$output_processor@_WV?$stream_output_adapter@_W@__crt_stdio_output@@V?$positional_parameter_base@_WV?$stream_output_adapter@_W@__crt_stdio_output@@@2@@__crt_stdio_output@@AEAA_NQEAH@Z 0000000180064a60 f i libucrtd:output.obj
 0001:00063b50       ?parse_int_from_format_string@?$output_processor@_WV?$stream_output_adapter@_W@__crt_stdio_output@@V?$standard_base@_WV?$stream_output_adapter@_W@__crt_stdio_output@@@2@@__crt_stdio_output@@AEAA_NQEAH@Z 0000000180064b50 f i libucrtd:output.obj
 0001:00063c40       ?parse_int_from_format_string@?$output_processor@_WV?$string_output_adapter@_W@__crt_stdio_output@@V?$format_validation_base@_WV?$string_output_adapter@_W@__crt_stdio_output@@@2@@__crt_stdio_output@@AEAA_NQEAH@Z 0000000180064c40 f i libucrtd:output.obj
 0001:00063d30       ?parse_int_from_format_string@?$output_processor@_WV?$string_output_adapter@_W@__crt_stdio_output@@V?$positional_parameter_base@_WV?$string_output_adapter@_W@__crt_stdio_output@@@2@@__crt_stdio_output@@AEAA_NQEAH@Z 0000000180064d30 f i libucrtd:output.obj
 0001:00063e20       ?parse_int_from_format_string@?$output_processor@_WV?$string_output_adapter@_W@__crt_stdio_output@@V?$standard_base@_WV?$string_output_adapter@_W@__crt_stdio_output@@@2@@__crt_stdio_output@@AEAA_NQEAH@Z 0000000180064e20 f i libucrtd:output.obj
 0001:00063f10       ?process@?$output_processor@DV?$stream_output_adapter@D@__crt_stdio_output@@V?$format_validation_base@DV?$stream_output_adapter@D@__crt_stdio_output@@@2@@__crt_stdio_output@@QEAAHXZ 0000000180064f10 f i libucrtd:output.obj
 0001:00064270       ?process@?$output_processor@DV?$stream_output_adapter@D@__crt_stdio_output@@V?$positional_parameter_base@DV?$stream_output_adapter@D@__crt_stdio_output@@@2@@__crt_stdio_output@@QEAAHXZ 0000000180065270 f i libucrtd:output.obj
 0001:000645d0       ?process@?$output_processor@DV?$stream_output_adapter@D@__crt_stdio_output@@V?$standard_base@DV?$stream_output_adapter@D@__crt_stdio_output@@@2@@__crt_stdio_output@@QEAAHXZ 00000001800655d0 f i libucrtd:output.obj
 0001:00064930       ?process@?$output_processor@DV?$string_output_adapter@D@__crt_stdio_output@@V?$format_validation_base@DV?$string_output_adapter@D@__crt_stdio_output@@@2@@__crt_stdio_output@@QEAAHXZ 0000000180065930 f i libucrtd:output.obj
 0001:00064c90       ?process@?$output_processor@DV?$string_output_adapter@D@__crt_stdio_output@@V?$positional_parameter_base@DV?$string_output_adapter@D@__crt_stdio_output@@@2@@__crt_stdio_output@@QEAAHXZ 0000000180065c90 f i libucrtd:output.obj
 0001:00064ff0       ?process@?$output_processor@DV?$string_output_adapter@D@__crt_stdio_output@@V?$standard_base@DV?$string_output_adapter@D@__crt_stdio_output@@@2@@__crt_stdio_output@@QEAAHXZ 0000000180065ff0 f i libucrtd:output.obj
 0001:00065350       ?process@?$output_processor@_WV?$stream_output_adapter@_W@__crt_stdio_output@@V?$format_validation_base@_WV?$stream_output_adapter@_W@__crt_stdio_output@@@2@@__crt_stdio_output@@QEAAHXZ 0000000180066350 f i libucrtd:output.obj
 0001:000656b0       ?process@?$output_processor@_WV?$stream_output_adapter@_W@__crt_stdio_output@@V?$positional_parameter_base@_WV?$stream_output_adapter@_W@__crt_stdio_output@@@2@@__crt_stdio_output@@QEAAHXZ 00000001800666b0 f i libucrtd:output.obj
 0001:00065a10       ?process@?$output_processor@_WV?$stream_output_adapter@_W@__crt_stdio_output@@V?$standard_base@_WV?$stream_output_adapter@_W@__crt_stdio_output@@@2@@__crt_stdio_output@@QEAAHXZ 0000000180066a10 f i libucrtd:output.obj
 0001:00065d70       ?process@?$output_processor@_WV?$string_output_adapter@_W@__crt_stdio_output@@V?$format_validation_base@_WV?$string_output_adapter@_W@__crt_stdio_output@@@2@@__crt_stdio_output@@QEAAHXZ 0000000180066d70 f i libucrtd:output.obj
 0001:000660d0       ?process@?$output_processor@_WV?$string_output_adapter@_W@__crt_stdio_output@@V?$positional_parameter_base@_WV?$string_output_adapter@_W@__crt_stdio_output@@@2@@__crt_stdio_output@@QEAAHXZ 00000001800670d0 f i libucrtd:output.obj
 0001:00066430       ?process@?$output_processor@_WV?$string_output_adapter@_W@__crt_stdio_output@@V?$standard_base@_WV?$string_output_adapter@_W@__crt_stdio_output@@@2@@__crt_stdio_output@@QEAAHXZ 0000000180067430 f i libucrtd:output.obj
 0001:00066790       ?public_stream@__crt_stdio_stream@@QEBAPEAU_iobuf@@XZ 0000000180067790 f i libucrtd:output.obj
 0001:000667a0       ?set_flag@?$output_processor@DV?$stream_output_adapter@D@__crt_stdio_output@@V?$format_validation_base@DV?$stream_output_adapter@D@__crt_stdio_output@@@2@@__crt_stdio_output@@AEAAXI@Z 00000001800677a0 f i libucrtd:output.obj
 0001:000667c0       ?set_flag@?$output_processor@DV?$stream_output_adapter@D@__crt_stdio_output@@V?$positional_parameter_base@DV?$stream_output_adapter@D@__crt_stdio_output@@@2@@__crt_stdio_output@@AEAAXI@Z 00000001800677c0 f i libucrtd:output.obj
 0001:000667e0       ?set_flag@?$output_processor@DV?$stream_output_adapter@D@__crt_stdio_output@@V?$standard_base@DV?$stream_output_adapter@D@__crt_stdio_output@@@2@@__crt_stdio_output@@AEAAXI@Z 00000001800677e0 f i libucrtd:output.obj
 0001:00066800       ?set_flag@?$output_processor@DV?$string_output_adapter@D@__crt_stdio_output@@V?$format_validation_base@DV?$string_output_adapter@D@__crt_stdio_output@@@2@@__crt_stdio_output@@AEAAXI@Z 0000000180067800 f i libucrtd:output.obj
 0001:00066820       ?set_flag@?$output_processor@DV?$string_output_adapter@D@__crt_stdio_output@@V?$positional_parameter_base@DV?$string_output_adapter@D@__crt_stdio_output@@@2@@__crt_stdio_output@@AEAAXI@Z 0000000180067820 f i libucrtd:output.obj
 0001:00066840       ?set_flag@?$output_processor@DV?$string_output_adapter@D@__crt_stdio_output@@V?$standard_base@DV?$string_output_adapter@D@__crt_stdio_output@@@2@@__crt_stdio_output@@AEAAXI@Z 0000000180067840 f i libucrtd:output.obj
 0001:00066860       ?set_flag@?$output_processor@_WV?$stream_output_adapter@_W@__crt_stdio_output@@V?$format_validation_base@_WV?$stream_output_adapter@_W@__crt_stdio_output@@@2@@__crt_stdio_output@@AEAAXI@Z 0000000180067860 f i libucrtd:output.obj
 0001:00066880       ?set_flag@?$output_processor@_WV?$stream_output_adapter@_W@__crt_stdio_output@@V?$positional_parameter_base@_WV?$stream_output_adapter@_W@__crt_stdio_output@@@2@@__crt_stdio_output@@AEAAXI@Z 0000000180067880 f i libucrtd:output.obj
 0001:000668a0       ?set_flag@?$output_processor@_WV?$stream_output_adapter@_W@__crt_stdio_output@@V?$standard_base@_WV?$stream_output_adapter@_W@__crt_stdio_output@@@2@@__crt_stdio_output@@AEAAXI@Z 00000001800678a0 f i libucrtd:output.obj
 0001:000668c0       ?set_flag@?$output_processor@_WV?$string_output_adapter@_W@__crt_stdio_output@@V?$format_validation_base@_WV?$string_output_adapter@_W@__crt_stdio_output@@@2@@__crt_stdio_output@@AEAAXI@Z 00000001800678c0 f i libucrtd:output.obj
 0001:000668e0       ?set_flag@?$output_processor@_WV?$string_output_adapter@_W@__crt_stdio_output@@V?$positional_parameter_base@_WV?$string_output_adapter@_W@__crt_stdio_output@@@2@@__crt_stdio_output@@AEAAXI@Z 00000001800678e0 f i libucrtd:output.obj
 0001:00066900       ?set_flag@?$output_processor@_WV?$string_output_adapter@_W@__crt_stdio_output@@V?$standard_base@_WV?$string_output_adapter@_W@__crt_stdio_output@@@2@@__crt_stdio_output@@AEAAXI@Z 0000000180067900 f i libucrtd:output.obj
 0001:00066920       ?should_format@?$positional_parameter_base@DV?$stream_output_adapter@D@__crt_stdio_output@@@__crt_stdio_output@@IEAA_NXZ 0000000180067920 f i libucrtd:output.obj
 0001:00066960       ?should_format@?$positional_parameter_base@DV?$string_output_adapter@D@__crt_stdio_output@@@__crt_stdio_output@@IEAA_NXZ 0000000180067960 f i libucrtd:output.obj
 0001:000669a0       ?should_format@?$positional_parameter_base@_WV?$stream_output_adapter@_W@__crt_stdio_output@@@__crt_stdio_output@@IEAA_NXZ 00000001800679a0 f i libucrtd:output.obj
 0001:000669e0       ?should_format@?$positional_parameter_base@_WV?$string_output_adapter@_W@__crt_stdio_output@@@__crt_stdio_output@@IEAA_NXZ 00000001800679e0 f i libucrtd:output.obj
 0001:00066a20       ?should_format@?$standard_base@DV?$stream_output_adapter@D@__crt_stdio_output@@@__crt_stdio_output@@IEAA_NXZ 0000000180067a20 f i libucrtd:output.obj
 0001:00066a30       ?should_format@?$standard_base@DV?$string_output_adapter@D@__crt_stdio_output@@@__crt_stdio_output@@IEAA_NXZ 0000000180067a30 f i libucrtd:output.obj
 0001:00066a40       ?should_format@?$standard_base@_WV?$stream_output_adapter@_W@__crt_stdio_output@@@__crt_stdio_output@@IEAA_NXZ 0000000180067a40 f i libucrtd:output.obj
 0001:00066a50       ?should_format@?$standard_base@_WV?$string_output_adapter@_W@__crt_stdio_output@@@__crt_stdio_output@@IEAA_NXZ 0000000180067a50 f i libucrtd:output.obj
 0001:00066a60       ?should_skip_normal_state_processing@?$positional_parameter_base@DV?$stream_output_adapter@D@__crt_stdio_output@@@__crt_stdio_output@@IEAA_NXZ 0000000180067a60 f i libucrtd:output.obj
 0001:00066ab0       ?should_skip_normal_state_processing@?$positional_parameter_base@DV?$string_output_adapter@D@__crt_stdio_output@@@__crt_stdio_output@@IEAA_NXZ 0000000180067ab0 f i libucrtd:output.obj
 0001:00066b00       ?should_skip_normal_state_processing@?$positional_parameter_base@_WV?$stream_output_adapter@_W@__crt_stdio_output@@@__crt_stdio_output@@IEAA_NXZ 0000000180067b00 f i libucrtd:output.obj
 0001:00066b50       ?should_skip_normal_state_processing@?$positional_parameter_base@_WV?$string_output_adapter@_W@__crt_stdio_output@@@__crt_stdio_output@@IEAA_NXZ 0000000180067b50 f i libucrtd:output.obj
 0001:00066ba0       ?should_skip_normal_state_processing@?$standard_base@DV?$stream_output_adapter@D@__crt_stdio_output@@@__crt_stdio_output@@IEAA_NXZ 0000000180067ba0 f i libucrtd:output.obj
 0001:00066bb0       ?should_skip_normal_state_processing@?$standard_base@DV?$string_output_adapter@D@__crt_stdio_output@@@__crt_stdio_output@@IEAA_NXZ 0000000180067bb0 f i libucrtd:output.obj
 0001:00066bc0       ?should_skip_normal_state_processing@?$standard_base@_WV?$stream_output_adapter@_W@__crt_stdio_output@@@__crt_stdio_output@@IEAA_NXZ 0000000180067bc0 f i libucrtd:output.obj
 0001:00066bd0       ?should_skip_normal_state_processing@?$standard_base@_WV?$string_output_adapter@_W@__crt_stdio_output@@@__crt_stdio_output@@IEAA_NXZ 0000000180067bd0 f i libucrtd:output.obj
 0001:00066be0       ?should_skip_type_state_output@?$positional_parameter_base@DV?$stream_output_adapter@D@__crt_stdio_output@@@__crt_stdio_output@@IEBA_NXZ 0000000180067be0 f i libucrtd:output.obj
 0001:00066c20       ?should_skip_type_state_output@?$positional_parameter_base@DV?$string_output_adapter@D@__crt_stdio_output@@@__crt_stdio_output@@IEBA_NXZ 0000000180067c20 f i libucrtd:output.obj
 0001:00066c60       ?should_skip_type_state_output@?$positional_parameter_base@_WV?$stream_output_adapter@_W@__crt_stdio_output@@@__crt_stdio_output@@IEBA_NXZ 0000000180067c60 f i libucrtd:output.obj
 0001:00066ca0       ?should_skip_type_state_output@?$positional_parameter_base@_WV?$string_output_adapter@_W@__crt_stdio_output@@@__crt_stdio_output@@IEBA_NXZ 0000000180067ca0 f i libucrtd:output.obj
 0001:00066ce0       ?should_skip_type_state_output@?$standard_base@DV?$stream_output_adapter@D@__crt_stdio_output@@@__crt_stdio_output@@IEBA_NXZ 0000000180067ce0 f i libucrtd:output.obj
 0001:00066cf0       ?should_skip_type_state_output@?$standard_base@DV?$string_output_adapter@D@__crt_stdio_output@@@__crt_stdio_output@@IEBA_NXZ 0000000180067cf0 f i libucrtd:output.obj
 0001:00066d00       ?should_skip_type_state_output@?$standard_base@_WV?$stream_output_adapter@_W@__crt_stdio_output@@@__crt_stdio_output@@IEBA_NXZ 0000000180067d00 f i libucrtd:output.obj
 0001:00066d10       ?should_skip_type_state_output@?$standard_base@_WV?$string_output_adapter@_W@__crt_stdio_output@@@__crt_stdio_output@@IEBA_NXZ 0000000180067d10 f i libucrtd:output.obj
 0001:00066d20       ?state_case_dot@?$output_processor@DV?$stream_output_adapter@D@__crt_stdio_output@@V?$format_validation_base@DV?$stream_output_adapter@D@__crt_stdio_output@@@2@@__crt_stdio_output@@AEAA_NXZ 0000000180067d20 f i libucrtd:output.obj
 0001:00066d40       ?state_case_dot@?$output_processor@DV?$stream_output_adapter@D@__crt_stdio_output@@V?$positional_parameter_base@DV?$stream_output_adapter@D@__crt_stdio_output@@@2@@__crt_stdio_output@@AEAA_NXZ 0000000180067d40 f i libucrtd:output.obj
 0001:00066d60       ?state_case_dot@?$output_processor@DV?$stream_output_adapter@D@__crt_stdio_output@@V?$standard_base@DV?$stream_output_adapter@D@__crt_stdio_output@@@2@@__crt_stdio_output@@AEAA_NXZ 0000000180067d60 f i libucrtd:output.obj
 0001:00066d80       ?state_case_dot@?$output_processor@DV?$string_output_adapter@D@__crt_stdio_output@@V?$format_validation_base@DV?$string_output_adapter@D@__crt_stdio_output@@@2@@__crt_stdio_output@@AEAA_NXZ 0000000180067d80 f i libucrtd:output.obj
 0001:00066da0       ?state_case_dot@?$output_processor@DV?$string_output_adapter@D@__crt_stdio_output@@V?$positional_parameter_base@DV?$string_output_adapter@D@__crt_stdio_output@@@2@@__crt_stdio_output@@AEAA_NXZ 0000000180067da0 f i libucrtd:output.obj
 0001:00066dc0       ?state_case_dot@?$output_processor@DV?$string_output_adapter@D@__crt_stdio_output@@V?$standard_base@DV?$string_output_adapter@D@__crt_stdio_output@@@2@@__crt_stdio_output@@AEAA_NXZ 0000000180067dc0 f i libucrtd:output.obj
 0001:00066de0       ?state_case_dot@?$output_processor@_WV?$stream_output_adapter@_W@__crt_stdio_output@@V?$format_validation_base@_WV?$stream_output_adapter@_W@__crt_stdio_output@@@2@@__crt_stdio_output@@AEAA_NXZ 0000000180067de0 f i libucrtd:output.obj
 0001:00066e00       ?state_case_dot@?$output_processor@_WV?$stream_output_adapter@_W@__crt_stdio_output@@V?$positional_parameter_base@_WV?$stream_output_adapter@_W@__crt_stdio_output@@@2@@__crt_stdio_output@@AEAA_NXZ 0000000180067e00 f i libucrtd:output.obj
 0001:00066e20       ?state_case_dot@?$output_processor@_WV?$stream_output_adapter@_W@__crt_stdio_output@@V?$standard_base@_WV?$stream_output_adapter@_W@__crt_stdio_output@@@2@@__crt_stdio_output@@AEAA_NXZ 0000000180067e20 f i libucrtd:output.obj
 0001:00066e40       ?state_case_dot@?$output_processor@_WV?$string_output_adapter@_W@__crt_stdio_output@@V?$format_validation_base@_WV?$string_output_adapter@_W@__crt_stdio_output@@@2@@__crt_stdio_output@@AEAA_NXZ 0000000180067e40 f i libucrtd:output.obj
 0001:00066e60       ?state_case_dot@?$output_processor@_WV?$string_output_adapter@_W@__crt_stdio_output@@V?$positional_parameter_base@_WV?$string_output_adapter@_W@__crt_stdio_output@@@2@@__crt_stdio_output@@AEAA_NXZ 0000000180067e60 f i libucrtd:output.obj
 0001:00066e80       ?state_case_dot@?$output_processor@_WV?$string_output_adapter@_W@__crt_stdio_output@@V?$standard_base@_WV?$string_output_adapter@_W@__crt_stdio_output@@@2@@__crt_stdio_output@@AEAA_NXZ 0000000180067e80 f i libucrtd:output.obj
 0001:00066ea0       ?state_case_flag@?$output_processor@DV?$stream_output_adapter@D@__crt_stdio_output@@V?$format_validation_base@DV?$stream_output_adapter@D@__crt_stdio_output@@@2@@__crt_stdio_output@@AEAA_NXZ 0000000180067ea0 f i libucrtd:output.obj
 0001:00066f40       ?state_case_flag@?$output_processor@DV?$stream_output_adapter@D@__crt_stdio_output@@V?$positional_parameter_base@DV?$stream_output_adapter@D@__crt_stdio_output@@@2@@__crt_stdio_output@@AEAA_NXZ 0000000180067f40 f i libucrtd:output.obj
 0001:00066fe0       ?state_case_flag@?$output_processor@DV?$stream_output_adapter@D@__crt_stdio_output@@V?$standard_base@DV?$stream_output_adapter@D@__crt_stdio_output@@@2@@__crt_stdio_output@@AEAA_NXZ 0000000180067fe0 f i libucrtd:output.obj
 0001:00067080       ?state_case_flag@?$output_processor@DV?$string_output_adapter@D@__crt_stdio_output@@V?$format_validation_base@DV?$string_output_adapter@D@__crt_stdio_output@@@2@@__crt_stdio_output@@AEAA_NXZ 0000000180068080 f i libucrtd:output.obj
 0001:00067120       ?state_case_flag@?$output_processor@DV?$string_output_adapter@D@__crt_stdio_output@@V?$positional_parameter_base@DV?$string_output_adapter@D@__crt_stdio_output@@@2@@__crt_stdio_output@@AEAA_NXZ 0000000180068120 f i libucrtd:output.obj
 0001:000671c0       ?state_case_flag@?$output_processor@DV?$string_output_adapter@D@__crt_stdio_output@@V?$standard_base@DV?$string_output_adapter@D@__crt_stdio_output@@@2@@__crt_stdio_output@@AEAA_NXZ 00000001800681c0 f i libucrtd:output.obj
 0001:00067260       ?state_case_flag@?$output_processor@_WV?$stream_output_adapter@_W@__crt_stdio_output@@V?$format_validation_base@_WV?$stream_output_adapter@_W@__crt_stdio_output@@@2@@__crt_stdio_output@@AEAA_NXZ 0000000180068260 f i libucrtd:output.obj
 0001:00067300       ?state_case_flag@?$output_processor@_WV?$stream_output_adapter@_W@__crt_stdio_output@@V?$positional_parameter_base@_WV?$stream_output_adapter@_W@__crt_stdio_output@@@2@@__crt_stdio_output@@AEAA_NXZ 0000000180068300 f i libucrtd:output.obj
 0001:000673a0       ?state_case_flag@?$output_processor@_WV?$stream_output_adapter@_W@__crt_stdio_output@@V?$standard_base@_WV?$stream_output_adapter@_W@__crt_stdio_output@@@2@@__crt_stdio_output@@AEAA_NXZ 00000001800683a0 f i libucrtd:output.obj
 0001:00067440       ?state_case_flag@?$output_processor@_WV?$string_output_adapter@_W@__crt_stdio_output@@V?$format_validation_base@_WV?$string_output_adapter@_W@__crt_stdio_output@@@2@@__crt_stdio_output@@AEAA_NXZ 0000000180068440 f i libucrtd:output.obj
 0001:000674e0       ?state_case_flag@?$output_processor@_WV?$string_output_adapter@_W@__crt_stdio_output@@V?$positional_parameter_base@_WV?$string_output_adapter@_W@__crt_stdio_output@@@2@@__crt_stdio_output@@AEAA_NXZ 00000001800684e0 f i libucrtd:output.obj
 0001:00067580       ?state_case_flag@?$output_processor@_WV?$string_output_adapter@_W@__crt_stdio_output@@V?$standard_base@_WV?$string_output_adapter@_W@__crt_stdio_output@@@2@@__crt_stdio_output@@AEAA_NXZ 0000000180068580 f i libucrtd:output.obj
 0001:00067620       ?state_case_normal@?$output_processor@DV?$stream_output_adapter@D@__crt_stdio_output@@V?$format_validation_base@DV?$stream_output_adapter@D@__crt_stdio_output@@@2@@__crt_stdio_output@@AEAA_NXZ 0000000180068620 f i libucrtd:output.obj
 0001:00067700       ?state_case_normal@?$output_processor@DV?$stream_output_adapter@D@__crt_stdio_output@@V?$positional_parameter_base@DV?$stream_output_adapter@D@__crt_stdio_output@@@2@@__crt_stdio_output@@AEAA_NXZ 0000000180068700 f i libucrtd:output.obj
 0001:000677e0       ?state_case_normal@?$output_processor@DV?$stream_output_adapter@D@__crt_stdio_output@@V?$standard_base@DV?$stream_output_adapter@D@__crt_stdio_output@@@2@@__crt_stdio_output@@AEAA_NXZ 00000001800687e0 f i libucrtd:output.obj
 0001:000678c0       ?state_case_normal@?$output_processor@DV?$string_output_adapter@D@__crt_stdio_output@@V?$format_validation_base@DV?$string_output_adapter@D@__crt_stdio_output@@@2@@__crt_stdio_output@@AEAA_NXZ 00000001800688c0 f i libucrtd:output.obj
 0001:000679a0       ?state_case_normal@?$output_processor@DV?$string_output_adapter@D@__crt_stdio_output@@V?$positional_parameter_base@DV?$string_output_adapter@D@__crt_stdio_output@@@2@@__crt_stdio_output@@AEAA_NXZ 00000001800689a0 f i libucrtd:output.obj
 0001:00067a80       ?state_case_normal@?$output_processor@DV?$string_output_adapter@D@__crt_stdio_output@@V?$standard_base@DV?$string_output_adapter@D@__crt_stdio_output@@@2@@__crt_stdio_output@@AEAA_NXZ 0000000180068a80 f i libucrtd:output.obj
 0001:00067b60       ?state_case_normal@?$output_processor@_WV?$stream_output_adapter@_W@__crt_stdio_output@@V?$format_validation_base@_WV?$stream_output_adapter@_W@__crt_stdio_output@@@2@@__crt_stdio_output@@AEAA_NXZ 0000000180068b60 f i libucrtd:output.obj
 0001:00067c40       ?state_case_normal@?$output_processor@_WV?$stream_output_adapter@_W@__crt_stdio_output@@V?$positional_parameter_base@_WV?$stream_output_adapter@_W@__crt_stdio_output@@@2@@__crt_stdio_output@@AEAA_NXZ 0000000180068c40 f i libucrtd:output.obj
 0001:00067d20       ?state_case_normal@?$output_processor@_WV?$stream_output_adapter@_W@__crt_stdio_output@@V?$standard_base@_WV?$stream_output_adapter@_W@__crt_stdio_output@@@2@@__crt_stdio_output@@AEAA_NXZ 0000000180068d20 f i libucrtd:output.obj
 0001:00067e00       ?state_case_normal@?$output_processor@_WV?$string_output_adapter@_W@__crt_stdio_output@@V?$format_validation_base@_WV?$string_output_adapter@_W@__crt_stdio_output@@@2@@__crt_stdio_output@@AEAA_NXZ 0000000180068e00 f i libucrtd:output.obj
 0001:00067ee0       ?state_case_normal@?$output_processor@_WV?$string_output_adapter@_W@__crt_stdio_output@@V?$positional_parameter_base@_WV?$string_output_adapter@_W@__crt_stdio_output@@@2@@__crt_stdio_output@@AEAA_NXZ 0000000180068ee0 f i libucrtd:output.obj
 0001:00067fc0       ?state_case_normal@?$output_processor@_WV?$string_output_adapter@_W@__crt_stdio_output@@V?$standard_base@_WV?$string_output_adapter@_W@__crt_stdio_output@@@2@@__crt_stdio_output@@AEAA_NXZ 0000000180068fc0 f i libucrtd:output.obj
 0001:000680a0       ?state_case_normal_common@?$output_processor@DV?$stream_output_adapter@D@__crt_stdio_output@@V?$format_validation_base@DV?$stream_output_adapter@D@__crt_stdio_output@@@2@@__crt_stdio_output@@AEAA_NXZ 00000001800690a0 f i libucrtd:output.obj
 0001:000680f0       ?state_case_normal_common@?$output_processor@DV?$stream_output_adapter@D@__crt_stdio_output@@V?$positional_parameter_base@DV?$stream_output_adapter@D@__crt_stdio_output@@@2@@__crt_stdio_output@@AEAA_NXZ 00000001800690f0 f i libucrtd:output.obj
 0001:00068140       ?state_case_normal_common@?$output_processor@DV?$stream_output_adapter@D@__crt_stdio_output@@V?$standard_base@DV?$stream_output_adapter@D@__crt_stdio_output@@@2@@__crt_stdio_output@@AEAA_NXZ 0000000180069140 f i libucrtd:output.obj
 0001:00068190       ?state_case_normal_common@?$output_processor@DV?$string_output_adapter@D@__crt_stdio_output@@V?$format_validation_base@DV?$string_output_adapter@D@__crt_stdio_output@@@2@@__crt_stdio_output@@AEAA_NXZ 0000000180069190 f i libucrtd:output.obj
 0001:000681e0       ?state_case_normal_common@?$output_processor@DV?$string_output_adapter@D@__crt_stdio_output@@V?$positional_parameter_base@DV?$string_output_adapter@D@__crt_stdio_output@@@2@@__crt_stdio_output@@AEAA_NXZ 00000001800691e0 f i libucrtd:output.obj
 0001:00068230       ?state_case_normal_common@?$output_processor@DV?$string_output_adapter@D@__crt_stdio_output@@V?$standard_base@DV?$string_output_adapter@D@__crt_stdio_output@@@2@@__crt_stdio_output@@AEAA_NXZ 0000000180069230 f i libucrtd:output.obj
 0001:00068280       ?state_case_normal_common@?$output_processor@_WV?$stream_output_adapter@_W@__crt_stdio_output@@V?$format_validation_base@_WV?$stream_output_adapter@_W@__crt_stdio_output@@@2@@__crt_stdio_output@@AEAA_NXZ 0000000180069280 f i libucrtd:output.obj
 0001:000682d0       ?state_case_normal_common@?$output_processor@_WV?$stream_output_adapter@_W@__crt_stdio_output@@V?$positional_parameter_base@_WV?$stream_output_adapter@_W@__crt_stdio_output@@@2@@__crt_stdio_output@@AEAA_NXZ 00000001800692d0 f i libucrtd:output.obj
 0001:00068320       ?state_case_normal_common@?$output_processor@_WV?$stream_output_adapter@_W@__crt_stdio_output@@V?$standard_base@_WV?$stream_output_adapter@_W@__crt_stdio_output@@@2@@__crt_stdio_output@@AEAA_NXZ 0000000180069320 f i libucrtd:output.obj
 0001:00068370       ?state_case_normal_common@?$output_processor@_WV?$string_output_adapter@_W@__crt_stdio_output@@V?$format_validation_base@_WV?$string_output_adapter@_W@__crt_stdio_output@@@2@@__crt_stdio_output@@AEAA_NXZ 0000000180069370 f i libucrtd:output.obj
 0001:000683c0       ?state_case_normal_common@?$output_processor@_WV?$string_output_adapter@_W@__crt_stdio_output@@V?$positional_parameter_base@_WV?$string_output_adapter@_W@__crt_stdio_output@@@2@@__crt_stdio_output@@AEAA_NXZ 00000001800693c0 f i libucrtd:output.obj
 0001:00068410       ?state_case_normal_common@?$output_processor@_WV?$string_output_adapter@_W@__crt_stdio_output@@V?$standard_base@_WV?$string_output_adapter@_W@__crt_stdio_output@@@2@@__crt_stdio_output@@AEAA_NXZ 0000000180069410 f i libucrtd:output.obj
 0001:00068460       ?state_case_normal_tchar@?$output_processor@DV?$stream_output_adapter@D@__crt_stdio_output@@V?$format_validation_base@DV?$stream_output_adapter@D@__crt_stdio_output@@@2@@__crt_stdio_output@@AEAA_ND@Z 0000000180069460 f i libucrtd:output.obj
 0001:000685a0       ?state_case_normal_tchar@?$output_processor@DV?$stream_output_adapter@D@__crt_stdio_output@@V?$positional_parameter_base@DV?$stream_output_adapter@D@__crt_stdio_output@@@2@@__crt_stdio_output@@AEAA_ND@Z 00000001800695a0 f i libucrtd:output.obj
 0001:000686e0       ?state_case_normal_tchar@?$output_processor@DV?$stream_output_adapter@D@__crt_stdio_output@@V?$standard_base@DV?$stream_output_adapter@D@__crt_stdio_output@@@2@@__crt_stdio_output@@AEAA_ND@Z 00000001800696e0 f i libucrtd:output.obj
 0001:00068820       ?state_case_normal_tchar@?$output_processor@DV?$string_output_adapter@D@__crt_stdio_output@@V?$format_validation_base@DV?$string_output_adapter@D@__crt_stdio_output@@@2@@__crt_stdio_output@@AEAA_ND@Z 0000000180069820 f i libucrtd:output.obj
 0001:00068960       ?state_case_normal_tchar@?$output_processor@DV?$string_output_adapter@D@__crt_stdio_output@@V?$positional_parameter_base@DV?$string_output_adapter@D@__crt_stdio_output@@@2@@__crt_stdio_output@@AEAA_ND@Z 0000000180069960 f i libucrtd:output.obj
 0001:00068aa0       ?state_case_normal_tchar@?$output_processor@DV?$string_output_adapter@D@__crt_stdio_output@@V?$standard_base@DV?$string_output_adapter@D@__crt_stdio_output@@@2@@__crt_stdio_output@@AEAA_ND@Z 0000000180069aa0 f i libucrtd:output.obj
 0001:00068be0       ?state_case_normal_tchar@?$output_processor@_WV?$stream_output_adapter@_W@__crt_stdio_output@@V?$format_validation_base@_WV?$stream_output_adapter@_W@__crt_stdio_output@@@2@@__crt_stdio_output@@AEAA_N_W@Z 0000000180069be0 f i libucrtd:output.obj
 0001:00068c00       ?state_case_normal_tchar@?$output_processor@_WV?$stream_output_adapter@_W@__crt_stdio_output@@V?$positional_parameter_base@_WV?$stream_output_adapter@_W@__crt_stdio_output@@@2@@__crt_stdio_output@@AEAA_N_W@Z 0000000180069c00 f i libucrtd:output.obj
 0001:00068c20       ?state_case_normal_tchar@?$output_processor@_WV?$stream_output_adapter@_W@__crt_stdio_output@@V?$standard_base@_WV?$stream_output_adapter@_W@__crt_stdio_output@@@2@@__crt_stdio_output@@AEAA_N_W@Z 0000000180069c20 f i libucrtd:output.obj
 0001:00068c40       ?state_case_normal_tchar@?$output_processor@_WV?$string_output_adapter@_W@__crt_stdio_output@@V?$format_validation_base@_WV?$string_output_adapter@_W@__crt_stdio_output@@@2@@__crt_stdio_output@@AEAA_N_W@Z 0000000180069c40 f i libucrtd:output.obj
 0001:00068c60       ?state_case_normal_tchar@?$output_processor@_WV?$string_output_adapter@_W@__crt_stdio_output@@V?$positional_parameter_base@_WV?$string_output_adapter@_W@__crt_stdio_output@@@2@@__crt_stdio_output@@AEAA_N_W@Z 0000000180069c60 f i libucrtd:output.obj
 0001:00068c80       ?state_case_normal_tchar@?$output_processor@_WV?$string_output_adapter@_W@__crt_stdio_output@@V?$standard_base@_WV?$string_output_adapter@_W@__crt_stdio_output@@@2@@__crt_stdio_output@@AEAA_N_W@Z 0000000180069c80 f i libucrtd:output.obj
 0001:00068ca0       ?state_case_percent@?$output_processor@DV?$stream_output_adapter@D@__crt_stdio_output@@V?$format_validation_base@DV?$stream_output_adapter@D@__crt_stdio_output@@@2@@__crt_stdio_output@@AEAA_NXZ 0000000180069ca0 f i libucrtd:output.obj
 0001:00068cf0       ?state_case_percent@?$output_processor@DV?$stream_output_adapter@D@__crt_stdio_output@@V?$positional_parameter_base@DV?$stream_output_adapter@D@__crt_stdio_output@@@2@@__crt_stdio_output@@AEAA_NXZ 0000000180069cf0 f i libucrtd:output.obj
 0001:00068d40       ?state_case_percent@?$output_processor@DV?$stream_output_adapter@D@__crt_stdio_output@@V?$standard_base@DV?$stream_output_adapter@D@__crt_stdio_output@@@2@@__crt_stdio_output@@AEAA_NXZ 0000000180069d40 f i libucrtd:output.obj
 0001:00068d90       ?state_case_percent@?$output_processor@DV?$string_output_adapter@D@__crt_stdio_output@@V?$format_validation_base@DV?$string_output_adapter@D@__crt_stdio_output@@@2@@__crt_stdio_output@@AEAA_NXZ 0000000180069d90 f i libucrtd:output.obj
 0001:00068de0       ?state_case_percent@?$output_processor@DV?$string_output_adapter@D@__crt_stdio_output@@V?$positional_parameter_base@DV?$string_output_adapter@D@__crt_stdio_output@@@2@@__crt_stdio_output@@AEAA_NXZ 0000000180069de0 f i libucrtd:output.obj
 0001:00068e30       ?state_case_percent@?$output_processor@DV?$string_output_adapter@D@__crt_stdio_output@@V?$standard_base@DV?$string_output_adapter@D@__crt_stdio_output@@@2@@__crt_stdio_output@@AEAA_NXZ 0000000180069e30 f i libucrtd:output.obj
 0001:00068e80       ?state_case_percent@?$output_processor@_WV?$stream_output_adapter@_W@__crt_stdio_output@@V?$format_validation_base@_WV?$stream_output_adapter@_W@__crt_stdio_output@@@2@@__crt_stdio_output@@AEAA_NXZ 0000000180069e80 f i libucrtd:output.obj
 0001:00068ed0       ?state_case_percent@?$output_processor@_WV?$stream_output_adapter@_W@__crt_stdio_output@@V?$positional_parameter_base@_WV?$stream_output_adapter@_W@__crt_stdio_output@@@2@@__crt_stdio_output@@AEAA_NXZ 0000000180069ed0 f i libucrtd:output.obj
 0001:00068f20       ?state_case_percent@?$output_processor@_WV?$stream_output_adapter@_W@__crt_stdio_output@@V?$standard_base@_WV?$stream_output_adapter@_W@__crt_stdio_output@@@2@@__crt_stdio_output@@AEAA_NXZ 0000000180069f20 f i libucrtd:output.obj
 0001:00068f70       ?state_case_percent@?$output_processor@_WV?$string_output_adapter@_W@__crt_stdio_output@@V?$format_validation_base@_WV?$string_output_adapter@_W@__crt_stdio_output@@@2@@__crt_stdio_output@@AEAA_NXZ 0000000180069f70 f i libucrtd:output.obj
 0001:00068fc0       ?state_case_percent@?$output_processor@_WV?$string_output_adapter@_W@__crt_stdio_output@@V?$positional_parameter_base@_WV?$string_output_adapter@_W@__crt_stdio_output@@@2@@__crt_stdio_output@@AEAA_NXZ 0000000180069fc0 f i libucrtd:output.obj
 0001:00069010       ?state_case_percent@?$output_processor@_WV?$string_output_adapter@_W@__crt_stdio_output@@V?$standard_base@_WV?$string_output_adapter@_W@__crt_stdio_output@@@2@@__crt_stdio_output@@AEAA_NXZ 000000018006a010 f i libucrtd:output.obj
 0001:00069060       ?state_case_precision@?$output_processor@DV?$stream_output_adapter@D@__crt_stdio_output@@V?$format_validation_base@DV?$stream_output_adapter@D@__crt_stdio_output@@@2@@__crt_stdio_output@@AEAA_NXZ 000000018006a060 f i libucrtd:output.obj
 0001:000690e0       ?state_case_precision@?$output_processor@DV?$stream_output_adapter@D@__crt_stdio_output@@V?$positional_parameter_base@DV?$stream_output_adapter@D@__crt_stdio_output@@@2@@__crt_stdio_output@@AEAA_NXZ 000000018006a0e0 f i libucrtd:output.obj
 0001:00069160       ?state_case_precision@?$output_processor@DV?$stream_output_adapter@D@__crt_stdio_output@@V?$standard_base@DV?$stream_output_adapter@D@__crt_stdio_output@@@2@@__crt_stdio_output@@AEAA_NXZ 000000018006a160 f i libucrtd:output.obj
 0001:000691e0       ?state_case_precision@?$output_processor@DV?$string_output_adapter@D@__crt_stdio_output@@V?$format_validation_base@DV?$string_output_adapter@D@__crt_stdio_output@@@2@@__crt_stdio_output@@AEAA_NXZ 000000018006a1e0 f i libucrtd:output.obj
 0001:00069260       ?state_case_precision@?$output_processor@DV?$string_output_adapter@D@__crt_stdio_output@@V?$positional_parameter_base@DV?$string_output_adapter@D@__crt_stdio_output@@@2@@__crt_stdio_output@@AEAA_NXZ 000000018006a260 f i libucrtd:output.obj
 0001:000692e0       ?state_case_precision@?$output_processor@DV?$string_output_adapter@D@__crt_stdio_output@@V?$standard_base@DV?$string_output_adapter@D@__crt_stdio_output@@@2@@__crt_stdio_output@@AEAA_NXZ 000000018006a2e0 f i libucrtd:output.obj
 0001:00069360       ?state_case_precision@?$output_processor@_WV?$stream_output_adapter@_W@__crt_stdio_output@@V?$format_validation_base@_WV?$stream_output_adapter@_W@__crt_stdio_output@@@2@@__crt_stdio_output@@AEAA_NXZ 000000018006a360 f i libucrtd:output.obj
 0001:000693e0       ?state_case_precision@?$output_processor@_WV?$stream_output_adapter@_W@__crt_stdio_output@@V?$positional_parameter_base@_WV?$stream_output_adapter@_W@__crt_stdio_output@@@2@@__crt_stdio_output@@AEAA_NXZ 000000018006a3e0 f i libucrtd:output.obj
 0001:00069460       ?state_case_precision@?$output_processor@_WV?$stream_output_adapter@_W@__crt_stdio_output@@V?$standard_base@_WV?$stream_output_adapter@_W@__crt_stdio_output@@@2@@__crt_stdio_output@@AEAA_NXZ 000000018006a460 f i libucrtd:output.obj
 0001:000694e0       ?state_case_precision@?$output_processor@_WV?$string_output_adapter@_W@__crt_stdio_output@@V?$format_validation_base@_WV?$string_output_adapter@_W@__crt_stdio_output@@@2@@__crt_stdio_output@@AEAA_NXZ 000000018006a4e0 f i libucrtd:output.obj
 0001:00069560       ?state_case_precision@?$output_processor@_WV?$string_output_adapter@_W@__crt_stdio_output@@V?$positional_parameter_base@_WV?$string_output_adapter@_W@__crt_stdio_output@@@2@@__crt_stdio_output@@AEAA_NXZ 000000018006a560 f i libucrtd:output.obj
 0001:000695e0       ?state_case_precision@?$output_processor@_WV?$string_output_adapter@_W@__crt_stdio_output@@V?$standard_base@_WV?$string_output_adapter@_W@__crt_stdio_output@@@2@@__crt_stdio_output@@AEAA_NXZ 000000018006a5e0 f i libucrtd:output.obj
 0001:00069660       ?state_case_size@?$output_processor@DV?$stream_output_adapter@D@__crt_stdio_output@@V?$format_validation_base@DV?$stream_output_adapter@D@__crt_stdio_output@@@2@@__crt_stdio_output@@AEAA_NXZ 000000018006a660 f i libucrtd:output.obj
 0001:00069ae0       ?state_case_size@?$output_processor@DV?$stream_output_adapter@D@__crt_stdio_output@@V?$positional_parameter_base@DV?$stream_output_adapter@D@__crt_stdio_output@@@2@@__crt_stdio_output@@AEAA_NXZ 000000018006aae0 f i libucrtd:output.obj
 0001:00069f60       ?state_case_size@?$output_processor@DV?$stream_output_adapter@D@__crt_stdio_output@@V?$standard_base@DV?$stream_output_adapter@D@__crt_stdio_output@@@2@@__crt_stdio_output@@AEAA_NXZ 000000018006af60 f i libucrtd:output.obj
 0001:0006a3e0       ?state_case_size@?$output_processor@DV?$string_output_adapter@D@__crt_stdio_output@@V?$format_validation_base@DV?$string_output_adapter@D@__crt_stdio_output@@@2@@__crt_stdio_output@@AEAA_NXZ 000000018006b3e0 f i libucrtd:output.obj
 0001:0006a860       ?state_case_size@?$output_processor@DV?$string_output_adapter@D@__crt_stdio_output@@V?$positional_parameter_base@DV?$string_output_adapter@D@__crt_stdio_output@@@2@@__crt_stdio_output@@AEAA_NXZ 000000018006b860 f i libucrtd:output.obj
 0001:0006ace0       ?state_case_size@?$output_processor@DV?$string_output_adapter@D@__crt_stdio_output@@V?$standard_base@DV?$string_output_adapter@D@__crt_stdio_output@@@2@@__crt_stdio_output@@AEAA_NXZ 000000018006bce0 f i libucrtd:output.obj
 0001:0006b160       ?state_case_size@?$output_processor@_WV?$stream_output_adapter@_W@__crt_stdio_output@@V?$format_validation_base@_WV?$stream_output_adapter@_W@__crt_stdio_output@@@2@@__crt_stdio_output@@AEAA_NXZ 000000018006c160 f i libucrtd:output.obj
 0001:0006b5e0       ?state_case_size@?$output_processor@_WV?$stream_output_adapter@_W@__crt_stdio_output@@V?$positional_parameter_base@_WV?$stream_output_adapter@_W@__crt_stdio_output@@@2@@__crt_stdio_output@@AEAA_NXZ 000000018006c5e0 f i libucrtd:output.obj
 0001:0006ba60       ?state_case_size@?$output_processor@_WV?$stream_output_adapter@_W@__crt_stdio_output@@V?$standard_base@_WV?$stream_output_adapter@_W@__crt_stdio_output@@@2@@__crt_stdio_output@@AEAA_NXZ 000000018006ca60 f i libucrtd:output.obj
 0001:0006bee0       ?state_case_size@?$output_processor@_WV?$string_output_adapter@_W@__crt_stdio_output@@V?$format_validation_base@_WV?$string_output_adapter@_W@__crt_stdio_output@@@2@@__crt_stdio_output@@AEAA_NXZ 000000018006cee0 f i libucrtd:output.obj
 0001:0006c360       ?state_case_size@?$output_processor@_WV?$string_output_adapter@_W@__crt_stdio_output@@V?$positional_parameter_base@_WV?$string_output_adapter@_W@__crt_stdio_output@@@2@@__crt_stdio_output@@AEAA_NXZ 000000018006d360 f i libucrtd:output.obj
 0001:0006c7e0       ?state_case_size@?$output_processor@_WV?$string_output_adapter@_W@__crt_stdio_output@@V?$standard_base@_WV?$string_output_adapter@_W@__crt_stdio_output@@@2@@__crt_stdio_output@@AEAA_NXZ 000000018006d7e0 f i libucrtd:output.obj
 0001:0006cc60       ?state_case_type@?$output_processor@DV?$stream_output_adapter@D@__crt_stdio_output@@V?$format_validation_base@DV?$stream_output_adapter@D@__crt_stdio_output@@@2@@__crt_stdio_output@@AEAA_NXZ 000000018006dc60 f i libucrtd:output.obj
 0001:0006d100       ?state_case_type@?$output_processor@DV?$stream_output_adapter@D@__crt_stdio_output@@V?$positional_parameter_base@DV?$stream_output_adapter@D@__crt_stdio_output@@@2@@__crt_stdio_output@@AEAA_NXZ 000000018006e100 f i libucrtd:output.obj
 0001:0006d5a0       ?state_case_type@?$output_processor@DV?$stream_output_adapter@D@__crt_stdio_output@@V?$standard_base@DV?$stream_output_adapter@D@__crt_stdio_output@@@2@@__crt_stdio_output@@AEAA_NXZ 000000018006e5a0 f i libucrtd:output.obj
 0001:0006da40       ?state_case_type@?$output_processor@DV?$string_output_adapter@D@__crt_stdio_output@@V?$format_validation_base@DV?$string_output_adapter@D@__crt_stdio_output@@@2@@__crt_stdio_output@@AEAA_NXZ 000000018006ea40 f i libucrtd:output.obj
 0001:0006dee0       ?state_case_type@?$output_processor@DV?$string_output_adapter@D@__crt_stdio_output@@V?$positional_parameter_base@DV?$string_output_adapter@D@__crt_stdio_output@@@2@@__crt_stdio_output@@AEAA_NXZ 000000018006eee0 f i libucrtd:output.obj
 0001:0006e380       ?state_case_type@?$output_processor@DV?$string_output_adapter@D@__crt_stdio_output@@V?$standard_base@DV?$string_output_adapter@D@__crt_stdio_output@@@2@@__crt_stdio_output@@AEAA_NXZ 000000018006f380 f i libucrtd:output.obj
 0001:0006e820       ?state_case_type@?$output_processor@_WV?$stream_output_adapter@_W@__crt_stdio_output@@V?$format_validation_base@_WV?$stream_output_adapter@_W@__crt_stdio_output@@@2@@__crt_stdio_output@@AEAA_NXZ 000000018006f820 f i libucrtd:output.obj
 0001:0006ed80       ?state_case_type@?$output_processor@_WV?$stream_output_adapter@_W@__crt_stdio_output@@V?$positional_parameter_base@_WV?$stream_output_adapter@_W@__crt_stdio_output@@@2@@__crt_stdio_output@@AEAA_NXZ 000000018006fd80 f i libucrtd:output.obj
 0001:0006f2e0       ?state_case_type@?$output_processor@_WV?$stream_output_adapter@_W@__crt_stdio_output@@V?$standard_base@_WV?$stream_output_adapter@_W@__crt_stdio_output@@@2@@__crt_stdio_output@@AEAA_NXZ 00000001800702e0 f i libucrtd:output.obj
 0001:0006f840       ?state_case_type@?$output_processor@_WV?$string_output_adapter@_W@__crt_stdio_output@@V?$format_validation_base@_WV?$string_output_adapter@_W@__crt_stdio_output@@@2@@__crt_stdio_output@@AEAA_NXZ 0000000180070840 f i libucrtd:output.obj
 0001:0006fda0       ?state_case_type@?$output_processor@_WV?$string_output_adapter@_W@__crt_stdio_output@@V?$positional_parameter_base@_WV?$string_output_adapter@_W@__crt_stdio_output@@@2@@__crt_stdio_output@@AEAA_NXZ 0000000180070da0 f i libucrtd:output.obj
 0001:00070300       ?state_case_type@?$output_processor@_WV?$string_output_adapter@_W@__crt_stdio_output@@V?$standard_base@_WV?$string_output_adapter@_W@__crt_stdio_output@@@2@@__crt_stdio_output@@AEAA_NXZ 0000000180071300 f i libucrtd:output.obj
 0001:00070860       ?state_case_width@?$output_processor@DV?$stream_output_adapter@D@__crt_stdio_output@@V?$format_validation_base@DV?$stream_output_adapter@D@__crt_stdio_output@@@2@@__crt_stdio_output@@AEAA_NXZ 0000000180071860 f i libucrtd:output.obj
 0001:000708f0       ?state_case_width@?$output_processor@DV?$stream_output_adapter@D@__crt_stdio_output@@V?$positional_parameter_base@DV?$stream_output_adapter@D@__crt_stdio_output@@@2@@__crt_stdio_output@@AEAA_NXZ 00000001800718f0 f i libucrtd:output.obj
 0001:00070980       ?state_case_width@?$output_processor@DV?$stream_output_adapter@D@__crt_stdio_output@@V?$standard_base@DV?$stream_output_adapter@D@__crt_stdio_output@@@2@@__crt_stdio_output@@AEAA_NXZ 0000000180071980 f i libucrtd:output.obj
 0001:00070a10       ?state_case_width@?$output_processor@DV?$string_output_adapter@D@__crt_stdio_output@@V?$format_validation_base@DV?$string_output_adapter@D@__crt_stdio_output@@@2@@__crt_stdio_output@@AEAA_NXZ 0000000180071a10 f i libucrtd:output.obj
 0001:00070aa0       ?state_case_width@?$output_processor@DV?$string_output_adapter@D@__crt_stdio_output@@V?$positional_parameter_base@DV?$string_output_adapter@D@__crt_stdio_output@@@2@@__crt_stdio_output@@AEAA_NXZ 0000000180071aa0 f i libucrtd:output.obj
 0001:00070b30       ?state_case_width@?$output_processor@DV?$string_output_adapter@D@__crt_stdio_output@@V?$standard_base@DV?$string_output_adapter@D@__crt_stdio_output@@@2@@__crt_stdio_output@@AEAA_NXZ 0000000180071b30 f i libucrtd:output.obj
 0001:00070bc0       ?state_case_width@?$output_processor@_WV?$stream_output_adapter@_W@__crt_stdio_output@@V?$format_validation_base@_WV?$stream_output_adapter@_W@__crt_stdio_output@@@2@@__crt_stdio_output@@AEAA_NXZ 0000000180071bc0 f i libucrtd:output.obj
 0001:00070c50       ?state_case_width@?$output_processor@_WV?$stream_output_adapter@_W@__crt_stdio_output@@V?$positional_parameter_base@_WV?$stream_output_adapter@_W@__crt_stdio_output@@@2@@__crt_stdio_output@@AEAA_NXZ 0000000180071c50 f i libucrtd:output.obj
 0001:00070ce0       ?state_case_width@?$output_processor@_WV?$stream_output_adapter@_W@__crt_stdio_output@@V?$standard_base@_WV?$stream_output_adapter@_W@__crt_stdio_output@@@2@@__crt_stdio_output@@AEAA_NXZ 0000000180071ce0 f i libucrtd:output.obj
 0001:00070d70       ?state_case_width@?$output_processor@_WV?$string_output_adapter@_W@__crt_stdio_output@@V?$format_validation_base@_WV?$string_output_adapter@_W@__crt_stdio_output@@@2@@__crt_stdio_output@@AEAA_NXZ 0000000180071d70 f i libucrtd:output.obj
 0001:00070e00       ?state_case_width@?$output_processor@_WV?$string_output_adapter@_W@__crt_stdio_output@@V?$positional_parameter_base@_WV?$string_output_adapter@_W@__crt_stdio_output@@@2@@__crt_stdio_output@@AEAA_NXZ 0000000180071e00 f i libucrtd:output.obj
 0001:00070e90       ?state_case_width@?$output_processor@_WV?$string_output_adapter@_W@__crt_stdio_output@@V?$standard_base@_WV?$string_output_adapter@_W@__crt_stdio_output@@@2@@__crt_stdio_output@@AEAA_NXZ 0000000180071e90 f i libucrtd:output.obj
 0001:00070f20       ?state_count@?$format_validation_base@DV?$stream_output_adapter@D@__crt_stdio_output@@@__crt_stdio_output@@KAIXZ 0000000180071f20 f i libucrtd:output.obj
 0001:00070f30       ?state_count@?$format_validation_base@DV?$string_output_adapter@D@__crt_stdio_output@@@__crt_stdio_output@@KAIXZ 0000000180071f30 f i libucrtd:output.obj
 0001:00070f40       ?state_count@?$format_validation_base@_WV?$stream_output_adapter@_W@__crt_stdio_output@@@__crt_stdio_output@@KAIXZ 0000000180071f40 f i libucrtd:output.obj
 0001:00070f50       ?state_count@?$format_validation_base@_WV?$string_output_adapter@_W@__crt_stdio_output@@@__crt_stdio_output@@KAIXZ 0000000180071f50 f i libucrtd:output.obj
 0001:00070f60       ?state_count@?$standard_base@DV?$stream_output_adapter@D@__crt_stdio_output@@@__crt_stdio_output@@KAIXZ 0000000180071f60 f i libucrtd:output.obj
 0001:00070f70       ?state_count@?$standard_base@DV?$string_output_adapter@D@__crt_stdio_output@@@__crt_stdio_output@@KAIXZ 0000000180071f70 f i libucrtd:output.obj
 0001:00070f80       ?state_count@?$standard_base@_WV?$stream_output_adapter@_W@__crt_stdio_output@@@__crt_stdio_output@@KAIXZ 0000000180071f80 f i libucrtd:output.obj
 0001:00070f90       ?state_count@?$standard_base@_WV?$string_output_adapter@_W@__crt_stdio_output@@@__crt_stdio_output@@KAIXZ 0000000180071f90 f i libucrtd:output.obj
 0001:00070fa0       ?state_transition_table@?$format_validation_base@DV?$stream_output_adapter@D@__crt_stdio_output@@@__crt_stdio_output@@KAPEBEXZ 0000000180071fa0 f i libucrtd:output.obj
 0001:00070fb0       ?state_transition_table@?$format_validation_base@DV?$string_output_adapter@D@__crt_stdio_output@@@__crt_stdio_output@@KAPEBEXZ 0000000180071fb0 f i libucrtd:output.obj
 0001:00070fc0       ?state_transition_table@?$format_validation_base@_WV?$stream_output_adapter@_W@__crt_stdio_output@@@__crt_stdio_output@@KAPEBEXZ 0000000180071fc0 f i libucrtd:output.obj
 0001:00070fd0       ?state_transition_table@?$format_validation_base@_WV?$string_output_adapter@_W@__crt_stdio_output@@@__crt_stdio_output@@KAPEBEXZ 0000000180071fd0 f i libucrtd:output.obj
 0001:00070fe0       ?state_transition_table@?$standard_base@DV?$stream_output_adapter@D@__crt_stdio_output@@@__crt_stdio_output@@KAPEBEXZ 0000000180071fe0 f i libucrtd:output.obj
 0001:00070ff0       ?state_transition_table@?$standard_base@DV?$string_output_adapter@D@__crt_stdio_output@@@__crt_stdio_output@@KAPEBEXZ 0000000180071ff0 f i libucrtd:output.obj
 0001:00071000       ?state_transition_table@?$standard_base@_WV?$stream_output_adapter@_W@__crt_stdio_output@@@__crt_stdio_output@@KAPEBEXZ 0000000180072000 f i libucrtd:output.obj
 0001:00071010       ?state_transition_table@?$standard_base@_WV?$string_output_adapter@_W@__crt_stdio_output@@@__crt_stdio_output@@KAPEBEXZ 0000000180072010 f i libucrtd:output.obj
 0001:00071020       ?tchar_string@?$common_data@D@__crt_stdio_output@@IEAAAEAPEADD@Z 0000000180072020 f i libucrtd:output.obj
 0001:00071040       ?tchar_string@?$common_data@D@__crt_stdio_output@@IEAAAEAPEADXZ 0000000180072040 f i libucrtd:output.obj
 0001:00071060       ?tchar_string@?$common_data@_W@__crt_stdio_output@@IEAAAEAPEA_WXZ 0000000180072060 f i libucrtd:output.obj
 0001:00071080       ?tchar_string@?$common_data@_W@__crt_stdio_output@@IEAAAEAPEA_W_W@Z 0000000180072080 f i libucrtd:output.obj
 0001:000710a0       ?to_integer_size@__crt_stdio_output@@YA_KW4length_modifier@1@@Z 00000001800720a0 f i libucrtd:output.obj
 0001:00071150       ?type_case_X@?$output_processor@DV?$stream_output_adapter@D@__crt_stdio_output@@V?$format_validation_base@DV?$stream_output_adapter@D@__crt_stdio_output@@@2@@__crt_stdio_output@@AEAA_NXZ 0000000180072150 f i libucrtd:output.obj
 0001:00071170       ?type_case_X@?$output_processor@DV?$stream_output_adapter@D@__crt_stdio_output@@V?$positional_parameter_base@DV?$stream_output_adapter@D@__crt_stdio_output@@@2@@__crt_stdio_output@@AEAA_NXZ 0000000180072170 f i libucrtd:output.obj
 0001:00071190       ?type_case_X@?$output_processor@DV?$stream_output_adapter@D@__crt_stdio_output@@V?$standard_base@DV?$stream_output_adapter@D@__crt_stdio_output@@@2@@__crt_stdio_output@@AEAA_NXZ 0000000180072190 f i libucrtd:output.obj
 0001:000711b0       ?type_case_X@?$output_processor@DV?$string_output_adapter@D@__crt_stdio_output@@V?$format_validation_base@DV?$string_output_adapter@D@__crt_stdio_output@@@2@@__crt_stdio_output@@AEAA_NXZ 00000001800721b0 f i libucrtd:output.obj
 0001:000711d0       ?type_case_X@?$output_processor@DV?$string_output_adapter@D@__crt_stdio_output@@V?$positional_parameter_base@DV?$string_output_adapter@D@__crt_stdio_output@@@2@@__crt_stdio_output@@AEAA_NXZ 00000001800721d0 f i libucrtd:output.obj
 0001:000711f0       ?type_case_X@?$output_processor@DV?$string_output_adapter@D@__crt_stdio_output@@V?$standard_base@DV?$string_output_adapter@D@__crt_stdio_output@@@2@@__crt_stdio_output@@AEAA_NXZ 00000001800721f0 f i libucrtd:output.obj
 0001:00071210       ?type_case_X@?$output_processor@_WV?$stream_output_adapter@_W@__crt_stdio_output@@V?$format_validation_base@_WV?$stream_output_adapter@_W@__crt_stdio_output@@@2@@__crt_stdio_output@@AEAA_NXZ 0000000180072210 f i libucrtd:output.obj
 0001:00071230       ?type_case_X@?$output_processor@_WV?$stream_output_adapter@_W@__crt_stdio_output@@V?$positional_parameter_base@_WV?$stream_output_adapter@_W@__crt_stdio_output@@@2@@__crt_stdio_output@@AEAA_NXZ 0000000180072230 f i libucrtd:output.obj
 0001:00071250       ?type_case_X@?$output_processor@_WV?$stream_output_adapter@_W@__crt_stdio_output@@V?$standard_base@_WV?$stream_output_adapter@_W@__crt_stdio_output@@@2@@__crt_stdio_output@@AEAA_NXZ 0000000180072250 f i libucrtd:output.obj
 0001:00071270       ?type_case_X@?$output_processor@_WV?$string_output_adapter@_W@__crt_stdio_output@@V?$format_validation_base@_WV?$string_output_adapter@_W@__crt_stdio_output@@@2@@__crt_stdio_output@@AEAA_NXZ 0000000180072270 f i libucrtd:output.obj
 0001:00071290       ?type_case_X@?$output_processor@_WV?$string_output_adapter@_W@__crt_stdio_output@@V?$positional_parameter_base@_WV?$string_output_adapter@_W@__crt_stdio_output@@@2@@__crt_stdio_output@@AEAA_NXZ 0000000180072290 f i libucrtd:output.obj
 0001:000712b0       ?type_case_X@?$output_processor@_WV?$string_output_adapter@_W@__crt_stdio_output@@V?$standard_base@_WV?$string_output_adapter@_W@__crt_stdio_output@@@2@@__crt_stdio_output@@AEAA_NXZ 00000001800722b0 f i libucrtd:output.obj
 0001:000712d0       ?type_case_Z@?$output_processor@DV?$stream_output_adapter@D@__crt_stdio_output@@V?$format_validation_base@DV?$stream_output_adapter@D@__crt_stdio_output@@@2@@__crt_stdio_output@@AEAA_NXZ 00000001800722d0 f i libucrtd:output.obj
 0001:000713f0       ?type_case_Z@?$output_processor@DV?$stream_output_adapter@D@__crt_stdio_output@@V?$positional_parameter_base@DV?$stream_output_adapter@D@__crt_stdio_output@@@2@@__crt_stdio_output@@AEAA_NXZ 00000001800723f0 f i libucrtd:output.obj
 0001:00071510       ?type_case_Z@?$output_processor@DV?$stream_output_adapter@D@__crt_stdio_output@@V?$standard_base@DV?$stream_output_adapter@D@__crt_stdio_output@@@2@@__crt_stdio_output@@AEAA_NXZ 0000000180072510 f i libucrtd:output.obj
 0001:00071630       ?type_case_Z@?$output_processor@DV?$string_output_adapter@D@__crt_stdio_output@@V?$format_validation_base@DV?$string_output_adapter@D@__crt_stdio_output@@@2@@__crt_stdio_output@@AEAA_NXZ 0000000180072630 f i libucrtd:output.obj
 0001:00071750       ?type_case_Z@?$output_processor@DV?$string_output_adapter@D@__crt_stdio_output@@V?$positional_parameter_base@DV?$string_output_adapter@D@__crt_stdio_output@@@2@@__crt_stdio_output@@AEAA_NXZ 0000000180072750 f i libucrtd:output.obj
 0001:00071870       ?type_case_Z@?$output_processor@DV?$string_output_adapter@D@__crt_stdio_output@@V?$standard_base@DV?$string_output_adapter@D@__crt_stdio_output@@@2@@__crt_stdio_output@@AEAA_NXZ 0000000180072870 f i libucrtd:output.obj
 0001:00071990       ?type_case_Z@?$output_processor@_WV?$stream_output_adapter@_W@__crt_stdio_output@@V?$format_validation_base@_WV?$stream_output_adapter@_W@__crt_stdio_output@@@2@@__crt_stdio_output@@AEAA_NXZ 0000000180072990 f i libucrtd:output.obj
 0001:00071ab0       ?type_case_Z@?$output_processor@_WV?$stream_output_adapter@_W@__crt_stdio_output@@V?$positional_parameter_base@_WV?$stream_output_adapter@_W@__crt_stdio_output@@@2@@__crt_stdio_output@@AEAA_NXZ 0000000180072ab0 f i libucrtd:output.obj
 0001:00071bd0       ?type_case_Z@?$output_processor@_WV?$stream_output_adapter@_W@__crt_stdio_output@@V?$standard_base@_WV?$stream_output_adapter@_W@__crt_stdio_output@@@2@@__crt_stdio_output@@AEAA_NXZ 0000000180072bd0 f i libucrtd:output.obj
 0001:00071cf0       ?type_case_Z@?$output_processor@_WV?$string_output_adapter@_W@__crt_stdio_output@@V?$format_validation_base@_WV?$string_output_adapter@_W@__crt_stdio_output@@@2@@__crt_stdio_output@@AEAA_NXZ 0000000180072cf0 f i libucrtd:output.obj
 0001:00071e10       ?type_case_Z@?$output_processor@_WV?$string_output_adapter@_W@__crt_stdio_output@@V?$positional_parameter_base@_WV?$string_output_adapter@_W@__crt_stdio_output@@@2@@__crt_stdio_output@@AEAA_NXZ 0000000180072e10 f i libucrtd:output.obj
 0001:00071f30       ?type_case_Z@?$output_processor@_WV?$string_output_adapter@_W@__crt_stdio_output@@V?$standard_base@_WV?$string_output_adapter@_W@__crt_stdio_output@@@2@@__crt_stdio_output@@AEAA_NXZ 0000000180072f30 f i libucrtd:output.obj
 0001:00072050       ?type_case_a@?$output_processor@DV?$stream_output_adapter@D@__crt_stdio_output@@V?$format_validation_base@DV?$stream_output_adapter@D@__crt_stdio_output@@@2@@__crt_stdio_output@@AEAA_NXZ 0000000180073050 f i libucrtd:output.obj
 0001:00072410       ?type_case_a@?$output_processor@DV?$stream_output_adapter@D@__crt_stdio_output@@V?$positional_parameter_base@DV?$stream_output_adapter@D@__crt_stdio_output@@@2@@__crt_stdio_output@@AEAA_NXZ 0000000180073410 f i libucrtd:output.obj
 0001:000727d0       ?type_case_a@?$output_processor@DV?$stream_output_adapter@D@__crt_stdio_output@@V?$standard_base@DV?$stream_output_adapter@D@__crt_stdio_output@@@2@@__crt_stdio_output@@AEAA_NXZ 00000001800737d0 f i libucrtd:output.obj
 0001:00072b90       ?type_case_a@?$output_processor@DV?$string_output_adapter@D@__crt_stdio_output@@V?$format_validation_base@DV?$string_output_adapter@D@__crt_stdio_output@@@2@@__crt_stdio_output@@AEAA_NXZ 0000000180073b90 f i libucrtd:output.obj
 0001:00072f50       ?type_case_a@?$output_processor@DV?$string_output_adapter@D@__crt_stdio_output@@V?$positional_parameter_base@DV?$string_output_adapter@D@__crt_stdio_output@@@2@@__crt_stdio_output@@AEAA_NXZ 0000000180073f50 f i libucrtd:output.obj
 0001:00073310       ?type_case_a@?$output_processor@DV?$string_output_adapter@D@__crt_stdio_output@@V?$standard_base@DV?$string_output_adapter@D@__crt_stdio_output@@@2@@__crt_stdio_output@@AEAA_NXZ 0000000180074310 f i libucrtd:output.obj
 0001:000736d0       ?type_case_a@?$output_processor@_WV?$stream_output_adapter@_W@__crt_stdio_output@@V?$format_validation_base@_WV?$stream_output_adapter@_W@__crt_stdio_output@@@2@@__crt_stdio_output@@AEAA_NXZ 00000001800746d0 f i libucrtd:output.obj
 0001:00073aa0       ?type_case_a@?$output_processor@_WV?$stream_output_adapter@_W@__crt_stdio_output@@V?$positional_parameter_base@_WV?$stream_output_adapter@_W@__crt_stdio_output@@@2@@__crt_stdio_output@@AEAA_NXZ 0000000180074aa0 f i libucrtd:output.obj
 0001:00073e70       ?type_case_a@?$output_processor@_WV?$stream_output_adapter@_W@__crt_stdio_output@@V?$standard_base@_WV?$stream_output_adapter@_W@__crt_stdio_output@@@2@@__crt_stdio_output@@AEAA_NXZ 0000000180074e70 f i libucrtd:output.obj
 0001:00074240       ?type_case_a@?$output_processor@_WV?$string_output_adapter@_W@__crt_stdio_output@@V?$format_validation_base@_WV?$string_output_adapter@_W@__crt_stdio_output@@@2@@__crt_stdio_output@@AEAA_NXZ 0000000180075240 f i libucrtd:output.obj
 0001:00074610       ?type_case_a@?$output_processor@_WV?$string_output_adapter@_W@__crt_stdio_output@@V?$positional_parameter_base@_WV?$string_output_adapter@_W@__crt_stdio_output@@@2@@__crt_stdio_output@@AEAA_NXZ 0000000180075610 f i libucrtd:output.obj
 0001:000749e0       ?type_case_a@?$output_processor@_WV?$string_output_adapter@_W@__crt_stdio_output@@V?$standard_base@_WV?$string_output_adapter@_W@__crt_stdio_output@@@2@@__crt_stdio_output@@AEAA_NXZ 00000001800759e0 f i libucrtd:output.obj
 0001:00074db0       ?type_case_c@?$output_processor@DV?$stream_output_adapter@D@__crt_stdio_output@@V?$format_validation_base@DV?$stream_output_adapter@D@__crt_stdio_output@@@2@@__crt_stdio_output@@AEAA_NXZ 0000000180075db0 f i libucrtd:output.obj
 0001:00074dd0       ?type_case_c@?$output_processor@DV?$stream_output_adapter@D@__crt_stdio_output@@V?$positional_parameter_base@DV?$stream_output_adapter@D@__crt_stdio_output@@@2@@__crt_stdio_output@@AEAA_NXZ 0000000180075dd0 f i libucrtd:output.obj
 0001:00074df0       ?type_case_c@?$output_processor@DV?$stream_output_adapter@D@__crt_stdio_output@@V?$standard_base@DV?$stream_output_adapter@D@__crt_stdio_output@@@2@@__crt_stdio_output@@AEAA_NXZ 0000000180075df0 f i libucrtd:output.obj
 0001:00074e10       ?type_case_c@?$output_processor@DV?$string_output_adapter@D@__crt_stdio_output@@V?$format_validation_base@DV?$string_output_adapter@D@__crt_stdio_output@@@2@@__crt_stdio_output@@AEAA_NXZ 0000000180075e10 f i libucrtd:output.obj
 0001:00074e30       ?type_case_c@?$output_processor@DV?$string_output_adapter@D@__crt_stdio_output@@V?$positional_parameter_base@DV?$string_output_adapter@D@__crt_stdio_output@@@2@@__crt_stdio_output@@AEAA_NXZ 0000000180075e30 f i libucrtd:output.obj
 0001:00074e50       ?type_case_c@?$output_processor@DV?$string_output_adapter@D@__crt_stdio_output@@V?$standard_base@DV?$string_output_adapter@D@__crt_stdio_output@@@2@@__crt_stdio_output@@AEAA_NXZ 0000000180075e50 f i libucrtd:output.obj
 0001:00074e70       ?type_case_c@?$output_processor@_WV?$stream_output_adapter@_W@__crt_stdio_output@@V?$format_validation_base@_WV?$stream_output_adapter@_W@__crt_stdio_output@@@2@@__crt_stdio_output@@AEAA_NXZ 0000000180075e70 f i libucrtd:output.obj
 0001:00074e90       ?type_case_c@?$output_processor@_WV?$stream_output_adapter@_W@__crt_stdio_output@@V?$positional_parameter_base@_WV?$stream_output_adapter@_W@__crt_stdio_output@@@2@@__crt_stdio_output@@AEAA_NXZ 0000000180075e90 f i libucrtd:output.obj
 0001:00074eb0       ?type_case_c@?$output_processor@_WV?$stream_output_adapter@_W@__crt_stdio_output@@V?$standard_base@_WV?$stream_output_adapter@_W@__crt_stdio_output@@@2@@__crt_stdio_output@@AEAA_NXZ 0000000180075eb0 f i libucrtd:output.obj
 0001:00074ed0       ?type_case_c@?$output_processor@_WV?$string_output_adapter@_W@__crt_stdio_output@@V?$format_validation_base@_WV?$string_output_adapter@_W@__crt_stdio_output@@@2@@__crt_stdio_output@@AEAA_NXZ 0000000180075ed0 f i libucrtd:output.obj
 0001:00074ef0       ?type_case_c@?$output_processor@_WV?$string_output_adapter@_W@__crt_stdio_output@@V?$positional_parameter_base@_WV?$string_output_adapter@_W@__crt_stdio_output@@@2@@__crt_stdio_output@@AEAA_NXZ 0000000180075ef0 f i libucrtd:output.obj
 0001:00074f10       ?type_case_c@?$output_processor@_WV?$string_output_adapter@_W@__crt_stdio_output@@V?$standard_base@_WV?$string_output_adapter@_W@__crt_stdio_output@@@2@@__crt_stdio_output@@AEAA_NXZ 0000000180075f10 f i libucrtd:output.obj
 0001:00074f30       ?type_case_c_tchar@?$output_processor@DV?$stream_output_adapter@D@__crt_stdio_output@@V?$format_validation_base@DV?$stream_output_adapter@D@__crt_stdio_output@@@2@@__crt_stdio_output@@AEAA_ND@Z 0000000180075f30 f i libucrtd:output.obj
 0001:00075080       ?type_case_c_tchar@?$output_processor@DV?$stream_output_adapter@D@__crt_stdio_output@@V?$positional_parameter_base@DV?$stream_output_adapter@D@__crt_stdio_output@@@2@@__crt_stdio_output@@AEAA_ND@Z 0000000180076080 f i libucrtd:output.obj
 0001:000751d0       ?type_case_c_tchar@?$output_processor@DV?$stream_output_adapter@D@__crt_stdio_output@@V?$standard_base@DV?$stream_output_adapter@D@__crt_stdio_output@@@2@@__crt_stdio_output@@AEAA_ND@Z 00000001800761d0 f i libucrtd:output.obj
 0001:00075320       ?type_case_c_tchar@?$output_processor@DV?$string_output_adapter@D@__crt_stdio_output@@V?$format_validation_base@DV?$string_output_adapter@D@__crt_stdio_output@@@2@@__crt_stdio_output@@AEAA_ND@Z 0000000180076320 f i libucrtd:output.obj
 0001:00075470       ?type_case_c_tchar@?$output_processor@DV?$string_output_adapter@D@__crt_stdio_output@@V?$positional_parameter_base@DV?$string_output_adapter@D@__crt_stdio_output@@@2@@__crt_stdio_output@@AEAA_ND@Z 0000000180076470 f i libucrtd:output.obj
 0001:000755c0       ?type_case_c_tchar@?$output_processor@DV?$string_output_adapter@D@__crt_stdio_output@@V?$standard_base@DV?$string_output_adapter@D@__crt_stdio_output@@@2@@__crt_stdio_output@@AEAA_ND@Z 00000001800765c0 f i libucrtd:output.obj
 0001:00075710       ?type_case_c_tchar@?$output_processor@_WV?$stream_output_adapter@_W@__crt_stdio_output@@V?$format_validation_base@_WV?$stream_output_adapter@_W@__crt_stdio_output@@@2@@__crt_stdio_output@@AEAA_N_W@Z 0000000180076710 f i libucrtd:output.obj
 0001:00075840       ?type_case_c_tchar@?$output_processor@_WV?$stream_output_adapter@_W@__crt_stdio_output@@V?$positional_parameter_base@_WV?$stream_output_adapter@_W@__crt_stdio_output@@@2@@__crt_stdio_output@@AEAA_N_W@Z 0000000180076840 f i libucrtd:output.obj
 0001:00075970       ?type_case_c_tchar@?$output_processor@_WV?$stream_output_adapter@_W@__crt_stdio_output@@V?$standard_base@_WV?$stream_output_adapter@_W@__crt_stdio_output@@@2@@__crt_stdio_output@@AEAA_N_W@Z 0000000180076970 f i libucrtd:output.obj
 0001:00075aa0       ?type_case_c_tchar@?$output_processor@_WV?$string_output_adapter@_W@__crt_stdio_output@@V?$format_validation_base@_WV?$string_output_adapter@_W@__crt_stdio_output@@@2@@__crt_stdio_output@@AEAA_N_W@Z 0000000180076aa0 f i libucrtd:output.obj
 0001:00075bd0       ?type_case_c_tchar@?$output_processor@_WV?$string_output_adapter@_W@__crt_stdio_output@@V?$positional_parameter_base@_WV?$string_output_adapter@_W@__crt_stdio_output@@@2@@__crt_stdio_output@@AEAA_N_W@Z 0000000180076bd0 f i libucrtd:output.obj
 0001:00075d00       ?type_case_c_tchar@?$output_processor@_WV?$string_output_adapter@_W@__crt_stdio_output@@V?$standard_base@_WV?$string_output_adapter@_W@__crt_stdio_output@@@2@@__crt_stdio_output@@AEAA_N_W@Z 0000000180076d00 f i libucrtd:output.obj
 0001:00075e30       ?type_case_d@?$output_processor@DV?$stream_output_adapter@D@__crt_stdio_output@@V?$format_validation_base@DV?$stream_output_adapter@D@__crt_stdio_output@@@2@@__crt_stdio_output@@AEAA_NXZ 0000000180076e30 f i libucrtd:output.obj
 0001:00075e60       ?type_case_d@?$output_processor@DV?$stream_output_adapter@D@__crt_stdio_output@@V?$positional_parameter_base@DV?$stream_output_adapter@D@__crt_stdio_output@@@2@@__crt_stdio_output@@AEAA_NXZ 0000000180076e60 f i libucrtd:output.obj
 0001:00075e90       ?type_case_d@?$output_processor@DV?$stream_output_adapter@D@__crt_stdio_output@@V?$standard_base@DV?$stream_output_adapter@D@__crt_stdio_output@@@2@@__crt_stdio_output@@AEAA_NXZ 0000000180076e90 f i libucrtd:output.obj
 0001:00075ec0       ?type_case_d@?$output_processor@DV?$string_output_adapter@D@__crt_stdio_output@@V?$format_validation_base@DV?$string_output_adapter@D@__crt_stdio_output@@@2@@__crt_stdio_output@@AEAA_NXZ 0000000180076ec0 f i libucrtd:output.obj
 0001:00075ef0       ?type_case_d@?$output_processor@DV?$string_output_adapter@D@__crt_stdio_output@@V?$positional_parameter_base@DV?$string_output_adapter@D@__crt_stdio_output@@@2@@__crt_stdio_output@@AEAA_NXZ 0000000180076ef0 f i libucrtd:output.obj
 0001:00075f20       ?type_case_d@?$output_processor@DV?$string_output_adapter@D@__crt_stdio_output@@V?$standard_base@DV?$string_output_adapter@D@__crt_stdio_output@@@2@@__crt_stdio_output@@AEAA_NXZ 0000000180076f20 f i libucrtd:output.obj
 0001:00075f50       ?type_case_d@?$output_processor@_WV?$stream_output_adapter@_W@__crt_stdio_output@@V?$format_validation_base@_WV?$stream_output_adapter@_W@__crt_stdio_output@@@2@@__crt_stdio_output@@AEAA_NXZ 0000000180076f50 f i libucrtd:output.obj
 0001:00075f80       ?type_case_d@?$output_processor@_WV?$stream_output_adapter@_W@__crt_stdio_output@@V?$positional_parameter_base@_WV?$stream_output_adapter@_W@__crt_stdio_output@@@2@@__crt_stdio_output@@AEAA_NXZ 0000000180076f80 f i libucrtd:output.obj
 0001:00075fb0       ?type_case_d@?$output_processor@_WV?$stream_output_adapter@_W@__crt_stdio_output@@V?$standard_base@_WV?$stream_output_adapter@_W@__crt_stdio_output@@@2@@__crt_stdio_output@@AEAA_NXZ 0000000180076fb0 f i libucrtd:output.obj
 0001:00075fe0       ?type_case_d@?$output_processor@_WV?$string_output_adapter@_W@__crt_stdio_output@@V?$format_validation_base@_WV?$string_output_adapter@_W@__crt_stdio_output@@@2@@__crt_stdio_output@@AEAA_NXZ 0000000180076fe0 f i libucrtd:output.obj
 0001:00076010       ?type_case_d@?$output_processor@_WV?$string_output_adapter@_W@__crt_stdio_output@@V?$positional_parameter_base@_WV?$string_output_adapter@_W@__crt_stdio_output@@@2@@__crt_stdio_output@@AEAA_NXZ 0000000180077010 f i libucrtd:output.obj
 0001:00076040       ?type_case_d@?$output_processor@_WV?$string_output_adapter@_W@__crt_stdio_output@@V?$standard_base@_WV?$string_output_adapter@_W@__crt_stdio_output@@@2@@__crt_stdio_output@@AEAA_NXZ 0000000180077040 f i libucrtd:output.obj
 0001:00076070       ?type_case_integer@?$output_processor@DV?$stream_output_adapter@D@__crt_stdio_output@@V?$format_validation_base@DV?$stream_output_adapter@D@__crt_stdio_output@@@2@@__crt_stdio_output@@AEAA_NI_N@Z 0000000180077070 f i libucrtd:output.obj
 0001:000764c0       ?type_case_integer@?$output_processor@DV?$stream_output_adapter@D@__crt_stdio_output@@V?$positional_parameter_base@DV?$stream_output_adapter@D@__crt_stdio_output@@@2@@__crt_stdio_output@@AEAA_NI_N@Z 00000001800774c0 f i libucrtd:output.obj
 0001:00076910       ?type_case_integer@?$output_processor@DV?$stream_output_adapter@D@__crt_stdio_output@@V?$standard_base@DV?$stream_output_adapter@D@__crt_stdio_output@@@2@@__crt_stdio_output@@AEAA_NI_N@Z 0000000180077910 f i libucrtd:output.obj
 0001:00076d60       ?type_case_integer@?$output_processor@DV?$string_output_adapter@D@__crt_stdio_output@@V?$format_validation_base@DV?$string_output_adapter@D@__crt_stdio_output@@@2@@__crt_stdio_output@@AEAA_NI_N@Z 0000000180077d60 f i libucrtd:output.obj
 0001:000771b0       ?type_case_integer@?$output_processor@DV?$string_output_adapter@D@__crt_stdio_output@@V?$positional_parameter_base@DV?$string_output_adapter@D@__crt_stdio_output@@@2@@__crt_stdio_output@@AEAA_NI_N@Z 00000001800781b0 f i libucrtd:output.obj
 0001:00077600       ?type_case_integer@?$output_processor@DV?$string_output_adapter@D@__crt_stdio_output@@V?$standard_base@DV?$string_output_adapter@D@__crt_stdio_output@@@2@@__crt_stdio_output@@AEAA_NI_N@Z 0000000180078600 f i libucrtd:output.obj
 0001:00077a50       ?type_case_integer@?$output_processor@_WV?$stream_output_adapter@_W@__crt_stdio_output@@V?$format_validation_base@_WV?$stream_output_adapter@_W@__crt_stdio_output@@@2@@__crt_stdio_output@@AEAA_NI_N@Z 0000000180078a50 f i libucrtd:output.obj
 0001:00077ea0       ?type_case_integer@?$output_processor@_WV?$stream_output_adapter@_W@__crt_stdio_output@@V?$positional_parameter_base@_WV?$stream_output_adapter@_W@__crt_stdio_output@@@2@@__crt_stdio_output@@AEAA_NI_N@Z 0000000180078ea0 f i libucrtd:output.obj
 0001:000782f0       ?type_case_integer@?$output_processor@_WV?$stream_output_adapter@_W@__crt_stdio_output@@V?$standard_base@_WV?$stream_output_adapter@_W@__crt_stdio_output@@@2@@__crt_stdio_output@@AEAA_NI_N@Z 00000001800792f0 f i libucrtd:output.obj
 0001:00078740       ?type_case_integer@?$output_processor@_WV?$string_output_adapter@_W@__crt_stdio_output@@V?$format_validation_base@_WV?$string_output_adapter@_W@__crt_stdio_output@@@2@@__crt_stdio_output@@AEAA_NI_N@Z 0000000180079740 f i libucrtd:output.obj
 0001:00078b90       ?type_case_integer@?$output_processor@_WV?$string_output_adapter@_W@__crt_stdio_output@@V?$positional_parameter_base@_WV?$string_output_adapter@_W@__crt_stdio_output@@@2@@__crt_stdio_output@@AEAA_NI_N@Z 0000000180079b90 f i libucrtd:output.obj
 0001:00078fe0       ?type_case_integer@?$output_processor@_WV?$string_output_adapter@_W@__crt_stdio_output@@V?$standard_base@_WV?$string_output_adapter@_W@__crt_stdio_output@@@2@@__crt_stdio_output@@AEAA_NI_N@Z 0000000180079fe0 f i libucrtd:output.obj
 0001:00079430       ?type_case_n@?$output_processor@DV?$stream_output_adapter@D@__crt_stdio_output@@V?$format_validation_base@DV?$stream_output_adapter@D@__crt_stdio_output@@@2@@__crt_stdio_output@@AEAA_NXZ 000000018007a430 f i libucrtd:output.obj
 0001:00079670       ?type_case_n@?$output_processor@DV?$stream_output_adapter@D@__crt_stdio_output@@V?$positional_parameter_base@DV?$stream_output_adapter@D@__crt_stdio_output@@@2@@__crt_stdio_output@@AEAA_NXZ 000000018007a670 f i libucrtd:output.obj
 0001:000798b0       ?type_case_n@?$output_processor@DV?$stream_output_adapter@D@__crt_stdio_output@@V?$standard_base@DV?$stream_output_adapter@D@__crt_stdio_output@@@2@@__crt_stdio_output@@AEAA_NXZ 000000018007a8b0 f i libucrtd:output.obj
 0001:00079af0       ?type_case_n@?$output_processor@DV?$string_output_adapter@D@__crt_stdio_output@@V?$format_validation_base@DV?$string_output_adapter@D@__crt_stdio_output@@@2@@__crt_stdio_output@@AEAA_NXZ 000000018007aaf0 f i libucrtd:output.obj
 0001:00079d30       ?type_case_n@?$output_processor@DV?$string_output_adapter@D@__crt_stdio_output@@V?$positional_parameter_base@DV?$string_output_adapter@D@__crt_stdio_output@@@2@@__crt_stdio_output@@AEAA_NXZ 000000018007ad30 f i libucrtd:output.obj
 0001:00079f70       ?type_case_n@?$output_processor@DV?$string_output_adapter@D@__crt_stdio_output@@V?$standard_base@DV?$string_output_adapter@D@__crt_stdio_output@@@2@@__crt_stdio_output@@AEAA_NXZ 000000018007af70 f i libucrtd:output.obj
 0001:0007a1b0       ?type_case_n@?$output_processor@_WV?$stream_output_adapter@_W@__crt_stdio_output@@V?$format_validation_base@_WV?$stream_output_adapter@_W@__crt_stdio_output@@@2@@__crt_stdio_output@@AEAA_NXZ 000000018007b1b0 f i libucrtd:output.obj
 0001:0007a3f0       ?type_case_n@?$output_processor@_WV?$stream_output_adapter@_W@__crt_stdio_output@@V?$positional_parameter_base@_WV?$stream_output_adapter@_W@__crt_stdio_output@@@2@@__crt_stdio_output@@AEAA_NXZ 000000018007b3f0 f i libucrtd:output.obj
 0001:0007a630       ?type_case_n@?$output_processor@_WV?$stream_output_adapter@_W@__crt_stdio_output@@V?$standard_base@_WV?$stream_output_adapter@_W@__crt_stdio_output@@@2@@__crt_stdio_output@@AEAA_NXZ 000000018007b630 f i libucrtd:output.obj
 0001:0007a870       ?type_case_n@?$output_processor@_WV?$string_output_adapter@_W@__crt_stdio_output@@V?$format_validation_base@_WV?$string_output_adapter@_W@__crt_stdio_output@@@2@@__crt_stdio_output@@AEAA_NXZ 000000018007b870 f i libucrtd:output.obj
 0001:0007aab0       ?type_case_n@?$output_processor@_WV?$string_output_adapter@_W@__crt_stdio_output@@V?$positional_parameter_base@_WV?$string_output_adapter@_W@__crt_stdio_output@@@2@@__crt_stdio_output@@AEAA_NXZ 000000018007bab0 f i libucrtd:output.obj
 0001:0007acf0       ?type_case_n@?$output_processor@_WV?$string_output_adapter@_W@__crt_stdio_output@@V?$standard_base@_WV?$string_output_adapter@_W@__crt_stdio_output@@@2@@__crt_stdio_output@@AEAA_NXZ 000000018007bcf0 f i libucrtd:output.obj
 0001:0007af30       ?type_case_o@?$output_processor@DV?$stream_output_adapter@D@__crt_stdio_output@@V?$format_validation_base@DV?$stream_output_adapter@D@__crt_stdio_output@@@2@@__crt_stdio_output@@AEAA_NXZ 000000018007bf30 f i libucrtd:output.obj
 0001:0007af80       ?type_case_o@?$output_processor@DV?$stream_output_adapter@D@__crt_stdio_output@@V?$positional_parameter_base@DV?$stream_output_adapter@D@__crt_stdio_output@@@2@@__crt_stdio_output@@AEAA_NXZ 000000018007bf80 f i libucrtd:output.obj
 0001:0007afd0       ?type_case_o@?$output_processor@DV?$stream_output_adapter@D@__crt_stdio_output@@V?$standard_base@DV?$stream_output_adapter@D@__crt_stdio_output@@@2@@__crt_stdio_output@@AEAA_NXZ 000000018007bfd0 f i libucrtd:output.obj
 0001:0007b020       ?type_case_o@?$output_processor@DV?$string_output_adapter@D@__crt_stdio_output@@V?$format_validation_base@DV?$string_output_adapter@D@__crt_stdio_output@@@2@@__crt_stdio_output@@AEAA_NXZ 000000018007c020 f i libucrtd:output.obj
 0001:0007b070       ?type_case_o@?$output_processor@DV?$string_output_adapter@D@__crt_stdio_output@@V?$positional_parameter_base@DV?$string_output_adapter@D@__crt_stdio_output@@@2@@__crt_stdio_output@@AEAA_NXZ 000000018007c070 f i libucrtd:output.obj
 0001:0007b0c0       ?type_case_o@?$output_processor@DV?$string_output_adapter@D@__crt_stdio_output@@V?$standard_base@DV?$string_output_adapter@D@__crt_stdio_output@@@2@@__crt_stdio_output@@AEAA_NXZ 000000018007c0c0 f i libucrtd:output.obj
 0001:0007b110       ?type_case_o@?$output_processor@_WV?$stream_output_adapter@_W@__crt_stdio_output@@V?$format_validation_base@_WV?$stream_output_adapter@_W@__crt_stdio_output@@@2@@__crt_stdio_output@@AEAA_NXZ 000000018007c110 f i libucrtd:output.obj
 0001:0007b160       ?type_case_o@?$output_processor@_WV?$stream_output_adapter@_W@__crt_stdio_output@@V?$positional_parameter_base@_WV?$stream_output_adapter@_W@__crt_stdio_output@@@2@@__crt_stdio_output@@AEAA_NXZ 000000018007c160 f i libucrtd:output.obj
 0001:0007b1b0       ?type_case_o@?$output_processor@_WV?$stream_output_adapter@_W@__crt_stdio_output@@V?$standard_base@_WV?$stream_output_adapter@_W@__crt_stdio_output@@@2@@__crt_stdio_output@@AEAA_NXZ 000000018007c1b0 f i libucrtd:output.obj
 0001:0007b200       ?type_case_o@?$output_processor@_WV?$string_output_adapter@_W@__crt_stdio_output@@V?$format_validation_base@_WV?$string_output_adapter@_W@__crt_stdio_output@@@2@@__crt_stdio_output@@AEAA_NXZ 000000018007c200 f i libucrtd:output.obj
 0001:0007b250       ?type_case_o@?$output_processor@_WV?$string_output_adapter@_W@__crt_stdio_output@@V?$positional_parameter_base@_WV?$string_output_adapter@_W@__crt_stdio_output@@@2@@__crt_stdio_output@@AEAA_NXZ 000000018007c250 f i libucrtd:output.obj
 0001:0007b2a0       ?type_case_o@?$output_processor@_WV?$string_output_adapter@_W@__crt_stdio_output@@V?$standard_base@_WV?$string_output_adapter@_W@__crt_stdio_output@@@2@@__crt_stdio_output@@AEAA_NXZ 000000018007c2a0 f i libucrtd:output.obj
 0001:0007b2f0       ?type_case_p@?$output_processor@DV?$stream_output_adapter@D@__crt_stdio_output@@V?$format_validation_base@DV?$stream_output_adapter@D@__crt_stdio_output@@@2@@__crt_stdio_output@@AEAA_NXZ 000000018007c2f0 f i libucrtd:output.obj
 0001:0007b330       ?type_case_p@?$output_processor@DV?$stream_output_adapter@D@__crt_stdio_output@@V?$positional_parameter_base@DV?$stream_output_adapter@D@__crt_stdio_output@@@2@@__crt_stdio_output@@AEAA_NXZ 000000018007c330 f i libucrtd:output.obj
 0001:0007b370       ?type_case_p@?$output_processor@DV?$stream_output_adapter@D@__crt_stdio_output@@V?$standard_base@DV?$stream_output_adapter@D@__crt_stdio_output@@@2@@__crt_stdio_output@@AEAA_NXZ 000000018007c370 f i libucrtd:output.obj
 0001:0007b3b0       ?type_case_p@?$output_processor@DV?$string_output_adapter@D@__crt_stdio_output@@V?$format_validation_base@DV?$string_output_adapter@D@__crt_stdio_output@@@2@@__crt_stdio_output@@AEAA_NXZ 000000018007c3b0 f i libucrtd:output.obj
 0001:0007b3f0       ?type_case_p@?$output_processor@DV?$string_output_adapter@D@__crt_stdio_output@@V?$positional_parameter_base@DV?$string_output_adapter@D@__crt_stdio_output@@@2@@__crt_stdio_output@@AEAA_NXZ 000000018007c3f0 f i libucrtd:output.obj
 0001:0007b430       ?type_case_p@?$output_processor@DV?$string_output_adapter@D@__crt_stdio_output@@V?$standard_base@DV?$string_output_adapter@D@__crt_stdio_output@@@2@@__crt_stdio_output@@AEAA_NXZ 000000018007c430 f i libucrtd:output.obj
 0001:0007b470       ?type_case_p@?$output_processor@_WV?$stream_output_adapter@_W@__crt_stdio_output@@V?$format_validation_base@_WV?$stream_output_adapter@_W@__crt_stdio_output@@@2@@__crt_stdio_output@@AEAA_NXZ 000000018007c470 f i libucrtd:output.obj
 0001:0007b4b0       ?type_case_p@?$output_processor@_WV?$stream_output_adapter@_W@__crt_stdio_output@@V?$positional_parameter_base@_WV?$stream_output_adapter@_W@__crt_stdio_output@@@2@@__crt_stdio_output@@AEAA_NXZ 000000018007c4b0 f i libucrtd:output.obj
 0001:0007b4f0       ?type_case_p@?$output_processor@_WV?$stream_output_adapter@_W@__crt_stdio_output@@V?$standard_base@_WV?$stream_output_adapter@_W@__crt_stdio_output@@@2@@__crt_stdio_output@@AEAA_NXZ 000000018007c4f0 f i libucrtd:output.obj
 0001:0007b530       ?type_case_p@?$output_processor@_WV?$string_output_adapter@_W@__crt_stdio_output@@V?$format_validation_base@_WV?$string_output_adapter@_W@__crt_stdio_output@@@2@@__crt_stdio_output@@AEAA_NXZ 000000018007c530 f i libucrtd:output.obj
 0001:0007b570       ?type_case_p@?$output_processor@_WV?$string_output_adapter@_W@__crt_stdio_output@@V?$positional_parameter_base@_WV?$string_output_adapter@_W@__crt_stdio_output@@@2@@__crt_stdio_output@@AEAA_NXZ 000000018007c570 f i libucrtd:output.obj
 0001:0007b5b0       ?type_case_p@?$output_processor@_WV?$string_output_adapter@_W@__crt_stdio_output@@V?$standard_base@_WV?$string_output_adapter@_W@__crt_stdio_output@@@2@@__crt_stdio_output@@AEAA_NXZ 000000018007c5b0 f i libucrtd:output.obj
 0001:0007b5f0       ?type_case_s@?$output_processor@DV?$stream_output_adapter@D@__crt_stdio_output@@V?$format_validation_base@DV?$stream_output_adapter@D@__crt_stdio_output@@@2@@__crt_stdio_output@@AEAA_NXZ 000000018007c5f0 f i libucrtd:output.obj
 0001:0007b710       ?type_case_s@?$output_processor@DV?$stream_output_adapter@D@__crt_stdio_output@@V?$positional_parameter_base@DV?$stream_output_adapter@D@__crt_stdio_output@@@2@@__crt_stdio_output@@AEAA_NXZ 000000018007c710 f i libucrtd:output.obj
 0001:0007b830       ?type_case_s@?$output_processor@DV?$stream_output_adapter@D@__crt_stdio_output@@V?$standard_base@DV?$stream_output_adapter@D@__crt_stdio_output@@@2@@__crt_stdio_output@@AEAA_NXZ 000000018007c830 f i libucrtd:output.obj
 0001:0007b950       ?type_case_s@?$output_processor@DV?$string_output_adapter@D@__crt_stdio_output@@V?$format_validation_base@DV?$string_output_adapter@D@__crt_stdio_output@@@2@@__crt_stdio_output@@AEAA_NXZ 000000018007c950 f i libucrtd:output.obj
 0001:0007ba70       ?type_case_s@?$output_processor@DV?$string_output_adapter@D@__crt_stdio_output@@V?$positional_parameter_base@DV?$string_output_adapter@D@__crt_stdio_output@@@2@@__crt_stdio_output@@AEAA_NXZ 000000018007ca70 f i libucrtd:output.obj
 0001:0007bb90       ?type_case_s@?$output_processor@DV?$string_output_adapter@D@__crt_stdio_output@@V?$standard_base@DV?$string_output_adapter@D@__crt_stdio_output@@@2@@__crt_stdio_output@@AEAA_NXZ 000000018007cb90 f i libucrtd:output.obj
 0001:0007bcb0       ?type_case_s@?$output_processor@_WV?$stream_output_adapter@_W@__crt_stdio_output@@V?$format_validation_base@_WV?$stream_output_adapter@_W@__crt_stdio_output@@@2@@__crt_stdio_output@@AEAA_NXZ 000000018007ccb0 f i libucrtd:output.obj
 0001:0007bdd0       ?type_case_s@?$output_processor@_WV?$stream_output_adapter@_W@__crt_stdio_output@@V?$positional_parameter_base@_WV?$stream_output_adapter@_W@__crt_stdio_output@@@2@@__crt_stdio_output@@AEAA_NXZ 000000018007cdd0 f i libucrtd:output.obj
 0001:0007bef0       ?type_case_s@?$output_processor@_WV?$stream_output_adapter@_W@__crt_stdio_output@@V?$standard_base@_WV?$stream_output_adapter@_W@__crt_stdio_output@@@2@@__crt_stdio_output@@AEAA_NXZ 000000018007cef0 f i libucrtd:output.obj
 0001:0007c010       ?type_case_s@?$output_processor@_WV?$string_output_adapter@_W@__crt_stdio_output@@V?$format_validation_base@_WV?$string_output_adapter@_W@__crt_stdio_output@@@2@@__crt_stdio_output@@AEAA_NXZ 000000018007d010 f i libucrtd:output.obj
 0001:0007c130       ?type_case_s@?$output_processor@_WV?$string_output_adapter@_W@__crt_stdio_output@@V?$positional_parameter_base@_WV?$string_output_adapter@_W@__crt_stdio_output@@@2@@__crt_stdio_output@@AEAA_NXZ 000000018007d130 f i libucrtd:output.obj
 0001:0007c250       ?type_case_s@?$output_processor@_WV?$string_output_adapter@_W@__crt_stdio_output@@V?$standard_base@_WV?$string_output_adapter@_W@__crt_stdio_output@@@2@@__crt_stdio_output@@AEAA_NXZ 000000018007d250 f i libucrtd:output.obj
 0001:0007c370       ?type_case_s_compute_narrow_string_length@?$output_processor@DV?$stream_output_adapter@D@__crt_stdio_output@@V?$format_validation_base@DV?$stream_output_adapter@D@__crt_stdio_output@@@2@@__crt_stdio_output@@AEBAHHD@Z 000000018007d370 f i libucrtd:output.obj
 0001:0007c3a0       ?type_case_s_compute_narrow_string_length@?$output_processor@DV?$stream_output_adapter@D@__crt_stdio_output@@V?$positional_parameter_base@DV?$stream_output_adapter@D@__crt_stdio_output@@@2@@__crt_stdio_output@@AEBAHHD@Z 000000018007d3a0 f i libucrtd:output.obj
 0001:0007c3d0       ?type_case_s_compute_narrow_string_length@?$output_processor@DV?$stream_output_adapter@D@__crt_stdio_output@@V?$standard_base@DV?$stream_output_adapter@D@__crt_stdio_output@@@2@@__crt_stdio_output@@AEBAHHD@Z 000000018007d3d0 f i libucrtd:output.obj
 0001:0007c400       ?type_case_s_compute_narrow_string_length@?$output_processor@DV?$string_output_adapter@D@__crt_stdio_output@@V?$format_validation_base@DV?$string_output_adapter@D@__crt_stdio_output@@@2@@__crt_stdio_output@@AEBAHHD@Z 000000018007d400 f i libucrtd:output.obj
 0001:0007c430       ?type_case_s_compute_narrow_string_length@?$output_processor@DV?$string_output_adapter@D@__crt_stdio_output@@V?$positional_parameter_base@DV?$string_output_adapter@D@__crt_stdio_output@@@2@@__crt_stdio_output@@AEBAHHD@Z 000000018007d430 f i libucrtd:output.obj
 0001:0007c460       ?type_case_s_compute_narrow_string_length@?$output_processor@DV?$string_output_adapter@D@__crt_stdio_output@@V?$standard_base@DV?$string_output_adapter@D@__crt_stdio_output@@@2@@__crt_stdio_output@@AEBAHHD@Z 000000018007d460 f i libucrtd:output.obj
 0001:0007c490       ?type_case_s_compute_narrow_string_length@?$output_processor@_WV?$stream_output_adapter@_W@__crt_stdio_output@@V?$format_validation_base@_WV?$stream_output_adapter@_W@__crt_stdio_output@@@2@@__crt_stdio_output@@AEBAHH_W@Z 000000018007d490 f i libucrtd:output.obj
 0001:0007c520       ?type_case_s_compute_narrow_string_length@?$output_processor@_WV?$stream_output_adapter@_W@__crt_stdio_output@@V?$positional_parameter_base@_WV?$stream_output_adapter@_W@__crt_stdio_output@@@2@@__crt_stdio_output@@AEBAHH_W@Z 000000018007d520 f i libucrtd:output.obj
 0001:0007c5b0       ?type_case_s_compute_narrow_string_length@?$output_processor@_WV?$stream_output_adapter@_W@__crt_stdio_output@@V?$standard_base@_WV?$stream_output_adapter@_W@__crt_stdio_output@@@2@@__crt_stdio_output@@AEBAHH_W@Z 000000018007d5b0 f i libucrtd:output.obj
 0001:0007c640       ?type_case_s_compute_narrow_string_length@?$output_processor@_WV?$string_output_adapter@_W@__crt_stdio_output@@V?$format_validation_base@_WV?$string_output_adapter@_W@__crt_stdio_output@@@2@@__crt_stdio_output@@AEBAHH_W@Z 000000018007d640 f i libucrtd:output.obj
 0001:0007c6d0       ?type_case_s_compute_narrow_string_length@?$output_processor@_WV?$string_output_adapter@_W@__crt_stdio_output@@V?$positional_parameter_base@_WV?$string_output_adapter@_W@__crt_stdio_output@@@2@@__crt_stdio_output@@AEBAHH_W@Z 000000018007d6d0 f i libucrtd:output.obj
 0001:0007c760       ?type_case_s_compute_narrow_string_length@?$output_processor@_WV?$string_output_adapter@_W@__crt_stdio_output@@V?$standard_base@_WV?$string_output_adapter@_W@__crt_stdio_output@@@2@@__crt_stdio_output@@AEBAHH_W@Z 000000018007d760 f i libucrtd:output.obj
 0001:0007c7f0       ?type_case_u@?$output_processor@DV?$stream_output_adapter@D@__crt_stdio_output@@V?$format_validation_base@DV?$stream_output_adapter@D@__crt_stdio_output@@@2@@__crt_stdio_output@@AEAA_NXZ 000000018007d7f0 f i libucrtd:output.obj
 0001:0007c810       ?type_case_u@?$output_processor@DV?$stream_output_adapter@D@__crt_stdio_output@@V?$positional_parameter_base@DV?$stream_output_adapter@D@__crt_stdio_output@@@2@@__crt_stdio_output@@AEAA_NXZ 000000018007d810 f i libucrtd:output.obj
 0001:0007c830       ?type_case_u@?$output_processor@DV?$stream_output_adapter@D@__crt_stdio_output@@V?$standard_base@DV?$stream_output_adapter@D@__crt_stdio_output@@@2@@__crt_stdio_output@@AEAA_NXZ 000000018007d830 f i libucrtd:output.obj
 0001:0007c850       ?type_case_u@?$output_processor@DV?$string_output_adapter@D@__crt_stdio_output@@V?$format_validation_base@DV?$string_output_adapter@D@__crt_stdio_output@@@2@@__crt_stdio_output@@AEAA_NXZ 000000018007d850 f i libucrtd:output.obj
 0001:0007c870       ?type_case_u@?$output_processor@DV?$string_output_adapter@D@__crt_stdio_output@@V?$positional_parameter_base@DV?$string_output_adapter@D@__crt_stdio_output@@@2@@__crt_stdio_output@@AEAA_NXZ 000000018007d870 f i libucrtd:output.obj
 0001:0007c890       ?type_case_u@?$output_processor@DV?$string_output_adapter@D@__crt_stdio_output@@V?$standard_base@DV?$string_output_adapter@D@__crt_stdio_output@@@2@@__crt_stdio_output@@AEAA_NXZ 000000018007d890 f i libucrtd:output.obj
 0001:0007c8b0       ?type_case_u@?$output_processor@_WV?$stream_output_adapter@_W@__crt_stdio_output@@V?$format_validation_base@_WV?$stream_output_adapter@_W@__crt_stdio_output@@@2@@__crt_stdio_output@@AEAA_NXZ 000000018007d8b0 f i libucrtd:output.obj
 0001:0007c8d0       ?type_case_u@?$output_processor@_WV?$stream_output_adapter@_W@__crt_stdio_output@@V?$positional_parameter_base@_WV?$stream_output_adapter@_W@__crt_stdio_output@@@2@@__crt_stdio_output@@AEAA_NXZ 000000018007d8d0 f i libucrtd:output.obj
 0001:0007c8f0       ?type_case_u@?$output_processor@_WV?$stream_output_adapter@_W@__crt_stdio_output@@V?$standard_base@_WV?$stream_output_adapter@_W@__crt_stdio_output@@@2@@__crt_stdio_output@@AEAA_NXZ 000000018007d8f0 f i libucrtd:output.obj
 0001:0007c910       ?type_case_u@?$output_processor@_WV?$string_output_adapter@_W@__crt_stdio_output@@V?$format_validation_base@_WV?$string_output_adapter@_W@__crt_stdio_output@@@2@@__crt_stdio_output@@AEAA_NXZ 000000018007d910 f i libucrtd:output.obj
 0001:0007c930       ?type_case_u@?$output_processor@_WV?$string_output_adapter@_W@__crt_stdio_output@@V?$positional_parameter_base@_WV?$string_output_adapter@_W@__crt_stdio_output@@@2@@__crt_stdio_output@@AEAA_NXZ 000000018007d930 f i libucrtd:output.obj
 0001:0007c950       ?type_case_u@?$output_processor@_WV?$string_output_adapter@_W@__crt_stdio_output@@V?$standard_base@_WV?$string_output_adapter@_W@__crt_stdio_output@@@2@@__crt_stdio_output@@AEAA_NXZ 000000018007d950 f i libucrtd:output.obj
 0001:0007c970       ?type_case_x@?$output_processor@DV?$stream_output_adapter@D@__crt_stdio_output@@V?$format_validation_base@DV?$stream_output_adapter@D@__crt_stdio_output@@@2@@__crt_stdio_output@@AEAA_NXZ 000000018007d970 f i libucrtd:output.obj
 0001:0007c990       ?type_case_x@?$output_processor@DV?$stream_output_adapter@D@__crt_stdio_output@@V?$positional_parameter_base@DV?$stream_output_adapter@D@__crt_stdio_output@@@2@@__crt_stdio_output@@AEAA_NXZ 000000018007d990 f i libucrtd:output.obj
 0001:0007c9b0       ?type_case_x@?$output_processor@DV?$stream_output_adapter@D@__crt_stdio_output@@V?$standard_base@DV?$stream_output_adapter@D@__crt_stdio_output@@@2@@__crt_stdio_output@@AEAA_NXZ 000000018007d9b0 f i libucrtd:output.obj
 0001:0007c9d0       ?type_case_x@?$output_processor@DV?$string_output_adapter@D@__crt_stdio_output@@V?$format_validation_base@DV?$string_output_adapter@D@__crt_stdio_output@@@2@@__crt_stdio_output@@AEAA_NXZ 000000018007d9d0 f i libucrtd:output.obj
 0001:0007c9f0       ?type_case_x@?$output_processor@DV?$string_output_adapter@D@__crt_stdio_output@@V?$positional_parameter_base@DV?$string_output_adapter@D@__crt_stdio_output@@@2@@__crt_stdio_output@@AEAA_NXZ 000000018007d9f0 f i libucrtd:output.obj
 0001:0007ca10       ?type_case_x@?$output_processor@DV?$string_output_adapter@D@__crt_stdio_output@@V?$standard_base@DV?$string_output_adapter@D@__crt_stdio_output@@@2@@__crt_stdio_output@@AEAA_NXZ 000000018007da10 f i libucrtd:output.obj
 0001:0007ca30       ?type_case_x@?$output_processor@_WV?$stream_output_adapter@_W@__crt_stdio_output@@V?$format_validation_base@_WV?$stream_output_adapter@_W@__crt_stdio_output@@@2@@__crt_stdio_output@@AEAA_NXZ 000000018007da30 f i libucrtd:output.obj
 0001:0007ca50       ?type_case_x@?$output_processor@_WV?$stream_output_adapter@_W@__crt_stdio_output@@V?$positional_parameter_base@_WV?$stream_output_adapter@_W@__crt_stdio_output@@@2@@__crt_stdio_output@@AEAA_NXZ 000000018007da50 f i libucrtd:output.obj
 0001:0007ca70       ?type_case_x@?$output_processor@_WV?$stream_output_adapter@_W@__crt_stdio_output@@V?$standard_base@_WV?$stream_output_adapter@_W@__crt_stdio_output@@@2@@__crt_stdio_output@@AEAA_NXZ 000000018007da70 f i libucrtd:output.obj
 0001:0007ca90       ?type_case_x@?$output_processor@_WV?$string_output_adapter@_W@__crt_stdio_output@@V?$format_validation_base@_WV?$string_output_adapter@_W@__crt_stdio_output@@@2@@__crt_stdio_output@@AEAA_NXZ 000000018007da90 f i libucrtd:output.obj
 0001:0007cab0       ?type_case_x@?$output_processor@_WV?$string_output_adapter@_W@__crt_stdio_output@@V?$positional_parameter_base@_WV?$string_output_adapter@_W@__crt_stdio_output@@@2@@__crt_stdio_output@@AEAA_NXZ 000000018007dab0 f i libucrtd:output.obj
 0001:0007cad0       ?type_case_x@?$output_processor@_WV?$string_output_adapter@_W@__crt_stdio_output@@V?$standard_base@_WV?$string_output_adapter@_W@__crt_stdio_output@@@2@@__crt_stdio_output@@AEAA_NXZ 000000018007dad0 f i libucrtd:output.obj
 0001:0007caf0       ?unset_flag@?$output_processor@DV?$stream_output_adapter@D@__crt_stdio_output@@V?$format_validation_base@DV?$stream_output_adapter@D@__crt_stdio_output@@@2@@__crt_stdio_output@@AEAAXI@Z 000000018007daf0 f i libucrtd:output.obj
 0001:0007cb20       ?unset_flag@?$output_processor@DV?$stream_output_adapter@D@__crt_stdio_output@@V?$positional_parameter_base@DV?$stream_output_adapter@D@__crt_stdio_output@@@2@@__crt_stdio_output@@AEAAXI@Z 000000018007db20 f i libucrtd:output.obj
 0001:0007cb50       ?unset_flag@?$output_processor@DV?$stream_output_adapter@D@__crt_stdio_output@@V?$standard_base@DV?$stream_output_adapter@D@__crt_stdio_output@@@2@@__crt_stdio_output@@AEAAXI@Z 000000018007db50 f i libucrtd:output.obj
 0001:0007cb80       ?unset_flag@?$output_processor@DV?$string_output_adapter@D@__crt_stdio_output@@V?$format_validation_base@DV?$string_output_adapter@D@__crt_stdio_output@@@2@@__crt_stdio_output@@AEAAXI@Z 000000018007db80 f i libucrtd:output.obj
 0001:0007cbb0       ?unset_flag@?$output_processor@DV?$string_output_adapter@D@__crt_stdio_output@@V?$positional_parameter_base@DV?$string_output_adapter@D@__crt_stdio_output@@@2@@__crt_stdio_output@@AEAAXI@Z 000000018007dbb0 f i libucrtd:output.obj
 0001:0007cbe0       ?unset_flag@?$output_processor@DV?$string_output_adapter@D@__crt_stdio_output@@V?$standard_base@DV?$string_output_adapter@D@__crt_stdio_output@@@2@@__crt_stdio_output@@AEAAXI@Z 000000018007dbe0 f i libucrtd:output.obj
 0001:0007cc10       ?unset_flag@?$output_processor@_WV?$stream_output_adapter@_W@__crt_stdio_output@@V?$format_validation_base@_WV?$stream_output_adapter@_W@__crt_stdio_output@@@2@@__crt_stdio_output@@AEAAXI@Z 000000018007dc10 f i libucrtd:output.obj
 0001:0007cc40       ?unset_flag@?$output_processor@_WV?$stream_output_adapter@_W@__crt_stdio_output@@V?$positional_parameter_base@_WV?$stream_output_adapter@_W@__crt_stdio_output@@@2@@__crt_stdio_output@@AEAAXI@Z 000000018007dc40 f i libucrtd:output.obj
 0001:0007cc70       ?unset_flag@?$output_processor@_WV?$stream_output_adapter@_W@__crt_stdio_output@@V?$standard_base@_WV?$stream_output_adapter@_W@__crt_stdio_output@@@2@@__crt_stdio_output@@AEAAXI@Z 000000018007dc70 f i libucrtd:output.obj
 0001:0007cca0       ?unset_flag@?$output_processor@_WV?$string_output_adapter@_W@__crt_stdio_output@@V?$format_validation_base@_WV?$string_output_adapter@_W@__crt_stdio_output@@@2@@__crt_stdio_output@@AEAAXI@Z 000000018007dca0 f i libucrtd:output.obj
 0001:0007ccd0       ?unset_flag@?$output_processor@_WV?$string_output_adapter@_W@__crt_stdio_output@@V?$positional_parameter_base@_WV?$string_output_adapter@_W@__crt_stdio_output@@@2@@__crt_stdio_output@@AEAAXI@Z 000000018007dcd0 f i libucrtd:output.obj
 0001:0007cd00       ?unset_flag@?$output_processor@_WV?$string_output_adapter@_W@__crt_stdio_output@@V?$standard_base@_WV?$string_output_adapter@_W@__crt_stdio_output@@@2@@__crt_stdio_output@@AEAAXI@Z 000000018007dd00 f i libucrtd:output.obj
 0001:0007cd30       ?update_field_width@?$positional_parameter_base@DV?$stream_output_adapter@D@__crt_stdio_output@@@__crt_stdio_output@@IEAA_NXZ 000000018007dd30 f i libucrtd:output.obj
 0001:0007cf20       ?update_field_width@?$positional_parameter_base@DV?$string_output_adapter@D@__crt_stdio_output@@@__crt_stdio_output@@IEAA_NXZ 000000018007df20 f i libucrtd:output.obj
 0001:0007d110       ?update_field_width@?$positional_parameter_base@_WV?$stream_output_adapter@_W@__crt_stdio_output@@@__crt_stdio_output@@IEAA_NXZ 000000018007e110 f i libucrtd:output.obj
 0001:0007d300       ?update_field_width@?$positional_parameter_base@_WV?$string_output_adapter@_W@__crt_stdio_output@@@__crt_stdio_output@@IEAA_NXZ 000000018007e300 f i libucrtd:output.obj
 0001:0007d4f0       ?update_field_width@?$standard_base@DV?$stream_output_adapter@D@__crt_stdio_output@@@__crt_stdio_output@@IEAA_NXZ 000000018007e4f0 f i libucrtd:output.obj
 0001:0007d520       ?update_field_width@?$standard_base@DV?$string_output_adapter@D@__crt_stdio_output@@@__crt_stdio_output@@IEAA_NXZ 000000018007e520 f i libucrtd:output.obj
 0001:0007d550       ?update_field_width@?$standard_base@_WV?$stream_output_adapter@_W@__crt_stdio_output@@@__crt_stdio_output@@IEAA_NXZ 000000018007e550 f i libucrtd:output.obj
 0001:0007d580       ?update_field_width@?$standard_base@_WV?$string_output_adapter@_W@__crt_stdio_output@@@__crt_stdio_output@@IEAA_NXZ 000000018007e580 f i libucrtd:output.obj
 0001:0007d5b0       ?update_precision@?$positional_parameter_base@DV?$stream_output_adapter@D@__crt_stdio_output@@@__crt_stdio_output@@IEAA_NXZ 000000018007e5b0 f i libucrtd:output.obj
 0001:0007d7a0       ?update_precision@?$positional_parameter_base@DV?$string_output_adapter@D@__crt_stdio_output@@@__crt_stdio_output@@IEAA_NXZ 000000018007e7a0 f i libucrtd:output.obj
 0001:0007d990       ?update_precision@?$positional_parameter_base@_WV?$stream_output_adapter@_W@__crt_stdio_output@@@__crt_stdio_output@@IEAA_NXZ 000000018007e990 f i libucrtd:output.obj
 0001:0007db80       ?update_precision@?$positional_parameter_base@_WV?$string_output_adapter@_W@__crt_stdio_output@@@__crt_stdio_output@@IEAA_NXZ 000000018007eb80 f i libucrtd:output.obj
 0001:0007dd70       ?update_precision@?$standard_base@DV?$stream_output_adapter@D@__crt_stdio_output@@@__crt_stdio_output@@IEAA_NXZ 000000018007ed70 f i libucrtd:output.obj
 0001:0007dda0       ?update_precision@?$standard_base@DV?$string_output_adapter@D@__crt_stdio_output@@@__crt_stdio_output@@IEAA_NXZ 000000018007eda0 f i libucrtd:output.obj
 0001:0007ddd0       ?update_precision@?$standard_base@_WV?$stream_output_adapter@_W@__crt_stdio_output@@@__crt_stdio_output@@IEAA_NXZ 000000018007edd0 f i libucrtd:output.obj
 0001:0007de00       ?update_precision@?$standard_base@_WV?$string_output_adapter@_W@__crt_stdio_output@@@__crt_stdio_output@@IEAA_NXZ 000000018007ee00 f i libucrtd:output.obj
 0001:0007de30       ?valid@__crt_stdio_stream@@QEBA_NXZ 000000018007ee30 f i libucrtd:output.obj
 0001:0007de60       ?validate@?$stream_output_adapter@D@__crt_stdio_output@@QEBA_NXZ 000000018007ee60 f i libucrtd:output.obj
 0001:0007df40       ?validate@?$stream_output_adapter@_W@__crt_stdio_output@@QEBA_NXZ 000000018007ef40 f i libucrtd:output.obj
 0001:0007e020       ?validate@?$string_output_adapter@D@__crt_stdio_output@@QEBA_NXZ 000000018007f020 f i libucrtd:output.obj
 0001:0007e0e0       ?validate@?$string_output_adapter@_W@__crt_stdio_output@@QEBA_NXZ 000000018007f0e0 f i libucrtd:output.obj
 0001:0007e1a0       ?validate_and_store_parameter_data@?$positional_parameter_base@DV?$stream_output_adapter@D@__crt_stdio_output@@@__crt_stdio_output@@AEAA_NAEAUparameter_data@12@W4parameter_type@12@DW4length_modifier@2@@Z 000000018007f1a0 f i libucrtd:output.obj
 0001:0007e2c0       ?validate_and_store_parameter_data@?$positional_parameter_base@DV?$string_output_adapter@D@__crt_stdio_output@@@__crt_stdio_output@@AEAA_NAEAUparameter_data@12@W4parameter_type@12@DW4length_modifier@2@@Z 000000018007f2c0 f i libucrtd:output.obj
 0001:0007e3e0       ?validate_and_store_parameter_data@?$positional_parameter_base@_WV?$stream_output_adapter@_W@__crt_stdio_output@@@__crt_stdio_output@@AEAA_NAEAUparameter_data@12@W4parameter_type@12@_WW4length_modifier@2@@Z 000000018007f3e0 f i libucrtd:output.obj
 0001:0007e500       ?validate_and_store_parameter_data@?$positional_parameter_base@_WV?$string_output_adapter@_W@__crt_stdio_output@@@__crt_stdio_output@@AEAA_NAEAUparameter_data@12@W4parameter_type@12@_WW4length_modifier@2@@Z 000000018007f500 f i libucrtd:output.obj
 0001:0007e620       ?validate_and_update_state_at_beginning_of_format_character@?$positional_parameter_base@DV?$stream_output_adapter@D@__crt_stdio_output@@@__crt_stdio_output@@IEAA_NXZ 000000018007f620 f i libucrtd:output.obj
 0001:0007e900       ?validate_and_update_state_at_beginning_of_format_character@?$positional_parameter_base@DV?$string_output_adapter@D@__crt_stdio_output@@@__crt_stdio_output@@IEAA_NXZ 000000018007f900 f i libucrtd:output.obj
 0001:0007ebe0       ?validate_and_update_state_at_beginning_of_format_character@?$positional_parameter_base@_WV?$stream_output_adapter@_W@__crt_stdio_output@@@__crt_stdio_output@@IEAA_NXZ 000000018007fbe0 f i libucrtd:output.obj
 0001:0007eec0       ?validate_and_update_state_at_beginning_of_format_character@?$positional_parameter_base@_WV?$string_output_adapter@_W@__crt_stdio_output@@@__crt_stdio_output@@IEAA_NXZ 000000018007fec0 f i libucrtd:output.obj
 0001:0007f1a0       ?validate_and_update_state_at_beginning_of_format_character@?$standard_base@DV?$stream_output_adapter@D@__crt_stdio_output@@@__crt_stdio_output@@IEAA_NXZ 00000001800801a0 f i libucrtd:output.obj
 0001:0007f1b0       ?validate_and_update_state_at_beginning_of_format_character@?$standard_base@DV?$string_output_adapter@D@__crt_stdio_output@@@__crt_stdio_output@@IEAA_NXZ 00000001800801b0 f i libucrtd:output.obj
 0001:0007f1c0       ?validate_and_update_state_at_beginning_of_format_character@?$standard_base@_WV?$stream_output_adapter@_W@__crt_stdio_output@@@__crt_stdio_output@@IEAA_NXZ 00000001800801c0 f i libucrtd:output.obj
 0001:0007f1d0       ?validate_and_update_state_at_beginning_of_format_character@?$standard_base@_WV?$string_output_adapter@_W@__crt_stdio_output@@@__crt_stdio_output@@IEAA_NXZ 00000001800801d0 f i libucrtd:output.obj
 0001:0007f1e0       ?validate_and_update_state_at_end_of_format_string@?$format_validation_base@DV?$stream_output_adapter@D@__crt_stdio_output@@@__crt_stdio_output@@IEBA_NXZ 00000001800801e0 f i libucrtd:output.obj
 0001:0007f2a0       ?validate_and_update_state_at_end_of_format_string@?$format_validation_base@DV?$string_output_adapter@D@__crt_stdio_output@@@__crt_stdio_output@@IEBA_NXZ 00000001800802a0 f i libucrtd:output.obj
 0001:0007f360       ?validate_and_update_state_at_end_of_format_string@?$format_validation_base@_WV?$stream_output_adapter@_W@__crt_stdio_output@@@__crt_stdio_output@@IEBA_NXZ 0000000180080360 f i libucrtd:output.obj
 0001:0007f420       ?validate_and_update_state_at_end_of_format_string@?$format_validation_base@_WV?$string_output_adapter@_W@__crt_stdio_output@@@__crt_stdio_output@@IEBA_NXZ 0000000180080420 f i libucrtd:output.obj
 0001:0007f4e0       ?validate_and_update_state_at_end_of_format_string@?$positional_parameter_base@DV?$stream_output_adapter@D@__crt_stdio_output@@@__crt_stdio_output@@IEAA_NXZ 00000001800804e0 f i libucrtd:output.obj
 0001:0007f6d0       ?validate_and_update_state_at_end_of_format_string@?$positional_parameter_base@DV?$string_output_adapter@D@__crt_stdio_output@@@__crt_stdio_output@@IEAA_NXZ 00000001800806d0 f i libucrtd:output.obj
 0001:0007f8c0       ?validate_and_update_state_at_end_of_format_string@?$positional_parameter_base@_WV?$stream_output_adapter@_W@__crt_stdio_output@@@__crt_stdio_output@@IEAA_NXZ 00000001800808c0 f i libucrtd:output.obj
 0001:0007fab0       ?validate_and_update_state_at_end_of_format_string@?$positional_parameter_base@_WV?$string_output_adapter@_W@__crt_stdio_output@@@__crt_stdio_output@@IEAA_NXZ 0000000180080ab0 f i libucrtd:output.obj
 0001:0007fca0       ?validate_and_update_state_at_end_of_format_string@?$standard_base@DV?$stream_output_adapter@D@__crt_stdio_output@@@__crt_stdio_output@@IEBA_NXZ 0000000180080ca0 f i libucrtd:output.obj
 0001:0007fcb0       ?validate_and_update_state_at_end_of_format_string@?$standard_base@DV?$string_output_adapter@D@__crt_stdio_output@@@__crt_stdio_output@@IEBA_NXZ 0000000180080cb0 f i libucrtd:output.obj
 0001:0007fcc0       ?validate_and_update_state_at_end_of_format_string@?$standard_base@_WV?$stream_output_adapter@_W@__crt_stdio_output@@@__crt_stdio_output@@IEBA_NXZ 0000000180080cc0 f i libucrtd:output.obj
 0001:0007fcd0       ?validate_and_update_state_at_end_of_format_string@?$standard_base@_WV?$string_output_adapter@_W@__crt_stdio_output@@@__crt_stdio_output@@IEBA_NXZ 0000000180080cd0 f i libucrtd:output.obj
 0001:0007fce0       ?validate_state_for_type_case_a@?$positional_parameter_base@DV?$stream_output_adapter@D@__crt_stdio_output@@@__crt_stdio_output@@IEAA_NXZ 0000000180080ce0 f i libucrtd:output.obj
 0001:0007fe20       ?validate_state_for_type_case_a@?$positional_parameter_base@DV?$string_output_adapter@D@__crt_stdio_output@@@__crt_stdio_output@@IEAA_NXZ 0000000180080e20 f i libucrtd:output.obj
 0001:0007ff60       ?validate_state_for_type_case_a@?$positional_parameter_base@_WV?$stream_output_adapter@_W@__crt_stdio_output@@@__crt_stdio_output@@IEAA_NXZ 0000000180080f60 f i libucrtd:output.obj
 0001:000800a0       ?validate_state_for_type_case_a@?$positional_parameter_base@_WV?$string_output_adapter@_W@__crt_stdio_output@@@__crt_stdio_output@@IEAA_NXZ 00000001800810a0 f i libucrtd:output.obj
 0001:000801e0       ?validate_state_for_type_case_a@?$standard_base@DV?$stream_output_adapter@D@__crt_stdio_output@@@__crt_stdio_output@@IEBA_NXZ 00000001800811e0 f i libucrtd:output.obj
 0001:000801f0       ?validate_state_for_type_case_a@?$standard_base@DV?$string_output_adapter@D@__crt_stdio_output@@@__crt_stdio_output@@IEBA_NXZ 00000001800811f0 f i libucrtd:output.obj
 0001:00080200       ?validate_state_for_type_case_a@?$standard_base@_WV?$stream_output_adapter@_W@__crt_stdio_output@@@__crt_stdio_output@@IEBA_NXZ 0000000180081200 f i libucrtd:output.obj
 0001:00080210       ?validate_state_for_type_case_a@?$standard_base@_WV?$string_output_adapter@_W@__crt_stdio_output@@@__crt_stdio_output@@IEBA_NXZ 0000000180081210 f i libucrtd:output.obj
 0001:00080220       ?validate_stream_is_ansi_if_required@?$__acrt_stdio_char_traits@D@@SA_NQEAU_iobuf@@@Z 0000000180081220 f i libucrtd:output.obj
 0001:000803b0       ?validate_stream_is_ansi_if_required@?$__acrt_stdio_char_traits@_W@@SA_NQEAU_iobuf@@@Z 00000001800813b0 f i libucrtd:output.obj
 0001:000803c0       ?wide_null_string@?$output_processor@DV?$stream_output_adapter@D@__crt_stdio_output@@V?$format_validation_base@DV?$stream_output_adapter@D@__crt_stdio_output@@@2@@__crt_stdio_output@@CAPEA_WXZ 00000001800813c0 f i libucrtd:output.obj
 0001:000803d0       ?wide_null_string@?$output_processor@DV?$stream_output_adapter@D@__crt_stdio_output@@V?$positional_parameter_base@DV?$stream_output_adapter@D@__crt_stdio_output@@@2@@__crt_stdio_output@@CAPEA_WXZ 00000001800813d0 f i libucrtd:output.obj
 0001:000803e0       ?wide_null_string@?$output_processor@DV?$stream_output_adapter@D@__crt_stdio_output@@V?$standard_base@DV?$stream_output_adapter@D@__crt_stdio_output@@@2@@__crt_stdio_output@@CAPEA_WXZ 00000001800813e0 f i libucrtd:output.obj
 0001:000803f0       ?wide_null_string@?$output_processor@DV?$string_output_adapter@D@__crt_stdio_output@@V?$format_validation_base@DV?$string_output_adapter@D@__crt_stdio_output@@@2@@__crt_stdio_output@@CAPEA_WXZ 00000001800813f0 f i libucrtd:output.obj
 0001:00080400       ?wide_null_string@?$output_processor@DV?$string_output_adapter@D@__crt_stdio_output@@V?$positional_parameter_base@DV?$string_output_adapter@D@__crt_stdio_output@@@2@@__crt_stdio_output@@CAPEA_WXZ 0000000180081400 f i libucrtd:output.obj
 0001:00080410       ?wide_null_string@?$output_processor@DV?$string_output_adapter@D@__crt_stdio_output@@V?$standard_base@DV?$string_output_adapter@D@__crt_stdio_output@@@2@@__crt_stdio_output@@CAPEA_WXZ 0000000180081410 f i libucrtd:output.obj
 0001:00080420       ?wide_null_string@?$output_processor@_WV?$stream_output_adapter@_W@__crt_stdio_output@@V?$format_validation_base@_WV?$stream_output_adapter@_W@__crt_stdio_output@@@2@@__crt_stdio_output@@CAPEA_WXZ 0000000180081420 f i libucrtd:output.obj
 0001:00080430       ?wide_null_string@?$output_processor@_WV?$stream_output_adapter@_W@__crt_stdio_output@@V?$positional_parameter_base@_WV?$stream_output_adapter@_W@__crt_stdio_output@@@2@@__crt_stdio_output@@CAPEA_WXZ 0000000180081430 f i libucrtd:output.obj
 0001:00080440       ?wide_null_string@?$output_processor@_WV?$stream_output_adapter@_W@__crt_stdio_output@@V?$standard_base@_WV?$stream_output_adapter@_W@__crt_stdio_output@@@2@@__crt_stdio_output@@CAPEA_WXZ 0000000180081440 f i libucrtd:output.obj
 0001:00080450       ?wide_null_string@?$output_processor@_WV?$string_output_adapter@_W@__crt_stdio_output@@V?$format_validation_base@_WV?$string_output_adapter@_W@__crt_stdio_output@@@2@@__crt_stdio_output@@CAPEA_WXZ 0000000180081450 f i libucrtd:output.obj
 0001:00080460       ?wide_null_string@?$output_processor@_WV?$string_output_adapter@_W@__crt_stdio_output@@V?$positional_parameter_base@_WV?$string_output_adapter@_W@__crt_stdio_output@@@2@@__crt_stdio_output@@CAPEA_WXZ 0000000180081460 f i libucrtd:output.obj
 0001:00080470       ?wide_null_string@?$output_processor@_WV?$string_output_adapter@_W@__crt_stdio_output@@V?$standard_base@_WV?$string_output_adapter@_W@__crt_stdio_output@@@2@@__crt_stdio_output@@CAPEA_WXZ 0000000180081470 f i libucrtd:output.obj
 0001:00080480       ?write_character@?$output_adapter_common@DV?$stream_output_adapter@D@__crt_stdio_output@@@__crt_stdio_output@@QEBAXDQEAH@Z 0000000180081480 f i libucrtd:output.obj
 0001:000804d0       ?write_character@?$output_adapter_common@_WV?$stream_output_adapter@_W@__crt_stdio_output@@@__crt_stdio_output@@QEBAX_WQEAH@Z 00000001800814d0 f i libucrtd:output.obj
 0001:00080520       ?write_character@?$string_output_adapter@D@__crt_stdio_output@@QEBA_NDQEAH@Z 0000000180081520 f i libucrtd:output.obj
 0001:000805e0       ?write_character@?$string_output_adapter@_W@__crt_stdio_output@@QEBA_N_WQEAH@Z 00000001800815e0 f i libucrtd:output.obj
 0001:000806a0       ?write_character_without_count_update@?$stream_output_adapter@D@__crt_stdio_output@@QEBA_ND@Z 00000001800816a0 f i libucrtd:output.obj
 0001:00080720       ?write_character_without_count_update@?$stream_output_adapter@_W@__crt_stdio_output@@QEBA_N_W@Z 0000000180081720 f i libucrtd:output.obj
 0001:000807b0       ?write_stored_string_tchar@?$output_processor@DV?$stream_output_adapter@D@__crt_stdio_output@@V?$format_validation_base@DV?$stream_output_adapter@D@__crt_stdio_output@@@2@@__crt_stdio_output@@AEAA_ND@Z 00000001800817b0 f i libucrtd:output.obj
 0001:00080960       ?write_stored_string_tchar@?$output_processor@DV?$stream_output_adapter@D@__crt_stdio_output@@V?$positional_parameter_base@DV?$stream_output_adapter@D@__crt_stdio_output@@@2@@__crt_stdio_output@@AEAA_ND@Z 0000000180081960 f i libucrtd:output.obj
 0001:00080b10       ?write_stored_string_tchar@?$output_processor@DV?$stream_output_adapter@D@__crt_stdio_output@@V?$standard_base@DV?$stream_output_adapter@D@__crt_stdio_output@@@2@@__crt_stdio_output@@AEAA_ND@Z 0000000180081b10 f i libucrtd:output.obj
 0001:00080cc0       ?write_stored_string_tchar@?$output_processor@DV?$string_output_adapter@D@__crt_stdio_output@@V?$format_validation_base@DV?$string_output_adapter@D@__crt_stdio_output@@@2@@__crt_stdio_output@@AEAA_ND@Z 0000000180081cc0 f i libucrtd:output.obj
 0001:00080e70       ?write_stored_string_tchar@?$output_processor@DV?$string_output_adapter@D@__crt_stdio_output@@V?$positional_parameter_base@DV?$string_output_adapter@D@__crt_stdio_output@@@2@@__crt_stdio_output@@AEAA_ND@Z 0000000180081e70 f i libucrtd:output.obj
 0001:00081020       ?write_stored_string_tchar@?$output_processor@DV?$string_output_adapter@D@__crt_stdio_output@@V?$standard_base@DV?$string_output_adapter@D@__crt_stdio_output@@@2@@__crt_stdio_output@@AEAA_ND@Z 0000000180082020 f i libucrtd:output.obj
 0001:000811d0       ?write_stored_string_tchar@?$output_processor@_WV?$stream_output_adapter@_W@__crt_stdio_output@@V?$format_validation_base@_WV?$stream_output_adapter@_W@__crt_stdio_output@@@2@@__crt_stdio_output@@AEAA_N_W@Z 00000001800821d0 f i libucrtd:output.obj
 0001:00081320       ?write_stored_string_tchar@?$output_processor@_WV?$stream_output_adapter@_W@__crt_stdio_output@@V?$positional_parameter_base@_WV?$stream_output_adapter@_W@__crt_stdio_output@@@2@@__crt_stdio_output@@AEAA_N_W@Z 0000000180082320 f i libucrtd:output.obj
 0001:00081470       ?write_stored_string_tchar@?$output_processor@_WV?$stream_output_adapter@_W@__crt_stdio_output@@V?$standard_base@_WV?$stream_output_adapter@_W@__crt_stdio_output@@@2@@__crt_stdio_output@@AEAA_N_W@Z 0000000180082470 f i libucrtd:output.obj
 0001:000815c0       ?write_stored_string_tchar@?$output_processor@_WV?$string_output_adapter@_W@__crt_stdio_output@@V?$format_validation_base@_WV?$string_output_adapter@_W@__crt_stdio_output@@@2@@__crt_stdio_output@@AEAA_N_W@Z 00000001800825c0 f i libucrtd:output.obj
 0001:00081710       ?write_stored_string_tchar@?$output_processor@_WV?$string_output_adapter@_W@__crt_stdio_output@@V?$positional_parameter_base@_WV?$string_output_adapter@_W@__crt_stdio_output@@@2@@__crt_stdio_output@@AEAA_N_W@Z 0000000180082710 f i libucrtd:output.obj
 0001:00081860       ?write_stored_string_tchar@?$output_processor@_WV?$string_output_adapter@_W@__crt_stdio_output@@V?$standard_base@_WV?$string_output_adapter@_W@__crt_stdio_output@@@2@@__crt_stdio_output@@AEAA_N_W@Z 0000000180082860 f i libucrtd:output.obj
 0001:000819b0       ?write_string@?$stream_output_adapter@D@__crt_stdio_output@@QEBAXQEBDHQEAHAEAV__crt_deferred_errno_cache@@@Z 00000001800829b0 f i libucrtd:output.obj
 0001:00081a30       ?write_string@?$stream_output_adapter@_W@__crt_stdio_output@@QEBAXQEB_WHQEAHAEAV__crt_deferred_errno_cache@@@Z 0000000180082a30 f i libucrtd:output.obj
 0001:00081ab0       ?write_string@?$string_output_adapter@D@__crt_stdio_output@@QEBAXQEBDHQEAHAEAV__crt_deferred_errno_cache@@@Z 0000000180082ab0 f i libucrtd:output.obj
 0001:00081c20       ?write_string@?$string_output_adapter@_W@__crt_stdio_output@@QEBAXQEB_WHQEAHAEAV__crt_deferred_errno_cache@@@Z 0000000180082c20 f i libucrtd:output.obj
 0001:00081d90       ?write_string_impl@?$output_adapter_common@DV?$stream_output_adapter@D@__crt_stdio_output@@@__crt_stdio_output@@IEBAXQEBDHQEAHAEAV__crt_deferred_errno_cache@@@Z 0000000180082d90 f i libucrtd:output.obj
 0001:00081e70       ?write_string_impl@?$output_adapter_common@_WV?$stream_output_adapter@_W@__crt_stdio_output@@@__crt_stdio_output@@IEBAXQEB_WHQEAHAEAV__crt_deferred_errno_cache@@@Z 0000000180082e70 f i libucrtd:output.obj
 0001:00081f50       __acrt_isleadbyte_l_noupdate 0000000180082f50 f i libucrtd:output.obj
 0001:00081f80       __acrt_locale_changed      0000000180082f80 f i libucrtd:output.obj
 0001:00081fb0       __acrt_locale_get_ctype_array_value 0000000180082fb0 f i libucrtd:output.obj
 0001:00081ff0       __stdio_common_vfprintf    0000000180082ff0 f   libucrtd:output.obj
 0001:00082030       __stdio_common_vfprintf_p  0000000180083030 f   libucrtd:output.obj
 0001:00082070       __stdio_common_vfprintf_s  0000000180083070 f   libucrtd:output.obj
 0001:000820b0       __stdio_common_vfwprintf   00000001800830b0 f   libucrtd:output.obj
 0001:000820f0       __stdio_common_vfwprintf_p 00000001800830f0 f   libucrtd:output.obj
 0001:00082130       __stdio_common_vfwprintf_s 0000000180083130 f   libucrtd:output.obj
 0001:00082170       __stdio_common_vsnprintf_s 0000000180083170 f   libucrtd:output.obj
 0001:000821d0       __stdio_common_vsnwprintf_s 00000001800831d0 f   libucrtd:output.obj
 0001:00082230       __stdio_common_vsprintf    0000000180083230 f   libucrtd:output.obj
 0001:00082280       __stdio_common_vsprintf_p  0000000180083280 f   libucrtd:output.obj
 0001:000822d0       __stdio_common_vsprintf_s  00000001800832d0 f   libucrtd:output.obj
 0001:00082320       __stdio_common_vswprintf   0000000180083320 f   libucrtd:output.obj
 0001:00082370       __stdio_common_vswprintf_p 0000000180083370 f   libucrtd:output.obj
 0001:000823c0       __stdio_common_vswprintf_s 00000001800833c0 f   libucrtd:output.obj
 0001:00082410       _ctype_fast_check_internal 0000000180083410 f i libucrtd:output.obj
 0001:00082440       _isdigit_fast_internal     0000000180083440 f i libucrtd:output.obj
 0001:00082470       _tolower_fast_internal     0000000180083470 f i libucrtd:output.obj
 0001:000824a0       free                       00000001800834a0 f   libucrtd:free.obj
 0001:000824d0       malloc                     00000001800834d0 f   libucrtd:malloc.obj
 0001:00082500       ??$?RU?$__crt_report_hook_node@D@@@__crt_internal_free_policy@@QEBAXQEBU?$__crt_report_hook_node@D@@@Z 0000000180083500 f i libucrtd:dbgrpt.obj
 0001:00082530       ??$?RU?$__crt_report_hook_node@_W@@@__crt_internal_free_policy@@QEBAXQEBU?$__crt_report_hook_node@_W@@@Z 0000000180083530 f i libucrtd:dbgrpt.obj
 0001:00083770       ??$get_module_file_name@AEAPEAUHINSTANCE__@@AEAY0BAF@DK@?$__crt_char_traits@D@@SAKAEAPEAUHINSTANCE__@@AEAY0BAF@D$$QEAK@Z 0000000180084770 f i libucrtd:dbgrpt.obj
 0001:000837b0       ??$get_module_file_name@AEAPEAUHINSTANCE__@@AEAY0BAF@_WK@?$__crt_char_traits@_W@@SAKAEAPEAUHINSTANCE__@@AEAY0BAF@_W$$QEAK@Z 00000001800847b0 f i libucrtd:dbgrpt.obj
 0001:000837f0       ??$tcscpy_s@AEAY0BAF@D_KPEBD@?$__crt_char_traits@D@@SAHAEAY0BAF@D$$QEA_K$$QEAPEBD@Z 00000001800847f0 f i libucrtd:dbgrpt.obj
 0001:00083830       ??$tcscpy_s@AEAY0BAF@_W_KPEB_W@?$__crt_char_traits@_W@@SAHAEAY0BAF@_W$$QEA_K$$QEAPEB_W@Z 0000000180084830 f i libucrtd:dbgrpt.obj
 0001:00083870       ??$tcslen@AEAY0BAF@D@?$__crt_char_traits@D@@SA_KAEAY0BAF@D@Z 0000000180084870 f i libucrtd:dbgrpt.obj
 0001:00083890       ??$tcslen@AEAY0BAF@_W@?$__crt_char_traits@_W@@SA_KAEAY0BAF@_W@Z 0000000180084890 f i libucrtd:dbgrpt.obj
 0001:000838b0       ??$tcslen@AEBQEBD@?$__crt_char_traits@D@@SA_KAEBQEBD@Z 00000001800848b0 f i libucrtd:dbgrpt.obj
 0001:000838d0       ??$tcslen@AEBQEB_W@?$__crt_char_traits@_W@@SA_KAEBQEB_W@Z 00000001800848d0 f i libucrtd:dbgrpt.obj
 0001:000839d0       ??0?$__crt_unique_heap_ptr@U?$__crt_report_hook_node@D@@U__crt_internal_free_policy@@@@QEAA@QEAU?$__crt_report_hook_node@D@@@Z 00000001800849d0 f i libucrtd:dbgrpt.obj
 0001:000839f0       ??0?$__crt_unique_heap_ptr@U?$__crt_report_hook_node@_W@@U__crt_internal_free_policy@@@@QEAA@QEAU?$__crt_report_hook_node@_W@@@Z 00000001800849f0 f i libucrtd:dbgrpt.obj
 0001:00083a10       ??1?$__crt_unique_heap_ptr@U?$__crt_report_hook_node@D@@U__crt_internal_free_policy@@@@QEAA@XZ 0000000180084a10 f i libucrtd:dbgrpt.obj
 0001:00083a30       ??1?$__crt_unique_heap_ptr@U?$__crt_report_hook_node@_W@@U__crt_internal_free_policy@@@@QEAA@XZ 0000000180084a30 f i libucrtd:dbgrpt.obj
 0001:00083a50       ??B?$__crt_unique_heap_ptr@U?$__crt_report_hook_node@D@@U__crt_internal_free_policy@@@@QEBA_NXZ 0000000180084a50 f i libucrtd:dbgrpt.obj
 0001:00083a70       ??B?$__crt_unique_heap_ptr@U?$__crt_report_hook_node@_W@@U__crt_internal_free_policy@@@@QEBA_NXZ 0000000180084a70 f i libucrtd:dbgrpt.obj
 0001:00084150       ?detach@?$__crt_unique_heap_ptr@U?$__crt_report_hook_node@D@@U__crt_internal_free_policy@@@@QEAAPEAU?$__crt_report_hook_node@D@@XZ 0000000180085150 f i libucrtd:dbgrpt.obj
 0001:00084180       ?detach@?$__crt_unique_heap_ptr@U?$__crt_report_hook_node@_W@@U__crt_internal_free_policy@@@@QEAAPEAU?$__crt_report_hook_node@_W@@XZ 0000000180085180 f i libucrtd:dbgrpt.obj
 0001:000841b0       ?get@?$__crt_unique_heap_ptr@U?$__crt_report_hook_node@D@@U__crt_internal_free_policy@@@@QEBAPEAU?$__crt_report_hook_node@D@@XZ 00000001800851b0 f i libucrtd:dbgrpt.obj
 0001:000841c0       ?get@?$__crt_unique_heap_ptr@U?$__crt_report_hook_node@_W@@U__crt_internal_free_policy@@@@QEBAPEAU?$__crt_report_hook_node@_W@@XZ 00000001800851c0 f i libucrtd:dbgrpt.obj
 0001:00084230       ?is_valid@?$__crt_unique_heap_ptr@U?$__crt_report_hook_node@D@@U__crt_internal_free_policy@@@@QEBA_NXZ 0000000180085230 f i libucrtd:dbgrpt.obj
 0001:00084260       ?is_valid@?$__crt_unique_heap_ptr@U?$__crt_report_hook_node@_W@@U__crt_internal_free_policy@@@@QEBA_NXZ 0000000180085260 f i libucrtd:dbgrpt.obj
 0001:00084290       ?release@?$__crt_unique_heap_ptr@U?$__crt_report_hook_node@D@@U__crt_internal_free_policy@@@@QEAAXXZ 0000000180085290 f i libucrtd:dbgrpt.obj
 0001:000842c0       ?release@?$__crt_unique_heap_ptr@U?$__crt_report_hook_node@_W@@U__crt_internal_free_policy@@@@QEAAXXZ 00000001800852c0 f i libucrtd:dbgrpt.obj
 0001:000842f0       _CrtDbgReport              00000001800852f0 f   libucrtd:dbgrpt.obj
 0001:00084370       _CrtDbgReportW             0000000180085370 f   libucrtd:dbgrpt.obj
 0001:000843f0       _CrtSetReportHook2         00000001800853f0 f   libucrtd:dbgrpt.obj
 0001:00084410       _CrtSetReportHookW2        0000000180085410 f   libucrtd:dbgrpt.obj
 0001:00084430       __acrt_MessageWindowA      0000000180085430 f   libucrtd:dbgrpt.obj
 0001:00084480       __acrt_MessageWindowW      0000000180085480 f   libucrtd:dbgrpt.obj
 0001:000844d0       _invoke_watson_if_error    00000001800854d0 f i libucrtd:dbgrpt.obj
 0001:00084520       _invoke_watson_if_oneof    0000000180085520 f i libucrtd:dbgrpt.obj
 0001:00084580       _snwprintf_s               0000000180085580 f i libucrtd:dbgrpt.obj
 0001:000845f0       _vsnwprintf_s_l            00000001800855f0 f i libucrtd:dbgrpt.obj
 0001:00084b50       wcscpy_s                   0000000180085b50 f   libucrtd:wcscpy_s.obj
 0001:00085ee0       ??1?$__crt_simd_cleanup_guard@$00@@QEAA@XZ 0000000180086ee0 f i libucrtd:strnlen.obj
 0001:00085ef0       ??1?$__crt_simd_cleanup_guard@$0A@@@QEAA@XZ 0000000180086ef0 f i libucrtd:strnlen.obj
 0001:00085f00       ?compare_equals@?$__crt_simd_traits@$00E@@SA?AT__m256i@@T2@0@Z 0000000180086f00 f i libucrtd:strnlen.obj
 0001:00085f40       ?compare_equals@?$__crt_simd_traits@$00G@@SA?AT__m256i@@T2@0@Z 0000000180086f40 f i libucrtd:strnlen.obj
 0001:00085f80       ?compare_equals@?$__crt_simd_traits@$0A@E@@SA?AT__m128i@@T2@0@Z 0000000180086f80 f i libucrtd:strnlen.obj
 0001:00085fb0       ?compare_equals@?$__crt_simd_traits@$0A@G@@SA?AT__m128i@@T2@0@Z 0000000180086fb0 f i libucrtd:strnlen.obj
 0001:00085fe0       ?compute_byte_mask@?$__crt_simd_pack_traits@$00@@SAHT__m256i@@@Z 0000000180086fe0 f i libucrtd:strnlen.obj
 0001:00086000       ?compute_byte_mask@?$__crt_simd_pack_traits@$0A@@@SAHT__m128i@@@Z 0000000180087000 f i libucrtd:strnlen.obj
 0001:00086020       ?get_zero_pack@?$__crt_simd_pack_traits@$00@@SA?AT__m256i@@XZ 0000000180087020 f i libucrtd:strnlen.obj
 0001:00086050       ?get_zero_pack@?$__crt_simd_pack_traits@$0A@@@SA?AT__m128i@@XZ 0000000180087050 f i libucrtd:strnlen.obj
 0001:00086070       strnlen                    0000000180087070 f   libucrtd:strnlen.obj
 0001:000860a0       wcslen                     00000001800870a0 f   libucrtd:strnlen.obj
 0001:000860c0       wcsnlen                    00000001800870c0 f   libucrtd:strnlen.obj
 0001:000860f0       ??$__crt_fast_decode_pointer@P6AXPEB_W00I_K@Z@@YAP6AXPEB_W00I_K@ZQ6AX000I1@Z@Z 00000001800870f0 f i libucrtd:invalid_parameter.obj
 0001:00086130       ??$__crt_fast_encode_pointer@P6AXPEB_W00I_K@Z@@YAP6AXPEB_W00I_K@ZQ6AX000I1@Z@Z 0000000180087130 f i libucrtd:invalid_parameter.obj
 0001:00086170       ??$initialize_from_array@$$BY00Q6AXPEB_W00I_K@Z@?$dual_state_global@P6AXPEB_W00I_K@Z@__crt_state_management@@QEAAXAEAY00Q6AXPEB_W00I_K@Z@Z 0000000180087170 f i libucrtd:invalid_parameter.obj
 0001:000861d0       ?__crt_rotate_pointer_value@@YA_K_KH@Z 00000001800871d0 f i libucrtd:invalid_parameter.obj
 0001:00086290       ?dangerous_get_state_array@?$dual_state_global@P6AXPEB_W00I_K@Z@__crt_state_management@@QEAAPEAP6AXPEB_W00I_K@ZXZ 0000000180087290 f i libucrtd:invalid_parameter.obj
 0001:000862a0       ?get_current_state_index@__crt_state_management@@YA_KXZ 00000001800872a0 f i libucrtd:invalid_parameter.obj
 0001:000862b0       ?value@?$dual_state_global@P6AXPEB_W00I_K@Z@__crt_state_management@@QEAAAEAP6AXPEB_W00I_K@ZXZ 00000001800872b0 f i libucrtd:invalid_parameter.obj
 0001:000862d0       __acrt_call_reportfault    00000001800872d0 f   libucrtd:invalid_parameter.obj
 0001:00086400       __acrt_initialize_invalid_parameter_handler 0000000180087400 f   libucrtd:invalid_parameter.obj
 0001:00086430       _get_invalid_parameter_handler 0000000180087430 f   libucrtd:invalid_parameter.obj
 0001:00086450       _get_thread_local_invalid_parameter_handler 0000000180087450 f   libucrtd:invalid_parameter.obj
 0001:00086480       _invalid_parameter         0000000180087480 f   libucrtd:invalid_parameter.obj
 0001:00086580       _invalid_parameter_noinfo  0000000180087580 f   libucrtd:invalid_parameter.obj
 0001:000865b0       _invalid_parameter_noinfo_noreturn 00000001800875b0 f   libucrtd:invalid_parameter.obj
 0001:000865f0       _invoke_watson             00000001800875f0 f   libucrtd:invalid_parameter.obj
 0001:00086650       _set_invalid_parameter_handler 0000000180087650 f   libucrtd:invalid_parameter.obj
 0001:000866a0       _set_thread_local_invalid_parameter_handler 00000001800876a0 f   libucrtd:invalid_parameter.obj
 0001:000866e0       __acrt_errno_from_os_error 00000001800876e0 f   libucrtd:errno.obj
 0001:00086770       __acrt_errno_map_os_error  0000000180087770 f   libucrtd:errno.obj
 0001:000867a0       __doserrno                 00000001800877a0 f   libucrtd:errno.obj
 0001:000867d0       _errno                     00000001800877d0 f   libucrtd:errno.obj
 0001:00086800       _get_doserrno              0000000180087800 f   libucrtd:errno.obj
 0001:000868c0       _get_errno                 00000001800878c0 f   libucrtd:errno.obj
 0001:00086980       _set_doserrno              0000000180087980 f   libucrtd:errno.obj
 0001:000869c0       _set_errno                 00000001800879c0 f   libucrtd:errno.obj
 0001:00086a00       calloc                     0000000180087a00 f   libucrtd:calloc.obj
 0001:00086a40       _recalloc                  0000000180087a40 f   libucrtd:recalloc.obj
 0001:00086a90       _recalloc_base             0000000180087a90 f   libucrtd:recalloc.obj
 0001:00086b6c       _resetstkoflw              0000000180087b6c f   libucrtd:resetstk.obj
 0001:00087320       wcscat_s                   0000000180088320 f   libucrtd:wcscat_s.obj
 0001:000879f0       wcsncpy_s                  00000001800889f0 f   libucrtd:wcsncpy_s.obj
 0001:00087a50       __acrt_get_locale_data_prefix 0000000180088a50 f i libucrtd:_ctype.obj
 0001:00087a70       __isascii                  0000000180088a70 f i libucrtd:_ctype.obj
 0001:00087aa0       __iscsym                   0000000180088aa0 f i libucrtd:_ctype.obj
 0001:00087ae0       __iscsymf                  0000000180088ae0 f i libucrtd:_ctype.obj
 0001:00087b20       __toascii                  0000000180088b20 f i libucrtd:_ctype.obj
 0001:00087b30       _chvalidchk_l              0000000180088b30 f i libucrtd:_ctype.obj
 0001:00087b60       _isalnum_l                 0000000180088b60 f i libucrtd:_ctype.obj
 0001:00087bb0       _isalpha_l                 0000000180088bb0 f i libucrtd:_ctype.obj
 0001:00087c00       _isblank_l                 0000000180088c00 f i libucrtd:_ctype.obj
 0001:00087c70       _ischartype_l              0000000180088c70 f i libucrtd:_ctype.obj
 0001:00087d00       _iscntrl_l                 0000000180088d00 f i libucrtd:_ctype.obj
 0001:00087d50       _iscsym_l                  0000000180088d50 f i libucrtd:_ctype.obj
 0001:00087da0       _iscsymf_l                 0000000180088da0 f i libucrtd:_ctype.obj
 0001:00087df0       _isdigit_l                 0000000180088df0 f i libucrtd:_ctype.obj
 0001:00087e40       _isgraph_l                 0000000180088e40 f i libucrtd:_ctype.obj
 0001:00087e90       _islower_l                 0000000180088e90 f i libucrtd:_ctype.obj
 0001:00087ee0       _isprint_l                 0000000180088ee0 f i libucrtd:_ctype.obj
 0001:00087f30       _ispunct_l                 0000000180088f30 f i libucrtd:_ctype.obj
 0001:00087f80       _isspace_l                 0000000180088f80 f i libucrtd:_ctype.obj
 0001:00087fd0       _isupper_l                 0000000180088fd0 f i libucrtd:_ctype.obj
 0001:00088020       _isxdigit_l                0000000180089020 f i libucrtd:_ctype.obj
 0001:00088070       isalnum                    0000000180089070 f i libucrtd:_ctype.obj
 0001:000880b0       isalpha                    00000001800890b0 f i libucrtd:_ctype.obj
 0001:000880f0       isblank                    00000001800890f0 f i libucrtd:_ctype.obj
 0001:00088150       iscntrl                    0000000180089150 f i libucrtd:_ctype.obj
 0001:00088190       isdigit                    0000000180089190 f i libucrtd:_ctype.obj
 0001:000881d0       isgraph                    00000001800891d0 f i libucrtd:_ctype.obj
 0001:00088210       islower                    0000000180089210 f i libucrtd:_ctype.obj
 0001:00088250       isprint                    0000000180089250 f i libucrtd:_ctype.obj
 0001:00088290       ispunct                    0000000180089290 f i libucrtd:_ctype.obj
 0001:000882d0       isspace                    00000001800892d0 f i libucrtd:_ctype.obj
 0001:00088310       isupper                    0000000180089310 f i libucrtd:_ctype.obj
 0001:00088350       isxdigit                   0000000180089350 f i libucrtd:_ctype.obj
 0001:00088390       wcscat                     0000000180089390 f   libucrtd:wcscat.obj
 0001:00088410       wcscpy                     0000000180089410 f   libucrtd:wcscpy.obj
 0001:00088bc0       ??$open_file@AEBQEBDAEBQEBDAEBHPEAU_iobuf@@@?$__crt_char_traits@D@@SAPEAU_iobuf@@AEBQEBD0AEBH$$QEAPEAU1@@Z 0000000180089bc0 f i libucrtd:fopen.obj
 0001:00088c10       ??$open_file@AEBQEB_WAEBQEB_WAEBHPEAU_iobuf@@@?$__crt_char_traits@_W@@SAPEAU_iobuf@@AEBQEB_W0AEBH$$QEAPEAU1@@Z 0000000180089c10 f i libucrtd:fopen.obj
 0001:00088c60       ?unlock@__crt_stdio_stream@@QEBAXXZ 0000000180089c60 f i libucrtd:fopen.obj
 0001:00088c80       _fsopen                    0000000180089c80 f   libucrtd:fopen.obj
 0001:00088cb0       _wfopen                    0000000180089cb0 f   libucrtd:fopen.obj
 0001:00088ce0       _wfopen_s                  0000000180089ce0 f   libucrtd:fopen.obj
 0001:00088d10       _wfsopen                   0000000180089d10 f   libucrtd:fopen.obj
 0001:00088d40       fopen                      0000000180089d40 f   libucrtd:fopen.obj
 0001:00088d70       fopen_s                    0000000180089d70 f   libucrtd:fopen.obj
 0001:00088da0       ?is_in_use@__crt_stdio_stream@@QEBA_NXZ 0000000180089da0 f i libucrtd:fclose.obj
 0001:00088de0       _fclose_nolock             0000000180089de0 f   libucrtd:fclose.obj
 0001:00088f70       fclose                     0000000180089f70 f   libucrtd:fclose.obj
 0001:000890b0       _fputc_nolock              000000018008a0b0 f   libucrtd:fputc.obj
 0001:00089160       _fputchar                  000000018008a160 f   libucrtd:fputc.obj
 0001:00089190       _putc_nolock               000000018008a190 f   libucrtd:fputc.obj
 0001:000891b0       fputc                      000000018008a1b0 f   libucrtd:fputc.obj
 0001:00089450       putc                       000000018008a450 f   libucrtd:fputc.obj
 0001:00089470       putchar                    000000018008a470 f   libucrtd:fputc.obj
 0001:00089500       _seh_filter_dll            000000018008a500 f   libucrtd:exception_filter.obj
 0001:00089530       _seh_filter_exe            000000018008a530 f   libucrtd:exception_filter.obj
 0001:000897d0       ??$?B$$A6AXPEAXK0@Z@__crt_fast_encoded_nullptr_t@@QEBAP6AXPEAXK0@ZXZ 000000018008a7d0 f i libucrtd:exit.obj
 0001:00089880       ??$__crt_fast_decode_pointer@P6AXPEAXK0@Z@@YAP6AXPEAXK0@ZQ6AX0K0@Z@Z 000000018008a880 f i libucrtd:exit.obj
 0001:000898c0       ??$__crt_fast_encode_pointer@P6AXPEAXK0@Z@@YAP6AXPEAXK0@ZQ6AX0K0@Z@Z 000000018008a8c0 f i libucrtd:exit.obj
 0001:00089900       ??$__crt_get_proc_address@P6AXI@Z@@YAP6AXI@ZQEAUHINSTANCE__@@QEBD@Z 000000018008a900 f i libucrtd:exit.obj
 0001:000899c0       ??0?$__crt_unique_handle_t@U__crt_hmodule_traits@@@@QEAA@QEAUHINSTANCE__@@@Z 000000018008a9c0 f i libucrtd:exit.obj
 0001:000899e0       ??1?$__crt_unique_handle_t@U__crt_hmodule_traits@@@@QEAA@XZ 000000018008a9e0 f i libucrtd:exit.obj
 0001:00089b40       ?__acrt_select_exit_lock@@YA?AW4__acrt_lock_id@@XZ 000000018008ab40 f i libucrtd:exit.obj
 0001:00089b50       ?__crt_fast_encode_pointer@@YA?AU__crt_fast_encoded_nullptr_t@@$$T@Z 000000018008ab50 f i libucrtd:exit.obj
 0001:00089b90       ?close@?$__crt_unique_handle_t@U__crt_hmodule_traits@@@@QEAAXXZ 000000018008ab90 f i libucrtd:exit.obj
 0001:00089bd0       ?close@__crt_hmodule_traits@@SA_NPEAUHINSTANCE__@@@Z 000000018008abd0 f i libucrtd:exit.obj
 0001:00089ce0       ?get@?$__crt_unique_handle_t@U__crt_hmodule_traits@@@@QEBAPEAUHINSTANCE__@@XZ 000000018008ace0 f i libucrtd:exit.obj
 0001:00089cf0       ?get_address_of@?$__crt_unique_handle_t@U__crt_hmodule_traits@@@@QEAAPEAPEAUHINSTANCE__@@XZ 000000018008acf0 f i libucrtd:exit.obj
 0001:00089d00       ?get_invalid_value@__crt_hmodule_traits@@SAPEAUHINSTANCE__@@XZ 000000018008ad00 f i libucrtd:exit.obj
 0001:00089ec0       _Exit                      000000018008aec0 f   libucrtd:exit.obj
 0001:00089ee0       __acrt_initialize_thread_local_exit_callback 000000018008aee0 f   libucrtd:exit.obj
 0001:00089f00       _c_exit                    000000018008af00 f   libucrtd:exit.obj
 0001:00089f20       _cexit                     000000018008af20 f   libucrtd:exit.obj
 0001:00089f40       _exit                      000000018008af40 f   libucrtd:exit.obj
 0001:00089f60       _is_c_termination_complete 000000018008af60 f   libucrtd:exit.obj
 0001:00089f80       _register_thread_local_exe_atexit_callback 000000018008af80 f   libucrtd:exit.obj
 0001:00089fd0       exit                       000000018008afd0 f   libucrtd:exit.obj
 0001:00089ff0       quick_exit                 000000018008aff0 f   libucrtd:exit.obj
 0001:0008a010       ??$?RE@__crt_internal_free_policy@@QEBAXQEBE@Z 000000018008b010 f i libucrtd:argv_parsing.obj
 0001:0008a040       ??$?RPEAD@__crt_internal_free_policy@@QEBAXQEBQEAD@Z 000000018008b040 f i libucrtd:argv_parsing.obj
 0001:0008a070       ??$?RPEA_W@__crt_internal_free_policy@@QEBAXQEBQEA_W@Z 000000018008b070 f i libucrtd:argv_parsing.obj
 0001:0008a7c0       ??$get_module_file_name@$$TAEAY0BAF@DH@?$__crt_char_traits@D@@SAK$$QEA$$TAEAY0BAF@D$$QEAH@Z 000000018008b7c0 f i libucrtd:argv_parsing.obj
 0001:0008a800       ??$get_module_file_name@$$TAEAY0BAF@_WH@?$__crt_char_traits@_W@@SAK$$QEA$$TAEAY0BAF@_W$$QEAH@Z 000000018008b800 f i libucrtd:argv_parsing.obj
 0001:0008b1b0       ??$set_program_name@PEAD@?$__crt_char_traits@D@@SAX$$QEAPEAD@Z 000000018008c1b0 f i libucrtd:argv_parsing.obj
 0001:0008b1d0       ??$set_program_name@PEA_W@?$__crt_char_traits@_W@@SAX$$QEAPEA_W@Z 000000018008c1d0 f i libucrtd:argv_parsing.obj
 0001:0008b230       ??0?$__crt_unique_heap_ptr@EU__crt_internal_free_policy@@@@QEAA@QEAE@Z 000000018008c230 f i libucrtd:argv_parsing.obj
 0001:0008b250       ??0?$__crt_unique_heap_ptr@PEADU__crt_internal_free_policy@@@@QEAA@QEAPEAD@Z 000000018008c250 f i libucrtd:argv_parsing.obj
 0001:0008b270       ??0?$__crt_unique_heap_ptr@PEA_WU__crt_internal_free_policy@@@@QEAA@QEAPEA_W@Z 000000018008c270 f i libucrtd:argv_parsing.obj
 0001:0008b290       ??1?$__crt_unique_heap_ptr@EU__crt_internal_free_policy@@@@QEAA@XZ 000000018008c290 f i libucrtd:argv_parsing.obj
 0001:0008b2b0       ??1?$__crt_unique_heap_ptr@PEADU__crt_internal_free_policy@@@@QEAA@XZ 000000018008c2b0 f i libucrtd:argv_parsing.obj
 0001:0008b2d0       ??1?$__crt_unique_heap_ptr@PEA_WU__crt_internal_free_policy@@@@QEAA@XZ 000000018008c2d0 f i libucrtd:argv_parsing.obj
 0001:0008b2f0       ??B?$__crt_unique_heap_ptr@EU__crt_internal_free_policy@@@@QEBA_NXZ 000000018008c2f0 f i libucrtd:argv_parsing.obj
 0001:0008b3d0       ?detach@?$__crt_unique_heap_ptr@EU__crt_internal_free_policy@@@@QEAAPEAEXZ 000000018008c3d0 f i libucrtd:argv_parsing.obj
 0001:0008b400       ?detach@?$__crt_unique_heap_ptr@PEADU__crt_internal_free_policy@@@@QEAAPEAPEADXZ 000000018008c400 f i libucrtd:argv_parsing.obj
 0001:0008b430       ?detach@?$__crt_unique_heap_ptr@PEA_WU__crt_internal_free_policy@@@@QEAAPEAPEA_WXZ 000000018008c430 f i libucrtd:argv_parsing.obj
 0001:0008b4f0       ?get@?$__crt_unique_heap_ptr@EU__crt_internal_free_policy@@@@QEBAPEAEXZ 000000018008c4f0 f i libucrtd:argv_parsing.obj
 0001:0008b500       ?get@?$__crt_unique_heap_ptr@PEADU__crt_internal_free_policy@@@@QEBAPEAPEADXZ 000000018008c500 f i libucrtd:argv_parsing.obj
 0001:0008b510       ?get@?$__crt_unique_heap_ptr@PEA_WU__crt_internal_free_policy@@@@QEBAPEAPEA_WXZ 000000018008c510 f i libucrtd:argv_parsing.obj
 0001:0008b520       ?get_address_of@?$__crt_unique_heap_ptr@PEADU__crt_internal_free_policy@@@@QEAAPEAPEAPEADXZ 000000018008c520 f i libucrtd:argv_parsing.obj
 0001:0008b530       ?get_address_of@?$__crt_unique_heap_ptr@PEA_WU__crt_internal_free_policy@@@@QEAAPEAPEAPEA_WXZ 000000018008c530 f i libucrtd:argv_parsing.obj
 0001:0008b580       ?is_valid@?$__crt_unique_heap_ptr@EU__crt_internal_free_policy@@@@QEBA_NXZ 000000018008c580 f i libucrtd:argv_parsing.obj
 0001:0008b5b0       ?release@?$__crt_unique_heap_ptr@EU__crt_internal_free_policy@@@@QEAAXXZ 000000018008c5b0 f i libucrtd:argv_parsing.obj
 0001:0008b5e0       ?release@?$__crt_unique_heap_ptr@PEADU__crt_internal_free_policy@@@@QEAAXXZ 000000018008c5e0 f i libucrtd:argv_parsing.obj
 0001:0008b610       ?release@?$__crt_unique_heap_ptr@PEA_WU__crt_internal_free_policy@@@@QEAAXXZ 000000018008c610 f i libucrtd:argv_parsing.obj
 0001:0008b690       __acrt_allocate_buffer_for_argv 000000018008c690 f   libucrtd:argv_parsing.obj
 0001:0008b7b0       _configure_narrow_argv     000000018008c7b0 f   libucrtd:argv_parsing.obj
 0001:0008b7d0       _configure_wide_argv       000000018008c7d0 f   libucrtd:argv_parsing.obj
 0001:0008b7f0       _set_pgmptr                000000018008c7f0 f i libucrtd:argv_parsing.obj
 0001:0008b810       _set_wpgmptr               000000018008c810 f i libucrtd:argv_parsing.obj
 0001:0008b824       ??$?R_W@__crt_internal_free_policy@@QEBAXQEB_W@Z 000000018008c824 f i libucrtd:environment_initialization.obj
 0001:0008bdfc       ??$get_environment_from_os@$$V@?$__crt_char_traits@D@@SAPEADXZ 000000018008cdfc f i libucrtd:environment_initialization.obj
 0001:0008be04       ??$get_environment_from_os@$$V@?$__crt_char_traits@_W@@SAPEA_WXZ 000000018008ce04 f i libucrtd:environment_initialization.obj
 0001:0008bfd4       ??$set_variable_in_environment_nolock@PEADH@?$__crt_char_traits@D@@SAH$$QEAPEAD$$QEAH@Z 000000018008cfd4 f i libucrtd:environment_initialization.obj
 0001:0008bfe0       ??$set_variable_in_environment_nolock@PEA_WH@?$__crt_char_traits@_W@@SAH$$QEAPEA_W$$QEAH@Z 000000018008cfe0 f i libucrtd:environment_initialization.obj
 0001:0008bfec       ??$tcscpy_s@PEADAEB_KAEAPEAD@?$__crt_char_traits@D@@SAH$$QEAPEADAEB_KAEAPEAD@Z 000000018008cfec f i libucrtd:environment_initialization.obj
 0001:0008bffc       ??$tcscpy_s@PEA_WAEB_KAEAPEA_W@?$__crt_char_traits@_W@@SAH$$QEAPEA_WAEB_KAEAPEA_W@Z 000000018008cffc f i libucrtd:environment_initialization.obj
 0001:0008c00c       ??$tcslen@AEAPEAD@?$__crt_char_traits@D@@SA_KAEAPEAD@Z 000000018008d00c f i libucrtd:environment_initialization.obj
 0001:0008c020       ??$tcslen@AEAPEA_W@?$__crt_char_traits@_W@@SA_KAEAPEA_W@Z 000000018008d020 f i libucrtd:environment_initialization.obj
 0001:0008c034       ??$uninitialize@A6AXAEAPEAPEAD@Z@?$dual_state_global@PEAPEAD@__crt_state_management@@QEAAXA6AXAEAPEAPEAD@Z@Z 000000018008d034 f i libucrtd:environment_initialization.obj
 0001:0008c078       ??$uninitialize@A6AXAEAPEAPEA_W@Z@?$dual_state_global@PEAPEA_W@__crt_state_management@@QEAAXA6AXAEAPEAPEA_W@Z@Z 000000018008d078 f i libucrtd:environment_initialization.obj
 0001:0008c0f4       ??0?$__crt_unique_heap_ptr@_WU__crt_internal_free_policy@@@@QEAA@QEA_W@Z 000000018008d0f4 f i libucrtd:environment_initialization.obj
 0001:0008c0fc       ??1?$__crt_unique_heap_ptr@_WU__crt_internal_free_policy@@@@QEAA@XZ 000000018008d0fc f i libucrtd:environment_initialization.obj
 0001:0008c11c       ??B?$__crt_unique_heap_ptr@PEADU__crt_internal_free_policy@@@@QEBA_NXZ 000000018008d11c f i libucrtd:environment_initialization.obj
 0001:0008c124       ??B?$__crt_unique_heap_ptr@PEA_WU__crt_internal_free_policy@@@@QEBA_NXZ 000000018008d124 f i libucrtd:environment_initialization.obj
 0001:0008c12c       ??B?$__crt_unique_heap_ptr@_WU__crt_internal_free_policy@@@@QEBA_NXZ 000000018008d12c f i libucrtd:environment_initialization.obj
 0001:0008c134       ?__crt_compute_required_transform_buffer_count@@YA_KIQEBD@Z 000000018008d134 f i libucrtd:environment_initialization.obj
 0001:0008c158       ?__crt_compute_required_transform_buffer_count@@YA_KIQEB_W@Z 000000018008d158 f i libucrtd:environment_initialization.obj
 0001:0008c188       ?__crt_transform_string@@YA_KIQEBDQEA_W_K@Z 000000018008d188 f i libucrtd:environment_initialization.obj
 0001:0008c1ac       ?__crt_transform_string@@YA_KIQEB_WQEAD_K@Z 000000018008d1ac f i libucrtd:environment_initialization.obj
 0001:0008c1dc       ?detach@?$__crt_unique_heap_ptr@DU__crt_internal_free_policy@@@@QEAAPEADXZ 000000018008d1dc f i libucrtd:environment_initialization.obj
 0001:0008c1e4       ?detach@?$__crt_unique_heap_ptr@_WU__crt_internal_free_policy@@@@QEAAPEA_WXZ 000000018008d1e4 f i libucrtd:environment_initialization.obj
 0001:0008c1ec       ?get@?$__crt_unique_heap_ptr@_WU__crt_internal_free_policy@@@@QEBAPEA_WXZ 000000018008d1ec f i libucrtd:environment_initialization.obj
 0001:0008c220       ?initialize@?$dual_state_global@PEAPEAD@__crt_state_management@@QEAAXQEAPEAD@Z 000000018008d220 f i libucrtd:environment_initialization.obj
 0001:0008c248       ?initialize@?$dual_state_global@PEAPEA_W@__crt_state_management@@QEAAXQEAPEA_W@Z 000000018008d248 f i libucrtd:environment_initialization.obj
 0001:0008c270       ?is_valid@?$__crt_unique_heap_ptr@PEADU__crt_internal_free_policy@@@@QEBA_NXZ 000000018008d270 f i libucrtd:environment_initialization.obj
 0001:0008c278       ?is_valid@?$__crt_unique_heap_ptr@PEA_WU__crt_internal_free_policy@@@@QEBA_NXZ 000000018008d278 f i libucrtd:environment_initialization.obj
 0001:0008c280       ?is_valid@?$__crt_unique_heap_ptr@_WU__crt_internal_free_policy@@@@QEBA_NXZ 000000018008d280 f i libucrtd:environment_initialization.obj
 0001:0008c294       ?release@?$__crt_unique_heap_ptr@_WU__crt_internal_free_policy@@@@QEAAXXZ 000000018008d294 f i libucrtd:environment_initialization.obj
 0001:0008c2b4       ?value@?$dual_state_global@PEAPEAD@__crt_state_management@@QEAAAEAPEAPEADXZ 000000018008d2b4 f i libucrtd:environment_initialization.obj
 0001:0008c2b8       ?value@?$dual_state_global@PEAPEA_W@__crt_state_management@@QEAAAEAPEAPEA_WXZ 000000018008d2b8 f i libucrtd:environment_initialization.obj
 0001:0008c2bc       __dcrt_get_or_create_narrow_environment_nolock 000000018008d2bc f   libucrtd:environment_initialization.obj
 0001:0008c2f8       __dcrt_get_or_create_wide_environment_nolock 000000018008d2f8 f   libucrtd:environment_initialization.obj
 0001:0008c334       __dcrt_uninitialize_environments_nolock 000000018008d334 f   libucrtd:environment_initialization.obj
 0001:0008c36c       __p__environ               000000018008d36c f   libucrtd:environment_initialization.obj
 0001:0008c374       __p__wenviron              000000018008d374 f   libucrtd:environment_initialization.obj
 0001:0008c37c       _get_initial_narrow_environment 000000018008d37c f   libucrtd:environment_initialization.obj
 0001:0008c3cc       _get_initial_wide_environment 000000018008d3cc f   libucrtd:environment_initialization.obj
 0001:0008c41c       _initialize_narrow_environment 000000018008d41c f   libucrtd:environment_initialization.obj
 0001:0008c424       _initialize_wide_environment 000000018008d424 f   libucrtd:environment_initialization.obj
 0001:0008c430       ??$?B$$A6AXXZ@__crt_fast_encoded_nullptr_t@@QEBAP6AXXZXZ 000000018008d430 f i libucrtd:onexit.obj
 0001:0008c450       ??$?BP6AXXZ@__crt_fast_encoded_nullptr_t@@QEBAPEAP6AXXZXZ 000000018008d450 f i libucrtd:onexit.obj
 0001:0008c470       ??$?RP6AXXZ@__crt_internal_free_policy@@QEBAXQEBQ6AXXZ@Z 000000018008d470 f i libucrtd:onexit.obj
 0001:0008c5e0       ??$__crt_fast_decode_pointer@P6AXXZ@@YAP6AXXZQ6AXXZ@Z 000000018008d5e0 f i libucrtd:onexit.obj
 0001:0008c620       ??$__crt_fast_decode_pointer@PEAP6AXXZ@@YAPEAP6AXXZQEAP6AXXZ@Z 000000018008d620 f i libucrtd:onexit.obj
 0001:0008c660       ??$__crt_fast_encode_pointer@P6AHXZ@@YAP6AHXZQ6AHXZ@Z 000000018008d660 f i libucrtd:onexit.obj
 0001:0008c6a0       ??$__crt_fast_encode_pointer@P6AXXZ@@YAP6AXXZQ6AXXZ@Z 000000018008d6a0 f i libucrtd:onexit.obj
 0001:0008c6e0       ??$__crt_fast_encode_pointer@PEAP6AXXZ@@YAPEAP6AXXZQEAP6AXXZ@Z 000000018008d6e0 f i libucrtd:onexit.obj
 0001:0008c7f0       ??0?$__crt_unique_heap_ptr@P6AXXZU__crt_internal_free_policy@@@@QEAA@QEAP6AXXZ@Z 000000018008d7f0 f i libucrtd:onexit.obj
 0001:0008c810       ??1?$__crt_unique_heap_ptr@P6AXXZU__crt_internal_free_policy@@@@QEAA@XZ 000000018008d810 f i libucrtd:onexit.obj
 0001:0008c830       ??1scoped_global_state_reset@__crt_state_management@@QEAA@XZ 000000018008d830 f i libucrtd:onexit.obj
 0001:0008ce00       ?detach@?$__crt_unique_heap_ptr@P6AXXZU__crt_internal_free_policy@@@@QEAAPEAP6AXXZXZ 000000018008de00 f i libucrtd:onexit.obj
 0001:0008ce30       ?release@?$__crt_unique_heap_ptr@P6AXXZU__crt_internal_free_policy@@@@QEAAXXZ 000000018008de30 f i libucrtd:onexit.obj
 0001:0008ce60       _crt_at_quick_exit         000000018008de60 f   libucrtd:onexit.obj
 0001:0008ce80       _crt_atexit                000000018008de80 f   libucrtd:onexit.obj
 0001:0008cea0       _execute_onexit_table      000000018008dea0 f   libucrtd:onexit.obj
 0001:0008cee0       _initialize_onexit_table   000000018008dee0 f   libucrtd:onexit.obj
 0001:0008cf60       _register_onexit_function  000000018008df60 f   libucrtd:onexit.obj
 0001:0008d1d0       ??$?BX@__crt_fast_encoded_nullptr_t@@QEBAPEAXXZ 000000018008e1d0 f i libucrtd:initialization.obj
 0001:0008d1f0       ??$__crt_fast_encode_pointer@PEAX@@YAPEAXQEAX@Z 000000018008e1f0 f i libucrtd:initialization.obj
 0001:0008d2e0       ?initialize@?$dual_state_global@PEAU__crt_locale_data@@@__crt_state_management@@QEAAXQEAU__crt_locale_data@@@Z 000000018008e2e0 f i libucrtd:initialization.obj
 0001:0008d330       __acrt_initialize          000000018008e330 f   libucrtd:initialization.obj
 0001:0008d360       __acrt_thread_attach       000000018008e360 f   libucrtd:initialization.obj
 0001:0008d380       __acrt_thread_detach       000000018008e380 f   libucrtd:initialization.obj
 0001:0008d390       __acrt_uninitialize        000000018008e390 f   libucrtd:initialization.obj
 0001:0008d3c0       __acrt_uninitialize_critical 000000018008e3c0 f   libucrtd:initialization.obj
 0001:0008f3b0       _CrtCheckMemory            00000001800903b0 f   libucrtd:debug_heap.obj
 0001:0008f540       _CrtDoForAllClientObjects  0000000180090540 f   libucrtd:debug_heap.obj
 0001:0008f670       _CrtDumpMemoryLeaks        0000000180090670 f   libucrtd:debug_heap.obj
 0001:0008f730       _CrtGetAllocHook           0000000180090730 f   libucrtd:debug_heap.obj
 0001:0008f740       _CrtGetDumpClient          0000000180090740 f   libucrtd:debug_heap.obj
 0001:0008f750       _CrtIsMemoryBlock          0000000180090750 f   libucrtd:debug_heap.obj
 0001:0008f890       _CrtIsValidHeapPointer     0000000180090890 f   libucrtd:debug_heap.obj
 0001:0008f8d0       _CrtIsValidPointer         00000001800908d0 f   libucrtd:debug_heap.obj
 0001:0008f910       _CrtMemCheckpoint          0000000180090910 f   libucrtd:debug_heap.obj
 0001:0008fb90       _CrtMemDifference          0000000180090b90 f   libucrtd:debug_heap.obj
 0001:0008fef0       _CrtMemDumpAllObjectsSince 0000000180090ef0 f   libucrtd:debug_heap.obj
 0001:0008ff50       _CrtMemDumpStatistics      0000000180090f50 f   libucrtd:debug_heap.obj
 0001:000900f0       _CrtReportBlockType        00000001800910f0 f   libucrtd:debug_heap.obj
 0001:00090120       _CrtSetAllocHook           0000000180091120 f   libucrtd:debug_heap.obj
 0001:00090150       _CrtSetBreakAlloc          0000000180091150 f   libucrtd:debug_heap.obj
 0001:00090180       _CrtSetDbgBlockType        0000000180091180 f   libucrtd:debug_heap.obj
 0001:00090220       _CrtSetDbgFlag             0000000180091220 f   libucrtd:debug_heap.obj
 0001:00090380       _CrtSetDumpClient          0000000180091380 f   libucrtd:debug_heap.obj
 0001:000903b0       __p__crtBreakAlloc         00000001800913b0 f   libucrtd:debug_heap.obj
 0001:000903c0       __p__crtDbgFlag            00000001800913c0 f   libucrtd:debug_heap.obj
 0001:000903d0       _aligned_free_dbg          00000001800913d0 f   libucrtd:debug_heap.obj
 0001:000904c0       _aligned_malloc_dbg        00000001800914c0 f   libucrtd:debug_heap.obj
 0001:00090500       _aligned_msize_dbg         0000000180091500 f   libucrtd:debug_heap.obj
 0001:000906d0       _aligned_offset_malloc_dbg 00000001800916d0 f   libucrtd:debug_heap.obj
 0001:000909c0       _aligned_offset_realloc_dbg 00000001800919c0 f   libucrtd:debug_heap.obj
 0001:00090e70       _aligned_offset_recalloc_dbg 0000000180091e70 f   libucrtd:debug_heap.obj
 0001:00090f90       _aligned_realloc_dbg       0000000180091f90 f   libucrtd:debug_heap.obj
 0001:00090fe0       _aligned_recalloc_dbg      0000000180091fe0 f   libucrtd:debug_heap.obj
 0001:00091040       _calloc_dbg                0000000180092040 f   libucrtd:debug_heap.obj
 0001:000910e0       _expand_dbg                00000001800920e0 f   libucrtd:debug_heap.obj
 0001:00091210       _free_dbg                  0000000180092210 f   libucrtd:debug_heap.obj
 0001:00091280       _malloc_dbg                0000000180092280 f   libucrtd:debug_heap.obj
 0001:000912c0       _msize_dbg                 00000001800922c0 f   libucrtd:debug_heap.obj
 0001:00091460       _realloc_dbg               0000000180092460 f   libucrtd:debug_heap.obj
 0001:000914d0       _recalloc_dbg              00000001800924d0 f   libucrtd:debug_heap.obj
 0001:000915d0       _initterm                  00000001800925d0 f   libucrtd:initterm.obj
 0001:00091630       _initterm_e                0000000180092630 f   libucrtd:initterm.obj
 0001:00091b80       strcpy_s                   0000000180092b80 f   libucrtd:strcpy_s.obj
 0001:00092220       strcat_s                   0000000180093220 f   libucrtd:strcat_s.obj
 0001:00092250       ??$?B$$A6AH_K@Z@__crt_fast_encoded_nullptr_t@@QEBAP6AH_K@ZXZ 0000000180093250 f i libucrtd:new_handler.obj
 0001:00092270       ??$__crt_fast_decode_pointer@P6AH_K@Z@@YAP6AH_K@ZQ6AH0@Z@Z 0000000180093270 f i libucrtd:new_handler.obj
 0001:000922b0       ??$__crt_fast_encode_pointer@P6AH_K@Z@@YAP6AH_K@ZQ6AH0@Z@Z 00000001800932b0 f i libucrtd:new_handler.obj
 0001:000922f0       ?_set_new_handler@@YAP6AH_K@ZH@Z 00000001800932f0 f   libucrtd:new_handler.obj
 0001:00092360       ?initialize@?$dual_state_global@P6AH_K@Z@__crt_state_management@@QEAAXQ6AH_K@Z@Z 0000000180093360 f i libucrtd:new_handler.obj
 0001:000923b0       ?value@?$dual_state_global@P6AH_K@Z@__crt_state_management@@QEAAAEAP6AH_K@ZXZ 00000001800933b0 f i libucrtd:new_handler.obj
 0001:000923d0       __acrt_initialize_new_handler 00000001800933d0 f   libucrtd:new_handler.obj
 0001:000923f0       _callnewh                  00000001800933f0 f   libucrtd:new_handler.obj
 0001:00092440       _query_new_handler         0000000180093440 f   libucrtd:new_handler.obj
 0001:00092480       _set_new_handler           0000000180093480 f   libucrtd:new_handler.obj
 0001:00092530       _get_terminate             0000000180093530 f   libucrtd:terminate.obj
 0001:00092550       set_terminate              0000000180093550 f   libucrtd:terminate.obj
 0001:00092590       terminate                  0000000180093590 f   libucrtd:terminate.obj
 0001:00093390       _makepath                  0000000180094390 f   libucrtd:makepath.obj
 0001:000933e0       _makepath_s                00000001800943e0 f   libucrtd:makepath.obj
 0001:00093430       _wmakepath                 0000000180094430 f   libucrtd:makepath.obj
 0001:00093480       _wmakepath_s               0000000180094480 f   libucrtd:makepath.obj
 0001:00095ab0       ??$tcsncpy_s@AEAPEAD_KAEAPEBDAEB_K@?$__crt_char_traits@D@@SAHAEAPEAD$$QEA_KAEAPEBDAEB_K@Z 0000000180096ab0 f i libucrtd:splitpath.obj
 0001:00095b00       ??$tcsncpy_s@AEAPEAD_KAEAPEBDH@?$__crt_char_traits@D@@SAHAEAPEAD$$QEA_KAEAPEBD$$QEAH@Z 0000000180096b00 f i libucrtd:splitpath.obj
 0001:00095b50       ??$tcsncpy_s@AEAPEA_W_KAEAPEB_WAEB_K@?$__crt_char_traits@_W@@SAHAEAPEA_W$$QEA_KAEAPEB_WAEB_K@Z 0000000180096b50 f i libucrtd:splitpath.obj
 0001:00095ba0       ??$tcsncpy_s@AEAPEA_W_KAEAPEB_WH@?$__crt_char_traits@_W@@SAHAEAPEA_W$$QEA_KAEAPEB_W$$QEAH@Z 0000000180096ba0 f i libucrtd:splitpath.obj
 0001:00095e50       _splitpath                 0000000180096e50 f   libucrtd:splitpath.obj
 0001:00095e90       _splitpath_s               0000000180096e90 f   libucrtd:splitpath.obj
 0001:00095f30       _wsplitpath                0000000180096f30 f   libucrtd:splitpath.obj
 0001:00095f70       _wsplitpath_s              0000000180096f70 f   libucrtd:splitpath.obj
 0001:00096010       _set_abort_behavior        0000000180097010 f   libucrtd:abort.obj
 0001:00096050       abort                      0000000180097050 f   libucrtd:abort.obj
 0001:000960e0       strcmp                     00000001800970e0 f   libucrtd:strcmp.obj
 0001:00096160       strlen                     0000000180097160 f   libucrtd:strlen.obj
 0001:00096210       ??$is_overflow_condition@K@__crt_strtox@@YA_NIK@Z 0000000180097210 f i libucrtd:atox.obj
 0001:00096280       ??$is_overflow_condition@_K@__crt_strtox@@YA_NI_K@Z 0000000180097280 f i libucrtd:atox.obj
 0001:000962f0       ??$make_c_string_character_source@D$$T@__crt_strtox@@YA?AV?$c_string_character_source@D@0@QEBD$$T@Z 00000001800972f0 f i libucrtd:atox.obj
 0001:00096330       ??$make_c_string_character_source@_W$$T@__crt_strtox@@YA?AV?$c_string_character_source@_W@0@QEB_W$$T@Z 0000000180097330 f i libucrtd:atox.obj
 0001:00096370       ??$parse_integer@KV?$c_string_character_source@D@__crt_strtox@@@__crt_strtox@@YAKQEAU__crt_locale_pointers@@V?$c_string_character_source@D@0@H_N@Z 0000000180097370 f i libucrtd:atox.obj
 0001:00096800       ??$parse_integer@KV?$c_string_character_source@_W@__crt_strtox@@@__crt_strtox@@YAKQEAU__crt_locale_pointers@@V?$c_string_character_source@_W@0@H_N@Z 0000000180097800 f i libucrtd:atox.obj
 0001:00096cb0       ??$parse_integer@_KV?$c_string_character_source@D@__crt_strtox@@@__crt_strtox@@YA_KQEAU__crt_locale_pointers@@V?$c_string_character_source@D@0@H_N@Z 0000000180097cb0 f i libucrtd:atox.obj
 0001:000971d0       ??$parse_integer@_KV?$c_string_character_source@_W@__crt_strtox@@@__crt_strtox@@YA_KQEAU__crt_locale_pointers@@V?$c_string_character_source@_W@0@H_N@Z 00000001800981d0 f i libucrtd:atox.obj
 0001:000976f0       ??$parse_integer_from_string@JD$$T@__crt_strtox@@YAJQEBD$$THQEAU__crt_locale_pointers@@@Z 00000001800986f0 f i libucrtd:atox.obj
 0001:00097740       ??$parse_integer_from_string@J_W$$T@__crt_strtox@@YAJQEB_W$$THQEAU__crt_locale_pointers@@@Z 0000000180098740 f i libucrtd:atox.obj
 0001:00097790       ??$parse_integer_from_string@_JD$$T@__crt_strtox@@YA_JQEBD$$THQEAU__crt_locale_pointers@@@Z 0000000180098790 f i libucrtd:atox.obj
 0001:000977e0       ??$parse_integer_from_string@_J_W$$T@__crt_strtox@@YA_JQEB_W$$THQEAU__crt_locale_pointers@@@Z 00000001800987e0 f i libucrtd:atox.obj
 0001:00097830       ??0?$c_string_character_source@D@__crt_strtox@@QEAA@QEBDQEAPEBD@Z 0000000180098830 f i libucrtd:atox.obj
 0001:00097880       ??0?$c_string_character_source@_W@__crt_strtox@@QEAA@QEB_WQEAPEB_W@Z 0000000180098880 f i libucrtd:atox.obj
 0001:000978d0       ??1?$c_string_character_source@D@__crt_strtox@@QEAA@XZ 00000001800988d0 f i libucrtd:atox.obj
 0001:00097900       ??1?$c_string_character_source@_W@__crt_strtox@@QEAA@XZ 0000000180098900 f i libucrtd:atox.obj
 0001:00097930       ?get@?$c_string_character_source@D@__crt_strtox@@QEAADXZ 0000000180098930 f i libucrtd:atox.obj
 0001:00097970       ?get@?$c_string_character_source@_W@__crt_strtox@@QEAA_WXZ 0000000180098970 f i libucrtd:atox.obj
 0001:000979b0       ?is_space@__crt_strtox@@YA_NDQEAU__crt_locale_pointers@@@Z 00000001800989b0 f i libucrtd:atox.obj
 0001:00097a00       ?is_space@__crt_strtox@@YA_N_WPEAU__crt_locale_pointers@@@Z 0000000180098a00 f i libucrtd:atox.obj
 0001:00097a40       ?maximum_signed_value@__crt_strtox@@YAJK@Z 0000000180098a40 f i libucrtd:atox.obj
 0001:00097a50       ?maximum_signed_value@__crt_strtox@@YA_J_K@Z 0000000180098a50 f i libucrtd:atox.obj
 0001:00097a60       ?minimum_signed_value@__crt_strtox@@YAJK@Z 0000000180098a60 f i libucrtd:atox.obj
 0001:00097a70       ?minimum_signed_value@__crt_strtox@@YA_J_K@Z 0000000180098a70 f i libucrtd:atox.obj
 0001:00097a80       ?parse_digit@__crt_strtox@@YAID@Z 0000000180098a80 f i libucrtd:atox.obj
 0001:00097af0       ?parse_digit@__crt_strtox@@YAI_W@Z 0000000180098af0 f i libucrtd:atox.obj
 0001:00097b40       ?restore_state@?$c_string_character_source@D@__crt_strtox@@QEAA_NQEBD@Z 0000000180098b40 f i libucrtd:atox.obj
 0001:00097b60       ?restore_state@?$c_string_character_source@_W@__crt_strtox@@QEAA_NQEB_W@Z 0000000180098b60 f i libucrtd:atox.obj
 0001:00097b80       ?save_state@?$c_string_character_source@D@__crt_strtox@@QEBAPEBDXZ 0000000180098b80 f i libucrtd:atox.obj
 0001:00097b90       ?save_state@?$c_string_character_source@_W@__crt_strtox@@QEBAPEB_WXZ 0000000180098b90 f i libucrtd:atox.obj
 0001:00097ba0       ?unget@?$c_string_character_source@D@__crt_strtox@@QEAAXD@Z 0000000180098ba0 f i libucrtd:atox.obj
 0001:00097c80       ?unget@?$c_string_character_source@_W@__crt_strtox@@QEAAX_W@Z 0000000180098c80 f i libucrtd:atox.obj
 0001:00097d60       ?validate@?$c_string_character_source@D@__crt_strtox@@QEBA_NXZ 0000000180098d60 f i libucrtd:atox.obj
 0001:00097e20       ?validate@?$c_string_character_source@_W@__crt_strtox@@QEBA_NXZ 0000000180098e20 f i libucrtd:atox.obj
 0001:00097ee0       ?wide_character_to_digit@__crt_strtox@@YAH_W@Z 0000000180098ee0 f i libucrtd:atox.obj
 0001:00098250       __ascii_iswalpha           0000000180099250 f i libucrtd:atox.obj
 0001:00098290       __ascii_toupper            0000000180099290 f i libucrtd:atox.obj
 0001:000982b0       __ascii_towupper           00000001800992b0 f i libucrtd:atox.obj
 0001:000982d0       _atoi64                    00000001800992d0 f   libucrtd:atox.obj
 0001:00098300       _atoi64_l                  0000000180099300 f   libucrtd:atox.obj
 0001:00098330       _atoi_l                    0000000180099330 f   libucrtd:atox.obj
 0001:00098360       _atol_l                    0000000180099360 f   libucrtd:atox.obj
 0001:00098390       _atoll_l                   0000000180099390 f   libucrtd:atox.obj
 0001:000983c0       _wtoi                      00000001800993c0 f   libucrtd:atox.obj
 0001:000983f0       _wtoi64                    00000001800993f0 f   libucrtd:atox.obj
 0001:00098420       _wtoi64_l                  0000000180099420 f   libucrtd:atox.obj
 0001:00098450       _wtoi_l                    0000000180099450 f   libucrtd:atox.obj
 0001:00098480       _wtol                      0000000180099480 f   libucrtd:atox.obj
 0001:000984b0       _wtol_l                    00000001800994b0 f   libucrtd:atox.obj
 0001:000984e0       _wtoll                     00000001800994e0 f   libucrtd:atox.obj
 0001:00098510       _wtoll_l                   0000000180099510 f   libucrtd:atox.obj
 0001:00098540       atoi                       0000000180099540 f   libucrtd:atox.obj
 0001:00098570       atol                       0000000180099570 f   libucrtd:atox.obj
 0001:000985a0       atoll                      00000001800995a0 f   libucrtd:atox.obj
 0001:000985e0       strncmp                    00000001800995e0 f   libucrtd:strncmp.obj
 0001:00098660       wcsncmp                    0000000180099660 f   libucrtd:wcsncmp.obj
 0001:000986f0       _CrtGetDebugFillThreshold  00000001800996f0 f   libucrtd:debug_fill_threshold.obj
 0001:00098700       _CrtSetDebugFillThreshold  0000000180099700 f   libucrtd:debug_fill_threshold.obj
 0001:00098730       ??$make_c_string_character_source@DPEAPEAD@__crt_strtox@@YA?AV?$c_string_character_source@D@0@QEBDQEAPEAD@Z 0000000180099730 f i libucrtd:strtox.obj
 0001:00098770       ??$make_c_string_character_source@_WPEAPEA_W@__crt_strtox@@YA?AV?$c_string_character_source@_W@0@QEB_WQEAPEA_W@Z 0000000180099770 f i libucrtd:strtox.obj
 0001:000987b0       ??$parse_integer_from_string@JDPEAPEAD@__crt_strtox@@YAJQEBDQEAPEADHQEAU__crt_locale_pointers@@@Z 00000001800997b0 f i libucrtd:strtox.obj
 0001:00098800       ??$parse_integer_from_string@J_WPEAPEA_W@__crt_strtox@@YAJQEB_WQEAPEA_WHQEAU__crt_locale_pointers@@@Z 0000000180099800 f i libucrtd:strtox.obj
 0001:00098850       ??$parse_integer_from_string@KDPEAPEAD@__crt_strtox@@YAKQEBDQEAPEADHQEAU__crt_locale_pointers@@@Z 0000000180099850 f i libucrtd:strtox.obj
 0001:000988a0       ??$parse_integer_from_string@K_WPEAPEA_W@__crt_strtox@@YAKQEB_WQEAPEA_WHQEAU__crt_locale_pointers@@@Z 00000001800998a0 f i libucrtd:strtox.obj
 0001:000988f0       ??$parse_integer_from_string@_JDPEAPEAD@__crt_strtox@@YA_JQEBDQEAPEADHQEAU__crt_locale_pointers@@@Z 00000001800998f0 f i libucrtd:strtox.obj
 0001:00098940       ??$parse_integer_from_string@_J_WPEAPEA_W@__crt_strtox@@YA_JQEB_WQEAPEA_WHQEAU__crt_locale_pointers@@@Z 0000000180099940 f i libucrtd:strtox.obj
 0001:00098990       ??$parse_integer_from_string@_KDPEAPEAD@__crt_strtox@@YA_KQEBDQEAPEADHQEAU__crt_locale_pointers@@@Z 0000000180099990 f i libucrtd:strtox.obj
 0001:000989e0       ??$parse_integer_from_string@_K_WPEAPEA_W@__crt_strtox@@YA_KQEB_WQEAPEA_WHQEAU__crt_locale_pointers@@@Z 00000001800999e0 f i libucrtd:strtox.obj
 0001:00098a30       _strtoi64                  0000000180099a30 f   libucrtd:strtox.obj
 0001:00098a60       _strtoi64_l                0000000180099a60 f   libucrtd:strtox.obj
 0001:00098aa0       _strtoimax_l               0000000180099aa0 f   libucrtd:strtox.obj
 0001:00098ae0       _strtol_l                  0000000180099ae0 f   libucrtd:strtox.obj
 0001:00098b20       _strtoll_l                 0000000180099b20 f   libucrtd:strtox.obj
 0001:00098b60       _strtoui64                 0000000180099b60 f   libucrtd:strtox.obj
 0001:00098b90       _strtoui64_l               0000000180099b90 f   libucrtd:strtox.obj
 0001:00098bd0       _strtoul_l                 0000000180099bd0 f   libucrtd:strtox.obj
 0001:00098c10       _strtoull_l                0000000180099c10 f   libucrtd:strtox.obj
 0001:00098c50       _strtoumax_l               0000000180099c50 f   libucrtd:strtox.obj
 0001:00098c90       _wcstoi64                  0000000180099c90 f   libucrtd:strtox.obj
 0001:00098cc0       _wcstoi64_l                0000000180099cc0 f   libucrtd:strtox.obj
 0001:00098d00       _wcstoimax_l               0000000180099d00 f   libucrtd:strtox.obj
 0001:00098d40       _wcstol_l                  0000000180099d40 f   libucrtd:strtox.obj
 0001:00098d80       _wcstoll_l                 0000000180099d80 f   libucrtd:strtox.obj
 0001:00098dc0       _wcstoui64                 0000000180099dc0 f   libucrtd:strtox.obj
 0001:00098df0       _wcstoui64_l               0000000180099df0 f   libucrtd:strtox.obj
 0001:00098e30       _wcstoul_l                 0000000180099e30 f   libucrtd:strtox.obj
 0001:00098e70       _wcstoull_l                0000000180099e70 f   libucrtd:strtox.obj
 0001:00098eb0       _wcstoumax_l               0000000180099eb0 f   libucrtd:strtox.obj
 0001:00098ef0       strtoimax                  0000000180099ef0 f   libucrtd:strtox.obj
 0001:00098f20       strtol                     0000000180099f20 f   libucrtd:strtox.obj
 0001:00098f50       strtoll                    0000000180099f50 f   libucrtd:strtox.obj
 0001:00098f80       strtoul                    0000000180099f80 f   libucrtd:strtox.obj
 0001:00098fb0       strtoull                   0000000180099fb0 f   libucrtd:strtox.obj
 0001:00098fe0       strtoumax                  0000000180099fe0 f   libucrtd:strtox.obj
 0001:00099010       wcstoimax                  000000018009a010 f   libucrtd:strtox.obj
 0001:00099040       wcstol                     000000018009a040 f   libucrtd:strtox.obj
 0001:00099070       wcstoll                    000000018009a070 f   libucrtd:strtox.obj
 0001:000990a0       wcstoul                    000000018009a0a0 f   libucrtd:strtox.obj
 0001:000990d0       wcstoull                   000000018009a0d0 f   libucrtd:strtox.obj
 0001:00099100       wcstoumax                  000000018009a100 f   libucrtd:strtox.obj
 0001:00099130       _mbtowc_l                  000000018009a130 f   libucrtd:mbtowc.obj
 0001:00099590       mbtowc                     000000018009a590 f   libucrtd:mbtowc.obj
 0001:000995c0       _wctomb_l                  000000018009a5c0 f   libucrtd:wctomb.obj
 0001:00099680       _wctomb_s_l                000000018009a680 f   libucrtd:wctomb.obj
 0001:00099c00       wctomb                     000000018009ac00 f   libucrtd:wctomb.obj
 0001:00099c60       wctomb_s                   000000018009ac60 f   libucrtd:wctomb.obj
 0001:00099cb0       ??$?RU__acrt_ptd@@@__crt_internal_free_policy@@QEBAXQEBU__acrt_ptd@@@Z 000000018009acb0 f i libucrtd:per_thread_data.obj
 0001:0009a0b0       ??0?$__crt_unique_heap_ptr@U__acrt_ptd@@U__crt_internal_free_policy@@@@QEAA@QEAU__acrt_ptd@@@Z 000000018009b0b0 f i libucrtd:per_thread_data.obj
 0001:0009a0d0       ??0__crt_scoped_get_last_error_reset@@QEAA@XZ 000000018009b0d0 f i libucrtd:per_thread_data.obj
 0001:0009a0f0       ??1?$__crt_unique_heap_ptr@U__acrt_ptd@@U__crt_internal_free_policy@@@@QEAA@XZ 000000018009b0f0 f i libucrtd:per_thread_data.obj
 0001:0009a110       ??1__crt_scoped_get_last_error_reset@@QEAA@XZ 000000018009b110 f i libucrtd:per_thread_data.obj
 0001:0009a130       ??B?$__crt_unique_heap_ptr@U__acrt_ptd@@U__crt_internal_free_policy@@@@QEBA_NXZ 000000018009b130 f i libucrtd:per_thread_data.obj
 0001:0009a480       ?dangerous_get_state_array@?$dual_state_global@PEAU__crt_locale_data@@@__crt_state_management@@QEAAPEAPEAU__crt_locale_data@@XZ 000000018009b480 f i libucrtd:per_thread_data.obj
 0001:0009a640       ?detach@?$__crt_unique_heap_ptr@U__acrt_ptd@@U__crt_internal_free_policy@@@@QEAAPEAU__acrt_ptd@@XZ 000000018009b640 f i libucrtd:per_thread_data.obj
 0001:0009a670       ?get@?$__crt_unique_heap_ptr@U__acrt_ptd@@U__crt_internal_free_policy@@@@QEBAPEAU__acrt_ptd@@XZ 000000018009b670 f i libucrtd:per_thread_data.obj
 0001:0009a680       ?get_current_state_index@__crt_state_management@@YA_KAEBV__crt_scoped_get_last_error_reset@@@Z 000000018009b680 f i libucrtd:per_thread_data.obj
 0001:0009a830       ?is_valid@?$__crt_unique_heap_ptr@U__acrt_ptd@@U__crt_internal_free_policy@@@@QEBA_NXZ 000000018009b830 f i libucrtd:per_thread_data.obj
 0001:0009a860       ?release@?$__crt_unique_heap_ptr@U__acrt_ptd@@U__crt_internal_free_policy@@@@QEAAXXZ 000000018009b860 f i libucrtd:per_thread_data.obj
 0001:0009a990       ?value@?$dual_state_global@PEAU__crt_locale_data@@@__crt_state_management@@QEAAAEAPEAU__crt_locale_data@@XZ 000000018009b990 f i libucrtd:per_thread_data.obj
 0001:0009a9b0       __acrt_freeptd             000000018009b9b0 f   libucrtd:per_thread_data.obj
 0001:0009a9f0       __acrt_getptd              000000018009b9f0 f   libucrtd:per_thread_data.obj
 0001:0009aa20       __acrt_getptd_head         000000018009ba20 f   libucrtd:per_thread_data.obj
 0001:0009aa50       __acrt_getptd_noexit       000000018009ba50 f   libucrtd:per_thread_data.obj
 0001:0009aa60       __acrt_initialize_ptd      000000018009ba60 f   libucrtd:per_thread_data.obj
 0001:0009aaa0       __acrt_uninitialize_ptd    000000018009baa0 f   libucrtd:per_thread_data.obj
 0001:0009aad0       __threadhandle             000000018009bad0 f   libucrtd:per_thread_data.obj
 0001:0009aae0       __threadid                 000000018009bae0 f   libucrtd:per_thread_data.obj
 0001:0009aaf0       ?value@?$dual_state_global@PEAU__crt_multibyte_data@@@__crt_state_management@@QEAAAEAPEAU__crt_multibyte_data@@XZ 000000018009baf0 f i libucrtd:locale_update.obj
 0001:0009ab10       __acrt_update_locale_info  000000018009bb10 f   libucrtd:locale_update.obj
 0001:0009ab60       __acrt_update_multibyte_info 000000018009bb60 f   libucrtd:locale_update.obj
 0001:0009abb0       ?__acrt_fp_classify@@YA?AW4__acrt_fp_class@@AEBN@Z 000000018009bbb0 f i libucrtd:cvt.obj
 0001:0009acb0       ?__acrt_fp_is_negative@@YA_NAEBN@Z 000000018009bcb0 f i libucrtd:cvt.obj
 0001:0009c360       ?strrchr@@YAPEADQEADH@Z    000000018009d360 f i libucrtd:cvt.obj
 0001:0009c380       __acrt_fp_format           000000018009d380 f   libucrtd:cvt.obj
 0001:0009c9f0       _fputwc_nolock             000000018009d9f0 f   libucrtd:fputwc.obj
 0001:0009cc60       _fputwchar                 000000018009dc60 f   libucrtd:fputwc.obj
 0001:0009cc90       _putwc_nolock              000000018009dc90 f   libucrtd:fputwc.obj
 0001:0009ccc0       fputwc                     000000018009dcc0 f   libucrtd:fputwc.obj
 0001:0009cdb0       putwc                      000000018009ddb0 f   libucrtd:fputwc.obj
 0001:0009cde0       putwchar                   000000018009dde0 f   libucrtd:fputwc.obj
 0001:0009ce00       ?lowio_handle@__crt_stdio_stream@@QEBAHXZ 000000018009de00 f i libucrtd:fileno.obj
 0001:0009ce30       _fileno                    000000018009de30 f   libucrtd:fileno.obj
 0001:0009cf10       ??$?RPEAU__crt_stdio_stream_data@@@__crt_internal_free_policy@@QEBAXQEBQEAU__crt_stdio_stream_data@@@Z 000000018009df10 f i libucrtd:_file.obj
 0001:0009cf40       ??0?$__crt_unique_heap_ptr@PEAU__crt_stdio_stream_data@@U__crt_internal_free_policy@@@@QEAA@QEAPEAU__crt_stdio_stream_data@@@Z 000000018009df40 f i libucrtd:_file.obj
 0001:0009cf60       ??1?$__crt_unique_heap_ptr@PEAU__crt_stdio_stream_data@@U__crt_internal_free_policy@@@@QEAA@XZ 000000018009df60 f i libucrtd:_file.obj
 0001:0009cf80       ?detach@?$__crt_unique_heap_ptr@PEAU__crt_stdio_stream_data@@U__crt_internal_free_policy@@@@QEAAPEAPEAU__crt_stdio_stream_data@@XZ 000000018009df80 f i libucrtd:_file.obj
 0001:0009cfb0       ?release@?$__crt_unique_heap_ptr@PEAU__crt_stdio_stream_data@@U__crt_internal_free_policy@@@@QEAAXXZ 000000018009dfb0 f i libucrtd:_file.obj
 0001:0009cfe0       __acrt_initialize_stdio    000000018009dfe0 f   libucrtd:_file.obj
 0001:0009d1d0       __acrt_iob_func            000000018009e1d0 f   libucrtd:_file.obj
 0001:0009d1f0       __acrt_uninitialize_stdio  000000018009e1f0 f   libucrtd:_file.obj
 0001:0009d280       _get_stream_buffer_pointers 000000018009e280 f   libucrtd:_file.obj
 0001:0009d3b0       _lock_file                 000000018009e3b0 f   libucrtd:_file.obj
 0001:0009d3f0       _unlock_file               000000018009e3f0 f   libucrtd:_file.obj
 0001:0009d430       _get_printf_count_output   000000018009e430 f   libucrtd:printf_count_output.obj
 0001:0009d460       _set_printf_count_output   000000018009e460 f   libucrtd:printf_count_output.obj
 0001:0009d4d0       ?has_any_buffer@__crt_stdio_stream@@QEBA_NXZ 000000018009e4d0 f i libucrtd:_sftbuf.obj
 0001:0009d4f0       ?has_any_of@__crt_stdio_stream@@QEBA_NJ@Z 000000018009e4f0 f i libucrtd:_sftbuf.obj
 0001:0009d530       ?has_temporary_buffer@__crt_stdio_stream@@QEBA_NXZ 000000018009e530 f i libucrtd:_sftbuf.obj
 0001:0009d550       ?set_flags@__crt_stdio_stream@@QEBA_NJ@Z 000000018009e550 f i libucrtd:_sftbuf.obj
 0001:0009d5c0       ?unset_flags@__crt_stdio_stream@@QEBA_NJ@Z 000000018009e5c0 f i libucrtd:_sftbuf.obj
 0001:0009d620       __acrt_stdio_begin_temporary_buffering_nolock 000000018009e620 f   libucrtd:_sftbuf.obj
 0001:0009d860       __acrt_stdio_end_temporary_buffering_nolock 000000018009e860 f   libucrtd:_sftbuf.obj
 0001:0009d910       ??$?RU__crt_locale_data@@@__crt_internal_free_policy@@QEBAXQEBU__crt_locale_data@@@Z 000000018009e910 f i libucrtd:wsetlocale.obj
 0001:0009d940       ??$?RU__crt_locale_pointers@@@__crt_internal_free_policy@@QEBAXQEBU__crt_locale_pointers@@@Z 000000018009e940 f i libucrtd:wsetlocale.obj
 0001:0009d970       ??$?RU__crt_multibyte_data@@@__crt_internal_free_policy@@QEBAXQEBU__crt_multibyte_data@@@Z 000000018009e970 f i libucrtd:wsetlocale.obj
 0001:0009ded0       ??0?$__crt_unique_heap_ptr@U__crt_locale_data@@U__crt_internal_free_policy@@@@QEAA@QEAU__crt_locale_data@@@Z 000000018009eed0 f i libucrtd:wsetlocale.obj
 0001:0009def0       ??0?$__crt_unique_heap_ptr@U__crt_locale_pointers@@U__crt_internal_free_policy@@@@QEAA@QEAU__crt_locale_pointers@@@Z 000000018009eef0 f i libucrtd:wsetlocale.obj
 0001:0009df10       ??0?$__crt_unique_heap_ptr@U__crt_multibyte_data@@U__crt_internal_free_policy@@@@QEAA@QEAU__crt_multibyte_data@@@Z 000000018009ef10 f i libucrtd:wsetlocale.obj
 0001:0009df30       ??0_expandlocale_locale_name_cache@@QEAA@QEA_W_KQEAU__crt_qualified_locale_data@@@Z 000000018009ef30 f i libucrtd:wsetlocale.obj
 0001:0009dfe0       ??1?$__crt_unique_heap_ptr@U__crt_locale_data@@U__crt_internal_free_policy@@@@QEAA@XZ 000000018009efe0 f i libucrtd:wsetlocale.obj
 0001:0009e000       ??1?$__crt_unique_heap_ptr@U__crt_locale_pointers@@U__crt_internal_free_policy@@@@QEAA@XZ 000000018009f000 f i libucrtd:wsetlocale.obj
 0001:0009e020       ??1?$__crt_unique_heap_ptr@U__crt_multibyte_data@@U__crt_internal_free_policy@@@@QEAA@XZ 000000018009f020 f i libucrtd:wsetlocale.obj
 0001:0009e040       ??1_expandlocale_locale_name_cache@@QEAA@XZ 000000018009f040 f i libucrtd:wsetlocale.obj
 0001:0009e0c0       ??B?$__crt_unique_heap_ptr@U__crt_locale_data@@U__crt_internal_free_policy@@@@QEBA_NXZ 000000018009f0c0 f i libucrtd:wsetlocale.obj
 0001:0009e0e0       ??B?$__crt_unique_heap_ptr@U__crt_locale_pointers@@U__crt_internal_free_policy@@@@QEBA_NXZ 000000018009f0e0 f i libucrtd:wsetlocale.obj
 0001:0009e100       ??B?$__crt_unique_heap_ptr@U__crt_multibyte_data@@U__crt_internal_free_policy@@@@QEBA_NXZ 000000018009f100 f i libucrtd:wsetlocale.obj
 0001:0009e5b0       ?commit_locale_name@_expandlocale_locale_name_cache@@QEAAXQEB_W_K@Z 000000018009f5b0 f i libucrtd:wsetlocale.obj
 0001:0009e630       ?commit_locale_name_cache_already_updated@_expandlocale_locale_name_cache@@QEAAXQEB_W_K@Z 000000018009f630 f i libucrtd:wsetlocale.obj
 0001:0009e6a0       ?detach@?$__crt_unique_heap_ptr@U__crt_locale_data@@U__crt_internal_free_policy@@@@QEAAPEAU__crt_locale_data@@XZ 000000018009f6a0 f i libucrtd:wsetlocale.obj
 0001:0009e6d0       ?detach@?$__crt_unique_heap_ptr@U__crt_locale_pointers@@U__crt_internal_free_policy@@@@QEAAPEAU__crt_locale_pointers@@XZ 000000018009f6d0 f i libucrtd:wsetlocale.obj
 0001:0009e700       ?detach@?$__crt_unique_heap_ptr@U__crt_multibyte_data@@U__crt_internal_free_policy@@@@QEAAPEAU__crt_multibyte_data@@XZ 000000018009f700 f i libucrtd:wsetlocale.obj
 0001:0009e730       ?get@?$__crt_unique_heap_ptr@U__crt_locale_data@@U__crt_internal_free_policy@@@@QEBAPEAU__crt_locale_data@@XZ 000000018009f730 f i libucrtd:wsetlocale.obj
 0001:0009e740       ?get@?$__crt_unique_heap_ptr@U__crt_locale_pointers@@U__crt_internal_free_policy@@@@QEBAPEAU__crt_locale_pointers@@XZ 000000018009f740 f i libucrtd:wsetlocale.obj
 0001:0009e750       ?get@?$__crt_unique_heap_ptr@U__crt_multibyte_data@@U__crt_internal_free_policy@@@@QEBAPEAU__crt_multibyte_data@@XZ 000000018009f750 f i libucrtd:wsetlocale.obj
 0001:0009e760       ?is_valid@?$__crt_unique_heap_ptr@U__crt_locale_data@@U__crt_internal_free_policy@@@@QEBA_NXZ 000000018009f760 f i libucrtd:wsetlocale.obj
 0001:0009e790       ?is_valid@?$__crt_unique_heap_ptr@U__crt_locale_pointers@@U__crt_internal_free_policy@@@@QEBA_NXZ 000000018009f790 f i libucrtd:wsetlocale.obj
 0001:0009e7c0       ?is_valid@?$__crt_unique_heap_ptr@U__crt_multibyte_data@@U__crt_internal_free_policy@@@@QEBA_NXZ 000000018009f7c0 f i libucrtd:wsetlocale.obj
 0001:0009e7f0       ?release@?$__crt_unique_heap_ptr@U__crt_locale_data@@U__crt_internal_free_policy@@@@QEAAXXZ 000000018009f7f0 f i libucrtd:wsetlocale.obj
 0001:0009e820       ?release@?$__crt_unique_heap_ptr@U__crt_locale_pointers@@U__crt_internal_free_policy@@@@QEAAXXZ 000000018009f820 f i libucrtd:wsetlocale.obj
 0001:0009e850       ?release@?$__crt_unique_heap_ptr@U__crt_multibyte_data@@U__crt_internal_free_policy@@@@QEAAXXZ 000000018009f850 f i libucrtd:wsetlocale.obj
 0001:0009e880       __acrt_copy_locale_name    000000018009f880 f   libucrtd:wsetlocale.obj
 0001:0009e950       __acrt_set_locale_changed  000000018009f950 f   libucrtd:wsetlocale.obj
 0001:0009e960       __acrt_uninitialize_locale 000000018009f960 f   libucrtd:wsetlocale.obj
 0001:0009e990       __ascii_tolower            000000018009f990 f i libucrtd:wsetlocale.obj
 0001:0009e9b0       __ascii_towlower           000000018009f9b0 f i libucrtd:wsetlocale.obj
 0001:0009e9d0       __lc_lctowcs               000000018009f9d0 f   libucrtd:wsetlocale.obj
 0001:0009eac0       __lc_wcstolc               000000018009fac0 f   libucrtd:wsetlocale.obj
 0001:0009ed80       _configthreadlocale        000000018009fd80 f   libucrtd:wsetlocale.obj
 0001:0009ef40       _create_locale             000000018009ff40 f   libucrtd:wsetlocale.obj
 0001:0009f640       _free_locale               00000001800a0640 f   libucrtd:wsetlocale.obj
 0001:0009f730       _get_current_locale        00000001800a0730 f   libucrtd:wsetlocale.obj
 0001:0009f840       _wcreate_locale            00000001800a0840 f   libucrtd:wsetlocale.obj
 0001:0009fb30       _wcscats                   00000001800a0b30 f   libucrtd:wsetlocale.obj
 0001:0009fc10       _wsetlocale                00000001800a0c10 f   libucrtd:wsetlocale.obj
 0001:000a1830       __p___mb_cur_max           00000001800a2830 f   libucrtd:nlsdata.obj
 0001:000a1c10       __acrt_initialize_lowio    00000001800a2c10 f   libucrtd:ioinit.obj
 0001:000a1c60       __acrt_uninitialize_lowio  00000001800a2c60 f   libucrtd:ioinit.obj
 0001:000a1ce0       _CrtGetReportHook          00000001800a2ce0 f   libucrtd:dbgrptt.obj
 0001:000a1cf0       _CrtSetReportFile          00000001800a2cf0 f   libucrtd:dbgrptt.obj
 0001:000a1e50       _CrtSetReportHook          00000001800a2e50 f   libucrtd:dbgrptt.obj
 0001:000a1e80       _CrtSetReportMode          00000001800a2e80 f   libucrtd:dbgrptt.obj
 0001:000a2030       _VCrtDbgReportA            00000001800a3030 f   libucrtd:dbgrptt.obj
 0001:000a2a10       _VCrtDbgReportW            00000001800a3a10 f   libucrtd:dbgrptt.obj
 0001:000a3590       _snprintf_s                00000001800a4590 f i libucrtd:dbgrptt.obj
 0001:000a3600       _vsnprintf_s               00000001800a4600 f i libucrtd:dbgrptt.obj
 0001:000a3650       _vsnprintf_s_l             00000001800a4650 f i libucrtd:dbgrptt.obj
 0001:000a3870       ??$__acrt_wcs_to_mbs_cp@U__crt_win32_buffer_no_resizing@@@@YAHQEB_WAEAV?$__crt_win32_buffer@DU__crt_win32_buffer_no_resizing@@@@I@Z 00000001800a4870 f i libucrtd:getmodulefilenamea.obj
 0001:000a38c0       ??0?$__crt_win32_buffer@DU__crt_win32_buffer_no_resizing@@@@QEAA@QEAD_K@Z 00000001800a48c0 f i libucrtd:getmodulefilenamea.obj
 0001:000a3930       ??1?$__crt_win32_buffer@DU__crt_win32_buffer_no_resizing@@@@QEAA@XZ 00000001800a4930 f i libucrtd:getmodulefilenamea.obj
 0001:000a39c0       ?__acrt_get_utf8_acp_compatibility_codepage@@YAIXZ 00000001800a49c0 f i libucrtd:getmodulefilenamea.obj
 0001:000a3a60       ?_deallocate@?$__crt_win32_buffer@DU__crt_win32_buffer_no_resizing@@@@AEAAXXZ 00000001800a4a60 f i libucrtd:getmodulefilenamea.obj
 0001:000a3aa0       ?allocate@?$__crt_win32_buffer@DU__crt_win32_buffer_no_resizing@@@@QEAAH_K@Z 00000001800a4aa0 f i libucrtd:getmodulefilenamea.obj
 0001:000a3b20       ?allocate@__crt_win32_buffer_no_resizing@@SAHQEAPEAX_KAEBV__crt_win32_buffer_empty_debug_info@@@Z 00000001800a4b20 f i libucrtd:getmodulefilenamea.obj
 0001:000a3b50       ?capacity@?$__crt_win32_buffer@DU__crt_win32_buffer_no_resizing@@@@QEBA_KXZ 00000001800a4b50 f i libucrtd:getmodulefilenamea.obj
 0001:000a3b60       ?data@?$__crt_win32_buffer@DU__crt_win32_buffer_no_resizing@@@@QEAAPEADXZ 00000001800a4b60 f i libucrtd:getmodulefilenamea.obj
 0001:000a3b70       ?deallocate@__crt_win32_buffer_no_resizing@@SAXQEAXAEBV__crt_win32_buffer_empty_debug_info@@@Z 00000001800a4b70 f i libucrtd:getmodulefilenamea.obj
 0001:000a3b80       ?debug_info@?$__crt_win32_buffer@DU__crt_win32_buffer_no_resizing@@@@QEBAAEBV__crt_win32_buffer_empty_debug_info@@XZ 00000001800a4b80 f i libucrtd:getmodulefilenamea.obj
 0001:000a3b90       ?set_to_nullptr@?$__crt_win32_buffer@DU__crt_win32_buffer_no_resizing@@@@QEAAXXZ 00000001800a4b90 f i libucrtd:getmodulefilenamea.obj
 0001:000a3bd0       ?size@?$__crt_win32_buffer@DU__crt_win32_buffer_no_resizing@@@@QEAAX_K@Z 00000001800a4bd0 f i libucrtd:getmodulefilenamea.obj
 0001:000a3bf0       ?size@?$__crt_win32_buffer@DU__crt_win32_buffer_no_resizing@@@@QEBA_KXZ 00000001800a4bf0 f i libucrtd:getmodulefilenamea.obj
 0001:000a3c00       __acrt_GetModuleFileNameA  00000001800a4c00 f   libucrtd:getmodulefilenamea.obj
 0001:000a3f60       ??$message_box@$$TAEBQEBDAEBQEBDK@?$__crt_char_traits@D@@SAH$$QEA$$TAEBQEBD1$$QEAK@Z 00000001800a4f60 f i libucrtd:crtmbox.obj
 0001:000a3fb0       ??$message_box@$$TAEBQEB_WAEBQEB_WK@?$__crt_char_traits@_W@@SAH$$QEA$$TAEBQEB_W1$$QEAK@Z 00000001800a4fb0 f i libucrtd:crtmbox.obj
 0001:000a4000       ??$message_box@PEAUHWND__@@AEBQEBDAEBQEBDAEBI@?$__crt_char_traits@D@@SAH$$QEAPEAUHWND__@@AEBQEBD1AEBI@Z 00000001800a5000 f i libucrtd:crtmbox.obj
 0001:000a4050       ??$message_box@PEAUHWND__@@AEBQEB_WAEBQEB_WAEBI@?$__crt_char_traits@_W@@SAH$$QEAPEAUHWND__@@AEBQEB_W1AEBI@Z 00000001800a5050 f i libucrtd:crtmbox.obj
 0001:000a40a0       ??$output_debug_string@AEBQEBD@?$__crt_char_traits@D@@SAXAEBQEBD@Z 00000001800a50a0 f i libucrtd:crtmbox.obj
 0001:000a40c0       ??$output_debug_string@AEBQEB_W@?$__crt_char_traits@_W@@SAXAEBQEB_W@Z 00000001800a50c0 f i libucrtd:crtmbox.obj
 0001:000a40e0       __acrt_show_narrow_message_box 00000001800a50e0 f   libucrtd:crtmbox.obj
 0001:000a4110       __acrt_show_wide_message_box 00000001800a5110 f   libucrtd:crtmbox.obj
 0001:000a4140       __acrt_initialize_locks    00000001800a5140 f   libucrtd:locks.obj
 0001:000a41b0       __acrt_lock                00000001800a51b0 f   libucrtd:locks.obj
 0001:000a41e0       __acrt_uninitialize_locks  00000001800a51e0 f   libucrtd:locks.obj
 0001:000a4240       __acrt_unlock              00000001800a5240 f   libucrtd:locks.obj
 0001:000a4270       _lock_locales              00000001800a5270 f   libucrtd:locks.obj
 0001:000a4290       _unlock_locales            00000001800a5290 f   libucrtd:locks.obj
 0001:000a42b0       ??$?B$$A6AXH@Z@__crt_fast_encoded_nullptr_t@@QEBAP6AXH@ZXZ 00000001800a52b0 f i libucrtd:signal.obj
 0001:000a4370       ??$__crt_fast_decode_pointer@P6AXH@Z@@YAP6AXH@ZQ6AXH@Z@Z 00000001800a5370 f i libucrtd:signal.obj
 0001:000a43b0       ??$__crt_fast_encode_pointer@P6AXH@Z@@YAP6AXH@ZQ6AXH@Z@Z 00000001800a53b0 f i libucrtd:signal.obj
 0001:000a4630       ?initialize@?$dual_state_global@P6AXH@Z@__crt_state_management@@QEAAXQ6AXH@Z@Z 00000001800a5630 f i libucrtd:signal.obj
 0001:000a47b0       ?value@?$dual_state_global@P6AXH@Z@__crt_state_management@@QEAAAEAP6AXH@ZXZ 00000001800a57b0 f i libucrtd:signal.obj
 0001:000a47d0       __acrt_get_sigabrt_handler 00000001800a57d0 f   libucrtd:signal.obj
 0001:000a4800       __acrt_initialize_signal_handlers 00000001800a5800 f   libucrtd:signal.obj
 0001:000a4860       __fpecode                  00000001800a5860 f   libucrtd:signal.obj
 0001:000a4880       __pxcptinfoptrs            00000001800a5880 f   libucrtd:signal.obj
 0001:000a48a0       raise                      00000001800a58a0 f   libucrtd:signal.obj
 0001:000a4d60       signal                     00000001800a5d60 f   libucrtd:signal.obj
 0001:000a5030       _msize                     00000001800a6030 f   libucrtd:msize.obj
 0001:000a5050       _msize_base                00000001800a6050 f   libucrtd:msize.obj
 0001:000a5120       _realloc_base              00000001800a6120 f   libucrtd:realloc_base.obj
 0001:000a51f0       ??$?B$$A6AHPEA_WK_J@Z@__crt_fast_encoded_nullptr_t@@QEBAP6AHPEA_WK_J@ZXZ 00000001800a61f0 f i libucrtd:winapi_thunks.obj
 0001:000a52b0       ??$__crt_fast_decode_pointer@P6AHPEA_WK_J@Z@@YAP6AHPEA_WK_J@ZQ6AH0K1@Z@Z 00000001800a62b0 f i libucrtd:winapi_thunks.obj
 0001:000a52f0       ??$__crt_fast_decode_pointer@PEAX@@YAPEAXQEAX@Z 00000001800a62f0 f i libucrtd:winapi_thunks.obj
 0001:000a5330       ??$__crt_fast_encode_pointer@P6AHPEA_WK_J@Z@@YAP6AHPEA_WK_J@ZQ6AH0K1@Z@Z 00000001800a6330 f i libucrtd:winapi_thunks.obj
 0001:000a5fa0       GetCurrentThreadEffectiveToken 00000001800a6fa0 f i libucrtd:winapi_thunks.obj
 0001:000a5fb0       __acrt_AppPolicyGetProcessTerminationMethodInternal 00000001800a6fb0 f   libucrtd:winapi_thunks.obj
 0001:000a6000       __acrt_AppPolicyGetShowDeveloperDiagnosticInternal 00000001800a7000 f   libucrtd:winapi_thunks.obj
 0001:000a6050       __acrt_AppPolicyGetThreadInitializationTypeInternal 00000001800a7050 f   libucrtd:winapi_thunks.obj
 0001:000a60a0       __acrt_AppPolicyGetWindowingModelInternal 00000001800a70a0 f   libucrtd:winapi_thunks.obj
 0001:000a60f0       __acrt_AreFileApisANSI     00000001800a70f0 f   libucrtd:winapi_thunks.obj
 0001:000a6130       __acrt_CompareStringEx     00000001800a7130 f   libucrtd:winapi_thunks.obj
 0001:000a6210       __acrt_EnumSystemLocalesEx 00000001800a7210 f   libucrtd:winapi_thunks.obj
 0001:000a6290       __acrt_FlsAlloc            00000001800a7290 f   libucrtd:winapi_thunks.obj
 0001:000a62e0       __acrt_FlsFree             00000001800a72e0 f   libucrtd:winapi_thunks.obj
 0001:000a6330       __acrt_FlsGetValue         00000001800a7330 f   libucrtd:winapi_thunks.obj
 0001:000a6380       __acrt_FlsSetValue         00000001800a7380 f   libucrtd:winapi_thunks.obj
 0001:000a63e0       __acrt_GetDateFormatEx     00000001800a73e0 f   libucrtd:winapi_thunks.obj
 0001:000a64a0       __acrt_GetEnabledXStateFeatures 00000001800a74a0 f   libucrtd:winapi_thunks.obj
 0001:000a64e0       __acrt_GetLocaleInfoEx     00000001800a74e0 f   libucrtd:winapi_thunks.obj
 0001:000a6560       __acrt_GetSystemTimePreciseAsFileTime 00000001800a7560 f   libucrtd:winapi_thunks.obj
 0001:000a65b0       __acrt_GetTimeFormatEx     00000001800a75b0 f   libucrtd:winapi_thunks.obj
 0001:000a6660       __acrt_GetUserDefaultLocaleName 00000001800a7660 f   libucrtd:winapi_thunks.obj
 0001:000a66c0       __acrt_GetXStateFeaturesMask 00000001800a76c0 f   libucrtd:winapi_thunks.obj
 0001:000a6710       __acrt_InitializeCriticalSectionEx 00000001800a7710 f   libucrtd:winapi_thunks.obj
 0001:000a6770       __acrt_IsValidLocaleName   00000001800a7770 f   libucrtd:winapi_thunks.obj
 0001:000a67d0       __acrt_LCIDToLocaleName    00000001800a77d0 f   libucrtd:winapi_thunks.obj
 0001:000a6840       __acrt_LCMapStringEx       00000001800a7840 f   libucrtd:winapi_thunks.obj
 0001:000a6920       __acrt_LocaleNameToLCID    00000001800a7920 f   libucrtd:winapi_thunks.obj
 0001:000a6970       __acrt_LocateXStateFeature 00000001800a7970 f   libucrtd:winapi_thunks.obj
 0001:000a69d0       __acrt_MessageBoxA         00000001800a79d0 f   libucrtd:winapi_thunks.obj
 0001:000a6a30       __acrt_MessageBoxW         00000001800a7a30 f   libucrtd:winapi_thunks.obj
 0001:000a6a90       __acrt_RoInitialize        00000001800a7a90 f   libucrtd:winapi_thunks.obj
 0001:000a6ad0       __acrt_RoUninitialize      00000001800a7ad0 f   libucrtd:winapi_thunks.obj
 0001:000a6b00       __acrt_RtlGenRandom        00000001800a7b00 f   libucrtd:winapi_thunks.obj
 0001:000a6b50       __acrt_SetThreadStackGuarantee 00000001800a7b50 f   libucrtd:winapi_thunks.obj
 0001:000a6b90       __acrt_can_show_message_box 00000001800a7b90 f   libucrtd:winapi_thunks.obj
