 OPOSPOSPower

 Timestamp is 61c670fd (Sat Dec 25 10:16:45 2021)

 Preferred load address is 0000000180000000

 Start         Length     Name                   Class
 0001:00000000 00000d90H .text$di                CODE
 0001:00000d90 000e3cb0H .text$mn                CODE
 0001:000e4a40 00000040H .text$mn$00             CODE
 0001:000e4a80 00001330H .text$x                 CODE
 0001:000e5db0 00000124H .text$yd                CODE
 0002:00000000 000006f8H .idata$5                DATA
 0002:000006f8 00000030H .00cfg                  DATA
 0002:00000728 00000008H .CRT$XCA                DATA
 0002:00000730 00000008H .CRT$XCL                DATA
 0002:00000738 000000d8H .CRT$XCU                DATA
 0002:00000810 00000008H .CRT$XCZ                DATA
 0002:00000818 00000008H .CRT$XIA                DATA
 0002:00000820 00000028H .CRT$XIC                DATA
 0002:00000848 00000008H .CRT$XIZ                DATA
 0002:00000850 00000008H .CRT$XLA                DATA
 0002:00000858 00000008H .CRT$XLZ                DATA
 0002:00000860 00000008H .CRT$XPA                DATA
 0002:00000868 00000010H .CRT$XPX                DATA
 0002:00000878 00000008H .CRT$XPXA               DATA
 0002:00000880 00000008H .CRT$XPZ                DATA
 0002:00000888 00000008H .CRT$XTA                DATA
 0002:00000890 00000010H .CRT$XTZ                DATA
 0002:00000898 00000000H .gehcont$y              DATA
 0002:00000898 00000000H .gfids$y                DATA
 0002:000008a0 0003bee0H .rdata                  DATA
 0002:0003c780 00000080H .rdata$CastGuardVftablesA DATA
 0002:0003c800 00000080H .rdata$CastGuardVftablesC DATA
 0002:0003c880 00000028H .rdata$T                DATA
 0002:0003c8a8 0000056cH .rdata$r                DATA
 0002:0003ce14 00000178H .rdata$voltmd           DATA
 0002:0003cf8c 000004a4H .rdata$zzzdbg           DATA
 0002:0003d430 00000008H .rtc$IAA                DATA
 0002:0003d438 00000030H .rtc$IMZ                DATA
 0002:0003d468 00000008H .rtc$IZZ                DATA
 0002:0003d470 00000008H .rtc$TAA                DATA
 0002:0003d478 00000030H .rtc$TMZ                DATA
 0002:0003d4a8 00000008H .rtc$TZZ                DATA
 0002:0003d4b0 00000004H .tls                    DATA
 0002:0003d4b4 00000004H .tls$                   DATA
 0002:0003d4b8 00000008H .tls$ZZZ                DATA
 0002:0003d4c0 00009f70H .xdata                  DATA
 0002:00047430 00000150H .xdata$x                DATA
 0002:00047580 00000008H ATL$__a                 DATA
 0002:00047588 00000008H ATL$__z                 DATA
 0002:00047590 000000acH .edata                  DATA
 0002:0004763c 00000078H .idata$2                DATA
 0002:000476b4 00000014H .idata$3                DATA
 0002:000476c8 000006f8H .idata$4                DATA
 0002:00047dc0 00000df0H .idata$6                DATA
 0003:00000000 00000ec8H .data                   DATA
 0003:00000ec8 000000a8H .data$r                 DATA
 0003:00000f70 000000f0H .data$rs                DATA
 0003:00001060 00003e7cH .bss                    DATA
 0004:00000000 0000c864H .pdata                  DATA
 0005:00000000 000000fcH _RDATA                  DATA
 0006:00000000 00000220H .rsrc$01                DATA
 0006:00000220 00004bd8H .rsrc$02                DATA

  Address         Publics by Value              Rva+Base               Lib:Object

 0000:00000000       __arm64x_native_entrypoint 0000000000000000     <absolute>
 0000:00000000       __x64_code_ranges_to_entry_points 0000000000000000     <absolute>
 0000:00000000       __guard_eh_cont_table      0000000000000000     <absolute>
 0000:00000000       ___safe_se_handler_count   0000000000000000     <absolute>
 0000:00000000       __arm64x_extra_rfe_table   0000000000000000     <absolute>
 0000:00000000       __arm64x_redirection_metadata_count 0000000000000000     <absolute>
 0000:00000000       __arm64x_extra_rfe_table_size 0000000000000000     <absolute>
 0000:00000000       __guard_fids_table         0000000000000000     <absolute>
 0000:00000000       __AbsoluteZero             0000000000000000     <absolute>
 0000:00000000       __guard_longjmp_count      0000000000000000     <absolute>
 0000:00000000       __hybrid_auxiliary_iat     0000000000000000     <absolute>
 0000:00000000       __guard_longjmp_table      0000000000000000     <absolute>
 0000:00000000       __guard_iat_count          0000000000000000     <absolute>
 0000:00000000       __hybrid_code_map          0000000000000000     <absolute>
 0000:00000000       __x64_code_ranges_to_entry_points_count 0000000000000000     <absolute>
 0000:00000000       __arm64x_redirection_metadata 0000000000000000     <absolute>
 0000:00000000       __hybrid_auxiliary_iat_copy 0000000000000000     <absolute>
 0000:00000000       __hybrid_code_map_count    0000000000000000     <absolute>
 0000:00000000       __guard_eh_cont_count      0000000000000000     <absolute>
 0000:00000000       __guard_iat_table          0000000000000000     <absolute>
 0000:00000000       __dynamic_value_reloc_table 0000000000000000     <absolute>
 0000:00000000       ___safe_se_handler_table   0000000000000000     <absolute>
 0000:00000000       __guard_fids_count         0000000000000000     <absolute>
 0000:00000000       __guard_check_icall_a64n_fptr 0000000000000000     <absolute>
 0000:00000000       __enclave_config           0000000000000000     <absolute>
 0000:00000100       __guard_flags              0000000000000100     <absolute>
 0000:00000000       __ImageBase                0000000180000000     <linker-defined>
 0001:00000d90       ?_assert@@YAXPEB_W0I@Z     0000000180001d90 f   Assert.obj
 0001:00000e90       __local_stdio_printf_options 0000000180001e90 f i Assert.obj
 0001:00000ea0       __vswprintf_l              0000000180001ea0 f i Assert.obj
 0001:00000ef0       _swprintf                  0000000180001ef0 f i Assert.obj
 0001:00000f70       _vswprintf_c_l             0000000180001f70 f i Assert.obj
 0001:00000fe0       _vswprintf_l               0000000180001fe0 f i Assert.obj
 0001:00001030       ?cw_memcpy@@YAHPEADPEB_WH@Z 0000000180002030 f   CWString.obj
 0001:000010b0       ?cw_memcpy@@YAHPEA_WPEBDH@Z 00000001800020b0 f   CWString.obj
 0001:00001120       ?cw_memcpy@@YAHPEADPEBDH@Z 0000000180002120 f   CWString.obj
 0001:000011b0       ?cw_memcpy@@YAHPEA_WPEB_WH@Z 00000001800021b0 f   CWString.obj
 0001:00001210       ?cw_memset@@YAXPEADDH@Z    0000000180002210 f   CWString.obj
 0001:00001270       ?cw_memset@@YAXPEA_W_WH@Z  0000000180002270 f   CWString.obj
 0001:00001300       ?cw_strlen@@YAHPEBD@Z      0000000180002300 f   CWString.obj
 0001:00001360       ?cw_strlen@@YAHPEB_W@Z     0000000180002360 f   CWString.obj
 0001:000013c0       ?cw_strcpy@@YAHPEADPEB_W@Z 00000001800023c0 f   CWString.obj
 0001:00001400       ?cw_strcpy@@YAHPEA_WPEBD@Z 0000000180002400 f   CWString.obj
 0001:00001440       ?cw_strcpy@@YAHPEADPEBD@Z  0000000180002440 f   CWString.obj
 0001:00001480       ?cw_strcpy@@YAHPEA_WPEB_W@Z 0000000180002480 f   CWString.obj
 0001:000014c0       ?cw_strcat@@YAHPEADPEB_W@Z 00000001800024c0 f   CWString.obj
 0001:00001510       ?cw_strcat@@YAHPEA_WPEBD@Z 0000000180002510 f   CWString.obj
 0001:00001560       ?cw_strcat@@YAHPEADPEBD@Z  0000000180002560 f   CWString.obj
 0001:000015b0       ?cw_strcat@@YAHPEA_WPEB_W@Z 00000001800025b0 f   CWString.obj
 0001:00001600       ?cw_dup@@YAXPEBDAEAHAEAPEA_W1@Z 0000000180002600 f   CWString.obj
 0001:00001700       ?cw_dup@@YAXPEB_WAEAHAEAPEAD1@Z 0000000180002700 f   CWString.obj
 0001:000017e0       ?DupChar@_CW@@AEAAXXZ      00000001800027e0 f   CWString.obj
 0001:00001830       ?DupWide@_CW@@AEAAXXZ      0000000180002830 f   CWString.obj
 0001:00001880       ?GetCharsMbcs@_CW@@QEAAHXZ 0000000180002880 f   CWString.obj
 0001:000018e0       ?GetCharsWide@_CW@@QEAAHXZ 00000001800028e0 f   CWString.obj
 0001:00001940       ?SetVARIANT_BOOL@OposVariant@@QEAAXF@Z 0000000180002940 f   OposVariant.obj
 0001:000019a0       ?SetVARIANT_BOOL_Ptr@OposVariant@@QEAAXPEAFAEAJ@Z 00000001800029a0 f   OposVariant.obj
 0001:00001a00       ?GetLONG@OposVariant@@QEAAJXZ 0000000180002a00 f   OposVariant.obj
 0001:00001a60       ?ChangeLONG@OposVariant@@QEAAXPEAJAEAJ@Z 0000000180002a60 f   OposVariant.obj
 0001:00001b10       ?SetLONG@OposVariant@@QEAAXJ@Z 0000000180002b10 f   OposVariant.obj
 0001:00001b50       ?SetLONG_Ptr@OposVariant@@QEAAXPEAJAEAJ@Z 0000000180002b50 f   OposVariant.obj
 0001:00001bb0       ?ChangeCURRENCY@OposVariant@@QEAAXPEATtagCY@@AEAJ@Z 0000000180002bb0 f   OposVariant.obj
 0001:00001c60       ?SetCURRENCY@OposVariant@@QEAAXTtagCY@@@Z 0000000180002c60 f   OposVariant.obj
 0001:00001ca0       ?SetCURRENCY_Ptr@OposVariant@@QEAAXPEATtagCY@@AEAJ@Z 0000000180002ca0 f   OposVariant.obj
 0001:00001d00       ?ChangeBSTR@OposVariant@@QEAAXPEAPEA_WAEAJ@Z 0000000180002d00 f   OposVariant.obj
 0001:00001db0       ?SetBSTR@OposVariant@@QEAAXPEA_WAEAJ@Z 0000000180002db0 f   OposVariant.obj
 0001:00001e10       ?SetBSTR_Copy@OposVariant@@QEAAXPEA_WAEAJ@Z 0000000180002e10 f   OposVariant.obj
 0001:00001eb0       ?SetBSTR_OutPtr@OposVariant@@QEAA_NPEAPEA_WAEAJ@Z 0000000180002eb0 f   OposVariant.obj
 0001:00001f10       ?SetBSTR_InOutPtr@OposVariant@@QEAA_NPEAPEA_WAEAJ@Z 0000000180002f10 f   OposVariant.obj
 0001:00001f70       ?SetVARIANT@OposVariant@@QEAAXAEAUtagVARIANT@@GAEAJ@Z 0000000180002f70 f   OposVariant.obj
 0001:00002000       ?SetVARIANT_Ptr@OposVariant@@QEAAXAEAPEAUtagVARIANT@@GAEAJ@Z 0000000180003000 f   OposVariant.obj
 0001:000020a0       ?SetString@OposVariant@@QEAAXPEB_WAEAJ@Z 00000001800030a0 f   OposVariant.obj
 0001:00002130       ?SetDispatch_Ptr@OposVariant@@QEAAXPEAUIDispatch@@AEAJ@Z 0000000180003130 f   OposVariant.obj
 0001:000021b0       ??0OposDispParms@@QEAA@PEAVOposVariant@@H@Z 00000001800031b0 f   OposVariant.obj
 0001:000022b0       ??1OposDispParms@@QEAA@XZ  00000001800032b0 f   OposVariant.obj
 0001:000022f0       ??$AtlMultiply@_K@ATL@@YAJPEA_K_K1@Z 00000001800032f0 f i OposVariant.obj
 0001:00002360       ??0?$CHeapPtr@_WVCCRTAllocator@ATL@@@ATL@@QEAA@XZ 0000000180003360 f i OposVariant.obj
 0001:00002380       ??0?$CHeapPtrBase@_WVCCRTAllocator@ATL@@@ATL@@IEAA@XZ 0000000180003380 f i OposVariant.obj
 0001:000023a0       ??0?$CSimpleArray@GV?$CSimpleArrayEqualHelper@G@ATL@@@ATL@@QEAA@XZ 00000001800033a0 f i OposVariant.obj
 0001:000023e0       ??0?$CTraceCategoryEx@$00$0A@@ATL@@QEAA@PEB_W@Z 00000001800033e0 f i OposVariant.obj
 0001:00002410       ??0?$CTraceCategoryEx@$01$0A@@ATL@@QEAA@PEB_W@Z 0000000180003410 f i OposVariant.obj
 0001:00002440       ??0?$CTraceCategoryEx@$03$0A@@ATL@@QEAA@PEB_W@Z 0000000180003440 f i OposVariant.obj
 0001:00002470       ??0?$CTraceCategoryEx@$07$0A@@ATL@@QEAA@PEB_W@Z 0000000180003470 f i OposVariant.obj
 0001:000024a0       ??0?$CTraceCategoryEx@$0BA@$0A@@ATL@@QEAA@PEB_W@Z 00000001800034a0 f i OposVariant.obj
 0001:000024d0       ??0?$CTraceCategoryEx@$0BAA@$0A@@ATL@@QEAA@PEB_W@Z 00000001800034d0 f i OposVariant.obj
 0001:00002500       ??0?$CTraceCategoryEx@$0BAAA@$0A@@ATL@@QEAA@PEB_W@Z 0000000180003500 f i OposVariant.obj
 0001:00002530       ??0?$CTraceCategoryEx@$0BAAAA@$0A@@ATL@@QEAA@PEB_W@Z 0000000180003530 f i OposVariant.obj
 0001:00002560       ??0?$CTraceCategoryEx@$0BAAAAA@$0A@@ATL@@QEAA@PEB_W@Z 0000000180003560 f i OposVariant.obj
 0001:00002590       ??0?$CTraceCategoryEx@$0CA@$0A@@ATL@@QEAA@PEB_W@Z 0000000180003590 f i OposVariant.obj
 0001:000025c0       ??0?$CTraceCategoryEx@$0CAA@$0A@@ATL@@QEAA@PEB_W@Z 00000001800035c0 f i OposVariant.obj
 0001:000025f0       ??0?$CTraceCategoryEx@$0CAAA@$0A@@ATL@@QEAA@PEB_W@Z 00000001800035f0 f i OposVariant.obj
 0001:00002620       ??0?$CTraceCategoryEx@$0CAAAA@$0A@@ATL@@QEAA@PEB_W@Z 0000000180003620 f i OposVariant.obj
 0001:00002650       ??0?$CTraceCategoryEx@$0CAAAAA@$0A@@ATL@@QEAA@PEB_W@Z 0000000180003650 f i OposVariant.obj
 0001:00002680       ??0?$CTraceCategoryEx@$0EA@$0A@@ATL@@QEAA@PEB_W@Z 0000000180003680 f i OposVariant.obj
 0001:000026b0       ??0?$CTraceCategoryEx@$0EAA@$0A@@ATL@@QEAA@PEB_W@Z 00000001800036b0 f i OposVariant.obj
 0001:000026e0       ??0?$CTraceCategoryEx@$0EAAA@$0A@@ATL@@QEAA@PEB_W@Z 00000001800036e0 f i OposVariant.obj
 0001:00002710       ??0?$CTraceCategoryEx@$0EAAAA@$0A@@ATL@@QEAA@PEB_W@Z 0000000180003710 f i OposVariant.obj
 0001:00002740       ??0?$CTraceCategoryEx@$0EAAAAA@$0A@@ATL@@QEAA@PEB_W@Z 0000000180003740 f i OposVariant.obj
 0001:00002770       ??0?$CTraceCategoryEx@$0IA@$0A@@ATL@@QEAA@PEB_W@Z 0000000180003770 f i OposVariant.obj
 0001:000027a0       ??0?$CTraceCategoryEx@$0IAA@$0A@@ATL@@QEAA@PEB_W@Z 00000001800037a0 f i OposVariant.obj
 0001:000027d0       ??0?$CTraceCategoryEx@$0IAAA@$0A@@ATL@@QEAA@PEB_W@Z 00000001800037d0 f i OposVariant.obj
 0001:00002800       ??0?$CTraceCategoryEx@$0IAAAA@$0A@@ATL@@QEAA@PEB_W@Z 0000000180003800 f i OposVariant.obj
 0001:00002830       ??0CAtlComModule@ATL@@QEAA@XZ 0000000180003830 f i OposVariant.obj
 0001:00002940       ??0CAtlWinModule@ATL@@QEAA@XZ 0000000180003940 f i OposVariant.obj
 0001:000029e0       ??0CComCriticalSection@ATL@@QEAA@XZ 00000001800039e0 f i OposVariant.obj
 0001:00002a10       ??0CPreserveLastError@ATL@@QEAA@XZ 0000000180003a10 f i OposVariant.obj
 0001:00002a40       ??0CTraceFileAndLineInfo@ATL@@QEAA@PEBDH@Z 0000000180003a40 f i OposVariant.obj
 0001:00002a70       ??0_ATL_COM_MODULE70@ATL@@QEAA@XZ 0000000180003a70 f i OposVariant.obj
 0001:00002aa0       ??0_ATL_WIN_MODULE70@ATL@@QEAA@XZ 0000000180003aa0 f i OposVariant.obj
 0001:00002ae0       ??1?$CHeapPtr@_WVCCRTAllocator@ATL@@@ATL@@QEAA@XZ 0000000180003ae0 f i OposVariant.obj
 0001:00002b00       ??1?$CHeapPtrBase@_WVCCRTAllocator@ATL@@@ATL@@QEAA@XZ 0000000180003b00 f i OposVariant.obj
 0001:00002b20       ??1?$CSimpleArray@GV?$CSimpleArrayEqualHelper@G@ATL@@@ATL@@QEAA@XZ 0000000180003b20 f i OposVariant.obj
 0001:00002b40       ??1CAtlComModule@ATL@@QEAA@XZ 0000000180003b40 f i OposVariant.obj
 0001:00002b70       ??1CAtlWinModule@ATL@@QEAA@XZ 0000000180003b70 f i OposVariant.obj
 0001:00002ba0       ??1CComBSTR@ATL@@QEAA@XZ   0000000180003ba0 f i OposVariant.obj
 0001:00002bc0       ??1CComCriticalSection@ATL@@QEAA@XZ 0000000180003bc0 f i OposVariant.obj
 0001:00002bd0       ??1CPreserveLastError@ATL@@QEAA@XZ 0000000180003bd0 f i OposVariant.obj
 0001:00002bf0       ??1_ATL_COM_MODULE70@ATL@@QEAA@XZ 0000000180003bf0 f i OposVariant.obj
 0001:00002c20       ??1_ATL_WIN_MODULE70@ATL@@QEAA@XZ 0000000180003c20 f i OposVariant.obj
 0001:00002c60       ??1stringdispid@CComTypeInfoHolder@ATL@@QEAA@XZ 0000000180003c60 f i OposVariant.obj
 0001:00002c80       ??A?$CSimpleArray@GV?$CSimpleArrayEqualHelper@G@ATL@@@ATL@@QEAAAEAGH@Z 0000000180003c80 f i OposVariant.obj
 0001:00002d20       ??B?$CHeapPtrBase@_WVCCRTAllocator@ATL@@@ATL@@QEBAPEA_WXZ 0000000180003d20 f i OposVariant.obj
 0001:00002d30       ??B?$CTraceCategoryEx@$01$0A@@ATL@@QEAAIXZ 0000000180003d30 f i OposVariant.obj
 0001:00002d40       ??B?$CTraceCategoryEx@$0CA@$0A@@ATL@@QEAAIXZ 0000000180003d40 f i OposVariant.obj
 0001:00002d50       ??RCTraceFileAndLineInfo@ATL@@QEBAXHIPEB_WZZ 0000000180003d50 f i OposVariant.obj
 0001:00002e10       ??_Estringdispid@CComTypeInfoHolder@ATL@@QEAAPEAXI@Z 0000000180003e10 f i OposVariant.obj
 0001:00002eb0       ??_H@YAXPEAX_K1P6APEAX0@Z@Z 0000000180003eb0 f i OposVariant.obj
 0001:00002f30       ??_I@YAXPEAX_K1P6AX0@Z@Z   0000000180003f30 f i OposVariant.obj
 0001:00002fd0       ?Allocate@?$CHeapPtr@_WVCCRTAllocator@ATL@@@ATL@@QEAA_N_K@Z 0000000180003fd0 f i OposVariant.obj
 0001:00003050       ?Allocate@CCRTAllocator@ATL@@SAPEAX_K@Z 0000000180004050 f i OposVariant.obj
 0001:00003070       ?AllocateBytes@?$CHeapPtrBase@_WVCCRTAllocator@ATL@@@ATL@@QEAA_N_K@Z 0000000180004070 f i OposVariant.obj
 0001:000030f0       ?AtlWinModuleInit@ATL@@YAJPEAU_ATL_WIN_MODULE70@1@@Z 00000001800040f0 f i OposVariant.obj
 0001:000031e0       ?AtlWinModuleTerm@ATL@@YAJPEAU_ATL_WIN_MODULE70@1@PEAUHINSTANCE__@@@Z 00000001800041e0 f i OposVariant.obj
 0001:000032b0       ?Clear@OposVariant@@QEAAJXZ 00000001800042b0 f i OposVariant.obj
 0001:000032e0       ?Free@?$CHeapPtrBase@_WVCCRTAllocator@ATL@@@ATL@@QEAAXXZ 00000001800042e0 f i OposVariant.obj
 0001:00003310       ?Free@CCRTAllocator@ATL@@SAXPEAX@Z 0000000180004310 f i OposVariant.obj
 0001:00003330       ?GetCategoryName@CTrace@ATL@@CAPEA_WI@Z 0000000180004330 f i OposVariant.obj
 0001:000033a0       ?GetModuleInstance@CAtlBaseModule@ATL@@QEAAPEAUHINSTANCE__@@XZ 00000001800043a0 f i OposVariant.obj
 0001:000033c0       ?GetSize@?$CSimpleArray@GV?$CSimpleArrayEqualHelper@G@ATL@@@ATL@@QEBAHXZ 00000001800043c0 f i OposVariant.obj
 0001:000033d0       ?Init@CComCriticalSection@ATL@@QEAAJXZ 00000001800043d0 f i OposVariant.obj
 0001:00003420       ?RegisterCategory@CTrace@ATL@@SAXPEB_WI@Z 0000000180004420 f i OposVariant.obj
 0001:000034e0       ?RemoveAll@?$CSimpleArray@GV?$CSimpleArrayEqualHelper@G@ATL@@@ATL@@QEAAXXZ 00000001800044e0 f i OposVariant.obj
 0001:00003550       ?Term@CAtlComModule@ATL@@QEAAXXZ 0000000180004550 f i OposVariant.obj
 0001:00003620       ?Term@CAtlWinModule@ATL@@QEAAXXZ 0000000180004620 f i OposVariant.obj
 0001:00003650       ?Term@CComCriticalSection@ATL@@QEAAJXZ 0000000180004650 f i OposVariant.obj
 0001:00003670       ?TraceV@CTrace@ATL@@CAXPEBDHIIPEB_W@Z 0000000180004670 f i OposVariant.obj
 0001:00003920       ?TraceV@CTrace@ATL@@SAXPEBDHIIPEB_WPEAD@Z 0000000180004920 f i OposVariant.obj
 0001:00003ad0       ?_AtlInitializeCriticalSectionEx@ATL@@YAHPEAU_RTL_CRITICAL_SECTION@@KK@Z 0000000180004ad0 f i OposVariant.obj
 0001:00003b00       ?_AtlRaiseException@ATL@@YAXKK@Z 0000000180004b00 f i OposVariant.obj
 0001:00003b30       HRESULT_FROM_WIN32         0000000180004b30 f i OposVariant.obj
 0001:00003b70       _vswprintf_s_l             0000000180004b70 f i OposVariant.obj
 0001:00003be0       swprintf_s                 0000000180004be0 f i OposVariant.obj
 0001:00003c70       ?ObjectMain@CComObjectRootBase@ATL@@SAX_N@Z 0000000180004c70 f i POSPower.obj
 0001:00003c80       ?GetCategoryMap@CComObjectRootBase@ATL@@SAPEBU_ATL_CATMAP_ENTRY@2@XZ 0000000180004c80 f i POSPower.obj
 0001:00003c90       ?GetObjectDescription@?$CComCoClass@VCOPOSPOSPower@@$1?CLSID_OPOSPOSPower@@3U_GUID@@B@ATL@@SAPEB_WXZ 0000000180004c90 f i POSPower.obj
 0001:00003ca0       ?UpdateRegistry@COPOSPOSPower@@SAJH@Z 0000000180004ca0 f i POSPower.obj
 0001:00003cd0       ?CreateInstance@?$CComCreator@V?$CComObjectCached@VCComClassFactory@ATL@@@ATL@@@ATL@@SAJPEAXAEBU_GUID@@PEAPEAX@Z 0000000180004cd0 f i POSPower.obj
 0001:00003ea0       ?CreateInstance@?$CComCreator2@V?$CComCreator@V?$CComObject@VCOPOSPOSPower@@@ATL@@@ATL@@V?$CComCreator@V?$CComAggObject@VCOPOSPOSPower@@@ATL@@@2@@ATL@@SAJPEAXAEBU_GUID@@PEAPEAX@Z 0000000180004ea0 f i POSPower.obj
 0001:00004090       DllGetClassObject          0000000180005090 f   POSPower.obj
 0001:000040d0       DllCanUnloadNow            00000001800050d0 f   POSPower.obj
 0001:00004110       DllRegisterServer          0000000180005110 f   POSPower.obj
 0001:00004140       DllUnregisterServer        0000000180005140 f   POSPower.obj
 0001:00004300       DllMain                    0000000180005300 f   POSPower.obj
 0001:00004370       ??$?2G@Wrapper@?$CSimpleArray@GV?$CSimpleArrayEqualHelper@G@ATL@@@ATL@@SAPEAX_KPEAG@Z 0000000180005370 f i POSPower.obj
 0001:00004390       ??$?2PEA_W@?$Wrapper@PEA_W@?$CSimpleMap@PEA_WPEA_WVCExpansionVectorEqualHelper@ATL@@@ATL@@SAPEAX_KPEAPEA_W@Z 0000000180005390 f i POSPower.obj
 0001:000043b0       ??$?4UITypeInfo2@@@?$CComPtr@UITypeInfo@@@ATL@@QEAAPEAUITypeInfo@@AEBV?$CComPtr@UITypeInfo2@@@1@@Z 00000001800053b0 f i POSPower.obj
 0001:00004410       ??$AtlAdd@_K@ATL@@YAJPEA_K_K1@Z 0000000180005410 f i POSPower.obj
 0001:00004470       ??$AtlAddThrow@_K@ATL@@YA_K_K0@Z 0000000180005470 f i POSPower.obj
 0001:000044e0       ??$AtlModuleRegisterWndClassInfoT@VAtlModuleRegisterWndClassInfoParamW@ATL@@@ATL@@YAGPEAU_ATL_BASE_MODULE70@0@PEAU_ATL_WIN_MODULE70@0@PEAU_ATL_WNDCLASSINFOW@0@PEAP6A_JPEAUHWND__@@I_K_J@ZVAtlModuleRegisterWndClassInfoParamW@0@@Z 00000001800054e0 f i POSPower.obj
 0001:00004ab0       ??$AtlMultiply@H@ATL@@YAJPEAHHH@Z 0000000180005ab0 f i POSPower.obj
 0001:00004b10       ??$AtlMultiply@K@ATL@@YAJPEAKKK@Z 0000000180005b10 f i POSPower.obj
 0001:00004b60       ??$AtlMultiplyThrow@_K@ATL@@YA_K_K0@Z 0000000180005b60 f i POSPower.obj
 0001:00004bd0       ??$QueryInterface@UIPersistStream@@@IUnknown@@QEAAJPEAPEAUIPersistStream@@@Z 0000000180005bd0 f i POSPower.obj
 0001:00004c00       ??$QueryInterface@UITypeInfo2@@@IUnknown@@QEAAJPEAPEAUITypeInfo2@@@Z 0000000180005c00 f i POSPower.obj
 0001:00004c30       ??0?$CAtlModuleT@VCComModule@ATL@@@ATL@@QEAA@XZ 0000000180005c30 f i POSPower.obj
 0001:00004c60       ??0?$CAtlSafeAllocBufferManager@VCCRTAllocator@ATL@@@_ATL_SAFE_ALLOCA_IMPL@ATL@@QEAA@XZ 0000000180005c60 f i POSPower.obj
 0001:00004c80       ??0?$CAutoVectorPtr@_W@ATL@@QEAA@XZ 0000000180005c80 f i POSPower.obj
 0001:00004ca0       ??0?$CComAggObject@VCOPOSPOSPower@@@ATL@@QEAA@PEAX@Z 0000000180005ca0 f i POSPower.obj
 0001:00004d10       ??0?$CComContainedObject@VCOPOSPOSPower@@@ATL@@QEAA@PEAX@Z 0000000180005d10 f i POSPower.obj
 0001:00004ea0       ??0?$CComCritSecLock@VCComCriticalSection@ATL@@@ATL@@QEAA@AEAVCComCriticalSection@1@_N@Z 0000000180005ea0 f i POSPower.obj
 0001:00004f00       ??0?$CComEnum@UIEnumConnectionPoints@@$1?_GUID_b196b285_bab4_101a_b69c_00aa00341d07@@3U__s_GUID@@BPEAUIConnectionPoint@@V?$_CopyInterface@UIConnectionPoint@@@ATL@@VCComSingleThreadModel@6@@ATL@@QEAA@XZ 0000000180005f00 f i POSPower.obj
 0001:00004f30       ??0?$CComEnum@UIEnumConnections@@$1?_GUID_b196b287_bab4_101a_b69c_00aa00341d07@@3U__s_GUID@@BUtagCONNECTDATA@@V?$_Copy@UtagCONNECTDATA@@@ATL@@VCComSingleThreadModel@6@@ATL@@QEAA@XZ 0000000180005f30 f i POSPower.obj
 0001:00004f60       ??0?$CComEnumImpl@UIEnumConnectionPoints@@$1?_GUID_b196b285_bab4_101a_b69c_00aa00341d07@@3U__s_GUID@@BPEAUIConnectionPoint@@V?$_CopyInterface@UIConnectionPoint@@@ATL@@@ATL@@QEAA@XZ 0000000180005f60 f i POSPower.obj
 0001:00004fd0       ??0?$CComEnumImpl@UIEnumConnections@@$1?_GUID_b196b287_bab4_101a_b69c_00aa00341d07@@3U__s_GUID@@BUtagCONNECTDATA@@V?$_Copy@UtagCONNECTDATA@@@ATL@@@ATL@@QEAA@XZ 0000000180005fd0 f i POSPower.obj
 0001:00005040       ??0?$CComObject@V?$CComEnum@UIEnumConnectionPoints@@$1?_GUID_b196b285_bab4_101a_b69c_00aa00341d07@@3U__s_GUID@@BPEAUIConnectionPoint@@V?$_CopyInterface@UIConnectionPoint@@@ATL@@VCComSingleThreadModel@6@@ATL@@@ATL@@QEAA@PEAX@Z 0000000180006040 f i POSPower.obj
 0001:00005090       ??0?$CComObject@V?$CComEnum@UIEnumConnections@@$1?_GUID_b196b287_bab4_101a_b69c_00aa00341d07@@3U__s_GUID@@BUtagCONNECTDATA@@V?$_Copy@UtagCONNECTDATA@@@ATL@@VCComSingleThreadModel@6@@ATL@@@ATL@@QEAA@PEAX@Z 0000000180006090 f i POSPower.obj
 0001:000050e0       ??0?$CComObject@VCOPOSPOSPower@@@ATL@@QEAA@PEAX@Z 00000001800060e0 f i POSPower.obj
 0001:00005270       ??0?$CComObjectCached@VCComClassFactory@ATL@@@ATL@@QEAA@PEAX@Z 0000000180006270 f i POSPower.obj
 0001:000052b0       ??0?$CComObjectRootEx@VCComMultiThreadModel@ATL@@@ATL@@QEAA@XZ 00000001800062b0 f i POSPower.obj
 0001:000052e0       ??0?$CComObjectRootEx@VCComSingleThreadModel@ATL@@@ATL@@QEAA@XZ 00000001800062e0 f i POSPower.obj
 0001:00005300       ??0?$CComPtr@UIAdviseSink@@@ATL@@QEAA@PEAUIAdviseSink@@@Z 0000000180006300 f i POSPower.obj
 0001:00005330       ??0?$CComPtr@UICatRegister@@@ATL@@QEAA@XZ 0000000180006330 f i POSPower.obj
 0001:00005350       ??0?$CComPtr@UIConnectionPoint@@@ATL@@QEAA@XZ 0000000180006350 f i POSPower.obj
 0001:00005370       ??0?$CComPtr@UIConnectionPointContainer@@@ATL@@QEAA@XZ 0000000180006370 f i POSPower.obj
 0001:00005390       ??0?$CComPtr@UIDataObject@@@ATL@@QEAA@XZ 0000000180006390 f i POSPower.obj
 0001:000053b0       ??0?$CComPtr@UIDispatch@@@ATL@@QEAA@XZ 00000001800063b0 f i POSPower.obj
 0001:000053d0       ??0?$CComPtr@UIOleClientSite@@@ATL@@QEAA@PEAUIOleClientSite@@@Z 00000001800063d0 f i POSPower.obj
 0001:00005400       ??0?$CComPtr@UIOleControlSite@@@ATL@@QEAA@XZ 0000000180006400 f i POSPower.obj
 0001:00005420       ??0?$CComPtr@UIOleInPlaceActiveObject@@@ATL@@QEAA@XZ 0000000180006420 f i POSPower.obj
 0001:00005440       ??0?$CComPtr@UIOleInPlaceFrame@@@ATL@@QEAA@XZ 0000000180006440 f i POSPower.obj
 0001:00005460       ??0?$CComPtr@UIOleInPlaceObject@@@ATL@@QEAA@XZ 0000000180006460 f i POSPower.obj
 0001:00005480       ??0?$CComPtr@UIOleInPlaceUIWindow@@@ATL@@QEAA@XZ 0000000180006480 f i POSPower.obj
 0001:000054a0       ??0?$CComPtr@UIOleObject@@@ATL@@QEAA@XZ 00000001800064a0 f i POSPower.obj
 0001:000054c0       ??0?$CComPtr@UIPersistStream@@@ATL@@QEAA@XZ 00000001800064c0 f i POSPower.obj
 0001:000054e0       ??0?$CComPtr@UIPersistStreamInit@@@ATL@@QEAA@XZ 00000001800064e0 f i POSPower.obj
 0001:00005500       ??0?$CComPtr@UIPointerInactive@@@ATL@@QEAA@XZ 0000000180006500 f i POSPower.obj
 0001:00005520       ??0?$CComPtr@UIProvideClassInfo2@@@ATL@@QEAA@XZ 0000000180006520 f i POSPower.obj
 0001:00005540       ??0?$CComPtr@UISpecifyPropertyPages@@@ATL@@QEAA@XZ 0000000180006540 f i POSPower.obj
 0001:00005560       ??0?$CComPtr@UIStream@@@ATL@@QEAA@XZ 0000000180006560 f i POSPower.obj
 0001:00005580       ??0?$CComPtr@UITypeInfo2@@@ATL@@QEAA@XZ 0000000180006580 f i POSPower.obj
 0001:000055a0       ??0?$CComPtr@UITypeInfo@@@ATL@@QEAA@AEBV01@@Z 00000001800065a0 f i POSPower.obj
 0001:000055d0       ??0?$CComPtr@UITypeInfo@@@ATL@@QEAA@XZ 00000001800065d0 f i POSPower.obj
 0001:000055f0       ??0?$CComPtr@UITypeLib@@@ATL@@QEAA@XZ 00000001800065f0 f i POSPower.obj
 0001:00005610       ??0?$CComPtr@UIUnknown@@@ATL@@QEAA@AEBV01@@Z 0000000180006610 f i POSPower.obj
 0001:00005640       ??0?$CComPtr@UIUnknown@@@ATL@@QEAA@PEAUIUnknown@@@Z 0000000180006640 f i POSPower.obj
 0001:00005670       ??0?$CComPtr@UIUnknown@@@ATL@@QEAA@XZ 0000000180006670 f i POSPower.obj
 0001:00005690       ??0?$CComPtr@UIViewObjectEx@@@ATL@@QEAA@XZ 0000000180006690 f i POSPower.obj
 0001:000056b0       ??0?$CComPtrBase@UIAdviseSink@@@ATL@@IEAA@PEAUIAdviseSink@@@Z 00000001800066b0 f i POSPower.obj
 0001:00005700       ??0?$CComPtrBase@UICatRegister@@@ATL@@IEAA@XZ 0000000180006700 f i POSPower.obj
 0001:00005720       ??0?$CComPtrBase@UIConnectionPoint@@@ATL@@IEAA@XZ 0000000180006720 f i POSPower.obj
 0001:00005740       ??0?$CComPtrBase@UIConnectionPointContainer@@@ATL@@IEAA@XZ 0000000180006740 f i POSPower.obj
 0001:00005760       ??0?$CComPtrBase@UIDataObject@@@ATL@@IEAA@XZ 0000000180006760 f i POSPower.obj
 0001:00005780       ??0?$CComPtrBase@UIDispatch@@@ATL@@IEAA@XZ 0000000180006780 f i POSPower.obj
 0001:000057a0       ??0?$CComPtrBase@UIOleClientSite@@@ATL@@IEAA@PEAUIOleClientSite@@@Z 00000001800067a0 f i POSPower.obj
 0001:000057f0       ??0?$CComPtrBase@UIOleControlSite@@@ATL@@IEAA@XZ 00000001800067f0 f i POSPower.obj
 0001:00005810       ??0?$CComPtrBase@UIOleInPlaceActiveObject@@@ATL@@IEAA@XZ 0000000180006810 f i POSPower.obj
 0001:00005830       ??0?$CComPtrBase@UIOleInPlaceFrame@@@ATL@@IEAA@XZ 0000000180006830 f i POSPower.obj
 0001:00005850       ??0?$CComPtrBase@UIOleInPlaceObject@@@ATL@@IEAA@XZ 0000000180006850 f i POSPower.obj
 0001:00005870       ??0?$CComPtrBase@UIOleInPlaceUIWindow@@@ATL@@IEAA@XZ 0000000180006870 f i POSPower.obj
 0001:00005890       ??0?$CComPtrBase@UIOleObject@@@ATL@@IEAA@XZ 0000000180006890 f i POSPower.obj
 0001:000058b0       ??0?$CComPtrBase@UIPersistStream@@@ATL@@IEAA@XZ 00000001800068b0 f i POSPower.obj
 0001:000058d0       ??0?$CComPtrBase@UIPersistStreamInit@@@ATL@@IEAA@XZ 00000001800068d0 f i POSPower.obj
 0001:000058f0       ??0?$CComPtrBase@UIPointerInactive@@@ATL@@IEAA@XZ 00000001800068f0 f i POSPower.obj
 0001:00005910       ??0?$CComPtrBase@UIProvideClassInfo2@@@ATL@@IEAA@XZ 0000000180006910 f i POSPower.obj
 0001:00005930       ??0?$CComPtrBase@UISpecifyPropertyPages@@@ATL@@IEAA@XZ 0000000180006930 f i POSPower.obj
 0001:00005950       ??0?$CComPtrBase@UIStream@@@ATL@@IEAA@XZ 0000000180006950 f i POSPower.obj
 0001:00005970       ??0?$CComPtrBase@UITypeInfo2@@@ATL@@IEAA@XZ 0000000180006970 f i POSPower.obj
 0001:00005990       ??0?$CComPtrBase@UITypeInfo@@@ATL@@IEAA@PEAUITypeInfo@@@Z 0000000180006990 f i POSPower.obj
 0001:000059e0       ??0?$CComPtrBase@UITypeInfo@@@ATL@@IEAA@XZ 00000001800069e0 f i POSPower.obj
 0001:00005a00       ??0?$CComPtrBase@UITypeLib@@@ATL@@IEAA@XZ 0000000180006a00 f i POSPower.obj
 0001:00005a20       ??0?$CComPtrBase@UIUnknown@@@ATL@@IEAA@PEAUIUnknown@@@Z 0000000180006a20 f i POSPower.obj
 0001:00005a70       ??0?$CComPtrBase@UIUnknown@@@ATL@@IEAA@XZ 0000000180006a70 f i POSPower.obj
 0001:00005a90       ??0?$CComPtrBase@UIViewObjectEx@@@ATL@@IEAA@XZ 0000000180006a90 f i POSPower.obj
 0001:00005ab0       ??0?$CComQIPtr@UIOleControlSite@@$1?_GUID_b196b289_bab4_101a_b69c_00aa00341d07@@3U__s_GUID@@B@ATL@@QEAA@PEAUIUnknown@@@Z 0000000180006ab0 f i POSPower.obj
 0001:00005b10       ??0?$CComQIPtr@UIOleObject@@$1?_GUID_00000112_0000_0000_c000_000000000046@@3U__s_GUID@@B@ATL@@QEAA@XZ 0000000180006b10 f i POSPower.obj
 0001:00005b30       ??0?$CComQIPtr@UISpecifyPropertyPages@@$1?_GUID_b196b28b_bab4_101a_b69c_00aa00341d07@@3U__s_GUID@@B@ATL@@QEAA@XZ 0000000180006b30 f i POSPower.obj
 0001:00005b50       ??0?$CSimpleMap@PEA_WPEA_WVCExpansionVectorEqualHelper@ATL@@@ATL@@QEAA@XZ 0000000180006b50 f i POSPower.obj
 0001:00005b90       ??0?$CTempBuffer@E$0BAA@VCCRTAllocator@ATL@@@ATL@@QEAA@XZ 0000000180006b90 f i POSPower.obj
 0001:00005bb0       ??0?$CTempBuffer@_W$0BAA@VCCRTAllocator@ATL@@@ATL@@QEAA@XZ 0000000180006bb0 f i POSPower.obj
 0001:00005bd0       ??0?$CTempBuffer@_W$0EAA@VCCRTAllocator@ATL@@@ATL@@QEAA@XZ 0000000180006bd0 f i POSPower.obj
 0001:00005bf0       ??0?$Wrapper@PEA_W@?$CSimpleMap@PEA_WPEA_WVCExpansionVectorEqualHelper@ATL@@@ATL@@QEAA@AEBQEA_W@Z 0000000180006bf0 f i POSPower.obj
 0001:00005c20       ??0CAtlModule@ATL@@QEAA@XZ 0000000180006c20 f i POSPower.obj
 0001:00005d80       ??0CComAutoDeleteCriticalSection@ATL@@QEAA@XZ 0000000180006d80 f i POSPower.obj
 0001:00005da0       ??0CComBSTR@ATL@@QEAA@XZ   0000000180006da0 f i POSPower.obj
 0001:00005dc0       ??0CComClassFactory@ATL@@QEAA@XZ 0000000180006dc0 f i POSPower.obj
 0001:00005e00       ??0CComModule@ATL@@QEAA@XZ 0000000180006e00 f i POSPower.obj
 0001:00005e80       ??0CComObjectRootBase@ATL@@QEAA@XZ 0000000180006e80 f i POSPower.obj
 0001:00005ea0       ??0CComSafeDeleteCriticalSection@ATL@@QEAA@XZ 0000000180006ea0 f i POSPower.obj
 0001:00005ed0       ??0CComVariant@ATL@@QEAA@XZ 0000000180006ed0 f i POSPower.obj
 0001:00005f10       ??0CExpansionVector@ATL@@QEAA@XZ 0000000180006f10 f i POSPower.obj
 0001:00005f30       ??0CParseBuffer@CRegParser@ATL@@QEAA@H@Z 0000000180006f30 f i POSPower.obj
 0001:00005fb0       ??0CRegKey@ATL@@QEAA@PEAUHKEY__@@@Z 0000000180006fb0 f i POSPower.obj
 0001:00005ff0       ??0CRegKey@ATL@@QEAA@PEAVCAtlTransactionManager@1@@Z 0000000180006ff0 f i POSPower.obj
 0001:00006030       ??0CRegObject@ATL@@QEAA@XZ 0000000180007030 f i POSPower.obj
 0001:00006070       ??0CRegParser@ATL@@QEAA@PEAVCRegObject@1@@Z 0000000180007070 f i POSPower.obj
 0001:000060a0       ??0IClassFactory@@QEAA@XZ  00000001800070a0 f i POSPower.obj
 0001:000060c0       ??0IEnumConnectionPoints@@QEAA@XZ 00000001800070c0 f i POSPower.obj
 0001:000060e0       ??0IEnumConnections@@QEAA@XZ 00000001800070e0 f i POSPower.obj
 0001:00006100       ??0IRegistrarBase@@QEAA@XZ 0000000180007100 f i POSPower.obj
 0001:00006120       ??0IUnknown@@QEAA@XZ       0000000180007120 f i POSPower.obj
 0001:00006130       ??0ModuleLockHelper@ATL@@QEAA@XZ 0000000180007130 f i POSPower.obj
 0001:00006160       ??0OposVariant@@QEAA@XZ    0000000180007160 f i POSPower.obj
 0001:00006180       ??0Wrapper@?$CSimpleArray@GV?$CSimpleArrayEqualHelper@G@ATL@@@ATL@@QEAA@AEBG@Z 0000000180007180 f i POSPower.obj
 0001:000061b0       ??0_ATL_MODULE70@ATL@@QEAA@XZ 00000001800071b0 f i POSPower.obj
 0001:000061e0       ??0_ATL_MSG@ATL@@QEAA@PEAUHWND__@@I_K_JH@Z 00000001800071e0 f i POSPower.obj
 0001:00006270       ??0_U_MENUorID@ATL@@QEAA@I@Z 0000000180007270 f i POSPower.obj
 0001:00006290       ??0_U_RECT@ATL@@QEAA@AEAUtagRECT@@@Z 0000000180007290 f i POSPower.obj
 0001:000062b0       ??0stringdispid@CComTypeInfoHolder@ATL@@QEAA@XZ 00000001800072b0 f i POSPower.obj
 0001:000062f0       ??1?$CAtlModuleT@VCComModule@ATL@@@ATL@@UEAA@XZ 00000001800072f0 f i POSPower.obj
 0001:00006310       ??1?$CAtlSafeAllocBufferManager@VCCRTAllocator@ATL@@@_ATL_SAFE_ALLOCA_IMPL@ATL@@QEAA@XZ 0000000180007310 f i POSPower.obj
 0001:00006360       ??1?$CAutoVectorPtr@_W@ATL@@QEAA@XZ 0000000180007360 f i POSPower.obj
 0001:00006380       ??1?$CComAggObject@VCOPOSPOSPower@@@ATL@@UEAA@XZ 0000000180007380 f i POSPower.obj
 0001:000063f0       ??1?$CComContainedObject@VCOPOSPOSPower@@@ATL@@UEAA@XZ 00000001800073f0 f i POSPower.obj
 0001:00006410       ??1?$CComCritSecLock@VCComCriticalSection@ATL@@@ATL@@QEAA@XZ 0000000180007410 f i POSPower.obj
 0001:00006440       ??1?$CComEnum@UIEnumConnectionPoints@@$1?_GUID_b196b285_bab4_101a_b69c_00aa00341d07@@3U__s_GUID@@BPEAUIConnectionPoint@@V?$_CopyInterface@UIConnectionPoint@@@ATL@@VCComSingleThreadModel@6@@ATL@@UEAA@XZ 0000000180007440 f i POSPower.obj
 0001:00006470       ??1?$CComEnum@UIEnumConnections@@$1?_GUID_b196b287_bab4_101a_b69c_00aa00341d07@@3U__s_GUID@@BUtagCONNECTDATA@@V?$_Copy@UtagCONNECTDATA@@@ATL@@VCComSingleThreadModel@6@@ATL@@UEAA@XZ 0000000180007470 f i POSPower.obj
 0001:000064a0       ??1?$CComEnumImpl@UIEnumConnectionPoints@@$1?_GUID_b196b285_bab4_101a_b69c_00aa00341d07@@3U__s_GUID@@BPEAUIConnectionPoint@@V?$_CopyInterface@UIConnectionPoint@@@ATL@@@ATL@@UEAA@XZ 00000001800074a0 f i POSPower.obj
 0001:00006530       ??1?$CComEnumImpl@UIEnumConnections@@$1?_GUID_b196b287_bab4_101a_b69c_00aa00341d07@@3U__s_GUID@@BUtagCONNECTDATA@@V?$_Copy@UtagCONNECTDATA@@@ATL@@@ATL@@UEAA@XZ 0000000180007530 f i POSPower.obj
 0001:000065c0       ??1?$CComObject@V?$CComEnum@UIEnumConnectionPoints@@$1?_GUID_b196b285_bab4_101a_b69c_00aa00341d07@@3U__s_GUID@@BPEAUIConnectionPoint@@V?$_CopyInterface@UIConnectionPoint@@@ATL@@VCComSingleThreadModel@6@@ATL@@@ATL@@UEAA@XZ 00000001800075c0 f i POSPower.obj
 0001:00006620       ??1?$CComObject@V?$CComEnum@UIEnumConnections@@$1?_GUID_b196b287_bab4_101a_b69c_00aa00341d07@@3U__s_GUID@@BUtagCONNECTDATA@@V?$_Copy@UtagCONNECTDATA@@@ATL@@VCComSingleThreadModel@6@@ATL@@@ATL@@UEAA@XZ 0000000180007620 f i POSPower.obj
 0001:00006680       ??1?$CComObject@VCOPOSPOSPower@@@ATL@@UEAA@XZ 0000000180007680 f i POSPower.obj
 0001:00006820       ??1?$CComObjectCached@VCComClassFactory@ATL@@@ATL@@UEAA@XZ 0000000180007820 f i POSPower.obj
 0001:00006870       ??1?$CComObjectRootEx@VCComMultiThreadModel@ATL@@@ATL@@QEAA@XZ 0000000180007870 f i POSPower.obj
 0001:000068a0       ??1?$CComObjectRootEx@VCComSingleThreadModel@ATL@@@ATL@@QEAA@XZ 00000001800078a0 f i POSPower.obj
 0001:000068c0       ??1?$CComPtr@UIAdviseSink@@@ATL@@QEAA@XZ 00000001800078c0 f i POSPower.obj
 0001:000068e0       ??1?$CComPtr@UICatRegister@@@ATL@@QEAA@XZ 00000001800078e0 f i POSPower.obj
 0001:00006900       ??1?$CComPtr@UIConnectionPoint@@@ATL@@QEAA@XZ 0000000180007900 f i POSPower.obj
 0001:00006920       ??1?$CComPtr@UIConnectionPointContainer@@@ATL@@QEAA@XZ 0000000180007920 f i POSPower.obj
 0001:00006940       ??1?$CComPtr@UIDataObject@@@ATL@@QEAA@XZ 0000000180007940 f i POSPower.obj
 0001:00006960       ??1?$CComPtr@UIDispatch@@@ATL@@QEAA@XZ 0000000180007960 f i POSPower.obj
 0001:00006980       ??1?$CComPtr@UIOleClientSite@@@ATL@@QEAA@XZ 0000000180007980 f i POSPower.obj
 0001:000069a0       ??1?$CComPtr@UIOleControlSite@@@ATL@@QEAA@XZ 00000001800079a0 f i POSPower.obj
 0001:000069c0       ??1?$CComPtr@UIOleInPlaceActiveObject@@@ATL@@QEAA@XZ 00000001800079c0 f i POSPower.obj
 0001:000069e0       ??1?$CComPtr@UIOleInPlaceFrame@@@ATL@@QEAA@XZ 00000001800079e0 f i POSPower.obj
 0001:00006a00       ??1?$CComPtr@UIOleInPlaceObject@@@ATL@@QEAA@XZ 0000000180007a00 f i POSPower.obj
 0001:00006a20       ??1?$CComPtr@UIOleInPlaceUIWindow@@@ATL@@QEAA@XZ 0000000180007a20 f i POSPower.obj
 0001:00006a40       ??1?$CComPtr@UIOleObject@@@ATL@@QEAA@XZ 0000000180007a40 f i POSPower.obj
 0001:00006a60       ??1?$CComPtr@UIPersistStream@@@ATL@@QEAA@XZ 0000000180007a60 f i POSPower.obj
 0001:00006a80       ??1?$CComPtr@UIPersistStreamInit@@@ATL@@QEAA@XZ 0000000180007a80 f i POSPower.obj
 0001:00006aa0       ??1?$CComPtr@UIPointerInactive@@@ATL@@QEAA@XZ 0000000180007aa0 f i POSPower.obj
 0001:00006ac0       ??1?$CComPtr@UIProvideClassInfo2@@@ATL@@QEAA@XZ 0000000180007ac0 f i POSPower.obj
 0001:00006ae0       ??1?$CComPtr@UISpecifyPropertyPages@@@ATL@@QEAA@XZ 0000000180007ae0 f i POSPower.obj
 0001:00006b00       ??1?$CComPtr@UIStream@@@ATL@@QEAA@XZ 0000000180007b00 f i POSPower.obj
 0001:00006b20       ??1?$CComPtr@UITypeInfo2@@@ATL@@QEAA@XZ 0000000180007b20 f i POSPower.obj
 0001:00006b40       ??1?$CComPtr@UITypeInfo@@@ATL@@QEAA@XZ 0000000180007b40 f i POSPower.obj
 0001:00006b60       ??1?$CComPtr@UITypeLib@@@ATL@@QEAA@XZ 0000000180007b60 f i POSPower.obj
 0001:00006b80       ??1?$CComPtr@UIUnknown@@@ATL@@QEAA@XZ 0000000180007b80 f i POSPower.obj
 0001:00006ba0       ??1?$CComPtr@UIViewObjectEx@@@ATL@@QEAA@XZ 0000000180007ba0 f i POSPower.obj
 0001:00006bc0       ??1?$CComPtrBase@UIAdviseSink@@@ATL@@QEAA@XZ 0000000180007bc0 f i POSPower.obj
 0001:00006c00       ??1?$CComPtrBase@UICatRegister@@@ATL@@QEAA@XZ 0000000180007c00 f i POSPower.obj
 0001:00006c40       ??1?$CComPtrBase@UIConnectionPoint@@@ATL@@QEAA@XZ 0000000180007c40 f i POSPower.obj
 0001:00006c80       ??1?$CComPtrBase@UIConnectionPointContainer@@@ATL@@QEAA@XZ 0000000180007c80 f i POSPower.obj
 0001:00006cc0       ??1?$CComPtrBase@UIDataObject@@@ATL@@QEAA@XZ 0000000180007cc0 f i POSPower.obj
 0001:00006d00       ??1?$CComPtrBase@UIDispatch@@@ATL@@QEAA@XZ 0000000180007d00 f i POSPower.obj
 0001:00006d40       ??1?$CComPtrBase@UIOleClientSite@@@ATL@@QEAA@XZ 0000000180007d40 f i POSPower.obj
 0001:00006d80       ??1?$CComPtrBase@UIOleControlSite@@@ATL@@QEAA@XZ 0000000180007d80 f i POSPower.obj
 0001:00006dc0       ??1?$CComPtrBase@UIOleInPlaceActiveObject@@@ATL@@QEAA@XZ 0000000180007dc0 f i POSPower.obj
 0001:00006e00       ??1?$CComPtrBase@UIOleInPlaceFrame@@@ATL@@QEAA@XZ 0000000180007e00 f i POSPower.obj
 0001:00006e40       ??1?$CComPtrBase@UIOleInPlaceObject@@@ATL@@QEAA@XZ 0000000180007e40 f i POSPower.obj
 0001:00006e80       ??1?$CComPtrBase@UIOleInPlaceUIWindow@@@ATL@@QEAA@XZ 0000000180007e80 f i POSPower.obj
 0001:00006ec0       ??1?$CComPtrBase@UIOleObject@@@ATL@@QEAA@XZ 0000000180007ec0 f i POSPower.obj
 0001:00006f00       ??1?$CComPtrBase@UIPersistStream@@@ATL@@QEAA@XZ 0000000180007f00 f i POSPower.obj
 0001:00006f40       ??1?$CComPtrBase@UIPersistStreamInit@@@ATL@@QEAA@XZ 0000000180007f40 f i POSPower.obj
 0001:00006f80       ??1?$CComPtrBase@UIPointerInactive@@@ATL@@QEAA@XZ 0000000180007f80 f i POSPower.obj
 0001:00006fc0       ??1?$CComPtrBase@UIProvideClassInfo2@@@ATL@@QEAA@XZ 0000000180007fc0 f i POSPower.obj
 0001:00007000       ??1?$CComPtrBase@UISpecifyPropertyPages@@@ATL@@QEAA@XZ 0000000180008000 f i POSPower.obj
 0001:00007040       ??1?$CComPtrBase@UIStream@@@ATL@@QEAA@XZ 0000000180008040 f i POSPower.obj
 0001:00007080       ??1?$CComPtrBase@UITypeInfo2@@@ATL@@QEAA@XZ 0000000180008080 f i POSPower.obj
 0001:000070c0       ??1?$CComPtrBase@UITypeInfo@@@ATL@@QEAA@XZ 00000001800080c0 f i POSPower.obj
 0001:00007100       ??1?$CComPtrBase@UITypeLib@@@ATL@@QEAA@XZ 0000000180008100 f i POSPower.obj
 0001:00007140       ??1?$CComPtrBase@UIUnknown@@@ATL@@QEAA@XZ 0000000180008140 f i POSPower.obj
 0001:00007180       ??1?$CComPtrBase@UIViewObjectEx@@@ATL@@QEAA@XZ 0000000180008180 f i POSPower.obj
 0001:000071c0       ??1?$CComQIPtr@UIOleControlSite@@$1?_GUID_b196b289_bab4_101a_b69c_00aa00341d07@@3U__s_GUID@@B@ATL@@QEAA@XZ 00000001800081c0 f i POSPower.obj
 0001:000071e0       ??1?$CComQIPtr@UIOleObject@@$1?_GUID_00000112_0000_0000_c000_000000000046@@3U__s_GUID@@B@ATL@@QEAA@XZ 00000001800081e0 f i POSPower.obj
 0001:00007200       ??1?$CComQIPtr@UISpecifyPropertyPages@@$1?_GUID_b196b28b_bab4_101a_b69c_00aa00341d07@@3U__s_GUID@@B@ATL@@QEAA@XZ 0000000180008200 f i POSPower.obj
 0001:00007220       ??1?$CSimpleMap@PEA_WPEA_WVCExpansionVectorEqualHelper@ATL@@@ATL@@QEAA@XZ 0000000180008220 f i POSPower.obj
 0001:00007240       ??1?$CTempBuffer@E$0BAA@VCCRTAllocator@ATL@@@ATL@@QEAA@XZ 0000000180008240 f i POSPower.obj
 0001:00007270       ??1?$CTempBuffer@_W$0BAA@VCCRTAllocator@ATL@@@ATL@@QEAA@XZ 0000000180008270 f i POSPower.obj
 0001:000072a0       ??1?$CTempBuffer@_W$0EAA@VCCRTAllocator@ATL@@@ATL@@QEAA@XZ 00000001800082a0 f i POSPower.obj
 0001:000072d0       ??1CAtlModule@ATL@@UEAA@XZ 00000001800082d0 f i POSPower.obj
 0001:00007300       ??1CComAutoDeleteCriticalSection@ATL@@QEAA@XZ 0000000180008300 f i POSPower.obj
 0001:00007320       ??1CComClassFactory@ATL@@UEAA@XZ 0000000180008320 f i POSPower.obj
 0001:00007350       ??1CComModule@ATL@@UEAA@XZ 0000000180008350 f i POSPower.obj
 0001:00007380       ??1CComObjectRootBase@ATL@@QEAA@XZ 0000000180008380 f i POSPower.obj
 0001:00007390       ??1CComSafeDeleteCriticalSection@ATL@@QEAA@XZ 0000000180008390 f i POSPower.obj
 0001:000073d0       ??1CComVariant@ATL@@QEAA@XZ 00000001800083d0 f i POSPower.obj
 0001:00007430       ??1CExpansionVector@ATL@@QEAA@XZ 0000000180008430 f i POSPower.obj
 0001:00007460       ??1CParseBuffer@CRegParser@ATL@@QEAA@XZ 0000000180008460 f i POSPower.obj
 0001:00007480       ??1CRegKey@ATL@@QEAA@XZ    0000000180008480 f i POSPower.obj
 0001:000074a0       ??1CRegObject@ATL@@UEAA@XZ 00000001800084a0 f i POSPower.obj
 0001:000074e0       ??1ModuleLockHelper@ATL@@QEAA@XZ 00000001800084e0 f i POSPower.obj
 0001:00007510       ??1OposVariant@@QEAA@XZ    0000000180008510 f i POSPower.obj
 0001:00007540       ??1_ATL_MODULE70@ATL@@QEAA@XZ 0000000180008540 f i POSPower.obj
 0001:00007570       ??4?$CComPtr@UIAdviseSink@@@ATL@@QEAAPEAUIAdviseSink@@PEAU2@@Z 0000000180008570 f i POSPower.obj
 0001:000075d0       ??4?$CComPtr@UIOleClientSite@@@ATL@@QEAAPEAUIOleClientSite@@PEAU2@@Z 00000001800085d0 f i POSPower.obj
 0001:00007630       ??4?$CComPtr@UIUnknown@@@ATL@@QEAAPEAUIUnknown@@PEAU2@@Z 0000000180008630 f i POSPower.obj
 0001:00007690       ??4?$CComQIPtr@UIOleObject@@$1?_GUID_00000112_0000_0000_c000_000000000046@@3U__s_GUID@@B@ATL@@QEAAPEAUIOleObject@@PEAUIUnknown@@@Z 0000000180008690 f i POSPower.obj
 0001:000076e0       ??4?$CComQIPtr@UISpecifyPropertyPages@@$1?_GUID_b196b28b_bab4_101a_b69c_00aa00341d07@@3U__s_GUID@@B@ATL@@QEAAPEAUISpecifyPropertyPages@@PEAUIUnknown@@@Z 00000001800086e0 f i POSPower.obj
 0001:00007730       ??7?$CComPtrBase@UIOleClientSite@@@ATL@@QEBA_NXZ 0000000180008730 f i POSPower.obj
 0001:00007760       ??7?$CComPtrBase@UIOleInPlaceSiteWindowless@@@ATL@@QEBA_NXZ 0000000180008760 f i POSPower.obj
 0001:00007790       ??7CComBSTR@ATL@@QEBA_NXZ  0000000180008790 f i POSPower.obj
 0001:000077c0       ??8?$CComPtrBase@UIConnectionPointContainer@@@ATL@@QEBA_NPEAUIConnectionPointContainer@@@Z 00000001800087c0 f i POSPower.obj
 0001:00007800       ??8?$CComPtrBase@UIDataAdviseHolder@@@ATL@@QEBA_NPEAUIDataAdviseHolder@@@Z 0000000180008800 f i POSPower.obj
 0001:00007840       ??8?$CComPtrBase@UIOleAdviseHolder@@@ATL@@QEBA_NPEAUIOleAdviseHolder@@@Z 0000000180008840 f i POSPower.obj
 0001:00007880       ??8?$CComPtrBase@UIOleClientSite@@@ATL@@QEBA_NPEAUIOleClientSite@@@Z 0000000180008880 f i POSPower.obj
 0001:000078c0       ??8?$CComPtrBase@UIOleControlSite@@@ATL@@QEBA_NPEAUIOleControlSite@@@Z 00000001800088c0 f i POSPower.obj
 0001:00007900       ??8?$CComPtrBase@UIOleInPlaceObject@@@ATL@@QEBA_NPEAUIOleInPlaceObject@@@Z 0000000180008900 f i POSPower.obj
 0001:00007940       ??8?$CComPtrBase@UIOleInPlaceSiteWindowless@@@ATL@@QEBA_NPEAUIOleInPlaceSiteWindowless@@@Z 0000000180008940 f i POSPower.obj
 0001:00007980       ??8?$CComPtrBase@UIOleObject@@@ATL@@QEBA_NPEAUIOleObject@@@Z 0000000180008980 f i POSPower.obj
 0001:000079c0       ??8?$CComPtrBase@UIPersistStream@@@ATL@@QEBA_NPEAUIPersistStream@@@Z 00000001800089c0 f i POSPower.obj
 0001:00007a00       ??8?$CComPtrBase@UIPersistStreamInit@@@ATL@@QEBA_NPEAUIPersistStreamInit@@@Z 0000000180008a00 f i POSPower.obj
 0001:00007a40       ??8?$CComPtrBase@UIPointerInactive@@@ATL@@QEBA_NPEAUIPointerInactive@@@Z 0000000180008a40 f i POSPower.obj
 0001:00007a80       ??8?$CComPtrBase@UIUnknown@@@ATL@@QEBA_NPEAUIUnknown@@@Z 0000000180008a80 f i POSPower.obj
 0001:00007ac0       ??8?$CComPtrBase@UIViewObjectEx@@@ATL@@QEBA_NPEAUIViewObjectEx@@@Z 0000000180008ac0 f i POSPower.obj
 0001:00007b00       ??8CComBSTR@ATL@@QEBA_NH@Z 0000000180008b00 f i POSPower.obj
 0001:00007b60       ??9?$CComPtrBase@UIConnectionPointContainer@@@ATL@@QEBA_NPEAUIConnectionPointContainer@@@Z 0000000180008b60 f i POSPower.obj
 0001:00007bb0       ??9?$CComPtrBase@UIDataAdviseHolder@@@ATL@@QEBA_NPEAUIDataAdviseHolder@@@Z 0000000180008bb0 f i POSPower.obj
 0001:00007c00       ??9?$CComPtrBase@UIOleAdviseHolder@@@ATL@@QEBA_NPEAUIOleAdviseHolder@@@Z 0000000180008c00 f i POSPower.obj
 0001:00007c50       ??9?$CComPtrBase@UIOleClientSite@@@ATL@@QEBA_NPEAUIOleClientSite@@@Z 0000000180008c50 f i POSPower.obj
 0001:00007ca0       ??9?$CComPtrBase@UIOleControlSite@@@ATL@@QEBA_NPEAUIOleControlSite@@@Z 0000000180008ca0 f i POSPower.obj
 0001:00007cf0       ??9?$CComPtrBase@UIOleInPlaceObject@@@ATL@@QEBA_NPEAUIOleInPlaceObject@@@Z 0000000180008cf0 f i POSPower.obj
 0001:00007d40       ??9?$CComPtrBase@UIOleInPlaceSiteWindowless@@@ATL@@QEBA_NPEAUIOleInPlaceSiteWindowless@@@Z 0000000180008d40 f i POSPower.obj
 0001:00007d90       ??9?$CComPtrBase@UIOleObject@@@ATL@@QEBA_NPEAUIOleObject@@@Z 0000000180008d90 f i POSPower.obj
 0001:00007de0       ??9?$CComPtrBase@UIPersistStream@@@ATL@@QEBA_NPEAUIPersistStream@@@Z 0000000180008de0 f i POSPower.obj
 0001:00007e30       ??9?$CComPtrBase@UIPersistStreamInit@@@ATL@@QEBA_NPEAUIPersistStreamInit@@@Z 0000000180008e30 f i POSPower.obj
 0001:00007e80       ??9?$CComPtrBase@UIPointerInactive@@@ATL@@QEBA_NPEAUIPointerInactive@@@Z 0000000180008e80 f i POSPower.obj
 0001:00007ed0       ??9?$CComPtrBase@UIUnknown@@@ATL@@QEBA_NPEAUIUnknown@@@Z 0000000180008ed0 f i POSPower.obj
 0001:00007f20       ??9?$CComPtrBase@UIViewObjectEx@@@ATL@@QEBA_NPEAUIViewObjectEx@@@Z 0000000180008f20 f i POSPower.obj
 0001:00007f70       ??9CComBSTR@ATL@@QEBA_NH@Z 0000000180008f70 f i POSPower.obj
 0001:00007fb0       ??B?$CComPtrBase@UIAdviseSink@@@ATL@@QEBAPEAUIAdviseSink@@XZ 0000000180008fb0 f i POSPower.obj
 0001:00007fc0       ??B?$CComPtrBase@UIDataAdviseHolder@@@ATL@@QEBAPEAUIDataAdviseHolder@@XZ 0000000180008fc0 f i POSPower.obj
 0001:00007fd0       ??B?$CComPtrBase@UIDataObject@@@ATL@@QEBAPEAUIDataObject@@XZ 0000000180008fd0 f i POSPower.obj
 0001:00007fe0       ??B?$CComPtrBase@UIOleAdviseHolder@@@ATL@@QEBAPEAUIOleAdviseHolder@@XZ 0000000180008fe0 f i POSPower.obj
 0001:00007ff0       ??B?$CComPtrBase@UIOleClientSite@@@ATL@@QEBAPEAUIOleClientSite@@XZ 0000000180008ff0 f i POSPower.obj
 0001:00008000       ??B?$CComPtrBase@UIOleControlSite@@@ATL@@QEBAPEAUIOleControlSite@@XZ 0000000180009000 f i POSPower.obj
 0001:00008010       ??B?$CComPtrBase@UIOleInPlaceActiveObject@@@ATL@@QEBAPEAUIOleInPlaceActiveObject@@XZ 0000000180009010 f i POSPower.obj
 0001:00008020       ??B?$CComPtrBase@UIOleInPlaceFrame@@@ATL@@QEBAPEAUIOleInPlaceFrame@@XZ 0000000180009020 f i POSPower.obj
 0001:00008030       ??B?$CComPtrBase@UIOleInPlaceSiteWindowless@@@ATL@@QEBAPEAUIOleInPlaceSiteWindowless@@XZ 0000000180009030 f i POSPower.obj
 0001:00008040       ??B?$CComPtrBase@UIOleInPlaceUIWindow@@@ATL@@QEBAPEAUIOleInPlaceUIWindow@@XZ 0000000180009040 f i POSPower.obj
 0001:00008050       ??B?$CComPtrBase@UIOleObject@@@ATL@@QEBAPEAUIOleObject@@XZ 0000000180009050 f i POSPower.obj
 0001:00008060       ??B?$CComPtrBase@UIPersistStream@@@ATL@@QEBAPEAUIPersistStream@@XZ 0000000180009060 f i POSPower.obj
 0001:00008070       ??B?$CComPtrBase@UIProvideClassInfo2@@@ATL@@QEBAPEAUIProvideClassInfo2@@XZ 0000000180009070 f i POSPower.obj
 0001:00008080       ??B?$CComPtrBase@UISpecifyPropertyPages@@@ATL@@QEBAPEAUISpecifyPropertyPages@@XZ 0000000180009080 f i POSPower.obj
 0001:00008090       ??B?$CComPtrBase@UIStream@@@ATL@@QEBAPEAUIStream@@XZ 0000000180009090 f i POSPower.obj
 0001:000080a0       ??B?$CComPtrBase@UITypeInfo2@@@ATL@@QEBAPEAUITypeInfo2@@XZ 00000001800090a0 f i POSPower.obj
 0001:000080b0       ??B?$CComPtrBase@UITypeInfo@@@ATL@@QEBAPEAUITypeInfo@@XZ 00000001800090b0 f i POSPower.obj
 0001:000080c0       ??B?$CComPtrBase@UITypeLib@@@ATL@@QEBAPEAUITypeLib@@XZ 00000001800090c0 f i POSPower.obj
 0001:000080d0       ??B?$CComPtrBase@UIUnknown@@@ATL@@QEBAPEAUIUnknown@@XZ 00000001800090d0 f i POSPower.obj
 0001:000080e0       ??B?$CTempBuffer@E$0BAA@VCCRTAllocator@ATL@@@ATL@@QEBAPEAEXZ 00000001800090e0 f i POSPower.obj
 0001:000080f0       ??B?$CTempBuffer@_W$0BAA@VCCRTAllocator@ATL@@@ATL@@QEBAPEA_WXZ 00000001800090f0 f i POSPower.obj
 0001:00008100       ??B?$CTempBuffer@_W$0EAA@VCCRTAllocator@ATL@@@ATL@@QEBAPEA_WXZ 0000000180009100 f i POSPower.obj
 0001:00008110       ??B?$CTraceCategoryEx@$00$0A@@ATL@@QEAAIXZ 0000000180009110 f i POSPower.obj
 0001:00008120       ??B?$CTraceCategoryEx@$07$0A@@ATL@@QEAAIXZ 0000000180009120 f i POSPower.obj
 0001:00008130       ??B?$CTraceCategoryEx@$0CAAA@$0A@@ATL@@QEAAIXZ 0000000180009130 f i POSPower.obj
 0001:00008140       ??B?$CTraceCategoryEx@$0EA@$0A@@ATL@@QEAAIXZ 0000000180009140 f i POSPower.obj
 0001:00008150       ??B?$CTraceCategoryEx@$0IAA@$0A@@ATL@@QEAAIXZ 0000000180009150 f i POSPower.obj
 0001:00008160       ??BCComBSTR@ATL@@QEBAPEA_WXZ 0000000180009160 f i POSPower.obj
 0001:00008170       ??BCRegKey@ATL@@QEBAPEAUHKEY__@@XZ 0000000180009170 f i POSPower.obj
 0001:00008180       ??C?$CComPtrBase@UIAdviseSink@@@ATL@@QEBAPEAV?$_NoAddRefReleaseOnCComPtr@UIAdviseSink@@@1@XZ 0000000180009180 f i POSPower.obj
 0001:000081e0       ??C?$CComPtrBase@UICatRegister@@@ATL@@QEBAPEAV?$_NoAddRefReleaseOnCComPtr@UICatRegister@@@1@XZ 00000001800091e0 f i POSPower.obj
 0001:00008240       ??C?$CComPtrBase@UIConnectionPoint@@@ATL@@QEBAPEAV?$_NoAddRefReleaseOnCComPtr@UIConnectionPoint@@@1@XZ 0000000180009240 f i POSPower.obj
 0001:000082a0       ??C?$CComPtrBase@UIConnectionPointContainer@@@ATL@@QEBAPEAV?$_NoAddRefReleaseOnCComPtr@UIConnectionPointContainer@@@1@XZ 00000001800092a0 f i POSPower.obj
 0001:00008300       ??C?$CComPtrBase@UIDataAdviseHolder@@@ATL@@QEBAPEAV?$_NoAddRefReleaseOnCComPtr@UIDataAdviseHolder@@@1@XZ 0000000180009300 f i POSPower.obj
 0001:00008360       ??C?$CComPtrBase@UIOleAdviseHolder@@@ATL@@QEBAPEAV?$_NoAddRefReleaseOnCComPtr@UIOleAdviseHolder@@@1@XZ 0000000180009360 f i POSPower.obj
 0001:000083c0       ??C?$CComPtrBase@UIOleClientSite@@@ATL@@QEBAPEAV?$_NoAddRefReleaseOnCComPtr@UIOleClientSite@@@1@XZ 00000001800093c0 f i POSPower.obj
 0001:00008420       ??C?$CComPtrBase@UIOleControlSite@@@ATL@@QEBAPEAV?$_NoAddRefReleaseOnCComPtr@UIOleControlSite@@@1@XZ 0000000180009420 f i POSPower.obj
 0001:00008480       ??C?$CComPtrBase@UIOleInPlaceFrame@@@ATL@@QEBAPEAV?$_NoAddRefReleaseOnCComPtr@UIOleInPlaceFrame@@@1@XZ 0000000180009480 f i POSPower.obj
 0001:000084e0       ??C?$CComPtrBase@UIOleInPlaceObject@@@ATL@@QEBAPEAV?$_NoAddRefReleaseOnCComPtr@UIOleInPlaceObject@@@1@XZ 00000001800094e0 f i POSPower.obj
 0001:00008540       ??C?$CComPtrBase@UIOleInPlaceSiteWindowless@@@ATL@@QEBAPEAV?$_NoAddRefReleaseOnCComPtr@UIOleInPlaceSiteWindowless@@@1@XZ 0000000180009540 f i POSPower.obj
 0001:000085a0       ??C?$CComPtrBase@UIOleInPlaceUIWindow@@@ATL@@QEBAPEAV?$_NoAddRefReleaseOnCComPtr@UIOleInPlaceUIWindow@@@1@XZ 00000001800095a0 f i POSPower.obj
 0001:00008600       ??C?$CComPtrBase@UIOleObject@@@ATL@@QEBAPEAV?$_NoAddRefReleaseOnCComPtr@UIOleObject@@@1@XZ 0000000180009600 f i POSPower.obj
 0001:00008660       ??C?$CComPtrBase@UIPersistStream@@@ATL@@QEBAPEAV?$_NoAddRefReleaseOnCComPtr@UIPersistStream@@@1@XZ 0000000180009660 f i POSPower.obj
 0001:000086c0       ??C?$CComPtrBase@UIPersistStreamInit@@@ATL@@QEBAPEAV?$_NoAddRefReleaseOnCComPtr@UIPersistStreamInit@@@1@XZ 00000001800096c0 f i POSPower.obj
 0001:00008720       ??C?$CComPtrBase@UIPointerInactive@@@ATL@@QEBAPEAV?$_NoAddRefReleaseOnCComPtr@UIPointerInactive@@@1@XZ 0000000180009720 f i POSPower.obj
 0001:00008780       ??C?$CComPtrBase@UIProvideClassInfo2@@@ATL@@QEBAPEAV?$_NoAddRefReleaseOnCComPtr@UIProvideClassInfo2@@@1@XZ 0000000180009780 f i POSPower.obj
 0001:000087e0       ??C?$CComPtrBase@UISpecifyPropertyPages@@@ATL@@QEBAPEAV?$_NoAddRefReleaseOnCComPtr@UISpecifyPropertyPages@@@1@XZ 00000001800097e0 f i POSPower.obj
 0001:00008840       ??C?$CComPtrBase@UITypeInfo@@@ATL@@QEBAPEAV?$_NoAddRefReleaseOnCComPtr@UITypeInfo@@@1@XZ 0000000180009840 f i POSPower.obj
 0001:000088a0       ??C?$CComPtrBase@UITypeLib@@@ATL@@QEBAPEAV?$_NoAddRefReleaseOnCComPtr@UITypeLib@@@1@XZ 00000001800098a0 f i POSPower.obj
 0001:00008900       ??C?$CComPtrBase@UIUnknown@@@ATL@@QEBAPEAV?$_NoAddRefReleaseOnCComPtr@UIUnknown@@@1@XZ 0000000180009900 f i POSPower.obj
 0001:00008960       ??C?$CComPtrBase@UIViewObjectEx@@@ATL@@QEBAPEAV?$_NoAddRefReleaseOnCComPtr@UIViewObjectEx@@@1@XZ 0000000180009960 f i POSPower.obj
 0001:000089c0       ??I?$CComPtrBase@UICatRegister@@@ATL@@QEAAPEAPEAUICatRegister@@XZ 00000001800099c0 f i POSPower.obj
 0001:00008a20       ??I?$CComPtrBase@UIConnectionPoint@@@ATL@@QEAAPEAPEAUIConnectionPoint@@XZ 0000000180009a20 f i POSPower.obj
 0001:00008a80       ??I?$CComPtrBase@UIConnectionPointContainer@@@ATL@@QEAAPEAPEAUIConnectionPointContainer@@XZ 0000000180009a80 f i POSPower.obj
 0001:00008ae0       ??I?$CComPtrBase@UIDataAdviseHolder@@@ATL@@QEAAPEAPEAUIDataAdviseHolder@@XZ 0000000180009ae0 f i POSPower.obj
 0001:00008b40       ??I?$CComPtrBase@UIDataObject@@@ATL@@QEAAPEAPEAUIDataObject@@XZ 0000000180009b40 f i POSPower.obj
 0001:00008ba0       ??I?$CComPtrBase@UIDispatch@@@ATL@@QEAAPEAPEAUIDispatch@@XZ 0000000180009ba0 f i POSPower.obj
 0001:00008c00       ??I?$CComPtrBase@UIOleAdviseHolder@@@ATL@@QEAAPEAPEAUIOleAdviseHolder@@XZ 0000000180009c00 f i POSPower.obj
 0001:00008c60       ??I?$CComPtrBase@UIOleControlSite@@@ATL@@QEAAPEAPEAUIOleControlSite@@XZ 0000000180009c60 f i POSPower.obj
 0001:00008cc0       ??I?$CComPtrBase@UIOleInPlaceActiveObject@@@ATL@@QEAAPEAPEAUIOleInPlaceActiveObject@@XZ 0000000180009cc0 f i POSPower.obj
 0001:00008d20       ??I?$CComPtrBase@UIOleInPlaceFrame@@@ATL@@QEAAPEAPEAUIOleInPlaceFrame@@XZ 0000000180009d20 f i POSPower.obj
 0001:00008d80       ??I?$CComPtrBase@UIOleInPlaceObject@@@ATL@@QEAAPEAPEAUIOleInPlaceObject@@XZ 0000000180009d80 f i POSPower.obj
 0001:00008de0       ??I?$CComPtrBase@UIOleInPlaceSiteWindowless@@@ATL@@QEAAPEAPEAUIOleInPlaceSiteWindowless@@XZ 0000000180009de0 f i POSPower.obj
 0001:00008e40       ??I?$CComPtrBase@UIOleInPlaceUIWindow@@@ATL@@QEAAPEAPEAUIOleInPlaceUIWindow@@XZ 0000000180009e40 f i POSPower.obj
 0001:00008ea0       ??I?$CComPtrBase@UIOleObject@@@ATL@@QEAAPEAPEAUIOleObject@@XZ 0000000180009ea0 f i POSPower.obj
 0001:00008f00       ??I?$CComPtrBase@UIPersistStream@@@ATL@@QEAAPEAPEAUIPersistStream@@XZ 0000000180009f00 f i POSPower.obj
 0001:00008f60       ??I?$CComPtrBase@UIPointerInactive@@@ATL@@QEAAPEAPEAUIPointerInactive@@XZ 0000000180009f60 f i POSPower.obj
 0001:00008fc0       ??I?$CComPtrBase@UIProvideClassInfo2@@@ATL@@QEAAPEAPEAUIProvideClassInfo2@@XZ 0000000180009fc0 f i POSPower.obj
 0001:00009020       ??I?$CComPtrBase@UIStream@@@ATL@@QEAAPEAPEAUIStream@@XZ 000000018000a020 f i POSPower.obj
 0001:00009080       ??I?$CComPtrBase@UITypeInfo2@@@ATL@@QEAAPEAPEAUITypeInfo2@@XZ 000000018000a080 f i POSPower.obj
 0001:000090e0       ??I?$CComPtrBase@UITypeInfo@@@ATL@@QEAAPEAPEAUITypeInfo@@XZ 000000018000a0e0 f i POSPower.obj
 0001:00009140       ??I?$CComPtrBase@UITypeLib@@@ATL@@QEAAPEAPEAUITypeLib@@XZ 000000018000a140 f i POSPower.obj
 0001:000091a0       ??I?$CComPtrBase@UIUnknown@@@ATL@@QEAAPEAPEAUIUnknown@@XZ 000000018000a1a0 f i POSPower.obj
 0001:00009200       ??I?$CComPtrBase@UIViewObjectEx@@@ATL@@QEAAPEAPEAUIViewObjectEx@@XZ 000000018000a200 f i POSPower.obj
 0001:00009260       ??ICComBSTR@ATL@@QEAAPEAPEA_WXZ 000000018000a260 f i POSPower.obj
 0001:00009270       ??_E?$CComContainedObject@VCOPOSPOSPower@@@ATL@@W7EAAPEAXI@Z 000000018000a270 f i POSPower.obj
 0001:0000927c       ??_E?$CComContainedObject@VCOPOSPOSPower@@@ATL@@WHA@EAAPEAXI@Z 000000018000a27c f i POSPower.obj
 0001:00009288       ??_E?$CComObject@VCOPOSPOSPower@@@ATL@@W7EAAPEAXI@Z 000000018000a288 f i POSPower.obj
 0001:00009294       ??_E?$CComObject@VCOPOSPOSPower@@@ATL@@WHA@EAAPEAXI@Z 000000018000a294 f i POSPower.obj
 0001:000092a0       ??_E?$CComAggObject@VCOPOSPOSPower@@@ATL@@UEAAPEAXI@Z 000000018000a2a0 f i POSPower.obj
 0001:000092a0       ??_G?$CComAggObject@VCOPOSPOSPower@@@ATL@@UEAAPEAXI@Z 000000018000a2a0 f i POSPower.obj
 0001:000092e0       ??_E?$CComContainedObject@VCOPOSPOSPower@@@ATL@@UEAAPEAXI@Z 000000018000a2e0 f i POSPower.obj
 0001:000092e0       ??_G?$CComContainedObject@VCOPOSPOSPower@@@ATL@@UEAAPEAXI@Z 000000018000a2e0 f i POSPower.obj
 0001:00009320       ??_E?$CComObject@V?$CComEnum@UIEnumConnectionPoints@@$1?_GUID_b196b285_bab4_101a_b69c_00aa00341d07@@3U__s_GUID@@BPEAUIConnectionPoint@@V?$_CopyInterface@UIConnectionPoint@@@ATL@@VCComSingleThreadModel@6@@ATL@@@ATL@@UEAAPEAXI@Z 000000018000a320 f i POSPower.obj
 0001:00009320       ??_G?$CComObject@V?$CComEnum@UIEnumConnectionPoints@@$1?_GUID_b196b285_bab4_101a_b69c_00aa00341d07@@3U__s_GUID@@BPEAUIConnectionPoint@@V?$_CopyInterface@UIConnectionPoint@@@ATL@@VCComSingleThreadModel@6@@ATL@@@ATL@@UEAAPEAXI@Z 000000018000a320 f i POSPower.obj
 0001:00009360       ??_E?$CComObject@V?$CComEnum@UIEnumConnections@@$1?_GUID_b196b287_bab4_101a_b69c_00aa00341d07@@3U__s_GUID@@BUtagCONNECTDATA@@V?$_Copy@UtagCONNECTDATA@@@ATL@@VCComSingleThreadModel@6@@ATL@@@ATL@@UEAAPEAXI@Z 000000018000a360 f i POSPower.obj
 0001:00009360       ??_G?$CComObject@V?$CComEnum@UIEnumConnections@@$1?_GUID_b196b287_bab4_101a_b69c_00aa00341d07@@3U__s_GUID@@BUtagCONNECTDATA@@V?$_Copy@UtagCONNECTDATA@@@ATL@@VCComSingleThreadModel@6@@ATL@@@ATL@@UEAAPEAXI@Z 000000018000a360 f i POSPower.obj
 0001:000093a0       ??_G?$CComObject@VCOPOSPOSPower@@@ATL@@UEAAPEAXI@Z 000000018000a3a0 f i POSPower.obj
 0001:000093a0       ??_E?$CComObject@VCOPOSPOSPower@@@ATL@@UEAAPEAXI@Z 000000018000a3a0 f i POSPower.obj
 0001:000093e0       ??_G?$CComObjectCached@VCComClassFactory@ATL@@@ATL@@UEAAPEAXI@Z 000000018000a3e0 f i POSPower.obj
 0001:000093e0       ??_E?$CComObjectCached@VCComClassFactory@ATL@@@ATL@@UEAAPEAXI@Z 000000018000a3e0 f i POSPower.obj
 0001:00009420       ??_GCComClassFactory@ATL@@UEAAPEAXI@Z 000000018000a420 f i POSPower.obj
 0001:00009420       ??_ECComClassFactory@ATL@@UEAAPEAXI@Z 000000018000a420 f i POSPower.obj
 0001:00009460       ??_ECComModule@ATL@@UEAAPEAXI@Z 000000018000a460 f i POSPower.obj
 0001:00009460       ??_GCComModule@ATL@@UEAAPEAXI@Z 000000018000a460 f i POSPower.obj
 0001:000094a0       ??_GCRegObject@ATL@@UEAAPEAXI@Z 000000018000a4a0 f i POSPower.obj
 0001:000094a0       ??_ECRegObject@ATL@@UEAAPEAXI@Z 000000018000a4a0 f i POSPower.obj
 0001:000094e0       ?Add@?$CSimpleArray@GV?$CSimpleArrayEqualHelper@G@ATL@@@ATL@@QEAAHAEBG@Z 000000018000a4e0 f i POSPower.obj
 0001:00009670       ?Add@?$CSimpleMap@PEA_WPEA_WVCExpansionVectorEqualHelper@ATL@@@ATL@@QEAAHAEBQEA_W0@Z 000000018000a670 f i POSPower.obj
 0001:00009750       ?Add@CComDynamicUnkArray@ATL@@QEAAKPEAUIUnknown@@@Z 000000018000a750 f i POSPower.obj
 0001:00009930       ?Add@CExpansionVector@ATL@@QEAAHPEB_W0@Z 000000018000a930 f i POSPower.obj
 0001:00009c70       ?AddChar@CParseBuffer@CRegParser@ATL@@QEAAHPEB_W@Z 000000018000ac70 f i POSPower.obj
 0001:00009cb0       ?AddCommonRGSReplacements@?$CAtlModuleT@VCComModule@ATL@@@ATL@@UEAAJPEAUIRegistrarBase@@@Z 000000018000acb0 f i POSPower.obj
 0001:00009cf0       ?AddCreateWndData@CAtlWinModule@ATL@@QEAAXPEAU_AtlCreateWndData@2@PEAX@Z 000000018000acf0 f i POSPower.obj
 0001:00009d20       ?AddRef@?$CComAggObject@VCOPOSPOSPower@@@ATL@@UEAAKXZ 000000018000ad20 f i POSPower.obj
 0001:00009d50       ?AddRef@?$CComContainedObject@VCOPOSPOSPower@@@ATL@@UEAAKXZ 000000018000ad50 f i POSPower.obj
 0001:00009d74       ?AddRef@?$CComContainedObject@VCOPOSPOSPower@@@ATL@@WBAA@EAAKXZ 000000018000ad74 f i POSPower.obj
 0001:00009d80       ?AddRef@?$CComContainedObject@VCOPOSPOSPower@@@ATL@@WBAI@EAAKXZ 000000018000ad80 f i POSPower.obj
 0001:00009d8c       ?AddRef@?$CComContainedObject@VCOPOSPOSPower@@@ATL@@WBBA@EAAKXZ 000000018000ad8c f i POSPower.obj
 0001:00009d98       ?AddRef@?$CComContainedObject@VCOPOSPOSPower@@@ATL@@WBBI@EAAKXZ 000000018000ad98 f i POSPower.obj
 0001:00009da4       ?AddRef@?$CComContainedObject@VCOPOSPOSPower@@@ATL@@WBCI@EAAKXZ 000000018000ada4 f i POSPower.obj
 0001:00009db0       ?AddRef@?$CComContainedObject@VCOPOSPOSPower@@@ATL@@WBEA@EAAKXZ 000000018000adb0 f i POSPower.obj
 0001:00009dbc       ?AddRef@?$CComContainedObject@VCOPOSPOSPower@@@ATL@@WLI@EAAKXZ 000000018000adbc f i POSPower.obj
 0001:00009dc8       ?AddRef@?$CComContainedObject@VCOPOSPOSPower@@@ATL@@WMA@EAAKXZ 000000018000adc8 f i POSPower.obj
 0001:00009dd4       ?AddRef@?$CComContainedObject@VCOPOSPOSPower@@@ATL@@WMI@EAAKXZ 000000018000add4 f i POSPower.obj
 0001:00009de0       ?AddRef@?$CComContainedObject@VCOPOSPOSPower@@@ATL@@WNA@EAAKXZ 000000018000ade0 f i POSPower.obj
 0001:00009dec       ?AddRef@?$CComContainedObject@VCOPOSPOSPower@@@ATL@@WNI@EAAKXZ 000000018000adec f i POSPower.obj
 0001:00009df8       ?AddRef@?$CComContainedObject@VCOPOSPOSPower@@@ATL@@WOA@EAAKXZ 000000018000adf8 f i POSPower.obj
 0001:00009e04       ?AddRef@?$CComContainedObject@VCOPOSPOSPower@@@ATL@@WOI@EAAKXZ 000000018000ae04 f i POSPower.obj
 0001:00009e10       ?AddRef@?$CComContainedObject@VCOPOSPOSPower@@@ATL@@WPA@EAAKXZ 000000018000ae10 f i POSPower.obj
 0001:00009e1c       ?AddRef@?$CComContainedObject@VCOPOSPOSPower@@@ATL@@WPI@EAAKXZ 000000018000ae1c f i POSPower.obj
 0001:00009e30       ?AddRef@?$CComObject@V?$CComEnum@UIEnumConnectionPoints@@$1?_GUID_b196b285_bab4_101a_b69c_00aa00341d07@@3U__s_GUID@@BPEAUIConnectionPoint@@V?$_CopyInterface@UIConnectionPoint@@@ATL@@VCComSingleThreadModel@6@@ATL@@@ATL@@UEAAKXZ 000000018000ae30 f i POSPower.obj
 0001:00009e60       ?AddRef@?$CComObject@V?$CComEnum@UIEnumConnections@@$1?_GUID_b196b287_bab4_101a_b69c_00aa00341d07@@3U__s_GUID@@BUtagCONNECTDATA@@V?$_Copy@UtagCONNECTDATA@@@ATL@@VCComSingleThreadModel@6@@ATL@@@ATL@@UEAAKXZ 000000018000ae60 f i POSPower.obj
 0001:00009e90       ?AddRef@?$CComObject@VCOPOSPOSPower@@@ATL@@UEAAKXZ 000000018000ae90 f i POSPower.obj
 0001:00009eb4       ?AddRef@?$CComObject@VCOPOSPOSPower@@@ATL@@WBAA@EAAKXZ 000000018000aeb4 f i POSPower.obj
 0001:00009ec0       ?AddRef@?$CComObject@VCOPOSPOSPower@@@ATL@@WBAI@EAAKXZ 000000018000aec0 f i POSPower.obj
 0001:00009ecc       ?AddRef@?$CComObject@VCOPOSPOSPower@@@ATL@@WBBA@EAAKXZ 000000018000aecc f i POSPower.obj
 0001:00009ed8       ?AddRef@?$CComObject@VCOPOSPOSPower@@@ATL@@WBBI@EAAKXZ 000000018000aed8 f i POSPower.obj
 0001:00009ee4       ?AddRef@?$CComObject@VCOPOSPOSPower@@@ATL@@WBCI@EAAKXZ 000000018000aee4 f i POSPower.obj
 0001:00009ef0       ?AddRef@?$CComObject@VCOPOSPOSPower@@@ATL@@WBEA@EAAKXZ 000000018000aef0 f i POSPower.obj
 0001:00009efc       ?AddRef@?$CComObject@VCOPOSPOSPower@@@ATL@@WLI@EAAKXZ 000000018000aefc f i POSPower.obj
 0001:00009f08       ?AddRef@?$CComObject@VCOPOSPOSPower@@@ATL@@WMA@EAAKXZ 000000018000af08 f i POSPower.obj
 0001:00009f14       ?AddRef@?$CComObject@VCOPOSPOSPower@@@ATL@@WMI@EAAKXZ 000000018000af14 f i POSPower.obj
 0001:00009f20       ?AddRef@?$CComObject@VCOPOSPOSPower@@@ATL@@WNA@EAAKXZ 000000018000af20 f i POSPower.obj
 0001:00009f2c       ?AddRef@?$CComObject@VCOPOSPOSPower@@@ATL@@WNI@EAAKXZ 000000018000af2c f i POSPower.obj
 0001:00009f38       ?AddRef@?$CComObject@VCOPOSPOSPower@@@ATL@@WOA@EAAKXZ 000000018000af38 f i POSPower.obj
 0001:00009f44       ?AddRef@?$CComObject@VCOPOSPOSPower@@@ATL@@WOI@EAAKXZ 000000018000af44 f i POSPower.obj
 0001:00009f50       ?AddRef@?$CComObject@VCOPOSPOSPower@@@ATL@@WPA@EAAKXZ 000000018000af50 f i POSPower.obj
 0001:00009f5c       ?AddRef@?$CComObject@VCOPOSPOSPower@@@ATL@@WPI@EAAKXZ 000000018000af5c f i POSPower.obj
 0001:00009f70       ?AddRef@?$CComObjectCached@VCComClassFactory@ATL@@@ATL@@UEAAKXZ 000000018000af70 f i POSPower.obj
 0001:00009fc0       ?AddRef@CRegObject@ATL@@UEAAKXZ 000000018000afc0 f i POSPower.obj
 0001:0000a020       ?AddReplacement@CRegObject@ATL@@UEAAJPEB_W0@Z 000000018000b020 f i POSPower.obj
 0001:0000a150       ?AddString@CParseBuffer@CRegParser@ATL@@QEAAHPEB_W@Z 000000018000b150 f i POSPower.obj
 0001:0000a240       ?AddTermFunc@CAtlModule@ATL@@QEAAJP6AX_K@Z0@Z 000000018000b240 f i POSPower.obj
 0001:0000a290       ?AddValue@CRegParser@ATL@@IEAAJAEAVCRegKey@2@PEB_WPEA_W@Z 000000018000b290 f i POSPower.obj
 0001:0000ab60       ?Advise@?$CProxy_IOPOSEvents@VCOPOSPOSPower@@@@UEAAJPEAUIUnknown@@PEAK@Z 000000018000bb60 f i POSPower.obj
 0001:0000abc0       ?Advise@?$IConnectionPointImpl@VCOPOSPOSPower@@$1?DIID__IOPOSPOSPowerEvents@@3U_GUID@@BVCComDynamicUnkArray@ATL@@@ATL@@UEAAJPEAUIUnknown@@PEAK@Z 000000018000bbc0 f i POSPower.obj
 0001:0000adc0       ?Advise@?$IConnectionPointImpl@VCOPOSPOSPower@@$1?IID_IPropertyNotifySink@@3U_GUID@@BVCComDynamicUnkArray@ATL@@@ATL@@UEAAJPEAUIUnknown@@PEAK@Z 000000018000bdc0 f i POSPower.obj
 0001:0000afc0       ?Advise@?$IOleObjectImpl@VCOPOSPOSPower@@@ATL@@UEAAJPEAUIAdviseSink@@PEAK@Z 000000018000bfc0 f i POSPower.obj
 0001:0000b070       ?Allocate@?$CAtlSafeAllocBufferManager@VCCRTAllocator@ATL@@@_ATL_SAFE_ALLOCA_IMPL@ATL@@QEAAPEAX_K@Z 000000018000c070 f i POSPower.obj
 0001:0000b0e0       ?Allocate@?$CTempBuffer@E$0BAA@VCCRTAllocator@ATL@@@ATL@@QEAAPEAE_K@Z 000000018000c0e0 f i POSPower.obj
 0001:0000b120       ?Allocate@?$CTempBuffer@_W$0BAA@VCCRTAllocator@ATL@@@ATL@@QEAAPEA_W_K@Z 000000018000c120 f i POSPower.obj
 0001:0000b160       ?Allocate@?$CTempBuffer@_W$0EAA@VCCRTAllocator@ATL@@@ATL@@QEAAPEA_W_K@Z 000000018000c160 f i POSPower.obj
 0001:0000b1a0       ?AllocateBytes@?$CTempBuffer@E$0BAA@VCCRTAllocator@ATL@@@ATL@@QEAAPEAE_K@Z 000000018000c1a0 f i POSPower.obj
 0001:0000b230       ?AllocateBytes@?$CTempBuffer@_W$0BAA@VCCRTAllocator@ATL@@@ATL@@QEAAPEA_W_K@Z 000000018000c230 f i POSPower.obj
 0001:0000b2c0       ?AllocateBytes@?$CTempBuffer@_W$0EAA@VCCRTAllocator@ATL@@@ATL@@QEAAPEA_W_K@Z 000000018000c2c0 f i POSPower.obj
 0001:0000b350       ?AllocateHeap@?$CTempBuffer@E$0BAA@VCCRTAllocator@ATL@@@ATL@@AEAAX_K@Z 000000018000c350 f i POSPower.obj
 0001:0000b3a0       ?AllocateHeap@?$CTempBuffer@_W$0BAA@VCCRTAllocator@ATL@@@ATL@@AEAAX_K@Z 000000018000c3a0 f i POSPower.obj
 0001:0000b3f0       ?AllocateHeap@?$CTempBuffer@_W$0EAA@VCCRTAllocator@ATL@@@ATL@@AEAAX_K@Z 000000018000c3f0 f i POSPower.obj
 0001:0000b440       ?Append@CParseBuffer@CRegParser@ATL@@QEAAHPEB_WH@Z 000000018000c440 f i POSPower.obj
 0001:0000b660       ?AtlCallTermFunc@ATL@@YAXPEAU_ATL_MODULE70@1@@Z 000000018000c660 f i POSPower.obj
 0001:0000b700       ?AtlCoTaskMemCAlloc@ATL@@YAPEAXKK@Z 000000018000c700 f i POSPower.obj
 0001:0000b780       ?AtlCoTaskMemRecalloc@ATL@@YAPEAXPEAXKK@Z 000000018000c780 f i POSPower.obj
 0001:0000b800       ?AtlComModuleGetClassObject@ATL@@YAJPEAU_ATL_COM_MODULE70@1@AEBU_GUID@@1PEAPEAX@Z 000000018000c800 f i POSPower.obj
 0001:0000bb30       ?AtlComModuleRegisterServer@ATL@@YAJPEAU_ATL_COM_MODULE70@1@HPEBU_GUID@@@Z 000000018000cb30 f i POSPower.obj
 0001:0000bd20       ?AtlComModuleUnregisterServer@ATL@@YAJPEAU_ATL_COM_MODULE70@1@HPEBU_GUID@@@Z 000000018000cd20 f i POSPower.obj
 0001:0000be70       ?AtlComQIPtrAssign2@ATL@@YAXPEAPEAUIUnknown@@PEAU2@AEBU_GUID@@@Z 000000018000ce70 f i POSPower.obj
 0001:0000bee0       ?AtlCreateTargetDC@ATL@@YAPEAUHDC__@@PEAU2@PEAUtagDVTARGETDEVICE@@@Z 000000018000cee0 f i POSPower.obj
 0001:0000c110       ?AtlCrtErrorCheck@ATL@@YAHH@Z 000000018000d110 f i POSPower.obj
 0001:0000c180       ?AtlGetPerUserRegistration@ATL@@YAJPEA_N@Z 000000018000d180 f i POSPower.obj
 0001:0000c1b0       ?AtlHiMetricToPixel@ATL@@YAXPEBUtagSIZE@@PEAU2@@Z 000000018000d1b0 f i POSPower.obj
 0001:0000c390       ?AtlHresultFromLastError@ATL@@YAJXZ 000000018000d390 f i POSPower.obj
 0001:0000c3b0       ?AtlHresultFromWin32@ATL@@YAJK@Z 000000018000d3b0 f i POSPower.obj
 0001:0000c3d0       ?AtlIPersistStreamInit_Load@ATL@@YAJPEAUIStream@@PEBUATL_PROPMAP_ENTRY@1@PEAXPEAUIUnknown@@@Z 000000018000d3d0 f i POSPower.obj
 0001:0000ca50       ?AtlIPersistStreamInit_Save@ATL@@YAJPEAUIStream@@HPEBUATL_PROPMAP_ENTRY@1@PEAXPEAUIUnknown@@@Z 000000018000da50 f i POSPower.obj
 0001:0000cfe0       ?AtlInternalOleLoadFromStream@ATL@@YAJPEAUIStream@@AEBU_GUID@@PEAPEAXTClassesAllowedInStream@1@K@Z 000000018000dfe0 f i POSPower.obj
 0001:0000d320       ?AtlInternalQueryInterface@ATL@@YAJPEAXPEBU_ATL_INTMAP_ENTRY@1@AEBU_GUID@@PEAPEAX@Z 000000018000e320 f i POSPower.obj
 0001:0000d5d0       ?AtlLoadTypeLib@ATL@@YAJPEAUHINSTANCE__@@PEB_WPEAPEA_WPEAPEAUITypeLib@@@Z 000000018000e5d0 f i POSPower.obj
 0001:0000daa0       ?AtlModuleAddTermFunc@ATL@@YAJPEAU_ATL_MODULE70@1@P6AX_K@Z1@Z 000000018000eaa0 f i POSPower.obj
 0001:0000dc70       ?AtlRegisterClassCategoriesHelper@ATL@@YAJAEBU_GUID@@PEBU_ATL_CATMAP_ENTRY@1@H@Z 000000018000ec70 f i POSPower.obj
 0001:0000e440       ?AtlRegisterTypeLib@ATL@@YAJPEAUHINSTANCE__@@PEB_W@Z 000000018000f440 f i POSPower.obj
 0001:0000e7a0       ?AtlThrowImpl@ATL@@YAXJ@Z  000000018000f7a0 f i POSPower.obj
 0001:0000e870       ?AtlUnRegisterTypeLib@ATL@@YAJPEAUHINSTANCE__@@PEB_W@Z 000000018000f870 f i POSPower.obj
 0001:0000eaa0       ?AtlWinModuleAddCreateWndData@ATL@@YAXPEAU_ATL_WIN_MODULE70@1@PEAU_AtlCreateWndData@1@PEAX@Z 000000018000faa0 f i POSPower.obj
 0001:0000ec90       ?AtlWinModuleExtractCreateWndData@ATL@@YAPEAXPEAU_ATL_WIN_MODULE70@1@@Z 000000018000fc90 f i POSPower.obj
 0001:0000ee90       ?AtlWinModuleRegisterClassExW@ATL@@YAGPEAU_ATL_WIN_MODULE70@1@PEBUtagWNDCLASSEXW@@@Z 000000018000fe90 f i POSPower.obj
 0001:0000ef60       ?AtlWinModuleRegisterWndClassInfoW@ATL@@YAGPEAU_ATL_WIN_MODULE70@1@PEAU_ATL_BASE_MODULE70@1@PEAU_ATL_WNDCLASSINFOW@1@PEAP6A_JPEAUHWND__@@I_K_J@Z@Z 000000018000ff60 f i POSPower.obj
 0001:0000efd0       ?Attach@?$CAutoVectorPtr@_W@ATL@@QEAAXPEA_W@Z 000000018000ffd0 f i POSPower.obj
 0001:0000f040       ?Attach@CComBSTR@ATL@@QEAAXPEA_W@Z 0000000180010040 f i POSPower.obj
 0001:0000f080       ?Attach@CRegKey@ATL@@QEAAXPEAUHKEY__@@@Z 0000000180010080 f i POSPower.obj
 0001:0000f110       ?CanForceRemoveKey@CRegParser@ATL@@IEAAHPEB_W@Z 0000000180010110 f i POSPower.obj
 0001:0000f170       ?ChToByte@CRegParser@ATL@@KAE_W@Z 0000000180010170 f i POSPower.obj
 0001:0000f310       ?ChangeType@CComVariant@ATL@@QEAAJGPEBUtagVARIANT@@@Z 0000000180010310 f i POSPower.obj
 0001:0000f360       ?Cleanup@CComTypeInfoHolder@ATL@@SAX_K@Z 0000000180010360 f i POSPower.obj
 0001:0000f440       ?Clear@CComVariant@ATL@@QEAAJXZ 0000000180010440 f i POSPower.obj
 0001:0000f460       ?ClearReplacements@CExpansionVector@ATL@@QEAAJXZ 0000000180010460 f i POSPower.obj
 0001:0000f4f0       ?ClearReplacements@CRegObject@ATL@@UEAAJXZ 00000001800104f0 f i POSPower.obj
 0001:0000f540       ?Clone@?$CComEnumImpl@UIEnumConnectionPoints@@$1?_GUID_b196b285_bab4_101a_b69c_00aa00341d07@@3U__s_GUID@@BPEAUIConnectionPoint@@V?$_CopyInterface@UIConnectionPoint@@@ATL@@@ATL@@UEAAJPEAPEAUIEnumConnectionPoints@@@Z 0000000180010540 f i POSPower.obj
 0001:0000f730       ?Clone@?$CComEnumImpl@UIEnumConnections@@$1?_GUID_b196b287_bab4_101a_b69c_00aa00341d07@@3U__s_GUID@@BUtagCONNECTDATA@@V?$_Copy@UtagCONNECTDATA@@@ATL@@@ATL@@UEAAJPEAPEAUIEnumConnections@@@Z 0000000180010730 f i POSPower.obj
 0001:0000f920       ?Close@?$IOleObjectImpl@VCOPOSPOSPower@@@ATL@@UEAAJK@Z 0000000180010920 f i POSPower.obj
 0001:0000f9c0       ?Close@CRegKey@ATL@@QEAAJXZ 00000001800109c0 f i POSPower.obj
 0001:0000fa20       ?ContextSensitiveHelp@?$IOleInPlaceActiveObjectImpl@VCOPOSPOSPower@@@ATL@@UEAAJH@Z 0000000180010a20 f i POSPower.obj
 0001:0000fa90       ?ContextSensitiveHelp@?$IOleInPlaceObjectWindowlessImpl@VCOPOSPOSPower@@@ATL@@UEAAJH@Z 0000000180010a90 f i POSPower.obj
 0001:0000fb00       ?ControlQueryInterface@?$CComControl@VCOPOSPOSPower@@V?$CWindowImpl@VCOPOSPOSPower@@VCWindow@ATL@@V?$CWinTraits@$0FGAAAAAA@$0A@@3@@ATL@@@ATL@@UEAAJAEBU_GUID@@PEAPEAX@Z 0000000180010b00 f i POSPower.obj
 0001:0000fb70       ?CreateControlWindow@?$CComControl@VCOPOSPOSPower@@V?$CWindowImpl@VCOPOSPOSPower@@VCWindow@ATL@@V?$CWinTraits@$0FGAAAAAA@$0A@@3@@ATL@@@ATL@@UEAAPEAUHWND__@@PEAU3@AEAUtagRECT@@@Z 0000000180010b70 f i POSPower.obj
 0001:0000fc40       ?CreateInstance@?$CComCreator@V?$CComAggObject@VCOPOSPOSPower@@@ATL@@@ATL@@SAJPEAXAEBU_GUID@@PEAPEAX@Z 0000000180010c40 f i POSPower.obj
 0001:0000fe10       ?CreateInstance@?$CComCreator@V?$CComObject@VCOPOSPOSPower@@@ATL@@@ATL@@SAJPEAXAEBU_GUID@@PEAPEAX@Z 0000000180010e10 f i POSPower.obj
 0001:0000fff0       ?CreateInstance@?$CComObject@V?$CComEnum@UIEnumConnectionPoints@@$1?_GUID_b196b285_bab4_101a_b69c_00aa00341d07@@3U__s_GUID@@BPEAUIConnectionPoint@@V?$_CopyInterface@UIConnectionPoint@@@ATL@@VCComSingleThreadModel@6@@ATL@@@ATL@@SAJPEAPEAV12@@Z 0000000180010ff0 f i POSPower.obj
 0001:000101a0       ?CreateInstance@?$CComObject@V?$CComEnum@UIEnumConnections@@$1?_GUID_b196b287_bab4_101a_b69c_00aa00341d07@@3U__s_GUID@@BUtagCONNECTDATA@@V?$_Copy@UtagCONNECTDATA@@@ATL@@VCComSingleThreadModel@6@@ATL@@@ATL@@SAJPEAPEAV12@@Z 00000001800111a0 f i POSPower.obj
 0001:00010350       ?CreateInstance@CComClassFactory@ATL@@UEAAJPEAUIUnknown@@AEBU_GUID@@PEAPEAX@Z 0000000180011350 f i POSPower.obj
 0001:00010460       ?DAdvise@?$IDataObjectImpl@VCOPOSPOSPower@@@ATL@@UEAAJPEAUtagFORMATETC@@KPEAUIAdviseSink@@PEAK@Z 0000000180011460 f i POSPower.obj
 0001:000105a0       ?DEVMODEOLE2T_EX@@YAPEAU_devicemodeW@@PEAU1@@Z 00000001800115a0 f i POSPower.obj
 0001:000105b0       ?DUnadvise@?$IDataObjectImpl@VCOPOSPOSPower@@@ATL@@UEAAJK@Z 00000001800115b0 f i POSPower.obj
 0001:000106a0       ?Decrement@CComMultiThreadModel@ATL@@SAKPEAJ@Z 00000001800116a0 f i POSPower.obj
 0001:000106c0       ?Decrement@CComSingleThreadModel@ATL@@SAKPEAJ@Z 00000001800116c0 f i POSPower.obj
 0001:000106e0       ?DefWindowProcW@?$CWindowImplBaseT@VCWindow@ATL@@V?$CWinTraits@$0FGAAAAAA@$0A@@2@@ATL@@QEAA_JI_K_J@Z 00000001800116e0 f i POSPower.obj
 0001:00010730       ?DefaultReflectionHandler@?$CWindowImplRoot@VCWindow@ATL@@@ATL@@SAHPEAUHWND__@@I_K_JAEA_J@Z 0000000180011730 f i POSPower.obj
 0001:00010a30       ?DeleteSubKey@CRegKey@ATL@@QEAAJPEB_W@Z 0000000180011a30 f i POSPower.obj
 0001:00010b40       ?DeleteValue@CRegKey@ATL@@QEAAJPEB_W@Z 0000000180011b40 f i POSPower.obj
 0001:00010bc0       ?Detach@?$CAutoVectorPtr@_W@ATL@@QEAAPEA_WXZ 0000000180011bc0 f i POSPower.obj
 0001:00010bf0       ?Detach@?$CComPtrBase@UIPersistStream@@@ATL@@QEAAPEAUIPersistStream@@XZ 0000000180011bf0 f i POSPower.obj
 0001:00010c20       ?Detach@?$CComPtrBase@UITypeInfo@@@ATL@@QEAAPEAUITypeInfo@@XZ 0000000180011c20 f i POSPower.obj
 0001:00010c50       ?Detach@?$CComPtrBase@UIUnknown@@@ATL@@QEAAPEAUIUnknown@@XZ 0000000180011c50 f i POSPower.obj
 0001:00010c80       ?Detach@CComBSTR@ATL@@QEAAPEA_WXZ 0000000180011c80 f i POSPower.obj
 0001:00010cb0       ?Detach@CParseBuffer@CRegParser@ATL@@QEAAPEA_WXZ 0000000180011cb0 f i POSPower.obj
 0001:00010d00       ?Detach@CRegKey@ATL@@QEAAPEAUHKEY__@@XZ 0000000180011d00 f i POSPower.obj
 0001:00010d50       ?DoEvent@COPOSPOSPower@@IEAAXI_K_J@Z 0000000180011d50 f i POSPower.obj
 0001:00010e70       ?DoVerb@?$IOleObjectImpl@VCOPOSPOSPower@@@ATL@@UEAAJJPEAUtagMSG@@PEAUIOleClientSite@@JPEAUHWND__@@PEBUtagRECT@@@Z 0000000180011e70 f i POSPower.obj
 0001:00011170       ?DoVerbDiscardUndo@?$IOleObjectImpl@VCOPOSPOSPower@@@ATL@@QEAAJPEBUtagRECT@@PEAUHWND__@@@Z 0000000180012170 f i POSPower.obj
 0001:000111f0       ?DoVerbHide@?$IOleObjectImpl@VCOPOSPOSPower@@@ATL@@QEAAJPEBUtagRECT@@PEAUHWND__@@@Z 00000001800121f0 f i POSPower.obj
 0001:000112c0       ?DoVerbInPlaceActivate@?$IOleObjectImpl@VCOPOSPOSPower@@@ATL@@QEAAJPEBUtagRECT@@PEAUHWND__@@@Z 00000001800122c0 f i POSPower.obj
 0001:00011380       ?DoVerbOpen@?$IOleObjectImpl@VCOPOSPOSPower@@@ATL@@QEAAJPEBUtagRECT@@PEAUHWND__@@@Z 0000000180012380 f i POSPower.obj
 0001:00011400       ?DoVerbPrimary@?$IOleObjectImpl@VCOPOSPOSPower@@@ATL@@QEAAJPEBUtagRECT@@PEAUHWND__@@@Z 0000000180012400 f i POSPower.obj
 0001:00011540       ?DoVerbProperties@CComControlBase@ATL@@QEAAJPEBUtagRECT@@PEAUHWND__@@@Z 0000000180012540 f i POSPower.obj
 0001:000118f0       ?DoVerbShow@?$IOleObjectImpl@VCOPOSPOSPower@@@ATL@@QEAAJPEBUtagRECT@@PEAUHWND__@@@Z 00000001800128f0 f i POSPower.obj
 0001:000119a0       ?DoVerbUIActivate@?$IOleObjectImpl@VCOPOSPOSPower@@@ATL@@QEAAJPEBUtagRECT@@PEAUHWND__@@@Z 00000001800129a0 f i POSPower.obj
 0001:00011a60       ?DoesVerbActivate@CComControlBase@ATL@@QEAAHJ@Z 0000000180012a60 f i POSPower.obj
 0001:00011ab0       ?DoesVerbUIActivate@CComControlBase@ATL@@QEAAHJ@Z 0000000180012ab0 f i POSPower.obj
 0001:00011b20       ?Draw@?$IViewObjectExImpl@VCOPOSPOSPower@@@ATL@@UEAAJKJPEAXPEAUtagDVTARGETDEVICE@@PEAUHDC__@@2PEBU_RECTL@@3P6AH_K@Z4@Z 0000000180012b20 f i POSPower.obj
 0001:00011c30       ?Empty@CComBSTR@ATL@@QEAAXXZ 0000000180012c30 f i POSPower.obj
 0001:00011c60       ?EnableModeless@?$IOleInPlaceActiveObjectImpl@VCOPOSPOSPower@@@ATL@@UEAAJH@Z 0000000180012c60 f i POSPower.obj
 0001:00011cc0       ?EndOfVar@CRegParser@ATL@@IEAAHXZ 0000000180012cc0 f i POSPower.obj
 0001:00011d10       ?EnsureTI@CComTypeInfoHolder@ATL@@QEAAJK@Z 0000000180012d10 f i POSPower.obj
 0001:00011d60       ?EnumAdvise@?$IOleObjectImpl@VCOPOSPOSPower@@@ATL@@UEAAJPEAPEAUIEnumSTATDATA@@@Z 0000000180012d60 f i POSPower.obj
 0001:00011eb0       ?EnumConnectionPoints@?$IConnectionPointContainerImpl@VCOPOSPOSPower@@@ATL@@UEAAJPEAPEAUIEnumConnectionPoints@@@Z 0000000180012eb0 f i POSPower.obj
 0001:000123a0       ?EnumConnections@?$IConnectionPointImpl@VCOPOSPOSPower@@$1?DIID__IOPOSPOSPowerEvents@@3U_GUID@@BVCComDynamicUnkArray@ATL@@@ATL@@UEAAJPEAPEAUIEnumConnections@@@Z 00000001800133a0 f i POSPower.obj
 0001:000126d0       ?EnumConnections@?$IConnectionPointImpl@VCOPOSPOSPower@@$1?IID_IPropertyNotifySink@@3U_GUID@@BVCComDynamicUnkArray@ATL@@@ATL@@UEAAJPEAPEAUIEnumConnections@@@Z 00000001800136d0 f i POSPower.obj
 0001:00012a00       ?EnumDAdvise@?$IDataObjectImpl@VCOPOSPOSPower@@@ATL@@UEAAJPEAPEAUIEnumSTATDATA@@@Z 0000000180013a00 f i POSPower.obj
 0001:00012b30       ?EnumFormatEtc@?$IDataObjectImpl@VCOPOSPOSPower@@@ATL@@UEAAJKPEAPEAUIEnumFORMATETC@@@Z 0000000180013b30 f i POSPower.obj
 0001:00012bb0       ?EnumVerbs@?$IOleObjectImpl@VCOPOSPOSPower@@@ATL@@UEAAJPEAPEAUIEnumOLEVERB@@@Z 0000000180013bb0 f i POSPower.obj
 0001:00012c70       ?EscapeSingleQuote@CAtlModule@ATL@@SAXPEA_W_KPEB_W@Z 0000000180013c70 f i POSPower.obj
 0001:00012d50       ?ExtractCreateWndData@CAtlWinModule@ATL@@QEAAPEAXXZ 0000000180013d50 f i POSPower.obj
 0001:00012d70       ?FAccessAllowed@?$IObjectSafetyImpl@VCOPOSPOSPower@@$02@ATL@@MEAAHXZ 0000000180013d70 f i POSPower.obj
 0001:00012d80       ?FinalConstruct@?$CComAggObject@VCOPOSPOSPower@@@ATL@@QEAAJXZ 0000000180013d80 f i POSPower.obj
 0001:00012dc0       ?FinalConstruct@CComObjectRootBase@ATL@@QEAAJXZ 0000000180013dc0 f i POSPower.obj
 0001:00012dd0       ?FinalConstruct@CRegObject@ATL@@QEAAJXZ 0000000180013dd0 f i POSPower.obj
 0001:00012e00       ?FinalRelease@?$CComAggObject@VCOPOSPOSPower@@@ATL@@QEAAXXZ 0000000180013e00 f i POSPower.obj
 0001:00012e40       ?FinalRelease@CComObjectRootBase@ATL@@QEAAXXZ 0000000180013e40 f i POSPower.obj
 0001:00012e50       ?FindConnectionPoint@?$IConnectionPointContainerImpl@VCOPOSPOSPower@@@ATL@@UEAAJAEBU_GUID@@PEAPEAUIConnectionPoint@@@Z 0000000180013e50 f i POSPower.obj
 0001:00012fc0       ?FindKey@?$CSimpleMap@PEA_WPEA_WVCExpansionVectorEqualHelper@ATL@@@ATL@@QEBAHAEBQEA_W@Z 0000000180013fc0 f i POSPower.obj
 0001:00013030       ?FireTheEvent@?$CProxy_IOPOSEvents@VCOPOSPOSPower@@@@IEAAXPEAUIUnknown@@PEAVOposVariant@@IAEAJPEB_WJ@Z 0000000180014030 f i POSPower.obj
 0001:00013210       ?FireViewChange@CComControlBase@ATL@@QEAAJXZ 0000000180014210 f i POSPower.obj
 0001:000132e0       ?Fire_DirectIOEvent@?$CProxy_IOPOSEvents@VCOPOSPOSPower@@@@QEAAXJPEAJPEAPEA_W@Z 00000001800142e0 f i POSPower.obj
 0001:00013580       ?Fire_StatusUpdateEvent@?$CProxy_IOPOSEvents@VCOPOSPOSPower@@@@QEAAXJ@Z 0000000180014580 f i POSPower.obj
 0001:00013770       ?FormatWindowClassName@AtlModuleRegisterWndClassInfoParamW@ATL@@SAXPEA_WKPEAX@Z 0000000180014770 f i POSPower.obj
 0001:000137b0       ?Free@?$CAutoVectorPtr@_W@ATL@@QEAAXXZ 00000001800147b0 f i POSPower.obj
 0001:000137f0       ?FreeHeap@?$CTempBuffer@E$0BAA@VCCRTAllocator@ATL@@@ATL@@AEAAXXZ 00000001800147f0 f i POSPower.obj
 0001:00013810       ?FreeHeap@?$CTempBuffer@_W$0BAA@VCCRTAllocator@ATL@@@ATL@@AEAAXXZ 0000000180014810 f i POSPower.obj
 0001:00013830       ?FreeHeap@?$CTempBuffer@_W$0EAA@VCCRTAllocator@ATL@@@ATL@@AEAAXXZ 0000000180014830 f i POSPower.obj
 0001:00013850       ?Freeze@?$IViewObjectExImpl@VCOPOSPOSPower@@@ATL@@UEAAJKJPEAXPEAK@Z 0000000180014850 f i POSPower.obj
 0001:000138d0       ?GenerateError@CRegParser@ATL@@IEAAJI@Z 00000001800148d0 f i POSPower.obj
 0001:000138f0       ?GetAdvise@?$IViewObjectExImpl@VCOPOSPOSPower@@@ATL@@UEAAJPEAK0PEAPEAUIAdviseSink@@@Z 00000001800148f0 f i POSPower.obj
 0001:00013a30       ?GetAmbientLocaleID@CComControlBase@ATL@@QEAAJAEAK@Z 0000000180014a30 f i POSPower.obj
 0001:00013b10       ?GetAmbientProperty@CComControlBase@ATL@@QEAAJJAEAUtagVARIANT@@@Z 0000000180014b10 f i POSPower.obj
 0001:00013b60       ?GetAmbientUserMode@CComControlBase@ATL@@QEAAJAEAH@Z 0000000180014b60 f i POSPower.obj
 0001:00013c80       ?GetAppId@?$CAtlModuleT@VCComModule@ATL@@@ATL@@SAPEB_WXZ 0000000180014c80 f i POSPower.obj
 0001:00013c90       ?GetAt@CComDynamicUnkArray@ATL@@QEAAPEAUIUnknown@@H@Z 0000000180014c90 f i POSPower.obj
 0001:00013d20       ?GetCanonicalFormatEtc@?$IDataObjectImpl@VCOPOSPOSPower@@@ATL@@UEAAJPEAUtagFORMATETC@@0@Z 0000000180014d20 f i POSPower.obj
 0001:00013da0       ?GetClassID@?$IPersistStorageImpl@VCOPOSPOSPower@@@ATL@@UEAAJPEAU_GUID@@@Z 0000000180014da0 f i POSPower.obj
 0001:00013e20       ?GetClassID@?$IPersistStreamInitImpl@VCOPOSPOSPower@@@ATL@@UEAAJPEAU_GUID@@@Z 0000000180014e20 f i POSPower.obj
 0001:00013ea0       ?GetClassInfoExW@AtlModuleRegisterWndClassInfoParamW@ATL@@SAHPEAUHINSTANCE__@@PEB_WPEAUtagWNDCLASSEXW@@@Z 0000000180014ea0 f i POSPower.obj
 0001:00013ed0       ?GetClassInfoW@?$IProvideClassInfo2Impl@$1?CLSID_OPOSPOSPower@@3U_GUID@@B$1?DIID__IOPOSPOSPowerEvents@@3U2@B$1?LIBID_OposPOSPower_CCO@@3U2@B$00$0A@VCComTypeInfoHolder@ATL@@@ATL@@UEAAJPEAPEAUITypeInfo@@@Z 0000000180014ed0 f i POSPower.obj
 0001:00013f00       ?GetClassObject@CComModule@ATL@@QEAAJAEBU_GUID@@0PEAPEAX@Z 0000000180014f00 f i POSPower.obj
 0001:00014170       ?GetClientSite@?$IOleObjectImpl@VCOPOSPOSPower@@@ATL@@UEAAJPEAPEAUIOleClientSite@@@Z 0000000180015170 f i POSPower.obj
 0001:00014210       ?GetClipboardData@?$IOleObjectImpl@VCOPOSPOSPower@@@ATL@@UEAAJKPEAPEAUIDataObject@@@Z 0000000180015210 f i POSPower.obj
 0001:00014290       ?GetCodeAddress@CDynamicStdCallThunk2@ATL@@QEAAPEAXXZ 0000000180015290 f i POSPower.obj
 0001:000142b0       ?GetColorSet@?$IViewObjectExImpl@VCOPOSPOSPower@@@ATL@@UEAAJKJPEAXPEAUtagDVTARGETDEVICE@@PEAUHDC__@@PEAPEAUtagLOGPALETTE@@@Z 00000001800152b0 f i POSPower.obj
 0001:00014330       ?GetConnMap@COPOSPOSPower@@SAPEBU_ATL_CONNMAP_ENTRY@ATL@@PEAH@Z 0000000180015330 f i POSPower.obj
 0001:00014480       ?GetConnectionInterface@?$IConnectionPointImpl@VCOPOSPOSPower@@$1?DIID__IOPOSPOSPowerEvents@@3U_GUID@@BVCComDynamicUnkArray@ATL@@@ATL@@UEAAJPEAU_GUID@@@Z 0000000180015480 f i POSPower.obj
 0001:000144c0       ?GetConnectionInterface@?$IConnectionPointImpl@VCOPOSPOSPower@@$1?IID_IPropertyNotifySink@@3U_GUID@@BVCComDynamicUnkArray@ATL@@@ATL@@UEAAJPEAU_GUID@@@Z 00000001800154c0 f i POSPower.obj
 0001:00014500       ?GetConnectionPointContainer@?$IConnectionPointImpl@VCOPOSPOSPower@@$1?DIID__IOPOSPOSPowerEvents@@3U_GUID@@BVCComDynamicUnkArray@ATL@@@ATL@@UEAAJPEAPEAUIConnectionPointContainer@@@Z 0000000180015500 f i POSPower.obj
 0001:00014560       ?GetConnectionPointContainer@?$IConnectionPointImpl@VCOPOSPOSPower@@$1?IID_IPropertyNotifySink@@3U_GUID@@BVCComDynamicUnkArray@ATL@@@ATL@@UEAAJPEAPEAUIConnectionPointContainer@@@Z 0000000180015560 f i POSPower.obj
 0001:000145c0       ?GetContentExtent@?$IQuickActivateImpl@VCOPOSPOSPower@@@ATL@@UEAAJPEAUtagSIZE@@@Z 00000001800155c0 f i POSPower.obj
 0001:00014670       ?GetControlInfo@?$IOleControlImpl@VCOPOSPOSPower@@@ATL@@UEAAJPEAUtagCONTROLINFO@@@Z 0000000180015670 f i POSPower.obj
 0001:000146e0       ?GetCookie@CComDynamicUnkArray@ATL@@QEAAKPEAPEAUIUnknown@@@Z 00000001800156e0 f i POSPower.obj
 0001:000147c0       ?GetData@?$IDataObjectImpl@VCOPOSPOSPower@@@ATL@@UEAAJPEAUtagFORMATETC@@PEAUtagSTGMEDIUM@@@Z 00000001800157c0 f i POSPower.obj
 0001:00014870       ?GetData@CAtlSafeAllocBufferNode@?$CAtlSafeAllocBufferManager@VCCRTAllocator@ATL@@@_ATL_SAFE_ALLOCA_IMPL@ATL@@QEAAPEAXXZ 0000000180015870 f i POSPower.obj
 0001:00014890       ?GetDataHere@?$IDataObjectImpl@VCOPOSPOSPower@@@ATL@@UEAAJPEAUtagFORMATETC@@PEAUtagSTGMEDIUM@@@Z 0000000180015890 f i POSPower.obj
 0001:00014910       ?GetDropTarget@?$IOleInPlaceObjectWindowlessImpl@VCOPOSPOSPower@@@ATL@@UEAAJPEAPEAUIDropTarget@@@Z 0000000180015910 f i POSPower.obj
 0001:00014980       ?GetExtent@?$IOleObjectImpl@VCOPOSPOSPower@@@ATL@@UEAAJKPEAUtagSIZE@@@Z 0000000180015980 f i POSPower.obj
 0001:00014a40       ?GetExtent@?$IViewObjectExImpl@VCOPOSPOSPower@@@ATL@@UEAAJKJPEAUtagDVTARGETDEVICE@@PEAUtagSIZE@@@Z 0000000180015a40 f i POSPower.obj
 0001:00014b40       ?GetGITPtr@CAtlModule@ATL@@UEAAJPEAPEAUIGlobalInterfaceTable@@@Z 0000000180015b40 f i POSPower.obj
 0001:00014c70       ?GetGUID@?$IProvideClassInfo2Impl@$1?CLSID_OPOSPOSPower@@3U_GUID@@B$1?DIID__IOPOSPOSPowerEvents@@3U2@B$1?LIBID_OposPOSPower_CCO@@3U2@B$00$0A@VCComTypeInfoHolder@ATL@@@ATL@@UEAAJKPEAU_GUID@@@Z 0000000180015c70 f i POSPower.obj
 0001:00014cf0       ?GetIDsOfNames@?$IDispatchImpl@UIOPOSPOSPower@@$1?IID_IOPOSPOSPower@@3U_GUID@@B$1?LIBID_OposPOSPower_CCO@@3U3@B$00$0A@VCComTypeInfoHolder@ATL@@@ATL@@UEAAJAEBU_GUID@@PEAPEA_WIKPEAJ@Z 0000000180015cf0 f i POSPower.obj
 0001:00014d40       ?GetIDsOfNames@CComTypeInfoHolder@ATL@@QEAAJAEBU_GUID@@PEAPEA_WIKPEAJ@Z 0000000180015d40 f i POSPower.obj
 0001:00014f50       ?GetInterfaceSafetyOptions@?$IObjectSafetyImpl@VCOPOSPOSPower@@$02@ATL@@UEAAJAEBU_GUID@@PEAK1@Z 0000000180015f50 f i POSPower.obj
 0001:000150f0       ?GetKeyAt@?$CSimpleMap@PEA_WPEA_WVCExpansionVectorEqualHelper@ATL@@@ATL@@QEBAAEAPEA_WH@Z 00000001800160f0 f i POSPower.obj
 0001:00015190       ?GetLockCount@CAtlModule@ATL@@UEAAJXZ 0000000180016190 f i POSPower.obj
 0001:000151a0       ?GetMiscStatus@?$IOleObjectImpl@VCOPOSPOSPower@@@ATL@@UEAAJKPEAK@Z 00000001800161a0 f i POSPower.obj
 0001:00015220       ?GetMoniker@?$IOleObjectImpl@VCOPOSPOSPower@@@ATL@@UEAAJKKPEAPEAUIMoniker@@@Z 0000000180016220 f i POSPower.obj
 0001:000152a0       ?GetNaturalExtent@?$IViewObjectExImpl@VCOPOSPOSPower@@@ATL@@UEAAJKJPEAUtagDVTARGETDEVICE@@PEAUHDC__@@PEAUtagExtentInfo@@PEAUtagSIZE@@@Z 00000001800162a0 f i POSPower.obj
 0001:00015420       ?GetObjectCLSID@?$CComCoClass@VCOPOSPOSPower@@$1?CLSID_OPOSPOSPower@@3U_GUID@@B@ATL@@SAAEBU_GUID@@XZ 0000000180016420 f i POSPower.obj
 0001:00015430       ?GetPages@?$ISpecifyPropertyPagesImpl@VCOPOSPOSPower@@@ATL@@UEAAJPEAUtagCAUUID@@@Z 0000000180016430 f i POSPower.obj
 0001:000154b0       ?GetPagesHelper@?$ISpecifyPropertyPagesImpl@VCOPOSPOSPower@@@ATL@@IEAAJPEAUtagCAUUID@@PEBUATL_PROPMAP_ENTRY@2@@Z 00000001800164b0 f i POSPower.obj
 0001:00015710       ?GetProperty@?$CComPtr@UIDispatch@@@ATL@@QEAAJJPEAUtagVARIANT@@@Z 0000000180016710 f i POSPower.obj
 0001:00015740       ?GetProperty@?$CComPtr@UIDispatch@@@ATL@@SAJPEAUIDispatch@@JPEAUtagVARIANT@@@Z 0000000180016740 f i POSPower.obj
 0001:00015910       ?GetPropertyMap@COPOSPOSPower@@SAPEBUATL_PROPMAP_ENTRY@ATL@@XZ 0000000180016910 f i POSPower.obj
 0001:00015920       ?GetRect@?$IViewObjectExImpl@VCOPOSPOSPower@@@ATL@@UEAAJKPEAU_RECTL@@@Z 0000000180016920 f i POSPower.obj
 0001:000159a0       ?GetSize@?$CSimpleMap@PEA_WPEA_WVCExpansionVectorEqualHelper@ATL@@@ATL@@QEBAHXZ 00000001800169a0 f i POSPower.obj
 0001:000159b0       ?GetSize@CComDynamicUnkArray@ATL@@QEBAHXZ 00000001800169b0 f i POSPower.obj
 0001:000159c0       ?GetSizeMax@?$IPersistStreamInitImpl@VCOPOSPOSPower@@@ATL@@UEAAJPEAT_ULARGE_INTEGER@@@Z 00000001800169c0 f i POSPower.obj
 0001:00016160       ?GetSizeMax@CComVariant@ATL@@QEBAJPEAT_ULARGE_INTEGER@@@Z 0000000180017160 f i POSPower.obj
 0001:000165b0       ?GetStreamSize@CComBSTR@ATL@@SAKPEA_W@Z 00000001800175b0 f i POSPower.obj
 0001:000165f0       ?GetTI@CComTypeInfoHolder@ATL@@QEAAJK@Z 00000001800175f0 f i POSPower.obj
 0001:00016ec0       ?GetTI@CComTypeInfoHolder@ATL@@QEAAJKPEAPEAUITypeInfo@@@Z 0000000180017ec0 f i POSPower.obj
 0001:00016fa0       ?GetTypeInfo@?$IDispatchImpl@UIOPOSPOSPower@@$1?IID_IOPOSPOSPower@@3U_GUID@@B$1?LIBID_OposPOSPower_CCO@@3U3@B$00$0A@VCComTypeInfoHolder@ATL@@@ATL@@UEAAJIKPEAPEAUITypeInfo@@@Z 0000000180017fa0 f i POSPower.obj
 0001:00016fe0       ?GetTypeInfo@CComTypeInfoHolder@ATL@@QEAAJIKPEAPEAUITypeInfo@@@Z 0000000180017fe0 f i POSPower.obj
 0001:00017020       ?GetTypeInfoCount@?$IDispatchImpl@UIOPOSPOSPower@@$1?IID_IOPOSPOSPower@@3U_GUID@@B$1?LIBID_OposPOSPower_CCO@@3U3@B$00$0A@VCComTypeInfoHolder@ATL@@@ATL@@UEAAJPEAI@Z 0000000180018020 f i POSPower.obj
 0001:00017050       ?GetUnknown@CComDynamicUnkArray@ATL@@QEAAPEAUIUnknown@@K@Z 0000000180018050 f i POSPower.obj
 0001:000170e0       ?GetUnknown@COPOSPOSPower@@QEAAPEAUIUnknown@@XZ 00000001800180e0 f i POSPower.obj
 0001:00017100       ?GetUserClassID@?$IOleObjectImpl@VCOPOSPOSPower@@@ATL@@UEAAJPEAU_GUID@@@Z 0000000180018100 f i POSPower.obj
 0001:000171c0       ?GetUserType@?$IOleObjectImpl@VCOPOSPOSPower@@@ATL@@UEAAJKPEAPEA_W@Z 00000001800181c0 f i POSPower.obj
 0001:00017240       ?GetValueAt@?$CSimpleMap@PEA_WPEA_WVCExpansionVectorEqualHelper@ATL@@@ATL@@QEBAAEAPEA_WH@Z 0000000180018240 f i POSPower.obj
 0001:000172e0       ?GetViewStatus@?$IViewObjectExImpl@VCOPOSPOSPower@@@ATL@@UEAAJPEAK@Z 00000001800182e0 f i POSPower.obj
 0001:000173d0       ?GetWNDPROC@CWndProcThunk@ATL@@QEAAP6A_JPEAUHWND__@@I_K_J@ZXZ 00000001800183d0 f i POSPower.obj
 0001:00017400       ?GetWindow@?$IOleInPlaceActiveObjectImpl@VCOPOSPOSPower@@@ATL@@UEAAJPEAPEAUHWND__@@@Z 0000000180018400 f i POSPower.obj
 0001:000174f0       ?GetWindow@?$IOleInPlaceObjectWindowlessImpl@VCOPOSPOSPower@@@ATL@@UEAAJPEAPEAUHWND__@@@Z 00000001800184f0 f i POSPower.obj
 0001:000175e0       ?GetWindowProc@?$CWindowImplBaseT@VCWindow@ATL@@V?$CWinTraits@$0FGAAAAAA@$0A@@2@@ATL@@UEAAP6A_JPEAUHWND__@@I_K_J@ZXZ 00000001800185e0 f i POSPower.obj
 0001:000175f0       ?GetWndCaption@?$CWindowImpl@VCOPOSPOSPower@@VCWindow@ATL@@V?$CWinTraits@$0FGAAAAAA@$0A@@3@@ATL@@SAPEB_WXZ 00000001800185f0 f i POSPower.obj
 0001:00017600       ?GetWndClassInfo@?$CWindowImpl@VCOPOSPOSPower@@VCWindow@ATL@@V?$CWinTraits@$0FGAAAAAA@$0A@@3@@ATL@@SAAEAU_ATL_WNDCLASSINFOW@2@XZ 0000000180018600 f i POSPower.obj
 0001:00017610       ?GetWndClassName@CWindow@ATL@@SAPEB_WXZ 0000000180018610 f i POSPower.obj
 0001:00017620       ?GetWndExStyle@?$CWinTraits@$0FGAAAAAA@$0A@@ATL@@SAKK@Z 0000000180018620 f i POSPower.obj
 0001:00017650       ?GetWndExStyle@?$CWindowImplBaseT@VCWindow@ATL@@V?$CWinTraits@$0FGAAAAAA@$0A@@2@@ATL@@SAKK@Z 0000000180018650 f i POSPower.obj
 0001:00017670       ?GetWndStyle@?$CWinTraits@$0FGAAAAAA@$0A@@ATL@@SAKK@Z 0000000180018670 f i POSPower.obj
 0001:000176a0       ?GetWndStyle@?$CWindowImplBaseT@VCWindow@ATL@@V?$CWinTraits@$0FGAAAAAA@$0A@@2@@ATL@@SAKK@Z 00000001800186a0 f i POSPower.obj
 0001:000176c0       ?GetZoomInfo@CComControlBase@ATL@@QEAAXAEAUATL_DRAWINFO@@@Z 00000001800186c0 f i POSPower.obj
 0001:00017870       ?HKeyFromString@CRegParser@ATL@@KAPEAUHKEY__@@PEA_W@Z 0000000180018870 f i POSPower.obj
 0001:000178e0       ?HandsOffStorage@?$IPersistStorageImpl@VCOPOSPOSPower@@@ATL@@UEAAJXZ 00000001800188e0 f i POSPower.obj
 0001:00017940       ?HasSubKeys@CRegParser@ATL@@IEAAHPEAUHKEY__@@@Z 0000000180018940 f i POSPower.obj
 0001:00017ab0       ?IDataObject_GetData@CComControlBase@ATL@@QEAAJPEAUtagFORMATETC@@PEAUtagSTGMEDIUM@@@Z 0000000180018ab0 f i POSPower.obj
 0001:00017f60       ?IOleInPlaceObject_InPlaceDeactivate@CComControlBase@ATL@@QEAAJXZ 0000000180018f60 f i POSPower.obj
 0001:000181d0       ?IOleInPlaceObject_SetObjectRects@CComControlBase@ATL@@QEAAJPEBUtagRECT@@0@Z 00000001800191d0 f i POSPower.obj
 0001:000183c0       ?IOleInPlaceObject_UIDeactivate@CComControlBase@ATL@@QEAAJXZ 00000001800193c0 f i POSPower.obj
 0001:00018630       ?IOleObject_Advise@CComControlBase@ATL@@QEAAJPEAUIAdviseSink@@PEAK@Z 0000000180019630 f i POSPower.obj
 0001:000186d0       ?IOleObject_Close@CComControlBase@ATL@@QEAAJK@Z 00000001800196d0 f i POSPower.obj
 0001:00018a40       ?IOleObject_GetClientSite@CComControlBase@ATL@@QEAAJPEAPEAUIOleClientSite@@@Z 0000000180019a40 f i POSPower.obj
 0001:00018b00       ?IOleObject_SetClientSite@CComControlBase@ATL@@QEAAJPEAUIOleClientSite@@@Z 0000000180019b00 f i POSPower.obj
 0001:00018c00       ?IOleObject_SetExtent@CComControlBase@ATL@@QEAAJKPEAUtagSIZE@@@Z 0000000180019c00 f i POSPower.obj
 0001:00018d50       ?IPSI_GetIPersistStreamInit@?$IPersistStorageImpl@VCOPOSPOSPower@@@ATL@@AEAAPEAUIPersistStreamInit@@XZ 0000000180019d50 f i POSPower.obj
 0001:00018e10       ?IPersistStreamInit_Load@?$IPersistStreamInitImpl@VCOPOSPOSPower@@@ATL@@QEAAJPEAUIStream@@PEBUATL_PROPMAP_ENTRY@2@@Z 0000000180019e10 f i POSPower.obj
 0001:00018ea0       ?IPersistStreamInit_Save@?$IPersistStreamInitImpl@VCOPOSPOSPower@@@ATL@@QEAAJPEAUIStream@@HPEBUATL_PROPMAP_ENTRY@2@@Z 0000000180019ea0 f i POSPower.obj
 0001:00018f40       ?IQuickActivate_QuickActivate@CComControlBase@ATL@@QEAAJPEAUtagQACONTAINER@@PEAUtagQACONTROL@@@Z 0000000180019f40 f i POSPower.obj
 0001:00019780       ?IViewObject_Draw@CComControlBase@ATL@@QEAAJKJPEAXPEAUtagDVTARGETDEVICE@@PEAUHDC__@@2PEBU_RECTL@@3@Z 000000018001a780 f i POSPower.obj
 0001:00019bd0       ?InPlaceActivate@CComControlBase@ATL@@QEAAJJPEBUtagRECT@@@Z 000000018001abd0 f i POSPower.obj
 0001:0001a770       ?InPlaceDeactivate@?$IOleInPlaceObjectWindowlessImpl@VCOPOSPOSPower@@@ATL@@UEAAJXZ 000000018001b770 f i POSPower.obj
 0001:0001a800       ?Increment@CComMultiThreadModel@ATL@@SAKPEAJ@Z 000000018001b800 f i POSPower.obj
 0001:0001a820       ?Increment@CComSingleThreadModel@ATL@@SAKPEAJ@Z 000000018001b820 f i POSPower.obj
 0001:0001a840       ?Init@?$CComEnumImpl@UIEnumConnectionPoints@@$1?_GUID_b196b285_bab4_101a_b69c_00aa00341d07@@3U__s_GUID@@BPEAUIConnectionPoint@@V?$_CopyInterface@UIConnectionPoint@@@ATL@@@ATL@@QEAAJPEAPEAUIConnectionPoint@@0PEAUIUnknown@@W4CComEnumFlags@2@@Z 000000018001b840 f i POSPower.obj
 0001:0001ab20       ?Init@?$CComEnumImpl@UIEnumConnections@@$1?_GUID_b196b287_bab4_101a_b69c_00aa00341d07@@3U__s_GUID@@BUtagCONNECTDATA@@V?$_Copy@UtagCONNECTDATA@@@ATL@@@ATL@@QEAAJPEAUtagCONNECTDATA@@0PEAUIUnknown@@W4CComEnumFlags@2@@Z 000000018001bb20 f i POSPower.obj
 0001:0001ae00       ?Init@CComFakeCriticalSection@ATL@@QEAAJXZ 000000018001be00 f i POSPower.obj
 0001:0001ae10       ?Init@CComModule@ATL@@QEAAJPEAU_ATL_OBJMAP_ENTRY30@2@PEAUHINSTANCE__@@PEBU_GUID@@@Z 000000018001be10 f i POSPower.obj
 0001:0001aef0       ?Init@CComSafeDeleteCriticalSection@ATL@@QEAAJXZ 000000018001bef0 f i POSPower.obj
 0001:0001af70       ?Init@CDynamicStdCallThunk2@ATL@@QEAAH_KPEAX@Z 000000018001bf70 f i POSPower.obj
 0001:0001afd0       ?Init@CWndProcThunk@ATL@@QEAAHP6A_JPEAUHWND__@@I_K_J@ZPEAX@Z 000000018001bfd0 f i POSPower.obj
 0001:0001b010       ?InitFromData@?$IOleObjectImpl@VCOPOSPOSPower@@@ATL@@UEAAJPEAUIDataObject@@HK@Z 000000018001c010 f i POSPower.obj
 0001:0001b090       ?InitLibId@?$CAtlModuleT@VCComModule@ATL@@@ATL@@SAXXZ 000000018001c090 f i POSPower.obj
 0001:0001b0a0       ?InitNew@?$IPersistStorageImpl@VCOPOSPOSPower@@@ATL@@UEAAJPEAUIStorage@@@Z 000000018001c0a0 f i POSPower.obj
 0001:0001b190       ?InitNew@?$IPersistStreamInitImpl@VCOPOSPOSPower@@@ATL@@UEAAJXZ 000000018001c190 f i POSPower.obj
 0001:0001b230       ?InlineIsEqualUnknown@ATL@@YAHAEBU_GUID@@@Z 000000018001c230 f i POSPower.obj
 0001:0001b2b0       ?InternalAddRef@?$CComObjectRootEx@VCComMultiThreadModel@ATL@@@ATL@@QEAAKXZ 000000018001c2b0 f i POSPower.obj
 0001:0001b320       ?InternalAddRef@?$CComObjectRootEx@VCComSingleThreadModel@ATL@@@ATL@@QEAAKXZ 000000018001c320 f i POSPower.obj
 0001:0001b390       ?InternalFinalConstructAddRef@CComObjectRootBase@ATL@@QEAAXXZ 000000018001c390 f i POSPower.obj
 0001:0001b3a0       ?InternalFinalConstructAddRef@COPOSPOSPower@@QEAAXXZ 000000018001c3a0 f i POSPower.obj
 0001:0001b3d0       ?InternalFinalConstructRelease@CComObjectRootBase@ATL@@QEAAXXZ 000000018001c3d0 f i POSPower.obj
 0001:0001b430       ?InternalFinalConstructRelease@COPOSPOSPower@@QEAAXXZ 000000018001c430 f i POSPower.obj
 0001:0001b460       ?InternalGetSite@CComControlBase@ATL@@QEAAJAEBU_GUID@@PEAPEAX@Z 000000018001c460 f i POSPower.obj
 0001:0001b530       ?InternalQueryInterface@CComObjectRootBase@ATL@@SAJPEAXPEBU_ATL_INTMAP_ENTRY@2@AEBU_GUID@@PEAPEAX@Z 000000018001c530 f i POSPower.obj
 0001:0001b640       ?InternalRelease@?$CComObjectRootEx@VCComMultiThreadModel@ATL@@@ATL@@QEAAKXZ 000000018001c640 f i POSPower.obj
 0001:0001b6b0       ?InternalRelease@?$CComObjectRootEx@VCComSingleThreadModel@ATL@@@ATL@@QEAAKXZ 000000018001c6b0 f i POSPower.obj
 0001:0001b720       ?InternalSetAtIndex@?$CSimpleArray@GV?$CSimpleArrayEqualHelper@G@ATL@@@ATL@@QEAAXHAEBG@Z 000000018001c720 f i POSPower.obj
 0001:0001b790       ?InternalSetAtIndex@?$CSimpleMap@PEA_WPEA_WVCExpansionVectorEqualHelper@ATL@@@ATL@@QEAAXHAEBQEA_W0@Z 000000018001c790 f i POSPower.obj
 0001:0001b850       ?Invoke@?$IDispatchImpl@UIOPOSPOSPower@@$1?IID_IOPOSPOSPower@@3U_GUID@@B$1?LIBID_OposPOSPower_CCO@@3U3@B$00$0A@VCComTypeInfoHolder@ATL@@@ATL@@UEAAJJAEBU_GUID@@KGPEAUtagDISPPARAMS@@PEAUtagVARIANT@@PEAUtagEXCEPINFO@@PEAI@Z 000000018001c850 f i POSPower.obj
 0001:0001b8e0       ?Invoke@CComTypeInfoHolder@ATL@@QEAAJPEAUIDispatch@@JAEBU_GUID@@KGPEAUtagDISPPARAMS@@PEAUtagVARIANT@@PEAUtagEXCEPINFO@@PEAI@Z 000000018001c8e0 f i POSPower.obj
 0001:0001b990       ?IsDirty@?$IPersistStorageImpl@VCOPOSPOSPower@@@ATL@@UEAAJXZ 000000018001c990 f i POSPower.obj
 0001:0001ba80       ?IsDirty@?$IPersistStreamInitImpl@VCOPOSPOSPower@@@ATL@@UEAAJXZ 000000018001ca80 f i POSPower.obj
 0001:0001bb30       ?IsEqualKey@CExpansionVectorEqualHelper@ATL@@SA_NQEA_W0@Z 000000018001cb30 f i POSPower.obj
 0001:0001bb60       ?IsEqualObject@?$CComPtrBase@UIOleClientSite@@@ATL@@QEAA_NPEAUIUnknown@@@Z 000000018001cb60 f i POSPower.obj
 0001:0001bcb0       ?IsEqualObject@?$CComPtrBase@UITypeInfo@@@ATL@@QEAA_NPEAUIUnknown@@@Z 000000018001ccb0 f i POSPower.obj
 0001:0001be00       ?IsSpace@CRegParser@ATL@@IEAAH_W@Z 000000018001ce00 f i POSPower.obj
 0001:0001be40       ?IsUpToDate@?$IOleObjectImpl@VCOPOSPOSPower@@@ATL@@UEAAJXZ 000000018001ce40 f i POSPower.obj
 0001:0001bea0       ?Length@CComBSTR@ATL@@QEBAIXZ 000000018001cea0 f i POSPower.obj
 0001:0001bec0       ?Load@?$IPersistStorageImpl@VCOPOSPOSPower@@@ATL@@UEAAJPEAUIStorage@@@Z 000000018001cec0 f i POSPower.obj
 0001:0001c070       ?Load@?$IPersistStreamInitImpl@VCOPOSPOSPower@@@ATL@@UEAAJPEAUIStream@@@Z 000000018001d070 f i POSPower.obj
 0001:0001c120       ?LoadCursorW@AtlModuleRegisterWndClassInfoParamW@ATL@@SAPEAUHICON__@@PEAUHINSTANCE__@@PEB_W@Z 000000018001d120 f i POSPower.obj
 0001:0001c150       ?LoadNameCache@CComTypeInfoHolder@ATL@@QEAAJPEAUITypeInfo@@@Z 000000018001d150 f i POSPower.obj
 0001:0001c490       ?Lock@?$CComCritSecLock@VCComCriticalSection@ATL@@@ATL@@QEAAJXZ 000000018001d490 f i POSPower.obj
 0001:0001c560       ?Lock@?$CComObjectRootEx@VCComSingleThreadModel@ATL@@@ATL@@QEAAXXZ 000000018001d560 f i POSPower.obj
 0001:0001c570       ?Lock@CAtlModule@ATL@@UEAAJXZ 000000018001d570 f i POSPower.obj
 0001:0001c5a0       ?Lock@CComCriticalSection@ATL@@QEAAJXZ 000000018001d5a0 f i POSPower.obj
 0001:0001c5c0       ?Lock@CComFakeCriticalSection@ATL@@QEAAJXZ 000000018001d5c0 f i POSPower.obj
 0001:0001c5d0       ?LockServer@CComClassFactory@ATL@@UEAAJH@Z 000000018001d5d0 f i POSPower.obj
 0001:0001c620       ?Lookup@?$CSimpleMap@PEA_WPEA_WVCExpansionVectorEqualHelper@ATL@@@ATL@@QEBAPEA_WAEBQEA_W@Z 000000018001d620 f i POSPower.obj
 0001:0001c670       ?Next@?$CComEnumImpl@UIEnumConnectionPoints@@$1?_GUID_b196b285_bab4_101a_b69c_00aa00341d07@@3U__s_GUID@@BPEAUIConnectionPoint@@V?$_CopyInterface@UIConnectionPoint@@@ATL@@@ATL@@UEAAJKPEAPEAUIConnectionPoint@@PEAK@Z 000000018001d670 f i POSPower.obj
 0001:0001c820       ?Next@?$CComEnumImpl@UIEnumConnections@@$1?_GUID_b196b287_bab4_101a_b69c_00aa00341d07@@3U__s_GUID@@BUtagCONNECTDATA@@V?$_Copy@UtagCONNECTDATA@@@ATL@@@ATL@@UEAAJKPEAUtagCONNECTDATA@@PEAK@Z 000000018001d820 f i POSPower.obj
 0001:0001c9d0       ?NextToken@CRegParser@ATL@@IEAAJPEA_W@Z 000000018001d9d0 f i POSPower.obj
 0001:0001cd50       ?OLE2CT_EX@@YAPEB_WPEB_WI@Z 000000018001dd50 f i POSPower.obj
 0001:0001cd70       ?OLE2CT_EX_DEF@@YAPEB_WPEB_W@Z 000000018001dd70 f i POSPower.obj
 0001:0001cd80       ?OLE2T_EX@@YAPEA_WPEA_WI@Z 000000018001dd80 f i POSPower.obj
 0001:0001cda0       ?OnAmbientPropertyChange@?$IOleControlImpl@VCOPOSPOSPower@@@ATL@@UEAAJJ@Z 000000018001dda0 f i POSPower.obj
 0001:0001ce50       ?OnDocWindowActivate@?$IOleInPlaceActiveObjectImpl@VCOPOSPOSPower@@@ATL@@UEAAJH@Z 000000018001de50 f i POSPower.obj
 0001:0001cef0       ?OnDrawAdvanced@CComControlBase@ATL@@UEAAJAEAUATL_DRAWINFO@@@Z 000000018001def0 f i POSPower.obj
 0001:0001d140       ?OnFinalMessage@?$CWindowImplBaseT@VCWindow@ATL@@V?$CWinTraits@$0FGAAAAAA@$0A@@2@@ATL@@UEAAXPEAUHWND__@@@Z 000000018001e140 f i POSPower.obj
 0001:0001d150       ?OnFrameWindowActivate@?$IOleInPlaceActiveObjectImpl@VCOPOSPOSPower@@@ATL@@UEAAJH@Z 000000018001e150 f i POSPower.obj
 0001:0001d1b0       ?OnKillFocus@CComControlBase@ATL@@QEAA_JI_K_JAEAH@Z 000000018001e1b0 f i POSPower.obj
 0001:0001d2b0       ?OnMnemonic@?$IOleControlImpl@VCOPOSPOSPower@@@ATL@@UEAAJPEAUtagMSG@@@Z 000000018001e2b0 f i POSPower.obj
 0001:0001d320       ?OnMouseActivate@CComControlBase@ATL@@QEAA_JI_K_JAEAH@Z 000000018001e320 f i POSPower.obj
 0001:0001d4c0       ?OnPaint@CComControlBase@ATL@@QEAA_JI_K_JAEAH@Z 000000018001e4c0 f i POSPower.obj
 0001:0001d650       ?OnPostVerbDiscardUndo@?$IOleObjectImpl@VCOPOSPOSPower@@@ATL@@QEAAJXZ 000000018001e650 f i POSPower.obj
 0001:0001d660       ?OnPostVerbHide@?$IOleObjectImpl@VCOPOSPOSPower@@@ATL@@QEAAJXZ 000000018001e660 f i POSPower.obj
 0001:0001d670       ?OnPostVerbInPlaceActivate@?$IOleObjectImpl@VCOPOSPOSPower@@@ATL@@QEAAJXZ 000000018001e670 f i POSPower.obj
 0001:0001d680       ?OnPostVerbOpen@?$IOleObjectImpl@VCOPOSPOSPower@@@ATL@@QEAAJXZ 000000018001e680 f i POSPower.obj
 0001:0001d690       ?OnPostVerbShow@?$IOleObjectImpl@VCOPOSPOSPower@@@ATL@@QEAAJXZ 000000018001e690 f i POSPower.obj
 0001:0001d6a0       ?OnPostVerbUIActivate@?$IOleObjectImpl@VCOPOSPOSPower@@@ATL@@QEAAJXZ 000000018001e6a0 f i POSPower.obj
 0001:0001d6b0       ?OnPreVerbDiscardUndo@?$IOleObjectImpl@VCOPOSPOSPower@@@ATL@@QEAAJXZ 000000018001e6b0 f i POSPower.obj
 0001:0001d6c0       ?OnPreVerbHide@?$IOleObjectImpl@VCOPOSPOSPower@@@ATL@@QEAAJXZ 000000018001e6c0 f i POSPower.obj
 0001:0001d6d0       ?OnPreVerbInPlaceActivate@?$IOleObjectImpl@VCOPOSPOSPower@@@ATL@@QEAAJXZ 000000018001e6d0 f i POSPower.obj
 0001:0001d6e0       ?OnPreVerbOpen@?$IOleObjectImpl@VCOPOSPOSPower@@@ATL@@QEAAJXZ 000000018001e6e0 f i POSPower.obj
 0001:0001d6f0       ?OnPreVerbShow@?$IOleObjectImpl@VCOPOSPOSPower@@@ATL@@QEAAJXZ 000000018001e6f0 f i POSPower.obj
 0001:0001d700       ?OnPreVerbUIActivate@?$IOleObjectImpl@VCOPOSPOSPower@@@ATL@@QEAAJXZ 000000018001e700 f i POSPower.obj
 0001:0001d710       ?OnSetFocus@CComControlBase@ATL@@QEAA_JI_K_JAEAH@Z 000000018001e710 f i POSPower.obj
 0001:0001d910       ?OnWindowMessage@?$IOleInPlaceObjectWindowlessImpl@VCOPOSPOSPower@@@ATL@@UEAAJI_K_JPEA_J@Z 000000018001e910 f i POSPower.obj
 0001:0001db30       ?Open@CRegKey@ATL@@QEAAJPEAUHKEY__@@PEB_WK@Z 000000018001eb30 f i POSPower.obj
 0001:0001dcb0       ?OuterAddRef@CComObjectRootBase@ATL@@QEAAKXZ 000000018001ecb0 f i POSPower.obj
 0001:0001dce0       ?OuterQueryInterface@CComObjectRootBase@ATL@@QEAAJAEBU_GUID@@PEAPEAX@Z 000000018001ece0 f i POSPower.obj
 0001:0001dd20       ?OuterRelease@CComObjectRootBase@ATL@@QEAAKXZ 000000018001ed20 f i POSPower.obj
 0001:0001dd50       ?PreProcessBuffer@CRegParser@ATL@@QEAAJPEA_WPEAPEA_W@Z 000000018001ed50 f i POSPower.obj
 0001:0001e430       ?PreTranslateAccelerator@CComControlBase@ATL@@QEAAHPEAUtagMSG@@AEAJ@Z 000000018001f430 f i POSPower.obj
 0001:0001e450       ?ProcessWindowMessage@?$CComControl@VCOPOSPOSPower@@V?$CWindowImpl@VCOPOSPOSPower@@VCWindow@ATL@@V?$CWinTraits@$0FGAAAAAA@$0A@@3@@ATL@@@ATL@@UEAAHPEAUHWND__@@I_K_JAEA_JK@Z 000000018001f450 f i POSPower.obj
 0001:0001e6d0       ?ProcessWindowMessage@COPOSPOSPower@@UEAAHPEAUHWND__@@I_K_JAEA_JK@Z 000000018001f6d0 f i POSPower.obj
 0001:0001e830       ?PutProperty@?$CComPtr@UIDispatch@@@ATL@@QEAAJJPEAUtagVARIANT@@@Z 000000018001f830 f i POSPower.obj
 0001:0001e860       ?PutProperty@?$CComPtr@UIDispatch@@@ATL@@SAJPEAUIDispatch@@JPEAUtagVARIANT@@@Z 000000018001f860 f i POSPower.obj
 0001:0001eb10       ?QueryGetData@?$IDataObjectImpl@VCOPOSPOSPower@@@ATL@@UEAAJPEAUtagFORMATETC@@@Z 000000018001fb10 f i POSPower.obj
 0001:0001eb80       ?QueryHitPoint@?$IViewObjectExImpl@VCOPOSPOSPower@@@ATL@@UEAAJKPEBUtagRECT@@UtagPOINT@@JPEAK@Z 000000018001fb80 f i POSPower.obj
 0001:0001ece0       ?QueryHitRect@?$IViewObjectExImpl@VCOPOSPOSPower@@@ATL@@UEAAJKPEBUtagRECT@@0JPEAK@Z 000000018001fce0 f i POSPower.obj
 0001:0001eeb0       ?QueryInterface@?$CComAggObject@VCOPOSPOSPower@@@ATL@@UEAAJAEBU_GUID@@PEAPEAX@Z 000000018001feb0 f i POSPower.obj
 0001:0001ef80       ?QueryInterface@?$CComContainedObject@VCOPOSPOSPower@@@ATL@@UEAAJAEBU_GUID@@PEAPEAX@Z 000000018001ff80 f i POSPower.obj
 0001:0001efb8       ?QueryInterface@?$CComContainedObject@VCOPOSPOSPower@@@ATL@@WBAA@EAAJAEBU_GUID@@PEAPEAX@Z 000000018001ffb8 f i POSPower.obj
 0001:0001efc4       ?QueryInterface@?$CComContainedObject@VCOPOSPOSPower@@@ATL@@WBAI@EAAJAEBU_GUID@@PEAPEAX@Z 000000018001ffc4 f i POSPower.obj
 0001:0001efd0       ?QueryInterface@?$CComContainedObject@VCOPOSPOSPower@@@ATL@@WBBA@EAAJAEBU_GUID@@PEAPEAX@Z 000000018001ffd0 f i POSPower.obj
 0001:0001efdc       ?QueryInterface@?$CComContainedObject@VCOPOSPOSPower@@@ATL@@WBBI@EAAJAEBU_GUID@@PEAPEAX@Z 000000018001ffdc f i POSPower.obj
 0001:0001efe8       ?QueryInterface@?$CComContainedObject@VCOPOSPOSPower@@@ATL@@WLI@EAAJAEBU_GUID@@PEAPEAX@Z 000000018001ffe8 f i POSPower.obj
 0001:0001eff4       ?QueryInterface@?$CComContainedObject@VCOPOSPOSPower@@@ATL@@WMA@EAAJAEBU_GUID@@PEAPEAX@Z 000000018001fff4 f i POSPower.obj
 0001:0001f000       ?QueryInterface@?$CComContainedObject@VCOPOSPOSPower@@@ATL@@WMI@EAAJAEBU_GUID@@PEAPEAX@Z 0000000180020000 f i POSPower.obj
 0001:0001f00c       ?QueryInterface@?$CComContainedObject@VCOPOSPOSPower@@@ATL@@WNA@EAAJAEBU_GUID@@PEAPEAX@Z 000000018002000c f i POSPower.obj
 0001:0001f018       ?QueryInterface@?$CComContainedObject@VCOPOSPOSPower@@@ATL@@WNI@EAAJAEBU_GUID@@PEAPEAX@Z 0000000180020018 f i POSPower.obj
 0001:0001f024       ?QueryInterface@?$CComContainedObject@VCOPOSPOSPower@@@ATL@@WOA@EAAJAEBU_GUID@@PEAPEAX@Z 0000000180020024 f i POSPower.obj
 0001:0001f030       ?QueryInterface@?$CComContainedObject@VCOPOSPOSPower@@@ATL@@WOI@EAAJAEBU_GUID@@PEAPEAX@Z 0000000180020030 f i POSPower.obj
 0001:0001f03c       ?QueryInterface@?$CComContainedObject@VCOPOSPOSPower@@@ATL@@WPA@EAAJAEBU_GUID@@PEAPEAX@Z 000000018002003c f i POSPower.obj
 0001:0001f048       ?QueryInterface@?$CComContainedObject@VCOPOSPOSPower@@@ATL@@WPI@EAAJAEBU_GUID@@PEAPEAX@Z 0000000180020048 f i POSPower.obj
 0001:0001f060       ?QueryInterface@?$CComObject@V?$CComEnum@UIEnumConnectionPoints@@$1?_GUID_b196b285_bab4_101a_b69c_00aa00341d07@@3U__s_GUID@@BPEAUIConnectionPoint@@V?$_CopyInterface@UIConnectionPoint@@@ATL@@VCComSingleThreadModel@6@@ATL@@@ATL@@UEAAJAEBU_GUID@@PEAPEAX@Z 0000000180020060 f i POSPower.obj
 0001:0001f090       ?QueryInterface@?$CComObject@V?$CComEnum@UIEnumConnections@@$1?_GUID_b196b287_bab4_101a_b69c_00aa00341d07@@3U__s_GUID@@BUtagCONNECTDATA@@V?$_Copy@UtagCONNECTDATA@@@ATL@@VCComSingleThreadModel@6@@ATL@@@ATL@@UEAAJAEBU_GUID@@PEAPEAX@Z 0000000180020090 f i POSPower.obj
 0001:0001f0c0       ?QueryInterface@?$CComObject@VCOPOSPOSPower@@@ATL@@UEAAJAEBU_GUID@@PEAPEAX@Z 00000001800200c0 f i POSPower.obj
 0001:0001f0f0       ?QueryInterface@?$CComObject@VCOPOSPOSPower@@@ATL@@WBAA@EAAJAEBU_GUID@@PEAPEAX@Z 00000001800200f0 f i POSPower.obj
 0001:0001f0fc       ?QueryInterface@?$CComObject@VCOPOSPOSPower@@@ATL@@WBAI@EAAJAEBU_GUID@@PEAPEAX@Z 00000001800200fc f i POSPower.obj
 0001:0001f108       ?QueryInterface@?$CComObject@VCOPOSPOSPower@@@ATL@@WBBA@EAAJAEBU_GUID@@PEAPEAX@Z 0000000180020108 f i POSPower.obj
 0001:0001f114       ?QueryInterface@?$CComObject@VCOPOSPOSPower@@@ATL@@WBBI@EAAJAEBU_GUID@@PEAPEAX@Z 0000000180020114 f i POSPower.obj
 0001:0001f120       ?QueryInterface@?$CComObject@VCOPOSPOSPower@@@ATL@@WLI@EAAJAEBU_GUID@@PEAPEAX@Z 0000000180020120 f i POSPower.obj
 0001:0001f12c       ?QueryInterface@?$CComObject@VCOPOSPOSPower@@@ATL@@WMA@EAAJAEBU_GUID@@PEAPEAX@Z 000000018002012c f i POSPower.obj
 0001:0001f138       ?QueryInterface@?$CComObject@VCOPOSPOSPower@@@ATL@@WMI@EAAJAEBU_GUID@@PEAPEAX@Z 0000000180020138 f i POSPower.obj
 0001:0001f144       ?QueryInterface@?$CComObject@VCOPOSPOSPower@@@ATL@@WNA@EAAJAEBU_GUID@@PEAPEAX@Z 0000000180020144 f i POSPower.obj
 0001:0001f150       ?QueryInterface@?$CComObject@VCOPOSPOSPower@@@ATL@@WNI@EAAJAEBU_GUID@@PEAPEAX@Z 0000000180020150 f i POSPower.obj
 0001:0001f15c       ?QueryInterface@?$CComObject@VCOPOSPOSPower@@@ATL@@WOA@EAAJAEBU_GUID@@PEAPEAX@Z 000000018002015c f i POSPower.obj
 0001:0001f168       ?QueryInterface@?$CComObject@VCOPOSPOSPower@@@ATL@@WOI@EAAJAEBU_GUID@@PEAPEAX@Z 0000000180020168 f i POSPower.obj
 0001:0001f174       ?QueryInterface@?$CComObject@VCOPOSPOSPower@@@ATL@@WPA@EAAJAEBU_GUID@@PEAPEAX@Z 0000000180020174 f i POSPower.obj
 0001:0001f180       ?QueryInterface@?$CComObject@VCOPOSPOSPower@@@ATL@@WPI@EAAJAEBU_GUID@@PEAPEAX@Z 0000000180020180 f i POSPower.obj
 0001:0001f190       ?QueryInterface@?$CComObjectCached@VCComClassFactory@ATL@@@ATL@@UEAAJAEBU_GUID@@PEAPEAX@Z 0000000180020190 f i POSPower.obj
 0001:0001f1c0       ?QueryInterface@CRegObject@ATL@@UEAAJAEBU_GUID@@PEAPEAX@Z 00000001800201c0 f i POSPower.obj
 0001:0001f230       ?QuickActivate@?$IQuickActivateImpl@VCOPOSPOSPower@@@ATL@@UEAAJPEAUtagQACONTAINER@@PEAUtagQACONTROL@@@Z 0000000180020230 f i POSPower.obj
 0001:0001f2e0       ?ReactivateAndUndo@?$IOleInPlaceObjectWindowlessImpl@VCOPOSPOSPower@@@ATL@@UEAAJXZ 00000001800202e0 f i POSPower.obj
 0001:0001f350       ?ReadFromStream@CComBSTR@ATL@@QEAAJPEAUIStream@@@Z 0000000180020350 f i POSPower.obj
 0001:0001f830       ?ReadFromStream@CComVariant@ATL@@QEAAJPEAUIStream@@GTClassesAllowedInStream@2@K@Z 0000000180020830 f i POSPower.obj
 0001:0001fc70       ?RecurseDeleteKey@CRegKey@ATL@@QEAAJPEB_W@Z 0000000180020c70 f i POSPower.obj
 0001:0001fe90       ?RegCreateKeyExW@CAtlTransactionManager@ATL@@QEAAJPEAUHKEY__@@PEB_WKPEA_WKKQEAU_SECURITY_ATTRIBUTES@@PEAPEAU3@PEAK@Z 0000000180020e90 f i POSPower.obj
 0001:00020040       ?RegDeleteKeyW@CAtlTransactionManager@ATL@@QEAAJPEAUHKEY__@@PEB_W@Z 0000000180021040 f i POSPower.obj
 0001:00020140       ?RegOpenKeyExW@CAtlTransactionManager@ATL@@QEAAJPEAUHKEY__@@PEB_WKKPEAPEAU3@@Z 0000000180021140 f i POSPower.obj
 0001:00020280       ?Register@_ATL_WNDCLASSINFOW@ATL@@QEAAGPEAP6A_JPEAUHWND__@@I_K_J@Z@Z 0000000180021280 f i POSPower.obj
 0001:000202c0       ?RegisterBuffer@CRegParser@ATL@@QEAAJPEA_WH@Z 00000001800212c0 f i POSPower.obj
 0001:000206b0       ?RegisterClassExW@AtlModuleRegisterWndClassInfoParamW@ATL@@SAGPEAU_ATL_WIN_MODULE70@2@PEBUtagWNDCLASSEXW@@@Z 00000001800216b0 f i POSPower.obj
 0001:000206e0       ?RegisterFromResource@CRegObject@ATL@@IEAAJPEB_W00H@Z 00000001800216e0 f i POSPower.obj
 0001:00020b40       ?RegisterServer@?$CAtlModuleT@VCComModule@ATL@@@ATL@@QEAAJHPEBU_GUID@@@Z 0000000180021b40 f i POSPower.obj
 0001:00020ba0       ?RegisterServer@CAtlComModule@ATL@@QEAAJHPEBU_GUID@@@Z 0000000180021ba0 f i POSPower.obj
 0001:00020bd0       ?RegisterServer@CComModule@ATL@@QEAAJHPEBU_GUID@@@Z 0000000180021bd0 f i POSPower.obj
 0001:00020cb0       ?RegisterSubkeys@CRegParser@ATL@@IEAAJPEA_WPEAUHKEY__@@HH@Z 0000000180021cb0 f i POSPower.obj
 0001:00021a90       ?Release@?$CComAggObject@VCOPOSPOSPower@@@ATL@@UEAAKXZ 0000000180022a90 f i POSPower.obj
 0001:00021b40       ?Release@?$CComContainedObject@VCOPOSPOSPower@@@ATL@@UEAAKXZ 0000000180022b40 f i POSPower.obj
 0001:00021b64       ?Release@?$CComContainedObject@VCOPOSPOSPower@@@ATL@@WBAA@EAAKXZ 0000000180022b64 f i POSPower.obj
 0001:00021b70       ?Release@?$CComContainedObject@VCOPOSPOSPower@@@ATL@@WBAI@EAAKXZ 0000000180022b70 f i POSPower.obj
 0001:00021b7c       ?Release@?$CComContainedObject@VCOPOSPOSPower@@@ATL@@WBBA@EAAKXZ 0000000180022b7c f i POSPower.obj
 0001:00021b88       ?Release@?$CComContainedObject@VCOPOSPOSPower@@@ATL@@WBBI@EAAKXZ 0000000180022b88 f i POSPower.obj
 0001:00021b94       ?Release@?$CComContainedObject@VCOPOSPOSPower@@@ATL@@WBCI@EAAKXZ 0000000180022b94 f i POSPower.obj
 0001:00021ba0       ?Release@?$CComContainedObject@VCOPOSPOSPower@@@ATL@@WBEA@EAAKXZ 0000000180022ba0 f i POSPower.obj
 0001:00021bac       ?Release@?$CComContainedObject@VCOPOSPOSPower@@@ATL@@WLI@EAAKXZ 0000000180022bac f i POSPower.obj
 0001:00021bb8       ?Release@?$CComContainedObject@VCOPOSPOSPower@@@ATL@@WMA@EAAKXZ 0000000180022bb8 f i POSPower.obj
 0001:00021bc4       ?Release@?$CComContainedObject@VCOPOSPOSPower@@@ATL@@WMI@EAAKXZ 0000000180022bc4 f i POSPower.obj
 0001:00021bd0       ?Release@?$CComContainedObject@VCOPOSPOSPower@@@ATL@@WNA@EAAKXZ 0000000180022bd0 f i POSPower.obj
 0001:00021bdc       ?Release@?$CComContainedObject@VCOPOSPOSPower@@@ATL@@WNI@EAAKXZ 0000000180022bdc f i POSPower.obj
 0001:00021be8       ?Release@?$CComContainedObject@VCOPOSPOSPower@@@ATL@@WOA@EAAKXZ 0000000180022be8 f i POSPower.obj
 0001:00021bf4       ?Release@?$CComContainedObject@VCOPOSPOSPower@@@ATL@@WOI@EAAKXZ 0000000180022bf4 f i POSPower.obj
 0001:00021c00       ?Release@?$CComContainedObject@VCOPOSPOSPower@@@ATL@@WPA@EAAKXZ 0000000180022c00 f i POSPower.obj
 0001:00021c0c       ?Release@?$CComContainedObject@VCOPOSPOSPower@@@ATL@@WPI@EAAKXZ 0000000180022c0c f i POSPower.obj
 0001:00021c20       ?Release@?$CComObject@V?$CComEnum@UIEnumConnectionPoints@@$1?_GUID_b196b285_bab4_101a_b69c_00aa00341d07@@3U__s_GUID@@BPEAUIConnectionPoint@@V?$_CopyInterface@UIConnectionPoint@@@ATL@@VCComSingleThreadModel@6@@ATL@@@ATL@@UEAAKXZ 0000000180022c20 f i POSPower.obj
 0001:00021cd0       ?Release@?$CComObject@V?$CComEnum@UIEnumConnections@@$1?_GUID_b196b287_bab4_101a_b69c_00aa00341d07@@3U__s_GUID@@BUtagCONNECTDATA@@V?$_Copy@UtagCONNECTDATA@@@ATL@@VCComSingleThreadModel@6@@ATL@@@ATL@@UEAAKXZ 0000000180022cd0 f i POSPower.obj
 0001:00021d80       ?Release@?$CComObject@VCOPOSPOSPower@@@ATL@@UEAAKXZ 0000000180022d80 f i POSPower.obj
 0001:00021e38       ?Release@?$CComObject@VCOPOSPOSPower@@@ATL@@WBAA@EAAKXZ 0000000180022e38 f i POSPower.obj
 0001:00021e44       ?Release@?$CComObject@VCOPOSPOSPower@@@ATL@@WBAI@EAAKXZ 0000000180022e44 f i POSPower.obj
 0001:00021e50       ?Release@?$CComObject@VCOPOSPOSPower@@@ATL@@WBBA@EAAKXZ 0000000180022e50 f i POSPower.obj
 0001:00021e5c       ?Release@?$CComObject@VCOPOSPOSPower@@@ATL@@WBBI@EAAKXZ 0000000180022e5c f i POSPower.obj
 0001:00021e68       ?Release@?$CComObject@VCOPOSPOSPower@@@ATL@@WBCI@EAAKXZ 0000000180022e68 f i POSPower.obj
 0001:00021e74       ?Release@?$CComObject@VCOPOSPOSPower@@@ATL@@WBEA@EAAKXZ 0000000180022e74 f i POSPower.obj
 0001:00021e80       ?Release@?$CComObject@VCOPOSPOSPower@@@ATL@@WLI@EAAKXZ 0000000180022e80 f i POSPower.obj
 0001:00021e8c       ?Release@?$CComObject@VCOPOSPOSPower@@@ATL@@WMA@EAAKXZ 0000000180022e8c f i POSPower.obj
 0001:00021e98       ?Release@?$CComObject@VCOPOSPOSPower@@@ATL@@WMI@EAAKXZ 0000000180022e98 f i POSPower.obj
 0001:00021ea4       ?Release@?$CComObject@VCOPOSPOSPower@@@ATL@@WNA@EAAKXZ 0000000180022ea4 f i POSPower.obj
 0001:00021eb0       ?Release@?$CComObject@VCOPOSPOSPower@@@ATL@@WNI@EAAKXZ 0000000180022eb0 f i POSPower.obj
 0001:00021ebc       ?Release@?$CComObject@VCOPOSPOSPower@@@ATL@@WOA@EAAKXZ 0000000180022ebc f i POSPower.obj
 0001:00021ec8       ?Release@?$CComObject@VCOPOSPOSPower@@@ATL@@WOI@EAAKXZ 0000000180022ec8 f i POSPower.obj
 0001:00021ed4       ?Release@?$CComObject@VCOPOSPOSPower@@@ATL@@WPA@EAAKXZ 0000000180022ed4 f i POSPower.obj
 0001:00021ee0       ?Release@?$CComObject@VCOPOSPOSPower@@@ATL@@WPI@EAAKXZ 0000000180022ee0 f i POSPower.obj
 0001:00021ef0       ?Release@?$CComObjectCached@VCComClassFactory@ATL@@@ATL@@UEAAKXZ 0000000180022ef0 f i POSPower.obj
 0001:00021f80       ?Release@?$CComPtrBase@UIAdviseSink@@@ATL@@QEAAXXZ 0000000180022f80 f i POSPower.obj
 0001:00021fd0       ?Release@?$CComPtrBase@UIDispatch@@@ATL@@QEAAXXZ 0000000180022fd0 f i POSPower.obj
 0001:00022020       ?Release@?$CComPtrBase@UIOleInPlaceSiteWindowless@@@ATL@@QEAAXXZ 0000000180023020 f i POSPower.obj
 0001:00022070       ?Release@CRegObject@ATL@@UEAAKXZ 0000000180023070 f i POSPower.obj
 0001:000220d0       ?Remove@CComDynamicUnkArray@ATL@@QEAAHK@Z 00000001800230d0 f i POSPower.obj
 0001:00022190       ?RemoveAll@?$CSimpleMap@PEA_WPEA_WVCExpansionVectorEqualHelper@ATL@@@ATL@@QEAAXXZ 0000000180023190 f i POSPower.obj
 0001:00022220       ?Reset@?$CComEnumImpl@UIEnumConnectionPoints@@$1?_GUID_b196b285_bab4_101a_b69c_00aa00341d07@@3U__s_GUID@@BPEAUIConnectionPoint@@V?$_CopyInterface@UIConnectionPoint@@@ATL@@@ATL@@UEAAJXZ 0000000180023220 f i POSPower.obj
 0001:00022240       ?Reset@?$CComEnumImpl@UIEnumConnections@@$1?_GUID_b196b287_bab4_101a_b69c_00aa00341d07@@3U__s_GUID@@BUtagCONNECTDATA@@V?$_Copy@UtagCONNECTDATA@@@ATL@@@ATL@@UEAAJXZ 0000000180023240 f i POSPower.obj
 0001:00022260       ?ResizeBorder@?$IOleInPlaceActiveObjectImpl@VCOPOSPOSPower@@@ATL@@UEAAJPEBUtagRECT@@PEAUIOleInPlaceUIWindow@@H@Z 0000000180023260 f i POSPower.obj
 0001:000222d0       ?ResourceRegister@CRegObject@ATL@@QEAAJPEB_WI0@Z 00000001800232d0 f i POSPower.obj
 0001:000223b0       ?ResourceRegisterSz@CRegObject@ATL@@QEAAJPEB_W00@Z 00000001800233b0 f i POSPower.obj
 0001:000224d0       ?ResourceUnregister@CRegObject@ATL@@QEAAJPEB_WI0@Z 00000001800234d0 f i POSPower.obj
 0001:000225b0       ?ResourceUnregisterSz@CRegObject@ATL@@QEAAJPEB_W00@Z 00000001800235b0 f i POSPower.obj
 0001:000226d0       ?SODataDummy@COPOSPOSPower@@MEAAJJ@Z 00000001800236d0 f i POSPower.obj
 0001:000226f0       ?SODirectIO@COPOSPOSPower@@MEAAJJPEAJPEAPEA_W@Z 00000001800236f0 f i POSPower.obj
 0001:00022930       ?SOErrorDummy@COPOSPOSPower@@MEAAJJJJPEAJ@Z 0000000180023930 f i POSPower.obj
 0001:00022950       ?SOOutputCompleteDummy@COPOSPOSPower@@MEAAJJ@Z 0000000180023950 f i POSPower.obj
 0001:00022970       ?SOStatusUpdate@COPOSPOSPower@@MEAAJJ@Z 0000000180023970 f i POSPower.obj
 0001:00022a00       ?Save@?$IPersistStorageImpl@VCOPOSPOSPower@@@ATL@@UEAAJPEAUIStorage@@H@Z 0000000180023a00 f i POSPower.obj
 0001:00022bc0       ?Save@?$IPersistStreamInitImpl@VCOPOSPOSPower@@@ATL@@UEAAJPEAUIStream@@H@Z 0000000180023bc0 f i POSPower.obj
 0001:00022c70       ?SaveCompleted@?$IPersistStorageImpl@VCOPOSPOSPower@@@ATL@@UEAAJPEAUIStorage@@@Z 0000000180023c70 f i POSPower.obj
 0001:00022cd0       ?SendOnDataChange@CComControlBase@ATL@@QEAAJK@Z 0000000180023cd0 f i POSPower.obj
 0001:00022dd0       ?SendOnSave@CComControlBase@ATL@@QEAAJXZ 0000000180023dd0 f i POSPower.obj
 0001:00022e30       ?SendOnViewChange@CComControlBase@ATL@@QEAAJKJ@Z 0000000180023e30 f i POSPower.obj
 0001:00022e90       ?SetAdvise@?$IViewObjectExImpl@VCOPOSPOSPower@@@ATL@@UEAAJKKPEAUIAdviseSink@@@Z 0000000180023e90 f i POSPower.obj
 0001:00022f40       ?SetClientSite@?$IOleObjectImpl@VCOPOSPOSPower@@@ATL@@UEAAJPEAUIOleClientSite@@@Z 0000000180023f40 f i POSPower.obj
 0001:00022fe0       ?SetColorScheme@?$IOleObjectImpl@VCOPOSPOSPower@@@ATL@@UEAAJPEAUtagLOGPALETTE@@@Z 0000000180023fe0 f i POSPower.obj
 0001:00023050       ?SetContentExtent@?$IQuickActivateImpl@VCOPOSPOSPower@@@ATL@@UEAAJPEAUtagSIZE@@@Z 0000000180024050 f i POSPower.obj
 0001:00023100       ?SetControlFocus@CComControlBase@ATL@@QEAAHH@Z 0000000180024100 f i POSPower.obj
 0001:00023280       ?SetDWORDValue@CRegKey@ATL@@QEAAJPEB_WK@Z 0000000180024280 f i POSPower.obj
 0001:00023320       ?SetData@?$IDataObjectImpl@VCOPOSPOSPower@@@ATL@@UEAAJPEAUtagFORMATETC@@PEAUtagSTGMEDIUM@@H@Z 0000000180024320 f i POSPower.obj
 0001:000233a0       ?SetExtent@?$IOleObjectImpl@VCOPOSPOSPower@@@ATL@@UEAAJKPEAUtagSIZE@@@Z 00000001800243a0 f i POSPower.obj
 0001:00023450       ?SetHostNames@?$IOleObjectImpl@VCOPOSPOSPower@@@ATL@@UEAAJPEB_W0@Z 0000000180024450 f i POSPower.obj
 0001:000234b0       ?SetInterfaceSafetyOptions@?$IObjectSafetyImpl@VCOPOSPOSPower@@$02@ATL@@UEAAJAEBU_GUID@@KK@Z 00000001800244b0 f i POSPower.obj
 0001:00023650       ?SetMoniker@?$IOleObjectImpl@VCOPOSPOSPower@@@ATL@@UEAAJKPEAUIMoniker@@@Z 0000000180024650 f i POSPower.obj
 0001:000236d0       ?SetMultiStringValue@CRegKey@ATL@@QEAAJPEB_W0@Z 00000001800246d0 f i POSPower.obj
 0001:00023830       ?SetObjectRects@?$IOleInPlaceObjectWindowlessImpl@VCOPOSPOSPower@@@ATL@@UEAAJPEBUtagRECT@@0@Z 0000000180024830 f i POSPower.obj
 0001:000238e0       ?SetStringValue@CRegKey@ATL@@QEAAJPEB_W0K@Z 00000001800248e0 f i POSPower.obj
 0001:00023a50       ?SetVoid@CComClassFactory@ATL@@QEAAXPEAX@Z 0000000180024a50 f i POSPower.obj
 0001:00023a70       ?SetVoid@CComObjectRootBase@ATL@@QEAAXPEAX@Z 0000000180024a70 f i POSPower.obj
 0001:00023a80       ?ShowWindow@CWindow@ATL@@QEAAHH@Z 0000000180024a80 f i POSPower.obj
 0001:00023b00       ?Skip@?$CComEnumImpl@UIEnumConnectionPoints@@$1?_GUID_b196b285_bab4_101a_b69c_00aa00341d07@@3U__s_GUID@@BPEAUIConnectionPoint@@V?$_CopyInterface@UIConnectionPoint@@@ATL@@@ATL@@UEAAJK@Z 0000000180024b00 f i POSPower.obj
 0001:00023b90       ?Skip@?$CComEnumImpl@UIEnumConnections@@$1?_GUID_b196b287_bab4_101a_b69c_00aa00341d07@@3U__s_GUID@@BUtagCONNECTDATA@@V?$_Copy@UtagCONNECTDATA@@@ATL@@@ATL@@UEAAJK@Z 0000000180024b90 f i POSPower.obj
 0001:00023c20       ?SkipAssignment@CRegParser@ATL@@IEAAJPEA_W@Z 0000000180024c20 f i POSPower.obj
 0001:00023d20       ?SkipWhiteSpace@CRegParser@ATL@@IEAAXXZ 0000000180024d20 f i POSPower.obj
 0001:00023d70       ?StartWindowProc@?$CWindowImplBaseT@VCWindow@ATL@@V?$CWinTraits@$0FGAAAAAA@$0A@@2@@ATL@@SA_JPEAUHWND__@@I_K_J@Z 0000000180024d70 f i POSPower.obj
 0001:00023ec0       ?StrChrW@CRegParser@ATL@@KAPEA_WPEA_W_W@Z 0000000180024ec0 f i POSPower.obj
 0001:00023f30       ?StrFromMap@CRegObject@ATL@@QEAAPEB_WPEA_W@Z 0000000180024f30 f i POSPower.obj
 0001:00023fd0       ?Swap@?$CComPtrBase@UIAdviseSink@@@ATL@@IEAAXAEAV12@@Z 0000000180024fd0 f i POSPower.obj
 0001:00024010       ?Swap@?$CComPtrBase@UIOleClientSite@@@ATL@@IEAAXAEAV12@@Z 0000000180025010 f i POSPower.obj
 0001:00024050       ?Swap@?$CComPtrBase@UIUnknown@@@ATL@@IEAAXAEAV12@@Z 0000000180025050 f i POSPower.obj
 0001:00024090       ?T2COLE_EX@@YAPEB_WPEB_WI@Z 0000000180025090 f i POSPower.obj
 0001:000240b0       ?T2OLE_EX@@YAPEA_WPEA_WI@Z 00000001800250b0 f i POSPower.obj
 0001:000240d0       ?Term@CAtlModule@ATL@@QEAAXXZ 00000001800250d0 f i POSPower.obj
 0001:00024180       ?Term@CComModule@ATL@@QEAAXXZ 0000000180025180 f i POSPower.obj
 0001:00024260       ?TranslateAcceleratorW@?$IOleInPlaceActiveObjectImpl@VCOPOSPOSPower@@@ATL@@UEAAJPEAUtagMSG@@@Z 0000000180025260 f i POSPower.obj
 0001:000244d0       ?UIDeactivate@?$IOleInPlaceObjectWindowlessImpl@VCOPOSPOSPower@@@ATL@@UEAAJXZ 00000001800254d0 f i POSPower.obj
 0001:00024560       ?Unadvise@?$CProxy_IOPOSEvents@VCOPOSPOSPower@@@@UEAAJK@Z 0000000180025560 f i POSPower.obj
 0001:000245a0       ?Unadvise@?$IConnectionPointImpl@VCOPOSPOSPower@@$1?DIID__IOPOSPOSPowerEvents@@3U_GUID@@BVCComDynamicUnkArray@ATL@@@ATL@@UEAAJK@Z 00000001800255a0 f i POSPower.obj
 0001:00024680       ?Unadvise@?$IConnectionPointImpl@VCOPOSPOSPower@@$1?IID_IPropertyNotifySink@@3U_GUID@@BVCComDynamicUnkArray@ATL@@@ATL@@UEAAJK@Z 0000000180025680 f i POSPower.obj
 0001:00024760       ?Unadvise@?$IOleObjectImpl@VCOPOSPOSPower@@@ATL@@UEAAJK@Z 0000000180025760 f i POSPower.obj
 0001:00024840       ?Unfreeze@?$IViewObjectExImpl@VCOPOSPOSPower@@@ATL@@UEAAJK@Z 0000000180025840 f i POSPower.obj
 0001:000248b0       ?Unlock@?$CComCritSecLock@VCComCriticalSection@ATL@@@ATL@@QEAAXXZ 00000001800258b0 f i POSPower.obj
 0001:00024930       ?Unlock@?$CComObjectRootEx@VCComSingleThreadModel@ATL@@@ATL@@QEAAXXZ 0000000180025930 f i POSPower.obj
 0001:00024940       ?Unlock@CAtlModule@ATL@@UEAAJXZ 0000000180025940 f i POSPower.obj
 0001:00024970       ?Unlock@CComCriticalSection@ATL@@QEAAJXZ 0000000180025970 f i POSPower.obj
 0001:00024990       ?Unlock@CComFakeCriticalSection@ATL@@QEAAJXZ 0000000180025990 f i POSPower.obj
 0001:000249a0       ?UnregisterServer@?$CAtlModuleT@VCComModule@ATL@@@ATL@@QEAAJHPEBU_GUID@@@Z 00000001800259a0 f i POSPower.obj
 0001:00024a00       ?UnregisterServer@CAtlComModule@ATL@@QEAAJHPEBU_GUID@@@Z 0000000180025a00 f i POSPower.obj
 0001:00024a30       ?UnregisterServer@CComModule@ATL@@QEAAJHPEBU_GUID@@@Z 0000000180025a30 f i POSPower.obj
 0001:00024b10       ?Update@?$IOleObjectImpl@VCOPOSPOSPower@@@ATL@@UEAAJXZ 0000000180025b10 f i POSPower.obj
 0001:00024b70       ?UpdateRegistryFromResource@CAtlModule@ATL@@QEAAJIHPEAU_ATL_REGMAP_ENTRY@2@@Z 0000000180025b70 f i POSPower.obj
 0001:000250b0       ?UpdateRegistryFromResource@CAtlModule@ATL@@QEAAJPEB_WHPEAU_ATL_REGMAP_ENTRY@2@@Z 00000001800260b0 f i POSPower.obj
 0001:00025600       ?UpdateRegistryFromResource@CComModule@ATL@@UEAAJIHPEAU_ATL_REGMAP_ENTRY@2@@Z 0000000180026600 f i POSPower.obj
 0001:00025640       ?UpdateRegistryFromResource@CComModule@ATL@@UEAAJPEB_WHPEAU_ATL_REGMAP_ENTRY@2@@Z 0000000180026640 f i POSPower.obj
 0001:00025680       ?UpdateRegistryFromResourceD@CComModule@ATL@@UEAAJIHPEAU_ATL_REGMAP_ENTRY@2@@Z 0000000180026680 f i POSPower.obj
 0001:000256a0       ?UpdateRegistryFromResourceD@CComModule@ATL@@UEAAJPEB_WHPEAU_ATL_REGMAP_ENTRY@2@@Z 00000001800266a0 f i POSPower.obj
 0001:000256c0       ?VTFromRegType@CRegParser@ATL@@KAHPEB_WAEAG@Z 00000001800266c0 f i POSPower.obj
 0001:00025790       ?WindowProc@?$CWindowImplBaseT@VCWindow@ATL@@V?$CWinTraits@$0FGAAAAAA@$0A@@2@@ATL@@SA_JPEAUHWND__@@I_K_J@Z 0000000180026790 f i POSPower.obj
 0001:00025a70       ?WriteToStream@CComBSTR@ATL@@QEAAJPEAUIStream@@@Z 0000000180026a70 f i POSPower.obj
 0001:00025be0       ?WriteToStream@CComVariant@ATL@@QEAAJPEAUIStream@@@Z 0000000180026be0 f i POSPower.obj
 0001:00026010       ?WriteToStream@CComVariant@ATL@@QEAAJPEAUIStream@@G@Z 0000000180027010 f i POSPower.obj
 0001:000260f0       ?_AtlFinalConstruct@CComObjectRootBase@ATL@@QEAAJXZ 00000001800270f0 f i POSPower.obj
 0001:00026100       ?_AtlGetConversionACP@ATL@@YAIXZ 0000000180027100 f i POSPower.obj
 0001:00026110       ?_AtlInitialConstruct@?$CComAggObject@VCOPOSPOSPower@@@ATL@@QEAAJXZ 0000000180027110 f i POSPower.obj
 0001:00026160       ?_AtlInitialConstruct@?$CComObjectRootEx@VCComMultiThreadModel@ATL@@@ATL@@QEAAJXZ 0000000180027160 f i POSPower.obj
 0001:00026190       ?_AtlInitialConstruct@?$CComObjectRootEx@VCComSingleThreadModel@ATL@@@ATL@@QEAAJXZ 0000000180027190 f i POSPower.obj
 0001:000261a0       ?_AtlVerifyStackAvailable@_ATL_SAFE_ALLOCA_IMPL@ATL@@YA_N_K@Z 00000001800271a0 f i POSPower.obj
 0001:00026300       ?_GetEntries@?$CComEnum@UIEnumConnectionPoints@@$1?_GUID_b196b285_bab4_101a_b69c_00aa00341d07@@3U__s_GUID@@BPEAUIConnectionPoint@@V?$_CopyInterface@UIConnectionPoint@@@ATL@@VCComSingleThreadModel@6@@ATL@@SAPEBU_ATL_INTMAP_ENTRY@2@XZ 0000000180027300 f i POSPower.obj
 0001:00026320       ?_GetEntries@?$CComEnum@UIEnumConnections@@$1?_GUID_b196b287_bab4_101a_b69c_00aa00341d07@@3U__s_GUID@@BUtagCONNECTDATA@@V?$_Copy@UtagCONNECTDATA@@@ATL@@VCComSingleThreadModel@6@@ATL@@SAPEBU_ATL_INTMAP_ENTRY@2@XZ 0000000180027320 f i POSPower.obj
 0001:00026340       ?_GetEntries@CComClassFactory@ATL@@SAPEBU_ATL_INTMAP_ENTRY@2@XZ 0000000180027340 f i POSPower.obj
 0001:00026360       ?_GetEntries@COPOSPOSPower@@SAPEBU_ATL_INTMAP_ENTRY@ATL@@XZ 0000000180027360 f i POSPower.obj
 0001:00026380       ?_GetRawUnknown@COPOSPOSPower@@QEAAPEAUIUnknown@@XZ 0000000180027380 f i POSPower.obj
 0001:00026400       ?_GetViewStatus@COPOSPOSPower@@QEAAKXZ 0000000180027400 f i POSPower.obj
 0001:00026410       ?_InternalQueryInterface@?$CComEnum@UIEnumConnectionPoints@@$1?_GUID_b196b285_bab4_101a_b69c_00aa00341d07@@3U__s_GUID@@BPEAUIConnectionPoint@@V?$_CopyInterface@UIConnectionPoint@@@ATL@@VCComSingleThreadModel@6@@ATL@@QEAAJAEBU_GUID@@PEAPEAX@Z 0000000180027410 f i POSPower.obj
 0001:00026450       ?_InternalQueryInterface@?$CComEnum@UIEnumConnections@@$1?_GUID_b196b287_bab4_101a_b69c_00aa00341d07@@3U__s_GUID@@BUtagCONNECTDATA@@V?$_Copy@UtagCONNECTDATA@@@ATL@@VCComSingleThreadModel@6@@ATL@@QEAAJAEBU_GUID@@PEAPEAX@Z 0000000180027450 f i POSPower.obj
 0001:00026490       ?_InternalQueryInterface@CComClassFactory@ATL@@QEAAJAEBU_GUID@@PEAPEAX@Z 0000000180027490 f i POSPower.obj
 0001:000264d0       ?_InternalQueryInterface@COPOSPOSPower@@QEAAJAEBU_GUID@@PEAPEAX@Z 00000001800274d0 f i POSPower.obj
 0001:00026510       ?_LocCPQueryInterface@?$IConnectionPointImpl@VCOPOSPOSPower@@$1?DIID__IOPOSPOSPowerEvents@@3U_GUID@@BVCComDynamicUnkArray@ATL@@@ATL@@UEAAJAEBU_GUID@@PEAPEAX@Z 0000000180027510 f i POSPower.obj
 0001:000265e0       ?_LocCPQueryInterface@?$IConnectionPointImpl@VCOPOSPOSPower@@$1?IID_IPropertyNotifySink@@3U_GUID@@BVCComDynamicUnkArray@ATL@@@ATL@@UEAAJAEBU_GUID@@PEAPEAX@Z 00000001800275e0 f i POSPower.obj
 0001:000266b0       ?atlCreate@?$CWindowImpl@VCOPOSPOSPower@@VCWindow@ATL@@V?$CWinTraits@$0FGAAAAAA@$0A@@3@@ATL@@QEAAPEAUHWND__@@PEAU3@V_U_RECT@2@PEB_WKKV_U_MENUorID@2@PEAX@Z 00000001800276b0 f i POSPower.obj
 0001:000267c0       ?atlCreate@?$CWindowImplBaseT@VCWindow@ATL@@V?$CWinTraits@$0FGAAAAAA@$0A@@2@@ATL@@QEAAPEAUHWND__@@PEAU3@V_U_RECT@2@PEB_WKKV_U_MENUorID@2@GPEAX@Z 00000001800277c0 f i POSPower.obj
 0001:00026a10       ?atlCreate@CRegKey@ATL@@QEAAJPEAUHKEY__@@PEB_WPEA_WKKPEAU_SECURITY_ATTRIBUTES@@PEAK@Z 0000000180027a10 f i POSPower.obj
 0001:00026c10       ?begin@CComDynamicUnkArray@ATL@@QEAAPEAPEAUIUnknown@@XZ 0000000180027c10 f i POSPower.obj
 0001:00026c20       ?copy@?$_Copy@UtagCONNECTDATA@@@ATL@@SAJPEAUtagCONNECTDATA@@PEBU3@@Z 0000000180027c20 f i POSPower.obj
 0001:00026d00       ?copy@?$_CopyInterface@UIConnectionPoint@@@ATL@@SAJPEAPEAUIConnectionPoint@@PEBQEAU3@@Z 0000000180027d00 f i POSPower.obj
 0001:00026de0       ?destroy@?$_Copy@UtagCONNECTDATA@@@ATL@@SAXPEAUtagCONNECTDATA@@@Z 0000000180027de0 f i POSPower.obj
 0001:00026e20       ?destroy@?$_CopyInterface@UIConnectionPoint@@@ATL@@SAXPEAPEAUIConnectionPoint@@@Z 0000000180027e20 f i POSPower.obj
 0001:00026e60       ?end@CComDynamicUnkArray@ATL@@QEAAPEAPEAUIUnknown@@XZ 0000000180027e60 f i POSPower.obj
 0001:00026e80       ?init@?$_Copy@UtagCONNECTDATA@@@ATL@@SAXPEAUtagCONNECTDATA@@@Z 0000000180027e80 f i POSPower.obj
 0001:00026e90       ?init@?$_CopyInterface@UIConnectionPoint@@@ATL@@SAXPEAPEAUIConnectionPoint@@@Z 0000000180027e90 f i POSPower.obj
 0001:00026ea0       ?memcpy_s@Checked@ATL@@YAXPEAX_KPEBX1@Z 0000000180027ea0 f i POSPower.obj
 0001:00026ee0       ?ocscpy_s@@YA_NPEA_W_KPEB_W@Z 0000000180027ee0 f i POSPower.obj
 0001:00026f50       ?ocslen@@YAHPEB_W@Z        0000000180027f50 f i POSPower.obj
 0001:00026f80       ?tcsncpy_s@Checked@ATL@@YAHPEA_W_KPEB_W1@Z 0000000180027f80 f i POSPower.obj
 0001:00026fc0       ?wcscat_s@Checked@ATL@@YAXPEA_W_KPEB_W@Z 0000000180027fc0 f i POSPower.obj
 0001:00027000       ?wcscpy_s@Checked@ATL@@YAXPEA_W_KPEB_W@Z 0000000180028000 f i POSPower.obj
 0001:00027040       ?wcsncpy_s@Checked@ATL@@YAHPEA_W_KPEB_W1@Z 0000000180028040 f i POSPower.obj
 0001:00027080       ?wcsstr@@YAPEA_WPEA_WPEB_W@Z 0000000180028080 f i POSPower.obj
 0001:000270b0       InlineIsEqualGUID          00000001800280b0 f i POSPower.obj
 0001:00027170       IsEqualGUID                0000000180028170 f i POSPower.obj
 0001:000271c0       ??0COPOSPOSPower@@QEAA@XZ  00000001800281c0 f   POSPowerImpl.obj
 0001:00027330       ?FinalConstruct@COPOSPOSPower@@QEAAJXZ 0000000180028330 f   POSPowerImpl.obj
 0001:00027410       ??1COPOSPOSPower@@UEAA@XZ  0000000180028410 f   POSPowerImpl.obj
 0001:000274f0       ?WriteTrace@COPOSPOSPower@@QEAAXPEB_WZZ 00000001800284f0 f   POSPowerImpl.obj
 0001:000275c0       ?WriteTraceString@COPOSPOSPower@@QEAAXPEB_WPEA_W@Z 00000001800285c0 f   POSPowerImpl.obj
 0001:000279f0       ?WriteTraceString@COPOSPOSPower@@QEAAXPEAXHHHPEB_WZZ 00000001800289f0 f   POSPowerImpl.obj
 0001:00027c80       ?WriteTraceError@COPOSPOSPower@@QEAAXPEB_WK@Z 0000000180028c80 f   POSPowerImpl.obj
 0001:00027d80       ?WriteTraceMethods@COPOSPOSPower@@QEAAXPEAJH@Z 0000000180028d80 f   POSPowerImpl.obj
 0001:00027e00       ?GetOposProp@COPOSPOSPower@@IEAAJPEBDJPEAJJ@Z 0000000180028e00 f   POSPowerImpl.obj
 0001:00028120       ?SetOposProp@COPOSPOSPower@@IEAAJPEBDJJJ@Z 0000000180029120 f   POSPowerImpl.obj
 0001:00028490       ?GetOposProp@COPOSPOSPower@@IEAAJPEBDJPEAFJ@Z 0000000180029490 f   POSPowerImpl.obj
 0001:00028540       ?SetOposProp@COPOSPOSPower@@IEAAJPEBDJFJ@Z 0000000180029540 f   POSPowerImpl.obj
 0001:000285b0       ?GetOposProp@COPOSPOSPower@@IEAAJPEBDJPEAPEA_WJ@Z 00000001800295b0 f   POSPowerImpl.obj
 0001:000288d0       ?SetOposProp@COPOSPOSPower@@IEAAJPEBDJPEA_WJ@Z 00000001800298d0 f   POSPowerImpl.obj
 0001:00028cb0       ?DoInvoke@COPOSPOSPower@@IEAAJPEBDJPEAVOposVariant@@IHPEAJ_N@Z 0000000180029cb0 f   POSPowerImpl.obj
 0001:00029810       ?SetCOFreezeEvents@COPOSPOSPower@@IEAAXF@Z 000000018002a810 f   POSPowerImpl.obj
 0001:000299a0       ?FreezeEvents@COPOSPOSPower@@MEAAJH@Z 000000018002a9a0 f   POSPowerImpl.obj
 0001:00029ac0       ?OnDraw@COPOSPOSPower@@MEAAJAEAUATL_DRAWINFO@@@Z 000000018002aac0 f   POSPowerImpl.obj
 0001:00029c90       ?SOProcessID@COPOSPOSPower@@UEAAJPEAJ@Z 000000018002ac90 f   POSPowerImpl.obj
 0001:00029ce0       ?get_OpenResult@COPOSPOSPower@@UEAAJPEAJ@Z 000000018002ace0 f   POSPowerImpl.obj
 0001:00029d30       ?get_BinaryConversion@COPOSPOSPower@@UEAAJPEAJ@Z 000000018002ad30 f   POSPowerImpl.obj
 0001:00029d70       ?put_BinaryConversion@COPOSPOSPower@@UEAAJJ@Z 000000018002ad70 f   POSPowerImpl.obj
 0001:00029dc0       ?get_CapPowerReporting@COPOSPOSPower@@UEAAJPEAJ@Z 000000018002adc0 f   POSPowerImpl.obj
 0001:00029e00       ?get_CheckHealthText@COPOSPOSPower@@UEAAJPEAPEA_W@Z 000000018002ae00 f   POSPowerImpl.obj
 0001:00029e40       ?get_Claimed@COPOSPOSPower@@UEAAJPEAF@Z 000000018002ae40 f   POSPowerImpl.obj
 0001:00029e80       ?get_DeviceEnabled@COPOSPOSPower@@UEAAJPEAF@Z 000000018002ae80 f   POSPowerImpl.obj
 0001:00029ec0       ?put_DeviceEnabled@COPOSPOSPower@@UEAAJF@Z 000000018002aec0 f   POSPowerImpl.obj
 0001:00029f00       ?get_FreezeEvents@COPOSPOSPower@@UEAAJPEAF@Z 000000018002af00 f   POSPowerImpl.obj
 0001:00029f40       ?put_FreezeEvents@COPOSPOSPower@@UEAAJF@Z 000000018002af40 f   POSPowerImpl.obj
 0001:0002a000       ?get_PowerNotify@COPOSPOSPower@@UEAAJPEAJ@Z 000000018002b000 f   POSPowerImpl.obj
 0001:0002a040       ?put_PowerNotify@COPOSPOSPower@@UEAAJJ@Z 000000018002b040 f   POSPowerImpl.obj
 0001:0002a080       ?get_PowerState@COPOSPOSPower@@UEAAJPEAJ@Z 000000018002b080 f   POSPowerImpl.obj
 0001:0002a0c0       ?get_ResultCode@COPOSPOSPower@@UEAAJPEAJ@Z 000000018002b0c0 f   POSPowerImpl.obj
 0001:0002a170       ?get_ResultCodeExtended@COPOSPOSPower@@UEAAJPEAJ@Z 000000018002b170 f   POSPowerImpl.obj
 0001:0002a1b0       ?get_State@COPOSPOSPower@@UEAAJPEAJ@Z 000000018002b1b0 f   POSPowerImpl.obj
 0001:0002a220       ?get_ControlObjectDescription@COPOSPOSPower@@UEAAJPEAPEA_W@Z 000000018002b220 f   POSPowerImpl.obj
 0001:0002a290       ?get_ControlObjectVersion@COPOSPOSPower@@UEAAJPEAJ@Z 000000018002b290 f   POSPowerImpl.obj
 0001:0002a2e0       ?get_ServiceObjectDescription@COPOSPOSPower@@UEAAJPEAPEA_W@Z 000000018002b2e0 f   POSPowerImpl.obj
 0001:0002a320       ?get_ServiceObjectVersion@COPOSPOSPower@@UEAAJPEAJ@Z 000000018002b320 f   POSPowerImpl.obj
 0001:0002a360       ?get_DeviceDescription@COPOSPOSPower@@UEAAJPEAPEA_W@Z 000000018002b360 f   POSPowerImpl.obj
 0001:0002a3a0       ?get_DeviceName@COPOSPOSPower@@UEAAJPEAPEA_W@Z 000000018002b3a0 f   POSPowerImpl.obj
 0001:0002a3e0       ?CheckHealth@COPOSPOSPower@@UEAAJJPEAJ@Z 000000018002b3e0 f   POSPowerImpl.obj
 0001:0002a4a0       ?ClaimDevice@COPOSPOSPower@@UEAAJJPEAJ@Z 000000018002b4a0 f   POSPowerImpl.obj
 0001:0002a5b0       ?Close@COPOSPOSPower@@UEAAJPEAJ@Z 000000018002b5b0 f   POSPowerImpl.obj
 0001:0002a6b0       ?DirectIO@COPOSPOSPower@@UEAAJJPEAJPEAPEA_W0@Z 000000018002b6b0 f   POSPowerImpl.obj
 0001:0002a830       ?Open@COPOSPOSPower@@UEAAJPEA_WPEAJ@Z 000000018002b830 f   POSPowerImpl.obj
 0001:0002bd10       ?ReleaseDevice@COPOSPOSPower@@UEAAJPEAJ@Z 000000018002cd10 f   POSPowerImpl.obj
 0001:0002bda0       ?get_CapFanAlarm@COPOSPOSPower@@UEAAJPEAF@Z 000000018002cda0 f   POSPowerImpl.obj
 0001:0002bde0       ?get_CapHeatAlarm@COPOSPOSPower@@UEAAJPEAF@Z 000000018002cde0 f   POSPowerImpl.obj
 0001:0002be20       ?get_CapQuickCharge@COPOSPOSPower@@UEAAJPEAF@Z 000000018002ce20 f   POSPowerImpl.obj
 0001:0002be60       ?get_CapShutdownPOS@COPOSPOSPower@@UEAAJPEAF@Z 000000018002ce60 f   POSPowerImpl.obj
 0001:0002bea0       ?get_CapUPSChargeState@COPOSPOSPower@@UEAAJPEAJ@Z 000000018002cea0 f   POSPowerImpl.obj
 0001:0002bee0       ?get_EnforcedShutdownDelayTime@COPOSPOSPower@@UEAAJPEAJ@Z 000000018002cee0 f   POSPowerImpl.obj
 0001:0002bf20       ?put_EnforcedShutdownDelayTime@COPOSPOSPower@@UEAAJJ@Z 000000018002cf20 f   POSPowerImpl.obj
 0001:0002bf60       ?get_PowerFailDelayTime@COPOSPOSPower@@UEAAJPEAJ@Z 000000018002cf60 f   POSPowerImpl.obj
 0001:0002bfa0       ?get_QuickChargeMode@COPOSPOSPower@@UEAAJPEAF@Z 000000018002cfa0 f   POSPowerImpl.obj
 0001:0002bfe0       ?get_QuickChargeTime@COPOSPOSPower@@UEAAJPEAJ@Z 000000018002cfe0 f   POSPowerImpl.obj
 0001:0002c020       ?get_UPSChargeState@COPOSPOSPower@@UEAAJPEAJ@Z 000000018002d020 f   POSPowerImpl.obj
 0001:0002c060       ?ShutdownPOS@COPOSPOSPower@@UEAAJPEAJ@Z 000000018002d060 f   POSPowerImpl.obj
 0001:0002c0c0       ?get_CapStatisticsReporting@COPOSPOSPower@@UEAAJPEAF@Z 000000018002d0c0 f   POSPowerImpl.obj
 0001:0002c100       ?get_CapUpdateStatistics@COPOSPOSPower@@UEAAJPEAF@Z 000000018002d100 f   POSPowerImpl.obj
 0001:0002c140       ?ResetStatistics@COPOSPOSPower@@UEAAJPEA_WPEAJ@Z 000000018002d140 f   POSPowerImpl.obj
 0001:0002c220       ?RetrieveStatistics@COPOSPOSPower@@UEAAJPEAPEA_WPEAJ@Z 000000018002d220 f   POSPowerImpl.obj
 0001:0002c300       ?UpdateStatistics@COPOSPOSPower@@UEAAJPEA_WPEAJ@Z 000000018002d300 f   POSPowerImpl.obj
 0001:0002c3e0       ?get_CapCompareFirmwareVersion@COPOSPOSPower@@UEAAJPEAF@Z 000000018002d3e0 f   POSPowerImpl.obj
 0001:0002c420       ?get_CapUpdateFirmware@COPOSPOSPower@@UEAAJPEAF@Z 000000018002d420 f   POSPowerImpl.obj
 0001:0002c460       ?CompareFirmwareVersion@COPOSPOSPower@@UEAAJPEA_WPEAJ1@Z 000000018002d460 f   POSPowerImpl.obj
 0001:0002c5a0       ?UpdateFirmware@COPOSPOSPower@@UEAAJPEA_WPEAJ@Z 000000018002d5a0 f   POSPowerImpl.obj
 0001:0002c680       ?get_BatteryCapacityRemaining@COPOSPOSPower@@UEAAJPEAJ@Z 000000018002d680 f   POSPowerImpl.obj
 0001:0002c6c0       ?get_BatteryCriticallyLowThreshold@COPOSPOSPower@@UEAAJPEAJ@Z 000000018002d6c0 f   POSPowerImpl.obj
 0001:0002c700       ?put_BatteryCriticallyLowThreshold@COPOSPOSPower@@UEAAJJ@Z 000000018002d700 f   POSPowerImpl.obj
 0001:0002c740       ?get_BatteryLowThreshold@COPOSPOSPower@@UEAAJPEAJ@Z 000000018002d740 f   POSPowerImpl.obj
 0001:0002c780       ?put_BatteryLowThreshold@COPOSPOSPower@@UEAAJJ@Z 000000018002d780 f   POSPowerImpl.obj
 0001:0002c7c0       ?get_CapBatteryCapacityRemaining@COPOSPOSPower@@UEAAJPEAF@Z 000000018002d7c0 f   POSPowerImpl.obj
 0001:0002c800       ?get_CapRestartPOS@COPOSPOSPower@@UEAAJPEAF@Z 000000018002d800 f   POSPowerImpl.obj
 0001:0002c840       ?get_CapStandbyPOS@COPOSPOSPower@@UEAAJPEAF@Z 000000018002d840 f   POSPowerImpl.obj
 0001:0002c880       ?get_CapSuspendPOS@COPOSPOSPower@@UEAAJPEAF@Z 000000018002d880 f   POSPowerImpl.obj
 0001:0002c8c0       ?get_CapVariableBatteryCriticallyLowThreshold@COPOSPOSPower@@UEAAJPEAF@Z 000000018002d8c0 f   POSPowerImpl.obj
 0001:0002c900       ?get_CapVariableBatteryLowThreshold@COPOSPOSPower@@UEAAJPEAF@Z 000000018002d900 f   POSPowerImpl.obj
 0001:0002c940       ?get_PowerSource@COPOSPOSPower@@UEAAJPEAJ@Z 000000018002d940 f   POSPowerImpl.obj
 0001:0002c980       ?RestartPOS@COPOSPOSPower@@UEAAJPEAJ@Z 000000018002d980 f   POSPowerImpl.obj
 0001:0002c9e0       ?StandbyPOS@COPOSPOSPower@@UEAAJJPEAJ@Z 000000018002d9e0 f   POSPowerImpl.obj
 0001:0002caa0       ?SuspendPOS@COPOSPOSPower@@UEAAJJPEAJ@Z 000000018002daa0 f   POSPowerImpl.obj
 0001:0002cb60       ?get_BatteryCapacityRemainingInSeconds@COPOSPOSPower@@UEAAJPEAJ@Z 000000018002db60 f   POSPowerImpl.obj
 0001:0002cba0       ?get_BatteryCriticallyLowThresholdInSeconds@COPOSPOSPower@@UEAAJPEAJ@Z 000000018002dba0 f   POSPowerImpl.obj
 0001:0002cbe0       ?put_BatteryCriticallyLowThresholdInSeconds@COPOSPOSPower@@UEAAJJ@Z 000000018002dbe0 f   POSPowerImpl.obj
 0001:0002cc20       ?get_BatteryLowThresholdInSeconds@COPOSPOSPower@@UEAAJPEAJ@Z 000000018002dc20 f   POSPowerImpl.obj
 0001:0002cc60       ?put_BatteryLowThresholdInSeconds@COPOSPOSPower@@UEAAJJ@Z 000000018002dc60 f   POSPowerImpl.obj
 0001:0002cca0       ?get_CapBatteryCapacityRemainingInSeconds@COPOSPOSPower@@UEAAJPEAF@Z 000000018002dca0 f   POSPowerImpl.obj
 0001:0002cce0       ?get_CapChargeTime@COPOSPOSPower@@UEAAJPEAF@Z 000000018002dce0 f   POSPowerImpl.obj
 0001:0002cd20       ?get_CapVariableBatteryCriticallyLowThresholdInSeconds@COPOSPOSPower@@UEAAJPEAF@Z 000000018002dd20 f   POSPowerImpl.obj
 0001:0002cd60       ?get_CapVariableBatteryLowThresholdInSeconds@COPOSPOSPower@@UEAAJPEAF@Z 000000018002dd60 f   POSPowerImpl.obj
 0001:0002cda0       ?get_ChargeTime@COPOSPOSPower@@UEAAJPEAJ@Z 000000018002dda0 f   POSPowerImpl.obj
 0001:0002cde0       ??0?$CComControl@VCOPOSPOSPower@@V?$CWindowImpl@VCOPOSPOSPower@@VCWindow@ATL@@V?$CWinTraits@$0FGAAAAAA@$0A@@3@@ATL@@@ATL@@QEAA@XZ 000000018002dde0 f i POSPowerImpl.obj
 0001:0002ce20       ??0?$CComPtr@UIAdviseSink@@@ATL@@QEAA@XZ 000000018002de20 f i POSPowerImpl.obj
 0001:0002ce40       ??0?$CComPtr@UIDataAdviseHolder@@@ATL@@QEAA@XZ 000000018002de40 f i POSPowerImpl.obj
 0001:0002ce60       ??0?$CComPtr@UIOleAdviseHolder@@@ATL@@QEAA@XZ 000000018002de60 f i POSPowerImpl.obj
 0001:0002ce80       ??0?$CComPtr@UIOleClientSite@@@ATL@@QEAA@XZ 000000018002de80 f i POSPowerImpl.obj
 0001:0002cea0       ??0?$CComPtr@UIOleInPlaceSiteWindowless@@@ATL@@QEAA@XZ 000000018002dea0 f i POSPowerImpl.obj
 0001:0002cec0       ??0?$CComPtrBase@UIAdviseSink@@@ATL@@IEAA@XZ 000000018002dec0 f i POSPowerImpl.obj
 0001:0002cee0       ??0?$CComPtrBase@UIDataAdviseHolder@@@ATL@@IEAA@XZ 000000018002dee0 f i POSPowerImpl.obj
 0001:0002cf00       ??0?$CComPtrBase@UIOleAdviseHolder@@@ATL@@IEAA@XZ 000000018002df00 f i POSPowerImpl.obj
 0001:0002cf20       ??0?$CComPtrBase@UIOleClientSite@@@ATL@@IEAA@XZ 000000018002df20 f i POSPowerImpl.obj
 0001:0002cf40       ??0?$CComPtrBase@UIOleInPlaceSiteWindowless@@@ATL@@IEAA@XZ 000000018002df40 f i POSPowerImpl.obj
 0001:0002cf60       ??0?$CComQIPtr@UIDispatch@@$1?_GUID_00020400_0000_0000_c000_000000000046@@3U__s_GUID@@B@ATL@@QEAA@XZ 000000018002df60 f i POSPowerImpl.obj
 0001:0002cf80       ??0?$CProxy_IOPOSEvents@VCOPOSPOSPower@@@@QEAA@PEAVCOPOSPOSPower@@@Z 000000018002df80 f i POSPowerImpl.obj
 0001:0002cfe0       ??0?$CWindowImpl@VCOPOSPOSPower@@VCWindow@ATL@@V?$CWinTraits@$0FGAAAAAA@$0A@@3@@ATL@@QEAA@XZ 000000018002dfe0 f i POSPowerImpl.obj
 0001:0002d000       ??0?$CWindowImplBaseT@VCWindow@ATL@@V?$CWinTraits@$0FGAAAAAA@$0A@@2@@ATL@@QEAA@XZ 000000018002e000 f i POSPowerImpl.obj
 0001:0002d030       ??0?$CWindowImplRoot@VCWindow@ATL@@@ATL@@QEAA@XZ 000000018002e030 f i POSPowerImpl.obj
 0001:0002d090       ??0?$IConnectionPointContainerImpl@VCOPOSPOSPower@@@ATL@@QEAA@XZ 000000018002e090 f i POSPowerImpl.obj
 0001:0002d0b0       ??0?$IConnectionPointImpl@VCOPOSPOSPower@@$1?DIID__IOPOSPOSPowerEvents@@3U_GUID@@BVCComDynamicUnkArray@ATL@@@ATL@@QEAA@XZ 000000018002e0b0 f i POSPowerImpl.obj
 0001:0002d0e0       ??0?$IConnectionPointImpl@VCOPOSPOSPower@@$1?IID_IPropertyNotifySink@@3U_GUID@@BVCComDynamicUnkArray@ATL@@@ATL@@QEAA@XZ 000000018002e0e0 f i POSPowerImpl.obj
 0001:0002d110       ??0?$IDataObjectImpl@VCOPOSPOSPower@@@ATL@@QEAA@XZ 000000018002e110 f i POSPowerImpl.obj
 0001:0002d130       ??0?$IDispatchImpl@UIOPOSPOSPower@@$1?IID_IOPOSPOSPower@@3U_GUID@@B$1?LIBID_OposPOSPower_CCO@@3U3@B$00$0A@VCComTypeInfoHolder@ATL@@@ATL@@QEAA@XZ 000000018002e130 f i POSPowerImpl.obj
 0001:0002d150       ??0?$IObjectSafetyImpl@VCOPOSPOSPower@@$02@ATL@@QEAA@XZ 000000018002e150 f i POSPowerImpl.obj
 0001:0002d180       ??0?$IOleControlImpl@VCOPOSPOSPower@@@ATL@@QEAA@XZ 000000018002e180 f i POSPowerImpl.obj
 0001:0002d1a0       ??0?$IOleInPlaceActiveObjectImpl@VCOPOSPOSPower@@@ATL@@QEAA@XZ 000000018002e1a0 f i POSPowerImpl.obj
 0001:0002d1c0       ??0?$IOleInPlaceObjectWindowlessImpl@VCOPOSPOSPower@@@ATL@@QEAA@XZ 000000018002e1c0 f i POSPowerImpl.obj
 0001:0002d1e0       ??0?$IOleObjectImpl@VCOPOSPOSPower@@@ATL@@QEAA@XZ 000000018002e1e0 f i POSPowerImpl.obj
 0001:0002d200       ??0?$IPersistStorageImpl@VCOPOSPOSPower@@@ATL@@QEAA@XZ 000000018002e200 f i POSPowerImpl.obj
 0001:0002d220       ??0?$IPersistStreamInitImpl@VCOPOSPOSPower@@@ATL@@QEAA@XZ 000000018002e220 f i POSPowerImpl.obj
 0001:0002d240       ??0?$IPropertyNotifySinkCP@VCOPOSPOSPower@@VCComDynamicUnkArray@ATL@@@ATL@@QEAA@XZ 000000018002e240 f i POSPowerImpl.obj
 0001:0002d260       ??0?$IProvideClassInfo2Impl@$1?CLSID_OPOSPOSPower@@3U_GUID@@B$1?DIID__IOPOSPOSPowerEvents@@3U2@B$1?LIBID_OposPOSPower_CCO@@3U2@B$00$0A@VCComTypeInfoHolder@ATL@@@ATL@@QEAA@XZ 000000018002e260 f i POSPowerImpl.obj
 0001:0002d280       ??0?$IQuickActivateImpl@VCOPOSPOSPower@@@ATL@@QEAA@XZ 000000018002e280 f i POSPowerImpl.obj
 0001:0002d2a0       ??0?$ISpecifyPropertyPagesImpl@VCOPOSPOSPower@@@ATL@@QEAA@XZ 000000018002e2a0 f i POSPowerImpl.obj
 0001:0002d2c0       ??0?$IViewObjectExImpl@VCOPOSPOSPower@@@ATL@@QEAA@XZ 000000018002e2c0 f i POSPowerImpl.obj
 0001:0002d2e0       ??0?$_ICPLocator@$1?DIID__IOPOSPOSPowerEvents@@3U_GUID@@B@ATL@@QEAA@XZ 000000018002e2e0 f i POSPowerImpl.obj
 0001:0002d2f0       ??0?$_ICPLocator@$1?IID_IPropertyNotifySink@@3U_GUID@@B@ATL@@QEAA@XZ 000000018002e2f0 f i POSPowerImpl.obj
 0001:0002d300       ??0CComControlBase@ATL@@QEAA@AEAPEAUHWND__@@@Z 000000018002e300 f i POSPowerImpl.obj
 0001:0002d510       ??0CComDynamicUnkArray@ATL@@QEAA@XZ 000000018002e510 f i POSPowerImpl.obj
 0001:0002d540       ??0CDynamicStdCallThunk2@ATL@@QEAA@XZ 000000018002e540 f i POSPowerImpl.obj
 0001:0002d560       ??0CMessageMap@ATL@@QEAA@XZ 000000018002e560 f i POSPowerImpl.obj
 0001:0002d570       ??0CWindow@ATL@@QEAA@PEAUHWND__@@@Z 000000018002e570 f i POSPowerImpl.obj
 0001:0002d590       ??0CWndProcThunk@ATL@@QEAA@XZ 000000018002e590 f i POSPowerImpl.obj
 0001:0002d5c0       ??0IConnectionPointContainer@@QEAA@XZ 000000018002e5c0 f i POSPowerImpl.obj
 0001:0002d5e0       ??0IDataObject@@QEAA@XZ    000000018002e5e0 f i POSPowerImpl.obj
 0001:0002d600       ??0IDispatch@@QEAA@XZ      000000018002e600 f i POSPowerImpl.obj
 0001:0002d620       ??0IOPOSPOSPower@@QEAA@XZ  000000018002e620 f i POSPowerImpl.obj
 0001:0002d640       ??0IOPOSPOSPower_1_16@@QEAA@XZ 000000018002e640 f i POSPowerImpl.obj
 0001:0002d660       ??0IOPOSPOSPower_1_5@@QEAA@XZ 000000018002e660 f i POSPowerImpl.obj
 0001:0002d680       ??0IOPOSPOSPower_1_8@@QEAA@XZ 000000018002e680 f i POSPowerImpl.obj
 0001:0002d6a0       ??0IOPOSPOSPower_1_9@@QEAA@XZ 000000018002e6a0 f i POSPowerImpl.obj
 0001:0002d6c0       ??0IObjectSafety@@QEAA@XZ  000000018002e6c0 f i POSPowerImpl.obj
 0001:0002d6e0       ??0IOleControl@@QEAA@XZ    000000018002e6e0 f i POSPowerImpl.obj
 0001:0002d700       ??0IOleInPlaceActiveObject@@QEAA@XZ 000000018002e700 f i POSPowerImpl.obj
 0001:0002d720       ??0IOleInPlaceObject@@QEAA@XZ 000000018002e720 f i POSPowerImpl.obj
 0001:0002d740       ??0IOleInPlaceObjectWindowless@@QEAA@XZ 000000018002e740 f i POSPowerImpl.obj
 0001:0002d760       ??0IOleObject@@QEAA@XZ     000000018002e760 f i POSPowerImpl.obj
 0001:0002d780       ??0IOleWindow@@QEAA@XZ     000000018002e780 f i POSPowerImpl.obj
 0001:0002d7a0       ??0IPersist@@QEAA@XZ       000000018002e7a0 f i POSPowerImpl.obj
 0001:0002d7c0       ??0IPersistStorage@@QEAA@XZ 000000018002e7c0 f i POSPowerImpl.obj
 0001:0002d7e0       ??0IPersistStreamInit@@QEAA@XZ 000000018002e7e0 f i POSPowerImpl.obj
 0001:0002d800       ??0IProvideClassInfo2@@QEAA@XZ 000000018002e800 f i POSPowerImpl.obj
 0001:0002d820       ??0IProvideClassInfo@@QEAA@XZ 000000018002e820 f i POSPowerImpl.obj
 0001:0002d840       ??0IQuickActivate@@QEAA@XZ 000000018002e840 f i POSPowerImpl.obj
 0001:0002d860       ??0ISpecifyPropertyPages@@QEAA@XZ 000000018002e860 f i POSPowerImpl.obj
 0001:0002d880       ??0IViewObject2@@QEAA@XZ   000000018002e880 f i POSPowerImpl.obj
 0001:0002d8a0       ??0IViewObject@@QEAA@XZ    000000018002e8a0 f i POSPowerImpl.obj
 0001:0002d8c0       ??0IViewObjectEx@@QEAA@XZ  000000018002e8c0 f i POSPowerImpl.obj
 0001:0002d8e0       ??0OposVariantResult@@QEAA@XZ 000000018002e8e0 f i POSPowerImpl.obj
 0001:0002d900       ??0_CW@@QEAA@PEBD@Z        000000018002e900 f i POSPowerImpl.obj
 0001:0002d950       ??0_CW@@QEAA@PEB_W@Z       000000018002e950 f i POSPowerImpl.obj
 0001:0002d9a0       ??0_CWNCC@@QEAA@PEBD@Z     000000018002e9a0 f i POSPowerImpl.obj
 0001:0002d9d0       ??1?$CComControl@VCOPOSPOSPower@@V?$CWindowImpl@VCOPOSPOSPower@@VCWindow@ATL@@V?$CWinTraits@$0FGAAAAAA@$0A@@3@@ATL@@@ATL@@UEAA@XZ 000000018002e9d0 f i POSPowerImpl.obj
 0001:0002da00       ??1?$CComPtr@UIDataAdviseHolder@@@ATL@@QEAA@XZ 000000018002ea00 f i POSPowerImpl.obj
 0001:0002da20       ??1?$CComPtr@UIOleAdviseHolder@@@ATL@@QEAA@XZ 000000018002ea20 f i POSPowerImpl.obj
 0001:0002da40       ??1?$CComPtr@UIOleInPlaceSiteWindowless@@@ATL@@QEAA@XZ 000000018002ea40 f i POSPowerImpl.obj
 0001:0002da60       ??1?$CComPtrBase@UIDataAdviseHolder@@@ATL@@QEAA@XZ 000000018002ea60 f i POSPowerImpl.obj
 0001:0002daa0       ??1?$CComPtrBase@UIOleAdviseHolder@@@ATL@@QEAA@XZ 000000018002eaa0 f i POSPowerImpl.obj
 0001:0002dae0       ??1?$CComPtrBase@UIOleInPlaceSiteWindowless@@@ATL@@QEAA@XZ 000000018002eae0 f i POSPowerImpl.obj
 0001:0002db20       ??1?$CComQIPtr@UIDispatch@@$1?_GUID_00020400_0000_0000_c000_000000000046@@3U__s_GUID@@B@ATL@@QEAA@XZ 000000018002eb20 f i POSPowerImpl.obj
 0001:0002db40       ??1?$CProxy_IOPOSEvents@VCOPOSPOSPower@@@@QEAA@XZ 000000018002eb40 f i POSPowerImpl.obj
 0001:0002db60       ??1?$CWindowImpl@VCOPOSPOSPower@@VCWindow@ATL@@V?$CWinTraits@$0FGAAAAAA@$0A@@3@@ATL@@UEAA@XZ 000000018002eb60 f i POSPowerImpl.obj
 0001:0002db80       ??1?$CWindowImplBaseT@VCWindow@ATL@@V?$CWinTraits@$0FGAAAAAA@$0A@@2@@ATL@@UEAA@XZ 000000018002eb80 f i POSPowerImpl.obj
 0001:0002dba0       ??1?$CWindowImplRoot@VCWindow@ATL@@@ATL@@UEAA@XZ 000000018002eba0 f i POSPowerImpl.obj
 0001:0002dc50       ??1?$IConnectionPointImpl@VCOPOSPOSPower@@$1?DIID__IOPOSPOSPowerEvents@@3U_GUID@@BVCComDynamicUnkArray@ATL@@@ATL@@QEAA@XZ 000000018002ec50 f i POSPowerImpl.obj
 0001:0002dcd0       ??1?$IConnectionPointImpl@VCOPOSPOSPower@@$1?IID_IPropertyNotifySink@@3U_GUID@@BVCComDynamicUnkArray@ATL@@@ATL@@QEAA@XZ 000000018002ecd0 f i POSPowerImpl.obj
 0001:0002dd50       ??1?$IPropertyNotifySinkCP@VCOPOSPOSPower@@VCComDynamicUnkArray@ATL@@@ATL@@QEAA@XZ 000000018002ed50 f i POSPowerImpl.obj
 0001:0002dd70       ??1CComControlBase@ATL@@UEAA@XZ 000000018002ed70 f i POSPowerImpl.obj
 0001:0002de50       ??1CComDynamicUnkArray@ATL@@QEAA@XZ 000000018002ee50 f i POSPowerImpl.obj
 0001:0002de80       ??1CDynamicStdCallThunk2@ATL@@QEAA@XZ 000000018002ee80 f i POSPowerImpl.obj
 0001:0002deb0       ??1CWndProcThunk@ATL@@QEAA@XZ 000000018002eeb0 f i POSPowerImpl.obj
 0001:0002dee0       ??1OposVariantResult@@QEAA@XZ 000000018002eee0 f i POSPowerImpl.obj
 0001:0002df10       ??1_CW@@QEAA@XZ            000000018002ef10 f i POSPowerImpl.obj
 0001:0002df70       ??1_CWNCC@@QEAA@XZ         000000018002ef70 f i POSPowerImpl.obj
 0001:0002df90       ??B_CW@@QEAAPEB_WXZ        000000018002ef90 f i POSPowerImpl.obj
 0001:0002dfc0       ??B_CWNCC@@QEAAPEA_WXZ     000000018002efc0 f i POSPowerImpl.obj
 0001:0002dfe0       ??_EOposVariant@@QEAAPEAXI@Z 000000018002efe0 f i POSPowerImpl.obj
 0001:0002e080       ?EventClose@COPOSPOSPower@@IEAAXXZ 000000018002f080 f i POSPowerImpl.obj
 0001:0002e120       ?EventInit@COPOSPOSPower@@IEAAJXZ 000000018002f120 f i POSPowerImpl.obj
 0001:0002e3d0       ?EventOpen@COPOSPOSPower@@IEAAXXZ 000000018002f3d0 f i POSPowerImpl.obj
 0001:0002e410       ?EventPreClose@COPOSPOSPower@@IEAAXXZ 000000018002f410 f i POSPowerImpl.obj
 0001:0002e480       ?EventUninit@COPOSPOSPower@@IEAAXXZ 000000018002f480 f i POSPowerImpl.obj
 0001:0002e5a0       ?EventWindowProc@COPOSPOSPower@@IEAA_JI_K_J@Z 000000018002f5a0 f i POSPowerImpl.obj
 0001:0002e690       ?FireEventCleanup@COPOSPOSPower@@IEAAXXZ 000000018002f690 f i POSPowerImpl.obj
 0001:0002e6d0       ?FireEventSetup@COPOSPOSPower@@IEAA_NXZ 000000018002f6d0 f i POSPowerImpl.obj
 0001:0002e740       ?GetModuleInstance@CComModule@ATL@@QEAAPEAUHINSTANCE__@@XZ 000000018002f740 f i POSPowerImpl.obj
 0001:0002e750       ?SetRC@COPOSPOSPower@@IEAAJJ@Z 000000018002f750 f i POSPowerImpl.obj
 0001:0002e770       ?s_EventWindowProc@COPOSPOSPower@@KA_JPEAUHWND__@@I_K_J@Z 000000018002f770 f i POSPowerImpl.obj
 0001:0002e810       _snwprintf                 000000018002f810 f i POSPowerImpl.obj
 0001:0002e8a0       _vfwprintf_l               000000018002f8a0 f i POSPowerImpl.obj
 0001:0002e8f0       _vsnwprintf                000000018002f8f0 f i POSPowerImpl.obj
 0001:0002e930       _vsnwprintf_l              000000018002f930 f i POSPowerImpl.obj
 0001:0002e9b0       vfwprintf                  000000018002f9b0 f i POSPowerImpl.obj
 0001:0002e9e1       DebugBreak                 000000018002f9e1 f   kernel32:KERNEL32.dll
 0001:0002e9e7       Sleep                      000000018002f9e7 f   kernel32:KERNEL32.dll
 0001:0002e9ed       GetCurrentProcess          000000018002f9ed f   kernel32:KERNEL32.dll
 0001:0002e9f3       TerminateProcess           000000018002f9f3 f   kernel32:KERNEL32.dll
 0001:0002e9f9       MultiByteToWideChar        000000018002f9f9 f   kernel32:KERNEL32.dll
 0001:0002e9ff       WideCharToMultiByte        000000018002f9ff f   kernel32:KERNEL32.dll
 0001:0002ea05       DecodePointer              000000018002fa05 f   kernel32:KERNEL32.dll
 0001:0002ea0b       RaiseException             000000018002fa0b f   kernel32:KERNEL32.dll
 0001:0002ea11       GetLastError               000000018002fa11 f   kernel32:KERNEL32.dll
 0001:0002ea17       SetLastError               000000018002fa17 f   kernel32:KERNEL32.dll
 0001:0002ea1d       InitializeCriticalSectionEx 000000018002fa1d f   kernel32:KERNEL32.dll
 0001:0002ea23       DeleteCriticalSection      000000018002fa23 f   kernel32:KERNEL32.dll
 0001:0002ea29       EncodePointer              000000018002fa29 f   kernel32:KERNEL32.dll
 0001:0002ea2f       EnterCriticalSection       000000018002fa2f f   kernel32:KERNEL32.dll
 0001:0002ea35       LeaveCriticalSection       000000018002fa35 f   kernel32:KERNEL32.dll
 0001:0002ea3b       ResetEvent                 000000018002fa3b f   kernel32:KERNEL32.dll
 0001:0002ea41       ReleaseMutex               000000018002fa41 f   kernel32:KERNEL32.dll
 0001:0002ea47       WaitForSingleObject        000000018002fa47 f   kernel32:KERNEL32.dll
 0001:0002ea4d       GetCurrentThreadId         000000018002fa4d f   kernel32:KERNEL32.dll
 0001:0002ea53       DisableThreadLibraryCalls  000000018002fa53 f   kernel32:KERNEL32.dll
 0001:0002ea59       FreeLibrary                000000018002fa59 f   kernel32:KERNEL32.dll
 0001:0002ea5f       GetModuleFileNameW         000000018002fa5f f   kernel32:KERNEL32.dll
 0001:0002ea65       GetModuleHandleW           000000018002fa65 f   kernel32:KERNEL32.dll
 0001:0002ea6b       GetProcAddress             000000018002fa6b f   kernel32:KERNEL32.dll
 0001:0002ea71       LoadLibraryExW             000000018002fa71 f   kernel32:KERNEL32.dll
 0001:0002ea77       LoadResource               000000018002fa77 f   kernel32:KERNEL32.dll
 0001:0002ea7d       SizeofResource             000000018002fa7d f   kernel32:KERNEL32.dll
 0001:0002ea83       FindResourceW              000000018002fa83 f   kernel32:KERNEL32.dll
 0001:0002ea89       GlobalAlloc                000000018002fa89 f   kernel32:KERNEL32.dll
 0001:0002ea8f       GlobalUnlock               000000018002fa8f f   kernel32:KERNEL32.dll
 0001:0002ea95       GlobalLock                 000000018002fa95 f   kernel32:KERNEL32.dll
 0001:0002ea9b       MulDiv                     000000018002fa9b f   kernel32:KERNEL32.dll
 0001:0002eaa1       lstrcmpiW                  000000018002faa1 f   kernel32:KERNEL32.dll
 0001:0002eaa7       DeleteFileW                000000018002faa7 f   kernel32:KERNEL32.dll
 0001:0002eaad       CloseHandle                000000018002faad f   kernel32:KERNEL32.dll
 0001:0002eab3       SetEvent                   000000018002fab3 f   kernel32:KERNEL32.dll
 0001:0002eab9       CreateMutexW               000000018002fab9 f   kernel32:KERNEL32.dll
 0001:0002eabf       CreateEventW               000000018002fabf f   kernel32:KERNEL32.dll
 0001:0002eac5       GetCurrentProcessId        000000018002fac5 f   kernel32:KERNEL32.dll
 0001:0002eacb       LocalFree                  000000018002facb f   kernel32:KERNEL32.dll
 0001:0002ead1       FormatMessageW             000000018002fad1 f   kernel32:KERNEL32.dll
 0001:0002ead7       GetActiveWindow            000000018002fad7 f   user32:USER32.dll
 0001:0002eadd       MessageBoxW                000000018002fadd f   user32:USER32.dll
 0001:0002eae3       UnregisterClassW           000000018002fae3 f   user32:USER32.dll
 0001:0002eae9       PostMessageW               000000018002fae9 f   user32:USER32.dll
 0001:0002eaef       DefWindowProcW             000000018002faef f   user32:USER32.dll
 0001:0002eaf5       CallWindowProcW            000000018002faf5 f   user32:USER32.dll
 0001:0002eafb       RegisterClassExW           000000018002fafb f   user32:USER32.dll
 0001:0002eb01       GetClassInfoExW            000000018002fb01 f   user32:USER32.dll
 0001:0002eb07       CreateWindowExW            000000018002fb07 f   user32:USER32.dll
 0001:0002eb0d       IsWindow                   000000018002fb0d f   user32:USER32.dll
 0001:0002eb13       IsChild                    000000018002fb13 f   user32:USER32.dll
 0001:0002eb19       DestroyWindow              000000018002fb19 f   user32:USER32.dll
 0001:0002eb1f       ShowWindow                 000000018002fb1f f   user32:USER32.dll
 0001:0002eb25       SetWindowPos               000000018002fb25 f   user32:USER32.dll
 0001:0002eb2b       CharNextW                  000000018002fb2b f   user32:USER32.dll
 0001:0002eb31       SetFocus                   000000018002fb31 f   user32:USER32.dll
 0001:0002eb37       GetFocus                   000000018002fb37 f   user32:USER32.dll
 0001:0002eb3d       GetKeyState                000000018002fb3d f   user32:USER32.dll
 0001:0002eb43       GetDC                      000000018002fb43 f   user32:USER32.dll
 0001:0002eb49       ReleaseDC                  000000018002fb49 f   user32:USER32.dll
 0001:0002eb4f       BeginPaint                 000000018002fb4f f   user32:USER32.dll
 0001:0002eb55       EndPaint                   000000018002fb55 f   user32:USER32.dll
 0001:0002eb5b       SetWindowRgn               000000018002fb5b f   user32:USER32.dll
 0001:0002eb61       InvalidateRect             000000018002fb61 f   user32:USER32.dll
 0001:0002eb67       GetClientRect              000000018002fb67 f   user32:USER32.dll
 0001:0002eb6d       IntersectRect              000000018002fb6d f   user32:USER32.dll
 0001:0002eb73       UnionRect                  000000018002fb73 f   user32:USER32.dll
 0001:0002eb79       OffsetRect                 000000018002fb79 f   user32:USER32.dll
 0001:0002eb7f       EqualRect                  000000018002fb7f f   user32:USER32.dll
 0001:0002eb85       PtInRect                   000000018002fb85 f   user32:USER32.dll
 0001:0002eb8b       GetWindowLongPtrW          000000018002fb8b f   user32:USER32.dll
 0001:0002eb91       SetWindowLongPtrW          000000018002fb91 f   user32:USER32.dll
 0001:0002eb97       GetParent                  000000018002fb97 f   user32:USER32.dll
 0001:0002eb9d       LoadCursorW                000000018002fb9d f   user32:USER32.dll
 0001:0002eba3       PeekMessageW               000000018002fba3 f   user32:USER32.dll
 0001:0002eba9       RegisterClassW             000000018002fba9 f   user32:USER32.dll
 0001:0002ebaf       LoadBitmapW                000000018002fbaf f   user32:USER32.dll
 0001:0002ebb5       CloseMetaFile              000000018002fbb5 f   gdi32:GDI32.dll
 0001:0002ebbb       CreateDCW                  000000018002fbbb f   gdi32:GDI32.dll
 0001:0002ebc1       CreateMetaFileW            000000018002fbc1 f   gdi32:GDI32.dll
 0001:0002ebc7       CreateRectRgnIndirect      000000018002fbc7 f   gdi32:GDI32.dll
 0001:0002ebcd       DeleteDC                   000000018002fbcd f   gdi32:GDI32.dll
 0001:0002ebd3       DeleteMetaFile             000000018002fbd3 f   gdi32:GDI32.dll
 0001:0002ebd9       GetDeviceCaps              000000018002fbd9 f   gdi32:GDI32.dll
 0001:0002ebdf       RestoreDC                  000000018002fbdf f   gdi32:GDI32.dll
 0001:0002ebe5       SaveDC                     000000018002fbe5 f   gdi32:GDI32.dll
 0001:0002ebeb       SetMapMode                 000000018002fbeb f   gdi32:GDI32.dll
 0001:0002ebf1       LPtoDP                     000000018002fbf1 f   gdi32:GDI32.dll
 0001:0002ebf7       SetViewportOrgEx           000000018002fbf7 f   gdi32:GDI32.dll
 0001:0002ebfd       SetWindowExtEx             000000018002fbfd f   gdi32:GDI32.dll
 0001:0002ec03       SetWindowOrgEx             000000018002fc03 f   gdi32:GDI32.dll
 0001:0002ec09       BitBlt                     000000018002fc09 f   gdi32:GDI32.dll
 0001:0002ec0f       CreateCompatibleDC         000000018002fc0f f   gdi32:GDI32.dll
 0001:0002ec15       DeleteObject               000000018002fc15 f   gdi32:GDI32.dll
 0001:0002ec1b       SelectObject               000000018002fc1b f   gdi32:GDI32.dll
 0001:0002ec21       GetObjectW                 000000018002fc21 f   gdi32:GDI32.dll
 0001:0002ec27       RegCloseKey                000000018002fc27 f   advapi32:ADVAPI32.dll
 0001:0002ec2d       RegCreateKeyExW            000000018002fc2d f   advapi32:ADVAPI32.dll
 0001:0002ec33       RegDeleteKeyW              000000018002fc33 f   advapi32:ADVAPI32.dll
 0001:0002ec39       RegDeleteValueW            000000018002fc39 f   advapi32:ADVAPI32.dll
 0001:0002ec3f       RegEnumKeyExW              000000018002fc3f f   advapi32:ADVAPI32.dll
 0001:0002ec45       RegOpenKeyExW              000000018002fc45 f   advapi32:ADVAPI32.dll
 0001:0002ec4b       RegQueryInfoKeyW           000000018002fc4b f   advapi32:ADVAPI32.dll
 0001:0002ec51       RegSetValueExW             000000018002fc51 f   advapi32:ADVAPI32.dll
 0001:0002ec57       RegQueryValueExW           000000018002fc57 f   advapi32:ADVAPI32.dll
 0001:0002ec5d       CoCreateInstance           000000018002fc5d f   ole32:ole32.dll
 0001:0002ec63       StringFromGUID2            000000018002fc63 f   ole32:ole32.dll
 0001:0002ec69       CoTaskMemAlloc             000000018002fc69 f   ole32:ole32.dll
 0001:0002ec6f       CoTaskMemRealloc           000000018002fc6f f   ole32:ole32.dll
 0001:0002ec75       CoTaskMemFree              000000018002fc75 f   ole32:ole32.dll
 0001:0002ec7b       ReadClassStm               000000018002fc7b f   ole32:ole32.dll
 0001:0002ec81       WriteClassStm              000000018002fc81 f   ole32:ole32.dll
 0001:0002ec87       CreateDataAdviseHolder     000000018002fc87 f   ole32:ole32.dll
 0001:0002ec8d       OleSaveToStream            000000018002fc8d f   ole32:ole32.dll
 0001:0002ec93       CreateOleAdviseHolder      000000018002fc93 f   ole32:ole32.dll
 0001:0002ec99       OleRegGetUserType          000000018002fc99 f   ole32:ole32.dll
 0001:0002ec9f       OleRegGetMiscStatus        000000018002fc9f f   ole32:ole32.dll
 0001:0002eca5       OleRegEnumVerbs            000000018002fca5 f   ole32:ole32.dll
 0001:0002ecab       CLSIDFromProgID            000000018002fcab f   ole32:ole32.dll
 0001:0002ecb1       SysAllocString             000000018002fcb1 f   oleaut32:OLEAUT32.dll
 0001:0002ecb7       SysAllocStringLen          000000018002fcb7 f   oleaut32:OLEAUT32.dll
 0001:0002ecbd       SysFreeString              000000018002fcbd f   oleaut32:OLEAUT32.dll
 0001:0002ecc3       SysStringLen               000000018002fcc3 f   oleaut32:OLEAUT32.dll
 0001:0002ecc9       VariantClear               000000018002fcc9 f   oleaut32:OLEAUT32.dll
 0001:0002eccf       VariantCopyInd             000000018002fccf f   oleaut32:OLEAUT32.dll
 0001:0002ecd5       VariantChangeType          000000018002fcd5 f   oleaut32:OLEAUT32.dll
 0001:0002ecdb       SysStringByteLen           000000018002fcdb f   oleaut32:OLEAUT32.dll
 0001:0002ece1       SysAllocStringByteLen      000000018002fce1 f   oleaut32:OLEAUT32.dll
 0001:0002ece7       VariantInit                000000018002fce7 f   oleaut32:OLEAUT32.dll
 0001:0002eced       VarUI4FromStr              000000018002fced f   oleaut32:OLEAUT32.dll
 0001:0002ecf3       LoadTypeLib                000000018002fcf3 f   oleaut32:OLEAUT32.dll
 0001:0002ecf9       LoadRegTypeLib             000000018002fcf9 f   oleaut32:OLEAUT32.dll
 0001:0002ecff       RegisterTypeLib            000000018002fcff f   oleaut32:OLEAUT32.dll
 0001:0002ed05       UnRegisterTypeLib          000000018002fd05 f   oleaut32:OLEAUT32.dll
 0001:0002ed0b       OleCreatePropertyFrame     000000018002fd0b f   oleaut32:OLEAUT32.dll
 0001:0002ed20       _RTC_AllocaHelper          000000018002fd20 f   LIBCMTD:stack.obj
 0001:0002ed60       _RTC_CheckStackVars        000000018002fd60 f   LIBCMTD:stack.obj
 0001:0002edf0       _RTC_CheckStackVars2       000000018002fdf0 f   LIBCMTD:stack.obj
 0001:0002ef00       _CRT_RTC_INIT              000000018002ff00 f   LIBCMTD:init.obj
 0001:0002ef10       _CRT_RTC_INITW             000000018002ff10 f   LIBCMTD:init.obj
 0001:0002ef20       _RTC_InitBase              000000018002ff20 f   LIBCMTD:init.obj
 0001:0002ef60       _RTC_Shutdown              000000018002ff60 f   LIBCMTD:init.obj
 0001:0002ef90       __GSHandlerCheck           000000018002ff90 f   LIBCMTD:gshandler.obj
 0001:0002efd0       __GSHandlerCheckCommon     000000018002ffd0 f   LIBCMTD:gshandler.obj
 0001:0002f0e0       __security_check_cookie    00000001800300e0 f   LIBCMTD:amdsecgs.obj
 0001:0002f100       ??_U@YAPEAX_K@Z            0000000180030100 f   LIBCMTD:new_array.obj
 0001:0002f120       ??3@YAXPEAX_K@Z            0000000180030120 f   LIBCMTD:delete_scalar_size.obj
 0001:0002f140       ??_V@YAXPEAX@Z             0000000180030140 f   LIBCMTD:delete_array.obj
 0001:0002f160       ??_V@YAXPEAX_K@Z           0000000180030160 f   LIBCMTD:delete_array_size.obj
 0001:0002f180       ?configure_argv@__scrt_narrow_argv_policy@@SAHXZ 0000000180030180 f i LIBCMTD:utility.obj
 0001:0002f270       ?initialize_environment@__scrt_narrow_environment_policy@@SAHXZ 0000000180030270 f i LIBCMTD:utility.obj
 0001:0002f310       NtCurrentTeb               0000000180030310 f i LIBCMTD:utility.obj
 0001:0002f320       __scrt_acquire_startup_lock 0000000180030320 f   LIBCMTD:utility.obj
 0001:0002f390       __scrt_dllmain_after_initialize_c 0000000180030390 f   LIBCMTD:utility.obj
 0001:0002f3c0       __scrt_dllmain_before_initialize_c 00000001800303c0 f   LIBCMTD:utility.obj
 0001:0002f3e0       __scrt_dllmain_crt_thread_attach 00000001800303e0 f   LIBCMTD:utility.obj
 0001:0002f410       __scrt_dllmain_crt_thread_detach 0000000180030410 f   LIBCMTD:utility.obj
 0001:0002f430       __scrt_dllmain_exception_filter 0000000180030430 f   LIBCMTD:utility.obj
 0001:0002f4a0       __scrt_dllmain_uninitialize_c 00000001800304a0 f   LIBCMTD:utility.obj
 0001:0002f4d0       __scrt_dllmain_uninitialize_critical 00000001800304d0 f   LIBCMTD:utility.obj
 0001:0002f4f0       __scrt_initialize_crt      00000001800304f0 f   LIBCMTD:utility.obj
 0001:0002f540       __scrt_initialize_onexit_tables 0000000180030540 f   LIBCMTD:utility.obj
 0001:0002f650       __scrt_is_nonwritable_in_current_image 0000000180030650 f   LIBCMTD:utility.obj
 0001:0002f6e0       __scrt_release_startup_lock 00000001800306e0 f   LIBCMTD:utility.obj
 0001:0002f710       __scrt_uninitialize_crt    0000000180030710 f   LIBCMTD:utility.obj
 0001:0002f750       _onexit                    0000000180030750 f   LIBCMTD:utility.obj
 0001:0002f7d0       at_quick_exit              00000001800307d0 f   LIBCMTD:utility.obj
 0001:0002f820       atexit                     0000000180030820 f   LIBCMTD:utility.obj
 0001:0002f860       ??3@YAXPEAX@Z              0000000180030860 f   LIBCMTD:delete_scalar.obj
 0001:0002f880       __raise_securityfailure    0000000180030880 f   LIBCMTD:gs_report.obj
 0001:0002f8c0       __report_gsfailure         00000001800308c0 f   LIBCMTD:gs_report.obj
 0001:0002f9a0       __report_rangecheckfailure 00000001800309a0 f   LIBCMTD:gs_report.obj
 0001:0002f9c0       __report_securityfailure   00000001800309c0 f   LIBCMTD:gs_report.obj
 0001:0002fa60       __report_securityfailureEx 0000000180030a60 f   LIBCMTD:gs_report.obj
 0001:0002fe20       _Init_thread_abort         0000000180030e20 f   LIBCMTD:thread_safe_statics.obj
 0001:0002fe50       _Init_thread_footer        0000000180030e50 f   LIBCMTD:thread_safe_statics.obj
 0001:0002feb0       _Init_thread_header        0000000180030eb0 f   LIBCMTD:thread_safe_statics.obj
 0001:0002ff40       _Init_thread_lock          0000000180030f40 f   LIBCMTD:thread_safe_statics.obj
 0001:0002ff60       _Init_thread_notify        0000000180030f60 f   LIBCMTD:thread_safe_statics.obj
 0001:0002ffc0       _Init_thread_unlock        0000000180030fc0 f   LIBCMTD:thread_safe_statics.obj
 0001:0002ffe0       _Init_thread_wait          0000000180030fe0 f   LIBCMTD:thread_safe_statics.obj
 0001:00030090       ??2@YAPEAX_KAEBUnothrow_t@std@@@Z 0000000180031090 f   LIBCMTD:new_scalar_nothrow.obj
 0001:000300d0       ??_U@YAPEAX_KAEBUnothrow_t@std@@@Z 00000001800310d0 f   LIBCMTD:new_array_nothrow.obj
 0001:00030100       __GSHandlerCheck_SEH       0000000180031100 f   LIBCMTD:gshandlerseh.obj
 0001:000301d0       _alloca_probe              00000001800311d0 f   LIBCMTD:chkstk.obj
 0001:000301d0       __chkstk                   00000001800311d0 f   LIBCMTD:chkstk.obj
 0001:00030630       _CRT_INIT                  0000000180031630 f   LIBCMTD:dll_dllmain.obj
 0001:00030660       _DllMainCRTStartup         0000000180031660 f   LIBCMTD:dll_dllmain.obj
 0001:00030730       ?_RTC_AllocaFailure@@YAXPEAXPEAU_RTC_ALLOCA_NODE@@H@Z 0000000180031730 f   LIBCMTD:error.obj
 0001:00030890       ?_RTC_Failure@@YAXPEAXH@Z  0000000180031890 f   LIBCMTD:error.obj
 0001:000308e0       ?_RTC_StackFailure@@YAXPEAXPEBD@Z 00000001800318e0 f   LIBCMTD:error.obj
 0001:00030d10       _RTC_UninitUse             0000000180031d10 f   LIBCMTD:error.obj
 0001:00030de0       _vsprintf_s_l              0000000180031de0 f i LIBCMTD:error.obj
 0001:00030e50       sprintf_s                  0000000180031e50 f i LIBCMTD:error.obj
 0001:00030e80       ?_RTC_GetErrorFunc@@YAP6AHHPEBDH00ZZPEBX@Z 0000000180031e80 f   LIBCMTD:userapi.obj
 0001:00030e90       ?_RTC_GetErrorFuncW@@YAP6AHHPEB_WH00ZZPEBX@Z 0000000180031e90 f   LIBCMTD:userapi.obj
 0001:00030ea0       _RTC_GetErrDesc            0000000180031ea0 f   LIBCMTD:userapi.obj
 0001:00030ec0       _RTC_NumErrors             0000000180031ec0 f   LIBCMTD:userapi.obj
 0001:00030ed0       _RTC_SetErrorFunc          0000000180031ed0 f   LIBCMTD:userapi.obj
 0001:00030ef0       _RTC_SetErrorFuncW         0000000180031ef0 f   LIBCMTD:userapi.obj
 0001:00030f10       _RTC_SetErrorType          0000000180031f10 f   LIBCMTD:userapi.obj
 0001:00030f30       ??2@YAPEAX_K@Z             0000000180031f30 f   LIBCMTD:new_scalar.obj
 0001:00030f80       __isa_available_init       0000000180031f80 f   LIBCMTD:cpu_disp.obj
 0001:00031320       _get_startup_argv_mode     0000000180032320 f   LIBCMTD:argv_mode.obj
 0001:00031330       __scrt_is_ucrt_dll_in_use  0000000180032330 f   LIBCMTD:ucrt_detection.obj
 0001:00031360       __crt_debugger_hook        0000000180032360 f   LIBCMTD:utility_desktop.obj
 0001:00031370       __scrt_fastfail            0000000180032370 f   LIBCMTD:utility_desktop.obj
 0001:00031510       __scrt_get_show_window_mode 0000000180032510 f   LIBCMTD:utility_desktop.obj
 0001:00031570       __scrt_initialize_mta      0000000180032570 f   LIBCMTD:utility_desktop.obj
 0001:00031580       __scrt_initialize_winrt    0000000180032580 f   LIBCMTD:utility_desktop.obj
 0001:00031590       __scrt_is_managed_app      0000000180032590 f   LIBCMTD:utility_desktop.obj
 0001:00031640       __scrt_set_unhandled_exception_filter 0000000180032640 f   LIBCMTD:utility_desktop.obj
 0001:00031660       __scrt_stub_for_initialize_mta 0000000180032660 f   LIBCMTD:utility_desktop.obj
 0001:00031660       __scrt_exe_initialize_mta  0000000180032660 f   LIBCMTD:utility_desktop.obj
 0001:00031670       __scrt_unhandled_exception_filter 0000000180032670 f   LIBCMTD:utility_desktop.obj
 0001:00031710       _guard_check_icall_nop     0000000180032710 f i LIBCMTD:guard_support.obj
 0001:00031720       ReadNoFence64              0000000180032720 f i LIBCMTD:guard_support.obj
 0001:00031740       ReadPointerNoFence         0000000180032740 f i LIBCMTD:guard_support.obj
 0001:00031760       __castguard_check_failure_debugbreak 0000000180032760 f i LIBCMTD:guard_support.obj
 0001:00031780       __castguard_check_failure_fastfail 0000000180032780 f i LIBCMTD:guard_support.obj
 0001:000317b0       __castguard_check_failure_nop 00000001800327b0 f i LIBCMTD:guard_support.obj
 0001:000317c0       __castguard_check_failure_os_handled 00000001800327c0 f i LIBCMTD:guard_support.obj
 0001:00031890       __castguard_slow_path_check_debugbreak 0000000180032890 f i LIBCMTD:guard_support.obj
 0001:000318d0       __castguard_slow_path_check_fastfail 00000001800328d0 f i LIBCMTD:guard_support.obj
 0001:00031920       __castguard_slow_path_check_nop 0000000180032920 f i LIBCMTD:guard_support.obj
 0001:00031930       __castguard_slow_path_check_os_handled 0000000180032930 f i LIBCMTD:guard_support.obj
 0001:000319f0       _guard_icall_checks_enforced 00000001800329f0 f i LIBCMTD:guard_support.obj
 0001:00031a30       _guard_rf_checks_enforced  0000000180032a30 f i LIBCMTD:guard_support.obj
 0001:00031b00       __security_init_cookie     0000000180032b00 f   LIBCMTD:gs_support.obj
 0001:00031b80       ?__scrt_initialize_type_info@@YAXXZ 0000000180032b80 f   LIBCMTD:tncleanup.obj
 0001:00031ba0       ?__scrt_uninitialize_type_info@@YAXXZ 0000000180032ba0 f   LIBCMTD:tncleanup.obj
 0001:00031bc0       __local_stdio_scanf_options 0000000180032bc0 f i LIBCMTD:default_local_stdio_options.obj
 0001:00031bd0       __scrt_initialize_default_local_stdio_options 0000000180032bd0 f   LIBCMTD:default_local_stdio_options.obj
 0001:00031c20       __scrt_get_dyn_tls_init_callback 0000000180032c20 f   LIBCMTD:dyn_tls_init.obj
 0001:00031c30       _RTC_Initialize            0000000180032c30 f   LIBCMTD:initsect.obj
 0001:00031c80       _RTC_Terminate             0000000180032c80 f   LIBCMTD:initsect.obj
 0001:000321f0       ?_RTC_GetSrcLine@@YAHPEAEPEA_WKPEAH1K@Z 00000001800331f0 f   LIBCMTD:pdblkup.obj
 0001:000325c0       ??0bad_alloc@std@@AEAA@QEBD@Z 00000001800335c0 f i LIBCMTD:throw_bad_alloc.obj
 0001:00032600       ??0bad_alloc@std@@QEAA@AEBV01@@Z 0000000180033600 f i LIBCMTD:throw_bad_alloc.obj
 0001:00032640       ??0bad_alloc@std@@QEAA@XZ  0000000180033640 f i LIBCMTD:throw_bad_alloc.obj
 0001:00032680       ??0bad_array_new_length@std@@QEAA@AEBV01@@Z 0000000180033680 f i LIBCMTD:throw_bad_alloc.obj
 0001:000326c0       ??0bad_array_new_length@std@@QEAA@XZ 00000001800336c0 f i LIBCMTD:throw_bad_alloc.obj
 0001:00032700       ??0exception@std@@QEAA@AEBV01@@Z 0000000180033700 f i LIBCMTD:throw_bad_alloc.obj
 0001:00032760       ??0exception@std@@QEAA@QEBDH@Z 0000000180033760 f i LIBCMTD:throw_bad_alloc.obj
 0001:000327b0       ??1bad_alloc@std@@UEAA@XZ  00000001800337b0 f i LIBCMTD:throw_bad_alloc.obj
 0001:000327d0       ??1bad_array_new_length@std@@UEAA@XZ 00000001800337d0 f i LIBCMTD:throw_bad_alloc.obj
 0001:000327f0       ??1exception@std@@UEAA@XZ  00000001800337f0 f i LIBCMTD:throw_bad_alloc.obj
 0001:00032820       ??_Ebad_alloc@std@@UEAAPEAXI@Z 0000000180033820 f i LIBCMTD:throw_bad_alloc.obj
 0001:00032820       ??_Gbad_alloc@std@@UEAAPEAXI@Z 0000000180033820 f i LIBCMTD:throw_bad_alloc.obj
 0001:00032860       ??_Ebad_array_new_length@std@@UEAAPEAXI@Z 0000000180033860 f i LIBCMTD:throw_bad_alloc.obj
 0001:00032860       ??_Gbad_array_new_length@std@@UEAAPEAXI@Z 0000000180033860 f i LIBCMTD:throw_bad_alloc.obj
 0001:000328a0       ??_Gexception@std@@UEAAPEAXI@Z 00000001800338a0 f i LIBCMTD:throw_bad_alloc.obj
 0001:000328a0       ??_Eexception@std@@UEAAPEAXI@Z 00000001800338a0 f i LIBCMTD:throw_bad_alloc.obj
 0001:000328e0       ?__scrt_throw_std_bad_alloc@@YAXXZ 00000001800338e0 f   LIBCMTD:throw_bad_alloc.obj
 0001:00032910       ?__scrt_throw_std_bad_array_new_length@@YAXXZ 0000000180033910 f   LIBCMTD:throw_bad_alloc.obj
 0001:00032940       ?what@exception@std@@UEBAPEBDXZ 0000000180033940 f i LIBCMTD:throw_bad_alloc.obj
 0001:00032980       ??1type_info@@UEAA@XZ      0000000180033980 f   LIBCMTD:std_type_info_static.obj
 0001:000329a0       ??_Etype_info@@UEAAPEAXI@Z 00000001800339a0 f i LIBCMTD:std_type_info_static.obj
 0001:000329a0       ??_Gtype_info@@UEAAPEAXI@Z 00000001800339a0 f i LIBCMTD:std_type_info_static.obj
 0001:000329dc       ??$?2PEAUHINSTANCE__@@@Wrapper@?$CSimpleArray@PEAUHINSTANCE__@@V?$CSimpleArrayEqualHelper@PEAUHINSTANCE__@@@ATL@@@ATL@@SAPEAX_KPEAPEAUHINSTANCE__@@@Z 00000001800339dc f i atls:atlbase.obj
 0001:000329e0       ??0?$CSimpleArray@PEAUHINSTANCE__@@V?$CSimpleArrayEqualHelper@PEAUHINSTANCE__@@@ATL@@@ATL@@QEAA@XZ 00000001800339e0 f i atls:atlbase.obj
 0001:000329f0       ??0CAtlBaseModule@ATL@@QEAA@XZ 00000001800339f0 f   atls:atlbase.obj
 0001:00032a98       ??0Wrapper@?$CSimpleArray@PEAUHINSTANCE__@@V?$CSimpleArrayEqualHelper@PEAUHINSTANCE__@@@ATL@@@ATL@@QEAA@AEBQEAUHINSTANCE__@@@Z 0000000180033a98 f i atls:atlbase.obj
 0001:00032aa4       ??0_ATL_BASE_MODULE70@ATL@@QEAA@XZ 0000000180033aa4 f i atls:atlbase.obj
 0001:00032ad0       ??1?$CSimpleArray@PEAUHINSTANCE__@@V?$CSimpleArrayEqualHelper@PEAUHINSTANCE__@@@ATL@@@ATL@@QEAA@XZ 0000000180033ad0 f i atls:atlbase.obj
 0001:00032af8       ??1CAtlBaseModule@ATL@@QEAA@XZ 0000000180033af8 f   atls:atlbase.obj
 0001:00032b2c       ??1_ATL_BASE_MODULE70@ATL@@QEAA@XZ 0000000180033b2c f i atls:atlbase.obj
 0001:00032b58       ??A?$CSimpleArray@PEAUHINSTANCE__@@V?$CSimpleArrayEqualHelper@PEAUHINSTANCE__@@@ATL@@@ATL@@QEAAAEAPEAUHINSTANCE__@@H@Z 0000000180033b58 f i atls:atlbase.obj
 0001:00032b84       ?Add@?$CSimpleArray@PEAUHINSTANCE__@@V?$CSimpleArrayEqualHelper@PEAUHINSTANCE__@@@ATL@@@ATL@@QEAAHAEBQEAUHINSTANCE__@@@Z 0000000180033b84 f i atls:atlbase.obj
 0001:00032c24       ?AddResourceInstance@CAtlBaseModule@ATL@@QEAA_NPEAUHINSTANCE__@@@Z 0000000180033c24 f   atls:atlbase.obj
 0001:00032c6c       ?GetHInstanceAt@CAtlBaseModule@ATL@@QEAAPEAUHINSTANCE__@@H@Z 0000000180033c6c f   atls:atlbase.obj
 0001:00032ce4       ?GetSize@?$CSimpleArray@PEAUHINSTANCE__@@V?$CSimpleArrayEqualHelper@PEAUHINSTANCE__@@@ATL@@@ATL@@QEBAHXZ 0000000180033ce4 f i atls:atlbase.obj
 0001:00032ce8       ?InternalSetAtIndex@?$CSimpleArray@PEAUHINSTANCE__@@V?$CSimpleArrayEqualHelper@PEAUHINSTANCE__@@@ATL@@@ATL@@QEAAXHAEBQEAUHINSTANCE__@@@Z 0000000180033ce8 f i atls:atlbase.obj
 0001:00032d00       ?RemoveAll@?$CSimpleArray@PEAUHINSTANCE__@@V?$CSimpleArrayEqualHelper@PEAUHINSTANCE__@@@ATL@@@ATL@@QEAAXXZ 0000000180033d00 f i atls:atlbase.obj
 0001:00032d28       ?RemoveAt@?$CSimpleArray@PEAUHINSTANCE__@@V?$CSimpleArrayEqualHelper@PEAUHINSTANCE__@@@ATL@@@ATL@@QEAAHH@Z 0000000180033d28 f i atls:atlbase.obj
 0001:00032dc0       ?RemoveResourceInstance@CAtlBaseModule@ATL@@QEAA_NPEAUHINSTANCE__@@@Z 0000000180033dc0 f   atls:atlbase.obj
 0001:00032e48       ?memmove_s@Checked@ATL@@YAXPEAX_KPEBX1@Z 0000000180033e48 f i atls:atlbase.obj
 0001:000332f0       ?GetCodeAddress@_stdcallthunk@ATL@@QEAAPEAXXZ 00000001800342f0 f i atls:atlthunk.obj
 0001:0003331c       ?Init@_stdcallthunk@ATL@@QEAAH_KPEAX@Z 000000018003431c f i atls:atlthunk.obj
 0001:0003336c       ?__AllocStdCallThunk@@YAPEAXXZ 000000018003436c f   atls:atlthunk.obj
 0001:00033374       ?__AllocStdCallThunk@ATL@@YAPEAXXZ 0000000180034374 f   atls:atlthunk.obj
 0001:0003337c       ?__AllocStdCallThunk_cmn@@YAPEAXXZ 000000018003437c f   atls:atlthunk.obj
 0001:00033454       ?__FreeStdCallThunk@@YAXPEAX@Z 0000000180034454 f   atls:atlthunk.obj
 0001:00033474       ?__FreeStdCallThunk@ATL@@YAXPEAX@Z 0000000180034474 f   atls:atlthunk.obj
 0001:00033494       ?__FreeStdCallThunk_cmn@@YAXPEAX@Z 0000000180034494 f   atls:atlthunk.obj
 0001:00033534       AtlThunk_AllocateData      0000000180034534 f   atls:atlthunk.obj
 0001:000335b0       AtlThunk_DataToCode        00000001800345b0 f   atls:atlthunk.obj
 0001:00033604       AtlThunk_FreeData          0000000180034604 f   atls:atlthunk.obj
 0001:00033664       AtlThunk_InitData          0000000180034664 f   atls:atlthunk.obj
 0001:00033720       memset_repmovs             0000000180034720 f   libvcruntimed:memset.obj
 0001:00033740       memset                     0000000180034740 f   libvcruntimed:memset.obj
 0001:000338d0       ??$__crt_interlocked_exchange_pointer@$$A6AXXZP6AXXZ@@YAP6AXXZPEDS6AXXZQ6AXXZ@Z 00000001800348d0 f i libvcruntimed:purevirt.obj
 0001:000338f0       ??$__crt_interlocked_read_pointer@$$A6AXXZ@@YAP6AXXZPEDS6AXXZ@Z 00000001800348f0 f i libvcruntimed:purevirt.obj
 0001:00033910       ?__crt_interlocked_read_64@@YA_JPED_J@Z 0000000180034910 f i libvcruntimed:purevirt.obj
 0001:00033930       _get_purecall_handler      0000000180034930 f   libvcruntimed:purevirt.obj
 0001:00033950       _purecall                  0000000180034950 f   libvcruntimed:purevirt.obj
 0001:00033990       _set_purecall_handler      0000000180034990 f   libvcruntimed:purevirt.obj
 0001:000339c0       memcmp                     00000001800349c0 f   libvcruntimed:memcmp.obj
 0001:00033aa0       memcpy_repmovs             0000000180034aa0 f   libvcruntimed:memcpy.obj
 0001:00033ac0       memmove                    0000000180034ac0 f   libvcruntimed:memcpy.obj
 0001:00033ac0       memcpy                     0000000180034ac0 f   libvcruntimed:memcpy.obj
 0001:00034140       wcsstr                     0000000180035140 f   libvcruntimed:wcsstr.obj
 0001:000347a0       __vcrt_initialize          00000001800357a0 f   libvcruntimed:initialization.obj
 0001:000347e0       __vcrt_thread_attach       00000001800357e0 f   libvcruntimed:initialization.obj
 0001:00034800       __vcrt_thread_detach       0000000180035800 f   libvcruntimed:initialization.obj
 0001:00034820       __vcrt_uninitialize        0000000180035820 f   libvcruntimed:initialization.obj
 0001:00034840       __vcrt_uninitialize_critical 0000000180035840 f   libvcruntimed:initialization.obj
 0001:00034860       __C_specific_handler       0000000180035860 f   libvcruntimed:riscchandler.obj
 0001:00034cd0       ??$?0AEAViterator@TryBlockMap4@FH4@@AEAV012@$0A@@?$pair@Viterator@TryBlockMap4@FH4@@V123@@std@@QEAA@AEAViterator@TryBlockMap4@FH4@@0@Z 0000000180035cd0 f i libvcruntimed:risctrnsctrl.obj
 0001:00034d30       ??$?0AEAViterator@TryBlockMap@__FrameHandler3@@AEAV012@$0A@@?$pair@Viterator@TryBlockMap@__FrameHandler3@@V123@@std@@QEAA@AEAViterator@TryBlockMap@__FrameHandler3@@0@Z 0000000180035d30 f i libvcruntimed:risctrnsctrl.obj
 0001:00034f00       ??$_CallSETranslator@V__FrameHandler3@@@@YAHPEAUEHExceptionRecord@@PEA_KPEAU_CONTEXT@@PEAU_xDISPATCHER_CONTEXT@@PEBU_s_FuncInfo@@K1H@Z 0000000180035f00 f i libvcruntimed:risctrnsctrl.obj
 0001:00034f90       ??$_CallSETranslator@V__FrameHandler4@@@@YAHPEAUEHExceptionRecord@@PEA_KPEAU_CONTEXT@@PEAU_xDISPATCHER_CONTEXT@@PEAUFuncInfo4@FH4@@K1H@Z 0000000180035f90 f i libvcruntimed:risctrnsctrl.obj
 0001:00035020       ??$forward@AEAViterator@TryBlockMap4@FH4@@@std@@YAAEAViterator@TryBlockMap4@FH4@@AEAV123@@Z 0000000180036020 f i libvcruntimed:risctrnsctrl.obj
 0001:00035030       ??$forward@AEAViterator@TryBlockMap@__FrameHandler3@@@std@@YAAEAViterator@TryBlockMap@__FrameHandler3@@AEAV123@@Z 0000000180036030 f i libvcruntimed:risctrnsctrl.obj
 0001:00035040       ??0FuncInfo4@FH4@@QEAA@XZ  0000000180036040 f i libvcruntimed:risctrnsctrl.obj
 0001:000350b0       ??0FuncInfoHeader@FH4@@QEAA@XZ 00000001800360b0 f i libvcruntimed:risctrnsctrl.obj
 0001:000350d0       ??0iterator@TryBlockMap4@FH4@@QEAA@AEAV12@I@Z 00000001800360d0 f i libvcruntimed:risctrnsctrl.obj
 0001:00035100       ??0iterator@TryBlockMap@__FrameHandler3@@QEAA@AEAV12@I@Z 0000000180036100 f i libvcruntimed:risctrnsctrl.obj
 0001:00035130       ??4iterator@TryBlockMap4@FH4@@QEAAAEAV012@AEBV012@@Z 0000000180036130 f i libvcruntimed:risctrnsctrl.obj
 0001:00035150       ??9iterator@TryBlockMap4@FH4@@QEBA_NAEBV012@@Z 0000000180036150 f i libvcruntimed:risctrnsctrl.obj
 0001:00035190       ??Diterator@TryBlockMap4@FH4@@QEAA?AUTryBlockMapEntry4@2@XZ 0000000180036190 f i libvcruntimed:risctrnsctrl.obj
 0001:000351c0       ??Eiterator@TryBlockMap4@FH4@@QEAAAEAV012@XZ 00000001800361c0 f i libvcruntimed:risctrnsctrl.obj
 0001:00035200       ?CatchTryBlock@__FrameHandler3@@SAPEBU_s_TryBlockMapEntry@@PEBU_s_FuncInfo@@H@Z 0000000180036200 f   libvcruntimed:risctrnsctrl.obj
 0001:00035290       ?DecompFuncInfo@FH4@@YA_JPEAEAEAUFuncInfo4@1@_KH@Z 0000000180036290 f i libvcruntimed:risctrnsctrl.obj
 0001:000352d0       ?DecompFuncInfo@FH4@@YA_JPEAEAEAUFuncInfo4@1@_KH_N@Z 00000001800362d0 f i libvcruntimed:risctrnsctrl.obj
 0001:000354a0       ?DecompTryBlock@TryBlockMap4@FH4@@AEAAXXZ 00000001800364a0 f i libvcruntimed:risctrnsctrl.obj
 0001:00035520       ?ExecutionInCatch@__FrameHandler3@@SA_NPEAU_xDISPATCHER_CONTEXT@@PEBU_s_FuncInfo@@@Z 0000000180036520 f   libvcruntimed:risctrnsctrl.obj
 0001:00035570       ?ExecutionInCatch@__FrameHandler4@@SA_NPEAU_xDISPATCHER_CONTEXT@@PEAUFuncInfo4@FH4@@@Z 0000000180036570 f   libvcruntimed:risctrnsctrl.obj
 0001:00035590       ?FrameUnwindToEmptyState@__FrameHandler3@@SAXPEA_KPEAU_xDISPATCHER_CONTEXT@@PEBU_s_FuncInfo@@@Z 0000000180036590 f   libvcruntimed:risctrnsctrl.obj
 0001:00035630       ?FrameUnwindToEmptyState@__FrameHandler4@@SAXPEA_KPEAU_xDISPATCHER_CONTEXT@@PEAUFuncInfo4@FH4@@@Z 0000000180036630 f   libvcruntimed:risctrnsctrl.obj
 0001:00035680       ?GetEstablisherFrame@__FrameHandler3@@SAPEA_KPEA_KPEAU_xDISPATCHER_CONTEXT@@PEBU_s_FuncInfo@@0@Z 0000000180036680 f   libvcruntimed:risctrnsctrl.obj
 0001:000357f0       ?GetEstablisherFrame@__FrameHandler4@@SAPEA_KPEA_KPEAU_xDISPATCHER_CONTEXT@@PEAUFuncInfo4@FH4@@0@Z 00000001800367f0 f   libvcruntimed:risctrnsctrl.obj
 0001:00035860       ?GetRangeOfTrysToCheck@__FrameHandler3@@SA?AU?$pair@Viterator@TryBlockMap@__FrameHandler3@@V123@@std@@AEAVTryBlockMap@1@HPEAU_xDISPATCHER_CONTEXT@@PEBU_s_FuncInfo@@H@Z 0000000180036860 f   libvcruntimed:risctrnsctrl.obj
 0001:00035aa0       ?GetRangeOfTrysToCheck@__FrameHandler4@@SA?AU?$pair@Viterator@TryBlockMap4@FH4@@V123@@std@@AEAVTryBlockMap4@FH4@@HPEAU_xDISPATCHER_CONTEXT@@PEAUFuncInfo4@5@H@Z 0000000180036aa0 f   libvcruntimed:risctrnsctrl.obj
 0001:00035c50       ?ReadInt@FH4@@YAHPEAPEAE@Z 0000000180036c50 f i libvcruntimed:risctrnsctrl.obj
 0001:00035c90       ?ReadUnsigned@FH4@@YAIPEAPEAE@Z 0000000180036c90 f i libvcruntimed:risctrnsctrl.obj
 0001:00035d20       ?UnwindNestedFrames@__FrameHandler3@@SAXPEA_KPEAUEHExceptionRecord@@PEAU_CONTEXT@@0PEAXPEBU_s_FuncInfo@@HHPEBU_s_HandlerType@@PEAU_xDISPATCHER_CONTEXT@@E@Z 0000000180036d20 f   libvcruntimed:risctrnsctrl.obj
 0001:00035e90       ?UnwindNestedFrames@__FrameHandler4@@SAXPEA_KPEAUEHExceptionRecord@@PEAU_CONTEXT@@0PEAXPEAUFuncInfo4@FH4@@HHPEAUHandlerType4@5@PEAU_xDISPATCHER_CONTEXT@@E@Z 0000000180036e90 f   libvcruntimed:risctrnsctrl.obj
 0001:00036060       ?begin@TryBlockMap4@FH4@@QEAA?AViterator@12@XZ 0000000180037060 f i libvcruntimed:risctrnsctrl.obj
 0001:00036090       ?end@TryBlockMap4@FH4@@QEAA?AViterator@12@XZ 0000000180037090 f i libvcruntimed:risctrnsctrl.obj
 0001:000360c0       ?imageRelToByteBuffer@FH4@@YAPEAE_KH@Z 00000001800370c0 f i libvcruntimed:risctrnsctrl.obj
 0001:000360e0       ?incrementToSentinel@iterator@TryBlockMap4@FH4@@QEAAXXZ 00000001800370e0 f i libvcruntimed:risctrnsctrl.obj
 0001:00036100       ?setBuffer@TryBlockMap4@FH4@@QEAAXViterator@12@@Z 0000000180037100 f i libvcruntimed:risctrnsctrl.obj
 0001:00036170       _CreateFrameInfo           0000000180037170 f   libvcruntimed:risctrnsctrl.obj
 0001:000361e0       _FindAndUnlinkFrame        00000001800371e0 f   libvcruntimed:risctrnsctrl.obj
 0001:00036260       _GetImageBase              0000000180037260 f   libvcruntimed:risctrnsctrl.obj
 0001:00036280       _GetThrowImageBase         0000000180037280 f   libvcruntimed:risctrnsctrl.obj
 0001:000362a0       _SetImageBase              00000001800372a0 f   libvcruntimed:risctrnsctrl.obj
 0001:000362c0       _SetThrowImageBase         00000001800372c0 f   libvcruntimed:risctrnsctrl.obj
 0001:000362e0       __CxxFrameHandler          00000001800372e0 f   libvcruntimed:risctrnsctrl.obj
 0001:00036320       __CxxFrameHandler2         0000000180037320 f   libvcruntimed:risctrnsctrl.obj
 0001:00036360       __CxxFrameHandler3         0000000180037360 f   libvcruntimed:risctrnsctrl.obj
 0001:00036440       __CxxFrameHandler4         0000000180037440 f   libvcruntimed:risctrnsctrl.obj
 0001:00036550       __C_specific_handler_noexcept 0000000180037550 f   libvcruntimed:chandler_noexcept.obj
 0001:000365e0       __DestructExceptionObject  00000001800375e0 f   libvcruntimed:ehhelpers.obj
 0001:000366e0       ?_CallMemberFunction0@@YAXQEAX0@Z 00000001800376e0 f i libvcruntimed:ehhelpers.obj
 0001:000367b0       ?raw_name@type_info@@QEBAPEBDXZ 00000001800377b0 f i libvcruntimed:ehhelpers.obj
 0001:000367c0       _IsExceptionObjectToBeDestroyed 00000001800377c0 f   libvcruntimed:ehhelpers.obj
 0001:00036810       _SetWinRTOutOfMemoryExceptionCallback 0000000180037810 f   libvcruntimed:ehhelpers.obj
 0001:00036830       __AdjustPointer            0000000180037830 f   libvcruntimed:ehhelpers.obj
 0001:000368b0       __FrameUnwindFilter        00000001800378b0 f   libvcruntimed:ehhelpers.obj
 0001:00036960       __GetPlatformExceptionInfo 0000000180037960 f   libvcruntimed:ehhelpers.obj
 0001:00036a10       __current_exception        0000000180037a10 f   libvcruntimed:ehhelpers.obj
 0001:00036a30       __current_exception_context 0000000180037a30 f   libvcruntimed:ehhelpers.obj
 0001:00036a50       __processing_throw         0000000180037a50 f   libvcruntimed:ehhelpers.obj
 0001:00036a70       __std_terminate            0000000180037a70 f   libvcruntimed:ehhelpers.obj
 0001:00036a80       _is_exception_typeof       0000000180037a80 f   libvcruntimed:ehhelpers.obj
 0001:00036c10       ??$?RD@__crt_internal_free_policy@@QEBAXQEBD@Z 0000000180037c10 f i libvcruntimed:std_type_info.obj
 0001:00036c40       ??$?RX@__crt_internal_free_policy@@QEBAXQEBX@Z 0000000180037c40 f i libvcruntimed:std_type_info.obj
 0001:00036c70       ??$__crt_interlocked_compare_exchange_pointer@$$CBDPEAD$$T@@YAPEBDPEDSEBDQEAD$$T@Z 0000000180037c70 f i libvcruntimed:std_type_info.obj
 0001:00036cb0       ??$__crt_interlocked_read_pointer@$$CBD@@YAPEBDPEDSEBD@Z 0000000180037cb0 f i libvcruntimed:std_type_info.obj
 0001:00036cd0       ??0?$__crt_unique_heap_ptr@DU__crt_internal_free_policy@@@@QEAA@QEAD@Z 0000000180037cd0 f i libvcruntimed:std_type_info.obj
 0001:00036cf0       ??0?$__crt_unique_heap_ptr@XU__crt_internal_free_policy@@@@QEAA@QEAX@Z 0000000180037cf0 f i libvcruntimed:std_type_info.obj
 0001:00036d10       ??1?$__crt_unique_heap_ptr@DU__crt_internal_free_policy@@@@QEAA@XZ 0000000180037d10 f i libvcruntimed:std_type_info.obj
 0001:00036d30       ??1?$__crt_unique_heap_ptr@XU__crt_internal_free_policy@@@@QEAA@XZ 0000000180037d30 f i libvcruntimed:std_type_info.obj
 0001:00036d50       ??B?$__crt_unique_heap_ptr@DU__crt_internal_free_policy@@@@QEBA_NXZ 0000000180037d50 f i libvcruntimed:std_type_info.obj
 0001:00036d70       ??B?$__crt_unique_heap_ptr@XU__crt_internal_free_policy@@@@QEBA_NXZ 0000000180037d70 f i libvcruntimed:std_type_info.obj
 0001:00036e10       ?detach@?$__crt_unique_heap_ptr@XU__crt_internal_free_policy@@@@QEAAPEAXXZ 0000000180037e10 f i libvcruntimed:std_type_info.obj
 0001:00036e40       ?get@?$__crt_unique_heap_ptr@DU__crt_internal_free_policy@@@@QEBAPEADXZ 0000000180037e40 f i libvcruntimed:std_type_info.obj
 0001:00036e50       ?get@?$__crt_unique_heap_ptr@XU__crt_internal_free_policy@@@@QEBAPEAXXZ 0000000180037e50 f i libvcruntimed:std_type_info.obj
 0001:00036e60       ?is_valid@?$__crt_unique_heap_ptr@DU__crt_internal_free_policy@@@@QEBA_NXZ 0000000180037e60 f i libvcruntimed:std_type_info.obj
 0001:00036e90       ?is_valid@?$__crt_unique_heap_ptr@XU__crt_internal_free_policy@@@@QEBA_NXZ 0000000180037e90 f i libvcruntimed:std_type_info.obj
 0001:00036ec0       ?release@?$__crt_unique_heap_ptr@DU__crt_internal_free_policy@@@@QEAAXXZ 0000000180037ec0 f i libvcruntimed:std_type_info.obj
 0001:00036ef0       ?release@?$__crt_unique_heap_ptr@XU__crt_internal_free_policy@@@@QEAAXXZ 0000000180037ef0 f i libvcruntimed:std_type_info.obj
 0001:00036f20       __std_type_info_compare    0000000180037f20 f   libvcruntimed:std_type_info.obj
 0001:00036f60       __std_type_info_destroy_list 0000000180037f60 f   libvcruntimed:std_type_info.obj
 0001:00036fc0       __std_type_info_hash       0000000180037fc0 f   libvcruntimed:std_type_info.obj
 0001:00037070       __std_type_info_name       0000000180038070 f   libvcruntimed:std_type_info.obj
 0001:00037320       __vcrt_GetModuleFileNameW  0000000180038320 f   libvcruntimed:winapi_thunks.obj
 0001:00037350       __vcrt_GetModuleHandleW    0000000180038350 f   libvcruntimed:winapi_thunks.obj
 0001:00037370       __vcrt_LoadLibraryExW      0000000180038370 f   libvcruntimed:winapi_thunks.obj
 0001:000373a0       ??$?RD@__crt_public_free_policy@@QEBAXQEBD@Z 00000001800383a0 f i libvcruntimed:std_exception.obj
 0001:000373c0       ??0?$__crt_unique_heap_ptr@DU__crt_public_free_policy@@@@QEAA@QEAD@Z 00000001800383c0 f i libvcruntimed:std_exception.obj
 0001:000373e0       ??1?$__crt_unique_heap_ptr@DU__crt_public_free_policy@@@@QEAA@XZ 00000001800383e0 f i libvcruntimed:std_exception.obj
 0001:00037400       ??B?$__crt_unique_heap_ptr@DU__crt_public_free_policy@@@@QEBA_NXZ 0000000180038400 f i libvcruntimed:std_exception.obj
 0001:00037420       ?detach@?$__crt_unique_heap_ptr@DU__crt_public_free_policy@@@@QEAAPEADXZ 0000000180038420 f i libvcruntimed:std_exception.obj
 0001:00037450       ?get@?$__crt_unique_heap_ptr@DU__crt_public_free_policy@@@@QEBAPEADXZ 0000000180038450 f i libvcruntimed:std_exception.obj
 0001:00037460       ?is_valid@?$__crt_unique_heap_ptr@DU__crt_public_free_policy@@@@QEBA_NXZ 0000000180038460 f i libvcruntimed:std_exception.obj
 0001:00037490       ?release@?$__crt_unique_heap_ptr@DU__crt_public_free_policy@@@@QEAAXXZ 0000000180038490 f i libvcruntimed:std_exception.obj
 0001:000374c0       __std_exception_copy       00000001800384c0 f   libvcruntimed:std_exception.obj
 0001:00037600       __std_exception_destroy    0000000180038600 f   libvcruntimed:std_exception.obj
 0001:00037640       _CxxThrowException         0000000180038640 f   libvcruntimed:throw.obj
 0001:00037770       ??$?RU__vcrt_ptd@@@__crt_internal_free_policy@@QEBAXQEBU__vcrt_ptd@@@Z 0000000180038770 f i libvcruntimed:per_thread_data.obj
 0001:000377a0       ??0?$__crt_unique_heap_ptr@U__vcrt_ptd@@U__crt_internal_free_policy@@@@QEAA@QEAU__vcrt_ptd@@@Z 00000001800387a0 f i libvcruntimed:per_thread_data.obj
 0001:000377e0       ??1?$__crt_unique_heap_ptr@U__vcrt_ptd@@U__crt_internal_free_policy@@@@QEAA@XZ 00000001800387e0 f i libvcruntimed:per_thread_data.obj
 0001:00037820       ??B?$__crt_unique_heap_ptr@U__vcrt_ptd@@U__crt_internal_free_policy@@@@QEBA_NXZ 0000000180038820 f i libvcruntimed:per_thread_data.obj
 0001:00037840       ?detach@?$__crt_unique_heap_ptr@U__vcrt_ptd@@U__crt_internal_free_policy@@@@QEAAPEAU__vcrt_ptd@@XZ 0000000180038840 f i libvcruntimed:per_thread_data.obj
 0001:00037870       ?get@?$__crt_unique_heap_ptr@U__vcrt_ptd@@U__crt_internal_free_policy@@@@QEBAPEAU__vcrt_ptd@@XZ 0000000180038870 f i libvcruntimed:per_thread_data.obj
 0001:00037880       ?is_valid@?$__crt_unique_heap_ptr@U__vcrt_ptd@@U__crt_internal_free_policy@@@@QEBA_NXZ 0000000180038880 f i libvcruntimed:per_thread_data.obj
 0001:000378b0       ?release@?$__crt_unique_heap_ptr@U__vcrt_ptd@@U__crt_internal_free_policy@@@@QEAAXXZ 00000001800388b0 f i libvcruntimed:per_thread_data.obj
 0001:00037920       __vcrt_freefls             0000000180038920 f   libvcruntimed:per_thread_data.obj
 0001:00037960       __vcrt_freeptd             0000000180038960 f   libvcruntimed:per_thread_data.obj
 0001:000379c0       __vcrt_getptd              00000001800389c0 f   libvcruntimed:per_thread_data.obj
 0001:000379f0       __vcrt_getptd_noexit       00000001800389f0 f   libvcruntimed:per_thread_data.obj
 0001:00037b90       __vcrt_getptd_noinit       0000000180038b90 f   libvcruntimed:per_thread_data.obj
 0001:00037bf0       __vcrt_initialize_ptd      0000000180038bf0 f   libvcruntimed:per_thread_data.obj
 0001:00037c40       __vcrt_uninitialize_ptd    0000000180038c40 f   libvcruntimed:per_thread_data.obj
 0001:00037c70       __vcrt_initialize_locks    0000000180038c70 f   libvcruntimed:locks.obj
 0001:00037ce0       __vcrt_lock                0000000180038ce0 f   libvcruntimed:locks.obj
 0001:00037d10       __vcrt_uninitialize_locks  0000000180038d10 f   libvcruntimed:locks.obj
 0001:00037d70       __vcrt_unlock              0000000180038d70 f   libvcruntimed:locks.obj
 0001:00037db0       _NLG_Notify                0000000180038db0 f   libvcruntimed:notify.obj
 0001:00037dd0       __NLG_Dispatch2            0000000180038dd0 f   libvcruntimed:notify.obj
 0001:00037de0       __NLG_Return2              0000000180038de0 f   libvcruntimed:notify.obj
 0001:00037e00       __except_validate_context_record 0000000180038e00 f   libvcruntimed:jbcxrval.obj
 0001:00037e60       __except_validate_jump_buffer 0000000180038e60 f   libvcruntimed:jbcxrval.obj
 0001:00037e80       __except_validate_jump_buffer_common 0000000180038e80 f i libvcruntimed:jbcxrval.obj
 0001:00037f00       ?GetCurrentState@__FrameHandler3@@SAHPEA_KPEAU_xDISPATCHER_CONTEXT@@PEBU_s_FuncInfo@@@Z 0000000180038f00 f   libvcruntimed:ehstate.obj
 0001:00037f60       ?GetUnwindTryBlock@__FrameHandler3@@SAHPEA_KPEAU_xDISPATCHER_CONTEXT@@PEBU_s_FuncInfo@@@Z 0000000180038f60 f   libvcruntimed:ehstate.obj
 0001:00037fb0       ?SetState@__FrameHandler3@@SAXPEA_KPEBU_s_FuncInfo@@H@Z 0000000180038fb0 f   libvcruntimed:ehstate.obj
 0001:00037fe0       ?SetUnwindTryBlock@__FrameHandler3@@SAXPEA_KPEAU_xDISPATCHER_CONTEXT@@PEBU_s_FuncInfo@@H@Z 0000000180038fe0 f   libvcruntimed:ehstate.obj
 0001:00038050       ?StateFromControlPc@__FrameHandler3@@SAHPEBU_s_FuncInfo@@PEAU_xDISPATCHER_CONTEXT@@@Z 0000000180039050 f   libvcruntimed:ehstate.obj
 0001:00038090       ?StateFromControlPc@__FrameHandler4@@SAHPEAUFuncInfo4@FH4@@PEAU_xDISPATCHER_CONTEXT@@@Z 0000000180039090 f   libvcruntimed:ehstate.obj
 0001:000380d0       ?StateFromIp@__FrameHandler3@@SAHPEBU_s_FuncInfo@@PEAU_xDISPATCHER_CONTEXT@@_K@Z 00000001800390d0 f   libvcruntimed:ehstate.obj
 0001:000381c0       ?StateFromIp@__FrameHandler4@@SAHPEAUFuncInfo4@FH4@@PEAU_xDISPATCHER_CONTEXT@@_K@Z 00000001800391c0 f   libvcruntimed:ehstate.obj
 0001:000382b0       ?__FuncRelToRealOffset@@YA_KPEAU_xDISPATCHER_CONTEXT@@I@Z 00000001800392b0 f i libvcruntimed:ehstate.obj
 0001:000382e0       ?__RVAtoRealOffset@@YA_KPEAU_xDISPATCHER_CONTEXT@@H@Z 00000001800392e0 f i libvcruntimed:ehstate.obj
 0001:0003a540       ??$TypeMatchHelper@V__FrameHandler3@@@@YAHPEBU_s_HandlerType@@PEBU_s_CatchableType@@PEBU_s_ThrowInfo@@@Z 000000018003b540 f i libvcruntimed:frame.obj
 0001:0003a740       ??$TypeMatchHelper@V__FrameHandler4@@@@YAHPEAUHandlerType4@FH4@@PEBU_s_CatchableType@@PEBU_s_ThrowInfo@@@Z 000000018003b740 f i libvcruntimed:frame.obj
 0001:0003a950       ??$__InternalCxxFrameHandler@V__FrameHandler3@@@@YA?AW4_EXCEPTION_DISPOSITION@@PEAUEHExceptionRecord@@PEA_KPEAU_CONTEXT@@PEAU_xDISPATCHER_CONTEXT@@PEBU_s_FuncInfo@@H1E@Z 000000018003b950 f i libvcruntimed:frame.obj
 0001:0003adc0       ??$__InternalCxxFrameHandler@V__FrameHandler4@@@@YA?AW4_EXCEPTION_DISPOSITION@@PEAUEHExceptionRecord@@PEA_KPEAU_CONTEXT@@PEAU_xDISPATCHER_CONTEXT@@PEAUFuncInfo4@FH4@@H1E@Z 000000018003bdc0 f i libvcruntimed:frame.obj
 0001:0003b250       ??0HandlerMap4@FH4@@QEAA@PEBUTryBlockMapEntry4@1@_KH@Z 000000018003c250 f i libvcruntimed:frame.obj
 0001:0003b310       ??0HandlerMap@__FrameHandler3@@QEAA@PEBU_s_TryBlockMapEntry@@_KI@Z 000000018003c310 f i libvcruntimed:frame.obj
 0001:0003b360       ??0HandlerType4@FH4@@QEAA@XZ 000000018003c360 f i libvcruntimed:frame.obj
 0001:0003b380       ??0TryBlockMap4@FH4@@QEAA@PEBUFuncInfo4@1@_K@Z 000000018003c380 f i libvcruntimed:frame.obj
 0001:0003b410       ??0TryBlockMap@__FrameHandler3@@QEAA@PEBU_s_FuncInfo@@_K@Z 000000018003c410 f i libvcruntimed:frame.obj
 0001:0003b440       ??0UWMap4@FH4@@QEAA@PEBUFuncInfo4@1@_K@Z 000000018003c440 f i libvcruntimed:frame.obj
 0001:0003b4b0       ??0bad_exception@std@@QEAA@AEBV01@@Z 000000018003c4b0 f i libvcruntimed:frame.obj
 0001:0003b4f0       ??0bad_exception@std@@QEAA@XZ 000000018003c4f0 f i libvcruntimed:frame.obj
 0001:0003b530       ??0iterator@HandlerMap4@FH4@@QEAA@AEAV12@I@Z 000000018003c530 f i libvcruntimed:frame.obj
 0001:0003b560       ??0iterator@HandlerMap@__FrameHandler3@@QEAA@AEAV12@I@Z 000000018003c560 f i libvcruntimed:frame.obj
 0001:0003b590       ??0iterator@UWMap4@FH4@@QEAA@AEAV12@PEAE@Z 000000018003c590 f i libvcruntimed:frame.obj
 0001:0003b5c0       ??1bad_exception@std@@UEAA@XZ 000000018003c5c0 f i libvcruntimed:frame.obj
 0001:0003b5e0       ??4iterator@UWMap4@FH4@@QEAAAEAV012@AEBV012@@Z 000000018003c5e0 f i libvcruntimed:frame.obj
 0001:0003b630       ??8iterator@HandlerMap4@FH4@@QEBA_NAEBV012@@Z 000000018003c630 f i libvcruntimed:frame.obj
 0001:0003b670       ??8iterator@HandlerMap@__FrameHandler3@@QEBA_NAEBV012@@Z 000000018003c670 f i libvcruntimed:frame.obj
 0001:0003b6b0       ??8type_info@@QEBA_NAEBV0@@Z 000000018003c6b0 f i libvcruntimed:frame.obj
 0001:0003b700       ??9iterator@HandlerMap4@FH4@@QEBA_NAEBV012@@Z 000000018003c700 f i libvcruntimed:frame.obj
 0001:0003b740       ??9iterator@HandlerMap@__FrameHandler3@@QEBA_NAEBV012@@Z 000000018003c740 f i libvcruntimed:frame.obj
 0001:0003b780       ??Diterator@HandlerMap4@FH4@@QEAA?AUHandlerType4@2@XZ 000000018003c780 f i libvcruntimed:frame.obj
 0001:0003b7b0       ??Diterator@HandlerMap@__FrameHandler3@@QEAA?BU_s_HandlerType@@XZ 000000018003c7b0 f i libvcruntimed:frame.obj
 0001:0003b7f0       ??Diterator@TryBlockMap@__FrameHandler3@@QEAA?BU_s_TryBlockMapEntry@@XZ 000000018003c7f0 f i libvcruntimed:frame.obj
 0001:0003b840       ??Diterator@UWMap4@FH4@@QEAA?AUUnwindMapEntry4@2@XZ 000000018003c840 f i libvcruntimed:frame.obj
 0001:0003b8c0       ??Eiterator@HandlerMap4@FH4@@QEAAAEAV012@XZ 000000018003c8c0 f i libvcruntimed:frame.obj
 0001:0003b900       ??Eiterator@HandlerMap@__FrameHandler3@@QEAAAEAV012@XZ 000000018003c900 f i libvcruntimed:frame.obj
 0001:0003b920       ??Eiterator@TryBlockMap@__FrameHandler3@@QEAAAEAV012@XZ 000000018003c920 f i libvcruntimed:frame.obj
 0001:0003b940       ??Eiterator@UWMap4@FH4@@QEAAAEAV012@XZ 000000018003c940 f i libvcruntimed:frame.obj
 0001:0003b980       ??Giterator@UWMap4@FH4@@QEBA_JAEBV012@@Z 000000018003c980 f i libvcruntimed:frame.obj
 0001:0003b9a0       ??Miterator@TryBlockMap4@FH4@@QEBA_NAEBV012@@Z 000000018003c9a0 f i libvcruntimed:frame.obj
 0001:0003b9e0       ??Miterator@TryBlockMap@__FrameHandler3@@QEBA_NAEBV012@@Z 000000018003c9e0 f i libvcruntimed:frame.obj
 0001:0003ba20       ??Oiterator@UWMap4@FH4@@QEBA_NAEBV012@@Z 000000018003ca20 f i libvcruntimed:frame.obj
 0001:0003ba60       ??Piterator@UWMap4@FH4@@QEBA_NAEBV012@@Z 000000018003ca60 f i libvcruntimed:frame.obj
 0001:0003baa0       ??_Ebad_exception@std@@UEAAPEAXI@Z 000000018003caa0 f i libvcruntimed:frame.obj
 0001:0003baa0       ??_Gbad_exception@std@@UEAAPEAXI@Z 000000018003caa0 f i libvcruntimed:frame.obj
 0001:0003bae0       ?BuildCatchObject@__FrameHandler3@@SAXPEAUEHExceptionRecord@@PEAXPEBU_s_HandlerType@@PEBU_s_CatchableType@@@Z 000000018003cae0 f   libvcruntimed:frame.obj
 0001:0003bb20       ?BuildCatchObject@__FrameHandler4@@SAXPEAUEHExceptionRecord@@PEAXPEAUHandlerType4@FH4@@PEBU_s_CatchableType@@@Z 000000018003cb20 f   libvcruntimed:frame.obj
 0001:0003bb60       ?BuildCatchObjectHelper@__FrameHandler3@@SAHPEAUEHExceptionRecord@@PEAXPEBU_s_HandlerType@@PEBU_s_CatchableType@@@Z 000000018003cb60 f   libvcruntimed:frame.obj
 0001:0003bba0       ?BuildCatchObjectHelper@__FrameHandler4@@SAHPEAUEHExceptionRecord@@PEAXPEAUHandlerType4@FH4@@PEBU_s_CatchableType@@@Z 000000018003cba0 f   libvcruntimed:frame.obj
 0001:0003bbe0       ?CxxCallCatchBlock@__FrameHandler3@@SAPEAXPEAU_EXCEPTION_RECORD@@@Z 000000018003cbe0 f   libvcruntimed:frame.obj
 0001:0003be40       ?CxxCallCatchBlock@__FrameHandler4@@SAPEAXPEAU_EXCEPTION_RECORD@@@Z 000000018003ce40 f   libvcruntimed:frame.obj
 0001:0003c170       ?DecompHandler@HandlerMap4@FH4@@AEAAXXZ 000000018003d170 f i libvcruntimed:frame.obj
 0001:0003c540       ?FrameUnwindToState@__FrameHandler3@@SAXPEA_KPEAU_xDISPATCHER_CONTEXT@@PEBU_s_FuncInfo@@H@Z 000000018003d540 f   libvcruntimed:frame.obj
 0001:0003c790       ?FrameUnwindToState@__FrameHandler4@@SAXPEA_KPEAU_xDISPATCHER_CONTEXT@@PEAUFuncInfo4@FH4@@H@Z 000000018003d790 f   libvcruntimed:frame.obj
 0001:0003caa0       ?GetHandlerSearchState@__FrameHandler3@@SAHPEA_KPEAU_xDISPATCHER_CONTEXT@@PEBU_s_FuncInfo@@@Z 000000018003daa0 f i libvcruntimed:frame.obj
 0001:0003cb50       ?GetHandlerSearchState@__FrameHandler4@@SAHPEA_KPEAU_xDISPATCHER_CONTEXT@@PEAUFuncInfo4@FH4@@@Z 000000018003db50 f i libvcruntimed:frame.obj
 0001:0003cbd0       ?GetMaxState@__FrameHandler3@@SAHPEAU_xDISPATCHER_CONTEXT@@PEBU_s_FuncInfo@@@Z 000000018003dbd0 f i libvcruntimed:frame.obj
 0001:0003cbf0       ?GetMaxState@__FrameHandler4@@SAHPEAU_xDISPATCHER_CONTEXT@@PEAUFuncInfo4@FH4@@@Z 000000018003dbf0 f i libvcruntimed:frame.obj
 0001:0003ce20       ?ReadEntry@UWMap4@FH4@@AEAAXPEAPEAE@Z 000000018003de20 f i libvcruntimed:frame.obj
 0001:0003ced0       ?TypeMatch@__FrameHandler3@@SAHPEBU_s_HandlerType@@PEBU_s_CatchableType@@PEBU_s_ThrowInfo@@@Z 000000018003ded0 f   libvcruntimed:frame.obj
 0001:0003cf00       ?TypeMatch@__FrameHandler4@@SAHPEAUHandlerType4@FH4@@PEBU_s_CatchableType@@PEBU_s_ThrowInfo@@@Z 000000018003df00 f   libvcruntimed:frame.obj
 0001:0003cf30       ?WalkBack@UWMap4@FH4@@AEAAXPEAPEAE@Z 000000018003df30 f i libvcruntimed:frame.obj
 0001:0003cf80       ?WalkBack@iterator@UWMap4@FH4@@QEAAXXZ 000000018003df80 f i libvcruntimed:frame.obj
 0001:0003cfc0       ?WalkForward@UWMap4@FH4@@AEAAXPEAPEAE@Z 000000018003dfc0 f i libvcruntimed:frame.obj
 0001:0003cff0       ?_CallMemberFunction1@@YAXQEAX00@Z 000000018003dff0 f i libvcruntimed:frame.obj
 0001:0003d030       ?_CallMemberFunction2@@YAXQEAX00H@Z 000000018003e030 f i libvcruntimed:frame.obj
 0001:0003d0c0       ?begin@HandlerMap4@FH4@@QEAA?AViterator@12@XZ 000000018003e0c0 f i libvcruntimed:frame.obj
 0001:0003d0f0       ?begin@HandlerMap@__FrameHandler3@@QEAA?AViterator@12@XZ 000000018003e0f0 f i libvcruntimed:frame.obj
 0001:0003d120       ?begin@UWMap4@FH4@@QEAA?AViterator@12@XZ 000000018003e120 f i libvcruntimed:frame.obj
 0001:0003d150       ?end@HandlerMap4@FH4@@QEAA?AViterator@12@XZ 000000018003e150 f i libvcruntimed:frame.obj
 0001:0003d180       ?end@HandlerMap@__FrameHandler3@@QEAA?AViterator@12@XZ 000000018003e180 f i libvcruntimed:frame.obj
 0001:0003d1b0       ?getESTypes@__FrameHandler3@@SAPEBU_s_ESTypeList@@PEBU_s_FuncInfo@@@Z 000000018003e1b0 f i libvcruntimed:frame.obj
 0001:0003d1f0       ?getESTypes@__FrameHandler4@@SAPEBU_s_ESTypeList@@PEAUFuncInfo4@FH4@@@Z 000000018003e1f0 f i libvcruntimed:frame.obj
 0001:0003d200       ?getLastEntry@HandlerMap4@FH4@@QEAAPEAUHandlerType4@2@XZ 000000018003e200 f i libvcruntimed:frame.obj
 0001:0003d240       ?getLastEntry@HandlerMap@__FrameHandler3@@QEAAPEBU_s_HandlerType@@XZ 000000018003e240 f i libvcruntimed:frame.obj
 0001:0003d260       ?getMagicNum@__FrameHandler3@@SAIPEBU_s_FuncInfo@@@Z 000000018003e260 f i libvcruntimed:frame.obj
 0001:0003d280       ?getMagicNum@__FrameHandler4@@SAIPEAUFuncInfo4@FH4@@@Z 000000018003e280 f i libvcruntimed:frame.obj
 0001:0003d290       ?getNumTryBlocks@TryBlockMap4@FH4@@QEAAIXZ 000000018003e290 f i libvcruntimed:frame.obj
 0001:0003d2a0       ?getNumTryBlocks@TryBlockMap@__FrameHandler3@@QEAAIXZ 000000018003e2a0 f i libvcruntimed:frame.obj
 0001:0003d2c0       ?getStartStop@UWMap4@FH4@@QEAAXHHAEAViterator@12@0@Z 000000018003e2c0 f i libvcruntimed:frame.obj
 0001:0003d3e0       ?getStateFromIterators@UWMap4@FH4@@SAHAEBViterator@12@H0H0@Z 000000018003e3e0 f i libvcruntimed:frame.obj
 0001:0003d520       ?isEHs@__FrameHandler3@@SA_NPEBU_s_FuncInfo@@@Z 000000018003e520 f i libvcruntimed:frame.obj
 0001:0003d560       ?isEHs@__FrameHandler4@@SA_NPEAUFuncInfo4@FH4@@@Z 000000018003e560 f i libvcruntimed:frame.obj
 0001:0003d580       ?isNoExcept@__FrameHandler3@@SA_NPEBU_s_FuncInfo@@@Z 000000018003e580 f i libvcruntimed:frame.obj
 0001:0003d5c0       ?isNoExcept@__FrameHandler4@@SA_NPEAUFuncInfo4@FH4@@@Z 000000018003e5c0 f i libvcruntimed:frame.obj
 0001:0003d5e0       ?reset@HandlerType4@FH4@@QEAAXXZ 000000018003e5e0 f i libvcruntimed:frame.obj
 0001:0003d640       ?resetBuffer@HandlerMap4@FH4@@QEAAXXZ 000000018003e640 f i libvcruntimed:frame.obj
 0001:0003d660       ?setBuffer@HandlerMap4@FH4@@QEAAXI@Z 000000018003e660 f i libvcruntimed:frame.obj
 0001:0003d6c0       __BuildCatchObject         000000018003e6c0 f   libvcruntimed:frame.obj
 0001:0003d700       __BuildCatchObjectHelper   000000018003e700 f   libvcruntimed:frame.obj
 0001:0003d740       __TypeMatch                000000018003e740 f   libvcruntimed:frame.obj
 0001:0003d770       __vcrt_EncodePointer       000000018003e770 f i libvcruntimed:frame.obj
 0001:0003d790       ??$?0$00@DName@@QEAA@PEBDU?$StringLifeSelector@$00@@@Z 000000018003e790 f i libvcruntimed:undname.obj
 0001:0003d800       ??$?0$00@pcharNode@@QEAA@PEBDHU?$StringLifeSelector@$00@@@Z 000000018003e800 f i libvcruntimed:undname.obj
 0001:0003d860       ??$?0$01@DName@@QEAA@PEBDU?$StringLifeSelector@$01@@@Z 000000018003e860 f i libvcruntimed:undname.obj
 0001:0003d8d0       ??$?0$01@pcharNode@@QEAA@PEBDHU?$StringLifeSelector@$01@@@Z 000000018003e8d0 f i libvcruntimed:undname.obj
 0001:0003d980       ??$?0$0A@@DName@@QEAA@PEBDU?$StringLifeSelector@$0A@@@@Z 000000018003e980 f i libvcruntimed:undname.obj
 0001:0003d9f0       ??$?0$0A@@pcharNode@@QEAA@PEBDHU?$StringLifeSelector@$0A@@@@Z 000000018003e9f0 f i libvcruntimed:undname.obj
 0001:0003daa0       ??$?0_K$0A@@?$optional@_K@std@@QEAA@$$QEA_K@Z 000000018003eaa0 f i libvcruntimed:undname.obj
 0001:0003daf0       ??$?0_K@?$_Optional_construct_base@_K@std@@QEAA@Uin_place_t@1@$$QEA_K@Z 000000018003eaf0 f i libvcruntimed:undname.obj
 0001:0003db20       ??$?0_K@?$_Optional_destruct_base@_K$00@std@@QEAA@Uin_place_t@1@$$QEA_K@Z 000000018003eb20 f i libvcruntimed:undname.obj
 0001:0003db60       ??$append@VDNameNode@@@DName@@AEAAXPEBVDNameNode@@@Z 000000018003eb60 f i libvcruntimed:undname.obj
 0001:0003dc10       ??$append@VDNameStatusNode@@@DName@@AEAAXPEBVDNameStatusNode@@@Z 000000018003ec10 f i libvcruntimed:undname.obj
 0001:0003dcc0       ??$append@VcharNode@@@DName@@AEAAXPEBVcharNode@@@Z 000000018003ecc0 f i libvcruntimed:undname.obj
 0001:0003dd70       ??$append@VpDNameNode@@@DName@@AEAAXPEBVpDNameNode@@@Z 000000018003ed70 f i libvcruntimed:undname.obj
 0001:0003de20       ??$append@VpcharNode@@@DName@@AEAAXPEBVpcharNode@@@Z 000000018003ee20 f i libvcruntimed:undname.obj
 0001:0003ded0       ??$doPchar@$00@DName@@AEAAXPEBDH@Z 000000018003eed0 f i libvcruntimed:undname.obj
 0001:0003e030       ??$doPchar@$01@DName@@AEAAXPEBDH@Z 000000018003f030 f i libvcruntimed:undname.obj
 0001:0003e190       ??$doPchar@$0A@@DName@@AEAAXPEBDH@Z 000000018003f190 f i libvcruntimed:undname.obj
 0001:0003e2f0       ??$forward@_K@std@@YA$$QEA_KAEA_K@Z 000000018003f2f0 f i libvcruntimed:undname.obj
 0001:0003e300       ??$size@D$04@std@@YA_KAEAY04$$CBD@Z 000000018003f300 f i libvcruntimed:undname.obj
 0001:0003e310       ??$size@D$0EB@@std@@YA_KAEAY0EB@$$CBD@Z 000000018003f310 f i libvcruntimed:undname.obj
 0001:0003e320       ??0?$_Optional_construct_base@_K@std@@QEAA@XZ 000000018003f320 f i libvcruntimed:undname.obj
 0001:0003e340       ??0?$_Optional_destruct_base@_K$00@std@@QEAA@XZ 000000018003f340 f i libvcruntimed:undname.obj
 0001:0003e370       ??0?$optional@_K@std@@QEAA@XZ 000000018003f370 f i libvcruntimed:undname.obj
 0001:0003e390       ??0Block@_HeapManager@@QEAA@XZ 000000018003f390 f i libvcruntimed:undname.obj
 0001:0003e3b0       ??0DName@@QEAA@AEAPEBDD@Z  000000018003f3b0 f   libvcruntimed:undname.obj
 0001:0003e580       ??0DName@@QEAA@AEBUStringLiteral@@@Z 000000018003f580 f   libvcruntimed:undname.obj
 0001:0003e5e0       ??0DName@@QEAA@AEBV0@@Z    000000018003f5e0 f i libvcruntimed:undname.obj
 0001:0003e610       ??0DName@@QEAA@D@Z         000000018003f610 f   libvcruntimed:undname.obj
 0001:0003e650       ??0DName@@QEAA@PEAV0@@Z    000000018003f650 f   libvcruntimed:undname.obj
 0001:0003e730       ??0DName@@QEAA@W4DNameStatus@@@Z 000000018003f730 f   libvcruntimed:undname.obj
 0001:0003e7e0       ??0DName@@QEAA@XZ          000000018003f7e0 f i libvcruntimed:undname.obj
 0001:0003e810       ??0DName@@QEAA@_J@Z        000000018003f810 f   libvcruntimed:undname.obj
 0001:0003e920       ??0DName@@QEAA@_K@Z        000000018003f920 f   libvcruntimed:undname.obj
 0001:0003e9f0       ??0DNameNode@@IEAA@XZ      000000018003f9f0 f i libvcruntimed:undname.obj
 0001:0003ea10       ??0Replicator@@QEAA@XZ     000000018003fa10 f i libvcruntimed:undname.obj
 0001:0003ea50       ??0UnDecorator@@QEAA@PEBDP6APEADJ@ZK@Z 000000018003fa50 f i libvcruntimed:undname.obj
 0001:0003eb00       ??0_Nontrivial_dummy_type@std@@QEAA@XZ 000000018003fb00 f i libvcruntimed:undname.obj
 0001:0003eb10       ??0charNode@@QEAA@D@Z      000000018003fb10 f i libvcruntimed:undname.obj
 0001:0003eb50       ??0pDNameNode@@QEAA@PEAVDName@@@Z 000000018003fb50 f   libvcruntimed:undname.obj
 0001:0003ebd0       ??0pairNode@@QEAA@PEBVDNameNode@@0@Z 000000018003fbd0 f i libvcruntimed:undname.obj
 0001:0003ec50       ??2@YAPEAX_KAEAV_HeapManager@@H@Z 000000018003fc50 f   libvcruntimed:undname.obj
 0001:0003ecb0       ??4DName@@QEAAAEAV0@AEBUStringLiteral@@@Z 000000018003fcb0 f   libvcruntimed:undname.obj
 0001:0003ed00       ??4DName@@QEAAAEAV0@AEBV0@@Z 000000018003fd00 f   libvcruntimed:undname.obj
 0001:0003ed30       ??4DName@@QEAAAEAV0@D@Z    000000018003fd30 f i libvcruntimed:undname.obj
 0001:0003ed70       ??4DName@@QEAAAEAV0@PEAV0@@Z 000000018003fd70 f   libvcruntimed:undname.obj
 0001:0003ee40       ??4DName@@QEAAAEAV0@W4DNameStatus@@@Z 000000018003fe40 f   libvcruntimed:undname.obj
 0001:0003eed0       ??AReplicator@@QEBA?AVDName@@H@Z 000000018003fed0 f   libvcruntimed:undname.obj
 0001:0003ef60       ??B?$optional@_K@std@@QEBA_NXZ 000000018003ff60 f i libvcruntimed:undname.obj
 0001:0003ef70       ??D?$optional@_K@std@@QEGAAAEA_KXZ 000000018003ff70 f i libvcruntimed:undname.obj
 0001:0003f010       ??H@YA?AVDName@@AEBUStringLiteral@@AEBV0@@Z 0000000180040010 f i libvcruntimed:undname.obj
 0001:0003f060       ??H@YA?AVDName@@DAEBV0@@Z  0000000180040060 f i libvcruntimed:undname.obj
 0001:0003f0b0       ??H@YA?AVDName@@W4DNameStatus@@AEBV0@@Z 00000001800400b0 f i libvcruntimed:undname.obj
 0001:0003f100       ??HDName@@QEBA?AV0@AEBUStringLiteral@@@Z 0000000180040100 f   libvcruntimed:undname.obj
 0001:0003f150       ??HDName@@QEBA?AV0@AEBV0@@Z 0000000180040150 f   libvcruntimed:undname.obj
 0001:0003f1a0       ??HDName@@QEBA?AV0@D@Z     00000001800401a0 f   libvcruntimed:undname.obj
 0001:0003f1f0       ??HDName@@QEBA?AV0@PEAV0@@Z 00000001800401f0 f   libvcruntimed:undname.obj
 0001:0003f240       ??HDName@@QEBA?AV0@W4DNameStatus@@@Z 0000000180040240 f   libvcruntimed:undname.obj
 0001:0003f290       ??HStringLiteral@@QEBA?AU0@H@Z 0000000180040290 f i libvcruntimed:undname.obj
 0001:0003f2d0       ??YDName@@QEAAAEAV0@AEBUStringLiteral@@@Z 00000001800402d0 f   libvcruntimed:undname.obj
 0001:0003f3a0       ??YDName@@QEAAAEAV0@AEBV0@@Z 00000001800403a0 f   libvcruntimed:undname.obj
 0001:0003f460       ??YDName@@QEAAAEAV0@D@Z    0000000180040460 f   libvcruntimed:undname.obj
 0001:0003f500       ??YDName@@QEAAAEAV0@PEAV0@@Z 0000000180040500 f   libvcruntimed:undname.obj
 0001:0003f5e0       ??YDName@@QEAAAEAV0@W4DNameStatus@@@Z 00000001800405e0 f   libvcruntimed:undname.obj
 0001:0003f650       ??YReplicator@@QEAAAEAV0@AEBVDName@@@Z 0000000180040650 f   libvcruntimed:undname.obj
 0001:0003f710       ??_5DName@@QEAAAEAV0@AEBV0@@Z 0000000180040710 f   libvcruntimed:undname.obj
 0001:0003f780       ??__K_l@@YA?AUStringLiteral@@PEBD_K@Z 0000000180040780 f i libvcruntimed:undname.obj
 0001:0003f7d0       ?Constructor@_HeapManager@@QEAAXP6APEAX_K@ZP6AXPEAX@Z@Z 00000001800407d0 f i libvcruntimed:undname.obj
 0001:0003f830       ?Destructor@_HeapManager@@QEAAXXZ 0000000180040830 f i libvcruntimed:undname.obj
 0001:0003f8d0       ?UScore@UnDecorator@@SA?AUStringLiteral@@W4Tokens@@@Z 00000001800408d0 f   libvcruntimed:undname.obj
 0001:0003f960       ?composeDeclaration@UnDecorator@@CA?AVDName@@AEBV2@@Z 0000000180040960 f i libvcruntimed:undname.obj
 0001:00041e60       ?dbGetString@DName@@QEBAPEADXZ 0000000180042e60 f   libvcruntimed:undname.obj
 0001:00041e90       ?doAccessSpecifiers@UnDecorator@@SAHXZ 0000000180042e90 f i libvcruntimed:undname.obj
 0001:00041ec0       ?doAllocationLanguage@UnDecorator@@SAHXZ 0000000180042ec0 f i libvcruntimed:undname.obj
 0001:00041ef0       ?doAllocationModel@UnDecorator@@SAHXZ 0000000180042ef0 f i libvcruntimed:undname.obj
 0001:00041f20       ?doEcsu@UnDecorator@@SAHXZ 0000000180042f20 f i libvcruntimed:undname.obj
 0001:00041f50       ?doEllipsis@UnDecorator@@SAHXZ 0000000180042f50 f i libvcruntimed:undname.obj
 0001:00041f80       ?doFunctionReturns@UnDecorator@@SAHXZ 0000000180042f80 f i libvcruntimed:undname.obj
 0001:00041fb0       ?doMSKeywords@UnDecorator@@SAHXZ 0000000180042fb0 f i libvcruntimed:undname.obj
 0001:00041fe0       ?doMemberTypes@UnDecorator@@SAHXZ 0000000180042fe0 f i libvcruntimed:undname.obj
 0001:00042010       ?doNameOnly@UnDecorator@@SAHXZ 0000000180043010 f i libvcruntimed:undname.obj
 0001:00042020       ?doNoIdentCharCheck@UnDecorator@@SAHXZ 0000000180043020 f i libvcruntimed:undname.obj
 0001:00042030       ?doPchar@DName@@AEAAXD@Z   0000000180043030 f   libvcruntimed:undname.obj
 0001:000420c0       ?doPtr64@UnDecorator@@SAHXZ 00000001800430c0 f i libvcruntimed:undname.obj
 0001:000420f0       ?doRestrictionSpec@UnDecorator@@SAHXZ 00000001800430f0 f i libvcruntimed:undname.obj
 0001:00042120       ?doThisTypes@UnDecorator@@SAHXZ 0000000180043120 f i libvcruntimed:undname.obj
 0001:00042150       ?doThrowTypes@UnDecorator@@SAHXZ 0000000180043150 f i libvcruntimed:undname.obj
 0001:00042180       ?doTypeOnly@UnDecorator@@SAHXZ 0000000180043180 f i libvcruntimed:undname.obj
 0001:00042190       ?doUnderScore@UnDecorator@@SAHXZ 0000000180043190 f i libvcruntimed:undname.obj
 0001:000421c0       ?getAddressOf@UnDecorator@@CA?AVDName@@XZ 00000001800431c0 f   libvcruntimed:undname.obj
 0001:00042260       ?getArgumentList@UnDecorator@@CA?AVDName@@XZ 0000000180043260 f   libvcruntimed:undname.obj
 0001:00042400       ?getArgumentTypes@UnDecorator@@CA?AVDName@@XZ 0000000180043400 f   libvcruntimed:undname.obj
 0001:000426e0       ?getArrayAccess@UnDecorator@@CA?AVDName@@XZ 00000001800436e0 f   libvcruntimed:undname.obj
 0001:000427a0       ?getArrayObject@UnDecorator@@CA?AVDName@@XZ 00000001800437a0 f   libvcruntimed:undname.obj
 0001:000428c0       ?getArrayType@UnDecorator@@CA?AVDName@@AEBV2@@Z 00000001800438c0 f i libvcruntimed:undname.obj
 0001:00042c80       ?getBasedType@UnDecorator@@CA?AVDName@@XZ 0000000180043c80 f   libvcruntimed:undname.obj
 0001:00042df0       ?getBasicDataType@UnDecorator@@CA?AVDName@@AEBV2@@Z 0000000180043df0 f   libvcruntimed:undname.obj
 0001:00043b90       ?getCHPEName@UnDecorator@@QEAAPEADPEADH@Z 0000000180044b90 f i libvcruntimed:undname.obj
 0001:00043d60       ?getCallIndex@UnDecorator@@CA?AVDName@@XZ 0000000180044d60 f i libvcruntimed:undname.obj
 0001:00043d80       ?getCallingConvention@UnDecorator@@CA?AVDName@@XZ 0000000180044d80 f   libvcruntimed:undname.obj
 0001:00044170       ?getDataIndirectType@UnDecorator@@CA?AVDName@@AEBV2@W4IndirectionKind@@0H@Z 0000000180045170 f   libvcruntimed:undname.obj
 0001:00044e10       ?getDataIndirectType@UnDecorator@@CA?AVDName@@XZ 0000000180045e10 f i libvcruntimed:undname.obj
 0001:00044e60       ?getDataType@UnDecorator@@CA?AVDName@@PEAV2@@Z 0000000180045e60 f   libvcruntimed:undname.obj
 0001:00045040       ?getDecoratedName@UnDecorator@@CA?AVDName@@XZ 0000000180046040 f   libvcruntimed:undname.obj
 0001:00045530       ?getDimension@UnDecorator@@CA?AVDName@@_N@Z 0000000180046530 f   libvcruntimed:undname.obj
 0001:00045840       ?getDispatchTarget@UnDecorator@@CA?AVDName@@XZ 0000000180046840 f   libvcruntimed:undname.obj
 0001:00045910       ?getDisplacement@UnDecorator@@CA?AVDName@@XZ 0000000180046910 f i libvcruntimed:undname.obj
 0001:00045930       ?getECSUDataType@UnDecorator@@CA?AVDName@@XZ 0000000180046930 f   libvcruntimed:undname.obj
 0001:00045cc0       ?getECSUName@UnDecorator@@CA?AVDName@@XZ 0000000180046cc0 f i libvcruntimed:undname.obj
 0001:00045ce0       ?getEnumType@UnDecorator@@CA?AVDName@@XZ 0000000180046ce0 f i libvcruntimed:undname.obj
 0001:00045f70       ?getExtendedDataIndirectType@UnDecorator@@CA?AVDName@@AEAW4IndirectionKind@@AEA_NH@Z 0000000180046f70 f   libvcruntimed:undname.obj
 0001:00046290       ?getExternalDataType@UnDecorator@@CA?AVDName@@AEBV2@@Z 0000000180047290 f i libvcruntimed:undname.obj
 0001:00046370       ?getFloatingPoint@UnDecorator@@CA?AVDName@@H@Z 0000000180047370 f   libvcruntimed:undname.obj
 0001:000465f0       ?getFunctionIndirectType@UnDecorator@@CA?AVDName@@AEBV2@@Z 00000001800475f0 f   libvcruntimed:undname.obj
 0001:00046c20       ?getGuardNumber@UnDecorator@@CA?AVDName@@XZ 0000000180047c20 f i libvcruntimed:undname.obj
 0001:00046c40       ?getLastChar@DName@@QEBADXZ 0000000180047c40 f i libvcruntimed:undname.obj
 0001:00046c90       ?getLastChar@DNameStatusNode@@UEBADXZ 0000000180047c90 f i libvcruntimed:undname.obj
 0001:00046cd0       ?getLastChar@charNode@@UEBADXZ 0000000180047cd0 f i libvcruntimed:undname.obj
 0001:00046ce0       ?getLastChar@pDNameNode@@UEBADXZ 0000000180047ce0 f i libvcruntimed:undname.obj
 0001:00046d20       ?getLastChar@pairNode@@UEBADXZ 0000000180047d20 f i libvcruntimed:undname.obj
 0001:00046da0       ?getLastChar@pcharNode@@UEBADXZ 0000000180047da0 f i libvcruntimed:undname.obj
 0001:00046de0       ?getLexicalFrame@UnDecorator@@CA?AVDName@@XZ 0000000180047de0 f i libvcruntimed:undname.obj
 0001:00046e30       ?getMemberAccess@UnDecorator@@CA?AVDName@@XZ 0000000180047e30 f   libvcruntimed:undname.obj
 0001:00046ee0       ?getMemoryWithBuffer@_HeapManager@@QEAAPEAX_K@Z 0000000180047ee0 f   libvcruntimed:undname.obj
 0001:00047030       ?getMemoryWithoutBuffer@_HeapManager@@QEAAPEAX_K@Z 0000000180048030 f   libvcruntimed:undname.obj
 0001:00047080       ?getNoexcept@UnDecorator@@CA?AVDName@@XZ 0000000180048080 f   libvcruntimed:undname.obj
 0001:00047130       ?getNumberOfDimensions@UnDecorator@@CAHXZ 0000000180048130 f   libvcruntimed:undname.obj
 0001:00047250       ?getOperatorName@UnDecorator@@CA?AVDName@@_NPEA_N@Z 0000000180048250 f i libvcruntimed:undname.obj
 0001:00048240       ?getPointerToMember@UnDecorator@@CA?AVDName@@XZ 0000000180049240 f   libvcruntimed:undname.obj
 0001:00048390       ?getPointerType@UnDecorator@@CA?AVDName@@AEBV2@0@Z 0000000180049390 f i libvcruntimed:undname.obj
 0001:000483d0       ?getPointerTypeArray@UnDecorator@@CA?AVDName@@AEBV2@0@Z 00000001800493d0 f i libvcruntimed:undname.obj
 0001:00048410       ?getPrimaryDataType@UnDecorator@@CA?AVDName@@AEBV2@@Z 0000000180049410 f   libvcruntimed:undname.obj
 0001:00048a40       ?getPtrRefDataType@UnDecorator@@CA?AVDName@@AEBV2@H@Z 0000000180049a40 f   libvcruntimed:undname.obj
 0001:00048e30       ?getPtrRefType@UnDecorator@@CA?AVDName@@AEBV2@0W4IndirectionKind@@@Z 0000000180049e30 f   libvcruntimed:undname.obj
 0001:00049070       ?getReferenceType@UnDecorator@@CA?AVDName@@AEBV2@0W4IndirectionKind@@@Z 000000018004a070 f i libvcruntimed:undname.obj
 0001:000490b0       ?getRestrictionSpec@UnDecorator@@CA?AVDName@@XZ 000000018004a0b0 f   libvcruntimed:undname.obj
 0001:00049340       ?getReturnType@UnDecorator@@CA?AVDName@@PEAV2@@Z 000000018004a340 f   libvcruntimed:undname.obj
 0001:000493a0       ?getScope@UnDecorator@@CA?AVDName@@XZ 000000018004a3a0 f   libvcruntimed:undname.obj
 0001:00049b00       ?getScopedName@UnDecorator@@CA?AVDName@@XZ 000000018004ab00 f   libvcruntimed:undname.obj
 0001:00049d00       ?getSignedDimension@UnDecorator@@CA?AVDName@@XZ 000000018004ad00 f   libvcruntimed:undname.obj
 0001:00049d90       ?getStorageConvention@UnDecorator@@CA?AVDName@@XZ 000000018004ad90 f i libvcruntimed:undname.obj
 0001:00049db0       ?getString@DName@@QEBAPEADPEAD0@Z 000000018004adb0 f i libvcruntimed:undname.obj
 0001:00049e30       ?getString@DName@@QEBAPEADPEADH@Z 000000018004ae30 f i libvcruntimed:undname.obj
 0001:00049ef0       ?getString@DNameStatusNode@@UEBAPEADPEAD0@Z 000000018004aef0 f i libvcruntimed:undname.obj
 0001:00049f40       ?getString@charNode@@UEBAPEADPEAD0@Z 000000018004af40 f i libvcruntimed:undname.obj
 0001:00049f80       ?getString@pDNameNode@@UEBAPEADPEAD0@Z 000000018004af80 f i libvcruntimed:undname.obj
 0001:00049fe0       ?getString@pairNode@@UEBAPEADPEAD0@Z 000000018004afe0 f i libvcruntimed:undname.obj
 0001:0004a0b0       ?getString@pcharNode@@UEBAPEADPEAD0@Z 000000018004b0b0 f i libvcruntimed:undname.obj
 0001:0004a0f0       ?getStringEncoding@UnDecorator@@CA?AVDName@@W4PrefixKind@@H@Z 000000018004b0f0 f   libvcruntimed:undname.obj
 0001:0004a250       ?getStringHelper@@YAPEADPEADPEBD1H@Z 000000018004b250 f i libvcruntimed:undname.obj
 0001:0004a2c0       ?getStringObject@UnDecorator@@CA?AVDName@@XZ 000000018004b2c0 f   libvcruntimed:undname.obj
 0001:0004a3a0       ?getSymbolName@UnDecorator@@CA?AVDName@@XZ 000000018004b3a0 f i libvcruntimed:undname.obj
 0001:0004a440       ?getTemplateArgumentList@UnDecorator@@CA?AVDName@@XZ 000000018004b440 f   libvcruntimed:undname.obj
 0001:0004a780       ?getTemplateName@UnDecorator@@CA?AVDName@@_N@Z 000000018004b780 f   libvcruntimed:undname.obj
 0001:0004a9c0       ?getTemplateNonTypeArgument@UnDecorator@@CA?AVDName@@XZ 000000018004b9c0 f   libvcruntimed:undname.obj
 0001:0004b260       ?getTemplateTypeArgument@UnDecorator@@CA?AVDName@@XZ 000000018004c260 f   libvcruntimed:undname.obj
 0001:0004b4d0       ?getThisType@UnDecorator@@CA?AVDName@@XZ 000000018004c4d0 f i libvcruntimed:undname.obj
 0001:0004b520       ?getThrowTypes@UnDecorator@@CA?AVDName@@XZ 000000018004c520 f   libvcruntimed:undname.obj
 0001:0004b570       ?getTypeEncoding@UnDecorator@@CAHXZ 000000018004c570 f i libvcruntimed:undname.obj
 0001:0004c1d0       ?getUndecoratedName@UnDecorator@@QEAAPEADPEADH@Z 000000018004d1d0 f i libvcruntimed:undname.obj
 0001:0004c3c0       ?getUnionObject@UnDecorator@@CA?AVDName@@XZ 000000018004d3c0 f   libvcruntimed:undname.obj
 0001:0004c4d0       ?getVCallThunkType@UnDecorator@@CA?AVDName@@XZ 000000018004d4d0 f i libvcruntimed:undname.obj
 0001:0004c580       ?getValue@UnDecorator@@CA?AV?$optional@_K@std@@XZ 000000018004d580 f   libvcruntimed:undname.obj
 0001:0004c650       ?getValueObject@UnDecorator@@CA?AVDName@@XZ 000000018004d650 f   libvcruntimed:undname.obj
 0001:0004c870       ?getVbTableType@UnDecorator@@CA?AVDName@@AEBV2@@Z 000000018004d870 f i libvcruntimed:undname.obj
 0001:0004c8a0       ?getVdispMapType@UnDecorator@@CA?AVDName@@AEBV2@@Z 000000018004d8a0 f i libvcruntimed:undname.obj
 0001:0004c960       ?getVfTableType@UnDecorator@@CA?AVDName@@AEBV2@@Z 000000018004d960 f i libvcruntimed:undname.obj
 0001:0004cc00       ?getZName@UnDecorator@@CA?AVDName@@_N0@Z 000000018004dc00 f   libvcruntimed:undname.obj
 0001:0004d070       ?haveTemplateParameters@UnDecorator@@SAHXZ 000000018004e070 f i libvcruntimed:undname.obj
 0001:0004d080       ?isArray@DName@@QEBAHXZ    000000018004e080 f i libvcruntimed:undname.obj
 0001:0004d0a0       ?isComArray@DName@@QEBAHXZ 000000018004e0a0 f i libvcruntimed:undname.obj
 0001:0004d0c0       ?isEmpty@DName@@QEBAHXZ    000000018004e0c0 f i libvcruntimed:undname.obj
 0001:0004d0f0       ?isFull@Replicator@@QEBAHXZ 000000018004e0f0 f i libvcruntimed:undname.obj
 0001:0004d120       ?isNoTE@DName@@QEBAHXZ     000000018004e120 f i libvcruntimed:undname.obj
 0001:0004d140       ?isPinPtr@DName@@QEBAHXZ   000000018004e140 f i libvcruntimed:undname.obj
 0001:0004d160       ?isPtrRef@DName@@QEBAHXZ   000000018004e160 f i libvcruntimed:undname.obj
 0001:0004d180       ?isUDC@DName@@QEBAHXZ      000000018004e180 f i libvcruntimed:undname.obj
 0001:0004d1d0       ?isUDTThunk@DName@@QEBAHXZ 000000018004e1d0 f i libvcruntimed:undname.obj
 0001:0004d220       ?isVCallThunk@DName@@QEBAHXZ 000000018004e220 f i libvcruntimed:undname.obj
 0001:0004d240       ?isValid@DName@@QEBAHXZ    000000018004e240 f i libvcruntimed:undname.obj
 0001:0004d280       ?length@DName@@QEBAHXZ     000000018004e280 f i libvcruntimed:undname.obj
 0001:0004d2d0       ?length@DNameStatusNode@@UEBAHXZ 000000018004e2d0 f i libvcruntimed:undname.obj
 0001:0004d2e0       ?length@charNode@@UEBAHXZ  000000018004e2e0 f i libvcruntimed:undname.obj
 0001:0004d2f0       ?length@pDNameNode@@UEBAHXZ 000000018004e2f0 f i libvcruntimed:undname.obj
 0001:0004d330       ?length@pairNode@@UEBAHXZ  000000018004e330 f i libvcruntimed:undname.obj
 0001:0004d3c0       ?length@pcharNode@@UEBAHXZ 000000018004e3c0 f i libvcruntimed:undname.obj
 0001:0004d3d0       ?make@DNameStatusNode@@SAPEBV1@W4DNameStatus@@@Z 000000018004e3d0 f i libvcruntimed:undname.obj
 0001:0004d420       ?parseDecoratedName@UnDecorator@@CA?AVDName@@XZ 000000018004e420 f   libvcruntimed:undname.obj
 0001:0004d610       ?raw_length@DNameStatusNode@@UEBAHXZ 000000018004e610 f i libvcruntimed:undname.obj
 0001:0004d630       ?raw_length@charNode@@UEBAHXZ 000000018004e630 f i libvcruntimed:undname.obj
 0001:0004d650       ?raw_length@pDNameNode@@UEBAHXZ 000000018004e650 f i libvcruntimed:undname.obj
 0001:0004d660       ?raw_length@pairNode@@UEBAHXZ 000000018004e660 f i libvcruntimed:undname.obj
 0001:0004d670       ?raw_length@pcharNode@@UEBAHXZ 000000018004e670 f i libvcruntimed:undname.obj
 0001:0004d690       ?setIsArray@DName@@QEAAXXZ 000000018004e690 f i libvcruntimed:undname.obj
 0001:0004d6b0       ?setIsComArray@DName@@QEAAXXZ 000000018004e6b0 f i libvcruntimed:undname.obj
 0001:0004d6d0       ?setIsNoTE@DName@@QEAAXXZ  000000018004e6d0 f i libvcruntimed:undname.obj
 0001:0004d6f0       ?setIsPinPtr@DName@@QEAAXXZ 000000018004e6f0 f i libvcruntimed:undname.obj
 0001:0004d710       ?setIsUDC@DName@@QEAAXXZ   000000018004e710 f i libvcruntimed:undname.obj
 0001:0004d740       ?setIsVCallThunk@DName@@QEAAXXZ 000000018004e740 f i libvcruntimed:undname.obj
 0001:0004d760       ?setPtrRef@DName@@QEAAAEAV1@XZ 000000018004e760 f i libvcruntimed:undname.obj
 0001:0004d780       ?status@DName@@QEBA?AW4DNameStatus@@XZ 000000018004e780 f i libvcruntimed:undname.obj
 0001:0004d8b0       __unDName                  000000018004e8b0 f   libvcruntimed:undname.obj
 0001:0004d910       __unDNameEx                000000018004e910 f   libvcruntimed:undname.obj
 0001:0004d9d0       unDNameGenerateCHPE        000000018004e9d0 f   libvcruntimed:undname.obj
 0001:0004da80       ??$__crt_interlocked_exchange_pointer@UHINSTANCE__@@PEAU1@@@YAPEAUHINSTANCE__@@PEDSEAU0@QEAU0@@Z 000000018004ea80 f i libvcruntimed:winapi_downlevel.obj
 0001:0004daa0       ??$__crt_interlocked_exchange_pointer@UHINSTANCE__@@PEAX@@YAPEAUHINSTANCE__@@PEDSEAU0@QEAX@Z 000000018004eaa0 f i libvcruntimed:winapi_downlevel.obj
 0001:0004dac0       ??$__crt_interlocked_exchange_pointer@XPEAX@@YAPEAXPEDSEAXQEAX@Z 000000018004eac0 f i libvcruntimed:winapi_downlevel.obj
 0001:0004dae0       ??$__crt_interlocked_read_pointer@UHINSTANCE__@@@@YAPEAUHINSTANCE__@@PEDSEAU0@@Z 000000018004eae0 f i libvcruntimed:winapi_downlevel.obj
 0001:0004db00       ??$__crt_interlocked_read_pointer@X@@YAPEAXPEDSEAX@Z 000000018004eb00 f i libvcruntimed:winapi_downlevel.obj
 0001:0004e010       __vcrt_FlsAlloc            000000018004f010 f   libvcruntimed:winapi_downlevel.obj
 0001:0004e060       __vcrt_FlsFree             000000018004f060 f   libvcruntimed:winapi_downlevel.obj
 0001:0004e0b0       __vcrt_FlsGetValue         000000018004f0b0 f   libvcruntimed:winapi_downlevel.obj
 0001:0004e100       __vcrt_FlsSetValue         000000018004f100 f   libvcruntimed:winapi_downlevel.obj
 0001:0004e160       __vcrt_InitializeCriticalSectionEx 000000018004f160 f   libvcruntimed:winapi_downlevel.obj
 0001:0004e1e0       _CallSettingFrame          000000018004f1e0 f   libvcruntimed:handlers.obj
 0001:0004e230       _CallSettingFrame_LookupContinuationIndex 000000018004f230 f   libvcruntimed:handlers.obj
 0001:0004e260       _CallSettingFrame_NotifyContinuationAddr 000000018004f260 f   libvcruntimed:handlers.obj
 0001:0004e290       _CallSettingFrameEncoded   000000018004f290 f   libvcruntimed:handlers.obj
 0001:0004e2e0       ??$?0AEBV?$stream_output_adapter@D@__crt_stdio_output@@AEB_KAEBQEBDAEAV__crt_cached_ptd_host@@AEBQEAD@?$format_validation_base@DV?$stream_output_adapter@D@__crt_stdio_output@@@__crt_stdio_output@@IEAA@AEBV?$stream_output_adapter@D@1@AEB_KAEBQEBDAEAV__crt_cached_ptd_host@@AEBQEAD@Z 000000018004f2e0 f i libucrtd:output.obj
 0001:0004e330       ??$?0AEBV?$stream_output_adapter@D@__crt_stdio_output@@AEB_KAEBQEBDAEAV__crt_cached_ptd_host@@AEBQEAD@?$positional_parameter_base@DV?$stream_output_adapter@D@__crt_stdio_output@@@__crt_stdio_output@@IEAA@AEBV?$stream_output_adapter@D@1@AEB_KAEBQEBDAEAV__crt_cached_ptd_host@@AEBQEAD@Z 000000018004f330 f i libucrtd:output.obj
 0001:0004e3d0       ??$?0AEBV?$stream_output_adapter@D@__crt_stdio_output@@AEB_KAEBQEBDAEAV__crt_cached_ptd_host@@AEBQEAD@?$standard_base@DV?$stream_output_adapter@D@__crt_stdio_output@@@__crt_stdio_output@@IEAA@AEBV?$stream_output_adapter@D@1@AEB_KAEBQEBDAEAV__crt_cached_ptd_host@@AEBQEAD@Z 000000018004f3d0 f i libucrtd:output.obj
 0001:0004e440       ??$?0AEBV?$stream_output_adapter@_W@__crt_stdio_output@@AEB_KAEBQEB_WAEAV__crt_cached_ptd_host@@AEBQEAD@?$format_validation_base@_WV?$stream_output_adapter@_W@__crt_stdio_output@@@__crt_stdio_output@@IEAA@AEBV?$stream_output_adapter@_W@1@AEB_KAEBQEB_WAEAV__crt_cached_ptd_host@@AEBQEAD@Z 000000018004f440 f i libucrtd:output.obj
 0001:0004e490       ??$?0AEBV?$stream_output_adapter@_W@__crt_stdio_output@@AEB_KAEBQEB_WAEAV__crt_cached_ptd_host@@AEBQEAD@?$positional_parameter_base@_WV?$stream_output_adapter@_W@__crt_stdio_output@@@__crt_stdio_output@@IEAA@AEBV?$stream_output_adapter@_W@1@AEB_KAEBQEB_WAEAV__crt_cached_ptd_host@@AEBQEAD@Z 000000018004f490 f i libucrtd:output.obj
 0001:0004e530       ??$?0AEBV?$stream_output_adapter@_W@__crt_stdio_output@@AEB_KAEBQEB_WAEAV__crt_cached_ptd_host@@AEBQEAD@?$standard_base@_WV?$stream_output_adapter@_W@__crt_stdio_output@@@__crt_stdio_output@@IEAA@AEBV?$stream_output_adapter@_W@1@AEB_KAEBQEB_WAEAV__crt_cached_ptd_host@@AEBQEAD@Z 000000018004f530 f i libucrtd:output.obj
 0001:0004e5a0       ??$?0AEBV?$string_output_adapter@D@__crt_stdio_output@@AEB_KAEBQEBDAEAV__crt_cached_ptd_host@@AEBQEAD@?$format_validation_base@DV?$string_output_adapter@D@__crt_stdio_output@@@__crt_stdio_output@@IEAA@AEBV?$string_output_adapter@D@1@AEB_KAEBQEBDAEAV__crt_cached_ptd_host@@AEBQEAD@Z 000000018004f5a0 f i libucrtd:output.obj
 0001:0004e5f0       ??$?0AEBV?$string_output_adapter@D@__crt_stdio_output@@AEB_KAEBQEBDAEAV__crt_cached_ptd_host@@AEBQEAD@?$positional_parameter_base@DV?$string_output_adapter@D@__crt_stdio_output@@@__crt_stdio_output@@IEAA@AEBV?$string_output_adapter@D@1@AEB_KAEBQEBDAEAV__crt_cached_ptd_host@@AEBQEAD@Z 000000018004f5f0 f i libucrtd:output.obj
 0001:0004e690       ??$?0AEBV?$string_output_adapter@D@__crt_stdio_output@@AEB_KAEBQEBDAEAV__crt_cached_ptd_host@@AEBQEAD@?$standard_base@DV?$string_output_adapter@D@__crt_stdio_output@@@__crt_stdio_output@@IEAA@AEBV?$string_output_adapter@D@1@AEB_KAEBQEBDAEAV__crt_cached_ptd_host@@AEBQEAD@Z 000000018004f690 f i libucrtd:output.obj
 0001:0004e700       ??$?0AEBV?$string_output_adapter@_W@__crt_stdio_output@@AEB_KAEBQEB_WAEAV__crt_cached_ptd_host@@AEBQEAD@?$format_validation_base@_WV?$string_output_adapter@_W@__crt_stdio_output@@@__crt_stdio_output@@IEAA@AEBV?$string_output_adapter@_W@1@AEB_KAEBQEB_WAEAV__crt_cached_ptd_host@@AEBQEAD@Z 000000018004f700 f i libucrtd:output.obj
 0001:0004e750       ??$?0AEBV?$string_output_adapter@_W@__crt_stdio_output@@AEB_KAEBQEB_WAEAV__crt_cached_ptd_host@@AEBQEAD@?$positional_parameter_base@_WV?$string_output_adapter@_W@__crt_stdio_output@@@__crt_stdio_output@@IEAA@AEBV?$string_output_adapter@_W@1@AEB_KAEBQEB_WAEAV__crt_cached_ptd_host@@AEBQEAD@Z 000000018004f750 f i libucrtd:output.obj
 0001:0004e7f0       ??$?0AEBV?$string_output_adapter@_W@__crt_stdio_output@@AEB_KAEBQEB_WAEAV__crt_cached_ptd_host@@AEBQEAD@?$standard_base@_WV?$string_output_adapter@_W@__crt_stdio_output@@@__crt_stdio_output@@IEAA@AEBV?$string_output_adapter@_W@1@AEB_KAEBQEB_WAEAV__crt_cached_ptd_host@@AEBQEAD@Z 000000018004f7f0 f i libucrtd:output.obj
 0001:0004ec80       ??$__crt_interlocked_read@J@@YAJPEDJ@Z 000000018004fc80 f i libucrtd:output.obj
 0001:0004eca0       ??$_tcstol_internal@DPEAPEAD$0A@@@YAJAEAV__crt_cached_ptd_host@@QEBDQEAPEADH@Z 000000018004fca0 f i libucrtd:output.obj
 0001:0004ecf0       ??$_tcstol_internal@_WPEAPEA_W$0A@@@YAJAEAV__crt_cached_ptd_host@@QEB_WQEAPEA_WH@Z 000000018004fcf0 f i libucrtd:output.obj
 0001:00052d10       ??$count@D@formatting_buffer@__crt_stdio_output@@QEBA_KXZ 0000000180053d10 f i libucrtd:output.obj
 0001:00052d60       ??$count@_W@formatting_buffer@__crt_stdio_output@@QEBA_KXZ 0000000180053d60 f i libucrtd:output.obj
 0001:00052db0       ??$data@D@formatting_buffer@__crt_stdio_output@@QEAAPEADXZ 0000000180053db0 f i libucrtd:output.obj
 0001:00052e00       ??$data@_W@formatting_buffer@__crt_stdio_output@@QEAAPEA_WXZ 0000000180053e00 f i libucrtd:output.obj
 0001:00052e50       ??$ensure_buffer_is_big_enough@D@formatting_buffer@__crt_stdio_output@@QEAA_N_KAEAV__crt_cached_ptd_host@@@Z 0000000180053e50 f i libucrtd:output.obj
 0001:00052f90       ??$ensure_buffer_is_big_enough@_W@formatting_buffer@__crt_stdio_output@@QEAA_N_KAEAV__crt_cached_ptd_host@@@Z 0000000180053f90 f i libucrtd:output.obj
 0001:000530d0       ??$extract_argument_from_va_list@C_J@?$positional_parameter_base@DV?$stream_output_adapter@D@__crt_stdio_output@@@__crt_stdio_output@@IEAA_NAEA_J@Z 00000001800540d0 f i libucrtd:output.obj
 0001:00053290       ??$extract_argument_from_va_list@C_J@?$positional_parameter_base@DV?$string_output_adapter@D@__crt_stdio_output@@@__crt_stdio_output@@IEAA_NAEA_J@Z 0000000180054290 f i libucrtd:output.obj
 0001:00053450       ??$extract_argument_from_va_list@C_J@?$positional_parameter_base@_WV?$stream_output_adapter@_W@__crt_stdio_output@@@__crt_stdio_output@@IEAA_NAEA_J@Z 0000000180054450 f i libucrtd:output.obj
 0001:00053610       ??$extract_argument_from_va_list@C_J@?$positional_parameter_base@_WV?$string_output_adapter@_W@__crt_stdio_output@@@__crt_stdio_output@@IEAA_NAEA_J@Z 0000000180054610 f i libucrtd:output.obj
 0001:000537d0       ??$extract_argument_from_va_list@C_J@?$standard_base@DV?$stream_output_adapter@D@__crt_stdio_output@@@__crt_stdio_output@@IEAA_NAEA_J@Z 00000001800547d0 f i libucrtd:output.obj
 0001:00053810       ??$extract_argument_from_va_list@C_J@?$standard_base@DV?$string_output_adapter@D@__crt_stdio_output@@@__crt_stdio_output@@IEAA_NAEA_J@Z 0000000180054810 f i libucrtd:output.obj
 0001:00053850       ??$extract_argument_from_va_list@C_J@?$standard_base@_WV?$stream_output_adapter@_W@__crt_stdio_output@@@__crt_stdio_output@@IEAA_NAEA_J@Z 0000000180054850 f i libucrtd:output.obj
 0001:00053890       ??$extract_argument_from_va_list@C_J@?$standard_base@_WV?$string_output_adapter@_W@__crt_stdio_output@@@__crt_stdio_output@@IEAA_NAEA_J@Z 0000000180054890 f i libucrtd:output.obj
 0001:000538d0       ??$extract_argument_from_va_list@E_J@?$positional_parameter_base@DV?$stream_output_adapter@D@__crt_stdio_output@@@__crt_stdio_output@@IEAA_NAEA_J@Z 00000001800548d0 f i libucrtd:output.obj
 0001:00053a90       ??$extract_argument_from_va_list@E_J@?$positional_parameter_base@DV?$string_output_adapter@D@__crt_stdio_output@@@__crt_stdio_output@@IEAA_NAEA_J@Z 0000000180054a90 f i libucrtd:output.obj
 0001:00053c50       ??$extract_argument_from_va_list@E_J@?$positional_parameter_base@_WV?$stream_output_adapter@_W@__crt_stdio_output@@@__crt_stdio_output@@IEAA_NAEA_J@Z 0000000180054c50 f i libucrtd:output.obj
 0001:00053e10       ??$extract_argument_from_va_list@E_J@?$positional_parameter_base@_WV?$string_output_adapter@_W@__crt_stdio_output@@@__crt_stdio_output@@IEAA_NAEA_J@Z 0000000180054e10 f i libucrtd:output.obj
 0001:00053fd0       ??$extract_argument_from_va_list@E_J@?$standard_base@DV?$stream_output_adapter@D@__crt_stdio_output@@@__crt_stdio_output@@IEAA_NAEA_J@Z 0000000180054fd0 f i libucrtd:output.obj
 0001:00054010       ??$extract_argument_from_va_list@E_J@?$standard_base@DV?$string_output_adapter@D@__crt_stdio_output@@@__crt_stdio_output@@IEAA_NAEA_J@Z 0000000180055010 f i libucrtd:output.obj
 0001:00054050       ??$extract_argument_from_va_list@E_J@?$standard_base@_WV?$stream_output_adapter@_W@__crt_stdio_output@@@__crt_stdio_output@@IEAA_NAEA_J@Z 0000000180055050 f i libucrtd:output.obj
 0001:00054090       ??$extract_argument_from_va_list@E_J@?$standard_base@_WV?$string_output_adapter@_W@__crt_stdio_output@@@__crt_stdio_output@@IEAA_NAEA_J@Z 0000000180055090 f i libucrtd:output.obj
 0001:000540d0       ??$extract_argument_from_va_list@F_J@?$positional_parameter_base@DV?$stream_output_adapter@D@__crt_stdio_output@@@__crt_stdio_output@@IEAA_NAEA_J@Z 00000001800550d0 f i libucrtd:output.obj
 0001:00054290       ??$extract_argument_from_va_list@F_J@?$positional_parameter_base@DV?$string_output_adapter@D@__crt_stdio_output@@@__crt_stdio_output@@IEAA_NAEA_J@Z 0000000180055290 f i libucrtd:output.obj
 0001:00054450       ??$extract_argument_from_va_list@F_J@?$positional_parameter_base@_WV?$stream_output_adapter@_W@__crt_stdio_output@@@__crt_stdio_output@@IEAA_NAEA_J@Z 0000000180055450 f i libucrtd:output.obj
 0001:00054610       ??$extract_argument_from_va_list@F_J@?$positional_parameter_base@_WV?$string_output_adapter@_W@__crt_stdio_output@@@__crt_stdio_output@@IEAA_NAEA_J@Z 0000000180055610 f i libucrtd:output.obj
 0001:000547d0       ??$extract_argument_from_va_list@F_J@?$standard_base@DV?$stream_output_adapter@D@__crt_stdio_output@@@__crt_stdio_output@@IEAA_NAEA_J@Z 00000001800557d0 f i libucrtd:output.obj
 0001:00054810       ??$extract_argument_from_va_list@F_J@?$standard_base@DV?$string_output_adapter@D@__crt_stdio_output@@@__crt_stdio_output@@IEAA_NAEA_J@Z 0000000180055810 f i libucrtd:output.obj
 0001:00054850       ??$extract_argument_from_va_list@F_J@?$standard_base@_WV?$stream_output_adapter@_W@__crt_stdio_output@@@__crt_stdio_output@@IEAA_NAEA_J@Z 0000000180055850 f i libucrtd:output.obj
 0001:00054890       ??$extract_argument_from_va_list@F_J@?$standard_base@_WV?$string_output_adapter@_W@__crt_stdio_output@@@__crt_stdio_output@@IEAA_NAEA_J@Z 0000000180055890 f i libucrtd:output.obj
 0001:000548d0       ??$extract_argument_from_va_list@GD@?$positional_parameter_base@DV?$stream_output_adapter@D@__crt_stdio_output@@@__crt_stdio_output@@IEAA_NAEAD@Z 00000001800558d0 f i libucrtd:output.obj
 0001:00054a90       ??$extract_argument_from_va_list@GD@?$positional_parameter_base@DV?$string_output_adapter@D@__crt_stdio_output@@@__crt_stdio_output@@IEAA_NAEAD@Z 0000000180055a90 f i libucrtd:output.obj
 0001:00054c50       ??$extract_argument_from_va_list@GD@?$standard_base@DV?$stream_output_adapter@D@__crt_stdio_output@@@__crt_stdio_output@@IEAA_NAEAD@Z 0000000180055c50 f i libucrtd:output.obj
 0001:00054c80       ??$extract_argument_from_va_list@GD@?$standard_base@DV?$string_output_adapter@D@__crt_stdio_output@@@__crt_stdio_output@@IEAA_NAEAD@Z 0000000180055c80 f i libucrtd:output.obj
 0001:00054cb0       ??$extract_argument_from_va_list@G_J@?$positional_parameter_base@DV?$stream_output_adapter@D@__crt_stdio_output@@@__crt_stdio_output@@IEAA_NAEA_J@Z 0000000180055cb0 f i libucrtd:output.obj
 0001:00054e70       ??$extract_argument_from_va_list@G_J@?$positional_parameter_base@DV?$string_output_adapter@D@__crt_stdio_output@@@__crt_stdio_output@@IEAA_NAEA_J@Z 0000000180055e70 f i libucrtd:output.obj
 0001:00055030       ??$extract_argument_from_va_list@G_J@?$positional_parameter_base@_WV?$stream_output_adapter@_W@__crt_stdio_output@@@__crt_stdio_output@@IEAA_NAEA_J@Z 0000000180056030 f i libucrtd:output.obj
 0001:000551f0       ??$extract_argument_from_va_list@G_J@?$positional_parameter_base@_WV?$string_output_adapter@_W@__crt_stdio_output@@@__crt_stdio_output@@IEAA_NAEA_J@Z 00000001800561f0 f i libucrtd:output.obj
 0001:000553b0       ??$extract_argument_from_va_list@G_J@?$standard_base@DV?$stream_output_adapter@D@__crt_stdio_output@@@__crt_stdio_output@@IEAA_NAEA_J@Z 00000001800563b0 f i libucrtd:output.obj
 0001:000553f0       ??$extract_argument_from_va_list@G_J@?$standard_base@DV?$string_output_adapter@D@__crt_stdio_output@@@__crt_stdio_output@@IEAA_NAEA_J@Z 00000001800563f0 f i libucrtd:output.obj
 0001:00055430       ??$extract_argument_from_va_list@G_J@?$standard_base@_WV?$stream_output_adapter@_W@__crt_stdio_output@@@__crt_stdio_output@@IEAA_NAEA_J@Z 0000000180056430 f i libucrtd:output.obj
 0001:00055470       ??$extract_argument_from_va_list@G_J@?$standard_base@_WV?$string_output_adapter@_W@__crt_stdio_output@@@__crt_stdio_output@@IEAA_NAEA_J@Z 0000000180056470 f i libucrtd:output.obj
 0001:000554b0       ??$extract_argument_from_va_list@H_J@?$positional_parameter_base@DV?$stream_output_adapter@D@__crt_stdio_output@@@__crt_stdio_output@@IEAA_NAEA_J@Z 00000001800564b0 f i libucrtd:output.obj
 0001:00055670       ??$extract_argument_from_va_list@H_J@?$positional_parameter_base@DV?$string_output_adapter@D@__crt_stdio_output@@@__crt_stdio_output@@IEAA_NAEA_J@Z 0000000180056670 f i libucrtd:output.obj
 0001:00055830       ??$extract_argument_from_va_list@H_J@?$positional_parameter_base@_WV?$stream_output_adapter@_W@__crt_stdio_output@@@__crt_stdio_output@@IEAA_NAEA_J@Z 0000000180056830 f i libucrtd:output.obj
 0001:000559f0       ??$extract_argument_from_va_list@H_J@?$positional_parameter_base@_WV?$string_output_adapter@_W@__crt_stdio_output@@@__crt_stdio_output@@IEAA_NAEA_J@Z 00000001800569f0 f i libucrtd:output.obj
 0001:00055bb0       ??$extract_argument_from_va_list@H_J@?$standard_base@DV?$stream_output_adapter@D@__crt_stdio_output@@@__crt_stdio_output@@IEAA_NAEA_J@Z 0000000180056bb0 f i libucrtd:output.obj
 0001:00055be0       ??$extract_argument_from_va_list@H_J@?$standard_base@DV?$string_output_adapter@D@__crt_stdio_output@@@__crt_stdio_output@@IEAA_NAEA_J@Z 0000000180056be0 f i libucrtd:output.obj
 0001:00055c10       ??$extract_argument_from_va_list@H_J@?$standard_base@_WV?$stream_output_adapter@_W@__crt_stdio_output@@@__crt_stdio_output@@IEAA_NAEA_J@Z 0000000180056c10 f i libucrtd:output.obj
 0001:00055c40       ??$extract_argument_from_va_list@H_J@?$standard_base@_WV?$string_output_adapter@_W@__crt_stdio_output@@@__crt_stdio_output@@IEAA_NAEA_J@Z 0000000180056c40 f i libucrtd:output.obj
 0001:00055c70       ??$extract_argument_from_va_list@I_J@?$positional_parameter_base@DV?$stream_output_adapter@D@__crt_stdio_output@@@__crt_stdio_output@@IEAA_NAEA_J@Z 0000000180056c70 f i libucrtd:output.obj
 0001:00055e30       ??$extract_argument_from_va_list@I_J@?$positional_parameter_base@DV?$string_output_adapter@D@__crt_stdio_output@@@__crt_stdio_output@@IEAA_NAEA_J@Z 0000000180056e30 f i libucrtd:output.obj
 0001:00055ff0       ??$extract_argument_from_va_list@I_J@?$positional_parameter_base@_WV?$stream_output_adapter@_W@__crt_stdio_output@@@__crt_stdio_output@@IEAA_NAEA_J@Z 0000000180056ff0 f i libucrtd:output.obj
 0001:000561b0       ??$extract_argument_from_va_list@I_J@?$positional_parameter_base@_WV?$string_output_adapter@_W@__crt_stdio_output@@@__crt_stdio_output@@IEAA_NAEA_J@Z 00000001800571b0 f i libucrtd:output.obj
 0001:00056370       ??$extract_argument_from_va_list@I_J@?$standard_base@DV?$stream_output_adapter@D@__crt_stdio_output@@@__crt_stdio_output@@IEAA_NAEA_J@Z 0000000180057370 f i libucrtd:output.obj
 0001:000563a0       ??$extract_argument_from_va_list@I_J@?$standard_base@DV?$string_output_adapter@D@__crt_stdio_output@@@__crt_stdio_output@@IEAA_NAEA_J@Z 00000001800573a0 f i libucrtd:output.obj
 0001:000563d0       ??$extract_argument_from_va_list@I_J@?$standard_base@_WV?$stream_output_adapter@_W@__crt_stdio_output@@@__crt_stdio_output@@IEAA_NAEA_J@Z 00000001800573d0 f i libucrtd:output.obj
 0001:00056400       ??$extract_argument_from_va_list@I_J@?$standard_base@_WV?$string_output_adapter@_W@__crt_stdio_output@@@__crt_stdio_output@@IEAA_NAEA_J@Z 0000000180057400 f i libucrtd:output.obj
 0001:00056430       ??$extract_argument_from_va_list@PEADPEAD@?$positional_parameter_base@DV?$stream_output_adapter@D@__crt_stdio_output@@@__crt_stdio_output@@IEAA_NAEAPEAD@Z 0000000180057430 f i libucrtd:output.obj
 0001:000565f0       ??$extract_argument_from_va_list@PEADPEAD@?$positional_parameter_base@DV?$string_output_adapter@D@__crt_stdio_output@@@__crt_stdio_output@@IEAA_NAEAPEAD@Z 00000001800575f0 f i libucrtd:output.obj
 0001:000567b0       ??$extract_argument_from_va_list@PEADPEAD@?$positional_parameter_base@_WV?$stream_output_adapter@_W@__crt_stdio_output@@@__crt_stdio_output@@IEAA_NAEAPEAD@Z 00000001800577b0 f i libucrtd:output.obj
 0001:00056970       ??$extract_argument_from_va_list@PEADPEAD@?$positional_parameter_base@_WV?$string_output_adapter@_W@__crt_stdio_output@@@__crt_stdio_output@@IEAA_NAEAPEAD@Z 0000000180057970 f i libucrtd:output.obj
 0001:00056b30       ??$extract_argument_from_va_list@PEADPEAD@?$standard_base@DV?$stream_output_adapter@D@__crt_stdio_output@@@__crt_stdio_output@@IEAA_NAEAPEAD@Z 0000000180057b30 f i libucrtd:output.obj
 0001:00056b60       ??$extract_argument_from_va_list@PEADPEAD@?$standard_base@DV?$string_output_adapter@D@__crt_stdio_output@@@__crt_stdio_output@@IEAA_NAEAPEAD@Z 0000000180057b60 f i libucrtd:output.obj
 0001:00056b90       ??$extract_argument_from_va_list@PEADPEAD@?$standard_base@_WV?$stream_output_adapter@_W@__crt_stdio_output@@@__crt_stdio_output@@IEAA_NAEAPEAD@Z 0000000180057b90 f i libucrtd:output.obj
 0001:00056bc0       ??$extract_argument_from_va_list@PEADPEAD@?$standard_base@_WV?$string_output_adapter@_W@__crt_stdio_output@@@__crt_stdio_output@@IEAA_NAEAPEAD@Z 0000000180057bc0 f i libucrtd:output.obj
 0001:00056bf0       ??$extract_argument_from_va_list@PEAUansi_string@?1??type_case_Z@?$output_processor@DV?$stream_output_adapter@D@__crt_stdio_output@@V?$format_validation_base@DV?$stream_output_adapter@D@__crt_stdio_output@@@2@@__crt_stdio_output@@AEAA_NXZ@PEAU1?1??234@AEAA_NXZ@@?$standard_base@DV?$stream_output_adapter@D@__crt_stdio_output@@@__crt_stdio_output@@IEAA_NAEAPEAUansi_string@?1??type_case_Z@?$output_processor@DV?$stream_output_adapter@D@__crt_stdio_output@@V?$format_validation_base@DV?$stream_output_adapter@D@__crt_stdio_output@@@2@@1@AEAA_NXZ@@Z 0000000180057bf0 f i libucrtd:output.obj
 0001:00056c20       ??$extract_argument_from_va_list@PEAUansi_string@?1??type_case_Z@?$output_processor@DV?$stream_output_adapter@D@__crt_stdio_output@@V?$positional_parameter_base@DV?$stream_output_adapter@D@__crt_stdio_output@@@2@@__crt_stdio_output@@AEAA_NXZ@PEAU1?1??234@AEAA_NXZ@@?$positional_parameter_base@DV?$stream_output_adapter@D@__crt_stdio_output@@@__crt_stdio_output@@IEAA_NAEAPEAUansi_string@?1??type_case_Z@?$output_processor@DV?$stream_output_adapter@D@__crt_stdio_output@@V?$positional_parameter_base@DV?$stream_output_adapter@D@__crt_stdio_output@@@2@@1@AEAA_NXZ@@Z 0000000180057c20 f i libucrtd:output.obj
 0001:00056de0       ??$extract_argument_from_va_list@PEAUansi_string@?1??type_case_Z@?$output_processor@DV?$stream_output_adapter@D@__crt_stdio_output@@V?$positional_parameter_base@DV?$stream_output_adapter@D@__crt_stdio_output@@@2@@__crt_stdio_output@@AEAA_NXZ@PEAU1?1??234@AEAA_NXZ@@?$standard_base@DV?$stream_output_adapter@D@__crt_stdio_output@@@__crt_stdio_output@@IEAA_NAEAPEAUansi_string@?1??type_case_Z@?$output_processor@DV?$stream_output_adapter@D@__crt_stdio_output@@V?$positional_parameter_base@DV?$stream_output_adapter@D@__crt_stdio_output@@@2@@1@AEAA_NXZ@@Z 0000000180057de0 f i libucrtd:output.obj
 0001:00056e10       ??$extract_argument_from_va_list@PEAUansi_string@?1??type_case_Z@?$output_processor@DV?$stream_output_adapter@D@__crt_stdio_output@@V?$standard_base@DV?$stream_output_adapter@D@__crt_stdio_output@@@2@@__crt_stdio_output@@AEAA_NXZ@PEAU1?1??234@AEAA_NXZ@@?$standard_base@DV?$stream_output_adapter@D@__crt_stdio_output@@@__crt_stdio_output@@IEAA_NAEAPEAUansi_string@?1??type_case_Z@?$output_processor@DV?$stream_output_adapter@D@__crt_stdio_output@@V?$standard_base@DV?$stream_output_adapter@D@__crt_stdio_output@@@2@@1@AEAA_NXZ@@Z 0000000180057e10 f i libucrtd:output.obj
 0001:00056e40       ??$extract_argument_from_va_list@PEAUansi_string@?1??type_case_Z@?$output_processor@DV?$string_output_adapter@D@__crt_stdio_output@@V?$format_validation_base@DV?$string_output_adapter@D@__crt_stdio_output@@@2@@__crt_stdio_output@@AEAA_NXZ@PEAU1?1??234@AEAA_NXZ@@?$standard_base@DV?$string_output_adapter@D@__crt_stdio_output@@@__crt_stdio_output@@IEAA_NAEAPEAUansi_string@?1??type_case_Z@?$output_processor@DV?$string_output_adapter@D@__crt_stdio_output@@V?$format_validation_base@DV?$string_output_adapter@D@__crt_stdio_output@@@2@@1@AEAA_NXZ@@Z 0000000180057e40 f i libucrtd:output.obj
 0001:00056e70       ??$extract_argument_from_va_list@PEAUansi_string@?1??type_case_Z@?$output_processor@DV?$string_output_adapter@D@__crt_stdio_output@@V?$positional_parameter_base@DV?$string_output_adapter@D@__crt_stdio_output@@@2@@__crt_stdio_output@@AEAA_NXZ@PEAU1?1??234@AEAA_NXZ@@?$positional_parameter_base@DV?$string_output_adapter@D@__crt_stdio_output@@@__crt_stdio_output@@IEAA_NAEAPEAUansi_string@?1??type_case_Z@?$output_processor@DV?$string_output_adapter@D@__crt_stdio_output@@V?$positional_parameter_base@DV?$string_output_adapter@D@__crt_stdio_output@@@2@@1@AEAA_NXZ@@Z 0000000180057e70 f i libucrtd:output.obj
 0001:00057030       ??$extract_argument_from_va_list@PEAUansi_string@?1??type_case_Z@?$output_processor@DV?$string_output_adapter@D@__crt_stdio_output@@V?$positional_parameter_base@DV?$string_output_adapter@D@__crt_stdio_output@@@2@@__crt_stdio_output@@AEAA_NXZ@PEAU1?1??234@AEAA_NXZ@@?$standard_base@DV?$string_output_adapter@D@__crt_stdio_output@@@__crt_stdio_output@@IEAA_NAEAPEAUansi_string@?1??type_case_Z@?$output_processor@DV?$string_output_adapter@D@__crt_stdio_output@@V?$positional_parameter_base@DV?$string_output_adapter@D@__crt_stdio_output@@@2@@1@AEAA_NXZ@@Z 0000000180058030 f i libucrtd:output.obj
 0001:00057060       ??$extract_argument_from_va_list@PEAUansi_string@?1??type_case_Z@?$output_processor@DV?$string_output_adapter@D@__crt_stdio_output@@V?$standard_base@DV?$string_output_adapter@D@__crt_stdio_output@@@2@@__crt_stdio_output@@AEAA_NXZ@PEAU1?1??234@AEAA_NXZ@@?$standard_base@DV?$string_output_adapter@D@__crt_stdio_output@@@__crt_stdio_output@@IEAA_NAEAPEAUansi_string@?1??type_case_Z@?$output_processor@DV?$string_output_adapter@D@__crt_stdio_output@@V?$standard_base@DV?$string_output_adapter@D@__crt_stdio_output@@@2@@1@AEAA_NXZ@@Z 0000000180058060 f i libucrtd:output.obj
 0001:00057090       ??$extract_argument_from_va_list@PEAUansi_string@?1??type_case_Z@?$output_processor@_WV?$stream_output_adapter@_W@__crt_stdio_output@@V?$format_validation_base@_WV?$stream_output_adapter@_W@__crt_stdio_output@@@2@@__crt_stdio_output@@AEAA_NXZ@PEAU1?1??234@AEAA_NXZ@@?$standard_base@_WV?$stream_output_adapter@_W@__crt_stdio_output@@@__crt_stdio_output@@IEAA_NAEAPEAUansi_string@?1??type_case_Z@?$output_processor@_WV?$stream_output_adapter@_W@__crt_stdio_output@@V?$format_validation_base@_WV?$stream_output_adapter@_W@__crt_stdio_output@@@2@@1@AEAA_NXZ@@Z 0000000180058090 f i libucrtd:output.obj
 0001:000570c0       ??$extract_argument_from_va_list@PEAUansi_string@?1??type_case_Z@?$output_processor@_WV?$stream_output_adapter@_W@__crt_stdio_output@@V?$positional_parameter_base@_WV?$stream_output_adapter@_W@__crt_stdio_output@@@2@@__crt_stdio_output@@AEAA_NXZ@PEAU1?1??234@AEAA_NXZ@@?$positional_parameter_base@_WV?$stream_output_adapter@_W@__crt_stdio_output@@@__crt_stdio_output@@IEAA_NAEAPEAUansi_string@?1??type_case_Z@?$output_processor@_WV?$stream_output_adapter@_W@__crt_stdio_output@@V?$positional_parameter_base@_WV?$stream_output_adapter@_W@__crt_stdio_output@@@2@@1@AEAA_NXZ@@Z 00000001800580c0 f i libucrtd:output.obj
 0001:00057280       ??$extract_argument_from_va_list@PEAUansi_string@?1??type_case_Z@?$output_processor@_WV?$stream_output_adapter@_W@__crt_stdio_output@@V?$positional_parameter_base@_WV?$stream_output_adapter@_W@__crt_stdio_output@@@2@@__crt_stdio_output@@AEAA_NXZ@PEAU1?1??234@AEAA_NXZ@@?$standard_base@_WV?$stream_output_adapter@_W@__crt_stdio_output@@@__crt_stdio_output@@IEAA_NAEAPEAUansi_string@?1??type_case_Z@?$output_processor@_WV?$stream_output_adapter@_W@__crt_stdio_output@@V?$positional_parameter_base@_WV?$stream_output_adapter@_W@__crt_stdio_output@@@2@@1@AEAA_NXZ@@Z 0000000180058280 f i libucrtd:output.obj
 0001:000572b0       ??$extract_argument_from_va_list@PEAUansi_string@?1??type_case_Z@?$output_processor@_WV?$stream_output_adapter@_W@__crt_stdio_output@@V?$standard_base@_WV?$stream_output_adapter@_W@__crt_stdio_output@@@2@@__crt_stdio_output@@AEAA_NXZ@PEAU1?1??234@AEAA_NXZ@@?$standard_base@_WV?$stream_output_adapter@_W@__crt_stdio_output@@@__crt_stdio_output@@IEAA_NAEAPEAUansi_string@?1??type_case_Z@?$output_processor@_WV?$stream_output_adapter@_W@__crt_stdio_output@@V?$standard_base@_WV?$stream_output_adapter@_W@__crt_stdio_output@@@2@@1@AEAA_NXZ@@Z 00000001800582b0 f i libucrtd:output.obj
 0001:000572e0       ??$extract_argument_from_va_list@PEAUansi_string@?1??type_case_Z@?$output_processor@_WV?$string_output_adapter@_W@__crt_stdio_output@@V?$format_validation_base@_WV?$string_output_adapter@_W@__crt_stdio_output@@@2@@__crt_stdio_output@@AEAA_NXZ@PEAU1?1??234@AEAA_NXZ@@?$standard_base@_WV?$string_output_adapter@_W@__crt_stdio_output@@@__crt_stdio_output@@IEAA_NAEAPEAUansi_string@?1??type_case_Z@?$output_processor@_WV?$string_output_adapter@_W@__crt_stdio_output@@V?$format_validation_base@_WV?$string_output_adapter@_W@__crt_stdio_output@@@2@@1@AEAA_NXZ@@Z 00000001800582e0 f i libucrtd:output.obj
 0001:00057310       ??$extract_argument_from_va_list@PEAUansi_string@?1??type_case_Z@?$output_processor@_WV?$string_output_adapter@_W@__crt_stdio_output@@V?$positional_parameter_base@_WV?$string_output_adapter@_W@__crt_stdio_output@@@2@@__crt_stdio_output@@AEAA_NXZ@PEAU1?1??234@AEAA_NXZ@@?$positional_parameter_base@_WV?$string_output_adapter@_W@__crt_stdio_output@@@__crt_stdio_output@@IEAA_NAEAPEAUansi_string@?1??type_case_Z@?$output_processor@_WV?$string_output_adapter@_W@__crt_stdio_output@@V?$positional_parameter_base@_WV?$string_output_adapter@_W@__crt_stdio_output@@@2@@1@AEAA_NXZ@@Z 0000000180058310 f i libucrtd:output.obj
 0001:000574d0       ??$extract_argument_from_va_list@PEAUansi_string@?1??type_case_Z@?$output_processor@_WV?$string_output_adapter@_W@__crt_stdio_output@@V?$positional_parameter_base@_WV?$string_output_adapter@_W@__crt_stdio_output@@@2@@__crt_stdio_output@@AEAA_NXZ@PEAU1?1??234@AEAA_NXZ@@?$standard_base@_WV?$string_output_adapter@_W@__crt_stdio_output@@@__crt_stdio_output@@IEAA_NAEAPEAUansi_string@?1??type_case_Z@?$output_processor@_WV?$string_output_adapter@_W@__crt_stdio_output@@V?$positional_parameter_base@_WV?$string_output_adapter@_W@__crt_stdio_output@@@2@@1@AEAA_NXZ@@Z 00000001800584d0 f i libucrtd:output.obj
 0001:00057500       ??$extract_argument_from_va_list@PEAUansi_string@?1??type_case_Z@?$output_processor@_WV?$string_output_adapter@_W@__crt_stdio_output@@V?$standard_base@_WV?$string_output_adapter@_W@__crt_stdio_output@@@2@@__crt_stdio_output@@AEAA_NXZ@PEAU1?1??234@AEAA_NXZ@@?$standard_base@_WV?$string_output_adapter@_W@__crt_stdio_output@@@__crt_stdio_output@@IEAA_NAEAPEAUansi_string@?1??type_case_Z@?$output_processor@_WV?$string_output_adapter@_W@__crt_stdio_output@@V?$standard_base@_WV?$string_output_adapter@_W@__crt_stdio_output@@@2@@1@AEAA_NXZ@@Z 0000000180058500 f i libucrtd:output.obj
 0001:00057530       ??$extract_argument_from_va_list@PEAXPEAX@?$positional_parameter_base@DV?$stream_output_adapter@D@__crt_stdio_output@@@__crt_stdio_output@@IEAA_NAEAPEAX@Z 0000000180058530 f i libucrtd:output.obj
 0001:000576f0       ??$extract_argument_from_va_list@PEAXPEAX@?$positional_parameter_base@DV?$string_output_adapter@D@__crt_stdio_output@@@__crt_stdio_output@@IEAA_NAEAPEAX@Z 00000001800586f0 f i libucrtd:output.obj
 0001:000578b0       ??$extract_argument_from_va_list@PEAXPEAX@?$positional_parameter_base@_WV?$stream_output_adapter@_W@__crt_stdio_output@@@__crt_stdio_output@@IEAA_NAEAPEAX@Z 00000001800588b0 f i libucrtd:output.obj
 0001:00057a70       ??$extract_argument_from_va_list@PEAXPEAX@?$positional_parameter_base@_WV?$string_output_adapter@_W@__crt_stdio_output@@@__crt_stdio_output@@IEAA_NAEAPEAX@Z 0000000180058a70 f i libucrtd:output.obj
 0001:00057c30       ??$extract_argument_from_va_list@PEAXPEAX@?$standard_base@DV?$stream_output_adapter@D@__crt_stdio_output@@@__crt_stdio_output@@IEAA_NAEAPEAX@Z 0000000180058c30 f i libucrtd:output.obj
 0001:00057c60       ??$extract_argument_from_va_list@PEAXPEAX@?$standard_base@DV?$string_output_adapter@D@__crt_stdio_output@@@__crt_stdio_output@@IEAA_NAEAPEAX@Z 0000000180058c60 f i libucrtd:output.obj
 0001:00057c90       ??$extract_argument_from_va_list@PEAXPEAX@?$standard_base@_WV?$stream_output_adapter@_W@__crt_stdio_output@@@__crt_stdio_output@@IEAA_NAEAPEAX@Z 0000000180058c90 f i libucrtd:output.obj
 0001:00057cc0       ??$extract_argument_from_va_list@PEAXPEAX@?$standard_base@_WV?$string_output_adapter@_W@__crt_stdio_output@@@__crt_stdio_output@@IEAA_NAEAPEAX@Z 0000000180058cc0 f i libucrtd:output.obj
 0001:00057cf0       ??$extract_argument_from_va_list@U_CRT_DOUBLE@@U1@@?$positional_parameter_base@DV?$stream_output_adapter@D@__crt_stdio_output@@@__crt_stdio_output@@IEAA_NAEAU_CRT_DOUBLE@@@Z 0000000180058cf0 f i libucrtd:output.obj
 0001:00057f10       ??$extract_argument_from_va_list@U_CRT_DOUBLE@@U1@@?$positional_parameter_base@DV?$string_output_adapter@D@__crt_stdio_output@@@__crt_stdio_output@@IEAA_NAEAU_CRT_DOUBLE@@@Z 0000000180058f10 f i libucrtd:output.obj
 0001:00058130       ??$extract_argument_from_va_list@U_CRT_DOUBLE@@U1@@?$positional_parameter_base@_WV?$stream_output_adapter@_W@__crt_stdio_output@@@__crt_stdio_output@@IEAA_NAEAU_CRT_DOUBLE@@@Z 0000000180059130 f i libucrtd:output.obj
 0001:00058350       ??$extract_argument_from_va_list@U_CRT_DOUBLE@@U1@@?$positional_parameter_base@_WV?$string_output_adapter@_W@__crt_stdio_output@@@__crt_stdio_output@@IEAA_NAEAU_CRT_DOUBLE@@@Z 0000000180059350 f i libucrtd:output.obj
 0001:00058570       ??$extract_argument_from_va_list@U_CRT_DOUBLE@@U1@@?$standard_base@DV?$stream_output_adapter@D@__crt_stdio_output@@@__crt_stdio_output@@IEAA_NAEAU_CRT_DOUBLE@@@Z 0000000180059570 f i libucrtd:output.obj
 0001:000585c0       ??$extract_argument_from_va_list@U_CRT_DOUBLE@@U1@@?$standard_base@DV?$string_output_adapter@D@__crt_stdio_output@@@__crt_stdio_output@@IEAA_NAEAU_CRT_DOUBLE@@@Z 00000001800595c0 f i libucrtd:output.obj
 0001:00058610       ??$extract_argument_from_va_list@U_CRT_DOUBLE@@U1@@?$standard_base@_WV?$stream_output_adapter@_W@__crt_stdio_output@@@__crt_stdio_output@@IEAA_NAEAU_CRT_DOUBLE@@@Z 0000000180059610 f i libucrtd:output.obj
 0001:00058660       ??$extract_argument_from_va_list@U_CRT_DOUBLE@@U1@@?$standard_base@_WV?$string_output_adapter@_W@__crt_stdio_output@@@__crt_stdio_output@@IEAA_NAEAU_CRT_DOUBLE@@@Z 0000000180059660 f i libucrtd:output.obj
 0001:000586b0       ??$extract_argument_from_va_list@_J_J@?$positional_parameter_base@DV?$stream_output_adapter@D@__crt_stdio_output@@@__crt_stdio_output@@IEAA_NAEA_J@Z 00000001800596b0 f i libucrtd:output.obj
 0001:00058870       ??$extract_argument_from_va_list@_J_J@?$positional_parameter_base@DV?$string_output_adapter@D@__crt_stdio_output@@@__crt_stdio_output@@IEAA_NAEA_J@Z 0000000180059870 f i libucrtd:output.obj
 0001:00058a30       ??$extract_argument_from_va_list@_J_J@?$positional_parameter_base@_WV?$stream_output_adapter@_W@__crt_stdio_output@@@__crt_stdio_output@@IEAA_NAEA_J@Z 0000000180059a30 f i libucrtd:output.obj
 0001:00058bf0       ??$extract_argument_from_va_list@_J_J@?$positional_parameter_base@_WV?$string_output_adapter@_W@__crt_stdio_output@@@__crt_stdio_output@@IEAA_NAEA_J@Z 0000000180059bf0 f i libucrtd:output.obj
 0001:00058db0       ??$extract_argument_from_va_list@_J_J@?$standard_base@DV?$stream_output_adapter@D@__crt_stdio_output@@@__crt_stdio_output@@IEAA_NAEA_J@Z 0000000180059db0 f i libucrtd:output.obj
 0001:00058de0       ??$extract_argument_from_va_list@_J_J@?$standard_base@DV?$string_output_adapter@D@__crt_stdio_output@@@__crt_stdio_output@@IEAA_NAEA_J@Z 0000000180059de0 f i libucrtd:output.obj
 0001:00058e10       ??$extract_argument_from_va_list@_J_J@?$standard_base@_WV?$stream_output_adapter@_W@__crt_stdio_output@@@__crt_stdio_output@@IEAA_NAEA_J@Z 0000000180059e10 f i libucrtd:output.obj
 0001:00058e40       ??$extract_argument_from_va_list@_J_J@?$standard_base@_WV?$string_output_adapter@_W@__crt_stdio_output@@@__crt_stdio_output@@IEAA_NAEA_J@Z 0000000180059e40 f i libucrtd:output.obj
 0001:00058e70       ??$extract_argument_from_va_list@_K_J@?$positional_parameter_base@DV?$stream_output_adapter@D@__crt_stdio_output@@@__crt_stdio_output@@IEAA_NAEA_J@Z 0000000180059e70 f i libucrtd:output.obj
 0001:00059030       ??$extract_argument_from_va_list@_K_J@?$positional_parameter_base@DV?$string_output_adapter@D@__crt_stdio_output@@@__crt_stdio_output@@IEAA_NAEA_J@Z 000000018005a030 f i libucrtd:output.obj
 0001:000591f0       ??$extract_argument_from_va_list@_K_J@?$positional_parameter_base@_WV?$stream_output_adapter@_W@__crt_stdio_output@@@__crt_stdio_output@@IEAA_NAEA_J@Z 000000018005a1f0 f i libucrtd:output.obj
 0001:000593b0       ??$extract_argument_from_va_list@_K_J@?$positional_parameter_base@_WV?$string_output_adapter@_W@__crt_stdio_output@@@__crt_stdio_output@@IEAA_NAEA_J@Z 000000018005a3b0 f i libucrtd:output.obj
 0001:00059570       ??$extract_argument_from_va_list@_K_J@?$standard_base@DV?$stream_output_adapter@D@__crt_stdio_output@@@__crt_stdio_output@@IEAA_NAEA_J@Z 000000018005a570 f i libucrtd:output.obj
 0001:000595a0       ??$extract_argument_from_va_list@_K_J@?$standard_base@DV?$string_output_adapter@D@__crt_stdio_output@@@__crt_stdio_output@@IEAA_NAEA_J@Z 000000018005a5a0 f i libucrtd:output.obj
 0001:000595d0       ??$extract_argument_from_va_list@_K_J@?$standard_base@_WV?$stream_output_adapter@_W@__crt_stdio_output@@@__crt_stdio_output@@IEAA_NAEA_J@Z 000000018005a5d0 f i libucrtd:output.obj
 0001:00059600       ??$extract_argument_from_va_list@_K_J@?$standard_base@_WV?$string_output_adapter@_W@__crt_stdio_output@@@__crt_stdio_output@@IEAA_NAEA_J@Z 000000018005a600 f i libucrtd:output.obj
 0001:00059630       ??$extract_argument_from_va_list@_W_W@?$positional_parameter_base@DV?$stream_output_adapter@D@__crt_stdio_output@@@__crt_stdio_output@@IEAA_NAEA_W@Z 000000018005a630 f i libucrtd:output.obj
 0001:000597f0       ??$extract_argument_from_va_list@_W_W@?$positional_parameter_base@DV?$string_output_adapter@D@__crt_stdio_output@@@__crt_stdio_output@@IEAA_NAEA_W@Z 000000018005a7f0 f i libucrtd:output.obj
 0001:000599b0       ??$extract_argument_from_va_list@_W_W@?$positional_parameter_base@_WV?$stream_output_adapter@_W@__crt_stdio_output@@@__crt_stdio_output@@IEAA_NAEA_W@Z 000000018005a9b0 f i libucrtd:output.obj
 0001:00059b70       ??$extract_argument_from_va_list@_W_W@?$positional_parameter_base@_WV?$string_output_adapter@_W@__crt_stdio_output@@@__crt_stdio_output@@IEAA_NAEA_W@Z 000000018005ab70 f i libucrtd:output.obj
 0001:00059d30       ??$extract_argument_from_va_list@_W_W@?$standard_base@DV?$stream_output_adapter@D@__crt_stdio_output@@@__crt_stdio_output@@IEAA_NAEA_W@Z 000000018005ad30 f i libucrtd:output.obj
 0001:00059d60       ??$extract_argument_from_va_list@_W_W@?$standard_base@DV?$string_output_adapter@D@__crt_stdio_output@@@__crt_stdio_output@@IEAA_NAEA_W@Z 000000018005ad60 f i libucrtd:output.obj
 0001:00059d90       ??$extract_argument_from_va_list@_W_W@?$standard_base@_WV?$stream_output_adapter@_W@__crt_stdio_output@@@__crt_stdio_output@@IEAA_NAEA_W@Z 000000018005ad90 f i libucrtd:output.obj
 0001:00059dc0       ??$extract_argument_from_va_list@_W_W@?$standard_base@_WV?$string_output_adapter@_W@__crt_stdio_output@@@__crt_stdio_output@@IEAA_NAEA_W@Z 000000018005adc0 f i libucrtd:output.obj
 0001:00059df0       ??$get_parameter_type@D@?$positional_parameter_base@DV?$stream_output_adapter@D@__crt_stdio_output@@@__crt_stdio_output@@CA?AW4parameter_type@01@PEAD@Z 000000018005adf0 f i libucrtd:output.obj
 0001:00059e00       ??$get_parameter_type@D@?$positional_parameter_base@DV?$string_output_adapter@D@__crt_stdio_output@@@__crt_stdio_output@@CA?AW4parameter_type@01@PEAD@Z 000000018005ae00 f i libucrtd:output.obj
 0001:00059e10       ??$get_parameter_type@D@?$positional_parameter_base@_WV?$stream_output_adapter@_W@__crt_stdio_output@@@__crt_stdio_output@@CA?AW4parameter_type@01@PEAD@Z 000000018005ae10 f i libucrtd:output.obj
 0001:00059e20       ??$get_parameter_type@D@?$positional_parameter_base@_WV?$string_output_adapter@_W@__crt_stdio_output@@@__crt_stdio_output@@CA?AW4parameter_type@01@PEAD@Z 000000018005ae20 f i libucrtd:output.obj
 0001:00059e30       ??$get_parameter_type@Uansi_string@?1??type_case_Z@?$output_processor@DV?$stream_output_adapter@D@__crt_stdio_output@@V?$positional_parameter_base@DV?$stream_output_adapter@D@__crt_stdio_output@@@2@@__crt_stdio_output@@AEAA_NXZ@@?$positional_parameter_base@DV?$stream_output_adapter@D@__crt_stdio_output@@@__crt_stdio_output@@CA?AW4parameter_type@01@PEAUansi_string@?1??type_case_Z@?$output_processor@DV?$stream_output_adapter@D@__crt_stdio_output@@V?$positional_parameter_base@DV?$stream_output_adapter@D@__crt_stdio_output@@@2@@1@AEAA_NXZ@@Z 000000018005ae30 f i libucrtd:output.obj
 0001:00059e40       ??$get_parameter_type@Uansi_string@?1??type_case_Z@?$output_processor@DV?$string_output_adapter@D@__crt_stdio_output@@V?$positional_parameter_base@DV?$string_output_adapter@D@__crt_stdio_output@@@2@@__crt_stdio_output@@AEAA_NXZ@@?$positional_parameter_base@DV?$string_output_adapter@D@__crt_stdio_output@@@__crt_stdio_output@@CA?AW4parameter_type@01@PEAUansi_string@?1??type_case_Z@?$output_processor@DV?$string_output_adapter@D@__crt_stdio_output@@V?$positional_parameter_base@DV?$string_output_adapter@D@__crt_stdio_output@@@2@@1@AEAA_NXZ@@Z 000000018005ae40 f i libucrtd:output.obj
 0001:00059e50       ??$get_parameter_type@Uansi_string@?1??type_case_Z@?$output_processor@_WV?$stream_output_adapter@_W@__crt_stdio_output@@V?$positional_parameter_base@_WV?$stream_output_adapter@_W@__crt_stdio_output@@@2@@__crt_stdio_output@@AEAA_NXZ@@?$positional_parameter_base@_WV?$stream_output_adapter@_W@__crt_stdio_output@@@__crt_stdio_output@@CA?AW4parameter_type@01@PEAUansi_string@?1??type_case_Z@?$output_processor@_WV?$stream_output_adapter@_W@__crt_stdio_output@@V?$positional_parameter_base@_WV?$stream_output_adapter@_W@__crt_stdio_output@@@2@@1@AEAA_NXZ@@Z 000000018005ae50 f i libucrtd:output.obj
 0001:00059e60       ??$get_parameter_type@Uansi_string@?1??type_case_Z@?$output_processor@_WV?$string_output_adapter@_W@__crt_stdio_output@@V?$positional_parameter_base@_WV?$string_output_adapter@_W@__crt_stdio_output@@@2@@__crt_stdio_output@@AEAA_NXZ@@?$positional_parameter_base@_WV?$string_output_adapter@_W@__crt_stdio_output@@@__crt_stdio_output@@CA?AW4parameter_type@01@PEAUansi_string@?1??type_case_Z@?$output_processor@_WV?$string_output_adapter@_W@__crt_stdio_output@@V?$positional_parameter_base@_WV?$string_output_adapter@_W@__crt_stdio_output@@@2@@1@AEAA_NXZ@@Z 000000018005ae60 f i libucrtd:output.obj
 0001:00059e70       ??$get_parameter_type@X@?$positional_parameter_base@DV?$stream_output_adapter@D@__crt_stdio_output@@@__crt_stdio_output@@CA?AW4parameter_type@01@PEAX@Z 000000018005ae70 f i libucrtd:output.obj
 0001:00059e80       ??$get_parameter_type@X@?$positional_parameter_base@DV?$string_output_adapter@D@__crt_stdio_output@@@__crt_stdio_output@@CA?AW4parameter_type@01@PEAX@Z 000000018005ae80 f i libucrtd:output.obj
 0001:00059e90       ??$get_parameter_type@X@?$positional_parameter_base@_WV?$stream_output_adapter@_W@__crt_stdio_output@@@__crt_stdio_output@@CA?AW4parameter_type@01@PEAX@Z 000000018005ae90 f i libucrtd:output.obj
 0001:00059ea0       ??$get_parameter_type@X@?$positional_parameter_base@_WV?$string_output_adapter@_W@__crt_stdio_output@@@__crt_stdio_output@@CA?AW4parameter_type@01@PEAX@Z 000000018005aea0 f i libucrtd:output.obj
 0001:00059eb0       ??$is_character_specifier@D@?$positional_parameter_base@DV?$stream_output_adapter@D@__crt_stdio_output@@@__crt_stdio_output@@CA_ND@Z 000000018005aeb0 f i libucrtd:output.obj
 0001:00059ef0       ??$is_character_specifier@D@?$positional_parameter_base@DV?$string_output_adapter@D@__crt_stdio_output@@@__crt_stdio_output@@CA_ND@Z 000000018005aef0 f i libucrtd:output.obj
 0001:00059f30       ??$is_character_specifier@_W@?$positional_parameter_base@_WV?$stream_output_adapter@_W@__crt_stdio_output@@@__crt_stdio_output@@CA_N_W@Z 000000018005af30 f i libucrtd:output.obj
 0001:00059f70       ??$is_character_specifier@_W@?$positional_parameter_base@_WV?$string_output_adapter@_W@__crt_stdio_output@@@__crt_stdio_output@@CA_N_W@Z 000000018005af70 f i libucrtd:output.obj
 0001:00059fb0       ??$is_integral_specifier@D@?$positional_parameter_base@DV?$stream_output_adapter@D@__crt_stdio_output@@@__crt_stdio_output@@CA_ND@Z 000000018005afb0 f i libucrtd:output.obj
 0001:0005a020       ??$is_integral_specifier@D@?$positional_parameter_base@DV?$string_output_adapter@D@__crt_stdio_output@@@__crt_stdio_output@@CA_ND@Z 000000018005b020 f i libucrtd:output.obj
 0001:0005a090       ??$is_integral_specifier@_W@?$positional_parameter_base@_WV?$stream_output_adapter@_W@__crt_stdio_output@@@__crt_stdio_output@@CA_N_W@Z 000000018005b090 f i libucrtd:output.obj
 0001:0005a100       ??$is_integral_specifier@_W@?$positional_parameter_base@_WV?$string_output_adapter@_W@__crt_stdio_output@@@__crt_stdio_output@@CA_N_W@Z 000000018005b100 f i libucrtd:output.obj
 0001:0005a170       ??$is_overflow_condition@K@__crt_strtox@@YA_NIK@Z 000000018005b170 f i libucrtd:output.obj
 0001:0005a1e0       ??$is_pointer_specifier@D@?$positional_parameter_base@DV?$stream_output_adapter@D@__crt_stdio_output@@@__crt_stdio_output@@CA_ND@Z 000000018005b1e0 f i libucrtd:output.obj
 0001:0005a210       ??$is_pointer_specifier@D@?$positional_parameter_base@DV?$string_output_adapter@D@__crt_stdio_output@@@__crt_stdio_output@@CA_ND@Z 000000018005b210 f i libucrtd:output.obj
 0001:0005a240       ??$is_pointer_specifier@_W@?$positional_parameter_base@_WV?$stream_output_adapter@_W@__crt_stdio_output@@@__crt_stdio_output@@CA_N_W@Z 000000018005b240 f i libucrtd:output.obj
 0001:0005a270       ??$is_pointer_specifier@_W@?$positional_parameter_base@_WV?$string_output_adapter@_W@__crt_stdio_output@@@__crt_stdio_output@@CA_N_W@Z 000000018005b270 f i libucrtd:output.obj
 0001:0005a2a0       ??$is_string_specifier@D@?$positional_parameter_base@DV?$stream_output_adapter@D@__crt_stdio_output@@@__crt_stdio_output@@CA_ND@Z 000000018005b2a0 f i libucrtd:output.obj
 0001:0005a2e0       ??$is_string_specifier@D@?$positional_parameter_base@DV?$string_output_adapter@D@__crt_stdio_output@@@__crt_stdio_output@@CA_ND@Z 000000018005b2e0 f i libucrtd:output.obj
 0001:0005a320       ??$is_string_specifier@_W@?$positional_parameter_base@_WV?$stream_output_adapter@_W@__crt_stdio_output@@@__crt_stdio_output@@CA_N_W@Z 000000018005b320 f i libucrtd:output.obj
 0001:0005a360       ??$is_string_specifier@_W@?$positional_parameter_base@_WV?$string_output_adapter@_W@__crt_stdio_output@@@__crt_stdio_output@@CA_N_W@Z 000000018005b360 f i libucrtd:output.obj
 0001:0005a3a0       ??$is_wide_character_specifier@D@__crt_stdio_output@@YA_N_KDW4length_modifier@0@@Z 000000018005b3a0 f i libucrtd:output.obj
 0001:0005a440       ??$is_wide_character_specifier@_W@__crt_stdio_output@@YA_N_K_WW4length_modifier@0@@Z 000000018005b440 f i libucrtd:output.obj
 0001:0005a510       ??$make_c_string_character_source@DPEAPEAD@__crt_strtox@@YA?AV?$c_string_character_source@D@0@QEBDQEAPEAD@Z 000000018005b510 f i libucrtd:output.obj
 0001:0005a550       ??$make_c_string_character_source@_WPEAPEA_W@__crt_strtox@@YA?AV?$c_string_character_source@_W@0@QEB_WQEAPEA_W@Z 000000018005b550 f i libucrtd:output.obj
 0001:0005a590       ??$parse_integer@KV?$c_string_character_source@D@__crt_strtox@@$0A@@__crt_strtox@@YAKAEAV__crt_cached_ptd_host@@V?$c_string_character_source@D@0@H_N@Z 000000018005b590 f i libucrtd:output.obj
 0001:0005aa10       ??$parse_integer@KV?$c_string_character_source@_W@__crt_strtox@@$0A@@__crt_strtox@@YAKAEAV__crt_cached_ptd_host@@V?$c_string_character_source@_W@0@H_N@Z 000000018005ba10 f i libucrtd:output.obj
 0001:0005ae90       ??$peek_va_arg@C@__crt_stdio_output@@YACPEAD@Z 000000018005be90 f i libucrtd:output.obj
 0001:0005aef0       ??$peek_va_arg@E@__crt_stdio_output@@YAEPEAD@Z 000000018005bef0 f i libucrtd:output.obj
 0001:0005af50       ??$peek_va_arg@F@__crt_stdio_output@@YAFPEAD@Z 000000018005bf50 f i libucrtd:output.obj
 0001:0005afb0       ??$peek_va_arg@G@__crt_stdio_output@@YAGPEAD@Z 000000018005bfb0 f i libucrtd:output.obj
 0001:0005b010       ??$peek_va_arg@H@__crt_stdio_output@@YAHPEAD@Z 000000018005c010 f i libucrtd:output.obj
 0001:0005b060       ??$peek_va_arg@I@__crt_stdio_output@@YAIPEAD@Z 000000018005c060 f i libucrtd:output.obj
 0001:0005b0b0       ??$peek_va_arg@PEAD@__crt_stdio_output@@YAPEADPEAD@Z 000000018005c0b0 f i libucrtd:output.obj
 0001:0005b110       ??$peek_va_arg@PEAUansi_string@?1??type_case_Z@?$output_processor@DV?$stream_output_adapter@D@__crt_stdio_output@@V?$positional_parameter_base@DV?$stream_output_adapter@D@__crt_stdio_output@@@2@@__crt_stdio_output@@AEAA_NXZ@@__crt_stdio_output@@YAPEAUansi_string@?1??type_case_Z@?$output_processor@DV?$stream_output_adapter@D@__crt_stdio_output@@V?$positional_parameter_base@DV?$stream_output_adapter@D@__crt_stdio_output@@@2@@0@AEAA_NXZ@PEAD@Z 000000018005c110 f i libucrtd:output.obj
 0001:0005b170       ??$peek_va_arg@PEAUansi_string@?1??type_case_Z@?$output_processor@DV?$string_output_adapter@D@__crt_stdio_output@@V?$positional_parameter_base@DV?$string_output_adapter@D@__crt_stdio_output@@@2@@__crt_stdio_output@@AEAA_NXZ@@__crt_stdio_output@@YAPEAUansi_string@?1??type_case_Z@?$output_processor@DV?$string_output_adapter@D@__crt_stdio_output@@V?$positional_parameter_base@DV?$string_output_adapter@D@__crt_stdio_output@@@2@@0@AEAA_NXZ@PEAD@Z 000000018005c170 f i libucrtd:output.obj
 0001:0005b1d0       ??$peek_va_arg@PEAUansi_string@?1??type_case_Z@?$output_processor@_WV?$stream_output_adapter@_W@__crt_stdio_output@@V?$positional_parameter_base@_WV?$stream_output_adapter@_W@__crt_stdio_output@@@2@@__crt_stdio_output@@AEAA_NXZ@@__crt_stdio_output@@YAPEAUansi_string@?1??type_case_Z@?$output_processor@_WV?$stream_output_adapter@_W@__crt_stdio_output@@V?$positional_parameter_base@_WV?$stream_output_adapter@_W@__crt_stdio_output@@@2@@0@AEAA_NXZ@PEAD@Z 000000018005c1d0 f i libucrtd:output.obj
 0001:0005b230       ??$peek_va_arg@PEAUansi_string@?1??type_case_Z@?$output_processor@_WV?$string_output_adapter@_W@__crt_stdio_output@@V?$positional_parameter_base@_WV?$string_output_adapter@_W@__crt_stdio_output@@@2@@__crt_stdio_output@@AEAA_NXZ@@__crt_stdio_output@@YAPEAUansi_string@?1??type_case_Z@?$output_processor@_WV?$string_output_adapter@_W@__crt_stdio_output@@V?$positional_parameter_base@_WV?$string_output_adapter@_W@__crt_stdio_output@@@2@@0@AEAA_NXZ@PEAD@Z 000000018005c230 f i libucrtd:output.obj
 0001:0005b290       ??$peek_va_arg@PEAX@__crt_stdio_output@@YAPEAXPEAD@Z 000000018005c290 f i libucrtd:output.obj
 0001:0005b2f0       ??$peek_va_arg@U_CRT_DOUBLE@@@__crt_stdio_output@@YA?AU_CRT_DOUBLE@@PEAD@Z 000000018005c2f0 f i libucrtd:output.obj
 0001:0005b350       ??$peek_va_arg@_J@__crt_stdio_output@@YA_JPEAD@Z 000000018005c350 f i libucrtd:output.obj
 0001:0005b3b0       ??$peek_va_arg@_K@__crt_stdio_output@@YA_KPEAD@Z 000000018005c3b0 f i libucrtd:output.obj
 0001:0005b410       ??$peek_va_arg@_W@__crt_stdio_output@@YA_WPEAD@Z 000000018005c410 f i libucrtd:output.obj
 0001:0005b470       ??$puttc_nolock_internal@AEBDPEAU_iobuf@@AEAV__crt_cached_ptd_host@@@?$__crt_char_traits@D@@SAHAEBD$$QEAPEAU_iobuf@@AEAV__crt_cached_ptd_host@@@Z 000000018005c470 f i libucrtd:output.obj
 0001:0005b4b0       ??$puttc_nolock_internal@AEB_WPEAU_iobuf@@AEAV__crt_cached_ptd_host@@@?$__crt_char_traits@_W@@SAGAEB_W$$QEAPEAU_iobuf@@AEAV__crt_cached_ptd_host@@@Z 000000018005c4b0 f i libucrtd:output.obj
 0001:0005b4f0       ??$read_va_arg@C@__crt_stdio_output@@YACAEAPEAD@Z 000000018005c4f0 f i libucrtd:output.obj
 0001:0005b560       ??$read_va_arg@E@__crt_stdio_output@@YAEAEAPEAD@Z 000000018005c560 f i libucrtd:output.obj
 0001:0005b5d0       ??$read_va_arg@F@__crt_stdio_output@@YAFAEAPEAD@Z 000000018005c5d0 f i libucrtd:output.obj
 0001:0005b640       ??$read_va_arg@G@__crt_stdio_output@@YAGAEAPEAD@Z 000000018005c640 f i libucrtd:output.obj
 0001:0005b6b0       ??$read_va_arg@H@__crt_stdio_output@@YAHAEAPEAD@Z 000000018005c6b0 f i libucrtd:output.obj
 0001:0005b710       ??$read_va_arg@I@__crt_stdio_output@@YAIAEAPEAD@Z 000000018005c710 f i libucrtd:output.obj
 0001:0005b770       ??$read_va_arg@PEAD@__crt_stdio_output@@YAPEADAEAPEAD@Z 000000018005c770 f i libucrtd:output.obj
 0001:0005b7e0       ??$read_va_arg@PEAUansi_string@?1??type_case_Z@?$output_processor@DV?$stream_output_adapter@D@__crt_stdio_output@@V?$format_validation_base@DV?$stream_output_adapter@D@__crt_stdio_output@@@2@@__crt_stdio_output@@AEAA_NXZ@@__crt_stdio_output@@YAPEAUansi_string@?1??type_case_Z@?$output_processor@DV?$stream_output_adapter@D@__crt_stdio_output@@V?$format_validation_base@DV?$stream_output_adapter@D@__crt_stdio_output@@@2@@0@AEAA_NXZ@AEAPEAD@Z 000000018005c7e0 f i libucrtd:output.obj
 0001:0005b850       ??$read_va_arg@PEAUansi_string@?1??type_case_Z@?$output_processor@DV?$stream_output_adapter@D@__crt_stdio_output@@V?$positional_parameter_base@DV?$stream_output_adapter@D@__crt_stdio_output@@@2@@__crt_stdio_output@@AEAA_NXZ@@__crt_stdio_output@@YAPEAUansi_string@?1??type_case_Z@?$output_processor@DV?$stream_output_adapter@D@__crt_stdio_output@@V?$positional_parameter_base@DV?$stream_output_adapter@D@__crt_stdio_output@@@2@@0@AEAA_NXZ@AEAPEAD@Z 000000018005c850 f i libucrtd:output.obj
 0001:0005b8c0       ??$read_va_arg@PEAUansi_string@?1??type_case_Z@?$output_processor@DV?$stream_output_adapter@D@__crt_stdio_output@@V?$standard_base@DV?$stream_output_adapter@D@__crt_stdio_output@@@2@@__crt_stdio_output@@AEAA_NXZ@@__crt_stdio_output@@YAPEAUansi_string@?1??type_case_Z@?$output_processor@DV?$stream_output_adapter@D@__crt_stdio_output@@V?$standard_base@DV?$stream_output_adapter@D@__crt_stdio_output@@@2@@0@AEAA_NXZ@AEAPEAD@Z 000000018005c8c0 f i libucrtd:output.obj
 0001:0005b930       ??$read_va_arg@PEAUansi_string@?1??type_case_Z@?$output_processor@DV?$string_output_adapter@D@__crt_stdio_output@@V?$format_validation_base@DV?$string_output_adapter@D@__crt_stdio_output@@@2@@__crt_stdio_output@@AEAA_NXZ@@__crt_stdio_output@@YAPEAUansi_string@?1??type_case_Z@?$output_processor@DV?$string_output_adapter@D@__crt_stdio_output@@V?$format_validation_base@DV?$string_output_adapter@D@__crt_stdio_output@@@2@@0@AEAA_NXZ@AEAPEAD@Z 000000018005c930 f i libucrtd:output.obj
 0001:0005b9a0       ??$read_va_arg@PEAUansi_string@?1??type_case_Z@?$output_processor@DV?$string_output_adapter@D@__crt_stdio_output@@V?$positional_parameter_base@DV?$string_output_adapter@D@__crt_stdio_output@@@2@@__crt_stdio_output@@AEAA_NXZ@@__crt_stdio_output@@YAPEAUansi_string@?1??type_case_Z@?$output_processor@DV?$string_output_adapter@D@__crt_stdio_output@@V?$positional_parameter_base@DV?$string_output_adapter@D@__crt_stdio_output@@@2@@0@AEAA_NXZ@AEAPEAD@Z 000000018005c9a0 f i libucrtd:output.obj
 0001:0005ba10       ??$read_va_arg@PEAUansi_string@?1??type_case_Z@?$output_processor@DV?$string_output_adapter@D@__crt_stdio_output@@V?$standard_base@DV?$string_output_adapter@D@__crt_stdio_output@@@2@@__crt_stdio_output@@AEAA_NXZ@@__crt_stdio_output@@YAPEAUansi_string@?1??type_case_Z@?$output_processor@DV?$string_output_adapter@D@__crt_stdio_output@@V?$standard_base@DV?$string_output_adapter@D@__crt_stdio_output@@@2@@0@AEAA_NXZ@AEAPEAD@Z 000000018005ca10 f i libucrtd:output.obj
 0001:0005ba80       ??$read_va_arg@PEAUansi_string@?1??type_case_Z@?$output_processor@_WV?$stream_output_adapter@_W@__crt_stdio_output@@V?$format_validation_base@_WV?$stream_output_adapter@_W@__crt_stdio_output@@@2@@__crt_stdio_output@@AEAA_NXZ@@__crt_stdio_output@@YAPEAUansi_string@?1??type_case_Z@?$output_processor@_WV?$stream_output_adapter@_W@__crt_stdio_output@@V?$format_validation_base@_WV?$stream_output_adapter@_W@__crt_stdio_output@@@2@@0@AEAA_NXZ@AEAPEAD@Z 000000018005ca80 f i libucrtd:output.obj
 0001:0005baf0       ??$read_va_arg@PEAUansi_string@?1??type_case_Z@?$output_processor@_WV?$stream_output_adapter@_W@__crt_stdio_output@@V?$positional_parameter_base@_WV?$stream_output_adapter@_W@__crt_stdio_output@@@2@@__crt_stdio_output@@AEAA_NXZ@@__crt_stdio_output@@YAPEAUansi_string@?1??type_case_Z@?$output_processor@_WV?$stream_output_adapter@_W@__crt_stdio_output@@V?$positional_parameter_base@_WV?$stream_output_adapter@_W@__crt_stdio_output@@@2@@0@AEAA_NXZ@AEAPEAD@Z 000000018005caf0 f i libucrtd:output.obj
 0001:0005bb60       ??$read_va_arg@PEAUansi_string@?1??type_case_Z@?$output_processor@_WV?$stream_output_adapter@_W@__crt_stdio_output@@V?$standard_base@_WV?$stream_output_adapter@_W@__crt_stdio_output@@@2@@__crt_stdio_output@@AEAA_NXZ@@__crt_stdio_output@@YAPEAUansi_string@?1??type_case_Z@?$output_processor@_WV?$stream_output_adapter@_W@__crt_stdio_output@@V?$standard_base@_WV?$stream_output_adapter@_W@__crt_stdio_output@@@2@@0@AEAA_NXZ@AEAPEAD@Z 000000018005cb60 f i libucrtd:output.obj
 0001:0005bbd0       ??$read_va_arg@PEAUansi_string@?1??type_case_Z@?$output_processor@_WV?$string_output_adapter@_W@__crt_stdio_output@@V?$format_validation_base@_WV?$string_output_adapter@_W@__crt_stdio_output@@@2@@__crt_stdio_output@@AEAA_NXZ@@__crt_stdio_output@@YAPEAUansi_string@?1??type_case_Z@?$output_processor@_WV?$string_output_adapter@_W@__crt_stdio_output@@V?$format_validation_base@_WV?$string_output_adapter@_W@__crt_stdio_output@@@2@@0@AEAA_NXZ@AEAPEAD@Z 000000018005cbd0 f i libucrtd:output.obj
 0001:0005bc40       ??$read_va_arg@PEAUansi_string@?1??type_case_Z@?$output_processor@_WV?$string_output_adapter@_W@__crt_stdio_output@@V?$positional_parameter_base@_WV?$string_output_adapter@_W@__crt_stdio_output@@@2@@__crt_stdio_output@@AEAA_NXZ@@__crt_stdio_output@@YAPEAUansi_string@?1??type_case_Z@?$output_processor@_WV?$string_output_adapter@_W@__crt_stdio_output@@V?$positional_parameter_base@_WV?$string_output_adapter@_W@__crt_stdio_output@@@2@@0@AEAA_NXZ@AEAPEAD@Z 000000018005cc40 f i libucrtd:output.obj
 0001:0005bcb0       ??$read_va_arg@PEAUansi_string@?1??type_case_Z@?$output_processor@_WV?$string_output_adapter@_W@__crt_stdio_output@@V?$standard_base@_WV?$string_output_adapter@_W@__crt_stdio_output@@@2@@__crt_stdio_output@@AEAA_NXZ@@__crt_stdio_output@@YAPEAUansi_string@?1??type_case_Z@?$output_processor@_WV?$string_output_adapter@_W@__crt_stdio_output@@V?$standard_base@_WV?$string_output_adapter@_W@__crt_stdio_output@@@2@@0@AEAA_NXZ@AEAPEAD@Z 000000018005ccb0 f i libucrtd:output.obj
 0001:0005bd20       ??$read_va_arg@PEAX@__crt_stdio_output@@YAPEAXAEAPEAD@Z 000000018005cd20 f i libucrtd:output.obj
 0001:0005bd90       ??$read_va_arg@U_CRT_DOUBLE@@@__crt_stdio_output@@YA?AU_CRT_DOUBLE@@AEAPEAD@Z 000000018005cd90 f i libucrtd:output.obj
 0001:0005be00       ??$read_va_arg@_J@__crt_stdio_output@@YA_JAEAPEAD@Z 000000018005ce00 f i libucrtd:output.obj
 0001:0005be70       ??$read_va_arg@_K@__crt_stdio_output@@YA_KAEAPEAD@Z 000000018005ce70 f i libucrtd:output.obj
 0001:0005bee0       ??$read_va_arg@_W@__crt_stdio_output@@YA_WAEAPEAD@Z 000000018005cee0 f i libucrtd:output.obj
 0001:0005bf50       ??$scratch_count@D@formatting_buffer@__crt_stdio_output@@QEBA_KXZ 000000018005cf50 f i libucrtd:output.obj
 0001:0005bf70       ??$scratch_data@D@formatting_buffer@__crt_stdio_output@@QEAAPEADXZ 000000018005cf70 f i libucrtd:output.obj
 0001:0005bfe0       ??$type_case_integer@$07@?$output_processor@DV?$stream_output_adapter@D@__crt_stdio_output@@V?$format_validation_base@DV?$stream_output_adapter@D@__crt_stdio_output@@@2@@__crt_stdio_output@@AEAA_N_N@Z 000000018005cfe0 f i libucrtd:output.obj
 0001:0005c460       ??$type_case_integer@$07@?$output_processor@DV?$stream_output_adapter@D@__crt_stdio_output@@V?$positional_parameter_base@DV?$stream_output_adapter@D@__crt_stdio_output@@@2@@__crt_stdio_output@@AEAA_N_N@Z 000000018005d460 f i libucrtd:output.obj
 0001:0005c8e0       ??$type_case_integer@$07@?$output_processor@DV?$stream_output_adapter@D@__crt_stdio_output@@V?$standard_base@DV?$stream_output_adapter@D@__crt_stdio_output@@@2@@__crt_stdio_output@@AEAA_N_N@Z 000000018005d8e0 f i libucrtd:output.obj
 0001:0005cd60       ??$type_case_integer@$07@?$output_processor@DV?$string_output_adapter@D@__crt_stdio_output@@V?$format_validation_base@DV?$string_output_adapter@D@__crt_stdio_output@@@2@@__crt_stdio_output@@AEAA_N_N@Z 000000018005dd60 f i libucrtd:output.obj
 0001:0005d1e0       ??$type_case_integer@$07@?$output_processor@DV?$string_output_adapter@D@__crt_stdio_output@@V?$positional_parameter_base@DV?$string_output_adapter@D@__crt_stdio_output@@@2@@__crt_stdio_output@@AEAA_N_N@Z 000000018005e1e0 f i libucrtd:output.obj
 0001:0005d660       ??$type_case_integer@$07@?$output_processor@DV?$string_output_adapter@D@__crt_stdio_output@@V?$standard_base@DV?$string_output_adapter@D@__crt_stdio_output@@@2@@__crt_stdio_output@@AEAA_N_N@Z 000000018005e660 f i libucrtd:output.obj
 0001:0005dae0       ??$type_case_integer@$07@?$output_processor@_WV?$stream_output_adapter@_W@__crt_stdio_output@@V?$format_validation_base@_WV?$stream_output_adapter@_W@__crt_stdio_output@@@2@@__crt_stdio_output@@AEAA_N_N@Z 000000018005eae0 f i libucrtd:output.obj
 0001:0005df60       ??$type_case_integer@$07@?$output_processor@_WV?$stream_output_adapter@_W@__crt_stdio_output@@V?$positional_parameter_base@_WV?$stream_output_adapter@_W@__crt_stdio_output@@@2@@__crt_stdio_output@@AEAA_N_N@Z 000000018005ef60 f i libucrtd:output.obj
 0001:0005e3e0       ??$type_case_integer@$07@?$output_processor@_WV?$stream_output_adapter@_W@__crt_stdio_output@@V?$standard_base@_WV?$stream_output_adapter@_W@__crt_stdio_output@@@2@@__crt_stdio_output@@AEAA_N_N@Z 000000018005f3e0 f i libucrtd:output.obj
 0001:0005e860       ??$type_case_integer@$07@?$output_processor@_WV?$string_output_adapter@_W@__crt_stdio_output@@V?$format_validation_base@_WV?$string_output_adapter@_W@__crt_stdio_output@@@2@@__crt_stdio_output@@AEAA_N_N@Z 000000018005f860 f i libucrtd:output.obj
 0001:0005ece0       ??$type_case_integer@$07@?$output_processor@_WV?$string_output_adapter@_W@__crt_stdio_output@@V?$positional_parameter_base@_WV?$string_output_adapter@_W@__crt_stdio_output@@@2@@__crt_stdio_output@@AEAA_N_N@Z 000000018005fce0 f i libucrtd:output.obj
 0001:0005f160       ??$type_case_integer@$07@?$output_processor@_WV?$string_output_adapter@_W@__crt_stdio_output@@V?$standard_base@_WV?$string_output_adapter@_W@__crt_stdio_output@@@2@@__crt_stdio_output@@AEAA_N_N@Z 0000000180060160 f i libucrtd:output.obj
 0001:0005f5e0       ??$type_case_integer@$09@?$output_processor@DV?$stream_output_adapter@D@__crt_stdio_output@@V?$format_validation_base@DV?$stream_output_adapter@D@__crt_stdio_output@@@2@@__crt_stdio_output@@AEAA_N_N@Z 00000001800605e0 f i libucrtd:output.obj
 0001:0005fa60       ??$type_case_integer@$09@?$output_processor@DV?$stream_output_adapter@D@__crt_stdio_output@@V?$positional_parameter_base@DV?$stream_output_adapter@D@__crt_stdio_output@@@2@@__crt_stdio_output@@AEAA_N_N@Z 0000000180060a60 f i libucrtd:output.obj
 0001:0005fee0       ??$type_case_integer@$09@?$output_processor@DV?$stream_output_adapter@D@__crt_stdio_output@@V?$standard_base@DV?$stream_output_adapter@D@__crt_stdio_output@@@2@@__crt_stdio_output@@AEAA_N_N@Z 0000000180060ee0 f i libucrtd:output.obj
 0001:00060360       ??$type_case_integer@$09@?$output_processor@DV?$string_output_adapter@D@__crt_stdio_output@@V?$format_validation_base@DV?$string_output_adapter@D@__crt_stdio_output@@@2@@__crt_stdio_output@@AEAA_N_N@Z 0000000180061360 f i libucrtd:output.obj
 0001:000607e0       ??$type_case_integer@$09@?$output_processor@DV?$string_output_adapter@D@__crt_stdio_output@@V?$positional_parameter_base@DV?$string_output_adapter@D@__crt_stdio_output@@@2@@__crt_stdio_output@@AEAA_N_N@Z 00000001800617e0 f i libucrtd:output.obj
 0001:00060c60       ??$type_case_integer@$09@?$output_processor@DV?$string_output_adapter@D@__crt_stdio_output@@V?$standard_base@DV?$string_output_adapter@D@__crt_stdio_output@@@2@@__crt_stdio_output@@AEAA_N_N@Z 0000000180061c60 f i libucrtd:output.obj
 0001:000610e0       ??$type_case_integer@$09@?$output_processor@_WV?$stream_output_adapter@_W@__crt_stdio_output@@V?$format_validation_base@_WV?$stream_output_adapter@_W@__crt_stdio_output@@@2@@__crt_stdio_output@@AEAA_N_N@Z 00000001800620e0 f i libucrtd:output.obj
 0001:00061560       ??$type_case_integer@$09@?$output_processor@_WV?$stream_output_adapter@_W@__crt_stdio_output@@V?$positional_parameter_base@_WV?$stream_output_adapter@_W@__crt_stdio_output@@@2@@__crt_stdio_output@@AEAA_N_N@Z 0000000180062560 f i libucrtd:output.obj
 0001:000619e0       ??$type_case_integer@$09@?$output_processor@_WV?$stream_output_adapter@_W@__crt_stdio_output@@V?$standard_base@_WV?$stream_output_adapter@_W@__crt_stdio_output@@@2@@__crt_stdio_output@@AEAA_N_N@Z 00000001800629e0 f i libucrtd:output.obj
 0001:00061e60       ??$type_case_integer@$09@?$output_processor@_WV?$string_output_adapter@_W@__crt_stdio_output@@V?$format_validation_base@_WV?$string_output_adapter@_W@__crt_stdio_output@@@2@@__crt_stdio_output@@AEAA_N_N@Z 0000000180062e60 f i libucrtd:output.obj
 0001:000622e0       ??$type_case_integer@$09@?$output_processor@_WV?$string_output_adapter@_W@__crt_stdio_output@@V?$positional_parameter_base@_WV?$string_output_adapter@_W@__crt_stdio_output@@@2@@__crt_stdio_output@@AEAA_N_N@Z 00000001800632e0 f i libucrtd:output.obj
 0001:00062760       ??$type_case_integer@$09@?$output_processor@_WV?$string_output_adapter@_W@__crt_stdio_output@@V?$standard_base@_WV?$string_output_adapter@_W@__crt_stdio_output@@@2@@__crt_stdio_output@@AEAA_N_N@Z 0000000180063760 f i libucrtd:output.obj
 0001:00062be0       ??$type_case_integer@$0BA@@?$output_processor@DV?$stream_output_adapter@D@__crt_stdio_output@@V?$format_validation_base@DV?$stream_output_adapter@D@__crt_stdio_output@@@2@@__crt_stdio_output@@AEAA_N_N@Z 0000000180063be0 f i libucrtd:output.obj
 0001:00063060       ??$type_case_integer@$0BA@@?$output_processor@DV?$stream_output_adapter@D@__crt_stdio_output@@V?$positional_parameter_base@DV?$stream_output_adapter@D@__crt_stdio_output@@@2@@__crt_stdio_output@@AEAA_N_N@Z 0000000180064060 f i libucrtd:output.obj
 0001:000634e0       ??$type_case_integer@$0BA@@?$output_processor@DV?$stream_output_adapter@D@__crt_stdio_output@@V?$standard_base@DV?$stream_output_adapter@D@__crt_stdio_output@@@2@@__crt_stdio_output@@AEAA_N_N@Z 00000001800644e0 f i libucrtd:output.obj
 0001:00063960       ??$type_case_integer@$0BA@@?$output_processor@DV?$string_output_adapter@D@__crt_stdio_output@@V?$format_validation_base@DV?$string_output_adapter@D@__crt_stdio_output@@@2@@__crt_stdio_output@@AEAA_N_N@Z 0000000180064960 f i libucrtd:output.obj
 0001:00063de0       ??$type_case_integer@$0BA@@?$output_processor@DV?$string_output_adapter@D@__crt_stdio_output@@V?$positional_parameter_base@DV?$string_output_adapter@D@__crt_stdio_output@@@2@@__crt_stdio_output@@AEAA_N_N@Z 0000000180064de0 f i libucrtd:output.obj
 0001:00064260       ??$type_case_integer@$0BA@@?$output_processor@DV?$string_output_adapter@D@__crt_stdio_output@@V?$standard_base@DV?$string_output_adapter@D@__crt_stdio_output@@@2@@__crt_stdio_output@@AEAA_N_N@Z 0000000180065260 f i libucrtd:output.obj
 0001:000646e0       ??$type_case_integer@$0BA@@?$output_processor@_WV?$stream_output_adapter@_W@__crt_stdio_output@@V?$format_validation_base@_WV?$stream_output_adapter@_W@__crt_stdio_output@@@2@@__crt_stdio_output@@AEAA_N_N@Z 00000001800656e0 f i libucrtd:output.obj
 0001:00064b60       ??$type_case_integer@$0BA@@?$output_processor@_WV?$stream_output_adapter@_W@__crt_stdio_output@@V?$positional_parameter_base@_WV?$stream_output_adapter@_W@__crt_stdio_output@@@2@@__crt_stdio_output@@AEAA_N_N@Z 0000000180065b60 f i libucrtd:output.obj
 0001:00064fe0       ??$type_case_integer@$0BA@@?$output_processor@_WV?$stream_output_adapter@_W@__crt_stdio_output@@V?$standard_base@_WV?$stream_output_adapter@_W@__crt_stdio_output@@@2@@__crt_stdio_output@@AEAA_N_N@Z 0000000180065fe0 f i libucrtd:output.obj
 0001:00065460       ??$type_case_integer@$0BA@@?$output_processor@_WV?$string_output_adapter@_W@__crt_stdio_output@@V?$format_validation_base@_WV?$string_output_adapter@_W@__crt_stdio_output@@@2@@__crt_stdio_output@@AEAA_N_N@Z 0000000180066460 f i libucrtd:output.obj
 0001:000658e0       ??$type_case_integer@$0BA@@?$output_processor@_WV?$string_output_adapter@_W@__crt_stdio_output@@V?$positional_parameter_base@_WV?$string_output_adapter@_W@__crt_stdio_output@@@2@@__crt_stdio_output@@AEAA_N_N@Z 00000001800668e0 f i libucrtd:output.obj
 0001:00065d60       ??$type_case_integer@$0BA@@?$output_processor@_WV?$string_output_adapter@_W@__crt_stdio_output@@V?$standard_base@_WV?$string_output_adapter@_W@__crt_stdio_output@@@2@@__crt_stdio_output@@AEAA_N_N@Z 0000000180066d60 f i libucrtd:output.obj
 0001:000661e0       ??$type_case_integer_parse_into_buffer@I$07@?$output_processor@DV?$stream_output_adapter@D@__crt_stdio_output@@V?$format_validation_base@DV?$stream_output_adapter@D@__crt_stdio_output@@@2@@__crt_stdio_output@@AEAAXI_N@Z 00000001800671e0 f i libucrtd:output.obj
 0001:00066310       ??$type_case_integer_parse_into_buffer@I$07@?$output_processor@DV?$stream_output_adapter@D@__crt_stdio_output@@V?$positional_parameter_base@DV?$stream_output_adapter@D@__crt_stdio_output@@@2@@__crt_stdio_output@@AEAAXI_N@Z 0000000180067310 f i libucrtd:output.obj
 0001:00066440       ??$type_case_integer_parse_into_buffer@I$07@?$output_processor@DV?$stream_output_adapter@D@__crt_stdio_output@@V?$standard_base@DV?$stream_output_adapter@D@__crt_stdio_output@@@2@@__crt_stdio_output@@AEAAXI_N@Z 0000000180067440 f i libucrtd:output.obj
 0001:00066570       ??$type_case_integer_parse_into_buffer@I$07@?$output_processor@DV?$string_output_adapter@D@__crt_stdio_output@@V?$format_validation_base@DV?$string_output_adapter@D@__crt_stdio_output@@@2@@__crt_stdio_output@@AEAAXI_N@Z 0000000180067570 f i libucrtd:output.obj
 0001:000666a0       ??$type_case_integer_parse_into_buffer@I$07@?$output_processor@DV?$string_output_adapter@D@__crt_stdio_output@@V?$positional_parameter_base@DV?$string_output_adapter@D@__crt_stdio_output@@@2@@__crt_stdio_output@@AEAAXI_N@Z 00000001800676a0 f i libucrtd:output.obj
 0001:000667d0       ??$type_case_integer_parse_into_buffer@I$07@?$output_processor@DV?$string_output_adapter@D@__crt_stdio_output@@V?$standard_base@DV?$string_output_adapter@D@__crt_stdio_output@@@2@@__crt_stdio_output@@AEAAXI_N@Z 00000001800677d0 f i libucrtd:output.obj
 0001:00066900       ??$type_case_integer_parse_into_buffer@I$07@?$output_processor@_WV?$stream_output_adapter@_W@__crt_stdio_output@@V?$format_validation_base@_WV?$stream_output_adapter@_W@__crt_stdio_output@@@2@@__crt_stdio_output@@AEAAXI_N@Z 0000000180067900 f i libucrtd:output.obj
 0001:00066a40       ??$type_case_integer_parse_into_buffer@I$07@?$output_processor@_WV?$stream_output_adapter@_W@__crt_stdio_output@@V?$positional_parameter_base@_WV?$stream_output_adapter@_W@__crt_stdio_output@@@2@@__crt_stdio_output@@AEAAXI_N@Z 0000000180067a40 f i libucrtd:output.obj
 0001:00066b80       ??$type_case_integer_parse_into_buffer@I$07@?$output_processor@_WV?$stream_output_adapter@_W@__crt_stdio_output@@V?$standard_base@_WV?$stream_output_adapter@_W@__crt_stdio_output@@@2@@__crt_stdio_output@@AEAAXI_N@Z 0000000180067b80 f i libucrtd:output.obj
 0001:00066cc0       ??$type_case_integer_parse_into_buffer@I$07@?$output_processor@_WV?$string_output_adapter@_W@__crt_stdio_output@@V?$format_validation_base@_WV?$string_output_adapter@_W@__crt_stdio_output@@@2@@__crt_stdio_output@@AEAAXI_N@Z 0000000180067cc0 f i libucrtd:output.obj
 0001:00066e00       ??$type_case_integer_parse_into_buffer@I$07@?$output_processor@_WV?$string_output_adapter@_W@__crt_stdio_output@@V?$positional_parameter_base@_WV?$string_output_adapter@_W@__crt_stdio_output@@@2@@__crt_stdio_output@@AEAAXI_N@Z 0000000180067e00 f i libucrtd:output.obj
 0001:00066f40       ??$type_case_integer_parse_into_buffer@I$07@?$output_processor@_WV?$string_output_adapter@_W@__crt_stdio_output@@V?$standard_base@_WV?$string_output_adapter@_W@__crt_stdio_output@@@2@@__crt_stdio_output@@AEAAXI_N@Z 0000000180067f40 f i libucrtd:output.obj
 0001:00067080       ??$type_case_integer_parse_into_buffer@I$09@?$output_processor@DV?$stream_output_adapter@D@__crt_stdio_output@@V?$format_validation_base@DV?$stream_output_adapter@D@__crt_stdio_output@@@2@@__crt_stdio_output@@AEAAXI_N@Z 0000000180068080 f i libucrtd:output.obj
 0001:000671b0       ??$type_case_integer_parse_into_buffer@I$09@?$output_processor@DV?$stream_output_adapter@D@__crt_stdio_output@@V?$positional_parameter_base@DV?$stream_output_adapter@D@__crt_stdio_output@@@2@@__crt_stdio_output@@AEAAXI_N@Z 00000001800681b0 f i libucrtd:output.obj
 0001:000672e0       ??$type_case_integer_parse_into_buffer@I$09@?$output_processor@DV?$stream_output_adapter@D@__crt_stdio_output@@V?$standard_base@DV?$stream_output_adapter@D@__crt_stdio_output@@@2@@__crt_stdio_output@@AEAAXI_N@Z 00000001800682e0 f i libucrtd:output.obj
 0001:00067410       ??$type_case_integer_parse_into_buffer@I$09@?$output_processor@DV?$string_output_adapter@D@__crt_stdio_output@@V?$format_validation_base@DV?$string_output_adapter@D@__crt_stdio_output@@@2@@__crt_stdio_output@@AEAAXI_N@Z 0000000180068410 f i libucrtd:output.obj
 0001:00067540       ??$type_case_integer_parse_into_buffer@I$09@?$output_processor@DV?$string_output_adapter@D@__crt_stdio_output@@V?$positional_parameter_base@DV?$string_output_adapter@D@__crt_stdio_output@@@2@@__crt_stdio_output@@AEAAXI_N@Z 0000000180068540 f i libucrtd:output.obj
 0001:00067670       ??$type_case_integer_parse_into_buffer@I$09@?$output_processor@DV?$string_output_adapter@D@__crt_stdio_output@@V?$standard_base@DV?$string_output_adapter@D@__crt_stdio_output@@@2@@__crt_stdio_output@@AEAAXI_N@Z 0000000180068670 f i libucrtd:output.obj
 0001:000677a0       ??$type_case_integer_parse_into_buffer@I$09@?$output_processor@_WV?$stream_output_adapter@_W@__crt_stdio_output@@V?$format_validation_base@_WV?$stream_output_adapter@_W@__crt_stdio_output@@@2@@__crt_stdio_output@@AEAAXI_N@Z 00000001800687a0 f i libucrtd:output.obj
 0001:000678e0       ??$type_case_integer_parse_into_buffer@I$09@?$output_processor@_WV?$stream_output_adapter@_W@__crt_stdio_output@@V?$positional_parameter_base@_WV?$stream_output_adapter@_W@__crt_stdio_output@@@2@@__crt_stdio_output@@AEAAXI_N@Z 00000001800688e0 f i libucrtd:output.obj
 0001:00067a20       ??$type_case_integer_parse_into_buffer@I$09@?$output_processor@_WV?$stream_output_adapter@_W@__crt_stdio_output@@V?$standard_base@_WV?$stream_output_adapter@_W@__crt_stdio_output@@@2@@__crt_stdio_output@@AEAAXI_N@Z 0000000180068a20 f i libucrtd:output.obj
 0001:00067b60       ??$type_case_integer_parse_into_buffer@I$09@?$output_processor@_WV?$string_output_adapter@_W@__crt_stdio_output@@V?$format_validation_base@_WV?$string_output_adapter@_W@__crt_stdio_output@@@2@@__crt_stdio_output@@AEAAXI_N@Z 0000000180068b60 f i libucrtd:output.obj
 0001:00067ca0       ??$type_case_integer_parse_into_buffer@I$09@?$output_processor@_WV?$string_output_adapter@_W@__crt_stdio_output@@V?$positional_parameter_base@_WV?$string_output_adapter@_W@__crt_stdio_output@@@2@@__crt_stdio_output@@AEAAXI_N@Z 0000000180068ca0 f i libucrtd:output.obj
 0001:00067de0       ??$type_case_integer_parse_into_buffer@I$09@?$output_processor@_WV?$string_output_adapter@_W@__crt_stdio_output@@V?$standard_base@_WV?$string_output_adapter@_W@__crt_stdio_output@@@2@@__crt_stdio_output@@AEAAXI_N@Z 0000000180068de0 f i libucrtd:output.obj
 0001:00067f20       ??$type_case_integer_parse_into_buffer@I$0BA@@?$output_processor@DV?$stream_output_adapter@D@__crt_stdio_output@@V?$format_validation_base@DV?$stream_output_adapter@D@__crt_stdio_output@@@2@@__crt_stdio_output@@AEAAXI_N@Z 0000000180068f20 f i libucrtd:output.obj
 0001:00068050       ??$type_case_integer_parse_into_buffer@I$0BA@@?$output_processor@DV?$stream_output_adapter@D@__crt_stdio_output@@V?$positional_parameter_base@DV?$stream_output_adapter@D@__crt_stdio_output@@@2@@__crt_stdio_output@@AEAAXI_N@Z 0000000180069050 f i libucrtd:output.obj
 0001:00068180       ??$type_case_integer_parse_into_buffer@I$0BA@@?$output_processor@DV?$stream_output_adapter@D@__crt_stdio_output@@V?$standard_base@DV?$stream_output_adapter@D@__crt_stdio_output@@@2@@__crt_stdio_output@@AEAAXI_N@Z 0000000180069180 f i libucrtd:output.obj
 0001:000682b0       ??$type_case_integer_parse_into_buffer@I$0BA@@?$output_processor@DV?$string_output_adapter@D@__crt_stdio_output@@V?$format_validation_base@DV?$string_output_adapter@D@__crt_stdio_output@@@2@@__crt_stdio_output@@AEAAXI_N@Z 00000001800692b0 f i libucrtd:output.obj
 0001:000683e0       ??$type_case_integer_parse_into_buffer@I$0BA@@?$output_processor@DV?$string_output_adapter@D@__crt_stdio_output@@V?$positional_parameter_base@DV?$string_output_adapter@D@__crt_stdio_output@@@2@@__crt_stdio_output@@AEAAXI_N@Z 00000001800693e0 f i libucrtd:output.obj
 0001:00068510       ??$type_case_integer_parse_into_buffer@I$0BA@@?$output_processor@DV?$string_output_adapter@D@__crt_stdio_output@@V?$standard_base@DV?$string_output_adapter@D@__crt_stdio_output@@@2@@__crt_stdio_output@@AEAAXI_N@Z 0000000180069510 f i libucrtd:output.obj
 0001:00068640       ??$type_case_integer_parse_into_buffer@I$0BA@@?$output_processor@_WV?$stream_output_adapter@_W@__crt_stdio_output@@V?$format_validation_base@_WV?$stream_output_adapter@_W@__crt_stdio_output@@@2@@__crt_stdio_output@@AEAAXI_N@Z 0000000180069640 f i libucrtd:output.obj
 0001:00068780       ??$type_case_integer_parse_into_buffer@I$0BA@@?$output_processor@_WV?$stream_output_adapter@_W@__crt_stdio_output@@V?$positional_parameter_base@_WV?$stream_output_adapter@_W@__crt_stdio_output@@@2@@__crt_stdio_output@@AEAAXI_N@Z 0000000180069780 f i libucrtd:output.obj
 0001:000688c0       ??$type_case_integer_parse_into_buffer@I$0BA@@?$output_processor@_WV?$stream_output_adapter@_W@__crt_stdio_output@@V?$standard_base@_WV?$stream_output_adapter@_W@__crt_stdio_output@@@2@@__crt_stdio_output@@AEAAXI_N@Z 00000001800698c0 f i libucrtd:output.obj
 0001:00068a00       ??$type_case_integer_parse_into_buffer@I$0BA@@?$output_processor@_WV?$string_output_adapter@_W@__crt_stdio_output@@V?$format_validation_base@_WV?$string_output_adapter@_W@__crt_stdio_output@@@2@@__crt_stdio_output@@AEAAXI_N@Z 0000000180069a00 f i libucrtd:output.obj
 0001:00068b40       ??$type_case_integer_parse_into_buffer@I$0BA@@?$output_processor@_WV?$string_output_adapter@_W@__crt_stdio_output@@V?$positional_parameter_base@_WV?$string_output_adapter@_W@__crt_stdio_output@@@2@@__crt_stdio_output@@AEAAXI_N@Z 0000000180069b40 f i libucrtd:output.obj
 0001:00068c80       ??$type_case_integer_parse_into_buffer@I$0BA@@?$output_processor@_WV?$string_output_adapter@_W@__crt_stdio_output@@V?$standard_base@_WV?$string_output_adapter@_W@__crt_stdio_output@@@2@@__crt_stdio_output@@AEAAXI_N@Z 0000000180069c80 f i libucrtd:output.obj
 0001:00068dc0       ??$type_case_integer_parse_into_buffer@_K$07@?$output_processor@DV?$stream_output_adapter@D@__crt_stdio_output@@V?$format_validation_base@DV?$stream_output_adapter@D@__crt_stdio_output@@@2@@__crt_stdio_output@@AEAAX_K_N@Z 0000000180069dc0 f i libucrtd:output.obj
 0001:00068f00       ??$type_case_integer_parse_into_buffer@_K$07@?$output_processor@DV?$stream_output_adapter@D@__crt_stdio_output@@V?$positional_parameter_base@DV?$stream_output_adapter@D@__crt_stdio_output@@@2@@__crt_stdio_output@@AEAAX_K_N@Z 0000000180069f00 f i libucrtd:output.obj
 0001:00069040       ??$type_case_integer_parse_into_buffer@_K$07@?$output_processor@DV?$stream_output_adapter@D@__crt_stdio_output@@V?$standard_base@DV?$stream_output_adapter@D@__crt_stdio_output@@@2@@__crt_stdio_output@@AEAAX_K_N@Z 000000018006a040 f i libucrtd:output.obj
 0001:00069180       ??$type_case_integer_parse_into_buffer@_K$07@?$output_processor@DV?$string_output_adapter@D@__crt_stdio_output@@V?$format_validation_base@DV?$string_output_adapter@D@__crt_stdio_output@@@2@@__crt_stdio_output@@AEAAX_K_N@Z 000000018006a180 f i libucrtd:output.obj
 0001:000692c0       ??$type_case_integer_parse_into_buffer@_K$07@?$output_processor@DV?$string_output_adapter@D@__crt_stdio_output@@V?$positional_parameter_base@DV?$string_output_adapter@D@__crt_stdio_output@@@2@@__crt_stdio_output@@AEAAX_K_N@Z 000000018006a2c0 f i libucrtd:output.obj
 0001:00069400       ??$type_case_integer_parse_into_buffer@_K$07@?$output_processor@DV?$string_output_adapter@D@__crt_stdio_output@@V?$standard_base@DV?$string_output_adapter@D@__crt_stdio_output@@@2@@__crt_stdio_output@@AEAAX_K_N@Z 000000018006a400 f i libucrtd:output.obj
 0001:00069540       ??$type_case_integer_parse_into_buffer@_K$07@?$output_processor@_WV?$stream_output_adapter@_W@__crt_stdio_output@@V?$format_validation_base@_WV?$stream_output_adapter@_W@__crt_stdio_output@@@2@@__crt_stdio_output@@AEAAX_K_N@Z 000000018006a540 f i libucrtd:output.obj
 0001:00069680       ??$type_case_integer_parse_into_buffer@_K$07@?$output_processor@_WV?$stream_output_adapter@_W@__crt_stdio_output@@V?$positional_parameter_base@_WV?$stream_output_adapter@_W@__crt_stdio_output@@@2@@__crt_stdio_output@@AEAAX_K_N@Z 000000018006a680 f i libucrtd:output.obj
 0001:000697c0       ??$type_case_integer_parse_into_buffer@_K$07@?$output_processor@_WV?$stream_output_adapter@_W@__crt_stdio_output@@V?$standard_base@_WV?$stream_output_adapter@_W@__crt_stdio_output@@@2@@__crt_stdio_output@@AEAAX_K_N@Z 000000018006a7c0 f i libucrtd:output.obj
 0001:00069900       ??$type_case_integer_parse_into_buffer@_K$07@?$output_processor@_WV?$string_output_adapter@_W@__crt_stdio_output@@V?$format_validation_base@_WV?$string_output_adapter@_W@__crt_stdio_output@@@2@@__crt_stdio_output@@AEAAX_K_N@Z 000000018006a900 f i libucrtd:output.obj
 0001:00069a40       ??$type_case_integer_parse_into_buffer@_K$07@?$output_processor@_WV?$string_output_adapter@_W@__crt_stdio_output@@V?$positional_parameter_base@_WV?$string_output_adapter@_W@__crt_stdio_output@@@2@@__crt_stdio_output@@AEAAX_K_N@Z 000000018006aa40 f i libucrtd:output.obj
 0001:00069b80       ??$type_case_integer_parse_into_buffer@_K$07@?$output_processor@_WV?$string_output_adapter@_W@__crt_stdio_output@@V?$standard_base@_WV?$string_output_adapter@_W@__crt_stdio_output@@@2@@__crt_stdio_output@@AEAAX_K_N@Z 000000018006ab80 f i libucrtd:output.obj
 0001:00069cc0       ??$type_case_integer_parse_into_buffer@_K$09@?$output_processor@DV?$stream_output_adapter@D@__crt_stdio_output@@V?$format_validation_base@DV?$stream_output_adapter@D@__crt_stdio_output@@@2@@__crt_stdio_output@@AEAAX_K_N@Z 000000018006acc0 f i libucrtd:output.obj
 0001:00069e00       ??$type_case_integer_parse_into_buffer@_K$09@?$output_processor@DV?$stream_output_adapter@D@__crt_stdio_output@@V?$positional_parameter_base@DV?$stream_output_adapter@D@__crt_stdio_output@@@2@@__crt_stdio_output@@AEAAX_K_N@Z 000000018006ae00 f i libucrtd:output.obj
 0001:00069f40       ??$type_case_integer_parse_into_buffer@_K$09@?$output_processor@DV?$stream_output_adapter@D@__crt_stdio_output@@V?$standard_base@DV?$stream_output_adapter@D@__crt_stdio_output@@@2@@__crt_stdio_output@@AEAAX_K_N@Z 000000018006af40 f i libucrtd:output.obj
 0001:0006a080       ??$type_case_integer_parse_into_buffer@_K$09@?$output_processor@DV?$string_output_adapter@D@__crt_stdio_output@@V?$format_validation_base@DV?$string_output_adapter@D@__crt_stdio_output@@@2@@__crt_stdio_output@@AEAAX_K_N@Z 000000018006b080 f i libucrtd:output.obj
 0001:0006a1c0       ??$type_case_integer_parse_into_buffer@_K$09@?$output_processor@DV?$string_output_adapter@D@__crt_stdio_output@@V?$positional_parameter_base@DV?$string_output_adapter@D@__crt_stdio_output@@@2@@__crt_stdio_output@@AEAAX_K_N@Z 000000018006b1c0 f i libucrtd:output.obj
 0001:0006a300       ??$type_case_integer_parse_into_buffer@_K$09@?$output_processor@DV?$string_output_adapter@D@__crt_stdio_output@@V?$standard_base@DV?$string_output_adapter@D@__crt_stdio_output@@@2@@__crt_stdio_output@@AEAAX_K_N@Z 000000018006b300 f i libucrtd:output.obj
 0001:0006a440       ??$type_case_integer_parse_into_buffer@_K$09@?$output_processor@_WV?$stream_output_adapter@_W@__crt_stdio_output@@V?$format_validation_base@_WV?$stream_output_adapter@_W@__crt_stdio_output@@@2@@__crt_stdio_output@@AEAAX_K_N@Z 000000018006b440 f i libucrtd:output.obj
 0001:0006a580       ??$type_case_integer_parse_into_buffer@_K$09@?$output_processor@_WV?$stream_output_adapter@_W@__crt_stdio_output@@V?$positional_parameter_base@_WV?$stream_output_adapter@_W@__crt_stdio_output@@@2@@__crt_stdio_output@@AEAAX_K_N@Z 000000018006b580 f i libucrtd:output.obj
 0001:0006a6c0       ??$type_case_integer_parse_into_buffer@_K$09@?$output_processor@_WV?$stream_output_adapter@_W@__crt_stdio_output@@V?$standard_base@_WV?$stream_output_adapter@_W@__crt_stdio_output@@@2@@__crt_stdio_output@@AEAAX_K_N@Z 000000018006b6c0 f i libucrtd:output.obj
 0001:0006a800       ??$type_case_integer_parse_into_buffer@_K$09@?$output_processor@_WV?$string_output_adapter@_W@__crt_stdio_output@@V?$format_validation_base@_WV?$string_output_adapter@_W@__crt_stdio_output@@@2@@__crt_stdio_output@@AEAAX_K_N@Z 000000018006b800 f i libucrtd:output.obj
 0001:0006a940       ??$type_case_integer_parse_into_buffer@_K$09@?$output_processor@_WV?$string_output_adapter@_W@__crt_stdio_output@@V?$positional_parameter_base@_WV?$string_output_adapter@_W@__crt_stdio_output@@@2@@__crt_stdio_output@@AEAAX_K_N@Z 000000018006b940 f i libucrtd:output.obj
 0001:0006aa80       ??$type_case_integer_parse_into_buffer@_K$09@?$output_processor@_WV?$string_output_adapter@_W@__crt_stdio_output@@V?$standard_base@_WV?$string_output_adapter@_W@__crt_stdio_output@@@2@@__crt_stdio_output@@AEAAX_K_N@Z 000000018006ba80 f i libucrtd:output.obj
 0001:0006abc0       ??$type_case_integer_parse_into_buffer@_K$0BA@@?$output_processor@DV?$stream_output_adapter@D@__crt_stdio_output@@V?$format_validation_base@DV?$stream_output_adapter@D@__crt_stdio_output@@@2@@__crt_stdio_output@@AEAAX_K_N@Z 000000018006bbc0 f i libucrtd:output.obj
 0001:0006ad00       ??$type_case_integer_parse_into_buffer@_K$0BA@@?$output_processor@DV?$stream_output_adapter@D@__crt_stdio_output@@V?$positional_parameter_base@DV?$stream_output_adapter@D@__crt_stdio_output@@@2@@__crt_stdio_output@@AEAAX_K_N@Z 000000018006bd00 f i libucrtd:output.obj
 0001:0006ae40       ??$type_case_integer_parse_into_buffer@_K$0BA@@?$output_processor@DV?$stream_output_adapter@D@__crt_stdio_output@@V?$standard_base@DV?$stream_output_adapter@D@__crt_stdio_output@@@2@@__crt_stdio_output@@AEAAX_K_N@Z 000000018006be40 f i libucrtd:output.obj
 0001:0006af80       ??$type_case_integer_parse_into_buffer@_K$0BA@@?$output_processor@DV?$string_output_adapter@D@__crt_stdio_output@@V?$format_validation_base@DV?$string_output_adapter@D@__crt_stdio_output@@@2@@__crt_stdio_output@@AEAAX_K_N@Z 000000018006bf80 f i libucrtd:output.obj
 0001:0006b0c0       ??$type_case_integer_parse_into_buffer@_K$0BA@@?$output_processor@DV?$string_output_adapter@D@__crt_stdio_output@@V?$positional_parameter_base@DV?$string_output_adapter@D@__crt_stdio_output@@@2@@__crt_stdio_output@@AEAAX_K_N@Z 000000018006c0c0 f i libucrtd:output.obj
 0001:0006b200       ??$type_case_integer_parse_into_buffer@_K$0BA@@?$output_processor@DV?$string_output_adapter@D@__crt_stdio_output@@V?$standard_base@DV?$string_output_adapter@D@__crt_stdio_output@@@2@@__crt_stdio_output@@AEAAX_K_N@Z 000000018006c200 f i libucrtd:output.obj
 0001:0006b340       ??$type_case_integer_parse_into_buffer@_K$0BA@@?$output_processor@_WV?$stream_output_adapter@_W@__crt_stdio_output@@V?$format_validation_base@_WV?$stream_output_adapter@_W@__crt_stdio_output@@@2@@__crt_stdio_output@@AEAAX_K_N@Z 000000018006c340 f i libucrtd:output.obj
 0001:0006b480       ??$type_case_integer_parse_into_buffer@_K$0BA@@?$output_processor@_WV?$stream_output_adapter@_W@__crt_stdio_output@@V?$positional_parameter_base@_WV?$stream_output_adapter@_W@__crt_stdio_output@@@2@@__crt_stdio_output@@AEAAX_K_N@Z 000000018006c480 f i libucrtd:output.obj
 0001:0006b5c0       ??$type_case_integer_parse_into_buffer@_K$0BA@@?$output_processor@_WV?$stream_output_adapter@_W@__crt_stdio_output@@V?$standard_base@_WV?$stream_output_adapter@_W@__crt_stdio_output@@@2@@__crt_stdio_output@@AEAAX_K_N@Z 000000018006c5c0 f i libucrtd:output.obj
 0001:0006b700       ??$type_case_integer_parse_into_buffer@_K$0BA@@?$output_processor@_WV?$string_output_adapter@_W@__crt_stdio_output@@V?$format_validation_base@_WV?$string_output_adapter@_W@__crt_stdio_output@@@2@@__crt_stdio_output@@AEAAX_K_N@Z 000000018006c700 f i libucrtd:output.obj
 0001:0006b840       ??$type_case_integer_parse_into_buffer@_K$0BA@@?$output_processor@_WV?$string_output_adapter@_W@__crt_stdio_output@@V?$positional_parameter_base@_WV?$string_output_adapter@_W@__crt_stdio_output@@@2@@__crt_stdio_output@@AEAAX_K_N@Z 000000018006c840 f i libucrtd:output.obj
 0001:0006b980       ??$type_case_integer_parse_into_buffer@_K$0BA@@?$output_processor@_WV?$string_output_adapter@_W@__crt_stdio_output@@V?$standard_base@_WV?$string_output_adapter@_W@__crt_stdio_output@@@2@@__crt_stdio_output@@AEAAX_K_N@Z 000000018006c980 f i libucrtd:output.obj
 0001:0006bac0       ??$write_multiple_characters@V?$stream_output_adapter@D@__crt_stdio_output@@D@__crt_stdio_output@@YAXAEBV?$stream_output_adapter@D@0@DHQEAHAEAV__crt_cached_ptd_host@@@Z 000000018006cac0 f i libucrtd:output.obj
 0001:0006bb30       ??$write_multiple_characters@V?$stream_output_adapter@_W@__crt_stdio_output@@D@__crt_stdio_output@@YAXAEBV?$stream_output_adapter@_W@0@DHQEAHAEAV__crt_cached_ptd_host@@@Z 000000018006cb30 f i libucrtd:output.obj
 0001:0006bba0       ??$write_multiple_characters@V?$string_output_adapter@D@__crt_stdio_output@@D@__crt_stdio_output@@YAXAEBV?$string_output_adapter@D@0@DHQEAHAEAV__crt_cached_ptd_host@@@Z 000000018006cba0 f i libucrtd:output.obj
 0001:0006bc10       ??$write_multiple_characters@V?$string_output_adapter@_W@__crt_stdio_output@@D@__crt_stdio_output@@YAXAEBV?$string_output_adapter@_W@0@DHQEAHAEAV__crt_cached_ptd_host@@@Z 000000018006cc10 f i libucrtd:output.obj
 0001:0006c040       ??0?$c_string_character_source@D@__crt_strtox@@QEAA@QEBDQEAPEBD@Z 000000018006d040 f i libucrtd:output.obj
 0001:0006c090       ??0?$c_string_character_source@_W@__crt_strtox@@QEAA@QEB_WQEAPEB_W@Z 000000018006d090 f i libucrtd:output.obj
 0001:0006c0e0       ??0?$cached@H@__crt_cached_ptd_host@@QEAA@XZ 000000018006d0e0 f i libucrtd:output.obj
 0001:0006c100       ??0?$cached@K@__crt_cached_ptd_host@@QEAA@XZ 000000018006d100 f i libucrtd:output.obj
 0001:0006c120       ??0?$common_data@D@__crt_stdio_output@@IEAA@AEAV__crt_cached_ptd_host@@@Z 000000018006d120 f i libucrtd:output.obj
 0001:0006c1e0       ??0?$common_data@_W@__crt_stdio_output@@IEAA@AEAV__crt_cached_ptd_host@@@Z 000000018006d1e0 f i libucrtd:output.obj
 0001:0006c2a0       ??0?$output_adapter_data@DV?$stream_output_adapter@D@__crt_stdio_output@@@__crt_stdio_output@@IEAA@AEBV?$stream_output_adapter@D@1@_KQEBDAEAV__crt_cached_ptd_host@@QEAD@Z 000000018006d2a0 f i libucrtd:output.obj
 0001:0006c320       ??0?$output_adapter_data@DV?$string_output_adapter@D@__crt_stdio_output@@@__crt_stdio_output@@IEAA@AEBV?$string_output_adapter@D@1@_KQEBDAEAV__crt_cached_ptd_host@@QEAD@Z 000000018006d320 f i libucrtd:output.obj
 0001:0006c3a0       ??0?$output_adapter_data@_WV?$stream_output_adapter@_W@__crt_stdio_output@@@__crt_stdio_output@@IEAA@AEBV?$stream_output_adapter@_W@1@_KQEB_WAEAV__crt_cached_ptd_host@@QEAD@Z 000000018006d3a0 f i libucrtd:output.obj
 0001:0006c420       ??0?$output_adapter_data@_WV?$string_output_adapter@_W@__crt_stdio_output@@@__crt_stdio_output@@IEAA@AEBV?$string_output_adapter@_W@1@_KQEB_WAEAV__crt_cached_ptd_host@@QEAD@Z 000000018006d420 f i libucrtd:output.obj
 0001:0006c4a0       ??0?$output_processor@DV?$stream_output_adapter@D@__crt_stdio_output@@V?$format_validation_base@DV?$stream_output_adapter@D@__crt_stdio_output@@@2@@__crt_stdio_output@@QEAA@AEBV?$stream_output_adapter@D@1@_KQEBDAEAV__crt_cached_ptd_host@@QEAD@Z 000000018006d4a0 f i libucrtd:output.obj
 0001:0006c4f0       ??0?$output_processor@DV?$stream_output_adapter@D@__crt_stdio_output@@V?$positional_parameter_base@DV?$stream_output_adapter@D@__crt_stdio_output@@@2@@__crt_stdio_output@@QEAA@AEBV?$stream_output_adapter@D@1@_KQEBDAEAV__crt_cached_ptd_host@@QEAD@Z 000000018006d4f0 f i libucrtd:output.obj
 0001:0006c540       ??0?$output_processor@DV?$stream_output_adapter@D@__crt_stdio_output@@V?$standard_base@DV?$stream_output_adapter@D@__crt_stdio_output@@@2@@__crt_stdio_output@@QEAA@AEBV?$stream_output_adapter@D@1@_KQEBDAEAV__crt_cached_ptd_host@@QEAD@Z 000000018006d540 f i libucrtd:output.obj
 0001:0006c590       ??0?$output_processor@DV?$string_output_adapter@D@__crt_stdio_output@@V?$format_validation_base@DV?$string_output_adapter@D@__crt_stdio_output@@@2@@__crt_stdio_output@@QEAA@AEBV?$string_output_adapter@D@1@_KQEBDAEAV__crt_cached_ptd_host@@QEAD@Z 000000018006d590 f i libucrtd:output.obj
 0001:0006c5e0       ??0?$output_processor@DV?$string_output_adapter@D@__crt_stdio_output@@V?$positional_parameter_base@DV?$string_output_adapter@D@__crt_stdio_output@@@2@@__crt_stdio_output@@QEAA@AEBV?$string_output_adapter@D@1@_KQEBDAEAV__crt_cached_ptd_host@@QEAD@Z 000000018006d5e0 f i libucrtd:output.obj
 0001:0006c630       ??0?$output_processor@DV?$string_output_adapter@D@__crt_stdio_output@@V?$standard_base@DV?$string_output_adapter@D@__crt_stdio_output@@@2@@__crt_stdio_output@@QEAA@AEBV?$string_output_adapter@D@1@_KQEBDAEAV__crt_cached_ptd_host@@QEAD@Z 000000018006d630 f i libucrtd:output.obj
 0001:0006c680       ??0?$output_processor@_WV?$stream_output_adapter@_W@__crt_stdio_output@@V?$format_validation_base@_WV?$stream_output_adapter@_W@__crt_stdio_output@@@2@@__crt_stdio_output@@QEAA@AEBV?$stream_output_adapter@_W@1@_KQEB_WAEAV__crt_cached_ptd_host@@QEAD@Z 000000018006d680 f i libucrtd:output.obj
 0001:0006c6d0       ??0?$output_processor@_WV?$stream_output_adapter@_W@__crt_stdio_output@@V?$positional_parameter_base@_WV?$stream_output_adapter@_W@__crt_stdio_output@@@2@@__crt_stdio_output@@QEAA@AEBV?$stream_output_adapter@_W@1@_KQEB_WAEAV__crt_cached_ptd_host@@QEAD@Z 000000018006d6d0 f i libucrtd:output.obj
 0001:0006c720       ??0?$output_processor@_WV?$stream_output_adapter@_W@__crt_stdio_output@@V?$standard_base@_WV?$stream_output_adapter@_W@__crt_stdio_output@@@2@@__crt_stdio_output@@QEAA@AEBV?$stream_output_adapter@_W@1@_KQEB_WAEAV__crt_cached_ptd_host@@QEAD@Z 000000018006d720 f i libucrtd:output.obj
 0001:0006c770       ??0?$output_processor@_WV?$string_output_adapter@_W@__crt_stdio_output@@V?$format_validation_base@_WV?$string_output_adapter@_W@__crt_stdio_output@@@2@@__crt_stdio_output@@QEAA@AEBV?$string_output_adapter@_W@1@_KQEB_WAEAV__crt_cached_ptd_host@@QEAD@Z 000000018006d770 f i libucrtd:output.obj
 0001:0006c7c0       ??0?$output_processor@_WV?$string_output_adapter@_W@__crt_stdio_output@@V?$positional_parameter_base@_WV?$string_output_adapter@_W@__crt_stdio_output@@@2@@__crt_stdio_output@@QEAA@AEBV?$string_output_adapter@_W@1@_KQEB_WAEAV__crt_cached_ptd_host@@QEAD@Z 000000018006d7c0 f i libucrtd:output.obj
 0001:0006c810       ??0?$output_processor@_WV?$string_output_adapter@_W@__crt_stdio_output@@V?$standard_base@_WV?$string_output_adapter@_W@__crt_stdio_output@@@2@@__crt_stdio_output@@QEAA@AEBV?$string_output_adapter@_W@1@_KQEB_WAEAV__crt_cached_ptd_host@@QEAD@Z 000000018006d810 f i libucrtd:output.obj
 0001:0006c860       ??0?$stream_output_adapter@D@__crt_stdio_output@@QEAA@QEAU_iobuf@@@Z 000000018006d860 f i libucrtd:output.obj
 0001:0006c8a0       ??0?$stream_output_adapter@_W@__crt_stdio_output@@QEAA@QEAU_iobuf@@@Z 000000018006d8a0 f i libucrtd:output.obj
 0001:0006c8e0       ??0?$string_output_adapter@D@__crt_stdio_output@@QEAA@QEAU?$string_output_adapter_context@D@1@@Z 000000018006d8e0 f i libucrtd:output.obj
 0001:0006c900       ??0?$string_output_adapter@_W@__crt_stdio_output@@QEAA@QEAU?$string_output_adapter_context@_W@1@@Z 000000018006d900 f i libucrtd:output.obj
 0001:0006c920       ??0__acrt_stdio_temporary_buffering_guard@@QEAA@QEAU_iobuf@@AEAV__crt_cached_ptd_host@@@Z 000000018006d920 f i libucrtd:output.obj
 0001:0006c970       ??0__crt_cached_ptd_host@@QEAA@QEAU__crt_locale_pointers@@@Z 000000018006d970 f i libucrtd:output.obj
 0001:0006ca30       ??0__crt_scoped_get_last_error_reset@@QEAA@XZ 000000018006da30 f i libucrtd:output.obj
 0001:0006ca50       ??0__crt_stdio_stream@@QEAA@QEAU_iobuf@@@Z 000000018006da50 f i libucrtd:output.obj
 0001:0006ca70       ??0formatting_buffer@__crt_stdio_output@@QEAA@XZ 000000018006da70 f i libucrtd:output.obj
 0001:0006cab0       ??0guard@?$cached@H@__crt_cached_ptd_host@@QEAA@AEAU12@@Z 000000018006dab0 f i libucrtd:output.obj
 0001:0006caf0       ??1?$c_string_character_source@D@__crt_strtox@@QEAA@XZ 000000018006daf0 f i libucrtd:output.obj
 0001:0006cb20       ??1?$c_string_character_source@_W@__crt_strtox@@QEAA@XZ 000000018006db20 f i libucrtd:output.obj
 0001:0006cb50       ??1?$common_data@D@__crt_stdio_output@@QEAA@XZ 000000018006db50 f i libucrtd:output.obj
 0001:0006cb70       ??1?$common_data@_W@__crt_stdio_output@@QEAA@XZ 000000018006db70 f i libucrtd:output.obj
 0001:0006cb90       ??1?$format_validation_base@DV?$stream_output_adapter@D@__crt_stdio_output@@@__crt_stdio_output@@QEAA@XZ 000000018006db90 f i libucrtd:output.obj
 0001:0006cbb0       ??1?$format_validation_base@DV?$string_output_adapter@D@__crt_stdio_output@@@__crt_stdio_output@@QEAA@XZ 000000018006dbb0 f i libucrtd:output.obj
 0001:0006cbd0       ??1?$format_validation_base@_WV?$stream_output_adapter@_W@__crt_stdio_output@@@__crt_stdio_output@@QEAA@XZ 000000018006dbd0 f i libucrtd:output.obj
 0001:0006cbf0       ??1?$format_validation_base@_WV?$string_output_adapter@_W@__crt_stdio_output@@@__crt_stdio_output@@QEAA@XZ 000000018006dbf0 f i libucrtd:output.obj
 0001:0006cc10       ??1?$output_adapter_data@DV?$stream_output_adapter@D@__crt_stdio_output@@@__crt_stdio_output@@QEAA@XZ 000000018006dc10 f i libucrtd:output.obj
 0001:0006cc30       ??1?$output_adapter_data@DV?$string_output_adapter@D@__crt_stdio_output@@@__crt_stdio_output@@QEAA@XZ 000000018006dc30 f i libucrtd:output.obj
 0001:0006cc50       ??1?$output_adapter_data@_WV?$stream_output_adapter@_W@__crt_stdio_output@@@__crt_stdio_output@@QEAA@XZ 000000018006dc50 f i libucrtd:output.obj
 0001:0006cc70       ??1?$output_adapter_data@_WV?$string_output_adapter@_W@__crt_stdio_output@@@__crt_stdio_output@@QEAA@XZ 000000018006dc70 f i libucrtd:output.obj
 0001:0006cc90       ??1?$output_processor@DV?$stream_output_adapter@D@__crt_stdio_output@@V?$format_validation_base@DV?$stream_output_adapter@D@__crt_stdio_output@@@2@@__crt_stdio_output@@QEAA@XZ 000000018006dc90 f i libucrtd:output.obj
 0001:0006ccb0       ??1?$output_processor@DV?$stream_output_adapter@D@__crt_stdio_output@@V?$positional_parameter_base@DV?$stream_output_adapter@D@__crt_stdio_output@@@2@@__crt_stdio_output@@QEAA@XZ 000000018006dcb0 f i libucrtd:output.obj
 0001:0006ccd0       ??1?$output_processor@DV?$stream_output_adapter@D@__crt_stdio_output@@V?$standard_base@DV?$stream_output_adapter@D@__crt_stdio_output@@@2@@__crt_stdio_output@@QEAA@XZ 000000018006dcd0 f i libucrtd:output.obj
 0001:0006ccf0       ??1?$output_processor@DV?$string_output_adapter@D@__crt_stdio_output@@V?$format_validation_base@DV?$string_output_adapter@D@__crt_stdio_output@@@2@@__crt_stdio_output@@QEAA@XZ 000000018006dcf0 f i libucrtd:output.obj
 0001:0006cd10       ??1?$output_processor@DV?$string_output_adapter@D@__crt_stdio_output@@V?$positional_parameter_base@DV?$string_output_adapter@D@__crt_stdio_output@@@2@@__crt_stdio_output@@QEAA@XZ 000000018006dd10 f i libucrtd:output.obj
 0001:0006cd30       ??1?$output_processor@DV?$string_output_adapter@D@__crt_stdio_output@@V?$standard_base@DV?$string_output_adapter@D@__crt_stdio_output@@@2@@__crt_stdio_output@@QEAA@XZ 000000018006dd30 f i libucrtd:output.obj
 0001:0006cd50       ??1?$output_processor@_WV?$stream_output_adapter@_W@__crt_stdio_output@@V?$format_validation_base@_WV?$stream_output_adapter@_W@__crt_stdio_output@@@2@@__crt_stdio_output@@QEAA@XZ 000000018006dd50 f i libucrtd:output.obj
 0001:0006cd70       ??1?$output_processor@_WV?$stream_output_adapter@_W@__crt_stdio_output@@V?$positional_parameter_base@_WV?$stream_output_adapter@_W@__crt_stdio_output@@@2@@__crt_stdio_output@@QEAA@XZ 000000018006dd70 f i libucrtd:output.obj
 0001:0006cd90       ??1?$output_processor@_WV?$stream_output_adapter@_W@__crt_stdio_output@@V?$standard_base@_WV?$stream_output_adapter@_W@__crt_stdio_output@@@2@@__crt_stdio_output@@QEAA@XZ 000000018006dd90 f i libucrtd:output.obj
 0001:0006cdb0       ??1?$output_processor@_WV?$string_output_adapter@_W@__crt_stdio_output@@V?$format_validation_base@_WV?$string_output_adapter@_W@__crt_stdio_output@@@2@@__crt_stdio_output@@QEAA@XZ 000000018006ddb0 f i libucrtd:output.obj
 0001:0006cdd0       ??1?$output_processor@_WV?$string_output_adapter@_W@__crt_stdio_output@@V?$positional_parameter_base@_WV?$string_output_adapter@_W@__crt_stdio_output@@@2@@__crt_stdio_output@@QEAA@XZ 000000018006ddd0 f i libucrtd:output.obj
 0001:0006cdf0       ??1?$output_processor@_WV?$string_output_adapter@_W@__crt_stdio_output@@V?$standard_base@_WV?$string_output_adapter@_W@__crt_stdio_output@@@2@@__crt_stdio_output@@QEAA@XZ 000000018006ddf0 f i libucrtd:output.obj
 0001:0006ce10       ??1?$positional_parameter_base@DV?$stream_output_adapter@D@__crt_stdio_output@@@__crt_stdio_output@@QEAA@XZ 000000018006de10 f i libucrtd:output.obj
 0001:0006ce30       ??1?$positional_parameter_base@DV?$string_output_adapter@D@__crt_stdio_output@@@__crt_stdio_output@@QEAA@XZ 000000018006de30 f i libucrtd:output.obj
 0001:0006ce50       ??1?$positional_parameter_base@_WV?$stream_output_adapter@_W@__crt_stdio_output@@@__crt_stdio_output@@QEAA@XZ 000000018006de50 f i libucrtd:output.obj
 0001:0006ce70       ??1?$positional_parameter_base@_WV?$string_output_adapter@_W@__crt_stdio_output@@@__crt_stdio_output@@QEAA@XZ 000000018006de70 f i libucrtd:output.obj
 0001:0006ce90       ??1?$standard_base@DV?$stream_output_adapter@D@__crt_stdio_output@@@__crt_stdio_output@@QEAA@XZ 000000018006de90 f i libucrtd:output.obj
 0001:0006ceb0       ??1?$standard_base@DV?$string_output_adapter@D@__crt_stdio_output@@@__crt_stdio_output@@QEAA@XZ 000000018006deb0 f i libucrtd:output.obj
 0001:0006ced0       ??1?$standard_base@_WV?$stream_output_adapter@_W@__crt_stdio_output@@@__crt_stdio_output@@QEAA@XZ 000000018006ded0 f i libucrtd:output.obj
 0001:0006cef0       ??1?$standard_base@_WV?$string_output_adapter@_W@__crt_stdio_output@@@__crt_stdio_output@@QEAA@XZ 000000018006def0 f i libucrtd:output.obj
 0001:0006cf10       ??1__acrt_stdio_temporary_buffering_guard@@QEAA@XZ 000000018006df10 f i libucrtd:output.obj
 0001:0006cf40       ??1__crt_cached_ptd_host@@QEAA@XZ 000000018006df40 f i libucrtd:output.obj
 0001:0006cff0       ??1__crt_scoped_get_last_error_reset@@QEAA@XZ 000000018006dff0 f i libucrtd:output.obj
 0001:0006d010       ??1formatting_buffer@__crt_stdio_output@@QEAA@XZ 000000018006e010 f i libucrtd:output.obj
 0001:0006d040       ??1guard@?$cached@H@__crt_cached_ptd_host@@QEAA@XZ 000000018006e040 f i libucrtd:output.obj
 0001:0006d070       ??4?$__crt_unique_heap_ptr@DU__crt_internal_free_policy@@@@QEAAAEAV0@$$QEAV0@@Z 000000018006e070 f i libucrtd:output.obj
 0001:0006d0b0       ??A?$spectre_mitigated_lookup_table@Ustate_transition_pair@__crt_stdio_output@@$0IA@@__crt_stdio_output@@QEBAAEBUstate_transition_pair@1@_K@Z 000000018006e0b0 f i libucrtd:output.obj
 0001:0006d0d0       ??C__crt_stdio_stream@@QEBAPEAU__crt_stdio_stream_data@@XZ 000000018006e0d0 f i libucrtd:output.obj
 0001:0006d920       ?__crt_interlocked_read_32@@YAHPEDH@Z 000000018006e920 f i libucrtd:output.obj
 0001:0006d940       ?adjust_hexit@?$output_processor@DV?$stream_output_adapter@D@__crt_stdio_output@@V?$format_validation_base@DV?$stream_output_adapter@D@__crt_stdio_output@@@2@@__crt_stdio_output@@CADH_N@Z 000000018006e940 f i libucrtd:output.obj
 0001:0006d990       ?adjust_hexit@?$output_processor@DV?$stream_output_adapter@D@__crt_stdio_output@@V?$positional_parameter_base@DV?$stream_output_adapter@D@__crt_stdio_output@@@2@@__crt_stdio_output@@CADH_N@Z 000000018006e990 f i libucrtd:output.obj
 0001:0006d9e0       ?adjust_hexit@?$output_processor@DV?$stream_output_adapter@D@__crt_stdio_output@@V?$standard_base@DV?$stream_output_adapter@D@__crt_stdio_output@@@2@@__crt_stdio_output@@CADH_N@Z 000000018006e9e0 f i libucrtd:output.obj
 0001:0006da30       ?adjust_hexit@?$output_processor@DV?$string_output_adapter@D@__crt_stdio_output@@V?$format_validation_base@DV?$string_output_adapter@D@__crt_stdio_output@@@2@@__crt_stdio_output@@CADH_N@Z 000000018006ea30 f i libucrtd:output.obj
 0001:0006da80       ?adjust_hexit@?$output_processor@DV?$string_output_adapter@D@__crt_stdio_output@@V?$positional_parameter_base@DV?$string_output_adapter@D@__crt_stdio_output@@@2@@__crt_stdio_output@@CADH_N@Z 000000018006ea80 f i libucrtd:output.obj
 0001:0006dad0       ?adjust_hexit@?$output_processor@DV?$string_output_adapter@D@__crt_stdio_output@@V?$standard_base@DV?$string_output_adapter@D@__crt_stdio_output@@@2@@__crt_stdio_output@@CADH_N@Z 000000018006ead0 f i libucrtd:output.obj
 0001:0006db20       ?adjust_hexit@?$output_processor@_WV?$stream_output_adapter@_W@__crt_stdio_output@@V?$format_validation_base@_WV?$stream_output_adapter@_W@__crt_stdio_output@@@2@@__crt_stdio_output@@CADH_N@Z 000000018006eb20 f i libucrtd:output.obj
 0001:0006db70       ?adjust_hexit@?$output_processor@_WV?$stream_output_adapter@_W@__crt_stdio_output@@V?$positional_parameter_base@_WV?$stream_output_adapter@_W@__crt_stdio_output@@@2@@__crt_stdio_output@@CADH_N@Z 000000018006eb70 f i libucrtd:output.obj
 0001:0006dbc0       ?adjust_hexit@?$output_processor@_WV?$stream_output_adapter@_W@__crt_stdio_output@@V?$standard_base@_WV?$stream_output_adapter@_W@__crt_stdio_output@@@2@@__crt_stdio_output@@CADH_N@Z 000000018006ebc0 f i libucrtd:output.obj
 0001:0006dc10       ?adjust_hexit@?$output_processor@_WV?$string_output_adapter@_W@__crt_stdio_output@@V?$format_validation_base@_WV?$string_output_adapter@_W@__crt_stdio_output@@@2@@__crt_stdio_output@@CADH_N@Z 000000018006ec10 f i libucrtd:output.obj
 0001:0006dc60       ?adjust_hexit@?$output_processor@_WV?$string_output_adapter@_W@__crt_stdio_output@@V?$positional_parameter_base@_WV?$string_output_adapter@_W@__crt_stdio_output@@@2@@__crt_stdio_output@@CADH_N@Z 000000018006ec60 f i libucrtd:output.obj
 0001:0006dcb0       ?adjust_hexit@?$output_processor@_WV?$string_output_adapter@_W@__crt_stdio_output@@V?$standard_base@_WV?$string_output_adapter@_W@__crt_stdio_output@@@2@@__crt_stdio_output@@CADH_N@Z 000000018006ecb0 f i libucrtd:output.obj
 0001:0006dd00       ?advance_to_next_pass@?$positional_parameter_base@DV?$stream_output_adapter@D@__crt_stdio_output@@@__crt_stdio_output@@IEAA_NXZ 000000018006ed00 f i libucrtd:output.obj
 0001:0006ddb0       ?advance_to_next_pass@?$positional_parameter_base@DV?$string_output_adapter@D@__crt_stdio_output@@@__crt_stdio_output@@IEAA_NXZ 000000018006edb0 f i libucrtd:output.obj
 0001:0006de60       ?advance_to_next_pass@?$positional_parameter_base@_WV?$stream_output_adapter@_W@__crt_stdio_output@@@__crt_stdio_output@@IEAA_NXZ 000000018006ee60 f i libucrtd:output.obj
 0001:0006df10       ?advance_to_next_pass@?$positional_parameter_base@_WV?$string_output_adapter@_W@__crt_stdio_output@@@__crt_stdio_output@@IEAA_NXZ 000000018006ef10 f i libucrtd:output.obj
 0001:0006dfc0       ?advance_to_next_pass@?$standard_base@DV?$stream_output_adapter@D@__crt_stdio_output@@@__crt_stdio_output@@IEAA_NXZ 000000018006efc0 f i libucrtd:output.obj
 0001:0006e010       ?advance_to_next_pass@?$standard_base@DV?$string_output_adapter@D@__crt_stdio_output@@@__crt_stdio_output@@IEAA_NXZ 000000018006f010 f i libucrtd:output.obj
 0001:0006e060       ?advance_to_next_pass@?$standard_base@_WV?$stream_output_adapter@_W@__crt_stdio_output@@@__crt_stdio_output@@IEAA_NXZ 000000018006f060 f i libucrtd:output.obj
 0001:0006e0b0       ?advance_to_next_pass@?$standard_base@_WV?$string_output_adapter@_W@__crt_stdio_output@@@__crt_stdio_output@@IEAA_NXZ 000000018006f0b0 f i libucrtd:output.obj
 0001:0006e100       ?check@?$cached@H@__crt_cached_ptd_host@@QEBA_NH@Z 000000018006f100 f i libucrtd:output.obj
 0001:0006e140       ?check_synchronize_global_state_index@__crt_cached_ptd_host@@AEAA_KAEBV__crt_scoped_get_last_error_reset@@@Z 000000018006f140 f i libucrtd:output.obj
 0001:0006e180       ?check_synchronize_per_thread_data@__crt_cached_ptd_host@@AEAAPEAU__acrt_ptd@@XZ 000000018006f180 f i libucrtd:output.obj
 0001:0006e1c0       ?create_guard@?$cached@H@__crt_cached_ptd_host@@QEAA?AVguard@12@XZ 000000018006f1c0 f i libucrtd:output.obj
 0001:0006e1f0       ?crop_zeroes@__crt_stdio_output@@YAXPEADQEAU__crt_locale_pointers@@@Z 000000018006f1f0 f i libucrtd:output.obj
 0001:0006e340       ?disable@guard@?$cached@H@__crt_cached_ptd_host@@QEAAXXZ 000000018006f340 f i libucrtd:output.obj
 0001:0006e350       ?enable@guard@?$cached@H@__crt_cached_ptd_host@@QEAAXXZ 000000018006f350 f i libucrtd:output.obj
 0001:0006e360       ?find_next_state@?$output_processor@DV?$stream_output_adapter@D@__crt_stdio_output@@V?$format_validation_base@DV?$stream_output_adapter@D@__crt_stdio_output@@@2@@__crt_stdio_output@@AEBA?AW4state@2@DW432@@Z 000000018006f360 f i libucrtd:output.obj
 0001:0006e400       ?find_next_state@?$output_processor@DV?$stream_output_adapter@D@__crt_stdio_output@@V?$positional_parameter_base@DV?$stream_output_adapter@D@__crt_stdio_output@@@2@@__crt_stdio_output@@AEBA?AW4state@2@DW432@@Z 000000018006f400 f i libucrtd:output.obj
 0001:0006e4a0       ?find_next_state@?$output_processor@DV?$stream_output_adapter@D@__crt_stdio_output@@V?$standard_base@DV?$stream_output_adapter@D@__crt_stdio_output@@@2@@__crt_stdio_output@@AEBA?AW4state@2@DW432@@Z 000000018006f4a0 f i libucrtd:output.obj
 0001:0006e540       ?find_next_state@?$output_processor@DV?$string_output_adapter@D@__crt_stdio_output@@V?$format_validation_base@DV?$string_output_adapter@D@__crt_stdio_output@@@2@@__crt_stdio_output@@AEBA?AW4state@2@DW432@@Z 000000018006f540 f i libucrtd:output.obj
 0001:0006e5e0       ?find_next_state@?$output_processor@DV?$string_output_adapter@D@__crt_stdio_output@@V?$positional_parameter_base@DV?$string_output_adapter@D@__crt_stdio_output@@@2@@__crt_stdio_output@@AEBA?AW4state@2@DW432@@Z 000000018006f5e0 f i libucrtd:output.obj
 0001:0006e680       ?find_next_state@?$output_processor@DV?$string_output_adapter@D@__crt_stdio_output@@V?$standard_base@DV?$string_output_adapter@D@__crt_stdio_output@@@2@@__crt_stdio_output@@AEBA?AW4state@2@DW432@@Z 000000018006f680 f i libucrtd:output.obj
 0001:0006e720       ?find_next_state@?$output_processor@_WV?$stream_output_adapter@_W@__crt_stdio_output@@V?$format_validation_base@_WV?$stream_output_adapter@_W@__crt_stdio_output@@@2@@__crt_stdio_output@@AEBA?AW4state@2@_WW432@@Z 000000018006f720 f i libucrtd:output.obj
 0001:0006e7c0       ?find_next_state@?$output_processor@_WV?$stream_output_adapter@_W@__crt_stdio_output@@V?$positional_parameter_base@_WV?$stream_output_adapter@_W@__crt_stdio_output@@@2@@__crt_stdio_output@@AEBA?AW4state@2@_WW432@@Z 000000018006f7c0 f i libucrtd:output.obj
 0001:0006e860       ?find_next_state@?$output_processor@_WV?$stream_output_adapter@_W@__crt_stdio_output@@V?$standard_base@_WV?$stream_output_adapter@_W@__crt_stdio_output@@@2@@__crt_stdio_output@@AEBA?AW4state@2@_WW432@@Z 000000018006f860 f i libucrtd:output.obj
 0001:0006e900       ?find_next_state@?$output_processor@_WV?$string_output_adapter@_W@__crt_stdio_output@@V?$format_validation_base@_WV?$string_output_adapter@_W@__crt_stdio_output@@@2@@__crt_stdio_output@@AEBA?AW4state@2@_WW432@@Z 000000018006f900 f i libucrtd:output.obj
 0001:0006e9a0       ?find_next_state@?$output_processor@_WV?$string_output_adapter@_W@__crt_stdio_output@@V?$positional_parameter_base@_WV?$string_output_adapter@_W@__crt_stdio_output@@@2@@__crt_stdio_output@@AEBA?AW4state@2@_WW432@@Z 000000018006f9a0 f i libucrtd:output.obj
 0001:0006ea40       ?find_next_state@?$output_processor@_WV?$string_output_adapter@_W@__crt_stdio_output@@V?$standard_base@_WV?$string_output_adapter@_W@__crt_stdio_output@@@2@@__crt_stdio_output@@AEBA?AW4state@2@_WW432@@Z 000000018006fa40 f i libucrtd:output.obj
 0001:0006eae0       ?force_decimal_point@__crt_stdio_output@@YAXPEADQEAU__crt_locale_pointers@@@Z 000000018006fae0 f i libucrtd:output.obj
 0001:0006ebe0       ?force_synchronize_global_state_index@__crt_cached_ptd_host@@AEAA_KAEBV__crt_scoped_get_last_error_reset@@@Z 000000018006fbe0 f i libucrtd:output.obj
 0001:0006ec20       ?force_synchronize_per_thread_data@__crt_cached_ptd_host@@AEAAPEAU__acrt_ptd@@XZ 000000018006fc20 f i libucrtd:output.obj
 0001:0006ec80       ?get@?$c_string_character_source@D@__crt_strtox@@QEAADXZ 000000018006fc80 f i libucrtd:output.obj
 0001:0006ecc0       ?get@?$c_string_character_source@_W@__crt_strtox@@QEAA_WXZ 000000018006fcc0 f i libucrtd:output.obj
 0001:0006ed00       ?get_current_state_index@__crt_state_management@@YA_KAEBV__crt_scoped_get_last_error_reset@@@Z 000000018006fd00 f i libucrtd:output.obj
 0001:0006ed10       ?get_errno@__crt_cached_ptd_host@@QEAAAEAU?$cached@H@1@XZ 000000018006fd10 f i libucrtd:output.obj
 0001:0006ed20       ?get_flags@__crt_stdio_stream@@QEBAJXZ 000000018006fd20 f i libucrtd:output.obj
 0001:0006ed50       ?get_locale@__crt_cached_ptd_host@@QEAAPEAU__crt_locale_pointers@@XZ 000000018006fd50 f i libucrtd:output.obj
 0001:0006ed80       ?get_parameter_type@?$positional_parameter_base@DV?$stream_output_adapter@D@__crt_stdio_output@@@__crt_stdio_output@@CA?AW4parameter_type@12@F@Z 000000018006fd80 f i libucrtd:output.obj
 0001:0006ed90       ?get_parameter_type@?$positional_parameter_base@DV?$stream_output_adapter@D@__crt_stdio_output@@@__crt_stdio_output@@CA?AW4parameter_type@12@G@Z 000000018006fd90 f i libucrtd:output.obj
 0001:0006eda0       ?get_parameter_type@?$positional_parameter_base@DV?$stream_output_adapter@D@__crt_stdio_output@@@__crt_stdio_output@@CA?AW4parameter_type@12@H@Z 000000018006fda0 f i libucrtd:output.obj
 0001:0006edb0       ?get_parameter_type@?$positional_parameter_base@DV?$stream_output_adapter@D@__crt_stdio_output@@@__crt_stdio_output@@CA?AW4parameter_type@12@I@Z 000000018006fdb0 f i libucrtd:output.obj
 0001:0006edc0       ?get_parameter_type@?$positional_parameter_base@DV?$stream_output_adapter@D@__crt_stdio_output@@@__crt_stdio_output@@CA?AW4parameter_type@12@U_CRT_DOUBLE@@@Z 000000018006fdc0 f i libucrtd:output.obj
 0001:0006edd0       ?get_parameter_type@?$positional_parameter_base@DV?$stream_output_adapter@D@__crt_stdio_output@@@__crt_stdio_output@@CA?AW4parameter_type@12@_J@Z 000000018006fdd0 f i libucrtd:output.obj
 0001:0006ede0       ?get_parameter_type@?$positional_parameter_base@DV?$stream_output_adapter@D@__crt_stdio_output@@@__crt_stdio_output@@CA?AW4parameter_type@12@_K@Z 000000018006fde0 f i libucrtd:output.obj
 0001:0006edf0       ?get_parameter_type@?$positional_parameter_base@DV?$stream_output_adapter@D@__crt_stdio_output@@@__crt_stdio_output@@CA?AW4parameter_type@12@_W@Z 000000018006fdf0 f i libucrtd:output.obj
 0001:0006ee00       ?get_parameter_type@?$positional_parameter_base@DV?$string_output_adapter@D@__crt_stdio_output@@@__crt_stdio_output@@CA?AW4parameter_type@12@F@Z 000000018006fe00 f i libucrtd:output.obj
 0001:0006ee10       ?get_parameter_type@?$positional_parameter_base@DV?$string_output_adapter@D@__crt_stdio_output@@@__crt_stdio_output@@CA?AW4parameter_type@12@G@Z 000000018006fe10 f i libucrtd:output.obj
 0001:0006ee20       ?get_parameter_type@?$positional_parameter_base@DV?$string_output_adapter@D@__crt_stdio_output@@@__crt_stdio_output@@CA?AW4parameter_type@12@H@Z 000000018006fe20 f i libucrtd:output.obj
 0001:0006ee30       ?get_parameter_type@?$positional_parameter_base@DV?$string_output_adapter@D@__crt_stdio_output@@@__crt_stdio_output@@CA?AW4parameter_type@12@I@Z 000000018006fe30 f i libucrtd:output.obj
 0001:0006ee40       ?get_parameter_type@?$positional_parameter_base@DV?$string_output_adapter@D@__crt_stdio_output@@@__crt_stdio_output@@CA?AW4parameter_type@12@U_CRT_DOUBLE@@@Z 000000018006fe40 f i libucrtd:output.obj
 0001:0006ee50       ?get_parameter_type@?$positional_parameter_base@DV?$string_output_adapter@D@__crt_stdio_output@@@__crt_stdio_output@@CA?AW4parameter_type@12@_J@Z 000000018006fe50 f i libucrtd:output.obj
 0001:0006ee60       ?get_parameter_type@?$positional_parameter_base@DV?$string_output_adapter@D@__crt_stdio_output@@@__crt_stdio_output@@CA?AW4parameter_type@12@_K@Z 000000018006fe60 f i libucrtd:output.obj
 0001:0006ee70       ?get_parameter_type@?$positional_parameter_base@DV?$string_output_adapter@D@__crt_stdio_output@@@__crt_stdio_output@@CA?AW4parameter_type@12@_W@Z 000000018006fe70 f i libucrtd:output.obj
 0001:0006ee80       ?get_parameter_type@?$positional_parameter_base@_WV?$stream_output_adapter@_W@__crt_stdio_output@@@__crt_stdio_output@@CA?AW4parameter_type@12@F@Z 000000018006fe80 f i libucrtd:output.obj
 0001:0006ee90       ?get_parameter_type@?$positional_parameter_base@_WV?$stream_output_adapter@_W@__crt_stdio_output@@@__crt_stdio_output@@CA?AW4parameter_type@12@G@Z 000000018006fe90 f i libucrtd:output.obj
 0001:0006eea0       ?get_parameter_type@?$positional_parameter_base@_WV?$stream_output_adapter@_W@__crt_stdio_output@@@__crt_stdio_output@@CA?AW4parameter_type@12@H@Z 000000018006fea0 f i libucrtd:output.obj
 0001:0006eeb0       ?get_parameter_type@?$positional_parameter_base@_WV?$stream_output_adapter@_W@__crt_stdio_output@@@__crt_stdio_output@@CA?AW4parameter_type@12@I@Z 000000018006feb0 f i libucrtd:output.obj
 0001:0006eec0       ?get_parameter_type@?$positional_parameter_base@_WV?$stream_output_adapter@_W@__crt_stdio_output@@@__crt_stdio_output@@CA?AW4parameter_type@12@U_CRT_DOUBLE@@@Z 000000018006fec0 f i libucrtd:output.obj
 0001:0006eed0       ?get_parameter_type@?$positional_parameter_base@_WV?$stream_output_adapter@_W@__crt_stdio_output@@@__crt_stdio_output@@CA?AW4parameter_type@12@_J@Z 000000018006fed0 f i libucrtd:output.obj
 0001:0006eee0       ?get_parameter_type@?$positional_parameter_base@_WV?$stream_output_adapter@_W@__crt_stdio_output@@@__crt_stdio_output@@CA?AW4parameter_type@12@_K@Z 000000018006fee0 f i libucrtd:output.obj
 0001:0006eef0       ?get_parameter_type@?$positional_parameter_base@_WV?$stream_output_adapter@_W@__crt_stdio_output@@@__crt_stdio_output@@CA?AW4parameter_type@12@_W@Z 000000018006fef0 f i libucrtd:output.obj
 0001:0006ef00       ?get_parameter_type@?$positional_parameter_base@_WV?$string_output_adapter@_W@__crt_stdio_output@@@__crt_stdio_output@@CA?AW4parameter_type@12@F@Z 000000018006ff00 f i libucrtd:output.obj
 0001:0006ef10       ?get_parameter_type@?$positional_parameter_base@_WV?$string_output_adapter@_W@__crt_stdio_output@@@__crt_stdio_output@@CA?AW4parameter_type@12@G@Z 000000018006ff10 f i libucrtd:output.obj
 0001:0006ef20       ?get_parameter_type@?$positional_parameter_base@_WV?$string_output_adapter@_W@__crt_stdio_output@@@__crt_stdio_output@@CA?AW4parameter_type@12@H@Z 000000018006ff20 f i libucrtd:output.obj
 0001:0006ef30       ?get_parameter_type@?$positional_parameter_base@_WV?$string_output_adapter@_W@__crt_stdio_output@@@__crt_stdio_output@@CA?AW4parameter_type@12@I@Z 000000018006ff30 f i libucrtd:output.obj
 0001:0006ef40       ?get_parameter_type@?$positional_parameter_base@_WV?$string_output_adapter@_W@__crt_stdio_output@@@__crt_stdio_output@@CA?AW4parameter_type@12@U_CRT_DOUBLE@@@Z 000000018006ff40 f i libucrtd:output.obj
 0001:0006ef50       ?get_parameter_type@?$positional_parameter_base@_WV?$string_output_adapter@_W@__crt_stdio_output@@@__crt_stdio_output@@CA?AW4parameter_type@12@_J@Z 000000018006ff50 f i libucrtd:output.obj
 0001:0006ef60       ?get_parameter_type@?$positional_parameter_base@_WV?$string_output_adapter@_W@__crt_stdio_output@@@__crt_stdio_output@@CA?AW4parameter_type@12@_K@Z 000000018006ff60 f i libucrtd:output.obj
 0001:0006ef70       ?get_parameter_type@?$positional_parameter_base@_WV?$string_output_adapter@_W@__crt_stdio_output@@@__crt_stdio_output@@CA?AW4parameter_type@12@_W@Z 000000018006ff70 f i libucrtd:output.obj
 0001:0006ef80       ?get_raw_ptd@__crt_cached_ptd_host@@QEAAPEAU__acrt_ptd@@XZ 000000018006ff80 f i libucrtd:output.obj
 0001:0006efa0       ?has_flag@?$output_processor@DV?$stream_output_adapter@D@__crt_stdio_output@@V?$format_validation_base@DV?$stream_output_adapter@D@__crt_stdio_output@@@2@@__crt_stdio_output@@AEBA_NI@Z 000000018006ffa0 f i libucrtd:output.obj
 0001:0006efe0       ?has_flag@?$output_processor@DV?$stream_output_adapter@D@__crt_stdio_output@@V?$positional_parameter_base@DV?$stream_output_adapter@D@__crt_stdio_output@@@2@@__crt_stdio_output@@AEBA_NI@Z 000000018006ffe0 f i libucrtd:output.obj
 0001:0006f020       ?has_flag@?$output_processor@DV?$stream_output_adapter@D@__crt_stdio_output@@V?$standard_base@DV?$stream_output_adapter@D@__crt_stdio_output@@@2@@__crt_stdio_output@@AEBA_NI@Z 0000000180070020 f i libucrtd:output.obj
 0001:0006f060       ?has_flag@?$output_processor@DV?$string_output_adapter@D@__crt_stdio_output@@V?$format_validation_base@DV?$string_output_adapter@D@__crt_stdio_output@@@2@@__crt_stdio_output@@AEBA_NI@Z 0000000180070060 f i libucrtd:output.obj
 0001:0006f0a0       ?has_flag@?$output_processor@DV?$string_output_adapter@D@__crt_stdio_output@@V?$positional_parameter_base@DV?$string_output_adapter@D@__crt_stdio_output@@@2@@__crt_stdio_output@@AEBA_NI@Z 00000001800700a0 f i libucrtd:output.obj
 0001:0006f0e0       ?has_flag@?$output_processor@DV?$string_output_adapter@D@__crt_stdio_output@@V?$standard_base@DV?$string_output_adapter@D@__crt_stdio_output@@@2@@__crt_stdio_output@@AEBA_NI@Z 00000001800700e0 f i libucrtd:output.obj
 0001:0006f120       ?has_flag@?$output_processor@_WV?$stream_output_adapter@_W@__crt_stdio_output@@V?$format_validation_base@_WV?$stream_output_adapter@_W@__crt_stdio_output@@@2@@__crt_stdio_output@@AEBA_NI@Z 0000000180070120 f i libucrtd:output.obj
 0001:0006f160       ?has_flag@?$output_processor@_WV?$stream_output_adapter@_W@__crt_stdio_output@@V?$positional_parameter_base@_WV?$stream_output_adapter@_W@__crt_stdio_output@@@2@@__crt_stdio_output@@AEBA_NI@Z 0000000180070160 f i libucrtd:output.obj
 0001:0006f1a0       ?has_flag@?$output_processor@_WV?$stream_output_adapter@_W@__crt_stdio_output@@V?$standard_base@_WV?$stream_output_adapter@_W@__crt_stdio_output@@@2@@__crt_stdio_output@@AEBA_NI@Z 00000001800701a0 f i libucrtd:output.obj
 0001:0006f1e0       ?has_flag@?$output_processor@_WV?$string_output_adapter@_W@__crt_stdio_output@@V?$format_validation_base@_WV?$string_output_adapter@_W@__crt_stdio_output@@@2@@__crt_stdio_output@@AEBA_NI@Z 00000001800701e0 f i libucrtd:output.obj
 0001:0006f220       ?has_flag@?$output_processor@_WV?$string_output_adapter@_W@__crt_stdio_output@@V?$positional_parameter_base@_WV?$string_output_adapter@_W@__crt_stdio_output@@@2@@__crt_stdio_output@@AEBA_NI@Z 0000000180070220 f i libucrtd:output.obj
 0001:0006f260       ?has_flag@?$output_processor@_WV?$string_output_adapter@_W@__crt_stdio_output@@V?$standard_base@_WV?$string_output_adapter@_W@__crt_stdio_output@@@2@@__crt_stdio_output@@AEBA_NI@Z 0000000180070260 f i libucrtd:output.obj
 0001:0006f2a0       ?is_positional_parameter_reappearance_consistent@?$positional_parameter_base@DV?$stream_output_adapter@D@__crt_stdio_output@@@__crt_stdio_output@@AEAA_NAEBUparameter_data@12@W4parameter_type@12@DW4length_modifier@2@@Z 00000001800702a0 f i libucrtd:output.obj
 0001:0006f500       ?is_positional_parameter_reappearance_consistent@?$positional_parameter_base@DV?$string_output_adapter@D@__crt_stdio_output@@@__crt_stdio_output@@AEAA_NAEBUparameter_data@12@W4parameter_type@12@DW4length_modifier@2@@Z 0000000180070500 f i libucrtd:output.obj
 0001:0006f760       ?is_positional_parameter_reappearance_consistent@?$positional_parameter_base@_WV?$stream_output_adapter@_W@__crt_stdio_output@@@__crt_stdio_output@@AEAA_NAEBUparameter_data@12@W4parameter_type@12@_WW4length_modifier@2@@Z 0000000180070760 f i libucrtd:output.obj
 0001:0006f9c0       ?is_positional_parameter_reappearance_consistent@?$positional_parameter_base@_WV?$string_output_adapter@_W@__crt_stdio_output@@@__crt_stdio_output@@AEAA_NAEBUparameter_data@12@W4parameter_type@12@_WW4length_modifier@2@@Z 00000001800709c0 f i libucrtd:output.obj
 0001:0006fc20       ?is_string_backed@__crt_stdio_stream@@QEBA_NXZ 0000000180070c20 f i libucrtd:output.obj
 0001:0006fc60       ?maximum_signed_value@__crt_strtox@@YAJK@Z 0000000180070c60 f i libucrtd:output.obj
 0001:0006fc70       ?minimum_signed_value@__crt_strtox@@YAJK@Z 0000000180070c70 f i libucrtd:output.obj
 0001:0006fc80       ?narrow_null_string@?$output_processor@DV?$stream_output_adapter@D@__crt_stdio_output@@V?$format_validation_base@DV?$stream_output_adapter@D@__crt_stdio_output@@@2@@__crt_stdio_output@@CAPEADXZ 0000000180070c80 f i libucrtd:output.obj
 0001:0006fc90       ?narrow_null_string@?$output_processor@DV?$stream_output_adapter@D@__crt_stdio_output@@V?$positional_parameter_base@DV?$stream_output_adapter@D@__crt_stdio_output@@@2@@__crt_stdio_output@@CAPEADXZ 0000000180070c90 f i libucrtd:output.obj
 0001:0006fca0       ?narrow_null_string@?$output_processor@DV?$stream_output_adapter@D@__crt_stdio_output@@V?$standard_base@DV?$stream_output_adapter@D@__crt_stdio_output@@@2@@__crt_stdio_output@@CAPEADXZ 0000000180070ca0 f i libucrtd:output.obj
 0001:0006fcb0       ?narrow_null_string@?$output_processor@DV?$string_output_adapter@D@__crt_stdio_output@@V?$format_validation_base@DV?$string_output_adapter@D@__crt_stdio_output@@@2@@__crt_stdio_output@@CAPEADXZ 0000000180070cb0 f i libucrtd:output.obj
 0001:0006fcc0       ?narrow_null_string@?$output_processor@DV?$string_output_adapter@D@__crt_stdio_output@@V?$positional_parameter_base@DV?$string_output_adapter@D@__crt_stdio_output@@@2@@__crt_stdio_output@@CAPEADXZ 0000000180070cc0 f i libucrtd:output.obj
 0001:0006fcd0       ?narrow_null_string@?$output_processor@DV?$string_output_adapter@D@__crt_stdio_output@@V?$standard_base@DV?$string_output_adapter@D@__crt_stdio_output@@@2@@__crt_stdio_output@@CAPEADXZ 0000000180070cd0 f i libucrtd:output.obj
 0001:0006fce0       ?narrow_null_string@?$output_processor@_WV?$stream_output_adapter@_W@__crt_stdio_output@@V?$format_validation_base@_WV?$stream_output_adapter@_W@__crt_stdio_output@@@2@@__crt_stdio_output@@CAPEADXZ 0000000180070ce0 f i libucrtd:output.obj
 0001:0006fcf0       ?narrow_null_string@?$output_processor@_WV?$stream_output_adapter@_W@__crt_stdio_output@@V?$positional_parameter_base@_WV?$stream_output_adapter@_W@__crt_stdio_output@@@2@@__crt_stdio_output@@CAPEADXZ 0000000180070cf0 f i libucrtd:output.obj
 0001:0006fd00       ?narrow_null_string@?$output_processor@_WV?$stream_output_adapter@_W@__crt_stdio_output@@V?$standard_base@_WV?$stream_output_adapter@_W@__crt_stdio_output@@@2@@__crt_stdio_output@@CAPEADXZ 0000000180070d00 f i libucrtd:output.obj
 0001:0006fd10       ?narrow_null_string@?$output_processor@_WV?$string_output_adapter@_W@__crt_stdio_output@@V?$format_validation_base@_WV?$string_output_adapter@_W@__crt_stdio_output@@@2@@__crt_stdio_output@@CAPEADXZ 0000000180070d10 f i libucrtd:output.obj
 0001:0006fd20       ?narrow_null_string@?$output_processor@_WV?$string_output_adapter@_W@__crt_stdio_output@@V?$positional_parameter_base@_WV?$string_output_adapter@_W@__crt_stdio_output@@@2@@__crt_stdio_output@@CAPEADXZ 0000000180070d20 f i libucrtd:output.obj
 0001:0006fd30       ?narrow_null_string@?$output_processor@_WV?$string_output_adapter@_W@__crt_stdio_output@@V?$standard_base@_WV?$string_output_adapter@_W@__crt_stdio_output@@@2@@__crt_stdio_output@@CAPEADXZ 0000000180070d30 f i libucrtd:output.obj
 0001:0006fd40       ?parse_digit@__crt_strtox@@YAID@Z 0000000180070d40 f i libucrtd:output.obj
 0001:0006fdb0       ?parse_digit@__crt_strtox@@YAI_W@Z 0000000180070db0 f i libucrtd:output.obj
 0001:0006fe00       ?parse_int_from_format_string@?$output_processor@DV?$stream_output_adapter@D@__crt_stdio_output@@V?$format_validation_base@DV?$stream_output_adapter@D@__crt_stdio_output@@@2@@__crt_stdio_output@@AEAA_NQEAH@Z 0000000180070e00 f i libucrtd:output.obj
 0001:0006ff00       ?parse_int_from_format_string@?$output_processor@DV?$stream_output_adapter@D@__crt_stdio_output@@V?$positional_parameter_base@DV?$stream_output_adapter@D@__crt_stdio_output@@@2@@__crt_stdio_output@@AEAA_NQEAH@Z 0000000180070f00 f i libucrtd:output.obj
 0001:00070000       ?parse_int_from_format_string@?$output_processor@DV?$stream_output_adapter@D@__crt_stdio_output@@V?$standard_base@DV?$stream_output_adapter@D@__crt_stdio_output@@@2@@__crt_stdio_output@@AEAA_NQEAH@Z 0000000180071000 f i libucrtd:output.obj
 0001:00070100       ?parse_int_from_format_string@?$output_processor@DV?$string_output_adapter@D@__crt_stdio_output@@V?$format_validation_base@DV?$string_output_adapter@D@__crt_stdio_output@@@2@@__crt_stdio_output@@AEAA_NQEAH@Z 0000000180071100 f i libucrtd:output.obj
 0001:00070200       ?parse_int_from_format_string@?$output_processor@DV?$string_output_adapter@D@__crt_stdio_output@@V?$positional_parameter_base@DV?$string_output_adapter@D@__crt_stdio_output@@@2@@__crt_stdio_output@@AEAA_NQEAH@Z 0000000180071200 f i libucrtd:output.obj
 0001:00070300       ?parse_int_from_format_string@?$output_processor@DV?$string_output_adapter@D@__crt_stdio_output@@V?$standard_base@DV?$string_output_adapter@D@__crt_stdio_output@@@2@@__crt_stdio_output@@AEAA_NQEAH@Z 0000000180071300 f i libucrtd:output.obj
 0001:00070400       ?parse_int_from_format_string@?$output_processor@_WV?$stream_output_adapter@_W@__crt_stdio_output@@V?$format_validation_base@_WV?$stream_output_adapter@_W@__crt_stdio_output@@@2@@__crt_stdio_output@@AEAA_NQEAH@Z 0000000180071400 f i libucrtd:output.obj
 0001:00070500       ?parse_int_from_format_string@?$output_processor@_WV?$stream_output_adapter@_W@__crt_stdio_output@@V?$positional_parameter_base@_WV?$stream_output_adapter@_W@__crt_stdio_output@@@2@@__crt_stdio_output@@AEAA_NQEAH@Z 0000000180071500 f i libucrtd:output.obj
 0001:00070600       ?parse_int_from_format_string@?$output_processor@_WV?$stream_output_adapter@_W@__crt_stdio_output@@V?$standard_base@_WV?$stream_output_adapter@_W@__crt_stdio_output@@@2@@__crt_stdio_output@@AEAA_NQEAH@Z 0000000180071600 f i libucrtd:output.obj
 0001:00070700       ?parse_int_from_format_string@?$output_processor@_WV?$string_output_adapter@_W@__crt_stdio_output@@V?$format_validation_base@_WV?$string_output_adapter@_W@__crt_stdio_output@@@2@@__crt_stdio_output@@AEAA_NQEAH@Z 0000000180071700 f i libucrtd:output.obj
 0001:00070800       ?parse_int_from_format_string@?$output_processor@_WV?$string_output_adapter@_W@__crt_stdio_output@@V?$positional_parameter_base@_WV?$string_output_adapter@_W@__crt_stdio_output@@@2@@__crt_stdio_output@@AEAA_NQEAH@Z 0000000180071800 f i libucrtd:output.obj
 0001:00070900       ?parse_int_from_format_string@?$output_processor@_WV?$string_output_adapter@_W@__crt_stdio_output@@V?$standard_base@_WV?$string_output_adapter@_W@__crt_stdio_output@@@2@@__crt_stdio_output@@AEAA_NQEAH@Z 0000000180071900 f i libucrtd:output.obj
 0001:00070a00       ?process@?$output_processor@DV?$stream_output_adapter@D@__crt_stdio_output@@V?$format_validation_base@DV?$stream_output_adapter@D@__crt_stdio_output@@@2@@__crt_stdio_output@@QEAAHXZ 0000000180071a00 f i libucrtd:output.obj
 0001:00070dc0       ?process@?$output_processor@DV?$stream_output_adapter@D@__crt_stdio_output@@V?$positional_parameter_base@DV?$stream_output_adapter@D@__crt_stdio_output@@@2@@__crt_stdio_output@@QEAAHXZ 0000000180071dc0 f i libucrtd:output.obj
 0001:00071180       ?process@?$output_processor@DV?$stream_output_adapter@D@__crt_stdio_output@@V?$standard_base@DV?$stream_output_adapter@D@__crt_stdio_output@@@2@@__crt_stdio_output@@QEAAHXZ 0000000180072180 f i libucrtd:output.obj
 0001:00071540       ?process@?$output_processor@DV?$string_output_adapter@D@__crt_stdio_output@@V?$format_validation_base@DV?$string_output_adapter@D@__crt_stdio_output@@@2@@__crt_stdio_output@@QEAAHXZ 0000000180072540 f i libucrtd:output.obj
 0001:00071900       ?process@?$output_processor@DV?$string_output_adapter@D@__crt_stdio_output@@V?$positional_parameter_base@DV?$string_output_adapter@D@__crt_stdio_output@@@2@@__crt_stdio_output@@QEAAHXZ 0000000180072900 f i libucrtd:output.obj
 0001:00071cc0       ?process@?$output_processor@DV?$string_output_adapter@D@__crt_stdio_output@@V?$standard_base@DV?$string_output_adapter@D@__crt_stdio_output@@@2@@__crt_stdio_output@@QEAAHXZ 0000000180072cc0 f i libucrtd:output.obj
 0001:00072080       ?process@?$output_processor@_WV?$stream_output_adapter@_W@__crt_stdio_output@@V?$format_validation_base@_WV?$stream_output_adapter@_W@__crt_stdio_output@@@2@@__crt_stdio_output@@QEAAHXZ 0000000180073080 f i libucrtd:output.obj
 0001:00072440       ?process@?$output_processor@_WV?$stream_output_adapter@_W@__crt_stdio_output@@V?$positional_parameter_base@_WV?$stream_output_adapter@_W@__crt_stdio_output@@@2@@__crt_stdio_output@@QEAAHXZ 0000000180073440 f i libucrtd:output.obj
 0001:00072800       ?process@?$output_processor@_WV?$stream_output_adapter@_W@__crt_stdio_output@@V?$standard_base@_WV?$stream_output_adapter@_W@__crt_stdio_output@@@2@@__crt_stdio_output@@QEAAHXZ 0000000180073800 f i libucrtd:output.obj
 0001:00072bc0       ?process@?$output_processor@_WV?$string_output_adapter@_W@__crt_stdio_output@@V?$format_validation_base@_WV?$string_output_adapter@_W@__crt_stdio_output@@@2@@__crt_stdio_output@@QEAAHXZ 0000000180073bc0 f i libucrtd:output.obj
 0001:00072f80       ?process@?$output_processor@_WV?$string_output_adapter@_W@__crt_stdio_output@@V?$positional_parameter_base@_WV?$string_output_adapter@_W@__crt_stdio_output@@@2@@__crt_stdio_output@@QEAAHXZ 0000000180073f80 f i libucrtd:output.obj
 0001:00073340       ?process@?$output_processor@_WV?$string_output_adapter@_W@__crt_stdio_output@@V?$standard_base@_WV?$string_output_adapter@_W@__crt_stdio_output@@@2@@__crt_stdio_output@@QEAAHXZ 0000000180074340 f i libucrtd:output.obj
 0001:00073700       ?public_stream@__crt_stdio_stream@@QEBAPEAU_iobuf@@XZ 0000000180074700 f i libucrtd:output.obj
 0001:00073710       ?restore_state@?$c_string_character_source@D@__crt_strtox@@QEAA_NQEBD@Z 0000000180074710 f i libucrtd:output.obj
 0001:00073730       ?restore_state@?$c_string_character_source@_W@__crt_strtox@@QEAA_NQEB_W@Z 0000000180074730 f i libucrtd:output.obj
 0001:00073750       ?save_state@?$c_string_character_source@D@__crt_strtox@@QEBAPEBDXZ 0000000180074750 f i libucrtd:output.obj
 0001:00073760       ?save_state@?$c_string_character_source@_W@__crt_strtox@@QEBAPEB_WXZ 0000000180074760 f i libucrtd:output.obj
 0001:00073770       ?set@?$cached@H@__crt_cached_ptd_host@@QEAAHH@Z 0000000180074770 f i libucrtd:output.obj
 0001:000737a0       ?set_flag@?$output_processor@DV?$stream_output_adapter@D@__crt_stdio_output@@V?$format_validation_base@DV?$stream_output_adapter@D@__crt_stdio_output@@@2@@__crt_stdio_output@@AEAAXI@Z 00000001800747a0 f i libucrtd:output.obj
 0001:000737c0       ?set_flag@?$output_processor@DV?$stream_output_adapter@D@__crt_stdio_output@@V?$positional_parameter_base@DV?$stream_output_adapter@D@__crt_stdio_output@@@2@@__crt_stdio_output@@AEAAXI@Z 00000001800747c0 f i libucrtd:output.obj
 0001:000737e0       ?set_flag@?$output_processor@DV?$stream_output_adapter@D@__crt_stdio_output@@V?$standard_base@DV?$stream_output_adapter@D@__crt_stdio_output@@@2@@__crt_stdio_output@@AEAAXI@Z 00000001800747e0 f i libucrtd:output.obj
 0001:00073800       ?set_flag@?$output_processor@DV?$string_output_adapter@D@__crt_stdio_output@@V?$format_validation_base@DV?$string_output_adapter@D@__crt_stdio_output@@@2@@__crt_stdio_output@@AEAAXI@Z 0000000180074800 f i libucrtd:output.obj
 0001:00073820       ?set_flag@?$output_processor@DV?$string_output_adapter@D@__crt_stdio_output@@V?$positional_parameter_base@DV?$string_output_adapter@D@__crt_stdio_output@@@2@@__crt_stdio_output@@AEAAXI@Z 0000000180074820 f i libucrtd:output.obj
 0001:00073840       ?set_flag@?$output_processor@DV?$string_output_adapter@D@__crt_stdio_output@@V?$standard_base@DV?$string_output_adapter@D@__crt_stdio_output@@@2@@__crt_stdio_output@@AEAAXI@Z 0000000180074840 f i libucrtd:output.obj
 0001:00073860       ?set_flag@?$output_processor@_WV?$stream_output_adapter@_W@__crt_stdio_output@@V?$format_validation_base@_WV?$stream_output_adapter@_W@__crt_stdio_output@@@2@@__crt_stdio_output@@AEAAXI@Z 0000000180074860 f i libucrtd:output.obj
 0001:00073880       ?set_flag@?$output_processor@_WV?$stream_output_adapter@_W@__crt_stdio_output@@V?$positional_parameter_base@_WV?$stream_output_adapter@_W@__crt_stdio_output@@@2@@__crt_stdio_output@@AEAAXI@Z 0000000180074880 f i libucrtd:output.obj
 0001:000738a0       ?set_flag@?$output_processor@_WV?$stream_output_adapter@_W@__crt_stdio_output@@V?$standard_base@_WV?$stream_output_adapter@_W@__crt_stdio_output@@@2@@__crt_stdio_output@@AEAAXI@Z 00000001800748a0 f i libucrtd:output.obj
 0001:000738c0       ?set_flag@?$output_processor@_WV?$string_output_adapter@_W@__crt_stdio_output@@V?$format_validation_base@_WV?$string_output_adapter@_W@__crt_stdio_output@@@2@@__crt_stdio_output@@AEAAXI@Z 00000001800748c0 f i libucrtd:output.obj
 0001:000738e0       ?set_flag@?$output_processor@_WV?$string_output_adapter@_W@__crt_stdio_output@@V?$positional_parameter_base@_WV?$string_output_adapter@_W@__crt_stdio_output@@@2@@__crt_stdio_output@@AEAAXI@Z 00000001800748e0 f i libucrtd:output.obj
 0001:00073900       ?set_flag@?$output_processor@_WV?$string_output_adapter@_W@__crt_stdio_output@@V?$standard_base@_WV?$string_output_adapter@_W@__crt_stdio_output@@@2@@__crt_stdio_output@@AEAAXI@Z 0000000180074900 f i libucrtd:output.obj
 0001:00073920       ?should_format@?$positional_parameter_base@DV?$stream_output_adapter@D@__crt_stdio_output@@@__crt_stdio_output@@IEAA_NXZ 0000000180074920 f i libucrtd:output.obj
 0001:00073960       ?should_format@?$positional_parameter_base@DV?$string_output_adapter@D@__crt_stdio_output@@@__crt_stdio_output@@IEAA_NXZ 0000000180074960 f i libucrtd:output.obj
 0001:000739a0       ?should_format@?$positional_parameter_base@_WV?$stream_output_adapter@_W@__crt_stdio_output@@@__crt_stdio_output@@IEAA_NXZ 00000001800749a0 f i libucrtd:output.obj
 0001:000739e0       ?should_format@?$positional_parameter_base@_WV?$string_output_adapter@_W@__crt_stdio_output@@@__crt_stdio_output@@IEAA_NXZ 00000001800749e0 f i libucrtd:output.obj
 0001:00073a20       ?should_format@?$standard_base@DV?$stream_output_adapter@D@__crt_stdio_output@@@__crt_stdio_output@@IEAA_NXZ 0000000180074a20 f i libucrtd:output.obj
 0001:00073a30       ?should_format@?$standard_base@DV?$string_output_adapter@D@__crt_stdio_output@@@__crt_stdio_output@@IEAA_NXZ 0000000180074a30 f i libucrtd:output.obj
 0001:00073a40       ?should_format@?$standard_base@_WV?$stream_output_adapter@_W@__crt_stdio_output@@@__crt_stdio_output@@IEAA_NXZ 0000000180074a40 f i libucrtd:output.obj
 0001:00073a50       ?should_format@?$standard_base@_WV?$string_output_adapter@_W@__crt_stdio_output@@@__crt_stdio_output@@IEAA_NXZ 0000000180074a50 f i libucrtd:output.obj
 0001:00073a60       ?should_skip_normal_state_processing@?$positional_parameter_base@DV?$stream_output_adapter@D@__crt_stdio_output@@@__crt_stdio_output@@IEAA_NXZ 0000000180074a60 f i libucrtd:output.obj
 0001:00073ab0       ?should_skip_normal_state_processing@?$positional_parameter_base@DV?$string_output_adapter@D@__crt_stdio_output@@@__crt_stdio_output@@IEAA_NXZ 0000000180074ab0 f i libucrtd:output.obj
 0001:00073b00       ?should_skip_normal_state_processing@?$positional_parameter_base@_WV?$stream_output_adapter@_W@__crt_stdio_output@@@__crt_stdio_output@@IEAA_NXZ 0000000180074b00 f i libucrtd:output.obj
 0001:00073b50       ?should_skip_normal_state_processing@?$positional_parameter_base@_WV?$string_output_adapter@_W@__crt_stdio_output@@@__crt_stdio_output@@IEAA_NXZ 0000000180074b50 f i libucrtd:output.obj
 0001:00073ba0       ?should_skip_normal_state_processing@?$standard_base@DV?$stream_output_adapter@D@__crt_stdio_output@@@__crt_stdio_output@@IEAA_NXZ 0000000180074ba0 f i libucrtd:output.obj
 0001:00073bb0       ?should_skip_normal_state_processing@?$standard_base@DV?$string_output_adapter@D@__crt_stdio_output@@@__crt_stdio_output@@IEAA_NXZ 0000000180074bb0 f i libucrtd:output.obj
 0001:00073bc0       ?should_skip_normal_state_processing@?$standard_base@_WV?$stream_output_adapter@_W@__crt_stdio_output@@@__crt_stdio_output@@IEAA_NXZ 0000000180074bc0 f i libucrtd:output.obj
 0001:00073bd0       ?should_skip_normal_state_processing@?$standard_base@_WV?$string_output_adapter@_W@__crt_stdio_output@@@__crt_stdio_output@@IEAA_NXZ 0000000180074bd0 f i libucrtd:output.obj
 0001:00073be0       ?should_skip_type_state_output@?$positional_parameter_base@DV?$stream_output_adapter@D@__crt_stdio_output@@@__crt_stdio_output@@IEBA_NXZ 0000000180074be0 f i libucrtd:output.obj
 0001:00073c20       ?should_skip_type_state_output@?$positional_parameter_base@DV?$string_output_adapter@D@__crt_stdio_output@@@__crt_stdio_output@@IEBA_NXZ 0000000180074c20 f i libucrtd:output.obj
 0001:00073c60       ?should_skip_type_state_output@?$positional_parameter_base@_WV?$stream_output_adapter@_W@__crt_stdio_output@@@__crt_stdio_output@@IEBA_NXZ 0000000180074c60 f i libucrtd:output.obj
 0001:00073ca0       ?should_skip_type_state_output@?$positional_parameter_base@_WV?$string_output_adapter@_W@__crt_stdio_output@@@__crt_stdio_output@@IEBA_NXZ 0000000180074ca0 f i libucrtd:output.obj
 0001:00073ce0       ?should_skip_type_state_output@?$standard_base@DV?$stream_output_adapter@D@__crt_stdio_output@@@__crt_stdio_output@@IEBA_NXZ 0000000180074ce0 f i libucrtd:output.obj
 0001:00073cf0       ?should_skip_type_state_output@?$standard_base@DV?$string_output_adapter@D@__crt_stdio_output@@@__crt_stdio_output@@IEBA_NXZ 0000000180074cf0 f i libucrtd:output.obj
 0001:00073d00       ?should_skip_type_state_output@?$standard_base@_WV?$stream_output_adapter@_W@__crt_stdio_output@@@__crt_stdio_output@@IEBA_NXZ 0000000180074d00 f i libucrtd:output.obj
 0001:00073d10       ?should_skip_type_state_output@?$standard_base@_WV?$string_output_adapter@_W@__crt_stdio_output@@@__crt_stdio_output@@IEBA_NXZ 0000000180074d10 f i libucrtd:output.obj
 0001:00073d20       ?state_case_dot@?$output_processor@DV?$stream_output_adapter@D@__crt_stdio_output@@V?$format_validation_base@DV?$stream_output_adapter@D@__crt_stdio_output@@@2@@__crt_stdio_output@@AEAA_NXZ 0000000180074d20 f i libucrtd:output.obj
 0001:00073d40       ?state_case_dot@?$output_processor@DV?$stream_output_adapter@D@__crt_stdio_output@@V?$positional_parameter_base@DV?$stream_output_adapter@D@__crt_stdio_output@@@2@@__crt_stdio_output@@AEAA_NXZ 0000000180074d40 f i libucrtd:output.obj
 0001:00073d60       ?state_case_dot@?$output_processor@DV?$stream_output_adapter@D@__crt_stdio_output@@V?$standard_base@DV?$stream_output_adapter@D@__crt_stdio_output@@@2@@__crt_stdio_output@@AEAA_NXZ 0000000180074d60 f i libucrtd:output.obj
 0001:00073d80       ?state_case_dot@?$output_processor@DV?$string_output_adapter@D@__crt_stdio_output@@V?$format_validation_base@DV?$string_output_adapter@D@__crt_stdio_output@@@2@@__crt_stdio_output@@AEAA_NXZ 0000000180074d80 f i libucrtd:output.obj
 0001:00073da0       ?state_case_dot@?$output_processor@DV?$string_output_adapter@D@__crt_stdio_output@@V?$positional_parameter_base@DV?$string_output_adapter@D@__crt_stdio_output@@@2@@__crt_stdio_output@@AEAA_NXZ 0000000180074da0 f i libucrtd:output.obj
 0001:00073dc0       ?state_case_dot@?$output_processor@DV?$string_output_adapter@D@__crt_stdio_output@@V?$standard_base@DV?$string_output_adapter@D@__crt_stdio_output@@@2@@__crt_stdio_output@@AEAA_NXZ 0000000180074dc0 f i libucrtd:output.obj
 0001:00073de0       ?state_case_dot@?$output_processor@_WV?$stream_output_adapter@_W@__crt_stdio_output@@V?$format_validation_base@_WV?$stream_output_adapter@_W@__crt_stdio_output@@@2@@__crt_stdio_output@@AEAA_NXZ 0000000180074de0 f i libucrtd:output.obj
 0001:00073e00       ?state_case_dot@?$output_processor@_WV?$stream_output_adapter@_W@__crt_stdio_output@@V?$positional_parameter_base@_WV?$stream_output_adapter@_W@__crt_stdio_output@@@2@@__crt_stdio_output@@AEAA_NXZ 0000000180074e00 f i libucrtd:output.obj
 0001:00073e20       ?state_case_dot@?$output_processor@_WV?$stream_output_adapter@_W@__crt_stdio_output@@V?$standard_base@_WV?$stream_output_adapter@_W@__crt_stdio_output@@@2@@__crt_stdio_output@@AEAA_NXZ 0000000180074e20 f i libucrtd:output.obj
 0001:00073e40       ?state_case_dot@?$output_processor@_WV?$string_output_adapter@_W@__crt_stdio_output@@V?$format_validation_base@_WV?$string_output_adapter@_W@__crt_stdio_output@@@2@@__crt_stdio_output@@AEAA_NXZ 0000000180074e40 f i libucrtd:output.obj
 0001:00073e60       ?state_case_dot@?$output_processor@_WV?$string_output_adapter@_W@__crt_stdio_output@@V?$positional_parameter_base@_WV?$string_output_adapter@_W@__crt_stdio_output@@@2@@__crt_stdio_output@@AEAA_NXZ 0000000180074e60 f i libucrtd:output.obj
 0001:00073e80       ?state_case_dot@?$output_processor@_WV?$string_output_adapter@_W@__crt_stdio_output@@V?$standard_base@_WV?$string_output_adapter@_W@__crt_stdio_output@@@2@@__crt_stdio_output@@AEAA_NXZ 0000000180074e80 f i libucrtd:output.obj
 0001:00073ea0       ?state_case_flag@?$output_processor@DV?$stream_output_adapter@D@__crt_stdio_output@@V?$format_validation_base@DV?$stream_output_adapter@D@__crt_stdio_output@@@2@@__crt_stdio_output@@AEAA_NXZ 0000000180074ea0 f i libucrtd:output.obj
 0001:00073f40       ?state_case_flag@?$output_processor@DV?$stream_output_adapter@D@__crt_stdio_output@@V?$positional_parameter_base@DV?$stream_output_adapter@D@__crt_stdio_output@@@2@@__crt_stdio_output@@AEAA_NXZ 0000000180074f40 f i libucrtd:output.obj
 0001:00073fe0       ?state_case_flag@?$output_processor@DV?$stream_output_adapter@D@__crt_stdio_output@@V?$standard_base@DV?$stream_output_adapter@D@__crt_stdio_output@@@2@@__crt_stdio_output@@AEAA_NXZ 0000000180074fe0 f i libucrtd:output.obj
 0001:00074080       ?state_case_flag@?$output_processor@DV?$string_output_adapter@D@__crt_stdio_output@@V?$format_validation_base@DV?$string_output_adapter@D@__crt_stdio_output@@@2@@__crt_stdio_output@@AEAA_NXZ 0000000180075080 f i libucrtd:output.obj
 0001:00074120       ?state_case_flag@?$output_processor@DV?$string_output_adapter@D@__crt_stdio_output@@V?$positional_parameter_base@DV?$string_output_adapter@D@__crt_stdio_output@@@2@@__crt_stdio_output@@AEAA_NXZ 0000000180075120 f i libucrtd:output.obj
 0001:000741c0       ?state_case_flag@?$output_processor@DV?$string_output_adapter@D@__crt_stdio_output@@V?$standard_base@DV?$string_output_adapter@D@__crt_stdio_output@@@2@@__crt_stdio_output@@AEAA_NXZ 00000001800751c0 f i libucrtd:output.obj
 0001:00074260       ?state_case_flag@?$output_processor@_WV?$stream_output_adapter@_W@__crt_stdio_output@@V?$format_validation_base@_WV?$stream_output_adapter@_W@__crt_stdio_output@@@2@@__crt_stdio_output@@AEAA_NXZ 0000000180075260 f i libucrtd:output.obj
 0001:00074300       ?state_case_flag@?$output_processor@_WV?$stream_output_adapter@_W@__crt_stdio_output@@V?$positional_parameter_base@_WV?$stream_output_adapter@_W@__crt_stdio_output@@@2@@__crt_stdio_output@@AEAA_NXZ 0000000180075300 f i libucrtd:output.obj
 0001:000743a0       ?state_case_flag@?$output_processor@_WV?$stream_output_adapter@_W@__crt_stdio_output@@V?$standard_base@_WV?$stream_output_adapter@_W@__crt_stdio_output@@@2@@__crt_stdio_output@@AEAA_NXZ 00000001800753a0 f i libucrtd:output.obj
 0001:00074440       ?state_case_flag@?$output_processor@_WV?$string_output_adapter@_W@__crt_stdio_output@@V?$format_validation_base@_WV?$string_output_adapter@_W@__crt_stdio_output@@@2@@__crt_stdio_output@@AEAA_NXZ 0000000180075440 f i libucrtd:output.obj
 0001:000744e0       ?state_case_flag@?$output_processor@_WV?$string_output_adapter@_W@__crt_stdio_output@@V?$positional_parameter_base@_WV?$string_output_adapter@_W@__crt_stdio_output@@@2@@__crt_stdio_output@@AEAA_NXZ 00000001800754e0 f i libucrtd:output.obj
 0001:00074580       ?state_case_flag@?$output_processor@_WV?$string_output_adapter@_W@__crt_stdio_output@@V?$standard_base@_WV?$string_output_adapter@_W@__crt_stdio_output@@@2@@__crt_stdio_output@@AEAA_NXZ 0000000180075580 f i libucrtd:output.obj
 0001:00074620       ?state_case_normal@?$output_processor@DV?$stream_output_adapter@D@__crt_stdio_output@@V?$format_validation_base@DV?$stream_output_adapter@D@__crt_stdio_output@@@2@@__crt_stdio_output@@AEAA_NXZ 0000000180075620 f i libucrtd:output.obj
 0001:00074720       ?state_case_normal@?$output_processor@DV?$stream_output_adapter@D@__crt_stdio_output@@V?$positional_parameter_base@DV?$stream_output_adapter@D@__crt_stdio_output@@@2@@__crt_stdio_output@@AEAA_NXZ 0000000180075720 f i libucrtd:output.obj
 0001:00074820       ?state_case_normal@?$output_processor@DV?$stream_output_adapter@D@__crt_stdio_output@@V?$standard_base@DV?$stream_output_adapter@D@__crt_stdio_output@@@2@@__crt_stdio_output@@AEAA_NXZ 0000000180075820 f i libucrtd:output.obj
 0001:00074920       ?state_case_normal@?$output_processor@DV?$string_output_adapter@D@__crt_stdio_output@@V?$format_validation_base@DV?$string_output_adapter@D@__crt_stdio_output@@@2@@__crt_stdio_output@@AEAA_NXZ 0000000180075920 f i libucrtd:output.obj
 0001:00074a20       ?state_case_normal@?$output_processor@DV?$string_output_adapter@D@__crt_stdio_output@@V?$positional_parameter_base@DV?$string_output_adapter@D@__crt_stdio_output@@@2@@__crt_stdio_output@@AEAA_NXZ 0000000180075a20 f i libucrtd:output.obj
 0001:00074b20       ?state_case_normal@?$output_processor@DV?$string_output_adapter@D@__crt_stdio_output@@V?$standard_base@DV?$string_output_adapter@D@__crt_stdio_output@@@2@@__crt_stdio_output@@AEAA_NXZ 0000000180075b20 f i libucrtd:output.obj
 0001:00074c20       ?state_case_normal@?$output_processor@_WV?$stream_output_adapter@_W@__crt_stdio_output@@V?$format_validation_base@_WV?$stream_output_adapter@_W@__crt_stdio_output@@@2@@__crt_stdio_output@@AEAA_NXZ 0000000180075c20 f i libucrtd:output.obj
 0001:00074d20       ?state_case_normal@?$output_processor@_WV?$stream_output_adapter@_W@__crt_stdio_output@@V?$positional_parameter_base@_WV?$stream_output_adapter@_W@__crt_stdio_output@@@2@@__crt_stdio_output@@AEAA_NXZ 0000000180075d20 f i libucrtd:output.obj
 0001:00074e20       ?state_case_normal@?$output_processor@_WV?$stream_output_adapter@_W@__crt_stdio_output@@V?$standard_base@_WV?$stream_output_adapter@_W@__crt_stdio_output@@@2@@__crt_stdio_output@@AEAA_NXZ 0000000180075e20 f i libucrtd:output.obj
 0001:00074f20       ?state_case_normal@?$output_processor@_WV?$string_output_adapter@_W@__crt_stdio_output@@V?$format_validation_base@_WV?$string_output_adapter@_W@__crt_stdio_output@@@2@@__crt_stdio_output@@AEAA_NXZ 0000000180075f20 f i libucrtd:output.obj
 0001:00075020       ?state_case_normal@?$output_processor@_WV?$string_output_adapter@_W@__crt_stdio_output@@V?$positional_parameter_base@_WV?$string_output_adapter@_W@__crt_stdio_output@@@2@@__crt_stdio_output@@AEAA_NXZ 0000000180076020 f i libucrtd:output.obj
 0001:00075120       ?state_case_normal@?$output_processor@_WV?$string_output_adapter@_W@__crt_stdio_output@@V?$standard_base@_WV?$string_output_adapter@_W@__crt_stdio_output@@@2@@__crt_stdio_output@@AEAA_NXZ 0000000180076120 f i libucrtd:output.obj
 0001:00075220       ?state_case_normal_common@?$output_processor@DV?$stream_output_adapter@D@__crt_stdio_output@@V?$format_validation_base@DV?$stream_output_adapter@D@__crt_stdio_output@@@2@@__crt_stdio_output@@AEAA_NXZ 0000000180076220 f i libucrtd:output.obj
 0001:00075280       ?state_case_normal_common@?$output_processor@DV?$stream_output_adapter@D@__crt_stdio_output@@V?$positional_parameter_base@DV?$stream_output_adapter@D@__crt_stdio_output@@@2@@__crt_stdio_output@@AEAA_NXZ 0000000180076280 f i libucrtd:output.obj
 0001:000752e0       ?state_case_normal_common@?$output_processor@DV?$stream_output_adapter@D@__crt_stdio_output@@V?$standard_base@DV?$stream_output_adapter@D@__crt_stdio_output@@@2@@__crt_stdio_output@@AEAA_NXZ 00000001800762e0 f i libucrtd:output.obj
 0001:00075340       ?state_case_normal_common@?$output_processor@DV?$string_output_adapter@D@__crt_stdio_output@@V?$format_validation_base@DV?$string_output_adapter@D@__crt_stdio_output@@@2@@__crt_stdio_output@@AEAA_NXZ 0000000180076340 f i libucrtd:output.obj
 0001:000753a0       ?state_case_normal_common@?$output_processor@DV?$string_output_adapter@D@__crt_stdio_output@@V?$positional_parameter_base@DV?$string_output_adapter@D@__crt_stdio_output@@@2@@__crt_stdio_output@@AEAA_NXZ 00000001800763a0 f i libucrtd:output.obj
 0001:00075400       ?state_case_normal_common@?$output_processor@DV?$string_output_adapter@D@__crt_stdio_output@@V?$standard_base@DV?$string_output_adapter@D@__crt_stdio_output@@@2@@__crt_stdio_output@@AEAA_NXZ 0000000180076400 f i libucrtd:output.obj
 0001:00075460       ?state_case_normal_common@?$output_processor@_WV?$stream_output_adapter@_W@__crt_stdio_output@@V?$format_validation_base@_WV?$stream_output_adapter@_W@__crt_stdio_output@@@2@@__crt_stdio_output@@AEAA_NXZ 0000000180076460 f i libucrtd:output.obj
 0001:000754c0       ?state_case_normal_common@?$output_processor@_WV?$stream_output_adapter@_W@__crt_stdio_output@@V?$positional_parameter_base@_WV?$stream_output_adapter@_W@__crt_stdio_output@@@2@@__crt_stdio_output@@AEAA_NXZ 00000001800764c0 f i libucrtd:output.obj
 0001:00075520       ?state_case_normal_common@?$output_processor@_WV?$stream_output_adapter@_W@__crt_stdio_output@@V?$standard_base@_WV?$stream_output_adapter@_W@__crt_stdio_output@@@2@@__crt_stdio_output@@AEAA_NXZ 0000000180076520 f i libucrtd:output.obj
 0001:00075580       ?state_case_normal_common@?$output_processor@_WV?$string_output_adapter@_W@__crt_stdio_output@@V?$format_validation_base@_WV?$string_output_adapter@_W@__crt_stdio_output@@@2@@__crt_stdio_output@@AEAA_NXZ 0000000180076580 f i libucrtd:output.obj
 0001:000755e0       ?state_case_normal_common@?$output_processor@_WV?$string_output_adapter@_W@__crt_stdio_output@@V?$positional_parameter_base@_WV?$string_output_adapter@_W@__crt_stdio_output@@@2@@__crt_stdio_output@@AEAA_NXZ 00000001800765e0 f i libucrtd:output.obj
 0001:00075640       ?state_case_normal_common@?$output_processor@_WV?$string_output_adapter@_W@__crt_stdio_output@@V?$standard_base@_WV?$string_output_adapter@_W@__crt_stdio_output@@@2@@__crt_stdio_output@@AEAA_NXZ 0000000180076640 f i libucrtd:output.obj
 0001:000756a0       ?state_case_normal_tchar@?$output_processor@DV?$stream_output_adapter@D@__crt_stdio_output@@V?$format_validation_base@DV?$stream_output_adapter@D@__crt_stdio_output@@@2@@__crt_stdio_output@@AEAA_ND@Z 00000001800766a0 f i libucrtd:output.obj
 0001:00075830       ?state_case_normal_tchar@?$output_processor@DV?$stream_output_adapter@D@__crt_stdio_output@@V?$positional_parameter_base@DV?$stream_output_adapter@D@__crt_stdio_output@@@2@@__crt_stdio_output@@AEAA_ND@Z 0000000180076830 f i libucrtd:output.obj
 0001:000759c0       ?state_case_normal_tchar@?$output_processor@DV?$stream_output_adapter@D@__crt_stdio_output@@V?$standard_base@DV?$stream_output_adapter@D@__crt_stdio_output@@@2@@__crt_stdio_output@@AEAA_ND@Z 00000001800769c0 f i libucrtd:output.obj
 0001:00075b50       ?state_case_normal_tchar@?$output_processor@DV?$string_output_adapter@D@__crt_stdio_output@@V?$format_validation_base@DV?$string_output_adapter@D@__crt_stdio_output@@@2@@__crt_stdio_output@@AEAA_ND@Z 0000000180076b50 f i libucrtd:output.obj
 0001:00075ce0       ?state_case_normal_tchar@?$output_processor@DV?$string_output_adapter@D@__crt_stdio_output@@V?$positional_parameter_base@DV?$string_output_adapter@D@__crt_stdio_output@@@2@@__crt_stdio_output@@AEAA_ND@Z 0000000180076ce0 f i libucrtd:output.obj
 0001:00075e70       ?state_case_normal_tchar@?$output_processor@DV?$string_output_adapter@D@__crt_stdio_output@@V?$standard_base@DV?$string_output_adapter@D@__crt_stdio_output@@@2@@__crt_stdio_output@@AEAA_ND@Z 0000000180076e70 f i libucrtd:output.obj
 0001:00076000       ?state_case_normal_tchar@?$output_processor@_WV?$stream_output_adapter@_W@__crt_stdio_output@@V?$format_validation_base@_WV?$stream_output_adapter@_W@__crt_stdio_output@@@2@@__crt_stdio_output@@AEAA_N_W@Z 0000000180077000 f i libucrtd:output.obj
 0001:00076020       ?state_case_normal_tchar@?$output_processor@_WV?$stream_output_adapter@_W@__crt_stdio_output@@V?$positional_parameter_base@_WV?$stream_output_adapter@_W@__crt_stdio_output@@@2@@__crt_stdio_output@@AEAA_N_W@Z 0000000180077020 f i libucrtd:output.obj
 0001:00076040       ?state_case_normal_tchar@?$output_processor@_WV?$stream_output_adapter@_W@__crt_stdio_output@@V?$standard_base@_WV?$stream_output_adapter@_W@__crt_stdio_output@@@2@@__crt_stdio_output@@AEAA_N_W@Z 0000000180077040 f i libucrtd:output.obj
 0001:00076060       ?state_case_normal_tchar@?$output_processor@_WV?$string_output_adapter@_W@__crt_stdio_output@@V?$format_validation_base@_WV?$string_output_adapter@_W@__crt_stdio_output@@@2@@__crt_stdio_output@@AEAA_N_W@Z 0000000180077060 f i libucrtd:output.obj
 0001:00076080       ?state_case_normal_tchar@?$output_processor@_WV?$string_output_adapter@_W@__crt_stdio_output@@V?$positional_parameter_base@_WV?$string_output_adapter@_W@__crt_stdio_output@@@2@@__crt_stdio_output@@AEAA_N_W@Z 0000000180077080 f i libucrtd:output.obj
 0001:000760a0       ?state_case_normal_tchar@?$output_processor@_WV?$string_output_adapter@_W@__crt_stdio_output@@V?$standard_base@_WV?$string_output_adapter@_W@__crt_stdio_output@@@2@@__crt_stdio_output@@AEAA_N_W@Z 00000001800770a0 f i libucrtd:output.obj
 0001:000760c0       ?state_case_percent@?$output_processor@DV?$stream_output_adapter@D@__crt_stdio_output@@V?$format_validation_base@DV?$stream_output_adapter@D@__crt_stdio_output@@@2@@__crt_stdio_output@@AEAA_NXZ 00000001800770c0 f i libucrtd:output.obj
 0001:00076110       ?state_case_percent@?$output_processor@DV?$stream_output_adapter@D@__crt_stdio_output@@V?$positional_parameter_base@DV?$stream_output_adapter@D@__crt_stdio_output@@@2@@__crt_stdio_output@@AEAA_NXZ 0000000180077110 f i libucrtd:output.obj
 0001:00076160       ?state_case_percent@?$output_processor@DV?$stream_output_adapter@D@__crt_stdio_output@@V?$standard_base@DV?$stream_output_adapter@D@__crt_stdio_output@@@2@@__crt_stdio_output@@AEAA_NXZ 0000000180077160 f i libucrtd:output.obj
 0001:000761b0       ?state_case_percent@?$output_processor@DV?$string_output_adapter@D@__crt_stdio_output@@V?$format_validation_base@DV?$string_output_adapter@D@__crt_stdio_output@@@2@@__crt_stdio_output@@AEAA_NXZ 00000001800771b0 f i libucrtd:output.obj
 0001:00076200       ?state_case_percent@?$output_processor@DV?$string_output_adapter@D@__crt_stdio_output@@V?$positional_parameter_base@DV?$string_output_adapter@D@__crt_stdio_output@@@2@@__crt_stdio_output@@AEAA_NXZ 0000000180077200 f i libucrtd:output.obj
 0001:00076250       ?state_case_percent@?$output_processor@DV?$string_output_adapter@D@__crt_stdio_output@@V?$standard_base@DV?$string_output_adapter@D@__crt_stdio_output@@@2@@__crt_stdio_output@@AEAA_NXZ 0000000180077250 f i libucrtd:output.obj
 0001:000762a0       ?state_case_percent@?$output_processor@_WV?$stream_output_adapter@_W@__crt_stdio_output@@V?$format_validation_base@_WV?$stream_output_adapter@_W@__crt_stdio_output@@@2@@__crt_stdio_output@@AEAA_NXZ 00000001800772a0 f i libucrtd:output.obj
 0001:000762f0       ?state_case_percent@?$output_processor@_WV?$stream_output_adapter@_W@__crt_stdio_output@@V?$positional_parameter_base@_WV?$stream_output_adapter@_W@__crt_stdio_output@@@2@@__crt_stdio_output@@AEAA_NXZ 00000001800772f0 f i libucrtd:output.obj
 0001:00076340       ?state_case_percent@?$output_processor@_WV?$stream_output_adapter@_W@__crt_stdio_output@@V?$standard_base@_WV?$stream_output_adapter@_W@__crt_stdio_output@@@2@@__crt_stdio_output@@AEAA_NXZ 0000000180077340 f i libucrtd:output.obj
 0001:00076390       ?state_case_percent@?$output_processor@_WV?$string_output_adapter@_W@__crt_stdio_output@@V?$format_validation_base@_WV?$string_output_adapter@_W@__crt_stdio_output@@@2@@__crt_stdio_output@@AEAA_NXZ 0000000180077390 f i libucrtd:output.obj
 0001:000763e0       ?state_case_percent@?$output_processor@_WV?$string_output_adapter@_W@__crt_stdio_output@@V?$positional_parameter_base@_WV?$string_output_adapter@_W@__crt_stdio_output@@@2@@__crt_stdio_output@@AEAA_NXZ 00000001800773e0 f i libucrtd:output.obj
 0001:00076430       ?state_case_percent@?$output_processor@_WV?$string_output_adapter@_W@__crt_stdio_output@@V?$standard_base@_WV?$string_output_adapter@_W@__crt_stdio_output@@@2@@__crt_stdio_output@@AEAA_NXZ 0000000180077430 f i libucrtd:output.obj
 0001:00076480       ?state_case_precision@?$output_processor@DV?$stream_output_adapter@D@__crt_stdio_output@@V?$format_validation_base@DV?$stream_output_adapter@D@__crt_stdio_output@@@2@@__crt_stdio_output@@AEAA_NXZ 0000000180077480 f i libucrtd:output.obj
 0001:00076500       ?state_case_precision@?$output_processor@DV?$stream_output_adapter@D@__crt_stdio_output@@V?$positional_parameter_base@DV?$stream_output_adapter@D@__crt_stdio_output@@@2@@__crt_stdio_output@@AEAA_NXZ 0000000180077500 f i libucrtd:output.obj
 0001:00076580       ?state_case_precision@?$output_processor@DV?$stream_output_adapter@D@__crt_stdio_output@@V?$standard_base@DV?$stream_output_adapter@D@__crt_stdio_output@@@2@@__crt_stdio_output@@AEAA_NXZ 0000000180077580 f i libucrtd:output.obj
 0001:00076600       ?state_case_precision@?$output_processor@DV?$string_output_adapter@D@__crt_stdio_output@@V?$format_validation_base@DV?$string_output_adapter@D@__crt_stdio_output@@@2@@__crt_stdio_output@@AEAA_NXZ 0000000180077600 f i libucrtd:output.obj
 0001:00076680       ?state_case_precision@?$output_processor@DV?$string_output_adapter@D@__crt_stdio_output@@V?$positional_parameter_base@DV?$string_output_adapter@D@__crt_stdio_output@@@2@@__crt_stdio_output@@AEAA_NXZ 0000000180077680 f i libucrtd:output.obj
 0001:00076700       ?state_case_precision@?$output_processor@DV?$string_output_adapter@D@__crt_stdio_output@@V?$standard_base@DV?$string_output_adapter@D@__crt_stdio_output@@@2@@__crt_stdio_output@@AEAA_NXZ 0000000180077700 f i libucrtd:output.obj
 0001:00076780       ?state_case_precision@?$output_processor@_WV?$stream_output_adapter@_W@__crt_stdio_output@@V?$format_validation_base@_WV?$stream_output_adapter@_W@__crt_stdio_output@@@2@@__crt_stdio_output@@AEAA_NXZ 0000000180077780 f i libucrtd:output.obj
 0001:00076800       ?state_case_precision@?$output_processor@_WV?$stream_output_adapter@_W@__crt_stdio_output@@V?$positional_parameter_base@_WV?$stream_output_adapter@_W@__crt_stdio_output@@@2@@__crt_stdio_output@@AEAA_NXZ 0000000180077800 f i libucrtd:output.obj
 0001:00076880       ?state_case_precision@?$output_processor@_WV?$stream_output_adapter@_W@__crt_stdio_output@@V?$standard_base@_WV?$stream_output_adapter@_W@__crt_stdio_output@@@2@@__crt_stdio_output@@AEAA_NXZ 0000000180077880 f i libucrtd:output.obj
 0001:00076900       ?state_case_precision@?$output_processor@_WV?$string_output_adapter@_W@__crt_stdio_output@@V?$format_validation_base@_WV?$string_output_adapter@_W@__crt_stdio_output@@@2@@__crt_stdio_output@@AEAA_NXZ 0000000180077900 f i libucrtd:output.obj
 0001:00076980       ?state_case_precision@?$output_processor@_WV?$string_output_adapter@_W@__crt_stdio_output@@V?$positional_parameter_base@_WV?$string_output_adapter@_W@__crt_stdio_output@@@2@@__crt_stdio_output@@AEAA_NXZ 0000000180077980 f i libucrtd:output.obj
 0001:00076a00       ?state_case_precision@?$output_processor@_WV?$string_output_adapter@_W@__crt_stdio_output@@V?$standard_base@_WV?$string_output_adapter@_W@__crt_stdio_output@@@2@@__crt_stdio_output@@AEAA_NXZ 0000000180077a00 f i libucrtd:output.obj
 0001:00076a80       ?state_case_size@?$output_processor@DV?$stream_output_adapter@D@__crt_stdio_output@@V?$format_validation_base@DV?$stream_output_adapter@D@__crt_stdio_output@@@2@@__crt_stdio_output@@AEAA_NXZ 0000000180077a80 f i libucrtd:output.obj
 0001:00076f40       ?state_case_size@?$output_processor@DV?$stream_output_adapter@D@__crt_stdio_output@@V?$positional_parameter_base@DV?$stream_output_adapter@D@__crt_stdio_output@@@2@@__crt_stdio_output@@AEAA_NXZ 0000000180077f40 f i libucrtd:output.obj
 0001:00077400       ?state_case_size@?$output_processor@DV?$stream_output_adapter@D@__crt_stdio_output@@V?$standard_base@DV?$stream_output_adapter@D@__crt_stdio_output@@@2@@__crt_stdio_output@@AEAA_NXZ 0000000180078400 f i libucrtd:output.obj
 0001:000778c0       ?state_case_size@?$output_processor@DV?$string_output_adapter@D@__crt_stdio_output@@V?$format_validation_base@DV?$string_output_adapter@D@__crt_stdio_output@@@2@@__crt_stdio_output@@AEAA_NXZ 00000001800788c0 f i libucrtd:output.obj
 0001:00077d80       ?state_case_size@?$output_processor@DV?$string_output_adapter@D@__crt_stdio_output@@V?$positional_parameter_base@DV?$string_output_adapter@D@__crt_stdio_output@@@2@@__crt_stdio_output@@AEAA_NXZ 0000000180078d80 f i libucrtd:output.obj
 0001:00078240       ?state_case_size@?$output_processor@DV?$string_output_adapter@D@__crt_stdio_output@@V?$standard_base@DV?$string_output_adapter@D@__crt_stdio_output@@@2@@__crt_stdio_output@@AEAA_NXZ 0000000180079240 f i libucrtd:output.obj
 0001:00078700       ?state_case_size@?$output_processor@_WV?$stream_output_adapter@_W@__crt_stdio_output@@V?$format_validation_base@_WV?$stream_output_adapter@_W@__crt_stdio_output@@@2@@__crt_stdio_output@@AEAA_NXZ 0000000180079700 f i libucrtd:output.obj
 0001:00078bc0       ?state_case_size@?$output_processor@_WV?$stream_output_adapter@_W@__crt_stdio_output@@V?$positional_parameter_base@_WV?$stream_output_adapter@_W@__crt_stdio_output@@@2@@__crt_stdio_output@@AEAA_NXZ 0000000180079bc0 f i libucrtd:output.obj
 0001:00079080       ?state_case_size@?$output_processor@_WV?$stream_output_adapter@_W@__crt_stdio_output@@V?$standard_base@_WV?$stream_output_adapter@_W@__crt_stdio_output@@@2@@__crt_stdio_output@@AEAA_NXZ 000000018007a080 f i libucrtd:output.obj
 0001:00079540       ?state_case_size@?$output_processor@_WV?$string_output_adapter@_W@__crt_stdio_output@@V?$format_validation_base@_WV?$string_output_adapter@_W@__crt_stdio_output@@@2@@__crt_stdio_output@@AEAA_NXZ 000000018007a540 f i libucrtd:output.obj
 0001:00079a00       ?state_case_size@?$output_processor@_WV?$string_output_adapter@_W@__crt_stdio_output@@V?$positional_parameter_base@_WV?$string_output_adapter@_W@__crt_stdio_output@@@2@@__crt_stdio_output@@AEAA_NXZ 000000018007aa00 f i libucrtd:output.obj
 0001:00079ec0       ?state_case_size@?$output_processor@_WV?$string_output_adapter@_W@__crt_stdio_output@@V?$standard_base@_WV?$string_output_adapter@_W@__crt_stdio_output@@@2@@__crt_stdio_output@@AEAA_NXZ 000000018007aec0 f i libucrtd:output.obj
 0001:0007a380       ?state_case_type@?$output_processor@DV?$stream_output_adapter@D@__crt_stdio_output@@V?$format_validation_base@DV?$stream_output_adapter@D@__crt_stdio_output@@@2@@__crt_stdio_output@@AEAA_NXZ 000000018007b380 f i libucrtd:output.obj
 0001:0007a840       ?state_case_type@?$output_processor@DV?$stream_output_adapter@D@__crt_stdio_output@@V?$positional_parameter_base@DV?$stream_output_adapter@D@__crt_stdio_output@@@2@@__crt_stdio_output@@AEAA_NXZ 000000018007b840 f i libucrtd:output.obj
 0001:0007ad00       ?state_case_type@?$output_processor@DV?$stream_output_adapter@D@__crt_stdio_output@@V?$standard_base@DV?$stream_output_adapter@D@__crt_stdio_output@@@2@@__crt_stdio_output@@AEAA_NXZ 000000018007bd00 f i libucrtd:output.obj
 0001:0007b1c0       ?state_case_type@?$output_processor@DV?$string_output_adapter@D@__crt_stdio_output@@V?$format_validation_base@DV?$string_output_adapter@D@__crt_stdio_output@@@2@@__crt_stdio_output@@AEAA_NXZ 000000018007c1c0 f i libucrtd:output.obj
 0001:0007b680       ?state_case_type@?$output_processor@DV?$string_output_adapter@D@__crt_stdio_output@@V?$positional_parameter_base@DV?$string_output_adapter@D@__crt_stdio_output@@@2@@__crt_stdio_output@@AEAA_NXZ 000000018007c680 f i libucrtd:output.obj
 0001:0007bb40       ?state_case_type@?$output_processor@DV?$string_output_adapter@D@__crt_stdio_output@@V?$standard_base@DV?$string_output_adapter@D@__crt_stdio_output@@@2@@__crt_stdio_output@@AEAA_NXZ 000000018007cb40 f i libucrtd:output.obj
 0001:0007c000       ?state_case_type@?$output_processor@_WV?$stream_output_adapter@_W@__crt_stdio_output@@V?$format_validation_base@_WV?$stream_output_adapter@_W@__crt_stdio_output@@@2@@__crt_stdio_output@@AEAA_NXZ 000000018007d000 f i libucrtd:output.obj
 0001:0007c590       ?state_case_type@?$output_processor@_WV?$stream_output_adapter@_W@__crt_stdio_output@@V?$positional_parameter_base@_WV?$stream_output_adapter@_W@__crt_stdio_output@@@2@@__crt_stdio_output@@AEAA_NXZ 000000018007d590 f i libucrtd:output.obj
 0001:0007cb20       ?state_case_type@?$output_processor@_WV?$stream_output_adapter@_W@__crt_stdio_output@@V?$standard_base@_WV?$stream_output_adapter@_W@__crt_stdio_output@@@2@@__crt_stdio_output@@AEAA_NXZ 000000018007db20 f i libucrtd:output.obj
 0001:0007d0b0       ?state_case_type@?$output_processor@_WV?$string_output_adapter@_W@__crt_stdio_output@@V?$format_validation_base@_WV?$string_output_adapter@_W@__crt_stdio_output@@@2@@__crt_stdio_output@@AEAA_NXZ 000000018007e0b0 f i libucrtd:output.obj
 0001:0007d640       ?state_case_type@?$output_processor@_WV?$string_output_adapter@_W@__crt_stdio_output@@V?$positional_parameter_base@_WV?$string_output_adapter@_W@__crt_stdio_output@@@2@@__crt_stdio_output@@AEAA_NXZ 000000018007e640 f i libucrtd:output.obj
 0001:0007dbd0       ?state_case_type@?$output_processor@_WV?$string_output_adapter@_W@__crt_stdio_output@@V?$standard_base@_WV?$string_output_adapter@_W@__crt_stdio_output@@@2@@__crt_stdio_output@@AEAA_NXZ 000000018007ebd0 f i libucrtd:output.obj
 0001:0007e160       ?state_case_width@?$output_processor@DV?$stream_output_adapter@D@__crt_stdio_output@@V?$format_validation_base@DV?$stream_output_adapter@D@__crt_stdio_output@@@2@@__crt_stdio_output@@AEAA_NXZ 000000018007f160 f i libucrtd:output.obj
 0001:0007e1f0       ?state_case_width@?$output_processor@DV?$stream_output_adapter@D@__crt_stdio_output@@V?$positional_parameter_base@DV?$stream_output_adapter@D@__crt_stdio_output@@@2@@__crt_stdio_output@@AEAA_NXZ 000000018007f1f0 f i libucrtd:output.obj
 0001:0007e280       ?state_case_width@?$output_processor@DV?$stream_output_adapter@D@__crt_stdio_output@@V?$standard_base@DV?$stream_output_adapter@D@__crt_stdio_output@@@2@@__crt_stdio_output@@AEAA_NXZ 000000018007f280 f i libucrtd:output.obj
 0001:0007e310       ?state_case_width@?$output_processor@DV?$string_output_adapter@D@__crt_stdio_output@@V?$format_validation_base@DV?$string_output_adapter@D@__crt_stdio_output@@@2@@__crt_stdio_output@@AEAA_NXZ 000000018007f310 f i libucrtd:output.obj
 0001:0007e3a0       ?state_case_width@?$output_processor@DV?$string_output_adapter@D@__crt_stdio_output@@V?$positional_parameter_base@DV?$string_output_adapter@D@__crt_stdio_output@@@2@@__crt_stdio_output@@AEAA_NXZ 000000018007f3a0 f i libucrtd:output.obj
 0001:0007e430       ?state_case_width@?$output_processor@DV?$string_output_adapter@D@__crt_stdio_output@@V?$standard_base@DV?$string_output_adapter@D@__crt_stdio_output@@@2@@__crt_stdio_output@@AEAA_NXZ 000000018007f430 f i libucrtd:output.obj
 0001:0007e4c0       ?state_case_width@?$output_processor@_WV?$stream_output_adapter@_W@__crt_stdio_output@@V?$format_validation_base@_WV?$stream_output_adapter@_W@__crt_stdio_output@@@2@@__crt_stdio_output@@AEAA_NXZ 000000018007f4c0 f i libucrtd:output.obj
 0001:0007e550       ?state_case_width@?$output_processor@_WV?$stream_output_adapter@_W@__crt_stdio_output@@V?$positional_parameter_base@_WV?$stream_output_adapter@_W@__crt_stdio_output@@@2@@__crt_stdio_output@@AEAA_NXZ 000000018007f550 f i libucrtd:output.obj
 0001:0007e5e0       ?state_case_width@?$output_processor@_WV?$stream_output_adapter@_W@__crt_stdio_output@@V?$standard_base@_WV?$stream_output_adapter@_W@__crt_stdio_output@@@2@@__crt_stdio_output@@AEAA_NXZ 000000018007f5e0 f i libucrtd:output.obj
 0001:0007e670       ?state_case_width@?$output_processor@_WV?$string_output_adapter@_W@__crt_stdio_output@@V?$format_validation_base@_WV?$string_output_adapter@_W@__crt_stdio_output@@@2@@__crt_stdio_output@@AEAA_NXZ 000000018007f670 f i libucrtd:output.obj
 0001:0007e700       ?state_case_width@?$output_processor@_WV?$string_output_adapter@_W@__crt_stdio_output@@V?$positional_parameter_base@_WV?$string_output_adapter@_W@__crt_stdio_output@@@2@@__crt_stdio_output@@AEAA_NXZ 000000018007f700 f i libucrtd:output.obj
 0001:0007e790       ?state_case_width@?$output_processor@_WV?$string_output_adapter@_W@__crt_stdio_output@@V?$standard_base@_WV?$string_output_adapter@_W@__crt_stdio_output@@@2@@__crt_stdio_output@@AEAA_NXZ 000000018007f790 f i libucrtd:output.obj
 0001:0007e820       ?state_count@?$format_validation_base@DV?$stream_output_adapter@D@__crt_stdio_output@@@__crt_stdio_output@@KAIXZ 000000018007f820 f i libucrtd:output.obj
 0001:0007e830       ?state_count@?$format_validation_base@DV?$string_output_adapter@D@__crt_stdio_output@@@__crt_stdio_output@@KAIXZ 000000018007f830 f i libucrtd:output.obj
 0001:0007e840       ?state_count@?$format_validation_base@_WV?$stream_output_adapter@_W@__crt_stdio_output@@@__crt_stdio_output@@KAIXZ 000000018007f840 f i libucrtd:output.obj
 0001:0007e850       ?state_count@?$format_validation_base@_WV?$string_output_adapter@_W@__crt_stdio_output@@@__crt_stdio_output@@KAIXZ 000000018007f850 f i libucrtd:output.obj
 0001:0007e860       ?state_count@?$standard_base@DV?$stream_output_adapter@D@__crt_stdio_output@@@__crt_stdio_output@@KAIXZ 000000018007f860 f i libucrtd:output.obj
 0001:0007e870       ?state_count@?$standard_base@DV?$string_output_adapter@D@__crt_stdio_output@@@__crt_stdio_output@@KAIXZ 000000018007f870 f i libucrtd:output.obj
 0001:0007e880       ?state_count@?$standard_base@_WV?$stream_output_adapter@_W@__crt_stdio_output@@@__crt_stdio_output@@KAIXZ 000000018007f880 f i libucrtd:output.obj
 0001:0007e890       ?state_count@?$standard_base@_WV?$string_output_adapter@_W@__crt_stdio_output@@@__crt_stdio_output@@KAIXZ 000000018007f890 f i libucrtd:output.obj
 0001:0007e8a0       ?state_transition_table@?$format_validation_base@DV?$stream_output_adapter@D@__crt_stdio_output@@@__crt_stdio_output@@KAAEBV?$spectre_mitigated_lookup_table@Ustate_transition_pair@__crt_stdio_output@@$0IA@@2@XZ 000000018007f8a0 f i libucrtd:output.obj
 0001:0007e8b0       ?state_transition_table@?$format_validation_base@DV?$string_output_adapter@D@__crt_stdio_output@@@__crt_stdio_output@@KAAEBV?$spectre_mitigated_lookup_table@Ustate_transition_pair@__crt_stdio_output@@$0IA@@2@XZ 000000018007f8b0 f i libucrtd:output.obj
 0001:0007e8c0       ?state_transition_table@?$format_validation_base@_WV?$stream_output_adapter@_W@__crt_stdio_output@@@__crt_stdio_output@@KAAEBV?$spectre_mitigated_lookup_table@Ustate_transition_pair@__crt_stdio_output@@$0IA@@2@XZ 000000018007f8c0 f i libucrtd:output.obj
 0001:0007e8d0       ?state_transition_table@?$format_validation_base@_WV?$string_output_adapter@_W@__crt_stdio_output@@@__crt_stdio_output@@KAAEBV?$spectre_mitigated_lookup_table@Ustate_transition_pair@__crt_stdio_output@@$0IA@@2@XZ 000000018007f8d0 f i libucrtd:output.obj
 0001:0007e8e0       ?state_transition_table@?$standard_base@DV?$stream_output_adapter@D@__crt_stdio_output@@@__crt_stdio_output@@KAAEBV?$spectre_mitigated_lookup_table@Ustate_transition_pair@__crt_stdio_output@@$0IA@@2@XZ 000000018007f8e0 f i libucrtd:output.obj
 0001:0007e8f0       ?state_transition_table@?$standard_base@DV?$string_output_adapter@D@__crt_stdio_output@@@__crt_stdio_output@@KAAEBV?$spectre_mitigated_lookup_table@Ustate_transition_pair@__crt_stdio_output@@$0IA@@2@XZ 000000018007f8f0 f i libucrtd:output.obj
 0001:0007e900       ?state_transition_table@?$standard_base@_WV?$stream_output_adapter@_W@__crt_stdio_output@@@__crt_stdio_output@@KAAEBV?$spectre_mitigated_lookup_table@Ustate_transition_pair@__crt_stdio_output@@$0IA@@2@XZ 000000018007f900 f i libucrtd:output.obj
 0001:0007e910       ?state_transition_table@?$standard_base@_WV?$string_output_adapter@_W@__crt_stdio_output@@@__crt_stdio_output@@KAAEBV?$spectre_mitigated_lookup_table@Ustate_transition_pair@__crt_stdio_output@@$0IA@@2@XZ 000000018007f910 f i libucrtd:output.obj
 0001:0007e920       ?tchar_string@?$common_data@D@__crt_stdio_output@@IEAAAEAPEADD@Z 000000018007f920 f i libucrtd:output.obj
 0001:0007e940       ?tchar_string@?$common_data@D@__crt_stdio_output@@IEAAAEAPEADXZ 000000018007f940 f i libucrtd:output.obj
 0001:0007e960       ?tchar_string@?$common_data@_W@__crt_stdio_output@@IEAAAEAPEA_WXZ 000000018007f960 f i libucrtd:output.obj
 0001:0007e980       ?tchar_string@?$common_data@_W@__crt_stdio_output@@IEAAAEAPEA_W_W@Z 000000018007f980 f i libucrtd:output.obj
 0001:0007e9a0       ?to_integer_size@__crt_stdio_output@@YA_KW4length_modifier@1@@Z 000000018007f9a0 f i libucrtd:output.obj
 0001:0007ea50       ?type_case_X@?$output_processor@DV?$stream_output_adapter@D@__crt_stdio_output@@V?$format_validation_base@DV?$stream_output_adapter@D@__crt_stdio_output@@@2@@__crt_stdio_output@@AEAA_NXZ 000000018007fa50 f i libucrtd:output.obj
 0001:0007ea70       ?type_case_X@?$output_processor@DV?$stream_output_adapter@D@__crt_stdio_output@@V?$positional_parameter_base@DV?$stream_output_adapter@D@__crt_stdio_output@@@2@@__crt_stdio_output@@AEAA_NXZ 000000018007fa70 f i libucrtd:output.obj
 0001:0007ea90       ?type_case_X@?$output_processor@DV?$stream_output_adapter@D@__crt_stdio_output@@V?$standard_base@DV?$stream_output_adapter@D@__crt_stdio_output@@@2@@__crt_stdio_output@@AEAA_NXZ 000000018007fa90 f i libucrtd:output.obj
 0001:0007eab0       ?type_case_X@?$output_processor@DV?$string_output_adapter@D@__crt_stdio_output@@V?$format_validation_base@DV?$string_output_adapter@D@__crt_stdio_output@@@2@@__crt_stdio_output@@AEAA_NXZ 000000018007fab0 f i libucrtd:output.obj
 0001:0007ead0       ?type_case_X@?$output_processor@DV?$string_output_adapter@D@__crt_stdio_output@@V?$positional_parameter_base@DV?$string_output_adapter@D@__crt_stdio_output@@@2@@__crt_stdio_output@@AEAA_NXZ 000000018007fad0 f i libucrtd:output.obj
 0001:0007eaf0       ?type_case_X@?$output_processor@DV?$string_output_adapter@D@__crt_stdio_output@@V?$standard_base@DV?$string_output_adapter@D@__crt_stdio_output@@@2@@__crt_stdio_output@@AEAA_NXZ 000000018007faf0 f i libucrtd:output.obj
 0001:0007eb10       ?type_case_X@?$output_processor@_WV?$stream_output_adapter@_W@__crt_stdio_output@@V?$format_validation_base@_WV?$stream_output_adapter@_W@__crt_stdio_output@@@2@@__crt_stdio_output@@AEAA_NXZ 000000018007fb10 f i libucrtd:output.obj
 0001:0007eb30       ?type_case_X@?$output_processor@_WV?$stream_output_adapter@_W@__crt_stdio_output@@V?$positional_parameter_base@_WV?$stream_output_adapter@_W@__crt_stdio_output@@@2@@__crt_stdio_output@@AEAA_NXZ 000000018007fb30 f i libucrtd:output.obj
 0001:0007eb50       ?type_case_X@?$output_processor@_WV?$stream_output_adapter@_W@__crt_stdio_output@@V?$standard_base@_WV?$stream_output_adapter@_W@__crt_stdio_output@@@2@@__crt_stdio_output@@AEAA_NXZ 000000018007fb50 f i libucrtd:output.obj
 0001:0007eb70       ?type_case_X@?$output_processor@_WV?$string_output_adapter@_W@__crt_stdio_output@@V?$format_validation_base@_WV?$string_output_adapter@_W@__crt_stdio_output@@@2@@__crt_stdio_output@@AEAA_NXZ 000000018007fb70 f i libucrtd:output.obj
 0001:0007eb90       ?type_case_X@?$output_processor@_WV?$string_output_adapter@_W@__crt_stdio_output@@V?$positional_parameter_base@_WV?$string_output_adapter@_W@__crt_stdio_output@@@2@@__crt_stdio_output@@AEAA_NXZ 000000018007fb90 f i libucrtd:output.obj
 0001:0007ebb0       ?type_case_X@?$output_processor@_WV?$string_output_adapter@_W@__crt_stdio_output@@V?$standard_base@_WV?$string_output_adapter@_W@__crt_stdio_output@@@2@@__crt_stdio_output@@AEAA_NXZ 000000018007fbb0 f i libucrtd:output.obj
 0001:0007ebd0       ?type_case_Z@?$output_processor@DV?$stream_output_adapter@D@__crt_stdio_output@@V?$format_validation_base@DV?$stream_output_adapter@D@__crt_stdio_output@@@2@@__crt_stdio_output@@AEAA_NXZ 000000018007fbd0 f i libucrtd:output.obj
 0001:0007ecf0       ?type_case_Z@?$output_processor@DV?$stream_output_adapter@D@__crt_stdio_output@@V?$positional_parameter_base@DV?$stream_output_adapter@D@__crt_stdio_output@@@2@@__crt_stdio_output@@AEAA_NXZ 000000018007fcf0 f i libucrtd:output.obj
 0001:0007ee10       ?type_case_Z@?$output_processor@DV?$stream_output_adapter@D@__crt_stdio_output@@V?$standard_base@DV?$stream_output_adapter@D@__crt_stdio_output@@@2@@__crt_stdio_output@@AEAA_NXZ 000000018007fe10 f i libucrtd:output.obj
 0001:0007ef30       ?type_case_Z@?$output_processor@DV?$string_output_adapter@D@__crt_stdio_output@@V?$format_validation_base@DV?$string_output_adapter@D@__crt_stdio_output@@@2@@__crt_stdio_output@@AEAA_NXZ 000000018007ff30 f i libucrtd:output.obj
 0001:0007f050       ?type_case_Z@?$output_processor@DV?$string_output_adapter@D@__crt_stdio_output@@V?$positional_parameter_base@DV?$string_output_adapter@D@__crt_stdio_output@@@2@@__crt_stdio_output@@AEAA_NXZ 0000000180080050 f i libucrtd:output.obj
 0001:0007f170       ?type_case_Z@?$output_processor@DV?$string_output_adapter@D@__crt_stdio_output@@V?$standard_base@DV?$string_output_adapter@D@__crt_stdio_output@@@2@@__crt_stdio_output@@AEAA_NXZ 0000000180080170 f i libucrtd:output.obj
 0001:0007f290       ?type_case_Z@?$output_processor@_WV?$stream_output_adapter@_W@__crt_stdio_output@@V?$format_validation_base@_WV?$stream_output_adapter@_W@__crt_stdio_output@@@2@@__crt_stdio_output@@AEAA_NXZ 0000000180080290 f i libucrtd:output.obj
 0001:0007f3b0       ?type_case_Z@?$output_processor@_WV?$stream_output_adapter@_W@__crt_stdio_output@@V?$positional_parameter_base@_WV?$stream_output_adapter@_W@__crt_stdio_output@@@2@@__crt_stdio_output@@AEAA_NXZ 00000001800803b0 f i libucrtd:output.obj
 0001:0007f4d0       ?type_case_Z@?$output_processor@_WV?$stream_output_adapter@_W@__crt_stdio_output@@V?$standard_base@_WV?$stream_output_adapter@_W@__crt_stdio_output@@@2@@__crt_stdio_output@@AEAA_NXZ 00000001800804d0 f i libucrtd:output.obj
 0001:0007f5f0       ?type_case_Z@?$output_processor@_WV?$string_output_adapter@_W@__crt_stdio_output@@V?$format_validation_base@_WV?$string_output_adapter@_W@__crt_stdio_output@@@2@@__crt_stdio_output@@AEAA_NXZ 00000001800805f0 f i libucrtd:output.obj
 0001:0007f710       ?type_case_Z@?$output_processor@_WV?$string_output_adapter@_W@__crt_stdio_output@@V?$positional_parameter_base@_WV?$string_output_adapter@_W@__crt_stdio_output@@@2@@__crt_stdio_output@@AEAA_NXZ 0000000180080710 f i libucrtd:output.obj
 0001:0007f830       ?type_case_Z@?$output_processor@_WV?$string_output_adapter@_W@__crt_stdio_output@@V?$standard_base@_WV?$string_output_adapter@_W@__crt_stdio_output@@@2@@__crt_stdio_output@@AEAA_NXZ 0000000180080830 f i libucrtd:output.obj
 0001:0007f950       ?type_case_a@?$output_processor@DV?$stream_output_adapter@D@__crt_stdio_output@@V?$format_validation_base@DV?$stream_output_adapter@D@__crt_stdio_output@@@2@@__crt_stdio_output@@AEAA_NXZ 0000000180080950 f i libucrtd:output.obj
 0001:0007fdb0       ?type_case_a@?$output_processor@DV?$stream_output_adapter@D@__crt_stdio_output@@V?$positional_parameter_base@DV?$stream_output_adapter@D@__crt_stdio_output@@@2@@__crt_stdio_output@@AEAA_NXZ 0000000180080db0 f i libucrtd:output.obj
 0001:00080210       ?type_case_a@?$output_processor@DV?$stream_output_adapter@D@__crt_stdio_output@@V?$standard_base@DV?$stream_output_adapter@D@__crt_stdio_output@@@2@@__crt_stdio_output@@AEAA_NXZ 0000000180081210 f i libucrtd:output.obj
 0001:00080670       ?type_case_a@?$output_processor@DV?$string_output_adapter@D@__crt_stdio_output@@V?$format_validation_base@DV?$string_output_adapter@D@__crt_stdio_output@@@2@@__crt_stdio_output@@AEAA_NXZ 0000000180081670 f i libucrtd:output.obj
 0001:00080ad0       ?type_case_a@?$output_processor@DV?$string_output_adapter@D@__crt_stdio_output@@V?$positional_parameter_base@DV?$string_output_adapter@D@__crt_stdio_output@@@2@@__crt_stdio_output@@AEAA_NXZ 0000000180081ad0 f i libucrtd:output.obj
 0001:00080f30       ?type_case_a@?$output_processor@DV?$string_output_adapter@D@__crt_stdio_output@@V?$standard_base@DV?$string_output_adapter@D@__crt_stdio_output@@@2@@__crt_stdio_output@@AEAA_NXZ 0000000180081f30 f i libucrtd:output.obj
 0001:00081390       ?type_case_a@?$output_processor@_WV?$stream_output_adapter@_W@__crt_stdio_output@@V?$format_validation_base@_WV?$stream_output_adapter@_W@__crt_stdio_output@@@2@@__crt_stdio_output@@AEAA_NXZ 0000000180082390 f i libucrtd:output.obj
 0001:00081800       ?type_case_a@?$output_processor@_WV?$stream_output_adapter@_W@__crt_stdio_output@@V?$positional_parameter_base@_WV?$stream_output_adapter@_W@__crt_stdio_output@@@2@@__crt_stdio_output@@AEAA_NXZ 0000000180082800 f i libucrtd:output.obj
 0001:00081c70       ?type_case_a@?$output_processor@_WV?$stream_output_adapter@_W@__crt_stdio_output@@V?$standard_base@_WV?$stream_output_adapter@_W@__crt_stdio_output@@@2@@__crt_stdio_output@@AEAA_NXZ 0000000180082c70 f i libucrtd:output.obj
 0001:000820e0       ?type_case_a@?$output_processor@_WV?$string_output_adapter@_W@__crt_stdio_output@@V?$format_validation_base@_WV?$string_output_adapter@_W@__crt_stdio_output@@@2@@__crt_stdio_output@@AEAA_NXZ 00000001800830e0 f i libucrtd:output.obj
 0001:00082550       ?type_case_a@?$output_processor@_WV?$string_output_adapter@_W@__crt_stdio_output@@V?$positional_parameter_base@_WV?$string_output_adapter@_W@__crt_stdio_output@@@2@@__crt_stdio_output@@AEAA_NXZ 0000000180083550 f i libucrtd:output.obj
 0001:000829c0       ?type_case_a@?$output_processor@_WV?$string_output_adapter@_W@__crt_stdio_output@@V?$standard_base@_WV?$string_output_adapter@_W@__crt_stdio_output@@@2@@__crt_stdio_output@@AEAA_NXZ 00000001800839c0 f i libucrtd:output.obj
 0001:00082e30       ?type_case_c@?$output_processor@DV?$stream_output_adapter@D@__crt_stdio_output@@V?$format_validation_base@DV?$stream_output_adapter@D@__crt_stdio_output@@@2@@__crt_stdio_output@@AEAA_NXZ 0000000180083e30 f i libucrtd:output.obj
 0001:00082e50       ?type_case_c@?$output_processor@DV?$stream_output_adapter@D@__crt_stdio_output@@V?$positional_parameter_base@DV?$stream_output_adapter@D@__crt_stdio_output@@@2@@__crt_stdio_output@@AEAA_NXZ 0000000180083e50 f i libucrtd:output.obj
 0001:00082e70       ?type_case_c@?$output_processor@DV?$stream_output_adapter@D@__crt_stdio_output@@V?$standard_base@DV?$stream_output_adapter@D@__crt_stdio_output@@@2@@__crt_stdio_output@@AEAA_NXZ 0000000180083e70 f i libucrtd:output.obj
 0001:00082e90       ?type_case_c@?$output_processor@DV?$string_output_adapter@D@__crt_stdio_output@@V?$format_validation_base@DV?$string_output_adapter@D@__crt_stdio_output@@@2@@__crt_stdio_output@@AEAA_NXZ 0000000180083e90 f i libucrtd:output.obj
 0001:00082eb0       ?type_case_c@?$output_processor@DV?$string_output_adapter@D@__crt_stdio_output@@V?$positional_parameter_base@DV?$string_output_adapter@D@__crt_stdio_output@@@2@@__crt_stdio_output@@AEAA_NXZ 0000000180083eb0 f i libucrtd:output.obj
 0001:00082ed0       ?type_case_c@?$output_processor@DV?$string_output_adapter@D@__crt_stdio_output@@V?$standard_base@DV?$string_output_adapter@D@__crt_stdio_output@@@2@@__crt_stdio_output@@AEAA_NXZ 0000000180083ed0 f i libucrtd:output.obj
 0001:00082ef0       ?type_case_c@?$output_processor@_WV?$stream_output_adapter@_W@__crt_stdio_output@@V?$format_validation_base@_WV?$stream_output_adapter@_W@__crt_stdio_output@@@2@@__crt_stdio_output@@AEAA_NXZ 0000000180083ef0 f i libucrtd:output.obj
 0001:00082f10       ?type_case_c@?$output_processor@_WV?$stream_output_adapter@_W@__crt_stdio_output@@V?$positional_parameter_base@_WV?$stream_output_adapter@_W@__crt_stdio_output@@@2@@__crt_stdio_output@@AEAA_NXZ 0000000180083f10 f i libucrtd:output.obj
 0001:00082f30       ?type_case_c@?$output_processor@_WV?$stream_output_adapter@_W@__crt_stdio_output@@V?$standard_base@_WV?$stream_output_adapter@_W@__crt_stdio_output@@@2@@__crt_stdio_output@@AEAA_NXZ 0000000180083f30 f i libucrtd:output.obj
 0001:00082f50       ?type_case_c@?$output_processor@_WV?$string_output_adapter@_W@__crt_stdio_output@@V?$format_validation_base@_WV?$string_output_adapter@_W@__crt_stdio_output@@@2@@__crt_stdio_output@@AEAA_NXZ 0000000180083f50 f i libucrtd:output.obj
 0001:00082f70       ?type_case_c@?$output_processor@_WV?$string_output_adapter@_W@__crt_stdio_output@@V?$positional_parameter_base@_WV?$string_output_adapter@_W@__crt_stdio_output@@@2@@__crt_stdio_output@@AEAA_NXZ 0000000180083f70 f i libucrtd:output.obj
 0001:00082f90       ?type_case_c@?$output_processor@_WV?$string_output_adapter@_W@__crt_stdio_output@@V?$standard_base@_WV?$string_output_adapter@_W@__crt_stdio_output@@@2@@__crt_stdio_output@@AEAA_NXZ 0000000180083f90 f i libucrtd:output.obj
 0001:00082fb0       ?type_case_c_tchar@?$output_processor@DV?$stream_output_adapter@D@__crt_stdio_output@@V?$format_validation_base@DV?$stream_output_adapter@D@__crt_stdio_output@@@2@@__crt_stdio_output@@AEAA_ND@Z 0000000180083fb0 f i libucrtd:output.obj
 0001:00083120       ?type_case_c_tchar@?$output_processor@DV?$stream_output_adapter@D@__crt_stdio_output@@V?$positional_parameter_base@DV?$stream_output_adapter@D@__crt_stdio_output@@@2@@__crt_stdio_output@@AEAA_ND@Z 0000000180084120 f i libucrtd:output.obj
 0001:00083290       ?type_case_c_tchar@?$output_processor@DV?$stream_output_adapter@D@__crt_stdio_output@@V?$standard_base@DV?$stream_output_adapter@D@__crt_stdio_output@@@2@@__crt_stdio_output@@AEAA_ND@Z 0000000180084290 f i libucrtd:output.obj
 0001:00083400       ?type_case_c_tchar@?$output_processor@DV?$string_output_adapter@D@__crt_stdio_output@@V?$format_validation_base@DV?$string_output_adapter@D@__crt_stdio_output@@@2@@__crt_stdio_output@@AEAA_ND@Z 0000000180084400 f i libucrtd:output.obj
 0001:00083570       ?type_case_c_tchar@?$output_processor@DV?$string_output_adapter@D@__crt_stdio_output@@V?$positional_parameter_base@DV?$string_output_adapter@D@__crt_stdio_output@@@2@@__crt_stdio_output@@AEAA_ND@Z 0000000180084570 f i libucrtd:output.obj
 0001:000836e0       ?type_case_c_tchar@?$output_processor@DV?$string_output_adapter@D@__crt_stdio_output@@V?$standard_base@DV?$string_output_adapter@D@__crt_stdio_output@@@2@@__crt_stdio_output@@AEAA_ND@Z 00000001800846e0 f i libucrtd:output.obj
 0001:00083850       ?type_case_c_tchar@?$output_processor@_WV?$stream_output_adapter@_W@__crt_stdio_output@@V?$format_validation_base@_WV?$stream_output_adapter@_W@__crt_stdio_output@@@2@@__crt_stdio_output@@AEAA_N_W@Z 0000000180084850 f i libucrtd:output.obj
 0001:000839b0       ?type_case_c_tchar@?$output_processor@_WV?$stream_output_adapter@_W@__crt_stdio_output@@V?$positional_parameter_base@_WV?$stream_output_adapter@_W@__crt_stdio_output@@@2@@__crt_stdio_output@@AEAA_N_W@Z 00000001800849b0 f i libucrtd:output.obj
 0001:00083b10       ?type_case_c_tchar@?$output_processor@_WV?$stream_output_adapter@_W@__crt_stdio_output@@V?$standard_base@_WV?$stream_output_adapter@_W@__crt_stdio_output@@@2@@__crt_stdio_output@@AEAA_N_W@Z 0000000180084b10 f i libucrtd:output.obj
 0001:00083c70       ?type_case_c_tchar@?$output_processor@_WV?$string_output_adapter@_W@__crt_stdio_output@@V?$format_validation_base@_WV?$string_output_adapter@_W@__crt_stdio_output@@@2@@__crt_stdio_output@@AEAA_N_W@Z 0000000180084c70 f i libucrtd:output.obj
 0001:00083dd0       ?type_case_c_tchar@?$output_processor@_WV?$string_output_adapter@_W@__crt_stdio_output@@V?$positional_parameter_base@_WV?$string_output_adapter@_W@__crt_stdio_output@@@2@@__crt_stdio_output@@AEAA_N_W@Z 0000000180084dd0 f i libucrtd:output.obj
 0001:00083f30       ?type_case_c_tchar@?$output_processor@_WV?$string_output_adapter@_W@__crt_stdio_output@@V?$standard_base@_WV?$string_output_adapter@_W@__crt_stdio_output@@@2@@__crt_stdio_output@@AEAA_N_W@Z 0000000180084f30 f i libucrtd:output.obj
 0001:00084090       ?type_case_d@?$output_processor@DV?$stream_output_adapter@D@__crt_stdio_output@@V?$format_validation_base@DV?$stream_output_adapter@D@__crt_stdio_output@@@2@@__crt_stdio_output@@AEAA_NXZ 0000000180085090 f i libucrtd:output.obj
 0001:000840c0       ?type_case_d@?$output_processor@DV?$stream_output_adapter@D@__crt_stdio_output@@V?$positional_parameter_base@DV?$stream_output_adapter@D@__crt_stdio_output@@@2@@__crt_stdio_output@@AEAA_NXZ 00000001800850c0 f i libucrtd:output.obj
 0001:000840f0       ?type_case_d@?$output_processor@DV?$stream_output_adapter@D@__crt_stdio_output@@V?$standard_base@DV?$stream_output_adapter@D@__crt_stdio_output@@@2@@__crt_stdio_output@@AEAA_NXZ 00000001800850f0 f i libucrtd:output.obj
 0001:00084120       ?type_case_d@?$output_processor@DV?$string_output_adapter@D@__crt_stdio_output@@V?$format_validation_base@DV?$string_output_adapter@D@__crt_stdio_output@@@2@@__crt_stdio_output@@AEAA_NXZ 0000000180085120 f i libucrtd:output.obj
 0001:00084150       ?type_case_d@?$output_processor@DV?$string_output_adapter@D@__crt_stdio_output@@V?$positional_parameter_base@DV?$string_output_adapter@D@__crt_stdio_output@@@2@@__crt_stdio_output@@AEAA_NXZ 0000000180085150 f i libucrtd:output.obj
 0001:00084180       ?type_case_d@?$output_processor@DV?$string_output_adapter@D@__crt_stdio_output@@V?$standard_base@DV?$string_output_adapter@D@__crt_stdio_output@@@2@@__crt_stdio_output@@AEAA_NXZ 0000000180085180 f i libucrtd:output.obj
 0001:000841b0       ?type_case_d@?$output_processor@_WV?$stream_output_adapter@_W@__crt_stdio_output@@V?$format_validation_base@_WV?$stream_output_adapter@_W@__crt_stdio_output@@@2@@__crt_stdio_output@@AEAA_NXZ 00000001800851b0 f i libucrtd:output.obj
 0001:000841e0       ?type_case_d@?$output_processor@_WV?$stream_output_adapter@_W@__crt_stdio_output@@V?$positional_parameter_base@_WV?$stream_output_adapter@_W@__crt_stdio_output@@@2@@__crt_stdio_output@@AEAA_NXZ 00000001800851e0 f i libucrtd:output.obj
 0001:00084210       ?type_case_d@?$output_processor@_WV?$stream_output_adapter@_W@__crt_stdio_output@@V?$standard_base@_WV?$stream_output_adapter@_W@__crt_stdio_output@@@2@@__crt_stdio_output@@AEAA_NXZ 0000000180085210 f i libucrtd:output.obj
 0001:00084240       ?type_case_d@?$output_processor@_WV?$string_output_adapter@_W@__crt_stdio_output@@V?$format_validation_base@_WV?$string_output_adapter@_W@__crt_stdio_output@@@2@@__crt_stdio_output@@AEAA_NXZ 0000000180085240 f i libucrtd:output.obj
 0001:00084270       ?type_case_d@?$output_processor@_WV?$string_output_adapter@_W@__crt_stdio_output@@V?$positional_parameter_base@_WV?$string_output_adapter@_W@__crt_stdio_output@@@2@@__crt_stdio_output@@AEAA_NXZ 0000000180085270 f i libucrtd:output.obj
 0001:000842a0       ?type_case_d@?$output_processor@_WV?$string_output_adapter@_W@__crt_stdio_output@@V?$standard_base@_WV?$string_output_adapter@_W@__crt_stdio_output@@@2@@__crt_stdio_output@@AEAA_NXZ 00000001800852a0 f i libucrtd:output.obj
 0001:000842d0       ?type_case_n@?$output_processor@DV?$stream_output_adapter@D@__crt_stdio_output@@V?$format_validation_base@DV?$stream_output_adapter@D@__crt_stdio_output@@@2@@__crt_stdio_output@@AEAA_NXZ 00000001800852d0 f i libucrtd:output.obj
 0001:00084560       ?type_case_n@?$output_processor@DV?$stream_output_adapter@D@__crt_stdio_output@@V?$positional_parameter_base@DV?$stream_output_adapter@D@__crt_stdio_output@@@2@@__crt_stdio_output@@AEAA_NXZ 0000000180085560 f i libucrtd:output.obj
 0001:000847f0       ?type_case_n@?$output_processor@DV?$stream_output_adapter@D@__crt_stdio_output@@V?$standard_base@DV?$stream_output_adapter@D@__crt_stdio_output@@@2@@__crt_stdio_output@@AEAA_NXZ 00000001800857f0 f i libucrtd:output.obj
 0001:00084a80       ?type_case_n@?$output_processor@DV?$string_output_adapter@D@__crt_stdio_output@@V?$format_validation_base@DV?$string_output_adapter@D@__crt_stdio_output@@@2@@__crt_stdio_output@@AEAA_NXZ 0000000180085a80 f i libucrtd:output.obj
 0001:00084d10       ?type_case_n@?$output_processor@DV?$string_output_adapter@D@__crt_stdio_output@@V?$positional_parameter_base@DV?$string_output_adapter@D@__crt_stdio_output@@@2@@__crt_stdio_output@@AEAA_NXZ 0000000180085d10 f i libucrtd:output.obj
 0001:00084fa0       ?type_case_n@?$output_processor@DV?$string_output_adapter@D@__crt_stdio_output@@V?$standard_base@DV?$string_output_adapter@D@__crt_stdio_output@@@2@@__crt_stdio_output@@AEAA_NXZ 0000000180085fa0 f i libucrtd:output.obj
 0001:00085230       ?type_case_n@?$output_processor@_WV?$stream_output_adapter@_W@__crt_stdio_output@@V?$format_validation_base@_WV?$stream_output_adapter@_W@__crt_stdio_output@@@2@@__crt_stdio_output@@AEAA_NXZ 0000000180086230 f i libucrtd:output.obj
 0001:000854c0       ?type_case_n@?$output_processor@_WV?$stream_output_adapter@_W@__crt_stdio_output@@V?$positional_parameter_base@_WV?$stream_output_adapter@_W@__crt_stdio_output@@@2@@__crt_stdio_output@@AEAA_NXZ 00000001800864c0 f i libucrtd:output.obj
 0001:00085750       ?type_case_n@?$output_processor@_WV?$stream_output_adapter@_W@__crt_stdio_output@@V?$standard_base@_WV?$stream_output_adapter@_W@__crt_stdio_output@@@2@@__crt_stdio_output@@AEAA_NXZ 0000000180086750 f i libucrtd:output.obj
 0001:000859e0       ?type_case_n@?$output_processor@_WV?$string_output_adapter@_W@__crt_stdio_output@@V?$format_validation_base@_WV?$string_output_adapter@_W@__crt_stdio_output@@@2@@__crt_stdio_output@@AEAA_NXZ 00000001800869e0 f i libucrtd:output.obj
 0001:00085c70       ?type_case_n@?$output_processor@_WV?$string_output_adapter@_W@__crt_stdio_output@@V?$positional_parameter_base@_WV?$string_output_adapter@_W@__crt_stdio_output@@@2@@__crt_stdio_output@@AEAA_NXZ 0000000180086c70 f i libucrtd:output.obj
 0001:00085f00       ?type_case_n@?$output_processor@_WV?$string_output_adapter@_W@__crt_stdio_output@@V?$standard_base@_WV?$string_output_adapter@_W@__crt_stdio_output@@@2@@__crt_stdio_output@@AEAA_NXZ 0000000180086f00 f i libucrtd:output.obj
 0001:00086190       ?type_case_o@?$output_processor@DV?$stream_output_adapter@D@__crt_stdio_output@@V?$format_validation_base@DV?$stream_output_adapter@D@__crt_stdio_output@@@2@@__crt_stdio_output@@AEAA_NXZ 0000000180087190 f i libucrtd:output.obj
 0001:000861d0       ?type_case_o@?$output_processor@DV?$stream_output_adapter@D@__crt_stdio_output@@V?$positional_parameter_base@DV?$stream_output_adapter@D@__crt_stdio_output@@@2@@__crt_stdio_output@@AEAA_NXZ 00000001800871d0 f i libucrtd:output.obj
 0001:00086210       ?type_case_o@?$output_processor@DV?$stream_output_adapter@D@__crt_stdio_output@@V?$standard_base@DV?$stream_output_adapter@D@__crt_stdio_output@@@2@@__crt_stdio_output@@AEAA_NXZ 0000000180087210 f i libucrtd:output.obj
 0001:00086250       ?type_case_o@?$output_processor@DV?$string_output_adapter@D@__crt_stdio_output@@V?$format_validation_base@DV?$string_output_adapter@D@__crt_stdio_output@@@2@@__crt_stdio_output@@AEAA_NXZ 0000000180087250 f i libucrtd:output.obj
 0001:00086290       ?type_case_o@?$output_processor@DV?$string_output_adapter@D@__crt_stdio_output@@V?$positional_parameter_base@DV?$string_output_adapter@D@__crt_stdio_output@@@2@@__crt_stdio_output@@AEAA_NXZ 0000000180087290 f i libucrtd:output.obj
 0001:000862d0       ?type_case_o@?$output_processor@DV?$string_output_adapter@D@__crt_stdio_output@@V?$standard_base@DV?$string_output_adapter@D@__crt_stdio_output@@@2@@__crt_stdio_output@@AEAA_NXZ 00000001800872d0 f i libucrtd:output.obj
 0001:00086310       ?type_case_o@?$output_processor@_WV?$stream_output_adapter@_W@__crt_stdio_output@@V?$format_validation_base@_WV?$stream_output_adapter@_W@__crt_stdio_output@@@2@@__crt_stdio_output@@AEAA_NXZ 0000000180087310 f i libucrtd:output.obj
 0001:00086350       ?type_case_o@?$output_processor@_WV?$stream_output_adapter@_W@__crt_stdio_output@@V?$positional_parameter_base@_WV?$stream_output_adapter@_W@__crt_stdio_output@@@2@@__crt_stdio_output@@AEAA_NXZ 0000000180087350 f i libucrtd:output.obj
 0001:00086390       ?type_case_o@?$output_processor@_WV?$stream_output_adapter@_W@__crt_stdio_output@@V?$standard_base@_WV?$stream_output_adapter@_W@__crt_stdio_output@@@2@@__crt_stdio_output@@AEAA_NXZ 0000000180087390 f i libucrtd:output.obj
 0001:000863d0       ?type_case_o@?$output_processor@_WV?$string_output_adapter@_W@__crt_stdio_output@@V?$format_validation_base@_WV?$string_output_adapter@_W@__crt_stdio_output@@@2@@__crt_stdio_output@@AEAA_NXZ 00000001800873d0 f i libucrtd:output.obj
 0001:00086410       ?type_case_o@?$output_processor@_WV?$string_output_adapter@_W@__crt_stdio_output@@V?$positional_parameter_base@_WV?$string_output_adapter@_W@__crt_stdio_output@@@2@@__crt_stdio_output@@AEAA_NXZ 0000000180087410 f i libucrtd:output.obj
 0001:00086450       ?type_case_o@?$output_processor@_WV?$string_output_adapter@_W@__crt_stdio_output@@V?$standard_base@_WV?$string_output_adapter@_W@__crt_stdio_output@@@2@@__crt_stdio_output@@AEAA_NXZ 0000000180087450 f i libucrtd:output.obj
 0001:00086490       ?type_case_p@?$output_processor@DV?$stream_output_adapter@D@__crt_stdio_output@@V?$format_validation_base@DV?$stream_output_adapter@D@__crt_stdio_output@@@2@@__crt_stdio_output@@AEAA_NXZ 0000000180087490 f i libucrtd:output.obj
 0001:000864d0       ?type_case_p@?$output_processor@DV?$stream_output_adapter@D@__crt_stdio_output@@V?$positional_parameter_base@DV?$stream_output_adapter@D@__crt_stdio_output@@@2@@__crt_stdio_output@@AEAA_NXZ 00000001800874d0 f i libucrtd:output.obj
 0001:00086510       ?type_case_p@?$output_processor@DV?$stream_output_adapter@D@__crt_stdio_output@@V?$standard_base@DV?$stream_output_adapter@D@__crt_stdio_output@@@2@@__crt_stdio_output@@AEAA_NXZ 0000000180087510 f i libucrtd:output.obj
 0001:00086550       ?type_case_p@?$output_processor@DV?$string_output_adapter@D@__crt_stdio_output@@V?$format_validation_base@DV?$string_output_adapter@D@__crt_stdio_output@@@2@@__crt_stdio_output@@AEAA_NXZ 0000000180087550 f i libucrtd:output.obj
 0001:00086590       ?type_case_p@?$output_processor@DV?$string_output_adapter@D@__crt_stdio_output@@V?$positional_parameter_base@DV?$string_output_adapter@D@__crt_stdio_output@@@2@@__crt_stdio_output@@AEAA_NXZ 0000000180087590 f i libucrtd:output.obj
 0001:000865d0       ?type_case_p@?$output_processor@DV?$string_output_adapter@D@__crt_stdio_output@@V?$standard_base@DV?$string_output_adapter@D@__crt_stdio_output@@@2@@__crt_stdio_output@@AEAA_NXZ 00000001800875d0 f i libucrtd:output.obj
 0001:00086610       ?type_case_p@?$output_processor@_WV?$stream_output_adapter@_W@__crt_stdio_output@@V?$format_validation_base@_WV?$stream_output_adapter@_W@__crt_stdio_output@@@2@@__crt_stdio_output@@AEAA_NXZ 0000000180087610 f i libucrtd:output.obj
 0001:00086650       ?type_case_p@?$output_processor@_WV?$stream_output_adapter@_W@__crt_stdio_output@@V?$positional_parameter_base@_WV?$stream_output_adapter@_W@__crt_stdio_output@@@2@@__crt_stdio_output@@AEAA_NXZ 0000000180087650 f i libucrtd:output.obj
 0001:00086690       ?type_case_p@?$output_processor@_WV?$stream_output_adapter@_W@__crt_stdio_output@@V?$standard_base@_WV?$stream_output_adapter@_W@__crt_stdio_output@@@2@@__crt_stdio_output@@AEAA_NXZ 0000000180087690 f i libucrtd:output.obj
 0001:000866d0       ?type_case_p@?$output_processor@_WV?$string_output_adapter@_W@__crt_stdio_output@@V?$format_validation_base@_WV?$string_output_adapter@_W@__crt_stdio_output@@@2@@__crt_stdio_output@@AEAA_NXZ 00000001800876d0 f i libucrtd:output.obj
 0001:00086710       ?type_case_p@?$output_processor@_WV?$string_output_adapter@_W@__crt_stdio_output@@V?$positional_parameter_base@_WV?$string_output_adapter@_W@__crt_stdio_output@@@2@@__crt_stdio_output@@AEAA_NXZ 0000000180087710 f i libucrtd:output.obj
 0001:00086750       ?type_case_p@?$output_processor@_WV?$string_output_adapter@_W@__crt_stdio_output@@V?$standard_base@_WV?$string_output_adapter@_W@__crt_stdio_output@@@2@@__crt_stdio_output@@AEAA_NXZ 0000000180087750 f i libucrtd:output.obj
 0001:00086790       ?type_case_s@?$output_processor@DV?$stream_output_adapter@D@__crt_stdio_output@@V?$format_validation_base@DV?$stream_output_adapter@D@__crt_stdio_output@@@2@@__crt_stdio_output@@AEAA_NXZ 0000000180087790 f i libucrtd:output.obj
 0001:000868b0       ?type_case_s@?$output_processor@DV?$stream_output_adapter@D@__crt_stdio_output@@V?$positional_parameter_base@DV?$stream_output_adapter@D@__crt_stdio_output@@@2@@__crt_stdio_output@@AEAA_NXZ 00000001800878b0 f i libucrtd:output.obj
 0001:000869d0       ?type_case_s@?$output_processor@DV?$stream_output_adapter@D@__crt_stdio_output@@V?$standard_base@DV?$stream_output_adapter@D@__crt_stdio_output@@@2@@__crt_stdio_output@@AEAA_NXZ 00000001800879d0 f i libucrtd:output.obj
 0001:00086af0       ?type_case_s@?$output_processor@DV?$string_output_adapter@D@__crt_stdio_output@@V?$format_validation_base@DV?$string_output_adapter@D@__crt_stdio_output@@@2@@__crt_stdio_output@@AEAA_NXZ 0000000180087af0 f i libucrtd:output.obj
 0001:00086c10       ?type_case_s@?$output_processor@DV?$string_output_adapter@D@__crt_stdio_output@@V?$positional_parameter_base@DV?$string_output_adapter@D@__crt_stdio_output@@@2@@__crt_stdio_output@@AEAA_NXZ 0000000180087c10 f i libucrtd:output.obj
 0001:00086d30       ?type_case_s@?$output_processor@DV?$string_output_adapter@D@__crt_stdio_output@@V?$standard_base@DV?$string_output_adapter@D@__crt_stdio_output@@@2@@__crt_stdio_output@@AEAA_NXZ 0000000180087d30 f i libucrtd:output.obj
 0001:00086e50       ?type_case_s@?$output_processor@_WV?$stream_output_adapter@_W@__crt_stdio_output@@V?$format_validation_base@_WV?$stream_output_adapter@_W@__crt_stdio_output@@@2@@__crt_stdio_output@@AEAA_NXZ 0000000180087e50 f i libucrtd:output.obj
 0001:00086f70       ?type_case_s@?$output_processor@_WV?$stream_output_adapter@_W@__crt_stdio_output@@V?$positional_parameter_base@_WV?$stream_output_adapter@_W@__crt_stdio_output@@@2@@__crt_stdio_output@@AEAA_NXZ 0000000180087f70 f i libucrtd:output.obj
 0001:00087090       ?type_case_s@?$output_processor@_WV?$stream_output_adapter@_W@__crt_stdio_output@@V?$standard_base@_WV?$stream_output_adapter@_W@__crt_stdio_output@@@2@@__crt_stdio_output@@AEAA_NXZ 0000000180088090 f i libucrtd:output.obj
 0001:000871b0       ?type_case_s@?$output_processor@_WV?$string_output_adapter@_W@__crt_stdio_output@@V?$format_validation_base@_WV?$string_output_adapter@_W@__crt_stdio_output@@@2@@__crt_stdio_output@@AEAA_NXZ 00000001800881b0 f i libucrtd:output.obj
 0001:000872d0       ?type_case_s@?$output_processor@_WV?$string_output_adapter@_W@__crt_stdio_output@@V?$positional_parameter_base@_WV?$string_output_adapter@_W@__crt_stdio_output@@@2@@__crt_stdio_output@@AEAA_NXZ 00000001800882d0 f i libucrtd:output.obj
 0001:000873f0       ?type_case_s@?$output_processor@_WV?$string_output_adapter@_W@__crt_stdio_output@@V?$standard_base@_WV?$string_output_adapter@_W@__crt_stdio_output@@@2@@__crt_stdio_output@@AEAA_NXZ 00000001800883f0 f i libucrtd:output.obj
 0001:00087510       ?type_case_s_compute_narrow_string_length@?$output_processor@DV?$stream_output_adapter@D@__crt_stdio_output@@V?$format_validation_base@DV?$stream_output_adapter@D@__crt_stdio_output@@@2@@__crt_stdio_output@@AEAAHHD@Z 0000000180088510 f i libucrtd:output.obj
 0001:00087540       ?type_case_s_compute_narrow_string_length@?$output_processor@DV?$stream_output_adapter@D@__crt_stdio_output@@V?$positional_parameter_base@DV?$stream_output_adapter@D@__crt_stdio_output@@@2@@__crt_stdio_output@@AEAAHHD@Z 0000000180088540 f i libucrtd:output.obj
 0001:00087570       ?type_case_s_compute_narrow_string_length@?$output_processor@DV?$stream_output_adapter@D@__crt_stdio_output@@V?$standard_base@DV?$stream_output_adapter@D@__crt_stdio_output@@@2@@__crt_stdio_output@@AEAAHHD@Z 0000000180088570 f i libucrtd:output.obj
 0001:000875a0       ?type_case_s_compute_narrow_string_length@?$output_processor@DV?$string_output_adapter@D@__crt_stdio_output@@V?$format_validation_base@DV?$string_output_adapter@D@__crt_stdio_output@@@2@@__crt_stdio_output@@AEAAHHD@Z 00000001800885a0 f i libucrtd:output.obj
 0001:000875d0       ?type_case_s_compute_narrow_string_length@?$output_processor@DV?$string_output_adapter@D@__crt_stdio_output@@V?$positional_parameter_base@DV?$string_output_adapter@D@__crt_stdio_output@@@2@@__crt_stdio_output@@AEAAHHD@Z 00000001800885d0 f i libucrtd:output.obj
 0001:00087600       ?type_case_s_compute_narrow_string_length@?$output_processor@DV?$string_output_adapter@D@__crt_stdio_output@@V?$standard_base@DV?$string_output_adapter@D@__crt_stdio_output@@@2@@__crt_stdio_output@@AEAAHHD@Z 0000000180088600 f i libucrtd:output.obj
 0001:00087630       ?type_case_s_compute_narrow_string_length@?$output_processor@_WV?$stream_output_adapter@_W@__crt_stdio_output@@V?$format_validation_base@_WV?$stream_output_adapter@_W@__crt_stdio_output@@@2@@__crt_stdio_output@@AEAAHH_W@Z 0000000180088630 f i libucrtd:output.obj
 0001:000876d0       ?type_case_s_compute_narrow_string_length@?$output_processor@_WV?$stream_output_adapter@_W@__crt_stdio_output@@V?$positional_parameter_base@_WV?$stream_output_adapter@_W@__crt_stdio_output@@@2@@__crt_stdio_output@@AEAAHH_W@Z 00000001800886d0 f i libucrtd:output.obj
 0001:00087770       ?type_case_s_compute_narrow_string_length@?$output_processor@_WV?$stream_output_adapter@_W@__crt_stdio_output@@V?$standard_base@_WV?$stream_output_adapter@_W@__crt_stdio_output@@@2@@__crt_stdio_output@@AEAAHH_W@Z 0000000180088770 f i libucrtd:output.obj
 0001:00087810       ?type_case_s_compute_narrow_string_length@?$output_processor@_WV?$string_output_adapter@_W@__crt_stdio_output@@V?$format_validation_base@_WV?$string_output_adapter@_W@__crt_stdio_output@@@2@@__crt_stdio_output@@AEAAHH_W@Z 0000000180088810 f i libucrtd:output.obj
 0001:000878b0       ?type_case_s_compute_narrow_string_length@?$output_processor@_WV?$string_output_adapter@_W@__crt_stdio_output@@V?$positional_parameter_base@_WV?$string_output_adapter@_W@__crt_stdio_output@@@2@@__crt_stdio_output@@AEAAHH_W@Z 00000001800888b0 f i libucrtd:output.obj
 0001:00087950       ?type_case_s_compute_narrow_string_length@?$output_processor@_WV?$string_output_adapter@_W@__crt_stdio_output@@V?$standard_base@_WV?$string_output_adapter@_W@__crt_stdio_output@@@2@@__crt_stdio_output@@AEAAHH_W@Z 0000000180088950 f i libucrtd:output.obj
 0001:000879f0       ?type_case_u@?$output_processor@DV?$stream_output_adapter@D@__crt_stdio_output@@V?$format_validation_base@DV?$stream_output_adapter@D@__crt_stdio_output@@@2@@__crt_stdio_output@@AEAA_NXZ 00000001800889f0 f i libucrtd:output.obj
 0001:00087a10       ?type_case_u@?$output_processor@DV?$stream_output_adapter@D@__crt_stdio_output@@V?$positional_parameter_base@DV?$stream_output_adapter@D@__crt_stdio_output@@@2@@__crt_stdio_output@@AEAA_NXZ 0000000180088a10 f i libucrtd:output.obj
 0001:00087a30       ?type_case_u@?$output_processor@DV?$stream_output_adapter@D@__crt_stdio_output@@V?$standard_base@DV?$stream_output_adapter@D@__crt_stdio_output@@@2@@__crt_stdio_output@@AEAA_NXZ 0000000180088a30 f i libucrtd:output.obj
 0001:00087a50       ?type_case_u@?$output_processor@DV?$string_output_adapter@D@__crt_stdio_output@@V?$format_validation_base@DV?$string_output_adapter@D@__crt_stdio_output@@@2@@__crt_stdio_output@@AEAA_NXZ 0000000180088a50 f i libucrtd:output.obj
 0001:00087a70       ?type_case_u@?$output_processor@DV?$string_output_adapter@D@__crt_stdio_output@@V?$positional_parameter_base@DV?$string_output_adapter@D@__crt_stdio_output@@@2@@__crt_stdio_output@@AEAA_NXZ 0000000180088a70 f i libucrtd:output.obj
 0001:00087a90       ?type_case_u@?$output_processor@DV?$string_output_adapter@D@__crt_stdio_output@@V?$standard_base@DV?$string_output_adapter@D@__crt_stdio_output@@@2@@__crt_stdio_output@@AEAA_NXZ 0000000180088a90 f i libucrtd:output.obj
 0001:00087ab0       ?type_case_u@?$output_processor@_WV?$stream_output_adapter@_W@__crt_stdio_output@@V?$format_validation_base@_WV?$stream_output_adapter@_W@__crt_stdio_output@@@2@@__crt_stdio_output@@AEAA_NXZ 0000000180088ab0 f i libucrtd:output.obj
 0001:00087ad0       ?type_case_u@?$output_processor@_WV?$stream_output_adapter@_W@__crt_stdio_output@@V?$positional_parameter_base@_WV?$stream_output_adapter@_W@__crt_stdio_output@@@2@@__crt_stdio_output@@AEAA_NXZ 0000000180088ad0 f i libucrtd:output.obj
 0001:00087af0       ?type_case_u@?$output_processor@_WV?$stream_output_adapter@_W@__crt_stdio_output@@V?$standard_base@_WV?$stream_output_adapter@_W@__crt_stdio_output@@@2@@__crt_stdio_output@@AEAA_NXZ 0000000180088af0 f i libucrtd:output.obj
 0001:00087b10       ?type_case_u@?$output_processor@_WV?$string_output_adapter@_W@__crt_stdio_output@@V?$format_validation_base@_WV?$string_output_adapter@_W@__crt_stdio_output@@@2@@__crt_stdio_output@@AEAA_NXZ 0000000180088b10 f i libucrtd:output.obj
 0001:00087b30       ?type_case_u@?$output_processor@_WV?$string_output_adapter@_W@__crt_stdio_output@@V?$positional_parameter_base@_WV?$string_output_adapter@_W@__crt_stdio_output@@@2@@__crt_stdio_output@@AEAA_NXZ 0000000180088b30 f i libucrtd:output.obj
 0001:00087b50       ?type_case_u@?$output_processor@_WV?$string_output_adapter@_W@__crt_stdio_output@@V?$standard_base@_WV?$string_output_adapter@_W@__crt_stdio_output@@@2@@__crt_stdio_output@@AEAA_NXZ 0000000180088b50 f i libucrtd:output.obj
 0001:00087b70       ?type_case_x@?$output_processor@DV?$stream_output_adapter@D@__crt_stdio_output@@V?$format_validation_base@DV?$stream_output_adapter@D@__crt_stdio_output@@@2@@__crt_stdio_output@@AEAA_NXZ 0000000180088b70 f i libucrtd:output.obj
 0001:00087b90       ?type_case_x@?$output_processor@DV?$stream_output_adapter@D@__crt_stdio_output@@V?$positional_parameter_base@DV?$stream_output_adapter@D@__crt_stdio_output@@@2@@__crt_stdio_output@@AEAA_NXZ 0000000180088b90 f i libucrtd:output.obj
 0001:00087bb0       ?type_case_x@?$output_processor@DV?$stream_output_adapter@D@__crt_stdio_output@@V?$standard_base@DV?$stream_output_adapter@D@__crt_stdio_output@@@2@@__crt_stdio_output@@AEAA_NXZ 0000000180088bb0 f i libucrtd:output.obj
 0001:00087bd0       ?type_case_x@?$output_processor@DV?$string_output_adapter@D@__crt_stdio_output@@V?$format_validation_base@DV?$string_output_adapter@D@__crt_stdio_output@@@2@@__crt_stdio_output@@AEAA_NXZ 0000000180088bd0 f i libucrtd:output.obj
 0001:00087bf0       ?type_case_x@?$output_processor@DV?$string_output_adapter@D@__crt_stdio_output@@V?$positional_parameter_base@DV?$string_output_adapter@D@__crt_stdio_output@@@2@@__crt_stdio_output@@AEAA_NXZ 0000000180088bf0 f i libucrtd:output.obj
 0001:00087c10       ?type_case_x@?$output_processor@DV?$string_output_adapter@D@__crt_stdio_output@@V?$standard_base@DV?$string_output_adapter@D@__crt_stdio_output@@@2@@__crt_stdio_output@@AEAA_NXZ 0000000180088c10 f i libucrtd:output.obj
 0001:00087c30       ?type_case_x@?$output_processor@_WV?$stream_output_adapter@_W@__crt_stdio_output@@V?$format_validation_base@_WV?$stream_output_adapter@_W@__crt_stdio_output@@@2@@__crt_stdio_output@@AEAA_NXZ 0000000180088c30 f i libucrtd:output.obj
 0001:00087c50       ?type_case_x@?$output_processor@_WV?$stream_output_adapter@_W@__crt_stdio_output@@V?$positional_parameter_base@_WV?$stream_output_adapter@_W@__crt_stdio_output@@@2@@__crt_stdio_output@@AEAA_NXZ 0000000180088c50 f i libucrtd:output.obj
 0001:00087c70       ?type_case_x@?$output_processor@_WV?$stream_output_adapter@_W@__crt_stdio_output@@V?$standard_base@_WV?$stream_output_adapter@_W@__crt_stdio_output@@@2@@__crt_stdio_output@@AEAA_NXZ 0000000180088c70 f i libucrtd:output.obj
 0001:00087c90       ?type_case_x@?$output_processor@_WV?$string_output_adapter@_W@__crt_stdio_output@@V?$format_validation_base@_WV?$string_output_adapter@_W@__crt_stdio_output@@@2@@__crt_stdio_output@@AEAA_NXZ 0000000180088c90 f i libucrtd:output.obj
 0001:00087cb0       ?type_case_x@?$output_processor@_WV?$string_output_adapter@_W@__crt_stdio_output@@V?$positional_parameter_base@_WV?$string_output_adapter@_W@__crt_stdio_output@@@2@@__crt_stdio_output@@AEAA_NXZ 0000000180088cb0 f i libucrtd:output.obj
 0001:00087cd0       ?type_case_x@?$output_processor@_WV?$string_output_adapter@_W@__crt_stdio_output@@V?$standard_base@_WV?$string_output_adapter@_W@__crt_stdio_output@@@2@@__crt_stdio_output@@AEAA_NXZ 0000000180088cd0 f i libucrtd:output.obj
 0001:00087cf0       ?unget@?$c_string_character_source@D@__crt_strtox@@QEAAXD@Z 0000000180088cf0 f i libucrtd:output.obj
 0001:00087dd0       ?unget@?$c_string_character_source@_W@__crt_strtox@@QEAAX_W@Z 0000000180088dd0 f i libucrtd:output.obj
 0001:00087eb0       ?unsafe_value@?$cached@H@__crt_cached_ptd_host@@QEAAHXZ 0000000180088eb0 f i libucrtd:output.obj
 0001:00087ec0       ?unsafe_value@?$cached@K@__crt_cached_ptd_host@@QEAAKXZ 0000000180088ec0 f i libucrtd:output.obj
 0001:00087ed0       ?unset_flag@?$output_processor@DV?$stream_output_adapter@D@__crt_stdio_output@@V?$format_validation_base@DV?$stream_output_adapter@D@__crt_stdio_output@@@2@@__crt_stdio_output@@AEAAXI@Z 0000000180088ed0 f i libucrtd:output.obj
 0001:00087f00       ?unset_flag@?$output_processor@DV?$stream_output_adapter@D@__crt_stdio_output@@V?$positional_parameter_base@DV?$stream_output_adapter@D@__crt_stdio_output@@@2@@__crt_stdio_output@@AEAAXI@Z 0000000180088f00 f i libucrtd:output.obj
 0001:00087f30       ?unset_flag@?$output_processor@DV?$stream_output_adapter@D@__crt_stdio_output@@V?$standard_base@DV?$stream_output_adapter@D@__crt_stdio_output@@@2@@__crt_stdio_output@@AEAAXI@Z 0000000180088f30 f i libucrtd:output.obj
 0001:00087f60       ?unset_flag@?$output_processor@DV?$string_output_adapter@D@__crt_stdio_output@@V?$format_validation_base@DV?$string_output_adapter@D@__crt_stdio_output@@@2@@__crt_stdio_output@@AEAAXI@Z 0000000180088f60 f i libucrtd:output.obj
 0001:00087f90       ?unset_flag@?$output_processor@DV?$string_output_adapter@D@__crt_stdio_output@@V?$positional_parameter_base@DV?$string_output_adapter@D@__crt_stdio_output@@@2@@__crt_stdio_output@@AEAAXI@Z 0000000180088f90 f i libucrtd:output.obj
 0001:00087fc0       ?unset_flag@?$output_processor@DV?$string_output_adapter@D@__crt_stdio_output@@V?$standard_base@DV?$string_output_adapter@D@__crt_stdio_output@@@2@@__crt_stdio_output@@AEAAXI@Z 0000000180088fc0 f i libucrtd:output.obj
 0001:00087ff0       ?unset_flag@?$output_processor@_WV?$stream_output_adapter@_W@__crt_stdio_output@@V?$format_validation_base@_WV?$stream_output_adapter@_W@__crt_stdio_output@@@2@@__crt_stdio_output@@AEAAXI@Z 0000000180088ff0 f i libucrtd:output.obj
 0001:00088020       ?unset_flag@?$output_processor@_WV?$stream_output_adapter@_W@__crt_stdio_output@@V?$positional_parameter_base@_WV?$stream_output_adapter@_W@__crt_stdio_output@@@2@@__crt_stdio_output@@AEAAXI@Z 0000000180089020 f i libucrtd:output.obj
 0001:00088050       ?unset_flag@?$output_processor@_WV?$stream_output_adapter@_W@__crt_stdio_output@@V?$standard_base@_WV?$stream_output_adapter@_W@__crt_stdio_output@@@2@@__crt_stdio_output@@AEAAXI@Z 0000000180089050 f i libucrtd:output.obj
 0001:00088080       ?unset_flag@?$output_processor@_WV?$string_output_adapter@_W@__crt_stdio_output@@V?$format_validation_base@_WV?$string_output_adapter@_W@__crt_stdio_output@@@2@@__crt_stdio_output@@AEAAXI@Z 0000000180089080 f i libucrtd:output.obj
 0001:000880b0       ?unset_flag@?$output_processor@_WV?$string_output_adapter@_W@__crt_stdio_output@@V?$positional_parameter_base@_WV?$string_output_adapter@_W@__crt_stdio_output@@@2@@__crt_stdio_output@@AEAAXI@Z 00000001800890b0 f i libucrtd:output.obj
 0001:000880e0       ?unset_flag@?$output_processor@_WV?$string_output_adapter@_W@__crt_stdio_output@@V?$standard_base@_WV?$string_output_adapter@_W@__crt_stdio_output@@@2@@__crt_stdio_output@@AEAAXI@Z 00000001800890e0 f i libucrtd:output.obj
 0001:00088110       ?update_field_width@?$positional_parameter_base@DV?$stream_output_adapter@D@__crt_stdio_output@@@__crt_stdio_output@@IEAA_NXZ 0000000180089110 f i libucrtd:output.obj
 0001:00088310       ?update_field_width@?$positional_parameter_base@DV?$string_output_adapter@D@__crt_stdio_output@@@__crt_stdio_output@@IEAA_NXZ 0000000180089310 f i libucrtd:output.obj
 0001:00088510       ?update_field_width@?$positional_parameter_base@_WV?$stream_output_adapter@_W@__crt_stdio_output@@@__crt_stdio_output@@IEAA_NXZ 0000000180089510 f i libucrtd:output.obj
 0001:00088710       ?update_field_width@?$positional_parameter_base@_WV?$string_output_adapter@_W@__crt_stdio_output@@@__crt_stdio_output@@IEAA_NXZ 0000000180089710 f i libucrtd:output.obj
 0001:00088910       ?update_field_width@?$standard_base@DV?$stream_output_adapter@D@__crt_stdio_output@@@__crt_stdio_output@@IEAA_NXZ 0000000180089910 f i libucrtd:output.obj
 0001:00088940       ?update_field_width@?$standard_base@DV?$string_output_adapter@D@__crt_stdio_output@@@__crt_stdio_output@@IEAA_NXZ 0000000180089940 f i libucrtd:output.obj
 0001:00088970       ?update_field_width@?$standard_base@_WV?$stream_output_adapter@_W@__crt_stdio_output@@@__crt_stdio_output@@IEAA_NXZ 0000000180089970 f i libucrtd:output.obj
 0001:000889a0       ?update_field_width@?$standard_base@_WV?$string_output_adapter@_W@__crt_stdio_output@@@__crt_stdio_output@@IEAA_NXZ 00000001800899a0 f i libucrtd:output.obj
 0001:000889d0       ?update_locale@__crt_cached_ptd_host@@AEAAXXZ 00000001800899d0 f i libucrtd:output.obj
 0001:00088a00       ?update_locale_slow@__crt_cached_ptd_host@@AEAAXXZ 0000000180089a00 f i libucrtd:output.obj
 0001:00088ab0       ?update_precision@?$positional_parameter_base@DV?$stream_output_adapter@D@__crt_stdio_output@@@__crt_stdio_output@@IEAA_NXZ 0000000180089ab0 f i libucrtd:output.obj
 0001:00088cb0       ?update_precision@?$positional_parameter_base@DV?$string_output_adapter@D@__crt_stdio_output@@@__crt_stdio_output@@IEAA_NXZ 0000000180089cb0 f i libucrtd:output.obj
 0001:00088eb0       ?update_precision@?$positional_parameter_base@_WV?$stream_output_adapter@_W@__crt_stdio_output@@@__crt_stdio_output@@IEAA_NXZ 0000000180089eb0 f i libucrtd:output.obj
 0001:000890b0       ?update_precision@?$positional_parameter_base@_WV?$string_output_adapter@_W@__crt_stdio_output@@@__crt_stdio_output@@IEAA_NXZ 000000018008a0b0 f i libucrtd:output.obj
 0001:000892b0       ?update_precision@?$standard_base@DV?$stream_output_adapter@D@__crt_stdio_output@@@__crt_stdio_output@@IEAA_NXZ 000000018008a2b0 f i libucrtd:output.obj
 0001:000892e0       ?update_precision@?$standard_base@DV?$string_output_adapter@D@__crt_stdio_output@@@__crt_stdio_output@@IEAA_NXZ 000000018008a2e0 f i libucrtd:output.obj
 0001:00089310       ?update_precision@?$standard_base@_WV?$stream_output_adapter@_W@__crt_stdio_output@@@__crt_stdio_output@@IEAA_NXZ 000000018008a310 f i libucrtd:output.obj
 0001:00089340       ?update_precision@?$standard_base@_WV?$string_output_adapter@_W@__crt_stdio_output@@@__crt_stdio_output@@IEAA_NXZ 000000018008a340 f i libucrtd:output.obj
 0001:00089370       ?valid@?$cached@H@__crt_cached_ptd_host@@QEBA_NXZ 000000018008a370 f i libucrtd:output.obj
 0001:00089380       ?valid@?$cached@K@__crt_cached_ptd_host@@QEBA_NXZ 000000018008a380 f i libucrtd:output.obj
 0001:00089390       ?valid@__crt_stdio_stream@@QEBA_NXZ 000000018008a390 f i libucrtd:output.obj
 0001:000893c0       ?validate@?$c_string_character_source@D@__crt_strtox@@QEBA_NXZ 000000018008a3c0 f i libucrtd:output.obj
 0001:00089480       ?validate@?$c_string_character_source@_W@__crt_strtox@@QEBA_NXZ 000000018008a480 f i libucrtd:output.obj
 0001:00089540       ?validate@?$stream_output_adapter@D@__crt_stdio_output@@QEBA_NAEAV__crt_cached_ptd_host@@@Z 000000018008a540 f i libucrtd:output.obj
 0001:00089640       ?validate@?$stream_output_adapter@_W@__crt_stdio_output@@QEBA_NAEAV__crt_cached_ptd_host@@@Z 000000018008a640 f i libucrtd:output.obj
 0001:00089740       ?validate@?$string_output_adapter@D@__crt_stdio_output@@QEBA_NAEAV__crt_cached_ptd_host@@@Z 000000018008a740 f i libucrtd:output.obj
 0001:00089820       ?validate@?$string_output_adapter@_W@__crt_stdio_output@@QEBA_NAEAV__crt_cached_ptd_host@@@Z 000000018008a820 f i libucrtd:output.obj
 0001:00089900       ?validate_and_store_parameter_data@?$positional_parameter_base@DV?$stream_output_adapter@D@__crt_stdio_output@@@__crt_stdio_output@@AEAA_NAEAUparameter_data@12@W4parameter_type@12@DW4length_modifier@2@@Z 000000018008a900 f i libucrtd:output.obj
 0001:00089a40       ?validate_and_store_parameter_data@?$positional_parameter_base@DV?$string_output_adapter@D@__crt_stdio_output@@@__crt_stdio_output@@AEAA_NAEAUparameter_data@12@W4parameter_type@12@DW4length_modifier@2@@Z 000000018008aa40 f i libucrtd:output.obj
 0001:00089b80       ?validate_and_store_parameter_data@?$positional_parameter_base@_WV?$stream_output_adapter@_W@__crt_stdio_output@@@__crt_stdio_output@@AEAA_NAEAUparameter_data@12@W4parameter_type@12@_WW4length_modifier@2@@Z 000000018008ab80 f i libucrtd:output.obj
 0001:00089cc0       ?validate_and_store_parameter_data@?$positional_parameter_base@_WV?$string_output_adapter@_W@__crt_stdio_output@@@__crt_stdio_output@@AEAA_NAEAUparameter_data@12@W4parameter_type@12@_WW4length_modifier@2@@Z 000000018008acc0 f i libucrtd:output.obj
 0001:00089e00       ?validate_and_update_state_at_beginning_of_format_character@?$positional_parameter_base@DV?$stream_output_adapter@D@__crt_stdio_output@@@__crt_stdio_output@@IEAA_NXZ 000000018008ae00 f i libucrtd:output.obj
 0001:0008a0a0       ?validate_and_update_state_at_beginning_of_format_character@?$positional_parameter_base@DV?$string_output_adapter@D@__crt_stdio_output@@@__crt_stdio_output@@IEAA_NXZ 000000018008b0a0 f i libucrtd:output.obj
 0001:0008a340       ?validate_and_update_state_at_beginning_of_format_character@?$positional_parameter_base@_WV?$stream_output_adapter@_W@__crt_stdio_output@@@__crt_stdio_output@@IEAA_NXZ 000000018008b340 f i libucrtd:output.obj
 0001:0008a5e0       ?validate_and_update_state_at_beginning_of_format_character@?$positional_parameter_base@_WV?$string_output_adapter@_W@__crt_stdio_output@@@__crt_stdio_output@@IEAA_NXZ 000000018008b5e0 f i libucrtd:output.obj
 0001:0008a880       ?validate_and_update_state_at_beginning_of_format_character@?$standard_base@DV?$stream_output_adapter@D@__crt_stdio_output@@@__crt_stdio_output@@IEAA_NXZ 000000018008b880 f i libucrtd:output.obj
 0001:0008a890       ?validate_and_update_state_at_beginning_of_format_character@?$standard_base@DV?$string_output_adapter@D@__crt_stdio_output@@@__crt_stdio_output@@IEAA_NXZ 000000018008b890 f i libucrtd:output.obj
 0001:0008a8a0       ?validate_and_update_state_at_beginning_of_format_character@?$standard_base@_WV?$stream_output_adapter@_W@__crt_stdio_output@@@__crt_stdio_output@@IEAA_NXZ 000000018008b8a0 f i libucrtd:output.obj
 0001:0008a8b0       ?validate_and_update_state_at_beginning_of_format_character@?$standard_base@_WV?$string_output_adapter@_W@__crt_stdio_output@@@__crt_stdio_output@@IEAA_NXZ 000000018008b8b0 f i libucrtd:output.obj
 0001:0008a8c0       ?validate_and_update_state_at_end_of_format_string@?$format_validation_base@DV?$stream_output_adapter@D@__crt_stdio_output@@@__crt_stdio_output@@IEAA_NXZ 000000018008b8c0 f i libucrtd:output.obj
 0001:0008a9b0       ?validate_and_update_state_at_end_of_format_string@?$format_validation_base@DV?$string_output_adapter@D@__crt_stdio_output@@@__crt_stdio_output@@IEAA_NXZ 000000018008b9b0 f i libucrtd:output.obj
 0001:0008aaa0       ?validate_and_update_state_at_end_of_format_string@?$format_validation_base@_WV?$stream_output_adapter@_W@__crt_stdio_output@@@__crt_stdio_output@@IEAA_NXZ 000000018008baa0 f i libucrtd:output.obj
 0001:0008ab90       ?validate_and_update_state_at_end_of_format_string@?$format_validation_base@_WV?$string_output_adapter@_W@__crt_stdio_output@@@__crt_stdio_output@@IEAA_NXZ 000000018008bb90 f i libucrtd:output.obj
 0001:0008ac80       ?validate_and_update_state_at_end_of_format_string@?$positional_parameter_base@DV?$stream_output_adapter@D@__crt_stdio_output@@@__crt_stdio_output@@IEAA_NXZ 000000018008bc80 f i libucrtd:output.obj
 0001:0008aeb0       ?validate_and_update_state_at_end_of_format_string@?$positional_parameter_base@DV?$string_output_adapter@D@__crt_stdio_output@@@__crt_stdio_output@@IEAA_NXZ 000000018008beb0 f i libucrtd:output.obj
 0001:0008b0e0       ?validate_and_update_state_at_end_of_format_string@?$positional_parameter_base@_WV?$stream_output_adapter@_W@__crt_stdio_output@@@__crt_stdio_output@@IEAA_NXZ 000000018008c0e0 f i libucrtd:output.obj
 0001:0008b310       ?validate_and_update_state_at_end_of_format_string@?$positional_parameter_base@_WV?$string_output_adapter@_W@__crt_stdio_output@@@__crt_stdio_output@@IEAA_NXZ 000000018008c310 f i libucrtd:output.obj
 0001:0008b540       ?validate_and_update_state_at_end_of_format_string@?$standard_base@DV?$stream_output_adapter@D@__crt_stdio_output@@@__crt_stdio_output@@IEBA_NXZ 000000018008c540 f i libucrtd:output.obj
 0001:0008b550       ?validate_and_update_state_at_end_of_format_string@?$standard_base@DV?$string_output_adapter@D@__crt_stdio_output@@@__crt_stdio_output@@IEBA_NXZ 000000018008c550 f i libucrtd:output.obj
 0001:0008b560       ?validate_and_update_state_at_end_of_format_string@?$standard_base@_WV?$stream_output_adapter@_W@__crt_stdio_output@@@__crt_stdio_output@@IEBA_NXZ 000000018008c560 f i libucrtd:output.obj
 0001:0008b570       ?validate_and_update_state_at_end_of_format_string@?$standard_base@_WV?$string_output_adapter@_W@__crt_stdio_output@@@__crt_stdio_output@@IEBA_NXZ 000000018008c570 f i libucrtd:output.obj
 0001:0008b580       ?validate_state_for_type_case_a@?$positional_parameter_base@DV?$stream_output_adapter@D@__crt_stdio_output@@@__crt_stdio_output@@IEAA_NXZ 000000018008c580 f i libucrtd:output.obj
 0001:0008b6e0       ?validate_state_for_type_case_a@?$positional_parameter_base@DV?$string_output_adapter@D@__crt_stdio_output@@@__crt_stdio_output@@IEAA_NXZ 000000018008c6e0 f i libucrtd:output.obj
 0001:0008b840       ?validate_state_for_type_case_a@?$positional_parameter_base@_WV?$stream_output_adapter@_W@__crt_stdio_output@@@__crt_stdio_output@@IEAA_NXZ 000000018008c840 f i libucrtd:output.obj
 0001:0008b9a0       ?validate_state_for_type_case_a@?$positional_parameter_base@_WV?$string_output_adapter@_W@__crt_stdio_output@@@__crt_stdio_output@@IEAA_NXZ 000000018008c9a0 f i libucrtd:output.obj
 0001:0008bb00       ?validate_state_for_type_case_a@?$standard_base@DV?$stream_output_adapter@D@__crt_stdio_output@@@__crt_stdio_output@@IEBA_NXZ 000000018008cb00 f i libucrtd:output.obj
 0001:0008bb10       ?validate_state_for_type_case_a@?$standard_base@DV?$string_output_adapter@D@__crt_stdio_output@@@__crt_stdio_output@@IEBA_NXZ 000000018008cb10 f i libucrtd:output.obj
 0001:0008bb20       ?validate_state_for_type_case_a@?$standard_base@_WV?$stream_output_adapter@_W@__crt_stdio_output@@@__crt_stdio_output@@IEBA_NXZ 000000018008cb20 f i libucrtd:output.obj
 0001:0008bb30       ?validate_state_for_type_case_a@?$standard_base@_WV?$string_output_adapter@_W@__crt_stdio_output@@@__crt_stdio_output@@IEBA_NXZ 000000018008cb30 f i libucrtd:output.obj
 0001:0008bb40       ?validate_stream_is_ansi_if_required@?$__acrt_stdio_char_traits@D@@SA_NQEAU_iobuf@@@Z 000000018008cb40 f i libucrtd:output.obj
 0001:0008bcd0       ?validate_stream_is_ansi_if_required@?$__acrt_stdio_char_traits@_W@@SA_NQEAU_iobuf@@@Z 000000018008ccd0 f i libucrtd:output.obj
 0001:0008bce0       ?wide_character_to_digit@__crt_strtox@@YAH_W@Z 000000018008cce0 f i libucrtd:output.obj
 0001:0008c050       ?wide_null_string@?$output_processor@DV?$stream_output_adapter@D@__crt_stdio_output@@V?$format_validation_base@DV?$stream_output_adapter@D@__crt_stdio_output@@@2@@__crt_stdio_output@@CAPEA_WXZ 000000018008d050 f i libucrtd:output.obj
 0001:0008c060       ?wide_null_string@?$output_processor@DV?$stream_output_adapter@D@__crt_stdio_output@@V?$positional_parameter_base@DV?$stream_output_adapter@D@__crt_stdio_output@@@2@@__crt_stdio_output@@CAPEA_WXZ 000000018008d060 f i libucrtd:output.obj
 0001:0008c070       ?wide_null_string@?$output_processor@DV?$stream_output_adapter@D@__crt_stdio_output@@V?$standard_base@DV?$stream_output_adapter@D@__crt_stdio_output@@@2@@__crt_stdio_output@@CAPEA_WXZ 000000018008d070 f i libucrtd:output.obj
 0001:0008c080       ?wide_null_string@?$output_processor@DV?$string_output_adapter@D@__crt_stdio_output@@V?$format_validation_base@DV?$string_output_adapter@D@__crt_stdio_output@@@2@@__crt_stdio_output@@CAPEA_WXZ 000000018008d080 f i libucrtd:output.obj
 0001:0008c090       ?wide_null_string@?$output_processor@DV?$string_output_adapter@D@__crt_stdio_output@@V?$positional_parameter_base@DV?$string_output_adapter@D@__crt_stdio_output@@@2@@__crt_stdio_output@@CAPEA_WXZ 000000018008d090 f i libucrtd:output.obj
 0001:0008c0a0       ?wide_null_string@?$output_processor@DV?$string_output_adapter@D@__crt_stdio_output@@V?$standard_base@DV?$string_output_adapter@D@__crt_stdio_output@@@2@@__crt_stdio_output@@CAPEA_WXZ 000000018008d0a0 f i libucrtd:output.obj
 0001:0008c0b0       ?wide_null_string@?$output_processor@_WV?$stream_output_adapter@_W@__crt_stdio_output@@V?$format_validation_base@_WV?$stream_output_adapter@_W@__crt_stdio_output@@@2@@__crt_stdio_output@@CAPEA_WXZ 000000018008d0b0 f i libucrtd:output.obj
 0001:0008c0c0       ?wide_null_string@?$output_processor@_WV?$stream_output_adapter@_W@__crt_stdio_output@@V?$positional_parameter_base@_WV?$stream_output_adapter@_W@__crt_stdio_output@@@2@@__crt_stdio_output@@CAPEA_WXZ 000000018008d0c0 f i libucrtd:output.obj
 0001:0008c0d0       ?wide_null_string@?$output_processor@_WV?$stream_output_adapter@_W@__crt_stdio_output@@V?$standard_base@_WV?$stream_output_adapter@_W@__crt_stdio_output@@@2@@__crt_stdio_output@@CAPEA_WXZ 000000018008d0d0 f i libucrtd:output.obj
 0001:0008c0e0       ?wide_null_string@?$output_processor@_WV?$string_output_adapter@_W@__crt_stdio_output@@V?$format_validation_base@_WV?$string_output_adapter@_W@__crt_stdio_output@@@2@@__crt_stdio_output@@CAPEA_WXZ 000000018008d0e0 f i libucrtd:output.obj
 0001:0008c0f0       ?wide_null_string@?$output_processor@_WV?$string_output_adapter@_W@__crt_stdio_output@@V?$positional_parameter_base@_WV?$string_output_adapter@_W@__crt_stdio_output@@@2@@__crt_stdio_output@@CAPEA_WXZ 000000018008d0f0 f i libucrtd:output.obj
 0001:0008c100       ?wide_null_string@?$output_processor@_WV?$string_output_adapter@_W@__crt_stdio_output@@V?$standard_base@_WV?$string_output_adapter@_W@__crt_stdio_output@@@2@@__crt_stdio_output@@CAPEA_WXZ 000000018008d100 f i libucrtd:output.obj
 0001:0008c110       ?write_character@?$output_adapter_common@DV?$stream_output_adapter@D@__crt_stdio_output@@@__crt_stdio_output@@QEBAXDQEAHAEAV__crt_cached_ptd_host@@@Z 000000018008d110 f i libucrtd:output.obj
 0001:0008c170       ?write_character@?$output_adapter_common@_WV?$stream_output_adapter@_W@__crt_stdio_output@@@__crt_stdio_output@@QEBAX_WQEAHAEAV__crt_cached_ptd_host@@@Z 000000018008d170 f i libucrtd:output.obj
 0001:0008c1d0       ?write_character@?$string_output_adapter@D@__crt_stdio_output@@QEBA_NDQEAHAEAV__crt_cached_ptd_host@@@Z 000000018008d1d0 f i libucrtd:output.obj
 0001:0008c2a0       ?write_character@?$string_output_adapter@_W@__crt_stdio_output@@QEBA_N_WQEAHAEAV__crt_cached_ptd_host@@@Z 000000018008d2a0 f i libucrtd:output.obj
 0001:0008c370       ?write_character_without_count_update@?$stream_output_adapter@D@__crt_stdio_output@@QEBA_NDAEAV__crt_cached_ptd_host@@@Z 000000018008d370 f i libucrtd:output.obj
 0001:0008c400       ?write_character_without_count_update@?$stream_output_adapter@_W@__crt_stdio_output@@QEBA_N_WAEAV__crt_cached_ptd_host@@@Z 000000018008d400 f i libucrtd:output.obj
 0001:0008c490       ?write_stored_string_tchar@?$output_processor@DV?$stream_output_adapter@D@__crt_stdio_output@@V?$format_validation_base@DV?$stream_output_adapter@D@__crt_stdio_output@@@2@@__crt_stdio_output@@AEAA_ND@Z 000000018008d490 f i libucrtd:output.obj
 0001:0008c640       ?write_stored_string_tchar@?$output_processor@DV?$stream_output_adapter@D@__crt_stdio_output@@V?$positional_parameter_base@DV?$stream_output_adapter@D@__crt_stdio_output@@@2@@__crt_stdio_output@@AEAA_ND@Z 000000018008d640 f i libucrtd:output.obj
 0001:0008c7f0       ?write_stored_string_tchar@?$output_processor@DV?$stream_output_adapter@D@__crt_stdio_output@@V?$standard_base@DV?$stream_output_adapter@D@__crt_stdio_output@@@2@@__crt_stdio_output@@AEAA_ND@Z 000000018008d7f0 f i libucrtd:output.obj
 0001:0008c9a0       ?write_stored_string_tchar@?$output_processor@DV?$string_output_adapter@D@__crt_stdio_output@@V?$format_validation_base@DV?$string_output_adapter@D@__crt_stdio_output@@@2@@__crt_stdio_output@@AEAA_ND@Z 000000018008d9a0 f i libucrtd:output.obj
 0001:0008cb50       ?write_stored_string_tchar@?$output_processor@DV?$string_output_adapter@D@__crt_stdio_output@@V?$positional_parameter_base@DV?$string_output_adapter@D@__crt_stdio_output@@@2@@__crt_stdio_output@@AEAA_ND@Z 000000018008db50 f i libucrtd:output.obj
 0001:0008cd00       ?write_stored_string_tchar@?$output_processor@DV?$string_output_adapter@D@__crt_stdio_output@@V?$standard_base@DV?$string_output_adapter@D@__crt_stdio_output@@@2@@__crt_stdio_output@@AEAA_ND@Z 000000018008dd00 f i libucrtd:output.obj
 0001:0008ceb0       ?write_stored_string_tchar@?$output_processor@_WV?$stream_output_adapter@_W@__crt_stdio_output@@V?$format_validation_base@_WV?$stream_output_adapter@_W@__crt_stdio_output@@@2@@__crt_stdio_output@@AEAA_N_W@Z 000000018008deb0 f i libucrtd:output.obj
 0001:0008d010       ?write_stored_string_tchar@?$output_processor@_WV?$stream_output_adapter@_W@__crt_stdio_output@@V?$positional_parameter_base@_WV?$stream_output_adapter@_W@__crt_stdio_output@@@2@@__crt_stdio_output@@AEAA_N_W@Z 000000018008e010 f i libucrtd:output.obj
 0001:0008d170       ?write_stored_string_tchar@?$output_processor@_WV?$stream_output_adapter@_W@__crt_stdio_output@@V?$standard_base@_WV?$stream_output_adapter@_W@__crt_stdio_output@@@2@@__crt_stdio_output@@AEAA_N_W@Z 000000018008e170 f i libucrtd:output.obj
 0001:0008d2d0       ?write_stored_string_tchar@?$output_processor@_WV?$string_output_adapter@_W@__crt_stdio_output@@V?$format_validation_base@_WV?$string_output_adapter@_W@__crt_stdio_output@@@2@@__crt_stdio_output@@AEAA_N_W@Z 000000018008e2d0 f i libucrtd:output.obj
 0001:0008d430       ?write_stored_string_tchar@?$output_processor@_WV?$string_output_adapter@_W@__crt_stdio_output@@V?$positional_parameter_base@_WV?$string_output_adapter@_W@__crt_stdio_output@@@2@@__crt_stdio_output@@AEAA_N_W@Z 000000018008e430 f i libucrtd:output.obj
 0001:0008d590       ?write_stored_string_tchar@?$output_processor@_WV?$string_output_adapter@_W@__crt_stdio_output@@V?$standard_base@_WV?$string_output_adapter@_W@__crt_stdio_output@@@2@@__crt_stdio_output@@AEAA_N_W@Z 000000018008e590 f i libucrtd:output.obj
 0001:0008d6f0       ?write_string@?$stream_output_adapter@D@__crt_stdio_output@@QEBAXQEBDHQEAHAEAV__crt_cached_ptd_host@@@Z 000000018008e6f0 f i libucrtd:output.obj
 0001:0008d770       ?write_string@?$stream_output_adapter@_W@__crt_stdio_output@@QEBAXQEB_WHQEAHAEAV__crt_cached_ptd_host@@@Z 000000018008e770 f i libucrtd:output.obj
 0001:0008d7f0       ?write_string@?$string_output_adapter@D@__crt_stdio_output@@QEBAXQEBDHQEAHAEAV__crt_cached_ptd_host@@@Z 000000018008e7f0 f i libucrtd:output.obj
 0001:0008d960       ?write_string@?$string_output_adapter@_W@__crt_stdio_output@@QEBAXQEB_WHQEAHAEAV__crt_cached_ptd_host@@@Z 000000018008e960 f i libucrtd:output.obj
 0001:0008dad0       ?write_string_impl@?$output_adapter_common@DV?$stream_output_adapter@D@__crt_stdio_output@@@__crt_stdio_output@@IEBAXQEBDHQEAHAEAV__crt_cached_ptd_host@@@Z 000000018008ead0 f i libucrtd:output.obj
 0001:0008dbf0       ?write_string_impl@?$output_adapter_common@_WV?$stream_output_adapter@_W@__crt_stdio_output@@@__crt_stdio_output@@IEBAXQEB_WHQEAHAEAV__crt_cached_ptd_host@@@Z 000000018008ebf0 f i libucrtd:output.obj
 0001:0008dd10       __acrt_disable_global_locale_sync 000000018008ed10 f i libucrtd:output.obj
 0001:0008dd40       __acrt_enable_global_locale_sync 000000018008ed40 f i libucrtd:output.obj
 0001:0008dd70       __acrt_isleadbyte_l_noupdate 000000018008ed70 f i libucrtd:output.obj
 0001:0008dda0       __acrt_locale_changed      000000018008eda0 f i libucrtd:output.obj
 0001:0008ddd0       __acrt_locale_get_ctype_array_value 000000018008edd0 f i libucrtd:output.obj
 0001:0008de10       __ascii_iswalpha           000000018008ee10 f i libucrtd:output.obj
 0001:0008de50       __ascii_toupper            000000018008ee50 f i libucrtd:output.obj
 0001:0008de70       __ascii_towupper           000000018008ee70 f i libucrtd:output.obj
 0001:0008de90       __stdio_common_vfprintf    000000018008ee90 f   libucrtd:output.obj
 0001:0008df10       __stdio_common_vfprintf_p  000000018008ef10 f   libucrtd:output.obj
 0001:0008df90       __stdio_common_vfprintf_s  000000018008ef90 f   libucrtd:output.obj
 0001:0008e010       __stdio_common_vfwprintf   000000018008f010 f   libucrtd:output.obj
 0001:0008e090       __stdio_common_vfwprintf_p 000000018008f090 f   libucrtd:output.obj
 0001:0008e110       __stdio_common_vfwprintf_s 000000018008f110 f   libucrtd:output.obj
 0001:0008e190       __stdio_common_vsnprintf_s 000000018008f190 f   libucrtd:output.obj
 0001:0008e220       __stdio_common_vsnwprintf_s 000000018008f220 f   libucrtd:output.obj
 0001:0008e2b0       __stdio_common_vsprintf    000000018008f2b0 f   libucrtd:output.obj
 0001:0008e340       __stdio_common_vsprintf_p  000000018008f340 f   libucrtd:output.obj
 0001:0008e3d0       __stdio_common_vsprintf_s  000000018008f3d0 f   libucrtd:output.obj
 0001:0008e460       __stdio_common_vswprintf   000000018008f460 f   libucrtd:output.obj
 0001:0008e4f0       __stdio_common_vswprintf_p 000000018008f4f0 f   libucrtd:output.obj
 0001:0008e580       __stdio_common_vswprintf_s 000000018008f580 f   libucrtd:output.obj
 0001:0008e610       _ctype_fast_check_internal 000000018008f610 f i libucrtd:output.obj
 0001:0008e640       _isdigit_fast_internal     000000018008f640 f i libucrtd:output.obj
 0001:0008e670       _tolower_fast_internal     000000018008f670 f i libucrtd:output.obj
 0001:0008e6a0       free                       000000018008f6a0 f   libucrtd:free.obj
 0001:0008e6d0       malloc                     000000018008f6d0 f   libucrtd:malloc.obj
 0001:0008e700       ??$?RU?$__crt_report_hook_node@D@@@__crt_internal_free_policy@@QEBAXQEBU?$__crt_report_hook_node@D@@@Z 000000018008f700 f i libucrtd:dbgrpt.obj
 0001:0008e730       ??$?RU?$__crt_report_hook_node@_W@@@__crt_internal_free_policy@@QEBAXQEBU?$__crt_report_hook_node@_W@@@Z 000000018008f730 f i libucrtd:dbgrpt.obj
 0001:0008f990       ??$get_module_file_name@AEAPEAUHINSTANCE__@@AEAY0BAF@DK@?$__crt_char_traits@D@@SAKAEAPEAUHINSTANCE__@@AEAY0BAF@D$$QEAK@Z 0000000180090990 f i libucrtd:dbgrpt.obj
 0001:0008f9d0       ??$get_module_file_name@AEAPEAUHINSTANCE__@@AEAY0BAF@_WK@?$__crt_char_traits@_W@@SAKAEAPEAUHINSTANCE__@@AEAY0BAF@_W$$QEAK@Z 00000001800909d0 f i libucrtd:dbgrpt.obj
 0001:0008fa10       ??$tcscpy_s@AEAY0BAF@D_KPEBD@?$__crt_char_traits@D@@SAHAEAY0BAF@D$$QEA_K$$QEAPEBD@Z 0000000180090a10 f i libucrtd:dbgrpt.obj
 0001:0008fa50       ??$tcscpy_s@AEAY0BAF@_W_KPEB_W@?$__crt_char_traits@_W@@SAHAEAY0BAF@_W$$QEA_K$$QEAPEB_W@Z 0000000180090a50 f i libucrtd:dbgrpt.obj
 0001:0008fa90       ??$tcslen@AEAY0BAF@D@?$__crt_char_traits@D@@SA_KAEAY0BAF@D@Z 0000000180090a90 f i libucrtd:dbgrpt.obj
 0001:0008fab0       ??$tcslen@AEAY0BAF@_W@?$__crt_char_traits@_W@@SA_KAEAY0BAF@_W@Z 0000000180090ab0 f i libucrtd:dbgrpt.obj
 0001:0008fad0       ??$tcslen@AEBQEBD@?$__crt_char_traits@D@@SA_KAEBQEBD@Z 0000000180090ad0 f i libucrtd:dbgrpt.obj
 0001:0008faf0       ??$tcslen@AEBQEB_W@?$__crt_char_traits@_W@@SA_KAEBQEB_W@Z 0000000180090af0 f i libucrtd:dbgrpt.obj
 0001:0008fbf0       ??0?$__crt_unique_heap_ptr@U?$__crt_report_hook_node@D@@U__crt_internal_free_policy@@@@QEAA@QEAU?$__crt_report_hook_node@D@@@Z 0000000180090bf0 f i libucrtd:dbgrpt.obj
 0001:0008fc10       ??0?$__crt_unique_heap_ptr@U?$__crt_report_hook_node@_W@@U__crt_internal_free_policy@@@@QEAA@QEAU?$__crt_report_hook_node@_W@@@Z 0000000180090c10 f i libucrtd:dbgrpt.obj
 0001:0008fc30       ??1?$__crt_unique_heap_ptr@U?$__crt_report_hook_node@D@@U__crt_internal_free_policy@@@@QEAA@XZ 0000000180090c30 f i libucrtd:dbgrpt.obj
 0001:0008fc50       ??1?$__crt_unique_heap_ptr@U?$__crt_report_hook_node@_W@@U__crt_internal_free_policy@@@@QEAA@XZ 0000000180090c50 f i libucrtd:dbgrpt.obj
 0001:0008fc70       ??B?$__crt_unique_heap_ptr@U?$__crt_report_hook_node@D@@U__crt_internal_free_policy@@@@QEBA_NXZ 0000000180090c70 f i libucrtd:dbgrpt.obj
 0001:0008fc90       ??B?$__crt_unique_heap_ptr@U?$__crt_report_hook_node@_W@@U__crt_internal_free_policy@@@@QEBA_NXZ 0000000180090c90 f i libucrtd:dbgrpt.obj
 0001:000903b0       ?detach@?$__crt_unique_heap_ptr@U?$__crt_report_hook_node@D@@U__crt_internal_free_policy@@@@QEAAPEAU?$__crt_report_hook_node@D@@XZ 00000001800913b0 f i libucrtd:dbgrpt.obj
 0001:000903e0       ?detach@?$__crt_unique_heap_ptr@U?$__crt_report_hook_node@_W@@U__crt_internal_free_policy@@@@QEAAPEAU?$__crt_report_hook_node@_W@@XZ 00000001800913e0 f i libucrtd:dbgrpt.obj
 0001:00090410       ?get@?$__crt_unique_heap_ptr@U?$__crt_report_hook_node@D@@U__crt_internal_free_policy@@@@QEBAPEAU?$__crt_report_hook_node@D@@XZ 0000000180091410 f i libucrtd:dbgrpt.obj
 0001:00090420       ?get@?$__crt_unique_heap_ptr@U?$__crt_report_hook_node@_W@@U__crt_internal_free_policy@@@@QEBAPEAU?$__crt_report_hook_node@_W@@XZ 0000000180091420 f i libucrtd:dbgrpt.obj
 0001:00090490       ?is_valid@?$__crt_unique_heap_ptr@U?$__crt_report_hook_node@D@@U__crt_internal_free_policy@@@@QEBA_NXZ 0000000180091490 f i libucrtd:dbgrpt.obj
 0001:000904c0       ?is_valid@?$__crt_unique_heap_ptr@U?$__crt_report_hook_node@_W@@U__crt_internal_free_policy@@@@QEBA_NXZ 00000001800914c0 f i libucrtd:dbgrpt.obj
 0001:000904f0       ?release@?$__crt_unique_heap_ptr@U?$__crt_report_hook_node@D@@U__crt_internal_free_policy@@@@QEAAXXZ 00000001800914f0 f i libucrtd:dbgrpt.obj
 0001:00090520       ?release@?$__crt_unique_heap_ptr@U?$__crt_report_hook_node@_W@@U__crt_internal_free_policy@@@@QEAAXXZ 0000000180091520 f i libucrtd:dbgrpt.obj
 0001:00090550       _CrtDbgReport              0000000180091550 f   libucrtd:dbgrpt.obj
 0001:000905d0       _CrtDbgReportW             00000001800915d0 f   libucrtd:dbgrpt.obj
 0001:00090650       _CrtSetReportHook2         0000000180091650 f   libucrtd:dbgrpt.obj
 0001:00090670       _CrtSetReportHookW2        0000000180091670 f   libucrtd:dbgrpt.obj
 0001:00090690       __acrt_MessageWindowA      0000000180091690 f   libucrtd:dbgrpt.obj
 0001:000906e0       __acrt_MessageWindowW      00000001800916e0 f   libucrtd:dbgrpt.obj
 0001:00090730       _invoke_watson_if_error    0000000180091730 f i libucrtd:dbgrpt.obj
 0001:00090780       _invoke_watson_if_oneof    0000000180091780 f i libucrtd:dbgrpt.obj
 0001:000907e0       _snwprintf_s               00000001800917e0 f i libucrtd:dbgrpt.obj
 0001:00090850       _vsnwprintf_s_l            0000000180091850 f i libucrtd:dbgrpt.obj
 0001:00090dd0       wcscpy_s                   0000000180091dd0 f   libucrtd:wcscpy_s.obj
 0001:00092160       ??1?$__crt_simd_cleanup_guard@$00@@QEAA@XZ 0000000180093160 f i libucrtd:strnlen.obj
 0001:00092170       ??1?$__crt_simd_cleanup_guard@$0A@@@QEAA@XZ 0000000180093170 f i libucrtd:strnlen.obj
 0001:00092180       ?compare_equals@?$__crt_simd_traits@$00E@@SA?AT__m256i@@T2@0@Z 0000000180093180 f i libucrtd:strnlen.obj
 0001:000921c0       ?compare_equals@?$__crt_simd_traits@$00G@@SA?AT__m256i@@T2@0@Z 00000001800931c0 f i libucrtd:strnlen.obj
 0001:00092200       ?compare_equals@?$__crt_simd_traits@$0A@E@@SA?AT__m128i@@T2@0@Z 0000000180093200 f i libucrtd:strnlen.obj
 0001:00092230       ?compare_equals@?$__crt_simd_traits@$0A@G@@SA?AT__m128i@@T2@0@Z 0000000180093230 f i libucrtd:strnlen.obj
 0001:00092260       ?compute_byte_mask@?$__crt_simd_pack_traits@$00@@SAHT__m256i@@@Z 0000000180093260 f i libucrtd:strnlen.obj
 0001:00092280       ?compute_byte_mask@?$__crt_simd_pack_traits@$0A@@@SAHT__m128i@@@Z 0000000180093280 f i libucrtd:strnlen.obj
 0001:000922a0       ?get_zero_pack@?$__crt_simd_pack_traits@$00@@SA?AT__m256i@@XZ 00000001800932a0 f i libucrtd:strnlen.obj
 0001:000922d0       ?get_zero_pack@?$__crt_simd_pack_traits@$0A@@@SA?AT__m128i@@XZ 00000001800932d0 f i libucrtd:strnlen.obj
 0001:000922f0       strnlen                    00000001800932f0 f   libucrtd:strnlen.obj
 0001:00092320       wcslen                     0000000180093320 f   libucrtd:strnlen.obj
 0001:00092340       wcsnlen                    0000000180093340 f   libucrtd:strnlen.obj
 0001:00092370       ??$__crt_fast_decode_pointer@P6AXPEB_W00I_K@Z@@YAP6AXPEB_W00I_K@ZQ6AX000I1@Z@Z 0000000180093370 f i libucrtd:invalid_parameter.obj
 0001:000923b0       ??$__crt_fast_encode_pointer@P6AXPEB_W00I_K@Z@@YAP6AXPEB_W00I_K@ZQ6AX000I1@Z@Z 00000001800933b0 f i libucrtd:invalid_parameter.obj
 0001:000923f0       ??$initialize_from_array@$$BY00Q6AXPEB_W00I_K@Z@?$dual_state_global@P6AXPEB_W00I_K@Z@__crt_state_management@@QEAAXAEAY00Q6AXPEB_W00I_K@Z@Z 00000001800933f0 f i libucrtd:invalid_parameter.obj
 0001:00092450       ?__crt_rotate_pointer_value@@YA_K_KH@Z 0000000180093450 f i libucrtd:invalid_parameter.obj
 0001:00092510       ?check_synchronize_global_state_index@__crt_cached_ptd_host@@AEAA_KXZ 0000000180093510 f i libucrtd:invalid_parameter.obj
 0001:00092570       ?dangerous_get_state_array@?$dual_state_global@P6AXPEB_W00I_K@Z@__crt_state_management@@QEAAPEAP6AXPEB_W00I_K@ZXZ 0000000180093570 f i libucrtd:invalid_parameter.obj
 0001:00092580       ?get_current_global_state_index@__crt_cached_ptd_host@@QEAA_KXZ 0000000180093580 f i libucrtd:invalid_parameter.obj
 0001:000925a0       ?get_current_state_index@__crt_state_management@@YA_KXZ 00000001800935a0 f i libucrtd:invalid_parameter.obj
 0001:000925b0       ?get_raw_ptd_noexit@__crt_cached_ptd_host@@QEAAPEAU__acrt_ptd@@XZ 00000001800935b0 f i libucrtd:invalid_parameter.obj
 0001:000925d0       ?try_synchronize_per_thread_data@__crt_cached_ptd_host@@AEAAPEAU__acrt_ptd@@XZ 00000001800935d0 f i libucrtd:invalid_parameter.obj
 0001:00092600       ?value@?$dual_state_global@P6AXPEB_W00I_K@Z@__crt_state_management@@QEAAAEAP6AXPEB_W00I_K@ZAEAV__crt_cached_ptd_host@@@Z 0000000180093600 f i libucrtd:invalid_parameter.obj
 0001:00092630       ?value@?$dual_state_global@P6AXPEB_W00I_K@Z@__crt_state_management@@QEAAAEAP6AXPEB_W00I_K@ZXZ 0000000180093630 f i libucrtd:invalid_parameter.obj
 0001:00092650       __acrt_call_reportfault    0000000180093650 f   libucrtd:invalid_parameter.obj
 0001:00092780       __acrt_initialize_invalid_parameter_handler 0000000180093780 f   libucrtd:invalid_parameter.obj
 0001:000927b0       _get_invalid_parameter_handler 00000001800937b0 f   libucrtd:invalid_parameter.obj
 0001:000927d0       _get_thread_local_invalid_parameter_handler 00000001800937d0 f   libucrtd:invalid_parameter.obj
 0001:00092800       _invalid_parameter         0000000180093800 f   libucrtd:invalid_parameter.obj
 0001:00092870       _invalid_parameter_internal 0000000180093870 f   libucrtd:invalid_parameter.obj
 0001:000929c0       _invalid_parameter_noinfo  00000001800939c0 f   libucrtd:invalid_parameter.obj
 0001:000929f0       _invalid_parameter_noinfo_noreturn 00000001800939f0 f   libucrtd:invalid_parameter.obj
 0001:00092a30       _invoke_watson             0000000180093a30 f   libucrtd:invalid_parameter.obj
 0001:00092a90       _set_invalid_parameter_handler 0000000180093a90 f   libucrtd:invalid_parameter.obj
 0001:00092ae0       _set_thread_local_invalid_parameter_handler 0000000180093ae0 f   libucrtd:invalid_parameter.obj
 0001:00092b20       ?get_doserrno@__crt_cached_ptd_host@@QEAAAEAU?$cached@K@1@XZ 0000000180093b20 f i libucrtd:errno.obj
 0001:00092b30       ?set@?$cached@K@__crt_cached_ptd_host@@QEAAKK@Z 0000000180093b30 f i libucrtd:errno.obj
 0001:00092b60       __acrt_errno_from_os_error 0000000180093b60 f   libucrtd:errno.obj
 0001:00092bf0       __acrt_errno_map_os_error  0000000180093bf0 f   libucrtd:errno.obj
 0001:00092c20       __acrt_errno_map_os_error_ptd 0000000180093c20 f   libucrtd:errno.obj
 0001:00092c80       __doserrno                 0000000180093c80 f   libucrtd:errno.obj
 0001:00092cb0       _errno                     0000000180093cb0 f   libucrtd:errno.obj
 0001:00092ce0       _get_doserrno              0000000180093ce0 f   libucrtd:errno.obj
 0001:00092da0       _get_errno                 0000000180093da0 f   libucrtd:errno.obj
 0001:00092e60       _set_doserrno              0000000180093e60 f   libucrtd:errno.obj
 0001:00092ea0       _set_errno                 0000000180093ea0 f   libucrtd:errno.obj
 0001:00092ee0       calloc                     0000000180093ee0 f   libucrtd:calloc.obj
 0001:00092f20       _recalloc                  0000000180093f20 f   libucrtd:recalloc.obj
 0001:00092f70       _recalloc_base             0000000180093f70 f   libucrtd:recalloc.obj
 0001:00093050       _resetstkoflw              0000000180094050 f   libucrtd:resetstk.obj
 0001:00093850       wcscat_s                   0000000180094850 f   libucrtd:wcscat_s.obj
 0001:00093f30       wcsncpy_s                  0000000180094f30 f   libucrtd:wcsncpy_s.obj
 0001:000940b0       __isascii                  00000001800950b0 f   libucrtd:_ctype.obj
 0001:000940e0       __iscsym                   00000001800950e0 f   libucrtd:_ctype.obj
 0001:00094120       __iscsymf                  0000000180095120 f   libucrtd:_ctype.obj
 0001:00094160       __toascii                  0000000180095160 f   libucrtd:_ctype.obj
 0001:00094170       _isalnum_l                 0000000180095170 f   libucrtd:_ctype.obj
 0001:000941a0       _isalpha_l                 00000001800951a0 f   libucrtd:_ctype.obj
 0001:000941d0       _isblank_l                 00000001800951d0 f   libucrtd:_ctype.obj
 0001:00094200       _iscntrl_l                 0000000180095200 f   libucrtd:_ctype.obj
 0001:00094230       _iscsym_l                  0000000180095230 f   libucrtd:_ctype.obj
 0001:00094280       _iscsymf_l                 0000000180095280 f   libucrtd:_ctype.obj
 0001:000942d0       _isdigit_l                 00000001800952d0 f   libucrtd:_ctype.obj
 0001:00094300       _isgraph_l                 0000000180095300 f   libucrtd:_ctype.obj
 0001:00094330       _islower_l                 0000000180095330 f   libucrtd:_ctype.obj
 0001:00094360       _isprint_l                 0000000180095360 f   libucrtd:_ctype.obj
 0001:00094390       _ispunct_l                 0000000180095390 f   libucrtd:_ctype.obj
 0001:000943c0       _isspace_l                 00000001800953c0 f   libucrtd:_ctype.obj
 0001:000943f0       _isupper_l                 00000001800953f0 f   libucrtd:_ctype.obj
 0001:00094420       _isxdigit_l                0000000180095420 f   libucrtd:_ctype.obj
 0001:00094450       isalnum                    0000000180095450 f   libucrtd:_ctype.obj
 0001:00094470       isalpha                    0000000180095470 f   libucrtd:_ctype.obj
 0001:00094490       isblank                    0000000180095490 f   libucrtd:_ctype.obj
 0001:000944c0       iscntrl                    00000001800954c0 f   libucrtd:_ctype.obj
 0001:000944e0       isdigit                    00000001800954e0 f   libucrtd:_ctype.obj
 0001:00094500       isgraph                    0000000180095500 f   libucrtd:_ctype.obj
 0001:00094520       islower                    0000000180095520 f   libucrtd:_ctype.obj
 0001:00094540       isprint                    0000000180095540 f   libucrtd:_ctype.obj
 0001:00094560       ispunct                    0000000180095560 f   libucrtd:_ctype.obj
 0001:00094580       isspace                    0000000180095580 f   libucrtd:_ctype.obj
 0001:000945a0       isupper                    00000001800955a0 f   libucrtd:_ctype.obj
 0001:000945c0       isxdigit                   00000001800955c0 f   libucrtd:_ctype.obj
 0001:000945e0       wcscat                     00000001800955e0 f   libucrtd:wcscat.obj
 0001:00094670       wcscpy                     0000000180095670 f   libucrtd:wcscpy.obj
 0001:00094e20       ??$open_file@AEBQEBDAEBQEBDAEBHPEAU_iobuf@@@?$__crt_char_traits@D@@SAPEAU_iobuf@@AEBQEBD0AEBH$$QEAPEAU1@@Z 0000000180095e20 f i libucrtd:fopen.obj
 0001:00094e70       ??$open_file@AEBQEB_WAEBQEB_WAEBHPEAU_iobuf@@@?$__crt_char_traits@_W@@SAPEAU_iobuf@@AEBQEB_W0AEBH$$QEAPEAU1@@Z 0000000180095e70 f i libucrtd:fopen.obj
 0001:00094ec0       ?unlock@__crt_stdio_stream@@QEBAXXZ 0000000180095ec0 f i libucrtd:fopen.obj
 0001:00094ee0       _fsopen                    0000000180095ee0 f   libucrtd:fopen.obj
 0001:00094f10       _wfopen                    0000000180095f10 f   libucrtd:fopen.obj
 0001:00094f40       _wfopen_s                  0000000180095f40 f   libucrtd:fopen.obj
 0001:00094f70       _wfsopen                   0000000180095f70 f   libucrtd:fopen.obj
 0001:00094fa0       fopen                      0000000180095fa0 f   libucrtd:fopen.obj
 0001:00094fd0       fopen_s                    0000000180095fd0 f   libucrtd:fopen.obj
 0001:00095310       ?is_in_use@__crt_stdio_stream@@QEBA_NXZ 0000000180096310 f i libucrtd:fclose.obj
 0001:00095350       _fclose_nolock             0000000180096350 f   libucrtd:fclose.obj
 0001:00095390       fclose                     0000000180096390 f   libucrtd:fclose.obj
 0001:000956d0       _fputc_nolock              00000001800966d0 f   libucrtd:fputc.obj
 0001:00095720       _fputc_nolock_internal     0000000180096720 f   libucrtd:fputc.obj
 0001:000957e0       _fputchar                  00000001800967e0 f   libucrtd:fputc.obj
 0001:00095810       _putc_nolock               0000000180096810 f   libucrtd:fputc.obj
 0001:00095830       fputc                      0000000180096830 f   libucrtd:fputc.obj
 0001:00095880       putc                       0000000180096880 f   libucrtd:fputc.obj
 0001:000958a0       putchar                    00000001800968a0 f   libucrtd:fputc.obj
 0001:00095930       _seh_filter_dll            0000000180096930 f   libucrtd:exception_filter.obj
 0001:00095960       _seh_filter_exe            0000000180096960 f   libucrtd:exception_filter.obj
 0001:00095c30       ??$?B$$A6AXPEAXK0@Z@__crt_fast_encoded_nullptr_t@@QEBAP6AXPEAXK0@ZXZ 0000000180096c30 f i libucrtd:exit.obj
 0001:00095cf0       ??$__crt_fast_decode_pointer@P6AXPEAXK0@Z@@YAP6AXPEAXK0@ZQ6AX0K0@Z@Z 0000000180096cf0 f i libucrtd:exit.obj
 0001:00095d30       ??$__crt_fast_encode_pointer@P6AXPEAXK0@Z@@YAP6AXPEAXK0@ZQ6AX0K0@Z@Z 0000000180096d30 f i libucrtd:exit.obj
 0001:00095d70       ??$__crt_get_proc_address@P6AXI@Z@@YAP6AXI@ZQEAUHINSTANCE__@@QEBD@Z 0000000180096d70 f i libucrtd:exit.obj
 0001:00095e30       ??0?$__crt_unique_handle_t@U__crt_hmodule_traits@@@@QEAA@QEAUHINSTANCE__@@@Z 0000000180096e30 f i libucrtd:exit.obj
 0001:00095e50       ??1?$__crt_unique_handle_t@U__crt_hmodule_traits@@@@QEAA@XZ 0000000180096e50 f i libucrtd:exit.obj
 0001:00095fd0       ?__acrt_select_exit_lock@@YA?AW4__acrt_lock_id@@XZ 0000000180096fd0 f i libucrtd:exit.obj
 0001:00095fe0       ?__crt_fast_encode_pointer@@YA?AU__crt_fast_encoded_nullptr_t@@$$T@Z 0000000180096fe0 f i libucrtd:exit.obj
 0001:00096020       ?close@?$__crt_unique_handle_t@U__crt_hmodule_traits@@@@QEAAXXZ 0000000180097020 f i libucrtd:exit.obj
 0001:00096060       ?close@__crt_hmodule_traits@@SA_NPEAUHINSTANCE__@@@Z 0000000180097060 f i libucrtd:exit.obj
 0001:00096180       ?get@?$__crt_unique_handle_t@U__crt_hmodule_traits@@@@QEBAPEAUHINSTANCE__@@XZ 0000000180097180 f i libucrtd:exit.obj
 0001:00096190       ?get_address_of@?$__crt_unique_handle_t@U__crt_hmodule_traits@@@@QEAAPEAPEAUHINSTANCE__@@XZ 0000000180097190 f i libucrtd:exit.obj
 0001:000961a0       ?get_invalid_value@__crt_hmodule_traits@@SAPEAUHINSTANCE__@@XZ 00000001800971a0 f i libucrtd:exit.obj
 0001:00096380       _Exit                      0000000180097380 f   libucrtd:exit.obj
 0001:000963a0       __acrt_initialize_thread_local_exit_callback 00000001800973a0 f   libucrtd:exit.obj
 0001:000963c0       _c_exit                    00000001800973c0 f   libucrtd:exit.obj
 0001:000963e0       _cexit                     00000001800973e0 f   libucrtd:exit.obj
 0001:00096400       _exit                      0000000180097400 f   libucrtd:exit.obj
 0001:00096420       _is_c_termination_complete 0000000180097420 f   libucrtd:exit.obj
 0001:00096440       _register_thread_local_exe_atexit_callback 0000000180097440 f   libucrtd:exit.obj
 0001:00096490       exit                       0000000180097490 f   libucrtd:exit.obj
 0001:000964b0       quick_exit                 00000001800974b0 f   libucrtd:exit.obj
 0001:000964d0       ??$?RE@__crt_internal_free_policy@@QEBAXQEBE@Z 00000001800974d0 f i libucrtd:argv_parsing.obj
 0001:00096500       ??$?RPEAD@__crt_internal_free_policy@@QEBAXQEBQEAD@Z 0000000180097500 f i libucrtd:argv_parsing.obj
 0001:00096530       ??$?RPEA_W@__crt_internal_free_policy@@QEBAXQEBQEA_W@Z 0000000180097530 f i libucrtd:argv_parsing.obj
 0001:00096c80       ??$get_module_file_name@$$TAEAY0BAF@DH@?$__crt_char_traits@D@@SAK$$QEA$$TAEAY0BAF@D$$QEAH@Z 0000000180097c80 f i libucrtd:argv_parsing.obj
 0001:00096cc0       ??$get_module_file_name@$$TAEAY0BAF@_WH@?$__crt_char_traits@_W@@SAK$$QEA$$TAEAY0BAF@_W$$QEAH@Z 0000000180097cc0 f i libucrtd:argv_parsing.obj
 0001:000976c0       ??$set_program_name@PEAD@?$__crt_char_traits@D@@SAX$$QEAPEAD@Z 00000001800986c0 f i libucrtd:argv_parsing.obj
 0001:000976e0       ??$set_program_name@PEA_W@?$__crt_char_traits@_W@@SAX$$QEAPEA_W@Z 00000001800986e0 f i libucrtd:argv_parsing.obj
 0001:00097740       ??0?$__crt_unique_heap_ptr@EU__crt_internal_free_policy@@@@QEAA@QEAE@Z 0000000180098740 f i libucrtd:argv_parsing.obj
 0001:00097760       ??0?$__crt_unique_heap_ptr@PEADU__crt_internal_free_policy@@@@QEAA@QEAPEAD@Z 0000000180098760 f i libucrtd:argv_parsing.obj
 0001:00097780       ??0?$__crt_unique_heap_ptr@PEA_WU__crt_internal_free_policy@@@@QEAA@QEAPEA_W@Z 0000000180098780 f i libucrtd:argv_parsing.obj
 0001:000977a0       ??1?$__crt_unique_heap_ptr@EU__crt_internal_free_policy@@@@QEAA@XZ 00000001800987a0 f i libucrtd:argv_parsing.obj
 0001:000977c0       ??1?$__crt_unique_heap_ptr@PEADU__crt_internal_free_policy@@@@QEAA@XZ 00000001800987c0 f i libucrtd:argv_parsing.obj
 0001:000977e0       ??1?$__crt_unique_heap_ptr@PEA_WU__crt_internal_free_policy@@@@QEAA@XZ 00000001800987e0 f i libucrtd:argv_parsing.obj
 0001:00097800       ??B?$__crt_unique_heap_ptr@EU__crt_internal_free_policy@@@@QEBA_NXZ 0000000180098800 f i libucrtd:argv_parsing.obj
 0001:000978e0       ?detach@?$__crt_unique_heap_ptr@EU__crt_internal_free_policy@@@@QEAAPEAEXZ 00000001800988e0 f i libucrtd:argv_parsing.obj
 0001:00097910       ?detach@?$__crt_unique_heap_ptr@PEADU__crt_internal_free_policy@@@@QEAAPEAPEADXZ 0000000180098910 f i libucrtd:argv_parsing.obj
 0001:00097940       ?detach@?$__crt_unique_heap_ptr@PEA_WU__crt_internal_free_policy@@@@QEAAPEAPEA_WXZ 0000000180098940 f i libucrtd:argv_parsing.obj
 0001:00097a00       ?get@?$__crt_unique_heap_ptr@EU__crt_internal_free_policy@@@@QEBAPEAEXZ 0000000180098a00 f i libucrtd:argv_parsing.obj
 0001:00097a10       ?get@?$__crt_unique_heap_ptr@PEADU__crt_internal_free_policy@@@@QEBAPEAPEADXZ 0000000180098a10 f i libucrtd:argv_parsing.obj
 0001:00097a20       ?get@?$__crt_unique_heap_ptr@PEA_WU__crt_internal_free_policy@@@@QEBAPEAPEA_WXZ 0000000180098a20 f i libucrtd:argv_parsing.obj
 0001:00097a30       ?get_address_of@?$__crt_unique_heap_ptr@PEADU__crt_internal_free_policy@@@@QEAAPEAPEAPEADXZ 0000000180098a30 f i libucrtd:argv_parsing.obj
 0001:00097a40       ?get_address_of@?$__crt_unique_heap_ptr@PEA_WU__crt_internal_free_policy@@@@QEAAPEAPEAPEA_WXZ 0000000180098a40 f i libucrtd:argv_parsing.obj
 0001:00097a90       ?is_valid@?$__crt_unique_heap_ptr@EU__crt_internal_free_policy@@@@QEBA_NXZ 0000000180098a90 f i libucrtd:argv_parsing.obj
 0001:00097ac0       ?release@?$__crt_unique_heap_ptr@EU__crt_internal_free_policy@@@@QEAAXXZ 0000000180098ac0 f i libucrtd:argv_parsing.obj
 0001:00097af0       ?release@?$__crt_unique_heap_ptr@PEADU__crt_internal_free_policy@@@@QEAAXXZ 0000000180098af0 f i libucrtd:argv_parsing.obj
 0001:00097b20       ?release@?$__crt_unique_heap_ptr@PEA_WU__crt_internal_free_policy@@@@QEAAXXZ 0000000180098b20 f i libucrtd:argv_parsing.obj
 0001:00097ba0       __acrt_allocate_buffer_for_argv 0000000180098ba0 f   libucrtd:argv_parsing.obj
 0001:00097cc0       _configure_narrow_argv     0000000180098cc0 f   libucrtd:argv_parsing.obj
 0001:00097ce0       _configure_wide_argv       0000000180098ce0 f   libucrtd:argv_parsing.obj
 0001:00097d00       _set_pgmptr                0000000180098d00 f i libucrtd:argv_parsing.obj
 0001:00097d20       _set_wpgmptr               0000000180098d20 f i libucrtd:argv_parsing.obj
 0001:00097d40       ??$?R_W@__crt_internal_free_policy@@QEBAXQEB_W@Z 0000000180098d40 f i libucrtd:environment_initialization.obj
 0001:00098700       ??$get_environment_from_os@$$V@?$__crt_char_traits@D@@SAPEADXZ 0000000180099700 f i libucrtd:environment_initialization.obj
 0001:00098710       ??$get_environment_from_os@$$V@?$__crt_char_traits@_W@@SAPEA_WXZ 0000000180099710 f i libucrtd:environment_initialization.obj
 0001:00098a20       ??$set_variable_in_environment_nolock@PEADH@?$__crt_char_traits@D@@SAH$$QEAPEAD$$QEAH@Z 0000000180099a20 f i libucrtd:environment_initialization.obj
 0001:00098a50       ??$set_variable_in_environment_nolock@PEA_WH@?$__crt_char_traits@_W@@SAH$$QEAPEA_W$$QEAH@Z 0000000180099a50 f i libucrtd:environment_initialization.obj
 0001:00098a80       ??$tcscpy_s@PEADAEB_KAEAPEAD@?$__crt_char_traits@D@@SAH$$QEAPEADAEB_KAEAPEAD@Z 0000000180099a80 f i libucrtd:environment_initialization.obj
 0001:00098ac0       ??$tcscpy_s@PEA_WAEB_KAEAPEA_W@?$__crt_char_traits@_W@@SAH$$QEAPEA_WAEB_KAEAPEA_W@Z 0000000180099ac0 f i libucrtd:environment_initialization.obj
 0001:00098b00       ??$tcslen@AEAPEAD@?$__crt_char_traits@D@@SA_KAEAPEAD@Z 0000000180099b00 f i libucrtd:environment_initialization.obj
 0001:00098b20       ??$tcslen@AEAPEA_W@?$__crt_char_traits@_W@@SA_KAEAPEA_W@Z 0000000180099b20 f i libucrtd:environment_initialization.obj
 0001:00098b40       ??$uninitialize@A6AXAEAPEAPEAD@_E@?$dual_state_global@PEAPEAD@__crt_state_management@@QEAAXA6AXAEAPEAPEAD@_E@Z 0000000180099b40 f i libucrtd:environment_initialization.obj
