 OPOSTotals

 Timestamp is 600f7b03 (Tue Jan 26 11:14:27 2021)

 Preferred load address is 0000000180000000

 Start         Length     Name                   Class
 0001:00000000 00001400H .text$di                CODE
 0001:00001400 000d5470H .text$mn                CODE
 0001:000d6870 00000040H .text$mn$00             CODE
 0001:000d68b0 00001390H .text$x                 CODE
 0001:000d7c40 000001b4H .text$yd                CODE
 0002:00000000 000006d8H .idata$5                DATA
 0002:000006d8 00000028H .00cfg                  DATA
 0002:00000700 00000008H .CRT$XCA                DATA
 0002:00000708 00000008H .CRT$XCL                DATA
 0002:00000710 000000d8H .CRT$XCU                DATA
 0002:000007e8 00000008H .CRT$XCZ                DATA
 0002:000007f0 00000008H .CRT$XIA                DATA
 0002:000007f8 00000028H .CRT$XIC                DATA
 0002:00000820 00000008H .CRT$XIZ                DATA
 0002:00000828 00000008H .CRT$XLA                DATA
 0002:00000830 00000008H .CRT$XLZ                DATA
 0002:00000838 00000008H .CRT$XPA                DATA
 0002:00000840 00000010H .CRT$XPX                DATA
 0002:00000850 00000008H .CRT$XPXA               DATA
 0002:00000858 00000008H .CRT$XPZ                DATA
 0002:00000860 00000008H .CRT$XTA                DATA
 0002:00000868 00000008H .CRT$XTZ                DATA
 0002:00000870 00000000H .gehcont$y              DATA
 0002:00000870 00000000H .gfids$y                DATA
 0002:00000870 0003bd10H .rdata                  DATA
 0002:0003c580 00000008H .rdata$CastGuardVftablesA DATA
 0002:0003c588 00000008H .rdata$CastGuardVftablesC DATA
 0002:0003c590 00000028H .rdata$T                DATA
 0002:0003c5b8 0000056cH .rdata$r                DATA
 0002:0003cb24 00000474H .rdata$zzzdbg           DATA
 0002:0003cf98 00000008H .rtc$IAA                DATA
 0002:0003cfa0 00000030H .rtc$IMZ                DATA
 0002:0003cfd0 00000008H .rtc$IZZ                DATA
 0002:0003cfd8 00000008H .rtc$TAA                DATA
 0002:0003cfe0 00000030H .rtc$TMZ                DATA
 0002:0003d010 00000008H .rtc$TZZ                DATA
 0002:0003d018 00000004H .tls                    DATA
 0002:0003d01c 00000004H .tls$                   DATA
 0002:0003d020 00000010H .tls$ZZZ                DATA
 0002:0003d030 00009838H .xdata                  DATA
 0002:00046868 00000150H .xdata$x                DATA
 0002:000469b8 00000008H ATL$__a                 DATA
 0002:000469c0 00000010H ATL$__z                 DATA
 0002:000469d0 000000a8H .edata                  DATA
 0002:00046a78 00000078H .idata$2                DATA
 0002:00046af0 00000018H .idata$3                DATA
 0002:00046b08 000006d8H .idata$4                DATA
 0002:000471e0 00000dbeH .idata$6                DATA
 0003:00000000 00000f18H .data                   DATA
 0003:00000f18 00000198H .data$r                 DATA
 0003:000010b0 00003e9cH .bss                    DATA
 0004:00000000 0000c1bcH .pdata                  DATA
 0005:00000000 00000094H _RDATA                  DATA
 0006:00000000 00000220H .rsrc$01                DATA
 0006:00000220 00004100H .rsrc$02                DATA

  Address         Publics by Value              Rva+Base               Lib:Object

 0000:00000000       __x64_code_ranges_to_entry_points 0000000000000000     <absolute>
 0000:00000000       __volatile_metadata        0000000000000000     <absolute>
 0000:00000000       __guard_longjmp_table      0000000000000000     <absolute>
 0000:00000000       __hybrid_code_map_count    0000000000000000     <absolute>
 0000:00000000       __guard_fids_count         0000000000000000     <absolute>
 0000:00000000       ___safe_se_handler_count   0000000000000000     <absolute>
 0000:00000000       __guard_fids_table         0000000000000000     <absolute>
 0000:00000000       ___safe_se_handler_table   0000000000000000     <absolute>
 0000:00000000       __AbsoluteZero             0000000000000000     <absolute>
 0000:00000000       __guard_eh_cont_table      0000000000000000     <absolute>
 0000:00000000       __arm64x_extra_rfe_table   0000000000000000     <absolute>
 0000:00000000       __guard_iat_table          0000000000000000     <absolute>
 0000:00000000       __arm64x_redirection_metadata_count 0000000000000000     <absolute>
 0000:00000000       __arm64x_redirection_metadata 0000000000000000     <absolute>
 0000:00000000       __enclave_config           0000000000000000     <absolute>
 0000:00000000       __hybrid_auxiliary_iat     0000000000000000     <absolute>
 0000:00000000       __guard_longjmp_count      0000000000000000     <absolute>
 0000:00000000       __hybrid_code_map          0000000000000000     <absolute>
 0000:00000000       __guard_eh_cont_count      0000000000000000     <absolute>
 0000:00000000       __x64_code_ranges_to_entry_points_count 0000000000000000     <absolute>
 0000:00000000       __guard_iat_count          0000000000000000     <absolute>
 0000:00000000       __arm64x_native_entrypoint 0000000000000000     <absolute>
 0000:00000000       __dynamic_value_reloc_table 0000000000000000     <absolute>
 0000:00000000       __arm64x_extra_rfe_table_size 0000000000000000     <absolute>
 0000:00000100       __guard_flags              0000000000000100     <absolute>
 0000:00000000       __ImageBase                0000000180000000     <linker-defined>
 0001:00001400       ?_assert@@YAXPEB_W0I@Z     0000000180002400 f   Assert.obj
 0001:00001500       __local_stdio_printf_options 0000000180002500 f i Assert.obj
 0001:00001510       __vswprintf_l              0000000180002510 f i Assert.obj
 0001:00001570       _swprintf                  0000000180002570 f i Assert.obj
 0001:000015f0       _vswprintf_c_l             00000001800025f0 f i Assert.obj
 0001:00001680       _vswprintf_l               0000000180002680 f i Assert.obj
 0001:000016e0       ?cw_memcpy@@YAHPEADPEB_WH@Z 00000001800026e0 f   CWString.obj
 0001:00001770       ?cw_memcpy@@YAHPEA_WPEBDH@Z 0000000180002770 f   CWString.obj
 0001:000017f0       ?cw_memcpy@@YAHPEADPEBDH@Z 00000001800027f0 f   CWString.obj
 0001:00001890       ?cw_memcpy@@YAHPEA_WPEB_WH@Z 0000000180002890 f   CWString.obj
 0001:00001900       ?cw_memset@@YAXPEADDH@Z    0000000180002900 f   CWString.obj
 0001:00001970       ?cw_memset@@YAXPEA_W_WH@Z  0000000180002970 f   CWString.obj
 0001:00001a10       ?cw_strlen@@YAHPEBD@Z      0000000180002a10 f   CWString.obj
 0001:00001a80       ?cw_strlen@@YAHPEB_W@Z     0000000180002a80 f   CWString.obj
 0001:00001af0       ?cw_strcpy@@YAHPEADPEB_W@Z 0000000180002af0 f   CWString.obj
 0001:00001b40       ?cw_strcpy@@YAHPEA_WPEBD@Z 0000000180002b40 f   CWString.obj
 0001:00001b90       ?cw_strcpy@@YAHPEADPEBD@Z  0000000180002b90 f   CWString.obj
 0001:00001be0       ?cw_strcpy@@YAHPEA_WPEB_W@Z 0000000180002be0 f   CWString.obj
 0001:00001c30       ?cw_strcat@@YAHPEADPEB_W@Z 0000000180002c30 f   CWString.obj
 0001:00001c90       ?cw_strcat@@YAHPEA_WPEBD@Z 0000000180002c90 f   CWString.obj
 0001:00001cf0       ?cw_strcat@@YAHPEADPEBD@Z  0000000180002cf0 f   CWString.obj
 0001:00001d50       ?cw_strcat@@YAHPEA_WPEB_W@Z 0000000180002d50 f   CWString.obj
 0001:00001db0       ?cw_dup@@YAXPEBDAEAHAEAPEA_W1@Z 0000000180002db0 f   CWString.obj
 0001:00001ec0       ?cw_dup@@YAXPEB_WAEAHAEAPEAD1@Z 0000000180002ec0 f   CWString.obj
 0001:00001fb0       ?DupChar@_CW@@AEAAXXZ      0000000180002fb0 f   CWString.obj
 0001:00002010       ?DupWide@_CW@@AEAAXXZ      0000000180003010 f   CWString.obj
 0001:00002080       ?GetCharsMbcs@_CW@@QEAAHXZ 0000000180003080 f   CWString.obj
 0001:000020f0       ?GetCharsWide@_CW@@QEAAHXZ 00000001800030f0 f   CWString.obj
 0001:00002160       ?SetVARIANT_BOOL@OposVariant@@QEAAXF@Z 0000000180003160 f   OposVariant.obj
 0001:000021d0       ?SetVARIANT_BOOL_Ptr@OposVariant@@QEAAXPEAFAEAJ@Z 00000001800031d0 f   OposVariant.obj
 0001:00002240       ?GetLONG@OposVariant@@QEAAJXZ 0000000180003240 f   OposVariant.obj
 0001:000022a0       ?ChangeLONG@OposVariant@@QEAAXPEAJAEAJ@Z 00000001800032a0 f   OposVariant.obj
 0001:00002350       ?SetLONG@OposVariant@@QEAAXJ@Z 0000000180003350 f   OposVariant.obj
 0001:000023b0       ?SetLONG_Ptr@OposVariant@@QEAAXPEAJAEAJ@Z 00000001800033b0 f   OposVariant.obj
 0001:00002420       ?ChangeCURRENCY@OposVariant@@QEAAXPEATtagCY@@AEAJ@Z 0000000180003420 f   OposVariant.obj
 0001:000024d0       ?SetCURRENCY@OposVariant@@QEAAXTtagCY@@@Z 00000001800034d0 f   OposVariant.obj
 0001:00002530       ?SetCURRENCY_Ptr@OposVariant@@QEAAXPEATtagCY@@AEAJ@Z 0000000180003530 f   OposVariant.obj
 0001:000025a0       ?ChangeBSTR@OposVariant@@QEAAXPEAPEA_WAEAJ@Z 00000001800035a0 f   OposVariant.obj
 0001:00002650       ?SetBSTR@OposVariant@@QEAAXPEA_WAEAJ@Z 0000000180003650 f   OposVariant.obj
 0001:000026d0       ?SetBSTR_Copy@OposVariant@@QEAAXPEA_WAEAJ@Z 00000001800036d0 f   OposVariant.obj
 0001:00002780       ?SetBSTR_OutPtr@OposVariant@@QEAA_NPEAPEA_WAEAJ@Z 0000000180003780 f   OposVariant.obj
 0001:000027f0       ?SetBSTR_InOutPtr@OposVariant@@QEAA_NPEAPEA_WAEAJ@Z 00000001800037f0 f   OposVariant.obj
 0001:00002870       ?SetVARIANT@OposVariant@@QEAAXAEAUtagVARIANT@@GAEAJ@Z 0000000180003870 f   OposVariant.obj
 0001:00002910       ?SetVARIANT_Ptr@OposVariant@@QEAAXAEAPEAUtagVARIANT@@GAEAJ@Z 0000000180003910 f   OposVariant.obj
 0001:000029c0       ?SetString@OposVariant@@QEAAXPEB_WAEAJ@Z 00000001800039c0 f   OposVariant.obj
 0001:00002a70       ?SetDispatch_Ptr@OposVariant@@QEAAXPEAUIDispatch@@AEAJ@Z 0000000180003a70 f   OposVariant.obj
 0001:00002b00       ??0OposDispParms@@QEAA@PEAVOposVariant@@H@Z 0000000180003b00 f   OposVariant.obj
 0001:00002c10       ??1OposDispParms@@QEAA@XZ  0000000180003c10 f   OposVariant.obj
 0001:00002c60       ??$AtlMultiply@_K@ATL@@YAJPEA_K_K1@Z 0000000180003c60 f i OposVariant.obj
 0001:00002ce0       ??0?$CHeapPtr@_WVCCRTAllocator@ATL@@@ATL@@QEAA@XZ 0000000180003ce0 f i OposVariant.obj
 0001:00002d20       ??0?$CHeapPtrBase@_WVCCRTAllocator@ATL@@@ATL@@IEAA@XZ 0000000180003d20 f i OposVariant.obj
 0001:00002d40       ??0?$CSimpleArray@GV?$CSimpleArrayEqualHelper@G@ATL@@@ATL@@QEAA@XZ 0000000180003d40 f i OposVariant.obj
 0001:00002d80       ??0?$CTraceCategoryEx@$00$0A@@ATL@@QEAA@PEB_W@Z 0000000180003d80 f i OposVariant.obj
 0001:00002dc0       ??0?$CTraceCategoryEx@$01$0A@@ATL@@QEAA@PEB_W@Z 0000000180003dc0 f i OposVariant.obj
 0001:00002e00       ??0?$CTraceCategoryEx@$03$0A@@ATL@@QEAA@PEB_W@Z 0000000180003e00 f i OposVariant.obj
 0001:00002e40       ??0?$CTraceCategoryEx@$07$0A@@ATL@@QEAA@PEB_W@Z 0000000180003e40 f i OposVariant.obj
 0001:00002e80       ??0?$CTraceCategoryEx@$0BA@$0A@@ATL@@QEAA@PEB_W@Z 0000000180003e80 f i OposVariant.obj
 0001:00002ec0       ??0?$CTraceCategoryEx@$0BAA@$0A@@ATL@@QEAA@PEB_W@Z 0000000180003ec0 f i OposVariant.obj
 0001:00002f00       ??0?$CTraceCategoryEx@$0BAAA@$0A@@ATL@@QEAA@PEB_W@Z 0000000180003f00 f i OposVariant.obj
 0001:00002f40       ??0?$CTraceCategoryEx@$0BAAAA@$0A@@ATL@@QEAA@PEB_W@Z 0000000180003f40 f i OposVariant.obj
 0001:00002f80       ??0?$CTraceCategoryEx@$0BAAAAA@$0A@@ATL@@QEAA@PEB_W@Z 0000000180003f80 f i OposVariant.obj
 0001:00002fc0       ??0?$CTraceCategoryEx@$0CA@$0A@@ATL@@QEAA@PEB_W@Z 0000000180003fc0 f i OposVariant.obj
 0001:00003000       ??0?$CTraceCategoryEx@$0CAA@$0A@@ATL@@QEAA@PEB_W@Z 0000000180004000 f i OposVariant.obj
 0001:00003040       ??0?$CTraceCategoryEx@$0CAAA@$0A@@ATL@@QEAA@PEB_W@Z 0000000180004040 f i OposVariant.obj
 0001:00003080       ??0?$CTraceCategoryEx@$0CAAAA@$0A@@ATL@@QEAA@PEB_W@Z 0000000180004080 f i OposVariant.obj
 0001:000030c0       ??0?$CTraceCategoryEx@$0CAAAAA@$0A@@ATL@@QEAA@PEB_W@Z 00000001800040c0 f i OposVariant.obj
 0001:00003100       ??0?$CTraceCategoryEx@$0EA@$0A@@ATL@@QEAA@PEB_W@Z 0000000180004100 f i OposVariant.obj
 0001:00003140       ??0?$CTraceCategoryEx@$0EAA@$0A@@ATL@@QEAA@PEB_W@Z 0000000180004140 f i OposVariant.obj
 0001:00003180       ??0?$CTraceCategoryEx@$0EAAA@$0A@@ATL@@QEAA@PEB_W@Z 0000000180004180 f i OposVariant.obj
 0001:000031c0       ??0?$CTraceCategoryEx@$0EAAAA@$0A@@ATL@@QEAA@PEB_W@Z 00000001800041c0 f i OposVariant.obj
 0001:00003200       ??0?$CTraceCategoryEx@$0EAAAAA@$0A@@ATL@@QEAA@PEB_W@Z 0000000180004200 f i OposVariant.obj
 0001:00003240       ??0?$CTraceCategoryEx@$0IA@$0A@@ATL@@QEAA@PEB_W@Z 0000000180004240 f i OposVariant.obj
 0001:00003280       ??0?$CTraceCategoryEx@$0IAA@$0A@@ATL@@QEAA@PEB_W@Z 0000000180004280 f i OposVariant.obj
 0001:000032c0       ??0?$CTraceCategoryEx@$0IAAA@$0A@@ATL@@QEAA@PEB_W@Z 00000001800042c0 f i OposVariant.obj
 0001:00003300       ??0?$CTraceCategoryEx@$0IAAAA@$0A@@ATL@@QEAA@PEB_W@Z 0000000180004300 f i OposVariant.obj
 0001:00003340       ??0CAtlComModule@ATL@@QEAA@XZ 0000000180004340 f i OposVariant.obj
 0001:00003460       ??0CAtlWinModule@ATL@@QEAA@XZ 0000000180004460 f i OposVariant.obj
 0001:00003510       ??0CComCriticalSection@ATL@@QEAA@XZ 0000000180004510 f i OposVariant.obj
 0001:00003550       ??0CPreserveLastError@ATL@@QEAA@XZ 0000000180004550 f i OposVariant.obj
 0001:00003590       ??0CTraceFileAndLineInfo@ATL@@QEAA@PEBDH@Z 0000000180004590 f i OposVariant.obj
 0001:000035c0       ??0_ATL_COM_MODULE70@ATL@@QEAA@XZ 00000001800045c0 f i OposVariant.obj
 0001:00003600       ??0_ATL_WIN_MODULE70@ATL@@QEAA@XZ 0000000180004600 f i OposVariant.obj
 0001:00003650       ??1?$CHeapPtr@_WVCCRTAllocator@ATL@@@ATL@@QEAA@XZ 0000000180004650 f i OposVariant.obj
 0001:00003680       ??1?$CHeapPtrBase@_WVCCRTAllocator@ATL@@@ATL@@QEAA@XZ 0000000180004680 f i OposVariant.obj
 0001:000036b0       ??1?$CSimpleArray@GV?$CSimpleArrayEqualHelper@G@ATL@@@ATL@@QEAA@XZ 00000001800046b0 f i OposVariant.obj
 0001:000036e0       ??1CAtlComModule@ATL@@QEAA@XZ 00000001800046e0 f i OposVariant.obj
 0001:00003720       ??1CAtlWinModule@ATL@@QEAA@XZ 0000000180004720 f i OposVariant.obj
 0001:00003760       ??1CComBSTR@ATL@@QEAA@XZ   0000000180004760 f i OposVariant.obj
 0001:000037a0       ??1CComCriticalSection@ATL@@QEAA@XZ 00000001800047a0 f i OposVariant.obj
 0001:000037b0       ??1CPreserveLastError@ATL@@QEAA@XZ 00000001800047b0 f i OposVariant.obj
 0001:000037f0       ??1_ATL_COM_MODULE70@ATL@@QEAA@XZ 00000001800047f0 f i OposVariant.obj
 0001:00003830       ??1_ATL_WIN_MODULE70@ATL@@QEAA@XZ 0000000180004830 f i OposVariant.obj
 0001:00003880       ??1stringdispid@CComTypeInfoHolder@ATL@@QEAA@XZ 0000000180004880 f i OposVariant.obj
 0001:000038c0       ??A?$CSimpleArray@GV?$CSimpleArrayEqualHelper@G@ATL@@@ATL@@QEAAAEAGH@Z 00000001800048c0 f i OposVariant.obj
 0001:00003970       ??B?$CHeapPtrBase@_WVCCRTAllocator@ATL@@@ATL@@QEBAPEA_WXZ 0000000180004970 f i OposVariant.obj
 0001:00003980       ??B?$CTraceCategoryEx@$01$0A@@ATL@@QEAAIXZ 0000000180004980 f i OposVariant.obj
 0001:00003990       ??B?$CTraceCategoryEx@$0CA@$0A@@ATL@@QEAAIXZ 0000000180004990 f i OposVariant.obj
 0001:000039a0       ??RCTraceFileAndLineInfo@ATL@@QEBAXHIPEB_WZZ 00000001800049a0 f i OposVariant.obj
 0001:00003a50       ??_Estringdispid@CComTypeInfoHolder@ATL@@QEAAPEAXI@Z 0000000180004a50 f i OposVariant.obj
 0001:00003b00       ??_H@YAXPEAX_K1P6APEAX0@Z@Z 0000000180004b00 f i OposVariant.obj
 0001:00003b90       ??_I@YAXPEAX_K1P6AX0@Z@Z   0000000180004b90 f i OposVariant.obj
 0001:00003c40       ?Allocate@?$CHeapPtr@_WVCCRTAllocator@ATL@@@ATL@@QEAA_N_K@Z 0000000180004c40 f i OposVariant.obj
 0001:00003cc0       ?Allocate@CCRTAllocator@ATL@@SAPEAX_K@Z 0000000180004cc0 f i OposVariant.obj
 0001:00003cf0       ?AllocateBytes@?$CHeapPtrBase@_WVCCRTAllocator@ATL@@@ATL@@QEAA_N_K@Z 0000000180004cf0 f i OposVariant.obj
 0001:00003d90       ?AtlWinModuleInit@ATL@@YAJPEAU_ATL_WIN_MODULE70@1@@Z 0000000180004d90 f i OposVariant.obj
 0001:00003e90       ?AtlWinModuleTerm@ATL@@YAJPEAU_ATL_WIN_MODULE70@1@PEAUHINSTANCE__@@@Z 0000000180004e90 f i OposVariant.obj
 0001:00003f80       ?Clear@OposVariant@@QEAAJXZ 0000000180004f80 f i OposVariant.obj
 0001:00003fc0       ?Free@?$CHeapPtrBase@_WVCCRTAllocator@ATL@@@ATL@@QEAAXXZ 0000000180004fc0 f i OposVariant.obj
 0001:00004000       ?Free@CCRTAllocator@ATL@@SAXPEAX@Z 0000000180005000 f i OposVariant.obj
 0001:00004030       ?GetCategoryName@CTrace@ATL@@CAPEA_WI@Z 0000000180005030 f i OposVariant.obj
 0001:000040b0       ?GetModuleInstance@CAtlBaseModule@ATL@@QEAAPEAUHINSTANCE__@@XZ 00000001800050b0 f i OposVariant.obj
 0001:000040d0       ?GetSize@?$CSimpleArray@GV?$CSimpleArrayEqualHelper@G@ATL@@@ATL@@QEBAHXZ 00000001800050d0 f i OposVariant.obj
 0001:000040e0       ?Init@CComCriticalSection@ATL@@QEAAJXZ 00000001800050e0 f i OposVariant.obj
 0001:00004140       ?RegisterCategory@CTrace@ATL@@SAXPEB_WI@Z 0000000180005140 f i OposVariant.obj
 0001:00004220       ?RemoveAll@?$CSimpleArray@GV?$CSimpleArrayEqualHelper@G@ATL@@@ATL@@QEAAXXZ 0000000180005220 f i OposVariant.obj
 0001:000042b0       ?Term@CAtlComModule@ATL@@QEAAXXZ 00000001800052b0 f i OposVariant.obj
 0001:00004390       ?Term@CAtlWinModule@ATL@@QEAAXXZ 0000000180005390 f i OposVariant.obj
 0001:000043d0       ?Term@CComCriticalSection@ATL@@QEAAJXZ 00000001800053d0 f i OposVariant.obj
 0001:00004410       ?TraceV@CTrace@ATL@@CAXPEBDHIIPEB_W@Z 0000000180005410 f i OposVariant.obj
 0001:000046c0       ?TraceV@CTrace@ATL@@SAXPEBDHIIPEB_WPEAD@Z 00000001800056c0 f i OposVariant.obj
 0001:00004870       ?_AtlInitializeCriticalSectionEx@ATL@@YAHPEAU_RTL_CRITICAL_SECTION@@KK@Z 0000000180005870 f i OposVariant.obj
 0001:000048c0       ?_AtlRaiseException@ATL@@YAXKK@Z 00000001800058c0 f i OposVariant.obj
 0001:00004900       HRESULT_FROM_WIN32         0000000180005900 f i OposVariant.obj
 0001:00004950       _vswprintf_s_l             0000000180005950 f i OposVariant.obj
 0001:000049e0       swprintf_s                 00000001800059e0 f i OposVariant.obj
 0001:00004a70       ?ObjectMain@CComObjectRootBase@ATL@@SAX_N@Z 0000000180005a70 f i Totals.obj
 0001:00004a80       ?GetCategoryMap@CComObjectRootBase@ATL@@SAPEBU_ATL_CATMAP_ENTRY@2@XZ 0000000180005a80 f i Totals.obj
 0001:00004a90       ?GetObjectDescription@?$CComCoClass@VCOPOSTotals@@$1?CLSID_OPOSTotals@@3U_GUID@@B@ATL@@SAPEB_WXZ 0000000180005a90 f i Totals.obj
 0001:00004aa0       ?UpdateRegistry@COPOSTotals@@SAJH@Z 0000000180005aa0 f i Totals.obj
 0001:00004ae0       ?CreateInstance@?$CComCreator@V?$CComObjectCached@VCComClassFactory@ATL@@@ATL@@@ATL@@SAJPEAXAEBU_GUID@@PEAPEAX@Z 0000000180005ae0 f i Totals.obj
 0001:00004cd0       ?CreateInstance@?$CComCreator2@V?$CComCreator@V?$CComObject@VCOPOSTotals@@@ATL@@@ATL@@V?$CComCreator@V?$CComAggObject@VCOPOSTotals@@@ATL@@@2@@ATL@@SAJPEAXAEBU_GUID@@PEAPEAX@Z 0000000180005cd0 f i Totals.obj
 0001:00004ee0       DllGetClassObject          0000000180005ee0 f   Totals.obj
 0001:00004f30       DllCanUnloadNow            0000000180005f30 f   Totals.obj
 0001:00004f80       DllRegisterServer          0000000180005f80 f   Totals.obj
 0001:00004fc0       DllUnregisterServer        0000000180005fc0 f   Totals.obj
 0001:000051c0       DllMain                    00000001800061c0 f   Totals.obj
 0001:00005240       ??$?2G@Wrapper@?$CSimpleArray@GV?$CSimpleArrayEqualHelper@G@ATL@@@ATL@@SAPEAX_KPEAG@Z 0000000180006240 f i Totals.obj
 0001:00005260       ??$?2PEA_W@?$Wrapper@PEA_W@?$CSimpleMap@PEA_WPEA_WVCExpansionVectorEqualHelper@ATL@@@ATL@@SAPEAX_KPEAPEA_W@Z 0000000180006260 f i Totals.obj
 0001:00005280       ??$?4UITypeInfo2@@@?$CComPtr@UITypeInfo@@@ATL@@QEAAPEAUITypeInfo@@AEBV?$CComPtr@UITypeInfo2@@@1@@Z 0000000180006280 f i Totals.obj
 0001:000052f0       ??$AtlAdd@_K@ATL@@YAJPEA_K_K1@Z 00000001800062f0 f i Totals.obj
 0001:00005360       ??$AtlAddThrow@_K@ATL@@YA_K_K0@Z 0000000180006360 f i Totals.obj
 0001:000053d0       ??$AtlModuleRegisterWndClassInfoT@VAtlModuleRegisterWndClassInfoParamW@ATL@@@ATL@@YAGPEAU_ATL_BASE_MODULE70@0@PEAU_ATL_WIN_MODULE70@0@PEAU_ATL_WNDCLASSINFOW@0@PEAP6A_JPEAUHWND__@@I_K_J@ZVAtlModuleRegisterWndClassInfoParamW@0@@Z 00000001800063d0 f i Totals.obj
 0001:000059a0       ??$AtlMultiply@H@ATL@@YAJPEAHHH@Z 00000001800069a0 f i Totals.obj
 0001:00005a10       ??$AtlMultiply@K@ATL@@YAJPEAKKK@Z 0000000180006a10 f i Totals.obj
 0001:00005a80       ??$AtlMultiplyThrow@_K@ATL@@YA_K_K0@Z 0000000180006a80 f i Totals.obj
 0001:00005af0       ??$QueryInterface@UIPersistStream@@@IUnknown@@QEAAJPEAPEAUIPersistStream@@@Z 0000000180006af0 f i Totals.obj
 0001:00005b40       ??$QueryInterface@UITypeInfo2@@@IUnknown@@QEAAJPEAPEAUITypeInfo2@@@Z 0000000180006b40 f i Totals.obj
 0001:00005b90       ??0?$CAtlModuleT@VCComModule@ATL@@@ATL@@QEAA@XZ 0000000180006b90 f i Totals.obj
 0001:00005bd0       ??0?$CAtlSafeAllocBufferManager@VCCRTAllocator@ATL@@@_ATL_SAFE_ALLOCA_IMPL@ATL@@QEAA@XZ 0000000180006bd0 f i Totals.obj
 0001:00005bf0       ??0?$CAutoVectorPtr@_W@ATL@@QEAA@XZ 0000000180006bf0 f i Totals.obj
 0001:00005c10       ??0?$CComAggObject@VCOPOSTotals@@@ATL@@QEAA@PEAX@Z 0000000180006c10 f i Totals.obj
 0001:00005ca0       ??0?$CComContainedObject@VCOPOSTotals@@@ATL@@QEAA@PEAX@Z 0000000180006ca0 f i Totals.obj
 0001:00005e40       ??0?$CComCritSecLock@VCComCriticalSection@ATL@@@ATL@@QEAA@AEAVCComCriticalSection@1@_N@Z 0000000180006e40 f i Totals.obj
 0001:00005eb0       ??0?$CComEnum@UIEnumConnectionPoints@@$1?_GUID_b196b285_bab4_101a_b69c_00aa00341d07@@3U__s_GUID@@BPEAUIConnectionPoint@@V?$_CopyInterface@UIConnectionPoint@@@ATL@@VCComSingleThreadModel@6@@ATL@@QEAA@XZ 0000000180006eb0 f i Totals.obj
 0001:00005f00       ??0?$CComEnum@UIEnumConnections@@$1?_GUID_b196b287_bab4_101a_b69c_00aa00341d07@@3U__s_GUID@@BUtagCONNECTDATA@@V?$_Copy@UtagCONNECTDATA@@@ATL@@VCComSingleThreadModel@6@@ATL@@QEAA@XZ 0000000180006f00 f i Totals.obj
 0001:00005f50       ??0?$CComEnumImpl@UIEnumConnectionPoints@@$1?_GUID_b196b285_bab4_101a_b69c_00aa00341d07@@3U__s_GUID@@BPEAUIConnectionPoint@@V?$_CopyInterface@UIConnectionPoint@@@ATL@@@ATL@@QEAA@XZ 0000000180006f50 f i Totals.obj
 0001:00005fd0       ??0?$CComEnumImpl@UIEnumConnections@@$1?_GUID_b196b287_bab4_101a_b69c_00aa00341d07@@3U__s_GUID@@BUtagCONNECTDATA@@V?$_Copy@UtagCONNECTDATA@@@ATL@@@ATL@@QEAA@XZ 0000000180006fd0 f i Totals.obj
 0001:00006050       ??0?$CComObject@V?$CComEnum@UIEnumConnectionPoints@@$1?_GUID_b196b285_bab4_101a_b69c_00aa00341d07@@3U__s_GUID@@BPEAUIConnectionPoint@@V?$_CopyInterface@UIConnectionPoint@@@ATL@@VCComSingleThreadModel@6@@ATL@@@ATL@@QEAA@PEAX@Z 0000000180007050 f i Totals.obj
 0001:000060b0       ??0?$CComObject@V?$CComEnum@UIEnumConnections@@$1?_GUID_b196b287_bab4_101a_b69c_00aa00341d07@@3U__s_GUID@@BUtagCONNECTDATA@@V?$_Copy@UtagCONNECTDATA@@@ATL@@VCComSingleThreadModel@6@@ATL@@@ATL@@QEAA@PEAX@Z 00000001800070b0 f i Totals.obj
 0001:00006110       ??0?$CComObject@VCOPOSTotals@@@ATL@@QEAA@PEAX@Z 0000000180007110 f i Totals.obj
 0001:000062b0       ??0?$CComObjectCached@VCComClassFactory@ATL@@@ATL@@QEAA@PEAX@Z 00000001800072b0 f i Totals.obj
 0001:00006300       ??0?$CComObjectRootEx@VCComMultiThreadModel@ATL@@@ATL@@QEAA@XZ 0000000180007300 f i Totals.obj
 0001:00006350       ??0?$CComObjectRootEx@VCComSingleThreadModel@ATL@@@ATL@@QEAA@XZ 0000000180007350 f i Totals.obj
 0001:00006390       ??0?$CComPtr@UIAdviseSink@@@ATL@@QEAA@PEAUIAdviseSink@@@Z 0000000180007390 f i Totals.obj
 0001:000063d0       ??0?$CComPtr@UICatRegister@@@ATL@@QEAA@XZ 00000001800073d0 f i Totals.obj
 0001:00006410       ??0?$CComPtr@UIConnectionPoint@@@ATL@@QEAA@XZ 0000000180007410 f i Totals.obj
 0001:00006450       ??0?$CComPtr@UIConnectionPointContainer@@@ATL@@QEAA@XZ 0000000180007450 f i Totals.obj
 0001:00006490       ??0?$CComPtr@UIDataObject@@@ATL@@QEAA@XZ 0000000180007490 f i Totals.obj
 0001:000064d0       ??0?$CComPtr@UIDispatch@@@ATL@@QEAA@XZ 00000001800074d0 f i Totals.obj
 0001:00006510       ??0?$CComPtr@UIOleClientSite@@@ATL@@QEAA@PEAUIOleClientSite@@@Z 0000000180007510 f i Totals.obj
 0001:00006550       ??0?$CComPtr@UIOleControlSite@@@ATL@@QEAA@XZ 0000000180007550 f i Totals.obj
 0001:00006590       ??0?$CComPtr@UIOleInPlaceActiveObject@@@ATL@@QEAA@XZ 0000000180007590 f i Totals.obj
 0001:000065d0       ??0?$CComPtr@UIOleInPlaceFrame@@@ATL@@QEAA@XZ 00000001800075d0 f i Totals.obj
 0001:00006610       ??0?$CComPtr@UIOleInPlaceObject@@@ATL@@QEAA@XZ 0000000180007610 f i Totals.obj
 0001:00006650       ??0?$CComPtr@UIOleInPlaceUIWindow@@@ATL@@QEAA@XZ 0000000180007650 f i Totals.obj
 0001:00006690       ??0?$CComPtr@UIOleObject@@@ATL@@QEAA@XZ 0000000180007690 f i Totals.obj
 0001:000066d0       ??0?$CComPtr@UIPersistStream@@@ATL@@QEAA@XZ 00000001800076d0 f i Totals.obj
 0001:00006710       ??0?$CComPtr@UIPersistStreamInit@@@ATL@@QEAA@XZ 0000000180007710 f i Totals.obj
 0001:00006750       ??0?$CComPtr@UIPointerInactive@@@ATL@@QEAA@XZ 0000000180007750 f i Totals.obj
 0001:00006790       ??0?$CComPtr@UIProvideClassInfo2@@@ATL@@QEAA@XZ 0000000180007790 f i Totals.obj
 0001:000067d0       ??0?$CComPtr@UISpecifyPropertyPages@@@ATL@@QEAA@XZ 00000001800077d0 f i Totals.obj
 0001:00006810       ??0?$CComPtr@UIStream@@@ATL@@QEAA@XZ 0000000180007810 f i Totals.obj
 0001:00006850       ??0?$CComPtr@UITypeInfo2@@@ATL@@QEAA@XZ 0000000180007850 f i Totals.obj
 0001:00006890       ??0?$CComPtr@UITypeInfo@@@ATL@@QEAA@AEBV01@@Z 0000000180007890 f i Totals.obj
 0001:000068d0       ??0?$CComPtr@UITypeInfo@@@ATL@@QEAA@XZ 00000001800078d0 f i Totals.obj
 0001:00006910       ??0?$CComPtr@UITypeLib@@@ATL@@QEAA@XZ 0000000180007910 f i Totals.obj
 0001:00006950       ??0?$CComPtr@UIUnknown@@@ATL@@QEAA@AEBV01@@Z 0000000180007950 f i Totals.obj
 0001:00006990       ??0?$CComPtr@UIUnknown@@@ATL@@QEAA@PEAUIUnknown@@@Z 0000000180007990 f i Totals.obj
 0001:000069d0       ??0?$CComPtr@UIUnknown@@@ATL@@QEAA@XZ 00000001800079d0 f i Totals.obj
 0001:00006a10       ??0?$CComPtr@UIViewObjectEx@@@ATL@@QEAA@XZ 0000000180007a10 f i Totals.obj
 0001:00006a50       ??0?$CComPtrBase@UIAdviseSink@@@ATL@@IEAA@PEAUIAdviseSink@@@Z 0000000180007a50 f i Totals.obj
 0001:00006ab0       ??0?$CComPtrBase@UICatRegister@@@ATL@@IEAA@XZ 0000000180007ab0 f i Totals.obj
 0001:00006ad0       ??0?$CComPtrBase@UIConnectionPoint@@@ATL@@IEAA@XZ 0000000180007ad0 f i Totals.obj
 0001:00006af0       ??0?$CComPtrBase@UIConnectionPointContainer@@@ATL@@IEAA@XZ 0000000180007af0 f i Totals.obj
 0001:00006b10       ??0?$CComPtrBase@UIDataObject@@@ATL@@IEAA@XZ 0000000180007b10 f i Totals.obj
 0001:00006b30       ??0?$CComPtrBase@UIDispatch@@@ATL@@IEAA@XZ 0000000180007b30 f i Totals.obj
 0001:00006b50       ??0?$CComPtrBase@UIOleClientSite@@@ATL@@IEAA@PEAUIOleClientSite@@@Z 0000000180007b50 f i Totals.obj
 0001:00006bb0       ??0?$CComPtrBase@UIOleControlSite@@@ATL@@IEAA@XZ 0000000180007bb0 f i Totals.obj
 0001:00006bd0       ??0?$CComPtrBase@UIOleInPlaceActiveObject@@@ATL@@IEAA@XZ 0000000180007bd0 f i Totals.obj
 0001:00006bf0       ??0?$CComPtrBase@UIOleInPlaceFrame@@@ATL@@IEAA@XZ 0000000180007bf0 f i Totals.obj
 0001:00006c10       ??0?$CComPtrBase@UIOleInPlaceObject@@@ATL@@IEAA@XZ 0000000180007c10 f i Totals.obj
 0001:00006c30       ??0?$CComPtrBase@UIOleInPlaceUIWindow@@@ATL@@IEAA@XZ 0000000180007c30 f i Totals.obj
 0001:00006c50       ??0?$CComPtrBase@UIOleObject@@@ATL@@IEAA@XZ 0000000180007c50 f i Totals.obj
 0001:00006c70       ??0?$CComPtrBase@UIPersistStream@@@ATL@@IEAA@XZ 0000000180007c70 f i Totals.obj
 0001:00006c90       ??0?$CComPtrBase@UIPersistStreamInit@@@ATL@@IEAA@XZ 0000000180007c90 f i Totals.obj
 0001:00006cb0       ??0?$CComPtrBase@UIPointerInactive@@@ATL@@IEAA@XZ 0000000180007cb0 f i Totals.obj
 0001:00006cd0       ??0?$CComPtrBase@UIProvideClassInfo2@@@ATL@@IEAA@XZ 0000000180007cd0 f i Totals.obj
 0001:00006cf0       ??0?$CComPtrBase@UISpecifyPropertyPages@@@ATL@@IEAA@XZ 0000000180007cf0 f i Totals.obj
 0001:00006d10       ??0?$CComPtrBase@UIStream@@@ATL@@IEAA@XZ 0000000180007d10 f i Totals.obj
 0001:00006d30       ??0?$CComPtrBase@UITypeInfo2@@@ATL@@IEAA@XZ 0000000180007d30 f i Totals.obj
 0001:00006d50       ??0?$CComPtrBase@UITypeInfo@@@ATL@@IEAA@PEAUITypeInfo@@@Z 0000000180007d50 f i Totals.obj
 0001:00006db0       ??0?$CComPtrBase@UITypeInfo@@@ATL@@IEAA@XZ 0000000180007db0 f i Totals.obj
 0001:00006dd0       ??0?$CComPtrBase@UITypeLib@@@ATL@@IEAA@XZ 0000000180007dd0 f i Totals.obj
 0001:00006df0       ??0?$CComPtrBase@UIUnknown@@@ATL@@IEAA@PEAUIUnknown@@@Z 0000000180007df0 f i Totals.obj
 0001:00006e50       ??0?$CComPtrBase@UIUnknown@@@ATL@@IEAA@XZ 0000000180007e50 f i Totals.obj
 0001:00006e70       ??0?$CComPtrBase@UIViewObjectEx@@@ATL@@IEAA@XZ 0000000180007e70 f i Totals.obj
 0001:00006e90       ??0?$CComQIPtr@UIOleControlSite@@$1?_GUID_b196b289_bab4_101a_b69c_00aa00341d07@@3U__s_GUID@@B@ATL@@QEAA@PEAUIUnknown@@@Z 0000000180007e90 f i Totals.obj
 0001:00006f00       ??0?$CComQIPtr@UIOleObject@@$1?_GUID_00000112_0000_0000_c000_000000000046@@3U__s_GUID@@B@ATL@@QEAA@XZ 0000000180007f00 f i Totals.obj
 0001:00006f40       ??0?$CComQIPtr@UISpecifyPropertyPages@@$1?_GUID_b196b28b_bab4_101a_b69c_00aa00341d07@@3U__s_GUID@@B@ATL@@QEAA@XZ 0000000180007f40 f i Totals.obj
 0001:00006f80       ??0?$CSimpleMap@PEA_WPEA_WVCExpansionVectorEqualHelper@ATL@@@ATL@@QEAA@XZ 0000000180007f80 f i Totals.obj
 0001:00006fc0       ??0?$CTempBuffer@E$0BAA@VCCRTAllocator@ATL@@@ATL@@QEAA@XZ 0000000180007fc0 f i Totals.obj
 0001:00006fe0       ??0?$CTempBuffer@_W$0BAA@VCCRTAllocator@ATL@@@ATL@@QEAA@XZ 0000000180007fe0 f i Totals.obj
 0001:00007000       ??0?$CTempBuffer@_W$0EAA@VCCRTAllocator@ATL@@@ATL@@QEAA@XZ 0000000180008000 f i Totals.obj
 0001:00007020       ??0?$Wrapper@PEA_W@?$CSimpleMap@PEA_WPEA_WVCExpansionVectorEqualHelper@ATL@@@ATL@@QEAA@AEBQEA_W@Z 0000000180008020 f i Totals.obj
 0001:00007050       ??0CAtlModule@ATL@@QEAA@XZ 0000000180008050 f i Totals.obj
 0001:000071c0       ??0CComAutoDeleteCriticalSection@ATL@@QEAA@XZ 00000001800081c0 f i Totals.obj
 0001:00007200       ??0CComBSTR@ATL@@QEAA@XZ   0000000180008200 f i Totals.obj
 0001:00007220       ??0CComClassFactory@ATL@@QEAA@XZ 0000000180008220 f i Totals.obj
 0001:00007280       ??0CComModule@ATL@@QEAA@XZ 0000000180008280 f i Totals.obj
 0001:00007320       ??0CComObjectRootBase@ATL@@QEAA@XZ 0000000180008320 f i Totals.obj
 0001:00007340       ??0CComSafeDeleteCriticalSection@ATL@@QEAA@XZ 0000000180008340 f i Totals.obj
 0001:00007380       ??0CComVariant@ATL@@QEAA@XZ 0000000180008380 f i Totals.obj
 0001:000073d0       ??0CExpansionVector@ATL@@QEAA@XZ 00000001800083d0 f i Totals.obj
 0001:00007410       ??0CParseBuffer@CRegParser@ATL@@QEAA@H@Z 0000000180008410 f i Totals.obj
 0001:000074a0       ??0CRegKey@ATL@@QEAA@PEAUHKEY__@@@Z 00000001800084a0 f i Totals.obj
 0001:000074e0       ??0CRegKey@ATL@@QEAA@PEAVCAtlTransactionManager@1@@Z 00000001800084e0 f i Totals.obj
 0001:00007520       ??0CRegObject@ATL@@QEAA@XZ 0000000180008520 f i Totals.obj
 0001:00007580       ??0CRegParser@ATL@@QEAA@PEAVCRegObject@1@@Z 0000000180008580 f i Totals.obj
 0001:000075b0       ??0IClassFactory@@QEAA@XZ  00000001800085b0 f i Totals.obj
 0001:000075f0       ??0IEnumConnectionPoints@@QEAA@XZ 00000001800085f0 f i Totals.obj
 0001:00007630       ??0IEnumConnections@@QEAA@XZ 0000000180008630 f i Totals.obj
 0001:00007670       ??0IRegistrarBase@@QEAA@XZ 0000000180008670 f i Totals.obj
 0001:000076b0       ??0IUnknown@@QEAA@XZ       00000001800086b0 f i Totals.obj
 0001:000076c0       ??0ModuleLockHelper@ATL@@QEAA@XZ 00000001800086c0 f i Totals.obj
 0001:00007700       ??0OposVariant@@QEAA@XZ    0000000180008700 f i Totals.obj
 0001:00007720       ??0Wrapper@?$CSimpleArray@GV?$CSimpleArrayEqualHelper@G@ATL@@@ATL@@QEAA@AEBG@Z 0000000180008720 f i Totals.obj
 0001:00007750       ??0_ATL_MODULE70@ATL@@QEAA@XZ 0000000180008750 f i Totals.obj
 0001:00007790       ??0_ATL_MSG@ATL@@QEAA@PEAUHWND__@@I_K_JH@Z 0000000180008790 f i Totals.obj
 0001:00007820       ??0_U_MENUorID@ATL@@QEAA@I@Z 0000000180008820 f i Totals.obj
 0001:00007840       ??0_U_RECT@ATL@@QEAA@AEAUtagRECT@@@Z 0000000180008840 f i Totals.obj
 0001:00007860       ??0stringdispid@CComTypeInfoHolder@ATL@@QEAA@XZ 0000000180008860 f i Totals.obj
 0001:000078b0       ??1?$CAtlModuleT@VCComModule@ATL@@@ATL@@UEAA@XZ 00000001800088b0 f i Totals.obj
 0001:000078e0       ??1?$CAtlSafeAllocBufferManager@VCCRTAllocator@ATL@@@_ATL_SAFE_ALLOCA_IMPL@ATL@@QEAA@XZ 00000001800088e0 f i Totals.obj
 0001:00007940       ??1?$CAutoVectorPtr@_W@ATL@@QEAA@XZ 0000000180008940 f i Totals.obj
 0001:00007970       ??1?$CComAggObject@VCOPOSTotals@@@ATL@@UEAA@XZ 0000000180008970 f i Totals.obj
 0001:000079f0       ??1?$CComContainedObject@VCOPOSTotals@@@ATL@@UEAA@XZ 00000001800089f0 f i Totals.obj
 0001:00007a20       ??1?$CComCritSecLock@VCComCriticalSection@ATL@@@ATL@@QEAA@XZ 0000000180008a20 f i Totals.obj
 0001:00007a60       ??1?$CComEnum@UIEnumConnectionPoints@@$1?_GUID_b196b285_bab4_101a_b69c_00aa00341d07@@3U__s_GUID@@BPEAUIConnectionPoint@@V?$_CopyInterface@UIConnectionPoint@@@ATL@@VCComSingleThreadModel@6@@ATL@@UEAA@XZ 0000000180008a60 f i Totals.obj
 0001:00007aa0       ??1?$CComEnum@UIEnumConnections@@$1?_GUID_b196b287_bab4_101a_b69c_00aa00341d07@@3U__s_GUID@@BUtagCONNECTDATA@@V?$_Copy@UtagCONNECTDATA@@@ATL@@VCComSingleThreadModel@6@@ATL@@UEAA@XZ 0000000180008aa0 f i Totals.obj
 0001:00007ae0       ??1?$CComEnumImpl@UIEnumConnectionPoints@@$1?_GUID_b196b285_bab4_101a_b69c_00aa00341d07@@3U__s_GUID@@BPEAUIConnectionPoint@@V?$_CopyInterface@UIConnectionPoint@@@ATL@@@ATL@@UEAA@XZ 0000000180008ae0 f i Totals.obj
 0001:00007b80       ??1?$CComEnumImpl@UIEnumConnections@@$1?_GUID_b196b287_bab4_101a_b69c_00aa00341d07@@3U__s_GUID@@BUtagCONNECTDATA@@V?$_Copy@UtagCONNECTDATA@@@ATL@@@ATL@@UEAA@XZ 0000000180008b80 f i Totals.obj
 0001:00007c20       ??1?$CComObject@V?$CComEnum@UIEnumConnectionPoints@@$1?_GUID_b196b285_bab4_101a_b69c_00aa00341d07@@3U__s_GUID@@BPEAUIConnectionPoint@@V?$_CopyInterface@UIConnectionPoint@@@ATL@@VCComSingleThreadModel@6@@ATL@@@ATL@@UEAA@XZ 0000000180008c20 f i Totals.obj
 0001:00007c90       ??1?$CComObject@V?$CComEnum@UIEnumConnections@@$1?_GUID_b196b287_bab4_101a_b69c_00aa00341d07@@3U__s_GUID@@BUtagCONNECTDATA@@V?$_Copy@UtagCONNECTDATA@@@ATL@@VCComSingleThreadModel@6@@ATL@@@ATL@@UEAA@XZ 0000000180008c90 f i Totals.obj
 0001:00007d00       ??1?$CComObject@VCOPOSTotals@@@ATL@@UEAA@XZ 0000000180008d00 f i Totals.obj
 0001:00007eb0       ??1?$CComObjectCached@VCComClassFactory@ATL@@@ATL@@UEAA@XZ 0000000180008eb0 f i Totals.obj
 0001:00007f10       ??1?$CComObjectRootEx@VCComMultiThreadModel@ATL@@@ATL@@QEAA@XZ 0000000180008f10 f i Totals.obj
 0001:00007f50       ??1?$CComObjectRootEx@VCComSingleThreadModel@ATL@@@ATL@@QEAA@XZ 0000000180008f50 f i Totals.obj
 0001:00007f80       ??1?$CComPtr@UIAdviseSink@@@ATL@@QEAA@XZ 0000000180008f80 f i Totals.obj
 0001:00007fb0       ??1?$CComPtr@UICatRegister@@@ATL@@QEAA@XZ 0000000180008fb0 f i Totals.obj
 0001:00007fe0       ??1?$CComPtr@UIConnectionPoint@@@ATL@@QEAA@XZ 0000000180008fe0 f i Totals.obj
 0001:00008010       ??1?$CComPtr@UIConnectionPointContainer@@@ATL@@QEAA@XZ 0000000180009010 f i Totals.obj
 0001:00008040       ??1?$CComPtr@UIDataObject@@@ATL@@QEAA@XZ 0000000180009040 f i Totals.obj
 0001:00008070       ??1?$CComPtr@UIDispatch@@@ATL@@QEAA@XZ 0000000180009070 f i Totals.obj
 0001:000080a0       ??1?$CComPtr@UIOleClientSite@@@ATL@@QEAA@XZ 00000001800090a0 f i Totals.obj
 0001:000080d0       ??1?$CComPtr@UIOleControlSite@@@ATL@@QEAA@XZ 00000001800090d0 f i Totals.obj
 0001:00008100       ??1?$CComPtr@UIOleInPlaceActiveObject@@@ATL@@QEAA@XZ 0000000180009100 f i Totals.obj
 0001:00008130       ??1?$CComPtr@UIOleInPlaceFrame@@@ATL@@QEAA@XZ 0000000180009130 f i Totals.obj
 0001:00008160       ??1?$CComPtr@UIOleInPlaceObject@@@ATL@@QEAA@XZ 0000000180009160 f i Totals.obj
 0001:00008190       ??1?$CComPtr@UIOleInPlaceUIWindow@@@ATL@@QEAA@XZ 0000000180009190 f i Totals.obj
 0001:000081c0       ??1?$CComPtr@UIOleObject@@@ATL@@QEAA@XZ 00000001800091c0 f i Totals.obj
 0001:000081f0       ??1?$CComPtr@UIPersistStream@@@ATL@@QEAA@XZ 00000001800091f0 f i Totals.obj
 0001:00008220       ??1?$CComPtr@UIPersistStreamInit@@@ATL@@QEAA@XZ 0000000180009220 f i Totals.obj
 0001:00008250       ??1?$CComPtr@UIPointerInactive@@@ATL@@QEAA@XZ 0000000180009250 f i Totals.obj
 0001:00008280       ??1?$CComPtr@UIProvideClassInfo2@@@ATL@@QEAA@XZ 0000000180009280 f i Totals.obj
 0001:000082b0       ??1?$CComPtr@UISpecifyPropertyPages@@@ATL@@QEAA@XZ 00000001800092b0 f i Totals.obj
 0001:000082e0       ??1?$CComPtr@UIStream@@@ATL@@QEAA@XZ 00000001800092e0 f i Totals.obj
 0001:00008310       ??1?$CComPtr@UITypeInfo2@@@ATL@@QEAA@XZ 0000000180009310 f i Totals.obj
 0001:00008340       ??1?$CComPtr@UITypeInfo@@@ATL@@QEAA@XZ 0000000180009340 f i Totals.obj
 0001:00008370       ??1?$CComPtr@UITypeLib@@@ATL@@QEAA@XZ 0000000180009370 f i Totals.obj
 0001:000083a0       ??1?$CComPtr@UIUnknown@@@ATL@@QEAA@XZ 00000001800093a0 f i Totals.obj
 0001:000083d0       ??1?$CComPtr@UIViewObjectEx@@@ATL@@QEAA@XZ 00000001800093d0 f i Totals.obj
 0001:00008400       ??1?$CComPtrBase@UIAdviseSink@@@ATL@@QEAA@XZ 0000000180009400 f i Totals.obj
 0001:00008450       ??1?$CComPtrBase@UICatRegister@@@ATL@@QEAA@XZ 0000000180009450 f i Totals.obj
 0001:000084a0       ??1?$CComPtrBase@UIConnectionPoint@@@ATL@@QEAA@XZ 00000001800094a0 f i Totals.obj
 0001:000084f0       ??1?$CComPtrBase@UIConnectionPointContainer@@@ATL@@QEAA@XZ 00000001800094f0 f i Totals.obj
 0001:00008540       ??1?$CComPtrBase@UIDataObject@@@ATL@@QEAA@XZ 0000000180009540 f i Totals.obj
 0001:00008590       ??1?$CComPtrBase@UIDispatch@@@ATL@@QEAA@XZ 0000000180009590 f i Totals.obj
 0001:000085e0       ??1?$CComPtrBase@UIOleClientSite@@@ATL@@QEAA@XZ 00000001800095e0 f i Totals.obj
 0001:00008630       ??1?$CComPtrBase@UIOleControlSite@@@ATL@@QEAA@XZ 0000000180009630 f i Totals.obj
 0001:00008680       ??1?$CComPtrBase@UIOleInPlaceActiveObject@@@ATL@@QEAA@XZ 0000000180009680 f i Totals.obj
 0001:000086d0       ??1?$CComPtrBase@UIOleInPlaceFrame@@@ATL@@QEAA@XZ 00000001800096d0 f i Totals.obj
 0001:00008720       ??1?$CComPtrBase@UIOleInPlaceObject@@@ATL@@QEAA@XZ 0000000180009720 f i Totals.obj
 0001:00008770       ??1?$CComPtrBase@UIOleInPlaceUIWindow@@@ATL@@QEAA@XZ 0000000180009770 f i Totals.obj
 0001:000087c0       ??1?$CComPtrBase@UIOleObject@@@ATL@@QEAA@XZ 00000001800097c0 f i Totals.obj
 0001:00008810       ??1?$CComPtrBase@UIPersistStream@@@ATL@@QEAA@XZ 0000000180009810 f i Totals.obj
 0001:00008860       ??1?$CComPtrBase@UIPersistStreamInit@@@ATL@@QEAA@XZ 0000000180009860 f i Totals.obj
 0001:000088b0       ??1?$CComPtrBase@UIPointerInactive@@@ATL@@QEAA@XZ 00000001800098b0 f i Totals.obj
 0001:00008900       ??1?$CComPtrBase@UIProvideClassInfo2@@@ATL@@QEAA@XZ 0000000180009900 f i Totals.obj
 0001:00008950       ??1?$CComPtrBase@UISpecifyPropertyPages@@@ATL@@QEAA@XZ 0000000180009950 f i Totals.obj
 0001:000089a0       ??1?$CComPtrBase@UIStream@@@ATL@@QEAA@XZ 00000001800099a0 f i Totals.obj
 0001:000089f0       ??1?$CComPtrBase@UITypeInfo2@@@ATL@@QEAA@XZ 00000001800099f0 f i Totals.obj
 0001:00008a40       ??1?$CComPtrBase@UITypeInfo@@@ATL@@QEAA@XZ 0000000180009a40 f i Totals.obj
 0001:00008a90       ??1?$CComPtrBase@UITypeLib@@@ATL@@QEAA@XZ 0000000180009a90 f i Totals.obj
 0001:00008ae0       ??1?$CComPtrBase@UIUnknown@@@ATL@@QEAA@XZ 0000000180009ae0 f i Totals.obj
 0001:00008b30       ??1?$CComPtrBase@UIViewObjectEx@@@ATL@@QEAA@XZ 0000000180009b30 f i Totals.obj
 0001:00008b80       ??1?$CComQIPtr@UIOleControlSite@@$1?_GUID_b196b289_bab4_101a_b69c_00aa00341d07@@3U__s_GUID@@B@ATL@@QEAA@XZ 0000000180009b80 f i Totals.obj
 0001:00008bb0       ??1?$CComQIPtr@UIOleObject@@$1?_GUID_00000112_0000_0000_c000_000000000046@@3U__s_GUID@@B@ATL@@QEAA@XZ 0000000180009bb0 f i Totals.obj
 0001:00008be0       ??1?$CComQIPtr@UISpecifyPropertyPages@@$1?_GUID_b196b28b_bab4_101a_b69c_00aa00341d07@@3U__s_GUID@@B@ATL@@QEAA@XZ 0000000180009be0 f i Totals.obj
 0001:00008c10       ??1?$CSimpleMap@PEA_WPEA_WVCExpansionVectorEqualHelper@ATL@@@ATL@@QEAA@XZ 0000000180009c10 f i Totals.obj
 0001:00008c40       ??1?$CTempBuffer@E$0BAA@VCCRTAllocator@ATL@@@ATL@@QEAA@XZ 0000000180009c40 f i Totals.obj
 0001:00008c90       ??1?$CTempBuffer@_W$0BAA@VCCRTAllocator@ATL@@@ATL@@QEAA@XZ 0000000180009c90 f i Totals.obj
 0001:00008ce0       ??1?$CTempBuffer@_W$0EAA@VCCRTAllocator@ATL@@@ATL@@QEAA@XZ 0000000180009ce0 f i Totals.obj
 0001:00008d30       ??1CAtlModule@ATL@@UEAA@XZ 0000000180009d30 f i Totals.obj
 0001:00008d70       ??1CComAutoDeleteCriticalSection@ATL@@QEAA@XZ 0000000180009d70 f i Totals.obj
 0001:00008da0       ??1CComClassFactory@ATL@@UEAA@XZ 0000000180009da0 f i Totals.obj
 0001:00008df0       ??1CComModule@ATL@@UEAA@XZ 0000000180009df0 f i Totals.obj
 0001:00008e30       ??1CComObjectRootBase@ATL@@QEAA@XZ 0000000180009e30 f i Totals.obj
 0001:00008e40       ??1CComSafeDeleteCriticalSection@ATL@@QEAA@XZ 0000000180009e40 f i Totals.obj
 0001:00008e90       ??1CComVariant@ATL@@QEAA@XZ 0000000180009e90 f i Totals.obj
 0001:00008f10       ??1CExpansionVector@ATL@@QEAA@XZ 0000000180009f10 f i Totals.obj
 0001:00008f50       ??1CParseBuffer@CRegParser@ATL@@QEAA@XZ 0000000180009f50 f i Totals.obj
 0001:00008f90       ??1CRegKey@ATL@@QEAA@XZ    0000000180009f90 f i Totals.obj
 0001:00008fc0       ??1CRegObject@ATL@@UEAA@XZ 0000000180009fc0 f i Totals.obj
 0001:00009010       ??1ModuleLockHelper@ATL@@QEAA@XZ 000000018000a010 f i Totals.obj
 0001:00009050       ??1OposVariant@@QEAA@XZ    000000018000a050 f i Totals.obj
 0001:00009090       ??1_ATL_MODULE70@ATL@@QEAA@XZ 000000018000a090 f i Totals.obj
 0001:000090d0       ??4?$CComPtr@UIAdviseSink@@@ATL@@QEAAPEAUIAdviseSink@@PEAU2@@Z 000000018000a0d0 f i Totals.obj
 0001:00009140       ??4?$CComPtr@UIOleClientSite@@@ATL@@QEAAPEAUIOleClientSite@@PEAU2@@Z 000000018000a140 f i Totals.obj
 0001:000091b0       ??4?$CComPtr@UIUnknown@@@ATL@@QEAAPEAUIUnknown@@PEAU2@@Z 000000018000a1b0 f i Totals.obj
 0001:00009220       ??4?$CComQIPtr@UIOleObject@@$1?_GUID_00000112_0000_0000_c000_000000000046@@3U__s_GUID@@B@ATL@@QEAAPEAUIOleObject@@PEAUIUnknown@@@Z 000000018000a220 f i Totals.obj
 0001:00009280       ??4?$CComQIPtr@UISpecifyPropertyPages@@$1?_GUID_b196b28b_bab4_101a_b69c_00aa00341d07@@3U__s_GUID@@B@ATL@@QEAAPEAUISpecifyPropertyPages@@PEAUIUnknown@@@Z 000000018000a280 f i Totals.obj
 0001:000092e0       ??7?$CComPtrBase@UIOleClientSite@@@ATL@@QEBA_NXZ 000000018000a2e0 f i Totals.obj
 0001:00009330       ??7?$CComPtrBase@UIOleInPlaceSiteWindowless@@@ATL@@QEBA_NXZ 000000018000a330 f i Totals.obj
 0001:00009380       ??7CComBSTR@ATL@@QEBA_NXZ  000000018000a380 f i Totals.obj
 0001:000093d0       ??8?$CComPtrBase@UIConnectionPointContainer@@@ATL@@QEBA_NPEAUIConnectionPointContainer@@@Z 000000018000a3d0 f i Totals.obj
 0001:00009420       ??8?$CComPtrBase@UIDataAdviseHolder@@@ATL@@QEBA_NPEAUIDataAdviseHolder@@@Z 000000018000a420 f i Totals.obj
 0001:00009470       ??8?$CComPtrBase@UIOleAdviseHolder@@@ATL@@QEBA_NPEAUIOleAdviseHolder@@@Z 000000018000a470 f i Totals.obj
 0001:000094c0       ??8?$CComPtrBase@UIOleClientSite@@@ATL@@QEBA_NPEAUIOleClientSite@@@Z 000000018000a4c0 f i Totals.obj
 0001:00009510       ??8?$CComPtrBase@UIOleControlSite@@@ATL@@QEBA_NPEAUIOleControlSite@@@Z 000000018000a510 f i Totals.obj
 0001:00009560       ??8?$CComPtrBase@UIOleInPlaceObject@@@ATL@@QEBA_NPEAUIOleInPlaceObject@@@Z 000000018000a560 f i Totals.obj
 0001:000095b0       ??8?$CComPtrBase@UIOleInPlaceSiteWindowless@@@ATL@@QEBA_NPEAUIOleInPlaceSiteWindowless@@@Z 000000018000a5b0 f i Totals.obj
 0001:00009600       ??8?$CComPtrBase@UIOleObject@@@ATL@@QEBA_NPEAUIOleObject@@@Z 000000018000a600 f i Totals.obj
 0001:00009650       ??8?$CComPtrBase@UIPersistStream@@@ATL@@QEBA_NPEAUIPersistStream@@@Z 000000018000a650 f i Totals.obj
 0001:000096a0       ??8?$CComPtrBase@UIPersistStreamInit@@@ATL@@QEBA_NPEAUIPersistStreamInit@@@Z 000000018000a6a0 f i Totals.obj
 0001:000096f0       ??8?$CComPtrBase@UIPointerInactive@@@ATL@@QEBA_NPEAUIPointerInactive@@@Z 000000018000a6f0 f i Totals.obj
 0001:00009740       ??8?$CComPtrBase@UIUnknown@@@ATL@@QEBA_NPEAUIUnknown@@@Z 000000018000a740 f i Totals.obj
 0001:00009790       ??8?$CComPtrBase@UIViewObjectEx@@@ATL@@QEBA_NPEAUIViewObjectEx@@@Z 000000018000a790 f i Totals.obj
 0001:000097e0       ??8CComBSTR@ATL@@QEBA_NH@Z 000000018000a7e0 f i Totals.obj
 0001:00009860       ??9?$CComPtrBase@UIConnectionPointContainer@@@ATL@@QEBA_NPEAUIConnectionPointContainer@@@Z 000000018000a860 f i Totals.obj
 0001:000098c0       ??9?$CComPtrBase@UIDataAdviseHolder@@@ATL@@QEBA_NPEAUIDataAdviseHolder@@@Z 000000018000a8c0 f i Totals.obj
 0001:00009920       ??9?$CComPtrBase@UIOleAdviseHolder@@@ATL@@QEBA_NPEAUIOleAdviseHolder@@@Z 000000018000a920 f i Totals.obj
 0001:00009980       ??9?$CComPtrBase@UIOleClientSite@@@ATL@@QEBA_NPEAUIOleClientSite@@@Z 000000018000a980 f i Totals.obj
 0001:000099e0       ??9?$CComPtrBase@UIOleControlSite@@@ATL@@QEBA_NPEAUIOleControlSite@@@Z 000000018000a9e0 f i Totals.obj
 0001:00009a40       ??9?$CComPtrBase@UIOleInPlaceObject@@@ATL@@QEBA_NPEAUIOleInPlaceObject@@@Z 000000018000aa40 f i Totals.obj
 0001:00009aa0       ??9?$CComPtrBase@UIOleInPlaceSiteWindowless@@@ATL@@QEBA_NPEAUIOleInPlaceSiteWindowless@@@Z 000000018000aaa0 f i Totals.obj
 0001:00009b00       ??9?$CComPtrBase@UIOleObject@@@ATL@@QEBA_NPEAUIOleObject@@@Z 000000018000ab00 f i Totals.obj
 0001:00009b60       ??9?$CComPtrBase@UIPersistStream@@@ATL@@QEBA_NPEAUIPersistStream@@@Z 000000018000ab60 f i Totals.obj
 0001:00009bc0       ??9?$CComPtrBase@UIPersistStreamInit@@@ATL@@QEBA_NPEAUIPersistStreamInit@@@Z 000000018000abc0 f i Totals.obj
 0001:00009c20       ??9?$CComPtrBase@UIPointerInactive@@@ATL@@QEBA_NPEAUIPointerInactive@@@Z 000000018000ac20 f i Totals.obj
 0001:00009c80       ??9?$CComPtrBase@UIUnknown@@@ATL@@QEBA_NPEAUIUnknown@@@Z 000000018000ac80 f i Totals.obj
 0001:00009ce0       ??9?$CComPtrBase@UIViewObjectEx@@@ATL@@QEBA_NPEAUIViewObjectEx@@@Z 000000018000ace0 f i Totals.obj
 0001:00009d40       ??9CComBSTR@ATL@@QEBA_NH@Z 000000018000ad40 f i Totals.obj
 0001:00009da0       ??B?$CComPtrBase@UIAdviseSink@@@ATL@@QEBAPEAUIAdviseSink@@XZ 000000018000ada0 f i Totals.obj
 0001:00009db0       ??B?$CComPtrBase@UIDataAdviseHolder@@@ATL@@QEBAPEAUIDataAdviseHolder@@XZ 000000018000adb0 f i Totals.obj
 0001:00009dc0       ??B?$CComPtrBase@UIDataObject@@@ATL@@QEBAPEAUIDataObject@@XZ 000000018000adc0 f i Totals.obj
 0001:00009dd0       ??B?$CComPtrBase@UIOleAdviseHolder@@@ATL@@QEBAPEAUIOleAdviseHolder@@XZ 000000018000add0 f i Totals.obj
 0001:00009de0       ??B?$CComPtrBase@UIOleClientSite@@@ATL@@QEBAPEAUIOleClientSite@@XZ 000000018000ade0 f i Totals.obj
 0001:00009df0       ??B?$CComPtrBase@UIOleControlSite@@@ATL@@QEBAPEAUIOleControlSite@@XZ 000000018000adf0 f i Totals.obj
 0001:00009e00       ??B?$CComPtrBase@UIOleInPlaceActiveObject@@@ATL@@QEBAPEAUIOleInPlaceActiveObject@@XZ 000000018000ae00 f i Totals.obj
 0001:00009e10       ??B?$CComPtrBase@UIOleInPlaceFrame@@@ATL@@QEBAPEAUIOleInPlaceFrame@@XZ 000000018000ae10 f i Totals.obj
 0001:00009e20       ??B?$CComPtrBase@UIOleInPlaceSiteWindowless@@@ATL@@QEBAPEAUIOleInPlaceSiteWindowless@@XZ 000000018000ae20 f i Totals.obj
 0001:00009e30       ??B?$CComPtrBase@UIOleInPlaceUIWindow@@@ATL@@QEBAPEAUIOleInPlaceUIWindow@@XZ 000000018000ae30 f i Totals.obj
 0001:00009e40       ??B?$CComPtrBase@UIOleObject@@@ATL@@QEBAPEAUIOleObject@@XZ 000000018000ae40 f i Totals.obj
 0001:00009e50       ??B?$CComPtrBase@UIPersistStream@@@ATL@@QEBAPEAUIPersistStream@@XZ 000000018000ae50 f i Totals.obj
 0001:00009e60       ??B?$CComPtrBase@UIProvideClassInfo2@@@ATL@@QEBAPEAUIProvideClassInfo2@@XZ 000000018000ae60 f i Totals.obj
 0001:00009e70       ??B?$CComPtrBase@UISpecifyPropertyPages@@@ATL@@QEBAPEAUISpecifyPropertyPages@@XZ 000000018000ae70 f i Totals.obj
 0001:00009e80       ??B?$CComPtrBase@UIStream@@@ATL@@QEBAPEAUIStream@@XZ 000000018000ae80 f i Totals.obj
 0001:00009e90       ??B?$CComPtrBase@UITypeInfo2@@@ATL@@QEBAPEAUITypeInfo2@@XZ 000000018000ae90 f i Totals.obj
 0001:00009ea0       ??B?$CComPtrBase@UITypeInfo@@@ATL@@QEBAPEAUITypeInfo@@XZ 000000018000aea0 f i Totals.obj
 0001:00009eb0       ??B?$CComPtrBase@UITypeLib@@@ATL@@QEBAPEAUITypeLib@@XZ 000000018000aeb0 f i Totals.obj
 0001:00009ec0       ??B?$CComPtrBase@UIUnknown@@@ATL@@QEBAPEAUIUnknown@@XZ 000000018000aec0 f i Totals.obj
 0001:00009ed0       ??B?$CTempBuffer@E$0BAA@VCCRTAllocator@ATL@@@ATL@@QEBAPEAEXZ 000000018000aed0 f i Totals.obj
 0001:00009ee0       ??B?$CTempBuffer@_W$0BAA@VCCRTAllocator@ATL@@@ATL@@QEBAPEA_WXZ 000000018000aee0 f i Totals.obj
 0001:00009ef0       ??B?$CTempBuffer@_W$0EAA@VCCRTAllocator@ATL@@@ATL@@QEBAPEA_WXZ 000000018000aef0 f i Totals.obj
 0001:00009f00       ??B?$CTraceCategoryEx@$00$0A@@ATL@@QEAAIXZ 000000018000af00 f i Totals.obj
 0001:00009f10       ??B?$CTraceCategoryEx@$07$0A@@ATL@@QEAAIXZ 000000018000af10 f i Totals.obj
 0001:00009f20       ??B?$CTraceCategoryEx@$0CAAA@$0A@@ATL@@QEAAIXZ 000000018000af20 f i Totals.obj
 0001:00009f30       ??B?$CTraceCategoryEx@$0EA@$0A@@ATL@@QEAAIXZ 000000018000af30 f i Totals.obj
 0001:00009f40       ??B?$CTraceCategoryEx@$0IAA@$0A@@ATL@@QEAAIXZ 000000018000af40 f i Totals.obj
 0001:00009f50       ??BCComBSTR@ATL@@QEBAPEA_WXZ 000000018000af50 f i Totals.obj
 0001:00009f60       ??BCRegKey@ATL@@QEBAPEAUHKEY__@@XZ 000000018000af60 f i Totals.obj
 0001:00009f70       ??C?$CComPtrBase@UIAdviseSink@@@ATL@@QEBAPEAV?$_NoAddRefReleaseOnCComPtr@UIAdviseSink@@@1@XZ 000000018000af70 f i Totals.obj
 0001:00009ff0       ??C?$CComPtrBase@UICatRegister@@@ATL@@QEBAPEAV?$_NoAddRefReleaseOnCComPtr@UICatRegister@@@1@XZ 000000018000aff0 f i Totals.obj
 0001:0000a070       ??C?$CComPtrBase@UIConnectionPoint@@@ATL@@QEBAPEAV?$_NoAddRefReleaseOnCComPtr@UIConnectionPoint@@@1@XZ 000000018000b070 f i Totals.obj
 0001:0000a0f0       ??C?$CComPtrBase@UIConnectionPointContainer@@@ATL@@QEBAPEAV?$_NoAddRefReleaseOnCComPtr@UIConnectionPointContainer@@@1@XZ 000000018000b0f0 f i Totals.obj
 0001:0000a170       ??C?$CComPtrBase@UIDataAdviseHolder@@@ATL@@QEBAPEAV?$_NoAddRefReleaseOnCComPtr@UIDataAdviseHolder@@@1@XZ 000000018000b170 f i Totals.obj
 0001:0000a1f0       ??C?$CComPtrBase@UIOleAdviseHolder@@@ATL@@QEBAPEAV?$_NoAddRefReleaseOnCComPtr@UIOleAdviseHolder@@@1@XZ 000000018000b1f0 f i Totals.obj
 0001:0000a270       ??C?$CComPtrBase@UIOleClientSite@@@ATL@@QEBAPEAV?$_NoAddRefReleaseOnCComPtr@UIOleClientSite@@@1@XZ 000000018000b270 f i Totals.obj
 0001:0000a2f0       ??C?$CComPtrBase@UIOleControlSite@@@ATL@@QEBAPEAV?$_NoAddRefReleaseOnCComPtr@UIOleControlSite@@@1@XZ 000000018000b2f0 f i Totals.obj
 0001:0000a370       ??C?$CComPtrBase@UIOleInPlaceFrame@@@ATL@@QEBAPEAV?$_NoAddRefReleaseOnCComPtr@UIOleInPlaceFrame@@@1@XZ 000000018000b370 f i Totals.obj
 0001:0000a3f0       ??C?$CComPtrBase@UIOleInPlaceObject@@@ATL@@QEBAPEAV?$_NoAddRefReleaseOnCComPtr@UIOleInPlaceObject@@@1@XZ 000000018000b3f0 f i Totals.obj
 0001:0000a470       ??C?$CComPtrBase@UIOleInPlaceSiteWindowless@@@ATL@@QEBAPEAV?$_NoAddRefReleaseOnCComPtr@UIOleInPlaceSiteWindowless@@@1@XZ 000000018000b470 f i Totals.obj
 0001:0000a4f0       ??C?$CComPtrBase@UIOleInPlaceUIWindow@@@ATL@@QEBAPEAV?$_NoAddRefReleaseOnCComPtr@UIOleInPlaceUIWindow@@@1@XZ 000000018000b4f0 f i Totals.obj
 0001:0000a570       ??C?$CComPtrBase@UIOleObject@@@ATL@@QEBAPEAV?$_NoAddRefReleaseOnCComPtr@UIOleObject@@@1@XZ 000000018000b570 f i Totals.obj
 0001:0000a5f0       ??C?$CComPtrBase@UIPersistStream@@@ATL@@QEBAPEAV?$_NoAddRefReleaseOnCComPtr@UIPersistStream@@@1@XZ 000000018000b5f0 f i Totals.obj
 0001:0000a670       ??C?$CComPtrBase@UIPersistStreamInit@@@ATL@@QEBAPEAV?$_NoAddRefReleaseOnCComPtr@UIPersistStreamInit@@@1@XZ 000000018000b670 f i Totals.obj
 0001:0000a6f0       ??C?$CComPtrBase@UIPointerInactive@@@ATL@@QEBAPEAV?$_NoAddRefReleaseOnCComPtr@UIPointerInactive@@@1@XZ 000000018000b6f0 f i Totals.obj
 0001:0000a770       ??C?$CComPtrBase@UIProvideClassInfo2@@@ATL@@QEBAPEAV?$_NoAddRefReleaseOnCComPtr@UIProvideClassInfo2@@@1@XZ 000000018000b770 f i Totals.obj
 0001:0000a7f0       ??C?$CComPtrBase@UISpecifyPropertyPages@@@ATL@@QEBAPEAV?$_NoAddRefReleaseOnCComPtr@UISpecifyPropertyPages@@@1@XZ 000000018000b7f0 f i Totals.obj
 0001:0000a870       ??C?$CComPtrBase@UITypeInfo@@@ATL@@QEBAPEAV?$_NoAddRefReleaseOnCComPtr@UITypeInfo@@@1@XZ 000000018000b870 f i Totals.obj
 0001:0000a8f0       ??C?$CComPtrBase@UITypeLib@@@ATL@@QEBAPEAV?$_NoAddRefReleaseOnCComPtr@UITypeLib@@@1@XZ 000000018000b8f0 f i Totals.obj
 0001:0000a970       ??C?$CComPtrBase@UIUnknown@@@ATL@@QEBAPEAV?$_NoAddRefReleaseOnCComPtr@UIUnknown@@@1@XZ 000000018000b970 f i Totals.obj
 0001:0000a9f0       ??C?$CComPtrBase@UIViewObjectEx@@@ATL@@QEBAPEAV?$_NoAddRefReleaseOnCComPtr@UIViewObjectEx@@@1@XZ 000000018000b9f0 f i Totals.obj
 0001:0000aa70       ??I?$CComPtrBase@UICatRegister@@@ATL@@QEAAPEAPEAUICatRegister@@XZ 000000018000ba70 f i Totals.obj
 0001:0000aae0       ??I?$CComPtrBase@UIConnectionPoint@@@ATL@@QEAAPEAPEAUIConnectionPoint@@XZ 000000018000bae0 f i Totals.obj
 0001:0000ab50       ??I?$CComPtrBase@UIConnectionPointContainer@@@ATL@@QEAAPEAPEAUIConnectionPointContainer@@XZ 000000018000bb50 f i Totals.obj
 0001:0000abc0       ??I?$CComPtrBase@UIDataAdviseHolder@@@ATL@@QEAAPEAPEAUIDataAdviseHolder@@XZ 000000018000bbc0 f i Totals.obj
 0001:0000ac30       ??I?$CComPtrBase@UIDataObject@@@ATL@@QEAAPEAPEAUIDataObject@@XZ 000000018000bc30 f i Totals.obj
 0001:0000aca0       ??I?$CComPtrBase@UIDispatch@@@ATL@@QEAAPEAPEAUIDispatch@@XZ 000000018000bca0 f i Totals.obj
 0001:0000ad10       ??I?$CComPtrBase@UIOleAdviseHolder@@@ATL@@QEAAPEAPEAUIOleAdviseHolder@@XZ 000000018000bd10 f i Totals.obj
 0001:0000ad80       ??I?$CComPtrBase@UIOleControlSite@@@ATL@@QEAAPEAPEAUIOleControlSite@@XZ 000000018000bd80 f i Totals.obj
 0001:0000adf0       ??I?$CComPtrBase@UIOleInPlaceActiveObject@@@ATL@@QEAAPEAPEAUIOleInPlaceActiveObject@@XZ 000000018000bdf0 f i Totals.obj
 0001:0000ae60       ??I?$CComPtrBase@UIOleInPlaceFrame@@@ATL@@QEAAPEAPEAUIOleInPlaceFrame@@XZ 000000018000be60 f i Totals.obj
 0001:0000aed0       ??I?$CComPtrBase@UIOleInPlaceObject@@@ATL@@QEAAPEAPEAUIOleInPlaceObject@@XZ 000000018000bed0 f i Totals.obj
 0001:0000af40       ??I?$CComPtrBase@UIOleInPlaceSiteWindowless@@@ATL@@QEAAPEAPEAUIOleInPlaceSiteWindowless@@XZ 000000018000bf40 f i Totals.obj
 0001:0000afb0       ??I?$CComPtrBase@UIOleInPlaceUIWindow@@@ATL@@QEAAPEAPEAUIOleInPlaceUIWindow@@XZ 000000018000bfb0 f i Totals.obj
 0001:0000b020       ??I?$CComPtrBase@UIOleObject@@@ATL@@QEAAPEAPEAUIOleObject@@XZ 000000018000c020 f i Totals.obj
 0001:0000b090       ??I?$CComPtrBase@UIPersistStream@@@ATL@@QEAAPEAPEAUIPersistStream@@XZ 000000018000c090 f i Totals.obj
 0001:0000b100       ??I?$CComPtrBase@UIPointerInactive@@@ATL@@QEAAPEAPEAUIPointerInactive@@XZ 000000018000c100 f i Totals.obj
 0001:0000b170       ??I?$CComPtrBase@UIProvideClassInfo2@@@ATL@@QEAAPEAPEAUIProvideClassInfo2@@XZ 000000018000c170 f i Totals.obj
 0001:0000b1e0       ??I?$CComPtrBase@UIStream@@@ATL@@QEAAPEAPEAUIStream@@XZ 000000018000c1e0 f i Totals.obj
 0001:0000b250       ??I?$CComPtrBase@UITypeInfo2@@@ATL@@QEAAPEAPEAUITypeInfo2@@XZ 000000018000c250 f i Totals.obj
 0001:0000b2c0       ??I?$CComPtrBase@UITypeInfo@@@ATL@@QEAAPEAPEAUITypeInfo@@XZ 000000018000c2c0 f i Totals.obj
 0001:0000b330       ??I?$CComPtrBase@UITypeLib@@@ATL@@QEAAPEAPEAUITypeLib@@XZ 000000018000c330 f i Totals.obj
 0001:0000b3a0       ??I?$CComPtrBase@UIUnknown@@@ATL@@QEAAPEAPEAUIUnknown@@XZ 000000018000c3a0 f i Totals.obj
 0001:0000b410       ??I?$CComPtrBase@UIViewObjectEx@@@ATL@@QEAAPEAPEAUIViewObjectEx@@XZ 000000018000c410 f i Totals.obj
 0001:0000b480       ??ICComBSTR@ATL@@QEAAPEAPEA_WXZ 000000018000c480 f i Totals.obj
 0001:0000b490       ??_E?$CComContainedObject@VCOPOSTotals@@@ATL@@W7EAAPEAXI@Z 000000018000c490 f i Totals.obj
 0001:0000b49c       ??_E?$CComContainedObject@VCOPOSTotals@@@ATL@@WHA@EAAPEAXI@Z 000000018000c49c f i Totals.obj
 0001:0000b4a8       ??_E?$CComObject@VCOPOSTotals@@@ATL@@W7EAAPEAXI@Z 000000018000c4a8 f i Totals.obj
 0001:0000b4b4       ??_E?$CComObject@VCOPOSTotals@@@ATL@@WHA@EAAPEAXI@Z 000000018000c4b4 f i Totals.obj
 0001:0000b4c0       ??_E?$CComAggObject@VCOPOSTotals@@@ATL@@UEAAPEAXI@Z 000000018000c4c0 f i Totals.obj
 0001:0000b4c0       ??_G?$CComAggObject@VCOPOSTotals@@@ATL@@UEAAPEAXI@Z 000000018000c4c0 f i Totals.obj
 0001:0000b520       ??_E?$CComContainedObject@VCOPOSTotals@@@ATL@@UEAAPEAXI@Z 000000018000c520 f i Totals.obj
 0001:0000b520       ??_G?$CComContainedObject@VCOPOSTotals@@@ATL@@UEAAPEAXI@Z 000000018000c520 f i Totals.obj
 0001:0000b580       ??_E?$CComObject@V?$CComEnum@UIEnumConnectionPoints@@$1?_GUID_b196b285_bab4_101a_b69c_00aa00341d07@@3U__s_GUID@@BPEAUIConnectionPoint@@V?$_CopyInterface@UIConnectionPoint@@@ATL@@VCComSingleThreadModel@6@@ATL@@@ATL@@UEAAPEAXI@Z 000000018000c580 f i Totals.obj
 0001:0000b580       ??_G?$CComObject@V?$CComEnum@UIEnumConnectionPoints@@$1?_GUID_b196b285_bab4_101a_b69c_00aa00341d07@@3U__s_GUID@@BPEAUIConnectionPoint@@V?$_CopyInterface@UIConnectionPoint@@@ATL@@VCComSingleThreadModel@6@@ATL@@@ATL@@UEAAPEAXI@Z 000000018000c580 f i Totals.obj
 0001:0000b5e0       ??_E?$CComObject@V?$CComEnum@UIEnumConnections@@$1?_GUID_b196b287_bab4_101a_b69c_00aa00341d07@@3U__s_GUID@@BUtagCONNECTDATA@@V?$_Copy@UtagCONNECTDATA@@@ATL@@VCComSingleThreadModel@6@@ATL@@@ATL@@UEAAPEAXI@Z 000000018000c5e0 f i Totals.obj
 0001:0000b5e0       ??_G?$CComObject@V?$CComEnum@UIEnumConnections@@$1?_GUID_b196b287_bab4_101a_b69c_00aa00341d07@@3U__s_GUID@@BUtagCONNECTDATA@@V?$_Copy@UtagCONNECTDATA@@@ATL@@VCComSingleThreadModel@6@@ATL@@@ATL@@UEAAPEAXI@Z 000000018000c5e0 f i Totals.obj
 0001:0000b640       ??_G?$CComObject@VCOPOSTotals@@@ATL@@UEAAPEAXI@Z 000000018000c640 f i Totals.obj
 0001:0000b640       ??_E?$CComObject@VCOPOSTotals@@@ATL@@UEAAPEAXI@Z 000000018000c640 f i Totals.obj
 0001:0000b6a0       ??_E?$CComObjectCached@VCComClassFactory@ATL@@@ATL@@UEAAPEAXI@Z 000000018000c6a0 f i Totals.obj
 0001:0000b6a0       ??_G?$CComObjectCached@VCComClassFactory@ATL@@@ATL@@UEAAPEAXI@Z 000000018000c6a0 f i Totals.obj
 0001:0000b700       ??_ECComClassFactory@ATL@@UEAAPEAXI@Z 000000018000c700 f i Totals.obj
 0001:0000b700       ??_GCComClassFactory@ATL@@UEAAPEAXI@Z 000000018000c700 f i Totals.obj
 0001:0000b760       ??_GCComModule@ATL@@UEAAPEAXI@Z 000000018000c760 f i Totals.obj
 0001:0000b760       ??_ECComModule@ATL@@UEAAPEAXI@Z 000000018000c760 f i Totals.obj
 0001:0000b7c0       ??_GCRegObject@ATL@@UEAAPEAXI@Z 000000018000c7c0 f i Totals.obj
 0001:0000b7c0       ??_ECRegObject@ATL@@UEAAPEAXI@Z 000000018000c7c0 f i Totals.obj
 0001:0000b820       ?Add@?$CSimpleArray@GV?$CSimpleArrayEqualHelper@G@ATL@@@ATL@@QEAAHAEBG@Z 000000018000c820 f i Totals.obj
 0001:0000b9c0       ?Add@?$CSimpleMap@PEA_WPEA_WVCExpansionVectorEqualHelper@ATL@@@ATL@@QEAAHAEBQEA_W0@Z 000000018000c9c0 f i Totals.obj
 0001:0000bab0       ?Add@CComDynamicUnkArray@ATL@@QEAAKPEAUIUnknown@@@Z 000000018000cab0 f i Totals.obj
 0001:0000bc90       ?Add@CExpansionVector@ATL@@QEAAHPEB_W0@Z 000000018000cc90 f i Totals.obj
 0001:0000bfc0       ?AddChar@CParseBuffer@CRegParser@ATL@@QEAAHPEB_W@Z 000000018000cfc0 f i Totals.obj
 0001:0000c010       ?AddCommonRGSReplacements@?$CAtlModuleT@VCComModule@ATL@@@ATL@@UEAAJPEAUIRegistrarBase@@@Z 000000018000d010 f i Totals.obj
 0001:0000c070       ?AddCreateWndData@CAtlWinModule@ATL@@QEAAXPEAU_AtlCreateWndData@2@PEAX@Z 000000018000d070 f i Totals.obj
 0001:0000c0c0       ?AddRef@?$CComAggObject@VCOPOSTotals@@@ATL@@UEAAKXZ 000000018000d0c0 f i Totals.obj
 0001:0000c100       ?AddRef@?$CComContainedObject@VCOPOSTotals@@@ATL@@UEAAKXZ 000000018000d100 f i Totals.obj
 0001:0000c138       ?AddRef@?$CComContainedObject@VCOPOSTotals@@@ATL@@WBAA@EAAKXZ 000000018000d138 f i Totals.obj
 0001:0000c144       ?AddRef@?$CComContainedObject@VCOPOSTotals@@@ATL@@WBAI@EAAKXZ 000000018000d144 f i Totals.obj
 0001:0000c150       ?AddRef@?$CComContainedObject@VCOPOSTotals@@@ATL@@WBBA@EAAKXZ 000000018000d150 f i Totals.obj
 0001:0000c15c       ?AddRef@?$CComContainedObject@VCOPOSTotals@@@ATL@@WBBI@EAAKXZ 000000018000d15c f i Totals.obj
 0001:0000c168       ?AddRef@?$CComContainedObject@VCOPOSTotals@@@ATL@@WBCI@EAAKXZ 000000018000d168 f i Totals.obj
 0001:0000c174       ?AddRef@?$CComContainedObject@VCOPOSTotals@@@ATL@@WBEA@EAAKXZ 000000018000d174 f i Totals.obj
 0001:0000c180       ?AddRef@?$CComContainedObject@VCOPOSTotals@@@ATL@@WLI@EAAKXZ 000000018000d180 f i Totals.obj
 0001:0000c18c       ?AddRef@?$CComContainedObject@VCOPOSTotals@@@ATL@@WMA@EAAKXZ 000000018000d18c f i Totals.obj
 0001:0000c198       ?AddRef@?$CComContainedObject@VCOPOSTotals@@@ATL@@WMI@EAAKXZ 000000018000d198 f i Totals.obj
 0001:0000c1a4       ?AddRef@?$CComContainedObject@VCOPOSTotals@@@ATL@@WNA@EAAKXZ 000000018000d1a4 f i Totals.obj
 0001:0000c1b0       ?AddRef@?$CComContainedObject@VCOPOSTotals@@@ATL@@WNI@EAAKXZ 000000018000d1b0 f i Totals.obj
 0001:0000c1bc       ?AddRef@?$CComContainedObject@VCOPOSTotals@@@ATL@@WOA@EAAKXZ 000000018000d1bc f i Totals.obj
 0001:0000c1c8       ?AddRef@?$CComContainedObject@VCOPOSTotals@@@ATL@@WOI@EAAKXZ 000000018000d1c8 f i Totals.obj
 0001:0000c1d4       ?AddRef@?$CComContainedObject@VCOPOSTotals@@@ATL@@WPA@EAAKXZ 000000018000d1d4 f i Totals.obj
 0001:0000c1e0       ?AddRef@?$CComContainedObject@VCOPOSTotals@@@ATL@@WPI@EAAKXZ 000000018000d1e0 f i Totals.obj
 0001:0000c1f0       ?AddRef@?$CComObject@V?$CComEnum@UIEnumConnectionPoints@@$1?_GUID_b196b285_bab4_101a_b69c_00aa00341d07@@3U__s_GUID@@BPEAUIConnectionPoint@@V?$_CopyInterface@UIConnectionPoint@@@ATL@@VCComSingleThreadModel@6@@ATL@@@ATL@@UEAAKXZ 000000018000d1f0 f i Totals.obj
 0001:0000c230       ?AddRef@?$CComObject@V?$CComEnum@UIEnumConnections@@$1?_GUID_b196b287_bab4_101a_b69c_00aa00341d07@@3U__s_GUID@@BUtagCONNECTDATA@@V?$_Copy@UtagCONNECTDATA@@@ATL@@VCComSingleThreadModel@6@@ATL@@@ATL@@UEAAKXZ 000000018000d230 f i Totals.obj
 0001:0000c270       ?AddRef@?$CComObject@VCOPOSTotals@@@ATL@@UEAAKXZ 000000018000d270 f i Totals.obj
 0001:0000c2a8       ?AddRef@?$CComObject@VCOPOSTotals@@@ATL@@WBAA@EAAKXZ 000000018000d2a8 f i Totals.obj
 0001:0000c2b4       ?AddRef@?$CComObject@VCOPOSTotals@@@ATL@@WBAI@EAAKXZ 000000018000d2b4 f i Totals.obj
 0001:0000c2c0       ?AddRef@?$CComObject@VCOPOSTotals@@@ATL@@WBBA@EAAKXZ 000000018000d2c0 f i Totals.obj
 0001:0000c2cc       ?AddRef@?$CComObject@VCOPOSTotals@@@ATL@@WBBI@EAAKXZ 000000018000d2cc f i Totals.obj
 0001:0000c2d8       ?AddRef@?$CComObject@VCOPOSTotals@@@ATL@@WBCI@EAAKXZ 000000018000d2d8 f i Totals.obj
 0001:0000c2e4       ?AddRef@?$CComObject@VCOPOSTotals@@@ATL@@WBEA@EAAKXZ 000000018000d2e4 f i Totals.obj
 0001:0000c2f0       ?AddRef@?$CComObject@VCOPOSTotals@@@ATL@@WLI@EAAKXZ 000000018000d2f0 f i Totals.obj
 0001:0000c2fc       ?AddRef@?$CComObject@VCOPOSTotals@@@ATL@@WMA@EAAKXZ 000000018000d2fc f i Totals.obj
 0001:0000c308       ?AddRef@?$CComObject@VCOPOSTotals@@@ATL@@WMI@EAAKXZ 000000018000d308 f i Totals.obj
 0001:0000c314       ?AddRef@?$CComObject@VCOPOSTotals@@@ATL@@WNA@EAAKXZ 000000018000d314 f i Totals.obj
 0001:0000c320       ?AddRef@?$CComObject@VCOPOSTotals@@@ATL@@WNI@EAAKXZ 000000018000d320 f i Totals.obj
 0001:0000c32c       ?AddRef@?$CComObject@VCOPOSTotals@@@ATL@@WOA@EAAKXZ 000000018000d32c f i Totals.obj
 0001:0000c338       ?AddRef@?$CComObject@VCOPOSTotals@@@ATL@@WOI@EAAKXZ 000000018000d338 f i Totals.obj
 0001:0000c344       ?AddRef@?$CComObject@VCOPOSTotals@@@ATL@@WPA@EAAKXZ 000000018000d344 f i Totals.obj
 0001:0000c350       ?AddRef@?$CComObject@VCOPOSTotals@@@ATL@@WPI@EAAKXZ 000000018000d350 f i Totals.obj
 0001:0000c360       ?AddRef@?$CComObjectCached@VCComClassFactory@ATL@@@ATL@@UEAAKXZ 000000018000d360 f i Totals.obj
 0001:0000c3c0       ?AddRef@CRegObject@ATL@@UEAAKXZ 000000018000d3c0 f i Totals.obj
 0001:0000c430       ?AddReplacement@CRegObject@ATL@@UEAAJPEB_W0@Z 000000018000d430 f i Totals.obj
 0001:0000c560       ?AddString@CParseBuffer@CRegParser@ATL@@QEAAHPEB_W@Z 000000018000d560 f i Totals.obj
 0001:0000c650       ?AddTermFunc@CAtlModule@ATL@@QEAAJP6AX_K@Z0@Z 000000018000d650 f i Totals.obj
 0001:0000c6c0       ?AddValue@CRegParser@ATL@@IEAAJAEAVCRegKey@2@PEB_WPEA_W@Z 000000018000d6c0 f i Totals.obj
 0001:0000cf90       ?Advise@?$CProxy_IOPOSEvents@VCOPOSTotals@@@@UEAAJPEAUIUnknown@@PEAK@Z 000000018000df90 f i Totals.obj
 0001:0000d000       ?Advise@?$IConnectionPointImpl@VCOPOSTotals@@$1?DIID__IOPOSTotalsEvents@@3U_GUID@@BVCComDynamicUnkArray@ATL@@@ATL@@UEAAJPEAUIUnknown@@PEAK@Z 000000018000e000 f i Totals.obj
 0001:0000d200       ?Advise@?$IConnectionPointImpl@VCOPOSTotals@@$1?IID_IPropertyNotifySink@@3U_GUID@@BVCComDynamicUnkArray@ATL@@@ATL@@UEAAJPEAUIUnknown@@PEAK@Z 000000018000e200 f i Totals.obj
 0001:0000d400       ?Advise@?$IOleObjectImpl@VCOPOSTotals@@@ATL@@UEAAJPEAUIAdviseSink@@PEAK@Z 000000018000e400 f i Totals.obj
 0001:0000d4c0       ?Allocate@?$CAtlSafeAllocBufferManager@VCCRTAllocator@ATL@@@_ATL_SAFE_ALLOCA_IMPL@ATL@@QEAAPEAX_K@Z 000000018000e4c0 f i Totals.obj
 0001:0000d540       ?Allocate@?$CTempBuffer@E$0BAA@VCCRTAllocator@ATL@@@ATL@@QEAAPEAE_K@Z 000000018000e540 f i Totals.obj
 0001:0000d590       ?Allocate@?$CTempBuffer@_W$0BAA@VCCRTAllocator@ATL@@@ATL@@QEAAPEA_W_K@Z 000000018000e590 f i Totals.obj
 0001:0000d5e0       ?Allocate@?$CTempBuffer@_W$0EAA@VCCRTAllocator@ATL@@@ATL@@QEAAPEA_W_K@Z 000000018000e5e0 f i Totals.obj
 0001:0000d630       ?AllocateBytes@?$CTempBuffer@E$0BAA@VCCRTAllocator@ATL@@@ATL@@QEAAPEAE_K@Z 000000018000e630 f i Totals.obj
 0001:0000d6e0       ?AllocateBytes@?$CTempBuffer@_W$0BAA@VCCRTAllocator@ATL@@@ATL@@QEAAPEA_W_K@Z 000000018000e6e0 f i Totals.obj
 0001:0000d790       ?AllocateBytes@?$CTempBuffer@_W$0EAA@VCCRTAllocator@ATL@@@ATL@@QEAAPEA_W_K@Z 000000018000e790 f i Totals.obj
 0001:0000d840       ?AllocateHeap@?$CTempBuffer@E$0BAA@VCCRTAllocator@ATL@@@ATL@@AEAAX_K@Z 000000018000e840 f i Totals.obj
 0001:0000d8a0       ?AllocateHeap@?$CTempBuffer@_W$0BAA@VCCRTAllocator@ATL@@@ATL@@AEAAX_K@Z 000000018000e8a0 f i Totals.obj
 0001:0000d900       ?AllocateHeap@?$CTempBuffer@_W$0EAA@VCCRTAllocator@ATL@@@ATL@@AEAAX_K@Z 000000018000e900 f i Totals.obj
 0001:0000d960       ?Append@CParseBuffer@CRegParser@ATL@@QEAAHPEB_WH@Z 000000018000e960 f i Totals.obj
 0001:0000db90       ?AtlCallTermFunc@ATL@@YAXPEAU_ATL_MODULE70@1@@Z 000000018000eb90 f i Totals.obj
 0001:0000dc40       ?AtlCoTaskMemCAlloc@ATL@@YAPEAXKK@Z 000000018000ec40 f i Totals.obj
 0001:0000dcc0       ?AtlCoTaskMemRecalloc@ATL@@YAPEAXPEAXKK@Z 000000018000ecc0 f i Totals.obj
 0001:0000dd40       ?AtlComModuleGetClassObject@ATL@@YAJPEAU_ATL_COM_MODULE70@1@AEBU_GUID@@1PEAPEAX@Z 000000018000ed40 f i Totals.obj
 0001:0000e070       ?AtlComModuleRegisterServer@ATL@@YAJPEAU_ATL_COM_MODULE70@1@HPEBU_GUID@@@Z 000000018000f070 f i Totals.obj
 0001:0000e270       ?AtlComModuleUnregisterServer@ATL@@YAJPEAU_ATL_COM_MODULE70@1@HPEBU_GUID@@@Z 000000018000f270 f i Totals.obj
 0001:0000e3d0       ?AtlComQIPtrAssign2@ATL@@YAXPEAPEAUIUnknown@@PEAU2@AEBU_GUID@@@Z 000000018000f3d0 f i Totals.obj
 0001:0000e460       ?AtlCreateTargetDC@ATL@@YAPEAUHDC__@@PEAU2@PEAUtagDVTARGETDEVICE@@@Z 000000018000f460 f i Totals.obj
 0001:0000e690       ?AtlCrtErrorCheck@ATL@@YAHH@Z 000000018000f690 f i Totals.obj
 0001:0000e710       ?AtlGetPerUserRegistration@ATL@@YAJPEA_N@Z 000000018000f710 f i Totals.obj
 0001:0000e740       ?AtlHiMetricToPixel@ATL@@YAXPEBUtagSIZE@@PEAU2@@Z 000000018000f740 f i Totals.obj
 0001:0000e940       ?AtlHresultFromLastError@ATL@@YAJXZ 000000018000f940 f i Totals.obj
 0001:0000e970       ?AtlHresultFromWin32@ATL@@YAJK@Z 000000018000f970 f i Totals.obj
 0001:0000e9a0       ?AtlIPersistStreamInit_Load@ATL@@YAJPEAUIStream@@PEBUATL_PROPMAP_ENTRY@1@PEAXPEAUIUnknown@@@Z 000000018000f9a0 f i Totals.obj
 0001:0000f010       ?AtlIPersistStreamInit_Save@ATL@@YAJPEAUIStream@@HPEBUATL_PROPMAP_ENTRY@1@PEAXPEAUIUnknown@@@Z 0000000180010010 f i Totals.obj
 0001:0000f5a0       ?AtlInternalOleLoadFromStream@ATL@@YAJPEAUIStream@@AEBU_GUID@@PEAPEAXTClassesAllowedInStream@1@K@Z 00000001800105a0 f i Totals.obj
 0001:0000f8e0       ?AtlInternalQueryInterface@ATL@@YAJPEAXPEBU_ATL_INTMAP_ENTRY@1@AEBU_GUID@@PEAPEAX@Z 00000001800108e0 f i Totals.obj
 0001:0000fba0       ?AtlLoadTypeLib@ATL@@YAJPEAUHINSTANCE__@@PEB_WPEAPEA_WPEAPEAUITypeLib@@@Z 0000000180010ba0 f i Totals.obj
 0001:00010070       ?AtlModuleAddTermFunc@ATL@@YAJPEAU_ATL_MODULE70@1@P6AX_K@Z1@Z 0000000180011070 f i Totals.obj
 0001:00010240       ?AtlRegisterClassCategoriesHelper@ATL@@YAJAEBU_GUID@@PEBU_ATL_CATMAP_ENTRY@1@H@Z 0000000180011240 f i Totals.obj
 0001:00010a10       ?AtlRegisterTypeLib@ATL@@YAJPEAUHINSTANCE__@@PEB_W@Z 0000000180011a10 f i Totals.obj
 0001:00010d70       ?AtlThrowImpl@ATL@@YAXJ@Z  0000000180011d70 f i Totals.obj
 0001:00010e50       ?AtlUnRegisterTypeLib@ATL@@YAJPEAUHINSTANCE__@@PEB_W@Z 0000000180011e50 f i Totals.obj
 0001:00011080       ?AtlWinModuleAddCreateWndData@ATL@@YAXPEAU_ATL_WIN_MODULE70@1@PEAU_AtlCreateWndData@1@PEAX@Z 0000000180012080 f i Totals.obj
 0001:00011270       ?AtlWinModuleExtractCreateWndData@ATL@@YAPEAXPEAU_ATL_WIN_MODULE70@1@@Z 0000000180012270 f i Totals.obj
 0001:00011470       ?AtlWinModuleRegisterClassExW@ATL@@YAGPEAU_ATL_WIN_MODULE70@1@PEBUtagWNDCLASSEXW@@@Z 0000000180012470 f i Totals.obj
 0001:00011540       ?AtlWinModuleRegisterWndClassInfoW@ATL@@YAGPEAU_ATL_WIN_MODULE70@1@PEAU_ATL_BASE_MODULE70@1@PEAU_ATL_WNDCLASSINFOW@1@PEAP6A_JPEAUHWND__@@I_K_J@Z@Z 0000000180012540 f i Totals.obj
 0001:000115b0       ?Attach@?$CAutoVectorPtr@_W@ATL@@QEAAXPEA_W@Z 00000001800125b0 f i Totals.obj
 0001:00011640       ?Attach@CComBSTR@ATL@@QEAAXPEA_W@Z 0000000180012640 f i Totals.obj
 0001:000116a0       ?Attach@CRegKey@ATL@@QEAAXPEAUHKEY__@@@Z 00000001800126a0 f i Totals.obj
 0001:00011740       ?CanForceRemoveKey@CRegParser@ATL@@IEAAHPEB_W@Z 0000000180012740 f i Totals.obj
 0001:000117b0       ?ChToByte@CRegParser@ATL@@KAE_W@Z 00000001800127b0 f i Totals.obj
 0001:00011910       ?ChangeType@CComVariant@ATL@@QEAAJGPEBUtagVARIANT@@@Z 0000000180012910 f i Totals.obj
 0001:00011980       ?Cleanup@CComTypeInfoHolder@ATL@@SAX_K@Z 0000000180012980 f i Totals.obj
 0001:00011a70       ?Clear@CComVariant@ATL@@QEAAJXZ 0000000180012a70 f i Totals.obj
 0001:00011aa0       ?ClearReplacements@CExpansionVector@ATL@@QEAAJXZ 0000000180012aa0 f i Totals.obj
 0001:00011b40       ?ClearReplacements@CRegObject@ATL@@UEAAJXZ 0000000180012b40 f i Totals.obj
 0001:00011ba0       ?Clone@?$CComEnumImpl@UIEnumConnectionPoints@@$1?_GUID_b196b285_bab4_101a_b69c_00aa00341d07@@3U__s_GUID@@BPEAUIConnectionPoint@@V?$_CopyInterface@UIConnectionPoint@@@ATL@@@ATL@@UEAAJPEAPEAUIEnumConnectionPoints@@@Z 0000000180012ba0 f i Totals.obj
 0001:00011d90       ?Clone@?$CComEnumImpl@UIEnumConnections@@$1?_GUID_b196b287_bab4_101a_b69c_00aa00341d07@@3U__s_GUID@@BUtagCONNECTDATA@@V?$_Copy@UtagCONNECTDATA@@@ATL@@@ATL@@UEAAJPEAPEAUIEnumConnections@@@Z 0000000180012d90 f i Totals.obj
 0001:00011f80       ?Close@?$IOleObjectImpl@VCOPOSTotals@@@ATL@@UEAAJK@Z 0000000180012f80 f i Totals.obj
 0001:00012030       ?Close@CRegKey@ATL@@QEAAJXZ 0000000180013030 f i Totals.obj
 0001:000120a0       ?ContextSensitiveHelp@?$IOleInPlaceActiveObjectImpl@VCOPOSTotals@@@ATL@@UEAAJH@Z 00000001800130a0 f i Totals.obj
 0001:00012120       ?ContextSensitiveHelp@?$IOleInPlaceObjectWindowlessImpl@VCOPOSTotals@@@ATL@@UEAAJH@Z 0000000180013120 f i Totals.obj
 0001:000121a0       ?ControlQueryInterface@?$CComControl@VCOPOSTotals@@V?$CWindowImpl@VCOPOSTotals@@VCWindow@ATL@@V?$CWinTraits@$0FGAAAAAA@$0A@@3@@ATL@@@ATL@@UEAAJAEBU_GUID@@PEAPEAX@Z 00000001800131a0 f i Totals.obj
 0001:00012230       ?CreateControlWindow@?$CComControl@VCOPOSTotals@@V?$CWindowImpl@VCOPOSTotals@@VCWindow@ATL@@V?$CWinTraits@$0FGAAAAAA@$0A@@3@@ATL@@@ATL@@UEAAPEAUHWND__@@PEAU3@AEAUtagRECT@@@Z 0000000180013230 f i Totals.obj
 0001:00012320       ?CreateInstance@?$CComCreator@V?$CComAggObject@VCOPOSTotals@@@ATL@@@ATL@@SAJPEAXAEBU_GUID@@PEAPEAX@Z 0000000180013320 f i Totals.obj
 0001:00012500       ?CreateInstance@?$CComCreator@V?$CComObject@VCOPOSTotals@@@ATL@@@ATL@@SAJPEAXAEBU_GUID@@PEAPEAX@Z 0000000180013500 f i Totals.obj
 0001:00012700       ?CreateInstance@?$CComObject@V?$CComEnum@UIEnumConnectionPoints@@$1?_GUID_b196b285_bab4_101a_b69c_00aa00341d07@@3U__s_GUID@@BPEAUIConnectionPoint@@V?$_CopyInterface@UIConnectionPoint@@@ATL@@VCComSingleThreadModel@6@@ATL@@@ATL@@SAJPEAPEAV12@@Z 0000000180013700 f i Totals.obj
 0001:000128c0       ?CreateInstance@?$CComObject@V?$CComEnum@UIEnumConnections@@$1?_GUID_b196b287_bab4_101a_b69c_00aa00341d07@@3U__s_GUID@@BUtagCONNECTDATA@@V?$_Copy@UtagCONNECTDATA@@@ATL@@VCComSingleThreadModel@6@@ATL@@@ATL@@SAJPEAPEAV12@@Z 00000001800138c0 f i Totals.obj
 0001:00012a80       ?CreateInstance@CComClassFactory@ATL@@UEAAJPEAUIUnknown@@AEBU_GUID@@PEAPEAX@Z 0000000180013a80 f i Totals.obj
 0001:00012ba0       ?DAdvise@?$IDataObjectImpl@VCOPOSTotals@@@ATL@@UEAAJPEAUtagFORMATETC@@KPEAUIAdviseSink@@PEAK@Z 0000000180013ba0 f i Totals.obj
 0001:00012d00       ?DEVMODEOLE2T_EX@@YAPEAU_devicemodeW@@PEAU1@@Z 0000000180013d00 f i Totals.obj
 0001:00012d10       ?DUnadvise@?$IDataObjectImpl@VCOPOSTotals@@@ATL@@UEAAJK@Z 0000000180013d10 f i Totals.obj
 0001:00012e10       ?Decrement@CComMultiThreadModel@ATL@@SAKPEAJ@Z 0000000180013e10 f i Totals.obj
 0001:00012e30       ?Decrement@CComSingleThreadModel@ATL@@SAKPEAJ@Z 0000000180013e30 f i Totals.obj
 0001:00012e50       ?DefWindowProcW@?$CWindowImplBaseT@VCWindow@ATL@@V?$CWinTraits@$0FGAAAAAA@$0A@@2@@ATL@@QEAA_JI_K_J@Z 0000000180013e50 f i Totals.obj
 0001:00012eb0       ?DefaultReflectionHandler@?$CWindowImplRoot@VCWindow@ATL@@@ATL@@SAHPEAUHWND__@@I_K_JAEA_J@Z 0000000180013eb0 f i Totals.obj
 0001:00012fa0       ?DeleteSubKey@CRegKey@ATL@@QEAAJPEB_W@Z 0000000180013fa0 f i Totals.obj
 0001:000130d0       ?DeleteValue@CRegKey@ATL@@QEAAJPEB_W@Z 00000001800140d0 f i Totals.obj
 0001:00013160       ?Detach@?$CAutoVectorPtr@_W@ATL@@QEAAPEA_WXZ 0000000180014160 f i Totals.obj
 0001:000131a0       ?Detach@?$CComPtrBase@UIPersistStream@@@ATL@@QEAAPEAUIPersistStream@@XZ 00000001800141a0 f i Totals.obj
 0001:000131e0       ?Detach@?$CComPtrBase@UITypeInfo@@@ATL@@QEAAPEAUITypeInfo@@XZ 00000001800141e0 f i Totals.obj
 0001:00013220       ?Detach@?$CComPtrBase@UIUnknown@@@ATL@@QEAAPEAUIUnknown@@XZ 0000000180014220 f i Totals.obj
 0001:00013260       ?Detach@CComBSTR@ATL@@QEAAPEA_WXZ 0000000180014260 f i Totals.obj
 0001:000132a0       ?Detach@CParseBuffer@CRegParser@ATL@@QEAAPEA_WXZ 00000001800142a0 f i Totals.obj
 0001:00013300       ?Detach@CRegKey@ATL@@QEAAPEAUHKEY__@@XZ 0000000180014300 f i Totals.obj
 0001:00013360       ?DoEvent@COPOSTotals@@IEAAXI_K_J@Z 0000000180014360 f i Totals.obj
 0001:000134a0       ?DoVerb@?$IOleObjectImpl@VCOPOSTotals@@@ATL@@UEAAJJPEAUtagMSG@@PEAUIOleClientSite@@JPEAUHWND__@@PEBUtagRECT@@@Z 00000001800144a0 f i Totals.obj
 0001:000137b0       ?DoVerbDiscardUndo@?$IOleObjectImpl@VCOPOSTotals@@@ATL@@QEAAJPEBUtagRECT@@PEAUHWND__@@@Z 00000001800147b0 f i Totals.obj
 0001:00013850       ?DoVerbHide@?$IOleObjectImpl@VCOPOSTotals@@@ATL@@QEAAJPEBUtagRECT@@PEAUHWND__@@@Z 0000000180014850 f i Totals.obj
 0001:00013930       ?DoVerbInPlaceActivate@?$IOleObjectImpl@VCOPOSTotals@@@ATL@@QEAAJPEBUtagRECT@@PEAUHWND__@@@Z 0000000180014930 f i Totals.obj
 0001:00013a10       ?DoVerbOpen@?$IOleObjectImpl@VCOPOSTotals@@@ATL@@QEAAJPEBUtagRECT@@PEAUHWND__@@@Z 0000000180014a10 f i Totals.obj
 0001:00013ab0       ?DoVerbPrimary@?$IOleObjectImpl@VCOPOSTotals@@@ATL@@QEAAJPEBUtagRECT@@PEAUHWND__@@@Z 0000000180014ab0 f i Totals.obj
 0001:00013bf0       ?DoVerbProperties@CComControlBase@ATL@@QEAAJPEBUtagRECT@@PEAUHWND__@@@Z 0000000180014bf0 f i Totals.obj
 0001:00013fa0       ?DoVerbShow@?$IOleObjectImpl@VCOPOSTotals@@@ATL@@QEAAJPEBUtagRECT@@PEAUHWND__@@@Z 0000000180014fa0 f i Totals.obj
 0001:00014060       ?DoVerbUIActivate@?$IOleObjectImpl@VCOPOSTotals@@@ATL@@QEAAJPEBUtagRECT@@PEAUHWND__@@@Z 0000000180015060 f i Totals.obj
 0001:00014140       ?DoesVerbActivate@CComControlBase@ATL@@QEAAHJ@Z 0000000180015140 f i Totals.obj
 0001:000141a0       ?DoesVerbUIActivate@CComControlBase@ATL@@QEAAHJ@Z 00000001800151a0 f i Totals.obj
 0001:00014220       ?Draw@?$IViewObjectExImpl@VCOPOSTotals@@@ATL@@UEAAJKJPEAXPEAUtagDVTARGETDEVICE@@PEAUHDC__@@2PEBU_RECTL@@3P6AH_K@Z4@Z 0000000180015220 f i Totals.obj
 0001:00014340       ?Empty@CComBSTR@ATL@@QEAAXXZ 0000000180015340 f i Totals.obj
 0001:00014380       ?EnableModeless@?$IOleInPlaceActiveObjectImpl@VCOPOSTotals@@@ATL@@UEAAJH@Z 0000000180015380 f i Totals.obj
 0001:000143f0       ?EndOfVar@CRegParser@ATL@@IEAAHXZ 00000001800153f0 f i Totals.obj
 0001:00014450       ?EnsureTI@CComTypeInfoHolder@ATL@@QEAAJK@Z 0000000180015450 f i Totals.obj
 0001:000144b0       ?EnumAdvise@?$IOleObjectImpl@VCOPOSTotals@@@ATL@@UEAAJPEAPEAUIEnumSTATDATA@@@Z 00000001800154b0 f i Totals.obj
 0001:00014610       ?EnumConnectionPoints@?$IConnectionPointContainerImpl@VCOPOSTotals@@@ATL@@UEAAJPEAPEAUIEnumConnectionPoints@@@Z 0000000180015610 f i Totals.obj
 0001:00014b00       ?EnumConnections@?$IConnectionPointImpl@VCOPOSTotals@@$1?DIID__IOPOSTotalsEvents@@3U_GUID@@BVCComDynamicUnkArray@ATL@@@ATL@@UEAAJPEAPEAUIEnumConnections@@@Z 0000000180015b00 f i Totals.obj
 0001:00014e50       ?EnumConnections@?$IConnectionPointImpl@VCOPOSTotals@@$1?IID_IPropertyNotifySink@@3U_GUID@@BVCComDynamicUnkArray@ATL@@@ATL@@UEAAJPEAPEAUIEnumConnections@@@Z 0000000180015e50 f i Totals.obj
 0001:000151a0       ?EnumDAdvise@?$IDataObjectImpl@VCOPOSTotals@@@ATL@@UEAAJPEAPEAUIEnumSTATDATA@@@Z 00000001800161a0 f i Totals.obj
 0001:000152f0       ?EnumFormatEtc@?$IDataObjectImpl@VCOPOSTotals@@@ATL@@UEAAJKPEAPEAUIEnumFORMATETC@@@Z 00000001800162f0 f i Totals.obj
 0001:00015380       ?EnumVerbs@?$IOleObjectImpl@VCOPOSTotals@@@ATL@@UEAAJPEAPEAUIEnumOLEVERB@@@Z 0000000180016380 f i Totals.obj
 0001:00015450       ?EscapeSingleQuote@CAtlModule@ATL@@SAXPEA_W_KPEB_W@Z 0000000180016450 f i Totals.obj
 0001:00015550       ?ExtractCreateWndData@CAtlWinModule@ATL@@QEAAPEAXXZ 0000000180016550 f i Totals.obj
 0001:00015580       ?FAccessAllowed@?$IObjectSafetyImpl@VCOPOSTotals@@$02@ATL@@MEAAHXZ 0000000180016580 f i Totals.obj
 0001:00015590       ?FinalConstruct@?$CComAggObject@VCOPOSTotals@@@ATL@@QEAAJXZ 0000000180016590 f i Totals.obj
 0001:000155e0       ?FinalConstruct@CComObjectRootBase@ATL@@QEAAJXZ 00000001800165e0 f i Totals.obj
 0001:000155f0       ?FinalConstruct@CRegObject@ATL@@QEAAJXZ 00000001800165f0 f i Totals.obj
 0001:00015630       ?FinalRelease@?$CComAggObject@VCOPOSTotals@@@ATL@@QEAAXXZ 0000000180016630 f i Totals.obj
 0001:00015680       ?FinalRelease@CComObjectRootBase@ATL@@QEAAXXZ 0000000180016680 f i Totals.obj
 0001:00015690       ?FindConnectionPoint@?$IConnectionPointContainerImpl@VCOPOSTotals@@@ATL@@UEAAJAEBU_GUID@@PEAPEAUIConnectionPoint@@@Z 0000000180016690 f i Totals.obj
 0001:00015800       ?FindKey@?$CSimpleMap@PEA_WPEA_WVCExpansionVectorEqualHelper@ATL@@@ATL@@QEBAHAEBQEA_W@Z 0000000180016800 f i Totals.obj
 0001:00015880       ?FireTheEvent@?$CProxy_IOPOSEvents@VCOPOSTotals@@@@IEAAXPEAUIUnknown@@PEAVOposVariant@@IAEAJPEB_WJ@Z 0000000180016880 f i Totals.obj
 0001:00015a60       ?FireViewChange@CComControlBase@ATL@@QEAAJXZ 0000000180016a60 f i Totals.obj
 0001:00015b40       ?Fire_DirectIOEvent@?$CProxy_IOPOSEvents@VCOPOSTotals@@@@QEAAXJPEAJPEAPEA_W@Z 0000000180016b40 f i Totals.obj
 0001:00015dd0       ?Fire_StatusUpdateEvent@?$CProxy_IOPOSEvents@VCOPOSTotals@@@@QEAAXJ@Z 0000000180016dd0 f i Totals.obj
 0001:00015fc0       ?FormatWindowClassName@AtlModuleRegisterWndClassInfoParamW@ATL@@SAXPEA_WKPEAX@Z 0000000180016fc0 f i Totals.obj
 0001:00016010       ?Free@?$CAutoVectorPtr@_W@ATL@@QEAAXXZ 0000000180017010 f i Totals.obj
 0001:00016060       ?FreeHeap@?$CTempBuffer@E$0BAA@VCCRTAllocator@ATL@@@ATL@@AEAAXXZ 0000000180017060 f i Totals.obj
 0001:000160a0       ?FreeHeap@?$CTempBuffer@_W$0BAA@VCCRTAllocator@ATL@@@ATL@@AEAAXXZ 00000001800170a0 f i Totals.obj
 0001:000160e0       ?FreeHeap@?$CTempBuffer@_W$0EAA@VCCRTAllocator@ATL@@@ATL@@AEAAXXZ 00000001800170e0 f i Totals.obj
 0001:00016120       ?Freeze@?$IViewObjectExImpl@VCOPOSTotals@@@ATL@@UEAAJKJPEAXPEAK@Z 0000000180017120 f i Totals.obj
 0001:000161b0       ?GenerateError@CRegParser@ATL@@IEAAJI@Z 00000001800171b0 f i Totals.obj
 0001:000161d0       ?GetAdvise@?$IViewObjectExImpl@VCOPOSTotals@@@ATL@@UEAAJPEAK0PEAPEAUIAdviseSink@@@Z 00000001800171d0 f i Totals.obj
 0001:00016320       ?GetAmbientLocaleID@CComControlBase@ATL@@QEAAJAEAK@Z 0000000180017320 f i Totals.obj
 0001:00016400       ?GetAmbientProperty@CComControlBase@ATL@@QEAAJJAEAUtagVARIANT@@@Z 0000000180017400 f i Totals.obj
 0001:00016470       ?GetAmbientUserMode@CComControlBase@ATL@@QEAAJAEAH@Z 0000000180017470 f i Totals.obj
 0001:00016590       ?GetAppId@?$CAtlModuleT@VCComModule@ATL@@@ATL@@SAPEB_WXZ 0000000180017590 f i Totals.obj
 0001:000165a0       ?GetAt@CComDynamicUnkArray@ATL@@QEAAPEAUIUnknown@@H@Z 00000001800175a0 f i Totals.obj
 0001:00016650       ?GetCanonicalFormatEtc@?$IDataObjectImpl@VCOPOSTotals@@@ATL@@UEAAJPEAUtagFORMATETC@@0@Z 0000000180017650 f i Totals.obj
 0001:000166e0       ?GetClassID@?$IPersistStorageImpl@VCOPOSTotals@@@ATL@@UEAAJPEAU_GUID@@@Z 00000001800176e0 f i Totals.obj
 0001:00016780       ?GetClassID@?$IPersistStreamInitImpl@VCOPOSTotals@@@ATL@@UEAAJPEAU_GUID@@@Z 0000000180017780 f i Totals.obj
 0001:00016820       ?GetClassInfoExW@AtlModuleRegisterWndClassInfoParamW@ATL@@SAHPEAUHINSTANCE__@@PEB_WPEAUtagWNDCLASSEXW@@@Z 0000000180017820 f i Totals.obj
 0001:00016870       ?GetClassInfoW@?$IProvideClassInfo2Impl@$1?CLSID_OPOSTotals@@3U_GUID@@B$1?DIID__IOPOSTotalsEvents@@3U2@B$1?LIBID_OposTotals_CCO@@3U2@B$00$0A@VCComTypeInfoHolder@ATL@@@ATL@@UEAAJPEAPEAUITypeInfo@@@Z 0000000180017870 f i Totals.obj
 0001:000168b0       ?GetClassObject@CComModule@ATL@@QEAAJAEBU_GUID@@0PEAPEAX@Z 00000001800178b0 f i Totals.obj
 0001:00016b20       ?GetClientSite@?$IOleObjectImpl@VCOPOSTotals@@@ATL@@UEAAJPEAPEAUIOleClientSite@@@Z 0000000180017b20 f i Totals.obj
 0001:00016bd0       ?GetClipboardData@?$IOleObjectImpl@VCOPOSTotals@@@ATL@@UEAAJKPEAPEAUIDataObject@@@Z 0000000180017bd0 f i Totals.obj
 0001:00016c60       ?GetCodeAddress@CDynamicStdCallThunk2@ATL@@QEAAPEAXXZ 0000000180017c60 f i Totals.obj
 0001:00016ca0       ?GetColorSet@?$IViewObjectExImpl@VCOPOSTotals@@@ATL@@UEAAJKJPEAXPEAUtagDVTARGETDEVICE@@PEAUHDC__@@PEAPEAUtagLOGPALETTE@@@Z 0000000180017ca0 f i Totals.obj
 0001:00016d30       ?GetConnMap@COPOSTotals@@SAPEBU_ATL_CONNMAP_ENTRY@ATL@@PEAH@Z 0000000180017d30 f i Totals.obj
 0001:00016e90       ?GetConnectionInterface@?$IConnectionPointImpl@VCOPOSTotals@@$1?DIID__IOPOSTotalsEvents@@3U_GUID@@BVCComDynamicUnkArray@ATL@@@ATL@@UEAAJPEAU_GUID@@@Z 0000000180017e90 f i Totals.obj
 0001:00016ed0       ?GetConnectionInterface@?$IConnectionPointImpl@VCOPOSTotals@@$1?IID_IPropertyNotifySink@@3U_GUID@@BVCComDynamicUnkArray@ATL@@@ATL@@UEAAJPEAU_GUID@@@Z 0000000180017ed0 f i Totals.obj
 0001:00016f10       ?GetConnectionPointContainer@?$IConnectionPointImpl@VCOPOSTotals@@$1?DIID__IOPOSTotalsEvents@@3U_GUID@@BVCComDynamicUnkArray@ATL@@@ATL@@UEAAJPEAPEAUIConnectionPointContainer@@@Z 0000000180017f10 f i Totals.obj
 0001:00016f90       ?GetConnectionPointContainer@?$IConnectionPointImpl@VCOPOSTotals@@$1?IID_IPropertyNotifySink@@3U_GUID@@BVCComDynamicUnkArray@ATL@@@ATL@@UEAAJPEAPEAUIConnectionPointContainer@@@Z 0000000180017f90 f i Totals.obj
 0001:00017010       ?GetContentExtent@?$IQuickActivateImpl@VCOPOSTotals@@@ATL@@UEAAJPEAUtagSIZE@@@Z 0000000180018010 f i Totals.obj
 0001:000170d0       ?GetControlInfo@?$IOleControlImpl@VCOPOSTotals@@@ATL@@UEAAJPEAUtagCONTROLINFO@@@Z 00000001800180d0 f i Totals.obj
 0001:00017160       ?GetCookie@CComDynamicUnkArray@ATL@@QEAAKPEAPEAUIUnknown@@@Z 0000000180018160 f i Totals.obj
 0001:00017250       ?GetData@?$IDataObjectImpl@VCOPOSTotals@@@ATL@@UEAAJPEAUtagFORMATETC@@PEAUtagSTGMEDIUM@@@Z 0000000180018250 f i Totals.obj
 0001:00017310       ?GetData@CAtlSafeAllocBufferNode@?$CAtlSafeAllocBufferManager@VCCRTAllocator@ATL@@@_ATL_SAFE_ALLOCA_IMPL@ATL@@QEAAPEAXXZ 0000000180018310 f i Totals.obj
 0001:00017330       ?GetDataHere@?$IDataObjectImpl@VCOPOSTotals@@@ATL@@UEAAJPEAUtagFORMATETC@@PEAUtagSTGMEDIUM@@@Z 0000000180018330 f i Totals.obj
 0001:000173c0       ?GetDropTarget@?$IOleInPlaceObjectWindowlessImpl@VCOPOSTotals@@@ATL@@UEAAJPEAPEAUIDropTarget@@@Z 00000001800183c0 f i Totals.obj
 0001:00017450       ?GetExtent@?$IOleObjectImpl@VCOPOSTotals@@@ATL@@UEAAJKPEAUtagSIZE@@@Z 0000000180018450 f i Totals.obj
 0001:00017520       ?GetExtent@?$IViewObjectExImpl@VCOPOSTotals@@@ATL@@UEAAJKJPEAUtagDVTARGETDEVICE@@PEAUtagSIZE@@@Z 0000000180018520 f i Totals.obj
 0001:00017630       ?GetGITPtr@CAtlModule@ATL@@UEAAJPEAPEAUIGlobalInterfaceTable@@@Z 0000000180018630 f i Totals.obj
 0001:00017770       ?GetGUID@?$IProvideClassInfo2Impl@$1?CLSID_OPOSTotals@@3U_GUID@@B$1?DIID__IOPOSTotalsEvents@@3U2@B$1?LIBID_OposTotals_CCO@@3U2@B$00$0A@VCComTypeInfoHolder@ATL@@@ATL@@UEAAJKPEAU_GUID@@@Z 0000000180018770 f i Totals.obj
 0001:000177f0       ?GetIDsOfNames@?$IDispatchImpl@UIOPOSTotals@@$1?IID_IOPOSTotals@@3U_GUID@@B$1?LIBID_OposTotals_CCO@@3U3@B$00$0A@VCComTypeInfoHolder@ATL@@@ATL@@UEAAJAEBU_GUID@@PEAPEA_WIKPEAJ@Z 00000001800187f0 f i Totals.obj
 0001:00017850       ?GetIDsOfNames@CComTypeInfoHolder@ATL@@QEAAJAEBU_GUID@@PEAPEA_WIKPEAJ@Z 0000000180018850 f i Totals.obj
 0001:00017a70       ?GetInterfaceSafetyOptions@?$IObjectSafetyImpl@VCOPOSTotals@@$02@ATL@@UEAAJAEBU_GUID@@PEAK1@Z 0000000180018a70 f i Totals.obj
 0001:00017c10       ?GetKeyAt@?$CSimpleMap@PEA_WPEA_WVCExpansionVectorEqualHelper@ATL@@@ATL@@QEBAAEAPEA_WH@Z 0000000180018c10 f i Totals.obj
 0001:00017cc0       ?GetLockCount@CAtlModule@ATL@@UEAAJXZ 0000000180018cc0 f i Totals.obj
 0001:00017cd0       ?GetMiscStatus@?$IOleObjectImpl@VCOPOSTotals@@@ATL@@UEAAJKPEAK@Z 0000000180018cd0 f i Totals.obj
 0001:00017d60       ?GetMoniker@?$IOleObjectImpl@VCOPOSTotals@@@ATL@@UEAAJKKPEAPEAUIMoniker@@@Z 0000000180018d60 f i Totals.obj
 0001:00017df0       ?GetNaturalExtent@?$IViewObjectExImpl@VCOPOSTotals@@@ATL@@UEAAJKJPEAUtagDVTARGETDEVICE@@PEAUHDC__@@PEAUtagExtentInfo@@PEAUtagSIZE@@@Z 0000000180018df0 f i Totals.obj
 0001:00017f80       ?GetObjectCLSID@?$CComCoClass@VCOPOSTotals@@$1?CLSID_OPOSTotals@@3U_GUID@@B@ATL@@SAAEBU_GUID@@XZ 0000000180018f80 f i Totals.obj
 0001:00017f90       ?GetPages@?$ISpecifyPropertyPagesImpl@VCOPOSTotals@@@ATL@@UEAAJPEAUtagCAUUID@@@Z 0000000180018f90 f i Totals.obj
 0001:00018020       ?GetPagesHelper@?$ISpecifyPropertyPagesImpl@VCOPOSTotals@@@ATL@@IEAAJPEAUtagCAUUID@@PEBUATL_PROPMAP_ENTRY@2@@Z 0000000180019020 f i Totals.obj
 0001:00018290       ?GetProperty@?$CComPtr@UIDispatch@@@ATL@@QEAAJJPEAUtagVARIANT@@@Z 0000000180019290 f i Totals.obj
 0001:000182e0       ?GetProperty@?$CComPtr@UIDispatch@@@ATL@@SAJPEAUIDispatch@@JPEAUtagVARIANT@@@Z 00000001800192e0 f i Totals.obj
 0001:000184b0       ?GetPropertyMap@COPOSTotals@@SAPEBUATL_PROPMAP_ENTRY@ATL@@XZ 00000001800194b0 f i Totals.obj
 0001:000184c0       ?GetRect@?$IViewObjectExImpl@VCOPOSTotals@@@ATL@@UEAAJKPEAU_RECTL@@@Z 00000001800194c0 f i Totals.obj
 0001:00018550       ?GetSize@?$CSimpleMap@PEA_WPEA_WVCExpansionVectorEqualHelper@ATL@@@ATL@@QEBAHXZ 0000000180019550 f i Totals.obj
 0001:00018560       ?GetSize@CComDynamicUnkArray@ATL@@QEBAHXZ 0000000180019560 f i Totals.obj
 0001:00018570       ?GetSizeMax@?$IPersistStreamInitImpl@VCOPOSTotals@@@ATL@@UEAAJPEAT_ULARGE_INTEGER@@@Z 0000000180019570 f i Totals.obj
 0001:00018d00       ?GetSizeMax@CComVariant@ATL@@QEBAJPEAT_ULARGE_INTEGER@@@Z 0000000180019d00 f i Totals.obj
 0001:00019130       ?GetStreamSize@CComBSTR@ATL@@SAKPEA_W@Z 000000018001a130 f i Totals.obj
 0001:00019190       ?GetTI@CComTypeInfoHolder@ATL@@QEAAJK@Z 000000018001a190 f i Totals.obj
 0001:00019a60       ?GetTI@CComTypeInfoHolder@ATL@@QEAAJKPEAPEAUITypeInfo@@@Z 000000018001aa60 f i Totals.obj
 0001:00019b50       ?GetTypeInfo@?$IDispatchImpl@UIOPOSTotals@@$1?IID_IOPOSTotals@@3U_GUID@@B$1?LIBID_OposTotals_CCO@@3U3@B$00$0A@VCComTypeInfoHolder@ATL@@@ATL@@UEAAJIKPEAPEAUITypeInfo@@@Z 000000018001ab50 f i Totals.obj
 0001:00019ba0       ?GetTypeInfo@CComTypeInfoHolder@ATL@@QEAAJIKPEAPEAUITypeInfo@@@Z 000000018001aba0 f i Totals.obj
 0001:00019c00       ?GetTypeInfoCount@?$IDispatchImpl@UIOPOSTotals@@$1?IID_IOPOSTotals@@3U_GUID@@B$1?LIBID_OposTotals_CCO@@3U3@B$00$0A@VCComTypeInfoHolder@ATL@@@ATL@@UEAAJPEAI@Z 000000018001ac00 f i Totals.obj
 0001:00019c30       ?GetUnknown@CComDynamicUnkArray@ATL@@QEAAPEAUIUnknown@@K@Z 000000018001ac30 f i Totals.obj
 0001:00019ce0       ?GetUnknown@COPOSTotals@@QEAAPEAUIUnknown@@XZ 000000018001ace0 f i Totals.obj
 0001:00019d10       ?GetUserClassID@?$IOleObjectImpl@VCOPOSTotals@@@ATL@@UEAAJPEAU_GUID@@@Z 000000018001ad10 f i Totals.obj
 0001:00019df0       ?GetUserType@?$IOleObjectImpl@VCOPOSTotals@@@ATL@@UEAAJKPEAPEA_W@Z 000000018001adf0 f i Totals.obj
 0001:00019e80       ?GetValueAt@?$CSimpleMap@PEA_WPEA_WVCExpansionVectorEqualHelper@ATL@@@ATL@@QEBAAEAPEA_WH@Z 000000018001ae80 f i Totals.obj
 0001:00019f30       ?GetViewStatus@?$IViewObjectExImpl@VCOPOSTotals@@@ATL@@UEAAJPEAK@Z 000000018001af30 f i Totals.obj
 0001:0001a030       ?GetWNDPROC@CWndProcThunk@ATL@@QEAAP6A_JPEAUHWND__@@I_K_J@ZXZ 000000018001b030 f i Totals.obj
 0001:0001a070       ?GetWindow@?$IOleInPlaceActiveObjectImpl@VCOPOSTotals@@@ATL@@UEAAJPEAPEAUHWND__@@@Z 000000018001b070 f i Totals.obj
 0001:0001a170       ?GetWindow@?$IOleInPlaceObjectWindowlessImpl@VCOPOSTotals@@@ATL@@UEAAJPEAPEAUHWND__@@@Z 000000018001b170 f i Totals.obj
 0001:0001a270       ?GetWindowProc@?$CWindowImplBaseT@VCWindow@ATL@@V?$CWinTraits@$0FGAAAAAA@$0A@@2@@ATL@@UEAAP6A_JPEAUHWND__@@I_K_J@ZXZ 000000018001b270 f i Totals.obj
 0001:0001a280       ?GetWndCaption@?$CWindowImpl@VCOPOSTotals@@VCWindow@ATL@@V?$CWinTraits@$0FGAAAAAA@$0A@@3@@ATL@@SAPEB_WXZ 000000018001b280 f i Totals.obj
 0001:0001a290       ?GetWndClassInfo@?$CWindowImpl@VCOPOSTotals@@VCWindow@ATL@@V?$CWinTraits@$0FGAAAAAA@$0A@@3@@ATL@@SAAEAU_ATL_WNDCLASSINFOW@2@XZ 000000018001b290 f i Totals.obj
 0001:0001a2a0       ?GetWndClassName@CWindow@ATL@@SAPEB_WXZ 000000018001b2a0 f i Totals.obj
 0001:0001a2b0       ?GetWndExStyle@?$CWinTraits@$0FGAAAAAA@$0A@@ATL@@SAKK@Z 000000018001b2b0 f i Totals.obj
 0001:0001a2f0       ?GetWndExStyle@?$CWindowImplBaseT@VCWindow@ATL@@V?$CWinTraits@$0FGAAAAAA@$0A@@2@@ATL@@SAKK@Z 000000018001b2f0 f i Totals.obj
 0001:0001a320       ?GetWndStyle@?$CWinTraits@$0FGAAAAAA@$0A@@ATL@@SAKK@Z 000000018001b320 f i Totals.obj
 0001:0001a360       ?GetWndStyle@?$CWindowImplBaseT@VCWindow@ATL@@V?$CWinTraits@$0FGAAAAAA@$0A@@2@@ATL@@SAKK@Z 000000018001b360 f i Totals.obj
 0001:0001a390       ?GetZoomInfo@CComControlBase@ATL@@QEAAXAEAUATL_DRAWINFO@@@Z 000000018001b390 f i Totals.obj
 0001:0001a540       ?HKeyFromString@CRegParser@ATL@@KAPEAUHKEY__@@PEA_W@Z 000000018001b540 f i Totals.obj
 0001:0001a5d0       ?HandsOffStorage@?$IPersistStorageImpl@VCOPOSTotals@@@ATL@@UEAAJXZ 000000018001b5d0 f i Totals.obj
 0001:0001a640       ?HasSubKeys@CRegParser@ATL@@IEAAHPEAUHKEY__@@@Z 000000018001b640 f i Totals.obj
 0001:0001a7b0       ?IDataObject_GetData@CComControlBase@ATL@@QEAAJPEAUtagFORMATETC@@PEAUtagSTGMEDIUM@@@Z 000000018001b7b0 f i Totals.obj
 0001:0001ac60       ?IOleInPlaceObject_InPlaceDeactivate@CComControlBase@ATL@@QEAAJXZ 000000018001bc60 f i Totals.obj
 0001:0001aed0       ?IOleInPlaceObject_SetObjectRects@CComControlBase@ATL@@QEAAJPEBUtagRECT@@0@Z 000000018001bed0 f i Totals.obj
 0001:0001b0b0       ?IOleInPlaceObject_UIDeactivate@CComControlBase@ATL@@QEAAJXZ 000000018001c0b0 f i Totals.obj
 0001:0001b320       ?IOleObject_Advise@CComControlBase@ATL@@QEAAJPEAUIAdviseSink@@PEAK@Z 000000018001c320 f i Totals.obj
 0001:0001b3d0       ?IOleObject_Close@CComControlBase@ATL@@QEAAJK@Z 000000018001c3d0 f i Totals.obj
 0001:0001b740       ?IOleObject_GetClientSite@CComControlBase@ATL@@QEAAJPEAPEAUIOleClientSite@@@Z 000000018001c740 f i Totals.obj
 0001:0001b810       ?IOleObject_SetClientSite@CComControlBase@ATL@@QEAAJPEAUIOleClientSite@@@Z 000000018001c810 f i Totals.obj
 0001:0001b920       ?IOleObject_SetExtent@CComControlBase@ATL@@QEAAJKPEAUtagSIZE@@@Z 000000018001c920 f i Totals.obj
 0001:0001ba90       ?IPSI_GetIPersistStreamInit@?$IPersistStorageImpl@VCOPOSTotals@@@ATL@@AEAAPEAUIPersistStreamInit@@XZ 000000018001ca90 f i Totals.obj
 0001:0001bb50       ?IPersistStreamInit_Load@?$IPersistStreamInitImpl@VCOPOSTotals@@@ATL@@QEAAJPEAUIStream@@PEBUATL_PROPMAP_ENTRY@2@@Z 000000018001cb50 f i Totals.obj
 0001:0001bbf0       ?IPersistStreamInit_Save@?$IPersistStreamInitImpl@VCOPOSTotals@@@ATL@@QEAAJPEAUIStream@@HPEBUATL_PROPMAP_ENTRY@2@@Z 000000018001cbf0 f i Totals.obj
 0001:0001bcb0       ?IQuickActivate_QuickActivate@CComControlBase@ATL@@QEAAJPEAUtagQACONTAINER@@PEAUtagQACONTROL@@@Z 000000018001ccb0 f i Totals.obj
 0001:0001c4f0       ?IViewObject_Draw@CComControlBase@ATL@@QEAAJKJPEAXPEAUtagDVTARGETDEVICE@@PEAUHDC__@@2PEBU_RECTL@@3@Z 000000018001d4f0 f i Totals.obj
 0001:0001c940       ?InPlaceActivate@CComControlBase@ATL@@QEAAJJPEBUtagRECT@@@Z 000000018001d940 f i Totals.obj
 0001:0001d4e0       ?InPlaceDeactivate@?$IOleInPlaceObjectWindowlessImpl@VCOPOSTotals@@@ATL@@UEAAJXZ 000000018001e4e0 f i Totals.obj
 0001:0001d590       ?Increment@CComMultiThreadModel@ATL@@SAKPEAJ@Z 000000018001e590 f i Totals.obj
 0001:0001d5b0       ?Increment@CComSingleThreadModel@ATL@@SAKPEAJ@Z 000000018001e5b0 f i Totals.obj
 0001:0001d5d0       ?Init@?$CComEnumImpl@UIEnumConnectionPoints@@$1?_GUID_b196b285_bab4_101a_b69c_00aa00341d07@@3U__s_GUID@@BPEAUIConnectionPoint@@V?$_CopyInterface@UIConnectionPoint@@@ATL@@@ATL@@QEAAJPEAPEAUIConnectionPoint@@0PEAUIUnknown@@W4CComEnumFlags@2@@Z 000000018001e5d0 f i Totals.obj
 0001:0001d8c0       ?Init@?$CComEnumImpl@UIEnumConnections@@$1?_GUID_b196b287_bab4_101a_b69c_00aa00341d07@@3U__s_GUID@@BUtagCONNECTDATA@@V?$_Copy@UtagCONNECTDATA@@@ATL@@@ATL@@QEAAJPEAUtagCONNECTDATA@@0PEAUIUnknown@@W4CComEnumFlags@2@@Z 000000018001e8c0 f i Totals.obj
 0001:0001dbb0       ?Init@CComFakeCriticalSection@ATL@@QEAAJXZ 000000018001ebb0 f i Totals.obj
 0001:0001dbc0       ?Init@CComModule@ATL@@QEAAJPEAU_ATL_OBJMAP_ENTRY30@2@PEAUHINSTANCE__@@PEBU_GUID@@@Z 000000018001ebc0 f i Totals.obj
 0001:0001dcb0       ?Init@CComSafeDeleteCriticalSection@ATL@@QEAAJXZ 000000018001ecb0 f i Totals.obj
 0001:0001dd40       ?Init@CDynamicStdCallThunk2@ATL@@QEAAH_KPEAX@Z 000000018001ed40 f i Totals.obj
 0001:0001ddc0       ?Init@CWndProcThunk@ATL@@QEAAHP6A_JPEAUHWND__@@I_K_J@ZPEAX@Z 000000018001edc0 f i Totals.obj
 0001:0001de10       ?InitFromData@?$IOleObjectImpl@VCOPOSTotals@@@ATL@@UEAAJPEAUIDataObject@@HK@Z 000000018001ee10 f i Totals.obj
 0001:0001dea0       ?InitLibId@?$CAtlModuleT@VCComModule@ATL@@@ATL@@SAXXZ 000000018001eea0 f i Totals.obj
 0001:0001deb0       ?InitNew@?$IPersistStorageImpl@VCOPOSTotals@@@ATL@@UEAAJPEAUIStorage@@@Z 000000018001eeb0 f i Totals.obj
 0001:0001dfa0       ?InitNew@?$IPersistStreamInitImpl@VCOPOSTotals@@@ATL@@UEAAJXZ 000000018001efa0 f i Totals.obj
 0001:0001e050       ?InlineIsEqualUnknown@ATL@@YAHAEBU_GUID@@@Z 000000018001f050 f i Totals.obj
 0001:0001e0e0       ?InternalAddRef@?$CComObjectRootEx@VCComMultiThreadModel@ATL@@@ATL@@QEAAKXZ 000000018001f0e0 f i Totals.obj
 0001:0001e160       ?InternalAddRef@?$CComObjectRootEx@VCComSingleThreadModel@ATL@@@ATL@@QEAAKXZ 000000018001f160 f i Totals.obj
 0001:0001e1e0       ?InternalFinalConstructAddRef@CComObjectRootBase@ATL@@QEAAXXZ 000000018001f1e0 f i Totals.obj
 0001:0001e1f0       ?InternalFinalConstructAddRef@COPOSTotals@@QEAAXXZ 000000018001f1f0 f i Totals.obj
 0001:0001e230       ?InternalFinalConstructRelease@CComObjectRootBase@ATL@@QEAAXXZ 000000018001f230 f i Totals.obj
 0001:0001e2a0       ?InternalFinalConstructRelease@COPOSTotals@@QEAAXXZ 000000018001f2a0 f i Totals.obj
 0001:0001e2e0       ?InternalGetSite@CComControlBase@ATL@@QEAAJAEBU_GUID@@PEAPEAX@Z 000000018001f2e0 f i Totals.obj
 0001:0001e3c0       ?InternalQueryInterface@CComObjectRootBase@ATL@@SAJPEAXPEBU_ATL_INTMAP_ENTRY@2@AEBU_GUID@@PEAPEAX@Z 000000018001f3c0 f i Totals.obj
 0001:0001e4e0       ?InternalRelease@?$CComObjectRootEx@VCComMultiThreadModel@ATL@@@ATL@@QEAAKXZ 000000018001f4e0 f i Totals.obj
 0001:0001e560       ?InternalRelease@?$CComObjectRootEx@VCComSingleThreadModel@ATL@@@ATL@@QEAAKXZ 000000018001f560 f i Totals.obj
 0001:0001e5e0       ?InternalSetAtIndex@?$CSimpleArray@GV?$CSimpleArrayEqualHelper@G@ATL@@@ATL@@QEAAXHAEBG@Z 000000018001f5e0 f i Totals.obj
 0001:0001e660       ?InternalSetAtIndex@?$CSimpleMap@PEA_WPEA_WVCExpansionVectorEqualHelper@ATL@@@ATL@@QEAAXHAEBQEA_W0@Z 000000018001f660 f i Totals.obj
 0001:0001e730       ?Invoke@?$IDispatchImpl@UIOPOSTotals@@$1?IID_IOPOSTotals@@3U_GUID@@B$1?LIBID_OposTotals_CCO@@3U3@B$00$0A@VCComTypeInfoHolder@ATL@@@ATL@@UEAAJJAEBU_GUID@@KGPEAUtagDISPPARAMS@@PEAUtagVARIANT@@PEAUtagEXCEPINFO@@PEAI@Z 000000018001f730 f i Totals.obj
 0001:0001e7d0       ?Invoke@CComTypeInfoHolder@ATL@@QEAAJPEAUIDispatch@@JAEBU_GUID@@KGPEAUtagDISPPARAMS@@PEAUtagVARIANT@@PEAUtagEXCEPINFO@@PEAI@Z 000000018001f7d0 f i Totals.obj
 0001:0001e890       ?IsDirty@?$IPersistStorageImpl@VCOPOSTotals@@@ATL@@UEAAJXZ 000000018001f890 f i Totals.obj
 0001:0001e980       ?IsDirty@?$IPersistStreamInitImpl@VCOPOSTotals@@@ATL@@UEAAJXZ 000000018001f980 f i Totals.obj
 0001:0001ea40       ?IsEqualKey@CExpansionVectorEqualHelper@ATL@@SA_NQEA_W0@Z 000000018001fa40 f i Totals.obj
 0001:0001ea90       ?IsEqualObject@?$CComPtrBase@UIOleClientSite@@@ATL@@QEAA_NPEAUIUnknown@@@Z 000000018001fa90 f i Totals.obj
 0001:0001ebe0       ?IsEqualObject@?$CComPtrBase@UITypeInfo@@@ATL@@QEAA_NPEAUIUnknown@@@Z 000000018001fbe0 f i Totals.obj
 0001:0001ed30       ?IsSpace@CRegParser@ATL@@IEAAH_W@Z 000000018001fd30 f i Totals.obj
 0001:0001ed90       ?IsUpToDate@?$IOleObjectImpl@VCOPOSTotals@@@ATL@@UEAAJXZ 000000018001fd90 f i Totals.obj
 0001:0001ee00       ?Length@CComBSTR@ATL@@QEBAIXZ 000000018001fe00 f i Totals.obj
 0001:0001ee40       ?Load@?$IPersistStorageImpl@VCOPOSTotals@@@ATL@@UEAAJPEAUIStorage@@@Z 000000018001fe40 f i Totals.obj
 0001:0001eff0       ?Load@?$IPersistStreamInitImpl@VCOPOSTotals@@@ATL@@UEAAJPEAUIStream@@@Z 000000018001fff0 f i Totals.obj
 0001:0001f0b0       ?LoadCursorW@AtlModuleRegisterWndClassInfoParamW@ATL@@SAPEAUHICON__@@PEAUHINSTANCE__@@PEB_W@Z 00000001800200b0 f i Totals.obj
 0001:0001f0f0       ?LoadNameCache@CComTypeInfoHolder@ATL@@QEAAJPEAUITypeInfo@@@Z 00000001800200f0 f i Totals.obj
 0001:0001f430       ?Lock@?$CComCritSecLock@VCComCriticalSection@ATL@@@ATL@@QEAAJXZ 0000000180020430 f i Totals.obj
 0001:0001f520       ?Lock@?$CComObjectRootEx@VCComSingleThreadModel@ATL@@@ATL@@QEAAXXZ 0000000180020520 f i Totals.obj
 0001:0001f530       ?Lock@CAtlModule@ATL@@UEAAJXZ 0000000180020530 f i Totals.obj
 0001:0001f570       ?Lock@CComCriticalSection@ATL@@QEAAJXZ 0000000180020570 f i Totals.obj
 0001:0001f5b0       ?Lock@CComFakeCriticalSection@ATL@@QEAAJXZ 00000001800205b0 f i Totals.obj
 0001:0001f5c0       ?LockServer@CComClassFactory@ATL@@UEAAJH@Z 00000001800205c0 f i Totals.obj
 0001:0001f620       ?Lookup@?$CSimpleMap@PEA_WPEA_WVCExpansionVectorEqualHelper@ATL@@@ATL@@QEBAPEA_WAEBQEA_W@Z 0000000180020620 f i Totals.obj
 0001:0001f680       ?Next@?$CComEnumImpl@UIEnumConnectionPoints@@$1?_GUID_b196b285_bab4_101a_b69c_00aa00341d07@@3U__s_GUID@@BPEAUIConnectionPoint@@V?$_CopyInterface@UIConnectionPoint@@@ATL@@@ATL@@UEAAJKPEAPEAUIConnectionPoint@@PEAK@Z 0000000180020680 f i Totals.obj
 0001:0001f840       ?Next@?$CComEnumImpl@UIEnumConnections@@$1?_GUID_b196b287_bab4_101a_b69c_00aa00341d07@@3U__s_GUID@@BUtagCONNECTDATA@@V?$_Copy@UtagCONNECTDATA@@@ATL@@@ATL@@UEAAJKPEAUtagCONNECTDATA@@PEAK@Z 0000000180020840 f i Totals.obj
 0001:0001fa00       ?NextToken@CRegParser@ATL@@IEAAJPEA_W@Z 0000000180020a00 f i Totals.obj
 0001:0001fd90       ?OLE2CT_EX@@YAPEB_WPEB_WI@Z 0000000180020d90 f i Totals.obj
 0001:0001fdb0       ?OLE2CT_EX_DEF@@YAPEB_WPEB_W@Z 0000000180020db0 f i Totals.obj
 0001:0001fdc0       ?OLE2T_EX@@YAPEA_WPEA_WI@Z 0000000180020dc0 f i Totals.obj
 0001:0001fde0       ?OnAmbientPropertyChange@?$IOleControlImpl@VCOPOSTotals@@@ATL@@UEAAJJ@Z 0000000180020de0 f i Totals.obj
 0001:0001fea0       ?OnDocWindowActivate@?$IOleInPlaceActiveObjectImpl@VCOPOSTotals@@@ATL@@UEAAJH@Z 0000000180020ea0 f i Totals.obj
 0001:0001ff60       ?OnDrawAdvanced@CComControlBase@ATL@@UEAAJAEAUATL_DRAWINFO@@@Z 0000000180020f60 f i Totals.obj
 0001:000201b0       ?OnFinalMessage@?$CWindowImplBaseT@VCWindow@ATL@@V?$CWinTraits@$0FGAAAAAA@$0A@@2@@ATL@@UEAAXPEAUHWND__@@@Z 00000001800211b0 f i Totals.obj
 0001:000201c0       ?OnFrameWindowActivate@?$IOleInPlaceActiveObjectImpl@VCOPOSTotals@@@ATL@@UEAAJH@Z 00000001800211c0 f i Totals.obj
 0001:00020230       ?OnKillFocus@CComControlBase@ATL@@QEAA_JI_K_JAEAH@Z 0000000180021230 f i Totals.obj
 0001:00020320       ?OnMnemonic@?$IOleControlImpl@VCOPOSTotals@@@ATL@@UEAAJPEAUtagMSG@@@Z 0000000180021320 f i Totals.obj
 0001:000203b0       ?OnMouseActivate@CComControlBase@ATL@@QEAA_JI_K_JAEAH@Z 00000001800213b0 f i Totals.obj
 0001:00020550       ?OnPaint@CComControlBase@ATL@@QEAA_JI_K_JAEAH@Z 0000000180021550 f i Totals.obj
 0001:000206e0       ?OnPostVerbDiscardUndo@?$IOleObjectImpl@VCOPOSTotals@@@ATL@@QEAAJXZ 00000001800216e0 f i Totals.obj
 0001:000206f0       ?OnPostVerbHide@?$IOleObjectImpl@VCOPOSTotals@@@ATL@@QEAAJXZ 00000001800216f0 f i Totals.obj
 0001:00020700       ?OnPostVerbInPlaceActivate@?$IOleObjectImpl@VCOPOSTotals@@@ATL@@QEAAJXZ 0000000180021700 f i Totals.obj
 0001:00020710       ?OnPostVerbOpen@?$IOleObjectImpl@VCOPOSTotals@@@ATL@@QEAAJXZ 0000000180021710 f i Totals.obj
 0001:00020720       ?OnPostVerbShow@?$IOleObjectImpl@VCOPOSTotals@@@ATL@@QEAAJXZ 0000000180021720 f i Totals.obj
 0001:00020730       ?OnPostVerbUIActivate@?$IOleObjectImpl@VCOPOSTotals@@@ATL@@QEAAJXZ 0000000180021730 f i Totals.obj
 0001:00020740       ?OnPreVerbDiscardUndo@?$IOleObjectImpl@VCOPOSTotals@@@ATL@@QEAAJXZ 0000000180021740 f i Totals.obj
 0001:00020750       ?OnPreVerbHide@?$IOleObjectImpl@VCOPOSTotals@@@ATL@@QEAAJXZ 0000000180021750 f i Totals.obj
 0001:00020760       ?OnPreVerbInPlaceActivate@?$IOleObjectImpl@VCOPOSTotals@@@ATL@@QEAAJXZ 0000000180021760 f i Totals.obj
 0001:00020770       ?OnPreVerbOpen@?$IOleObjectImpl@VCOPOSTotals@@@ATL@@QEAAJXZ 0000000180021770 f i Totals.obj
 0001:00020780       ?OnPreVerbShow@?$IOleObjectImpl@VCOPOSTotals@@@ATL@@QEAAJXZ 0000000180021780 f i Totals.obj
 0001:00020790       ?OnPreVerbUIActivate@?$IOleObjectImpl@VCOPOSTotals@@@ATL@@QEAAJXZ 0000000180021790 f i Totals.obj
 0001:000207a0       ?OnSetFocus@CComControlBase@ATL@@QEAA_JI_K_JAEAH@Z 00000001800217a0 f i Totals.obj
 0001:000209a0       ?OnWindowMessage@?$IOleInPlaceObjectWindowlessImpl@VCOPOSTotals@@@ATL@@UEAAJI_K_JPEA_J@Z 00000001800219a0 f i Totals.obj
 0001:00020bc0       ?Open@CRegKey@ATL@@QEAAJPEAUHKEY__@@PEB_WK@Z 0000000180021bc0 f i Totals.obj
 0001:00020d40       ?OuterAddRef@CComObjectRootBase@ATL@@QEAAKXZ 0000000180021d40 f i Totals.obj
 0001:00020d80       ?OuterQueryInterface@CComObjectRootBase@ATL@@QEAAJAEBU_GUID@@PEAPEAX@Z 0000000180021d80 f i Totals.obj
 0001:00020dd0       ?OuterRelease@CComObjectRootBase@ATL@@QEAAKXZ 0000000180021dd0 f i Totals.obj
 0001:00020e10       ?PreProcessBuffer@CRegParser@ATL@@QEAAJPEA_WPEAPEA_W@Z 0000000180021e10 f i Totals.obj
 0001:000214f0       ?PreTranslateAccelerator@CComControlBase@ATL@@QEAAHPEAUtagMSG@@AEAJ@Z 00000001800224f0 f i Totals.obj
 0001:00021510       ?ProcessWindowMessage@?$CComControl@VCOPOSTotals@@V?$CWindowImpl@VCOPOSTotals@@VCWindow@ATL@@V?$CWinTraits@$0FGAAAAAA@$0A@@3@@ATL@@@ATL@@UEAAHPEAUHWND__@@I_K_JAEA_JK@Z 0000000180022510 f i Totals.obj
 0001:00021790       ?ProcessWindowMessage@COPOSTotals@@UEAAHPEAUHWND__@@I_K_JAEA_JK@Z 0000000180022790 f i Totals.obj
 0001:00021910       ?PutProperty@?$CComPtr@UIDispatch@@@ATL@@QEAAJJPEAUtagVARIANT@@@Z 0000000180022910 f i Totals.obj
 0001:00021960       ?PutProperty@?$CComPtr@UIDispatch@@@ATL@@SAJPEAUIDispatch@@JPEAUtagVARIANT@@@Z 0000000180022960 f i Totals.obj
 0001:00021c00       ?QueryGetData@?$IDataObjectImpl@VCOPOSTotals@@@ATL@@UEAAJPEAUtagFORMATETC@@@Z 0000000180022c00 f i Totals.obj
 0001:00021c90       ?QueryHitPoint@?$IViewObjectExImpl@VCOPOSTotals@@@ATL@@UEAAJKPEBUtagRECT@@UtagPOINT@@JPEAK@Z 0000000180022c90 f i Totals.obj
 0001:00021e00       ?QueryHitRect@?$IViewObjectExImpl@VCOPOSTotals@@@ATL@@UEAAJKPEBUtagRECT@@0JPEAK@Z 0000000180022e00 f i Totals.obj
 0001:00021fd0       ?QueryInterface@?$CComAggObject@VCOPOSTotals@@@ATL@@UEAAJAEBU_GUID@@PEAPEAX@Z 0000000180022fd0 f i Totals.obj
 0001:000220c0       ?QueryInterface@?$CComContainedObject@VCOPOSTotals@@@ATL@@UEAAJAEBU_GUID@@PEAPEAX@Z 00000001800230c0 f i Totals.obj
 0001:0002210c       ?QueryInterface@?$CComContainedObject@VCOPOSTotals@@@ATL@@WBAA@EAAJAEBU_GUID@@PEAPEAX@Z 000000018002310c f i Totals.obj
 0001:00022118       ?QueryInterface@?$CComContainedObject@VCOPOSTotals@@@ATL@@WBAI@EAAJAEBU_GUID@@PEAPEAX@Z 0000000180023118 f i Totals.obj
 0001:00022124       ?QueryInterface@?$CComContainedObject@VCOPOSTotals@@@ATL@@WBBA@EAAJAEBU_GUID@@PEAPEAX@Z 0000000180023124 f i Totals.obj
 0001:00022130       ?QueryInterface@?$CComContainedObject@VCOPOSTotals@@@ATL@@WBBI@EAAJAEBU_GUID@@PEAPEAX@Z 0000000180023130 f i Totals.obj
 0001:0002213c       ?QueryInterface@?$CComContainedObject@VCOPOSTotals@@@ATL@@WLI@EAAJAEBU_GUID@@PEAPEAX@Z 000000018002313c f i Totals.obj
 0001:00022148       ?QueryInterface@?$CComContainedObject@VCOPOSTotals@@@ATL@@WMA@EAAJAEBU_GUID@@PEAPEAX@Z 0000000180023148 f i Totals.obj
 0001:00022154       ?QueryInterface@?$CComContainedObject@VCOPOSTotals@@@ATL@@WMI@EAAJAEBU_GUID@@PEAPEAX@Z 0000000180023154 f i Totals.obj
 0001:00022160       ?QueryInterface@?$CComContainedObject@VCOPOSTotals@@@ATL@@WNA@EAAJAEBU_GUID@@PEAPEAX@Z 0000000180023160 f i Totals.obj
 0001:0002216c       ?QueryInterface@?$CComContainedObject@VCOPOSTotals@@@ATL@@WNI@EAAJAEBU_GUID@@PEAPEAX@Z 000000018002316c f i Totals.obj
 0001:00022178       ?QueryInterface@?$CComContainedObject@VCOPOSTotals@@@ATL@@WOA@EAAJAEBU_GUID@@PEAPEAX@Z 0000000180023178 f i Totals.obj
 0001:00022184       ?QueryInterface@?$CComContainedObject@VCOPOSTotals@@@ATL@@WOI@EAAJAEBU_GUID@@PEAPEAX@Z 0000000180023184 f i Totals.obj
 0001:00022190       ?QueryInterface@?$CComContainedObject@VCOPOSTotals@@@ATL@@WPA@EAAJAEBU_GUID@@PEAPEAX@Z 0000000180023190 f i Totals.obj
 0001:0002219c       ?QueryInterface@?$CComContainedObject@VCOPOSTotals@@@ATL@@WPI@EAAJAEBU_GUID@@PEAPEAX@Z 000000018002319c f i Totals.obj
 0001:000221b0       ?QueryInterface@?$CComObject@V?$CComEnum@UIEnumConnectionPoints@@$1?_GUID_b196b285_bab4_101a_b69c_00aa00341d07@@3U__s_GUID@@BPEAUIConnectionPoint@@V?$_CopyInterface@UIConnectionPoint@@@ATL@@VCComSingleThreadModel@6@@ATL@@@ATL@@UEAAJAEBU_GUID@@PEAPEAX@Z 00000001800231b0 f i Totals.obj
 0001:00022200       ?QueryInterface@?$CComObject@V?$CComEnum@UIEnumConnections@@$1?_GUID_b196b287_bab4_101a_b69c_00aa00341d07@@3U__s_GUID@@BUtagCONNECTDATA@@V?$_Copy@UtagCONNECTDATA@@@ATL@@VCComSingleThreadModel@6@@ATL@@@ATL@@UEAAJAEBU_GUID@@PEAPEAX@Z 0000000180023200 f i Totals.obj
 0001:00022250       ?QueryInterface@?$CComObject@VCOPOSTotals@@@ATL@@UEAAJAEBU_GUID@@PEAPEAX@Z 0000000180023250 f i Totals.obj
 0001:00022294       ?QueryInterface@?$CComObject@VCOPOSTotals@@@ATL@@WBAA@EAAJAEBU_GUID@@PEAPEAX@Z 0000000180023294 f i Totals.obj
 0001:000222a0       ?QueryInterface@?$CComObject@VCOPOSTotals@@@ATL@@WBAI@EAAJAEBU_GUID@@PEAPEAX@Z 00000001800232a0 f i Totals.obj
 0001:000222ac       ?QueryInterface@?$CComObject@VCOPOSTotals@@@ATL@@WBBA@EAAJAEBU_GUID@@PEAPEAX@Z 00000001800232ac f i Totals.obj
 0001:000222b8       ?QueryInterface@?$CComObject@VCOPOSTotals@@@ATL@@WBBI@EAAJAEBU_GUID@@PEAPEAX@Z 00000001800232b8 f i Totals.obj
 0001:000222c4       ?QueryInterface@?$CComObject@VCOPOSTotals@@@ATL@@WLI@EAAJAEBU_GUID@@PEAPEAX@Z 00000001800232c4 f i Totals.obj
 0001:000222d0       ?QueryInterface@?$CComObject@VCOPOSTotals@@@ATL@@WMA@EAAJAEBU_GUID@@PEAPEAX@Z 00000001800232d0 f i Totals.obj
 0001:000222dc       ?QueryInterface@?$CComObject@VCOPOSTotals@@@ATL@@WMI@EAAJAEBU_GUID@@PEAPEAX@Z 00000001800232dc f i Totals.obj
 0001:000222e8       ?QueryInterface@?$CComObject@VCOPOSTotals@@@ATL@@WNA@EAAJAEBU_GUID@@PEAPEAX@Z 00000001800232e8 f i Totals.obj
 0001:000222f4       ?QueryInterface@?$CComObject@VCOPOSTotals@@@ATL@@WNI@EAAJAEBU_GUID@@PEAPEAX@Z 00000001800232f4 f i Totals.obj
 0001:00022300       ?QueryInterface@?$CComObject@VCOPOSTotals@@@ATL@@WOA@EAAJAEBU_GUID@@PEAPEAX@Z 0000000180023300 f i Totals.obj
 0001:0002230c       ?QueryInterface@?$CComObject@VCOPOSTotals@@@ATL@@WOI@EAAJAEBU_GUID@@PEAPEAX@Z 000000018002330c f i Totals.obj
 0001:00022318       ?QueryInterface@?$CComObject@VCOPOSTotals@@@ATL@@WPA@EAAJAEBU_GUID@@PEAPEAX@Z 0000000180023318 f i Totals.obj
 0001:00022324       ?QueryInterface@?$CComObject@VCOPOSTotals@@@ATL@@WPI@EAAJAEBU_GUID@@PEAPEAX@Z 0000000180023324 f i Totals.obj
 0001:00022330       ?QueryInterface@?$CComObjectCached@VCComClassFactory@ATL@@@ATL@@UEAAJAEBU_GUID@@PEAPEAX@Z 0000000180023330 f i Totals.obj
 0001:00022380       ?QueryInterface@CRegObject@ATL@@UEAAJAEBU_GUID@@PEAPEAX@Z 0000000180023380 f i Totals.obj
 0001:00022400       ?QuickActivate@?$IQuickActivateImpl@VCOPOSTotals@@@ATL@@UEAAJPEAUtagQACONTAINER@@PEAUtagQACONTROL@@@Z 0000000180023400 f i Totals.obj
 0001:000224c0       ?ReactivateAndUndo@?$IOleInPlaceObjectWindowlessImpl@VCOPOSTotals@@@ATL@@UEAAJXZ 00000001800234c0 f i Totals.obj
 0001:00022540       ?ReadFromStream@CComBSTR@ATL@@QEAAJPEAUIStream@@@Z 0000000180023540 f i Totals.obj
 0001:00022a20       ?ReadFromStream@CComVariant@ATL@@QEAAJPEAUIStream@@GTClassesAllowedInStream@2@K@Z 0000000180023a20 f i Totals.obj
 0001:00022e50       ?RecurseDeleteKey@CRegKey@ATL@@QEAAJPEB_W@Z 0000000180023e50 f i Totals.obj
 0001:00023070       ?RegCreateKeyExW@CAtlTransactionManager@ATL@@QEAAJPEAUHKEY__@@PEB_WKPEA_WKKQEAU_SECURITY_ATTRIBUTES@@PEAPEAU3@PEAK@Z 0000000180024070 f i Totals.obj
 0001:00023240       ?RegDeleteKeyW@CAtlTransactionManager@ATL@@QEAAJPEAUHKEY__@@PEB_W@Z 0000000180024240 f i Totals.obj
 0001:00023350       ?RegOpenKeyExW@CAtlTransactionManager@ATL@@QEAAJPEAUHKEY__@@PEB_WKKPEAPEAU3@@Z 0000000180024350 f i Totals.obj
 0001:000234a0       ?Register@_ATL_WNDCLASSINFOW@ATL@@QEAAGPEAP6A_JPEAUHWND__@@I_K_J@Z@Z 00000001800244a0 f i Totals.obj
 0001:000234f0       ?RegisterBuffer@CRegParser@ATL@@QEAAJPEA_WH@Z 00000001800244f0 f i Totals.obj
 0001:000238e0       ?RegisterClassExW@AtlModuleRegisterWndClassInfoParamW@ATL@@SAGPEAU_ATL_WIN_MODULE70@2@PEBUtagWNDCLASSEXW@@@Z 00000001800248e0 f i Totals.obj
 0001:00023920       ?RegisterFromResource@CRegObject@ATL@@IEAAJPEB_W00H@Z 0000000180024920 f i Totals.obj
 0001:00023d80       ?RegisterServer@?$CAtlModuleT@VCComModule@ATL@@@ATL@@QEAAJHPEBU_GUID@@@Z 0000000180024d80 f i Totals.obj
 0001:00023e00       ?RegisterServer@CAtlComModule@ATL@@QEAAJHPEBU_GUID@@@Z 0000000180024e00 f i Totals.obj
 0001:00023e40       ?RegisterServer@CComModule@ATL@@QEAAJHPEBU_GUID@@@Z 0000000180024e40 f i Totals.obj
 0001:00023f40       ?RegisterSubkeys@CRegParser@ATL@@IEAAJPEA_WPEAUHKEY__@@HH@Z 0000000180024f40 f i Totals.obj
 0001:00024d20       ?Release@?$CComAggObject@VCOPOSTotals@@@ATL@@UEAAKXZ 0000000180025d20 f i Totals.obj
 0001:00024dd0       ?Release@?$CComContainedObject@VCOPOSTotals@@@ATL@@UEAAKXZ 0000000180025dd0 f i Totals.obj
 0001:00024e08       ?Release@?$CComContainedObject@VCOPOSTotals@@@ATL@@WBAA@EAAKXZ 0000000180025e08 f i Totals.obj
 0001:00024e14       ?Release@?$CComContainedObject@VCOPOSTotals@@@ATL@@WBAI@EAAKXZ 0000000180025e14 f i Totals.obj
 0001:00024e20       ?Release@?$CComContainedObject@VCOPOSTotals@@@ATL@@WBBA@EAAKXZ 0000000180025e20 f i Totals.obj
 0001:00024e2c       ?Release@?$CComContainedObject@VCOPOSTotals@@@ATL@@WBBI@EAAKXZ 0000000180025e2c f i Totals.obj
 0001:00024e38       ?Release@?$CComContainedObject@VCOPOSTotals@@@ATL@@WBCI@EAAKXZ 0000000180025e38 f i Totals.obj
 0001:00024e44       ?Release@?$CComContainedObject@VCOPOSTotals@@@ATL@@WBEA@EAAKXZ 0000000180025e44 f i Totals.obj
 0001:00024e50       ?Release@?$CComContainedObject@VCOPOSTotals@@@ATL@@WLI@EAAKXZ 0000000180025e50 f i Totals.obj
 0001:00024e5c       ?Release@?$CComContainedObject@VCOPOSTotals@@@ATL@@WMA@EAAKXZ 0000000180025e5c f i Totals.obj
 0001:00024e68       ?Release@?$CComContainedObject@VCOPOSTotals@@@ATL@@WMI@EAAKXZ 0000000180025e68 f i Totals.obj
 0001:00024e74       ?Release@?$CComContainedObject@VCOPOSTotals@@@ATL@@WNA@EAAKXZ 0000000180025e74 f i Totals.obj
 0001:00024e80       ?Release@?$CComContainedObject@VCOPOSTotals@@@ATL@@WNI@EAAKXZ 0000000180025e80 f i Totals.obj
 0001:00024e8c       ?Release@?$CComContainedObject@VCOPOSTotals@@@ATL@@WOA@EAAKXZ 0000000180025e8c f i Totals.obj
 0001:00024e98       ?Release@?$CComContainedObject@VCOPOSTotals@@@ATL@@WOI@EAAKXZ 0000000180025e98 f i Totals.obj
 0001:00024ea4       ?Release@?$CComContainedObject@VCOPOSTotals@@@ATL@@WPA@EAAKXZ 0000000180025ea4 f i Totals.obj
 0001:00024eb0       ?Release@?$CComContainedObject@VCOPOSTotals@@@ATL@@WPI@EAAKXZ 0000000180025eb0 f i Totals.obj
 0001:00024ec0       ?Release@?$CComObject@V?$CComEnum@UIEnumConnectionPoints@@$1?_GUID_b196b285_bab4_101a_b69c_00aa00341d07@@3U__s_GUID@@BPEAUIConnectionPoint@@V?$_CopyInterface@UIConnectionPoint@@@ATL@@VCComSingleThreadModel@6@@ATL@@@ATL@@UEAAKXZ 0000000180025ec0 f i Totals.obj
 0001:00024f70       ?Release@?$CComObject@V?$CComEnum@UIEnumConnections@@$1?_GUID_b196b287_bab4_101a_b69c_00aa00341d07@@3U__s_GUID@@BUtagCONNECTDATA@@V?$_Copy@UtagCONNECTDATA@@@ATL@@VCComSingleThreadModel@6@@ATL@@@ATL@@UEAAKXZ 0000000180025f70 f i Totals.obj
 0001:00025020       ?Release@?$CComObject@VCOPOSTotals@@@ATL@@UEAAKXZ 0000000180026020 f i Totals.obj
 0001:000250d8       ?Release@?$CComObject@VCOPOSTotals@@@ATL@@WBAA@EAAKXZ 00000001800260d8 f i Totals.obj
 0001:000250e4       ?Release@?$CComObject@VCOPOSTotals@@@ATL@@WBAI@EAAKXZ 00000001800260e4 f i Totals.obj
 0001:000250f0       ?Release@?$CComObject@VCOPOSTotals@@@ATL@@WBBA@EAAKXZ 00000001800260f0 f i Totals.obj
 0001:000250fc       ?Release@?$CComObject@VCOPOSTotals@@@ATL@@WBBI@EAAKXZ 00000001800260fc f i Totals.obj
 0001:00025108       ?Release@?$CComObject@VCOPOSTotals@@@ATL@@WBCI@EAAKXZ 0000000180026108 f i Totals.obj
 0001:00025114       ?Release@?$CComObject@VCOPOSTotals@@@ATL@@WBEA@EAAKXZ 0000000180026114 f i Totals.obj
 0001:00025120       ?Release@?$CComObject@VCOPOSTotals@@@ATL@@WLI@EAAKXZ 0000000180026120 f i Totals.obj
 0001:0002512c       ?Release@?$CComObject@VCOPOSTotals@@@ATL@@WMA@EAAKXZ 000000018002612c f i Totals.obj
 0001:00025138       ?Release@?$CComObject@VCOPOSTotals@@@ATL@@WMI@EAAKXZ 0000000180026138 f i Totals.obj
 0001:00025144       ?Release@?$CComObject@VCOPOSTotals@@@ATL@@WNA@EAAKXZ 0000000180026144 f i Totals.obj
 0001:00025150       ?Release@?$CComObject@VCOPOSTotals@@@ATL@@WNI@EAAKXZ 0000000180026150 f i Totals.obj
 0001:0002515c       ?Release@?$CComObject@VCOPOSTotals@@@ATL@@WOA@EAAKXZ 000000018002615c f i Totals.obj
 0001:00025168       ?Release@?$CComObject@VCOPOSTotals@@@ATL@@WOI@EAAKXZ 0000000180026168 f i Totals.obj
 0001:00025174       ?Release@?$CComObject@VCOPOSTotals@@@ATL@@WPA@EAAKXZ 0000000180026174 f i Totals.obj
 0001:00025180       ?Release@?$CComObject@VCOPOSTotals@@@ATL@@WPI@EAAKXZ 0000000180026180 f i Totals.obj
 0001:00025190       ?Release@?$CComObjectCached@VCComClassFactory@ATL@@@ATL@@UEAAKXZ 0000000180026190 f i Totals.obj
 0001:00025230       ?Release@?$CComPtrBase@UIAdviseSink@@@ATL@@QEAAXXZ 0000000180026230 f i Totals.obj
 0001:00025290       ?Release@?$CComPtrBase@UIDispatch@@@ATL@@QEAAXXZ 0000000180026290 f i Totals.obj
 0001:000252f0       ?Release@?$CComPtrBase@UIOleInPlaceSiteWindowless@@@ATL@@QEAAXXZ 00000001800262f0 f i Totals.obj
 0001:00025350       ?Release@CRegObject@ATL@@UEAAKXZ 0000000180026350 f i Totals.obj
 0001:000253c0       ?Remove@CComDynamicUnkArray@ATL@@QEAAHK@Z 00000001800263c0 f i Totals.obj
 0001:000254a0       ?RemoveAll@?$CSimpleMap@PEA_WPEA_WVCExpansionVectorEqualHelper@ATL@@@ATL@@QEAAXXZ 00000001800264a0 f i Totals.obj
 0001:00025540       ?Reset@?$CComEnumImpl@UIEnumConnectionPoints@@$1?_GUID_b196b285_bab4_101a_b69c_00aa00341d07@@3U__s_GUID@@BPEAUIConnectionPoint@@V?$_CopyInterface@UIConnectionPoint@@@ATL@@@ATL@@UEAAJXZ 0000000180026540 f i Totals.obj
 0001:00025560       ?Reset@?$CComEnumImpl@UIEnumConnections@@$1?_GUID_b196b287_bab4_101a_b69c_00aa00341d07@@3U__s_GUID@@BUtagCONNECTDATA@@V?$_Copy@UtagCONNECTDATA@@@ATL@@@ATL@@UEAAJXZ 0000000180026560 f i Totals.obj
 0001:00025580       ?ResizeBorder@?$IOleInPlaceActiveObjectImpl@VCOPOSTotals@@@ATL@@UEAAJPEBUtagRECT@@PEAUIOleInPlaceUIWindow@@H@Z 0000000180026580 f i Totals.obj
 0001:00025600       ?ResourceRegister@CRegObject@ATL@@QEAAJPEB_WI0@Z 0000000180026600 f i Totals.obj
 0001:000256e0       ?ResourceRegisterSz@CRegObject@ATL@@QEAAJPEB_W00@Z 00000001800266e0 f i Totals.obj
 0001:00025800       ?ResourceUnregister@CRegObject@ATL@@QEAAJPEB_WI0@Z 0000000180026800 f i Totals.obj
 0001:000258e0       ?ResourceUnregisterSz@CRegObject@ATL@@QEAAJPEB_W00@Z 00000001800268e0 f i Totals.obj
 0001:00025a00       ?SODataDummy@COPOSTotals@@MEAAJJ@Z 0000000180026a00 f i Totals.obj
 0001:00025a20       ?SODirectIO@COPOSTotals@@MEAAJJPEAJPEAPEA_W@Z 0000000180026a20 f i Totals.obj
 0001:00025c60       ?SOErrorDummy@COPOSTotals@@MEAAJJJJPEAJ@Z 0000000180026c60 f i Totals.obj
 0001:00025c80       ?SOOutputCompleteDummy@COPOSTotals@@MEAAJJ@Z 0000000180026c80 f i Totals.obj
 0001:00025ca0       ?SOStatusUpdate@COPOSTotals@@MEAAJJ@Z 0000000180026ca0 f i Totals.obj
 0001:00025d40       ?Save@?$IPersistStorageImpl@VCOPOSTotals@@@ATL@@UEAAJPEAUIStorage@@H@Z 0000000180026d40 f i Totals.obj
 0001:00025f00       ?Save@?$IPersistStreamInitImpl@VCOPOSTotals@@@ATL@@UEAAJPEAUIStream@@H@Z 0000000180026f00 f i Totals.obj
 0001:00025fc0       ?SaveCompleted@?$IPersistStorageImpl@VCOPOSTotals@@@ATL@@UEAAJPEAUIStorage@@@Z 0000000180026fc0 f i Totals.obj
 0001:00026030       ?SendOnDataChange@CComControlBase@ATL@@QEAAJK@Z 0000000180027030 f i Totals.obj
 0001:00026120       ?SendOnSave@CComControlBase@ATL@@QEAAJXZ 0000000180027120 f i Totals.obj
 0001:00026190       ?SendOnViewChange@CComControlBase@ATL@@QEAAJKJ@Z 0000000180027190 f i Totals.obj
 0001:00026210       ?SetAdvise@?$IViewObjectExImpl@VCOPOSTotals@@@ATL@@UEAAJKKPEAUIAdviseSink@@@Z 0000000180027210 f i Totals.obj
 0001:000262d0       ?SetClientSite@?$IOleObjectImpl@VCOPOSTotals@@@ATL@@UEAAJPEAUIOleClientSite@@@Z 00000001800272d0 f i Totals.obj
 0001:00026380       ?SetColorScheme@?$IOleObjectImpl@VCOPOSTotals@@@ATL@@UEAAJPEAUtagLOGPALETTE@@@Z 0000000180027380 f i Totals.obj
 0001:00026410       ?SetContentExtent@?$IQuickActivateImpl@VCOPOSTotals@@@ATL@@UEAAJPEAUtagSIZE@@@Z 0000000180027410 f i Totals.obj
 0001:000264d0       ?SetControlFocus@CComControlBase@ATL@@QEAAHH@Z 00000001800274d0 f i Totals.obj
 0001:00026660       ?SetDWORDValue@CRegKey@ATL@@QEAAJPEB_WK@Z 0000000180027660 f i Totals.obj
 0001:00026710       ?SetData@?$IDataObjectImpl@VCOPOSTotals@@@ATL@@UEAAJPEAUtagFORMATETC@@PEAUtagSTGMEDIUM@@H@Z 0000000180027710 f i Totals.obj
 0001:000267a0       ?SetExtent@?$IOleObjectImpl@VCOPOSTotals@@@ATL@@UEAAJKPEAUtagSIZE@@@Z 00000001800277a0 f i Totals.obj
 0001:00026860       ?SetHostNames@?$IOleObjectImpl@VCOPOSTotals@@@ATL@@UEAAJPEB_W0@Z 0000000180027860 f i Totals.obj
 0001:000268e0       ?SetInterfaceSafetyOptions@?$IObjectSafetyImpl@VCOPOSTotals@@$02@ATL@@UEAAJAEBU_GUID@@KK@Z 00000001800278e0 f i Totals.obj
 0001:00026a80       ?SetMoniker@?$IOleObjectImpl@VCOPOSTotals@@@ATL@@UEAAJKPEAUIMoniker@@@Z 0000000180027a80 f i Totals.obj
 0001:00026b10       ?SetMultiStringValue@CRegKey@ATL@@QEAAJPEB_W0@Z 0000000180027b10 f i Totals.obj
 0001:00026c80       ?SetObjectRects@?$IOleInPlaceObjectWindowlessImpl@VCOPOSTotals@@@ATL@@UEAAJPEBUtagRECT@@0@Z 0000000180027c80 f i Totals.obj
 0001:00026d40       ?SetStringValue@CRegKey@ATL@@QEAAJPEB_W0K@Z 0000000180027d40 f i Totals.obj
 0001:00026ec0       ?SetVoid@CComClassFactory@ATL@@QEAAXPEAX@Z 0000000180027ec0 f i Totals.obj
 0001:00026ee0       ?SetVoid@CComObjectRootBase@ATL@@QEAAXPEAX@Z 0000000180027ee0 f i Totals.obj
 0001:00026ef0       ?ShowWindow@CWindow@ATL@@QEAAHH@Z 0000000180027ef0 f i Totals.obj
 0001:00026f80       ?Skip@?$CComEnumImpl@UIEnumConnectionPoints@@$1?_GUID_b196b285_bab4_101a_b69c_00aa00341d07@@3U__s_GUID@@BPEAUIConnectionPoint@@V?$_CopyInterface@UIConnectionPoint@@@ATL@@@ATL@@UEAAJK@Z 0000000180027f80 f i Totals.obj
 0001:00027020       ?Skip@?$CComEnumImpl@UIEnumConnections@@$1?_GUID_b196b287_bab4_101a_b69c_00aa00341d07@@3U__s_GUID@@BUtagCONNECTDATA@@V?$_Copy@UtagCONNECTDATA@@@ATL@@@ATL@@UEAAJK@Z 0000000180028020 f i Totals.obj
 0001:000270c0       ?SkipAssignment@CRegParser@ATL@@IEAAJPEA_W@Z 00000001800280c0 f i Totals.obj
 0001:000271c0       ?SkipWhiteSpace@CRegParser@ATL@@IEAAXXZ 00000001800281c0 f i Totals.obj
 0001:00027220       ?StartWindowProc@?$CWindowImplBaseT@VCWindow@ATL@@V?$CWinTraits@$0FGAAAAAA@$0A@@2@@ATL@@SA_JPEAUHWND__@@I_K_J@Z 0000000180028220 f i Totals.obj
 0001:00027390       ?StrChrW@CRegParser@ATL@@KAPEA_WPEA_W_W@Z 0000000180028390 f i Totals.obj
 0001:00027410       ?StrFromMap@CRegObject@ATL@@QEAAPEB_WPEA_W@Z 0000000180028410 f i Totals.obj
 0001:000274d0       ?Swap@?$CComPtrBase@UIAdviseSink@@@ATL@@IEAAXAEAV12@@Z 00000001800284d0 f i Totals.obj
 0001:00027530       ?Swap@?$CComPtrBase@UIOleClientSite@@@ATL@@IEAAXAEAV12@@Z 0000000180028530 f i Totals.obj
 0001:00027590       ?Swap@?$CComPtrBase@UIUnknown@@@ATL@@IEAAXAEAV12@@Z 0000000180028590 f i Totals.obj
 0001:000275f0       ?T2COLE_EX@@YAPEB_WPEB_WI@Z 00000001800285f0 f i Totals.obj
 0001:00027610       ?T2OLE_EX@@YAPEA_WPEA_WI@Z 0000000180028610 f i Totals.obj
 0001:00027630       ?Term@CAtlModule@ATL@@QEAAXXZ 0000000180028630 f i Totals.obj
 0001:000276f0       ?Term@CComModule@ATL@@QEAAXXZ 00000001800286f0 f i Totals.obj
 0001:000277e0       ?TranslateAcceleratorW@?$IOleInPlaceActiveObjectImpl@VCOPOSTotals@@@ATL@@UEAAJPEAUtagMSG@@@Z 00000001800287e0 f i Totals.obj
 0001:00027a50       ?UIDeactivate@?$IOleInPlaceObjectWindowlessImpl@VCOPOSTotals@@@ATL@@UEAAJXZ 0000000180028a50 f i Totals.obj
 0001:00027b00       ?Unadvise@?$CProxy_IOPOSEvents@VCOPOSTotals@@@@UEAAJK@Z 0000000180028b00 f i Totals.obj
 0001:00027b50       ?Unadvise@?$IConnectionPointImpl@VCOPOSTotals@@$1?DIID__IOPOSTotalsEvents@@3U_GUID@@BVCComDynamicUnkArray@ATL@@@ATL@@UEAAJK@Z 0000000180028b50 f i Totals.obj
 0001:00027c40       ?Unadvise@?$IConnectionPointImpl@VCOPOSTotals@@$1?IID_IPropertyNotifySink@@3U_GUID@@BVCComDynamicUnkArray@ATL@@@ATL@@UEAAJK@Z 0000000180028c40 f i Totals.obj
 0001:00027d30       ?Unadvise@?$IOleObjectImpl@VCOPOSTotals@@@ATL@@UEAAJK@Z 0000000180028d30 f i Totals.obj
 0001:00027e20       ?Unfreeze@?$IViewObjectExImpl@VCOPOSTotals@@@ATL@@UEAAJK@Z 0000000180028e20 f i Totals.obj
 0001:00027ea0       ?Unlock@?$CComCritSecLock@VCComCriticalSection@ATL@@@ATL@@QEAAXXZ 0000000180028ea0 f i Totals.obj
 0001:00027f30       ?Unlock@?$CComObjectRootEx@VCComSingleThreadModel@ATL@@@ATL@@QEAAXXZ 0000000180028f30 f i Totals.obj
 0001:00027f40       ?Unlock@CAtlModule@ATL@@UEAAJXZ 0000000180028f40 f i Totals.obj
 0001:00027f80       ?Unlock@CComCriticalSection@ATL@@QEAAJXZ 0000000180028f80 f i Totals.obj
 0001:00027fc0       ?Unlock@CComFakeCriticalSection@ATL@@QEAAJXZ 0000000180028fc0 f i Totals.obj
 0001:00027fd0       ?UnregisterServer@?$CAtlModuleT@VCComModule@ATL@@@ATL@@QEAAJHPEBU_GUID@@@Z 0000000180028fd0 f i Totals.obj
 0001:00028040       ?UnregisterServer@CAtlComModule@ATL@@QEAAJHPEBU_GUID@@@Z 0000000180029040 f i Totals.obj
 0001:00028080       ?UnregisterServer@CComModule@ATL@@QEAAJHPEBU_GUID@@@Z 0000000180029080 f i Totals.obj
 0001:00028170       ?Update@?$IOleObjectImpl@VCOPOSTotals@@@ATL@@UEAAJXZ 0000000180029170 f i Totals.obj
 0001:000281e0       ?UpdateRegistryFromResource@CAtlModule@ATL@@QEAAJIHPEAU_ATL_REGMAP_ENTRY@2@@Z 00000001800291e0 f i Totals.obj
 0001:00028710       ?UpdateRegistryFromResource@CAtlModule@ATL@@QEAAJPEB_WHPEAU_ATL_REGMAP_ENTRY@2@@Z 0000000180029710 f i Totals.obj
 0001:00028c60       ?UpdateRegistryFromResource@CComModule@ATL@@UEAAJIHPEAU_ATL_REGMAP_ENTRY@2@@Z 0000000180029c60 f i Totals.obj
 0001:00028cb0       ?UpdateRegistryFromResource@CComModule@ATL@@UEAAJPEB_WHPEAU_ATL_REGMAP_ENTRY@2@@Z 0000000180029cb0 f i Totals.obj
 0001:00028d00       ?UpdateRegistryFromResourceD@CComModule@ATL@@UEAAJIHPEAU_ATL_REGMAP_ENTRY@2@@Z 0000000180029d00 f i Totals.obj
 0001:00028d20       ?UpdateRegistryFromResourceD@CComModule@ATL@@UEAAJPEB_WHPEAU_ATL_REGMAP_ENTRY@2@@Z 0000000180029d20 f i Totals.obj
 0001:00028d40       ?VTFromRegType@CRegParser@ATL@@KAHPEB_WAEAG@Z 0000000180029d40 f i Totals.obj
 0001:00028e20       ?WindowProc@?$CWindowImplBaseT@VCWindow@ATL@@V?$CWinTraits@$0FGAAAAAA@$0A@@2@@ATL@@SA_JPEAUHWND__@@I_K_J@Z 0000000180029e20 f i Totals.obj
 0001:00029100       ?WriteToStream@CComBSTR@ATL@@QEAAJPEAUIStream@@@Z 000000018002a100 f i Totals.obj
 0001:00029270       ?WriteToStream@CComVariant@ATL@@QEAAJPEAUIStream@@@Z 000000018002a270 f i Totals.obj
 0001:00029680       ?WriteToStream@CComVariant@ATL@@QEAAJPEAUIStream@@G@Z 000000018002a680 f i Totals.obj
 0001:00029760       ?_AtlFinalConstruct@CComObjectRootBase@ATL@@QEAAJXZ 000000018002a760 f i Totals.obj
 0001:00029770       ?_AtlGetConversionACP@ATL@@YAIXZ 000000018002a770 f i Totals.obj
 0001:00029780       ?_AtlInitialConstruct@?$CComAggObject@VCOPOSTotals@@@ATL@@QEAAJXZ 000000018002a780 f i Totals.obj
 0001:000297e0       ?_AtlInitialConstruct@?$CComObjectRootEx@VCComMultiThreadModel@ATL@@@ATL@@QEAAJXZ 000000018002a7e0 f i Totals.obj
 0001:00029820       ?_AtlInitialConstruct@?$CComObjectRootEx@VCComSingleThreadModel@ATL@@@ATL@@QEAAJXZ 000000018002a820 f i Totals.obj
 0001:00029830       ?_AtlVerifyStackAvailable@_ATL_SAFE_ALLOCA_IMPL@ATL@@YA_N_K@Z 000000018002a830 f i Totals.obj
 0001:00029990       ?_GetEntries@?$CComEnum@UIEnumConnectionPoints@@$1?_GUID_b196b285_bab4_101a_b69c_00aa00341d07@@3U__s_GUID@@BPEAUIConnectionPoint@@V?$_CopyInterface@UIConnectionPoint@@@ATL@@VCComSingleThreadModel@6@@ATL@@SAPEBU_ATL_INTMAP_ENTRY@2@XZ 000000018002a990 f i Totals.obj
 0001:000299b0       ?_GetEntries@?$CComEnum@UIEnumConnections@@$1?_GUID_b196b287_bab4_101a_b69c_00aa00341d07@@3U__s_GUID@@BUtagCONNECTDATA@@V?$_Copy@UtagCONNECTDATA@@@ATL@@VCComSingleThreadModel@6@@ATL@@SAPEBU_ATL_INTMAP_ENTRY@2@XZ 000000018002a9b0 f i Totals.obj
 0001:000299d0       ?_GetEntries@CComClassFactory@ATL@@SAPEBU_ATL_INTMAP_ENTRY@2@XZ 000000018002a9d0 f i Totals.obj
 0001:000299f0       ?_GetEntries@COPOSTotals@@SAPEBU_ATL_INTMAP_ENTRY@ATL@@XZ 000000018002a9f0 f i Totals.obj
 0001:00029a10       ?_GetRawUnknown@COPOSTotals@@QEAAPEAUIUnknown@@XZ 000000018002aa10 f i Totals.obj
 0001:00029aa0       ?_GetViewStatus@COPOSTotals@@QEAAKXZ 000000018002aaa0 f i Totals.obj
 0001:00029ab0       ?_InternalQueryInterface@?$CComEnum@UIEnumConnectionPoints@@$1?_GUID_b196b285_bab4_101a_b69c_00aa00341d07@@3U__s_GUID@@BPEAUIConnectionPoint@@V?$_CopyInterface@UIConnectionPoint@@@ATL@@VCComSingleThreadModel@6@@ATL@@QEAAJAEBU_GUID@@PEAPEAX@Z 000000018002aab0 f i Totals.obj
 0001:00029b00       ?_InternalQueryInterface@?$CComEnum@UIEnumConnections@@$1?_GUID_b196b287_bab4_101a_b69c_00aa00341d07@@3U__s_GUID@@BUtagCONNECTDATA@@V?$_Copy@UtagCONNECTDATA@@@ATL@@VCComSingleThreadModel@6@@ATL@@QEAAJAEBU_GUID@@PEAPEAX@Z 000000018002ab00 f i Totals.obj
 0001:00029b50       ?_InternalQueryInterface@CComClassFactory@ATL@@QEAAJAEBU_GUID@@PEAPEAX@Z 000000018002ab50 f i Totals.obj
 0001:00029ba0       ?_InternalQueryInterface@COPOSTotals@@QEAAJAEBU_GUID@@PEAPEAX@Z 000000018002aba0 f i Totals.obj
 0001:00029bf0       ?_LocCPQueryInterface@?$IConnectionPointImpl@VCOPOSTotals@@$1?DIID__IOPOSTotalsEvents@@3U_GUID@@BVCComDynamicUnkArray@ATL@@@ATL@@UEAAJAEBU_GUID@@PEAPEAX@Z 000000018002abf0 f i Totals.obj
 0001:00029cd0       ?_LocCPQueryInterface@?$IConnectionPointImpl@VCOPOSTotals@@$1?IID_IPropertyNotifySink@@3U_GUID@@BVCComDynamicUnkArray@ATL@@@ATL@@UEAAJAEBU_GUID@@PEAPEAX@Z 000000018002acd0 f i Totals.obj
 0001:00029db0       ?atlCreate@?$CWindowImpl@VCOPOSTotals@@VCWindow@ATL@@V?$CWinTraits@$0FGAAAAAA@$0A@@3@@ATL@@QEAAPEAUHWND__@@PEAU3@V_U_RECT@2@PEB_WKKV_U_MENUorID@2@PEAX@Z 000000018002adb0 f i Totals.obj
 0001:00029ee0       ?atlCreate@?$CWindowImplBaseT@VCWindow@ATL@@V?$CWinTraits@$0FGAAAAAA@$0A@@2@@ATL@@QEAAPEAUHWND__@@PEAU3@V_U_RECT@2@PEB_WKKV_U_MENUorID@2@GPEAX@Z 000000018002aee0 f i Totals.obj
 0001:0002a140       ?atlCreate@CRegKey@ATL@@QEAAJPEAUHKEY__@@PEB_WPEA_WKKPEAU_SECURITY_ATTRIBUTES@@PEAK@Z 000000018002b140 f i Totals.obj
 0001:0002a330       ?begin@CComDynamicUnkArray@ATL@@QEAAPEAPEAUIUnknown@@XZ 000000018002b330 f i Totals.obj
 0001:0002a340       ?copy@?$_Copy@UtagCONNECTDATA@@@ATL@@SAJPEAUtagCONNECTDATA@@PEBU3@@Z 000000018002b340 f i Totals.obj
 0001:0002a430       ?copy@?$_CopyInterface@UIConnectionPoint@@@ATL@@SAJPEAPEAUIConnectionPoint@@PEBQEAU3@@Z 000000018002b430 f i Totals.obj
 0001:0002a520       ?destroy@?$_Copy@UtagCONNECTDATA@@@ATL@@SAXPEAUtagCONNECTDATA@@@Z 000000018002b520 f i Totals.obj
 0001:0002a570       ?destroy@?$_CopyInterface@UIConnectionPoint@@@ATL@@SAXPEAPEAUIConnectionPoint@@@Z 000000018002b570 f i Totals.obj
 0001:0002a5c0       ?end@CComDynamicUnkArray@ATL@@QEAAPEAPEAUIUnknown@@XZ 000000018002b5c0 f i Totals.obj
 0001:0002a5e0       ?init@?$_Copy@UtagCONNECTDATA@@@ATL@@SAXPEAUtagCONNECTDATA@@@Z 000000018002b5e0 f i Totals.obj
 0001:0002a5f0       ?init@?$_CopyInterface@UIConnectionPoint@@@ATL@@SAXPEAPEAUIConnectionPoint@@@Z 000000018002b5f0 f i Totals.obj
 0001:0002a600       ?memcpy_s@Checked@ATL@@YAXPEAX_KPEBX1@Z 000000018002b600 f i Totals.obj
 0001:0002a660       ?ocscpy_s@@YA_NPEA_W_KPEB_W@Z 000000018002b660 f i Totals.obj
 0001:0002a6e0       ?ocslen@@YAHPEB_W@Z        000000018002b6e0 f i Totals.obj
 0001:0002a720       ?tcsncpy_s@Checked@ATL@@YAHPEA_W_KPEB_W1@Z 000000018002b720 f i Totals.obj
 0001:0002a780       ?wcscat_s@Checked@ATL@@YAXPEA_W_KPEB_W@Z 000000018002b780 f i Totals.obj
 0001:0002a7d0       ?wcscpy_s@Checked@ATL@@YAXPEA_W_KPEB_W@Z 000000018002b7d0 f i Totals.obj
 0001:0002a820       ?wcsncpy_s@Checked@ATL@@YAHPEA_W_KPEB_W1@Z 000000018002b820 f i Totals.obj
 0001:0002a880       ?wcsstr@@YAPEA_WPEA_WPEB_W@Z 000000018002b880 f i Totals.obj
 0001:0002a8c0       InlineIsEqualGUID          000000018002b8c0 f i Totals.obj
 0001:0002a990       IsEqualGUID                000000018002b990 f i Totals.obj
 0001:0002a9f0       ??0COPOSTotals@@QEAA@XZ    000000018002b9f0 f   TotalsImpl.obj
 0001:0002ab70       ?FinalConstruct@COPOSTotals@@QEAAJXZ 000000018002bb70 f   TotalsImpl.obj
 0001:0002ac60       ??1COPOSTotals@@UEAA@XZ    000000018002bc60 f   TotalsImpl.obj
 0001:0002ad40       ?WriteTrace@COPOSTotals@@QEAAXPEB_WZZ 000000018002bd40 f   TotalsImpl.obj
 0001:0002ae00       ?WriteTraceString@COPOSTotals@@QEAAXPEB_WPEA_W@Z 000000018002be00 f   TotalsImpl.obj
 0001:0002b240       ?WriteTraceString@COPOSTotals@@QEAAXPEAXHHHPEB_WZZ 000000018002c240 f   TotalsImpl.obj
 0001:0002b4d0       ?WriteTraceError@COPOSTotals@@QEAAXPEB_WK@Z 000000018002c4d0 f   TotalsImpl.obj
 0001:0002b5d0       ?WriteTraceMethods@COPOSTotals@@QEAAXPEAJH@Z 000000018002c5d0 f   TotalsImpl.obj
 0001:0002b660       ?GetOposProp@COPOSTotals@@IEAAJPEBDJPEAJJ@Z 000000018002c660 f   TotalsImpl.obj
 0001:0002b980       ?SetOposProp@COPOSTotals@@IEAAJPEBDJJJ@Z 000000018002c980 f   TotalsImpl.obj
 0001:0002bce0       ?GetOposProp@COPOSTotals@@IEAAJPEBDJPEAFJ@Z 000000018002cce0 f   TotalsImpl.obj
 0001:0002bd80       ?SetOposProp@COPOSTotals@@IEAAJPEBDJFJ@Z 000000018002cd80 f   TotalsImpl.obj
 0001:0002be00       ?GetOposProp@COPOSTotals@@IEAAJPEBDJPEAPEA_WJ@Z 000000018002ce00 f   TotalsImpl.obj
 0001:0002c120       ?SetOposProp@COPOSTotals@@IEAAJPEBDJPEA_WJ@Z 000000018002d120 f   TotalsImpl.obj
 0001:0002c500       ?DoInvoke@COPOSTotals@@IEAAJPEBDJPEAVOposVariant@@IHPEAJ_N@Z 000000018002d500 f   TotalsImpl.obj
 0001:0002d050       ?SetCOFreezeEvents@COPOSTotals@@IEAAXF@Z 000000018002e050 f   TotalsImpl.obj
 0001:0002d1e0       ?FreezeEvents@COPOSTotals@@MEAAJH@Z 000000018002e1e0 f   TotalsImpl.obj
 0001:0002d310       ?OnDraw@COPOSTotals@@MEAAJAEAUATL_DRAWINFO@@@Z 000000018002e310 f   TotalsImpl.obj
 0001:0002d4e0       ?SOProcessID@COPOSTotals@@UEAAJPEAJ@Z 000000018002e4e0 f   TotalsImpl.obj
 0001:0002d540       ?get_OpenResult@COPOSTotals@@UEAAJPEAJ@Z 000000018002e540 f   TotalsImpl.obj
 0001:0002d5a0       ?get_CheckHealthText@COPOSTotals@@UEAAJPEAPEA_W@Z 000000018002e5a0 f   TotalsImpl.obj
 0001:0002d600       ?get_Claimed@COPOSTotals@@UEAAJPEAF@Z 000000018002e600 f   TotalsImpl.obj
 0001:0002d660       ?get_DeviceEnabled@COPOSTotals@@UEAAJPEAF@Z 000000018002e660 f   TotalsImpl.obj
 0001:0002d6c0       ?put_DeviceEnabled@COPOSTotals@@UEAAJF@Z 000000018002e6c0 f   TotalsImpl.obj
 0001:0002d720       ?get_FreezeEvents@COPOSTotals@@UEAAJPEAF@Z 000000018002e720 f   TotalsImpl.obj
 0001:0002d780       ?put_FreezeEvents@COPOSTotals@@UEAAJF@Z 000000018002e780 f   TotalsImpl.obj
 0001:0002d860       ?get_ResultCode@COPOSTotals@@UEAAJPEAJ@Z 000000018002e860 f   TotalsImpl.obj
 0001:0002d930       ?get_ResultCodeExtended@COPOSTotals@@UEAAJPEAJ@Z 000000018002e930 f   TotalsImpl.obj
 0001:0002d990       ?get_State@COPOSTotals@@UEAAJPEAJ@Z 000000018002e990 f   TotalsImpl.obj
 0001:0002da20       ?get_ControlObjectDescription@COPOSTotals@@UEAAJPEAPEA_W@Z 000000018002ea20 f   TotalsImpl.obj
 0001:0002daa0       ?get_ControlObjectVersion@COPOSTotals@@UEAAJPEAJ@Z 000000018002eaa0 f   TotalsImpl.obj
 0001:0002db00       ?get_ServiceObjectDescription@COPOSTotals@@UEAAJPEAPEA_W@Z 000000018002eb00 f   TotalsImpl.obj
 0001:0002db60       ?get_ServiceObjectVersion@COPOSTotals@@UEAAJPEAJ@Z 000000018002eb60 f   TotalsImpl.obj
 0001:0002dbc0       ?get_DeviceDescription@COPOSTotals@@UEAAJPEAPEA_W@Z 000000018002ebc0 f   TotalsImpl.obj
 0001:0002dc20       ?get_DeviceName@COPOSTotals@@UEAAJPEAPEA_W@Z 000000018002ec20 f   TotalsImpl.obj
 0001:0002dc80       ?CheckHealth@COPOSTotals@@UEAAJJPEAJ@Z 000000018002ec80 f   TotalsImpl.obj
 0001:0002dd40       ?ClaimDevice@COPOSTotals@@UEAAJJPEAJ@Z 000000018002ed40 f   TotalsImpl.obj
 0001:0002de50       ?Close@COPOSTotals@@UEAAJPEAJ@Z 000000018002ee50 f   TotalsImpl.obj
 0001:0002df60       ?DirectIO@COPOSTotals@@UEAAJJPEAJPEAPEA_W0@Z 000000018002ef60 f   TotalsImpl.obj
 0001:0002e0e0       ?Open@COPOSTotals@@UEAAJPEA_WPEAJ@Z 000000018002f0e0 f   TotalsImpl.obj
 0001:0002f5b0       ?ReleaseDevice@COPOSTotals@@UEAAJPEAJ@Z 00000001800305b0 f   TotalsImpl.obj
 0001:0002f660       ?get_CapErrorDetection@COPOSTotals@@UEAAJPEAF@Z 0000000180030660 f   TotalsImpl.obj
 0001:0002f6c0       ?get_CapSingleFile@COPOSTotals@@UEAAJPEAF@Z 00000001800306c0 f   TotalsImpl.obj
 0001:0002f720       ?get_CapTransactions@COPOSTotals@@UEAAJPEAF@Z 0000000180030720 f   TotalsImpl.obj
 0001:0002f780       ?get_FreeData@COPOSTotals@@UEAAJPEAJ@Z 0000000180030780 f   TotalsImpl.obj
 0001:0002f7e0       ?get_NumberOfFiles@COPOSTotals@@UEAAJPEAJ@Z 00000001800307e0 f   TotalsImpl.obj
 0001:0002f840       ?get_TotalsSize@COPOSTotals@@UEAAJPEAJ@Z 0000000180030840 f   TotalsImpl.obj
 0001:0002f8a0       ?get_TransactionInProgress@COPOSTotals@@UEAAJPEAF@Z 00000001800308a0 f   TotalsImpl.obj
 0001:0002f900       ?BeginTrans@COPOSTotals@@UEAAJPEAJ@Z 0000000180030900 f   TotalsImpl.obj
 0001:0002f970       ?ClaimFile@COPOSTotals@@UEAAJJJPEAJ@Z 0000000180030970 f   TotalsImpl.obj
 0001:0002fa90       ?CommitTrans@COPOSTotals@@UEAAJPEAJ@Z 0000000180030a90 f   TotalsImpl.obj
 0001:0002fb00       ?Create@COPOSTotals@@UEAAJPEA_WPEAJJF1@Z 0000000180030b00 f   TotalsImpl.obj
 0001:0002fca0       ?Delete@COPOSTotals@@UEAAJPEA_WPEAJ@Z 0000000180030ca0 f   TotalsImpl.obj
 0001:0002fd80       ?Find@COPOSTotals@@UEAAJPEA_WPEAJ11@Z 0000000180030d80 f   TotalsImpl.obj
 0001:0002ff00       ?FindByIndex@COPOSTotals@@UEAAJJPEAPEA_WPEAJ@Z 0000000180030f00 f   TotalsImpl.obj
 0001:00030030       ?Read@COPOSTotals@@UEAAJJPEAPEA_WJJPEAJ@Z 0000000180031030 f   TotalsImpl.obj
 0001:000301c0       ?RecalculateValidationData@COPOSTotals@@UEAAJJPEAJ@Z 00000001800311c0 f   TotalsImpl.obj
 0001:00030280       ?ReleaseFile@COPOSTotals@@UEAAJJPEAJ@Z 0000000180031280 f   TotalsImpl.obj
 0001:00030340       ?Rename@COPOSTotals@@UEAAJJPEA_WPEAJ@Z 0000000180031340 f   TotalsImpl.obj
 0001:00030470       ?Rollback@COPOSTotals@@UEAAJPEAJ@Z 0000000180031470 f   TotalsImpl.obj
 0001:000304e0       ?SetAll@COPOSTotals@@UEAAJJJPEAJ@Z 00000001800314e0 f   TotalsImpl.obj
 0001:00030600       ?ValidateData@COPOSTotals@@UEAAJJPEAJ@Z 0000000180031600 f   TotalsImpl.obj
 0001:000306c0       ?Write@COPOSTotals@@UEAAJJPEA_WJJPEAJ@Z 00000001800316c0 f   TotalsImpl.obj
 0001:00030850       ?get_BinaryConversion@COPOSTotals@@UEAAJPEAJ@Z 0000000180031850 f   TotalsImpl.obj
 0001:000308b0       ?put_BinaryConversion@COPOSTotals@@UEAAJJ@Z 00000001800318b0 f   TotalsImpl.obj
 0001:00030920       ?get_CapPowerReporting@COPOSTotals@@UEAAJPEAJ@Z 0000000180031920 f   TotalsImpl.obj
 0001:00030980       ?get_PowerNotify@COPOSTotals@@UEAAJPEAJ@Z 0000000180031980 f   TotalsImpl.obj
 0001:000309e0       ?put_PowerNotify@COPOSTotals@@UEAAJJ@Z 00000001800319e0 f   TotalsImpl.obj
 0001:00030a40       ?get_PowerState@COPOSTotals@@UEAAJPEAJ@Z 0000000180031a40 f   TotalsImpl.obj
 0001:00030aa0       ?get_CapStatisticsReporting@COPOSTotals@@UEAAJPEAF@Z 0000000180031aa0 f   TotalsImpl.obj
 0001:00030b00       ?get_CapUpdateStatistics@COPOSTotals@@UEAAJPEAF@Z 0000000180031b00 f   TotalsImpl.obj
 0001:00030b60       ?ResetStatistics@COPOSTotals@@UEAAJPEA_WPEAJ@Z 0000000180031b60 f   TotalsImpl.obj
 0001:00030c40       ?RetrieveStatistics@COPOSTotals@@UEAAJPEAPEA_WPEAJ@Z 0000000180031c40 f   TotalsImpl.obj
 0001:00030d20       ?UpdateStatistics@COPOSTotals@@UEAAJPEA_WPEAJ@Z 0000000180031d20 f   TotalsImpl.obj
 0001:00030e00       ?get_CapCompareFirmwareVersion@COPOSTotals@@UEAAJPEAF@Z 0000000180031e00 f   TotalsImpl.obj
 0001:00030e60       ?get_CapUpdateFirmware@COPOSTotals@@UEAAJPEAF@Z 0000000180031e60 f   TotalsImpl.obj
 0001:00030ec0       ?CompareFirmwareVersion@COPOSTotals@@UEAAJPEA_WPEAJ1@Z 0000000180031ec0 f   TotalsImpl.obj
 0001:00031000       ?UpdateFirmware@COPOSTotals@@UEAAJPEA_WPEAJ@Z 0000000180032000 f   TotalsImpl.obj
 0001:000310e0       ??0?$CComControl@VCOPOSTotals@@V?$CWindowImpl@VCOPOSTotals@@VCWindow@ATL@@V?$CWinTraits@$0FGAAAAAA@$0A@@3@@ATL@@@ATL@@QEAA@XZ 00000001800320e0 f i TotalsImpl.obj
 0001:00031130       ??0?$CComPtr@UIAdviseSink@@@ATL@@QEAA@XZ 0000000180032130 f i TotalsImpl.obj
 0001:00031170       ??0?$CComPtr@UIDataAdviseHolder@@@ATL@@QEAA@XZ 0000000180032170 f i TotalsImpl.obj
 0001:000311b0       ??0?$CComPtr@UIOleAdviseHolder@@@ATL@@QEAA@XZ 00000001800321b0 f i TotalsImpl.obj
 0001:000311f0       ??0?$CComPtr@UIOleClientSite@@@ATL@@QEAA@XZ 00000001800321f0 f i TotalsImpl.obj
 0001:00031230       ??0?$CComPtr@UIOleInPlaceSiteWindowless@@@ATL@@QEAA@XZ 0000000180032230 f i TotalsImpl.obj
 0001:00031270       ??0?$CComPtrBase@UIAdviseSink@@@ATL@@IEAA@XZ 0000000180032270 f i TotalsImpl.obj
 0001:00031290       ??0?$CComPtrBase@UIDataAdviseHolder@@@ATL@@IEAA@XZ 0000000180032290 f i TotalsImpl.obj
 0001:000312b0       ??0?$CComPtrBase@UIOleAdviseHolder@@@ATL@@IEAA@XZ 00000001800322b0 f i TotalsImpl.obj
 0001:000312d0       ??0?$CComPtrBase@UIOleClientSite@@@ATL@@IEAA@XZ 00000001800322d0 f i TotalsImpl.obj
 0001:000312f0       ??0?$CComPtrBase@UIOleInPlaceSiteWindowless@@@ATL@@IEAA@XZ 00000001800322f0 f i TotalsImpl.obj
 0001:00031310       ??0?$CComQIPtr@UIDispatch@@$1?_GUID_00020400_0000_0000_c000_000000000046@@3U__s_GUID@@B@ATL@@QEAA@XZ 0000000180032310 f i TotalsImpl.obj
 0001:00031350       ??0?$CProxy_IOPOSEvents@VCOPOSTotals@@@@QEAA@PEAVCOPOSTotals@@@Z 0000000180032350 f i TotalsImpl.obj
 0001:000313c0       ??0?$CWindowImpl@VCOPOSTotals@@VCWindow@ATL@@V?$CWinTraits@$0FGAAAAAA@$0A@@3@@ATL@@QEAA@XZ 00000001800323c0 f i TotalsImpl.obj
 0001:00031400       ??0?$CWindowImplBaseT@VCWindow@ATL@@V?$CWinTraits@$0FGAAAAAA@$0A@@2@@ATL@@QEAA@XZ 0000000180032400 f i TotalsImpl.obj
 0001:00031450       ??0?$CWindowImplRoot@VCWindow@ATL@@@ATL@@QEAA@XZ 0000000180032450 f i TotalsImpl.obj
 0001:000314c0       ??0?$IConnectionPointContainerImpl@VCOPOSTotals@@@ATL@@QEAA@XZ 00000001800324c0 f i TotalsImpl.obj
 0001:00031500       ??0?$IConnectionPointImpl@VCOPOSTotals@@$1?DIID__IOPOSTotalsEvents@@3U_GUID@@BVCComDynamicUnkArray@ATL@@@ATL@@QEAA@XZ 0000000180032500 f i TotalsImpl.obj
 0001:00031550       ??0?$IConnectionPointImpl@VCOPOSTotals@@$1?IID_IPropertyNotifySink@@3U_GUID@@BVCComDynamicUnkArray@ATL@@@ATL@@QEAA@XZ 0000000180032550 f i TotalsImpl.obj
 0001:000315a0       ??0?$IDataObjectImpl@VCOPOSTotals@@@ATL@@QEAA@XZ 00000001800325a0 f i TotalsImpl.obj
 0001:000315e0       ??0?$IDispatchImpl@UIOPOSTotals@@$1?IID_IOPOSTotals@@3U_GUID@@B$1?LIBID_OposTotals_CCO@@3U3@B$00$0A@VCComTypeInfoHolder@ATL@@@ATL@@QEAA@XZ 00000001800325e0 f i TotalsImpl.obj
 0001:00031620       ??0?$IObjectSafetyImpl@VCOPOSTotals@@$02@ATL@@QEAA@XZ 0000000180032620 f i TotalsImpl.obj
 0001:00031660       ??0?$IOleControlImpl@VCOPOSTotals@@@ATL@@QEAA@XZ 0000000180032660 f i TotalsImpl.obj
 0001:000316a0       ??0?$IOleInPlaceActiveObjectImpl@VCOPOSTotals@@@ATL@@QEAA@XZ 00000001800326a0 f i TotalsImpl.obj
 0001:000316e0       ??0?$IOleInPlaceObjectWindowlessImpl@VCOPOSTotals@@@ATL@@QEAA@XZ 00000001800326e0 f i TotalsImpl.obj
 0001:00031720       ??0?$IOleObjectImpl@VCOPOSTotals@@@ATL@@QEAA@XZ 0000000180032720 f i TotalsImpl.obj
 0001:00031760       ??0?$IPersistStorageImpl@VCOPOSTotals@@@ATL@@QEAA@XZ 0000000180032760 f i TotalsImpl.obj
 0001:000317a0       ??0?$IPersistStreamInitImpl@VCOPOSTotals@@@ATL@@QEAA@XZ 00000001800327a0 f i TotalsImpl.obj
 0001:000317e0       ??0?$IPropertyNotifySinkCP@VCOPOSTotals@@VCComDynamicUnkArray@ATL@@@ATL@@QEAA@XZ 00000001800327e0 f i TotalsImpl.obj
 0001:00031820       ??0?$IProvideClassInfo2Impl@$1?CLSID_OPOSTotals@@3U_GUID@@B$1?DIID__IOPOSTotalsEvents@@3U2@B$1?LIBID_OposTotals_CCO@@3U2@B$00$0A@VCComTypeInfoHolder@ATL@@@ATL@@QEAA@XZ 0000000180032820 f i TotalsImpl.obj
 0001:00031860       ??0?$IQuickActivateImpl@VCOPOSTotals@@@ATL@@QEAA@XZ 0000000180032860 f i TotalsImpl.obj
 0001:000318a0       ??0?$ISpecifyPropertyPagesImpl@VCOPOSTotals@@@ATL@@QEAA@XZ 00000001800328a0 f i TotalsImpl.obj
 0001:000318e0       ??0?$IViewObjectExImpl@VCOPOSTotals@@@ATL@@QEAA@XZ 00000001800328e0 f i TotalsImpl.obj
 0001:00031920       ??0?$_ICPLocator@$1?DIID__IOPOSTotalsEvents@@3U_GUID@@B@ATL@@QEAA@XZ 0000000180032920 f i TotalsImpl.obj
 0001:00031930       ??0?$_ICPLocator@$1?IID_IPropertyNotifySink@@3U_GUID@@B@ATL@@QEAA@XZ 0000000180032930 f i TotalsImpl.obj
 0001:00031940       ??0CComControlBase@ATL@@QEAA@AEAPEAUHWND__@@@Z 0000000180032940 f i TotalsImpl.obj
 0001:00031b60       ??0CComDynamicUnkArray@ATL@@QEAA@XZ 0000000180032b60 f i TotalsImpl.obj
 0001:00031b90       ??0CDynamicStdCallThunk2@ATL@@QEAA@XZ 0000000180032b90 f i TotalsImpl.obj
 0001:00031bb0       ??0CMessageMap@ATL@@QEAA@XZ 0000000180032bb0 f i TotalsImpl.obj
 0001:00031bc0       ??0CWindow@ATL@@QEAA@PEAUHWND__@@@Z 0000000180032bc0 f i TotalsImpl.obj
 0001:00031be0       ??0CWndProcThunk@ATL@@QEAA@XZ 0000000180032be0 f i TotalsImpl.obj
 0001:00031c20       ??0IConnectionPointContainer@@QEAA@XZ 0000000180032c20 f i TotalsImpl.obj
 0001:00031c60       ??0IDataObject@@QEAA@XZ    0000000180032c60 f i TotalsImpl.obj
 0001:00031ca0       ??0IDispatch@@QEAA@XZ      0000000180032ca0 f i TotalsImpl.obj
 0001:00031ce0       ??0IOPOSTotals@@QEAA@XZ    0000000180032ce0 f i TotalsImpl.obj
 0001:00031d20       ??0IOPOSTotals_1_5@@QEAA@XZ 0000000180032d20 f i TotalsImpl.obj
 0001:00031d60       ??0IOPOSTotals_1_8@@QEAA@XZ 0000000180032d60 f i TotalsImpl.obj
 0001:00031da0       ??0IOPOSTotals_1_9@@QEAA@XZ 0000000180032da0 f i TotalsImpl.obj
 0001:00031de0       ??0IObjectSafety@@QEAA@XZ  0000000180032de0 f i TotalsImpl.obj
 0001:00031e20       ??0IOleControl@@QEAA@XZ    0000000180032e20 f i TotalsImpl.obj
 0001:00031e60       ??0IOleInPlaceActiveObject@@QEAA@XZ 0000000180032e60 f i TotalsImpl.obj
 0001:00031ea0       ??0IOleInPlaceObject@@QEAA@XZ 0000000180032ea0 f i TotalsImpl.obj
 0001:00031ee0       ??0IOleInPlaceObjectWindowless@@QEAA@XZ 0000000180032ee0 f i TotalsImpl.obj
 0001:00031f20       ??0IOleObject@@QEAA@XZ     0000000180032f20 f i TotalsImpl.obj
 0001:00031f60       ??0IOleWindow@@QEAA@XZ     0000000180032f60 f i TotalsImpl.obj
 0001:00031fa0       ??0IPersist@@QEAA@XZ       0000000180032fa0 f i TotalsImpl.obj
 0001:00031fe0       ??0IPersistStorage@@QEAA@XZ 0000000180032fe0 f i TotalsImpl.obj
 0001:00032020       ??0IPersistStreamInit@@QEAA@XZ 0000000180033020 f i TotalsImpl.obj
 0001:00032060       ??0IProvideClassInfo2@@QEAA@XZ 0000000180033060 f i TotalsImpl.obj
 0001:000320a0       ??0IProvideClassInfo@@QEAA@XZ 00000001800330a0 f i TotalsImpl.obj
 0001:000320e0       ??0IQuickActivate@@QEAA@XZ 00000001800330e0 f i TotalsImpl.obj
 0001:00032120       ??0ISpecifyPropertyPages@@QEAA@XZ 0000000180033120 f i TotalsImpl.obj
 0001:00032160       ??0IViewObject2@@QEAA@XZ   0000000180033160 f i TotalsImpl.obj
 0001:000321a0       ??0IViewObject@@QEAA@XZ    00000001800331a0 f i TotalsImpl.obj
 0001:000321e0       ??0IViewObjectEx@@QEAA@XZ  00000001800331e0 f i TotalsImpl.obj
 0001:00032220       ??0OposVariantResult@@QEAA@XZ 0000000180033220 f i TotalsImpl.obj
 0001:00032260       ??0_CW@@QEAA@PEBD@Z        0000000180033260 f i TotalsImpl.obj
 0001:000322b0       ??0_CW@@QEAA@PEB_W@Z       00000001800332b0 f i TotalsImpl.obj
 0001:00032300       ??0_CWNCC@@QEAA@PEBD@Z     0000000180033300 f i TotalsImpl.obj
 0001:00032340       ??1?$CComControl@VCOPOSTotals@@V?$CWindowImpl@VCOPOSTotals@@VCWindow@ATL@@V?$CWinTraits@$0FGAAAAAA@$0A@@3@@ATL@@@ATL@@UEAA@XZ 0000000180033340 f i TotalsImpl.obj
 0001:00032380       ??1?$CComPtr@UIDataAdviseHolder@@@ATL@@QEAA@XZ 0000000180033380 f i TotalsImpl.obj
 0001:000323b0       ??1?$CComPtr@UIOleAdviseHolder@@@ATL@@QEAA@XZ 00000001800333b0 f i TotalsImpl.obj
 0001:000323e0       ??1?$CComPtr@UIOleInPlaceSiteWindowless@@@ATL@@QEAA@XZ 00000001800333e0 f i TotalsImpl.obj
 0001:00032410       ??1?$CComPtrBase@UIDataAdviseHolder@@@ATL@@QEAA@XZ 0000000180033410 f i TotalsImpl.obj
 0001:00032460       ??1?$CComPtrBase@UIOleAdviseHolder@@@ATL@@QEAA@XZ 0000000180033460 f i TotalsImpl.obj
 0001:000324b0       ??1?$CComPtrBase@UIOleInPlaceSiteWindowless@@@ATL@@QEAA@XZ 00000001800334b0 f i TotalsImpl.obj
 0001:00032500       ??1?$CComQIPtr@UIDispatch@@$1?_GUID_00020400_0000_0000_c000_000000000046@@3U__s_GUID@@B@ATL@@QEAA@XZ 0000000180033500 f i TotalsImpl.obj
 0001:00032530       ??1?$CProxy_IOPOSEvents@VCOPOSTotals@@@@QEAA@XZ 0000000180033530 f i TotalsImpl.obj
 0001:00032560       ??1?$CWindowImpl@VCOPOSTotals@@VCWindow@ATL@@V?$CWinTraits@$0FGAAAAAA@$0A@@3@@ATL@@UEAA@XZ 0000000180033560 f i TotalsImpl.obj
 0001:00032590       ??1?$CWindowImplBaseT@VCWindow@ATL@@V?$CWinTraits@$0FGAAAAAA@$0A@@2@@ATL@@UEAA@XZ 0000000180033590 f i TotalsImpl.obj
 0001:000325c0       ??1?$CWindowImplRoot@VCWindow@ATL@@@ATL@@UEAA@XZ 00000001800335c0 f i TotalsImpl.obj
 0001:00032680       ??1?$IConnectionPointImpl@VCOPOSTotals@@$1?DIID__IOPOSTotalsEvents@@3U_GUID@@BVCComDynamicUnkArray@ATL@@@ATL@@QEAA@XZ 0000000180033680 f i TotalsImpl.obj
 0001:00032720       ??1?$IConnectionPointImpl@VCOPOSTotals@@$1?IID_IPropertyNotifySink@@3U_GUID@@BVCComDynamicUnkArray@ATL@@@ATL@@QEAA@XZ 0000000180033720 f i TotalsImpl.obj
 0001:000327c0       ??1?$IPropertyNotifySinkCP@VCOPOSTotals@@VCComDynamicUnkArray@ATL@@@ATL@@QEAA@XZ 00000001800337c0 f i TotalsImpl.obj
 0001:000327f0       ??1CComControlBase@ATL@@UEAA@XZ 00000001800337f0 f i TotalsImpl.obj
 0001:000328e0       ??1CComDynamicUnkArray@ATL@@QEAA@XZ 00000001800338e0 f i TotalsImpl.obj
 0001:00032920       ??1CDynamicStdCallThunk2@ATL@@QEAA@XZ 0000000180033920 f i TotalsImpl.obj
 0001:00032960       ??1CWndProcThunk@ATL@@QEAA@XZ 0000000180033960 f i TotalsImpl.obj
 0001:000329a0       ??1OposVariantResult@@QEAA@XZ 00000001800339a0 f i TotalsImpl.obj
 0001:000329e0       ??1_CW@@QEAA@XZ            00000001800339e0 f i TotalsImpl.obj
 0001:00032a60       ??1_CWNCC@@QEAA@XZ         0000000180033a60 f i TotalsImpl.obj
 0001:00032a90       ??B_CW@@QEAAPEB_WXZ        0000000180033a90 f i TotalsImpl.obj
 0001:00032ae0       ??B_CWNCC@@QEAAPEA_WXZ     0000000180033ae0 f i TotalsImpl.obj
 0001:00032b10       ??_EOposVariant@@QEAAPEAXI@Z 0000000180033b10 f i TotalsImpl.obj
 0001:00032bc0       ?EventClose@COPOSTotals@@IEAAXXZ 0000000180033bc0 f i TotalsImpl.obj
 0001:00032c60       ?EventInit@COPOSTotals@@IEAAJXZ 0000000180033c60 f i TotalsImpl.obj
 0001:00032f10       ?EventOpen@COPOSTotals@@IEAAXXZ 0000000180033f10 f i TotalsImpl.obj
 0001:00032f50       ?EventPreClose@COPOSTotals@@IEAAXXZ 0000000180033f50 f i TotalsImpl.obj
 0001:00032fd0       ?EventUninit@COPOSTotals@@IEAAXXZ 0000000180033fd0 f i TotalsImpl.obj
 0001:00033100       ?EventWindowProc@COPOSTotals@@IEAA_JI_K_J@Z 0000000180034100 f i TotalsImpl.obj
 0001:00033200       ?FireEventCleanup@COPOSTotals@@IEAAXXZ 0000000180034200 f i TotalsImpl.obj
 0001:00033250       ?FireEventSetup@COPOSTotals@@IEAA_NXZ 0000000180034250 f i TotalsImpl.obj
 0001:000332d0       ?GetModuleInstance@CComModule@ATL@@QEAAPEAUHINSTANCE__@@XZ 00000001800342d0 f i TotalsImpl.obj
 0001:000332e0       ?SetRC@COPOSTotals@@IEAAJJ@Z 00000001800342e0 f i TotalsImpl.obj
 0001:00033300       ?s_EventWindowProc@COPOSTotals@@KA_JPEAUHWND__@@I_K_J@Z 0000000180034300 f i TotalsImpl.obj
 0001:000333b0       _snwprintf                 00000001800343b0 f i TotalsImpl.obj
 0001:00033440       _vfwprintf_l               0000000180034440 f i TotalsImpl.obj
 0001:000334a0       _vsnwprintf                00000001800344a0 f i TotalsImpl.obj
 0001:00033500       _vsnwprintf_l              0000000180034500 f i TotalsImpl.obj
 0001:00033590       vfwprintf                  0000000180034590 f i TotalsImpl.obj
 0001:000335d5       DebugBreak                 00000001800345d5 f   kernel32:KERNEL32.dll
 0001:000335db       Sleep                      00000001800345db f   kernel32:KERNEL32.dll
 0001:000335e1       GetCurrentProcess          00000001800345e1 f   kernel32:KERNEL32.dll
 0001:000335e7       TerminateProcess           00000001800345e7 f   kernel32:KERNEL32.dll
 0001:000335ed       MultiByteToWideChar        00000001800345ed f   kernel32:KERNEL32.dll
 0001:000335f3       WideCharToMultiByte        00000001800345f3 f   kernel32:KERNEL32.dll
 0001:000335f9       DecodePointer              00000001800345f9 f   kernel32:KERNEL32.dll
 0001:000335ff       RaiseException             00000001800345ff f   kernel32:KERNEL32.dll
 0001:00033605       GetLastError               0000000180034605 f   kernel32:KERNEL32.dll
 0001:0003360b       SetLastError               000000018003460b f   kernel32:KERNEL32.dll
 0001:00033611       InitializeCriticalSectionEx 0000000180034611 f   kernel32:KERNEL32.dll
 0001:00033617       DeleteCriticalSection      0000000180034617 f   kernel32:KERNEL32.dll
 0001:0003361d       EncodePointer              000000018003461d f   kernel32:KERNEL32.dll
 0001:00033623       EnterCriticalSection       0000000180034623 f   kernel32:KERNEL32.dll
 0001:00033629       LeaveCriticalSection       0000000180034629 f   kernel32:KERNEL32.dll
 0001:0003362f       ResetEvent                 000000018003462f f   kernel32:KERNEL32.dll
 0001:00033635       ReleaseMutex               0000000180034635 f   kernel32:KERNEL32.dll
 0001:0003363b       WaitForSingleObject        000000018003463b f   kernel32:KERNEL32.dll
 0001:00033641       GetCurrentThreadId         0000000180034641 f   kernel32:KERNEL32.dll
 0001:00033647       DisableThreadLibraryCalls  0000000180034647 f   kernel32:KERNEL32.dll
 0001:0003364d       FreeLibrary                000000018003464d f   kernel32:KERNEL32.dll
 0001:00033653       GetModuleFileNameW         0000000180034653 f   kernel32:KERNEL32.dll
 0001:00033659       GetModuleHandleW           0000000180034659 f   kernel32:KERNEL32.dll
 0001:0003365f       GetProcAddress             000000018003465f f   kernel32:KERNEL32.dll
 0001:00033665       LoadLibraryExW             0000000180034665 f   kernel32:KERNEL32.dll
 0001:0003366b       LoadResource               000000018003466b f   kernel32:KERNEL32.dll
 0001:00033671       SizeofResource             0000000180034671 f   kernel32:KERNEL32.dll
 0001:00033677       FindResourceW              0000000180034677 f   kernel32:KERNEL32.dll
 0001:0003367d       GlobalAlloc                000000018003467d f   kernel32:KERNEL32.dll
 0001:00033683       GlobalUnlock               0000000180034683 f   kernel32:KERNEL32.dll
 0001:00033689       GlobalLock                 0000000180034689 f   kernel32:KERNEL32.dll
 0001:0003368f       MulDiv                     000000018003468f f   kernel32:KERNEL32.dll
 0001:00033695       lstrcmpiW                  0000000180034695 f   kernel32:KERNEL32.dll
 0001:0003369b       DeleteFileW                000000018003469b f   kernel32:KERNEL32.dll
 0001:000336a1       CloseHandle                00000001800346a1 f   kernel32:KERNEL32.dll
 0001:000336a7       SetEvent                   00000001800346a7 f   kernel32:KERNEL32.dll
 0001:000336ad       CreateMutexW               00000001800346ad f   kernel32:KERNEL32.dll
 0001:000336b3       CreateEventW               00000001800346b3 f   kernel32:KERNEL32.dll
 0001:000336b9       GetCurrentProcessId        00000001800346b9 f   kernel32:KERNEL32.dll
 0001:000336bf       LocalFree                  00000001800346bf f   kernel32:KERNEL32.dll
 0001:000336c5       FormatMessageW             00000001800346c5 f   kernel32:KERNEL32.dll
 0001:000336cb       GetActiveWindow            00000001800346cb f   user32:USER32.dll
 0001:000336d1       MessageBoxW                00000001800346d1 f   user32:USER32.dll
 0001:000336d7       UnregisterClassW           00000001800346d7 f   user32:USER32.dll
 0001:000336dd       PostMessageW               00000001800346dd f   user32:USER32.dll
 0001:000336e3       DefWindowProcW             00000001800346e3 f   user32:USER32.dll
 0001:000336e9       CallWindowProcW            00000001800346e9 f   user32:USER32.dll
 0001:000336ef       RegisterClassExW           00000001800346ef f   user32:USER32.dll
 0001:000336f5       GetClassInfoExW            00000001800346f5 f   user32:USER32.dll
 0001:000336fb       CreateWindowExW            00000001800346fb f   user32:USER32.dll
 0001:00033701       IsWindow                   0000000180034701 f   user32:USER32.dll
 0001:00033707       IsChild                    0000000180034707 f   user32:USER32.dll
 0001:0003370d       DestroyWindow              000000018003470d f   user32:USER32.dll
 0001:00033713       ShowWindow                 0000000180034713 f   user32:USER32.dll
 0001:00033719       SetWindowPos               0000000180034719 f   user32:USER32.dll
 0001:0003371f       CharNextW                  000000018003471f f   user32:USER32.dll
 0001:00033725       SetFocus                   0000000180034725 f   user32:USER32.dll
 0001:0003372b       GetFocus                   000000018003472b f   user32:USER32.dll
 0001:00033731       GetKeyState                0000000180034731 f   user32:USER32.dll
 0001:00033737       GetDC                      0000000180034737 f   user32:USER32.dll
 0001:0003373d       ReleaseDC                  000000018003473d f   user32:USER32.dll
 0001:00033743       BeginPaint                 0000000180034743 f   user32:USER32.dll
 0001:00033749       EndPaint                   0000000180034749 f   user32:USER32.dll
 0001:0003374f       SetWindowRgn               000000018003474f f   user32:USER32.dll
 0001:00033755       InvalidateRect             0000000180034755 f   user32:USER32.dll
 0001:0003375b       GetClientRect              000000018003475b f   user32:USER32.dll
 0001:00033761       IntersectRect              0000000180034761 f   user32:USER32.dll
 0001:00033767       UnionRect                  0000000180034767 f   user32:USER32.dll
 0001:0003376d       OffsetRect                 000000018003476d f   user32:USER32.dll
 0001:00033773       EqualRect                  0000000180034773 f   user32:USER32.dll
 0001:00033779       PtInRect                   0000000180034779 f   user32:USER32.dll
 0001:0003377f       GetWindowLongPtrW          000000018003477f f   user32:USER32.dll
 0001:00033785       SetWindowLongPtrW          0000000180034785 f   user32:USER32.dll
 0001:0003378b       GetParent                  000000018003478b f   user32:USER32.dll
 0001:00033791       LoadCursorW                0000000180034791 f   user32:USER32.dll
 0001:00033797       PeekMessageW               0000000180034797 f   user32:USER32.dll
 0001:0003379d       RegisterClassW             000000018003479d f   user32:USER32.dll
 0001:000337a3       LoadBitmapW                00000001800347a3 f   user32:USER32.dll
 0001:000337a9       CloseMetaFile              00000001800347a9 f   gdi32:GDI32.dll
 0001:000337af       CreateDCW                  00000001800347af f   gdi32:GDI32.dll
 0001:000337b5       CreateMetaFileW            00000001800347b5 f   gdi32:GDI32.dll
 0001:000337bb       CreateRectRgnIndirect      00000001800347bb f   gdi32:GDI32.dll
 0001:000337c1       DeleteDC                   00000001800347c1 f   gdi32:GDI32.dll
 0001:000337c7       DeleteMetaFile             00000001800347c7 f   gdi32:GDI32.dll
 0001:000337cd       GetDeviceCaps              00000001800347cd f   gdi32:GDI32.dll
 0001:000337d3       RestoreDC                  00000001800347d3 f   gdi32:GDI32.dll
 0001:000337d9       SaveDC                     00000001800347d9 f   gdi32:GDI32.dll
 0001:000337df       SetMapMode                 00000001800347df f   gdi32:GDI32.dll
 0001:000337e5       LPtoDP                     00000001800347e5 f   gdi32:GDI32.dll
 0001:000337eb       SetViewportOrgEx           00000001800347eb f   gdi32:GDI32.dll
 0001:000337f1       SetWindowExtEx             00000001800347f1 f   gdi32:GDI32.dll
 0001:000337f7       SetWindowOrgEx             00000001800347f7 f   gdi32:GDI32.dll
 0001:000337fd       BitBlt                     00000001800347fd f   gdi32:GDI32.dll
 0001:00033803       CreateCompatibleDC         0000000180034803 f   gdi32:GDI32.dll
 0001:00033809       DeleteObject               0000000180034809 f   gdi32:GDI32.dll
 0001:0003380f       SelectObject               000000018003480f f   gdi32:GDI32.dll
 0001:00033815       GetObjectW                 0000000180034815 f   gdi32:GDI32.dll
 0001:0003381b       RegCloseKey                000000018003481b f   advapi32:ADVAPI32.dll
 0001:00033821       RegCreateKeyExW            0000000180034821 f   advapi32:ADVAPI32.dll
 0001:00033827       RegDeleteKeyW              0000000180034827 f   advapi32:ADVAPI32.dll
 0001:0003382d       RegDeleteValueW            000000018003482d f   advapi32:ADVAPI32.dll
 0001:00033833       RegEnumKeyExW              0000000180034833 f   advapi32:ADVAPI32.dll
 0001:00033839       RegOpenKeyExW              0000000180034839 f   advapi32:ADVAPI32.dll
 0001:0003383f       RegQueryInfoKeyW           000000018003483f f   advapi32:ADVAPI32.dll
 0001:00033845       RegSetValueExW             0000000180034845 f   advapi32:ADVAPI32.dll
 0001:0003384b       RegQueryValueExW           000000018003484b f   advapi32:ADVAPI32.dll
 0001:00033851       CoCreateInstance           0000000180034851 f   ole32:ole32.dll
 0001:00033857       StringFromGUID2            0000000180034857 f   ole32:ole32.dll
 0001:0003385d       CoTaskMemAlloc             000000018003485d f   ole32:ole32.dll
 0001:00033863       CoTaskMemRealloc           0000000180034863 f   ole32:ole32.dll
 0001:00033869       CoTaskMemFree              0000000180034869 f   ole32:ole32.dll
 0001:0003386f       ReadClassStm               000000018003486f f   ole32:ole32.dll
 0001:00033875       WriteClassStm              0000000180034875 f   ole32:ole32.dll
 0001:0003387b       CreateDataAdviseHolder     000000018003487b f   ole32:ole32.dll
 0001:00033881       OleSaveToStream            0000000180034881 f   ole32:ole32.dll
 0001:00033887       CreateOleAdviseHolder      0000000180034887 f   ole32:ole32.dll
 0001:0003388d       OleRegGetUserType          000000018003488d f   ole32:ole32.dll
 0001:00033893       OleRegGetMiscStatus        0000000180034893 f   ole32:ole32.dll
 0001:00033899       OleRegEnumVerbs            0000000180034899 f   ole32:ole32.dll
 0001:0003389f       CLSIDFromProgID            000000018003489f f   ole32:ole32.dll
 0001:000338a5       SysAllocString             00000001800348a5 f   oleaut32:OLEAUT32.dll
 0001:000338ab       SysAllocStringLen          00000001800348ab f   oleaut32:OLEAUT32.dll
 0001:000338b1       SysFreeString              00000001800348b1 f   oleaut32:OLEAUT32.dll
 0001:000338b7       SysStringLen               00000001800348b7 f   oleaut32:OLEAUT32.dll
 0001:000338bd       VariantClear               00000001800348bd f   oleaut32:OLEAUT32.dll
 0001:000338c3       VariantCopyInd             00000001800348c3 f   oleaut32:OLEAUT32.dll
 0001:000338c9       VariantChangeType          00000001800348c9 f   oleaut32:OLEAUT32.dll
 0001:000338cf       SysStringByteLen           00000001800348cf f   oleaut32:OLEAUT32.dll
 0001:000338d5       SysAllocStringByteLen      00000001800348d5 f   oleaut32:OLEAUT32.dll
 0001:000338db       VariantInit                00000001800348db f   oleaut32:OLEAUT32.dll
 0001:000338e1       VarUI4FromStr              00000001800348e1 f   oleaut32:OLEAUT32.dll
 0001:000338e7       LoadTypeLib                00000001800348e7 f   oleaut32:OLEAUT32.dll
 0001:000338ed       LoadRegTypeLib             00000001800348ed f   oleaut32:OLEAUT32.dll
 0001:000338f3       RegisterTypeLib            00000001800348f3 f   oleaut32:OLEAUT32.dll
 0001:000338f9       UnRegisterTypeLib          00000001800348f9 f   oleaut32:OLEAUT32.dll
 0001:000338ff       OleCreatePropertyFrame     00000001800348ff f   oleaut32:OLEAUT32.dll
 0001:00033910       _RTC_AllocaHelper          0000000180034910 f   LIBCMTD:stack.obj
 0001:00033950       _RTC_CheckStackVars        0000000180034950 f   LIBCMTD:stack.obj
 0001:000339e0       _RTC_CheckStackVars2       00000001800349e0 f   LIBCMTD:stack.obj
 0001:00033af0       _CRT_RTC_INIT              0000000180034af0 f   LIBCMTD:init.obj
 0001:00033b00       _CRT_RTC_INITW             0000000180034b00 f   LIBCMTD:init.obj
 0001:00033b10       _RTC_InitBase              0000000180034b10 f   LIBCMTD:init.obj
 0001:00033b50       _RTC_Shutdown              0000000180034b50 f   LIBCMTD:init.obj
 0001:00033b80       __GSHandlerCheck           0000000180034b80 f   LIBCMTD:gshandler.obj
 0001:00033bc0       __GSHandlerCheckCommon     0000000180034bc0 f   LIBCMTD:gshandler.obj
 0001:00033cd0       __security_check_cookie    0000000180034cd0 f   LIBCMTD:amdsecgs.obj
 0001:00033d00       ??_U@YAPEAX_K@Z            0000000180034d00 f   LIBCMTD:new_array.obj
 0001:00033d20       ??3@YAXPEAX_K@Z            0000000180034d20 f   LIBCMTD:delete_scalar_size.obj
 0001:00033d40       ??_V@YAXPEAX@Z             0000000180034d40 f   LIBCMTD:delete_array.obj
 0001:00033d60       ??_V@YAXPEAX_K@Z           0000000180034d60 f   LIBCMTD:delete_array_size.obj
 0001:00033d80       ?configure_argv@__scrt_narrow_argv_policy@@SAHXZ 0000000180034d80 f i LIBCMTD:utility.obj
 0001:00033e70       ?initialize_environment@__scrt_narrow_environment_policy@@SAHXZ 0000000180034e70 f i LIBCMTD:utility.obj
 0001:00033f10       NtCurrentTeb               0000000180034f10 f i LIBCMTD:utility.obj
 0001:00033f20       __scrt_acquire_startup_lock 0000000180034f20 f   LIBCMTD:utility.obj
 0001:00033f90       __scrt_dllmain_after_initialize_c 0000000180034f90 f   LIBCMTD:utility.obj
 0001:00033fc0       __scrt_dllmain_before_initialize_c 0000000180034fc0 f   LIBCMTD:utility.obj
 0001:00033fe0       __scrt_dllmain_crt_thread_attach 0000000180034fe0 f   LIBCMTD:utility.obj
 0001:00034010       __scrt_dllmain_crt_thread_detach 0000000180035010 f   LIBCMTD:utility.obj
 0001:00034030       __scrt_dllmain_exception_filter 0000000180035030 f   LIBCMTD:utility.obj
 0001:000340a0       __scrt_dllmain_uninitialize_c 00000001800350a0 f   LIBCMTD:utility.obj
 0001:000340d0       __scrt_dllmain_uninitialize_critical 00000001800350d0 f   LIBCMTD:utility.obj
 0001:000340f0       __scrt_initialize_crt      00000001800350f0 f   LIBCMTD:utility.obj
 0001:00034140       __scrt_initialize_onexit_tables 0000000180035140 f   LIBCMTD:utility.obj
 0001:00034250       __scrt_is_nonwritable_in_current_image 0000000180035250 f   LIBCMTD:utility.obj
 0001:000342e0       __scrt_release_startup_lock 00000001800352e0 f   LIBCMTD:utility.obj
 0001:00034310       __scrt_uninitialize_crt    0000000180035310 f   LIBCMTD:utility.obj
 0001:00034350       _onexit                    0000000180035350 f   LIBCMTD:utility.obj
 0001:000343d0       at_quick_exit              00000001800353d0 f   LIBCMTD:utility.obj
 0001:00034420       atexit                     0000000180035420 f   LIBCMTD:utility.obj
 0001:00034460       ??3@YAXPEAX@Z              0000000180035460 f   LIBCMTD:delete_scalar.obj
 0001:00034480       __raise_securityfailure    0000000180035480 f   LIBCMTD:gs_report.obj
 0001:000344c0       __report_gsfailure         00000001800354c0 f   LIBCMTD:gs_report.obj
 0001:000345a0       __report_rangecheckfailure 00000001800355a0 f   LIBCMTD:gs_report.obj
 0001:000345c0       __report_securityfailure   00000001800355c0 f   LIBCMTD:gs_report.obj
 0001:00034660       __report_securityfailureEx 0000000180035660 f   LIBCMTD:gs_report.obj
 0001:00034a20       _Init_thread_abort         0000000180035a20 f   LIBCMTD:thread_safe_statics.obj
 0001:00034a50       _Init_thread_footer        0000000180035a50 f   LIBCMTD:thread_safe_statics.obj
 0001:00034ab0       _Init_thread_header        0000000180035ab0 f   LIBCMTD:thread_safe_statics.obj
 0001:00034b40       _Init_thread_lock          0000000180035b40 f   LIBCMTD:thread_safe_statics.obj
 0001:00034b60       _Init_thread_notify        0000000180035b60 f   LIBCMTD:thread_safe_statics.obj
 0001:00034bc0       _Init_thread_unlock        0000000180035bc0 f   LIBCMTD:thread_safe_statics.obj
 0001:00034be0       _Init_thread_wait          0000000180035be0 f   LIBCMTD:thread_safe_statics.obj
 0001:00034c90       ??2@YAPEAX_KAEBUnothrow_t@std@@@Z 0000000180035c90 f   LIBCMTD:new_scalar_nothrow.obj
 0001:00034cd0       ??_U@YAPEAX_KAEBUnothrow_t@std@@@Z 0000000180035cd0 f   LIBCMTD:new_array_nothrow.obj
 0001:00034d00       __GSHandlerCheck_SEH       0000000180035d00 f   LIBCMTD:gshandlerseh.obj
 0001:00034dd0       __chkstk                   0000000180035dd0 f   LIBCMTD:chkstk.obj
 0001:00034dd0       _alloca_probe              0000000180035dd0 f   LIBCMTD:chkstk.obj
 0001:00035240       _CRT_INIT                  0000000180036240 f   LIBCMTD:dll_dllmain.obj
 0001:00035270       _DllMainCRTStartup         0000000180036270 f   LIBCMTD:dll_dllmain.obj
 0001:00035340       ?_RTC_AllocaFailure@@YAXPEAXPEAU_RTC_ALLOCA_NODE@@H@Z 0000000180036340 f   LIBCMTD:error.obj
 0001:000354a0       ?_RTC_Failure@@YAXPEAXH@Z  00000001800364a0 f   LIBCMTD:error.obj
 0001:000354f0       ?_RTC_StackFailure@@YAXPEAXPEBD@Z 00000001800364f0 f   LIBCMTD:error.obj
 0001:00035920       _RTC_UninitUse             0000000180036920 f   LIBCMTD:error.obj
 0001:000359f0       _vsprintf_s_l              00000001800369f0 f i LIBCMTD:error.obj
 0001:00035a60       sprintf_s                  0000000180036a60 f i LIBCMTD:error.obj
 0001:00035a90       ?_RTC_GetErrorFunc@@YAP6AHHPEBDH00ZZPEBX@Z 0000000180036a90 f   LIBCMTD:userapi.obj
 0001:00035aa0       ?_RTC_GetErrorFuncW@@YAP6AHHPEB_WH00ZZPEBX@Z 0000000180036aa0 f   LIBCMTD:userapi.obj
 0001:00035ab0       _RTC_GetErrDesc            0000000180036ab0 f   LIBCMTD:userapi.obj
 0001:00035ad0       _RTC_NumErrors             0000000180036ad0 f   LIBCMTD:userapi.obj
 0001:00035ae0       _RTC_SetErrorFunc          0000000180036ae0 f   LIBCMTD:userapi.obj
 0001:00035b00       _RTC_SetErrorFuncW         0000000180036b00 f   LIBCMTD:userapi.obj
 0001:00035b20       _RTC_SetErrorType          0000000180036b20 f   LIBCMTD:userapi.obj
 0001:00035b40       ??2@YAPEAX_K@Z             0000000180036b40 f   LIBCMTD:new_scalar.obj
 0001:00035b90       __isa_available_init       0000000180036b90 f   LIBCMTD:cpu_disp.obj
 0001:00035f30       _get_startup_argv_mode     0000000180036f30 f   LIBCMTD:argv_mode.obj
 0001:00035f40       __scrt_is_ucrt_dll_in_use  0000000180036f40 f   LIBCMTD:ucrt_detection.obj
 0001:00035f70       __crt_debugger_hook        0000000180036f70 f   LIBCMTD:utility_desktop.obj
 0001:00035f80       __scrt_fastfail            0000000180036f80 f   LIBCMTD:utility_desktop.obj
 0001:00036120       __scrt_get_show_window_mode 0000000180037120 f   LIBCMTD:utility_desktop.obj
 0001:00036180       __scrt_initialize_mta      0000000180037180 f   LIBCMTD:utility_desktop.obj
 0001:00036190       __scrt_initialize_winrt    0000000180037190 f   LIBCMTD:utility_desktop.obj
 0001:000361a0       __scrt_is_managed_app      00000001800371a0 f   LIBCMTD:utility_desktop.obj
 0001:00036250       __scrt_set_unhandled_exception_filter 0000000180037250 f   LIBCMTD:utility_desktop.obj
 0001:00036270       __scrt_stub_for_initialize_mta 0000000180037270 f   LIBCMTD:utility_desktop.obj
 0001:00036270       __scrt_exe_initialize_mta  0000000180037270 f   LIBCMTD:utility_desktop.obj
 0001:00036280       __scrt_unhandled_exception_filter 0000000180037280 f   LIBCMTD:utility_desktop.obj
 0001:00036320       _guard_check_icall_nop     0000000180037320 f i LIBCMTD:guard_support.obj
 0001:00036330       ReadNoFence64              0000000180037330 f i LIBCMTD:guard_support.obj
 0001:00036350       ReadPointerNoFence         0000000180037350 f i LIBCMTD:guard_support.obj
 0001:00036370       __castguard_check_failure_debugbreak 0000000180037370 f i LIBCMTD:guard_support.obj
 0001:00036390       __castguard_check_failure_fastfail 0000000180037390 f i LIBCMTD:guard_support.obj
 0001:000363c0       __castguard_check_failure_nop 00000001800373c0 f i LIBCMTD:guard_support.obj
 0001:000363d0       __castguard_check_failure_os_handled 00000001800373d0 f i LIBCMTD:guard_support.obj
 0001:00036490       __castguard_slow_path_check_debugbreak 0000000180037490 f i LIBCMTD:guard_support.obj
 0001:000364d0       __castguard_slow_path_check_fastfail 00000001800374d0 f i LIBCMTD:guard_support.obj
 0001:00036520       __castguard_slow_path_check_nop 0000000180037520 f i LIBCMTD:guard_support.obj
 0001:00036530       __castguard_slow_path_check_os_handled 0000000180037530 f i LIBCMTD:guard_support.obj
 0001:00036610       _guard_icall_checks_enforced 0000000180037610 f i LIBCMTD:guard_support.obj
 0001:00036650       _guard_rf_checks_enforced  0000000180037650 f i LIBCMTD:guard_support.obj
 0001:00036720       __security_init_cookie     0000000180037720 f   LIBCMTD:gs_support.obj
 0001:000367a0       ?__scrt_initialize_type_info@@YAXXZ 00000001800377a0 f   LIBCMTD:tncleanup.obj
 0001:000367c0       ?__scrt_uninitialize_type_info@@YAXXZ 00000001800377c0 f   LIBCMTD:tncleanup.obj
 0001:000367e0       __local_stdio_scanf_options 00000001800377e0 f i LIBCMTD:default_local_stdio_options.obj
 0001:000367f0       __scrt_initialize_default_local_stdio_options 00000001800377f0 f   LIBCMTD:default_local_stdio_options.obj
 0001:00036840       __scrt_get_dyn_tls_init_callback 0000000180037840 f   LIBCMTD:dyn_tls_init.obj
 0001:00036850       _RTC_Initialize            0000000180037850 f   LIBCMTD:initsect.obj
 0001:000368a0       _RTC_Terminate             00000001800378a0 f   LIBCMTD:initsect.obj
 0001:00036e00       ?_RTC_GetSrcLine@@YAHPEAEPEA_WKPEAH1K@Z 0000000180037e00 f   LIBCMTD:pdblkup.obj
 0001:000371d0       ??0bad_alloc@std@@AEAA@QEBD@Z 00000001800381d0 f i LIBCMTD:throw_bad_alloc.obj
 0001:00037210       ??0bad_alloc@std@@QEAA@AEBV01@@Z 0000000180038210 f i LIBCMTD:throw_bad_alloc.obj
 0001:00037250       ??0bad_alloc@std@@QEAA@XZ  0000000180038250 f i LIBCMTD:throw_bad_alloc.obj
 0001:00037290       ??0bad_array_new_length@std@@QEAA@AEBV01@@Z 0000000180038290 f i LIBCMTD:throw_bad_alloc.obj
 0001:000372d0       ??0bad_array_new_length@std@@QEAA@XZ 00000001800382d0 f i LIBCMTD:throw_bad_alloc.obj
 0001:00037310       ??0exception@std@@QEAA@AEBV01@@Z 0000000180038310 f i LIBCMTD:throw_bad_alloc.obj
 0001:00037370       ??0exception@std@@QEAA@QEBDH@Z 0000000180038370 f i LIBCMTD:throw_bad_alloc.obj
 0001:000373c0       ??1bad_alloc@std@@UEAA@XZ  00000001800383c0 f i LIBCMTD:throw_bad_alloc.obj
 0001:000373e0       ??1bad_array_new_length@std@@UEAA@XZ 00000001800383e0 f i LIBCMTD:throw_bad_alloc.obj
 0001:00037400       ??1exception@std@@UEAA@XZ  0000000180038400 f i LIBCMTD:throw_bad_alloc.obj
 0001:00037430       ??_Ebad_alloc@std@@UEAAPEAXI@Z 0000000180038430 f i LIBCMTD:throw_bad_alloc.obj
 0001:00037430       ??_Gbad_alloc@std@@UEAAPEAXI@Z 0000000180038430 f i LIBCMTD:throw_bad_alloc.obj
 0001:00037470       ??_Gbad_array_new_length@std@@UEAAPEAXI@Z 0000000180038470 f i LIBCMTD:throw_bad_alloc.obj
 0001:00037470       ??_Ebad_array_new_length@std@@UEAAPEAXI@Z 0000000180038470 f i LIBCMTD:throw_bad_alloc.obj
 0001:000374b0       ??_Eexception@std@@UEAAPEAXI@Z 00000001800384b0 f i LIBCMTD:throw_bad_alloc.obj
 0001:000374b0       ??_Gexception@std@@UEAAPEAXI@Z 00000001800384b0 f i LIBCMTD:throw_bad_alloc.obj
 0001:000374f0       ?__scrt_throw_std_bad_alloc@@YAXXZ 00000001800384f0 f   LIBCMTD:throw_bad_alloc.obj
 0001:00037520       ?__scrt_throw_std_bad_array_new_length@@YAXXZ 0000000180038520 f   LIBCMTD:throw_bad_alloc.obj
 0001:00037550       ?what@exception@std@@UEBAPEBDXZ 0000000180038550 f i LIBCMTD:throw_bad_alloc.obj
 0001:00037590       ??1type_info@@UEAA@XZ      0000000180038590 f   LIBCMTD:std_type_info_static.obj
 0001:000375b0       ??_Gtype_info@@UEAAPEAXI@Z 00000001800385b0 f i LIBCMTD:std_type_info_static.obj
 0001:000375b0       ??_Etype_info@@UEAAPEAXI@Z 00000001800385b0 f i LIBCMTD:std_type_info_static.obj
 0001:000375ec       ??$?2PEAUHINSTANCE__@@@Wrapper@?$CSimpleArray@PEAUHINSTANCE__@@V?$CSimpleArrayEqualHelper@PEAUHINSTANCE__@@@ATL@@@ATL@@SAPEAX_KPEAPEAUHINSTANCE__@@@Z 00000001800385ec f i atls:atlbase.obj
 0001:000375f0       ??0?$CSimpleArray@PEAUHINSTANCE__@@V?$CSimpleArrayEqualHelper@PEAUHINSTANCE__@@@ATL@@@ATL@@QEAA@XZ 00000001800385f0 f i atls:atlbase.obj
 0001:00037600       ??0CAtlBaseModule@ATL@@QEAA@XZ 0000000180038600 f   atls:atlbase.obj
 0001:000376a8       ??0Wrapper@?$CSimpleArray@PEAUHINSTANCE__@@V?$CSimpleArrayEqualHelper@PEAUHINSTANCE__@@@ATL@@@ATL@@QEAA@AEBQEAUHINSTANCE__@@@Z 00000001800386a8 f i atls:atlbase.obj
 0001:000376b4       ??0_ATL_BASE_MODULE70@ATL@@QEAA@XZ 00000001800386b4 f i atls:atlbase.obj
 0001:000376e0       ??1?$CSimpleArray@PEAUHINSTANCE__@@V?$CSimpleArrayEqualHelper@PEAUHINSTANCE__@@@ATL@@@ATL@@QEAA@XZ 00000001800386e0 f i atls:atlbase.obj
 0001:00037708       ??1CAtlBaseModule@ATL@@QEAA@XZ 0000000180038708 f   atls:atlbase.obj
 0001:0003773c       ??1_ATL_BASE_MODULE70@ATL@@QEAA@XZ 000000018003873c f i atls:atlbase.obj
 0001:00037768       ??A?$CSimpleArray@PEAUHINSTANCE__@@V?$CSimpleArrayEqualHelper@PEAUHINSTANCE__@@@ATL@@@ATL@@QEAAAEAPEAUHINSTANCE__@@H@Z 0000000180038768 f i atls:atlbase.obj
 0001:00037794       ?Add@?$CSimpleArray@PEAUHINSTANCE__@@V?$CSimpleArrayEqualHelper@PEAUHINSTANCE__@@@ATL@@@ATL@@QEAAHAEBQEAUHINSTANCE__@@@Z 0000000180038794 f i atls:atlbase.obj
 0001:00037848       ?AddResourceInstance@CAtlBaseModule@ATL@@QEAA_NPEAUHINSTANCE__@@@Z 0000000180038848 f   atls:atlbase.obj
 0001:00037890       ?GetHInstanceAt@CAtlBaseModule@ATL@@QEAAPEAUHINSTANCE__@@H@Z 0000000180038890 f   atls:atlbase.obj
 0001:00037908       ?GetSize@?$CSimpleArray@PEAUHINSTANCE__@@V?$CSimpleArrayEqualHelper@PEAUHINSTANCE__@@@ATL@@@ATL@@QEBAHXZ 0000000180038908 f i atls:atlbase.obj
 0001:0003790c       ?InternalSetAtIndex@?$CSimpleArray@PEAUHINSTANCE__@@V?$CSimpleArrayEqualHelper@PEAUHINSTANCE__@@@ATL@@@ATL@@QEAAXHAEBQEAUHINSTANCE__@@@Z 000000018003890c f i atls:atlbase.obj
 0001:00037924       ?RemoveAll@?$CSimpleArray@PEAUHINSTANCE__@@V?$CSimpleArrayEqualHelper@PEAUHINSTANCE__@@@ATL@@@ATL@@QEAAXXZ 0000000180038924 f i atls:atlbase.obj
 0001:0003794c       ?RemoveAt@?$CSimpleArray@PEAUHINSTANCE__@@V?$CSimpleArrayEqualHelper@PEAUHINSTANCE__@@@ATL@@@ATL@@QEAAHH@Z 000000018003894c f i atls:atlbase.obj
 0001:000379f0       ?RemoveResourceInstance@CAtlBaseModule@ATL@@QEAA_NPEAUHINSTANCE__@@@Z 00000001800389f0 f   atls:atlbase.obj
 0001:00037a70       ?memmove_s@Checked@ATL@@YAXPEAX_KPEBX1@Z 0000000180038a70 f i atls:atlbase.obj
 0001:00037f18       ?GetCodeAddress@_stdcallthunk@ATL@@QEAAPEAXXZ 0000000180038f18 f i atls:atlthunk.obj
 0001:00037f44       ?Init@_stdcallthunk@ATL@@QEAAH_KPEAX@Z 0000000180038f44 f i atls:atlthunk.obj
 0001:00037f94       ?__AllocStdCallThunk@@YAPEAXXZ 0000000180038f94 f   atls:atlthunk.obj
 0001:00037f9c       ?__AllocStdCallThunk@ATL@@YAPEAXXZ 0000000180038f9c f   atls:atlthunk.obj
 0001:00037fa4       ?__AllocStdCallThunk_cmn@@YAPEAXXZ 0000000180038fa4 f   atls:atlthunk.obj
 0001:0003807c       ?__FreeStdCallThunk@@YAXPEAX@Z 000000018003907c f   atls:atlthunk.obj
 0001:0003809c       ?__FreeStdCallThunk@ATL@@YAXPEAX@Z 000000018003909c f   atls:atlthunk.obj
 0001:000380bc       ?__FreeStdCallThunk_cmn@@YAXPEAX@Z 00000001800390bc f   atls:atlthunk.obj
 0001:0003815c       AtlThunk_AllocateData      000000018003915c f   atls:atlthunk.obj
 0001:000381d8       AtlThunk_DataToCode        00000001800391d8 f   atls:atlthunk.obj
 0001:0003822c       AtlThunk_FreeData          000000018003922c f   atls:atlthunk.obj
 0001:0003828c       AtlThunk_InitData          000000018003928c f   atls:atlthunk.obj
 0001:00038350       memset_repmovs             0000000180039350 f   libvcruntimed:memset.obj
 0001:00038370       memset                     0000000180039370 f   libvcruntimed:memset.obj
 0001:00038500       ??$__crt_interlocked_exchange_pointer@$$A6AXXZP6AXXZ@@YAP6AXXZPEDS6AXXZQ6AXXZ@Z 0000000180039500 f i libvcruntimed:purevirt.obj
 0001:00038520       ??$__crt_interlocked_read_pointer@$$A6AXXZ@@YAP6AXXZPEDS6AXXZ@Z 0000000180039520 f i libvcruntimed:purevirt.obj
 0001:00038540       ?__crt_interlocked_read_64@@YA_JPED_J@Z 0000000180039540 f i libvcruntimed:purevirt.obj
 0001:00038560       _get_purecall_handler      0000000180039560 f   libvcruntimed:purevirt.obj
 0001:00038580       _purecall                  0000000180039580 f   libvcruntimed:purevirt.obj
 0001:000385c0       _set_purecall_handler      00000001800395c0 f   libvcruntimed:purevirt.obj
 0001:000385f0       memcmp                     00000001800395f0 f   libvcruntimed:memcmp.obj
 0001:000386d0       memcpy_repmovs             00000001800396d0 f   libvcruntimed:memcpy.obj
 0001:000386f0       memcpy                     00000001800396f0 f   libvcruntimed:memcpy.obj
 0001:000386f0       memmove                    00000001800396f0 f   libvcruntimed:memcpy.obj
 0001:00038ad0       wcsstr                     0000000180039ad0 f   libvcruntimed:wcsstr.obj
 0001:00039130       __vcrt_initialize          000000018003a130 f   libvcruntimed:initialization.obj
 0001:00039170       __vcrt_thread_attach       000000018003a170 f   libvcruntimed:initialization.obj
 0001:00039190       __vcrt_thread_detach       000000018003a190 f   libvcruntimed:initialization.obj
 0001:000391b0       __vcrt_uninitialize        000000018003a1b0 f   libvcruntimed:initialization.obj
 0001:000391d0       __vcrt_uninitialize_critical 000000018003a1d0 f   libvcruntimed:initialization.obj
 0001:000391f0       __C_specific_handler       000000018003a1f0 f   libvcruntimed:riscchandler.obj
 0001:00039660       ??$?0AEAViterator@TryBlockMap4@FH4@@AEAV012@$0A@@?$pair@Viterator@TryBlockMap4@FH4@@V123@@std@@QEAA@AEAViterator@TryBlockMap4@FH4@@0@Z 000000018003a660 f i libvcruntimed:risctrnsctrl.obj
 0001:000396c0       ??$?0AEAViterator@TryBlockMap@__FrameHandler3@@AEAV012@$0A@@?$pair@Viterator@TryBlockMap@__FrameHandler3@@V123@@std@@QEAA@AEAViterator@TryBlockMap@__FrameHandler3@@0@Z 000000018003a6c0 f i libvcruntimed:risctrnsctrl.obj
 0001:00039890       ??$_CallSETranslator@V__FrameHandler3@@@@YAHPEAUEHExceptionRecord@@PEA_KPEAU_CONTEXT@@PEAU_xDISPATCHER_CONTEXT@@PEBU_s_FuncInfo@@K1H@Z 000000018003a890 f i libvcruntimed:risctrnsctrl.obj
 0001:00039920       ??$_CallSETranslator@V__FrameHandler4@@@@YAHPEAUEHExceptionRecord@@PEA_KPEAU_CONTEXT@@PEAU_xDISPATCHER_CONTEXT@@PEAUFuncInfo4@FH4@@K1H@Z 000000018003a920 f i libvcruntimed:risctrnsctrl.obj
 0001:000399b0       ??$forward@AEAViterator@TryBlockMap4@FH4@@@std@@YAAEAViterator@TryBlockMap4@FH4@@AEAV123@@Z 000000018003a9b0 f i libvcruntimed:risctrnsctrl.obj
 0001:000399c0       ??$forward@AEAViterator@TryBlockMap@__FrameHandler3@@@std@@YAAEAViterator@TryBlockMap@__FrameHandler3@@AEAV123@@Z 000000018003a9c0 f i libvcruntimed:risctrnsctrl.obj
 0001:000399d0       ??0FuncInfo4@FH4@@QEAA@XZ  000000018003a9d0 f i libvcruntimed:risctrnsctrl.obj
 0001:00039a40       ??0FuncInfoHeader@FH4@@QEAA@XZ 000000018003aa40 f i libvcruntimed:risctrnsctrl.obj
 0001:00039a60       ??0iterator@TryBlockMap4@FH4@@QEAA@AEAV12@I@Z 000000018003aa60 f i libvcruntimed:risctrnsctrl.obj
 0001:00039a90       ??0iterator@TryBlockMap@__FrameHandler3@@QEAA@AEAV12@I@Z 000000018003aa90 f i libvcruntimed:risctrnsctrl.obj
 0001:00039ac0       ??4iterator@TryBlockMap4@FH4@@QEAAAEAV012@AEBV012@@Z 000000018003aac0 f i libvcruntimed:risctrnsctrl.obj
 0001:00039ae0       ??9iterator@TryBlockMap4@FH4@@QEBA_NAEBV012@@Z 000000018003aae0 f i libvcruntimed:risctrnsctrl.obj
 0001:00039b20       ??Diterator@TryBlockMap4@FH4@@QEAA?AUTryBlockMapEntry4@2@XZ 000000018003ab20 f i libvcruntimed:risctrnsctrl.obj
 0001:00039b50       ??Eiterator@TryBlockMap4@FH4@@QEAAAEAV012@XZ 000000018003ab50 f i libvcruntimed:risctrnsctrl.obj
 0001:00039b90       ?CatchTryBlock@__FrameHandler3@@SAPEBU_s_TryBlockMapEntry@@PEBU_s_FuncInfo@@H@Z 000000018003ab90 f   libvcruntimed:risctrnsctrl.obj
 0001:00039c20       ?DecompFuncInfo@FH4@@YA_JPEAEAEAUFuncInfo4@1@_KH@Z 000000018003ac20 f i libvcruntimed:risctrnsctrl.obj
 0001:00039c60       ?DecompFuncInfo@FH4@@YA_JPEAEAEAUFuncInfo4@1@_KH_N@Z 000000018003ac60 f i libvcruntimed:risctrnsctrl.obj
 0001:00039e30       ?DecompTryBlock@TryBlockMap4@FH4@@AEAAXXZ 000000018003ae30 f i libvcruntimed:risctrnsctrl.obj
 0001:00039eb0       ?ExecutionInCatch@__FrameHandler3@@SA_NPEAU_xDISPATCHER_CONTEXT@@PEBU_s_FuncInfo@@@Z 000000018003aeb0 f   libvcruntimed:risctrnsctrl.obj
 0001:00039f00       ?ExecutionInCatch@__FrameHandler4@@SA_NPEAU_xDISPATCHER_CONTEXT@@PEAUFuncInfo4@FH4@@@Z 000000018003af00 f   libvcruntimed:risctrnsctrl.obj
 0001:00039f20       ?FrameUnwindToEmptyState@__FrameHandler3@@SAXPEA_KPEAU_xDISPATCHER_CONTEXT@@PEBU_s_FuncInfo@@@Z 000000018003af20 f   libvcruntimed:risctrnsctrl.obj
 0001:00039fc0       ?FrameUnwindToEmptyState@__FrameHandler4@@SAXPEA_KPEAU_xDISPATCHER_CONTEXT@@PEAUFuncInfo4@FH4@@@Z 000000018003afc0 f   libvcruntimed:risctrnsctrl.obj
 0001:0003a010       ?GetEstablisherFrame@__FrameHandler3@@SAPEA_KPEA_KPEAU_xDISPATCHER_CONTEXT@@PEBU_s_FuncInfo@@0@Z 000000018003b010 f   libvcruntimed:risctrnsctrl.obj
 0001:0003a180       ?GetEstablisherFrame@__FrameHandler4@@SAPEA_KPEA_KPEAU_xDISPATCHER_CONTEXT@@PEAUFuncInfo4@FH4@@0@Z 000000018003b180 f   libvcruntimed:risctrnsctrl.obj
 0001:0003a1f0       ?GetRangeOfTrysToCheck@__FrameHandler3@@SA?AU?$pair@Viterator@TryBlockMap@__FrameHandler3@@V123@@std@@AEAVTryBlockMap@1@HPEAU_xDISPATCHER_CONTEXT@@PEBU_s_FuncInfo@@H@Z 000000018003b1f0 f   libvcruntimed:risctrnsctrl.obj
 0001:0003a430       ?GetRangeOfTrysToCheck@__FrameHandler4@@SA?AU?$pair@Viterator@TryBlockMap4@FH4@@V123@@std@@AEAVTryBlockMap4@FH4@@HPEAU_xDISPATCHER_CONTEXT@@PEAUFuncInfo4@5@H@Z 000000018003b430 f   libvcruntimed:risctrnsctrl.obj
 0001:0003a5e0       ?ReadInt@FH4@@YAHPEAPEAE@Z 000000018003b5e0 f i libvcruntimed:risctrnsctrl.obj
 0001:0003a620       ?ReadUnsigned@FH4@@YAIPEAPEAE@Z 000000018003b620 f i libvcruntimed:risctrnsctrl.obj
 0001:0003a6b0       ?UnwindNestedFrames@__FrameHandler3@@SAXPEA_KPEAUEHExceptionRecord@@PEAU_CONTEXT@@0PEAXPEBU_s_FuncInfo@@HHPEBU_s_HandlerType@@PEAU_xDISPATCHER_CONTEXT@@E@Z 000000018003b6b0 f   libvcruntimed:risctrnsctrl.obj
 0001:0003a820       ?UnwindNestedFrames@__FrameHandler4@@SAXPEA_KPEAUEHExceptionRecord@@PEAU_CONTEXT@@0PEAXPEAUFuncInfo4@FH4@@HHPEAUHandlerType4@5@PEAU_xDISPATCHER_CONTEXT@@E@Z 000000018003b820 f   libvcruntimed:risctrnsctrl.obj
 0001:0003a9f0       ?begin@TryBlockMap4@FH4@@QEAA?AViterator@12@XZ 000000018003b9f0 f i libvcruntimed:risctrnsctrl.obj
 0001:0003aa20       ?end@TryBlockMap4@FH4@@QEAA?AViterator@12@XZ 000000018003ba20 f i libvcruntimed:risctrnsctrl.obj
 0001:0003aa50       ?imageRelToByteBuffer@FH4@@YAPEAE_KH@Z 000000018003ba50 f i libvcruntimed:risctrnsctrl.obj
 0001:0003aa70       ?incrementToSentinel@iterator@TryBlockMap4@FH4@@QEAAXXZ 000000018003ba70 f i libvcruntimed:risctrnsctrl.obj
 0001:0003aa90       ?setBuffer@TryBlockMap4@FH4@@QEAAXViterator@12@@Z 000000018003ba90 f i libvcruntimed:risctrnsctrl.obj
 0001:0003ab00       _CreateFrameInfo           000000018003bb00 f   libvcruntimed:risctrnsctrl.obj
 0001:0003ab70       _FindAndUnlinkFrame        000000018003bb70 f   libvcruntimed:risctrnsctrl.obj
 0001:0003abf0       _GetImageBase              000000018003bbf0 f   libvcruntimed:risctrnsctrl.obj
 0001:0003ac10       _GetThrowImageBase         000000018003bc10 f   libvcruntimed:risctrnsctrl.obj
 0001:0003ac30       _SetImageBase              000000018003bc30 f   libvcruntimed:risctrnsctrl.obj
 0001:0003ac50       _SetThrowImageBase         000000018003bc50 f   libvcruntimed:risctrnsctrl.obj
 0001:0003ac70       __CxxFrameHandler          000000018003bc70 f   libvcruntimed:risctrnsctrl.obj
 0001:0003acb0       __CxxFrameHandler2         000000018003bcb0 f   libvcruntimed:risctrnsctrl.obj
 0001:0003acf0       __CxxFrameHandler3         000000018003bcf0 f   libvcruntimed:risctrnsctrl.obj
 0001:0003add0       __CxxFrameHandler4         000000018003bdd0 f   libvcruntimed:risctrnsctrl.obj
 0001:0003aee0       __C_specific_handler_noexcept 000000018003bee0 f   libvcruntimed:chandler_noexcept.obj
 0001:0003af70       __DestructExceptionObject  000000018003bf70 f   libvcruntimed:ehhelpers.obj
 0001:0003b070       ?_CallMemberFunction0@@YAXQEAX0@Z 000000018003c070 f i libvcruntimed:ehhelpers.obj
 0001:0003b140       ?raw_name@type_info@@QEBAPEBDXZ 000000018003c140 f i libvcruntimed:ehhelpers.obj
 0001:0003b150       _IsExceptionObjectToBeDestroyed 000000018003c150 f   libvcruntimed:ehhelpers.obj
 0001:0003b1a0       _SetWinRTOutOfMemoryExceptionCallback 000000018003c1a0 f   libvcruntimed:ehhelpers.obj
 0001:0003b1c0       __AdjustPointer            000000018003c1c0 f   libvcruntimed:ehhelpers.obj
 0001:0003b240       __FrameUnwindFilter        000000018003c240 f   libvcruntimed:ehhelpers.obj
 0001:0003b2f0       __GetPlatformExceptionInfo 000000018003c2f0 f   libvcruntimed:ehhelpers.obj
 0001:0003b3a0       __current_exception        000000018003c3a0 f   libvcruntimed:ehhelpers.obj
 0001:0003b3c0       __current_exception_context 000000018003c3c0 f   libvcruntimed:ehhelpers.obj
 0001:0003b3e0       __processing_throw         000000018003c3e0 f   libvcruntimed:ehhelpers.obj
 0001:0003b400       __std_terminate            000000018003c400 f   libvcruntimed:ehhelpers.obj
 0001:0003b410       _is_exception_typeof       000000018003c410 f   libvcruntimed:ehhelpers.obj
 0001:0003b5a0       ??$?RD@__crt_internal_free_policy@@QEBAXQEBD@Z 000000018003c5a0 f i libvcruntimed:std_type_info.obj
 0001:0003b5d0       ??$?RX@__crt_internal_free_policy@@QEBAXQEBX@Z 000000018003c5d0 f i libvcruntimed:std_type_info.obj
 0001:0003b600       ??$__crt_interlocked_compare_exchange_pointer@$$CBDPEAD$$T@@YAPEBDPEDSEBDQEAD$$T@Z 000000018003c600 f i libvcruntimed:std_type_info.obj
 0001:0003b640       ??$__crt_interlocked_read_pointer@$$CBD@@YAPEBDPEDSEBD@Z 000000018003c640 f i libvcruntimed:std_type_info.obj
 0001:0003b660       ??0?$__crt_unique_heap_ptr@DU__crt_internal_free_policy@@@@QEAA@QEAD@Z 000000018003c660 f i libvcruntimed:std_type_info.obj
 0001:0003b680       ??0?$__crt_unique_heap_ptr@XU__crt_internal_free_policy@@@@QEAA@QEAX@Z 000000018003c680 f i libvcruntimed:std_type_info.obj
 0001:0003b6a0       ??1?$__crt_unique_heap_ptr@DU__crt_internal_free_policy@@@@QEAA@XZ 000000018003c6a0 f i libvcruntimed:std_type_info.obj
 0001:0003b6c0       ??1?$__crt_unique_heap_ptr@XU__crt_internal_free_policy@@@@QEAA@XZ 000000018003c6c0 f i libvcruntimed:std_type_info.obj
 0001:0003b6e0       ??B?$__crt_unique_heap_ptr@DU__crt_internal_free_policy@@@@QEBA_NXZ 000000018003c6e0 f i libvcruntimed:std_type_info.obj
 0001:0003b700       ??B?$__crt_unique_heap_ptr@XU__crt_internal_free_policy@@@@QEBA_NXZ 000000018003c700 f i libvcruntimed:std_type_info.obj
 0001:0003b7a0       ?detach@?$__crt_unique_heap_ptr@XU__crt_internal_free_policy@@@@QEAAPEAXXZ 000000018003c7a0 f i libvcruntimed:std_type_info.obj
 0001:0003b7d0       ?get@?$__crt_unique_heap_ptr@DU__crt_internal_free_policy@@@@QEBAPEADXZ 000000018003c7d0 f i libvcruntimed:std_type_info.obj
 0001:0003b7e0       ?get@?$__crt_unique_heap_ptr@XU__crt_internal_free_policy@@@@QEBAPEAXXZ 000000018003c7e0 f i libvcruntimed:std_type_info.obj
 0001:0003b7f0       ?is_valid@?$__crt_unique_heap_ptr@DU__crt_internal_free_policy@@@@QEBA_NXZ 000000018003c7f0 f i libvcruntimed:std_type_info.obj
 0001:0003b820       ?is_valid@?$__crt_unique_heap_ptr@XU__crt_internal_free_policy@@@@QEBA_NXZ 000000018003c820 f i libvcruntimed:std_type_info.obj
 0001:0003b850       ?release@?$__crt_unique_heap_ptr@DU__crt_internal_free_policy@@@@QEAAXXZ 000000018003c850 f i libvcruntimed:std_type_info.obj
 0001:0003b880       ?release@?$__crt_unique_heap_ptr@XU__crt_internal_free_policy@@@@QEAAXXZ 000000018003c880 f i libvcruntimed:std_type_info.obj
 0001:0003b8b0       __std_type_info_compare    000000018003c8b0 f   libvcruntimed:std_type_info.obj
 0001:0003b8f0       __std_type_info_destroy_list 000000018003c8f0 f   libvcruntimed:std_type_info.obj
 0001:0003b950       __std_type_info_hash       000000018003c950 f   libvcruntimed:std_type_info.obj
 0001:0003ba00       __std_type_info_name       000000018003ca00 f   libvcruntimed:std_type_info.obj
 0001:0003bcb0       __vcrt_GetModuleFileNameW  000000018003ccb0 f   libvcruntimed:winapi_thunks.obj
 0001:0003bce0       __vcrt_GetModuleHandleW    000000018003cce0 f   libvcruntimed:winapi_thunks.obj
 0001:0003bd00       __vcrt_LoadLibraryExW      000000018003cd00 f   libvcruntimed:winapi_thunks.obj
 0001:0003bd30       ??$?RD@__crt_public_free_policy@@QEBAXQEBD@Z 000000018003cd30 f i libvcruntimed:std_exception.obj
 0001:0003bd50       ??0?$__crt_unique_heap_ptr@DU__crt_public_free_policy@@@@QEAA@QEAD@Z 000000018003cd50 f i libvcruntimed:std_exception.obj
 0001:0003bd70       ??1?$__crt_unique_heap_ptr@DU__crt_public_free_policy@@@@QEAA@XZ 000000018003cd70 f i libvcruntimed:std_exception.obj
 0001:0003bd90       ??B?$__crt_unique_heap_ptr@DU__crt_public_free_policy@@@@QEBA_NXZ 000000018003cd90 f i libvcruntimed:std_exception.obj
 0001:0003bdb0       ?detach@?$__crt_unique_heap_ptr@DU__crt_public_free_policy@@@@QEAAPEADXZ 000000018003cdb0 f i libvcruntimed:std_exception.obj
 0001:0003bde0       ?get@?$__crt_unique_heap_ptr@DU__crt_public_free_policy@@@@QEBAPEADXZ 000000018003cde0 f i libvcruntimed:std_exception.obj
 0001:0003bdf0       ?is_valid@?$__crt_unique_heap_ptr@DU__crt_public_free_policy@@@@QEBA_NXZ 000000018003cdf0 f i libvcruntimed:std_exception.obj
 0001:0003be20       ?release@?$__crt_unique_heap_ptr@DU__crt_public_free_policy@@@@QEAAXXZ 000000018003ce20 f i libvcruntimed:std_exception.obj
 0001:0003be50       __std_exception_copy       000000018003ce50 f   libvcruntimed:std_exception.obj
 0001:0003bf90       __std_exception_destroy    000000018003cf90 f   libvcruntimed:std_exception.obj
 0001:0003bfd0       _CxxThrowException         000000018003cfd0 f   libvcruntimed:throw.obj
 0001:0003c100       ??$?RU__vcrt_ptd@@@__crt_internal_free_policy@@QEBAXQEBU__vcrt_ptd@@@Z 000000018003d100 f i libvcruntimed:per_thread_data.obj
 0001:0003c130       ??0?$__crt_unique_heap_ptr@U__vcrt_ptd@@U__crt_internal_free_policy@@@@QEAA@QEAU__vcrt_ptd@@@Z 000000018003d130 f i libvcruntimed:per_thread_data.obj
 0001:0003c170       ??1?$__crt_unique_heap_ptr@U__vcrt_ptd@@U__crt_internal_free_policy@@@@QEAA@XZ 000000018003d170 f i libvcruntimed:per_thread_data.obj
 0001:0003c1b0       ??B?$__crt_unique_heap_ptr@U__vcrt_ptd@@U__crt_internal_free_policy@@@@QEBA_NXZ 000000018003d1b0 f i libvcruntimed:per_thread_data.obj
 0001:0003c1d0       ?detach@?$__crt_unique_heap_ptr@U__vcrt_ptd@@U__crt_internal_free_policy@@@@QEAAPEAU__vcrt_ptd@@XZ 000000018003d1d0 f i libvcruntimed:per_thread_data.obj
 0001:0003c200       ?get@?$__crt_unique_heap_ptr@U__vcrt_ptd@@U__crt_internal_free_policy@@@@QEBAPEAU__vcrt_ptd@@XZ 000000018003d200 f i libvcruntimed:per_thread_data.obj
 0001:0003c210       ?is_valid@?$__crt_unique_heap_ptr@U__vcrt_ptd@@U__crt_internal_free_policy@@@@QEBA_NXZ 000000018003d210 f i libvcruntimed:per_thread_data.obj
 0001:0003c240       ?release@?$__crt_unique_heap_ptr@U__vcrt_ptd@@U__crt_internal_free_policy@@@@QEAAXXZ 000000018003d240 f i libvcruntimed:per_thread_data.obj
 0001:0003c2b0       __vcrt_freefls             000000018003d2b0 f   libvcruntimed:per_thread_data.obj
 0001:0003c2f0       __vcrt_freeptd             000000018003d2f0 f   libvcruntimed:per_thread_data.obj
 0001:0003c350       __vcrt_getptd              000000018003d350 f   libvcruntimed:per_thread_data.obj
 0001:0003c380       __vcrt_getptd_noexit       000000018003d380 f   libvcruntimed:per_thread_data.obj
 0001:0003c520       __vcrt_getptd_noinit       000000018003d520 f   libvcruntimed:per_thread_data.obj
 0001:0003c580       __vcrt_initialize_ptd      000000018003d580 f   libvcruntimed:per_thread_data.obj
 0001:0003c5d0       __vcrt_uninitialize_ptd    000000018003d5d0 f   libvcruntimed:per_thread_data.obj
 0001:0003c600       __vcrt_initialize_locks    000000018003d600 f   libvcruntimed:locks.obj
 0001:0003c670       __vcrt_lock                000000018003d670 f   libvcruntimed:locks.obj
 0001:0003c6a0       __vcrt_uninitialize_locks  000000018003d6a0 f   libvcruntimed:locks.obj
 0001:0003c700       __vcrt_unlock              000000018003d700 f   libvcruntimed:locks.obj
 0001:0003c740       _NLG_Notify                000000018003d740 f   libvcruntimed:notify.obj
 0001:0003c760       __NLG_Dispatch2            000000018003d760 f   libvcruntimed:notify.obj
 0001:0003c770       __NLG_Return2              000000018003d770 f   libvcruntimed:notify.obj
 0001:0003c790       __except_validate_context_record 000000018003d790 f   libvcruntimed:jbcxrval.obj
 0001:0003c7f0       __except_validate_jump_buffer 000000018003d7f0 f   libvcruntimed:jbcxrval.obj
 0001:0003c810       __except_validate_jump_buffer_common 000000018003d810 f i libvcruntimed:jbcxrval.obj
 0001:0003c890       ?GetCurrentState@__FrameHandler3@@SAHPEA_KPEAU_xDISPATCHER_CONTEXT@@PEBU_s_FuncInfo@@@Z 000000018003d890 f   libvcruntimed:ehstate.obj
 0001:0003c8f0       ?GetUnwindTryBlock@__FrameHandler3@@SAHPEA_KPEAU_xDISPATCHER_CONTEXT@@PEBU_s_FuncInfo@@@Z 000000018003d8f0 f   libvcruntimed:ehstate.obj
 0001:0003c940       ?SetState@__FrameHandler3@@SAXPEA_KPEBU_s_FuncInfo@@H@Z 000000018003d940 f   libvcruntimed:ehstate.obj
 0001:0003c970       ?SetUnwindTryBlock@__FrameHandler3@@SAXPEA_KPEAU_xDISPATCHER_CONTEXT@@PEBU_s_FuncInfo@@H@Z 000000018003d970 f   libvcruntimed:ehstate.obj
 0001:0003c9e0       ?StateFromControlPc@__FrameHandler3@@SAHPEBU_s_FuncInfo@@PEAU_xDISPATCHER_CONTEXT@@@Z 000000018003d9e0 f   libvcruntimed:ehstate.obj
 0001:0003ca20       ?StateFromControlPc@__FrameHandler4@@SAHPEAUFuncInfo4@FH4@@PEAU_xDISPATCHER_CONTEXT@@@Z 000000018003da20 f   libvcruntimed:ehstate.obj
 0001:0003ca60       ?StateFromIp@__FrameHandler3@@SAHPEBU_s_FuncInfo@@PEAU_xDISPATCHER_CONTEXT@@_K@Z 000000018003da60 f   libvcruntimed:ehstate.obj
 0001:0003cb50       ?StateFromIp@__FrameHandler4@@SAHPEAUFuncInfo4@FH4@@PEAU_xDISPATCHER_CONTEXT@@_K@Z 000000018003db50 f   libvcruntimed:ehstate.obj
 0001:0003cc40       ?__FuncRelToRealOffset@@YA_KPEAU_xDISPATCHER_CONTEXT@@I@Z 000000018003dc40 f i libvcruntimed:ehstate.obj
 0001:0003cc70       ?__RVAtoRealOffset@@YA_KPEAU_xDISPATCHER_CONTEXT@@H@Z 000000018003dc70 f i libvcruntimed:ehstate.obj
 0001:0003eef0       ??$TypeMatchHelper@V__FrameHandler3@@@@YAHPEBU_s_HandlerType@@PEBU_s_CatchableType@@PEBU_s_ThrowInfo@@@Z 000000018003fef0 f i libvcruntimed:frame.obj
 0001:0003f0f0       ??$TypeMatchHelper@V__FrameHandler4@@@@YAHPEAUHandlerType4@FH4@@PEBU_s_CatchableType@@PEBU_s_ThrowInfo@@@Z 00000001800400f0 f i libvcruntimed:frame.obj
 0001:0003f300       ??$__InternalCxxFrameHandler@V__FrameHandler3@@@@YA?AW4_EXCEPTION_DISPOSITION@@PEAUEHExceptionRecord@@PEA_KPEAU_CONTEXT@@PEAU_xDISPATCHER_CONTEXT@@PEBU_s_FuncInfo@@H1E@Z 0000000180040300 f i libvcruntimed:frame.obj
 0001:0003f770       ??$__InternalCxxFrameHandler@V__FrameHandler4@@@@YA?AW4_EXCEPTION_DISPOSITION@@PEAUEHExceptionRecord@@PEA_KPEAU_CONTEXT@@PEAU_xDISPATCHER_CONTEXT@@PEAUFuncInfo4@FH4@@H1E@Z 0000000180040770 f i libvcruntimed:frame.obj
 0001:0003fc00       ??0HandlerMap4@FH4@@QEAA@PEBUTryBlockMapEntry4@1@_KH@Z 0000000180040c00 f i libvcruntimed:frame.obj
 0001:0003fcc0       ??0HandlerMap@__FrameHandler3@@QEAA@PEBU_s_TryBlockMapEntry@@_KI@Z 0000000180040cc0 f i libvcruntimed:frame.obj
 0001:0003fd10       ??0HandlerType4@FH4@@QEAA@XZ 0000000180040d10 f i libvcruntimed:frame.obj
 0001:0003fd30       ??0TryBlockMap4@FH4@@QEAA@PEBUFuncInfo4@1@_K@Z 0000000180040d30 f i libvcruntimed:frame.obj
 0001:0003fdc0       ??0TryBlockMap@__FrameHandler3@@QEAA@PEBU_s_FuncInfo@@_K@Z 0000000180040dc0 f i libvcruntimed:frame.obj
 0001:0003fdf0       ??0UWMap4@FH4@@QEAA@PEBUFuncInfo4@1@_K@Z 0000000180040df0 f i libvcruntimed:frame.obj
 0001:0003fe60       ??0bad_exception@std@@QEAA@AEBV01@@Z 0000000180040e60 f i libvcruntimed:frame.obj
 0001:0003fea0       ??0bad_exception@std@@QEAA@XZ 0000000180040ea0 f i libvcruntimed:frame.obj
 0001:0003fee0       ??0iterator@HandlerMap4@FH4@@QEAA@AEAV12@I@Z 0000000180040ee0 f i libvcruntimed:frame.obj
 0001:0003ff10       ??0iterator@HandlerMap@__FrameHandler3@@QEAA@AEAV12@I@Z 0000000180040f10 f i libvcruntimed:frame.obj
 0001:0003ff40       ??0iterator@UWMap4@FH4@@QEAA@AEAV12@PEAE@Z 0000000180040f40 f i libvcruntimed:frame.obj
 0001:0003ff70       ??1bad_exception@std@@UEAA@XZ 0000000180040f70 f i libvcruntimed:frame.obj
 0001:0003ff90       ??4iterator@UWMap4@FH4@@QEAAAEAV012@AEBV012@@Z 0000000180040f90 f i libvcruntimed:frame.obj
 0001:0003ffe0       ??8iterator@HandlerMap4@FH4@@QEBA_NAEBV012@@Z 0000000180040fe0 f i libvcruntimed:frame.obj
 0001:00040020       ??8iterator@HandlerMap@__FrameHandler3@@QEBA_NAEBV012@@Z 0000000180041020 f i libvcruntimed:frame.obj
 0001:00040060       ??8type_info@@QEBA_NAEBV0@@Z 0000000180041060 f i libvcruntimed:frame.obj
 0001:000400b0       ??9iterator@HandlerMap4@FH4@@QEBA_NAEBV012@@Z 00000001800410b0 f i libvcruntimed:frame.obj
 0001:000400f0       ??9iterator@HandlerMap@__FrameHandler3@@QEBA_NAEBV012@@Z 00000001800410f0 f i libvcruntimed:frame.obj
 0001:00040130       ??Diterator@HandlerMap4@FH4@@QEAA?AUHandlerType4@2@XZ 0000000180041130 f i libvcruntimed:frame.obj
 0001:00040160       ??Diterator@HandlerMap@__FrameHandler3@@QEAA?BU_s_HandlerType@@XZ 0000000180041160 f i libvcruntimed:frame.obj
 0001:000401a0       ??Diterator@TryBlockMap@__FrameHandler3@@QEAA?BU_s_TryBlockMapEntry@@XZ 00000001800411a0 f i libvcruntimed:frame.obj
 0001:000401f0       ??Diterator@UWMap4@FH4@@QEAA?AUUnwindMapEntry4@2@XZ 00000001800411f0 f i libvcruntimed:frame.obj
 0001:00040270       ??Eiterator@HandlerMap4@FH4@@QEAAAEAV012@XZ 0000000180041270 f i libvcruntimed:frame.obj
 0001:000402b0       ??Eiterator@HandlerMap@__FrameHandler3@@QEAAAEAV012@XZ 00000001800412b0 f i libvcruntimed:frame.obj
 0001:000402d0       ??Eiterator@TryBlockMap@__FrameHandler3@@QEAAAEAV012@XZ 00000001800412d0 f i libvcruntimed:frame.obj
 0001:000402f0       ??Eiterator@UWMap4@FH4@@QEAAAEAV012@XZ 00000001800412f0 f i libvcruntimed:frame.obj
 0001:00040330       ??Giterator@UWMap4@FH4@@QEBA_JAEBV012@@Z 0000000180041330 f i libvcruntimed:frame.obj
 0001:00040350       ??Miterator@TryBlockMap4@FH4@@QEBA_NAEBV012@@Z 0000000180041350 f i libvcruntimed:frame.obj
 0001:00040390       ??Miterator@TryBlockMap@__FrameHandler3@@QEBA_NAEBV012@@Z 0000000180041390 f i libvcruntimed:frame.obj
 0001:000403d0       ??Oiterator@UWMap4@FH4@@QEBA_NAEBV012@@Z 00000001800413d0 f i libvcruntimed:frame.obj
 0001:00040410       ??Piterator@UWMap4@FH4@@QEBA_NAEBV012@@Z 0000000180041410 f i libvcruntimed:frame.obj
 0001:00040450       ??_Gbad_exception@std@@UEAAPEAXI@Z 0000000180041450 f i libvcruntimed:frame.obj
 0001:00040450       ??_Ebad_exception@std@@UEAAPEAXI@Z 0000000180041450 f i libvcruntimed:frame.obj
 0001:00040490       ?BuildCatchObject@__FrameHandler3@@SAXPEAUEHExceptionRecord@@PEAXPEBU_s_HandlerType@@PEBU_s_CatchableType@@@Z 0000000180041490 f   libvcruntimed:frame.obj
 0001:000404d0       ?BuildCatchObject@__FrameHandler4@@SAXPEAUEHExceptionRecord@@PEAXPEAUHandlerType4@FH4@@PEBU_s_CatchableType@@@Z 00000001800414d0 f   libvcruntimed:frame.obj
 0001:00040510       ?BuildCatchObjectHelper@__FrameHandler3@@SAHPEAUEHExceptionRecord@@PEAXPEBU_s_HandlerType@@PEBU_s_CatchableType@@@Z 0000000180041510 f   libvcruntimed:frame.obj
 0001:00040550       ?BuildCatchObjectHelper@__FrameHandler4@@SAHPEAUEHExceptionRecord@@PEAXPEAUHandlerType4@FH4@@PEBU_s_CatchableType@@@Z 0000000180041550 f   libvcruntimed:frame.obj
 0001:00040590       ?CxxCallCatchBlock@__FrameHandler3@@SAPEAXPEAU_EXCEPTION_RECORD@@@Z 0000000180041590 f   libvcruntimed:frame.obj
 0001:000407f0       ?CxxCallCatchBlock@__FrameHandler4@@SAPEAXPEAU_EXCEPTION_RECORD@@@Z 00000001800417f0 f   libvcruntimed:frame.obj
 0001:00040b20       ?DecompHandler@HandlerMap4@FH4@@AEAAXXZ 0000000180041b20 f i libvcruntimed:frame.obj
 0001:00040ef0       ?FrameUnwindToState@__FrameHandler3@@SAXPEA_KPEAU_xDISPATCHER_CONTEXT@@PEBU_s_FuncInfo@@H@Z 0000000180041ef0 f   libvcruntimed:frame.obj
 0001:00041140       ?FrameUnwindToState@__FrameHandler4@@SAXPEA_KPEAU_xDISPATCHER_CONTEXT@@PEAUFuncInfo4@FH4@@H@Z 0000000180042140 f   libvcruntimed:frame.obj
 0001:00041450       ?GetHandlerSearchState@__FrameHandler3@@SAHPEA_KPEAU_xDISPATCHER_CONTEXT@@PEBU_s_FuncInfo@@@Z 0000000180042450 f i libvcruntimed:frame.obj
 0001:00041500       ?GetHandlerSearchState@__FrameHandler4@@SAHPEA_KPEAU_xDISPATCHER_CONTEXT@@PEAUFuncInfo4@FH4@@@Z 0000000180042500 f i libvcruntimed:frame.obj
 0001:00041580       ?GetMaxState@__FrameHandler3@@SAHPEAU_xDISPATCHER_CONTEXT@@PEBU_s_FuncInfo@@@Z 0000000180042580 f i libvcruntimed:frame.obj
 0001:000415a0       ?GetMaxState@__FrameHandler4@@SAHPEAU_xDISPATCHER_CONTEXT@@PEAUFuncInfo4@FH4@@@Z 00000001800425a0 f i libvcruntimed:frame.obj
 0001:000417d0       ?ReadEntry@UWMap4@FH4@@AEAAXPEAPEAE@Z 00000001800427d0 f i libvcruntimed:frame.obj
 0001:00041880       ?TypeMatch@__FrameHandler3@@SAHPEBU_s_HandlerType@@PEBU_s_CatchableType@@PEBU_s_ThrowInfo@@@Z 0000000180042880 f   libvcruntimed:frame.obj
 0001:000418b0       ?TypeMatch@__FrameHandler4@@SAHPEAUHandlerType4@FH4@@PEBU_s_CatchableType@@PEBU_s_ThrowInfo@@@Z 00000001800428b0 f   libvcruntimed:frame.obj
 0001:000418e0       ?WalkBack@UWMap4@FH4@@AEAAXPEAPEAE@Z 00000001800428e0 f i libvcruntimed:frame.obj
 0001:00041930       ?WalkBack@iterator@UWMap4@FH4@@QEAAXXZ 0000000180042930 f i libvcruntimed:frame.obj
 0001:00041970       ?WalkForward@UWMap4@FH4@@AEAAXPEAPEAE@Z 0000000180042970 f i libvcruntimed:frame.obj
 0001:000419a0       ?_CallMemberFunction1@@YAXQEAX00@Z 00000001800429a0 f i libvcruntimed:frame.obj
 0001:000419e0       ?_CallMemberFunction2@@YAXQEAX00H@Z 00000001800429e0 f i libvcruntimed:frame.obj
 0001:00041a70       ?begin@HandlerMap4@FH4@@QEAA?AViterator@12@XZ 0000000180042a70 f i libvcruntimed:frame.obj
 0001:00041aa0       ?begin@HandlerMap@__FrameHandler3@@QEAA?AViterator@12@XZ 0000000180042aa0 f i libvcruntimed:frame.obj
 0001:00041ad0       ?begin@UWMap4@FH4@@QEAA?AViterator@12@XZ 0000000180042ad0 f i libvcruntimed:frame.obj
 0001:00041b00       ?end@HandlerMap4@FH4@@QEAA?AViterator@12@XZ 0000000180042b00 f i libvcruntimed:frame.obj
 0001:00041b30       ?end@HandlerMap@__FrameHandler3@@QEAA?AViterator@12@XZ 0000000180042b30 f i libvcruntimed:frame.obj
 0001:00041b60       ?getESTypes@__FrameHandler3@@SAPEBU_s_ESTypeList@@PEBU_s_FuncInfo@@@Z 0000000180042b60 f i libvcruntimed:frame.obj
 0001:00041ba0       ?getESTypes@__FrameHandler4@@SAPEBU_s_ESTypeList@@PEAUFuncInfo4@FH4@@@Z 0000000180042ba0 f i libvcruntimed:frame.obj
 0001:00041bb0       ?getLastEntry@HandlerMap4@FH4@@QEAAPEAUHandlerType4@2@XZ 0000000180042bb0 f i libvcruntimed:frame.obj
 0001:00041bf0       ?getLastEntry@HandlerMap@__FrameHandler3@@QEAAPEBU_s_HandlerType@@XZ 0000000180042bf0 f i libvcruntimed:frame.obj
 0001:00041c10       ?getMagicNum@__FrameHandler3@@SAIPEBU_s_FuncInfo@@@Z 0000000180042c10 f i libvcruntimed:frame.obj
 0001:00041c30       ?getMagicNum@__FrameHandler4@@SAIPEAUFuncInfo4@FH4@@@Z 0000000180042c30 f i libvcruntimed:frame.obj
 0001:00041c40       ?getNumTryBlocks@TryBlockMap4@FH4@@QEAAIXZ 0000000180042c40 f i libvcruntimed:frame.obj
 0001:00041c50       ?getNumTryBlocks@TryBlockMap@__FrameHandler3@@QEAAIXZ 0000000180042c50 f i libvcruntimed:frame.obj
 0001:00041c70       ?getStartStop@UWMap4@FH4@@QEAAXHHAEAViterator@12@0@Z 0000000180042c70 f i libvcruntimed:frame.obj
 0001:00041d90       ?getStateFromIterators@UWMap4@FH4@@SAHAEBViterator@12@H0H0@Z 0000000180042d90 f i libvcruntimed:frame.obj
 0001:00041ed0       ?isEHs@__FrameHandler3@@SA_NPEBU_s_FuncInfo@@@Z 0000000180042ed0 f i libvcruntimed:frame.obj
 0001:00041f10       ?isEHs@__FrameHandler4@@SA_NPEAUFuncInfo4@FH4@@@Z 0000000180042f10 f i libvcruntimed:frame.obj
 0001:00041f30       ?isNoExcept@__FrameHandler3@@SA_NPEBU_s_FuncInfo@@@Z 0000000180042f30 f i libvcruntimed:frame.obj
 0001:00041f70       ?isNoExcept@__FrameHandler4@@SA_NPEAUFuncInfo4@FH4@@@Z 0000000180042f70 f i libvcruntimed:frame.obj
 0001:00041f90       ?reset@HandlerType4@FH4@@QEAAXXZ 0000000180042f90 f i libvcruntimed:frame.obj
 0001:00041ff0       ?resetBuffer@HandlerMap4@FH4@@QEAAXXZ 0000000180042ff0 f i libvcruntimed:frame.obj
 0001:00042010       ?setBuffer@HandlerMap4@FH4@@QEAAXI@Z 0000000180043010 f i libvcruntimed:frame.obj
 0001:00042070       __BuildCatchObject         0000000180043070 f   libvcruntimed:frame.obj
 0001:000420b0       __BuildCatchObjectHelper   00000001800430b0 f   libvcruntimed:frame.obj
 0001:000420f0       __TypeMatch                00000001800430f0 f   libvcruntimed:frame.obj
 0001:00042120       __vcrt_EncodePointer       0000000180043120 f i libvcruntimed:frame.obj
 0001:00042140       ??$?0$00@DName@@QEAA@PEBDU?$StringLifeSelector@$00@@@Z 0000000180043140 f i libvcruntimed:undname.obj
 0001:000421b0       ??$?0$00@pcharNode@@QEAA@PEBDHU?$StringLifeSelector@$00@@@Z 00000001800431b0 f i libvcruntimed:undname.obj
 0001:00042210       ??$?0$01@DName@@QEAA@PEBDU?$StringLifeSelector@$01@@@Z 0000000180043210 f i libvcruntimed:undname.obj
 0001:00042280       ??$?0$01@pcharNode@@QEAA@PEBDHU?$StringLifeSelector@$01@@@Z 0000000180043280 f i libvcruntimed:undname.obj
 0001:00042330       ??$?0$0A@@DName@@QEAA@PEBDU?$StringLifeSelector@$0A@@@@Z 0000000180043330 f i libvcruntimed:undname.obj
 0001:000423a0       ??$?0$0A@@pcharNode@@QEAA@PEBDHU?$StringLifeSelector@$0A@@@@Z 00000001800433a0 f i libvcruntimed:undname.obj
 0001:00042450       ??$?0_K$0A@@?$optional@_K@std@@QEAA@$$QEA_K@Z 0000000180043450 f i libvcruntimed:undname.obj
 0001:000424a0       ??$?0_K@?$_Optional_construct_base@_K@std@@QEAA@Uin_place_t@1@$$QEA_K@Z 00000001800434a0 f i libvcruntimed:undname.obj
 0001:000424d0       ??$?0_K@?$_Optional_destruct_base@_K$00@std@@QEAA@Uin_place_t@1@$$QEA_K@Z 00000001800434d0 f i libvcruntimed:undname.obj
 0001:00042510       ??$append@VDNameNode@@@DName@@AEAAXPEBVDNameNode@@@Z 0000000180043510 f i libvcruntimed:undname.obj
 0001:000425c0       ??$append@VDNameStatusNode@@@DName@@AEAAXPEBVDNameStatusNode@@@Z 00000001800435c0 f i libvcruntimed:undname.obj
 0001:00042670       ??$append@VcharNode@@@DName@@AEAAXPEBVcharNode@@@Z 0000000180043670 f i libvcruntimed:undname.obj
 0001:00042720       ??$append@VpDNameNode@@@DName@@AEAAXPEBVpDNameNode@@@Z 0000000180043720 f i libvcruntimed:undname.obj
 0001:000427d0       ??$append@VpcharNode@@@DName@@AEAAXPEBVpcharNode@@@Z 00000001800437d0 f i libvcruntimed:undname.obj
 0001:00042880       ??$doPchar@$00@DName@@AEAAXPEBDH@Z 0000000180043880 f i libvcruntimed:undname.obj
 0001:000429e0       ??$doPchar@$01@DName@@AEAAXPEBDH@Z 00000001800439e0 f i libvcruntimed:undname.obj
 0001:00042b40       ??$doPchar@$0A@@DName@@AEAAXPEBDH@Z 0000000180043b40 f i libvcruntimed:undname.obj
 0001:00042ca0       ??$forward@_K@std@@YA$$QEA_KAEA_K@Z 0000000180043ca0 f i libvcruntimed:undname.obj
 0001:00042cb0       ??$size@D$04@std@@YA_KAEAY04$$CBD@Z 0000000180043cb0 f i libvcruntimed:undname.obj
 0001:00042cc0       ??$size@D$0EB@@std@@YA_KAEAY0EB@$$CBD@Z 0000000180043cc0 f i libvcruntimed:undname.obj
 0001:00042cd0       ??0?$_Optional_construct_base@_K@std@@QEAA@XZ 0000000180043cd0 f i libvcruntimed:undname.obj
 0001:00042cf0       ??0?$_Optional_destruct_base@_K$00@std@@QEAA@XZ 0000000180043cf0 f i libvcruntimed:undname.obj
 0001:00042d20       ??0?$optional@_K@std@@QEAA@XZ 0000000180043d20 f i libvcruntimed:undname.obj
 0001:00042d40       ??0Block@_HeapManager@@QEAA@XZ 0000000180043d40 f i libvcruntimed:undname.obj
 0001:00042d60       ??0DName@@QEAA@AEAPEBDD@Z  0000000180043d60 f   libvcruntimed:undname.obj
 0001:00042f30       ??0DName@@QEAA@AEBUStringLiteral@@@Z 0000000180043f30 f   libvcruntimed:undname.obj
 0001:00042f90       ??0DName@@QEAA@AEBV0@@Z    0000000180043f90 f i libvcruntimed:undname.obj
 0001:00042fc0       ??0DName@@QEAA@D@Z         0000000180043fc0 f   libvcruntimed:undname.obj
 0001:00043000       ??0DName@@QEAA@PEAV0@@Z    0000000180044000 f   libvcruntimed:undname.obj
 0001:000430e0       ??0DName@@QEAA@W4DNameStatus@@@Z 00000001800440e0 f   libvcruntimed:undname.obj
 0001:00043190       ??0DName@@QEAA@XZ          0000000180044190 f i libvcruntimed:undname.obj
 0001:000431c0       ??0DName@@QEAA@_J@Z        00000001800441c0 f   libvcruntimed:undname.obj
 0001:000432d0       ??0DName@@QEAA@_K@Z        00000001800442d0 f   libvcruntimed:undname.obj
 0001:000433a0       ??0DNameNode@@IEAA@XZ      00000001800443a0 f i libvcruntimed:undname.obj
 0001:000433c0       ??0Replicator@@QEAA@XZ     00000001800443c0 f i libvcruntimed:undname.obj
 0001:00043400       ??0UnDecorator@@QEAA@PEBDP6APEADJ@ZK@Z 0000000180044400 f i libvcruntimed:undname.obj
 0001:000434b0       ??0_Nontrivial_dummy_type@std@@QEAA@XZ 00000001800444b0 f i libvcruntimed:undname.obj
 0001:000434c0       ??0charNode@@QEAA@D@Z      00000001800444c0 f i libvcruntimed:undname.obj
 0001:00043500       ??0pDNameNode@@QEAA@PEAVDName@@@Z 0000000180044500 f   libvcruntimed:undname.obj
 0001:00043580       ??0pairNode@@QEAA@PEBVDNameNode@@0@Z 0000000180044580 f i libvcruntimed:undname.obj
 0001:00043600       ??2@YAPEAX_KAEAV_HeapManager@@H@Z 0000000180044600 f   libvcruntimed:undname.obj
 0001:00043660       ??4DName@@QEAAAEAV0@AEBUStringLiteral@@@Z 0000000180044660 f   libvcruntimed:undname.obj
 0001:000436b0       ??4DName@@QEAAAEAV0@AEBV0@@Z 00000001800446b0 f   libvcruntimed:undname.obj
 0001:000436e0       ??4DName@@QEAAAEAV0@D@Z    00000001800446e0 f i libvcruntimed:undname.obj
 0001:00043720       ??4DName@@QEAAAEAV0@PEAV0@@Z 0000000180044720 f   libvcruntimed:undname.obj
 0001:000437f0       ??4DName@@QEAAAEAV0@W4DNameStatus@@@Z 00000001800447f0 f   libvcruntimed:undname.obj
 0001:00043880       ??AReplicator@@QEBA?AVDName@@H@Z 0000000180044880 f   libvcruntimed:undname.obj
 0001:00043910       ??B?$optional@_K@std@@QEBA_NXZ 0000000180044910 f i libvcruntimed:undname.obj
 0001:00043920       ??D?$optional@_K@std@@QEGAAAEA_KXZ 0000000180044920 f i libvcruntimed:undname.obj
 0001:00043930       ??H@YA?AVDName@@AEBUStringLiteral@@AEBV0@@Z 0000000180044930 f i libvcruntimed:undname.obj
 0001:00043980       ??H@YA?AVDName@@DAEBV0@@Z  0000000180044980 f i libvcruntimed:undname.obj
 0001:000439d0       ??H@YA?AVDName@@W4DNameStatus@@AEBV0@@Z 00000001800449d0 f i libvcruntimed:undname.obj
 0001:00043a20       ??HDName@@QEBA?AV0@AEBUStringLiteral@@@Z 0000000180044a20 f   libvcruntimed:undname.obj
 0001:00043a70       ??HDName@@QEBA?AV0@AEBV0@@Z 0000000180044a70 f   libvcruntimed:undname.obj
 0001:00043ac0       ??HDName@@QEBA?AV0@D@Z     0000000180044ac0 f   libvcruntimed:undname.obj
 0001:00043b10       ??HDName@@QEBA?AV0@PEAV0@@Z 0000000180044b10 f   libvcruntimed:undname.obj
 0001:00043b60       ??HDName@@QEBA?AV0@W4DNameStatus@@@Z 0000000180044b60 f   libvcruntimed:undname.obj
 0001:00043bb0       ??HStringLiteral@@QEBA?AU0@H@Z 0000000180044bb0 f i libvcruntimed:undname.obj
 0001:00043bf0       ??YDName@@QEAAAEAV0@AEBUStringLiteral@@@Z 0000000180044bf0 f   libvcruntimed:undname.obj
 0001:00043cc0       ??YDName@@QEAAAEAV0@AEBV0@@Z 0000000180044cc0 f   libvcruntimed:undname.obj
 0001:00043d80       ??YDName@@QEAAAEAV0@D@Z    0000000180044d80 f   libvcruntimed:undname.obj
 0001:00043e20       ??YDName@@QEAAAEAV0@PEAV0@@Z 0000000180044e20 f   libvcruntimed:undname.obj
 0001:00043f00       ??YDName@@QEAAAEAV0@W4DNameStatus@@@Z 0000000180044f00 f   libvcruntimed:undname.obj
 0001:00043f70       ??YReplicator@@QEAAAEAV0@AEBVDName@@@Z 0000000180044f70 f   libvcruntimed:undname.obj
 0001:00044030       ??_5DName@@QEAAAEAV0@AEBV0@@Z 0000000180045030 f   libvcruntimed:undname.obj
 0001:000440a0       ??__K_l@@YA?AUStringLiteral@@PEBD_K@Z 00000001800450a0 f i libvcruntimed:undname.obj
 0001:000440f0       ?Constructor@_HeapManager@@QEAAXP6APEAX_K@ZP6AXPEAX@Z@Z 00000001800450f0 f i libvcruntimed:undname.obj
 0001:00044150       ?Destructor@_HeapManager@@QEAAXXZ 0000000180045150 f i libvcruntimed:undname.obj
 0001:000441f0       ?UScore@UnDecorator@@SA?AUStringLiteral@@W4Tokens@@@Z 00000001800451f0 f   libvcruntimed:undname.obj
 0001:00044280       ?composeDeclaration@UnDecorator@@CA?AVDName@@AEBV2@@Z 0000000180045280 f i libvcruntimed:undname.obj
 0001:00046780       ?dbGetString@DName@@QEBAPEADXZ 0000000180047780 f   libvcruntimed:undname.obj
 0001:000467b0       ?doAccessSpecifiers@UnDecorator@@SAHXZ 00000001800477b0 f i libvcruntimed:undname.obj
 0001:000467e0       ?doAllocationLanguage@UnDecorator@@SAHXZ 00000001800477e0 f i libvcruntimed:undname.obj
 0001:00046810       ?doAllocationModel@UnDecorator@@SAHXZ 0000000180047810 f i libvcruntimed:undname.obj
 0001:00046840       ?doEcsu@UnDecorator@@SAHXZ 0000000180047840 f i libvcruntimed:undname.obj
 0001:00046870       ?doEllipsis@UnDecorator@@SAHXZ 0000000180047870 f i libvcruntimed:undname.obj
 0001:000468a0       ?doFunctionReturns@UnDecorator@@SAHXZ 00000001800478a0 f i libvcruntimed:undname.obj
 0001:000468d0       ?doMSKeywords@UnDecorator@@SAHXZ 00000001800478d0 f i libvcruntimed:undname.obj
 0001:00046900       ?doMemberTypes@UnDecorator@@SAHXZ 0000000180047900 f i libvcruntimed:undname.obj
 0001:00046930       ?doNameOnly@UnDecorator@@SAHXZ 0000000180047930 f i libvcruntimed:undname.obj
 0001:00046940       ?doNoIdentCharCheck@UnDecorator@@SAHXZ 0000000180047940 f i libvcruntimed:undname.obj
 0001:00046950       ?doPchar@DName@@AEAAXD@Z   0000000180047950 f   libvcruntimed:undname.obj
 0001:000469e0       ?doPtr64@UnDecorator@@SAHXZ 00000001800479e0 f i libvcruntimed:undname.obj
 0001:00046a10       ?doRestrictionSpec@UnDecorator@@SAHXZ 0000000180047a10 f i libvcruntimed:undname.obj
 0001:00046a40       ?doThisTypes@UnDecorator@@SAHXZ 0000000180047a40 f i libvcruntimed:undname.obj
 0001:00046a70       ?doThrowTypes@UnDecorator@@SAHXZ 0000000180047a70 f i libvcruntimed:undname.obj
 0001:00046aa0       ?doTypeOnly@UnDecorator@@SAHXZ 0000000180047aa0 f i libvcruntimed:undname.obj
 0001:00046ab0       ?doUnderScore@UnDecorator@@SAHXZ 0000000180047ab0 f i libvcruntimed:undname.obj
 0001:00046ae0       ?getArgumentList@UnDecorator@@CA?AVDName@@XZ 0000000180047ae0 f   libvcruntimed:undname.obj
 0001:00046c80       ?getArgumentTypes@UnDecorator@@CA?AVDName@@XZ 0000000180047c80 f   libvcruntimed:undname.obj
 0001:00046fe0       ?getArrayObject@UnDecorator@@CA?AVDName@@XZ 0000000180047fe0 f   libvcruntimed:undname.obj
 0001:00047100       ?getArrayType@UnDecorator@@CA?AVDName@@AEBV2@@Z 0000000180048100 f i libvcruntimed:undname.obj
 0001:000474c0       ?getBasedType@UnDecorator@@CA?AVDName@@XZ 00000001800484c0 f   libvcruntimed:undname.obj
 0001:00047630       ?getBasicDataType@UnDecorator@@CA?AVDName@@AEBV2@@Z 0000000180048630 f   libvcruntimed:undname.obj
 0001:00048300       ?getCHPEName@UnDecorator@@QEAAPEADPEADH@Z 0000000180049300 f i libvcruntimed:undname.obj
 0001:000484d0       ?getCallIndex@UnDecorator@@CA?AVDName@@XZ 00000001800494d0 f i libvcruntimed:undname.obj
 0001:000484f0       ?getCallingConvention@UnDecorator@@CA?AVDName@@XZ 00000001800494f0 f   libvcruntimed:undname.obj
 0001:00048890       ?getDataIndirectType@UnDecorator@@CA?AVDName@@AEBV2@W4IndirectionKind@@0H@Z 0000000180049890 f   libvcruntimed:undname.obj
 0001:00049530       ?getDataIndirectType@UnDecorator@@CA?AVDName@@XZ 000000018004a530 f i libvcruntimed:undname.obj
 0001:00049580       ?getDataType@UnDecorator@@CA?AVDName@@PEAV2@@Z 000000018004a580 f   libvcruntimed:undname.obj
 0001:00049760       ?getDecoratedName@UnDecorator@@CA?AVDName@@XZ 000000018004a760 f   libvcruntimed:undname.obj
 0001:00049c50       ?getDimension@UnDecorator@@CA?AVDName@@_N@Z 000000018004ac50 f   libvcruntimed:undname.obj
 0001:00049f60       ?getDispatchTarget@UnDecorator@@CA?AVDName@@XZ 000000018004af60 f   libvcruntimed:undname.obj
 0001:0004a030       ?getDisplacement@UnDecorator@@CA?AVDName@@XZ 000000018004b030 f i libvcruntimed:undname.obj
 0001:0004a050       ?getECSUDataType@UnDecorator@@CA?AVDName@@XZ 000000018004b050 f   libvcruntimed:undname.obj
 0001:0004a3e0       ?getECSUName@UnDecorator@@CA?AVDName@@XZ 000000018004b3e0 f i libvcruntimed:undname.obj
 0001:0004a400       ?getEnumType@UnDecorator@@CA?AVDName@@XZ 000000018004b400 f i libvcruntimed:undname.obj
 0001:0004a690       ?getExtendedDataIndirectType@UnDecorator@@CA?AVDName@@AEAW4IndirectionKind@@AEA_NH@Z 000000018004b690 f   libvcruntimed:undname.obj
 0001:0004a9b0       ?getExternalDataType@UnDecorator@@CA?AVDName@@AEBV2@@Z 000000018004b9b0 f i libvcruntimed:undname.obj
 0001:0004aa90       ?getFloatingPoint@UnDecorator@@CA?AVDName@@H@Z 000000018004ba90 f   libvcruntimed:undname.obj
 0001:0004ad00       ?getFunctionIndirectType@UnDecorator@@CA?AVDName@@AEBV2@@Z 000000018004bd00 f   libvcruntimed:undname.obj
 0001:0004b330       ?getGuardNumber@UnDecorator@@CA?AVDName@@XZ 000000018004c330 f i libvcruntimed:undname.obj
 0001:0004b350       ?getLastChar@DName@@QEBADXZ 000000018004c350 f i libvcruntimed:undname.obj
 0001:0004b3a0       ?getLastChar@DNameStatusNode@@UEBADXZ 000000018004c3a0 f i libvcruntimed:undname.obj
 0001:0004b3e0       ?getLastChar@charNode@@UEBADXZ 000000018004c3e0 f i libvcruntimed:undname.obj
 0001:0004b3f0       ?getLastChar@pDNameNode@@UEBADXZ 000000018004c3f0 f i libvcruntimed:undname.obj
 0001:0004b430       ?getLastChar@pairNode@@UEBADXZ 000000018004c430 f i libvcruntimed:undname.obj
 0001:0004b4b0       ?getLastChar@pcharNode@@UEBADXZ 000000018004c4b0 f i libvcruntimed:undname.obj
 0001:0004b4f0       ?getLexicalFrame@UnDecorator@@CA?AVDName@@XZ 000000018004c4f0 f i libvcruntimed:undname.obj
 0001:0004b540       ?getMemoryWithBuffer@_HeapManager@@QEAAPEAX_K@Z 000000018004c540 f   libvcruntimed:undname.obj
 0001:0004b690       ?getMemoryWithoutBuffer@_HeapManager@@QEAAPEAX_K@Z 000000018004c690 f   libvcruntimed:undname.obj
 0001:0004b6e0       ?getNoexcept@UnDecorator@@CA?AVDName@@XZ 000000018004c6e0 f   libvcruntimed:undname.obj
 0001:0004b790       ?getNumberOfDimensions@UnDecorator@@CAHXZ 000000018004c790 f   libvcruntimed:undname.obj
 0001:0004b8b0       ?getOperatorName@UnDecorator@@CA?AVDName@@_NPEA_N@Z 000000018004c8b0 f i libvcruntimed:undname.obj
 0001:0004c7c0       ?getPointerType@UnDecorator@@CA?AVDName@@AEBV2@0@Z 000000018004d7c0 f i libvcruntimed:undname.obj
 0001:0004c800       ?getPointerTypeArray@UnDecorator@@CA?AVDName@@AEBV2@0@Z 000000018004d800 f i libvcruntimed:undname.obj
 0001:0004c840       ?getPrimaryDataType@UnDecorator@@CA?AVDName@@AEBV2@@Z 000000018004d840 f   libvcruntimed:undname.obj
 0001:0004ce70       ?getPtrRefDataType@UnDecorator@@CA?AVDName@@AEBV2@H@Z 000000018004de70 f   libvcruntimed:undname.obj
 0001:0004d260       ?getPtrRefType@UnDecorator@@CA?AVDName@@AEBV2@0W4IndirectionKind@@@Z 000000018004e260 f   libvcruntimed:undname.obj
 0001:0004d4a0       ?getReferenceType@UnDecorator@@CA?AVDName@@AEBV2@0W4IndirectionKind@@@Z 000000018004e4a0 f i libvcruntimed:undname.obj
 0001:0004d4e0       ?getRestrictionSpec@UnDecorator@@CA?AVDName@@XZ 000000018004e4e0 f   libvcruntimed:undname.obj
 0001:0004d770       ?getReturnType@UnDecorator@@CA?AVDName@@PEAV2@@Z 000000018004e770 f   libvcruntimed:undname.obj
 0001:0004d7d0       ?getScope@UnDecorator@@CA?AVDName@@XZ 000000018004e7d0 f   libvcruntimed:undname.obj
 0001:0004df20       ?getScopedName@UnDecorator@@CA?AVDName@@XZ 000000018004ef20 f   libvcruntimed:undname.obj
 0001:0004e120       ?getSignedDimension@UnDecorator@@CA?AVDName@@XZ 000000018004f120 f   libvcruntimed:undname.obj
 0001:0004e1b0       ?getStorageConvention@UnDecorator@@CA?AVDName@@XZ 000000018004f1b0 f i libvcruntimed:undname.obj
 0001:0004e1d0       ?getString@DName@@QEBAPEADPEAD0@Z 000000018004f1d0 f i libvcruntimed:undname.obj
 0001:0004e250       ?getString@DName@@QEBAPEADPEADH@Z 000000018004f250 f i libvcruntimed:undname.obj
 0001:0004e310       ?getString@DNameStatusNode@@UEBAPEADPEAD0@Z 000000018004f310 f i libvcruntimed:undname.obj
 0001:0004e360       ?getString@charNode@@UEBAPEADPEAD0@Z 000000018004f360 f i libvcruntimed:undname.obj
 0001:0004e3a0       ?getString@pDNameNode@@UEBAPEADPEAD0@Z 000000018004f3a0 f i libvcruntimed:undname.obj
 0001:0004e400       ?getString@pairNode@@UEBAPEADPEAD0@Z 000000018004f400 f i libvcruntimed:undname.obj
 0001:0004e4d0       ?getString@pcharNode@@UEBAPEADPEAD0@Z 000000018004f4d0 f i libvcruntimed:undname.obj
 0001:0004e510       ?getStringEncoding@UnDecorator@@CA?AVDName@@W4PrefixKind@@H@Z 000000018004f510 f   libvcruntimed:undname.obj
 0001:0004e670       ?getStringHelper@@YAPEADPEADPEBD1H@Z 000000018004f670 f i libvcruntimed:undname.obj
 0001:0004e6e0       ?getStringObject@UnDecorator@@CA?AVDName@@XZ 000000018004f6e0 f   libvcruntimed:undname.obj
 0001:0004e7c0       ?getSymbolName@UnDecorator@@CA?AVDName@@XZ 000000018004f7c0 f i libvcruntimed:undname.obj
 0001:0004e860       ?getTemplateArgumentList@UnDecorator@@CA?AVDName@@XZ 000000018004f860 f   libvcruntimed:undname.obj
 0001:0004eba0       ?getTemplateName@UnDecorator@@CA?AVDName@@_N@Z 000000018004fba0 f   libvcruntimed:undname.obj
 0001:0004ede0       ?getTemplateNonTypeArgument@UnDecorator@@CA?AVDName@@XZ 000000018004fde0 f   libvcruntimed:undname.obj
 0001:0004f500       ?getTemplateTypeArgument@UnDecorator@@CA?AVDName@@XZ 0000000180050500 f   libvcruntimed:undname.obj
 0001:0004f770       ?getThisType@UnDecorator@@CA?AVDName@@XZ 0000000180050770 f i libvcruntimed:undname.obj
 0001:0004f7c0       ?getThrowTypes@UnDecorator@@CA?AVDName@@XZ 00000001800507c0 f   libvcruntimed:undname.obj
 0001:0004f810       ?getTypeEncoding@UnDecorator@@CAHXZ 0000000180050810 f i libvcruntimed:undname.obj
 0001:00050440       ?getUndecoratedName@UnDecorator@@QEAAPEADPEADH@Z 0000000180051440 f i libvcruntimed:undname.obj
 0001:00050630       ?getVCallThunkType@UnDecorator@@CA?AVDName@@XZ 0000000180051630 f i libvcruntimed:undname.obj
 0001:000506e0       ?getValue@UnDecorator@@CA?AV?$optional@_K@std@@XZ 00000001800516e0 f   libvcruntimed:undname.obj
 0001:000507b0       ?getValueObject@UnDecorator@@CA?AVDName@@XZ 00000001800517b0 f   libvcruntimed:undname.obj
 0001:000509a0       ?getVbTableType@UnDecorator@@CA?AVDName@@AEBV2@@Z 00000001800519a0 f i libvcruntimed:undname.obj
 0001:000509d0       ?getVdispMapType@UnDecorator@@CA?AVDName@@AEBV2@@Z 00000001800519d0 f i libvcruntimed:undname.obj
 0001:00050a90       ?getVfTableType@UnDecorator@@CA?AVDName@@AEBV2@@Z 0000000180051a90 f i libvcruntimed:undname.obj
 0001:00050d30       ?getZName@UnDecorator@@CA?AVDName@@_N0@Z 0000000180051d30 f   libvcruntimed:undname.obj
 0001:000511c0       ?haveTemplateParameters@UnDecorator@@SAHXZ 00000001800521c0 f i libvcruntimed:undname.obj
 0001:000511d0       ?isArray@DName@@QEBAHXZ    00000001800521d0 f i libvcruntimed:undname.obj
 0001:000511f0       ?isComArray@DName@@QEBAHXZ 00000001800521f0 f i libvcruntimed:undname.obj
 0001:00051210       ?isEmpty@DName@@QEBAHXZ    0000000180052210 f i libvcruntimed:undname.obj
 0001:00051240       ?isFull@Replicator@@QEBAHXZ 0000000180052240 f i libvcruntimed:undname.obj
 0001:00051270       ?isNoTE@DName@@QEBAHXZ     0000000180052270 f i libvcruntimed:undname.obj
 0001:00051290       ?isPinPtr@DName@@QEBAHXZ   0000000180052290 f i libvcruntimed:undname.obj
 0001:000512b0       ?isPtrRef@DName@@QEBAHXZ   00000001800522b0 f i libvcruntimed:undname.obj
 0001:000512d0       ?isUDC@DName@@QEBAHXZ      00000001800522d0 f i libvcruntimed:undname.obj
 0001:00051320       ?isUDTThunk@DName@@QEBAHXZ 0000000180052320 f i libvcruntimed:undname.obj
 0001:00051370       ?isVCallThunk@DName@@QEBAHXZ 0000000180052370 f i libvcruntimed:undname.obj
 0001:00051390       ?isValid@DName@@QEBAHXZ    0000000180052390 f i libvcruntimed:undname.obj
 0001:000513d0       ?length@DName@@QEBAHXZ     00000001800523d0 f i libvcruntimed:undname.obj
 0001:00051420       ?length@DNameStatusNode@@UEBAHXZ 0000000180052420 f i libvcruntimed:undname.obj
 0001:00051430       ?length@charNode@@UEBAHXZ  0000000180052430 f i libvcruntimed:undname.obj
 0001:00051440       ?length@pDNameNode@@UEBAHXZ 0000000180052440 f i libvcruntimed:undname.obj
 0001:00051480       ?length@pairNode@@UEBAHXZ  0000000180052480 f i libvcruntimed:undname.obj
 0001:00051510       ?length@pcharNode@@UEBAHXZ 0000000180052510 f i libvcruntimed:undname.obj
 0001:00051520       ?make@DNameStatusNode@@SAPEBV1@W4DNameStatus@@@Z 0000000180052520 f i libvcruntimed:undname.obj
 0001:00051570       ?parseDecoratedName@UnDecorator@@CA?AVDName@@XZ 0000000180052570 f   libvcruntimed:undname.obj
 0001:00051760       ?raw_length@DNameStatusNode@@UEBAHXZ 0000000180052760 f i libvcruntimed:undname.obj
 0001:00051780       ?raw_length@charNode@@UEBAHXZ 0000000180052780 f i libvcruntimed:undname.obj
 0001:000517a0       ?raw_length@pDNameNode@@UEBAHXZ 00000001800527a0 f i libvcruntimed:undname.obj
 0001:000517b0       ?raw_length@pairNode@@UEBAHXZ 00000001800527b0 f i libvcruntimed:undname.obj
 0001:000517c0       ?raw_length@pcharNode@@UEBAHXZ 00000001800527c0 f i libvcruntimed:undname.obj
 0001:000517e0       ?setIsArray@DName@@QEAAXXZ 00000001800527e0 f i libvcruntimed:undname.obj
 0001:00051800       ?setIsComArray@DName@@QEAAXXZ 0000000180052800 f i libvcruntimed:undname.obj
 0001:00051820       ?setIsNoTE@DName@@QEAAXXZ  0000000180052820 f i libvcruntimed:undname.obj
 0001:00051840       ?setIsPinPtr@DName@@QEAAXXZ 0000000180052840 f i libvcruntimed:undname.obj
 0001:00051860       ?setIsUDC@DName@@QEAAXXZ   0000000180052860 f i libvcruntimed:undname.obj
 0001:00051890       ?setIsVCallThunk@DName@@QEAAXXZ 0000000180052890 f i libvcruntimed:undname.obj
 0001:000518b0       ?setPtrRef@DName@@QEAAAEAV1@XZ 00000001800528b0 f i libvcruntimed:undname.obj
 0001:000518d0       ?status@DName@@QEBA?AW4DNameStatus@@XZ 00000001800528d0 f i libvcruntimed:undname.obj
 0001:00051a00       __unDName                  0000000180052a00 f   libvcruntimed:undname.obj
 0001:00051a60       __unDNameEx                0000000180052a60 f   libvcruntimed:undname.obj
 0001:00051b20       unDNameGenerateCHPE        0000000180052b20 f   libvcruntimed:undname.obj
 0001:00051bd0       ??$__crt_interlocked_exchange_pointer@UHINSTANCE__@@PEAU1@@@YAPEAUHINSTANCE__@@PEDSEAU0@QEAU0@@Z 0000000180052bd0 f i libvcruntimed:winapi_downlevel.obj
 0001:00051bf0       ??$__crt_interlocked_exchange_pointer@UHINSTANCE__@@PEAX@@YAPEAUHINSTANCE__@@PEDSEAU0@QEAX@Z 0000000180052bf0 f i libvcruntimed:winapi_downlevel.obj
 0001:00051c10       ??$__crt_interlocked_exchange_pointer@XPEAX@@YAPEAXPEDSEAXQEAX@Z 0000000180052c10 f i libvcruntimed:winapi_downlevel.obj
 0001:00051c30       ??$__crt_interlocked_read_pointer@UHINSTANCE__@@@@YAPEAUHINSTANCE__@@PEDSEAU0@@Z 0000000180052c30 f i libvcruntimed:winapi_downlevel.obj
 0001:00051c50       ??$__crt_interlocked_read_pointer@X@@YAPEAXPEDSEAX@Z 0000000180052c50 f i libvcruntimed:winapi_downlevel.obj
 0001:00052160       __vcrt_FlsAlloc            0000000180053160 f   libvcruntimed:winapi_downlevel.obj
 0001:000521b0       __vcrt_FlsFree             00000001800531b0 f   libvcruntimed:winapi_downlevel.obj
 0001:00052200       __vcrt_FlsGetValue         0000000180053200 f   libvcruntimed:winapi_downlevel.obj
 0001:00052250       __vcrt_FlsSetValue         0000000180053250 f   libvcruntimed:winapi_downlevel.obj
 0001:000522b0       __vcrt_InitializeCriticalSectionEx 00000001800532b0 f   libvcruntimed:winapi_downlevel.obj
 0001:00052330       _CallSettingFrame          0000000180053330 f   libvcruntimed:handlers.obj
 0001:00052380       _CallSettingFrame_LookupContinuationIndex 0000000180053380 f   libvcruntimed:handlers.obj
 0001:000523b0       _CallSettingFrame_NotifyContinuationAddr 00000001800533b0 f   libvcruntimed:handlers.obj
 0001:000523e0       _CallSettingFrameEncoded   00000001800533e0 f   libvcruntimed:handlers.obj
 0001:00052430       ??$?0AEBV?$stream_output_adapter@D@__crt_stdio_output@@AEB_KAEBQEBDAEBQEAU__crt_locale_pointers@@AEBQEAD@?$format_validation_base@DV?$stream_output_adapter@D@__crt_stdio_output@@@__crt_stdio_output@@IEAA@AEBV?$stream_output_adapter@D@1@AEB_KAEBQEBDAEBQEAU__crt_locale_pointers@@AEBQEAD@Z 0000000180053430 f i libucrtd:output.obj
 0001:00052480       ??$?0AEBV?$stream_output_adapter@D@__crt_stdio_output@@AEB_KAEBQEBDAEBQEAU__crt_locale_pointers@@AEBQEAD@?$positional_parameter_base@DV?$stream_output_adapter@D@__crt_stdio_output@@@__crt_stdio_output@@IEAA@AEBV?$stream_output_adapter@D@1@AEB_KAEBQEBDAEBQEAU__crt_locale_pointers@@AEBQEAD@Z 0000000180053480 f i libucrtd:output.obj
 0001:00052520       ??$?0AEBV?$stream_output_adapter@D@__crt_stdio_output@@AEB_KAEBQEBDAEBQEAU__crt_locale_pointers@@AEBQEAD@?$standard_base@DV?$stream_output_adapter@D@__crt_stdio_output@@@__crt_stdio_output@@IEAA@AEBV?$stream_output_adapter@D@1@AEB_KAEBQEBDAEBQEAU__crt_locale_pointers@@AEBQEAD@Z 0000000180053520 f i libucrtd:output.obj
 0001:00052590       ??$?0AEBV?$stream_output_adapter@_W@__crt_stdio_output@@AEB_KAEBQEB_WAEBQEAU__crt_locale_pointers@@AEBQEAD@?$format_validation_base@_WV?$stream_output_adapter@_W@__crt_stdio_output@@@__crt_stdio_output@@IEAA@AEBV?$stream_output_adapter@_W@1@AEB_KAEBQEB_WAEBQEAU__crt_locale_pointers@@AEBQEAD@Z 0000000180053590 f i libucrtd:output.obj
 0001:000525e0       ??$?0AEBV?$stream_output_adapter@_W@__crt_stdio_output@@AEB_KAEBQEB_WAEBQEAU__crt_locale_pointers@@AEBQEAD@?$positional_parameter_base@_WV?$stream_output_adapter@_W@__crt_stdio_output@@@__crt_stdio_output@@IEAA@AEBV?$stream_output_adapter@_W@1@AEB_KAEBQEB_WAEBQEAU__crt_locale_pointers@@AEBQEAD@Z 00000001800535e0 f i libucrtd:output.obj
 0001:00052680       ??$?0AEBV?$stream_output_adapter@_W@__crt_stdio_output@@AEB_KAEBQEB_WAEBQEAU__crt_locale_pointers@@AEBQEAD@?$standard_base@_WV?$stream_output_adapter@_W@__crt_stdio_output@@@__crt_stdio_output@@IEAA@AEBV?$stream_output_adapter@_W@1@AEB_KAEBQEB_WAEBQEAU__crt_locale_pointers@@AEBQEAD@Z 0000000180053680 f i libucrtd:output.obj
 0001:000526f0       ??$?0AEBV?$string_output_adapter@D@__crt_stdio_output@@AEB_KAEBQEBDAEBQEAU__crt_locale_pointers@@AEBQEAD@?$format_validation_base@DV?$string_output_adapter@D@__crt_stdio_output@@@__crt_stdio_output@@IEAA@AEBV?$string_output_adapter@D@1@AEB_KAEBQEBDAEBQEAU__crt_locale_pointers@@AEBQEAD@Z 00000001800536f0 f i libucrtd:output.obj
 0001:00052740       ??$?0AEBV?$string_output_adapter@D@__crt_stdio_output@@AEB_KAEBQEBDAEBQEAU__crt_locale_pointers@@AEBQEAD@?$positional_parameter_base@DV?$string_output_adapter@D@__crt_stdio_output@@@__crt_stdio_output@@IEAA@AEBV?$string_output_adapter@D@1@AEB_KAEBQEBDAEBQEAU__crt_locale_pointers@@AEBQEAD@Z 0000000180053740 f i libucrtd:output.obj
 0001:000527e0       ??$?0AEBV?$string_output_adapter@D@__crt_stdio_output@@AEB_KAEBQEBDAEBQEAU__crt_locale_pointers@@AEBQEAD@?$standard_base@DV?$string_output_adapter@D@__crt_stdio_output@@@__crt_stdio_output@@IEAA@AEBV?$string_output_adapter@D@1@AEB_KAEBQEBDAEBQEAU__crt_locale_pointers@@AEBQEAD@Z 00000001800537e0 f i libucrtd:output.obj
 0001:00052850       ??$?0AEBV?$string_output_adapter@_W@__crt_stdio_output@@AEB_KAEBQEB_WAEBQEAU__crt_locale_pointers@@AEBQEAD@?$format_validation_base@_WV?$string_output_adapter@_W@__crt_stdio_output@@@__crt_stdio_output@@IEAA@AEBV?$string_output_adapter@_W@1@AEB_KAEBQEB_WAEBQEAU__crt_locale_pointers@@AEBQEAD@Z 0000000180053850 f i libucrtd:output.obj
 0001:000528a0       ??$?0AEBV?$string_output_adapter@_W@__crt_stdio_output@@AEB_KAEBQEB_WAEBQEAU__crt_locale_pointers@@AEBQEAD@?$positional_parameter_base@_WV?$string_output_adapter@_W@__crt_stdio_output@@@__crt_stdio_output@@IEAA@AEBV?$string_output_adapter@_W@1@AEB_KAEBQEB_WAEBQEAU__crt_locale_pointers@@AEBQEAD@Z 00000001800538a0 f i libucrtd:output.obj
 0001:00052940       ??$?0AEBV?$string_output_adapter@_W@__crt_stdio_output@@AEB_KAEBQEB_WAEBQEAU__crt_locale_pointers@@AEBQEAD@?$standard_base@_WV?$string_output_adapter@_W@__crt_stdio_output@@@__crt_stdio_output@@IEAA@AEBV?$string_output_adapter@_W@1@AEB_KAEBQEB_WAEBQEAU__crt_locale_pointers@@AEBQEAD@Z 0000000180053940 f i libucrtd:output.obj
 0001:00052d70       ??$__crt_interlocked_read@J@@YAJPEDJ@Z 0000000180053d70 f i libucrtd:output.obj
 0001:00056850       ??$count@D@formatting_buffer@__crt_stdio_output@@QEBA_KXZ 0000000180057850 f i libucrtd:output.obj
 0001:000568a0       ??$count@_W@formatting_buffer@__crt_stdio_output@@QEBA_KXZ 00000001800578a0 f i libucrtd:output.obj
 0001:000568f0       ??$data@D@formatting_buffer@__crt_stdio_output@@QEAAPEADXZ 00000001800578f0 f i libucrtd:output.obj
 0001:00056940       ??$data@_W@formatting_buffer@__crt_stdio_output@@QEAAPEA_WXZ 0000000180057940 f i libucrtd:output.obj
 0001:00056990       ??$ensure_buffer_is_big_enough@D@formatting_buffer@__crt_stdio_output@@QEAA_N_K@Z 0000000180057990 f i libucrtd:output.obj
 0001:00056ac0       ??$ensure_buffer_is_big_enough@_W@formatting_buffer@__crt_stdio_output@@QEAA_N_K@Z 0000000180057ac0 f i libucrtd:output.obj
 0001:00056bf0       ??$extract_argument_from_va_list@C_J@?$positional_parameter_base@DV?$stream_output_adapter@D@__crt_stdio_output@@@__crt_stdio_output@@IEAA_NAEA_J@Z 0000000180057bf0 f i libucrtd:output.obj
 0001:00056d70       ??$extract_argument_from_va_list@C_J@?$positional_parameter_base@DV?$string_output_adapter@D@__crt_stdio_output@@@__crt_stdio_output@@IEAA_NAEA_J@Z 0000000180057d70 f i libucrtd:output.obj
 0001:00056ef0       ??$extract_argument_from_va_list@C_J@?$positional_parameter_base@_WV?$stream_output_adapter@_W@__crt_stdio_output@@@__crt_stdio_output@@IEAA_NAEA_J@Z 0000000180057ef0 f i libucrtd:output.obj
 0001:00057070       ??$extract_argument_from_va_list@C_J@?$positional_parameter_base@_WV?$string_output_adapter@_W@__crt_stdio_output@@@__crt_stdio_output@@IEAA_NAEA_J@Z 0000000180058070 f i libucrtd:output.obj
 0001:000571f0       ??$extract_argument_from_va_list@C_J@?$standard_base@DV?$stream_output_adapter@D@__crt_stdio_output@@@__crt_stdio_output@@IEAA_NAEA_J@Z 00000001800581f0 f i libucrtd:output.obj
 0001:00057230       ??$extract_argument_from_va_list@C_J@?$standard_base@DV?$string_output_adapter@D@__crt_stdio_output@@@__crt_stdio_output@@IEAA_NAEA_J@Z 0000000180058230 f i libucrtd:output.obj
 0001:00057270       ??$extract_argument_from_va_list@C_J@?$standard_base@_WV?$stream_output_adapter@_W@__crt_stdio_output@@@__crt_stdio_output@@IEAA_NAEA_J@Z 0000000180058270 f i libucrtd:output.obj
 0001:000572b0       ??$extract_argument_from_va_list@C_J@?$standard_base@_WV?$string_output_adapter@_W@__crt_stdio_output@@@__crt_stdio_output@@IEAA_NAEA_J@Z 00000001800582b0 f i libucrtd:output.obj
 0001:000572f0       ??$extract_argument_from_va_list@E_J@?$positional_parameter_base@DV?$stream_output_adapter@D@__crt_stdio_output@@@__crt_stdio_output@@IEAA_NAEA_J@Z 00000001800582f0 f i libucrtd:output.obj
 0001:00057470       ??$extract_argument_from_va_list@E_J@?$positional_parameter_base@DV?$string_output_adapter@D@__crt_stdio_output@@@__crt_stdio_output@@IEAA_NAEA_J@Z 0000000180058470 f i libucrtd:output.obj
 0001:000575f0       ??$extract_argument_from_va_list@E_J@?$positional_parameter_base@_WV?$stream_output_adapter@_W@__crt_stdio_output@@@__crt_stdio_output@@IEAA_NAEA_J@Z 00000001800585f0 f i libucrtd:output.obj
 0001:00057770       ??$extract_argument_from_va_list@E_J@?$positional_parameter_base@_WV?$string_output_adapter@_W@__crt_stdio_output@@@__crt_stdio_output@@IEAA_NAEA_J@Z 0000000180058770 f i libucrtd:output.obj
 0001:000578f0       ??$extract_argument_from_va_list@E_J@?$standard_base@DV?$stream_output_adapter@D@__crt_stdio_output@@@__crt_stdio_output@@IEAA_NAEA_J@Z 00000001800588f0 f i libucrtd:output.obj
 0001:00057930       ??$extract_argument_from_va_list@E_J@?$standard_base@DV?$string_output_adapter@D@__crt_stdio_output@@@__crt_stdio_output@@IEAA_NAEA_J@Z 0000000180058930 f i libucrtd:output.obj
 0001:00057970       ??$extract_argument_from_va_list@E_J@?$standard_base@_WV?$stream_output_adapter@_W@__crt_stdio_output@@@__crt_stdio_output@@IEAA_NAEA_J@Z 0000000180058970 f i libucrtd:output.obj
 0001:000579b0       ??$extract_argument_from_va_list@E_J@?$standard_base@_WV?$string_output_adapter@_W@__crt_stdio_output@@@__crt_stdio_output@@IEAA_NAEA_J@Z 00000001800589b0 f i libucrtd:output.obj
 0001:000579f0       ??$extract_argument_from_va_list@F_J@?$positional_parameter_base@DV?$stream_output_adapter@D@__crt_stdio_output@@@__crt_stdio_output@@IEAA_NAEA_J@Z 00000001800589f0 f i libucrtd:output.obj
 0001:00057b70       ??$extract_argument_from_va_list@F_J@?$positional_parameter_base@DV?$string_output_adapter@D@__crt_stdio_output@@@__crt_stdio_output@@IEAA_NAEA_J@Z 0000000180058b70 f i libucrtd:output.obj
 0001:00057cf0       ??$extract_argument_from_va_list@F_J@?$positional_parameter_base@_WV?$stream_output_adapter@_W@__crt_stdio_output@@@__crt_stdio_output@@IEAA_NAEA_J@Z 0000000180058cf0 f i libucrtd:output.obj
 0001:00057e70       ??$extract_argument_from_va_list@F_J@?$positional_parameter_base@_WV?$string_output_adapter@_W@__crt_stdio_output@@@__crt_stdio_output@@IEAA_NAEA_J@Z 0000000180058e70 f i libucrtd:output.obj
 0001:00057ff0       ??$extract_argument_from_va_list@F_J@?$standard_base@DV?$stream_output_adapter@D@__crt_stdio_output@@@__crt_stdio_output@@IEAA_NAEA_J@Z 0000000180058ff0 f i libucrtd:output.obj
 0001:00058030       ??$extract_argument_from_va_list@F_J@?$standard_base@DV?$string_output_adapter@D@__crt_stdio_output@@@__crt_stdio_output@@IEAA_NAEA_J@Z 0000000180059030 f i libucrtd:output.obj
 0001:00058070       ??$extract_argument_from_va_list@F_J@?$standard_base@_WV?$stream_output_adapter@_W@__crt_stdio_output@@@__crt_stdio_output@@IEAA_NAEA_J@Z 0000000180059070 f i libucrtd:output.obj
 0001:000580b0       ??$extract_argument_from_va_list@F_J@?$standard_base@_WV?$string_output_adapter@_W@__crt_stdio_output@@@__crt_stdio_output@@IEAA_NAEA_J@Z 00000001800590b0 f i libucrtd:output.obj
 0001:000580f0       ??$extract_argument_from_va_list@GD@?$positional_parameter_base@DV?$stream_output_adapter@D@__crt_stdio_output@@@__crt_stdio_output@@IEAA_NAEAD@Z 00000001800590f0 f i libucrtd:output.obj
 0001:00058270       ??$extract_argument_from_va_list@GD@?$positional_parameter_base@DV?$string_output_adapter@D@__crt_stdio_output@@@__crt_stdio_output@@IEAA_NAEAD@Z 0000000180059270 f i libucrtd:output.obj
 0001:000583f0       ??$extract_argument_from_va_list@GD@?$standard_base@DV?$stream_output_adapter@D@__crt_stdio_output@@@__crt_stdio_output@@IEAA_NAEAD@Z 00000001800593f0 f i libucrtd:output.obj
 0001:00058420       ??$extract_argument_from_va_list@GD@?$standard_base@DV?$string_output_adapter@D@__crt_stdio_output@@@__crt_stdio_output@@IEAA_NAEAD@Z 0000000180059420 f i libucrtd:output.obj
 0001:00058450       ??$extract_argument_from_va_list@G_J@?$positional_parameter_base@DV?$stream_output_adapter@D@__crt_stdio_output@@@__crt_stdio_output@@IEAA_NAEA_J@Z 0000000180059450 f i libucrtd:output.obj
 0001:000585d0       ??$extract_argument_from_va_list@G_J@?$positional_parameter_base@DV?$string_output_adapter@D@__crt_stdio_output@@@__crt_stdio_output@@IEAA_NAEA_J@Z 00000001800595d0 f i libucrtd:output.obj
 0001:00058750       ??$extract_argument_from_va_list@G_J@?$positional_parameter_base@_WV?$stream_output_adapter@_W@__crt_stdio_output@@@__crt_stdio_output@@IEAA_NAEA_J@Z 0000000180059750 f i libucrtd:output.obj
 0001:000588d0       ??$extract_argument_from_va_list@G_J@?$positional_parameter_base@_WV?$string_output_adapter@_W@__crt_stdio_output@@@__crt_stdio_output@@IEAA_NAEA_J@Z 00000001800598d0 f i libucrtd:output.obj
 0001:00058a50       ??$extract_argument_from_va_list@G_J@?$standard_base@DV?$stream_output_adapter@D@__crt_stdio_output@@@__crt_stdio_output@@IEAA_NAEA_J@Z 0000000180059a50 f i libucrtd:output.obj
 0001:00058a90       ??$extract_argument_from_va_list@G_J@?$standard_base@DV?$string_output_adapter@D@__crt_stdio_output@@@__crt_stdio_output@@IEAA_NAEA_J@Z 0000000180059a90 f i libucrtd:output.obj
 0001:00058ad0       ??$extract_argument_from_va_list@G_J@?$standard_base@_WV?$stream_output_adapter@_W@__crt_stdio_output@@@__crt_stdio_output@@IEAA_NAEA_J@Z 0000000180059ad0 f i libucrtd:output.obj
 0001:00058b10       ??$extract_argument_from_va_list@G_J@?$standard_base@_WV?$string_output_adapter@_W@__crt_stdio_output@@@__crt_stdio_output@@IEAA_NAEA_J@Z 0000000180059b10 f i libucrtd:output.obj
 0001:00058b50       ??$extract_argument_from_va_list@H_J@?$positional_parameter_base@DV?$stream_output_adapter@D@__crt_stdio_output@@@__crt_stdio_output@@IEAA_NAEA_J@Z 0000000180059b50 f i libucrtd:output.obj
 0001:00058cd0       ??$extract_argument_from_va_list@H_J@?$positional_parameter_base@DV?$string_output_adapter@D@__crt_stdio_output@@@__crt_stdio_output@@IEAA_NAEA_J@Z 0000000180059cd0 f i libucrtd:output.obj
 0001:00058e50       ??$extract_argument_from_va_list@H_J@?$positional_parameter_base@_WV?$stream_output_adapter@_W@__crt_stdio_output@@@__crt_stdio_output@@IEAA_NAEA_J@Z 0000000180059e50 f i libucrtd:output.obj
 0001:00058fd0       ??$extract_argument_from_va_list@H_J@?$positional_parameter_base@_WV?$string_output_adapter@_W@__crt_stdio_output@@@__crt_stdio_output@@IEAA_NAEA_J@Z 0000000180059fd0 f i libucrtd:output.obj
 0001:00059150       ??$extract_argument_from_va_list@H_J@?$standard_base@DV?$stream_output_adapter@D@__crt_stdio_output@@@__crt_stdio_output@@IEAA_NAEA_J@Z 000000018005a150 f i libucrtd:output.obj
 0001:00059180       ??$extract_argument_from_va_list@H_J@?$standard_base@DV?$string_output_adapter@D@__crt_stdio_output@@@__crt_stdio_output@@IEAA_NAEA_J@Z 000000018005a180 f i libucrtd:output.obj
 0001:000591b0       ??$extract_argument_from_va_list@H_J@?$standard_base@_WV?$stream_output_adapter@_W@__crt_stdio_output@@@__crt_stdio_output@@IEAA_NAEA_J@Z 000000018005a1b0 f i libucrtd:output.obj
 0001:000591e0       ??$extract_argument_from_va_list@H_J@?$standard_base@_WV?$string_output_adapter@_W@__crt_stdio_output@@@__crt_stdio_output@@IEAA_NAEA_J@Z 000000018005a1e0 f i libucrtd:output.obj
 0001:00059210       ??$extract_argument_from_va_list@I_J@?$positional_parameter_base@DV?$stream_output_adapter@D@__crt_stdio_output@@@__crt_stdio_output@@IEAA_NAEA_J@Z 000000018005a210 f i libucrtd:output.obj
 0001:00059390       ??$extract_argument_from_va_list@I_J@?$positional_parameter_base@DV?$string_output_adapter@D@__crt_stdio_output@@@__crt_stdio_output@@IEAA_NAEA_J@Z 000000018005a390 f i libucrtd:output.obj
 0001:00059510       ??$extract_argument_from_va_list@I_J@?$positional_parameter_base@_WV?$stream_output_adapter@_W@__crt_stdio_output@@@__crt_stdio_output@@IEAA_NAEA_J@Z 000000018005a510 f i libucrtd:output.obj
 0001:00059690       ??$extract_argument_from_va_list@I_J@?$positional_parameter_base@_WV?$string_output_adapter@_W@__crt_stdio_output@@@__crt_stdio_output@@IEAA_NAEA_J@Z 000000018005a690 f i libucrtd:output.obj
 0001:00059810       ??$extract_argument_from_va_list@I_J@?$standard_base@DV?$stream_output_adapter@D@__crt_stdio_output@@@__crt_stdio_output@@IEAA_NAEA_J@Z 000000018005a810 f i libucrtd:output.obj
 0001:00059840       ??$extract_argument_from_va_list@I_J@?$standard_base@DV?$string_output_adapter@D@__crt_stdio_output@@@__crt_stdio_output@@IEAA_NAEA_J@Z 000000018005a840 f i libucrtd:output.obj
 0001:00059870       ??$extract_argument_from_va_list@I_J@?$standard_base@_WV?$stream_output_adapter@_W@__crt_stdio_output@@@__crt_stdio_output@@IEAA_NAEA_J@Z 000000018005a870 f i libucrtd:output.obj
 0001:000598a0       ??$extract_argument_from_va_list@I_J@?$standard_base@_WV?$string_output_adapter@_W@__crt_stdio_output@@@__crt_stdio_output@@IEAA_NAEA_J@Z 000000018005a8a0 f i libucrtd:output.obj
 0001:000598d0       ??$extract_argument_from_va_list@PEADPEAD@?$positional_parameter_base@DV?$stream_output_adapter@D@__crt_stdio_output@@@__crt_stdio_output@@IEAA_NAEAPEAD@Z 000000018005a8d0 f i libucrtd:output.obj
 0001:00059a50       ??$extract_argument_from_va_list@PEADPEAD@?$positional_parameter_base@DV?$string_output_adapter@D@__crt_stdio_output@@@__crt_stdio_output@@IEAA_NAEAPEAD@Z 000000018005aa50 f i libucrtd:output.obj
 0001:00059bd0       ??$extract_argument_from_va_list@PEADPEAD@?$positional_parameter_base@_WV?$stream_output_adapter@_W@__crt_stdio_output@@@__crt_stdio_output@@IEAA_NAEAPEAD@Z 000000018005abd0 f i libucrtd:output.obj
 0001:00059d50       ??$extract_argument_from_va_list@PEADPEAD@?$positional_parameter_base@_WV?$string_output_adapter@_W@__crt_stdio_output@@@__crt_stdio_output@@IEAA_NAEAPEAD@Z 000000018005ad50 f i libucrtd:output.obj
 0001:00059ed0       ??$extract_argument_from_va_list@PEADPEAD@?$standard_base@DV?$stream_output_adapter@D@__crt_stdio_output@@@__crt_stdio_output@@IEAA_NAEAPEAD@Z 000000018005aed0 f i libucrtd:output.obj
 0001:00059f00       ??$extract_argument_from_va_list@PEADPEAD@?$standard_base@DV?$string_output_adapter@D@__crt_stdio_output@@@__crt_stdio_output@@IEAA_NAEAPEAD@Z 000000018005af00 f i libucrtd:output.obj
 0001:00059f30       ??$extract_argument_from_va_list@PEADPEAD@?$standard_base@_WV?$stream_output_adapter@_W@__crt_stdio_output@@@__crt_stdio_output@@IEAA_NAEAPEAD@Z 000000018005af30 f i libucrtd:output.obj
 0001:00059f60       ??$extract_argument_from_va_list@PEADPEAD@?$standard_base@_WV?$string_output_adapter@_W@__crt_stdio_output@@@__crt_stdio_output@@IEAA_NAEAPEAD@Z 000000018005af60 f i libucrtd:output.obj
 0001:00059f90       ??$extract_argument_from_va_list@PEAUansi_string@?1??type_case_Z@?$output_processor@DV?$stream_output_adapter@D@__crt_stdio_output@@V?$format_validation_base@DV?$stream_output_adapter@D@__crt_stdio_output@@@2@@__crt_stdio_output@@AEAA_NXZ@PEAU1?1??234@AEAA_NXZ@@?$standard_base@DV?$stream_output_adapter@D@__crt_stdio_output@@@__crt_stdio_output@@IEAA_NAEAPEAUansi_string@?1??type_case_Z@?$output_processor@DV?$stream_output_adapter@D@__crt_stdio_output@@V?$format_validation_base@DV?$stream_output_adapter@D@__crt_stdio_output@@@2@@1@AEAA_NXZ@@Z 000000018005af90 f i libucrtd:output.obj
 0001:00059fc0       ??$extract_argument_from_va_list@PEAUansi_string@?1??type_case_Z@?$output_processor@DV?$stream_output_adapter@D@__crt_stdio_output@@V?$positional_parameter_base@DV?$stream_output_adapter@D@__crt_stdio_output@@@2@@__crt_stdio_output@@AEAA_NXZ@PEAU1?1??234@AEAA_NXZ@@?$positional_parameter_base@DV?$stream_output_adapter@D@__crt_stdio_output@@@__crt_stdio_output@@IEAA_NAEAPEAUansi_string@?1??type_case_Z@?$output_processor@DV?$stream_output_adapter@D@__crt_stdio_output@@V?$positional_parameter_base@DV?$stream_output_adapter@D@__crt_stdio_output@@@2@@1@AEAA_NXZ@@Z 000000018005afc0 f i libucrtd:output.obj
 0001:0005a140       ??$extract_argument_from_va_list@PEAUansi_string@?1??type_case_Z@?$output_processor@DV?$stream_output_adapter@D@__crt_stdio_output@@V?$positional_parameter_base@DV?$stream_output_adapter@D@__crt_stdio_output@@@2@@__crt_stdio_output@@AEAA_NXZ@PEAU1?1??234@AEAA_NXZ@@?$standard_base@DV?$stream_output_adapter@D@__crt_stdio_output@@@__crt_stdio_output@@IEAA_NAEAPEAUansi_string@?1??type_case_Z@?$output_processor@DV?$stream_output_adapter@D@__crt_stdio_output@@V?$positional_parameter_base@DV?$stream_output_adapter@D@__crt_stdio_output@@@2@@1@AEAA_NXZ@@Z 000000018005b140 f i libucrtd:output.obj
 0001:0005a170       ??$extract_argument_from_va_list@PEAUansi_string@?1??type_case_Z@?$output_processor@DV?$stream_output_adapter@D@__crt_stdio_output@@V?$standard_base@DV?$stream_output_adapter@D@__crt_stdio_output@@@2@@__crt_stdio_output@@AEAA_NXZ@PEAU1?1??234@AEAA_NXZ@@?$standard_base@DV?$stream_output_adapter@D@__crt_stdio_output@@@__crt_stdio_output@@IEAA_NAEAPEAUansi_string@?1??type_case_Z@?$output_processor@DV?$stream_output_adapter@D@__crt_stdio_output@@V?$standard_base@DV?$stream_output_adapter@D@__crt_stdio_output@@@2@@1@AEAA_NXZ@@Z 000000018005b170 f i libucrtd:output.obj
 0001:0005a1a0       ??$extract_argument_from_va_list@PEAUansi_string@?1??type_case_Z@?$output_processor@DV?$string_output_adapter@D@__crt_stdio_output@@V?$format_validation_base@DV?$string_output_adapter@D@__crt_stdio_output@@@2@@__crt_stdio_output@@AEAA_NXZ@PEAU1?1??234@AEAA_NXZ@@?$standard_base@DV?$string_output_adapter@D@__crt_stdio_output@@@__crt_stdio_output@@IEAA_NAEAPEAUansi_string@?1??type_case_Z@?$output_processor@DV?$string_output_adapter@D@__crt_stdio_output@@V?$format_validation_base@DV?$string_output_adapter@D@__crt_stdio_output@@@2@@1@AEAA_NXZ@@Z 000000018005b1a0 f i libucrtd:output.obj
 0001:0005a1d0       ??$extract_argument_from_va_list@PEAUansi_string@?1??type_case_Z@?$output_processor@DV?$string_output_adapter@D@__crt_stdio_output@@V?$positional_parameter_base@DV?$string_output_adapter@D@__crt_stdio_output@@@2@@__crt_stdio_output@@AEAA_NXZ@PEAU1?1??234@AEAA_NXZ@@?$positional_parameter_base@DV?$string_output_adapter@D@__crt_stdio_output@@@__crt_stdio_output@@IEAA_NAEAPEAUansi_string@?1??type_case_Z@?$output_processor@DV?$string_output_adapter@D@__crt_stdio_output@@V?$positional_parameter_base@DV?$string_output_adapter@D@__crt_stdio_output@@@2@@1@AEAA_NXZ@@Z 000000018005b1d0 f i libucrtd:output.obj
 0001:0005a350       ??$extract_argument_from_va_list@PEAUansi_string@?1??type_case_Z@?$output_processor@DV?$string_output_adapter@D@__crt_stdio_output@@V?$positional_parameter_base@DV?$string_output_adapter@D@__crt_stdio_output@@@2@@__crt_stdio_output@@AEAA_NXZ@PEAU1?1??234@AEAA_NXZ@@?$standard_base@DV?$string_output_adapter@D@__crt_stdio_output@@@__crt_stdio_output@@IEAA_NAEAPEAUansi_string@?1??type_case_Z@?$output_processor@DV?$string_output_adapter@D@__crt_stdio_output@@V?$positional_parameter_base@DV?$string_output_adapter@D@__crt_stdio_output@@@2@@1@AEAA_NXZ@@Z 000000018005b350 f i libucrtd:output.obj
 0001:0005a380       ??$extract_argument_from_va_list@PEAUansi_string@?1??type_case_Z@?$output_processor@DV?$string_output_adapter@D@__crt_stdio_output@@V?$standard_base@DV?$string_output_adapter@D@__crt_stdio_output@@@2@@__crt_stdio_output@@AEAA_NXZ@PEAU1?1??234@AEAA_NXZ@@?$standard_base@DV?$string_output_adapter@D@__crt_stdio_output@@@__crt_stdio_output@@IEAA_NAEAPEAUansi_string@?1??type_case_Z@?$output_processor@DV?$string_output_adapter@D@__crt_stdio_output@@V?$standard_base@DV?$string_output_adapter@D@__crt_stdio_output@@@2@@1@AEAA_NXZ@@Z 000000018005b380 f i libucrtd:output.obj
 0001:0005a3b0       ??$extract_argument_from_va_list@PEAUansi_string@?1??type_case_Z@?$output_processor@_WV?$stream_output_adapter@_W@__crt_stdio_output@@V?$format_validation_base@_WV?$stream_output_adapter@_W@__crt_stdio_output@@@2@@__crt_stdio_output@@AEAA_NXZ@PEAU1?1??234@AEAA_NXZ@@?$standard_base@_WV?$stream_output_adapter@_W@__crt_stdio_output@@@__crt_stdio_output@@IEAA_NAEAPEAUansi_string@?1??type_case_Z@?$output_processor@_WV?$stream_output_adapter@_W@__crt_stdio_output@@V?$format_validation_base@_WV?$stream_output_adapter@_W@__crt_stdio_output@@@2@@1@AEAA_NXZ@@Z 000000018005b3b0 f i libucrtd:output.obj
 0001:0005a3e0       ??$extract_argument_from_va_list@PEAUansi_string@?1??type_case_Z@?$output_processor@_WV?$stream_output_adapter@_W@__crt_stdio_output@@V?$positional_parameter_base@_WV?$stream_output_adapter@_W@__crt_stdio_output@@@2@@__crt_stdio_output@@AEAA_NXZ@PEAU1?1??234@AEAA_NXZ@@?$positional_parameter_base@_WV?$stream_output_adapter@_W@__crt_stdio_output@@@__crt_stdio_output@@IEAA_NAEAPEAUansi_string@?1??type_case_Z@?$output_processor@_WV?$stream_output_adapter@_W@__crt_stdio_output@@V?$positional_parameter_base@_WV?$stream_output_adapter@_W@__crt_stdio_output@@@2@@1@AEAA_NXZ@@Z 000000018005b3e0 f i libucrtd:output.obj
 0001:0005a560       ??$extract_argument_from_va_list@PEAUansi_string@?1??type_case_Z@?$output_processor@_WV?$stream_output_adapter@_W@__crt_stdio_output@@V?$positional_parameter_base@_WV?$stream_output_adapter@_W@__crt_stdio_output@@@2@@__crt_stdio_output@@AEAA_NXZ@PEAU1?1??234@AEAA_NXZ@@?$standard_base@_WV?$stream_output_adapter@_W@__crt_stdio_output@@@__crt_stdio_output@@IEAA_NAEAPEAUansi_string@?1??type_case_Z@?$output_processor@_WV?$stream_output_adapter@_W@__crt_stdio_output@@V?$positional_parameter_base@_WV?$stream_output_adapter@_W@__crt_stdio_output@@@2@@1@AEAA_NXZ@@Z 000000018005b560 f i libucrtd:output.obj
 0001:0005a590       ??$extract_argument_from_va_list@PEAUansi_string@?1??type_case_Z@?$output_processor@_WV?$stream_output_adapter@_W@__crt_stdio_output@@V?$standard_base@_WV?$stream_output_adapter@_W@__crt_stdio_output@@@2@@__crt_stdio_output@@AEAA_NXZ@PEAU1?1??234@AEAA_NXZ@@?$standard_base@_WV?$stream_output_adapter@_W@__crt_stdio_output@@@__crt_stdio_output@@IEAA_NAEAPEAUansi_string@?1??type_case_Z@?$output_processor@_WV?$stream_output_adapter@_W@__crt_stdio_output@@V?$standard_base@_WV?$stream_output_adapter@_W@__crt_stdio_output@@@2@@1@AEAA_NXZ@@Z 000000018005b590 f i libucrtd:output.obj
 0001:0005a5c0       ??$extract_argument_from_va_list@PEAUansi_string@?1??type_case_Z@?$output_processor@_WV?$string_output_adapter@_W@__crt_stdio_output@@V?$format_validation_base@_WV?$string_output_adapter@_W@__crt_stdio_output@@@2@@__crt_stdio_output@@AEAA_NXZ@PEAU1?1??234@AEAA_NXZ@@?$standard_base@_WV?$string_output_adapter@_W@__crt_stdio_output@@@__crt_stdio_output@@IEAA_NAEAPEAUansi_string@?1??type_case_Z@?$output_processor@_WV?$string_output_adapter@_W@__crt_stdio_output@@V?$format_validation_base@_WV?$string_output_adapter@_W@__crt_stdio_output@@@2@@1@AEAA_NXZ@@Z 000000018005b5c0 f i libucrtd:output.obj
 0001:0005a5f0       ??$extract_argument_from_va_list@PEAUansi_string@?1??type_case_Z@?$output_processor@_WV?$string_output_adapter@_W@__crt_stdio_output@@V?$positional_parameter_base@_WV?$string_output_adapter@_W@__crt_stdio_output@@@2@@__crt_stdio_output@@AEAA_NXZ@PEAU1?1??234@AEAA_NXZ@@?$positional_parameter_base@_WV?$string_output_adapter@_W@__crt_stdio_output@@@__crt_stdio_output@@IEAA_NAEAPEAUansi_string@?1??type_case_Z@?$output_processor@_WV?$string_output_adapter@_W@__crt_stdio_output@@V?$positional_parameter_base@_WV?$string_output_adapter@_W@__crt_stdio_output@@@2@@1@AEAA_NXZ@@Z 000000018005b5f0 f i libucrtd:output.obj
 0001:0005a770       ??$extract_argument_from_va_list@PEAUansi_string@?1??type_case_Z@?$output_processor@_WV?$string_output_adapter@_W@__crt_stdio_output@@V?$positional_parameter_base@_WV?$string_output_adapter@_W@__crt_stdio_output@@@2@@__crt_stdio_output@@AEAA_NXZ@PEAU1?1??234@AEAA_NXZ@@?$standard_base@_WV?$string_output_adapter@_W@__crt_stdio_output@@@__crt_stdio_output@@IEAA_NAEAPEAUansi_string@?1??type_case_Z@?$output_processor@_WV?$string_output_adapter@_W@__crt_stdio_output@@V?$positional_parameter_base@_WV?$string_output_adapter@_W@__crt_stdio_output@@@2@@1@AEAA_NXZ@@Z 000000018005b770 f i libucrtd:output.obj
 0001:0005a7a0       ??$extract_argument_from_va_list@PEAUansi_string@?1??type_case_Z@?$output_processor@_WV?$string_output_adapter@_W@__crt_stdio_output@@V?$standard_base@_WV?$string_output_adapter@_W@__crt_stdio_output@@@2@@__crt_stdio_output@@AEAA_NXZ@PEAU1?1??234@AEAA_NXZ@@?$standard_base@_WV?$string_output_adapter@_W@__crt_stdio_output@@@__crt_stdio_output@@IEAA_NAEAPEAUansi_string@?1??type_case_Z@?$output_processor@_WV?$string_output_adapter@_W@__crt_stdio_output@@V?$standard_base@_WV?$string_output_adapter@_W@__crt_stdio_output@@@2@@1@AEAA_NXZ@@Z 000000018005b7a0 f i libucrtd:output.obj
 0001:0005a7d0       ??$extract_argument_from_va_list@PEAXPEAX@?$positional_parameter_base@DV?$stream_output_adapter@D@__crt_stdio_output@@@__crt_stdio_output@@IEAA_NAEAPEAX@Z 000000018005b7d0 f i libucrtd:output.obj
 0001:0005a950       ??$extract_argument_from_va_list@PEAXPEAX@?$positional_parameter_base@DV?$string_output_adapter@D@__crt_stdio_output@@@__crt_stdio_output@@IEAA_NAEAPEAX@Z 000000018005b950 f i libucrtd:output.obj
 0001:0005aad0       ??$extract_argument_from_va_list@PEAXPEAX@?$positional_parameter_base@_WV?$stream_output_adapter@_W@__crt_stdio_output@@@__crt_stdio_output@@IEAA_NAEAPEAX@Z 000000018005bad0 f i libucrtd:output.obj
 0001:0005ac50       ??$extract_argument_from_va_list@PEAXPEAX@?$positional_parameter_base@_WV?$string_output_adapter@_W@__crt_stdio_output@@@__crt_stdio_output@@IEAA_NAEAPEAX@Z 000000018005bc50 f i libucrtd:output.obj
 0001:0005add0       ??$extract_argument_from_va_list@PEAXPEAX@?$standard_base@DV?$stream_output_adapter@D@__crt_stdio_output@@@__crt_stdio_output@@IEAA_NAEAPEAX@Z 000000018005bdd0 f i libucrtd:output.obj
 0001:0005ae00       ??$extract_argument_from_va_list@PEAXPEAX@?$standard_base@DV?$string_output_adapter@D@__crt_stdio_output@@@__crt_stdio_output@@IEAA_NAEAPEAX@Z 000000018005be00 f i libucrtd:output.obj
 0001:0005ae30       ??$extract_argument_from_va_list@PEAXPEAX@?$standard_base@_WV?$stream_output_adapter@_W@__crt_stdio_output@@@__crt_stdio_output@@IEAA_NAEAPEAX@Z 000000018005be30 f i libucrtd:output.obj
 0001:0005ae60       ??$extract_argument_from_va_list@PEAXPEAX@?$standard_base@_WV?$string_output_adapter@_W@__crt_stdio_output@@@__crt_stdio_output@@IEAA_NAEAPEAX@Z 000000018005be60 f i libucrtd:output.obj
 0001:0005ae90       ??$extract_argument_from_va_list@U_CRT_DOUBLE@@U1@@?$positional_parameter_base@DV?$stream_output_adapter@D@__crt_stdio_output@@@__crt_stdio_output@@IEAA_NAEAU_CRT_DOUBLE@@@Z 000000018005be90 f i libucrtd:output.obj
 0001:0005b030       ??$extract_argument_from_va_list@U_CRT_DOUBLE@@U1@@?$positional_parameter_base@DV?$string_output_adapter@D@__crt_stdio_output@@@__crt_stdio_output@@IEAA_NAEAU_CRT_DOUBLE@@@Z 000000018005c030 f i libucrtd:output.obj
 0001:0005b1d0       ??$extract_argument_from_va_list@U_CRT_DOUBLE@@U1@@?$positional_parameter_base@_WV?$stream_output_adapter@_W@__crt_stdio_output@@@__crt_stdio_output@@IEAA_NAEAU_CRT_DOUBLE@@@Z 000000018005c1d0 f i libucrtd:output.obj
 0001:0005b370       ??$extract_argument_from_va_list@U_CRT_DOUBLE@@U1@@?$positional_parameter_base@_WV?$string_output_adapter@_W@__crt_stdio_output@@@__crt_stdio_output@@IEAA_NAEAU_CRT_DOUBLE@@@Z 000000018005c370 f i libucrtd:output.obj
 0001:0005b510       ??$extract_argument_from_va_list@U_CRT_DOUBLE@@U1@@?$standard_base@DV?$stream_output_adapter@D@__crt_stdio_output@@@__crt_stdio_output@@IEAA_NAEAU_CRT_DOUBLE@@@Z 000000018005c510 f i libucrtd:output.obj
 0001:0005b560       ??$extract_argument_from_va_list@U_CRT_DOUBLE@@U1@@?$standard_base@DV?$string_output_adapter@D@__crt_stdio_output@@@__crt_stdio_output@@IEAA_NAEAU_CRT_DOUBLE@@@Z 000000018005c560 f i libucrtd:output.obj
 0001:0005b5b0       ??$extract_argument_from_va_list@U_CRT_DOUBLE@@U1@@?$standard_base@_WV?$stream_output_adapter@_W@__crt_stdio_output@@@__crt_stdio_output@@IEAA_NAEAU_CRT_DOUBLE@@@Z 000000018005c5b0 f i libucrtd:output.obj
 0001:0005b600       ??$extract_argument_from_va_list@U_CRT_DOUBLE@@U1@@?$standard_base@_WV?$string_output_adapter@_W@__crt_stdio_output@@@__crt_stdio_output@@IEAA_NAEAU_CRT_DOUBLE@@@Z 000000018005c600 f i libucrtd:output.obj
 0001:0005b650       ??$extract_argument_from_va_list@_J_J@?$positional_parameter_base@DV?$stream_output_adapter@D@__crt_stdio_output@@@__crt_stdio_output@@IEAA_NAEA_J@Z 000000018005c650 f i libucrtd:output.obj
 0001:0005b7d0       ??$extract_argument_from_va_list@_J_J@?$positional_parameter_base@DV?$string_output_adapter@D@__crt_stdio_output@@@__crt_stdio_output@@IEAA_NAEA_J@Z 000000018005c7d0 f i libucrtd:output.obj
 0001:0005b950       ??$extract_argument_from_va_list@_J_J@?$positional_parameter_base@_WV?$stream_output_adapter@_W@__crt_stdio_output@@@__crt_stdio_output@@IEAA_NAEA_J@Z 000000018005c950 f i libucrtd:output.obj
 0001:0005bad0       ??$extract_argument_from_va_list@_J_J@?$positional_parameter_base@_WV?$string_output_adapter@_W@__crt_stdio_output@@@__crt_stdio_output@@IEAA_NAEA_J@Z 000000018005cad0 f i libucrtd:output.obj
 0001:0005bc50       ??$extract_argument_from_va_list@_J_J@?$standard_base@DV?$stream_output_adapter@D@__crt_stdio_output@@@__crt_stdio_output@@IEAA_NAEA_J@Z 000000018005cc50 f i libucrtd:output.obj
 0001:0005bc80       ??$extract_argument_from_va_list@_J_J@?$standard_base@DV?$string_output_adapter@D@__crt_stdio_output@@@__crt_stdio_output@@IEAA_NAEA_J@Z 000000018005cc80 f i libucrtd:output.obj
 0001:0005bcb0       ??$extract_argument_from_va_list@_J_J@?$standard_base@_WV?$stream_output_adapter@_W@__crt_stdio_output@@@__crt_stdio_output@@IEAA_NAEA_J@Z 000000018005ccb0 f i libucrtd:output.obj
 0001:0005bce0       ??$extract_argument_from_va_list@_J_J@?$standard_base@_WV?$string_output_adapter@_W@__crt_stdio_output@@@__crt_stdio_output@@IEAA_NAEA_J@Z 000000018005cce0 f i libucrtd:output.obj
 0001:0005bd10       ??$extract_argument_from_va_list@_K_J@?$positional_parameter_base@DV?$stream_output_adapter@D@__crt_stdio_output@@@__crt_stdio_output@@IEAA_NAEA_J@Z 000000018005cd10 f i libucrtd:output.obj
 0001:0005be90       ??$extract_argument_from_va_list@_K_J@?$positional_parameter_base@DV?$string_output_adapter@D@__crt_stdio_output@@@__crt_stdio_output@@IEAA_NAEA_J@Z 000000018005ce90 f i libucrtd:output.obj
 0001:0005c010       ??$extract_argument_from_va_list@_K_J@?$positional_parameter_base@_WV?$stream_output_adapter@_W@__crt_stdio_output@@@__crt_stdio_output@@IEAA_NAEA_J@Z 000000018005d010 f i libucrtd:output.obj
 0001:0005c190       ??$extract_argument_from_va_list@_K_J@?$positional_parameter_base@_WV?$string_output_adapter@_W@__crt_stdio_output@@@__crt_stdio_output@@IEAA_NAEA_J@Z 000000018005d190 f i libucrtd:output.obj
 0001:0005c310       ??$extract_argument_from_va_list@_K_J@?$standard_base@DV?$stream_output_adapter@D@__crt_stdio_output@@@__crt_stdio_output@@IEAA_NAEA_J@Z 000000018005d310 f i libucrtd:output.obj
 0001:0005c340       ??$extract_argument_from_va_list@_K_J@?$standard_base@DV?$string_output_adapter@D@__crt_stdio_output@@@__crt_stdio_output@@IEAA_NAEA_J@Z 000000018005d340 f i libucrtd:output.obj
 0001:0005c370       ??$extract_argument_from_va_list@_K_J@?$standard_base@_WV?$stream_output_adapter@_W@__crt_stdio_output@@@__crt_stdio_output@@IEAA_NAEA_J@Z 000000018005d370 f i libucrtd:output.obj
 0001:0005c3a0       ??$extract_argument_from_va_list@_K_J@?$standard_base@_WV?$string_output_adapter@_W@__crt_stdio_output@@@__crt_stdio_output@@IEAA_NAEA_J@Z 000000018005d3a0 f i libucrtd:output.obj
 0001:0005c3d0       ??$extract_argument_from_va_list@_W_W@?$positional_parameter_base@DV?$stream_output_adapter@D@__crt_stdio_output@@@__crt_stdio_output@@IEAA_NAEA_W@Z 000000018005d3d0 f i libucrtd:output.obj
 0001:0005c550       ??$extract_argument_from_va_list@_W_W@?$positional_parameter_base@DV?$string_output_adapter@D@__crt_stdio_output@@@__crt_stdio_output@@IEAA_NAEA_W@Z 000000018005d550 f i libucrtd:output.obj
 0001:0005c6d0       ??$extract_argument_from_va_list@_W_W@?$positional_parameter_base@_WV?$stream_output_adapter@_W@__crt_stdio_output@@@__crt_stdio_output@@IEAA_NAEA_W@Z 000000018005d6d0 f i libucrtd:output.obj
 0001:0005c850       ??$extract_argument_from_va_list@_W_W@?$positional_parameter_base@_WV?$string_output_adapter@_W@__crt_stdio_output@@@__crt_stdio_output@@IEAA_NAEA_W@Z 000000018005d850 f i libucrtd:output.obj
 0001:0005c9d0       ??$extract_argument_from_va_list@_W_W@?$standard_base@DV?$stream_output_adapter@D@__crt_stdio_output@@@__crt_stdio_output@@IEAA_NAEA_W@Z 000000018005d9d0 f i libucrtd:output.obj
 0001:0005ca00       ??$extract_argument_from_va_list@_W_W@?$standard_base@DV?$string_output_adapter@D@__crt_stdio_output@@@__crt_stdio_output@@IEAA_NAEA_W@Z 000000018005da00 f i libucrtd:output.obj
 0001:0005ca30       ??$extract_argument_from_va_list@_W_W@?$standard_base@_WV?$stream_output_adapter@_W@__crt_stdio_output@@@__crt_stdio_output@@IEAA_NAEA_W@Z 000000018005da30 f i libucrtd:output.obj
 0001:0005ca60       ??$extract_argument_from_va_list@_W_W@?$standard_base@_WV?$string_output_adapter@_W@__crt_stdio_output@@@__crt_stdio_output@@IEAA_NAEA_W@Z 000000018005da60 f i libucrtd:output.obj
 0001:0005ca90       ??$get_parameter_type@D@?$positional_parameter_base@DV?$stream_output_adapter@D@__crt_stdio_output@@@__crt_stdio_output@@CA?AW4parameter_type@01@PEAD@Z 000000018005da90 f i libucrtd:output.obj
 0001:0005caa0       ??$get_parameter_type@D@?$positional_parameter_base@DV?$string_output_adapter@D@__crt_stdio_output@@@__crt_stdio_output@@CA?AW4parameter_type@01@PEAD@Z 000000018005daa0 f i libucrtd:output.obj
 0001:0005cab0       ??$get_parameter_type@D@?$positional_parameter_base@_WV?$stream_output_adapter@_W@__crt_stdio_output@@@__crt_stdio_output@@CA?AW4parameter_type@01@PEAD@Z 000000018005dab0 f i libucrtd:output.obj
 0001:0005cac0       ??$get_parameter_type@D@?$positional_parameter_base@_WV?$string_output_adapter@_W@__crt_stdio_output@@@__crt_stdio_output@@CA?AW4parameter_type@01@PEAD@Z 000000018005dac0 f i libucrtd:output.obj
 0001:0005cad0       ??$get_parameter_type@Uansi_string@?1??type_case_Z@?$output_processor@DV?$stream_output_adapter@D@__crt_stdio_output@@V?$positional_parameter_base@DV?$stream_output_adapter@D@__crt_stdio_output@@@2@@__crt_stdio_output@@AEAA_NXZ@@?$positional_parameter_base@DV?$stream_output_adapter@D@__crt_stdio_output@@@__crt_stdio_output@@CA?AW4parameter_type@01@PEAUansi_string@?1??type_case_Z@?$output_processor@DV?$stream_output_adapter@D@__crt_stdio_output@@V?$positional_parameter_base@DV?$stream_output_adapter@D@__crt_stdio_output@@@2@@1@AEAA_NXZ@@Z 000000018005dad0 f i libucrtd:output.obj
 0001:0005cae0       ??$get_parameter_type@Uansi_string@?1??type_case_Z@?$output_processor@DV?$string_output_adapter@D@__crt_stdio_output@@V?$positional_parameter_base@DV?$string_output_adapter@D@__crt_stdio_output@@@2@@__crt_stdio_output@@AEAA_NXZ@@?$positional_parameter_base@DV?$string_output_adapter@D@__crt_stdio_output@@@__crt_stdio_output@@CA?AW4parameter_type@01@PEAUansi_string@?1??type_case_Z@?$output_processor@DV?$string_output_adapter@D@__crt_stdio_output@@V?$positional_parameter_base@DV?$string_output_adapter@D@__crt_stdio_output@@@2@@1@AEAA_NXZ@@Z 000000018005dae0 f i libucrtd:output.obj
 0001:0005caf0       ??$get_parameter_type@Uansi_string@?1??type_case_Z@?$output_processor@_WV?$stream_output_adapter@_W@__crt_stdio_output@@V?$positional_parameter_base@_WV?$stream_output_adapter@_W@__crt_stdio_output@@@2@@__crt_stdio_output@@AEAA_NXZ@@?$positional_parameter_base@_WV?$stream_output_adapter@_W@__crt_stdio_output@@@__crt_stdio_output@@CA?AW4parameter_type@01@PEAUansi_string@?1??type_case_Z@?$output_processor@_WV?$stream_output_adapter@_W@__crt_stdio_output@@V?$positional_parameter_base@_WV?$stream_output_adapter@_W@__crt_stdio_output@@@2@@1@AEAA_NXZ@@Z 000000018005daf0 f i libucrtd:output.obj
 0001:0005cb00       ??$get_parameter_type@Uansi_string@?1??type_case_Z@?$output_processor@_WV?$string_output_adapter@_W@__crt_stdio_output@@V?$positional_parameter_base@_WV?$string_output_adapter@_W@__crt_stdio_output@@@2@@__crt_stdio_output@@AEAA_NXZ@@?$positional_parameter_base@_WV?$string_output_adapter@_W@__crt_stdio_output@@@__crt_stdio_output@@CA?AW4parameter_type@01@PEAUansi_string@?1??type_case_Z@?$output_processor@_WV?$string_output_adapter@_W@__crt_stdio_output@@V?$positional_parameter_base@_WV?$string_output_adapter@_W@__crt_stdio_output@@@2@@1@AEAA_NXZ@@Z 000000018005db00 f i libucrtd:output.obj
 0001:0005cb10       ??$get_parameter_type@X@?$positional_parameter_base@DV?$stream_output_adapter@D@__crt_stdio_output@@@__crt_stdio_output@@CA?AW4parameter_type@01@PEAX@Z 000000018005db10 f i libucrtd:output.obj
 0001:0005cb20       ??$get_parameter_type@X@?$positional_parameter_base@DV?$string_output_adapter@D@__crt_stdio_output@@@__crt_stdio_output@@CA?AW4parameter_type@01@PEAX@Z 000000018005db20 f i libucrtd:output.obj
 0001:0005cb30       ??$get_parameter_type@X@?$positional_parameter_base@_WV?$stream_output_adapter@_W@__crt_stdio_output@@@__crt_stdio_output@@CA?AW4parameter_type@01@PEAX@Z 000000018005db30 f i libucrtd:output.obj
 0001:0005cb40       ??$get_parameter_type@X@?$positional_parameter_base@_WV?$string_output_adapter@_W@__crt_stdio_output@@@__crt_stdio_output@@CA?AW4parameter_type@01@PEAX@Z 000000018005db40 f i libucrtd:output.obj
 0001:0005cb50       ??$is_character_specifier@D@?$positional_parameter_base@DV?$stream_output_adapter@D@__crt_stdio_output@@@__crt_stdio_output@@CA_ND@Z 000000018005db50 f i libucrtd:output.obj
 0001:0005cb90       ??$is_character_specifier@D@?$positional_parameter_base@DV?$string_output_adapter@D@__crt_stdio_output@@@__crt_stdio_output@@CA_ND@Z 000000018005db90 f i libucrtd:output.obj
 0001:0005cbd0       ??$is_character_specifier@_W@?$positional_parameter_base@_WV?$stream_output_adapter@_W@__crt_stdio_output@@@__crt_stdio_output@@CA_N_W@Z 000000018005dbd0 f i libucrtd:output.obj
 0001:0005cc10       ??$is_character_specifier@_W@?$positional_parameter_base@_WV?$string_output_adapter@_W@__crt_stdio_output@@@__crt_stdio_output@@CA_N_W@Z 000000018005dc10 f i libucrtd:output.obj
 0001:0005cc50       ??$is_integral_specifier@D@?$positional_parameter_base@DV?$stream_output_adapter@D@__crt_stdio_output@@@__crt_stdio_output@@CA_ND@Z 000000018005dc50 f i libucrtd:output.obj
 0001:0005ccc0       ??$is_integral_specifier@D@?$positional_parameter_base@DV?$string_output_adapter@D@__crt_stdio_output@@@__crt_stdio_output@@CA_ND@Z 000000018005dcc0 f i libucrtd:output.obj
 0001:0005cd30       ??$is_integral_specifier@_W@?$positional_parameter_base@_WV?$stream_output_adapter@_W@__crt_stdio_output@@@__crt_stdio_output@@CA_N_W@Z 000000018005dd30 f i libucrtd:output.obj
 0001:0005cda0       ??$is_integral_specifier@_W@?$positional_parameter_base@_WV?$string_output_adapter@_W@__crt_stdio_output@@@__crt_stdio_output@@CA_N_W@Z 000000018005dda0 f i libucrtd:output.obj
 0001:0005ce10       ??$is_pointer_specifier@D@?$positional_parameter_base@DV?$stream_output_adapter@D@__crt_stdio_output@@@__crt_stdio_output@@CA_ND@Z 000000018005de10 f i libucrtd:output.obj
 0001:0005ce40       ??$is_pointer_specifier@D@?$positional_parameter_base@DV?$string_output_adapter@D@__crt_stdio_output@@@__crt_stdio_output@@CA_ND@Z 000000018005de40 f i libucrtd:output.obj
 0001:0005ce70       ??$is_pointer_specifier@_W@?$positional_parameter_base@_WV?$stream_output_adapter@_W@__crt_stdio_output@@@__crt_stdio_output@@CA_N_W@Z 000000018005de70 f i libucrtd:output.obj
 0001:0005cea0       ??$is_pointer_specifier@_W@?$positional_parameter_base@_WV?$string_output_adapter@_W@__crt_stdio_output@@@__crt_stdio_output@@CA_N_W@Z 000000018005dea0 f i libucrtd:output.obj
 0001:0005ced0       ??$is_string_specifier@D@?$positional_parameter_base@DV?$stream_output_adapter@D@__crt_stdio_output@@@__crt_stdio_output@@CA_ND@Z 000000018005ded0 f i libucrtd:output.obj
 0001:0005cf10       ??$is_string_specifier@D@?$positional_parameter_base@DV?$string_output_adapter@D@__crt_stdio_output@@@__crt_stdio_output@@CA_ND@Z 000000018005df10 f i libucrtd:output.obj
 0001:0005cf50       ??$is_string_specifier@_W@?$positional_parameter_base@_WV?$stream_output_adapter@_W@__crt_stdio_output@@@__crt_stdio_output@@CA_N_W@Z 000000018005df50 f i libucrtd:output.obj
 0001:0005cf90       ??$is_string_specifier@_W@?$positional_parameter_base@_WV?$string_output_adapter@_W@__crt_stdio_output@@@__crt_stdio_output@@CA_N_W@Z 000000018005df90 f i libucrtd:output.obj
 0001:0005cfd0       ??$is_wide_character_specifier@D@__crt_stdio_output@@YA_N_KDW4length_modifier@0@@Z 000000018005dfd0 f i libucrtd:output.obj
 0001:0005d070       ??$is_wide_character_specifier@_W@__crt_stdio_output@@YA_N_K_WW4length_modifier@0@@Z 000000018005e070 f i libucrtd:output.obj
 0001:0005d140       ??$peek_va_arg@C@__crt_stdio_output@@YACPEAD@Z 000000018005e140 f i libucrtd:output.obj
 0001:0005d1a0       ??$peek_va_arg@E@__crt_stdio_output@@YAEPEAD@Z 000000018005e1a0 f i libucrtd:output.obj
 0001:0005d200       ??$peek_va_arg@F@__crt_stdio_output@@YAFPEAD@Z 000000018005e200 f i libucrtd:output.obj
 0001:0005d260       ??$peek_va_arg@G@__crt_stdio_output@@YAGPEAD@Z 000000018005e260 f i libucrtd:output.obj
 0001:0005d2c0       ??$peek_va_arg@H@__crt_stdio_output@@YAHPEAD@Z 000000018005e2c0 f i libucrtd:output.obj
 0001:0005d310       ??$peek_va_arg@I@__crt_stdio_output@@YAIPEAD@Z 000000018005e310 f i libucrtd:output.obj
 0001:0005d360       ??$peek_va_arg@PEAD@__crt_stdio_output@@YAPEADPEAD@Z 000000018005e360 f i libucrtd:output.obj
 0001:0005d3c0       ??$peek_va_arg@PEAUansi_string@?1??type_case_Z@?$output_processor@DV?$stream_output_adapter@D@__crt_stdio_output@@V?$positional_parameter_base@DV?$stream_output_adapter@D@__crt_stdio_output@@@2@@__crt_stdio_output@@AEAA_NXZ@@__crt_stdio_output@@YAPEAUansi_string@?1??type_case_Z@?$output_processor@DV?$stream_output_adapter@D@__crt_stdio_output@@V?$positional_parameter_base@DV?$stream_output_adapter@D@__crt_stdio_output@@@2@@0@AEAA_NXZ@PEAD@Z 000000018005e3c0 f i libucrtd:output.obj
 0001:0005d420       ??$peek_va_arg@PEAUansi_string@?1??type_case_Z@?$output_processor@DV?$string_output_adapter@D@__crt_stdio_output@@V?$positional_parameter_base@DV?$string_output_adapter@D@__crt_stdio_output@@@2@@__crt_stdio_output@@AEAA_NXZ@@__crt_stdio_output@@YAPEAUansi_string@?1??type_case_Z@?$output_processor@DV?$string_output_adapter@D@__crt_stdio_output@@V?$positional_parameter_base@DV?$string_output_adapter@D@__crt_stdio_output@@@2@@0@AEAA_NXZ@PEAD@Z 000000018005e420 f i libucrtd:output.obj
 0001:0005d480       ??$peek_va_arg@PEAUansi_string@?1??type_case_Z@?$output_processor@_WV?$stream_output_adapter@_W@__crt_stdio_output@@V?$positional_parameter_base@_WV?$stream_output_adapter@_W@__crt_stdio_output@@@2@@__crt_stdio_output@@AEAA_NXZ@@__crt_stdio_output@@YAPEAUansi_string@?1??type_case_Z@?$output_processor@_WV?$stream_output_adapter@_W@__crt_stdio_output@@V?$positional_parameter_base@_WV?$stream_output_adapter@_W@__crt_stdio_output@@@2@@0@AEAA_NXZ@PEAD@Z 000000018005e480 f i libucrtd:output.obj
 0001:0005d4e0       ??$peek_va_arg@PEAUansi_string@?1??type_case_Z@?$output_processor@_WV?$string_output_adapter@_W@__crt_stdio_output@@V?$positional_parameter_base@_WV?$string_output_adapter@_W@__crt_stdio_output@@@2@@__crt_stdio_output@@AEAA_NXZ@@__crt_stdio_output@@YAPEAUansi_string@?1??type_case_Z@?$output_processor@_WV?$string_output_adapter@_W@__crt_stdio_output@@V?$positional_parameter_base@_WV?$string_output_adapter@_W@__crt_stdio_output@@@2@@0@AEAA_NXZ@PEAD@Z 000000018005e4e0 f i libucrtd:output.obj
 0001:0005d540       ??$peek_va_arg@PEAX@__crt_stdio_output@@YAPEAXPEAD@Z 000000018005e540 f i libucrtd:output.obj
 0001:0005d5a0       ??$peek_va_arg@U_CRT_DOUBLE@@@__crt_stdio_output@@YA?AU_CRT_DOUBLE@@PEAD@Z 000000018005e5a0 f i libucrtd:output.obj
 0001:0005d600       ??$peek_va_arg@_J@__crt_stdio_output@@YA_JPEAD@Z 000000018005e600 f i libucrtd:output.obj
 0001:0005d660       ??$peek_va_arg@_K@__crt_stdio_output@@YA_KPEAD@Z 000000018005e660 f i libucrtd:output.obj
 0001:0005d6c0       ??$peek_va_arg@_W@__crt_stdio_output@@YA_WPEAD@Z 000000018005e6c0 f i libucrtd:output.obj
 0001:0005d720       ??$puttc_nolock@AEBDPEAU_iobuf@@@?$__crt_char_traits@D@@SAHAEBD$$QEAPEAU_iobuf@@@Z 000000018005e720 f i libucrtd:output.obj
 0001:0005d750       ??$puttc_nolock@AEB_WPEAU_iobuf@@@?$__crt_char_traits@_W@@SAGAEB_W$$QEAPEAU_iobuf@@@Z 000000018005e750 f i libucrtd:output.obj
 0001:0005d780       ??$read_va_arg@C@__crt_stdio_output@@YACAEAPEAD@Z 000000018005e780 f i libucrtd:output.obj
 0001:0005d7f0       ??$read_va_arg@E@__crt_stdio_output@@YAEAEAPEAD@Z 000000018005e7f0 f i libucrtd:output.obj
 0001:0005d860       ??$read_va_arg@F@__crt_stdio_output@@YAFAEAPEAD@Z 000000018005e860 f i libucrtd:output.obj
 0001:0005d8d0       ??$read_va_arg@G@__crt_stdio_output@@YAGAEAPEAD@Z 000000018005e8d0 f i libucrtd:output.obj
 0001:0005d940       ??$read_va_arg@H@__crt_stdio_output@@YAHAEAPEAD@Z 000000018005e940 f i libucrtd:output.obj
 0001:0005d9a0       ??$read_va_arg@I@__crt_stdio_output@@YAIAEAPEAD@Z 000000018005e9a0 f i libucrtd:output.obj
 0001:0005da00       ??$read_va_arg@PEAD@__crt_stdio_output@@YAPEADAEAPEAD@Z 000000018005ea00 f i libucrtd:output.obj
 0001:0005da70       ??$read_va_arg@PEAUansi_string@?1??type_case_Z@?$output_processor@DV?$stream_output_adapter@D@__crt_stdio_output@@V?$format_validation_base@DV?$stream_output_adapter@D@__crt_stdio_output@@@2@@__crt_stdio_output@@AEAA_NXZ@@__crt_stdio_output@@YAPEAUansi_string@?1??type_case_Z@?$output_processor@DV?$stream_output_adapter@D@__crt_stdio_output@@V?$format_validation_base@DV?$stream_output_adapter@D@__crt_stdio_output@@@2@@0@AEAA_NXZ@AEAPEAD@Z 000000018005ea70 f i libucrtd:output.obj
 0001:0005dae0       ??$read_va_arg@PEAUansi_string@?1??type_case_Z@?$output_processor@DV?$stream_output_adapter@D@__crt_stdio_output@@V?$positional_parameter_base@DV?$stream_output_adapter@D@__crt_stdio_output@@@2@@__crt_stdio_output@@AEAA_NXZ@@__crt_stdio_output@@YAPEAUansi_string@?1??type_case_Z@?$output_processor@DV?$stream_output_adapter@D@__crt_stdio_output@@V?$positional_parameter_base@DV?$stream_output_adapter@D@__crt_stdio_output@@@2@@0@AEAA_NXZ@AEAPEAD@Z 000000018005eae0 f i libucrtd:output.obj
 0001:0005db50       ??$read_va_arg@PEAUansi_string@?1??type_case_Z@?$output_processor@DV?$stream_output_adapter@D@__crt_stdio_output@@V?$standard_base@DV?$stream_output_adapter@D@__crt_stdio_output@@@2@@__crt_stdio_output@@AEAA_NXZ@@__crt_stdio_output@@YAPEAUansi_string@?1??type_case_Z@?$output_processor@DV?$stream_output_adapter@D@__crt_stdio_output@@V?$standard_base@DV?$stream_output_adapter@D@__crt_stdio_output@@@2@@0@AEAA_NXZ@AEAPEAD@Z 000000018005eb50 f i libucrtd:output.obj
 0001:0005dbc0       ??$read_va_arg@PEAUansi_string@?1??type_case_Z@?$output_processor@DV?$string_output_adapter@D@__crt_stdio_output@@V?$format_validation_base@DV?$string_output_adapter@D@__crt_stdio_output@@@2@@__crt_stdio_output@@AEAA_NXZ@@__crt_stdio_output@@YAPEAUansi_string@?1??type_case_Z@?$output_processor@DV?$string_output_adapter@D@__crt_stdio_output@@V?$format_validation_base@DV?$string_output_adapter@D@__crt_stdio_output@@@2@@0@AEAA_NXZ@AEAPEAD@Z 000000018005ebc0 f i libucrtd:output.obj
 0001:0005dc30       ??$read_va_arg@PEAUansi_string@?1??type_case_Z@?$output_processor@DV?$string_output_adapter@D@__crt_stdio_output@@V?$positional_parameter_base@DV?$string_output_adapter@D@__crt_stdio_output@@@2@@__crt_stdio_output@@AEAA_NXZ@@__crt_stdio_output@@YAPEAUansi_string@?1??type_case_Z@?$output_processor@DV?$string_output_adapter@D@__crt_stdio_output@@V?$positional_parameter_base@DV?$string_output_adapter@D@__crt_stdio_output@@@2@@0@AEAA_NXZ@AEAPEAD@Z 000000018005ec30 f i libucrtd:output.obj
 0001:0005dca0       ??$read_va_arg@PEAUansi_string@?1??type_case_Z@?$output_processor@DV?$string_output_adapter@D@__crt_stdio_output@@V?$standard_base@DV?$string_output_adapter@D@__crt_stdio_output@@@2@@__crt_stdio_output@@AEAA_NXZ@@__crt_stdio_output@@YAPEAUansi_string@?1??type_case_Z@?$output_processor@DV?$string_output_adapter@D@__crt_stdio_output@@V?$standard_base@DV?$string_output_adapter@D@__crt_stdio_output@@@2@@0@AEAA_NXZ@AEAPEAD@Z 000000018005eca0 f i libucrtd:output.obj
 0001:0005dd10       ??$read_va_arg@PEAUansi_string@?1??type_case_Z@?$output_processor@_WV?$stream_output_adapter@_W@__crt_stdio_output@@V?$format_validation_base@_WV?$stream_output_adapter@_W@__crt_stdio_output@@@2@@__crt_stdio_output@@AEAA_NXZ@@__crt_stdio_output@@YAPEAUansi_string@?1??type_case_Z@?$output_processor@_WV?$stream_output_adapter@_W@__crt_stdio_output@@V?$format_validation_base@_WV?$stream_output_adapter@_W@__crt_stdio_output@@@2@@0@AEAA_NXZ@AEAPEAD@Z 000000018005ed10 f i libucrtd:output.obj
 0001:0005dd80       ??$read_va_arg@PEAUansi_string@?1??type_case_Z@?$output_processor@_WV?$stream_output_adapter@_W@__crt_stdio_output@@V?$positional_parameter_base@_WV?$stream_output_adapter@_W@__crt_stdio_output@@@2@@__crt_stdio_output@@AEAA_NXZ@@__crt_stdio_output@@YAPEAUansi_string@?1??type_case_Z@?$output_processor@_WV?$stream_output_adapter@_W@__crt_stdio_output@@V?$positional_parameter_base@_WV?$stream_output_adapter@_W@__crt_stdio_output@@@2@@0@AEAA_NXZ@AEAPEAD@Z 000000018005ed80 f i libucrtd:output.obj
 0001:0005ddf0       ??$read_va_arg@PEAUansi_string@?1??type_case_Z@?$output_processor@_WV?$stream_output_adapter@_W@__crt_stdio_output@@V?$standard_base@_WV?$stream_output_adapter@_W@__crt_stdio_output@@@2@@__crt_stdio_output@@AEAA_NXZ@@__crt_stdio_output@@YAPEAUansi_string@?1??type_case_Z@?$output_processor@_WV?$stream_output_adapter@_W@__crt_stdio_output@@V?$standard_base@_WV?$stream_output_adapter@_W@__crt_stdio_output@@@2@@0@AEAA_NXZ@AEAPEAD@Z 000000018005edf0 f i libucrtd:output.obj
 0001:0005de60       ??$read_va_arg@PEAUansi_string@?1??type_case_Z@?$output_processor@_WV?$string_output_adapter@_W@__crt_stdio_output@@V?$format_validation_base@_WV?$string_output_adapter@_W@__crt_stdio_output@@@2@@__crt_stdio_output@@AEAA_NXZ@@__crt_stdio_output@@YAPEAUansi_string@?1??type_case_Z@?$output_processor@_WV?$string_output_adapter@_W@__crt_stdio_output@@V?$format_validation_base@_WV?$string_output_adapter@_W@__crt_stdio_output@@@2@@0@AEAA_NXZ@AEAPEAD@Z 000000018005ee60 f i libucrtd:output.obj
 0001:0005ded0       ??$read_va_arg@PEAUansi_string@?1??type_case_Z@?$output_processor@_WV?$string_output_adapter@_W@__crt_stdio_output@@V?$positional_parameter_base@_WV?$string_output_adapter@_W@__crt_stdio_output@@@2@@__crt_stdio_output@@AEAA_NXZ@@__crt_stdio_output@@YAPEAUansi_string@?1??type_case_Z@?$output_processor@_WV?$string_output_adapter@_W@__crt_stdio_output@@V?$positional_parameter_base@_WV?$string_output_adapter@_W@__crt_stdio_output@@@2@@0@AEAA_NXZ@AEAPEAD@Z 000000018005eed0 f i libucrtd:output.obj
 0001:0005df40       ??$read_va_arg@PEAUansi_string@?1??type_case_Z@?$output_processor@_WV?$string_output_adapter@_W@__crt_stdio_output@@V?$standard_base@_WV?$string_output_adapter@_W@__crt_stdio_output@@@2@@__crt_stdio_output@@AEAA_NXZ@@__crt_stdio_output@@YAPEAUansi_string@?1??type_case_Z@?$output_processor@_WV?$string_output_adapter@_W@__crt_stdio_output@@V?$standard_base@_WV?$string_output_adapter@_W@__crt_stdio_output@@@2@@0@AEAA_NXZ@AEAPEAD@Z 000000018005ef40 f i libucrtd:output.obj
 0001:0005dfb0       ??$read_va_arg@PEAX@__crt_stdio_output@@YAPEAXAEAPEAD@Z 000000018005efb0 f i libucrtd:output.obj
 0001:0005e020       ??$read_va_arg@U_CRT_DOUBLE@@@__crt_stdio_output@@YA?AU_CRT_DOUBLE@@AEAPEAD@Z 000000018005f020 f i libucrtd:output.obj
 0001:0005e090       ??$read_va_arg@_J@__crt_stdio_output@@YA_JAEAPEAD@Z 000000018005f090 f i libucrtd:output.obj
 0001:0005e100       ??$read_va_arg@_K@__crt_stdio_output@@YA_KAEAPEAD@Z 000000018005f100 f i libucrtd:output.obj
 0001:0005e170       ??$read_va_arg@_W@__crt_stdio_output@@YA_WAEAPEAD@Z 000000018005f170 f i libucrtd:output.obj
 0001:0005e1e0       ??$scratch_count@D@formatting_buffer@__crt_stdio_output@@QEBA_KXZ 000000018005f1e0 f i libucrtd:output.obj
 0001:0005e200       ??$scratch_data@D@formatting_buffer@__crt_stdio_output@@QEAAPEADXZ 000000018005f200 f i libucrtd:output.obj
 0001:0005e270       ??$tcstol@AEAPEBDPEAPEADH@?$__crt_char_traits@D@@SAJAEAPEBD$$QEAPEAPEAD$$QEAH@Z 000000018005f270 f i libucrtd:output.obj
 0001:0005e2b0       ??$tcstol@AEAPEB_WPEAPEA_WH@?$__crt_char_traits@_W@@SAJAEAPEB_W$$QEAPEAPEA_W$$QEAH@Z 000000018005f2b0 f i libucrtd:output.obj
 0001:0005e2f0       ??$tcstol@PEBDPEAPEADH@?$__crt_char_traits@D@@SAJ$$QEAPEBD$$QEAPEAPEAD$$QEAH@Z 000000018005f2f0 f i libucrtd:output.obj
 0001:0005e330       ??$tcstol@PEB_WPEAPEA_WH@?$__crt_char_traits@_W@@SAJ$$QEAPEB_W$$QEAPEAPEA_W$$QEAH@Z 000000018005f330 f i libucrtd:output.obj
 0001:0005e370       ??$type_case_integer_parse_into_buffer@I@?$output_processor@DV?$stream_output_adapter@D@__crt_stdio_output@@V?$format_validation_base@DV?$stream_output_adapter@D@__crt_stdio_output@@@2@@__crt_stdio_output@@AEAAXII_N@Z 000000018005f370 f i libucrtd:output.obj
 0001:0005e4a0       ??$type_case_integer_parse_into_buffer@I@?$output_processor@DV?$stream_output_adapter@D@__crt_stdio_output@@V?$positional_parameter_base@DV?$stream_output_adapter@D@__crt_stdio_output@@@2@@__crt_stdio_output@@AEAAXII_N@Z 000000018005f4a0 f i libucrtd:output.obj
 0001:0005e5d0       ??$type_case_integer_parse_into_buffer@I@?$output_processor@DV?$stream_output_adapter@D@__crt_stdio_output@@V?$standard_base@DV?$stream_output_adapter@D@__crt_stdio_output@@@2@@__crt_stdio_output@@AEAAXII_N@Z 000000018005f5d0 f i libucrtd:output.obj
 0001:0005e700       ??$type_case_integer_parse_into_buffer@I@?$output_processor@DV?$string_output_adapter@D@__crt_stdio_output@@V?$format_validation_base@DV?$string_output_adapter@D@__crt_stdio_output@@@2@@__crt_stdio_output@@AEAAXII_N@Z 000000018005f700 f i libucrtd:output.obj
 0001:0005e830       ??$type_case_integer_parse_into_buffer@I@?$output_processor@DV?$string_output_adapter@D@__crt_stdio_output@@V?$positional_parameter_base@DV?$string_output_adapter@D@__crt_stdio_output@@@2@@__crt_stdio_output@@AEAAXII_N@Z 000000018005f830 f i libucrtd:output.obj
 0001:0005e960       ??$type_case_integer_parse_into_buffer@I@?$output_processor@DV?$string_output_adapter@D@__crt_stdio_output@@V?$standard_base@DV?$string_output_adapter@D@__crt_stdio_output@@@2@@__crt_stdio_output@@AEAAXII_N@Z 000000018005f960 f i libucrtd:output.obj
 0001:0005ea90       ??$type_case_integer_parse_into_buffer@I@?$output_processor@_WV?$stream_output_adapter@_W@__crt_stdio_output@@V?$format_validation_base@_WV?$stream_output_adapter@_W@__crt_stdio_output@@@2@@__crt_stdio_output@@AEAAXII_N@Z 000000018005fa90 f i libucrtd:output.obj
 0001:0005ebd0       ??$type_case_integer_parse_into_buffer@I@?$output_processor@_WV?$stream_output_adapter@_W@__crt_stdio_output@@V?$positional_parameter_base@_WV?$stream_output_adapter@_W@__crt_stdio_output@@@2@@__crt_stdio_output@@AEAAXII_N@Z 000000018005fbd0 f i libucrtd:output.obj
 0001:0005ed10       ??$type_case_integer_parse_into_buffer@I@?$output_processor@_WV?$stream_output_adapter@_W@__crt_stdio_output@@V?$standard_base@_WV?$stream_output_adapter@_W@__crt_stdio_output@@@2@@__crt_stdio_output@@AEAAXII_N@Z 000000018005fd10 f i libucrtd:output.obj
 0001:0005ee50       ??$type_case_integer_parse_into_buffer@I@?$output_processor@_WV?$string_output_adapter@_W@__crt_stdio_output@@V?$format_validation_base@_WV?$string_output_adapter@_W@__crt_stdio_output@@@2@@__crt_stdio_output@@AEAAXII_N@Z 000000018005fe50 f i libucrtd:output.obj
 0001:0005ef90       ??$type_case_integer_parse_into_buffer@I@?$output_processor@_WV?$string_output_adapter@_W@__crt_stdio_output@@V?$positional_parameter_base@_WV?$string_output_adapter@_W@__crt_stdio_output@@@2@@__crt_stdio_output@@AEAAXII_N@Z 000000018005ff90 f i libucrtd:output.obj
 0001:0005f0d0       ??$type_case_integer_parse_into_buffer@I@?$output_processor@_WV?$string_output_adapter@_W@__crt_stdio_output@@V?$standard_base@_WV?$string_output_adapter@_W@__crt_stdio_output@@@2@@__crt_stdio_output@@AEAAXII_N@Z 00000001800600d0 f i libucrtd:output.obj
 0001:0005f210       ??$type_case_integer_parse_into_buffer@_K@?$output_processor@DV?$stream_output_adapter@D@__crt_stdio_output@@V?$format_validation_base@DV?$stream_output_adapter@D@__crt_stdio_output@@@2@@__crt_stdio_output@@AEAAX_KI_N@Z 0000000180060210 f i libucrtd:output.obj
 0001:0005f360       ??$type_case_integer_parse_into_buffer@_K@?$output_processor@DV?$stream_output_adapter@D@__crt_stdio_output@@V?$positional_parameter_base@DV?$stream_output_adapter@D@__crt_stdio_output@@@2@@__crt_stdio_output@@AEAAX_KI_N@Z 0000000180060360 f i libucrtd:output.obj
 0001:0005f4b0       ??$type_case_integer_parse_into_buffer@_K@?$output_processor@DV?$stream_output_adapter@D@__crt_stdio_output@@V?$standard_base@DV?$stream_output_adapter@D@__crt_stdio_output@@@2@@__crt_stdio_output@@AEAAX_KI_N@Z 00000001800604b0 f i libucrtd:output.obj
 0001:0005f600       ??$type_case_integer_parse_into_buffer@_K@?$output_processor@DV?$string_output_adapter@D@__crt_stdio_output@@V?$format_validation_base@DV?$string_output_adapter@D@__crt_stdio_output@@@2@@__crt_stdio_output@@AEAAX_KI_N@Z 0000000180060600 f i libucrtd:output.obj
 0001:0005f750       ??$type_case_integer_parse_into_buffer@_K@?$output_processor@DV?$string_output_adapter@D@__crt_stdio_output@@V?$positional_parameter_base@DV?$string_output_adapter@D@__crt_stdio_output@@@2@@__crt_stdio_output@@AEAAX_KI_N@Z 0000000180060750 f i libucrtd:output.obj
 0001:0005f8a0       ??$type_case_integer_parse_into_buffer@_K@?$output_processor@DV?$string_output_adapter@D@__crt_stdio_output@@V?$standard_base@DV?$string_output_adapter@D@__crt_stdio_output@@@2@@__crt_stdio_output@@AEAAX_KI_N@Z 00000001800608a0 f i libucrtd:output.obj
 0001:0005f9f0       ??$type_case_integer_parse_into_buffer@_K@?$output_processor@_WV?$stream_output_adapter@_W@__crt_stdio_output@@V?$format_validation_base@_WV?$stream_output_adapter@_W@__crt_stdio_output@@@2@@__crt_stdio_output@@AEAAX_KI_N@Z 00000001800609f0 f i libucrtd:output.obj
 0001:0005fb50       ??$type_case_integer_parse_into_buffer@_K@?$output_processor@_WV?$stream_output_adapter@_W@__crt_stdio_output@@V?$positional_parameter_base@_WV?$stream_output_adapter@_W@__crt_stdio_output@@@2@@__crt_stdio_output@@AEAAX_KI_N@Z 0000000180060b50 f i libucrtd:output.obj
 0001:0005fcb0       ??$type_case_integer_parse_into_buffer@_K@?$output_processor@_WV?$stream_output_adapter@_W@__crt_stdio_output@@V?$standard_base@_WV?$stream_output_adapter@_W@__crt_stdio_output@@@2@@__crt_stdio_output@@AEAAX_KI_N@Z 0000000180060cb0 f i libucrtd:output.obj
 0001:0005fe10       ??$type_case_integer_parse_into_buffer@_K@?$output_processor@_WV?$string_output_adapter@_W@__crt_stdio_output@@V?$format_validation_base@_WV?$string_output_adapter@_W@__crt_stdio_output@@@2@@__crt_stdio_output@@AEAAX_KI_N@Z 0000000180060e10 f i libucrtd:output.obj
 0001:0005ff70       ??$type_case_integer_parse_into_buffer@_K@?$output_processor@_WV?$string_output_adapter@_W@__crt_stdio_output@@V?$positional_parameter_base@_WV?$string_output_adapter@_W@__crt_stdio_output@@@2@@__crt_stdio_output@@AEAAX_KI_N@Z 0000000180060f70 f i libucrtd:output.obj
 0001:000600d0       ??$type_case_integer_parse_into_buffer@_K@?$output_processor@_WV?$string_output_adapter@_W@__crt_stdio_output@@V?$standard_base@_WV?$string_output_adapter@_W@__crt_stdio_output@@@2@@__crt_stdio_output@@AEAAX_KI_N@Z 00000001800610d0 f i libucrtd:output.obj
 0001:00060230       ??$write_multiple_characters@V?$stream_output_adapter@D@__crt_stdio_output@@D@__crt_stdio_output@@YAXAEBV?$stream_output_adapter@D@0@DHQEAH@Z 0000000180061230 f i libucrtd:output.obj
 0001:00060290       ??$write_multiple_characters@V?$stream_output_adapter@_W@__crt_stdio_output@@D@__crt_stdio_output@@YAXAEBV?$stream_output_adapter@_W@0@DHQEAH@Z 0000000180061290 f i libucrtd:output.obj
 0001:000602f0       ??$write_multiple_characters@V?$string_output_adapter@D@__crt_stdio_output@@D@__crt_stdio_output@@YAXAEBV?$string_output_adapter@D@0@DHQEAH@Z 00000001800612f0 f i libucrtd:output.obj
 0001:00060350       ??$write_multiple_characters@V?$string_output_adapter@_W@__crt_stdio_output@@D@__crt_stdio_output@@YAXAEBV?$string_output_adapter@_W@0@DHQEAH@Z 0000000180061350 f i libucrtd:output.obj
 0001:00060770       ??0?$common_data@D@__crt_stdio_output@@IEAA@XZ 0000000180061770 f i libucrtd:output.obj
 0001:00060840       ??0?$common_data@_W@__crt_stdio_output@@IEAA@XZ 0000000180061840 f i libucrtd:output.obj
 0001:00060910       ??0?$output_adapter_data@DV?$stream_output_adapter@D@__crt_stdio_output@@@__crt_stdio_output@@IEAA@AEBV?$stream_output_adapter@D@1@_KQEBDQEAU__crt_locale_pointers@@QEAD@Z 0000000180061910 f i libucrtd:output.obj
 0001:00060990       ??0?$output_adapter_data@DV?$string_output_adapter@D@__crt_stdio_output@@@__crt_stdio_output@@IEAA@AEBV?$string_output_adapter@D@1@_KQEBDQEAU__crt_locale_pointers@@QEAD@Z 0000000180061990 f i libucrtd:output.obj
 0001:00060a10       ??0?$output_adapter_data@_WV?$stream_output_adapter@_W@__crt_stdio_output@@@__crt_stdio_output@@IEAA@AEBV?$stream_output_adapter@_W@1@_KQEB_WQEAU__crt_locale_pointers@@QEAD@Z 0000000180061a10 f i libucrtd:output.obj
 0001:00060a90       ??0?$output_adapter_data@_WV?$string_output_adapter@_W@__crt_stdio_output@@@__crt_stdio_output@@IEAA@AEBV?$string_output_adapter@_W@1@_KQEB_WQEAU__crt_locale_pointers@@QEAD@Z 0000000180061a90 f i libucrtd:output.obj
 0001:00060b10       ??0?$output_processor@DV?$stream_output_adapter@D@__crt_stdio_output@@V?$format_validation_base@DV?$stream_output_adapter@D@__crt_stdio_output@@@2@@__crt_stdio_output@@QEAA@AEBV?$stream_output_adapter@D@1@_KQEBDQEAU__crt_locale_pointers@@QEAD@Z 0000000180061b10 f i libucrtd:output.obj
 0001:00060b60       ??0?$output_processor@DV?$stream_output_adapter@D@__crt_stdio_output@@V?$positional_parameter_base@DV?$stream_output_adapter@D@__crt_stdio_output@@@2@@__crt_stdio_output@@QEAA@AEBV?$stream_output_adapter@D@1@_KQEBDQEAU__crt_locale_pointers@@QEAD@Z 0000000180061b60 f i libucrtd:output.obj
 0001:00060bb0       ??0?$output_processor@DV?$stream_output_adapter@D@__crt_stdio_output@@V?$standard_base@DV?$stream_output_adapter@D@__crt_stdio_output@@@2@@__crt_stdio_output@@QEAA@AEBV?$stream_output_adapter@D@1@_KQEBDQEAU__crt_locale_pointers@@QEAD@Z 0000000180061bb0 f i libucrtd:output.obj
 0001:00060c00       ??0?$output_processor@DV?$string_output_adapter@D@__crt_stdio_output@@V?$format_validation_base@DV?$string_output_adapter@D@__crt_stdio_output@@@2@@__crt_stdio_output@@QEAA@AEBV?$string_output_adapter@D@1@_KQEBDQEAU__crt_locale_pointers@@QEAD@Z 0000000180061c00 f i libucrtd:output.obj
 0001:00060c50       ??0?$output_processor@DV?$string_output_adapter@D@__crt_stdio_output@@V?$positional_parameter_base@DV?$string_output_adapter@D@__crt_stdio_output@@@2@@__crt_stdio_output@@QEAA@AEBV?$string_output_adapter@D@1@_KQEBDQEAU__crt_locale_pointers@@QEAD@Z 0000000180061c50 f i libucrtd:output.obj
 0001:00060ca0       ??0?$output_processor@DV?$string_output_adapter@D@__crt_stdio_output@@V?$standard_base@DV?$string_output_adapter@D@__crt_stdio_output@@@2@@__crt_stdio_output@@QEAA@AEBV?$string_output_adapter@D@1@_KQEBDQEAU__crt_locale_pointers@@QEAD@Z 0000000180061ca0 f i libucrtd:output.obj
 0001:00060cf0       ??0?$output_processor@_WV?$stream_output_adapter@_W@__crt_stdio_output@@V?$format_validation_base@_WV?$stream_output_adapter@_W@__crt_stdio_output@@@2@@__crt_stdio_output@@QEAA@AEBV?$stream_output_adapter@_W@1@_KQEB_WQEAU__crt_locale_pointers@@QEAD@Z 0000000180061cf0 f i libucrtd:output.obj
 0001:00060d40       ??0?$output_processor@_WV?$stream_output_adapter@_W@__crt_stdio_output@@V?$positional_parameter_base@_WV?$stream_output_adapter@_W@__crt_stdio_output@@@2@@__crt_stdio_output@@QEAA@AEBV?$stream_output_adapter@_W@1@_KQEB_WQEAU__crt_locale_pointers@@QEAD@Z 0000000180061d40 f i libucrtd:output.obj
 0001:00060d90       ??0?$output_processor@_WV?$stream_output_adapter@_W@__crt_stdio_output@@V?$standard_base@_WV?$stream_output_adapter@_W@__crt_stdio_output@@@2@@__crt_stdio_output@@QEAA@AEBV?$stream_output_adapter@_W@1@_KQEB_WQEAU__crt_locale_pointers@@QEAD@Z 0000000180061d90 f i libucrtd:output.obj
 0001:00060de0       ??0?$output_processor@_WV?$string_output_adapter@_W@__crt_stdio_output@@V?$format_validation_base@_WV?$string_output_adapter@_W@__crt_stdio_output@@@2@@__crt_stdio_output@@QEAA@AEBV?$string_output_adapter@_W@1@_KQEB_WQEAU__crt_locale_pointers@@QEAD@Z 0000000180061de0 f i libucrtd:output.obj
 0001:00060e30       ??0?$output_processor@_WV?$string_output_adapter@_W@__crt_stdio_output@@V?$positional_parameter_base@_WV?$string_output_adapter@_W@__crt_stdio_output@@@2@@__crt_stdio_output@@QEAA@AEBV?$string_output_adapter@_W@1@_KQEB_WQEAU__crt_locale_pointers@@QEAD@Z 0000000180061e30 f i libucrtd:output.obj
 0001:00060e80       ??0?$output_processor@_WV?$string_output_adapter@_W@__crt_stdio_output@@V?$standard_base@_WV?$string_output_adapter@_W@__crt_stdio_output@@@2@@__crt_stdio_output@@QEAA@AEBV?$string_output_adapter@_W@1@_KQEB_WQEAU__crt_locale_pointers@@QEAD@Z 0000000180061e80 f i libucrtd:output.obj
 0001:00060ed0       ??0?$stream_output_adapter@D@__crt_stdio_output@@QEAA@QEAU_iobuf@@@Z 0000000180061ed0 f i libucrtd:output.obj
 0001:00060f00       ??0?$stream_output_adapter@_W@__crt_stdio_output@@QEAA@QEAU_iobuf@@@Z 0000000180061f00 f i libucrtd:output.obj
 0001:00060f30       ??0?$string_output_adapter@D@__crt_stdio_output@@QEAA@QEAU?$string_output_adapter_context@D@1@@Z 0000000180061f30 f i libucrtd:output.obj
 0001:00060f50       ??0?$string_output_adapter@_W@__crt_stdio_output@@QEAA@QEAU?$string_output_adapter_context@_W@1@@Z 0000000180061f50 f i libucrtd:output.obj
 0001:00060f70       ??0_LocaleUpdate@@QEAA@QEAU__crt_locale_pointers@@@Z 0000000180061f70 f i libucrtd:output.obj
 0001:00061090       ??0__acrt_stdio_temporary_buffering_guard@@QEAA@QEAU_iobuf@@@Z 0000000180062090 f i libucrtd:output.obj
 0001:000610d0       ??0__crt_deferred_errno_cache@@QEAA@XZ 00000001800620d0 f i libucrtd:output.obj
 0001:000610f0       ??0__crt_errno_guard@@QEAA@QEAH@Z 00000001800620f0 f i libucrtd:output.obj
 0001:00061130       ??0__crt_stdio_stream@@QEAA@QEAU_iobuf@@@Z 0000000180062130 f i libucrtd:output.obj
 0001:00061150       ??0formatting_buffer@__crt_stdio_output@@QEAA@XZ 0000000180062150 f i libucrtd:output.obj
 0001:00061190       ??1?$common_data@D@__crt_stdio_output@@QEAA@XZ 0000000180062190 f i libucrtd:output.obj
 0001:000611b0       ??1?$common_data@_W@__crt_stdio_output@@QEAA@XZ 00000001800621b0 f i libucrtd:output.obj
 0001:000611d0       ??1?$format_validation_base@DV?$stream_output_adapter@D@__crt_stdio_output@@@__crt_stdio_output@@QEAA@XZ 00000001800621d0 f i libucrtd:output.obj
 0001:000611f0       ??1?$format_validation_base@DV?$string_output_adapter@D@__crt_stdio_output@@@__crt_stdio_output@@QEAA@XZ 00000001800621f0 f i libucrtd:output.obj
 0001:00061210       ??1?$format_validation_base@_WV?$stream_output_adapter@_W@__crt_stdio_output@@@__crt_stdio_output@@QEAA@XZ 0000000180062210 f i libucrtd:output.obj
 0001:00061230       ??1?$format_validation_base@_WV?$string_output_adapter@_W@__crt_stdio_output@@@__crt_stdio_output@@QEAA@XZ 0000000180062230 f i libucrtd:output.obj
 0001:00061250       ??1?$output_adapter_data@DV?$stream_output_adapter@D@__crt_stdio_output@@@__crt_stdio_output@@QEAA@XZ 0000000180062250 f i libucrtd:output.obj
 0001:00061270       ??1?$output_adapter_data@DV?$string_output_adapter@D@__crt_stdio_output@@@__crt_stdio_output@@QEAA@XZ 0000000180062270 f i libucrtd:output.obj
 0001:00061290       ??1?$output_adapter_data@_WV?$stream_output_adapter@_W@__crt_stdio_output@@@__crt_stdio_output@@QEAA@XZ 0000000180062290 f i libucrtd:output.obj
 0001:000612b0       ??1?$output_adapter_data@_WV?$string_output_adapter@_W@__crt_stdio_output@@@__crt_stdio_output@@QEAA@XZ 00000001800622b0 f i libucrtd:output.obj
 0001:000612d0       ??1?$output_processor@DV?$stream_output_adapter@D@__crt_stdio_output@@V?$format_validation_base@DV?$stream_output_adapter@D@__crt_stdio_output@@@2@@__crt_stdio_output@@QEAA@XZ 00000001800622d0 f i libucrtd:output.obj
 0001:000612f0       ??1?$output_processor@DV?$stream_output_adapter@D@__crt_stdio_output@@V?$positional_parameter_base@DV?$stream_output_adapter@D@__crt_stdio_output@@@2@@__crt_stdio_output@@QEAA@XZ 00000001800622f0 f i libucrtd:output.obj
 0001:00061310       ??1?$output_processor@DV?$stream_output_adapter@D@__crt_stdio_output@@V?$standard_base@DV?$stream_output_adapter@D@__crt_stdio_output@@@2@@__crt_stdio_output@@QEAA@XZ 0000000180062310 f i libucrtd:output.obj
 0001:00061330       ??1?$output_processor@DV?$string_output_adapter@D@__crt_stdio_output@@V?$format_validation_base@DV?$string_output_adapter@D@__crt_stdio_output@@@2@@__crt_stdio_output@@QEAA@XZ 0000000180062330 f i libucrtd:output.obj
 0001:00061350       ??1?$output_processor@DV?$string_output_adapter@D@__crt_stdio_output@@V?$positional_parameter_base@DV?$string_output_adapter@D@__crt_stdio_output@@@2@@__crt_stdio_output@@QEAA@XZ 0000000180062350 f i libucrtd:output.obj
 0001:00061370       ??1?$output_processor@DV?$string_output_adapter@D@__crt_stdio_output@@V?$standard_base@DV?$string_output_adapter@D@__crt_stdio_output@@@2@@__crt_stdio_output@@QEAA@XZ 0000000180062370 f i libucrtd:output.obj
 0001:00061390       ??1?$output_processor@_WV?$stream_output_adapter@_W@__crt_stdio_output@@V?$format_validation_base@_WV?$stream_output_adapter@_W@__crt_stdio_output@@@2@@__crt_stdio_output@@QEAA@XZ 0000000180062390 f i libucrtd:output.obj
 0001:000613b0       ??1?$output_processor@_WV?$stream_output_adapter@_W@__crt_stdio_output@@V?$positional_parameter_base@_WV?$stream_output_adapter@_W@__crt_stdio_output@@@2@@__crt_stdio_output@@QEAA@XZ 00000001800623b0 f i libucrtd:output.obj
 0001:000613d0       ??1?$output_processor@_WV?$stream_output_adapter@_W@__crt_stdio_output@@V?$standard_base@_WV?$stream_output_adapter@_W@__crt_stdio_output@@@2@@__crt_stdio_output@@QEAA@XZ 00000001800623d0 f i libucrtd:output.obj
 0001:000613f0       ??1?$output_processor@_WV?$string_output_adapter@_W@__crt_stdio_output@@V?$format_validation_base@_WV?$string_output_adapter@_W@__crt_stdio_output@@@2@@__crt_stdio_output@@QEAA@XZ 00000001800623f0 f i libucrtd:output.obj
 0001:00061410       ??1?$output_processor@_WV?$string_output_adapter@_W@__crt_stdio_output@@V?$positional_parameter_base@_WV?$string_output_adapter@_W@__crt_stdio_output@@@2@@__crt_stdio_output@@QEAA@XZ 0000000180062410 f i libucrtd:output.obj
 0001:00061430       ??1?$output_processor@_WV?$string_output_adapter@_W@__crt_stdio_output@@V?$standard_base@_WV?$string_output_adapter@_W@__crt_stdio_output@@@2@@__crt_stdio_output@@QEAA@XZ 0000000180062430 f i libucrtd:output.obj
 0001:00061450       ??1?$positional_parameter_base@DV?$stream_output_adapter@D@__crt_stdio_output@@@__crt_stdio_output@@QEAA@XZ 0000000180062450 f i libucrtd:output.obj
 0001:00061470       ??1?$positional_parameter_base@DV?$string_output_adapter@D@__crt_stdio_output@@@__crt_stdio_output@@QEAA@XZ 0000000180062470 f i libucrtd:output.obj
 0001:00061490       ??1?$positional_parameter_base@_WV?$stream_output_adapter@_W@__crt_stdio_output@@@__crt_stdio_output@@QEAA@XZ 0000000180062490 f i libucrtd:output.obj
 0001:000614b0       ??1?$positional_parameter_base@_WV?$string_output_adapter@_W@__crt_stdio_output@@@__crt_stdio_output@@QEAA@XZ 00000001800624b0 f i libucrtd:output.obj
 0001:000614d0       ??1?$standard_base@DV?$stream_output_adapter@D@__crt_stdio_output@@@__crt_stdio_output@@QEAA@XZ 00000001800624d0 f i libucrtd:output.obj
 0001:000614f0       ??1?$standard_base@DV?$string_output_adapter@D@__crt_stdio_output@@@__crt_stdio_output@@QEAA@XZ 00000001800624f0 f i libucrtd:output.obj
 0001:00061510       ??1?$standard_base@_WV?$stream_output_adapter@_W@__crt_stdio_output@@@__crt_stdio_output@@QEAA@XZ 0000000180062510 f i libucrtd:output.obj
 0001:00061530       ??1?$standard_base@_WV?$string_output_adapter@_W@__crt_stdio_output@@@__crt_stdio_output@@QEAA@XZ 0000000180062530 f i libucrtd:output.obj
 0001:00061550       ??1_LocaleUpdate@@QEAA@XZ  0000000180062550 f i libucrtd:output.obj
 0001:00061580       ??1__acrt_stdio_temporary_buffering_guard@@QEAA@XZ 0000000180062580 f i libucrtd:output.obj
 0001:000615b0       ??1__crt_errno_guard@@QEAA@XZ 00000001800625b0 f i libucrtd:output.obj
 0001:000615e0       ??1formatting_buffer@__crt_stdio_output@@QEAA@XZ 00000001800625e0 f i libucrtd:output.obj
 0001:00061610       ??4?$__crt_unique_heap_ptr@DU__crt_internal_free_policy@@@@QEAAAEAV0@$$QEAV0@@Z 0000000180062610 f i libucrtd:output.obj
 0001:00061650       ??A?$spectre_mitigated_lookup_table@Ustate_transition_pair@__crt_stdio_output@@$0IA@@__crt_stdio_output@@QEBAAEBUstate_transition_pair@1@_K@Z 0000000180062650 f i libucrtd:output.obj
 0001:00061670       ??C__crt_stdio_stream@@QEBAPEAU__crt_stdio_stream_data@@XZ 0000000180062670 f i libucrtd:output.obj
 0001:00061f20       ?GetLocaleT@_LocaleUpdate@@QEAAPEAU__crt_locale_pointers@@XZ 0000000180062f20 f i libucrtd:output.obj
 0001:00061f30       ?__crt_interlocked_read_32@@YAHPEDH@Z 0000000180062f30 f i libucrtd:output.obj
 0001:00061f50       ?adjust_hexit@?$output_processor@DV?$stream_output_adapter@D@__crt_stdio_output@@V?$format_validation_base@DV?$stream_output_adapter@D@__crt_stdio_output@@@2@@__crt_stdio_output@@CADH_N@Z 0000000180062f50 f i libucrtd:output.obj
 0001:00061fa0       ?adjust_hexit@?$output_processor@DV?$stream_output_adapter@D@__crt_stdio_output@@V?$positional_parameter_base@DV?$stream_output_adapter@D@__crt_stdio_output@@@2@@__crt_stdio_output@@CADH_N@Z 0000000180062fa0 f i libucrtd:output.obj
 0001:00061ff0       ?adjust_hexit@?$output_processor@DV?$stream_output_adapter@D@__crt_stdio_output@@V?$standard_base@DV?$stream_output_adapter@D@__crt_stdio_output@@@2@@__crt_stdio_output@@CADH_N@Z 0000000180062ff0 f i libucrtd:output.obj
 0001:00062040       ?adjust_hexit@?$output_processor@DV?$string_output_adapter@D@__crt_stdio_output@@V?$format_validation_base@DV?$string_output_adapter@D@__crt_stdio_output@@@2@@__crt_stdio_output@@CADH_N@Z 0000000180063040 f i libucrtd:output.obj
 0001:00062090       ?adjust_hexit@?$output_processor@DV?$string_output_adapter@D@__crt_stdio_output@@V?$positional_parameter_base@DV?$string_output_adapter@D@__crt_stdio_output@@@2@@__crt_stdio_output@@CADH_N@Z 0000000180063090 f i libucrtd:output.obj
 0001:000620e0       ?adjust_hexit@?$output_processor@DV?$string_output_adapter@D@__crt_stdio_output@@V?$standard_base@DV?$string_output_adapter@D@__crt_stdio_output@@@2@@__crt_stdio_output@@CADH_N@Z 00000001800630e0 f i libucrtd:output.obj
 0001:00062130       ?adjust_hexit@?$output_processor@_WV?$stream_output_adapter@_W@__crt_stdio_output@@V?$format_validation_base@_WV?$stream_output_adapter@_W@__crt_stdio_output@@@2@@__crt_stdio_output@@CADH_N@Z 0000000180063130 f i libucrtd:output.obj
 0001:00062180       ?adjust_hexit@?$output_processor@_WV?$stream_output_adapter@_W@__crt_stdio_output@@V?$positional_parameter_base@_WV?$stream_output_adapter@_W@__crt_stdio_output@@@2@@__crt_stdio_output@@CADH_N@Z 0000000180063180 f i libucrtd:output.obj
 0001:000621d0       ?adjust_hexit@?$output_processor@_WV?$stream_output_adapter@_W@__crt_stdio_output@@V?$standard_base@_WV?$stream_output_adapter@_W@__crt_stdio_output@@@2@@__crt_stdio_output@@CADH_N@Z 00000001800631d0 f i libucrtd:output.obj
 0001:00062220       ?adjust_hexit@?$output_processor@_WV?$string_output_adapter@_W@__crt_stdio_output@@V?$format_validation_base@_WV?$string_output_adapter@_W@__crt_stdio_output@@@2@@__crt_stdio_output@@CADH_N@Z 0000000180063220 f i libucrtd:output.obj
 0001:00062270       ?adjust_hexit@?$output_processor@_WV?$string_output_adapter@_W@__crt_stdio_output@@V?$positional_parameter_base@_WV?$string_output_adapter@_W@__crt_stdio_output@@@2@@__crt_stdio_output@@CADH_N@Z 0000000180063270 f i libucrtd:output.obj
 0001:000622c0       ?adjust_hexit@?$output_processor@_WV?$string_output_adapter@_W@__crt_stdio_output@@V?$standard_base@_WV?$string_output_adapter@_W@__crt_stdio_output@@@2@@__crt_stdio_output@@CADH_N@Z 00000001800632c0 f i libucrtd:output.obj
 0001:00062310       ?advance_to_next_pass@?$positional_parameter_base@DV?$stream_output_adapter@D@__crt_stdio_output@@@__crt_stdio_output@@IEAA_NXZ 0000000180063310 f i libucrtd:output.obj
 0001:000623c0       ?advance_to_next_pass@?$positional_parameter_base@DV?$string_output_adapter@D@__crt_stdio_output@@@__crt_stdio_output@@IEAA_NXZ 00000001800633c0 f i libucrtd:output.obj
 0001:00062470       ?advance_to_next_pass@?$positional_parameter_base@_WV?$stream_output_adapter@_W@__crt_stdio_output@@@__crt_stdio_output@@IEAA_NXZ 0000000180063470 f i libucrtd:output.obj
 0001:00062520       ?advance_to_next_pass@?$positional_parameter_base@_WV?$string_output_adapter@_W@__crt_stdio_output@@@__crt_stdio_output@@IEAA_NXZ 0000000180063520 f i libucrtd:output.obj
 0001:000625d0       ?advance_to_next_pass@?$standard_base@DV?$stream_output_adapter@D@__crt_stdio_output@@@__crt_stdio_output@@IEAA_NXZ 00000001800635d0 f i libucrtd:output.obj
 0001:00062620       ?advance_to_next_pass@?$standard_base@DV?$string_output_adapter@D@__crt_stdio_output@@@__crt_stdio_output@@IEAA_NXZ 0000000180063620 f i libucrtd:output.obj
 0001:00062670       ?advance_to_next_pass@?$standard_base@_WV?$stream_output_adapter@_W@__crt_stdio_output@@@__crt_stdio_output@@IEAA_NXZ 0000000180063670 f i libucrtd:output.obj
 0001:000626c0       ?advance_to_next_pass@?$standard_base@_WV?$string_output_adapter@_W@__crt_stdio_output@@@__crt_stdio_output@@IEAA_NXZ 00000001800636c0 f i libucrtd:output.obj
 0001:00062710       ?crop_zeroes@__crt_stdio_output@@YAXPEADQEAU__crt_locale_pointers@@@Z 0000000180063710 f i libucrtd:output.obj
 0001:00062850       ?find_next_state@?$output_processor@DV?$stream_output_adapter@D@__crt_stdio_output@@V?$format_validation_base@DV?$stream_output_adapter@D@__crt_stdio_output@@@2@@__crt_stdio_output@@AEBA?AW4state@2@DW432@@Z 0000000180063850 f i libucrtd:output.obj
 0001:000628e0       ?find_next_state@?$output_processor@DV?$stream_output_adapter@D@__crt_stdio_output@@V?$positional_parameter_base@DV?$stream_output_adapter@D@__crt_stdio_output@@@2@@__crt_stdio_output@@AEBA?AW4state@2@DW432@@Z 00000001800638e0 f i libucrtd:output.obj
 0001:00062970       ?find_next_state@?$output_processor@DV?$stream_output_adapter@D@__crt_stdio_output@@V?$standard_base@DV?$stream_output_adapter@D@__crt_stdio_output@@@2@@__crt_stdio_output@@AEBA?AW4state@2@DW432@@Z 0000000180063970 f i libucrtd:output.obj
 0001:00062a00       ?find_next_state@?$output_processor@DV?$string_output_adapter@D@__crt_stdio_output@@V?$format_validation_base@DV?$string_output_adapter@D@__crt_stdio_output@@@2@@__crt_stdio_output@@AEBA?AW4state@2@DW432@@Z 0000000180063a00 f i libucrtd:output.obj
 0001:00062a90       ?find_next_state@?$output_processor@DV?$string_output_adapter@D@__crt_stdio_output@@V?$positional_parameter_base@DV?$string_output_adapter@D@__crt_stdio_output@@@2@@__crt_stdio_output@@AEBA?AW4state@2@DW432@@Z 0000000180063a90 f i libucrtd:output.obj
 0001:00062b20       ?find_next_state@?$output_processor@DV?$string_output_adapter@D@__crt_stdio_output@@V?$standard_base@DV?$string_output_adapter@D@__crt_stdio_output@@@2@@__crt_stdio_output@@AEBA?AW4state@2@DW432@@Z 0000000180063b20 f i libucrtd:output.obj
 0001:00062bb0       ?find_next_state@?$output_processor@_WV?$stream_output_adapter@_W@__crt_stdio_output@@V?$format_validation_base@_WV?$stream_output_adapter@_W@__crt_stdio_output@@@2@@__crt_stdio_output@@AEBA?AW4state@2@_WW432@@Z 0000000180063bb0 f i libucrtd:output.obj
 0001:00062c40       ?find_next_state@?$output_processor@_WV?$stream_output_adapter@_W@__crt_stdio_output@@V?$positional_parameter_base@_WV?$stream_output_adapter@_W@__crt_stdio_output@@@2@@__crt_stdio_output@@AEBA?AW4state@2@_WW432@@Z 0000000180063c40 f i libucrtd:output.obj
 0001:00062cd0       ?find_next_state@?$output_processor@_WV?$stream_output_adapter@_W@__crt_stdio_output@@V?$standard_base@_WV?$stream_output_adapter@_W@__crt_stdio_output@@@2@@__crt_stdio_output@@AEBA?AW4state@2@_WW432@@Z 0000000180063cd0 f i libucrtd:output.obj
 0001:00062d60       ?find_next_state@?$output_processor@_WV?$string_output_adapter@_W@__crt_stdio_output@@V?$format_validation_base@_WV?$string_output_adapter@_W@__crt_stdio_output@@@2@@__crt_stdio_output@@AEBA?AW4state@2@_WW432@@Z 0000000180063d60 f i libucrtd:output.obj
 0001:00062df0       ?find_next_state@?$output_processor@_WV?$string_output_adapter@_W@__crt_stdio_output@@V?$positional_parameter_base@_WV?$string_output_adapter@_W@__crt_stdio_output@@@2@@__crt_stdio_output@@AEBA?AW4state@2@_WW432@@Z 0000000180063df0 f i libucrtd:output.obj
 0001:00062e80       ?find_next_state@?$output_processor@_WV?$string_output_adapter@_W@__crt_stdio_output@@V?$standard_base@_WV?$string_output_adapter@_W@__crt_stdio_output@@@2@@__crt_stdio_output@@AEBA?AW4state@2@_WW432@@Z 0000000180063e80 f i libucrtd:output.obj
 0001:00062f10       ?force_decimal_point@__crt_stdio_output@@YAXPEADQEAU__crt_locale_pointers@@@Z 0000000180063f10 f i libucrtd:output.obj
 0001:00063010       ?get@__crt_deferred_errno_cache@@QEAAAEAHXZ 0000000180064010 f i libucrtd:output.obj
 0001:00063040       ?get_flags@__crt_stdio_stream@@QEBAJXZ 0000000180064040 f i libucrtd:output.obj
 0001:00063070       ?get_parameter_type@?$positional_parameter_base@DV?$stream_output_adapter@D@__crt_stdio_output@@@__crt_stdio_output@@CA?AW4parameter_type@12@F@Z 0000000180064070 f i libucrtd:output.obj
 0001:00063080       ?get_parameter_type@?$positional_parameter_base@DV?$stream_output_adapter@D@__crt_stdio_output@@@__crt_stdio_output@@CA?AW4parameter_type@12@G@Z 0000000180064080 f i libucrtd:output.obj
 0001:00063090       ?get_parameter_type@?$positional_parameter_base@DV?$stream_output_adapter@D@__crt_stdio_output@@@__crt_stdio_output@@CA?AW4parameter_type@12@H@Z 0000000180064090 f i libucrtd:output.obj
 0001:000630a0       ?get_parameter_type@?$positional_parameter_base@DV?$stream_output_adapter@D@__crt_stdio_output@@@__crt_stdio_output@@CA?AW4parameter_type@12@I@Z 00000001800640a0 f i libucrtd:output.obj
 0001:000630b0       ?get_parameter_type@?$positional_parameter_base@DV?$stream_output_adapter@D@__crt_stdio_output@@@__crt_stdio_output@@CA?AW4parameter_type@12@U_CRT_DOUBLE@@@Z 00000001800640b0 f i libucrtd:output.obj
 0001:000630c0       ?get_parameter_type@?$positional_parameter_base@DV?$stream_output_adapter@D@__crt_stdio_output@@@__crt_stdio_output@@CA?AW4parameter_type@12@_J@Z 00000001800640c0 f i libucrtd:output.obj
 0001:000630d0       ?get_parameter_type@?$positional_parameter_base@DV?$stream_output_adapter@D@__crt_stdio_output@@@__crt_stdio_output@@CA?AW4parameter_type@12@_K@Z 00000001800640d0 f i libucrtd:output.obj
 0001:000630e0       ?get_parameter_type@?$positional_parameter_base@DV?$stream_output_adapter@D@__crt_stdio_output@@@__crt_stdio_output@@CA?AW4parameter_type@12@_W@Z 00000001800640e0 f i libucrtd:output.obj
 0001:000630f0       ?get_parameter_type@?$positional_parameter_base@DV?$string_output_adapter@D@__crt_stdio_output@@@__crt_stdio_output@@CA?AW4parameter_type@12@F@Z 00000001800640f0 f i libucrtd:output.obj
 0001:00063100       ?get_parameter_type@?$positional_parameter_base@DV?$string_output_adapter@D@__crt_stdio_output@@@__crt_stdio_output@@CA?AW4parameter_type@12@G@Z 0000000180064100 f i libucrtd:output.obj
 0001:00063110       ?get_parameter_type@?$positional_parameter_base@DV?$string_output_adapter@D@__crt_stdio_output@@@__crt_stdio_output@@CA?AW4parameter_type@12@H@Z 0000000180064110 f i libucrtd:output.obj
 0001:00063120       ?get_parameter_type@?$positional_parameter_base@DV?$string_output_adapter@D@__crt_stdio_output@@@__crt_stdio_output@@CA?AW4parameter_type@12@I@Z 0000000180064120 f i libucrtd:output.obj
 0001:00063130       ?get_parameter_type@?$positional_parameter_base@DV?$string_output_adapter@D@__crt_stdio_output@@@__crt_stdio_output@@CA?AW4parameter_type@12@U_CRT_DOUBLE@@@Z 0000000180064130 f i libucrtd:output.obj
 0001:00063140       ?get_parameter_type@?$positional_parameter_base@DV?$string_output_adapter@D@__crt_stdio_output@@@__crt_stdio_output@@CA?AW4parameter_type@12@_J@Z 0000000180064140 f i libucrtd:output.obj
 0001:00063150       ?get_parameter_type@?$positional_parameter_base@DV?$string_output_adapter@D@__crt_stdio_output@@@__crt_stdio_output@@CA?AW4parameter_type@12@_K@Z 0000000180064150 f i libucrtd:output.obj
 0001:00063160       ?get_parameter_type@?$positional_parameter_base@DV?$string_output_adapter@D@__crt_stdio_output@@@__crt_stdio_output@@CA?AW4parameter_type@12@_W@Z 0000000180064160 f i libucrtd:output.obj
 0001:00063170       ?get_parameter_type@?$positional_parameter_base@_WV?$stream_output_adapter@_W@__crt_stdio_output@@@__crt_stdio_output@@CA?AW4parameter_type@12@F@Z 0000000180064170 f i libucrtd:output.obj
 0001:00063180       ?get_parameter_type@?$positional_parameter_base@_WV?$stream_output_adapter@_W@__crt_stdio_output@@@__crt_stdio_output@@CA?AW4parameter_type@12@G@Z 0000000180064180 f i libucrtd:output.obj
 0001:00063190       ?get_parameter_type@?$positional_parameter_base@_WV?$stream_output_adapter@_W@__crt_stdio_output@@@__crt_stdio_output@@CA?AW4parameter_type@12@H@Z 0000000180064190 f i libucrtd:output.obj
 0001:000631a0       ?get_parameter_type@?$positional_parameter_base@_WV?$stream_output_adapter@_W@__crt_stdio_output@@@__crt_stdio_output@@CA?AW4parameter_type@12@I@Z 00000001800641a0 f i libucrtd:output.obj
 0001:000631b0       ?get_parameter_type@?$positional_parameter_base@_WV?$stream_output_adapter@_W@__crt_stdio_output@@@__crt_stdio_output@@CA?AW4parameter_type@12@U_CRT_DOUBLE@@@Z 00000001800641b0 f i libucrtd:output.obj
 0001:000631c0       ?get_parameter_type@?$positional_parameter_base@_WV?$stream_output_adapter@_W@__crt_stdio_output@@@__crt_stdio_output@@CA?AW4parameter_type@12@_J@Z 00000001800641c0 f i libucrtd:output.obj
 0001:000631d0       ?get_parameter_type@?$positional_parameter_base@_WV?$stream_output_adapter@_W@__crt_stdio_output@@@__crt_stdio_output@@CA?AW4parameter_type@12@_K@Z 00000001800641d0 f i libucrtd:output.obj
 0001:000631e0       ?get_parameter_type@?$positional_parameter_base@_WV?$stream_output_adapter@_W@__crt_stdio_output@@@__crt_stdio_output@@CA?AW4parameter_type@12@_W@Z 00000001800641e0 f i libucrtd:output.obj
 0001:000631f0       ?get_parameter_type@?$positional_parameter_base@_WV?$string_output_adapter@_W@__crt_stdio_output@@@__crt_stdio_output@@CA?AW4parameter_type@12@F@Z 00000001800641f0 f i libucrtd:output.obj
 0001:00063200       ?get_parameter_type@?$positional_parameter_base@_WV?$string_output_adapter@_W@__crt_stdio_output@@@__crt_stdio_output@@CA?AW4parameter_type@12@G@Z 0000000180064200 f i libucrtd:output.obj
 0001:00063210       ?get_parameter_type@?$positional_parameter_base@_WV?$string_output_adapter@_W@__crt_stdio_output@@@__crt_stdio_output@@CA?AW4parameter_type@12@H@Z 0000000180064210 f i libucrtd:output.obj
 0001:00063220       ?get_parameter_type@?$positional_parameter_base@_WV?$string_output_adapter@_W@__crt_stdio_output@@@__crt_stdio_output@@CA?AW4parameter_type@12@I@Z 0000000180064220 f i libucrtd:output.obj
 0001:00063230       ?get_parameter_type@?$positional_parameter_base@_WV?$string_output_adapter@_W@__crt_stdio_output@@@__crt_stdio_output@@CA?AW4parameter_type@12@U_CRT_DOUBLE@@@Z 0000000180064230 f i libucrtd:output.obj
 0001:00063240       ?get_parameter_type@?$positional_parameter_base@_WV?$string_output_adapter@_W@__crt_stdio_output@@@__crt_stdio_output@@CA?AW4parameter_type@12@_J@Z 0000000180064240 f i libucrtd:output.obj
 0001:00063250       ?get_parameter_type@?$positional_parameter_base@_WV?$string_output_adapter@_W@__crt_stdio_output@@@__crt_stdio_output@@CA?AW4parameter_type@12@_K@Z 0000000180064250 f i libucrtd:output.obj
 0001:00063260       ?get_parameter_type@?$positional_parameter_base@_WV?$string_output_adapter@_W@__crt_stdio_output@@@__crt_stdio_output@@CA?AW4parameter_type@12@_W@Z 0000000180064260 f i libucrtd:output.obj
 0001:00063270       ?has_flag@?$output_processor@DV?$stream_output_adapter@D@__crt_stdio_output@@V?$format_validation_base@DV?$stream_output_adapter@D@__crt_stdio_output@@@2@@__crt_stdio_output@@AEBA_NI@Z 0000000180064270 f i libucrtd:output.obj
 0001:000632b0       ?has_flag@?$output_processor@DV?$stream_output_adapter@D@__crt_stdio_output@@V?$positional_parameter_base@DV?$stream_output_adapter@D@__crt_stdio_output@@@2@@__crt_stdio_output@@AEBA_NI@Z 00000001800642b0 f i libucrtd:output.obj
 0001:000632f0       ?has_flag@?$output_processor@DV?$stream_output_adapter@D@__crt_stdio_output@@V?$standard_base@DV?$stream_output_adapter@D@__crt_stdio_output@@@2@@__crt_stdio_output@@AEBA_NI@Z 00000001800642f0 f i libucrtd:output.obj
 0001:00063330       ?has_flag@?$output_processor@DV?$string_output_adapter@D@__crt_stdio_output@@V?$format_validation_base@DV?$string_output_adapter@D@__crt_stdio_output@@@2@@__crt_stdio_output@@AEBA_NI@Z 0000000180064330 f i libucrtd:output.obj
 0001:00063370       ?has_flag@?$output_processor@DV?$string_output_adapter@D@__crt_stdio_output@@V?$positional_parameter_base@DV?$string_output_adapter@D@__crt_stdio_output@@@2@@__crt_stdio_output@@AEBA_NI@Z 0000000180064370 f i libucrtd:output.obj
 0001:000633b0       ?has_flag@?$output_processor@DV?$string_output_adapter@D@__crt_stdio_output@@V?$standard_base@DV?$string_output_adapter@D@__crt_stdio_output@@@2@@__crt_stdio_output@@AEBA_NI@Z 00000001800643b0 f i libucrtd:output.obj
 0001:000633f0       ?has_flag@?$output_processor@_WV?$stream_output_adapter@_W@__crt_stdio_output@@V?$format_validation_base@_WV?$stream_output_adapter@_W@__crt_stdio_output@@@2@@__crt_stdio_output@@AEBA_NI@Z 00000001800643f0 f i libucrtd:output.obj
 0001:00063430       ?has_flag@?$output_processor@_WV?$stream_output_adapter@_W@__crt_stdio_output@@V?$positional_parameter_base@_WV?$stream_output_adapter@_W@__crt_stdio_output@@@2@@__crt_stdio_output@@AEBA_NI@Z 0000000180064430 f i libucrtd:output.obj
 0001:00063470       ?has_flag@?$output_processor@_WV?$stream_output_adapter@_W@__crt_stdio_output@@V?$standard_base@_WV?$stream_output_adapter@_W@__crt_stdio_output@@@2@@__crt_stdio_output@@AEBA_NI@Z 0000000180064470 f i libucrtd:output.obj
 0001:000634b0       ?has_flag@?$output_processor@_WV?$string_output_adapter@_W@__crt_stdio_output@@V?$format_validation_base@_WV?$string_output_adapter@_W@__crt_stdio_output@@@2@@__crt_stdio_output@@AEBA_NI@Z 00000001800644b0 f i libucrtd:output.obj
 0001:000634f0       ?has_flag@?$output_processor@_WV?$string_output_adapter@_W@__crt_stdio_output@@V?$positional_parameter_base@_WV?$string_output_adapter@_W@__crt_stdio_output@@@2@@__crt_stdio_output@@AEBA_NI@Z 00000001800644f0 f i libucrtd:output.obj
 0001:00063530       ?has_flag@?$output_processor@_WV?$string_output_adapter@_W@__crt_stdio_output@@V?$standard_base@_WV?$string_output_adapter@_W@__crt_stdio_output@@@2@@__crt_stdio_output@@AEBA_NI@Z 0000000180064530 f i libucrtd:output.obj
 0001:00063570       ?is_positional_parameter_reappearance_consistent@?$positional_parameter_base@DV?$stream_output_adapter@D@__crt_stdio_output@@@__crt_stdio_output@@AEAA_NAEBUparameter_data@12@W4parameter_type@12@DW4length_modifier@2@@Z 0000000180064570 f i libucrtd:output.obj
 0001:000637d0       ?is_positional_parameter_reappearance_consistent@?$positional_parameter_base@DV?$string_output_adapter@D@__crt_stdio_output@@@__crt_stdio_output@@AEAA_NAEBUparameter_data@12@W4parameter_type@12@DW4length_modifier@2@@Z 00000001800647d0 f i libucrtd:output.obj
 0001:00063a30       ?is_positional_parameter_reappearance_consistent@?$positional_parameter_base@_WV?$stream_output_adapter@_W@__crt_stdio_output@@@__crt_stdio_output@@AEAA_NAEBUparameter_data@12@W4parameter_type@12@_WW4length_modifier@2@@Z 0000000180064a30 f i libucrtd:output.obj
 0001:00063c90       ?is_positional_parameter_reappearance_consistent@?$positional_parameter_base@_WV?$string_output_adapter@_W@__crt_stdio_output@@@__crt_stdio_output@@AEAA_NAEBUparameter_data@12@W4parameter_type@12@_WW4length_modifier@2@@Z 0000000180064c90 f i libucrtd:output.obj
 0001:00063ef0       ?is_string_backed@__crt_stdio_stream@@QEBA_NXZ 0000000180064ef0 f i libucrtd:output.obj
 0001:00063f30       ?narrow_null_string@?$output_processor@DV?$stream_output_adapter@D@__crt_stdio_output@@V?$format_validation_base@DV?$stream_output_adapter@D@__crt_stdio_output@@@2@@__crt_stdio_output@@CAPEADXZ 0000000180064f30 f i libucrtd:output.obj
 0001:00063f40       ?narrow_null_string@?$output_processor@DV?$stream_output_adapter@D@__crt_stdio_output@@V?$positional_parameter_base@DV?$stream_output_adapter@D@__crt_stdio_output@@@2@@__crt_stdio_output@@CAPEADXZ 0000000180064f40 f i libucrtd:output.obj
 0001:00063f50       ?narrow_null_string@?$output_processor@DV?$stream_output_adapter@D@__crt_stdio_output@@V?$standard_base@DV?$stream_output_adapter@D@__crt_stdio_output@@@2@@__crt_stdio_output@@CAPEADXZ 0000000180064f50 f i libucrtd:output.obj
 0001:00063f60       ?narrow_null_string@?$output_processor@DV?$string_output_adapter@D@__crt_stdio_output@@V?$format_validation_base@DV?$string_output_adapter@D@__crt_stdio_output@@@2@@__crt_stdio_output@@CAPEADXZ 0000000180064f60 f i libucrtd:output.obj
 0001:00063f70       ?narrow_null_string@?$output_processor@DV?$string_output_adapter@D@__crt_stdio_output@@V?$positional_parameter_base@DV?$string_output_adapter@D@__crt_stdio_output@@@2@@__crt_stdio_output@@CAPEADXZ 0000000180064f70 f i libucrtd:output.obj
 0001:00063f80       ?narrow_null_string@?$output_processor@DV?$string_output_adapter@D@__crt_stdio_output@@V?$standard_base@DV?$string_output_adapter@D@__crt_stdio_output@@@2@@__crt_stdio_output@@CAPEADXZ 0000000180064f80 f i libucrtd:output.obj
 0001:00063f90       ?narrow_null_string@?$output_processor@_WV?$stream_output_adapter@_W@__crt_stdio_output@@V?$format_validation_base@_WV?$stream_output_adapter@_W@__crt_stdio_output@@@2@@__crt_stdio_output@@CAPEADXZ 0000000180064f90 f i libucrtd:output.obj
 0001:00063fa0       ?narrow_null_string@?$output_processor@_WV?$stream_output_adapter@_W@__crt_stdio_output@@V?$positional_parameter_base@_WV?$stream_output_adapter@_W@__crt_stdio_output@@@2@@__crt_stdio_output@@CAPEADXZ 0000000180064fa0 f i libucrtd:output.obj
 0001:00063fb0       ?narrow_null_string@?$output_processor@_WV?$stream_output_adapter@_W@__crt_stdio_output@@V?$standard_base@_WV?$stream_output_adapter@_W@__crt_stdio_output@@@2@@__crt_stdio_output@@CAPEADXZ 0000000180064fb0 f i libucrtd:output.obj
 0001:00063fc0       ?narrow_null_string@?$output_processor@_WV?$string_output_adapter@_W@__crt_stdio_output@@V?$format_validation_base@_WV?$string_output_adapter@_W@__crt_stdio_output@@@2@@__crt_stdio_output@@CAPEADXZ 0000000180064fc0 f i libucrtd:output.obj
 0001:00063fd0       ?narrow_null_string@?$output_processor@_WV?$string_output_adapter@_W@__crt_stdio_output@@V?$positional_parameter_base@_WV?$string_output_adapter@_W@__crt_stdio_output@@@2@@__crt_stdio_output@@CAPEADXZ 0000000180064fd0 f i libucrtd:output.obj
 0001:00063fe0       ?narrow_null_string@?$output_processor@_WV?$string_output_adapter@_W@__crt_stdio_output@@V?$standard_base@_WV?$string_output_adapter@_W@__crt_stdio_output@@@2@@__crt_stdio_output@@CAPEADXZ 0000000180064fe0 f i libucrtd:output.obj
 0001:00063ff0       ?parse_int_from_format_string@?$output_processor@DV?$stream_output_adapter@D@__crt_stdio_output@@V?$format_validation_base@DV?$stream_output_adapter@D@__crt_stdio_output@@@2@@__crt_stdio_output@@AEAA_NQEAH@Z 0000000180064ff0 f i libucrtd:output.obj
 0001:000640e0       ?parse_int_from_format_string@?$output_processor@DV?$stream_output_adapter@D@__crt_stdio_output@@V?$positional_parameter_base@DV?$stream_output_adapter@D@__crt_stdio_output@@@2@@__crt_stdio_output@@AEAA_NQEAH@Z 00000001800650e0 f i libucrtd:output.obj
 0001:000641d0       ?parse_int_from_format_string@?$output_processor@DV?$stream_output_adapter@D@__crt_stdio_output@@V?$standard_base@DV?$stream_output_adapter@D@__crt_stdio_output@@@2@@__crt_stdio_output@@AEAA_NQEAH@Z 00000001800651d0 f i libucrtd:output.obj
 0001:000642c0       ?parse_int_from_format_string@?$output_processor@DV?$string_output_adapter@D@__crt_stdio_output@@V?$format_validation_base@DV?$string_output_adapter@D@__crt_stdio_output@@@2@@__crt_stdio_output@@AEAA_NQEAH@Z 00000001800652c0 f i libucrtd:output.obj
 0001:000643b0       ?parse_int_from_format_string@?$output_processor@DV?$string_output_adapter@D@__crt_stdio_output@@V?$positional_parameter_base@DV?$string_output_adapter@D@__crt_stdio_output@@@2@@__crt_stdio_output@@AEAA_NQEAH@Z 00000001800653b0 f i libucrtd:output.obj
 0001:000644a0       ?parse_int_from_format_string@?$output_processor@DV?$string_output_adapter@D@__crt_stdio_output@@V?$standard_base@DV?$string_output_adapter@D@__crt_stdio_output@@@2@@__crt_stdio_output@@AEAA_NQEAH@Z 00000001800654a0 f i libucrtd:output.obj
 0001:00064590       ?parse_int_from_format_string@?$output_processor@_WV?$stream_output_adapter@_W@__crt_stdio_output@@V?$format_validation_base@_WV?$stream_output_adapter@_W@__crt_stdio_output@@@2@@__crt_stdio_output@@AEAA_NQEAH@Z 0000000180065590 f i libucrtd:output.obj
 0001:00064680       ?parse_int_from_format_string@?$output_processor@_WV?$stream_output_adapter@_W@__crt_stdio_output@@V?$positional_parameter_base@_WV?$stream_output_adapter@_W@__crt_stdio_output@@@2@@__crt_stdio_output@@AEAA_NQEAH@Z 0000000180065680 f i libucrtd:output.obj
 0001:00064770       ?parse_int_from_format_string@?$output_processor@_WV?$stream_output_adapter@_W@__crt_stdio_output@@V?$standard_base@_WV?$stream_output_adapter@_W@__crt_stdio_output@@@2@@__crt_stdio_output@@AEAA_NQEAH@Z 0000000180065770 f i libucrtd:output.obj
 0001:00064860       ?parse_int_from_format_string@?$output_processor@_WV?$string_output_adapter@_W@__crt_stdio_output@@V?$format_validation_base@_WV?$string_output_adapter@_W@__crt_stdio_output@@@2@@__crt_stdio_output@@AEAA_NQEAH@Z 0000000180065860 f i libucrtd:output.obj
 0001:00064950       ?parse_int_from_format_string@?$output_processor@_WV?$string_output_adapter@_W@__crt_stdio_output@@V?$positional_parameter_base@_WV?$string_output_adapter@_W@__crt_stdio_output@@@2@@__crt_stdio_output@@AEAA_NQEAH@Z 0000000180065950 f i libucrtd:output.obj
 0001:00064a40       ?parse_int_from_format_string@?$output_processor@_WV?$string_output_adapter@_W@__crt_stdio_output@@V?$standard_base@_WV?$string_output_adapter@_W@__crt_stdio_output@@@2@@__crt_stdio_output@@AEAA_NQEAH@Z 0000000180065a40 f i libucrtd:output.obj
 0001:00064b30       ?process@?$output_processor@DV?$stream_output_adapter@D@__crt_stdio_output@@V?$format_validation_base@DV?$stream_output_adapter@D@__crt_stdio_output@@@2@@__crt_stdio_output@@QEAAHXZ 0000000180065b30 f i libucrtd:output.obj
 0001:00064e90       ?process@?$output_processor@DV?$stream_output_adapter@D@__crt_stdio_output@@V?$positional_parameter_base@DV?$stream_output_adapter@D@__crt_stdio_output@@@2@@__crt_stdio_output@@QEAAHXZ 0000000180065e90 f i libucrtd:output.obj
 0001:000651f0       ?process@?$output_processor@DV?$stream_output_adapter@D@__crt_stdio_output@@V?$standard_base@DV?$stream_output_adapter@D@__crt_stdio_output@@@2@@__crt_stdio_output@@QEAAHXZ 00000001800661f0 f i libucrtd:output.obj
 0001:00065550       ?process@?$output_processor@DV?$string_output_adapter@D@__crt_stdio_output@@V?$format_validation_base@DV?$string_output_adapter@D@__crt_stdio_output@@@2@@__crt_stdio_output@@QEAAHXZ 0000000180066550 f i libucrtd:output.obj
 0001:000658b0       ?process@?$output_processor@DV?$string_output_adapter@D@__crt_stdio_output@@V?$positional_parameter_base@DV?$string_output_adapter@D@__crt_stdio_output@@@2@@__crt_stdio_output@@QEAAHXZ 00000001800668b0 f i libucrtd:output.obj
 0001:00065c10       ?process@?$output_processor@DV?$string_output_adapter@D@__crt_stdio_output@@V?$standard_base@DV?$string_output_adapter@D@__crt_stdio_output@@@2@@__crt_stdio_output@@QEAAHXZ 0000000180066c10 f i libucrtd:output.obj
 0001:00065f70       ?process@?$output_processor@_WV?$stream_output_adapter@_W@__crt_stdio_output@@V?$format_validation_base@_WV?$stream_output_adapter@_W@__crt_stdio_output@@@2@@__crt_stdio_output@@QEAAHXZ 0000000180066f70 f i libucrtd:output.obj
 0001:000662d0       ?process@?$output_processor@_WV?$stream_output_adapter@_W@__crt_stdio_output@@V?$positional_parameter_base@_WV?$stream_output_adapter@_W@__crt_stdio_output@@@2@@__crt_stdio_output@@QEAAHXZ 00000001800672d0 f i libucrtd:output.obj
 0001:00066630       ?process@?$output_processor@_WV?$stream_output_adapter@_W@__crt_stdio_output@@V?$standard_base@_WV?$stream_output_adapter@_W@__crt_stdio_output@@@2@@__crt_stdio_output@@QEAAHXZ 0000000180067630 f i libucrtd:output.obj
 0001:00066990       ?process@?$output_processor@_WV?$string_output_adapter@_W@__crt_stdio_output@@V?$format_validation_base@_WV?$string_output_adapter@_W@__crt_stdio_output@@@2@@__crt_stdio_output@@QEAAHXZ 0000000180067990 f i libucrtd:output.obj
 0001:00066cf0       ?process@?$output_processor@_WV?$string_output_adapter@_W@__crt_stdio_output@@V?$positional_parameter_base@_WV?$string_output_adapter@_W@__crt_stdio_output@@@2@@__crt_stdio_output@@QEAAHXZ 0000000180067cf0 f i libucrtd:output.obj
 0001:00067050       ?process@?$output_processor@_WV?$string_output_adapter@_W@__crt_stdio_output@@V?$standard_base@_WV?$string_output_adapter@_W@__crt_stdio_output@@@2@@__crt_stdio_output@@QEAAHXZ 0000000180068050 f i libucrtd:output.obj
 0001:000673b0       ?public_stream@__crt_stdio_stream@@QEBAPEAU_iobuf@@XZ 00000001800683b0 f i libucrtd:output.obj
 0001:000673c0       ?set_flag@?$output_processor@DV?$stream_output_adapter@D@__crt_stdio_output@@V?$format_validation_base@DV?$stream_output_adapter@D@__crt_stdio_output@@@2@@__crt_stdio_output@@AEAAXI@Z 00000001800683c0 f i libucrtd:output.obj
 0001:000673e0       ?set_flag@?$output_processor@DV?$stream_output_adapter@D@__crt_stdio_output@@V?$positional_parameter_base@DV?$stream_output_adapter@D@__crt_stdio_output@@@2@@__crt_stdio_output@@AEAAXI@Z 00000001800683e0 f i libucrtd:output.obj
 0001:00067400       ?set_flag@?$output_processor@DV?$stream_output_adapter@D@__crt_stdio_output@@V?$standard_base@DV?$stream_output_adapter@D@__crt_stdio_output@@@2@@__crt_stdio_output@@AEAAXI@Z 0000000180068400 f i libucrtd:output.obj
 0001:00067420       ?set_flag@?$output_processor@DV?$string_output_adapter@D@__crt_stdio_output@@V?$format_validation_base@DV?$string_output_adapter@D@__crt_stdio_output@@@2@@__crt_stdio_output@@AEAAXI@Z 0000000180068420 f i libucrtd:output.obj
 0001:00067440       ?set_flag@?$output_processor@DV?$string_output_adapter@D@__crt_stdio_output@@V?$positional_parameter_base@DV?$string_output_adapter@D@__crt_stdio_output@@@2@@__crt_stdio_output@@AEAAXI@Z 0000000180068440 f i libucrtd:output.obj
 0001:00067460       ?set_flag@?$output_processor@DV?$string_output_adapter@D@__crt_stdio_output@@V?$standard_base@DV?$string_output_adapter@D@__crt_stdio_output@@@2@@__crt_stdio_output@@AEAAXI@Z 0000000180068460 f i libucrtd:output.obj
 0001:00067480       ?set_flag@?$output_processor@_WV?$stream_output_adapter@_W@__crt_stdio_output@@V?$format_validation_base@_WV?$stream_output_adapter@_W@__crt_stdio_output@@@2@@__crt_stdio_output@@AEAAXI@Z 0000000180068480 f i libucrtd:output.obj
 0001:000674a0       ?set_flag@?$output_processor@_WV?$stream_output_adapter@_W@__crt_stdio_output@@V?$positional_parameter_base@_WV?$stream_output_adapter@_W@__crt_stdio_output@@@2@@__crt_stdio_output@@AEAAXI@Z 00000001800684a0 f i libucrtd:output.obj
 0001:000674c0       ?set_flag@?$output_processor@_WV?$stream_output_adapter@_W@__crt_stdio_output@@V?$standard_base@_WV?$stream_output_adapter@_W@__crt_stdio_output@@@2@@__crt_stdio_output@@AEAAXI@Z 00000001800684c0 f i libucrtd:output.obj
 0001:000674e0       ?set_flag@?$output_processor@_WV?$string_output_adapter@_W@__crt_stdio_output@@V?$format_validation_base@_WV?$string_output_adapter@_W@__crt_stdio_output@@@2@@__crt_stdio_output@@AEAAXI@Z 00000001800684e0 f i libucrtd:output.obj
 0001:00067500       ?set_flag@?$output_processor@_WV?$string_output_adapter@_W@__crt_stdio_output@@V?$positional_parameter_base@_WV?$string_output_adapter@_W@__crt_stdio_output@@@2@@__crt_stdio_output@@AEAAXI@Z 0000000180068500 f i libucrtd:output.obj
 0001:00067520       ?set_flag@?$output_processor@_WV?$string_output_adapter@_W@__crt_stdio_output@@V?$standard_base@_WV?$string_output_adapter@_W@__crt_stdio_output@@@2@@__crt_stdio_output@@AEAAXI@Z 0000000180068520 f i libucrtd:output.obj
 0001:00067540       ?should_format@?$positional_parameter_base@DV?$stream_output_adapter@D@__crt_stdio_output@@@__crt_stdio_output@@IEAA_NXZ 0000000180068540 f i libucrtd:output.obj
 0001:00067580       ?should_format@?$positional_parameter_base@DV?$string_output_adapter@D@__crt_stdio_output@@@__crt_stdio_output@@IEAA_NXZ 0000000180068580 f i libucrtd:output.obj
 0001:000675c0       ?should_format@?$positional_parameter_base@_WV?$stream_output_adapter@_W@__crt_stdio_output@@@__crt_stdio_output@@IEAA_NXZ 00000001800685c0 f i libucrtd:output.obj
 0001:00067600       ?should_format@?$positional_parameter_base@_WV?$string_output_adapter@_W@__crt_stdio_output@@@__crt_stdio_output@@IEAA_NXZ 0000000180068600 f i libucrtd:output.obj
 0001:00067640       ?should_format@?$standard_base@DV?$stream_output_adapter@D@__crt_stdio_output@@@__crt_stdio_output@@IEAA_NXZ 0000000180068640 f i libucrtd:output.obj
 0001:00067650       ?should_format@?$standard_base@DV?$string_output_adapter@D@__crt_stdio_output@@@__crt_stdio_output@@IEAA_NXZ 0000000180068650 f i libucrtd:output.obj
 0001:00067660       ?should_format@?$standard_base@_WV?$stream_output_adapter@_W@__crt_stdio_output@@@__crt_stdio_output@@IEAA_NXZ 0000000180068660 f i libucrtd:output.obj
 0001:00067670       ?should_format@?$standard_base@_WV?$string_output_adapter@_W@__crt_stdio_output@@@__crt_stdio_output@@IEAA_NXZ 0000000180068670 f i libucrtd:output.obj
 0001:00067680       ?should_skip_normal_state_processing@?$positional_parameter_base@DV?$stream_output_adapter@D@__crt_stdio_output@@@__crt_stdio_output@@IEAA_NXZ 0000000180068680 f i libucrtd:output.obj
 0001:000676d0       ?should_skip_normal_state_processing@?$positional_parameter_base@DV?$string_output_adapter@D@__crt_stdio_output@@@__crt_stdio_output@@IEAA_NXZ 00000001800686d0 f i libucrtd:output.obj
 0001:00067720       ?should_skip_normal_state_processing@?$positional_parameter_base@_WV?$stream_output_adapter@_W@__crt_stdio_output@@@__crt_stdio_output@@IEAA_NXZ 0000000180068720 f i libucrtd:output.obj
 0001:00067770       ?should_skip_normal_state_processing@?$positional_parameter_base@_WV?$string_output_adapter@_W@__crt_stdio_output@@@__crt_stdio_output@@IEAA_NXZ 0000000180068770 f i libucrtd:output.obj
 0001:000677c0       ?should_skip_normal_state_processing@?$standard_base@DV?$stream_output_adapter@D@__crt_stdio_output@@@__crt_stdio_output@@IEAA_NXZ 00000001800687c0 f i libucrtd:output.obj
 0001:000677d0       ?should_skip_normal_state_processing@?$standard_base@DV?$string_output_adapter@D@__crt_stdio_output@@@__crt_stdio_output@@IEAA_NXZ 00000001800687d0 f i libucrtd:output.obj
 0001:000677e0       ?should_skip_normal_state_processing@?$standard_base@_WV?$stream_output_adapter@_W@__crt_stdio_output@@@__crt_stdio_output@@IEAA_NXZ 00000001800687e0 f i libucrtd:output.obj
 0001:000677f0       ?should_skip_normal_state_processing@?$standard_base@_WV?$string_output_adapter@_W@__crt_stdio_output@@@__crt_stdio_output@@IEAA_NXZ 00000001800687f0 f i libucrtd:output.obj
 0001:00067800       ?should_skip_type_state_output@?$positional_parameter_base@DV?$stream_output_adapter@D@__crt_stdio_output@@@__crt_stdio_output@@IEBA_NXZ 0000000180068800 f i libucrtd:output.obj
 0001:00067840       ?should_skip_type_state_output@?$positional_parameter_base@DV?$string_output_adapter@D@__crt_stdio_output@@@__crt_stdio_output@@IEBA_NXZ 0000000180068840 f i libucrtd:output.obj
 0001:00067880       ?should_skip_type_state_output@?$positional_parameter_base@_WV?$stream_output_adapter@_W@__crt_stdio_output@@@__crt_stdio_output@@IEBA_NXZ 0000000180068880 f i libucrtd:output.obj
 0001:000678c0       ?should_skip_type_state_output@?$positional_parameter_base@_WV?$string_output_adapter@_W@__crt_stdio_output@@@__crt_stdio_output@@IEBA_NXZ 00000001800688c0 f i libucrtd:output.obj
 0001:00067900       ?should_skip_type_state_output@?$standard_base@DV?$stream_output_adapter@D@__crt_stdio_output@@@__crt_stdio_output@@IEBA_NXZ 0000000180068900 f i libucrtd:output.obj
 0001:00067910       ?should_skip_type_state_output@?$standard_base@DV?$string_output_adapter@D@__crt_stdio_output@@@__crt_stdio_output@@IEBA_NXZ 0000000180068910 f i libucrtd:output.obj
 0001:00067920       ?should_skip_type_state_output@?$standard_base@_WV?$stream_output_adapter@_W@__crt_stdio_output@@@__crt_stdio_output@@IEBA_NXZ 0000000180068920 f i libucrtd:output.obj
 0001:00067930       ?should_skip_type_state_output@?$standard_base@_WV?$string_output_adapter@_W@__crt_stdio_output@@@__crt_stdio_output@@IEBA_NXZ 0000000180068930 f i libucrtd:output.obj
 0001:00067940       ?state_case_dot@?$output_processor@DV?$stream_output_adapter@D@__crt_stdio_output@@V?$format_validation_base@DV?$stream_output_adapter@D@__crt_stdio_output@@@2@@__crt_stdio_output@@AEAA_NXZ 0000000180068940 f i libucrtd:output.obj
 0001:00067960       ?state_case_dot@?$output_processor@DV?$stream_output_adapter@D@__crt_stdio_output@@V?$positional_parameter_base@DV?$stream_output_adapter@D@__crt_stdio_output@@@2@@__crt_stdio_output@@AEAA_NXZ 0000000180068960 f i libucrtd:output.obj
 0001:00067980       ?state_case_dot@?$output_processor@DV?$stream_output_adapter@D@__crt_stdio_output@@V?$standard_base@DV?$stream_output_adapter@D@__crt_stdio_output@@@2@@__crt_stdio_output@@AEAA_NXZ 0000000180068980 f i libucrtd:output.obj
 0001:000679a0       ?state_case_dot@?$output_processor@DV?$string_output_adapter@D@__crt_stdio_output@@V?$format_validation_base@DV?$string_output_adapter@D@__crt_stdio_output@@@2@@__crt_stdio_output@@AEAA_NXZ 00000001800689a0 f i libucrtd:output.obj
 0001:000679c0       ?state_case_dot@?$output_processor@DV?$string_output_adapter@D@__crt_stdio_output@@V?$positional_parameter_base@DV?$string_output_adapter@D@__crt_stdio_output@@@2@@__crt_stdio_output@@AEAA_NXZ 00000001800689c0 f i libucrtd:output.obj
 0001:000679e0       ?state_case_dot@?$output_processor@DV?$string_output_adapter@D@__crt_stdio_output@@V?$standard_base@DV?$string_output_adapter@D@__crt_stdio_output@@@2@@__crt_stdio_output@@AEAA_NXZ 00000001800689e0 f i libucrtd:output.obj
 0001:00067a00       ?state_case_dot@?$output_processor@_WV?$stream_output_adapter@_W@__crt_stdio_output@@V?$format_validation_base@_WV?$stream_output_adapter@_W@__crt_stdio_output@@@2@@__crt_stdio_output@@AEAA_NXZ 0000000180068a00 f i libucrtd:output.obj
 0001:00067a20       ?state_case_dot@?$output_processor@_WV?$stream_output_adapter@_W@__crt_stdio_output@@V?$positional_parameter_base@_WV?$stream_output_adapter@_W@__crt_stdio_output@@@2@@__crt_stdio_output@@AEAA_NXZ 0000000180068a20 f i libucrtd:output.obj
 0001:00067a40       ?state_case_dot@?$output_processor@_WV?$stream_output_adapter@_W@__crt_stdio_output@@V?$standard_base@_WV?$stream_output_adapter@_W@__crt_stdio_output@@@2@@__crt_stdio_output@@AEAA_NXZ 0000000180068a40 f i libucrtd:output.obj
 0001:00067a60       ?state_case_dot@?$output_processor@_WV?$string_output_adapter@_W@__crt_stdio_output@@V?$format_validation_base@_WV?$string_output_adapter@_W@__crt_stdio_output@@@2@@__crt_stdio_output@@AEAA_NXZ 0000000180068a60 f i libucrtd:output.obj
 0001:00067a80       ?state_case_dot@?$output_processor@_WV?$string_output_adapter@_W@__crt_stdio_output@@V?$positional_parameter_base@_WV?$string_output_adapter@_W@__crt_stdio_output@@@2@@__crt_stdio_output@@AEAA_NXZ 0000000180068a80 f i libucrtd:output.obj
 0001:00067aa0       ?state_case_dot@?$output_processor@_WV?$string_output_adapter@_W@__crt_stdio_output@@V?$standard_base@_WV?$string_output_adapter@_W@__crt_stdio_output@@@2@@__crt_stdio_output@@AEAA_NXZ 0000000180068aa0 f i libucrtd:output.obj
 0001:00067ac0       ?state_case_flag@?$output_processor@DV?$stream_output_adapter@D@__crt_stdio_output@@V?$format_validation_base@DV?$stream_output_adapter@D@__crt_stdio_output@@@2@@__crt_stdio_output@@AEAA_NXZ 0000000180068ac0 f i libucrtd:output.obj
 0001:00067b60       ?state_case_flag@?$output_processor@DV?$stream_output_adapter@D@__crt_stdio_output@@V?$positional_parameter_base@DV?$stream_output_adapter@D@__crt_stdio_output@@@2@@__crt_stdio_output@@AEAA_NXZ 0000000180068b60 f i libucrtd:output.obj
 0001:00067c00       ?state_case_flag@?$output_processor@DV?$stream_output_adapter@D@__crt_stdio_output@@V?$standard_base@DV?$stream_output_adapter@D@__crt_stdio_output@@@2@@__crt_stdio_output@@AEAA_NXZ 0000000180068c00 f i libucrtd:output.obj
 0001:00067ca0       ?state_case_flag@?$output_processor@DV?$string_output_adapter@D@__crt_stdio_output@@V?$format_validation_base@DV?$string_output_adapter@D@__crt_stdio_output@@@2@@__crt_stdio_output@@AEAA_NXZ 0000000180068ca0 f i libucrtd:output.obj
 0001:00067d40       ?state_case_flag@?$output_processor@DV?$string_output_adapter@D@__crt_stdio_output@@V?$positional_parameter_base@DV?$string_output_adapter@D@__crt_stdio_output@@@2@@__crt_stdio_output@@AEAA_NXZ 0000000180068d40 f i libucrtd:output.obj
 0001:00067de0       ?state_case_flag@?$output_processor@DV?$string_output_adapter@D@__crt_stdio_output@@V?$standard_base@DV?$string_output_adapter@D@__crt_stdio_output@@@2@@__crt_stdio_output@@AEAA_NXZ 0000000180068de0 f i libucrtd:output.obj
 0001:00067e80       ?state_case_flag@?$output_processor@_WV?$stream_output_adapter@_W@__crt_stdio_output@@V?$format_validation_base@_WV?$stream_output_adapter@_W@__crt_stdio_output@@@2@@__crt_stdio_output@@AEAA_NXZ 0000000180068e80 f i libucrtd:output.obj
 0001:00067f20       ?state_case_flag@?$output_processor@_WV?$stream_output_adapter@_W@__crt_stdio_output@@V?$positional_parameter_base@_WV?$stream_output_adapter@_W@__crt_stdio_output@@@2@@__crt_stdio_output@@AEAA_NXZ 0000000180068f20 f i libucrtd:output.obj
 0001:00067fc0       ?state_case_flag@?$output_processor@_WV?$stream_output_adapter@_W@__crt_stdio_output@@V?$standard_base@_WV?$stream_output_adapter@_W@__crt_stdio_output@@@2@@__crt_stdio_output@@AEAA_NXZ 0000000180068fc0 f i libucrtd:output.obj
 0001:00068060       ?state_case_flag@?$output_processor@_WV?$string_output_adapter@_W@__crt_stdio_output@@V?$format_validation_base@_WV?$string_output_adapter@_W@__crt_stdio_output@@@2@@__crt_stdio_output@@AEAA_NXZ 0000000180069060 f i libucrtd:output.obj
 0001:00068100       ?state_case_flag@?$output_processor@_WV?$string_output_adapter@_W@__crt_stdio_output@@V?$positional_parameter_base@_WV?$string_output_adapter@_W@__crt_stdio_output@@@2@@__crt_stdio_output@@AEAA_NXZ 0000000180069100 f i libucrtd:output.obj
 0001:000681a0       ?state_case_flag@?$output_processor@_WV?$string_output_adapter@_W@__crt_stdio_output@@V?$standard_base@_WV?$string_output_adapter@_W@__crt_stdio_output@@@2@@__crt_stdio_output@@AEAA_NXZ 00000001800691a0 f i libucrtd:output.obj
 0001:00068240       ?state_case_normal@?$output_processor@DV?$stream_output_adapter@D@__crt_stdio_output@@V?$format_validation_base@DV?$stream_output_adapter@D@__crt_stdio_output@@@2@@__crt_stdio_output@@AEAA_NXZ 0000000180069240 f i libucrtd:output.obj
 0001:00068320       ?state_case_normal@?$output_processor@DV?$stream_output_adapter@D@__crt_stdio_output@@V?$positional_parameter_base@DV?$stream_output_adapter@D@__crt_stdio_output@@@2@@__crt_stdio_output@@AEAA_NXZ 0000000180069320 f i libucrtd:output.obj
 0001:00068400       ?state_case_normal@?$output_processor@DV?$stream_output_adapter@D@__crt_stdio_output@@V?$standard_base@DV?$stream_output_adapter@D@__crt_stdio_output@@@2@@__crt_stdio_output@@AEAA_NXZ 0000000180069400 f i libucrtd:output.obj
 0001:000684e0       ?state_case_normal@?$output_processor@DV?$string_output_adapter@D@__crt_stdio_output@@V?$format_validation_base@DV?$string_output_adapter@D@__crt_stdio_output@@@2@@__crt_stdio_output@@AEAA_NXZ 00000001800694e0 f i libucrtd:output.obj
 0001:000685c0       ?state_case_normal@?$output_processor@DV?$string_output_adapter@D@__crt_stdio_output@@V?$positional_parameter_base@DV?$string_output_adapter@D@__crt_stdio_output@@@2@@__crt_stdio_output@@AEAA_NXZ 00000001800695c0 f i libucrtd:output.obj
 0001:000686a0       ?state_case_normal@?$output_processor@DV?$string_output_adapter@D@__crt_stdio_output@@V?$standard_base@DV?$string_output_adapter@D@__crt_stdio_output@@@2@@__crt_stdio_output@@AEAA_NXZ 00000001800696a0 f i libucrtd:output.obj
 0001:00068780       ?state_case_normal@?$output_processor@_WV?$stream_output_adapter@_W@__crt_stdio_output@@V?$format_validation_base@_WV?$stream_output_adapter@_W@__crt_stdio_output@@@2@@__crt_stdio_output@@AEAA_NXZ 0000000180069780 f i libucrtd:output.obj
 0001:00068860       ?state_case_normal@?$output_processor@_WV?$stream_output_adapter@_W@__crt_stdio_output@@V?$positional_parameter_base@_WV?$stream_output_adapter@_W@__crt_stdio_output@@@2@@__crt_stdio_output@@AEAA_NXZ 0000000180069860 f i libucrtd:output.obj
 0001:00068940       ?state_case_normal@?$output_processor@_WV?$stream_output_adapter@_W@__crt_stdio_output@@V?$standard_base@_WV?$stream_output_adapter@_W@__crt_stdio_output@@@2@@__crt_stdio_output@@AEAA_NXZ 0000000180069940 f i libucrtd:output.obj
 0001:00068a20       ?state_case_normal@?$output_processor@_WV?$string_output_adapter@_W@__crt_stdio_output@@V?$format_validation_base@_WV?$string_output_adapter@_W@__crt_stdio_output@@@2@@__crt_stdio_output@@AEAA_NXZ 0000000180069a20 f i libucrtd:output.obj
 0001:00068b00       ?state_case_normal@?$output_processor@_WV?$string_output_adapter@_W@__crt_stdio_output@@V?$positional_parameter_base@_WV?$string_output_adapter@_W@__crt_stdio_output@@@2@@__crt_stdio_output@@AEAA_NXZ 0000000180069b00 f i libucrtd:output.obj
 0001:00068be0       ?state_case_normal@?$output_processor@_WV?$string_output_adapter@_W@__crt_stdio_output@@V?$standard_base@_WV?$string_output_adapter@_W@__crt_stdio_output@@@2@@__crt_stdio_output@@AEAA_NXZ 0000000180069be0 f i libucrtd:output.obj
 0001:00068cc0       ?state_case_normal_common@?$output_processor@DV?$stream_output_adapter@D@__crt_stdio_output@@V?$format_validation_base@DV?$stream_output_adapter@D@__crt_stdio_output@@@2@@__crt_stdio_output@@AEAA_NXZ 0000000180069cc0 f i libucrtd:output.obj
 0001:00068d10       ?state_case_normal_common@?$output_processor@DV?$stream_output_adapter@D@__crt_stdio_output@@V?$positional_parameter_base@DV?$stream_output_adapter@D@__crt_stdio_output@@@2@@__crt_stdio_output@@AEAA_NXZ 0000000180069d10 f i libucrtd:output.obj
 0001:00068d60       ?state_case_normal_common@?$output_processor@DV?$stream_output_adapter@D@__crt_stdio_output@@V?$standard_base@DV?$stream_output_adapter@D@__crt_stdio_output@@@2@@__crt_stdio_output@@AEAA_NXZ 0000000180069d60 f i libucrtd:output.obj
 0001:00068db0       ?state_case_normal_common@?$output_processor@DV?$string_output_adapter@D@__crt_stdio_output@@V?$format_validation_base@DV?$string_output_adapter@D@__crt_stdio_output@@@2@@__crt_stdio_output@@AEAA_NXZ 0000000180069db0 f i libucrtd:output.obj
 0001:00068e00       ?state_case_normal_common@?$output_processor@DV?$string_output_adapter@D@__crt_stdio_output@@V?$positional_parameter_base@DV?$string_output_adapter@D@__crt_stdio_output@@@2@@__crt_stdio_output@@AEAA_NXZ 0000000180069e00 f i libucrtd:output.obj
 0001:00068e50       ?state_case_normal_common@?$output_processor@DV?$string_output_adapter@D@__crt_stdio_output@@V?$standard_base@DV?$string_output_adapter@D@__crt_stdio_output@@@2@@__crt_stdio_output@@AEAA_NXZ 0000000180069e50 f i libucrtd:output.obj
 0001:00068ea0       ?state_case_normal_common@?$output_processor@_WV?$stream_output_adapter@_W@__crt_stdio_output@@V?$format_validation_base@_WV?$stream_output_adapter@_W@__crt_stdio_output@@@2@@__crt_stdio_output@@AEAA_NXZ 0000000180069ea0 f i libucrtd:output.obj
 0001:00068ef0       ?state_case_normal_common@?$output_processor@_WV?$stream_output_adapter@_W@__crt_stdio_output@@V?$positional_parameter_base@_WV?$stream_output_adapter@_W@__crt_stdio_output@@@2@@__crt_stdio_output@@AEAA_NXZ 0000000180069ef0 f i libucrtd:output.obj
 0001:00068f40       ?state_case_normal_common@?$output_processor@_WV?$stream_output_adapter@_W@__crt_stdio_output@@V?$standard_base@_WV?$stream_output_adapter@_W@__crt_stdio_output@@@2@@__crt_stdio_output@@AEAA_NXZ 0000000180069f40 f i libucrtd:output.obj
 0001:00068f90       ?state_case_normal_common@?$output_processor@_WV?$string_output_adapter@_W@__crt_stdio_output@@V?$format_validation_base@_WV?$string_output_adapter@_W@__crt_stdio_output@@@2@@__crt_stdio_output@@AEAA_NXZ 0000000180069f90 f i libucrtd:output.obj
 0001:00068fe0       ?state_case_normal_common@?$output_processor@_WV?$string_output_adapter@_W@__crt_stdio_output@@V?$positional_parameter_base@_WV?$string_output_adapter@_W@__crt_stdio_output@@@2@@__crt_stdio_output@@AEAA_NXZ 0000000180069fe0 f i libucrtd:output.obj
 0001:00069030       ?state_case_normal_common@?$output_processor@_WV?$string_output_adapter@_W@__crt_stdio_output@@V?$standard_base@_WV?$string_output_adapter@_W@__crt_stdio_output@@@2@@__crt_stdio_output@@AEAA_NXZ 000000018006a030 f i libucrtd:output.obj
 0001:00069080       ?state_case_normal_tchar@?$output_processor@DV?$stream_output_adapter@D@__crt_stdio_output@@V?$format_validation_base@DV?$stream_output_adapter@D@__crt_stdio_output@@@2@@__crt_stdio_output@@AEAA_ND@Z 000000018006a080 f i libucrtd:output.obj
 0001:000691c0       ?state_case_normal_tchar@?$output_processor@DV?$stream_output_adapter@D@__crt_stdio_output@@V?$positional_parameter_base@DV?$stream_output_adapter@D@__crt_stdio_output@@@2@@__crt_stdio_output@@AEAA_ND@Z 000000018006a1c0 f i libucrtd:output.obj
 0001:00069300       ?state_case_normal_tchar@?$output_processor@DV?$stream_output_adapter@D@__crt_stdio_output@@V?$standard_base@DV?$stream_output_adapter@D@__crt_stdio_output@@@2@@__crt_stdio_output@@AEAA_ND@Z 000000018006a300 f i libucrtd:output.obj
 0001:00069440       ?state_case_normal_tchar@?$output_processor@DV?$string_output_adapter@D@__crt_stdio_output@@V?$format_validation_base@DV?$string_output_adapter@D@__crt_stdio_output@@@2@@__crt_stdio_output@@AEAA_ND@Z 000000018006a440 f i libucrtd:output.obj
 0001:00069580       ?state_case_normal_tchar@?$output_processor@DV?$string_output_adapter@D@__crt_stdio_output@@V?$positional_parameter_base@DV?$string_output_adapter@D@__crt_stdio_output@@@2@@__crt_stdio_output@@AEAA_ND@Z 000000018006a580 f i libucrtd:output.obj
 0001:000696c0       ?state_case_normal_tchar@?$output_processor@DV?$string_output_adapter@D@__crt_stdio_output@@V?$standard_base@DV?$string_output_adapter@D@__crt_stdio_output@@@2@@__crt_stdio_output@@AEAA_ND@Z 000000018006a6c0 f i libucrtd:output.obj
 0001:00069800       ?state_case_normal_tchar@?$output_processor@_WV?$stream_output_adapter@_W@__crt_stdio_output@@V?$format_validation_base@_WV?$stream_output_adapter@_W@__crt_stdio_output@@@2@@__crt_stdio_output@@AEAA_N_W@Z 000000018006a800 f i libucrtd:output.obj
 0001:00069820       ?state_case_normal_tchar@?$output_processor@_WV?$stream_output_adapter@_W@__crt_stdio_output@@V?$positional_parameter_base@_WV?$stream_output_adapter@_W@__crt_stdio_output@@@2@@__crt_stdio_output@@AEAA_N_W@Z 000000018006a820 f i libucrtd:output.obj
 0001:00069840       ?state_case_normal_tchar@?$output_processor@_WV?$stream_output_adapter@_W@__crt_stdio_output@@V?$standard_base@_WV?$stream_output_adapter@_W@__crt_stdio_output@@@2@@__crt_stdio_output@@AEAA_N_W@Z 000000018006a840 f i libucrtd:output.obj
 0001:00069860       ?state_case_normal_tchar@?$output_processor@_WV?$string_output_adapter@_W@__crt_stdio_output@@V?$format_validation_base@_WV?$string_output_adapter@_W@__crt_stdio_output@@@2@@__crt_stdio_output@@AEAA_N_W@Z 000000018006a860 f i libucrtd:output.obj
 0001:00069880       ?state_case_normal_tchar@?$output_processor@_WV?$string_output_adapter@_W@__crt_stdio_output@@V?$positional_parameter_base@_WV?$string_output_adapter@_W@__crt_stdio_output@@@2@@__crt_stdio_output@@AEAA_N_W@Z 000000018006a880 f i libucrtd:output.obj
 0001:000698a0       ?state_case_normal_tchar@?$output_processor@_WV?$string_output_adapter@_W@__crt_stdio_output@@V?$standard_base@_WV?$string_output_adapter@_W@__crt_stdio_output@@@2@@__crt_stdio_output@@AEAA_N_W@Z 000000018006a8a0 f i libucrtd:output.obj
 0001:000698c0       ?state_case_percent@?$output_processor@DV?$stream_output_adapter@D@__crt_stdio_output@@V?$format_validation_base@DV?$stream_output_adapter@D@__crt_stdio_output@@@2@@__crt_stdio_output@@AEAA_NXZ 000000018006a8c0 f i libucrtd:output.obj
 0001:00069910       ?state_case_percent@?$output_processor@DV?$stream_output_adapter@D@__crt_stdio_output@@V?$positional_parameter_base@DV?$stream_output_adapter@D@__crt_stdio_output@@@2@@__crt_stdio_output@@AEAA_NXZ 000000018006a910 f i libucrtd:output.obj
 0001:00069960       ?state_case_percent@?$output_processor@DV?$stream_output_adapter@D@__crt_stdio_output@@V?$standard_base@DV?$stream_output_adapter@D@__crt_stdio_output@@@2@@__crt_stdio_output@@AEAA_NXZ 000000018006a960 f i libucrtd:output.obj
 0001:000699b0       ?state_case_percent@?$output_processor@DV?$string_output_adapter@D@__crt_stdio_output@@V?$format_validation_base@DV?$string_output_adapter@D@__crt_stdio_output@@@2@@__crt_stdio_output@@AEAA_NXZ 000000018006a9b0 f i libucrtd:output.obj
 0001:00069a00       ?state_case_percent@?$output_processor@DV?$string_output_adapter@D@__crt_stdio_output@@V?$positional_parameter_base@DV?$string_output_adapter@D@__crt_stdio_output@@@2@@__crt_stdio_output@@AEAA_NXZ 000000018006aa00 f i libucrtd:output.obj
 0001:00069a50       ?state_case_percent@?$output_processor@DV?$string_output_adapter@D@__crt_stdio_output@@V?$standard_base@DV?$string_output_adapter@D@__crt_stdio_output@@@2@@__crt_stdio_output@@AEAA_NXZ 000000018006aa50 f i libucrtd:output.obj
 0001:00069aa0       ?state_case_percent@?$output_processor@_WV?$stream_output_adapter@_W@__crt_stdio_output@@V?$format_validation_base@_WV?$stream_output_adapter@_W@__crt_stdio_output@@@2@@__crt_stdio_output@@AEAA_NXZ 000000018006aaa0 f i libucrtd:output.obj
 0001:00069af0       ?state_case_percent@?$output_processor@_WV?$stream_output_adapter@_W@__crt_stdio_output@@V?$positional_parameter_base@_WV?$stream_output_adapter@_W@__crt_stdio_output@@@2@@__crt_stdio_output@@AEAA_NXZ 000000018006aaf0 f i libucrtd:output.obj
 0001:00069b40       ?state_case_percent@?$output_processor@_WV?$stream_output_adapter@_W@__crt_stdio_output@@V?$standard_base@_WV?$stream_output_adapter@_W@__crt_stdio_output@@@2@@__crt_stdio_output@@AEAA_NXZ 000000018006ab40 f i libucrtd:output.obj
 0001:00069b90       ?state_case_percent@?$output_processor@_WV?$string_output_adapter@_W@__crt_stdio_output@@V?$format_validation_base@_WV?$string_output_adapter@_W@__crt_stdio_output@@@2@@__crt_stdio_output@@AEAA_NXZ 000000018006ab90 f i libucrtd:output.obj
 0001:00069be0       ?state_case_percent@?$output_processor@_WV?$string_output_adapter@_W@__crt_stdio_output@@V?$positional_parameter_base@_WV?$string_output_adapter@_W@__crt_stdio_output@@@2@@__crt_stdio_output@@AEAA_NXZ 000000018006abe0 f i libucrtd:output.obj
 0001:00069c30       ?state_case_percent@?$output_processor@_WV?$string_output_adapter@_W@__crt_stdio_output@@V?$standard_base@_WV?$string_output_adapter@_W@__crt_stdio_output@@@2@@__crt_stdio_output@@AEAA_NXZ 000000018006ac30 f i libucrtd:output.obj
 0001:00069c80       ?state_case_precision@?$output_processor@DV?$stream_output_adapter@D@__crt_stdio_output@@V?$format_validation_base@DV?$stream_output_adapter@D@__crt_stdio_output@@@2@@__crt_stdio_output@@AEAA_NXZ 000000018006ac80 f i libucrtd:output.obj
 0001:00069d00       ?state_case_precision@?$output_processor@DV?$stream_output_adapter@D@__crt_stdio_output@@V?$positional_parameter_base@DV?$stream_output_adapter@D@__crt_stdio_output@@@2@@__crt_stdio_output@@AEAA_NXZ 000000018006ad00 f i libucrtd:output.obj
 0001:00069d80       ?state_case_precision@?$output_processor@DV?$stream_output_adapter@D@__crt_stdio_output@@V?$standard_base@DV?$stream_output_adapter@D@__crt_stdio_output@@@2@@__crt_stdio_output@@AEAA_NXZ 000000018006ad80 f i libucrtd:output.obj
 0001:00069e00       ?state_case_precision@?$output_processor@DV?$string_output_adapter@D@__crt_stdio_output@@V?$format_validation_base@DV?$string_output_adapter@D@__crt_stdio_output@@@2@@__crt_stdio_output@@AEAA_NXZ 000000018006ae00 f i libucrtd:output.obj
 0001:00069e80       ?state_case_precision@?$output_processor@DV?$string_output_adapter@D@__crt_stdio_output@@V?$positional_parameter_base@DV?$string_output_adapter@D@__crt_stdio_output@@@2@@__crt_stdio_output@@AEAA_NXZ 000000018006ae80 f i libucrtd:output.obj
 0001:00069f00       ?state_case_precision@?$output_processor@DV?$string_output_adapter@D@__crt_stdio_output@@V?$standard_base@DV?$string_output_adapter@D@__crt_stdio_output@@@2@@__crt_stdio_output@@AEAA_NXZ 000000018006af00 f i libucrtd:output.obj
 0001:00069f80       ?state_case_precision@?$output_processor@_WV?$stream_output_adapter@_W@__crt_stdio_output@@V?$format_validation_base@_WV?$stream_output_adapter@_W@__crt_stdio_output@@@2@@__crt_stdio_output@@AEAA_NXZ 000000018006af80 f i libucrtd:output.obj
 0001:0006a000       ?state_case_precision@?$output_processor@_WV?$stream_output_adapter@_W@__crt_stdio_output@@V?$positional_parameter_base@_WV?$stream_output_adapter@_W@__crt_stdio_output@@@2@@__crt_stdio_output@@AEAA_NXZ 000000018006b000 f i libucrtd:output.obj
 0001:0006a080       ?state_case_precision@?$output_processor@_WV?$stream_output_adapter@_W@__crt_stdio_output@@V?$standard_base@_WV?$stream_output_adapter@_W@__crt_stdio_output@@@2@@__crt_stdio_output@@AEAA_NXZ 000000018006b080 f i libucrtd:output.obj
 0001:0006a100       ?state_case_precision@?$output_processor@_WV?$string_output_adapter@_W@__crt_stdio_output@@V?$format_validation_base@_WV?$string_output_adapter@_W@__crt_stdio_output@@@2@@__crt_stdio_output@@AEAA_NXZ 000000018006b100 f i libucrtd:output.obj
 0001:0006a180       ?state_case_precision@?$output_processor@_WV?$string_output_adapter@_W@__crt_stdio_output@@V?$positional_parameter_base@_WV?$string_output_adapter@_W@__crt_stdio_output@@@2@@__crt_stdio_output@@AEAA_NXZ 000000018006b180 f i libucrtd:output.obj
 0001:0006a200       ?state_case_precision@?$output_processor@_WV?$string_output_adapter@_W@__crt_stdio_output@@V?$standard_base@_WV?$string_output_adapter@_W@__crt_stdio_output@@@2@@__crt_stdio_output@@AEAA_NXZ 000000018006b200 f i libucrtd:output.obj
 0001:0006a280       ?state_case_size@?$output_processor@DV?$stream_output_adapter@D@__crt_stdio_output@@V?$format_validation_base@DV?$stream_output_adapter@D@__crt_stdio_output@@@2@@__crt_stdio_output@@AEAA_NXZ 000000018006b280 f i libucrtd:output.obj
 0001:0006a700       ?state_case_size@?$output_processor@DV?$stream_output_adapter@D@__crt_stdio_output@@V?$positional_parameter_base@DV?$stream_output_adapter@D@__crt_stdio_output@@@2@@__crt_stdio_output@@AEAA_NXZ 000000018006b700 f i libucrtd:output.obj
 0001:0006ab80       ?state_case_size@?$output_processor@DV?$stream_output_adapter@D@__crt_stdio_output@@V?$standard_base@DV?$stream_output_adapter@D@__crt_stdio_output@@@2@@__crt_stdio_output@@AEAA_NXZ 000000018006bb80 f i libucrtd:output.obj
 0001:0006b000       ?state_case_size@?$output_processor@DV?$string_output_adapter@D@__crt_stdio_output@@V?$format_validation_base@DV?$string_output_adapter@D@__crt_stdio_output@@@2@@__crt_stdio_output@@AEAA_NXZ 000000018006c000 f i libucrtd:output.obj
 0001:0006b480       ?state_case_size@?$output_processor@DV?$string_output_adapter@D@__crt_stdio_output@@V?$positional_parameter_base@DV?$string_output_adapter@D@__crt_stdio_output@@@2@@__crt_stdio_output@@AEAA_NXZ 000000018006c480 f i libucrtd:output.obj
 0001:0006b900       ?state_case_size@?$output_processor@DV?$string_output_adapter@D@__crt_stdio_output@@V?$standard_base@DV?$string_output_adapter@D@__crt_stdio_output@@@2@@__crt_stdio_output@@AEAA_NXZ 000000018006c900 f i libucrtd:output.obj
 0001:0006bd80       ?state_case_size@?$output_processor@_WV?$stream_output_adapter@_W@__crt_stdio_output@@V?$format_validation_base@_WV?$stream_output_adapter@_W@__crt_stdio_output@@@2@@__crt_stdio_output@@AEAA_NXZ 000000018006cd80 f i libucrtd:output.obj
 0001:0006c200       ?state_case_size@?$output_processor@_WV?$stream_output_adapter@_W@__crt_stdio_output@@V?$positional_parameter_base@_WV?$stream_output_adapter@_W@__crt_stdio_output@@@2@@__crt_stdio_output@@AEAA_NXZ 000000018006d200 f i libucrtd:output.obj
 0001:0006c680       ?state_case_size@?$output_processor@_WV?$stream_output_adapter@_W@__crt_stdio_output@@V?$standard_base@_WV?$stream_output_adapter@_W@__crt_stdio_output@@@2@@__crt_stdio_output@@AEAA_NXZ 000000018006d680 f i libucrtd:output.obj
 0001:0006cb00       ?state_case_size@?$output_processor@_WV?$string_output_adapter@_W@__crt_stdio_output@@V?$format_validation_base@_WV?$string_output_adapter@_W@__crt_stdio_output@@@2@@__crt_stdio_output@@AEAA_NXZ 000000018006db00 f i libucrtd:output.obj
 0001:0006cf80       ?state_case_size@?$output_processor@_WV?$string_output_adapter@_W@__crt_stdio_output@@V?$positional_parameter_base@_WV?$string_output_adapter@_W@__crt_stdio_output@@@2@@__crt_stdio_output@@AEAA_NXZ 000000018006df80 f i libucrtd:output.obj
 0001:0006d400       ?state_case_size@?$output_processor@_WV?$string_output_adapter@_W@__crt_stdio_output@@V?$standard_base@_WV?$string_output_adapter@_W@__crt_stdio_output@@@2@@__crt_stdio_output@@AEAA_NXZ 000000018006e400 f i libucrtd:output.obj
 0001:0006d880       ?state_case_type@?$output_processor@DV?$stream_output_adapter@D@__crt_stdio_output@@V?$format_validation_base@DV?$stream_output_adapter@D@__crt_stdio_output@@@2@@__crt_stdio_output@@AEAA_NXZ 000000018006e880 f i libucrtd:output.obj
 0001:0006dd20       ?state_case_type@?$output_processor@DV?$stream_output_adapter@D@__crt_stdio_output@@V?$positional_parameter_base@DV?$stream_output_adapter@D@__crt_stdio_output@@@2@@__crt_stdio_output@@AEAA_NXZ 000000018006ed20 f i libucrtd:output.obj
 0001:0006e1c0       ?state_case_type@?$output_processor@DV?$stream_output_adapter@D@__crt_stdio_output@@V?$standard_base@DV?$stream_output_adapter@D@__crt_stdio_output@@@2@@__crt_stdio_output@@AEAA_NXZ 000000018006f1c0 f i libucrtd:output.obj
 0001:0006e660       ?state_case_type@?$output_processor@DV?$string_output_adapter@D@__crt_stdio_output@@V?$format_validation_base@DV?$string_output_adapter@D@__crt_stdio_output@@@2@@__crt_stdio_output@@AEAA_NXZ 000000018006f660 f i libucrtd:output.obj
 0001:0006eb00       ?state_case_type@?$output_processor@DV?$string_output_adapter@D@__crt_stdio_output@@V?$positional_parameter_base@DV?$string_output_adapter@D@__crt_stdio_output@@@2@@__crt_stdio_output@@AEAA_NXZ 000000018006fb00 f i libucrtd:output.obj
 0001:0006efa0       ?state_case_type@?$output_processor@DV?$string_output_adapter@D@__crt_stdio_output@@V?$standard_base@DV?$string_output_adapter@D@__crt_stdio_output@@@2@@__crt_stdio_output@@AEAA_NXZ 000000018006ffa0 f i libucrtd:output.obj
 0001:0006f440       ?state_case_type@?$output_processor@_WV?$stream_output_adapter@_W@__crt_stdio_output@@V?$format_validation_base@_WV?$stream_output_adapter@_W@__crt_stdio_output@@@2@@__crt_stdio_output@@AEAA_NXZ 0000000180070440 f i libucrtd:output.obj
 0001:0006f9a0       ?state_case_type@?$output_processor@_WV?$stream_output_adapter@_W@__crt_stdio_output@@V?$positional_parameter_base@_WV?$stream_output_adapter@_W@__crt_stdio_output@@@2@@__crt_stdio_output@@AEAA_NXZ 00000001800709a0 f i libucrtd:output.obj
 0001:0006ff00       ?state_case_type@?$output_processor@_WV?$stream_output_adapter@_W@__crt_stdio_output@@V?$standard_base@_WV?$stream_output_adapter@_W@__crt_stdio_output@@@2@@__crt_stdio_output@@AEAA_NXZ 0000000180070f00 f i libucrtd:output.obj
 0001:00070460       ?state_case_type@?$output_processor@_WV?$string_output_adapter@_W@__crt_stdio_output@@V?$format_validation_base@_WV?$string_output_adapter@_W@__crt_stdio_output@@@2@@__crt_stdio_output@@AEAA_NXZ 0000000180071460 f i libucrtd:output.obj
 0001:000709c0       ?state_case_type@?$output_processor@_WV?$string_output_adapter@_W@__crt_stdio_output@@V?$positional_parameter_base@_WV?$string_output_adapter@_W@__crt_stdio_output@@@2@@__crt_stdio_output@@AEAA_NXZ 00000001800719c0 f i libucrtd:output.obj
 0001:00070f20       ?state_case_type@?$output_processor@_WV?$string_output_adapter@_W@__crt_stdio_output@@V?$standard_base@_WV?$string_output_adapter@_W@__crt_stdio_output@@@2@@__crt_stdio_output@@AEAA_NXZ 0000000180071f20 f i libucrtd:output.obj
 0001:00071480       ?state_case_width@?$output_processor@DV?$stream_output_adapter@D@__crt_stdio_output@@V?$format_validation_base@DV?$stream_output_adapter@D@__crt_stdio_output@@@2@@__crt_stdio_output@@AEAA_NXZ 0000000180072480 f i libucrtd:output.obj
 0001:00071510       ?state_case_width@?$output_processor@DV?$stream_output_adapter@D@__crt_stdio_output@@V?$positional_parameter_base@DV?$stream_output_adapter@D@__crt_stdio_output@@@2@@__crt_stdio_output@@AEAA_NXZ 0000000180072510 f i libucrtd:output.obj
 0001:000715a0       ?state_case_width@?$output_processor@DV?$stream_output_adapter@D@__crt_stdio_output@@V?$standard_base@DV?$stream_output_adapter@D@__crt_stdio_output@@@2@@__crt_stdio_output@@AEAA_NXZ 00000001800725a0 f i libucrtd:output.obj
 0001:00071630       ?state_case_width@?$output_processor@DV?$string_output_adapter@D@__crt_stdio_output@@V?$format_validation_base@DV?$string_output_adapter@D@__crt_stdio_output@@@2@@__crt_stdio_output@@AEAA_NXZ 0000000180072630 f i libucrtd:output.obj
 0001:000716c0       ?state_case_width@?$output_processor@DV?$string_output_adapter@D@__crt_stdio_output@@V?$positional_parameter_base@DV?$string_output_adapter@D@__crt_stdio_output@@@2@@__crt_stdio_output@@AEAA_NXZ 00000001800726c0 f i libucrtd:output.obj
 0001:00071750       ?state_case_width@?$output_processor@DV?$string_output_adapter@D@__crt_stdio_output@@V?$standard_base@DV?$string_output_adapter@D@__crt_stdio_output@@@2@@__crt_stdio_output@@AEAA_NXZ 0000000180072750 f i libucrtd:output.obj
 0001:000717e0       ?state_case_width@?$output_processor@_WV?$stream_output_adapter@_W@__crt_stdio_output@@V?$format_validation_base@_WV?$stream_output_adapter@_W@__crt_stdio_output@@@2@@__crt_stdio_output@@AEAA_NXZ 00000001800727e0 f i libucrtd:output.obj
 0001:00071870       ?state_case_width@?$output_processor@_WV?$stream_output_adapter@_W@__crt_stdio_output@@V?$positional_parameter_base@_WV?$stream_output_adapter@_W@__crt_stdio_output@@@2@@__crt_stdio_output@@AEAA_NXZ 0000000180072870 f i libucrtd:output.obj
 0001:00071900       ?state_case_width@?$output_processor@_WV?$stream_output_adapter@_W@__crt_stdio_output@@V?$standard_base@_WV?$stream_output_adapter@_W@__crt_stdio_output@@@2@@__crt_stdio_output@@AEAA_NXZ 0000000180072900 f i libucrtd:output.obj
 0001:00071990       ?state_case_width@?$output_processor@_WV?$string_output_adapter@_W@__crt_stdio_output@@V?$format_validation_base@_WV?$string_output_adapter@_W@__crt_stdio_output@@@2@@__crt_stdio_output@@AEAA_NXZ 0000000180072990 f i libucrtd:output.obj
 0001:00071a20       ?state_case_width@?$output_processor@_WV?$string_output_adapter@_W@__crt_stdio_output@@V?$positional_parameter_base@_WV?$string_output_adapter@_W@__crt_stdio_output@@@2@@__crt_stdio_output@@AEAA_NXZ 0000000180072a20 f i libucrtd:output.obj
 0001:00071ab0       ?state_case_width@?$output_processor@_WV?$string_output_adapter@_W@__crt_stdio_output@@V?$standard_base@_WV?$string_output_adapter@_W@__crt_stdio_output@@@2@@__crt_stdio_output@@AEAA_NXZ 0000000180072ab0 f i libucrtd:output.obj
 0001:00071b40       ?state_count@?$format_validation_base@DV?$stream_output_adapter@D@__crt_stdio_output@@@__crt_stdio_output@@KAIXZ 0000000180072b40 f i libucrtd:output.obj
 0001:00071b50       ?state_count@?$format_validation_base@DV?$string_output_adapter@D@__crt_stdio_output@@@__crt_stdio_output@@KAIXZ 0000000180072b50 f i libucrtd:output.obj
 0001:00071b60       ?state_count@?$format_validation_base@_WV?$stream_output_adapter@_W@__crt_stdio_output@@@__crt_stdio_output@@KAIXZ 0000000180072b60 f i libucrtd:output.obj
 0001:00071b70       ?state_count@?$format_validation_base@_WV?$string_output_adapter@_W@__crt_stdio_output@@@__crt_stdio_output@@KAIXZ 0000000180072b70 f i libucrtd:output.obj
 0001:00071b80       ?state_count@?$standard_base@DV?$stream_output_adapter@D@__crt_stdio_output@@@__crt_stdio_output@@KAIXZ 0000000180072b80 f i libucrtd:output.obj
 0001:00071b90       ?state_count@?$standard_base@DV?$string_output_adapter@D@__crt_stdio_output@@@__crt_stdio_output@@KAIXZ 0000000180072b90 f i libucrtd:output.obj
 0001:00071ba0       ?state_count@?$standard_base@_WV?$stream_output_adapter@_W@__crt_stdio_output@@@__crt_stdio_output@@KAIXZ 0000000180072ba0 f i libucrtd:output.obj
 0001:00071bb0       ?state_count@?$standard_base@_WV?$string_output_adapter@_W@__crt_stdio_output@@@__crt_stdio_output@@KAIXZ 0000000180072bb0 f i libucrtd:output.obj
 0001:00071bc0       ?state_transition_table@?$format_validation_base@DV?$stream_output_adapter@D@__crt_stdio_output@@@__crt_stdio_output@@KAAEBV?$spectre_mitigated_lookup_table@Ustate_transition_pair@__crt_stdio_output@@$0IA@@2@XZ 0000000180072bc0 f i libucrtd:output.obj
 0001:00071bd0       ?state_transition_table@?$format_validation_base@DV?$string_output_adapter@D@__crt_stdio_output@@@__crt_stdio_output@@KAAEBV?$spectre_mitigated_lookup_table@Ustate_transition_pair@__crt_stdio_output@@$0IA@@2@XZ 0000000180072bd0 f i libucrtd:output.obj
 0001:00071be0       ?state_transition_table@?$format_validation_base@_WV?$stream_output_adapter@_W@__crt_stdio_output@@@__crt_stdio_output@@KAAEBV?$spectre_mitigated_lookup_table@Ustate_transition_pair@__crt_stdio_output@@$0IA@@2@XZ 0000000180072be0 f i libucrtd:output.obj
 0001:00071bf0       ?state_transition_table@?$format_validation_base@_WV?$string_output_adapter@_W@__crt_stdio_output@@@__crt_stdio_output@@KAAEBV?$spectre_mitigated_lookup_table@Ustate_transition_pair@__crt_stdio_output@@$0IA@@2@XZ 0000000180072bf0 f i libucrtd:output.obj
 0001:00071c00       ?state_transition_table@?$standard_base@DV?$stream_output_adapter@D@__crt_stdio_output@@@__crt_stdio_output@@KAAEBV?$spectre_mitigated_lookup_table@Ustate_transition_pair@__crt_stdio_output@@$0IA@@2@XZ 0000000180072c00 f i libucrtd:output.obj
 0001:00071c10       ?state_transition_table@?$standard_base@DV?$string_output_adapter@D@__crt_stdio_output@@@__crt_stdio_output@@KAAEBV?$spectre_mitigated_lookup_table@Ustate_transition_pair@__crt_stdio_output@@$0IA@@2@XZ 0000000180072c10 f i libucrtd:output.obj
 0001:00071c20       ?state_transition_table@?$standard_base@_WV?$stream_output_adapter@_W@__crt_stdio_output@@@__crt_stdio_output@@KAAEBV?$spectre_mitigated_lookup_table@Ustate_transition_pair@__crt_stdio_output@@$0IA@@2@XZ 0000000180072c20 f i libucrtd:output.obj
 0001:00071c30       ?state_transition_table@?$standard_base@_WV?$string_output_adapter@_W@__crt_stdio_output@@@__crt_stdio_output@@KAAEBV?$spectre_mitigated_lookup_table@Ustate_transition_pair@__crt_stdio_output@@$0IA@@2@XZ 0000000180072c30 f i libucrtd:output.obj
 0001:00071c40       ?tchar_string@?$common_data@D@__crt_stdio_output@@IEAAAEAPEADD@Z 0000000180072c40 f i libucrtd:output.obj
 0001:00071c60       ?tchar_string@?$common_data@D@__crt_stdio_output@@IEAAAEAPEADXZ 0000000180072c60 f i libucrtd:output.obj
 0001:00071c80       ?tchar_string@?$common_data@_W@__crt_stdio_output@@IEAAAEAPEA_WXZ 0000000180072c80 f i libucrtd:output.obj
 0001:00071ca0       ?tchar_string@?$common_data@_W@__crt_stdio_output@@IEAAAEAPEA_W_W@Z 0000000180072ca0 f i libucrtd:output.obj
 0001:00071cc0       ?to_integer_size@__crt_stdio_output@@YA_KW4length_modifier@1@@Z 0000000180072cc0 f i libucrtd:output.obj
 0001:00071d70       ?type_case_X@?$output_processor@DV?$stream_output_adapter@D@__crt_stdio_output@@V?$format_validation_base@DV?$stream_output_adapter@D@__crt_stdio_output@@@2@@__crt_stdio_output@@AEAA_NXZ 0000000180072d70 f i libucrtd:output.obj
 0001:00071d90       ?type_case_X@?$output_processor@DV?$stream_output_adapter@D@__crt_stdio_output@@V?$positional_parameter_base@DV?$stream_output_adapter@D@__crt_stdio_output@@@2@@__crt_stdio_output@@AEAA_NXZ 0000000180072d90 f i libucrtd:output.obj
 0001:00071db0       ?type_case_X@?$output_processor@DV?$stream_output_adapter@D@__crt_stdio_output@@V?$standard_base@DV?$stream_output_adapter@D@__crt_stdio_output@@@2@@__crt_stdio_output@@AEAA_NXZ 0000000180072db0 f i libucrtd:output.obj
 0001:00071dd0       ?type_case_X@?$output_processor@DV?$string_output_adapter@D@__crt_stdio_output@@V?$format_validation_base@DV?$string_output_adapter@D@__crt_stdio_output@@@2@@__crt_stdio_output@@AEAA_NXZ 0000000180072dd0 f i libucrtd:output.obj
 0001:00071df0       ?type_case_X@?$output_processor@DV?$string_output_adapter@D@__crt_stdio_output@@V?$positional_parameter_base@DV?$string_output_adapter@D@__crt_stdio_output@@@2@@__crt_stdio_output@@AEAA_NXZ 0000000180072df0 f i libucrtd:output.obj
 0001:00071e10       ?type_case_X@?$output_processor@DV?$string_output_adapter@D@__crt_stdio_output@@V?$standard_base@DV?$string_output_adapter@D@__crt_stdio_output@@@2@@__crt_stdio_output@@AEAA_NXZ 0000000180072e10 f i libucrtd:output.obj
 0001:00071e30       ?type_case_X@?$output_processor@_WV?$stream_output_adapter@_W@__crt_stdio_output@@V?$format_validation_base@_WV?$stream_output_adapter@_W@__crt_stdio_output@@@2@@__crt_stdio_output@@AEAA_NXZ 0000000180072e30 f i libucrtd:output.obj
 0001:00071e50       ?type_case_X@?$output_processor@_WV?$stream_output_adapter@_W@__crt_stdio_output@@V?$positional_parameter_base@_WV?$stream_output_adapter@_W@__crt_stdio_output@@@2@@__crt_stdio_output@@AEAA_NXZ 0000000180072e50 f i libucrtd:output.obj
 0001:00071e70       ?type_case_X@?$output_processor@_WV?$stream_output_adapter@_W@__crt_stdio_output@@V?$standard_base@_WV?$stream_output_adapter@_W@__crt_stdio_output@@@2@@__crt_stdio_output@@AEAA_NXZ 0000000180072e70 f i libucrtd:output.obj
 0001:00071e90       ?type_case_X@?$output_processor@_WV?$string_output_adapter@_W@__crt_stdio_output@@V?$format_validation_base@_WV?$string_output_adapter@_W@__crt_stdio_output@@@2@@__crt_stdio_output@@AEAA_NXZ 0000000180072e90 f i libucrtd:output.obj
 0001:00071eb0       ?type_case_X@?$output_processor@_WV?$string_output_adapter@_W@__crt_stdio_output@@V?$positional_parameter_base@_WV?$string_output_adapter@_W@__crt_stdio_output@@@2@@__crt_stdio_output@@AEAA_NXZ 0000000180072eb0 f i libucrtd:output.obj
 0001:00071ed0       ?type_case_X@?$output_processor@_WV?$string_output_adapter@_W@__crt_stdio_output@@V?$standard_base@_WV?$string_output_adapter@_W@__crt_stdio_output@@@2@@__crt_stdio_output@@AEAA_NXZ 0000000180072ed0 f i libucrtd:output.obj
 0001:00071ef0       ?type_case_Z@?$output_processor@DV?$stream_output_adapter@D@__crt_stdio_output@@V?$format_validation_base@DV?$stream_output_adapter@D@__crt_stdio_output@@@2@@__crt_stdio_output@@AEAA_NXZ 0000000180072ef0 f i libucrtd:output.obj
 0001:00072010       ?type_case_Z@?$output_processor@DV?$stream_output_adapter@D@__crt_stdio_output@@V?$positional_parameter_base@DV?$stream_output_adapter@D@__crt_stdio_output@@@2@@__crt_stdio_output@@AEAA_NXZ 0000000180073010 f i libucrtd:output.obj
 0001:00072130       ?type_case_Z@?$output_processor@DV?$stream_output_adapter@D@__crt_stdio_output@@V?$standard_base@DV?$stream_output_adapter@D@__crt_stdio_output@@@2@@__crt_stdio_output@@AEAA_NXZ 0000000180073130 f i libucrtd:output.obj
 0001:00072250       ?type_case_Z@?$output_processor@DV?$string_output_adapter@D@__crt_stdio_output@@V?$format_validation_base@DV?$string_output_adapter@D@__crt_stdio_output@@@2@@__crt_stdio_output@@AEAA_NXZ 0000000180073250 f i libucrtd:output.obj
 0001:00072370       ?type_case_Z@?$output_processor@DV?$string_output_adapter@D@__crt_stdio_output@@V?$positional_parameter_base@DV?$string_output_adapter@D@__crt_stdio_output@@@2@@__crt_stdio_output@@AEAA_NXZ 0000000180073370 f i libucrtd:output.obj
 0001:00072490       ?type_case_Z@?$output_processor@DV?$string_output_adapter@D@__crt_stdio_output@@V?$standard_base@DV?$string_output_adapter@D@__crt_stdio_output@@@2@@__crt_stdio_output@@AEAA_NXZ 0000000180073490 f i libucrtd:output.obj
 0001:000725b0       ?type_case_Z@?$output_processor@_WV?$stream_output_adapter@_W@__crt_stdio_output@@V?$format_validation_base@_WV?$stream_output_adapter@_W@__crt_stdio_output@@@2@@__crt_stdio_output@@AEAA_NXZ 00000001800735b0 f i libucrtd:output.obj
 0001:000726d0       ?type_case_Z@?$output_processor@_WV?$stream_output_adapter@_W@__crt_stdio_output@@V?$positional_parameter_base@_WV?$stream_output_adapter@_W@__crt_stdio_output@@@2@@__crt_stdio_output@@AEAA_NXZ 00000001800736d0 f i libucrtd:output.obj
 0001:000727f0       ?type_case_Z@?$output_processor@_WV?$stream_output_adapter@_W@__crt_stdio_output@@V?$standard_base@_WV?$stream_output_adapter@_W@__crt_stdio_output@@@2@@__crt_stdio_output@@AEAA_NXZ 00000001800737f0 f i libucrtd:output.obj
 0001:00072910       ?type_case_Z@?$output_processor@_WV?$string_output_adapter@_W@__crt_stdio_output@@V?$format_validation_base@_WV?$string_output_adapter@_W@__crt_stdio_output@@@2@@__crt_stdio_output@@AEAA_NXZ 0000000180073910 f i libucrtd:output.obj
 0001:00072a30       ?type_case_Z@?$output_processor@_WV?$string_output_adapter@_W@__crt_stdio_output@@V?$positional_parameter_base@_WV?$string_output_adapter@_W@__crt_stdio_output@@@2@@__crt_stdio_output@@AEAA_NXZ 0000000180073a30 f i libucrtd:output.obj
 0001:00072b50       ?type_case_Z@?$output_processor@_WV?$string_output_adapter@_W@__crt_stdio_output@@V?$standard_base@_WV?$string_output_adapter@_W@__crt_stdio_output@@@2@@__crt_stdio_output@@AEAA_NXZ 0000000180073b50 f i libucrtd:output.obj
 0001:00072c70       ?type_case_a@?$output_processor@DV?$stream_output_adapter@D@__crt_stdio_output@@V?$format_validation_base@DV?$stream_output_adapter@D@__crt_stdio_output@@@2@@__crt_stdio_output@@AEAA_NXZ 0000000180073c70 f i libucrtd:output.obj
 0001:00073040       ?type_case_a@?$output_processor@DV?$stream_output_adapter@D@__crt_stdio_output@@V?$positional_parameter_base@DV?$stream_output_adapter@D@__crt_stdio_output@@@2@@__crt_stdio_output@@AEAA_NXZ 0000000180074040 f i libucrtd:output.obj
 0001:00073410       ?type_case_a@?$output_processor@DV?$stream_output_adapter@D@__crt_stdio_output@@V?$standard_base@DV?$stream_output_adapter@D@__crt_stdio_output@@@2@@__crt_stdio_output@@AEAA_NXZ 0000000180074410 f i libucrtd:output.obj
 0001:000737e0       ?type_case_a@?$output_processor@DV?$string_output_adapter@D@__crt_stdio_output@@V?$format_validation_base@DV?$string_output_adapter@D@__crt_stdio_output@@@2@@__crt_stdio_output@@AEAA_NXZ 00000001800747e0 f i libucrtd:output.obj
 0001:00073bb0       ?type_case_a@?$output_processor@DV?$string_output_adapter@D@__crt_stdio_output@@V?$positional_parameter_base@DV?$string_output_adapter@D@__crt_stdio_output@@@2@@__crt_stdio_output@@AEAA_NXZ 0000000180074bb0 f i libucrtd:output.obj
 0001:00073f80       ?type_case_a@?$output_processor@DV?$string_output_adapter@D@__crt_stdio_output@@V?$standard_base@DV?$string_output_adapter@D@__crt_stdio_output@@@2@@__crt_stdio_output@@AEAA_NXZ 0000000180074f80 f i libucrtd:output.obj
 0001:00074350       ?type_case_a@?$output_processor@_WV?$stream_output_adapter@_W@__crt_stdio_output@@V?$format_validation_base@_WV?$stream_output_adapter@_W@__crt_stdio_output@@@2@@__crt_stdio_output@@AEAA_NXZ 0000000180075350 f i libucrtd:output.obj
 0001:00074720       ?type_case_a@?$output_processor@_WV?$stream_output_adapter@_W@__crt_stdio_output@@V?$positional_parameter_base@_WV?$stream_output_adapter@_W@__crt_stdio_output@@@2@@__crt_stdio_output@@AEAA_NXZ 0000000180075720 f i libucrtd:output.obj
 0001:00074af0       ?type_case_a@?$output_processor@_WV?$stream_output_adapter@_W@__crt_stdio_output@@V?$standard_base@_WV?$stream_output_adapter@_W@__crt_stdio_output@@@2@@__crt_stdio_output@@AEAA_NXZ 0000000180075af0 f i libucrtd:output.obj
 0001:00074ec0       ?type_case_a@?$output_processor@_WV?$string_output_adapter@_W@__crt_stdio_output@@V?$format_validation_base@_WV?$string_output_adapter@_W@__crt_stdio_output@@@2@@__crt_stdio_output@@AEAA_NXZ 0000000180075ec0 f i libucrtd:output.obj
 0001:00075290       ?type_case_a@?$output_processor@_WV?$string_output_adapter@_W@__crt_stdio_output@@V?$positional_parameter_base@_WV?$string_output_adapter@_W@__crt_stdio_output@@@2@@__crt_stdio_output@@AEAA_NXZ 0000000180076290 f i libucrtd:output.obj
 0001:00075660       ?type_case_a@?$output_processor@_WV?$string_output_adapter@_W@__crt_stdio_output@@V?$standard_base@_WV?$string_output_adapter@_W@__crt_stdio_output@@@2@@__crt_stdio_output@@AEAA_NXZ 0000000180076660 f i libucrtd:output.obj
 0001:00075a30       ?type_case_c@?$output_processor@DV?$stream_output_adapter@D@__crt_stdio_output@@V?$format_validation_base@DV?$stream_output_adapter@D@__crt_stdio_output@@@2@@__crt_stdio_output@@AEAA_NXZ 0000000180076a30 f i libucrtd:output.obj
 0001:00075a50       ?type_case_c@?$output_processor@DV?$stream_output_adapter@D@__crt_stdio_output@@V?$positional_parameter_base@DV?$stream_output_adapter@D@__crt_stdio_output@@@2@@__crt_stdio_output@@AEAA_NXZ 0000000180076a50 f i libucrtd:output.obj
 0001:00075a70       ?type_case_c@?$output_processor@DV?$stream_output_adapter@D@__crt_stdio_output@@V?$standard_base@DV?$stream_output_adapter@D@__crt_stdio_output@@@2@@__crt_stdio_output@@AEAA_NXZ 0000000180076a70 f i libucrtd:output.obj
 0001:00075a90       ?type_case_c@?$output_processor@DV?$string_output_adapter@D@__crt_stdio_output@@V?$format_validation_base@DV?$string_output_adapter@D@__crt_stdio_output@@@2@@__crt_stdio_output@@AEAA_NXZ 0000000180076a90 f i libucrtd:output.obj
 0001:00075ab0       ?type_case_c@?$output_processor@DV?$string_output_adapter@D@__crt_stdio_output@@V?$positional_parameter_base@DV?$string_output_adapter@D@__crt_stdio_output@@@2@@__crt_stdio_output@@AEAA_NXZ 0000000180076ab0 f i libucrtd:output.obj
 0001:00075ad0       ?type_case_c@?$output_processor@DV?$string_output_adapter@D@__crt_stdio_output@@V?$standard_base@DV?$string_output_adapter@D@__crt_stdio_output@@@2@@__crt_stdio_output@@AEAA_NXZ 0000000180076ad0 f i libucrtd:output.obj
 0001:00075af0       ?type_case_c@?$output_processor@_WV?$stream_output_adapter@_W@__crt_stdio_output@@V?$format_validation_base@_WV?$stream_output_adapter@_W@__crt_stdio_output@@@2@@__crt_stdio_output@@AEAA_NXZ 0000000180076af0 f i libucrtd:output.obj
 0001:00075b10       ?type_case_c@?$output_processor@_WV?$stream_output_adapter@_W@__crt_stdio_output@@V?$positional_parameter_base@_WV?$stream_output_adapter@_W@__crt_stdio_output@@@2@@__crt_stdio_output@@AEAA_NXZ 0000000180076b10 f i libucrtd:output.obj
 0001:00075b30       ?type_case_c@?$output_processor@_WV?$stream_output_adapter@_W@__crt_stdio_output@@V?$standard_base@_WV?$stream_output_adapter@_W@__crt_stdio_output@@@2@@__crt_stdio_output@@AEAA_NXZ 0000000180076b30 f i libucrtd:output.obj
 0001:00075b50       ?type_case_c@?$output_processor@_WV?$string_output_adapter@_W@__crt_stdio_output@@V?$format_validation_base@_WV?$string_output_adapter@_W@__crt_stdio_output@@@2@@__crt_stdio_output@@AEAA_NXZ 0000000180076b50 f i libucrtd:output.obj
 0001:00075b70       ?type_case_c@?$output_processor@_WV?$string_output_adapter@_W@__crt_stdio_output@@V?$positional_parameter_base@_WV?$string_output_adapter@_W@__crt_stdio_output@@@2@@__crt_stdio_output@@AEAA_NXZ 0000000180076b70 f i libucrtd:output.obj
 0001:00075b90       ?type_case_c@?$output_processor@_WV?$string_output_adapter@_W@__crt_stdio_output@@V?$standard_base@_WV?$string_output_adapter@_W@__crt_stdio_output@@@2@@__crt_stdio_output@@AEAA_NXZ 0000000180076b90 f i libucrtd:output.obj
 0001:00075bb0       ?type_case_c_tchar@?$output_processor@DV?$stream_output_adapter@D@__crt_stdio_output@@V?$format_validation_base@DV?$stream_output_adapter@D@__crt_stdio_output@@@2@@__crt_stdio_output@@AEAA_ND@Z 0000000180076bb0 f i libucrtd:output.obj
 0001:00075d10       ?type_case_c_tchar@?$output_processor@DV?$stream_output_adapter@D@__crt_stdio_output@@V?$positional_parameter_base@DV?$stream_output_adapter@D@__crt_stdio_output@@@2@@__crt_stdio_output@@AEAA_ND@Z 0000000180076d10 f i libucrtd:output.obj
 0001:00075e70       ?type_case_c_tchar@?$output_processor@DV?$stream_output_adapter@D@__crt_stdio_output@@V?$standard_base@DV?$stream_output_adapter@D@__crt_stdio_output@@@2@@__crt_stdio_output@@AEAA_ND@Z 0000000180076e70 f i libucrtd:output.obj
 0001:00075fd0       ?type_case_c_tchar@?$output_processor@DV?$string_output_adapter@D@__crt_stdio_output@@V?$format_validation_base@DV?$string_output_adapter@D@__crt_stdio_output@@@2@@__crt_stdio_output@@AEAA_ND@Z 0000000180076fd0 f i libucrtd:output.obj
 0001:00076130       ?type_case_c_tchar@?$output_processor@DV?$string_output_adapter@D@__crt_stdio_output@@V?$positional_parameter_base@DV?$string_output_adapter@D@__crt_stdio_output@@@2@@__crt_stdio_output@@AEAA_ND@Z 0000000180077130 f i libucrtd:output.obj
 0001:00076290       ?type_case_c_tchar@?$output_processor@DV?$string_output_adapter@D@__crt_stdio_output@@V?$standard_base@DV?$string_output_adapter@D@__crt_stdio_output@@@2@@__crt_stdio_output@@AEAA_ND@Z 0000000180077290 f i libucrtd:output.obj
 0001:000763f0       ?type_case_c_tchar@?$output_processor@_WV?$stream_output_adapter@_W@__crt_stdio_output@@V?$format_validation_base@_WV?$stream_output_adapter@_W@__crt_stdio_output@@@2@@__crt_stdio_output@@AEAA_N_W@Z 00000001800773f0 f i libucrtd:output.obj
 0001:00076520       ?type_case_c_tchar@?$output_processor@_WV?$stream_output_adapter@_W@__crt_stdio_output@@V?$positional_parameter_base@_WV?$stream_output_adapter@_W@__crt_stdio_output@@@2@@__crt_stdio_output@@AEAA_N_W@Z 0000000180077520 f i libucrtd:output.obj
 0001:00076650       ?type_case_c_tchar@?$output_processor@_WV?$stream_output_adapter@_W@__crt_stdio_output@@V?$standard_base@_WV?$stream_output_adapter@_W@__crt_stdio_output@@@2@@__crt_stdio_output@@AEAA_N_W@Z 0000000180077650 f i libucrtd:output.obj
 0001:00076780       ?type_case_c_tchar@?$output_processor@_WV?$string_output_adapter@_W@__crt_stdio_output@@V?$format_validation_base@_WV?$string_output_adapter@_W@__crt_stdio_output@@@2@@__crt_stdio_output@@AEAA_N_W@Z 0000000180077780 f i libucrtd:output.obj
 0001:000768b0       ?type_case_c_tchar@?$output_processor@_WV?$string_output_adapter@_W@__crt_stdio_output@@V?$positional_parameter_base@_WV?$string_output_adapter@_W@__crt_stdio_output@@@2@@__crt_stdio_output@@AEAA_N_W@Z 00000001800778b0 f i libucrtd:output.obj
 0001:000769e0       ?type_case_c_tchar@?$output_processor@_WV?$string_output_adapter@_W@__crt_stdio_output@@V?$standard_base@_WV?$string_output_adapter@_W@__crt_stdio_output@@@2@@__crt_stdio_output@@AEAA_N_W@Z 00000001800779e0 f i libucrtd:output.obj
 0001:00076b10       ?type_case_d@?$output_processor@DV?$stream_output_adapter@D@__crt_stdio_output@@V?$format_validation_base@DV?$stream_output_adapter@D@__crt_stdio_output@@@2@@__crt_stdio_output@@AEAA_NXZ 0000000180077b10 f i libucrtd:output.obj
 0001:00076b40       ?type_case_d@?$output_processor@DV?$stream_output_adapter@D@__crt_stdio_output@@V?$positional_parameter_base@DV?$stream_output_adapter@D@__crt_stdio_output@@@2@@__crt_stdio_output@@AEAA_NXZ 0000000180077b40 f i libucrtd:output.obj
 0001:00076b70       ?type_case_d@?$output_processor@DV?$stream_output_adapter@D@__crt_stdio_output@@V?$standard_base@DV?$stream_output_adapter@D@__crt_stdio_output@@@2@@__crt_stdio_output@@AEAA_NXZ 0000000180077b70 f i libucrtd:output.obj
 0001:00076ba0       ?type_case_d@?$output_processor@DV?$string_output_adapter@D@__crt_stdio_output@@V?$format_validation_base@DV?$string_output_adapter@D@__crt_stdio_output@@@2@@__crt_stdio_output@@AEAA_NXZ 0000000180077ba0 f i libucrtd:output.obj
 0001:00076bd0       ?type_case_d@?$output_processor@DV?$string_output_adapter@D@__crt_stdio_output@@V?$positional_parameter_base@DV?$string_output_adapter@D@__crt_stdio_output@@@2@@__crt_stdio_output@@AEAA_NXZ 0000000180077bd0 f i libucrtd:output.obj
 0001:00076c00       ?type_case_d@?$output_processor@DV?$string_output_adapter@D@__crt_stdio_output@@V?$standard_base@DV?$string_output_adapter@D@__crt_stdio_output@@@2@@__crt_stdio_output@@AEAA_NXZ 0000000180077c00 f i libucrtd:output.obj
 0001:00076c30       ?type_case_d@?$output_processor@_WV?$stream_output_adapter@_W@__crt_stdio_output@@V?$format_validation_base@_WV?$stream_output_adapter@_W@__crt_stdio_output@@@2@@__crt_stdio_output@@AEAA_NXZ 0000000180077c30 f i libucrtd:output.obj
 0001:00076c60       ?type_case_d@?$output_processor@_WV?$stream_output_adapter@_W@__crt_stdio_output@@V?$positional_parameter_base@_WV?$stream_output_adapter@_W@__crt_stdio_output@@@2@@__crt_stdio_output@@AEAA_NXZ 0000000180077c60 f i libucrtd:output.obj
 0001:00076c90       ?type_case_d@?$output_processor@_WV?$stream_output_adapter@_W@__crt_stdio_output@@V?$standard_base@_WV?$stream_output_adapter@_W@__crt_stdio_output@@@2@@__crt_stdio_output@@AEAA_NXZ 0000000180077c90 f i libucrtd:output.obj
 0001:00076cc0       ?type_case_d@?$output_processor@_WV?$string_output_adapter@_W@__crt_stdio_output@@V?$format_validation_base@_WV?$string_output_adapter@_W@__crt_stdio_output@@@2@@__crt_stdio_output@@AEAA_NXZ 0000000180077cc0 f i libucrtd:output.obj
 0001:00076cf0       ?type_case_d@?$output_processor@_WV?$string_output_adapter@_W@__crt_stdio_output@@V?$positional_parameter_base@_WV?$string_output_adapter@_W@__crt_stdio_output@@@2@@__crt_stdio_output@@AEAA_NXZ 0000000180077cf0 f i libucrtd:output.obj
 0001:00076d20       ?type_case_d@?$output_processor@_WV?$string_output_adapter@_W@__crt_stdio_output@@V?$standard_base@_WV?$string_output_adapter@_W@__crt_stdio_output@@@2@@__crt_stdio_output@@AEAA_NXZ 0000000180077d20 f i libucrtd:output.obj
 0001:00076d50       ?type_case_integer@?$output_processor@DV?$stream_output_adapter@D@__crt_stdio_output@@V?$format_validation_base@DV?$stream_output_adapter@D@__crt_stdio_output@@@2@@__crt_stdio_output@@AEAA_NI_N@Z 0000000180077d50 f i libucrtd:output.obj
 0001:000771a0       ?type_case_integer@?$output_processor@DV?$stream_output_adapter@D@__crt_stdio_output@@V?$positional_parameter_base@DV?$stream_output_adapter@D@__crt_stdio_output@@@2@@__crt_stdio_output@@AEAA_NI_N@Z 00000001800781a0 f i libucrtd:output.obj
 0001:000775f0       ?type_case_integer@?$output_processor@DV?$stream_output_adapter@D@__crt_stdio_output@@V?$standard_base@DV?$stream_output_adapter@D@__crt_stdio_output@@@2@@__crt_stdio_output@@AEAA_NI_N@Z 00000001800785f0 f i libucrtd:output.obj
 0001:00077a40       ?type_case_integer@?$output_processor@DV?$string_output_adapter@D@__crt_stdio_output@@V?$format_validation_base@DV?$string_output_adapter@D@__crt_stdio_output@@@2@@__crt_stdio_output@@AEAA_NI_N@Z 0000000180078a40 f i libucrtd:output.obj
 0001:00077e90       ?type_case_integer@?$output_processor@DV?$string_output_adapter@D@__crt_stdio_output@@V?$positional_parameter_base@DV?$string_output_adapter@D@__crt_stdio_output@@@2@@__crt_stdio_output@@AEAA_NI_N@Z 0000000180078e90 f i libucrtd:output.obj
 0001:000782e0       ?type_case_integer@?$output_processor@DV?$string_output_adapter@D@__crt_stdio_output@@V?$standard_base@DV?$string_output_adapter@D@__crt_stdio_output@@@2@@__crt_stdio_output@@AEAA_NI_N@Z 00000001800792e0 f i libucrtd:output.obj
 0001:00078730       ?type_case_integer@?$output_processor@_WV?$stream_output_adapter@_W@__crt_stdio_output@@V?$format_validation_base@_WV?$stream_output_adapter@_W@__crt_stdio_output@@@2@@__crt_stdio_output@@AEAA_NI_N@Z 0000000180079730 f i libucrtd:output.obj
 0001:00078b80       ?type_case_integer@?$output_processor@_WV?$stream_output_adapter@_W@__crt_stdio_output@@V?$positional_parameter_base@_WV?$stream_output_adapter@_W@__crt_stdio_output@@@2@@__crt_stdio_output@@AEAA_NI_N@Z 0000000180079b80 f i libucrtd:output.obj
 0001:00078fd0       ?type_case_integer@?$output_processor@_WV?$stream_output_adapter@_W@__crt_stdio_output@@V?$standard_base@_WV?$stream_output_adapter@_W@__crt_stdio_output@@@2@@__crt_stdio_output@@AEAA_NI_N@Z 0000000180079fd0 f i libucrtd:output.obj
 0001:00079420       ?type_case_integer@?$output_processor@_WV?$string_output_adapter@_W@__crt_stdio_output@@V?$format_validation_base@_WV?$string_output_adapter@_W@__crt_stdio_output@@@2@@__crt_stdio_output@@AEAA_NI_N@Z 000000018007a420 f i libucrtd:output.obj
 0001:00079870       ?type_case_integer@?$output_processor@_WV?$string_output_adapter@_W@__crt_stdio_output@@V?$positional_parameter_base@_WV?$string_output_adapter@_W@__crt_stdio_output@@@2@@__crt_stdio_output@@AEAA_NI_N@Z 000000018007a870 f i libucrtd:output.obj
 0001:00079cc0       ?type_case_integer@?$output_processor@_WV?$string_output_adapter@_W@__crt_stdio_output@@V?$standard_base@_WV?$string_output_adapter@_W@__crt_stdio_output@@@2@@__crt_stdio_output@@AEAA_NI_N@Z 000000018007acc0 f i libucrtd:output.obj
 0001:0007a110       ?type_case_n@?$output_processor@DV?$stream_output_adapter@D@__crt_stdio_output@@V?$format_validation_base@DV?$stream_output_adapter@D@__crt_stdio_output@@@2@@__crt_stdio_output@@AEAA_NXZ 000000018007b110 f i libucrtd:output.obj
 0001:0007a350       ?type_case_n@?$output_processor@DV?$stream_output_adapter@D@__crt_stdio_output@@V?$positional_parameter_base@DV?$stream_output_adapter@D@__crt_stdio_output@@@2@@__crt_stdio_output@@AEAA_NXZ 000000018007b350 f i libucrtd:output.obj
 0001:0007a590       ?type_case_n@?$output_processor@DV?$stream_output_adapter@D@__crt_stdio_output@@V?$standard_base@DV?$stream_output_adapter@D@__crt_stdio_output@@@2@@__crt_stdio_output@@AEAA_NXZ 000000018007b590 f i libucrtd:output.obj
 0001:0007a7d0       ?type_case_n@?$output_processor@DV?$string_output_adapter@D@__crt_stdio_output@@V?$format_validation_base@DV?$string_output_adapter@D@__crt_stdio_output@@@2@@__crt_stdio_output@@AEAA_NXZ 000000018007b7d0 f i libucrtd:output.obj
 0001:0007aa10       ?type_case_n@?$output_processor@DV?$string_output_adapter@D@__crt_stdio_output@@V?$positional_parameter_base@DV?$string_output_adapter@D@__crt_stdio_output@@@2@@__crt_stdio_output@@AEAA_NXZ 000000018007ba10 f i libucrtd:output.obj
 0001:0007ac50       ?type_case_n@?$output_processor@DV?$string_output_adapter@D@__crt_stdio_output@@V?$standard_base@DV?$string_output_adapter@D@__crt_stdio_output@@@2@@__crt_stdio_output@@AEAA_NXZ 000000018007bc50 f i libucrtd:output.obj
 0001:0007ae90       ?type_case_n@?$output_processor@_WV?$stream_output_adapter@_W@__crt_stdio_output@@V?$format_validation_base@_WV?$stream_output_adapter@_W@__crt_stdio_output@@@2@@__crt_stdio_output@@AEAA_NXZ 000000018007be90 f i libucrtd:output.obj
 0001:0007b0d0       ?type_case_n@?$output_processor@_WV?$stream_output_adapter@_W@__crt_stdio_output@@V?$positional_parameter_base@_WV?$stream_output_adapter@_W@__crt_stdio_output@@@2@@__crt_stdio_output@@AEAA_NXZ 000000018007c0d0 f i libucrtd:output.obj
 0001:0007b310       ?type_case_n@?$output_processor@_WV?$stream_output_adapter@_W@__crt_stdio_output@@V?$standard_base@_WV?$stream_output_adapter@_W@__crt_stdio_output@@@2@@__crt_stdio_output@@AEAA_NXZ 000000018007c310 f i libucrtd:output.obj
 0001:0007b550       ?type_case_n@?$output_processor@_WV?$string_output_adapter@_W@__crt_stdio_output@@V?$format_validation_base@_WV?$string_output_adapter@_W@__crt_stdio_output@@@2@@__crt_stdio_output@@AEAA_NXZ 000000018007c550 f i libucrtd:output.obj
 0001:0007b790       ?type_case_n@?$output_processor@_WV?$string_output_adapter@_W@__crt_stdio_output@@V?$positional_parameter_base@_WV?$string_output_adapter@_W@__crt_stdio_output@@@2@@__crt_stdio_output@@AEAA_NXZ 000000018007c790 f i libucrtd:output.obj
 0001:0007b9d0       ?type_case_n@?$output_processor@_WV?$string_output_adapter@_W@__crt_stdio_output@@V?$standard_base@_WV?$string_output_adapter@_W@__crt_stdio_output@@@2@@__crt_stdio_output@@AEAA_NXZ 000000018007c9d0 f i libucrtd:output.obj
 0001:0007bc10       ?type_case_o@?$output_processor@DV?$stream_output_adapter@D@__crt_stdio_output@@V?$format_validation_base@DV?$stream_output_adapter@D@__crt_stdio_output@@@2@@__crt_stdio_output@@AEAA_NXZ 000000018007cc10 f i libucrtd:output.obj
 0001:0007bc60       ?type_case_o@?$output_processor@DV?$stream_output_adapter@D@__crt_stdio_output@@V?$positional_parameter_base@DV?$stream_output_adapter@D@__crt_stdio_output@@@2@@__crt_stdio_output@@AEAA_NXZ 000000018007cc60 f i libucrtd:output.obj
 0001:0007bcb0       ?type_case_o@?$output_processor@DV?$stream_output_adapter@D@__crt_stdio_output@@V?$standard_base@DV?$stream_output_adapter@D@__crt_stdio_output@@@2@@__crt_stdio_output@@AEAA_NXZ 000000018007ccb0 f i libucrtd:output.obj
 0001:0007bd00       ?type_case_o@?$output_processor@DV?$string_output_adapter@D@__crt_stdio_output@@V?$format_validation_base@DV?$string_output_adapter@D@__crt_stdio_output@@@2@@__crt_stdio_output@@AEAA_NXZ 000000018007cd00 f i libucrtd:output.obj
 0001:0007bd50       ?type_case_o@?$output_processor@DV?$string_output_adapter@D@__crt_stdio_output@@V?$positional_parameter_base@DV?$string_output_adapter@D@__crt_stdio_output@@@2@@__crt_stdio_output@@AEAA_NXZ 000000018007cd50 f i libucrtd:output.obj
 0001:0007bda0       ?type_case_o@?$output_processor@DV?$string_output_adapter@D@__crt_stdio_output@@V?$standard_base@DV?$string_output_adapter@D@__crt_stdio_output@@@2@@__crt_stdio_output@@AEAA_NXZ 000000018007cda0 f i libucrtd:output.obj
 0001:0007bdf0       ?type_case_o@?$output_processor@_WV?$stream_output_adapter@_W@__crt_stdio_output@@V?$format_validation_base@_WV?$stream_output_adapter@_W@__crt_stdio_output@@@2@@__crt_stdio_output@@AEAA_NXZ 000000018007cdf0 f i libucrtd:output.obj
 0001:0007be40       ?type_case_o@?$output_processor@_WV?$stream_output_adapter@_W@__crt_stdio_output@@V?$positional_parameter_base@_WV?$stream_output_adapter@_W@__crt_stdio_output@@@2@@__crt_stdio_output@@AEAA_NXZ 000000018007ce40 f i libucrtd:output.obj
 0001:0007be90       ?type_case_o@?$output_processor@_WV?$stream_output_adapter@_W@__crt_stdio_output@@V?$standard_base@_WV?$stream_output_adapter@_W@__crt_stdio_output@@@2@@__crt_stdio_output@@AEAA_NXZ 000000018007ce90 f i libucrtd:output.obj
 0001:0007bee0       ?type_case_o@?$output_processor@_WV?$string_output_adapter@_W@__crt_stdio_output@@V?$format_validation_base@_WV?$string_output_adapter@_W@__crt_stdio_output@@@2@@__crt_stdio_output@@AEAA_NXZ 000000018007cee0 f i libucrtd:output.obj
 0001:0007bf30       ?type_case_o@?$output_processor@_WV?$string_output_adapter@_W@__crt_stdio_output@@V?$positional_parameter_base@_WV?$string_output_adapter@_W@__crt_stdio_output@@@2@@__crt_stdio_output@@AEAA_NXZ 000000018007cf30 f i libucrtd:output.obj
 0001:0007bf80       ?type_case_o@?$output_processor@_WV?$string_output_adapter@_W@__crt_stdio_output@@V?$standard_base@_WV?$string_output_adapter@_W@__crt_stdio_output@@@2@@__crt_stdio_output@@AEAA_NXZ 000000018007cf80 f i libucrtd:output.obj
 0001:0007bfd0       ?type_case_p@?$output_processor@DV?$stream_output_adapter@D@__crt_stdio_output@@V?$format_validation_base@DV?$stream_output_adapter@D@__crt_stdio_output@@@2@@__crt_stdio_output@@AEAA_NXZ 000000018007cfd0 f i libucrtd:output.obj
 0001:0007c010       ?type_case_p@?$output_processor@DV?$stream_output_adapter@D@__crt_stdio_output@@V?$positional_parameter_base@DV?$stream_output_adapter@D@__crt_stdio_output@@@2@@__crt_stdio_output@@AEAA_NXZ 000000018007d010 f i libucrtd:output.obj
 0001:0007c050       ?type_case_p@?$output_processor@DV?$stream_output_adapter@D@__crt_stdio_output@@V?$standard_base@DV?$stream_output_adapter@D@__crt_stdio_output@@@2@@__crt_stdio_output@@AEAA_NXZ 000000018007d050 f i libucrtd:output.obj
 0001:0007c090       ?type_case_p@?$output_processor@DV?$string_output_adapter@D@__crt_stdio_output@@V?$format_validation_base@DV?$string_output_adapter@D@__crt_stdio_output@@@2@@__crt_stdio_output@@AEAA_NXZ 000000018007d090 f i libucrtd:output.obj
 0001:0007c0d0       ?type_case_p@?$output_processor@DV?$string_output_adapter@D@__crt_stdio_output@@V?$positional_parameter_base@DV?$string_output_adapter@D@__crt_stdio_output@@@2@@__crt_stdio_output@@AEAA_NXZ 000000018007d0d0 f i libucrtd:output.obj
 0001:0007c110       ?type_case_p@?$output_processor@DV?$string_output_adapter@D@__crt_stdio_output@@V?$standard_base@DV?$string_output_adapter@D@__crt_stdio_output@@@2@@__crt_stdio_output@@AEAA_NXZ 000000018007d110 f i libucrtd:output.obj
 0001:0007c150       ?type_case_p@?$output_processor@_WV?$stream_output_adapter@_W@__crt_stdio_output@@V?$format_validation_base@_WV?$stream_output_adapter@_W@__crt_stdio_output@@@2@@__crt_stdio_output@@AEAA_NXZ 000000018007d150 f i libucrtd:output.obj
 0001:0007c190       ?type_case_p@?$output_processor@_WV?$stream_output_adapter@_W@__crt_stdio_output@@V?$positional_parameter_base@_WV?$stream_output_adapter@_W@__crt_stdio_output@@@2@@__crt_stdio_output@@AEAA_NXZ 000000018007d190 f i libucrtd:output.obj
 0001:0007c1d0       ?type_case_p@?$output_processor@_WV?$stream_output_adapter@_W@__crt_stdio_output@@V?$standard_base@_WV?$stream_output_adapter@_W@__crt_stdio_output@@@2@@__crt_stdio_output@@AEAA_NXZ 000000018007d1d0 f i libucrtd:output.obj
 0001:0007c210       ?type_case_p@?$output_processor@_WV?$string_output_adapter@_W@__crt_stdio_output@@V?$format_validation_base@_WV?$string_output_adapter@_W@__crt_stdio_output@@@2@@__crt_stdio_output@@AEAA_NXZ 000000018007d210 f i libucrtd:output.obj
 0001:0007c250       ?type_case_p@?$output_processor@_WV?$string_output_adapter@_W@__crt_stdio_output@@V?$positional_parameter_base@_WV?$string_output_adapter@_W@__crt_stdio_output@@@2@@__crt_stdio_output@@AEAA_NXZ 000000018007d250 f i libucrtd:output.obj
 0001:0007c290       ?type_case_p@?$output_processor@_WV?$string_output_adapter@_W@__crt_stdio_output@@V?$standard_base@_WV?$string_output_adapter@_W@__crt_stdio_output@@@2@@__crt_stdio_output@@AEAA_NXZ 000000018007d290 f i libucrtd:output.obj
 0001:0007c2d0       ?type_case_s@?$output_processor@DV?$stream_output_adapter@D@__crt_stdio_output@@V?$format_validation_base@DV?$stream_output_adapter@D@__crt_stdio_output@@@2@@__crt_stdio_output@@AEAA_NXZ 000000018007d2d0 f i libucrtd:output.obj
 0001:0007c3f0       ?type_case_s@?$output_processor@DV?$stream_output_adapter@D@__crt_stdio_output@@V?$positional_parameter_base@DV?$stream_output_adapter@D@__crt_stdio_output@@@2@@__crt_stdio_output@@AEAA_NXZ 000000018007d3f0 f i libucrtd:output.obj
 0001:0007c510       ?type_case_s@?$output_processor@DV?$stream_output_adapter@D@__crt_stdio_output@@V?$standard_base@DV?$stream_output_adapter@D@__crt_stdio_output@@@2@@__crt_stdio_output@@AEAA_NXZ 000000018007d510 f i libucrtd:output.obj
 0001:0007c630       ?type_case_s@?$output_processor@DV?$string_output_adapter@D@__crt_stdio_output@@V?$format_validation_base@DV?$string_output_adapter@D@__crt_stdio_output@@@2@@__crt_stdio_output@@AEAA_NXZ 000000018007d630 f i libucrtd:output.obj
 0001:0007c750       ?type_case_s@?$output_processor@DV?$string_output_adapter@D@__crt_stdio_output@@V?$positional_parameter_base@DV?$string_output_adapter@D@__crt_stdio_output@@@2@@__crt_stdio_output@@AEAA_NXZ 000000018007d750 f i libucrtd:output.obj
 0001:0007c870       ?type_case_s@?$output_processor@DV?$string_output_adapter@D@__crt_stdio_output@@V?$standard_base@DV?$string_output_adapter@D@__crt_stdio_output@@@2@@__crt_stdio_output@@AEAA_NXZ 000000018007d870 f i libucrtd:output.obj
 0001:0007c990       ?type_case_s@?$output_processor@_WV?$stream_output_adapter@_W@__crt_stdio_output@@V?$format_validation_base@_WV?$stream_output_adapter@_W@__crt_stdio_output@@@2@@__crt_stdio_output@@AEAA_NXZ 000000018007d990 f i libucrtd:output.obj
 0001:0007cab0       ?type_case_s@?$output_processor@_WV?$stream_output_adapter@_W@__crt_stdio_output@@V?$positional_parameter_base@_WV?$stream_output_adapter@_W@__crt_stdio_output@@@2@@__crt_stdio_output@@AEAA_NXZ 000000018007dab0 f i libucrtd:output.obj
 0001:0007cbd0       ?type_case_s@?$output_processor@_WV?$stream_output_adapter@_W@__crt_stdio_output@@V?$standard_base@_WV?$stream_output_adapter@_W@__crt_stdio_output@@@2@@__crt_stdio_output@@AEAA_NXZ 000000018007dbd0 f i libucrtd:output.obj
 0001:0007ccf0       ?type_case_s@?$output_processor@_WV?$string_output_adapter@_W@__crt_stdio_output@@V?$format_validation_base@_WV?$string_output_adapter@_W@__crt_stdio_output@@@2@@__crt_stdio_output@@AEAA_NXZ 000000018007dcf0 f i libucrtd:output.obj
 0001:0007ce10       ?type_case_s@?$output_processor@_WV?$string_output_adapter@_W@__crt_stdio_output@@V?$positional_parameter_base@_WV?$string_output_adapter@_W@__crt_stdio_output@@@2@@__crt_stdio_output@@AEAA_NXZ 000000018007de10 f i libucrtd:output.obj
 0001:0007cf30       ?type_case_s@?$output_processor@_WV?$string_output_adapter@_W@__crt_stdio_output@@V?$standard_base@_WV?$string_output_adapter@_W@__crt_stdio_output@@@2@@__crt_stdio_output@@AEAA_NXZ 000000018007df30 f i libucrtd:output.obj
 0001:0007d050       ?type_case_s_compute_narrow_string_length@?$output_processor@DV?$stream_output_adapter@D@__crt_stdio_output@@V?$format_validation_base@DV?$stream_output_adapter@D@__crt_stdio_output@@@2@@__crt_stdio_output@@AEBAHHD@Z 000000018007e050 f i libucrtd:output.obj
 0001:0007d080       ?type_case_s_compute_narrow_string_length@?$output_processor@DV?$stream_output_adapter@D@__crt_stdio_output@@V?$positional_parameter_base@DV?$stream_output_adapter@D@__crt_stdio_output@@@2@@__crt_stdio_output@@AEBAHHD@Z 000000018007e080 f i libucrtd:output.obj
 0001:0007d0b0       ?type_case_s_compute_narrow_string_length@?$output_processor@DV?$stream_output_adapter@D@__crt_stdio_output@@V?$standard_base@DV?$stream_output_adapter@D@__crt_stdio_output@@@2@@__crt_stdio_output@@AEBAHHD@Z 000000018007e0b0 f i libucrtd:output.obj
 0001:0007d0e0       ?type_case_s_compute_narrow_string_length@?$output_processor@DV?$string_output_adapter@D@__crt_stdio_output@@V?$format_validation_base@DV?$string_output_adapter@D@__crt_stdio_output@@@2@@__crt_stdio_output@@AEBAHHD@Z 000000018007e0e0 f i libucrtd:output.obj
 0001:0007d110       ?type_case_s_compute_narrow_string_length@?$output_processor@DV?$string_output_adapter@D@__crt_stdio_output@@V?$positional_parameter_base@DV?$string_output_adapter@D@__crt_stdio_output@@@2@@__crt_stdio_output@@AEBAHHD@Z 000000018007e110 f i libucrtd:output.obj
 0001:0007d140       ?type_case_s_compute_narrow_string_length@?$output_processor@DV?$string_output_adapter@D@__crt_stdio_output@@V?$standard_base@DV?$string_output_adapter@D@__crt_stdio_output@@@2@@__crt_stdio_output@@AEBAHHD@Z 000000018007e140 f i libucrtd:output.obj
 0001:0007d170       ?type_case_s_compute_narrow_string_length@?$output_processor@_WV?$stream_output_adapter@_W@__crt_stdio_output@@V?$format_validation_base@_WV?$stream_output_adapter@_W@__crt_stdio_output@@@2@@__crt_stdio_output@@AEBAHH_W@Z 000000018007e170 f i libucrtd:output.obj
 0001:0007d200       ?type_case_s_compute_narrow_string_length@?$output_processor@_WV?$stream_output_adapter@_W@__crt_stdio_output@@V?$positional_parameter_base@_WV?$stream_output_adapter@_W@__crt_stdio_output@@@2@@__crt_stdio_output@@AEBAHH_W@Z 000000018007e200 f i libucrtd:output.obj
 0001:0007d290       ?type_case_s_compute_narrow_string_length@?$output_processor@_WV?$stream_output_adapter@_W@__crt_stdio_output@@V?$standard_base@_WV?$stream_output_adapter@_W@__crt_stdio_output@@@2@@__crt_stdio_output@@AEBAHH_W@Z 000000018007e290 f i libucrtd:output.obj
 0001:0007d320       ?type_case_s_compute_narrow_string_length@?$output_processor@_WV?$string_output_adapter@_W@__crt_stdio_output@@V?$format_validation_base@_WV?$string_output_adapter@_W@__crt_stdio_output@@@2@@__crt_stdio_output@@AEBAHH_W@Z 000000018007e320 f i libucrtd:output.obj
 0001:0007d3b0       ?type_case_s_compute_narrow_string_length@?$output_processor@_WV?$string_output_adapter@_W@__crt_stdio_output@@V?$positional_parameter_base@_WV?$string_output_adapter@_W@__crt_stdio_output@@@2@@__crt_stdio_output@@AEBAHH_W@Z 000000018007e3b0 f i libucrtd:output.obj
 0001:0007d440       ?type_case_s_compute_narrow_string_length@?$output_processor@_WV?$string_output_adapter@_W@__crt_stdio_output@@V?$standard_base@_WV?$string_output_adapter@_W@__crt_stdio_output@@@2@@__crt_stdio_output@@AEBAHH_W@Z 000000018007e440 f i libucrtd:output.obj
 0001:0007d4d0       ?type_case_u@?$output_processor@DV?$stream_output_adapter@D@__crt_stdio_output@@V?$format_validation_base@DV?$stream_output_adapter@D@__crt_stdio_output@@@2@@__crt_stdio_output@@AEAA_NXZ 000000018007e4d0 f i libucrtd:output.obj
 0001:0007d4f0       ?type_case_u@?$output_processor@DV?$stream_output_adapter@D@__crt_stdio_output@@V?$positional_parameter_base@DV?$stream_output_adapter@D@__crt_stdio_output@@@2@@__crt_stdio_output@@AEAA_NXZ 000000018007e4f0 f i libucrtd:output.obj
 0001:0007d510       ?type_case_u@?$output_processor@DV?$stream_output_adapter@D@__crt_stdio_output@@V?$standard_base@DV?$stream_output_adapter@D@__crt_stdio_output@@@2@@__crt_stdio_output@@AEAA_NXZ 000000018007e510 f i libucrtd:output.obj
 0001:0007d530       ?type_case_u@?$output_processor@DV?$string_output_adapter@D@__crt_stdio_output@@V?$format_validation_base@DV?$string_output_adapter@D@__crt_stdio_output@@@2@@__crt_stdio_output@@AEAA_NXZ 000000018007e530 f i libucrtd:output.obj
 0001:0007d550       ?type_case_u@?$output_processor@DV?$string_output_adapter@D@__crt_stdio_output@@V?$positional_parameter_base@DV?$string_output_adapter@D@__crt_stdio_output@@@2@@__crt_stdio_output@@AEAA_NXZ 000000018007e550 f i libucrtd:output.obj
 0001:0007d570       ?type_case_u@?$output_processor@DV?$string_output_adapter@D@__crt_stdio_output@@V?$standard_base@DV?$string_output_adapter@D@__crt_stdio_output@@@2@@__crt_stdio_output@@AEAA_NXZ 000000018007e570 f i libucrtd:output.obj
 0001:0007d590       ?type_case_u@?$output_processor@_WV?$stream_output_adapter@_W@__crt_stdio_output@@V?$format_validation_base@_WV?$stream_output_adapter@_W@__crt_stdio_output@@@2@@__crt_stdio_output@@AEAA_NXZ 000000018007e590 f i libucrtd:output.obj
 0001:0007d5b0       ?type_case_u@?$output_processor@_WV?$stream_output_adapter@_W@__crt_stdio_output@@V?$positional_parameter_base@_WV?$stream_output_adapter@_W@__crt_stdio_output@@@2@@__crt_stdio_output@@AEAA_NXZ 000000018007e5b0 f i libucrtd:output.obj
 0001:0007d5d0       ?type_case_u@?$output_processor@_WV?$stream_output_adapter@_W@__crt_stdio_output@@V?$standard_base@_WV?$stream_output_adapter@_W@__crt_stdio_output@@@2@@__crt_stdio_output@@AEAA_NXZ 000000018007e5d0 f i libucrtd:output.obj
 0001:0007d5f0       ?type_case_u@?$output_processor@_WV?$string_output_adapter@_W@__crt_stdio_output@@V?$format_validation_base@_WV?$string_output_adapter@_W@__crt_stdio_output@@@2@@__crt_stdio_output@@AEAA_NXZ 000000018007e5f0 f i libucrtd:output.obj
 0001:0007d610       ?type_case_u@?$output_processor@_WV?$string_output_adapter@_W@__crt_stdio_output@@V?$positional_parameter_base@_WV?$string_output_adapter@_W@__crt_stdio_output@@@2@@__crt_stdio_output@@AEAA_NXZ 000000018007e610 f i libucrtd:output.obj
 0001:0007d630       ?type_case_u@?$output_processor@_WV?$string_output_adapter@_W@__crt_stdio_output@@V?$standard_base@_WV?$string_output_adapter@_W@__crt_stdio_output@@@2@@__crt_stdio_output@@AEAA_NXZ 000000018007e630 f i libucrtd:output.obj
 0001:0007d650       ?type_case_x@?$output_processor@DV?$stream_output_adapter@D@__crt_stdio_output@@V?$format_validation_base@DV?$stream_output_adapter@D@__crt_stdio_output@@@2@@__crt_stdio_output@@AEAA_NXZ 000000018007e650 f i libucrtd:output.obj
 0001:0007d670       ?type_case_x@?$output_processor@DV?$stream_output_adapter@D@__crt_stdio_output@@V?$positional_parameter_base@DV?$stream_output_adapter@D@__crt_stdio_output@@@2@@__crt_stdio_output@@AEAA_NXZ 000000018007e670 f i libucrtd:output.obj
 0001:0007d690       ?type_case_x@?$output_processor@DV?$stream_output_adapter@D@__crt_stdio_output@@V?$standard_base@DV?$stream_output_adapter@D@__crt_stdio_output@@@2@@__crt_stdio_output@@AEAA_NXZ 000000018007e690 f i libucrtd:output.obj
 0001:0007d6b0       ?type_case_x@?$output_processor@DV?$string_output_adapter@D@__crt_stdio_output@@V?$format_validation_base@DV?$string_output_adapter@D@__crt_stdio_output@@@2@@__crt_stdio_output@@AEAA_NXZ 000000018007e6b0 f i libucrtd:output.obj
 0001:0007d6d0       ?type_case_x@?$output_processor@DV?$string_output_adapter@D@__crt_stdio_output@@V?$positional_parameter_base@DV?$string_output_adapter@D@__crt_stdio_output@@@2@@__crt_stdio_output@@AEAA_NXZ 000000018007e6d0 f i libucrtd:output.obj
 0001:0007d6f0       ?type_case_x@?$output_processor@DV?$string_output_adapter@D@__crt_stdio_output@@V?$standard_base@DV?$string_output_adapter@D@__crt_stdio_output@@@2@@__crt_stdio_output@@AEAA_NXZ 000000018007e6f0 f i libucrtd:output.obj
 0001:0007d710       ?type_case_x@?$output_processor@_WV?$stream_output_adapter@_W@__crt_stdio_output@@V?$format_validation_base@_WV?$stream_output_adapter@_W@__crt_stdio_output@@@2@@__crt_stdio_output@@AEAA_NXZ 000000018007e710 f i libucrtd:output.obj
 0001:0007d730       ?type_case_x@?$output_processor@_WV?$stream_output_adapter@_W@__crt_stdio_output@@V?$positional_parameter_base@_WV?$stream_output_adapter@_W@__crt_stdio_output@@@2@@__crt_stdio_output@@AEAA_NXZ 000000018007e730 f i libucrtd:output.obj
 0001:0007d750       ?type_case_x@?$output_processor@_WV?$stream_output_adapter@_W@__crt_stdio_output@@V?$standard_base@_WV?$stream_output_adapter@_W@__crt_stdio_output@@@2@@__crt_stdio_output@@AEAA_NXZ 000000018007e750 f i libucrtd:output.obj
 0001:0007d770       ?type_case_x@?$output_processor@_WV?$string_output_adapter@_W@__crt_stdio_output@@V?$format_validation_base@_WV?$string_output_adapter@_W@__crt_stdio_output@@@2@@__crt_stdio_output@@AEAA_NXZ 000000018007e770 f i libucrtd:output.obj
 0001:0007d790       ?type_case_x@?$output_processor@_WV?$string_output_adapter@_W@__crt_stdio_output@@V?$positional_parameter_base@_WV?$string_output_adapter@_W@__crt_stdio_output@@@2@@__crt_stdio_output@@AEAA_NXZ 000000018007e790 f i libucrtd:output.obj
 0001:0007d7b0       ?type_case_x@?$output_processor@_WV?$string_output_adapter@_W@__crt_stdio_output@@V?$standard_base@_WV?$string_output_adapter@_W@__crt_stdio_output@@@2@@__crt_stdio_output@@AEAA_NXZ 000000018007e7b0 f i libucrtd:output.obj
 0001:0007d7d0       ?unset_flag@?$output_processor@DV?$stream_output_adapter@D@__crt_stdio_output@@V?$format_validation_base@DV?$stream_output_adapter@D@__crt_stdio_output@@@2@@__crt_stdio_output@@AEAAXI@Z 000000018007e7d0 f i libucrtd:output.obj
 0001:0007d800       ?unset_flag@?$output_processor@DV?$stream_output_adapter@D@__crt_stdio_output@@V?$positional_parameter_base@DV?$stream_output_adapter@D@__crt_stdio_output@@@2@@__crt_stdio_output@@AEAAXI@Z 000000018007e800 f i libucrtd:output.obj
 0001:0007d830       ?unset_flag@?$output_processor@DV?$stream_output_adapter@D@__crt_stdio_output@@V?$standard_base@DV?$stream_output_adapter@D@__crt_stdio_output@@@2@@__crt_stdio_output@@AEAAXI@Z 000000018007e830 f i libucrtd:output.obj
 0001:0007d860       ?unset_flag@?$output_processor@DV?$string_output_adapter@D@__crt_stdio_output@@V?$format_validation_base@DV?$string_output_adapter@D@__crt_stdio_output@@@2@@__crt_stdio_output@@AEAAXI@Z 000000018007e860 f i libucrtd:output.obj
 0001:0007d890       ?unset_flag@?$output_processor@DV?$string_output_adapter@D@__crt_stdio_output@@V?$positional_parameter_base@DV?$string_output_adapter@D@__crt_stdio_output@@@2@@__crt_stdio_output@@AEAAXI@Z 000000018007e890 f i libucrtd:output.obj
 0001:0007d8c0       ?unset_flag@?$output_processor@DV?$string_output_adapter@D@__crt_stdio_output@@V?$standard_base@DV?$string_output_adapter@D@__crt_stdio_output@@@2@@__crt_stdio_output@@AEAAXI@Z 000000018007e8c0 f i libucrtd:output.obj
 0001:0007d8f0       ?unset_flag@?$output_processor@_WV?$stream_output_adapter@_W@__crt_stdio_output@@V?$format_validation_base@_WV?$stream_output_adapter@_W@__crt_stdio_output@@@2@@__crt_stdio_output@@AEAAXI@Z 000000018007e8f0 f i libucrtd:output.obj
 0001:0007d920       ?unset_flag@?$output_processor@_WV?$stream_output_adapter@_W@__crt_stdio_output@@V?$positional_parameter_base@_WV?$stream_output_adapter@_W@__crt_stdio_output@@@2@@__crt_stdio_output@@AEAAXI@Z 000000018007e920 f i libucrtd:output.obj
 0001:0007d950       ?unset_flag@?$output_processor@_WV?$stream_output_adapter@_W@__crt_stdio_output@@V?$standard_base@_WV?$stream_output_adapter@_W@__crt_stdio_output@@@2@@__crt_stdio_output@@AEAAXI@Z 000000018007e950 f i libucrtd:output.obj
 0001:0007d980       ?unset_flag@?$output_processor@_WV?$string_output_adapter@_W@__crt_stdio_output@@V?$format_validation_base@_WV?$string_output_adapter@_W@__crt_stdio_output@@@2@@__crt_stdio_output@@AEAAXI@Z 000000018007e980 f i libucrtd:output.obj
 0001:0007d9b0       ?unset_flag@?$output_processor@_WV?$string_output_adapter@_W@__crt_stdio_output@@V?$positional_parameter_base@_WV?$string_output_adapter@_W@__crt_stdio_output@@@2@@__crt_stdio_output@@AEAAXI@Z 000000018007e9b0 f i libucrtd:output.obj
 0001:0007d9e0       ?unset_flag@?$output_processor@_WV?$string_output_adapter@_W@__crt_stdio_output@@V?$standard_base@_WV?$string_output_adapter@_W@__crt_stdio_output@@@2@@__crt_stdio_output@@AEAAXI@Z 000000018007e9e0 f i libucrtd:output.obj
 0001:0007da10       ?update_field_width@?$positional_parameter_base@DV?$stream_output_adapter@D@__crt_stdio_output@@@__crt_stdio_output@@IEAA_NXZ 000000018007ea10 f i libucrtd:output.obj
 0001:0007dc00       ?update_field_width@?$positional_parameter_base@DV?$string_output_adapter@D@__crt_stdio_output@@@__crt_stdio_output@@IEAA_NXZ 000000018007ec00 f i libucrtd:output.obj
 0001:0007ddf0       ?update_field_width@?$positional_parameter_base@_WV?$stream_output_adapter@_W@__crt_stdio_output@@@__crt_stdio_output@@IEAA_NXZ 000000018007edf0 f i libucrtd:output.obj
 0001:0007dfe0       ?update_field_width@?$positional_parameter_base@_WV?$string_output_adapter@_W@__crt_stdio_output@@@__crt_stdio_output@@IEAA_NXZ 000000018007efe0 f i libucrtd:output.obj
 0001:0007e1d0       ?update_field_width@?$standard_base@DV?$stream_output_adapter@D@__crt_stdio_output@@@__crt_stdio_output@@IEAA_NXZ 000000018007f1d0 f i libucrtd:output.obj
 0001:0007e200       ?update_field_width@?$standard_base@DV?$string_output_adapter@D@__crt_stdio_output@@@__crt_stdio_output@@IEAA_NXZ 000000018007f200 f i libucrtd:output.obj
 0001:0007e230       ?update_field_width@?$standard_base@_WV?$stream_output_adapter@_W@__crt_stdio_output@@@__crt_stdio_output@@IEAA_NXZ 000000018007f230 f i libucrtd:output.obj
 0001:0007e260       ?update_field_width@?$standard_base@_WV?$string_output_adapter@_W@__crt_stdio_output@@@__crt_stdio_output@@IEAA_NXZ 000000018007f260 f i libucrtd:output.obj
 0001:0007e290       ?update_precision@?$positional_parameter_base@DV?$stream_output_adapter@D@__crt_stdio_output@@@__crt_stdio_output@@IEAA_NXZ 000000018007f290 f i libucrtd:output.obj
 0001:0007e480       ?update_precision@?$positional_parameter_base@DV?$string_output_adapter@D@__crt_stdio_output@@@__crt_stdio_output@@IEAA_NXZ 000000018007f480 f i libucrtd:output.obj
 0001:0007e670       ?update_precision@?$positional_parameter_base@_WV?$stream_output_adapter@_W@__crt_stdio_output@@@__crt_stdio_output@@IEAA_NXZ 000000018007f670 f i libucrtd:output.obj
 0001:0007e860       ?update_precision@?$positional_parameter_base@_WV?$string_output_adapter@_W@__crt_stdio_output@@@__crt_stdio_output@@IEAA_NXZ 000000018007f860 f i libucrtd:output.obj
 0001:0007ea50       ?update_precision@?$standard_base@DV?$stream_output_adapter@D@__crt_stdio_output@@@__crt_stdio_output@@IEAA_NXZ 000000018007fa50 f i libucrtd:output.obj
 0001:0007ea80       ?update_precision@?$standard_base@DV?$string_output_adapter@D@__crt_stdio_output@@@__crt_stdio_output@@IEAA_NXZ 000000018007fa80 f i libucrtd:output.obj
 0001:0007eab0       ?update_precision@?$standard_base@_WV?$stream_output_adapter@_W@__crt_stdio_output@@@__crt_stdio_output@@IEAA_NXZ 000000018007fab0 f i libucrtd:output.obj
 0001:0007eae0       ?update_precision@?$standard_base@_WV?$string_output_adapter@_W@__crt_stdio_output@@@__crt_stdio_output@@IEAA_NXZ 000000018007fae0 f i libucrtd:output.obj
 0001:0007eb10       ?valid@__crt_stdio_stream@@QEBA_NXZ 000000018007fb10 f i libucrtd:output.obj
 0001:0007eb40       ?validate@?$stream_output_adapter@D@__crt_stdio_output@@QEBA_NXZ 000000018007fb40 f i libucrtd:output.obj
 0001:0007ec20       ?validate@?$stream_output_adapter@_W@__crt_stdio_output@@QEBA_NXZ 000000018007fc20 f i libucrtd:output.obj
 0001:0007ed00       ?validate@?$string_output_adapter@D@__crt_stdio_output@@QEBA_NXZ 000000018007fd00 f i libucrtd:output.obj
 0001:0007edc0       ?validate@?$string_output_adapter@_W@__crt_stdio_output@@QEBA_NXZ 000000018007fdc0 f i libucrtd:output.obj
 0001:0007ee80       ?validate_and_store_parameter_data@?$positional_parameter_base@DV?$stream_output_adapter@D@__crt_stdio_output@@@__crt_stdio_output@@AEAA_NAEAUparameter_data@12@W4parameter_type@12@DW4length_modifier@2@@Z 000000018007fe80 f i libucrtd:output.obj
 0001:0007efa0       ?validate_and_store_parameter_data@?$positional_parameter_base@DV?$string_output_adapter@D@__crt_stdio_output@@@__crt_stdio_output@@AEAA_NAEAUparameter_data@12@W4parameter_type@12@DW4length_modifier@2@@Z 000000018007ffa0 f i libucrtd:output.obj
 0001:0007f0c0       ?validate_and_store_parameter_data@?$positional_parameter_base@_WV?$stream_output_adapter@_W@__crt_stdio_output@@@__crt_stdio_output@@AEAA_NAEAUparameter_data@12@W4parameter_type@12@_WW4length_modifier@2@@Z 00000001800800c0 f i libucrtd:output.obj
 0001:0007f1e0       ?validate_and_store_parameter_data@?$positional_parameter_base@_WV?$string_output_adapter@_W@__crt_stdio_output@@@__crt_stdio_output@@AEAA_NAEAUparameter_data@12@W4parameter_type@12@_WW4length_modifier@2@@Z 00000001800801e0 f i libucrtd:output.obj
 0001:0007f300       ?validate_and_update_state_at_beginning_of_format_character@?$positional_parameter_base@DV?$stream_output_adapter@D@__crt_stdio_output@@@__crt_stdio_output@@IEAA_NXZ 0000000180080300 f i libucrtd:output.obj
 0001:0007f5e0       ?validate_and_update_state_at_beginning_of_format_character@?$positional_parameter_base@DV?$string_output_adapter@D@__crt_stdio_output@@@__crt_stdio_output@@IEAA_NXZ 00000001800805e0 f i libucrtd:output.obj
 0001:0007f8c0       ?validate_and_update_state_at_beginning_of_format_character@?$positional_parameter_base@_WV?$stream_output_adapter@_W@__crt_stdio_output@@@__crt_stdio_output@@IEAA_NXZ 00000001800808c0 f i libucrtd:output.obj
 0001:0007fba0       ?validate_and_update_state_at_beginning_of_format_character@?$positional_parameter_base@_WV?$string_output_adapter@_W@__crt_stdio_output@@@__crt_stdio_output@@IEAA_NXZ 0000000180080ba0 f i libucrtd:output.obj
 0001:0007fe80       ?validate_and_update_state_at_beginning_of_format_character@?$standard_base@DV?$stream_output_adapter@D@__crt_stdio_output@@@__crt_stdio_output@@IEAA_NXZ 0000000180080e80 f i libucrtd:output.obj
 0001:0007fe90       ?validate_and_update_state_at_beginning_of_format_character@?$standard_base@DV?$string_output_adapter@D@__crt_stdio_output@@@__crt_stdio_output@@IEAA_NXZ 0000000180080e90 f i libucrtd:output.obj
 0001:0007fea0       ?validate_and_update_state_at_beginning_of_format_character@?$standard_base@_WV?$stream_output_adapter@_W@__crt_stdio_output@@@__crt_stdio_output@@IEAA_NXZ 0000000180080ea0 f i libucrtd:output.obj
 0001:0007feb0       ?validate_and_update_state_at_beginning_of_format_character@?$standard_base@_WV?$string_output_adapter@_W@__crt_stdio_output@@@__crt_stdio_output@@IEAA_NXZ 0000000180080eb0 f i libucrtd:output.obj
 0001:0007fec0       ?validate_and_update_state_at_end_of_format_string@?$format_validation_base@DV?$stream_output_adapter@D@__crt_stdio_output@@@__crt_stdio_output@@IEBA_NXZ 0000000180080ec0 f i libucrtd:output.obj
 0001:0007ff80       ?validate_and_update_state_at_end_of_format_string@?$format_validation_base@DV?$string_output_adapter@D@__crt_stdio_output@@@__crt_stdio_output@@IEBA_NXZ 0000000180080f80 f i libucrtd:output.obj
 0001:00080040       ?validate_and_update_state_at_end_of_format_string@?$format_validation_base@_WV?$stream_output_adapter@_W@__crt_stdio_output@@@__crt_stdio_output@@IEBA_NXZ 0000000180081040 f i libucrtd:output.obj
 0001:00080100       ?validate_and_update_state_at_end_of_format_string@?$format_validation_base@_WV?$string_output_adapter@_W@__crt_stdio_output@@@__crt_stdio_output@@IEBA_NXZ 0000000180081100 f i libucrtd:output.obj
 0001:000801c0       ?validate_and_update_state_at_end_of_format_string@?$positional_parameter_base@DV?$stream_output_adapter@D@__crt_stdio_output@@@__crt_stdio_output@@IEAA_NXZ 00000001800811c0 f i libucrtd:output.obj
 0001:000803b0       ?validate_and_update_state_at_end_of_format_string@?$positional_parameter_base@DV?$string_output_adapter@D@__crt_stdio_output@@@__crt_stdio_output@@IEAA_NXZ 00000001800813b0 f i libucrtd:output.obj
 0001:000805a0       ?validate_and_update_state_at_end_of_format_string@?$positional_parameter_base@_WV?$stream_output_adapter@_W@__crt_stdio_output@@@__crt_stdio_output@@IEAA_NXZ 00000001800815a0 f i libucrtd:output.obj
 0001:00080790       ?validate_and_update_state_at_end_of_format_string@?$positional_parameter_base@_WV?$string_output_adapter@_W@__crt_stdio_output@@@__crt_stdio_output@@IEAA_NXZ 0000000180081790 f i libucrtd:output.obj
 0001:00080980       ?validate_and_update_state_at_end_of_format_string@?$standard_base@DV?$stream_output_adapter@D@__crt_stdio_output@@@__crt_stdio_output@@IEBA_NXZ 0000000180081980 f i libucrtd:output.obj
 0001:00080990       ?validate_and_update_state_at_end_of_format_string@?$standard_base@DV?$string_output_adapter@D@__crt_stdio_output@@@__crt_stdio_output@@IEBA_NXZ 0000000180081990 f i libucrtd:output.obj
 0001:000809a0       ?validate_and_update_state_at_end_of_format_string@?$standard_base@_WV?$stream_output_adapter@_W@__crt_stdio_output@@@__crt_stdio_output@@IEBA_NXZ 00000001800819a0 f i libucrtd:output.obj
 0001:000809b0       ?validate_and_update_state_at_end_of_format_string@?$standard_base@_WV?$string_output_adapter@_W@__crt_stdio_output@@@__crt_stdio_output@@IEBA_NXZ 00000001800819b0 f i libucrtd:output.obj
 0001:000809c0       ?validate_state_for_type_case_a@?$positional_parameter_base@DV?$stream_output_adapter@D@__crt_stdio_output@@@__crt_stdio_output@@IEAA_NXZ 00000001800819c0 f i libucrtd:output.obj
 0001:00080b00       ?validate_state_for_type_case_a@?$positional_parameter_base@DV?$string_output_adapter@D@__crt_stdio_output@@@__crt_stdio_output@@IEAA_NXZ 0000000180081b00 f i libucrtd:output.obj
 0001:00080c40       ?validate_state_for_type_case_a@?$positional_parameter_base@_WV?$stream_output_adapter@_W@__crt_stdio_output@@@__crt_stdio_output@@IEAA_NXZ 0000000180081c40 f i libucrtd:output.obj
 0001:00080d80       ?validate_state_for_type_case_a@?$positional_parameter_base@_WV?$string_output_adapter@_W@__crt_stdio_output@@@__crt_stdio_output@@IEAA_NXZ 0000000180081d80 f i libucrtd:output.obj
 0001:00080ec0       ?validate_state_for_type_case_a@?$standard_base@DV?$stream_output_adapter@D@__crt_stdio_output@@@__crt_stdio_output@@IEBA_NXZ 0000000180081ec0 f i libucrtd:output.obj
 0001:00080ed0       ?validate_state_for_type_case_a@?$standard_base@DV?$string_output_adapter@D@__crt_stdio_output@@@__crt_stdio_output@@IEBA_NXZ 0000000180081ed0 f i libucrtd:output.obj
 0001:00080ee0       ?validate_state_for_type_case_a@?$standard_base@_WV?$stream_output_adapter@_W@__crt_stdio_output@@@__crt_stdio_output@@IEBA_NXZ 0000000180081ee0 f i libucrtd:output.obj
 0001:00080ef0       ?validate_state_for_type_case_a@?$standard_base@_WV?$string_output_adapter@_W@__crt_stdio_output@@@__crt_stdio_output@@IEBA_NXZ 0000000180081ef0 f i libucrtd:output.obj
 0001:00080f00       ?validate_stream_is_ansi_if_required@?$__acrt_stdio_char_traits@D@@SA_NQEAU_iobuf@@@Z 0000000180081f00 f i libucrtd:output.obj
 0001:00081090       ?validate_stream_is_ansi_if_required@?$__acrt_stdio_char_traits@_W@@SA_NQEAU_iobuf@@@Z 0000000180082090 f i libucrtd:output.obj
 0001:000810a0       ?wide_null_string@?$output_processor@DV?$stream_output_adapter@D@__crt_stdio_output@@V?$format_validation_base@DV?$stream_output_adapter@D@__crt_stdio_output@@@2@@__crt_stdio_output@@CAPEA_WXZ 00000001800820a0 f i libucrtd:output.obj
 0001:000810b0       ?wide_null_string@?$output_processor@DV?$stream_output_adapter@D@__crt_stdio_output@@V?$positional_parameter_base@DV?$stream_output_adapter@D@__crt_stdio_output@@@2@@__crt_stdio_output@@CAPEA_WXZ 00000001800820b0 f i libucrtd:output.obj
 0001:000810c0       ?wide_null_string@?$output_processor@DV?$stream_output_adapter@D@__crt_stdio_output@@V?$standard_base@DV?$stream_output_adapter@D@__crt_stdio_output@@@2@@__crt_stdio_output@@CAPEA_WXZ 00000001800820c0 f i libucrtd:output.obj
 0001:000810d0       ?wide_null_string@?$output_processor@DV?$string_output_adapter@D@__crt_stdio_output@@V?$format_validation_base@DV?$string_output_adapter@D@__crt_stdio_output@@@2@@__crt_stdio_output@@CAPEA_WXZ 00000001800820d0 f i libucrtd:output.obj
 0001:000810e0       ?wide_null_string@?$output_processor@DV?$string_output_adapter@D@__crt_stdio_output@@V?$positional_parameter_base@DV?$string_output_adapter@D@__crt_stdio_output@@@2@@__crt_stdio_output@@CAPEA_WXZ 00000001800820e0 f i libucrtd:output.obj
 0001:000810f0       ?wide_null_string@?$output_processor@DV?$string_output_adapter@D@__crt_stdio_output@@V?$standard_base@DV?$string_output_adapter@D@__crt_stdio_output@@@2@@__crt_stdio_output@@CAPEA_WXZ 00000001800820f0 f i libucrtd:output.obj
 0001:00081100       ?wide_null_string@?$output_processor@_WV?$stream_output_adapter@_W@__crt_stdio_output@@V?$format_validation_base@_WV?$stream_output_adapter@_W@__crt_stdio_output@@@2@@__crt_stdio_output@@CAPEA_WXZ 0000000180082100 f i libucrtd:output.obj
 0001:00081110       ?wide_null_string@?$output_processor@_WV?$stream_output_adapter@_W@__crt_stdio_output@@V?$positional_parameter_base@_WV?$stream_output_adapter@_W@__crt_stdio_output@@@2@@__crt_stdio_output@@CAPEA_WXZ 0000000180082110 f i libucrtd:output.obj
 0001:00081120       ?wide_null_string@?$output_processor@_WV?$stream_output_adapter@_W@__crt_stdio_output@@V?$standard_base@_WV?$stream_output_adapter@_W@__crt_stdio_output@@@2@@__crt_stdio_output@@CAPEA_WXZ 0000000180082120 f i libucrtd:output.obj
 0001:00081130       ?wide_null_string@?$output_processor@_WV?$string_output_adapter@_W@__crt_stdio_output@@V?$format_validation_base@_WV?$string_output_adapter@_W@__crt_stdio_output@@@2@@__crt_stdio_output@@CAPEA_WXZ 0000000180082130 f i libucrtd:output.obj
 0001:00081140       ?wide_null_string@?$output_processor@_WV?$string_output_adapter@_W@__crt_stdio_output@@V?$positional_parameter_base@_WV?$string_output_adapter@_W@__crt_stdio_output@@@2@@__crt_stdio_output@@CAPEA_WXZ 0000000180082140 f i libucrtd:output.obj
 0001:00081150       ?wide_null_string@?$output_processor@_WV?$string_output_adapter@_W@__crt_stdio_output@@V?$standard_base@_WV?$string_output_adapter@_W@__crt_stdio_output@@@2@@__crt_stdio_output@@CAPEA_WXZ 0000000180082150 f i libucrtd:output.obj
 0001:00081160       ?write_character@?$output_adapter_common@DV?$stream_output_adapter@D@__crt_stdio_output@@@__crt_stdio_output@@QEBAXDQEAH@Z 0000000180082160 f i libucrtd:output.obj
 0001:000811b0       ?write_character@?$output_adapter_common@_WV?$stream_output_adapter@_W@__crt_stdio_output@@@__crt_stdio_output@@QEBAX_WQEAH@Z 00000001800821b0 f i libucrtd:output.obj
 0001:00081200       ?write_character@?$string_output_adapter@D@__crt_stdio_output@@QEBA_NDQEAH@Z 0000000180082200 f i libucrtd:output.obj
 0001:000812c0       ?write_character@?$string_output_adapter@_W@__crt_stdio_output@@QEBA_N_WQEAH@Z 00000001800822c0 f i libucrtd:output.obj
 0001:00081380       ?write_character_without_count_update@?$stream_output_adapter@D@__crt_stdio_output@@QEBA_ND@Z 0000000180082380 f i libucrtd:output.obj
 0001:00081400       ?write_character_without_count_update@?$stream_output_adapter@_W@__crt_stdio_output@@QEBA_N_W@Z 0000000180082400 f i libucrtd:output.obj
 0001:00081490       ?write_stored_string_tchar@?$output_processor@DV?$stream_output_adapter@D@__crt_stdio_output@@V?$format_validation_base@DV?$stream_output_adapter@D@__crt_stdio_output@@@2@@__crt_stdio_output@@AEAA_ND@Z 0000000180082490 f i libucrtd:output.obj
 0001:00081650       ?write_stored_string_tchar@?$output_processor@DV?$stream_output_adapter@D@__crt_stdio_output@@V?$positional_parameter_base@DV?$stream_output_adapter@D@__crt_stdio_output@@@2@@__crt_stdio_output@@AEAA_ND@Z 0000000180082650 f i libucrtd:output.obj
 0001:00081810       ?write_stored_string_tchar@?$output_processor@DV?$stream_output_adapter@D@__crt_stdio_output@@V?$standard_base@DV?$stream_output_adapter@D@__crt_stdio_output@@@2@@__crt_stdio_output@@AEAA_ND@Z 0000000180082810 f i libucrtd:output.obj
 0001:000819d0       ?write_stored_string_tchar@?$output_processor@DV?$string_output_adapter@D@__crt_stdio_output@@V?$format_validation_base@DV?$string_output_adapter@D@__crt_stdio_output@@@2@@__crt_stdio_output@@AEAA_ND@Z 00000001800829d0 f i libucrtd:output.obj
 0001:00081b90       ?write_stored_string_tchar@?$output_processor@DV?$string_output_adapter@D@__crt_stdio_output@@V?$positional_parameter_base@DV?$string_output_adapter@D@__crt_stdio_output@@@2@@__crt_stdio_output@@AEAA_ND@Z 0000000180082b90 f i libucrtd:output.obj
 0001:00081d50       ?write_stored_string_tchar@?$output_processor@DV?$string_output_adapter@D@__crt_stdio_output@@V?$standard_base@DV?$string_output_adapter@D@__crt_stdio_output@@@2@@__crt_stdio_output@@AEAA_ND@Z 0000000180082d50 f i libucrtd:output.obj
 0001:00081f10       ?write_stored_string_tchar@?$output_processor@_WV?$stream_output_adapter@_W@__crt_stdio_output@@V?$format_validation_base@_WV?$stream_output_adapter@_W@__crt_stdio_output@@@2@@__crt_stdio_output@@AEAA_N_W@Z 0000000180082f10 f i libucrtd:output.obj
 0001:00082060       ?write_stored_string_tchar@?$output_processor@_WV?$stream_output_adapter@_W@__crt_stdio_output@@V?$positional_parameter_base@_WV?$stream_output_adapter@_W@__crt_stdio_output@@@2@@__crt_stdio_output@@AEAA_N_W@Z 0000000180083060 f i libucrtd:output.obj
 0001:000821b0       ?write_stored_string_tchar@?$output_processor@_WV?$stream_output_adapter@_W@__crt_stdio_output@@V?$standard_base@_WV?$stream_output_adapter@_W@__crt_stdio_output@@@2@@__crt_stdio_output@@AEAA_N_W@Z 00000001800831b0 f i libucrtd:output.obj
 0001:00082300       ?write_stored_string_tchar@?$output_processor@_WV?$string_output_adapter@_W@__crt_stdio_output@@V?$format_validation_base@_WV?$string_output_adapter@_W@__crt_stdio_output@@@2@@__crt_stdio_output@@AEAA_N_W@Z 0000000180083300 f i libucrtd:output.obj
 0001:00082450       ?write_stored_string_tchar@?$output_processor@_WV?$string_output_adapter@_W@__crt_stdio_output@@V?$positional_parameter_base@_WV?$string_output_adapter@_W@__crt_stdio_output@@@2@@__crt_stdio_output@@AEAA_N_W@Z 0000000180083450 f i libucrtd:output.obj
 0001:000825a0       ?write_stored_string_tchar@?$output_processor@_WV?$string_output_adapter@_W@__crt_stdio_output@@V?$standard_base@_WV?$string_output_adapter@_W@__crt_stdio_output@@@2@@__crt_stdio_output@@AEAA_N_W@Z 00000001800835a0 f i libucrtd:output.obj
 0001:000826f0       ?write_string@?$stream_output_adapter@D@__crt_stdio_output@@QEBAXQEBDHQEAHAEAV__crt_deferred_errno_cache@@@Z 00000001800836f0 f i libucrtd:output.obj
 0001:00082770       ?write_string@?$stream_output_adapter@_W@__crt_stdio_output@@QEBAXQEB_WHQEAHAEAV__crt_deferred_errno_cache@@@Z 0000000180083770 f i libucrtd:output.obj
 0001:000827f0       ?write_string@?$string_output_adapter@D@__crt_stdio_output@@QEBAXQEBDHQEAHAEAV__crt_deferred_errno_cache@@@Z 00000001800837f0 f i libucrtd:output.obj
 0001:00082960       ?write_string@?$string_output_adapter@_W@__crt_stdio_output@@QEBAXQEB_WHQEAHAEAV__crt_deferred_errno_cache@@@Z 0000000180083960 f i libucrtd:output.obj
 0001:00082ad0       ?write_string_impl@?$output_adapter_common@DV?$stream_output_adapter@D@__crt_stdio_output@@@__crt_stdio_output@@IEBAXQEBDHQEAHAEAV__crt_deferred_errno_cache@@@Z 0000000180083ad0 f i libucrtd:output.obj
 0001:00082bb0       ?write_string_impl@?$output_adapter_common@_WV?$stream_output_adapter@_W@__crt_stdio_output@@@__crt_stdio_output@@IEBAXQEB_WHQEAHAEAV__crt_deferred_errno_cache@@@Z 0000000180083bb0 f i libucrtd:output.obj
 0001:00082c90       __acrt_disable_global_locale_sync 0000000180083c90 f i libucrtd:output.obj
 0001:00082cc0       __acrt_enable_global_locale_sync 0000000180083cc0 f i libucrtd:output.obj
 0001:00082cf0       __acrt_isleadbyte_l_noupdate 0000000180083cf0 f i libucrtd:output.obj
 0001:00082d20       __acrt_locale_changed      0000000180083d20 f i libucrtd:output.obj
 0001:00082d50       __acrt_locale_get_ctype_array_value 0000000180083d50 f i libucrtd:output.obj
 0001:00082d90       __stdio_common_vfprintf    0000000180083d90 f   libucrtd:output.obj
 0001:00082dd0       __stdio_common_vfprintf_p  0000000180083dd0 f   libucrtd:output.obj
 0001:00082e10       __stdio_common_vfprintf_s  0000000180083e10 f   libucrtd:output.obj
 0001:00082e50       __stdio_common_vfwprintf   0000000180083e50 f   libucrtd:output.obj
 0001:00082e90       __stdio_common_vfwprintf_p 0000000180083e90 f   libucrtd:output.obj
 0001:00082ed0       __stdio_common_vfwprintf_s 0000000180083ed0 f   libucrtd:output.obj
 0001:00082f10       __stdio_common_vsnprintf_s 0000000180083f10 f   libucrtd:output.obj
 0001:00082f70       __stdio_common_vsnwprintf_s 0000000180083f70 f   libucrtd:output.obj
 0001:00082fd0       __stdio_common_vsprintf    0000000180083fd0 f   libucrtd:output.obj
 0001:00083020       __stdio_common_vsprintf_p  0000000180084020 f   libucrtd:output.obj
 0001:00083070       __stdio_common_vsprintf_s  0000000180084070 f   libucrtd:output.obj
 0001:000830c0       __stdio_common_vswprintf   00000001800840c0 f   libucrtd:output.obj
 0001:00083110       __stdio_common_vswprintf_p 0000000180084110 f   libucrtd:output.obj
 0001:00083160       __stdio_common_vswprintf_s 0000000180084160 f   libucrtd:output.obj
 0001:000831b0       _ctype_fast_check_internal 00000001800841b0 f i libucrtd:output.obj
 0001:000831e0       _isdigit_fast_internal     00000001800841e0 f i libucrtd:output.obj
 0001:00083210       _tolower_fast_internal     0000000180084210 f i libucrtd:output.obj
 0001:00083240       free                       0000000180084240 f   libucrtd:free.obj
 0001:00083270       malloc                     0000000180084270 f   libucrtd:malloc.obj
 0001:000832a0       ??$?RU?$__crt_report_hook_node@D@@@__crt_internal_free_policy@@QEBAXQEBU?$__crt_report_hook_node@D@@@Z 00000001800842a0 f i libucrtd:dbgrpt.obj
 0001:000832d0       ??$?RU?$__crt_report_hook_node@_W@@@__crt_internal_free_policy@@QEBAXQEBU?$__crt_report_hook_node@_W@@@Z 00000001800842d0 f i libucrtd:dbgrpt.obj
 0001:00084510       ??$get_module_file_name@AEAPEAUHINSTANCE__@@AEAY0BAF@DK@?$__crt_char_traits@D@@SAKAEAPEAUHINSTANCE__@@AEAY0BAF@D$$QEAK@Z 0000000180085510 f i libucrtd:dbgrpt.obj
 0001:00084550       ??$get_module_file_name@AEAPEAUHINSTANCE__@@AEAY0BAF@_WK@?$__crt_char_traits@_W@@SAKAEAPEAUHINSTANCE__@@AEAY0BAF@_W$$QEAK@Z 0000000180085550 f i libucrtd:dbgrpt.obj
 0001:00084590       ??$tcscpy_s@AEAY0BAF@D_KPEBD@?$__crt_char_traits@D@@SAHAEAY0BAF@D$$QEA_K$$QEAPEBD@Z 0000000180085590 f i libucrtd:dbgrpt.obj
 0001:000845d0       ??$tcscpy_s@AEAY0BAF@_W_KPEB_W@?$__crt_char_traits@_W@@SAHAEAY0BAF@_W$$QEA_K$$QEAPEB_W@Z 00000001800855d0 f i libucrtd:dbgrpt.obj
 0001:00084610       ??$tcslen@AEAY0BAF@D@?$__crt_char_traits@D@@SA_KAEAY0BAF@D@Z 0000000180085610 f i libucrtd:dbgrpt.obj
 0001:00084630       ??$tcslen@AEAY0BAF@_W@?$__crt_char_traits@_W@@SA_KAEAY0BAF@_W@Z 0000000180085630 f i libucrtd:dbgrpt.obj
 0001:00084650       ??$tcslen@AEBQEBD@?$__crt_char_traits@D@@SA_KAEBQEBD@Z 0000000180085650 f i libucrtd:dbgrpt.obj
 0001:00084670       ??$tcslen@AEBQEB_W@?$__crt_char_traits@_W@@SA_KAEBQEB_W@Z 0000000180085670 f i libucrtd:dbgrpt.obj
 0001:00084770       ??0?$__crt_unique_heap_ptr@U?$__crt_report_hook_node@D@@U__crt_internal_free_policy@@@@QEAA@QEAU?$__crt_report_hook_node@D@@@Z 0000000180085770 f i libucrtd:dbgrpt.obj
 0001:00084790       ??0?$__crt_unique_heap_ptr@U?$__crt_report_hook_node@_W@@U__crt_internal_free_policy@@@@QEAA@QEAU?$__crt_report_hook_node@_W@@@Z 0000000180085790 f i libucrtd:dbgrpt.obj
 0001:000847b0       ??1?$__crt_unique_heap_ptr@U?$__crt_report_hook_node@D@@U__crt_internal_free_policy@@@@QEAA@XZ 00000001800857b0 f i libucrtd:dbgrpt.obj
 0001:000847d0       ??1?$__crt_unique_heap_ptr@U?$__crt_report_hook_node@_W@@U__crt_internal_free_policy@@@@QEAA@XZ 00000001800857d0 f i libucrtd:dbgrpt.obj
 0001:000847f0       ??B?$__crt_unique_heap_ptr@U?$__crt_report_hook_node@D@@U__crt_internal_free_policy@@@@QEBA_NXZ 00000001800857f0 f i libucrtd:dbgrpt.obj
 0001:00084810       ??B?$__crt_unique_heap_ptr@U?$__crt_report_hook_node@_W@@U__crt_internal_free_policy@@@@QEBA_NXZ 0000000180085810 f i libucrtd:dbgrpt.obj
 0001:00084ef0       ?detach@?$__crt_unique_heap_ptr@U?$__crt_report_hook_node@D@@U__crt_internal_free_policy@@@@QEAAPEAU?$__crt_report_hook_node@D@@XZ 0000000180085ef0 f i libucrtd:dbgrpt.obj
 0001:00084f20       ?detach@?$__crt_unique_heap_ptr@U?$__crt_report_hook_node@_W@@U__crt_internal_free_policy@@@@QEAAPEAU?$__crt_report_hook_node@_W@@XZ 0000000180085f20 f i libucrtd:dbgrpt.obj
 0001:00084f50       ?get@?$__crt_unique_heap_ptr@U?$__crt_report_hook_node@D@@U__crt_internal_free_policy@@@@QEBAPEAU?$__crt_report_hook_node@D@@XZ 0000000180085f50 f i libucrtd:dbgrpt.obj
 0001:00084f60       ?get@?$__crt_unique_heap_ptr@U?$__crt_report_hook_node@_W@@U__crt_internal_free_policy@@@@QEBAPEAU?$__crt_report_hook_node@_W@@XZ 0000000180085f60 f i libucrtd:dbgrpt.obj
 0001:00084fd0       ?is_valid@?$__crt_unique_heap_ptr@U?$__crt_report_hook_node@D@@U__crt_internal_free_policy@@@@QEBA_NXZ 0000000180085fd0 f i libucrtd:dbgrpt.obj
 0001:00085000       ?is_valid@?$__crt_unique_heap_ptr@U?$__crt_report_hook_node@_W@@U__crt_internal_free_policy@@@@QEBA_NXZ 0000000180086000 f i libucrtd:dbgrpt.obj
 0001:00085030       ?release@?$__crt_unique_heap_ptr@U?$__crt_report_hook_node@D@@U__crt_internal_free_policy@@@@QEAAXXZ 0000000180086030 f i libucrtd:dbgrpt.obj
 0001:00085060       ?release@?$__crt_unique_heap_ptr@U?$__crt_report_hook_node@_W@@U__crt_internal_free_policy@@@@QEAAXXZ 0000000180086060 f i libucrtd:dbgrpt.obj
 0001:00085090       _CrtDbgReport              0000000180086090 f   libucrtd:dbgrpt.obj
 0001:00085110       _CrtDbgReportW             0000000180086110 f   libucrtd:dbgrpt.obj
 0001:00085190       _CrtSetReportHook2         0000000180086190 f   libucrtd:dbgrpt.obj
 0001:000851b0       _CrtSetReportHookW2        00000001800861b0 f   libucrtd:dbgrpt.obj
 0001:000851d0       __acrt_MessageWindowA      00000001800861d0 f   libucrtd:dbgrpt.obj
 0001:00085220       __acrt_MessageWindowW      0000000180086220 f   libucrtd:dbgrpt.obj
 0001:00085270       _invoke_watson_if_error    0000000180086270 f i libucrtd:dbgrpt.obj
 0001:000852c0       _invoke_watson_if_oneof    00000001800862c0 f i libucrtd:dbgrpt.obj
 0001:00085320       _snwprintf_s               0000000180086320 f i libucrtd:dbgrpt.obj
 0001:00085390       _vsnwprintf_s_l            0000000180086390 f i libucrtd:dbgrpt.obj
 0001:000858f0       wcscpy_s                   00000001800868f0 f   libucrtd:wcscpy_s.obj
 0001:00086c80       ??1?$__crt_simd_cleanup_guard@$00@@QEAA@XZ 0000000180087c80 f i libucrtd:strnlen.obj
 0001:00086c90       ??1?$__crt_simd_cleanup_guard@$0A@@@QEAA@XZ 0000000180087c90 f i libucrtd:strnlen.obj
 0001:00086ca0       ?compare_equals@?$__crt_simd_traits@$00E@@SA?AT__m256i@@T2@0@Z 0000000180087ca0 f i libucrtd:strnlen.obj
 0001:00086ce0       ?compare_equals@?$__crt_simd_traits@$00G@@SA?AT__m256i@@T2@0@Z 0000000180087ce0 f i libucrtd:strnlen.obj
 0001:00086d20       ?compare_equals@?$__crt_simd_traits@$0A@E@@SA?AT__m128i@@T2@0@Z 0000000180087d20 f i libucrtd:strnlen.obj
 0001:00086d50       ?compare_equals@?$__crt_simd_traits@$0A@G@@SA?AT__m128i@@T2@0@Z 0000000180087d50 f i libucrtd:strnlen.obj
 0001:00086d80       ?compute_byte_mask@?$__crt_simd_pack_traits@$00@@SAHT__m256i@@@Z 0000000180087d80 f i libucrtd:strnlen.obj
 0001:00086da0       ?compute_byte_mask@?$__crt_simd_pack_traits@$0A@@@SAHT__m128i@@@Z 0000000180087da0 f i libucrtd:strnlen.obj
 0001:00086dc0       ?get_zero_pack@?$__crt_simd_pack_traits@$00@@SA?AT__m256i@@XZ 0000000180087dc0 f i libucrtd:strnlen.obj
 0001:00086df0       ?get_zero_pack@?$__crt_simd_pack_traits@$0A@@@SA?AT__m128i@@XZ 0000000180087df0 f i libucrtd:strnlen.obj
 0001:00086e10       strnlen                    0000000180087e10 f   libucrtd:strnlen.obj
 0001:00086e40       wcslen                     0000000180087e40 f   libucrtd:strnlen.obj
 0001:00086e60       wcsnlen                    0000000180087e60 f   libucrtd:strnlen.obj
 0001:00086e90       ??$__crt_fast_decode_pointer@P6AXPEB_W00I_K@Z@@YAP6AXPEB_W00I_K@ZQ6AX000I1@Z@Z 0000000180087e90 f i libucrtd:invalid_parameter.obj
 0001:00086ed0       ??$__crt_fast_encode_pointer@P6AXPEB_W00I_K@Z@@YAP6AXPEB_W00I_K@ZQ6AX000I1@Z@Z 0000000180087ed0 f i libucrtd:invalid_parameter.obj
 0001:00086f10       ??$initialize_from_array@$$BY00Q6AXPEB_W00I_K@Z@?$dual_state_global@P6AXPEB_W00I_K@Z@__crt_state_management@@QEAAXAEAY00Q6AXPEB_W00I_K@Z@Z 0000000180087f10 f i libucrtd:invalid_parameter.obj
 0001:00086f70       ?__crt_rotate_pointer_value@@YA_K_KH@Z 0000000180087f70 f i libucrtd:invalid_parameter.obj
 0001:00087030       ?dangerous_get_state_array@?$dual_state_global@P6AXPEB_W00I_K@Z@__crt_state_management@@QEAAPEAP6AXPEB_W00I_K@ZXZ 0000000180088030 f i libucrtd:invalid_parameter.obj
 0001:00087040       ?get_current_state_index@__crt_state_management@@YA_KXZ 0000000180088040 f i libucrtd:invalid_parameter.obj
 0001:00087050       ?value@?$dual_state_global@P6AXPEB_W00I_K@Z@__crt_state_management@@QEAAAEAP6AXPEB_W00I_K@ZXZ 0000000180088050 f i libucrtd:invalid_parameter.obj
 0001:00087070       __acrt_call_reportfault    0000000180088070 f   libucrtd:invalid_parameter.obj
 0001:000871a0       __acrt_initialize_invalid_parameter_handler 00000001800881a0 f   libucrtd:invalid_parameter.obj
 0001:000871d0       _get_invalid_parameter_handler 00000001800881d0 f   libucrtd:invalid_parameter.obj
 0001:000871f0       _get_thread_local_invalid_parameter_handler 00000001800881f0 f   libucrtd:invalid_parameter.obj
 0001:00087220       _invalid_parameter         0000000180088220 f   libucrtd:invalid_parameter.obj
 0001:00087320       _invalid_parameter_noinfo  0000000180088320 f   libucrtd:invalid_parameter.obj
 0001:00087350       _invalid_parameter_noinfo_noreturn 0000000180088350 f   libucrtd:invalid_parameter.obj
 0001:00087390       _invoke_watson             0000000180088390 f   libucrtd:invalid_parameter.obj
 0001:000873f0       _set_invalid_parameter_handler 00000001800883f0 f   libucrtd:invalid_parameter.obj
 0001:00087440       _set_thread_local_invalid_parameter_handler 0000000180088440 f   libucrtd:invalid_parameter.obj
 0001:00087480       __acrt_errno_from_os_error 0000000180088480 f   libucrtd:errno.obj
 0001:00087510       __acrt_errno_map_os_error  0000000180088510 f   libucrtd:errno.obj
 0001:00087540       __doserrno                 0000000180088540 f   libucrtd:errno.obj
 0001:00087570       _errno                     0000000180088570 f   libucrtd:errno.obj
 0001:000875a0       _get_doserrno              00000001800885a0 f   libucrtd:errno.obj
 0001:00087660       _get_errno                 0000000180088660 f   libucrtd:errno.obj
 0001:00087720       _set_doserrno              0000000180088720 f   libucrtd:errno.obj
 0001:00087760       _set_errno                 0000000180088760 f   libucrtd:errno.obj
 0001:000877a0       calloc                     00000001800887a0 f   libucrtd:calloc.obj
 0001:000877e0       _recalloc                  00000001800887e0 f   libucrtd:recalloc.obj
 0001:00087830       _recalloc_base             0000000180088830 f   libucrtd:recalloc.obj
 0001:0008790c       _resetstkoflw              000000018008890c f   libucrtd:resetstk.obj
 0001:000880c0       wcscat_s                   00000001800890c0 f   libucrtd:wcscat_s.obj
 0001:00088790       wcsncpy_s                  0000000180089790 f   libucrtd:wcsncpy_s.obj
 0001:00088910       __isascii                  0000000180089910 f   libucrtd:_ctype.obj
 0001:00088940       __iscsym                   0000000180089940 f   libucrtd:_ctype.obj
 0001:00088980       __iscsymf                  0000000180089980 f   libucrtd:_ctype.obj
 0001:000889c0       __toascii                  00000001800899c0 f   libucrtd:_ctype.obj
 0001:000889d0       _isalnum_l                 00000001800899d0 f   libucrtd:_ctype.obj
 0001:00088a00       _isalpha_l                 0000000180089a00 f   libucrtd:_ctype.obj
 0001:00088a30       _isblank_l                 0000000180089a30 f   libucrtd:_ctype.obj
 0001:00088a60       _iscntrl_l                 0000000180089a60 f   libucrtd:_ctype.obj
 0001:00088a90       _iscsym_l                  0000000180089a90 f   libucrtd:_ctype.obj
 0001:00088ae0       _iscsymf_l                 0000000180089ae0 f   libucrtd:_ctype.obj
 0001:00088b30       _isdigit_l                 0000000180089b30 f   libucrtd:_ctype.obj
 0001:00088b60       _isgraph_l                 0000000180089b60 f   libucrtd:_ctype.obj
 0001:00088b90       _islower_l                 0000000180089b90 f   libucrtd:_ctype.obj
 0001:00088bc0       _isprint_l                 0000000180089bc0 f   libucrtd:_ctype.obj
 0001:00088bf0       _ispunct_l                 0000000180089bf0 f   libucrtd:_ctype.obj
 0001:00088c20       _isspace_l                 0000000180089c20 f   libucrtd:_ctype.obj
 0001:00088c50       _isupper_l                 0000000180089c50 f   libucrtd:_ctype.obj
 0001:00088c80       _isxdigit_l                0000000180089c80 f   libucrtd:_ctype.obj
 0001:00088cb0       isalnum                    0000000180089cb0 f   libucrtd:_ctype.obj
 0001:00088cd0       isalpha                    0000000180089cd0 f   libucrtd:_ctype.obj
 0001:00088cf0       isblank                    0000000180089cf0 f   libucrtd:_ctype.obj
 0001:00088d20       iscntrl                    0000000180089d20 f   libucrtd:_ctype.obj
 0001:00088d40       isdigit                    0000000180089d40 f   libucrtd:_ctype.obj
 0001:00088d60       isgraph                    0000000180089d60 f   libucrtd:_ctype.obj
 0001:00088d80       islower                    0000000180089d80 f   libucrtd:_ctype.obj
 0001:00088da0       isprint                    0000000180089da0 f   libucrtd:_ctype.obj
 0001:00088dc0       ispunct                    0000000180089dc0 f   libucrtd:_ctype.obj
 0001:00088de0       isspace                    0000000180089de0 f   libucrtd:_ctype.obj
 0001:00088e00       isupper                    0000000180089e00 f   libucrtd:_ctype.obj
 0001:00088e20       isxdigit                   0000000180089e20 f   libucrtd:_ctype.obj
 0001:00088e40       wcscat                     0000000180089e40 f   libucrtd:wcscat.obj
 0001:00088ec0       wcscpy                     0000000180089ec0 f   libucrtd:wcscpy.obj
 0001:00089670       ??$open_file@AEBQEBDAEBQEBDAEBHPEAU_iobuf@@@?$__crt_char_traits@D@@SAPEAU_iobuf@@AEBQEBD0AEBH$$QEAPEAU1@@Z 000000018008a670 f i libucrtd:fopen.obj
 0001:000896c0       ??$open_file@AEBQEB_WAEBQEB_WAEBHPEAU_iobuf@@@?$__crt_char_traits@_W@@SAPEAU_iobuf@@AEBQEB_W0AEBH$$QEAPEAU1@@Z 000000018008a6c0 f i libucrtd:fopen.obj
 0001:00089710       ?unlock@__crt_stdio_stream@@QEBAXXZ 000000018008a710 f i libucrtd:fopen.obj
 0001:00089730       _fsopen                    000000018008a730 f   libucrtd:fopen.obj
 0001:00089760       _wfopen                    000000018008a760 f   libucrtd:fopen.obj
 0001:00089790       _wfopen_s                  000000018008a790 f   libucrtd:fopen.obj
 0001:000897c0       _wfsopen                   000000018008a7c0 f   libucrtd:fopen.obj
 0001:000897f0       fopen                      000000018008a7f0 f   libucrtd:fopen.obj
 0001:00089820       fopen_s                    000000018008a820 f   libucrtd:fopen.obj
 0001:00089850       ?is_in_use@__crt_stdio_stream@@QEBA_NXZ 000000018008a850 f i libucrtd:fclose.obj
 0001:00089890       _fclose_nolock             000000018008a890 f   libucrtd:fclose.obj
 0001:00089a20       fclose                     000000018008aa20 f   libucrtd:fclose.obj
 0001:00089b60       _fputc_nolock              000000018008ab60 f   libucrtd:fputc.obj
 0001:00089c10       _fputchar                  000000018008ac10 f   libucrtd:fputc.obj
 0001:00089c40       _putc_nolock               000000018008ac40 f   libucrtd:fputc.obj
 0001:00089c60       fputc                      000000018008ac60 f   libucrtd:fputc.obj
 0001:00089f00       putc                       000000018008af00 f   libucrtd:fputc.obj
 0001:00089f20       putchar                    000000018008af20 f   libucrtd:fputc.obj
 0001:00089fb0       _seh_filter_dll            000000018008afb0 f   libucrtd:exception_filter.obj
 0001:00089fe0       _seh_filter_exe            000000018008afe0 f   libucrtd:exception_filter.obj
 0001:0008a280       ??$?B$$A6AXPEAXK0@Z@__crt_fast_encoded_nullptr_t@@QEBAP6AXPEAXK0@ZXZ 000000018008b280 f i libucrtd:exit.obj
 0001:0008a330       ??$__crt_fast_decode_pointer@P6AXPEAXK0@Z@@YAP6AXPEAXK0@ZQ6AX0K0@Z@Z 000000018008b330 f i libucrtd:exit.obj
 0001:0008a370       ??$__crt_fast_encode_pointer@P6AXPEAXK0@Z@@YAP6AXPEAXK0@ZQ6AX0K0@Z@Z 000000018008b370 f i libucrtd:exit.obj
 0001:0008a3b0       ??$__crt_get_proc_address@P6AXI@Z@@YAP6AXI@ZQEAUHINSTANCE__@@QEBD@Z 000000018008b3b0 f i libucrtd:exit.obj
 0001:0008a470       ??0?$__crt_unique_handle_t@U__crt_hmodule_traits@@@@QEAA@QEAUHINSTANCE__@@@Z 000000018008b470 f i libucrtd:exit.obj
 0001:0008a490       ??1?$__crt_unique_handle_t@U__crt_hmodule_traits@@@@QEAA@XZ 000000018008b490 f i libucrtd:exit.obj
 0001:0008a5f0       ?__acrt_select_exit_lock@@YA?AW4__acrt_lock_id@@XZ 000000018008b5f0 f i libucrtd:exit.obj
 0001:0008a600       ?__crt_fast_encode_pointer@@YA?AU__crt_fast_encoded_nullptr_t@@$$T@Z 000000018008b600 f i libucrtd:exit.obj
 0001:0008a640       ?close@?$__crt_unique_handle_t@U__crt_hmodule_traits@@@@QEAAXXZ 000000018008b640 f i libucrtd:exit.obj
 0001:0008a680       ?close@__crt_hmodule_traits@@SA_NPEAUHINSTANCE__@@@Z 000000018008b680 f i libucrtd:exit.obj
 0001:0008a790       ?get@?$__crt_unique_handle_t@U__crt_hmodule_traits@@@@QEBAPEAUHINSTANCE__@@XZ 000000018008b790 f i libucrtd:exit.obj
 0001:0008a7a0       ?get_address_of@?$__crt_unique_handle_t@U__crt_hmodule_traits@@@@QEAAPEAPEAUHINSTANCE__@@XZ 000000018008b7a0 f i libucrtd:exit.obj
 0001:0008a7b0       ?get_invalid_value@__crt_hmodule_traits@@SAPEAUHINSTANCE__@@XZ 000000018008b7b0 f i libucrtd:exit.obj
 0001:0008a970       _Exit                      000000018008b970 f   libucrtd:exit.obj
 0001:0008a990       __acrt_initialize_thread_local_exit_callback 000000018008b990 f   libucrtd:exit.obj
 0001:0008a9b0       _c_exit                    000000018008b9b0 f   libucrtd:exit.obj
 0001:0008a9d0       _cexit                     000000018008b9d0 f   libucrtd:exit.obj
 0001:0008a9f0       _exit                      000000018008b9f0 f   libucrtd:exit.obj
 0001:0008aa10       _is_c_termination_complete 000000018008ba10 f   libucrtd:exit.obj
 0001:0008aa30       _register_thread_local_exe_atexit_callback 000000018008ba30 f   libucrtd:exit.obj
 0001:0008aa80       exit                       000000018008ba80 f   libucrtd:exit.obj
 0001:0008aaa0       quick_exit                 000000018008baa0 f   libucrtd:exit.obj
 0001:0008aac0       ??$?RE@__crt_internal_free_policy@@QEBAXQEBE@Z 000000018008bac0 f i libucrtd:argv_parsing.obj
 0001:0008aaf0       ??$?RPEAD@__crt_internal_free_policy@@QEBAXQEBQEAD@Z 000000018008baf0 f i libucrtd:argv_parsing.obj
 0001:0008ab20       ??$?RPEA_W@__crt_internal_free_policy@@QEBAXQEBQEA_W@Z 000000018008bb20 f i libucrtd:argv_parsing.obj
 0001:0008b270       ??$get_module_file_name@$$TAEAY0BAF@DH@?$__crt_char_traits@D@@SAK$$QEA$$TAEAY0BAF@D$$QEAH@Z 000000018008c270 f i libucrtd:argv_parsing.obj
 0001:0008b2b0       ??$get_module_file_name@$$TAEAY0BAF@_WH@?$__crt_char_traits@_W@@SAK$$QEA$$TAEAY0BAF@_W$$QEAH@Z 000000018008c2b0 f i libucrtd:argv_parsing.obj
 0001:0008bc60       ??$set_program_name@PEAD@?$__crt_char_traits@D@@SAX$$QEAPEAD@Z 000000018008cc60 f i libucrtd:argv_parsing.obj
 0001:0008bc80       ??$set_program_name@PEA_W@?$__crt_char_traits@_W@@SAX$$QEAPEA_W@Z 000000018008cc80 f i libucrtd:argv_parsing.obj
 0001:0008bce0       ??0?$__crt_unique_heap_ptr@EU__crt_internal_free_policy@@@@QEAA@QEAE@Z 000000018008cce0 f i libucrtd:argv_parsing.obj
 0001:0008bd00       ??0?$__crt_unique_heap_ptr@PEADU__crt_internal_free_policy@@@@QEAA@QEAPEAD@Z 000000018008cd00 f i libucrtd:argv_parsing.obj
 0001:0008bd20       ??0?$__crt_unique_heap_ptr@PEA_WU__crt_internal_free_policy@@@@QEAA@QEAPEA_W@Z 000000018008cd20 f i libucrtd:argv_parsing.obj
 0001:0008bd40       ??1?$__crt_unique_heap_ptr@EU__crt_internal_free_policy@@@@QEAA@XZ 000000018008cd40 f i libucrtd:argv_parsing.obj
 0001:0008bd60       ??1?$__crt_unique_heap_ptr@PEADU__crt_internal_free_policy@@@@QEAA@XZ 000000018008cd60 f i libucrtd:argv_parsing.obj
 0001:0008bd80       ??1?$__crt_unique_heap_ptr@PEA_WU__crt_internal_free_policy@@@@QEAA@XZ 000000018008cd80 f i libucrtd:argv_parsing.obj
 0001:0008bda0       ??B?$__crt_unique_heap_ptr@EU__crt_internal_free_policy@@@@QEBA_NXZ 000000018008cda0 f i libucrtd:argv_parsing.obj
 0001:0008be80       ?detach@?$__crt_unique_heap_ptr@EU__crt_internal_free_policy@@@@QEAAPEAEXZ 000000018008ce80 f i libucrtd:argv_parsing.obj
 0001:0008beb0       ?detach@?$__crt_unique_heap_ptr@PEADU__crt_internal_free_policy@@@@QEAAPEAPEADXZ 000000018008ceb0 f i libucrtd:argv_parsing.obj
 0001:0008bee0       ?detach@?$__crt_unique_heap_ptr@PEA_WU__crt_internal_free_policy@@@@QEAAPEAPEA_WXZ 000000018008cee0 f i libucrtd:argv_parsing.obj
 0001:0008bfa0       ?get@?$__crt_unique_heap_ptr@EU__crt_internal_free_policy@@@@QEBAPEAEXZ 000000018008cfa0 f i libucrtd:argv_parsing.obj
 0001:0008bfb0       ?get@?$__crt_unique_heap_ptr@PEADU__crt_internal_free_policy@@@@QEBAPEAPEADXZ 000000018008cfb0 f i libucrtd:argv_parsing.obj
 0001:0008bfc0       ?get@?$__crt_unique_heap_ptr@PEA_WU__crt_internal_free_policy@@@@QEBAPEAPEA_WXZ 000000018008cfc0 f i libucrtd:argv_parsing.obj
 0001:0008bfd0       ?get_address_of@?$__crt_unique_heap_ptr@PEADU__crt_internal_free_policy@@@@QEAAPEAPEAPEADXZ 000000018008cfd0 f i libucrtd:argv_parsing.obj
 0001:0008bfe0       ?get_address_of@?$__crt_unique_heap_ptr@PEA_WU__crt_internal_free_policy@@@@QEAAPEAPEAPEA_WXZ 000000018008cfe0 f i libucrtd:argv_parsing.obj
 0001:0008c030       ?is_valid@?$__crt_unique_heap_ptr@EU__crt_internal_free_policy@@@@QEBA_NXZ 000000018008d030 f i libucrtd:argv_parsing.obj
 0001:0008c060       ?release@?$__crt_unique_heap_ptr@EU__crt_internal_free_policy@@@@QEAAXXZ 000000018008d060 f i libucrtd:argv_parsing.obj
 0001:0008c090       ?release@?$__crt_unique_heap_ptr@PEADU__crt_internal_free_policy@@@@QEAAXXZ 000000018008d090 f i libucrtd:argv_parsing.obj
 0001:0008c0c0       ?release@?$__crt_unique_heap_ptr@PEA_WU__crt_internal_free_policy@@@@QEAAXXZ 000000018008d0c0 f i libucrtd:argv_parsing.obj
 0001:0008c140       __acrt_allocate_buffer_for_argv 000000018008d140 f   libucrtd:argv_parsing.obj
 0001:0008c260       _configure_narrow_argv     000000018008d260 f   libucrtd:argv_parsing.obj
 0001:0008c280       _configure_wide_argv       000000018008d280 f   libucrtd:argv_parsing.obj
 0001:0008c2a0       _set_pgmptr                000000018008d2a0 f i libucrtd:argv_parsing.obj
 0001:0008c2c0       _set_wpgmptr               000000018008d2c0 f i libucrtd:argv_parsing.obj
 0001:0008c2d4       ??$?R_W@__crt_internal_free_policy@@QEBAXQEB_W@Z 000000018008d2d4 f i libucrtd:environment_initialization.obj
 0001:0008c8ac       ??$get_environment_from_os@$$V@?$__crt_char_traits@D@@SAPEADXZ 000000018008d8ac f i libucrtd:environment_initialization.obj
 0001:0008c8b4       ??$get_environment_from_os@$$V@?$__crt_char_traits@_W@@SAPEA_WXZ 000000018008d8b4 f i libucrtd:environment_initialization.obj
 0001:0008ca84       ??$set_variable_in_environment_nolock@PEADH@?$__crt_char_traits@D@@SAH$$QEAPEAD$$QEAH@Z 000000018008da84 f i libucrtd:environment_initialization.obj
 0001:0008ca90       ??$set_variable_in_environment_nolock@PEA_WH@?$__crt_char_traits@_W@@SAH$$QEAPEA_W$$QEAH@Z 000000018008da90 f i libucrtd:environment_initialization.obj
 0001:0008ca9c       ??$tcscpy_s@PEADAEB_KAEAPEAD@?$__crt_char_traits@D@@SAH$$QEAPEADAEB_KAEAPEAD@Z 000000018008da9c f i libucrtd:environment_initialization.obj
 0001:0008caac       ??$tcscpy_s@PEA_WAEB_KAEAPEA_W@?$__crt_char_traits@_W@@SAH$$QEAPEA_WAEB_KAEAPEA_W@Z 000000018008daac f i libucrtd:environment_initialization.obj
 0001:0008cabc       ??$tcslen@AEAPEAD@?$__crt_char_traits@D@@SA_KAEAPEAD@Z 000000018008dabc f i libucrtd:environment_initialization.obj
 0001:0008cad0       ??$tcslen@AEAPEA_W@?$__crt_char_traits@_W@@SA_KAEAPEA_W@Z 000000018008dad0 f i libucrtd:environment_initialization.obj
 0001:0008cae4       ??$uninitialize@A6AXAEAPEAPEAD@Z@?$dual_state_global@PEAPEAD@__crt_state_management@@QEAAXA6AXAEAPEAPEAD@Z@Z 000000018008dae4 f i libucrtd:environment_initialization.obj
 0001:0008cb28       ??$uninitialize@A6AXAEAPEAPEA_W@Z@?$dual_state_global@PEAPEA_W@__crt_state_management@@QEAAXA6AXAEAPEAPEA_W@Z@Z 000000018008db28 f i libucrtd:environment_initialization.obj
 0001:0008cba4       ??0?$__crt_unique_heap_ptr@_WU__crt_internal_free_policy@@@@QEAA@QEA_W@Z 000000018008dba4 f i libucrtd:environment_initialization.obj
 0001:0008cbac       ??1?$__crt_unique_heap_ptr@_WU__crt_internal_free_policy@@@@QEAA@XZ 000000018008dbac f i libucrtd:environment_initialization.obj
 0001:0008cbcc       ??B?$__crt_unique_heap_ptr@PEADU__crt_internal_free_policy@@@@QEBA_NXZ 000000018008dbcc f i libucrtd:environment_initialization.obj
 0001:0008cbd4       ??B?$__crt_unique_heap_ptr@PEA_WU__crt_internal_free_policy@@@@QEBA_NXZ 000000018008dbd4 f i libucrtd:environment_initialization.obj
 0001:0008cbdc       ??B?$__crt_unique_heap_ptr@_WU__crt_internal_free_policy@@@@QEBA_NXZ 000000018008dbdc f i libucrtd:environment_initialization.obj
 0001:0008cbe4       ?__crt_compute_required_transform_buffer_count@@YA_KIQEBD@Z 000000018008dbe4 f i libucrtd:environment_initialization.obj
 0001:0008cc08       ?__crt_compute_required_transform_buffer_count@@YA_KIQEB_W@Z 000000018008dc08 f i libucrtd:environment_initialization.obj
 0001:0008cc38       ?__crt_transform_string@@YA_KIQEBDQEA_W_K@Z 000000018008dc38 f i libucrtd:environment_initialization.obj
 0001:0008cc5c       ?__crt_transform_string@@YA_KIQEB_WQEAD_K@Z 000000018008dc5c f i libucrtd:environment_initialization.obj
 0001:0008cc8c       ?detach@?$__crt_unique_heap_ptr@DU__crt_internal_free_policy@@@@QEAAPEADXZ 000000018008dc8c f i libucrtd:environment_initialization.obj
 0001:0008cc94       ?detach@?$__crt_unique_heap_ptr@_WU__crt_internal_free_policy@@@@QEAAPEA_WXZ 000000018008dc94 f i libucrtd:environment_initialization.obj
 0001:0008cc9c       ?get@?$__crt_unique_heap_ptr@_WU__crt_internal_free_policy@@@@QEBAPEA_WXZ 000000018008dc9c f i libucrtd:environment_initialization.obj
 0001:0008ccd0       ?initialize@?$dual_state_global@PEAPEAD@__crt_state_management@@QEAAXQEAPEAD@Z 000000018008dcd0 f i libucrtd:environment_initialization.obj
 0001:0008ccf8       ?initialize@?$dual_state_global@PEAPEA_W@__crt_state_management@@QEAAXQEAPEA_W@Z 000000018008dcf8 f i libucrtd:environment_initialization.obj
 0001:0008cd20       ?is_valid@?$__crt_unique_heap_ptr@PEADU__crt_internal_free_policy@@@@QEBA_NXZ 000000018008dd20 f i libucrtd:environment_initialization.obj
 0001:0008cd28       ?is_valid@?$__crt_unique_heap_ptr@PEA_WU__crt_internal_free_policy@@@@QEBA_NXZ 000000018008dd28 f i libucrtd:environment_initialization.obj
 0001:0008cd30       ?is_valid@?$__crt_unique_heap_ptr@_WU__crt_internal_free_policy@@@@QEBA_NXZ 000000018008dd30 f i libucrtd:environment_initialization.obj
 0001:0008cd44       ?release@?$__crt_unique_heap_ptr@_WU__crt_internal_free_policy@@@@QEAAXXZ 000000018008dd44 f i libucrtd:environment_initialization.obj
 0001:0008cd64       ?value@?$dual_state_global@PEAPEAD@__crt_state_management@@QEAAAEAPEAPEADXZ 000000018008dd64 f i libucrtd:environment_initialization.obj
 0001:0008cd68       ?value@?$dual_state_global@PEAPEA_W@__crt_state_management@@QEAAAEAPEAPEA_WXZ 000000018008dd68 f i libucrtd:environment_initialization.obj
 0001:0008cd6c       __dcrt_get_or_create_narrow_environment_nolock 000000018008dd6c f   libucrtd:environment_initialization.obj
 0001:0008cda8       __dcrt_get_or_create_wide_environment_nolock 000000018008dda8 f   libucrtd:environment_initialization.obj
 0001:0008cde4       __dcrt_uninitialize_environments_nolock 000000018008dde4 f   libucrtd:environment_initialization.obj
 0001:0008ce1c       __p__environ               000000018008de1c f   libucrtd:environment_initialization.obj
 0001:0008ce24       __p__wenviron              000000018008de24 f   libucrtd:environment_initialization.obj
 0001:0008ce2c       _get_initial_narrow_environment 000000018008de2c f   libucrtd:environment_initialization.obj
 0001:0008ce7c       _get_initial_wide_environment 000000018008de7c f   libucrtd:environment_initialization.obj
 0001:0008cecc       _initialize_narrow_environment 000000018008decc f   libucrtd:environment_initialization.obj
 0001:0008ced4       _initialize_wide_environment 000000018008ded4 f   libucrtd:environment_initialization.obj
 0001:0008cee0       ??$?B$$A6AXXZ@__crt_fast_encoded_nullptr_t@@QEBAP6AXXZXZ 000000018008dee0 f i libucrtd:onexit.obj
 0001:0008cf00       ??$?BP6AXXZ@__crt_fast_encoded_nullptr_t@@QEBAPEAP6AXXZXZ 000000018008df00 f i libucrtd:onexit.obj
 0001:0008cf20       ??$?RP6AXXZ@__crt_internal_free_policy@@QEBAXQEBQ6AXXZ@Z 000000018008df20 f i libucrtd:onexit.obj
 0001:0008d090       ??$__crt_fast_decode_pointer@P6AXXZ@@YAP6AXXZQ6AXXZ@Z 000000018008e090 f i libucrtd:onexit.obj
 0001:0008d0d0       ??$__crt_fast_decode_pointer@PEAP6AXXZ@@YAPEAP6AXXZQEAP6AXXZ@Z 000000018008e0d0 f i libucrtd:onexit.obj
 0001:0008d110       ??$__crt_fast_encode_pointer@P6AHXZ@@YAP6AHXZQ6AHXZ@Z 000000018008e110 f i libucrtd:onexit.obj
 0001:0008d150       ??$__crt_fast_encode_pointer@P6AXXZ@@YAP6AXXZQ6AXXZ@Z 000000018008e150 f i libucrtd:onexit.obj
 0001:0008d190       ??$__crt_fast_encode_pointer@PEAP6AXXZ@@YAPEAP6AXXZQEAP6AXXZ@Z 000000018008e190 f i libucrtd:onexit.obj
 0001:0008d2a0       ??0?$__crt_unique_heap_ptr@P6AXXZU__crt_internal_free_policy@@@@QEAA@QEAP6AXXZ@Z 000000018008e2a0 f i libucrtd:onexit.obj
 0001:0008d2c0       ??1?$__crt_unique_heap_ptr@P6AXXZU__crt_internal_free_policy@@@@QEAA@XZ 000000018008e2c0 f i libucrtd:onexit.obj
 0001:0008d2e0       ??1scoped_global_state_reset@__crt_state_management@@QEAA@XZ 000000018008e2e0 f i libucrtd:onexit.obj
 0001:0008d8b0       ?detach@?$__crt_unique_heap_ptr@P6AXXZU__crt_internal_free_policy@@@@QEAAPEAP6AXXZXZ 000000018008e8b0 f i libucrtd:onexit.obj
 0001:0008d8e0       ?release@?$__crt_unique_heap_ptr@P6AXXZU__crt_internal_free_policy@@@@QEAAXXZ 000000018008e8e0 f i libucrtd:onexit.obj
 0001:0008d910       _crt_at_quick_exit         000000018008e910 f   libucrtd:onexit.obj
 0001:0008d930       _crt_atexit                000000018008e930 f   libucrtd:onexit.obj
 0001:0008d950       _execute_onexit_table      000000018008e950 f   libucrtd:onexit.obj
 0001:0008d990       _initialize_onexit_table   000000018008e990 f   libucrtd:onexit.obj
 0001:0008da10       _register_onexit_function  000000018008ea10 f   libucrtd:onexit.obj
 0001:0008dc80       ??$?BX@__crt_fast_encoded_nullptr_t@@QEBAPEAXXZ 000000018008ec80 f i libucrtd:initialization.obj
 0001:0008dca0       ??$__crt_fast_encode_pointer@PEAX@@YAPEAXQEAX@Z 000000018008eca0 f i libucrtd:initialization.obj
 0001:0008dd90       ?initialize@?$dual_state_global@PEAU__crt_locale_data@@@__crt_state_management@@QEAAXQEAU__crt_locale_data@@@Z 000000018008ed90 f i libucrtd:initialization.obj
 0001:0008dde0       __acrt_initialize          000000018008ede0 f   libucrtd:initialization.obj
 0001:0008de10       __acrt_thread_attach       000000018008ee10 f   libucrtd:initialization.obj
 0001:0008de30       __acrt_thread_detach       000000018008ee30 f   libucrtd:initialization.obj
 0001:0008de40       __acrt_uninitialize        000000018008ee40 f   libucrtd:initialization.obj
 0001:0008de70       __acrt_uninitialize_critical 000000018008ee70 f   libucrtd:initialization.obj
 0001:0008fe60       _CrtCheckMemory            0000000180090e60 f   libucrtd:debug_heap.obj
 0001:0008fff0       _CrtDoForAllClientObjects  0000000180090ff0 f   libucrtd:debug_heap.obj
 0001:00090120       _CrtDumpMemoryLeaks        0000000180091120 f   libucrtd:debug_heap.obj
 0001:000901e0       _CrtGetAllocHook           00000001800911e0 f   libucrtd:debug_heap.obj
 0001:000901f0       _CrtGetDumpClient          00000001800911f0 f   libucrtd:debug_heap.obj
 0001:00090200       _CrtIsMemoryBlock          0000000180091200 f   libucrtd:debug_heap.obj
 0001:00090340       _CrtIsValidHeapPointer     0000000180091340 f   libucrtd:debug_heap.obj
 0001:00090380       _CrtIsValidPointer         0000000180091380 f   libucrtd:debug_heap.obj
 0001:000903c0       _CrtMemCheckpoint          00000001800913c0 f   libucrtd:debug_heap.obj
 0001:00090640       _CrtMemDifference          0000000180091640 f   libucrtd:debug_heap.obj
 0001:000909a0       _CrtMemDumpAllObjectsSince 00000001800919a0 f   libucrtd:debug_heap.obj
 0001:00090a00       _CrtMemDumpStatistics      0000000180091a00 f   libucrtd:debug_heap.obj
 0001:00090ba0       _CrtReportBlockType        0000000180091ba0 f   libucrtd:debug_heap.obj
 0001:00090bd0       _CrtSetAllocHook           0000000180091bd0 f   libucrtd:debug_heap.obj
 0001:00090c00       _CrtSetBreakAlloc          0000000180091c00 f   libucrtd:debug_heap.obj
 0001:00090c30       _CrtSetDbgBlockType        0000000180091c30 f   libucrtd:debug_heap.obj
 0001:00090cd0       _CrtSetDbgFlag             0000000180091cd0 f   libucrtd:debug_heap.obj
 0001:00090e30       _CrtSetDumpClient          0000000180091e30 f   libucrtd:debug_heap.obj
 0001:00090e60       __acrt_get_locale_data_prefix 0000000180091e60 f i libucrtd:debug_heap.obj
 0001:00090e80       __p__crtBreakAlloc         0000000180091e80 f   libucrtd:debug_heap.obj
 0001:00090e90       __p__crtDbgFlag            0000000180091e90 f   libucrtd:debug_heap.obj
 0001:00090ea0       _aligned_free_dbg          0000000180091ea0 f   libucrtd:debug_heap.obj
 0001:00090f90       _aligned_malloc_dbg        0000000180091f90 f   libucrtd:debug_heap.obj
 0001:00090fd0       _aligned_msize_dbg         0000000180091fd0 f   libucrtd:debug_heap.obj
 0001:000911a0       _aligned_offset_malloc_dbg 00000001800921a0 f   libucrtd:debug_heap.obj
 0001:00091490       _aligned_offset_realloc_dbg 0000000180092490 f   libucrtd:debug_heap.obj
 0001:00091940       _aligned_offset_recalloc_dbg 0000000180092940 f   libucrtd:debug_heap.obj
 0001:00091a60       _aligned_realloc_dbg       0000000180092a60 f   libucrtd:debug_heap.obj
 0001:00091ab0       _aligned_recalloc_dbg      0000000180092ab0 f   libucrtd:debug_heap.obj
 0001:00091b10       _calloc_dbg                0000000180092b10 f   libucrtd:debug_heap.obj
 0001:00091bb0       _chvalidchk_l              0000000180092bb0 f i libucrtd:debug_heap.obj
 0001:00091be0       _expand_dbg                0000000180092be0 f   libucrtd:debug_heap.obj
 0001:00091d10       _free_dbg                  0000000180092d10 f   libucrtd:debug_heap.obj
 0001:00091d80       _ischartype_l              0000000180092d80 f i libucrtd:debug_heap.obj
 0001:00091e10       _malloc_dbg                0000000180092e10 f   libucrtd:debug_heap.obj
 0001:00091e50       _msize_dbg                 0000000180092e50 f   libucrtd:debug_heap.obj
 0001:00091ff0       _realloc_dbg               0000000180092ff0 f   libucrtd:debug_heap.obj
 0001:00092060       _recalloc_dbg              0000000180093060 f   libucrtd:debug_heap.obj
 0001:00092160       _initterm                  0000000180093160 f   libucrtd:initterm.obj
 0001:000921c0       _initterm_e                00000001800931c0 f   libucrtd:initterm.obj
 0001:00092710       strcpy_s                   0000000180093710 f   libucrtd:strcpy_s.obj
 0001:00092db0       strcat_s                   0000000180093db0 f   libucrtd:strcat_s.obj
 0001:00092de0       ??$?B$$A6AH_K@Z@__crt_fast_encoded_nullptr_t@@QEBAP6AH_K@ZXZ 0000000180093de0 f i libucrtd:new_handler.obj
 0001:00092e00       ??$__crt_fast_decode_pointer@P6AH_K@Z@@YAP6AH_K@ZQ6AH0@Z@Z 0000000180093e00 f i libucrtd:new_handler.obj
 0001:00092e40       ??$__crt_fast_encode_pointer@P6AH_K@Z@@YAP6AH_K@ZQ6AH0@Z@Z 0000000180093e40 f i libucrtd:new_handler.obj
 0001:00092e80       ?_set_new_handler@@YAP6AH_K@ZH@Z 0000000180093e80 f   libucrtd:new_handler.obj
 0001:00092ef0       ?initialize@?$dual_state_global@P6AH_K@Z@__crt_state_management@@QEAAXQ6AH_K@Z@Z 0000000180093ef0 f i libucrtd:new_handler.obj
 0001:00092f40       ?value@?$dual_state_global@P6AH_K@Z@__crt_state_management@@QEAAAEAP6AH_K@ZXZ 0000000180093f40 f i libucrtd:new_handler.obj
 0001:00092f60       __acrt_initialize_new_handler 0000000180093f60 f   libucrtd:new_handler.obj
 0001:00092f80       _callnewh                  0000000180093f80 f   libucrtd:new_handler.obj
 0001:00092fd0       _query_new_handler         0000000180093fd0 f   libucrtd:new_handler.obj
 0001:00093010       _set_new_handler           0000000180094010 f   libucrtd:new_handler.obj
 0001:000930c0       _get_terminate             00000001800940c0 f   libucrtd:terminate.obj
 0001:000930e0       set_terminate              00000001800940e0 f   libucrtd:terminate.obj
 0001:00093120       terminate                  0000000180094120 f   libucrtd:terminate.obj
 0001:00093f20       _makepath                  0000000180094f20 f   libucrtd:makepath.obj
 0001:00093f70       _makepath_s                0000000180094f70 f   libucrtd:makepath.obj
 0001:00093fc0       _wmakepath                 0000000180094fc0 f   libucrtd:makepath.obj
 0001:00094010       _wmakepath_s               0000000180095010 f   libucrtd:makepath.obj
 0001:00096640       ??$tcsncpy_s@AEAPEAD_KAEAPEBDAEB_K@?$__crt_char_traits@D@@SAHAEAPEAD$$QEA_KAEAPEBDAEB_K@Z 0000000180097640 f i libucrtd:splitpath.obj
 0001:00096690       ??$tcsncpy_s@AEAPEAD_KAEAPEBDH@?$__crt_char_traits@D@@SAHAEAPEAD$$QEA_KAEAPEBD$$QEAH@Z 0000000180097690 f i libucrtd:splitpath.obj
 0001:000966e0       ??$tcsncpy_s@AEAPEA_W_KAEAPEB_WAEB_K@?$__crt_char_traits@_W@@SAHAEAPEA_W$$QEA_KAEAPEB_WAEB_K@Z 00000001800976e0 f i libucrtd:splitpath.obj
 0001:00096730       ??$tcsncpy_s@AEAPEA_W_KAEAPEB_WH@?$__crt_char_traits@_W@@SAHAEAPEA_W$$QEA_KAEAPEB_W$$QEAH@Z 0000000180097730 f i libucrtd:splitpath.obj
 0001:000969e0       _splitpath                 00000001800979e0 f   libucrtd:splitpath.obj
 0001:00096a20       _splitpath_s               0000000180097a20 f   libucrtd:splitpath.obj
 0001:00096ac0       _wsplitpath                0000000180097ac0 f   libucrtd:splitpath.obj
 0001:00096b00       _wsplitpath_s              0000000180097b00 f   libucrtd:splitpath.obj
 0001:00096ba0       _set_abort_behavior        0000000180097ba0 f   libucrtd:abort.obj
 0001:00096be0       abort                      0000000180097be0 f   libucrtd:abort.obj
 0001:00096c70       strcmp                     0000000180097c70 f   libucrtd:strcmp.obj
 0001:00096cf0       strlen                     0000000180097cf0 f   libucrtd:strlen.obj
 0001:00096da0       ??$is_overflow_condition@K@__crt_strtox@@YA_NIK@Z 0000000180097da0 f i libucrtd:atox.obj
 0001:00096e10       ??$is_overflow_condition@_K@__crt_strtox@@YA_NI_K@Z 0000000180097e10 f i libucrtd:atox.obj
 0001:00096e80       ??$make_c_string_character_source@D$$T@__crt_strtox@@YA?AV?$c_string_character_source@D@0@QEBD$$T@Z 0000000180097e80 f i libucrtd:atox.obj
 0001:00096ec0       ??$make_c_string_character_source@_W$$T@__crt_strtox@@YA?AV?$c_string_character_source@_W@0@QEB_W$$T@Z 0000000180097ec0 f i libucrtd:atox.obj
 0001:00096f00       ??$parse_integer@KV?$c_string_character_source@D@__crt_strtox@@@__crt_strtox@@YAKQEAU__crt_locale_pointers@@V?$c_string_character_source@D@0@H_N@Z 0000000180097f00 f i libucrtd:atox.obj
 0001:00097390       ??$parse_integer@KV?$c_string_character_source@_W@__crt_strtox@@@__crt_strtox@@YAKQEAU__crt_locale_pointers@@V?$c_string_character_source@_W@0@H_N@Z 0000000180098390 f i libucrtd:atox.obj
 0001:00097840       ??$parse_integer@_KV?$c_string_character_source@D@__crt_strtox@@@__crt_strtox@@YA_KQEAU__crt_locale_pointers@@V?$c_string_character_source@D@0@H_N@Z 0000000180098840 f i libucrtd:atox.obj
 0001:00097d60       ??$parse_integer@_KV?$c_string_character_source@_W@__crt_strtox@@@__crt_strtox@@YA_KQEAU__crt_locale_pointers@@V?$c_string_character_source@_W@0@H_N@Z 0000000180098d60 f i libucrtd:atox.obj
 0001:00098280       ??$parse_integer_from_string@JD$$T@__crt_strtox@@YAJQEBD$$THQEAU__crt_locale_pointers@@@Z 0000000180099280 f i libucrtd:atox.obj
 0001:000982d0       ??$parse_integer_from_string@J_W$$T@__crt_strtox@@YAJQEB_W$$THQEAU__crt_locale_pointers@@@Z 00000001800992d0 f i libucrtd:atox.obj
 0001:00098320       ??$parse_integer_from_string@_JD$$T@__crt_strtox@@YA_JQEBD$$THQEAU__crt_locale_pointers@@@Z 0000000180099320 f i libucrtd:atox.obj
 0001:00098370       ??$parse_integer_from_string@_J_W$$T@__crt_strtox@@YA_JQEB_W$$THQEAU__crt_locale_pointers@@@Z 0000000180099370 f i libucrtd:atox.obj
 0001:000983c0       ??0?$c_string_character_source@D@__crt_strtox@@QEAA@QEBDQEAPEBD@Z 00000001800993c0 f i libucrtd:atox.obj
 0001:00098410       ??0?$c_string_character_source@_W@__crt_strtox@@QEAA@QEB_WQEAPEB_W@Z 0000000180099410 f i libucrtd:atox.obj
 0001:00098460       ??1?$c_string_character_source@D@__crt_strtox@@QEAA@XZ 0000000180099460 f i libucrtd:atox.obj
 0001:00098490       ??1?$c_string_character_source@_W@__crt_strtox@@QEAA@XZ 0000000180099490 f i libucrtd:atox.obj
 0001:000984c0       ?get@?$c_string_character_source@D@__crt_strtox@@QEAADXZ 00000001800994c0 f i libucrtd:atox.obj
 0001:00098500       ?get@?$c_string_character_source@_W@__crt_strtox@@QEAA_WXZ 0000000180099500 f i libucrtd:atox.obj
 0001:00098540       ?is_space@__crt_strtox@@YA_NDQEAU__crt_locale_pointers@@@Z 0000000180099540 f i libucrtd:atox.obj
 0001:00098590       ?is_space@__crt_strtox@@YA_N_WPEAU__crt_locale_pointers@@@Z 0000000180099590 f i libucrtd:atox.obj
 0001:000985d0       ?maximum_signed_value@__crt_strtox@@YAJK@Z 00000001800995d0 f i libucrtd:atox.obj
 0001:000985e0       ?maximum_signed_value@__crt_strtox@@YA_J_K@Z 00000001800995e0 f i libucrtd:atox.obj
 0001:000985f0       ?minimum_signed_value@__crt_strtox@@YAJK@Z 00000001800995f0 f i libucrtd:atox.obj
 0001:00098600       ?minimum_signed_value@__crt_strtox@@YA_J_K@Z 0000000180099600 f i libucrtd:atox.obj
 0001:00098610       ?parse_digit@__crt_strtox@@YAID@Z 0000000180099610 f i libucrtd:atox.obj
 0001:00098680       ?parse_digit@__crt_strtox@@YAI_W@Z 0000000180099680 f i libucrtd:atox.obj
 0001:000986d0       ?restore_state@?$c_string_character_source@D@__crt_strtox@@QEAA_NQEBD@Z 00000001800996d0 f i libucrtd:atox.obj
 0001:000986f0       ?restore_state@?$c_string_character_source@_W@__crt_strtox@@QEAA_NQEB_W@Z 00000001800996f0 f i libucrtd:atox.obj
 0001:00098710       ?save_state@?$c_string_character_source@D@__crt_strtox@@QEBAPEBDXZ 0000000180099710 f i libucrtd:atox.obj
 0001:00098720       ?save_state@?$c_string_character_source@_W@__crt_strtox@@QEBAPEB_WXZ 0000000180099720 f i libucrtd:atox.obj
 0001:00098730       ?unget@?$c_string_character_source@D@__crt_strtox@@QEAAXD@Z 0000000180099730 f i libucrtd:atox.obj
 0001:00098810       ?unget@?$c_string_character_source@_W@__crt_strtox@@QEAAX_W@Z 0000000180099810 f i libucrtd:atox.obj
 0001:000988f0       ?validate@?$c_string_character_source@D@__crt_strtox@@QEBA_NXZ 00000001800998f0 f i libucrtd:atox.obj
 0001:000989b0       ?validate@?$c_string_character_source@_W@__crt_strtox@@QEBA_NXZ 00000001800999b0 f i libucrtd:atox.obj
 0001:00098a70       ?wide_character_to_digit@__crt_strtox@@YAH_W@Z 0000000180099a70 f i libucrtd:atox.obj
 0001:00098de0       __ascii_iswalpha           0000000180099de0 f i libucrtd:atox.obj
 0001:00098e20       __ascii_toupper            0000000180099e20 f i libucrtd:atox.obj
 0001:00098e40       __ascii_towupper           0000000180099e40 f i libucrtd:atox.obj
 0001:00098e60       _atoi64                    0000000180099e60 f   libucrtd:atox.obj
 0001:00098e90       _atoi64_l                  0000000180099e90 f   libucrtd:atox.obj
 0001:00098ec0       _atoi_l                    0000000180099ec0 f   libucrtd:atox.obj
 0001:00098ef0       _atol_l                    0000000180099ef0 f   libucrtd:atox.obj
 0001:00098f20       _atoll_l                   0000000180099f20 f   libucrtd:atox.obj
 0001:00098f50       _wtoi                      0000000180099f50 f   libucrtd:atox.obj
 0001:00098f80       _wtoi64                    0000000180099f80 f   libucrtd:atox.obj
 0001:00098fb0       _wtoi64_l                  0000000180099fb0 f   libucrtd:atox.obj
 0001:00098fe0       _wtoi_l                    0000000180099fe0 f   libucrtd:atox.obj
 0001:00099010       _wtol                      000000018009a010 f   libucrtd:atox.obj
 0001:00099040       _wtol_l                    000000018009a040 f   libucrtd:atox.obj
 0001:00099070       _wtoll                     000000018009a070 f   libucrtd:atox.obj
 0001:000990a0       _wtoll_l                   000000018009a0a0 f   libucrtd:atox.obj
 0001:000990d0       atoi                       000000018009a0d0 f   libucrtd:atox.obj
 0001:00099100       atol                       000000018009a100 f   libucrtd:atox.obj
 0001:00099130       atoll                      000000018009a130 f   libucrtd:atox.obj
 0001:00099170       strncmp                    000000018009a170 f   libucrtd:strncmp.obj
 0001:000991f0       wcsncmp                    000000018009a1f0 f   libucrtd:wcsncmp.obj
 0001:00099280       _CrtGetDebugFillThreshold  000000018009a280 f   libucrtd:debug_fill_threshold.obj
 0001:00099290       _CrtSetDebugFillThreshold  000000018009a290 f   libucrtd:debug_fill_threshold.obj
 0001:000992c0       ??$make_c_string_character_source@DPEAPEAD@__crt_strtox@@YA?AV?$c_string_character_source@D@0@QEBDQEAPEAD@Z 000000018009a2c0 f i libucrtd:strtox.obj
 0001:00099300       ??$make_c_string_character_source@_WPEAPEA_W@__crt_strtox@@YA?AV?$c_string_character_source@_W@0@QEB_WQEAPEA_W@Z 000000018009a300 f i libucrtd:strtox.obj
 0001:00099340       ??$parse_integer_from_string@JDPEAPEAD@__crt_strtox@@YAJQEBDQEAPEADHQEAU__crt_locale_pointers@@@Z 000000018009a340 f i libucrtd:strtox.obj
 0001:00099390       ??$parse_integer_from_string@J_WPEAPEA_W@__crt_strtox@@YAJQEB_WQEAPEA_WHQEAU__crt_locale_pointers@@@Z 000000018009a390 f i libucrtd:strtox.obj
 0001:000993e0       ??$parse_integer_from_string@KDPEAPEAD@__crt_strtox@@YAKQEBDQEAPEADHQEAU__crt_locale_pointers@@@Z 000000018009a3e0 f i libucrtd:strtox.obj
 0001:00099430       ??$parse_integer_from_string@K_WPEAPEA_W@__crt_strtox@@YAKQEB_WQEAPEA_WHQEAU__crt_locale_pointers@@@Z 000000018009a430 f i libucrtd:strtox.obj
 0001:00099480       ??$parse_integer_from_string@_JDPEAPEAD@__crt_strtox@@YA_JQEBDQEAPEADHQEAU__crt_locale_pointers@@@Z 000000018009a480 f i libucrtd:strtox.obj
 0001:000994d0       ??$parse_integer_from_string@_J_WPEAPEA_W@__crt_strtox@@YA_JQEB_WQEAPEA_WHQEAU__crt_locale_pointers@@@Z 000000018009a4d0 f i libucrtd:strtox.obj
 0001:00099520       ??$parse_integer_from_string@_KDPEAPEAD@__crt_strtox@@YA_KQEBDQEAPEADHQEAU__crt_locale_pointers@@@Z 000000018009a520 f i libucrtd:strtox.obj
 0001:00099570       ??$parse_integer_from_string@_K_WPEAPEA_W@__crt_strtox@@YA_KQEB_WQEAPEA_WHQEAU__crt_locale_pointers@@@Z 000000018009a570 f i libucrtd:strtox.obj
 0001:000995c0       _strtoi64                  000000018009a5c0 f   libucrtd:strtox.obj
 0001:000995f0       _strtoi64_l                000000018009a5f0 f   libucrtd:strtox.obj
 0001:00099630       _strtoimax_l               000000018009a630 f   libucrtd:strtox.obj
 0001:00099670       _strtol_l                  000000018009a670 f   libucrtd:strtox.obj
 0001:000996b0       _strtoll_l                 000000018009a6b0 f   libucrtd:strtox.obj
 0001:000996f0       _strtoui64                 000000018009a6f0 f   libucrtd:strtox.obj
 0001:00099720       _strtoui64_l               000000018009a720 f   libucrtd:strtox.obj
 0001:00099760       _strtoul_l                 000000018009a760 f   libucrtd:strtox.obj
 0001:000997a0       _strtoull_l                000000018009a7a0 f   libucrtd:strtox.obj
 0001:000997e0       _strtoumax_l               000000018009a7e0 f   libucrtd:strtox.obj
 0001:00099820       _wcstoi64                  000000018009a820 f   libucrtd:strtox.obj
 0001:00099850       _wcstoi64_l                000000018009a850 f   libucrtd:strtox.obj
 0001:00099890       _wcstoimax_l               000000018009a890 f   libucrtd:strtox.obj
 0001:000998d0       _wcstol_l                  000000018009a8d0 f   libucrtd:strtox.obj
 0001:00099910       _wcstoll_l                 000000018009a910 f   libucrtd:strtox.obj
 0001:00099950       _wcstoui64                 000000018009a950 f   libucrtd:strtox.obj
 0001:00099980       _wcstoui64_l               000000018009a980 f   libucrtd:strtox.obj
 0001:000999c0       _wcstoul_l                 000000018009a9c0 f   libucrtd:strtox.obj
 0001:00099a00       _wcstoull_l                000000018009aa00 f   libucrtd:strtox.obj
 0001:00099a40       _wcstoumax_l               000000018009aa40 f   libucrtd:strtox.obj
 0001:00099a80       strtoimax                  000000018009aa80 f   libucrtd:strtox.obj
 0001:00099ab0       strtol                     000000018009aab0 f   libucrtd:strtox.obj
 0001:00099ae0       strtoll                    000000018009aae0 f   libucrtd:strtox.obj
 0001:00099b10       strtoul                    000000018009ab10 f   libucrtd:strtox.obj
 0001:00099b40       strtoull                   000000018009ab40 f   libucrtd:strtox.obj
 0001:00099b70       strtoumax                  000000018009ab70 f   libucrtd:strtox.obj
 0001:00099ba0       wcstoimax                  000000018009aba0 f   libucrtd:strtox.obj
 0001:00099bd0       wcstol                     000000018009abd0 f   libucrtd:strtox.obj
 0001:00099c00       wcstoll                    000000018009ac00 f   libucrtd:strtox.obj
 0001:00099c30       wcstoul                    000000018009ac30 f   libucrtd:strtox.obj
 0001:00099c60       wcstoull                   000000018009ac60 f   libucrtd:strtox.obj
 0001:00099c90       wcstoumax                  000000018009ac90 f   libucrtd:strtox.obj
 0001:00099cc0       _mbtowc_l                  000000018009acc0 f   libucrtd:mbtowc.obj
 0001:0009a120       mbtowc                     000000018009b120 f   libucrtd:mbtowc.obj
 0001:0009a150       _wctomb_l                  000000018009b150 f   libucrtd:wctomb.obj
 0001:0009a210       _wctomb_s_l                000000018009b210 f   libucrtd:wctomb.obj
 0001:0009a790       wctomb                     000000018009b790 f   libucrtd:wctomb.obj
 0001:0009a7f0       wctomb_s                   000000018009b7f0 f   libucrtd:wctomb.obj
 0001:0009a840       ??$?RU__acrt_ptd@@@__crt_internal_free_policy@@QEBAXQEBU__acrt_ptd@@@Z 000000018009b840 f i libucrtd:per_thread_data.obj
 0001:0009ac40       ??0?$__crt_unique_heap_ptr@U__acrt_ptd@@U__crt_internal_free_policy@@@@QEAA@QEAU__acrt_ptd@@@Z 000000018009bc40 f i libucrtd:per_thread_data.obj
 0001:0009ac60       ??0__crt_scoped_get_last_error_reset@@QEAA@XZ 000000018009bc60 f i libucrtd:per_thread_data.obj
 0001:0009ac80       ??1?$__crt_unique_heap_ptr@U__acrt_ptd@@U__crt_internal_free_policy@@@@QEAA@XZ 000000018009bc80 f i libucrtd:per_thread_data.obj
 0001:0009aca0       ??1__crt_scoped_get_last_error_reset@@QEAA@XZ 000000018009bca0 f i libucrtd:per_thread_data.obj
 0001:0009acc0       ??B?$__crt_unique_heap_ptr@U__acrt_ptd@@U__crt_internal_free_policy@@@@QEBA_NXZ 000000018009bcc0 f i libucrtd:per_thread_data.obj
 0001:0009b010       ?dangerous_get_state_array@?$dual_state_global@PEAU__crt_locale_data@@@__crt_state_management@@QEAAPEAPEAU__crt_locale_data@@XZ 000000018009c010 f i libucrtd:per_thread_data.obj
 0001:0009b1d0       ?detach@?$__crt_unique_heap_ptr@U__acrt_ptd@@U__crt_internal_free_policy@@@@QEAAPEAU__acrt_ptd@@XZ 000000018009c1d0 f i libucrtd:per_thread_data.obj
 0001:0009b200       ?get@?$__crt_unique_heap_ptr@U__acrt_ptd@@U__crt_internal_free_policy@@@@QEBAPEAU__acrt_ptd@@XZ 000000018009c200 f i libucrtd:per_thread_data.obj
 0001:0009b210       ?get_current_state_index@__crt_state_management@@YA_KAEBV__crt_scoped_get_last_error_reset@@@Z 000000018009c210 f i libucrtd:per_thread_data.obj
 0001:0009b3c0       ?is_valid@?$__crt_unique_heap_ptr@U__acrt_ptd@@U__crt_internal_free_policy@@@@QEBA_NXZ 000000018009c3c0 f i libucrtd:per_thread_data.obj
 0001:0009b3f0       ?release@?$__crt_unique_heap_ptr@U__acrt_ptd@@U__crt_internal_free_policy@@@@QEAAXXZ 000000018009c3f0 f i libucrtd:per_thread_data.obj
 0001:0009b520       ?value@?$dual_state_global@PEAU__crt_locale_data@@@__crt_state_management@@QEAAAEAPEAU__crt_locale_data@@XZ 000000018009c520 f i libucrtd:per_thread_data.obj
 0001:0009b540       __acrt_freeptd             000000018009c540 f   libucrtd:per_thread_data.obj
 0001:0009b580       __acrt_getptd              000000018009c580 f   libucrtd:per_thread_data.obj
 0001:0009b5b0       __acrt_getptd_head         000000018009c5b0 f   libucrtd:per_thread_data.obj
 0001:0009b5e0       __acrt_getptd_noexit       000000018009c5e0 f   libucrtd:per_thread_data.obj
 0001:0009b5f0       __acrt_initialize_ptd      000000018009c5f0 f   libucrtd:per_thread_data.obj
 0001:0009b630       __acrt_uninitialize_ptd    000000018009c630 f   libucrtd:per_thread_data.obj
 0001:0009b660       __threadhandle             000000018009c660 f   libucrtd:per_thread_data.obj
 0001:0009b670       __threadid                 000000018009c670 f   libucrtd:per_thread_data.obj
 0001:0009b680       ?value@?$dual_state_global@PEAU__crt_multibyte_data@@@__crt_state_management@@QEAAAEAPEAU__crt_multibyte_data@@XZ 000000018009c680 f i libucrtd:locale_update.obj
 0001:0009b6a0       __acrt_should_sync_with_global_locale 000000018009c6a0 f i libucrtd:locale_update.obj
 0001:0009b6e0       __acrt_update_locale_info  000000018009c6e0 f   libucrtd:locale_update.obj
 0001:0009b730       __acrt_update_multibyte_info 000000018009c730 f   libucrtd:locale_update.obj
 0001:0009b780       ?__acrt_fp_classify@@YA?AW4__acrt_fp_class@@AEBN@Z 000000018009c780 f i libucrtd:cvt.obj
 0001:0009b880       ?__acrt_fp_is_negative@@YA_NAEBN@Z 000000018009c880 f i libucrtd:cvt.obj
 0001:0009d240       ?strrchr@@YAPEADQEADH@Z    000000018009e240 f i libucrtd:cvt.obj
 0001:0009d260       __acrt_fp_format           000000018009e260 f   libucrtd:cvt.obj
 0001:0009d910       _fputwc_nolock             000000018009e910 f   libucrtd:fputwc.obj
 0001:0009db80       _fputwchar                 000000018009eb80 f   libucrtd:fputwc.obj
 0001:0009dbb0       _putwc_nolock              000000018009ebb0 f   libucrtd:fputwc.obj
 0001:0009dbe0       fputwc                     000000018009ebe0 f   libucrtd:fputwc.obj
 0001:0009dcd0       putwc                      000000018009ecd0 f   libucrtd:fputwc.obj
 0001:0009dd00       putwchar                   000000018009ed00 f   libucrtd:fputwc.obj
 0001:0009dd20       ?lowio_handle@__crt_stdio_stream@@QEBAHXZ 000000018009ed20 f i libucrtd:fileno.obj
 0001:0009dd50       _fileno                    000000018009ed50 f   libucrtd:fileno.obj
 0001:0009de30       ??$?RPEAU__crt_stdio_stream_data@@@__crt_internal_free_policy@@QEBAXQEBQEAU__crt_stdio_stream_data@@@Z 000000018009ee30 f i libucrtd:_file.obj
 0001:0009de60       ??0?$__crt_unique_heap_ptr@PEAU__crt_stdio_stream_data@@U__crt_internal_free_policy@@@@QEAA@QEAPEAU__crt_stdio_stream_data@@@Z 000000018009ee60 f i libucrtd:_file.obj
 0001:0009de80       ??1?$__crt_unique_heap_ptr@PEAU__crt_stdio_stream_data@@U__crt_internal_free_policy@@@@QEAA@XZ 000000018009ee80 f i libucrtd:_file.obj
 0001:0009dea0       ?detach@?$__crt_unique_heap_ptr@PEAU__crt_stdio_stream_data@@U__crt_internal_free_policy@@@@QEAAPEAPEAU__crt_stdio_stream_data@@XZ 000000018009eea0 f i libucrtd:_file.obj
 0001:0009ded0       ?release@?$__crt_unique_heap_ptr@PEAU__crt_stdio_stream_data@@U__crt_internal_free_policy@@@@QEAAXXZ 000000018009eed0 f i libucrtd:_file.obj
 0001:0009df00       __acrt_initialize_stdio    000000018009ef00 f   libucrtd:_file.obj
 0001:0009e0f0       __acrt_iob_func            000000018009f0f0 f   libucrtd:_file.obj
 0001:0009e110       __acrt_uninitialize_stdio  000000018009f110 f   libucrtd:_file.obj
 0001:0009e1a0       _get_stream_buffer_pointers 000000018009f1a0 f   libucrtd:_file.obj
 0001:0009e2d0       _lock_file                 000000018009f2d0 f   libucrtd:_file.obj
 0001:0009e310       _unlock_file               000000018009f310 f   libucrtd:_file.obj
 0001:0009e350       _get_printf_count_output   000000018009f350 f   libucrtd:printf_count_output.obj
 0001:0009e380       _set_printf_count_output   000000018009f380 f   libucrtd:printf_count_output.obj
 0001:0009e3f0       ?has_any_buffer@__crt_stdio_stream@@QEBA_NXZ 000000018009f3f0 f i libucrtd:_sftbuf.obj
 0001:0009e410       ?has_any_of@__crt_stdio_stream@@QEBA_NJ@Z 000000018009f410 f i libucrtd:_sftbuf.obj
 0001:0009e450       ?has_temporary_buffer@__crt_stdio_stream@@QEBA_NXZ 000000018009f450 f i libucrtd:_sftbuf.obj
 0001:0009e470       ?set_flags@__crt_stdio_stream@@QEBA_NJ@Z 000000018009f470 f i libucrtd:_sftbuf.obj
 0001:0009e4e0       ?unset_flags@__crt_stdio_stream@@QEBA_NJ@Z 000000018009f4e0 f i libucrtd:_sftbuf.obj
 0001:0009e540       __acrt_should_use_temporary_buffer 000000018009f540 f   libucrtd:_sftbuf.obj
 0001:0009e590       __acrt_stdio_begin_temporary_buffering_nolock 000000018009f590 f   libucrtd:_sftbuf.obj
 0001:0009e7d0       __acrt_stdio_end_temporary_buffering_nolock 000000018009f7d0 f   libucrtd:_sftbuf.obj
 0001:0009e880       ??$?RU__crt_locale_data@@@__crt_internal_free_policy@@QEBAXQEBU__crt_locale_data@@@Z 000000018009f880 f i libucrtd:wsetlocale.obj
 0001:0009e8b0       ??$?RU__crt_locale_pointers@@@__crt_internal_free_policy@@QEBAXQEBU__crt_locale_pointers@@@Z 000000018009f8b0 f i libucrtd:wsetlocale.obj
 0001:0009e8e0       ??$?RU__crt_multibyte_data@@@__crt_internal_free_policy@@QEBAXQEBU__crt_multibyte_data@@@Z 000000018009f8e0 f i libucrtd:wsetlocale.obj
 0001:0009ee40       ??0?$__crt_unique_heap_ptr@U__crt_locale_data@@U__crt_internal_free_policy@@@@QEAA@QEAU__crt_locale_data@@@Z 000000018009fe40 f i libucrtd:wsetlocale.obj
