 OPOSElectronicJournal

 Timestamp is 5c4437f3 (Sun Jan 20 17:57:23 2019)

 Preferred load address is 0000000180000000

 Start         Length     Name                   Class
 0001:00000000 00001400H .text$di                CODE
 0001:00001400 000cbb30H .text$mn                CODE
 0001:000ccf30 00000020H .text$mn$00             CODE
 0001:000ccf50 00001340H .text$x                 CODE
 0001:000ce290 000001b4H .text$yd                CODE
 0002:00000000 00000700H .idata$5                DATA
 0002:00000700 00000010H .00cfg                  DATA
 0002:00000710 00000008H .CRT$XCA                DATA
 0002:00000718 00000008H .CRT$XCL                DATA
 0002:00000720 000000d8H .CRT$XCU                DATA
 0002:000007f8 00000008H .CRT$XCZ                DATA
 0002:00000800 00000008H .CRT$XIA                DATA
 0002:00000808 00000020H .CRT$XIC                DATA
 0002:00000828 00000008H .CRT$XIZ                DATA
 0002:00000830 00000008H .CRT$XLA                DATA
 0002:00000838 00000008H .CRT$XLZ                DATA
 0002:00000840 00000008H .CRT$XPA                DATA
 0002:00000848 00000010H .CRT$XPX                DATA
 0002:00000858 00000008H .CRT$XPXA               DATA
 0002:00000860 00000008H .CRT$XPZ                DATA
 0002:00000868 00000008H .CRT$XTA                DATA
 0002:00000870 00000010H .CRT$XTZ                DATA
 0002:00000878 00000000H .gfids$x                DATA
 0002:00000878 00000000H .gfids$y                DATA
 0002:00000880 0003a900H .rdata                  DATA
 0002:0003b180 00000028H .rdata$T                DATA
 0002:0003b1a8 0000056cH .rdata$r                DATA
 0002:0003b714 00000424H .rdata$zzzdbg           DATA
 0002:0003bb38 00000008H .rtc$IAA                DATA
 0002:0003bb40 00000030H .rtc$IMZ                DATA
 0002:0003bb70 00000008H .rtc$IZZ                DATA
 0002:0003bb78 00000008H .rtc$TAA                DATA
 0002:0003bb80 00000030H .rtc$TMZ                DATA
 0002:0003bbb0 00000008H .rtc$TZZ                DATA
 0002:0003bbb8 00000004H .tls                    DATA
 0002:0003bbbc 00000004H .tls$                   DATA
 0002:0003bbc0 00000010H .tls$ZZZ                DATA
 0002:0003bbd0 000090d0H .xdata                  DATA
 0002:00044ca0 00000150H .xdata$x                DATA
 0002:00044df0 00000008H ATL$__a                 DATA
 0002:00044df8 00000008H ATL$__z                 DATA
 0002:00044e00 000000b4H .edata                  DATA
 0002:00044eb4 00000078H .idata$2                DATA
 0002:00044f2c 00000014H .idata$3                DATA
 0002:00044f40 00000700H .idata$4                DATA
 0002:00045640 00000e22H .idata$6                DATA
 0003:00000000 00000f48H .data                   DATA
 0003:00000f48 00000198H .data$r                 DATA
 0003:000010e0 00003e54H .bss                    DATA
 0004:00000000 0000b868H .pdata                  DATA
 0005:00000000 00000220H .rsrc$01                DATA
 0005:00000220 00005080H .rsrc$02                DATA

  Address         Publics by Value              Rva+Base               Lib:Object

 0000:00000000       __hybrid_code_map          0000000000000000     <absolute>
 0000:00000000       __volatile_metadata        0000000000000000     <absolute>
 0000:00000000       __guard_iat_count          0000000000000000     <absolute>
 0000:00000000       __hybrid_code_map_count    0000000000000000     <absolute>
 0000:00000000       __guard_fids_count         0000000000000000     <absolute>
 0000:00000000       __enclave_config           0000000000000000     <absolute>
 0000:00000000       __guard_iat_table          0000000000000000     <absolute>
 0000:00000000       __dynamic_value_reloc_table 0000000000000000     <absolute>
 0000:00000000       __guard_fids_table         0000000000000000     <absolute>
 0000:00000000       __guard_longjmp_table      0000000000000000     <absolute>
 0000:00000000       __guard_longjmp_count      0000000000000000     <absolute>
 0000:00000000       ___safe_se_handler_table   0000000000000000     <absolute>
 0000:00000000       __hybrid_auxiliary_iat     0000000000000000     <absolute>
 0000:00000000       ___safe_se_handler_count   0000000000000000     <absolute>
 0000:00000100       __guard_flags              0000000000000100     <absolute>
 0000:00000000       __ImageBase                0000000180000000     <linker-defined>
 0001:00001400       ?_assert@@YAXPEB_W0I@Z     0000000180002400 f   Assert.obj
 0001:00001500       __local_stdio_printf_options 0000000180002500 f i Assert.obj
 0001:00001510       __vswprintf_l              0000000180002510 f i Assert.obj
 0001:00001570       _swprintf                  0000000180002570 f i Assert.obj
 0001:000015f0       _vswprintf_c_l             00000001800025f0 f i Assert.obj
 0001:00001680       _vswprintf_l               0000000180002680 f i Assert.obj
 0001:000016e0       ?cw_memcpy@@YAHPEADPEB_WH@Z 00000001800026e0 f   CWString.obj
 0001:00001770       ?cw_memcpy@@YAHPEA_WPEBDH@Z 0000000180002770 f   CWString.obj
 0001:000017f0       ?cw_memcpy@@YAHPEADPEBDH@Z 00000001800027f0 f   CWString.obj
 0001:00001890       ?cw_memcpy@@YAHPEA_WPEB_WH@Z 0000000180002890 f   CWString.obj
 0001:00001900       ?cw_memset@@YAXPEADDH@Z    0000000180002900 f   CWString.obj
 0001:00001970       ?cw_memset@@YAXPEA_W_WH@Z  0000000180002970 f   CWString.obj
 0001:00001a10       ?cw_strlen@@YAHPEBD@Z      0000000180002a10 f   CWString.obj
 0001:00001a80       ?cw_strlen@@YAHPEB_W@Z     0000000180002a80 f   CWString.obj
 0001:00001af0       ?cw_strcpy@@YAHPEADPEB_W@Z 0000000180002af0 f   CWString.obj
 0001:00001b40       ?cw_strcpy@@YAHPEA_WPEBD@Z 0000000180002b40 f   CWString.obj
 0001:00001b90       ?cw_strcpy@@YAHPEADPEBD@Z  0000000180002b90 f   CWString.obj
 0001:00001be0       ?cw_strcpy@@YAHPEA_WPEB_W@Z 0000000180002be0 f   CWString.obj
 0001:00001c30       ?cw_strcat@@YAHPEADPEB_W@Z 0000000180002c30 f   CWString.obj
 0001:00001c90       ?cw_strcat@@YAHPEA_WPEBD@Z 0000000180002c90 f   CWString.obj
 0001:00001cf0       ?cw_strcat@@YAHPEADPEBD@Z  0000000180002cf0 f   CWString.obj
 0001:00001d50       ?cw_strcat@@YAHPEA_WPEB_W@Z 0000000180002d50 f   CWString.obj
 0001:00001db0       ?cw_dup@@YAXPEBDAEAHAEAPEA_W1@Z 0000000180002db0 f   CWString.obj
 0001:00001ec0       ?cw_dup@@YAXPEB_WAEAHAEAPEAD1@Z 0000000180002ec0 f   CWString.obj
 0001:00001fb0       ?DupChar@_CW@@AEAAXXZ      0000000180002fb0 f   CWString.obj
 0001:00002010       ?DupWide@_CW@@AEAAXXZ      0000000180003010 f   CWString.obj
 0001:00002080       ?GetCharsMbcs@_CW@@QEAAHXZ 0000000180003080 f   CWString.obj
 0001:000020f0       ?GetCharsWide@_CW@@QEAAHXZ 00000001800030f0 f   CWString.obj
 0001:00002160       ?SetVARIANT_BOOL@OposVariant@@QEAAXF@Z 0000000180003160 f   OposVariant.obj
 0001:000021d0       ?SetVARIANT_BOOL_Ptr@OposVariant@@QEAAXPEAFAEAJ@Z 00000001800031d0 f   OposVariant.obj
 0001:00002240       ?GetLONG@OposVariant@@QEAAJXZ 0000000180003240 f   OposVariant.obj
 0001:000022a0       ?ChangeLONG@OposVariant@@QEAAXPEAJAEAJ@Z 00000001800032a0 f   OposVariant.obj
 0001:00002350       ?SetLONG@OposVariant@@QEAAXJ@Z 0000000180003350 f   OposVariant.obj
 0001:000023b0       ?SetLONG_Ptr@OposVariant@@QEAAXPEAJAEAJ@Z 00000001800033b0 f   OposVariant.obj
 0001:00002420       ?ChangeCURRENCY@OposVariant@@QEAAXPEATtagCY@@AEAJ@Z 0000000180003420 f   OposVariant.obj
 0001:000024d0       ?SetCURRENCY@OposVariant@@QEAAXTtagCY@@@Z 00000001800034d0 f   OposVariant.obj
 0001:00002530       ?SetCURRENCY_Ptr@OposVariant@@QEAAXPEATtagCY@@AEAJ@Z 0000000180003530 f   OposVariant.obj
 0001:000025a0       ?ChangeBSTR@OposVariant@@QEAAXPEAPEA_WAEAJ@Z 00000001800035a0 f   OposVariant.obj
 0001:00002650       ?SetBSTR@OposVariant@@QEAAXPEA_WAEAJ@Z 0000000180003650 f   OposVariant.obj
 0001:000026d0       ?SetBSTR_Copy@OposVariant@@QEAAXPEA_WAEAJ@Z 00000001800036d0 f   OposVariant.obj
 0001:00002780       ?SetBSTR_OutPtr@OposVariant@@QEAA_NPEAPEA_WAEAJ@Z 0000000180003780 f   OposVariant.obj
 0001:000027f0       ?SetBSTR_InOutPtr@OposVariant@@QEAA_NPEAPEA_WAEAJ@Z 00000001800037f0 f   OposVariant.obj
 0001:00002870       ?SetVARIANT@OposVariant@@QEAAXAEAUtagVARIANT@@GAEAJ@Z 0000000180003870 f   OposVariant.obj
 0001:00002910       ?SetVARIANT_Ptr@OposVariant@@QEAAXAEAPEAUtagVARIANT@@GAEAJ@Z 0000000180003910 f   OposVariant.obj
 0001:000029c0       ?SetString@OposVariant@@QEAAXPEB_WAEAJ@Z 00000001800039c0 f   OposVariant.obj
 0001:00002a70       ?SetDispatch_Ptr@OposVariant@@QEAAXPEAUIDispatch@@AEAJ@Z 0000000180003a70 f   OposVariant.obj
 0001:00002b00       ??0OposDispParms@@QEAA@PEAVOposVariant@@H@Z 0000000180003b00 f   OposVariant.obj
 0001:00002c10       ??1OposDispParms@@QEAA@XZ  0000000180003c10 f   OposVariant.obj
 0001:00002c60       ??$AtlMultiply@_K@ATL@@YAJPEA_K_K1@Z 0000000180003c60 f i OposVariant.obj
 0001:00002ce0       ??0?$CHeapPtr@_WVCCRTAllocator@ATL@@@ATL@@QEAA@XZ 0000000180003ce0 f i OposVariant.obj
 0001:00002d20       ??0?$CHeapPtrBase@_WVCCRTAllocator@ATL@@@ATL@@IEAA@XZ 0000000180003d20 f i OposVariant.obj
 0001:00002d40       ??0?$CSimpleArray@GV?$CSimpleArrayEqualHelper@G@ATL@@@ATL@@QEAA@XZ 0000000180003d40 f i OposVariant.obj
 0001:00002d80       ??0?$CTraceCategoryEx@$00$0A@@ATL@@QEAA@PEB_W@Z 0000000180003d80 f i OposVariant.obj
 0001:00002dc0       ??0?$CTraceCategoryEx@$01$0A@@ATL@@QEAA@PEB_W@Z 0000000180003dc0 f i OposVariant.obj
 0001:00002e00       ??0?$CTraceCategoryEx@$03$0A@@ATL@@QEAA@PEB_W@Z 0000000180003e00 f i OposVariant.obj
 0001:00002e40       ??0?$CTraceCategoryEx@$07$0A@@ATL@@QEAA@PEB_W@Z 0000000180003e40 f i OposVariant.obj
 0001:00002e80       ??0?$CTraceCategoryEx@$0BA@$0A@@ATL@@QEAA@PEB_W@Z 0000000180003e80 f i OposVariant.obj
 0001:00002ec0       ??0?$CTraceCategoryEx@$0BAA@$0A@@ATL@@QEAA@PEB_W@Z 0000000180003ec0 f i OposVariant.obj
 0001:00002f00       ??0?$CTraceCategoryEx@$0BAAA@$0A@@ATL@@QEAA@PEB_W@Z 0000000180003f00 f i OposVariant.obj
 0001:00002f40       ??0?$CTraceCategoryEx@$0BAAAA@$0A@@ATL@@QEAA@PEB_W@Z 0000000180003f40 f i OposVariant.obj
 0001:00002f80       ??0?$CTraceCategoryEx@$0BAAAAA@$0A@@ATL@@QEAA@PEB_W@Z 0000000180003f80 f i OposVariant.obj
 0001:00002fc0       ??0?$CTraceCategoryEx@$0CA@$0A@@ATL@@QEAA@PEB_W@Z 0000000180003fc0 f i OposVariant.obj
 0001:00003000       ??0?$CTraceCategoryEx@$0CAA@$0A@@ATL@@QEAA@PEB_W@Z 0000000180004000 f i OposVariant.obj
 0001:00003040       ??0?$CTraceCategoryEx@$0CAAA@$0A@@ATL@@QEAA@PEB_W@Z 0000000180004040 f i OposVariant.obj
 0001:00003080       ??0?$CTraceCategoryEx@$0CAAAA@$0A@@ATL@@QEAA@PEB_W@Z 0000000180004080 f i OposVariant.obj
 0001:000030c0       ??0?$CTraceCategoryEx@$0CAAAAA@$0A@@ATL@@QEAA@PEB_W@Z 00000001800040c0 f i OposVariant.obj
 0001:00003100       ??0?$CTraceCategoryEx@$0EA@$0A@@ATL@@QEAA@PEB_W@Z 0000000180004100 f i OposVariant.obj
 0001:00003140       ??0?$CTraceCategoryEx@$0EAA@$0A@@ATL@@QEAA@PEB_W@Z 0000000180004140 f i OposVariant.obj
 0001:00003180       ??0?$CTraceCategoryEx@$0EAAA@$0A@@ATL@@QEAA@PEB_W@Z 0000000180004180 f i OposVariant.obj
 0001:000031c0       ??0?$CTraceCategoryEx@$0EAAAA@$0A@@ATL@@QEAA@PEB_W@Z 00000001800041c0 f i OposVariant.obj
 0001:00003200       ??0?$CTraceCategoryEx@$0EAAAAA@$0A@@ATL@@QEAA@PEB_W@Z 0000000180004200 f i OposVariant.obj
 0001:00003240       ??0?$CTraceCategoryEx@$0IA@$0A@@ATL@@QEAA@PEB_W@Z 0000000180004240 f i OposVariant.obj
 0001:00003280       ??0?$CTraceCategoryEx@$0IAA@$0A@@ATL@@QEAA@PEB_W@Z 0000000180004280 f i OposVariant.obj
 0001:000032c0       ??0?$CTraceCategoryEx@$0IAAA@$0A@@ATL@@QEAA@PEB_W@Z 00000001800042c0 f i OposVariant.obj
 0001:00003300       ??0?$CTraceCategoryEx@$0IAAAA@$0A@@ATL@@QEAA@PEB_W@Z 0000000180004300 f i OposVariant.obj
 0001:00003340       ??0CAtlComModule@ATL@@QEAA@XZ 0000000180004340 f i OposVariant.obj
 0001:00003460       ??0CAtlWinModule@ATL@@QEAA@XZ 0000000180004460 f i OposVariant.obj
 0001:00003510       ??0CComCriticalSection@ATL@@QEAA@XZ 0000000180004510 f i OposVariant.obj
 0001:00003550       ??0CPreserveLastError@ATL@@QEAA@XZ 0000000180004550 f i OposVariant.obj
 0001:00003590       ??0CTraceFileAndLineInfo@ATL@@QEAA@PEBDH@Z 0000000180004590 f i OposVariant.obj
 0001:000035c0       ??0_ATL_COM_MODULE70@ATL@@QEAA@XZ 00000001800045c0 f i OposVariant.obj
 0001:00003600       ??0_ATL_WIN_MODULE70@ATL@@QEAA@XZ 0000000180004600 f i OposVariant.obj
 0001:00003650       ??1?$CHeapPtr@_WVCCRTAllocator@ATL@@@ATL@@QEAA@XZ 0000000180004650 f i OposVariant.obj
 0001:00003680       ??1?$CHeapPtrBase@_WVCCRTAllocator@ATL@@@ATL@@QEAA@XZ 0000000180004680 f i OposVariant.obj
 0001:000036b0       ??1?$CSimpleArray@GV?$CSimpleArrayEqualHelper@G@ATL@@@ATL@@QEAA@XZ 00000001800046b0 f i OposVariant.obj
 0001:000036e0       ??1CAtlComModule@ATL@@QEAA@XZ 00000001800046e0 f i OposVariant.obj
 0001:00003720       ??1CAtlWinModule@ATL@@QEAA@XZ 0000000180004720 f i OposVariant.obj
 0001:00003760       ??1CComBSTR@ATL@@QEAA@XZ   0000000180004760 f i OposVariant.obj
 0001:000037a0       ??1CComCriticalSection@ATL@@QEAA@XZ 00000001800047a0 f i OposVariant.obj
 0001:000037b0       ??1CPreserveLastError@ATL@@QEAA@XZ 00000001800047b0 f i OposVariant.obj
 0001:000037f0       ??1_ATL_COM_MODULE70@ATL@@QEAA@XZ 00000001800047f0 f i OposVariant.obj
 0001:00003830       ??1_ATL_WIN_MODULE70@ATL@@QEAA@XZ 0000000180004830 f i OposVariant.obj
 0001:00003880       ??1stringdispid@CComTypeInfoHolder@ATL@@QEAA@XZ 0000000180004880 f i OposVariant.obj
 0001:000038c0       ??A?$CSimpleArray@GV?$CSimpleArrayEqualHelper@G@ATL@@@ATL@@QEAAAEAGH@Z 00000001800048c0 f i OposVariant.obj
 0001:00003970       ??B?$CHeapPtrBase@_WVCCRTAllocator@ATL@@@ATL@@QEBAPEA_WXZ 0000000180004970 f i OposVariant.obj
 0001:00003980       ??B?$CTraceCategoryEx@$01$0A@@ATL@@QEAAIXZ 0000000180004980 f i OposVariant.obj
 0001:00003990       ??B?$CTraceCategoryEx@$0CA@$0A@@ATL@@QEAAIXZ 0000000180004990 f i OposVariant.obj
 0001:000039a0       ??RCTraceFileAndLineInfo@ATL@@QEBAXHIPEB_WZZ 00000001800049a0 f i OposVariant.obj
 0001:00003a50       ??_Estringdispid@CComTypeInfoHolder@ATL@@QEAAPEAXI@Z 0000000180004a50 f i OposVariant.obj
 0001:00003b00       ??_H@YAXPEAX_K1P6APEAX0@Z@Z 0000000180004b00 f i OposVariant.obj
 0001:00003b90       ??_I@YAXPEAX_K1P6AX0@Z@Z   0000000180004b90 f i OposVariant.obj
 0001:00003c40       ?Allocate@?$CHeapPtr@_WVCCRTAllocator@ATL@@@ATL@@QEAA_N_K@Z 0000000180004c40 f i OposVariant.obj
 0001:00003cc0       ?Allocate@CCRTAllocator@ATL@@SAPEAX_K@Z 0000000180004cc0 f i OposVariant.obj
 0001:00003cf0       ?AllocateBytes@?$CHeapPtrBase@_WVCCRTAllocator@ATL@@@ATL@@QEAA_N_K@Z 0000000180004cf0 f i OposVariant.obj
 0001:00003d90       ?AtlWinModuleInit@ATL@@YAJPEAU_ATL_WIN_MODULE70@1@@Z 0000000180004d90 f i OposVariant.obj
 0001:00003e90       ?AtlWinModuleTerm@ATL@@YAJPEAU_ATL_WIN_MODULE70@1@PEAUHINSTANCE__@@@Z 0000000180004e90 f i OposVariant.obj
 0001:00003f80       ?Clear@OposVariant@@QEAAJXZ 0000000180004f80 f i OposVariant.obj
 0001:00003fc0       ?Free@?$CHeapPtrBase@_WVCCRTAllocator@ATL@@@ATL@@QEAAXXZ 0000000180004fc0 f i OposVariant.obj
 0001:00004000       ?Free@CCRTAllocator@ATL@@SAXPEAX@Z 0000000180005000 f i OposVariant.obj
 0001:00004030       ?GetCategoryName@CTrace@ATL@@CAPEA_WI@Z 0000000180005030 f i OposVariant.obj
 0001:000040b0       ?GetModuleInstance@CAtlBaseModule@ATL@@QEAAPEAUHINSTANCE__@@XZ 00000001800050b0 f i OposVariant.obj
 0001:000040d0       ?GetSize@?$CSimpleArray@GV?$CSimpleArrayEqualHelper@G@ATL@@@ATL@@QEBAHXZ 00000001800050d0 f i OposVariant.obj
 0001:000040e0       ?Init@CComCriticalSection@ATL@@QEAAJXZ 00000001800050e0 f i OposVariant.obj
 0001:00004140       ?RegisterCategory@CTrace@ATL@@SAXPEB_WI@Z 0000000180005140 f i OposVariant.obj
 0001:00004220       ?RemoveAll@?$CSimpleArray@GV?$CSimpleArrayEqualHelper@G@ATL@@@ATL@@QEAAXXZ 0000000180005220 f i OposVariant.obj
 0001:000042b0       ?Term@CAtlComModule@ATL@@QEAAXXZ 00000001800052b0 f i OposVariant.obj
 0001:00004390       ?Term@CAtlWinModule@ATL@@QEAAXXZ 0000000180005390 f i OposVariant.obj
 0001:000043d0       ?Term@CComCriticalSection@ATL@@QEAAJXZ 00000001800053d0 f i OposVariant.obj
 0001:00004410       ?TraceV@CTrace@ATL@@CAXPEBDHIIPEB_W@Z 0000000180005410 f i OposVariant.obj
 0001:000046c0       ?TraceV@CTrace@ATL@@SAXPEBDHIIPEB_WPEAD@Z 00000001800056c0 f i OposVariant.obj
 0001:00004870       ?_AtlInitializeCriticalSectionEx@ATL@@YAHPEAU_RTL_CRITICAL_SECTION@@KK@Z 0000000180005870 f i OposVariant.obj
 0001:000048c0       ?_AtlRaiseException@ATL@@YAXKK@Z 00000001800058c0 f i OposVariant.obj
 0001:00004900       HRESULT_FROM_WIN32         0000000180005900 f i OposVariant.obj
 0001:00004950       _vswprintf_s_l             0000000180005950 f i OposVariant.obj
 0001:000049e0       swprintf_s                 00000001800059e0 f i OposVariant.obj
 0001:00004a70       ?ObjectMain@CComObjectRootBase@ATL@@SAX_N@Z 0000000180005a70 f i ElectronicJournal.obj
 0001:00004a80       ?GetCategoryMap@CComObjectRootBase@ATL@@SAPEBU_ATL_CATMAP_ENTRY@2@XZ 0000000180005a80 f i ElectronicJournal.obj
 0001:00004a90       ?GetObjectDescription@?$CComCoClass@VCOPOSElectronicJournal@@$1?CLSID_OPOSElectronicJournal@@3U_GUID@@B@ATL@@SAPEB_WXZ 0000000180005a90 f i ElectronicJournal.obj
 0001:00004aa0       ?UpdateRegistry@COPOSElectronicJournal@@SAJH@Z 0000000180005aa0 f i ElectronicJournal.obj
 0001:00004ae0       ?CreateInstance@?$CComCreator@V?$CComObjectCached@VCComClassFactory@ATL@@@ATL@@@ATL@@SAJPEAXAEBU_GUID@@PEAPEAX@Z 0000000180005ae0 f i ElectronicJournal.obj
 0001:00004ce0       ?CreateInstance@?$CComCreator2@V?$CComCreator@V?$CComObject@VCOPOSElectronicJournal@@@ATL@@@ATL@@V?$CComCreator@V?$CComAggObject@VCOPOSElectronicJournal@@@ATL@@@2@@ATL@@SAJPEAXAEBU_GUID@@PEAPEAX@Z 0000000180005ce0 f i ElectronicJournal.obj
 0001:00004ef0       DllGetClassObject          0000000180005ef0 f   ElectronicJournal.obj
 0001:00004f40       DllCanUnloadNow            0000000180005f40 f   ElectronicJournal.obj
 0001:00004f90       DllRegisterServer          0000000180005f90 f   ElectronicJournal.obj
 0001:00004fd0       DllUnregisterServer        0000000180005fd0 f   ElectronicJournal.obj
 0001:000051d0       DllMain                    00000001800061d0 f   ElectronicJournal.obj
 0001:00005250       ??$?2G@Wrapper@?$CSimpleArray@GV?$CSimpleArrayEqualHelper@G@ATL@@@ATL@@SAPEAX_KPEAG@Z 0000000180006250 f i ElectronicJournal.obj
 0001:00005270       ??$?2PEA_W@?$Wrapper@PEA_W@?$CSimpleMap@PEA_WPEA_WVCExpansionVectorEqualHelper@ATL@@@ATL@@SAPEAX_KPEAPEA_W@Z 0000000180006270 f i ElectronicJournal.obj
 0001:00005290       ??$?4UITypeInfo2@@@?$CComPtr@UITypeInfo@@@ATL@@QEAAPEAUITypeInfo@@AEBV?$CComPtr@UITypeInfo2@@@1@@Z 0000000180006290 f i ElectronicJournal.obj
 0001:00005300       ??$AtlAdd@_K@ATL@@YAJPEA_K_K1@Z 0000000180006300 f i ElectronicJournal.obj
 0001:00005370       ??$AtlAddThrow@_K@ATL@@YA_K_K0@Z 0000000180006370 f i ElectronicJournal.obj
 0001:000053e0       ??$AtlModuleRegisterWndClassInfoT@VAtlModuleRegisterWndClassInfoParamW@ATL@@@ATL@@YAGPEAU_ATL_BASE_MODULE70@0@PEAU_ATL_WIN_MODULE70@0@PEAU_ATL_WNDCLASSINFOW@0@PEAP6A_JPEAUHWND__@@I_K_J@ZVAtlModuleRegisterWndClassInfoParamW@0@@Z 00000001800063e0 f i ElectronicJournal.obj
 0001:000059b0       ??$AtlMultiply@H@ATL@@YAJPEAHHH@Z 00000001800069b0 f i ElectronicJournal.obj
 0001:00005a20       ??$AtlMultiply@K@ATL@@YAJPEAKKK@Z 0000000180006a20 f i ElectronicJournal.obj
 0001:00005a90       ??$AtlMultiplyThrow@_K@ATL@@YA_K_K0@Z 0000000180006a90 f i ElectronicJournal.obj
 0001:00005b00       ??$QueryInterface@UIPersistStream@@@IUnknown@@QEAAJPEAPEAUIPersistStream@@@Z 0000000180006b00 f i ElectronicJournal.obj
 0001:00005b50       ??$QueryInterface@UITypeInfo2@@@IUnknown@@QEAAJPEAPEAUITypeInfo2@@@Z 0000000180006b50 f i ElectronicJournal.obj
 0001:00005ba0       ??0?$CAtlModuleT@VCComModule@ATL@@@ATL@@QEAA@XZ 0000000180006ba0 f i ElectronicJournal.obj
 0001:00005be0       ??0?$CAtlSafeAllocBufferManager@VCCRTAllocator@ATL@@@_ATL_SAFE_ALLOCA_IMPL@ATL@@QEAA@XZ 0000000180006be0 f i ElectronicJournal.obj
 0001:00005c00       ??0?$CAutoVectorPtr@_W@ATL@@QEAA@XZ 0000000180006c00 f i ElectronicJournal.obj
 0001:00005c20       ??0?$CComAggObject@VCOPOSElectronicJournal@@@ATL@@QEAA@PEAX@Z 0000000180006c20 f i ElectronicJournal.obj
 0001:00005cb0       ??0?$CComContainedObject@VCOPOSElectronicJournal@@@ATL@@QEAA@PEAX@Z 0000000180006cb0 f i ElectronicJournal.obj
 0001:00005e50       ??0?$CComCritSecLock@VCComCriticalSection@ATL@@@ATL@@QEAA@AEAVCComCriticalSection@1@_N@Z 0000000180006e50 f i ElectronicJournal.obj
 0001:00005ec0       ??0?$CComEnum@UIEnumConnectionPoints@@$1?_GUID_b196b285_bab4_101a_b69c_00aa00341d07@@3U__s_GUID@@BPEAUIConnectionPoint@@V?$_CopyInterface@UIConnectionPoint@@@ATL@@VCComSingleThreadModel@6@@ATL@@QEAA@XZ 0000000180006ec0 f i ElectronicJournal.obj
 0001:00005f10       ??0?$CComEnum@UIEnumConnections@@$1?_GUID_b196b287_bab4_101a_b69c_00aa00341d07@@3U__s_GUID@@BUtagCONNECTDATA@@V?$_Copy@UtagCONNECTDATA@@@ATL@@VCComSingleThreadModel@6@@ATL@@QEAA@XZ 0000000180006f10 f i ElectronicJournal.obj
 0001:00005f60       ??0?$CComEnumImpl@UIEnumConnectionPoints@@$1?_GUID_b196b285_bab4_101a_b69c_00aa00341d07@@3U__s_GUID@@BPEAUIConnectionPoint@@V?$_CopyInterface@UIConnectionPoint@@@ATL@@@ATL@@QEAA@XZ 0000000180006f60 f i ElectronicJournal.obj
 0001:00005fe0       ??0?$CComEnumImpl@UIEnumConnections@@$1?_GUID_b196b287_bab4_101a_b69c_00aa00341d07@@3U__s_GUID@@BUtagCONNECTDATA@@V?$_Copy@UtagCONNECTDATA@@@ATL@@@ATL@@QEAA@XZ 0000000180006fe0 f i ElectronicJournal.obj
 0001:00006060       ??0?$CComObject@V?$CComEnum@UIEnumConnectionPoints@@$1?_GUID_b196b285_bab4_101a_b69c_00aa00341d07@@3U__s_GUID@@BPEAUIConnectionPoint@@V?$_CopyInterface@UIConnectionPoint@@@ATL@@VCComSingleThreadModel@6@@ATL@@@ATL@@QEAA@PEAX@Z 0000000180007060 f i ElectronicJournal.obj
 0001:000060c0       ??0?$CComObject@V?$CComEnum@UIEnumConnections@@$1?_GUID_b196b287_bab4_101a_b69c_00aa00341d07@@3U__s_GUID@@BUtagCONNECTDATA@@V?$_Copy@UtagCONNECTDATA@@@ATL@@VCComSingleThreadModel@6@@ATL@@@ATL@@QEAA@PEAX@Z 00000001800070c0 f i ElectronicJournal.obj
 0001:00006120       ??0?$CComObject@VCOPOSElectronicJournal@@@ATL@@QEAA@PEAX@Z 0000000180007120 f i ElectronicJournal.obj
 0001:000062c0       ??0?$CComObjectCached@VCComClassFactory@ATL@@@ATL@@QEAA@PEAX@Z 00000001800072c0 f i ElectronicJournal.obj
 0001:00006310       ??0?$CComObjectRootEx@VCComMultiThreadModel@ATL@@@ATL@@QEAA@XZ 0000000180007310 f i ElectronicJournal.obj
 0001:00006360       ??0?$CComObjectRootEx@VCComSingleThreadModel@ATL@@@ATL@@QEAA@XZ 0000000180007360 f i ElectronicJournal.obj
 0001:000063a0       ??0?$CComPtr@UIAdviseSink@@@ATL@@QEAA@PEAUIAdviseSink@@@Z 00000001800073a0 f i ElectronicJournal.obj
 0001:000063e0       ??0?$CComPtr@UICatRegister@@@ATL@@QEAA@XZ 00000001800073e0 f i ElectronicJournal.obj
 0001:00006420       ??0?$CComPtr@UIConnectionPoint@@@ATL@@QEAA@XZ 0000000180007420 f i ElectronicJournal.obj
 0001:00006460       ??0?$CComPtr@UIConnectionPointContainer@@@ATL@@QEAA@XZ 0000000180007460 f i ElectronicJournal.obj
 0001:000064a0       ??0?$CComPtr@UIDataObject@@@ATL@@QEAA@XZ 00000001800074a0 f i ElectronicJournal.obj
 0001:000064e0       ??0?$CComPtr@UIDispatch@@@ATL@@QEAA@XZ 00000001800074e0 f i ElectronicJournal.obj
 0001:00006520       ??0?$CComPtr@UIOleClientSite@@@ATL@@QEAA@PEAUIOleClientSite@@@Z 0000000180007520 f i ElectronicJournal.obj
 0001:00006560       ??0?$CComPtr@UIOleControlSite@@@ATL@@QEAA@XZ 0000000180007560 f i ElectronicJournal.obj
 0001:000065a0       ??0?$CComPtr@UIOleInPlaceActiveObject@@@ATL@@QEAA@XZ 00000001800075a0 f i ElectronicJournal.obj
 0001:000065e0       ??0?$CComPtr@UIOleInPlaceFrame@@@ATL@@QEAA@XZ 00000001800075e0 f i ElectronicJournal.obj
 0001:00006620       ??0?$CComPtr@UIOleInPlaceObject@@@ATL@@QEAA@XZ 0000000180007620 f i ElectronicJournal.obj
 0001:00006660       ??0?$CComPtr@UIOleInPlaceUIWindow@@@ATL@@QEAA@XZ 0000000180007660 f i ElectronicJournal.obj
 0001:000066a0       ??0?$CComPtr@UIOleObject@@@ATL@@QEAA@XZ 00000001800076a0 f i ElectronicJournal.obj
 0001:000066e0       ??0?$CComPtr@UIPersistStream@@@ATL@@QEAA@XZ 00000001800076e0 f i ElectronicJournal.obj
 0001:00006720       ??0?$CComPtr@UIPersistStreamInit@@@ATL@@QEAA@XZ 0000000180007720 f i ElectronicJournal.obj
 0001:00006760       ??0?$CComPtr@UIPointerInactive@@@ATL@@QEAA@XZ 0000000180007760 f i ElectronicJournal.obj
 0001:000067a0       ??0?$CComPtr@UIProvideClassInfo2@@@ATL@@QEAA@XZ 00000001800077a0 f i ElectronicJournal.obj
 0001:000067e0       ??0?$CComPtr@UISpecifyPropertyPages@@@ATL@@QEAA@XZ 00000001800077e0 f i ElectronicJournal.obj
 0001:00006820       ??0?$CComPtr@UIStream@@@ATL@@QEAA@XZ 0000000180007820 f i ElectronicJournal.obj
 0001:00006860       ??0?$CComPtr@UITypeInfo2@@@ATL@@QEAA@XZ 0000000180007860 f i ElectronicJournal.obj
 0001:000068a0       ??0?$CComPtr@UITypeInfo@@@ATL@@QEAA@AEBV01@@Z 00000001800078a0 f i ElectronicJournal.obj
 0001:000068e0       ??0?$CComPtr@UITypeInfo@@@ATL@@QEAA@XZ 00000001800078e0 f i ElectronicJournal.obj
 0001:00006920       ??0?$CComPtr@UITypeLib@@@ATL@@QEAA@XZ 0000000180007920 f i ElectronicJournal.obj
 0001:00006960       ??0?$CComPtr@UIUnknown@@@ATL@@QEAA@AEBV01@@Z 0000000180007960 f i ElectronicJournal.obj
 0001:000069a0       ??0?$CComPtr@UIUnknown@@@ATL@@QEAA@PEAUIUnknown@@@Z 00000001800079a0 f i ElectronicJournal.obj
 0001:000069e0       ??0?$CComPtr@UIUnknown@@@ATL@@QEAA@XZ 00000001800079e0 f i ElectronicJournal.obj
 0001:00006a20       ??0?$CComPtr@UIViewObjectEx@@@ATL@@QEAA@XZ 0000000180007a20 f i ElectronicJournal.obj
 0001:00006a60       ??0?$CComPtrBase@UIAdviseSink@@@ATL@@IEAA@PEAUIAdviseSink@@@Z 0000000180007a60 f i ElectronicJournal.obj
 0001:00006ac0       ??0?$CComPtrBase@UICatRegister@@@ATL@@IEAA@XZ 0000000180007ac0 f i ElectronicJournal.obj
 0001:00006ae0       ??0?$CComPtrBase@UIConnectionPoint@@@ATL@@IEAA@XZ 0000000180007ae0 f i ElectronicJournal.obj
 0001:00006b00       ??0?$CComPtrBase@UIConnectionPointContainer@@@ATL@@IEAA@XZ 0000000180007b00 f i ElectronicJournal.obj
 0001:00006b20       ??0?$CComPtrBase@UIDataObject@@@ATL@@IEAA@XZ 0000000180007b20 f i ElectronicJournal.obj
 0001:00006b40       ??0?$CComPtrBase@UIDispatch@@@ATL@@IEAA@XZ 0000000180007b40 f i ElectronicJournal.obj
 0001:00006b60       ??0?$CComPtrBase@UIOleClientSite@@@ATL@@IEAA@PEAUIOleClientSite@@@Z 0000000180007b60 f i ElectronicJournal.obj
 0001:00006bc0       ??0?$CComPtrBase@UIOleControlSite@@@ATL@@IEAA@XZ 0000000180007bc0 f i ElectronicJournal.obj
 0001:00006be0       ??0?$CComPtrBase@UIOleInPlaceActiveObject@@@ATL@@IEAA@XZ 0000000180007be0 f i ElectronicJournal.obj
 0001:00006c00       ??0?$CComPtrBase@UIOleInPlaceFrame@@@ATL@@IEAA@XZ 0000000180007c00 f i ElectronicJournal.obj
 0001:00006c20       ??0?$CComPtrBase@UIOleInPlaceObject@@@ATL@@IEAA@XZ 0000000180007c20 f i ElectronicJournal.obj
 0001:00006c40       ??0?$CComPtrBase@UIOleInPlaceUIWindow@@@ATL@@IEAA@XZ 0000000180007c40 f i ElectronicJournal.obj
 0001:00006c60       ??0?$CComPtrBase@UIOleObject@@@ATL@@IEAA@XZ 0000000180007c60 f i ElectronicJournal.obj
 0001:00006c80       ??0?$CComPtrBase@UIPersistStream@@@ATL@@IEAA@XZ 0000000180007c80 f i ElectronicJournal.obj
 0001:00006ca0       ??0?$CComPtrBase@UIPersistStreamInit@@@ATL@@IEAA@XZ 0000000180007ca0 f i ElectronicJournal.obj
 0001:00006cc0       ??0?$CComPtrBase@UIPointerInactive@@@ATL@@IEAA@XZ 0000000180007cc0 f i ElectronicJournal.obj
 0001:00006ce0       ??0?$CComPtrBase@UIProvideClassInfo2@@@ATL@@IEAA@XZ 0000000180007ce0 f i ElectronicJournal.obj
 0001:00006d00       ??0?$CComPtrBase@UISpecifyPropertyPages@@@ATL@@IEAA@XZ 0000000180007d00 f i ElectronicJournal.obj
 0001:00006d20       ??0?$CComPtrBase@UIStream@@@ATL@@IEAA@XZ 0000000180007d20 f i ElectronicJournal.obj
 0001:00006d40       ??0?$CComPtrBase@UITypeInfo2@@@ATL@@IEAA@XZ 0000000180007d40 f i ElectronicJournal.obj
 0001:00006d60       ??0?$CComPtrBase@UITypeInfo@@@ATL@@IEAA@PEAUITypeInfo@@@Z 0000000180007d60 f i ElectronicJournal.obj
 0001:00006dc0       ??0?$CComPtrBase@UITypeInfo@@@ATL@@IEAA@XZ 0000000180007dc0 f i ElectronicJournal.obj
 0001:00006de0       ??0?$CComPtrBase@UITypeLib@@@ATL@@IEAA@XZ 0000000180007de0 f i ElectronicJournal.obj
 0001:00006e00       ??0?$CComPtrBase@UIUnknown@@@ATL@@IEAA@PEAUIUnknown@@@Z 0000000180007e00 f i ElectronicJournal.obj
 0001:00006e60       ??0?$CComPtrBase@UIUnknown@@@ATL@@IEAA@XZ 0000000180007e60 f i ElectronicJournal.obj
 0001:00006e80       ??0?$CComPtrBase@UIViewObjectEx@@@ATL@@IEAA@XZ 0000000180007e80 f i ElectronicJournal.obj
 0001:00006ea0       ??0?$CComQIPtr@UIOleControlSite@@$1?_GUID_b196b289_bab4_101a_b69c_00aa00341d07@@3U__s_GUID@@B@ATL@@QEAA@PEAUIUnknown@@@Z 0000000180007ea0 f i ElectronicJournal.obj
 0001:00006f10       ??0?$CComQIPtr@UIOleObject@@$1?_GUID_00000112_0000_0000_c000_000000000046@@3U__s_GUID@@B@ATL@@QEAA@XZ 0000000180007f10 f i ElectronicJournal.obj
 0001:00006f50       ??0?$CComQIPtr@UISpecifyPropertyPages@@$1?_GUID_b196b28b_bab4_101a_b69c_00aa00341d07@@3U__s_GUID@@B@ATL@@QEAA@XZ 0000000180007f50 f i ElectronicJournal.obj
 0001:00006f90       ??0?$CSimpleMap@PEA_WPEA_WVCExpansionVectorEqualHelper@ATL@@@ATL@@QEAA@XZ 0000000180007f90 f i ElectronicJournal.obj
 0001:00006fd0       ??0?$CTempBuffer@E$0BAA@VCCRTAllocator@ATL@@@ATL@@QEAA@XZ 0000000180007fd0 f i ElectronicJournal.obj
 0001:00006ff0       ??0?$CTempBuffer@_W$0BAA@VCCRTAllocator@ATL@@@ATL@@QEAA@XZ 0000000180007ff0 f i ElectronicJournal.obj
 0001:00007010       ??0?$CTempBuffer@_W$0EAA@VCCRTAllocator@ATL@@@ATL@@QEAA@XZ 0000000180008010 f i ElectronicJournal.obj
 0001:00007030       ??0?$Wrapper@PEA_W@?$CSimpleMap@PEA_WPEA_WVCExpansionVectorEqualHelper@ATL@@@ATL@@QEAA@AEBQEA_W@Z 0000000180008030 f i ElectronicJournal.obj
 0001:00007060       ??0CAtlModule@ATL@@QEAA@XZ 0000000180008060 f i ElectronicJournal.obj
 0001:000071d0       ??0CComAutoDeleteCriticalSection@ATL@@QEAA@XZ 00000001800081d0 f i ElectronicJournal.obj
 0001:00007210       ??0CComBSTR@ATL@@QEAA@XZ   0000000180008210 f i ElectronicJournal.obj
 0001:00007230       ??0CComClassFactory@ATL@@QEAA@XZ 0000000180008230 f i ElectronicJournal.obj
 0001:00007290       ??0CComModule@ATL@@QEAA@XZ 0000000180008290 f i ElectronicJournal.obj
 0001:00007330       ??0CComObjectRootBase@ATL@@QEAA@XZ 0000000180008330 f i ElectronicJournal.obj
 0001:00007350       ??0CComSafeDeleteCriticalSection@ATL@@QEAA@XZ 0000000180008350 f i ElectronicJournal.obj
 0001:00007390       ??0CComVariant@ATL@@QEAA@XZ 0000000180008390 f i ElectronicJournal.obj
 0001:000073e0       ??0CExpansionVector@ATL@@QEAA@XZ 00000001800083e0 f i ElectronicJournal.obj
 0001:00007420       ??0CParseBuffer@CRegParser@ATL@@QEAA@H@Z 0000000180008420 f i ElectronicJournal.obj
 0001:000074b0       ??0CRegKey@ATL@@QEAA@PEAUHKEY__@@@Z 00000001800084b0 f i ElectronicJournal.obj
 0001:000074f0       ??0CRegKey@ATL@@QEAA@PEAVCAtlTransactionManager@1@@Z 00000001800084f0 f i ElectronicJournal.obj
 0001:00007530       ??0CRegObject@ATL@@QEAA@XZ 0000000180008530 f i ElectronicJournal.obj
 0001:00007590       ??0CRegParser@ATL@@QEAA@PEAVCRegObject@1@@Z 0000000180008590 f i ElectronicJournal.obj
 0001:000075c0       ??0IClassFactory@@QEAA@XZ  00000001800085c0 f i ElectronicJournal.obj
 0001:00007600       ??0IEnumConnectionPoints@@QEAA@XZ 0000000180008600 f i ElectronicJournal.obj
 0001:00007640       ??0IEnumConnections@@QEAA@XZ 0000000180008640 f i ElectronicJournal.obj
 0001:00007680       ??0IRegistrarBase@@QEAA@XZ 0000000180008680 f i ElectronicJournal.obj
 0001:000076c0       ??0IUnknown@@QEAA@XZ       00000001800086c0 f i ElectronicJournal.obj
 0001:000076d0       ??0ModuleLockHelper@ATL@@QEAA@XZ 00000001800086d0 f i ElectronicJournal.obj
 0001:00007710       ??0OposVariant@@QEAA@XZ    0000000180008710 f i ElectronicJournal.obj
 0001:00007730       ??0Wrapper@?$CSimpleArray@GV?$CSimpleArrayEqualHelper@G@ATL@@@ATL@@QEAA@AEBG@Z 0000000180008730 f i ElectronicJournal.obj
 0001:00007760       ??0_ATL_MODULE70@ATL@@QEAA@XZ 0000000180008760 f i ElectronicJournal.obj
 0001:000077a0       ??0_ATL_MSG@ATL@@QEAA@PEAUHWND__@@I_K_JH@Z 00000001800087a0 f i ElectronicJournal.obj
 0001:00007830       ??0_U_MENUorID@ATL@@QEAA@I@Z 0000000180008830 f i ElectronicJournal.obj
 0001:00007850       ??0_U_RECT@ATL@@QEAA@AEAUtagRECT@@@Z 0000000180008850 f i ElectronicJournal.obj
 0001:00007870       ??0stringdispid@CComTypeInfoHolder@ATL@@QEAA@XZ 0000000180008870 f i ElectronicJournal.obj
 0001:000078c0       ??1?$CAtlModuleT@VCComModule@ATL@@@ATL@@UEAA@XZ 00000001800088c0 f i ElectronicJournal.obj
 0001:000078f0       ??1?$CAtlSafeAllocBufferManager@VCCRTAllocator@ATL@@@_ATL_SAFE_ALLOCA_IMPL@ATL@@QEAA@XZ 00000001800088f0 f i ElectronicJournal.obj
 0001:00007950       ??1?$CAutoVectorPtr@_W@ATL@@QEAA@XZ 0000000180008950 f i ElectronicJournal.obj
 0001:00007980       ??1?$CComAggObject@VCOPOSElectronicJournal@@@ATL@@UEAA@XZ 0000000180008980 f i ElectronicJournal.obj
 0001:00007a00       ??1?$CComContainedObject@VCOPOSElectronicJournal@@@ATL@@UEAA@XZ 0000000180008a00 f i ElectronicJournal.obj
 0001:00007a30       ??1?$CComCritSecLock@VCComCriticalSection@ATL@@@ATL@@QEAA@XZ 0000000180008a30 f i ElectronicJournal.obj
 0001:00007a70       ??1?$CComEnum@UIEnumConnectionPoints@@$1?_GUID_b196b285_bab4_101a_b69c_00aa00341d07@@3U__s_GUID@@BPEAUIConnectionPoint@@V?$_CopyInterface@UIConnectionPoint@@@ATL@@VCComSingleThreadModel@6@@ATL@@UEAA@XZ 0000000180008a70 f i ElectronicJournal.obj
 0001:00007ab0       ??1?$CComEnum@UIEnumConnections@@$1?_GUID_b196b287_bab4_101a_b69c_00aa00341d07@@3U__s_GUID@@BUtagCONNECTDATA@@V?$_Copy@UtagCONNECTDATA@@@ATL@@VCComSingleThreadModel@6@@ATL@@UEAA@XZ 0000000180008ab0 f i ElectronicJournal.obj
 0001:00007af0       ??1?$CComEnumImpl@UIEnumConnectionPoints@@$1?_GUID_b196b285_bab4_101a_b69c_00aa00341d07@@3U__s_GUID@@BPEAUIConnectionPoint@@V?$_CopyInterface@UIConnectionPoint@@@ATL@@@ATL@@UEAA@XZ 0000000180008af0 f i ElectronicJournal.obj
 0001:00007b90       ??1?$CComEnumImpl@UIEnumConnections@@$1?_GUID_b196b287_bab4_101a_b69c_00aa00341d07@@3U__s_GUID@@BUtagCONNECTDATA@@V?$_Copy@UtagCONNECTDATA@@@ATL@@@ATL@@UEAA@XZ 0000000180008b90 f i ElectronicJournal.obj
 0001:00007c30       ??1?$CComObject@V?$CComEnum@UIEnumConnectionPoints@@$1?_GUID_b196b285_bab4_101a_b69c_00aa00341d07@@3U__s_GUID@@BPEAUIConnectionPoint@@V?$_CopyInterface@UIConnectionPoint@@@ATL@@VCComSingleThreadModel@6@@ATL@@@ATL@@UEAA@XZ 0000000180008c30 f i ElectronicJournal.obj
 0001:00007ca0       ??1?$CComObject@V?$CComEnum@UIEnumConnections@@$1?_GUID_b196b287_bab4_101a_b69c_00aa00341d07@@3U__s_GUID@@BUtagCONNECTDATA@@V?$_Copy@UtagCONNECTDATA@@@ATL@@VCComSingleThreadModel@6@@ATL@@@ATL@@UEAA@XZ 0000000180008ca0 f i ElectronicJournal.obj
 0001:00007d10       ??1?$CComObject@VCOPOSElectronicJournal@@@ATL@@UEAA@XZ 0000000180008d10 f i ElectronicJournal.obj
 0001:00007ec0       ??1?$CComObjectCached@VCComClassFactory@ATL@@@ATL@@UEAA@XZ 0000000180008ec0 f i ElectronicJournal.obj
 0001:00007f20       ??1?$CComObjectRootEx@VCComMultiThreadModel@ATL@@@ATL@@QEAA@XZ 0000000180008f20 f i ElectronicJournal.obj
 0001:00007f60       ??1?$CComObjectRootEx@VCComSingleThreadModel@ATL@@@ATL@@QEAA@XZ 0000000180008f60 f i ElectronicJournal.obj
 0001:00007f90       ??1?$CComPtr@UIAdviseSink@@@ATL@@QEAA@XZ 0000000180008f90 f i ElectronicJournal.obj
 0001:00007fc0       ??1?$CComPtr@UICatRegister@@@ATL@@QEAA@XZ 0000000180008fc0 f i ElectronicJournal.obj
 0001:00007ff0       ??1?$CComPtr@UIConnectionPoint@@@ATL@@QEAA@XZ 0000000180008ff0 f i ElectronicJournal.obj
 0001:00008020       ??1?$CComPtr@UIConnectionPointContainer@@@ATL@@QEAA@XZ 0000000180009020 f i ElectronicJournal.obj
 0001:00008050       ??1?$CComPtr@UIDataObject@@@ATL@@QEAA@XZ 0000000180009050 f i ElectronicJournal.obj
 0001:00008080       ??1?$CComPtr@UIDispatch@@@ATL@@QEAA@XZ 0000000180009080 f i ElectronicJournal.obj
 0001:000080b0       ??1?$CComPtr@UIOleClientSite@@@ATL@@QEAA@XZ 00000001800090b0 f i ElectronicJournal.obj
 0001:000080e0       ??1?$CComPtr@UIOleControlSite@@@ATL@@QEAA@XZ 00000001800090e0 f i ElectronicJournal.obj
 0001:00008110       ??1?$CComPtr@UIOleInPlaceActiveObject@@@ATL@@QEAA@XZ 0000000180009110 f i ElectronicJournal.obj
 0001:00008140       ??1?$CComPtr@UIOleInPlaceFrame@@@ATL@@QEAA@XZ 0000000180009140 f i ElectronicJournal.obj
 0001:00008170       ??1?$CComPtr@UIOleInPlaceObject@@@ATL@@QEAA@XZ 0000000180009170 f i ElectronicJournal.obj
 0001:000081a0       ??1?$CComPtr@UIOleInPlaceUIWindow@@@ATL@@QEAA@XZ 00000001800091a0 f i ElectronicJournal.obj
 0001:000081d0       ??1?$CComPtr@UIOleObject@@@ATL@@QEAA@XZ 00000001800091d0 f i ElectronicJournal.obj
 0001:00008200       ??1?$CComPtr@UIPersistStream@@@ATL@@QEAA@XZ 0000000180009200 f i ElectronicJournal.obj
 0001:00008230       ??1?$CComPtr@UIPersistStreamInit@@@ATL@@QEAA@XZ 0000000180009230 f i ElectronicJournal.obj
 0001:00008260       ??1?$CComPtr@UIPointerInactive@@@ATL@@QEAA@XZ 0000000180009260 f i ElectronicJournal.obj
 0001:00008290       ??1?$CComPtr@UIProvideClassInfo2@@@ATL@@QEAA@XZ 0000000180009290 f i ElectronicJournal.obj
 0001:000082c0       ??1?$CComPtr@UISpecifyPropertyPages@@@ATL@@QEAA@XZ 00000001800092c0 f i ElectronicJournal.obj
 0001:000082f0       ??1?$CComPtr@UIStream@@@ATL@@QEAA@XZ 00000001800092f0 f i ElectronicJournal.obj
 0001:00008320       ??1?$CComPtr@UITypeInfo2@@@ATL@@QEAA@XZ 0000000180009320 f i ElectronicJournal.obj
 0001:00008350       ??1?$CComPtr@UITypeInfo@@@ATL@@QEAA@XZ 0000000180009350 f i ElectronicJournal.obj
 0001:00008380       ??1?$CComPtr@UITypeLib@@@ATL@@QEAA@XZ 0000000180009380 f i ElectronicJournal.obj
 0001:000083b0       ??1?$CComPtr@UIUnknown@@@ATL@@QEAA@XZ 00000001800093b0 f i ElectronicJournal.obj
 0001:000083e0       ??1?$CComPtr@UIViewObjectEx@@@ATL@@QEAA@XZ 00000001800093e0 f i ElectronicJournal.obj
 0001:00008410       ??1?$CComPtrBase@UIAdviseSink@@@ATL@@QEAA@XZ 0000000180009410 f i ElectronicJournal.obj
 0001:00008460       ??1?$CComPtrBase@UICatRegister@@@ATL@@QEAA@XZ 0000000180009460 f i ElectronicJournal.obj
 0001:000084b0       ??1?$CComPtrBase@UIConnectionPoint@@@ATL@@QEAA@XZ 00000001800094b0 f i ElectronicJournal.obj
 0001:00008500       ??1?$CComPtrBase@UIConnectionPointContainer@@@ATL@@QEAA@XZ 0000000180009500 f i ElectronicJournal.obj
 0001:00008550       ??1?$CComPtrBase@UIDataObject@@@ATL@@QEAA@XZ 0000000180009550 f i ElectronicJournal.obj
 0001:000085a0       ??1?$CComPtrBase@UIDispatch@@@ATL@@QEAA@XZ 00000001800095a0 f i ElectronicJournal.obj
 0001:000085f0       ??1?$CComPtrBase@UIOleClientSite@@@ATL@@QEAA@XZ 00000001800095f0 f i ElectronicJournal.obj
 0001:00008640       ??1?$CComPtrBase@UIOleControlSite@@@ATL@@QEAA@XZ 0000000180009640 f i ElectronicJournal.obj
 0001:00008690       ??1?$CComPtrBase@UIOleInPlaceActiveObject@@@ATL@@QEAA@XZ 0000000180009690 f i ElectronicJournal.obj
 0001:000086e0       ??1?$CComPtrBase@UIOleInPlaceFrame@@@ATL@@QEAA@XZ 00000001800096e0 f i ElectronicJournal.obj
 0001:00008730       ??1?$CComPtrBase@UIOleInPlaceObject@@@ATL@@QEAA@XZ 0000000180009730 f i ElectronicJournal.obj
 0001:00008780       ??1?$CComPtrBase@UIOleInPlaceUIWindow@@@ATL@@QEAA@XZ 0000000180009780 f i ElectronicJournal.obj
 0001:000087d0       ??1?$CComPtrBase@UIOleObject@@@ATL@@QEAA@XZ 00000001800097d0 f i ElectronicJournal.obj
 0001:00008820       ??1?$CComPtrBase@UIPersistStream@@@ATL@@QEAA@XZ 0000000180009820 f i ElectronicJournal.obj
 0001:00008870       ??1?$CComPtrBase@UIPersistStreamInit@@@ATL@@QEAA@XZ 0000000180009870 f i ElectronicJournal.obj
 0001:000088c0       ??1?$CComPtrBase@UIPointerInactive@@@ATL@@QEAA@XZ 00000001800098c0 f i ElectronicJournal.obj
 0001:00008910       ??1?$CComPtrBase@UIProvideClassInfo2@@@ATL@@QEAA@XZ 0000000180009910 f i ElectronicJournal.obj
 0001:00008960       ??1?$CComPtrBase@UISpecifyPropertyPages@@@ATL@@QEAA@XZ 0000000180009960 f i ElectronicJournal.obj
 0001:000089b0       ??1?$CComPtrBase@UIStream@@@ATL@@QEAA@XZ 00000001800099b0 f i ElectronicJournal.obj
 0001:00008a00       ??1?$CComPtrBase@UITypeInfo2@@@ATL@@QEAA@XZ 0000000180009a00 f i ElectronicJournal.obj
 0001:00008a50       ??1?$CComPtrBase@UITypeInfo@@@ATL@@QEAA@XZ 0000000180009a50 f i ElectronicJournal.obj
 0001:00008aa0       ??1?$CComPtrBase@UITypeLib@@@ATL@@QEAA@XZ 0000000180009aa0 f i ElectronicJournal.obj
 0001:00008af0       ??1?$CComPtrBase@UIUnknown@@@ATL@@QEAA@XZ 0000000180009af0 f i ElectronicJournal.obj
 0001:00008b40       ??1?$CComPtrBase@UIViewObjectEx@@@ATL@@QEAA@XZ 0000000180009b40 f i ElectronicJournal.obj
 0001:00008b90       ??1?$CComQIPtr@UIOleControlSite@@$1?_GUID_b196b289_bab4_101a_b69c_00aa00341d07@@3U__s_GUID@@B@ATL@@QEAA@XZ 0000000180009b90 f i ElectronicJournal.obj
 0001:00008bc0       ??1?$CComQIPtr@UIOleObject@@$1?_GUID_00000112_0000_0000_c000_000000000046@@3U__s_GUID@@B@ATL@@QEAA@XZ 0000000180009bc0 f i ElectronicJournal.obj
 0001:00008bf0       ??1?$CComQIPtr@UISpecifyPropertyPages@@$1?_GUID_b196b28b_bab4_101a_b69c_00aa00341d07@@3U__s_GUID@@B@ATL@@QEAA@XZ 0000000180009bf0 f i ElectronicJournal.obj
 0001:00008c20       ??1?$CSimpleMap@PEA_WPEA_WVCExpansionVectorEqualHelper@ATL@@@ATL@@QEAA@XZ 0000000180009c20 f i ElectronicJournal.obj
 0001:00008c50       ??1?$CTempBuffer@E$0BAA@VCCRTAllocator@ATL@@@ATL@@QEAA@XZ 0000000180009c50 f i ElectronicJournal.obj
 0001:00008ca0       ??1?$CTempBuffer@_W$0BAA@VCCRTAllocator@ATL@@@ATL@@QEAA@XZ 0000000180009ca0 f i ElectronicJournal.obj
 0001:00008cf0       ??1?$CTempBuffer@_W$0EAA@VCCRTAllocator@ATL@@@ATL@@QEAA@XZ 0000000180009cf0 f i ElectronicJournal.obj
 0001:00008d40       ??1CAtlModule@ATL@@UEAA@XZ 0000000180009d40 f i ElectronicJournal.obj
 0001:00008d80       ??1CComAutoDeleteCriticalSection@ATL@@QEAA@XZ 0000000180009d80 f i ElectronicJournal.obj
 0001:00008db0       ??1CComClassFactory@ATL@@UEAA@XZ 0000000180009db0 f i ElectronicJournal.obj
 0001:00008e00       ??1CComModule@ATL@@UEAA@XZ 0000000180009e00 f i ElectronicJournal.obj
 0001:00008e40       ??1CComObjectRootBase@ATL@@QEAA@XZ 0000000180009e40 f i ElectronicJournal.obj
 0001:00008e50       ??1CComSafeDeleteCriticalSection@ATL@@QEAA@XZ 0000000180009e50 f i ElectronicJournal.obj
 0001:00008ea0       ??1CComVariant@ATL@@QEAA@XZ 0000000180009ea0 f i ElectronicJournal.obj
 0001:00008f20       ??1CExpansionVector@ATL@@QEAA@XZ 0000000180009f20 f i ElectronicJournal.obj
 0001:00008f60       ??1CParseBuffer@CRegParser@ATL@@QEAA@XZ 0000000180009f60 f i ElectronicJournal.obj
 0001:00008fa0       ??1CRegKey@ATL@@QEAA@XZ    0000000180009fa0 f i ElectronicJournal.obj
 0001:00008fd0       ??1CRegObject@ATL@@UEAA@XZ 0000000180009fd0 f i ElectronicJournal.obj
 0001:00009020       ??1ModuleLockHelper@ATL@@QEAA@XZ 000000018000a020 f i ElectronicJournal.obj
 0001:00009060       ??1OposVariant@@QEAA@XZ    000000018000a060 f i ElectronicJournal.obj
 0001:000090a0       ??1_ATL_MODULE70@ATL@@QEAA@XZ 000000018000a0a0 f i ElectronicJournal.obj
 0001:000090e0       ??4?$CComPtr@UIAdviseSink@@@ATL@@QEAAPEAUIAdviseSink@@PEAU2@@Z 000000018000a0e0 f i ElectronicJournal.obj
 0001:00009150       ??4?$CComPtr@UIOleClientSite@@@ATL@@QEAAPEAUIOleClientSite@@PEAU2@@Z 000000018000a150 f i ElectronicJournal.obj
 0001:000091c0       ??4?$CComPtr@UIUnknown@@@ATL@@QEAAPEAUIUnknown@@PEAU2@@Z 000000018000a1c0 f i ElectronicJournal.obj
 0001:00009230       ??4?$CComQIPtr@UIOleObject@@$1?_GUID_00000112_0000_0000_c000_000000000046@@3U__s_GUID@@B@ATL@@QEAAPEAUIOleObject@@PEAUIUnknown@@@Z 000000018000a230 f i ElectronicJournal.obj
 0001:00009290       ??4?$CComQIPtr@UISpecifyPropertyPages@@$1?_GUID_b196b28b_bab4_101a_b69c_00aa00341d07@@3U__s_GUID@@B@ATL@@QEAAPEAUISpecifyPropertyPages@@PEAUIUnknown@@@Z 000000018000a290 f i ElectronicJournal.obj
 0001:000092f0       ??7?$CComPtrBase@UIOleClientSite@@@ATL@@QEBA_NXZ 000000018000a2f0 f i ElectronicJournal.obj
 0001:00009340       ??7?$CComPtrBase@UIOleInPlaceSiteWindowless@@@ATL@@QEBA_NXZ 000000018000a340 f i ElectronicJournal.obj
 0001:00009390       ??7CComBSTR@ATL@@QEBA_NXZ  000000018000a390 f i ElectronicJournal.obj
 0001:000093e0       ??8?$CComPtrBase@UIAdviseSink@@@ATL@@QEBA_NPEAUIAdviseSink@@@Z 000000018000a3e0 f i ElectronicJournal.obj
 0001:00009430       ??8?$CComPtrBase@UIConnectionPointContainer@@@ATL@@QEBA_NPEAUIConnectionPointContainer@@@Z 000000018000a430 f i ElectronicJournal.obj
 0001:00009480       ??8?$CComPtrBase@UIDataAdviseHolder@@@ATL@@QEBA_NPEAUIDataAdviseHolder@@@Z 000000018000a480 f i ElectronicJournal.obj
 0001:000094d0       ??8?$CComPtrBase@UIOleAdviseHolder@@@ATL@@QEBA_NPEAUIOleAdviseHolder@@@Z 000000018000a4d0 f i ElectronicJournal.obj
 0001:00009520       ??8?$CComPtrBase@UIOleClientSite@@@ATL@@QEBA_NPEAUIOleClientSite@@@Z 000000018000a520 f i ElectronicJournal.obj
 0001:00009570       ??8?$CComPtrBase@UIOleControlSite@@@ATL@@QEBA_NPEAUIOleControlSite@@@Z 000000018000a570 f i ElectronicJournal.obj
 0001:000095c0       ??8?$CComPtrBase@UIOleInPlaceObject@@@ATL@@QEBA_NPEAUIOleInPlaceObject@@@Z 000000018000a5c0 f i ElectronicJournal.obj
 0001:00009610       ??8?$CComPtrBase@UIOleInPlaceSiteWindowless@@@ATL@@QEBA_NPEAUIOleInPlaceSiteWindowless@@@Z 000000018000a610 f i ElectronicJournal.obj
 0001:00009660       ??8?$CComPtrBase@UIOleObject@@@ATL@@QEBA_NPEAUIOleObject@@@Z 000000018000a660 f i ElectronicJournal.obj
 0001:000096b0       ??8?$CComPtrBase@UIPersistStream@@@ATL@@QEBA_NPEAUIPersistStream@@@Z 000000018000a6b0 f i ElectronicJournal.obj
 0001:00009700       ??8?$CComPtrBase@UIPersistStreamInit@@@ATL@@QEBA_NPEAUIPersistStreamInit@@@Z 000000018000a700 f i ElectronicJournal.obj
 0001:00009750       ??8?$CComPtrBase@UIPointerInactive@@@ATL@@QEBA_NPEAUIPointerInactive@@@Z 000000018000a750 f i ElectronicJournal.obj
 0001:000097a0       ??8?$CComPtrBase@UIUnknown@@@ATL@@QEBA_NPEAUIUnknown@@@Z 000000018000a7a0 f i ElectronicJournal.obj
 0001:000097f0       ??8?$CComPtrBase@UIViewObjectEx@@@ATL@@QEBA_NPEAUIViewObjectEx@@@Z 000000018000a7f0 f i ElectronicJournal.obj
 0001:00009840       ??8CComBSTR@ATL@@QEBA_NH@Z 000000018000a840 f i ElectronicJournal.obj
 0001:000098c0       ??9?$CComPtrBase@UIAdviseSink@@@ATL@@QEBA_NPEAUIAdviseSink@@@Z 000000018000a8c0 f i ElectronicJournal.obj
 0001:00009920       ??9?$CComPtrBase@UIConnectionPointContainer@@@ATL@@QEBA_NPEAUIConnectionPointContainer@@@Z 000000018000a920 f i ElectronicJournal.obj
 0001:00009980       ??9?$CComPtrBase@UIDataAdviseHolder@@@ATL@@QEBA_NPEAUIDataAdviseHolder@@@Z 000000018000a980 f i ElectronicJournal.obj
 0001:000099e0       ??9?$CComPtrBase@UIOleAdviseHolder@@@ATL@@QEBA_NPEAUIOleAdviseHolder@@@Z 000000018000a9e0 f i ElectronicJournal.obj
 0001:00009a40       ??9?$CComPtrBase@UIOleClientSite@@@ATL@@QEBA_NPEAUIOleClientSite@@@Z 000000018000aa40 f i ElectronicJournal.obj
 0001:00009aa0       ??9?$CComPtrBase@UIOleControlSite@@@ATL@@QEBA_NPEAUIOleControlSite@@@Z 000000018000aaa0 f i ElectronicJournal.obj
 0001:00009b00       ??9?$CComPtrBase@UIOleInPlaceObject@@@ATL@@QEBA_NPEAUIOleInPlaceObject@@@Z 000000018000ab00 f i ElectronicJournal.obj
 0001:00009b60       ??9?$CComPtrBase@UIOleInPlaceSiteWindowless@@@ATL@@QEBA_NPEAUIOleInPlaceSiteWindowless@@@Z 000000018000ab60 f i ElectronicJournal.obj
 0001:00009bc0       ??9?$CComPtrBase@UIOleObject@@@ATL@@QEBA_NPEAUIOleObject@@@Z 000000018000abc0 f i ElectronicJournal.obj
 0001:00009c20       ??9?$CComPtrBase@UIPersistStream@@@ATL@@QEBA_NPEAUIPersistStream@@@Z 000000018000ac20 f i ElectronicJournal.obj
 0001:00009c80       ??9?$CComPtrBase@UIPersistStreamInit@@@ATL@@QEBA_NPEAUIPersistStreamInit@@@Z 000000018000ac80 f i ElectronicJournal.obj
 0001:00009ce0       ??9?$CComPtrBase@UIPointerInactive@@@ATL@@QEBA_NPEAUIPointerInactive@@@Z 000000018000ace0 f i ElectronicJournal.obj
 0001:00009d40       ??9?$CComPtrBase@UIUnknown@@@ATL@@QEBA_NPEAUIUnknown@@@Z 000000018000ad40 f i ElectronicJournal.obj
 0001:00009da0       ??9?$CComPtrBase@UIViewObjectEx@@@ATL@@QEBA_NPEAUIViewObjectEx@@@Z 000000018000ada0 f i ElectronicJournal.obj
 0001:00009e00       ??9CComBSTR@ATL@@QEBA_NH@Z 000000018000ae00 f i ElectronicJournal.obj
 0001:00009e60       ??B?$CComPtrBase@UIAdviseSink@@@ATL@@QEBAPEAUIAdviseSink@@XZ 000000018000ae60 f i ElectronicJournal.obj
 0001:00009e70       ??B?$CComPtrBase@UIDataAdviseHolder@@@ATL@@QEBAPEAUIDataAdviseHolder@@XZ 000000018000ae70 f i ElectronicJournal.obj
 0001:00009e80       ??B?$CComPtrBase@UIDataObject@@@ATL@@QEBAPEAUIDataObject@@XZ 000000018000ae80 f i ElectronicJournal.obj
 0001:00009e90       ??B?$CComPtrBase@UIOleAdviseHolder@@@ATL@@QEBAPEAUIOleAdviseHolder@@XZ 000000018000ae90 f i ElectronicJournal.obj
 0001:00009ea0       ??B?$CComPtrBase@UIOleClientSite@@@ATL@@QEBAPEAUIOleClientSite@@XZ 000000018000aea0 f i ElectronicJournal.obj
 0001:00009eb0       ??B?$CComPtrBase@UIOleControlSite@@@ATL@@QEBAPEAUIOleControlSite@@XZ 000000018000aeb0 f i ElectronicJournal.obj
 0001:00009ec0       ??B?$CComPtrBase@UIOleInPlaceActiveObject@@@ATL@@QEBAPEAUIOleInPlaceActiveObject@@XZ 000000018000aec0 f i ElectronicJournal.obj
 0001:00009ed0       ??B?$CComPtrBase@UIOleInPlaceFrame@@@ATL@@QEBAPEAUIOleInPlaceFrame@@XZ 000000018000aed0 f i ElectronicJournal.obj
 0001:00009ee0       ??B?$CComPtrBase@UIOleInPlaceSiteWindowless@@@ATL@@QEBAPEAUIOleInPlaceSiteWindowless@@XZ 000000018000aee0 f i ElectronicJournal.obj
 0001:00009ef0       ??B?$CComPtrBase@UIOleInPlaceUIWindow@@@ATL@@QEBAPEAUIOleInPlaceUIWindow@@XZ 000000018000aef0 f i ElectronicJournal.obj
 0001:00009f00       ??B?$CComPtrBase@UIOleObject@@@ATL@@QEBAPEAUIOleObject@@XZ 000000018000af00 f i ElectronicJournal.obj
 0001:00009f10       ??B?$CComPtrBase@UIPersistStream@@@ATL@@QEBAPEAUIPersistStream@@XZ 000000018000af10 f i ElectronicJournal.obj
 0001:00009f20       ??B?$CComPtrBase@UIProvideClassInfo2@@@ATL@@QEBAPEAUIProvideClassInfo2@@XZ 000000018000af20 f i ElectronicJournal.obj
 0001:00009f30       ??B?$CComPtrBase@UISpecifyPropertyPages@@@ATL@@QEBAPEAUISpecifyPropertyPages@@XZ 000000018000af30 f i ElectronicJournal.obj
 0001:00009f40       ??B?$CComPtrBase@UIStream@@@ATL@@QEBAPEAUIStream@@XZ 000000018000af40 f i ElectronicJournal.obj
 0001:00009f50       ??B?$CComPtrBase@UITypeInfo2@@@ATL@@QEBAPEAUITypeInfo2@@XZ 000000018000af50 f i ElectronicJournal.obj
 0001:00009f60       ??B?$CComPtrBase@UITypeInfo@@@ATL@@QEBAPEAUITypeInfo@@XZ 000000018000af60 f i ElectronicJournal.obj
 0001:00009f70       ??B?$CComPtrBase@UITypeLib@@@ATL@@QEBAPEAUITypeLib@@XZ 000000018000af70 f i ElectronicJournal.obj
 0001:00009f80       ??B?$CComPtrBase@UIUnknown@@@ATL@@QEBAPEAUIUnknown@@XZ 000000018000af80 f i ElectronicJournal.obj
 0001:00009f90       ??B?$CTempBuffer@E$0BAA@VCCRTAllocator@ATL@@@ATL@@QEBAPEAEXZ 000000018000af90 f i ElectronicJournal.obj
 0001:00009fa0       ??B?$CTempBuffer@_W$0BAA@VCCRTAllocator@ATL@@@ATL@@QEBAPEA_WXZ 000000018000afa0 f i ElectronicJournal.obj
 0001:00009fb0       ??B?$CTempBuffer@_W$0EAA@VCCRTAllocator@ATL@@@ATL@@QEBAPEA_WXZ 000000018000afb0 f i ElectronicJournal.obj
 0001:00009fc0       ??B?$CTraceCategoryEx@$00$0A@@ATL@@QEAAIXZ 000000018000afc0 f i ElectronicJournal.obj
 0001:00009fd0       ??B?$CTraceCategoryEx@$07$0A@@ATL@@QEAAIXZ 000000018000afd0 f i ElectronicJournal.obj
 0001:00009fe0       ??B?$CTraceCategoryEx@$0CAAA@$0A@@ATL@@QEAAIXZ 000000018000afe0 f i ElectronicJournal.obj
 0001:00009ff0       ??B?$CTraceCategoryEx@$0EA@$0A@@ATL@@QEAAIXZ 000000018000aff0 f i ElectronicJournal.obj
 0001:0000a000       ??B?$CTraceCategoryEx@$0IAA@$0A@@ATL@@QEAAIXZ 000000018000b000 f i ElectronicJournal.obj
 0001:0000a010       ??BCComBSTR@ATL@@QEBAPEA_WXZ 000000018000b010 f i ElectronicJournal.obj
 0001:0000a020       ??BCRegKey@ATL@@QEBAPEAUHKEY__@@XZ 000000018000b020 f i ElectronicJournal.obj
 0001:0000a030       ??C?$CComPtrBase@UIAdviseSink@@@ATL@@QEBAPEAV?$_NoAddRefReleaseOnCComPtr@UIAdviseSink@@@1@XZ 000000018000b030 f i ElectronicJournal.obj
 0001:0000a0b0       ??C?$CComPtrBase@UICatRegister@@@ATL@@QEBAPEAV?$_NoAddRefReleaseOnCComPtr@UICatRegister@@@1@XZ 000000018000b0b0 f i ElectronicJournal.obj
 0001:0000a130       ??C?$CComPtrBase@UIConnectionPoint@@@ATL@@QEBAPEAV?$_NoAddRefReleaseOnCComPtr@UIConnectionPoint@@@1@XZ 000000018000b130 f i ElectronicJournal.obj
 0001:0000a1b0       ??C?$CComPtrBase@UIConnectionPointContainer@@@ATL@@QEBAPEAV?$_NoAddRefReleaseOnCComPtr@UIConnectionPointContainer@@@1@XZ 000000018000b1b0 f i ElectronicJournal.obj
 0001:0000a230       ??C?$CComPtrBase@UIDataAdviseHolder@@@ATL@@QEBAPEAV?$_NoAddRefReleaseOnCComPtr@UIDataAdviseHolder@@@1@XZ 000000018000b230 f i ElectronicJournal.obj
 0001:0000a2b0       ??C?$CComPtrBase@UIOleAdviseHolder@@@ATL@@QEBAPEAV?$_NoAddRefReleaseOnCComPtr@UIOleAdviseHolder@@@1@XZ 000000018000b2b0 f i ElectronicJournal.obj
 0001:0000a330       ??C?$CComPtrBase@UIOleClientSite@@@ATL@@QEBAPEAV?$_NoAddRefReleaseOnCComPtr@UIOleClientSite@@@1@XZ 000000018000b330 f i ElectronicJournal.obj
 0001:0000a3b0       ??C?$CComPtrBase@UIOleControlSite@@@ATL@@QEBAPEAV?$_NoAddRefReleaseOnCComPtr@UIOleControlSite@@@1@XZ 000000018000b3b0 f i ElectronicJournal.obj
 0001:0000a430       ??C?$CComPtrBase@UIOleInPlaceFrame@@@ATL@@QEBAPEAV?$_NoAddRefReleaseOnCComPtr@UIOleInPlaceFrame@@@1@XZ 000000018000b430 f i ElectronicJournal.obj
 0001:0000a4b0       ??C?$CComPtrBase@UIOleInPlaceObject@@@ATL@@QEBAPEAV?$_NoAddRefReleaseOnCComPtr@UIOleInPlaceObject@@@1@XZ 000000018000b4b0 f i ElectronicJournal.obj
 0001:0000a530       ??C?$CComPtrBase@UIOleInPlaceSiteWindowless@@@ATL@@QEBAPEAV?$_NoAddRefReleaseOnCComPtr@UIOleInPlaceSiteWindowless@@@1@XZ 000000018000b530 f i ElectronicJournal.obj
 0001:0000a5b0       ??C?$CComPtrBase@UIOleInPlaceUIWindow@@@ATL@@QEBAPEAV?$_NoAddRefReleaseOnCComPtr@UIOleInPlaceUIWindow@@@1@XZ 000000018000b5b0 f i ElectronicJournal.obj
 0001:0000a630       ??C?$CComPtrBase@UIOleObject@@@ATL@@QEBAPEAV?$_NoAddRefReleaseOnCComPtr@UIOleObject@@@1@XZ 000000018000b630 f i ElectronicJournal.obj
 0001:0000a6b0       ??C?$CComPtrBase@UIPersistStream@@@ATL@@QEBAPEAV?$_NoAddRefReleaseOnCComPtr@UIPersistStream@@@1@XZ 000000018000b6b0 f i ElectronicJournal.obj
 0001:0000a730       ??C?$CComPtrBase@UIPersistStreamInit@@@ATL@@QEBAPEAV?$_NoAddRefReleaseOnCComPtr@UIPersistStreamInit@@@1@XZ 000000018000b730 f i ElectronicJournal.obj
 0001:0000a7b0       ??C?$CComPtrBase@UIPointerInactive@@@ATL@@QEBAPEAV?$_NoAddRefReleaseOnCComPtr@UIPointerInactive@@@1@XZ 000000018000b7b0 f i ElectronicJournal.obj
 0001:0000a830       ??C?$CComPtrBase@UIProvideClassInfo2@@@ATL@@QEBAPEAV?$_NoAddRefReleaseOnCComPtr@UIProvideClassInfo2@@@1@XZ 000000018000b830 f i ElectronicJournal.obj
 0001:0000a8b0       ??C?$CComPtrBase@UISpecifyPropertyPages@@@ATL@@QEBAPEAV?$_NoAddRefReleaseOnCComPtr@UISpecifyPropertyPages@@@1@XZ 000000018000b8b0 f i ElectronicJournal.obj
 0001:0000a930       ??C?$CComPtrBase@UITypeInfo@@@ATL@@QEBAPEAV?$_NoAddRefReleaseOnCComPtr@UITypeInfo@@@1@XZ 000000018000b930 f i ElectronicJournal.obj
 0001:0000a9b0       ??C?$CComPtrBase@UITypeLib@@@ATL@@QEBAPEAV?$_NoAddRefReleaseOnCComPtr@UITypeLib@@@1@XZ 000000018000b9b0 f i ElectronicJournal.obj
 0001:0000aa30       ??C?$CComPtrBase@UIUnknown@@@ATL@@QEBAPEAV?$_NoAddRefReleaseOnCComPtr@UIUnknown@@@1@XZ 000000018000ba30 f i ElectronicJournal.obj
 0001:0000aab0       ??C?$CComPtrBase@UIViewObjectEx@@@ATL@@QEBAPEAV?$_NoAddRefReleaseOnCComPtr@UIViewObjectEx@@@1@XZ 000000018000bab0 f i ElectronicJournal.obj
 0001:0000ab30       ??I?$CComPtrBase@UICatRegister@@@ATL@@QEAAPEAPEAUICatRegister@@XZ 000000018000bb30 f i ElectronicJournal.obj
 0001:0000aba0       ??I?$CComPtrBase@UIConnectionPoint@@@ATL@@QEAAPEAPEAUIConnectionPoint@@XZ 000000018000bba0 f i ElectronicJournal.obj
 0001:0000ac10       ??I?$CComPtrBase@UIConnectionPointContainer@@@ATL@@QEAAPEAPEAUIConnectionPointContainer@@XZ 000000018000bc10 f i ElectronicJournal.obj
 0001:0000ac80       ??I?$CComPtrBase@UIDataAdviseHolder@@@ATL@@QEAAPEAPEAUIDataAdviseHolder@@XZ 000000018000bc80 f i ElectronicJournal.obj
 0001:0000acf0       ??I?$CComPtrBase@UIDataObject@@@ATL@@QEAAPEAPEAUIDataObject@@XZ 000000018000bcf0 f i ElectronicJournal.obj
 0001:0000ad60       ??I?$CComPtrBase@UIDispatch@@@ATL@@QEAAPEAPEAUIDispatch@@XZ 000000018000bd60 f i ElectronicJournal.obj
 0001:0000add0       ??I?$CComPtrBase@UIOleAdviseHolder@@@ATL@@QEAAPEAPEAUIOleAdviseHolder@@XZ 000000018000bdd0 f i ElectronicJournal.obj
 0001:0000ae40       ??I?$CComPtrBase@UIOleControlSite@@@ATL@@QEAAPEAPEAUIOleControlSite@@XZ 000000018000be40 f i ElectronicJournal.obj
 0001:0000aeb0       ??I?$CComPtrBase@UIOleInPlaceActiveObject@@@ATL@@QEAAPEAPEAUIOleInPlaceActiveObject@@XZ 000000018000beb0 f i ElectronicJournal.obj
 0001:0000af20       ??I?$CComPtrBase@UIOleInPlaceFrame@@@ATL@@QEAAPEAPEAUIOleInPlaceFrame@@XZ 000000018000bf20 f i ElectronicJournal.obj
 0001:0000af90       ??I?$CComPtrBase@UIOleInPlaceObject@@@ATL@@QEAAPEAPEAUIOleInPlaceObject@@XZ 000000018000bf90 f i ElectronicJournal.obj
 0001:0000b000       ??I?$CComPtrBase@UIOleInPlaceSiteWindowless@@@ATL@@QEAAPEAPEAUIOleInPlaceSiteWindowless@@XZ 000000018000c000 f i ElectronicJournal.obj
 0001:0000b070       ??I?$CComPtrBase@UIOleInPlaceUIWindow@@@ATL@@QEAAPEAPEAUIOleInPlaceUIWindow@@XZ 000000018000c070 f i ElectronicJournal.obj
 0001:0000b0e0       ??I?$CComPtrBase@UIOleObject@@@ATL@@QEAAPEAPEAUIOleObject@@XZ 000000018000c0e0 f i ElectronicJournal.obj
 0001:0000b150       ??I?$CComPtrBase@UIPersistStream@@@ATL@@QEAAPEAPEAUIPersistStream@@XZ 000000018000c150 f i ElectronicJournal.obj
 0001:0000b1c0       ??I?$CComPtrBase@UIPointerInactive@@@ATL@@QEAAPEAPEAUIPointerInactive@@XZ 000000018000c1c0 f i ElectronicJournal.obj
 0001:0000b230       ??I?$CComPtrBase@UIProvideClassInfo2@@@ATL@@QEAAPEAPEAUIProvideClassInfo2@@XZ 000000018000c230 f i ElectronicJournal.obj
 0001:0000b2a0       ??I?$CComPtrBase@UIStream@@@ATL@@QEAAPEAPEAUIStream@@XZ 000000018000c2a0 f i ElectronicJournal.obj
 0001:0000b310       ??I?$CComPtrBase@UITypeInfo2@@@ATL@@QEAAPEAPEAUITypeInfo2@@XZ 000000018000c310 f i ElectronicJournal.obj
 0001:0000b380       ??I?$CComPtrBase@UITypeInfo@@@ATL@@QEAAPEAPEAUITypeInfo@@XZ 000000018000c380 f i ElectronicJournal.obj
 0001:0000b3f0       ??I?$CComPtrBase@UITypeLib@@@ATL@@QEAAPEAPEAUITypeLib@@XZ 000000018000c3f0 f i ElectronicJournal.obj
 0001:0000b460       ??I?$CComPtrBase@UIUnknown@@@ATL@@QEAAPEAPEAUIUnknown@@XZ 000000018000c460 f i ElectronicJournal.obj
 0001:0000b4d0       ??I?$CComPtrBase@UIViewObjectEx@@@ATL@@QEAAPEAPEAUIViewObjectEx@@XZ 000000018000c4d0 f i ElectronicJournal.obj
 0001:0000b540       ??ICComBSTR@ATL@@QEAAPEAPEA_WXZ 000000018000c540 f i ElectronicJournal.obj
 0001:0000b550       ??_E?$CComContainedObject@VCOPOSElectronicJournal@@@ATL@@W7EAAPEAXI@Z 000000018000c550 f i ElectronicJournal.obj
 0001:0000b55c       ??_E?$CComContainedObject@VCOPOSElectronicJournal@@@ATL@@WHA@EAAPEAXI@Z 000000018000c55c f i ElectronicJournal.obj
 0001:0000b568       ??_E?$CComObject@VCOPOSElectronicJournal@@@ATL@@W7EAAPEAXI@Z 000000018000c568 f i ElectronicJournal.obj
 0001:0000b574       ??_E?$CComObject@VCOPOSElectronicJournal@@@ATL@@WHA@EAAPEAXI@Z 000000018000c574 f i ElectronicJournal.obj
 0001:0000b580       ??_G?$CComAggObject@VCOPOSElectronicJournal@@@ATL@@UEAAPEAXI@Z 000000018000c580 f i ElectronicJournal.obj
 0001:0000b580       ??_E?$CComAggObject@VCOPOSElectronicJournal@@@ATL@@UEAAPEAXI@Z 000000018000c580 f i ElectronicJournal.obj
 0001:0000b5e0       ??_E?$CComContainedObject@VCOPOSElectronicJournal@@@ATL@@UEAAPEAXI@Z 000000018000c5e0 f i ElectronicJournal.obj
 0001:0000b5e0       ??_G?$CComContainedObject@VCOPOSElectronicJournal@@@ATL@@UEAAPEAXI@Z 000000018000c5e0 f i ElectronicJournal.obj
 0001:0000b640       ??_E?$CComObject@V?$CComEnum@UIEnumConnectionPoints@@$1?_GUID_b196b285_bab4_101a_b69c_00aa00341d07@@3U__s_GUID@@BPEAUIConnectionPoint@@V?$_CopyInterface@UIConnectionPoint@@@ATL@@VCComSingleThreadModel@6@@ATL@@@ATL@@UEAAPEAXI@Z 000000018000c640 f i ElectronicJournal.obj
 0001:0000b640       ??_G?$CComObject@V?$CComEnum@UIEnumConnectionPoints@@$1?_GUID_b196b285_bab4_101a_b69c_00aa00341d07@@3U__s_GUID@@BPEAUIConnectionPoint@@V?$_CopyInterface@UIConnectionPoint@@@ATL@@VCComSingleThreadModel@6@@ATL@@@ATL@@UEAAPEAXI@Z 000000018000c640 f i ElectronicJournal.obj
 0001:0000b6a0       ??_E?$CComObject@V?$CComEnum@UIEnumConnections@@$1?_GUID_b196b287_bab4_101a_b69c_00aa00341d07@@3U__s_GUID@@BUtagCONNECTDATA@@V?$_Copy@UtagCONNECTDATA@@@ATL@@VCComSingleThreadModel@6@@ATL@@@ATL@@UEAAPEAXI@Z 000000018000c6a0 f i ElectronicJournal.obj
 0001:0000b6a0       ??_G?$CComObject@V?$CComEnum@UIEnumConnections@@$1?_GUID_b196b287_bab4_101a_b69c_00aa00341d07@@3U__s_GUID@@BUtagCONNECTDATA@@V?$_Copy@UtagCONNECTDATA@@@ATL@@VCComSingleThreadModel@6@@ATL@@@ATL@@UEAAPEAXI@Z 000000018000c6a0 f i ElectronicJournal.obj
 0001:0000b700       ??_E?$CComObject@VCOPOSElectronicJournal@@@ATL@@UEAAPEAXI@Z 000000018000c700 f i ElectronicJournal.obj
 0001:0000b700       ??_G?$CComObject@VCOPOSElectronicJournal@@@ATL@@UEAAPEAXI@Z 000000018000c700 f i ElectronicJournal.obj
 0001:0000b760       ??_G?$CComObjectCached@VCComClassFactory@ATL@@@ATL@@UEAAPEAXI@Z 000000018000c760 f i ElectronicJournal.obj
 0001:0000b760       ??_E?$CComObjectCached@VCComClassFactory@ATL@@@ATL@@UEAAPEAXI@Z 000000018000c760 f i ElectronicJournal.obj
 0001:0000b7c0       ??_GCComClassFactory@ATL@@UEAAPEAXI@Z 000000018000c7c0 f i ElectronicJournal.obj
 0001:0000b7c0       ??_ECComClassFactory@ATL@@UEAAPEAXI@Z 000000018000c7c0 f i ElectronicJournal.obj
 0001:0000b820       ??_ECComModule@ATL@@UEAAPEAXI@Z 000000018000c820 f i ElectronicJournal.obj
 0001:0000b820       ??_GCComModule@ATL@@UEAAPEAXI@Z 000000018000c820 f i ElectronicJournal.obj
 0001:0000b880       ??_ECRegObject@ATL@@UEAAPEAXI@Z 000000018000c880 f i ElectronicJournal.obj
 0001:0000b880       ??_GCRegObject@ATL@@UEAAPEAXI@Z 000000018000c880 f i ElectronicJournal.obj
 0001:0000b8e0       ?Add@?$CSimpleArray@GV?$CSimpleArrayEqualHelper@G@ATL@@@ATL@@QEAAHAEBG@Z 000000018000c8e0 f i ElectronicJournal.obj
 0001:0000ba80       ?Add@?$CSimpleMap@PEA_WPEA_WVCExpansionVectorEqualHelper@ATL@@@ATL@@QEAAHAEBQEA_W0@Z 000000018000ca80 f i ElectronicJournal.obj
 0001:0000bb70       ?Add@CComDynamicUnkArray@ATL@@QEAAKPEAUIUnknown@@@Z 000000018000cb70 f i ElectronicJournal.obj
 0001:0000bd50       ?Add@CExpansionVector@ATL@@QEAAHPEB_W0@Z 000000018000cd50 f i ElectronicJournal.obj
 0001:0000c080       ?AddChar@CParseBuffer@CRegParser@ATL@@QEAAHPEB_W@Z 000000018000d080 f i ElectronicJournal.obj
 0001:0000c0d0       ?AddCommonRGSReplacements@?$CAtlModuleT@VCComModule@ATL@@@ATL@@UEAAJPEAUIRegistrarBase@@@Z 000000018000d0d0 f i ElectronicJournal.obj
 0001:0000c130       ?AddCreateWndData@CAtlWinModule@ATL@@QEAAXPEAU_AtlCreateWndData@2@PEAX@Z 000000018000d130 f i ElectronicJournal.obj
 0001:0000c180       ?AddRef@?$CComAggObject@VCOPOSElectronicJournal@@@ATL@@UEAAKXZ 000000018000d180 f i ElectronicJournal.obj
 0001:0000c1c0       ?AddRef@?$CComContainedObject@VCOPOSElectronicJournal@@@ATL@@UEAAKXZ 000000018000d1c0 f i ElectronicJournal.obj
 0001:0000c1f8       ?AddRef@?$CComContainedObject@VCOPOSElectronicJournal@@@ATL@@WBAA@EAAKXZ 000000018000d1f8 f i ElectronicJournal.obj
 0001:0000c204       ?AddRef@?$CComContainedObject@VCOPOSElectronicJournal@@@ATL@@WBAI@EAAKXZ 000000018000d204 f i ElectronicJournal.obj
 0001:0000c210       ?AddRef@?$CComContainedObject@VCOPOSElectronicJournal@@@ATL@@WBBA@EAAKXZ 000000018000d210 f i ElectronicJournal.obj
 0001:0000c21c       ?AddRef@?$CComContainedObject@VCOPOSElectronicJournal@@@ATL@@WBBI@EAAKXZ 000000018000d21c f i ElectronicJournal.obj
 0001:0000c228       ?AddRef@?$CComContainedObject@VCOPOSElectronicJournal@@@ATL@@WBCI@EAAKXZ 000000018000d228 f i ElectronicJournal.obj
 0001:0000c234       ?AddRef@?$CComContainedObject@VCOPOSElectronicJournal@@@ATL@@WBEA@EAAKXZ 000000018000d234 f i ElectronicJournal.obj
 0001:0000c240       ?AddRef@?$CComContainedObject@VCOPOSElectronicJournal@@@ATL@@WLI@EAAKXZ 000000018000d240 f i ElectronicJournal.obj
 0001:0000c24c       ?AddRef@?$CComContainedObject@VCOPOSElectronicJournal@@@ATL@@WMA@EAAKXZ 000000018000d24c f i ElectronicJournal.obj
 0001:0000c258       ?AddRef@?$CComContainedObject@VCOPOSElectronicJournal@@@ATL@@WMI@EAAKXZ 000000018000d258 f i ElectronicJournal.obj
 0001:0000c264       ?AddRef@?$CComContainedObject@VCOPOSElectronicJournal@@@ATL@@WNA@EAAKXZ 000000018000d264 f i ElectronicJournal.obj
 0001:0000c270       ?AddRef@?$CComContainedObject@VCOPOSElectronicJournal@@@ATL@@WNI@EAAKXZ 000000018000d270 f i ElectronicJournal.obj
 0001:0000c27c       ?AddRef@?$CComContainedObject@VCOPOSElectronicJournal@@@ATL@@WOA@EAAKXZ 000000018000d27c f i ElectronicJournal.obj
 0001:0000c288       ?AddRef@?$CComContainedObject@VCOPOSElectronicJournal@@@ATL@@WOI@EAAKXZ 000000018000d288 f i ElectronicJournal.obj
 0001:0000c294       ?AddRef@?$CComContainedObject@VCOPOSElectronicJournal@@@ATL@@WPA@EAAKXZ 000000018000d294 f i ElectronicJournal.obj
 0001:0000c2a0       ?AddRef@?$CComContainedObject@VCOPOSElectronicJournal@@@ATL@@WPI@EAAKXZ 000000018000d2a0 f i ElectronicJournal.obj
 0001:0000c2b0       ?AddRef@?$CComObject@V?$CComEnum@UIEnumConnectionPoints@@$1?_GUID_b196b285_bab4_101a_b69c_00aa00341d07@@3U__s_GUID@@BPEAUIConnectionPoint@@V?$_CopyInterface@UIConnectionPoint@@@ATL@@VCComSingleThreadModel@6@@ATL@@@ATL@@UEAAKXZ 000000018000d2b0 f i ElectronicJournal.obj
 0001:0000c2f0       ?AddRef@?$CComObject@V?$CComEnum@UIEnumConnections@@$1?_GUID_b196b287_bab4_101a_b69c_00aa00341d07@@3U__s_GUID@@BUtagCONNECTDATA@@V?$_Copy@UtagCONNECTDATA@@@ATL@@VCComSingleThreadModel@6@@ATL@@@ATL@@UEAAKXZ 000000018000d2f0 f i ElectronicJournal.obj
 0001:0000c330       ?AddRef@?$CComObject@VCOPOSElectronicJournal@@@ATL@@UEAAKXZ 000000018000d330 f i ElectronicJournal.obj
 0001:0000c368       ?AddRef@?$CComObject@VCOPOSElectronicJournal@@@ATL@@WBAA@EAAKXZ 000000018000d368 f i ElectronicJournal.obj
 0001:0000c374       ?AddRef@?$CComObject@VCOPOSElectronicJournal@@@ATL@@WBAI@EAAKXZ 000000018000d374 f i ElectronicJournal.obj
 0001:0000c380       ?AddRef@?$CComObject@VCOPOSElectronicJournal@@@ATL@@WBBA@EAAKXZ 000000018000d380 f i ElectronicJournal.obj
 0001:0000c38c       ?AddRef@?$CComObject@VCOPOSElectronicJournal@@@ATL@@WBBI@EAAKXZ 000000018000d38c f i ElectronicJournal.obj
 0001:0000c398       ?AddRef@?$CComObject@VCOPOSElectronicJournal@@@ATL@@WBCI@EAAKXZ 000000018000d398 f i ElectronicJournal.obj
 0001:0000c3a4       ?AddRef@?$CComObject@VCOPOSElectronicJournal@@@ATL@@WBEA@EAAKXZ 000000018000d3a4 f i ElectronicJournal.obj
 0001:0000c3b0       ?AddRef@?$CComObject@VCOPOSElectronicJournal@@@ATL@@WLI@EAAKXZ 000000018000d3b0 f i ElectronicJournal.obj
 0001:0000c3bc       ?AddRef@?$CComObject@VCOPOSElectronicJournal@@@ATL@@WMA@EAAKXZ 000000018000d3bc f i ElectronicJournal.obj
 0001:0000c3c8       ?AddRef@?$CComObject@VCOPOSElectronicJournal@@@ATL@@WMI@EAAKXZ 000000018000d3c8 f i ElectronicJournal.obj
 0001:0000c3d4       ?AddRef@?$CComObject@VCOPOSElectronicJournal@@@ATL@@WNA@EAAKXZ 000000018000d3d4 f i ElectronicJournal.obj
 0001:0000c3e0       ?AddRef@?$CComObject@VCOPOSElectronicJournal@@@ATL@@WNI@EAAKXZ 000000018000d3e0 f i ElectronicJournal.obj
 0001:0000c3ec       ?AddRef@?$CComObject@VCOPOSElectronicJournal@@@ATL@@WOA@EAAKXZ 000000018000d3ec f i ElectronicJournal.obj
 0001:0000c3f8       ?AddRef@?$CComObject@VCOPOSElectronicJournal@@@ATL@@WOI@EAAKXZ 000000018000d3f8 f i ElectronicJournal.obj
 0001:0000c404       ?AddRef@?$CComObject@VCOPOSElectronicJournal@@@ATL@@WPA@EAAKXZ 000000018000d404 f i ElectronicJournal.obj
 0001:0000c410       ?AddRef@?$CComObject@VCOPOSElectronicJournal@@@ATL@@WPI@EAAKXZ 000000018000d410 f i ElectronicJournal.obj
 0001:0000c420       ?AddRef@?$CComObjectCached@VCComClassFactory@ATL@@@ATL@@UEAAKXZ 000000018000d420 f i ElectronicJournal.obj
 0001:0000c480       ?AddRef@CRegObject@ATL@@UEAAKXZ 000000018000d480 f i ElectronicJournal.obj
 0001:0000c4f0       ?AddReplacement@CRegObject@ATL@@UEAAJPEB_W0@Z 000000018000d4f0 f i ElectronicJournal.obj
 0001:0000c620       ?AddString@CParseBuffer@CRegParser@ATL@@QEAAHPEB_W@Z 000000018000d620 f i ElectronicJournal.obj
 0001:0000c710       ?AddTermFunc@CAtlModule@ATL@@QEAAJP6AX_K@Z0@Z 000000018000d710 f i ElectronicJournal.obj
 0001:0000c780       ?AddValue@CRegParser@ATL@@IEAAJAEAVCRegKey@2@PEB_WPEA_W@Z 000000018000d780 f i ElectronicJournal.obj
 0001:0000d050       ?Advise@?$CProxy_IOPOSEvents@VCOPOSElectronicJournal@@@@UEAAJPEAUIUnknown@@PEAK@Z 000000018000e050 f i ElectronicJournal.obj
 0001:0000d0c0       ?Advise@?$IConnectionPointImpl@VCOPOSElectronicJournal@@$1?DIID__IOPOSElectronicJournalEvents@@3U_GUID@@BVCComDynamicUnkArray@ATL@@@ATL@@UEAAJPEAUIUnknown@@PEAK@Z 000000018000e0c0 f i ElectronicJournal.obj
 0001:0000d2c0       ?Advise@?$IConnectionPointImpl@VCOPOSElectronicJournal@@$1?IID_IPropertyNotifySink@@3U_GUID@@BVCComDynamicUnkArray@ATL@@@ATL@@UEAAJPEAUIUnknown@@PEAK@Z 000000018000e2c0 f i ElectronicJournal.obj
 0001:0000d4c0       ?Advise@?$IOleObjectImpl@VCOPOSElectronicJournal@@@ATL@@UEAAJPEAUIAdviseSink@@PEAK@Z 000000018000e4c0 f i ElectronicJournal.obj
 0001:0000d580       ?Allocate@?$CAtlSafeAllocBufferManager@VCCRTAllocator@ATL@@@_ATL_SAFE_ALLOCA_IMPL@ATL@@QEAAPEAX_K@Z 000000018000e580 f i ElectronicJournal.obj
 0001:0000d600       ?Allocate@?$CTempBuffer@E$0BAA@VCCRTAllocator@ATL@@@ATL@@QEAAPEAE_K@Z 000000018000e600 f i ElectronicJournal.obj
 0001:0000d650       ?Allocate@?$CTempBuffer@_W$0BAA@VCCRTAllocator@ATL@@@ATL@@QEAAPEA_W_K@Z 000000018000e650 f i ElectronicJournal.obj
 0001:0000d6a0       ?Allocate@?$CTempBuffer@_W$0EAA@VCCRTAllocator@ATL@@@ATL@@QEAAPEA_W_K@Z 000000018000e6a0 f i ElectronicJournal.obj
 0001:0000d6f0       ?AllocateBytes@?$CTempBuffer@E$0BAA@VCCRTAllocator@ATL@@@ATL@@QEAAPEAE_K@Z 000000018000e6f0 f i ElectronicJournal.obj
 0001:0000d7a0       ?AllocateBytes@?$CTempBuffer@_W$0BAA@VCCRTAllocator@ATL@@@ATL@@QEAAPEA_W_K@Z 000000018000e7a0 f i ElectronicJournal.obj
 0001:0000d850       ?AllocateBytes@?$CTempBuffer@_W$0EAA@VCCRTAllocator@ATL@@@ATL@@QEAAPEA_W_K@Z 000000018000e850 f i ElectronicJournal.obj
 0001:0000d900       ?AllocateHeap@?$CTempBuffer@E$0BAA@VCCRTAllocator@ATL@@@ATL@@AEAAX_K@Z 000000018000e900 f i ElectronicJournal.obj
 0001:0000d960       ?AllocateHeap@?$CTempBuffer@_W$0BAA@VCCRTAllocator@ATL@@@ATL@@AEAAX_K@Z 000000018000e960 f i ElectronicJournal.obj
 0001:0000d9c0       ?AllocateHeap@?$CTempBuffer@_W$0EAA@VCCRTAllocator@ATL@@@ATL@@AEAAX_K@Z 000000018000e9c0 f i ElectronicJournal.obj
 0001:0000da20       ?Append@CParseBuffer@CRegParser@ATL@@QEAAHPEB_WH@Z 000000018000ea20 f i ElectronicJournal.obj
 0001:0000dc50       ?AtlCallTermFunc@ATL@@YAXPEAU_ATL_MODULE70@1@@Z 000000018000ec50 f i ElectronicJournal.obj
 0001:0000dd00       ?AtlCoTaskMemCAlloc@ATL@@YAPEAXKK@Z 000000018000ed00 f i ElectronicJournal.obj
 0001:0000dd80       ?AtlCoTaskMemRecalloc@ATL@@YAPEAXPEAXKK@Z 000000018000ed80 f i ElectronicJournal.obj
 0001:0000de00       ?AtlComModuleGetClassObject@ATL@@YAJPEAU_ATL_COM_MODULE70@1@AEBU_GUID@@1PEAPEAX@Z 000000018000ee00 f i ElectronicJournal.obj
 0001:0000e130       ?AtlComModuleRegisterServer@ATL@@YAJPEAU_ATL_COM_MODULE70@1@HPEBU_GUID@@@Z 000000018000f130 f i ElectronicJournal.obj
 0001:0000e330       ?AtlComModuleUnregisterServer@ATL@@YAJPEAU_ATL_COM_MODULE70@1@HPEBU_GUID@@@Z 000000018000f330 f i ElectronicJournal.obj
 0001:0000e490       ?AtlComQIPtrAssign2@ATL@@YAXPEAPEAUIUnknown@@PEAU2@AEBU_GUID@@@Z 000000018000f490 f i ElectronicJournal.obj
 0001:0000e520       ?AtlCreateTargetDC@ATL@@YAPEAUHDC__@@PEAU2@PEAUtagDVTARGETDEVICE@@@Z 000000018000f520 f i ElectronicJournal.obj
 0001:0000e750       ?AtlCrtErrorCheck@ATL@@YAHH@Z 000000018000f750 f i ElectronicJournal.obj
 0001:0000e7d0       ?AtlGetPerUserRegistration@ATL@@YAJPEA_N@Z 000000018000f7d0 f i ElectronicJournal.obj
 0001:0000e800       ?AtlHiMetricToPixel@ATL@@YAXPEBUtagSIZE@@PEAU2@@Z 000000018000f800 f i ElectronicJournal.obj
 0001:0000ea00       ?AtlHresultFromLastError@ATL@@YAJXZ 000000018000fa00 f i ElectronicJournal.obj
 0001:0000ea30       ?AtlHresultFromWin32@ATL@@YAJK@Z 000000018000fa30 f i ElectronicJournal.obj
 0001:0000ea60       ?AtlIPersistStreamInit_Load@ATL@@YAJPEAUIStream@@PEBUATL_PROPMAP_ENTRY@1@PEAXPEAUIUnknown@@@Z 000000018000fa60 f i ElectronicJournal.obj
 0001:0000f0d0       ?AtlIPersistStreamInit_Save@ATL@@YAJPEAUIStream@@HPEBUATL_PROPMAP_ENTRY@1@PEAXPEAUIUnknown@@@Z 00000001800100d0 f i ElectronicJournal.obj
 0001:0000f660       ?AtlInternalOleLoadFromStream@ATL@@YAJPEAUIStream@@AEBU_GUID@@PEAPEAXTClassesAllowedInStream@1@K@Z 0000000180010660 f i ElectronicJournal.obj
 0001:0000f9a0       ?AtlInternalQueryInterface@ATL@@YAJPEAXPEBU_ATL_INTMAP_ENTRY@1@AEBU_GUID@@PEAPEAX@Z 00000001800109a0 f i ElectronicJournal.obj
 0001:0000fc60       ?AtlLoadTypeLib@ATL@@YAJPEAUHINSTANCE__@@PEB_WPEAPEA_WPEAPEAUITypeLib@@@Z 0000000180010c60 f i ElectronicJournal.obj
 0001:00010130       ?AtlModuleAddTermFunc@ATL@@YAJPEAU_ATL_MODULE70@1@P6AX_K@Z1@Z 0000000180011130 f i ElectronicJournal.obj
 0001:00010300       ?AtlRegisterClassCategoriesHelper@ATL@@YAJAEBU_GUID@@PEBU_ATL_CATMAP_ENTRY@1@H@Z 0000000180011300 f i ElectronicJournal.obj
 0001:00010ad0       ?AtlRegisterTypeLib@ATL@@YAJPEAUHINSTANCE__@@PEB_W@Z 0000000180011ad0 f i ElectronicJournal.obj
 0001:00010e30       ?AtlThrowImpl@ATL@@YAXJ@Z  0000000180011e30 f i ElectronicJournal.obj
 0001:00010f10       ?AtlUnRegisterTypeLib@ATL@@YAJPEAUHINSTANCE__@@PEB_W@Z 0000000180011f10 f i ElectronicJournal.obj
 0001:00011140       ?AtlWinModuleAddCreateWndData@ATL@@YAXPEAU_ATL_WIN_MODULE70@1@PEAU_AtlCreateWndData@1@PEAX@Z 0000000180012140 f i ElectronicJournal.obj
 0001:00011330       ?AtlWinModuleExtractCreateWndData@ATL@@YAPEAXPEAU_ATL_WIN_MODULE70@1@@Z 0000000180012330 f i ElectronicJournal.obj
 0001:00011530       ?AtlWinModuleRegisterClassExW@ATL@@YAGPEAU_ATL_WIN_MODULE70@1@PEBUtagWNDCLASSEXW@@@Z 0000000180012530 f i ElectronicJournal.obj
 0001:00011600       ?AtlWinModuleRegisterWndClassInfoW@ATL@@YAGPEAU_ATL_WIN_MODULE70@1@PEAU_ATL_BASE_MODULE70@1@PEAU_ATL_WNDCLASSINFOW@1@PEAP6A_JPEAUHWND__@@I_K_J@Z@Z 0000000180012600 f i ElectronicJournal.obj
 0001:00011670       ?Attach@?$CAutoVectorPtr@_W@ATL@@QEAAXPEA_W@Z 0000000180012670 f i ElectronicJournal.obj
 0001:00011700       ?Attach@CComBSTR@ATL@@QEAAXPEA_W@Z 0000000180012700 f i ElectronicJournal.obj
 0001:00011760       ?Attach@CRegKey@ATL@@QEAAXPEAUHKEY__@@@Z 0000000180012760 f i ElectronicJournal.obj
 0001:00011800       ?CanForceRemoveKey@CRegParser@ATL@@IEAAHPEB_W@Z 0000000180012800 f i ElectronicJournal.obj
 0001:00011870       ?ChToByte@CRegParser@ATL@@KAE_W@Z 0000000180012870 f i ElectronicJournal.obj
 0001:000119d0       ?ChangeType@CComVariant@ATL@@QEAAJGPEBUtagVARIANT@@@Z 00000001800129d0 f i ElectronicJournal.obj
 0001:00011a40       ?Cleanup@CComTypeInfoHolder@ATL@@SAX_K@Z 0000000180012a40 f i ElectronicJournal.obj
 0001:00011b40       ?Clear@CComVariant@ATL@@QEAAJXZ 0000000180012b40 f i ElectronicJournal.obj
 0001:00011b70       ?ClearReplacements@CExpansionVector@ATL@@QEAAJXZ 0000000180012b70 f i ElectronicJournal.obj
 0001:00011c10       ?ClearReplacements@CRegObject@ATL@@UEAAJXZ 0000000180012c10 f i ElectronicJournal.obj
 0001:00011c70       ?Clone@?$CComEnumImpl@UIEnumConnectionPoints@@$1?_GUID_b196b285_bab4_101a_b69c_00aa00341d07@@3U__s_GUID@@BPEAUIConnectionPoint@@V?$_CopyInterface@UIConnectionPoint@@@ATL@@@ATL@@UEAAJPEAPEAUIEnumConnectionPoints@@@Z 0000000180012c70 f i ElectronicJournal.obj
 0001:00011e80       ?Clone@?$CComEnumImpl@UIEnumConnections@@$1?_GUID_b196b287_bab4_101a_b69c_00aa00341d07@@3U__s_GUID@@BUtagCONNECTDATA@@V?$_Copy@UtagCONNECTDATA@@@ATL@@@ATL@@UEAAJPEAPEAUIEnumConnections@@@Z 0000000180012e80 f i ElectronicJournal.obj
 0001:00012090       ?Close@?$IOleObjectImpl@VCOPOSElectronicJournal@@@ATL@@UEAAJK@Z 0000000180013090 f i ElectronicJournal.obj
 0001:00012140       ?Close@CRegKey@ATL@@QEAAJXZ 0000000180013140 f i ElectronicJournal.obj
 0001:000121b0       ?ContextSensitiveHelp@?$IOleInPlaceActiveObjectImpl@VCOPOSElectronicJournal@@@ATL@@UEAAJH@Z 00000001800131b0 f i ElectronicJournal.obj
 0001:00012230       ?ContextSensitiveHelp@?$IOleInPlaceObjectWindowlessImpl@VCOPOSElectronicJournal@@@ATL@@UEAAJH@Z 0000000180013230 f i ElectronicJournal.obj
 0001:000122b0       ?ControlQueryInterface@?$CComControl@VCOPOSElectronicJournal@@V?$CWindowImpl@VCOPOSElectronicJournal@@VCWindow@ATL@@V?$CWinTraits@$0FGAAAAAA@$0A@@3@@ATL@@@ATL@@UEAAJAEBU_GUID@@PEAPEAX@Z 00000001800132b0 f i ElectronicJournal.obj
 0001:00012340       ?CreateControlWindow@?$CComControl@VCOPOSElectronicJournal@@V?$CWindowImpl@VCOPOSElectronicJournal@@VCWindow@ATL@@V?$CWinTraits@$0FGAAAAAA@$0A@@3@@ATL@@@ATL@@UEAAPEAUHWND__@@PEAU3@AEAUtagRECT@@@Z 0000000180013340 f i ElectronicJournal.obj
 0001:00012430       ?CreateInstance@?$CComCreator@V?$CComAggObject@VCOPOSElectronicJournal@@@ATL@@@ATL@@SAJPEAXAEBU_GUID@@PEAPEAX@Z 0000000180013430 f i ElectronicJournal.obj
 0001:00012630       ?CreateInstance@?$CComCreator@V?$CComObject@VCOPOSElectronicJournal@@@ATL@@@ATL@@SAJPEAXAEBU_GUID@@PEAPEAX@Z 0000000180013630 f i ElectronicJournal.obj
 0001:00012840       ?CreateInstance@?$CComObject@V?$CComEnum@UIEnumConnectionPoints@@$1?_GUID_b196b285_bab4_101a_b69c_00aa00341d07@@3U__s_GUID@@BPEAUIConnectionPoint@@V?$_CopyInterface@UIConnectionPoint@@@ATL@@VCComSingleThreadModel@6@@ATL@@@ATL@@SAJPEAPEAV12@@Z 0000000180013840 f i ElectronicJournal.obj
 0001:00012a20       ?CreateInstance@?$CComObject@V?$CComEnum@UIEnumConnections@@$1?_GUID_b196b287_bab4_101a_b69c_00aa00341d07@@3U__s_GUID@@BUtagCONNECTDATA@@V?$_Copy@UtagCONNECTDATA@@@ATL@@VCComSingleThreadModel@6@@ATL@@@ATL@@SAJPEAPEAV12@@Z 0000000180013a20 f i ElectronicJournal.obj
 0001:00012c00       ?CreateInstance@CComClassFactory@ATL@@UEAAJPEAUIUnknown@@AEBU_GUID@@PEAPEAX@Z 0000000180013c00 f i ElectronicJournal.obj
 0001:00012d20       ?DAdvise@?$IDataObjectImpl@VCOPOSElectronicJournal@@@ATL@@UEAAJPEAUtagFORMATETC@@KPEAUIAdviseSink@@PEAK@Z 0000000180013d20 f i ElectronicJournal.obj
 0001:00012e80       ?DEVMODEOLE2T_EX@@YAPEAU_devicemodeW@@PEAU1@@Z 0000000180013e80 f i ElectronicJournal.obj
 0001:00012e90       ?DUnadvise@?$IDataObjectImpl@VCOPOSElectronicJournal@@@ATL@@UEAAJK@Z 0000000180013e90 f i ElectronicJournal.obj
 0001:00012f90       ?Decrement@CComMultiThreadModel@ATL@@SAKPEAJ@Z 0000000180013f90 f i ElectronicJournal.obj
 0001:00012fb0       ?Decrement@CComSingleThreadModel@ATL@@SAKPEAJ@Z 0000000180013fb0 f i ElectronicJournal.obj
 0001:00012fd0       ?DefWindowProcW@?$CWindowImplBaseT@VCWindow@ATL@@V?$CWinTraits@$0FGAAAAAA@$0A@@2@@ATL@@QEAA_JI_K_J@Z 0000000180013fd0 f i ElectronicJournal.obj
 0001:00013030       ?DefaultReflectionHandler@?$CWindowImplRoot@VCWindow@ATL@@@ATL@@SAHPEAUHWND__@@I_K_JAEA_J@Z 0000000180014030 f i ElectronicJournal.obj
 0001:00013120       ?DeleteSubKey@CRegKey@ATL@@QEAAJPEB_W@Z 0000000180014120 f i ElectronicJournal.obj
 0001:00013250       ?DeleteValue@CRegKey@ATL@@QEAAJPEB_W@Z 0000000180014250 f i ElectronicJournal.obj
 0001:000132e0       ?Detach@?$CAutoVectorPtr@_W@ATL@@QEAAPEA_WXZ 00000001800142e0 f i ElectronicJournal.obj
 0001:00013320       ?Detach@?$CComPtrBase@UIPersistStream@@@ATL@@QEAAPEAUIPersistStream@@XZ 0000000180014320 f i ElectronicJournal.obj
 0001:00013360       ?Detach@?$CComPtrBase@UITypeInfo@@@ATL@@QEAAPEAUITypeInfo@@XZ 0000000180014360 f i ElectronicJournal.obj
 0001:000133a0       ?Detach@?$CComPtrBase@UIUnknown@@@ATL@@QEAAPEAUIUnknown@@XZ 00000001800143a0 f i ElectronicJournal.obj
 0001:000133e0       ?Detach@CComBSTR@ATL@@QEAAPEA_WXZ 00000001800143e0 f i ElectronicJournal.obj
 0001:00013420       ?Detach@CParseBuffer@CRegParser@ATL@@QEAAPEA_WXZ 0000000180014420 f i ElectronicJournal.obj
 0001:00013480       ?Detach@CRegKey@ATL@@QEAAPEAUHKEY__@@XZ 0000000180014480 f i ElectronicJournal.obj
 0001:000134e0       ?DoEvent@COPOSElectronicJournal@@IEAAXI_K_J@Z 00000001800144e0 f i ElectronicJournal.obj
 0001:00013620       ?DoVerb@?$IOleObjectImpl@VCOPOSElectronicJournal@@@ATL@@UEAAJJPEAUtagMSG@@PEAUIOleClientSite@@JPEAUHWND__@@PEBUtagRECT@@@Z 0000000180014620 f i ElectronicJournal.obj
 0001:00013930       ?DoVerbDiscardUndo@?$IOleObjectImpl@VCOPOSElectronicJournal@@@ATL@@QEAAJPEBUtagRECT@@PEAUHWND__@@@Z 0000000180014930 f i ElectronicJournal.obj
 0001:000139d0       ?DoVerbHide@?$IOleObjectImpl@VCOPOSElectronicJournal@@@ATL@@QEAAJPEBUtagRECT@@PEAUHWND__@@@Z 00000001800149d0 f i ElectronicJournal.obj
 0001:00013ab0       ?DoVerbInPlaceActivate@?$IOleObjectImpl@VCOPOSElectronicJournal@@@ATL@@QEAAJPEBUtagRECT@@PEAUHWND__@@@Z 0000000180014ab0 f i ElectronicJournal.obj
 0001:00013b90       ?DoVerbOpen@?$IOleObjectImpl@VCOPOSElectronicJournal@@@ATL@@QEAAJPEBUtagRECT@@PEAUHWND__@@@Z 0000000180014b90 f i ElectronicJournal.obj
 0001:00013c30       ?DoVerbPrimary@?$IOleObjectImpl@VCOPOSElectronicJournal@@@ATL@@QEAAJPEBUtagRECT@@PEAUHWND__@@@Z 0000000180014c30 f i ElectronicJournal.obj
 0001:00013d70       ?DoVerbProperties@CComControlBase@ATL@@QEAAJPEBUtagRECT@@PEAUHWND__@@@Z 0000000180014d70 f i ElectronicJournal.obj
 0001:00014120       ?DoVerbShow@?$IOleObjectImpl@VCOPOSElectronicJournal@@@ATL@@QEAAJPEBUtagRECT@@PEAUHWND__@@@Z 0000000180015120 f i ElectronicJournal.obj
 0001:000141e0       ?DoVerbUIActivate@?$IOleObjectImpl@VCOPOSElectronicJournal@@@ATL@@QEAAJPEBUtagRECT@@PEAUHWND__@@@Z 00000001800151e0 f i ElectronicJournal.obj
 0001:000142c0       ?DoesVerbActivate@CComControlBase@ATL@@QEAAHJ@Z 00000001800152c0 f i ElectronicJournal.obj
 0001:00014320       ?DoesVerbUIActivate@CComControlBase@ATL@@QEAAHJ@Z 0000000180015320 f i ElectronicJournal.obj
 0001:000143a0       ?Draw@?$IViewObjectExImpl@VCOPOSElectronicJournal@@@ATL@@UEAAJKJPEAXPEAUtagDVTARGETDEVICE@@PEAUHDC__@@2PEBU_RECTL@@3P6AH_K@Z4@Z 00000001800153a0 f i ElectronicJournal.obj
 0001:000144c0       ?Empty@CComBSTR@ATL@@QEAAXXZ 00000001800154c0 f i ElectronicJournal.obj
 0001:00014500       ?EnableModeless@?$IOleInPlaceActiveObjectImpl@VCOPOSElectronicJournal@@@ATL@@UEAAJH@Z 0000000180015500 f i ElectronicJournal.obj
 0001:00014570       ?EndOfVar@CRegParser@ATL@@IEAAHXZ 0000000180015570 f i ElectronicJournal.obj
 0001:000145d0       ?EnsureTI@CComTypeInfoHolder@ATL@@QEAAJK@Z 00000001800155d0 f i ElectronicJournal.obj
 0001:00014630       ?EnumAdvise@?$IOleObjectImpl@VCOPOSElectronicJournal@@@ATL@@UEAAJPEAPEAUIEnumSTATDATA@@@Z 0000000180015630 f i ElectronicJournal.obj
 0001:00014790       ?EnumConnectionPoints@?$IConnectionPointContainerImpl@VCOPOSElectronicJournal@@@ATL@@UEAAJPEAPEAUIEnumConnectionPoints@@@Z 0000000180015790 f i ElectronicJournal.obj
 0001:00014cc0       ?EnumConnections@?$IConnectionPointImpl@VCOPOSElectronicJournal@@$1?DIID__IOPOSElectronicJournalEvents@@3U_GUID@@BVCComDynamicUnkArray@ATL@@@ATL@@UEAAJPEAPEAUIEnumConnections@@@Z 0000000180015cc0 f i ElectronicJournal.obj
 0001:00015030       ?EnumConnections@?$IConnectionPointImpl@VCOPOSElectronicJournal@@$1?IID_IPropertyNotifySink@@3U_GUID@@BVCComDynamicUnkArray@ATL@@@ATL@@UEAAJPEAPEAUIEnumConnections@@@Z 0000000180016030 f i ElectronicJournal.obj
 0001:000153a0       ?EnumDAdvise@?$IDataObjectImpl@VCOPOSElectronicJournal@@@ATL@@UEAAJPEAPEAUIEnumSTATDATA@@@Z 00000001800163a0 f i ElectronicJournal.obj
 0001:000154f0       ?EnumFormatEtc@?$IDataObjectImpl@VCOPOSElectronicJournal@@@ATL@@UEAAJKPEAPEAUIEnumFORMATETC@@@Z 00000001800164f0 f i ElectronicJournal.obj
 0001:00015580       ?EnumVerbs@?$IOleObjectImpl@VCOPOSElectronicJournal@@@ATL@@UEAAJPEAPEAUIEnumOLEVERB@@@Z 0000000180016580 f i ElectronicJournal.obj
 0001:00015650       ?EscapeSingleQuote@CAtlModule@ATL@@SAXPEA_W_KPEB_W@Z 0000000180016650 f i ElectronicJournal.obj
 0001:00015750       ?ExtractCreateWndData@CAtlWinModule@ATL@@QEAAPEAXXZ 0000000180016750 f i ElectronicJournal.obj
 0001:00015780       ?FAccessAllowed@?$IObjectSafetyImpl@VCOPOSElectronicJournal@@$02@ATL@@MEAAHXZ 0000000180016780 f i ElectronicJournal.obj
 0001:00015790       ?FinalConstruct@?$CComAggObject@VCOPOSElectronicJournal@@@ATL@@QEAAJXZ 0000000180016790 f i ElectronicJournal.obj
 0001:000157e0       ?FinalConstruct@CComObjectRootBase@ATL@@QEAAJXZ 00000001800167e0 f i ElectronicJournal.obj
 0001:000157f0       ?FinalConstruct@CRegObject@ATL@@QEAAJXZ 00000001800167f0 f i ElectronicJournal.obj
 0001:00015830       ?FinalRelease@?$CComAggObject@VCOPOSElectronicJournal@@@ATL@@QEAAXXZ 0000000180016830 f i ElectronicJournal.obj
 0001:00015880       ?FinalRelease@CComObjectRootBase@ATL@@QEAAXXZ 0000000180016880 f i ElectronicJournal.obj
 0001:00015890       ?FindConnectionPoint@?$IConnectionPointContainerImpl@VCOPOSElectronicJournal@@@ATL@@UEAAJAEBU_GUID@@PEAPEAUIConnectionPoint@@@Z 0000000180016890 f i ElectronicJournal.obj
 0001:00015a00       ?FindKey@?$CSimpleMap@PEA_WPEA_WVCExpansionVectorEqualHelper@ATL@@@ATL@@QEBAHAEBQEA_W@Z 0000000180016a00 f i ElectronicJournal.obj
 0001:00015a80       ?FireTheEvent@?$CProxy_IOPOSEvents@VCOPOSElectronicJournal@@@@IEAAXPEAUIUnknown@@PEAVOposVariant@@IAEAJPEB_WJ@Z 0000000180016a80 f i ElectronicJournal.obj
 0001:00015c60       ?FireViewChange@CComControlBase@ATL@@QEAAJXZ 0000000180016c60 f i ElectronicJournal.obj
 0001:00015d40       ?Fire_DataEvent@?$CProxy_IOPOSEvents@VCOPOSElectronicJournal@@@@QEAAXJ@Z 0000000180016d40 f i ElectronicJournal.obj
 0001:00015f30       ?Fire_DirectIOEvent@?$CProxy_IOPOSEvents@VCOPOSElectronicJournal@@@@QEAAXJPEAJPEAPEA_W@Z 0000000180016f30 f i ElectronicJournal.obj
 0001:000161c0       ?Fire_ErrorEvent@?$CProxy_IOPOSEvents@VCOPOSElectronicJournal@@@@QEAAXJJJPEAJ@Z 00000001800171c0 f i ElectronicJournal.obj
 0001:00016470       ?Fire_OutputCompleteEvent@?$CProxy_IOPOSEvents@VCOPOSElectronicJournal@@@@QEAAXJ@Z 0000000180017470 f i ElectronicJournal.obj
 0001:00016660       ?Fire_StatusUpdateEvent@?$CProxy_IOPOSEvents@VCOPOSElectronicJournal@@@@QEAAXJ@Z 0000000180017660 f i ElectronicJournal.obj
 0001:00016850       ?FormatWindowClassName@AtlModuleRegisterWndClassInfoParamW@ATL@@SAXPEA_WKPEAX@Z 0000000180017850 f i ElectronicJournal.obj
 0001:000168a0       ?Free@?$CAutoVectorPtr@_W@ATL@@QEAAXXZ 00000001800178a0 f i ElectronicJournal.obj
 0001:000168f0       ?FreeHeap@?$CTempBuffer@E$0BAA@VCCRTAllocator@ATL@@@ATL@@AEAAXXZ 00000001800178f0 f i ElectronicJournal.obj
 0001:00016930       ?FreeHeap@?$CTempBuffer@_W$0BAA@VCCRTAllocator@ATL@@@ATL@@AEAAXXZ 0000000180017930 f i ElectronicJournal.obj
 0001:00016970       ?FreeHeap@?$CTempBuffer@_W$0EAA@VCCRTAllocator@ATL@@@ATL@@AEAAXXZ 0000000180017970 f i ElectronicJournal.obj
 0001:000169b0       ?Freeze@?$IViewObjectExImpl@VCOPOSElectronicJournal@@@ATL@@UEAAJKJPEAXPEAK@Z 00000001800179b0 f i ElectronicJournal.obj
 0001:00016a40       ?GenerateError@CRegParser@ATL@@IEAAJI@Z 0000000180017a40 f i ElectronicJournal.obj
 0001:00016a60       ?GetAdvise@?$IViewObjectExImpl@VCOPOSElectronicJournal@@@ATL@@UEAAJPEAK0PEAPEAUIAdviseSink@@@Z 0000000180017a60 f i ElectronicJournal.obj
 0001:00016bb0       ?GetAmbientLocaleID@CComControlBase@ATL@@QEAAJAEAK@Z 0000000180017bb0 f i ElectronicJournal.obj
 0001:00016c90       ?GetAmbientProperty@CComControlBase@ATL@@QEAAJJAEAUtagVARIANT@@@Z 0000000180017c90 f i ElectronicJournal.obj
 0001:00016d00       ?GetAmbientUserMode@CComControlBase@ATL@@QEAAJAEAH@Z 0000000180017d00 f i ElectronicJournal.obj
 0001:00016e20       ?GetAppId@?$CAtlModuleT@VCComModule@ATL@@@ATL@@SAPEB_WXZ 0000000180017e20 f i ElectronicJournal.obj
 0001:00016e30       ?GetAt@CComDynamicUnkArray@ATL@@QEAAPEAUIUnknown@@H@Z 0000000180017e30 f i ElectronicJournal.obj
 0001:00016ee0       ?GetCanonicalFormatEtc@?$IDataObjectImpl@VCOPOSElectronicJournal@@@ATL@@UEAAJPEAUtagFORMATETC@@0@Z 0000000180017ee0 f i ElectronicJournal.obj
 0001:00016f70       ?GetClassID@?$IPersistStorageImpl@VCOPOSElectronicJournal@@@ATL@@UEAAJPEAU_GUID@@@Z 0000000180017f70 f i ElectronicJournal.obj
 0001:00017010       ?GetClassID@?$IPersistStreamInitImpl@VCOPOSElectronicJournal@@@ATL@@UEAAJPEAU_GUID@@@Z 0000000180018010 f i ElectronicJournal.obj
 0001:000170b0       ?GetClassInfoExW@AtlModuleRegisterWndClassInfoParamW@ATL@@SAHPEAUHINSTANCE__@@PEB_WPEAUtagWNDCLASSEXW@@@Z 00000001800180b0 f i ElectronicJournal.obj
 0001:00017100       ?GetClassInfoW@?$IProvideClassInfo2Impl@$1?CLSID_OPOSElectronicJournal@@3U_GUID@@B$1?DIID__IOPOSElectronicJournalEvents@@3U2@B$1?LIBID_OposElectronicJournal_CCO@@3U2@B$00$0A@VCComTypeInfoHolder@ATL@@@ATL@@UEAAJPEAPEAUITypeInfo@@@Z 0000000180018100 f i ElectronicJournal.obj
 0001:00017140       ?GetClassObject@CComModule@ATL@@QEAAJAEBU_GUID@@0PEAPEAX@Z 0000000180018140 f i ElectronicJournal.obj
 0001:000173b0       ?GetClientSite@?$IOleObjectImpl@VCOPOSElectronicJournal@@@ATL@@UEAAJPEAPEAUIOleClientSite@@@Z 00000001800183b0 f i ElectronicJournal.obj
 0001:00017460       ?GetClipboardData@?$IOleObjectImpl@VCOPOSElectronicJournal@@@ATL@@UEAAJKPEAPEAUIDataObject@@@Z 0000000180018460 f i ElectronicJournal.obj
 0001:000174f0       ?GetCodeAddress@CDynamicStdCallThunk2@ATL@@QEAAPEAXXZ 00000001800184f0 f i ElectronicJournal.obj
 0001:00017530       ?GetColorSet@?$IViewObjectExImpl@VCOPOSElectronicJournal@@@ATL@@UEAAJKJPEAXPEAUtagDVTARGETDEVICE@@PEAUHDC__@@PEAPEAUtagLOGPALETTE@@@Z 0000000180018530 f i ElectronicJournal.obj
 0001:000175c0       ?GetConnMap@COPOSElectronicJournal@@SAPEBU_ATL_CONNMAP_ENTRY@ATL@@PEAH@Z 00000001800185c0 f i ElectronicJournal.obj
 0001:00017720       ?GetConnectionInterface@?$IConnectionPointImpl@VCOPOSElectronicJournal@@$1?DIID__IOPOSElectronicJournalEvents@@3U_GUID@@BVCComDynamicUnkArray@ATL@@@ATL@@UEAAJPEAU_GUID@@@Z 0000000180018720 f i ElectronicJournal.obj
 0001:00017760       ?GetConnectionInterface@?$IConnectionPointImpl@VCOPOSElectronicJournal@@$1?IID_IPropertyNotifySink@@3U_GUID@@BVCComDynamicUnkArray@ATL@@@ATL@@UEAAJPEAU_GUID@@@Z 0000000180018760 f i ElectronicJournal.obj
 0001:000177a0       ?GetConnectionPointContainer@?$IConnectionPointImpl@VCOPOSElectronicJournal@@$1?DIID__IOPOSElectronicJournalEvents@@3U_GUID@@BVCComDynamicUnkArray@ATL@@@ATL@@UEAAJPEAPEAUIConnectionPointContainer@@@Z 00000001800187a0 f i ElectronicJournal.obj
 0001:00017820       ?GetConnectionPointContainer@?$IConnectionPointImpl@VCOPOSElectronicJournal@@$1?IID_IPropertyNotifySink@@3U_GUID@@BVCComDynamicUnkArray@ATL@@@ATL@@UEAAJPEAPEAUIConnectionPointContainer@@@Z 0000000180018820 f i ElectronicJournal.obj
 0001:000178a0       ?GetContentExtent@?$IQuickActivateImpl@VCOPOSElectronicJournal@@@ATL@@UEAAJPEAUtagSIZE@@@Z 00000001800188a0 f i ElectronicJournal.obj
 0001:00017960       ?GetControlInfo@?$IOleControlImpl@VCOPOSElectronicJournal@@@ATL@@UEAAJPEAUtagCONTROLINFO@@@Z 0000000180018960 f i ElectronicJournal.obj
 0001:000179f0       ?GetCookie@CComDynamicUnkArray@ATL@@QEAAKPEAPEAUIUnknown@@@Z 00000001800189f0 f i ElectronicJournal.obj
 0001:00017ae0       ?GetData@?$IDataObjectImpl@VCOPOSElectronicJournal@@@ATL@@UEAAJPEAUtagFORMATETC@@PEAUtagSTGMEDIUM@@@Z 0000000180018ae0 f i ElectronicJournal.obj
 0001:00017ba0       ?GetData@CAtlSafeAllocBufferNode@?$CAtlSafeAllocBufferManager@VCCRTAllocator@ATL@@@_ATL_SAFE_ALLOCA_IMPL@ATL@@QEAAPEAXXZ 0000000180018ba0 f i ElectronicJournal.obj
 0001:00017bc0       ?GetDataHere@?$IDataObjectImpl@VCOPOSElectronicJournal@@@ATL@@UEAAJPEAUtagFORMATETC@@PEAUtagSTGMEDIUM@@@Z 0000000180018bc0 f i ElectronicJournal.obj
 0001:00017c50       ?GetDropTarget@?$IOleInPlaceObjectWindowlessImpl@VCOPOSElectronicJournal@@@ATL@@UEAAJPEAPEAUIDropTarget@@@Z 0000000180018c50 f i ElectronicJournal.obj
 0001:00017ce0       ?GetExtent@?$IOleObjectImpl@VCOPOSElectronicJournal@@@ATL@@UEAAJKPEAUtagSIZE@@@Z 0000000180018ce0 f i ElectronicJournal.obj
 0001:00017db0       ?GetExtent@?$IViewObjectExImpl@VCOPOSElectronicJournal@@@ATL@@UEAAJKJPEAUtagDVTARGETDEVICE@@PEAUtagSIZE@@@Z 0000000180018db0 f i ElectronicJournal.obj
 0001:00017ec0       ?GetGITPtr@CAtlModule@ATL@@UEAAJPEAPEAUIGlobalInterfaceTable@@@Z 0000000180018ec0 f i ElectronicJournal.obj
 0001:00018000       ?GetGUID@?$IProvideClassInfo2Impl@$1?CLSID_OPOSElectronicJournal@@3U_GUID@@B$1?DIID__IOPOSElectronicJournalEvents@@3U2@B$1?LIBID_OposElectronicJournal_CCO@@3U2@B$00$0A@VCComTypeInfoHolder@ATL@@@ATL@@UEAAJKPEAU_GUID@@@Z 0000000180019000 f i ElectronicJournal.obj
 0001:00018080       ?GetIDsOfNames@?$IDispatchImpl@UIOPOSElectronicJournal@@$1?IID_IOPOSElectronicJournal@@3U_GUID@@B$1?LIBID_OposElectronicJournal_CCO@@3U3@B$00$0A@VCComTypeInfoHolder@ATL@@@ATL@@UEAAJAEBU_GUID@@PEAPEA_WIKPEAJ@Z 0000000180019080 f i ElectronicJournal.obj
 0001:000180e0       ?GetIDsOfNames@CComTypeInfoHolder@ATL@@QEAAJAEBU_GUID@@PEAPEA_WIKPEAJ@Z 00000001800190e0 f i ElectronicJournal.obj
 0001:00018300       ?GetInterfaceSafetyOptions@?$IObjectSafetyImpl@VCOPOSElectronicJournal@@$02@ATL@@UEAAJAEBU_GUID@@PEAK1@Z 0000000180019300 f i ElectronicJournal.obj
 0001:000184a0       ?GetKeyAt@?$CSimpleMap@PEA_WPEA_WVCExpansionVectorEqualHelper@ATL@@@ATL@@QEBAAEAPEA_WH@Z 00000001800194a0 f i ElectronicJournal.obj
 0001:00018550       ?GetLockCount@CAtlModule@ATL@@UEAAJXZ 0000000180019550 f i ElectronicJournal.obj
 0001:00018560       ?GetMiscStatus@?$IOleObjectImpl@VCOPOSElectronicJournal@@@ATL@@UEAAJKPEAK@Z 0000000180019560 f i ElectronicJournal.obj
 0001:000185f0       ?GetMoniker@?$IOleObjectImpl@VCOPOSElectronicJournal@@@ATL@@UEAAJKKPEAPEAUIMoniker@@@Z 00000001800195f0 f i ElectronicJournal.obj
 0001:00018680       ?GetNaturalExtent@?$IViewObjectExImpl@VCOPOSElectronicJournal@@@ATL@@UEAAJKJPEAUtagDVTARGETDEVICE@@PEAUHDC__@@PEAUtagExtentInfo@@PEAUtagSIZE@@@Z 0000000180019680 f i ElectronicJournal.obj
 0001:00018810       ?GetObjectCLSID@?$CComCoClass@VCOPOSElectronicJournal@@$1?CLSID_OPOSElectronicJournal@@3U_GUID@@B@ATL@@SAAEBU_GUID@@XZ 0000000180019810 f i ElectronicJournal.obj
 0001:00018820       ?GetPages@?$ISpecifyPropertyPagesImpl@VCOPOSElectronicJournal@@@ATL@@UEAAJPEAUtagCAUUID@@@Z 0000000180019820 f i ElectronicJournal.obj
 0001:000188b0       ?GetPagesHelper@?$ISpecifyPropertyPagesImpl@VCOPOSElectronicJournal@@@ATL@@IEAAJPEAUtagCAUUID@@PEBUATL_PROPMAP_ENTRY@2@@Z 00000001800198b0 f i ElectronicJournal.obj
 0001:00018b20       ?GetProperty@?$CComPtr@UIDispatch@@@ATL@@QEAAJJPEAUtagVARIANT@@@Z 0000000180019b20 f i ElectronicJournal.obj
 0001:00018b70       ?GetProperty@?$CComPtr@UIDispatch@@@ATL@@SAJPEAUIDispatch@@JPEAUtagVARIANT@@@Z 0000000180019b70 f i ElectronicJournal.obj
 0001:00018d40       ?GetPropertyMap@COPOSElectronicJournal@@SAPEBUATL_PROPMAP_ENTRY@ATL@@XZ 0000000180019d40 f i ElectronicJournal.obj
 0001:00018d50       ?GetRect@?$IViewObjectExImpl@VCOPOSElectronicJournal@@@ATL@@UEAAJKPEAU_RECTL@@@Z 0000000180019d50 f i ElectronicJournal.obj
 0001:00018de0       ?GetSize@?$CSimpleMap@PEA_WPEA_WVCExpansionVectorEqualHelper@ATL@@@ATL@@QEBAHXZ 0000000180019de0 f i ElectronicJournal.obj
 0001:00018df0       ?GetSize@CComDynamicUnkArray@ATL@@QEBAHXZ 0000000180019df0 f i ElectronicJournal.obj
 0001:00018e00       ?GetSizeMax@?$IPersistStreamInitImpl@VCOPOSElectronicJournal@@@ATL@@UEAAJPEAT_ULARGE_INTEGER@@@Z 0000000180019e00 f i ElectronicJournal.obj
 0001:00019590       ?GetSizeMax@CComVariant@ATL@@QEBAJPEAT_ULARGE_INTEGER@@@Z 000000018001a590 f i ElectronicJournal.obj
 0001:000199c0       ?GetStreamSize@CComBSTR@ATL@@SAKPEA_W@Z 000000018001a9c0 f i ElectronicJournal.obj
 0001:00019a20       ?GetTI@CComTypeInfoHolder@ATL@@QEAAJK@Z 000000018001aa20 f i ElectronicJournal.obj
 0001:0001a2f0       ?GetTI@CComTypeInfoHolder@ATL@@QEAAJKPEAPEAUITypeInfo@@@Z 000000018001b2f0 f i ElectronicJournal.obj
 0001:0001a3e0       ?GetTypeInfo@?$IDispatchImpl@UIOPOSElectronicJournal@@$1?IID_IOPOSElectronicJournal@@3U_GUID@@B$1?LIBID_OposElectronicJournal_CCO@@3U3@B$00$0A@VCComTypeInfoHolder@ATL@@@ATL@@UEAAJIKPEAPEAUITypeInfo@@@Z 000000018001b3e0 f i ElectronicJournal.obj
 0001:0001a430       ?GetTypeInfo@CComTypeInfoHolder@ATL@@QEAAJIKPEAPEAUITypeInfo@@@Z 000000018001b430 f i ElectronicJournal.obj
 0001:0001a490       ?GetTypeInfoCount@?$IDispatchImpl@UIOPOSElectronicJournal@@$1?IID_IOPOSElectronicJournal@@3U_GUID@@B$1?LIBID_OposElectronicJournal_CCO@@3U3@B$00$0A@VCComTypeInfoHolder@ATL@@@ATL@@UEAAJPEAI@Z 000000018001b490 f i ElectronicJournal.obj
 0001:0001a4c0       ?GetUnknown@CComDynamicUnkArray@ATL@@QEAAPEAUIUnknown@@K@Z 000000018001b4c0 f i ElectronicJournal.obj
 0001:0001a570       ?GetUnknown@COPOSElectronicJournal@@QEAAPEAUIUnknown@@XZ 000000018001b570 f i ElectronicJournal.obj
 0001:0001a5a0       ?GetUserClassID@?$IOleObjectImpl@VCOPOSElectronicJournal@@@ATL@@UEAAJPEAU_GUID@@@Z 000000018001b5a0 f i ElectronicJournal.obj
 0001:0001a680       ?GetUserType@?$IOleObjectImpl@VCOPOSElectronicJournal@@@ATL@@UEAAJKPEAPEA_W@Z 000000018001b680 f i ElectronicJournal.obj
 0001:0001a710       ?GetValueAt@?$CSimpleMap@PEA_WPEA_WVCExpansionVectorEqualHelper@ATL@@@ATL@@QEBAAEAPEA_WH@Z 000000018001b710 f i ElectronicJournal.obj
 0001:0001a7c0       ?GetViewStatus@?$IViewObjectExImpl@VCOPOSElectronicJournal@@@ATL@@UEAAJPEAK@Z 000000018001b7c0 f i ElectronicJournal.obj
 0001:0001a8c0       ?GetWNDPROC@CWndProcThunk@ATL@@QEAAP6A_JPEAUHWND__@@I_K_J@ZXZ 000000018001b8c0 f i ElectronicJournal.obj
 0001:0001a900       ?GetWindow@?$IOleInPlaceActiveObjectImpl@VCOPOSElectronicJournal@@@ATL@@UEAAJPEAPEAUHWND__@@@Z 000000018001b900 f i ElectronicJournal.obj
 0001:0001aa00       ?GetWindow@?$IOleInPlaceObjectWindowlessImpl@VCOPOSElectronicJournal@@@ATL@@UEAAJPEAPEAUHWND__@@@Z 000000018001ba00 f i ElectronicJournal.obj
 0001:0001ab00       ?GetWindowProc@?$CWindowImplBaseT@VCWindow@ATL@@V?$CWinTraits@$0FGAAAAAA@$0A@@2@@ATL@@UEAAP6A_JPEAUHWND__@@I_K_J@ZXZ 000000018001bb00 f i ElectronicJournal.obj
 0001:0001ab10       ?GetWndCaption@?$CWindowImpl@VCOPOSElectronicJournal@@VCWindow@ATL@@V?$CWinTraits@$0FGAAAAAA@$0A@@3@@ATL@@SAPEB_WXZ 000000018001bb10 f i ElectronicJournal.obj
 0001:0001ab20       ?GetWndClassInfo@?$CWindowImpl@VCOPOSElectronicJournal@@VCWindow@ATL@@V?$CWinTraits@$0FGAAAAAA@$0A@@3@@ATL@@SAAEAU_ATL_WNDCLASSINFOW@2@XZ 000000018001bb20 f i ElectronicJournal.obj
 0001:0001ab30       ?GetWndClassName@CWindow@ATL@@SAPEB_WXZ 000000018001bb30 f i ElectronicJournal.obj
 0001:0001ab40       ?GetWndExStyle@?$CWinTraits@$0FGAAAAAA@$0A@@ATL@@SAKK@Z 000000018001bb40 f i ElectronicJournal.obj
 0001:0001ab80       ?GetWndExStyle@?$CWindowImplBaseT@VCWindow@ATL@@V?$CWinTraits@$0FGAAAAAA@$0A@@2@@ATL@@SAKK@Z 000000018001bb80 f i ElectronicJournal.obj
 0001:0001abb0       ?GetWndStyle@?$CWinTraits@$0FGAAAAAA@$0A@@ATL@@SAKK@Z 000000018001bbb0 f i ElectronicJournal.obj
 0001:0001abf0       ?GetWndStyle@?$CWindowImplBaseT@VCWindow@ATL@@V?$CWinTraits@$0FGAAAAAA@$0A@@2@@ATL@@SAKK@Z 000000018001bbf0 f i ElectronicJournal.obj
 0001:0001ac20       ?GetZoomInfo@CComControlBase@ATL@@QEAAXAEAUATL_DRAWINFO@@@Z 000000018001bc20 f i ElectronicJournal.obj
 0001:0001add0       ?HKeyFromString@CRegParser@ATL@@KAPEAUHKEY__@@PEA_W@Z 000000018001bdd0 f i ElectronicJournal.obj
 0001:0001ae60       ?HandsOffStorage@?$IPersistStorageImpl@VCOPOSElectronicJournal@@@ATL@@UEAAJXZ 000000018001be60 f i ElectronicJournal.obj
 0001:0001aed0       ?HasSubKeys@CRegParser@ATL@@IEAAHPEAUHKEY__@@@Z 000000018001bed0 f i ElectronicJournal.obj
 0001:0001b040       ?IDataObject_GetData@CComControlBase@ATL@@QEAAJPEAUtagFORMATETC@@PEAUtagSTGMEDIUM@@@Z 000000018001c040 f i ElectronicJournal.obj
 0001:0001b4f0       ?IOleInPlaceObject_InPlaceDeactivate@CComControlBase@ATL@@QEAAJXZ 000000018001c4f0 f i ElectronicJournal.obj
 0001:0001b760       ?IOleInPlaceObject_SetObjectRects@CComControlBase@ATL@@QEAAJPEBUtagRECT@@0@Z 000000018001c760 f i ElectronicJournal.obj
 0001:0001b940       ?IOleInPlaceObject_UIDeactivate@CComControlBase@ATL@@QEAAJXZ 000000018001c940 f i ElectronicJournal.obj
 0001:0001bbb0       ?IOleObject_Advise@CComControlBase@ATL@@QEAAJPEAUIAdviseSink@@PEAK@Z 000000018001cbb0 f i ElectronicJournal.obj
 0001:0001bc60       ?IOleObject_Close@CComControlBase@ATL@@QEAAJK@Z 000000018001cc60 f i ElectronicJournal.obj
 0001:0001bfd0       ?IOleObject_GetClientSite@CComControlBase@ATL@@QEAAJPEAPEAUIOleClientSite@@@Z 000000018001cfd0 f i ElectronicJournal.obj
 0001:0001c0a0       ?IOleObject_SetClientSite@CComControlBase@ATL@@QEAAJPEAUIOleClientSite@@@Z 000000018001d0a0 f i ElectronicJournal.obj
 0001:0001c1b0       ?IOleObject_SetExtent@CComControlBase@ATL@@QEAAJKPEAUtagSIZE@@@Z 000000018001d1b0 f i ElectronicJournal.obj
 0001:0001c320       ?IPSI_GetIPersistStreamInit@?$IPersistStorageImpl@VCOPOSElectronicJournal@@@ATL@@AEAAPEAUIPersistStreamInit@@XZ 000000018001d320 f i ElectronicJournal.obj
 0001:0001c3e0       ?IPersistStreamInit_Load@?$IPersistStreamInitImpl@VCOPOSElectronicJournal@@@ATL@@QEAAJPEAUIStream@@PEBUATL_PROPMAP_ENTRY@2@@Z 000000018001d3e0 f i ElectronicJournal.obj
 0001:0001c480       ?IPersistStreamInit_Save@?$IPersistStreamInitImpl@VCOPOSElectronicJournal@@@ATL@@QEAAJPEAUIStream@@HPEBUATL_PROPMAP_ENTRY@2@@Z 000000018001d480 f i ElectronicJournal.obj
 0001:0001c540       ?IQuickActivate_QuickActivate@CComControlBase@ATL@@QEAAJPEAUtagQACONTAINER@@PEAUtagQACONTROL@@@Z 000000018001d540 f i ElectronicJournal.obj
 0001:0001cd80       ?IViewObject_Draw@CComControlBase@ATL@@QEAAJKJPEAXPEAUtagDVTARGETDEVICE@@PEAUHDC__@@2PEBU_RECTL@@3@Z 000000018001dd80 f i ElectronicJournal.obj
 0001:0001d1d0       ?InPlaceActivate@CComControlBase@ATL@@QEAAJJPEBUtagRECT@@@Z 000000018001e1d0 f i ElectronicJournal.obj
 0001:0001dd70       ?InPlaceDeactivate@?$IOleInPlaceObjectWindowlessImpl@VCOPOSElectronicJournal@@@ATL@@UEAAJXZ 000000018001ed70 f i ElectronicJournal.obj
 0001:0001de20       ?Increment@CComMultiThreadModel@ATL@@SAKPEAJ@Z 000000018001ee20 f i ElectronicJournal.obj
 0001:0001de40       ?Increment@CComSingleThreadModel@ATL@@SAKPEAJ@Z 000000018001ee40 f i ElectronicJournal.obj
 0001:0001de60       ?Init@?$CComEnumImpl@UIEnumConnectionPoints@@$1?_GUID_b196b285_bab4_101a_b69c_00aa00341d07@@3U__s_GUID@@BPEAUIConnectionPoint@@V?$_CopyInterface@UIConnectionPoint@@@ATL@@@ATL@@QEAAJPEAPEAUIConnectionPoint@@0PEAUIUnknown@@W4CComEnumFlags@2@@Z 000000018001ee60 f i ElectronicJournal.obj
 0001:0001e150       ?Init@?$CComEnumImpl@UIEnumConnections@@$1?_GUID_b196b287_bab4_101a_b69c_00aa00341d07@@3U__s_GUID@@BUtagCONNECTDATA@@V?$_Copy@UtagCONNECTDATA@@@ATL@@@ATL@@QEAAJPEAUtagCONNECTDATA@@0PEAUIUnknown@@W4CComEnumFlags@2@@Z 000000018001f150 f i ElectronicJournal.obj
 0001:0001e440       ?Init@CComFakeCriticalSection@ATL@@QEAAJXZ 000000018001f440 f i ElectronicJournal.obj
 0001:0001e450       ?Init@CComModule@ATL@@QEAAJPEAU_ATL_OBJMAP_ENTRY30@2@PEAUHINSTANCE__@@PEBU_GUID@@@Z 000000018001f450 f i ElectronicJournal.obj
 0001:0001e540       ?Init@CComSafeDeleteCriticalSection@ATL@@QEAAJXZ 000000018001f540 f i ElectronicJournal.obj
 0001:0001e5d0       ?Init@CDynamicStdCallThunk2@ATL@@QEAAH_KPEAX@Z 000000018001f5d0 f i ElectronicJournal.obj
 0001:0001e650       ?Init@CWndProcThunk@ATL@@QEAAHP6A_JPEAUHWND__@@I_K_J@ZPEAX@Z 000000018001f650 f i ElectronicJournal.obj
 0001:0001e6a0       ?InitFromData@?$IOleObjectImpl@VCOPOSElectronicJournal@@@ATL@@UEAAJPEAUIDataObject@@HK@Z 000000018001f6a0 f i ElectronicJournal.obj
 0001:0001e730       ?InitLibId@?$CAtlModuleT@VCComModule@ATL@@@ATL@@SAXXZ 000000018001f730 f i ElectronicJournal.obj
 0001:0001e740       ?InitNew@?$IPersistStorageImpl@VCOPOSElectronicJournal@@@ATL@@UEAAJPEAUIStorage@@@Z 000000018001f740 f i ElectronicJournal.obj
 0001:0001e830       ?InitNew@?$IPersistStreamInitImpl@VCOPOSElectronicJournal@@@ATL@@UEAAJXZ 000000018001f830 f i ElectronicJournal.obj
 0001:0001e8e0       ?InlineIsEqualUnknown@ATL@@YAHAEBU_GUID@@@Z 000000018001f8e0 f i ElectronicJournal.obj
 0001:0001e970       ?InternalAddRef@?$CComObjectRootEx@VCComMultiThreadModel@ATL@@@ATL@@QEAAKXZ 000000018001f970 f i ElectronicJournal.obj
 0001:0001e9f0       ?InternalAddRef@?$CComObjectRootEx@VCComSingleThreadModel@ATL@@@ATL@@QEAAKXZ 000000018001f9f0 f i ElectronicJournal.obj
 0001:0001ea70       ?InternalFinalConstructAddRef@CComObjectRootBase@ATL@@QEAAXXZ 000000018001fa70 f i ElectronicJournal.obj
 0001:0001ea80       ?InternalFinalConstructAddRef@COPOSElectronicJournal@@QEAAXXZ 000000018001fa80 f i ElectronicJournal.obj
 0001:0001eac0       ?InternalFinalConstructRelease@CComObjectRootBase@ATL@@QEAAXXZ 000000018001fac0 f i ElectronicJournal.obj
 0001:0001eb30       ?InternalFinalConstructRelease@COPOSElectronicJournal@@QEAAXXZ 000000018001fb30 f i ElectronicJournal.obj
 0001:0001eb70       ?InternalGetSite@CComControlBase@ATL@@QEAAJAEBU_GUID@@PEAPEAX@Z 000000018001fb70 f i ElectronicJournal.obj
 0001:0001ec50       ?InternalQueryInterface@CComObjectRootBase@ATL@@SAJPEAXPEBU_ATL_INTMAP_ENTRY@2@AEBU_GUID@@PEAPEAX@Z 000000018001fc50 f i ElectronicJournal.obj
 0001:0001ed70       ?InternalRelease@?$CComObjectRootEx@VCComMultiThreadModel@ATL@@@ATL@@QEAAKXZ 000000018001fd70 f i ElectronicJournal.obj
 0001:0001edf0       ?InternalRelease@?$CComObjectRootEx@VCComSingleThreadModel@ATL@@@ATL@@QEAAKXZ 000000018001fdf0 f i ElectronicJournal.obj
 0001:0001ee70       ?InternalSetAtIndex@?$CSimpleArray@GV?$CSimpleArrayEqualHelper@G@ATL@@@ATL@@QEAAXHAEBG@Z 000000018001fe70 f i ElectronicJournal.obj
 0001:0001eef0       ?InternalSetAtIndex@?$CSimpleMap@PEA_WPEA_WVCExpansionVectorEqualHelper@ATL@@@ATL@@QEAAXHAEBQEA_W0@Z 000000018001fef0 f i ElectronicJournal.obj
 0001:0001efc0       ?Invoke@?$IDispatchImpl@UIOPOSElectronicJournal@@$1?IID_IOPOSElectronicJournal@@3U_GUID@@B$1?LIBID_OposElectronicJournal_CCO@@3U3@B$00$0A@VCComTypeInfoHolder@ATL@@@ATL@@UEAAJJAEBU_GUID@@KGPEAUtagDISPPARAMS@@PEAUtagVARIANT@@PEAUtagEXCEPINFO@@PEAI@Z 000000018001ffc0 f i ElectronicJournal.obj
 0001:0001f060       ?Invoke@CComTypeInfoHolder@ATL@@QEAAJPEAUIDispatch@@JAEBU_GUID@@KGPEAUtagDISPPARAMS@@PEAUtagVARIANT@@PEAUtagEXCEPINFO@@PEAI@Z 0000000180020060 f i ElectronicJournal.obj
 0001:0001f120       ?IsDirty@?$IPersistStorageImpl@VCOPOSElectronicJournal@@@ATL@@UEAAJXZ 0000000180020120 f i ElectronicJournal.obj
 0001:0001f210       ?IsDirty@?$IPersistStreamInitImpl@VCOPOSElectronicJournal@@@ATL@@UEAAJXZ 0000000180020210 f i ElectronicJournal.obj
 0001:0001f2d0       ?IsEqualKey@CExpansionVectorEqualHelper@ATL@@SA_NQEA_W0@Z 00000001800202d0 f i ElectronicJournal.obj
 0001:0001f320       ?IsEqualObject@?$CComPtrBase@UIOleClientSite@@@ATL@@QEAA_NPEAUIUnknown@@@Z 0000000180020320 f i ElectronicJournal.obj
 0001:0001f470       ?IsEqualObject@?$CComPtrBase@UITypeInfo@@@ATL@@QEAA_NPEAUIUnknown@@@Z 0000000180020470 f i ElectronicJournal.obj
 0001:0001f5c0       ?IsSpace@CRegParser@ATL@@IEAAH_W@Z 00000001800205c0 f i ElectronicJournal.obj
 0001:0001f620       ?IsUpToDate@?$IOleObjectImpl@VCOPOSElectronicJournal@@@ATL@@UEAAJXZ 0000000180020620 f i ElectronicJournal.obj
 0001:0001f690       ?Length@CComBSTR@ATL@@QEBAIXZ 0000000180020690 f i ElectronicJournal.obj
 0001:0001f6d0       ?Load@?$IPersistStorageImpl@VCOPOSElectronicJournal@@@ATL@@UEAAJPEAUIStorage@@@Z 00000001800206d0 f i ElectronicJournal.obj
 0001:0001f880       ?Load@?$IPersistStreamInitImpl@VCOPOSElectronicJournal@@@ATL@@UEAAJPEAUIStream@@@Z 0000000180020880 f i ElectronicJournal.obj
 0001:0001f940       ?LoadCursorW@AtlModuleRegisterWndClassInfoParamW@ATL@@SAPEAUHICON__@@PEAUHINSTANCE__@@PEB_W@Z 0000000180020940 f i ElectronicJournal.obj
 0001:0001f980       ?LoadNameCache@CComTypeInfoHolder@ATL@@QEAAJPEAUITypeInfo@@@Z 0000000180020980 f i ElectronicJournal.obj
 0001:0001fcc0       ?Lock@?$CComCritSecLock@VCComCriticalSection@ATL@@@ATL@@QEAAJXZ 0000000180020cc0 f i ElectronicJournal.obj
 0001:0001fdb0       ?Lock@?$CComObjectRootEx@VCComSingleThreadModel@ATL@@@ATL@@QEAAXXZ 0000000180020db0 f i ElectronicJournal.obj
 0001:0001fdc0       ?Lock@CAtlModule@ATL@@UEAAJXZ 0000000180020dc0 f i ElectronicJournal.obj
 0001:0001fe00       ?Lock@CComCriticalSection@ATL@@QEAAJXZ 0000000180020e00 f i ElectronicJournal.obj
 0001:0001fe40       ?Lock@CComFakeCriticalSection@ATL@@QEAAJXZ 0000000180020e40 f i ElectronicJournal.obj
 0001:0001fe50       ?LockServer@CComClassFactory@ATL@@UEAAJH@Z 0000000180020e50 f i ElectronicJournal.obj
 0001:0001feb0       ?Lookup@?$CSimpleMap@PEA_WPEA_WVCExpansionVectorEqualHelper@ATL@@@ATL@@QEBAPEA_WAEBQEA_W@Z 0000000180020eb0 f i ElectronicJournal.obj
 0001:0001ff10       ?Next@?$CComEnumImpl@UIEnumConnectionPoints@@$1?_GUID_b196b285_bab4_101a_b69c_00aa00341d07@@3U__s_GUID@@BPEAUIConnectionPoint@@V?$_CopyInterface@UIConnectionPoint@@@ATL@@@ATL@@UEAAJKPEAPEAUIConnectionPoint@@PEAK@Z 0000000180020f10 f i ElectronicJournal.obj
 0001:000200d0       ?Next@?$CComEnumImpl@UIEnumConnections@@$1?_GUID_b196b287_bab4_101a_b69c_00aa00341d07@@3U__s_GUID@@BUtagCONNECTDATA@@V?$_Copy@UtagCONNECTDATA@@@ATL@@@ATL@@UEAAJKPEAUtagCONNECTDATA@@PEAK@Z 00000001800210d0 f i ElectronicJournal.obj
 0001:00020290       ?NextToken@CRegParser@ATL@@IEAAJPEA_W@Z 0000000180021290 f i ElectronicJournal.obj
 0001:00020620       ?OLE2CT_EX@@YAPEB_WPEB_WI@Z 0000000180021620 f i ElectronicJournal.obj
 0001:00020640       ?OLE2CT_EX_DEF@@YAPEB_WPEB_W@Z 0000000180021640 f i ElectronicJournal.obj
 0001:00020650       ?OLE2T_EX@@YAPEA_WPEA_WI@Z 0000000180021650 f i ElectronicJournal.obj
 0001:00020670       ?OnAmbientPropertyChange@?$IOleControlImpl@VCOPOSElectronicJournal@@@ATL@@UEAAJJ@Z 0000000180021670 f i ElectronicJournal.obj
 0001:00020730       ?OnDocWindowActivate@?$IOleInPlaceActiveObjectImpl@VCOPOSElectronicJournal@@@ATL@@UEAAJH@Z 0000000180021730 f i ElectronicJournal.obj
 0001:000207f0       ?OnDrawAdvanced@CComControlBase@ATL@@UEAAJAEAUATL_DRAWINFO@@@Z 00000001800217f0 f i ElectronicJournal.obj
 0001:00020a40       ?OnFinalMessage@?$CWindowImplBaseT@VCWindow@ATL@@V?$CWinTraits@$0FGAAAAAA@$0A@@2@@ATL@@UEAAXPEAUHWND__@@@Z 0000000180021a40 f i ElectronicJournal.obj
 0001:00020a50       ?OnFrameWindowActivate@?$IOleInPlaceActiveObjectImpl@VCOPOSElectronicJournal@@@ATL@@UEAAJH@Z 0000000180021a50 f i ElectronicJournal.obj
 0001:00020ac0       ?OnKillFocus@CComControlBase@ATL@@QEAA_JI_K_JAEAH@Z 0000000180021ac0 f i ElectronicJournal.obj
 0001:00020bb0       ?OnMnemonic@?$IOleControlImpl@VCOPOSElectronicJournal@@@ATL@@UEAAJPEAUtagMSG@@@Z 0000000180021bb0 f i ElectronicJournal.obj
 0001:00020c40       ?OnMouseActivate@CComControlBase@ATL@@QEAA_JI_K_JAEAH@Z 0000000180021c40 f i ElectronicJournal.obj
 0001:00020de0       ?OnPaint@CComControlBase@ATL@@QEAA_JI_K_JAEAH@Z 0000000180021de0 f i ElectronicJournal.obj
 0001:00020f70       ?OnPostVerbDiscardUndo@?$IOleObjectImpl@VCOPOSElectronicJournal@@@ATL@@QEAAJXZ 0000000180021f70 f i ElectronicJournal.obj
 0001:00020f80       ?OnPostVerbHide@?$IOleObjectImpl@VCOPOSElectronicJournal@@@ATL@@QEAAJXZ 0000000180021f80 f i ElectronicJournal.obj
 0001:00020f90       ?OnPostVerbInPlaceActivate@?$IOleObjectImpl@VCOPOSElectronicJournal@@@ATL@@QEAAJXZ 0000000180021f90 f i ElectronicJournal.obj
 0001:00020fa0       ?OnPostVerbOpen@?$IOleObjectImpl@VCOPOSElectronicJournal@@@ATL@@QEAAJXZ 0000000180021fa0 f i ElectronicJournal.obj
 0001:00020fb0       ?OnPostVerbShow@?$IOleObjectImpl@VCOPOSElectronicJournal@@@ATL@@QEAAJXZ 0000000180021fb0 f i ElectronicJournal.obj
 0001:00020fc0       ?OnPostVerbUIActivate@?$IOleObjectImpl@VCOPOSElectronicJournal@@@ATL@@QEAAJXZ 0000000180021fc0 f i ElectronicJournal.obj
 0001:00020fd0       ?OnPreVerbDiscardUndo@?$IOleObjectImpl@VCOPOSElectronicJournal@@@ATL@@QEAAJXZ 0000000180021fd0 f i ElectronicJournal.obj
 0001:00020fe0       ?OnPreVerbHide@?$IOleObjectImpl@VCOPOSElectronicJournal@@@ATL@@QEAAJXZ 0000000180021fe0 f i ElectronicJournal.obj
 0001:00020ff0       ?OnPreVerbInPlaceActivate@?$IOleObjectImpl@VCOPOSElectronicJournal@@@ATL@@QEAAJXZ 0000000180021ff0 f i ElectronicJournal.obj
 0001:00021000       ?OnPreVerbOpen@?$IOleObjectImpl@VCOPOSElectronicJournal@@@ATL@@QEAAJXZ 0000000180022000 f i ElectronicJournal.obj
 0001:00021010       ?OnPreVerbShow@?$IOleObjectImpl@VCOPOSElectronicJournal@@@ATL@@QEAAJXZ 0000000180022010 f i ElectronicJournal.obj
 0001:00021020       ?OnPreVerbUIActivate@?$IOleObjectImpl@VCOPOSElectronicJournal@@@ATL@@QEAAJXZ 0000000180022020 f i ElectronicJournal.obj
 0001:00021030       ?OnSetFocus@CComControlBase@ATL@@QEAA_JI_K_JAEAH@Z 0000000180022030 f i ElectronicJournal.obj
 0001:00021230       ?OnWindowMessage@?$IOleInPlaceObjectWindowlessImpl@VCOPOSElectronicJournal@@@ATL@@UEAAJI_K_JPEA_J@Z 0000000180022230 f i ElectronicJournal.obj
 0001:00021450       ?Open@CRegKey@ATL@@QEAAJPEAUHKEY__@@PEB_WK@Z 0000000180022450 f i ElectronicJournal.obj
 0001:000215d0       ?OuterAddRef@CComObjectRootBase@ATL@@QEAAKXZ 00000001800225d0 f i ElectronicJournal.obj
 0001:00021610       ?OuterQueryInterface@CComObjectRootBase@ATL@@QEAAJAEBU_GUID@@PEAPEAX@Z 0000000180022610 f i ElectronicJournal.obj
 0001:00021660       ?OuterRelease@CComObjectRootBase@ATL@@QEAAKXZ 0000000180022660 f i ElectronicJournal.obj
 0001:000216a0       ?PreProcessBuffer@CRegParser@ATL@@QEAAJPEA_WPEAPEA_W@Z 00000001800226a0 f i ElectronicJournal.obj
 0001:00021d80       ?PreTranslateAccelerator@CComControlBase@ATL@@QEAAHPEAUtagMSG@@AEAJ@Z 0000000180022d80 f i ElectronicJournal.obj
 0001:00021da0       ?ProcessWindowMessage@?$CComControl@VCOPOSElectronicJournal@@V?$CWindowImpl@VCOPOSElectronicJournal@@VCWindow@ATL@@V?$CWinTraits@$0FGAAAAAA@$0A@@3@@ATL@@@ATL@@UEAAHPEAUHWND__@@I_K_JAEA_JK@Z 0000000180022da0 f i ElectronicJournal.obj
 0001:00022020       ?ProcessWindowMessage@COPOSElectronicJournal@@UEAAHPEAUHWND__@@I_K_JAEA_JK@Z 0000000180023020 f i ElectronicJournal.obj
 0001:000221a0       ?PutProperty@?$CComPtr@UIDispatch@@@ATL@@QEAAJJPEAUtagVARIANT@@@Z 00000001800231a0 f i ElectronicJournal.obj
 0001:000221f0       ?PutProperty@?$CComPtr@UIDispatch@@@ATL@@SAJPEAUIDispatch@@JPEAUtagVARIANT@@@Z 00000001800231f0 f i ElectronicJournal.obj
 0001:00022490       ?QueryGetData@?$IDataObjectImpl@VCOPOSElectronicJournal@@@ATL@@UEAAJPEAUtagFORMATETC@@@Z 0000000180023490 f i ElectronicJournal.obj
 0001:00022520       ?QueryHitPoint@?$IViewObjectExImpl@VCOPOSElectronicJournal@@@ATL@@UEAAJKPEBUtagRECT@@UtagPOINT@@JPEAK@Z 0000000180023520 f i ElectronicJournal.obj
 0001:00022690       ?QueryHitRect@?$IViewObjectExImpl@VCOPOSElectronicJournal@@@ATL@@UEAAJKPEBUtagRECT@@0JPEAK@Z 0000000180023690 f i ElectronicJournal.obj
 0001:00022860       ?QueryInterface@?$CComAggObject@VCOPOSElectronicJournal@@@ATL@@UEAAJAEBU_GUID@@PEAPEAX@Z 0000000180023860 f i ElectronicJournal.obj
 0001:00022950       ?QueryInterface@?$CComContainedObject@VCOPOSElectronicJournal@@@ATL@@UEAAJAEBU_GUID@@PEAPEAX@Z 0000000180023950 f i ElectronicJournal.obj
 0001:0002299c       ?QueryInterface@?$CComContainedObject@VCOPOSElectronicJournal@@@ATL@@WBAA@EAAJAEBU_GUID@@PEAPEAX@Z 000000018002399c f i ElectronicJournal.obj
 0001:000229a8       ?QueryInterface@?$CComContainedObject@VCOPOSElectronicJournal@@@ATL@@WBAI@EAAJAEBU_GUID@@PEAPEAX@Z 00000001800239a8 f i ElectronicJournal.obj
 0001:000229b4       ?QueryInterface@?$CComContainedObject@VCOPOSElectronicJournal@@@ATL@@WBBA@EAAJAEBU_GUID@@PEAPEAX@Z 00000001800239b4 f i ElectronicJournal.obj
 0001:000229c0       ?QueryInterface@?$CComContainedObject@VCOPOSElectronicJournal@@@ATL@@WBBI@EAAJAEBU_GUID@@PEAPEAX@Z 00000001800239c0 f i ElectronicJournal.obj
 0001:000229cc       ?QueryInterface@?$CComContainedObject@VCOPOSElectronicJournal@@@ATL@@WLI@EAAJAEBU_GUID@@PEAPEAX@Z 00000001800239cc f i ElectronicJournal.obj
 0001:000229d8       ?QueryInterface@?$CComContainedObject@VCOPOSElectronicJournal@@@ATL@@WMA@EAAJAEBU_GUID@@PEAPEAX@Z 00000001800239d8 f i ElectronicJournal.obj
 0001:000229e4       ?QueryInterface@?$CComContainedObject@VCOPOSElectronicJournal@@@ATL@@WMI@EAAJAEBU_GUID@@PEAPEAX@Z 00000001800239e4 f i ElectronicJournal.obj
 0001:000229f0       ?QueryInterface@?$CComContainedObject@VCOPOSElectronicJournal@@@ATL@@WNA@EAAJAEBU_GUID@@PEAPEAX@Z 00000001800239f0 f i ElectronicJournal.obj
 0001:000229fc       ?QueryInterface@?$CComContainedObject@VCOPOSElectronicJournal@@@ATL@@WNI@EAAJAEBU_GUID@@PEAPEAX@Z 00000001800239fc f i ElectronicJournal.obj
 0001:00022a08       ?QueryInterface@?$CComContainedObject@VCOPOSElectronicJournal@@@ATL@@WOA@EAAJAEBU_GUID@@PEAPEAX@Z 0000000180023a08 f i ElectronicJournal.obj
 0001:00022a14       ?QueryInterface@?$CComContainedObject@VCOPOSElectronicJournal@@@ATL@@WOI@EAAJAEBU_GUID@@PEAPEAX@Z 0000000180023a14 f i ElectronicJournal.obj
 0001:00022a20       ?QueryInterface@?$CComContainedObject@VCOPOSElectronicJournal@@@ATL@@WPA@EAAJAEBU_GUID@@PEAPEAX@Z 0000000180023a20 f i ElectronicJournal.obj
 0001:00022a2c       ?QueryInterface@?$CComContainedObject@VCOPOSElectronicJournal@@@ATL@@WPI@EAAJAEBU_GUID@@PEAPEAX@Z 0000000180023a2c f i ElectronicJournal.obj
 0001:00022a40       ?QueryInterface@?$CComObject@V?$CComEnum@UIEnumConnectionPoints@@$1?_GUID_b196b285_bab4_101a_b69c_00aa00341d07@@3U__s_GUID@@BPEAUIConnectionPoint@@V?$_CopyInterface@UIConnectionPoint@@@ATL@@VCComSingleThreadModel@6@@ATL@@@ATL@@UEAAJAEBU_GUID@@PEAPEAX@Z 0000000180023a40 f i ElectronicJournal.obj
 0001:00022a90       ?QueryInterface@?$CComObject@V?$CComEnum@UIEnumConnections@@$1?_GUID_b196b287_bab4_101a_b69c_00aa00341d07@@3U__s_GUID@@BUtagCONNECTDATA@@V?$_Copy@UtagCONNECTDATA@@@ATL@@VCComSingleThreadModel@6@@ATL@@@ATL@@UEAAJAEBU_GUID@@PEAPEAX@Z 0000000180023a90 f i ElectronicJournal.obj
 0001:00022ae0       ?QueryInterface@?$CComObject@VCOPOSElectronicJournal@@@ATL@@UEAAJAEBU_GUID@@PEAPEAX@Z 0000000180023ae0 f i ElectronicJournal.obj
 0001:00022b24       ?QueryInterface@?$CComObject@VCOPOSElectronicJournal@@@ATL@@WBAA@EAAJAEBU_GUID@@PEAPEAX@Z 0000000180023b24 f i ElectronicJournal.obj
 0001:00022b30       ?QueryInterface@?$CComObject@VCOPOSElectronicJournal@@@ATL@@WBAI@EAAJAEBU_GUID@@PEAPEAX@Z 0000000180023b30 f i ElectronicJournal.obj
 0001:00022b3c       ?QueryInterface@?$CComObject@VCOPOSElectronicJournal@@@ATL@@WBBA@EAAJAEBU_GUID@@PEAPEAX@Z 0000000180023b3c f i ElectronicJournal.obj
 0001:00022b48       ?QueryInterface@?$CComObject@VCOPOSElectronicJournal@@@ATL@@WBBI@EAAJAEBU_GUID@@PEAPEAX@Z 0000000180023b48 f i ElectronicJournal.obj
 0001:00022b54       ?QueryInterface@?$CComObject@VCOPOSElectronicJournal@@@ATL@@WLI@EAAJAEBU_GUID@@PEAPEAX@Z 0000000180023b54 f i ElectronicJournal.obj
 0001:00022b60       ?QueryInterface@?$CComObject@VCOPOSElectronicJournal@@@ATL@@WMA@EAAJAEBU_GUID@@PEAPEAX@Z 0000000180023b60 f i ElectronicJournal.obj
 0001:00022b6c       ?QueryInterface@?$CComObject@VCOPOSElectronicJournal@@@ATL@@WMI@EAAJAEBU_GUID@@PEAPEAX@Z 0000000180023b6c f i ElectronicJournal.obj
 0001:00022b78       ?QueryInterface@?$CComObject@VCOPOSElectronicJournal@@@ATL@@WNA@EAAJAEBU_GUID@@PEAPEAX@Z 0000000180023b78 f i ElectronicJournal.obj
 0001:00022b84       ?QueryInterface@?$CComObject@VCOPOSElectronicJournal@@@ATL@@WNI@EAAJAEBU_GUID@@PEAPEAX@Z 0000000180023b84 f i ElectronicJournal.obj
 0001:00022b90       ?QueryInterface@?$CComObject@VCOPOSElectronicJournal@@@ATL@@WOA@EAAJAEBU_GUID@@PEAPEAX@Z 0000000180023b90 f i ElectronicJournal.obj
 0001:00022b9c       ?QueryInterface@?$CComObject@VCOPOSElectronicJournal@@@ATL@@WOI@EAAJAEBU_GUID@@PEAPEAX@Z 0000000180023b9c f i ElectronicJournal.obj
 0001:00022ba8       ?QueryInterface@?$CComObject@VCOPOSElectronicJournal@@@ATL@@WPA@EAAJAEBU_GUID@@PEAPEAX@Z 0000000180023ba8 f i ElectronicJournal.obj
 0001:00022bb4       ?QueryInterface@?$CComObject@VCOPOSElectronicJournal@@@ATL@@WPI@EAAJAEBU_GUID@@PEAPEAX@Z 0000000180023bb4 f i ElectronicJournal.obj
 0001:00022bc0       ?QueryInterface@?$CComObjectCached@VCComClassFactory@ATL@@@ATL@@UEAAJAEBU_GUID@@PEAPEAX@Z 0000000180023bc0 f i ElectronicJournal.obj
 0001:00022c10       ?QueryInterface@CRegObject@ATL@@UEAAJAEBU_GUID@@PEAPEAX@Z 0000000180023c10 f i ElectronicJournal.obj
 0001:00022c90       ?QuickActivate@?$IQuickActivateImpl@VCOPOSElectronicJournal@@@ATL@@UEAAJPEAUtagQACONTAINER@@PEAUtagQACONTROL@@@Z 0000000180023c90 f i ElectronicJournal.obj
 0001:00022d50       ?ReactivateAndUndo@?$IOleInPlaceObjectWindowlessImpl@VCOPOSElectronicJournal@@@ATL@@UEAAJXZ 0000000180023d50 f i ElectronicJournal.obj
 0001:00022dd0       ?ReadFromStream@CComBSTR@ATL@@QEAAJPEAUIStream@@@Z 0000000180023dd0 f i ElectronicJournal.obj
 0001:000232b0       ?ReadFromStream@CComVariant@ATL@@QEAAJPEAUIStream@@GTClassesAllowedInStream@2@K@Z 00000001800242b0 f i ElectronicJournal.obj
 0001:000236e0       ?RecurseDeleteKey@CRegKey@ATL@@QEAAJPEB_W@Z 00000001800246e0 f i ElectronicJournal.obj
 0001:00023900       ?RegCreateKeyExW@CAtlTransactionManager@ATL@@QEAAJPEAUHKEY__@@PEB_WKPEA_WKKQEAU_SECURITY_ATTRIBUTES@@PEAPEAU3@PEAK@Z 0000000180024900 f i ElectronicJournal.obj
 0001:00023ad0       ?RegDeleteKeyW@CAtlTransactionManager@ATL@@QEAAJPEAUHKEY__@@PEB_W@Z 0000000180024ad0 f i ElectronicJournal.obj
 0001:00023be0       ?RegOpenKeyExW@CAtlTransactionManager@ATL@@QEAAJPEAUHKEY__@@PEB_WKKPEAPEAU3@@Z 0000000180024be0 f i ElectronicJournal.obj
 0001:00023d30       ?Register@_ATL_WNDCLASSINFOW@ATL@@QEAAGPEAP6A_JPEAUHWND__@@I_K_J@Z@Z 0000000180024d30 f i ElectronicJournal.obj
 0001:00023d80       ?RegisterBuffer@CRegParser@ATL@@QEAAJPEA_WH@Z 0000000180024d80 f i ElectronicJournal.obj
 0001:00024170       ?RegisterClassExW@AtlModuleRegisterWndClassInfoParamW@ATL@@SAGPEAU_ATL_WIN_MODULE70@2@PEBUtagWNDCLASSEXW@@@Z 0000000180025170 f i ElectronicJournal.obj
 0001:000241b0       ?RegisterFromResource@CRegObject@ATL@@IEAAJPEB_W00H@Z 00000001800251b0 f i ElectronicJournal.obj
 0001:00024610       ?RegisterServer@?$CAtlModuleT@VCComModule@ATL@@@ATL@@QEAAJHPEBU_GUID@@@Z 0000000180025610 f i ElectronicJournal.obj
 0001:00024690       ?RegisterServer@CAtlComModule@ATL@@QEAAJHPEBU_GUID@@@Z 0000000180025690 f i ElectronicJournal.obj
 0001:000246d0       ?RegisterServer@CComModule@ATL@@QEAAJHPEBU_GUID@@@Z 00000001800256d0 f i ElectronicJournal.obj
 0001:000247d0       ?RegisterSubkeys@CRegParser@ATL@@IEAAJPEA_WPEAUHKEY__@@HH@Z 00000001800257d0 f i ElectronicJournal.obj
 0001:000255b0       ?Release@?$CComAggObject@VCOPOSElectronicJournal@@@ATL@@UEAAKXZ 00000001800265b0 f i ElectronicJournal.obj
 0001:00025660       ?Release@?$CComContainedObject@VCOPOSElectronicJournal@@@ATL@@UEAAKXZ 0000000180026660 f i ElectronicJournal.obj
 0001:00025698       ?Release@?$CComContainedObject@VCOPOSElectronicJournal@@@ATL@@WBAA@EAAKXZ 0000000180026698 f i ElectronicJournal.obj
 0001:000256a4       ?Release@?$CComContainedObject@VCOPOSElectronicJournal@@@ATL@@WBAI@EAAKXZ 00000001800266a4 f i ElectronicJournal.obj
 0001:000256b0       ?Release@?$CComContainedObject@VCOPOSElectronicJournal@@@ATL@@WBBA@EAAKXZ 00000001800266b0 f i ElectronicJournal.obj
 0001:000256bc       ?Release@?$CComContainedObject@VCOPOSElectronicJournal@@@ATL@@WBBI@EAAKXZ 00000001800266bc f i ElectronicJournal.obj
 0001:000256c8       ?Release@?$CComContainedObject@VCOPOSElectronicJournal@@@ATL@@WBCI@EAAKXZ 00000001800266c8 f i ElectronicJournal.obj
 0001:000256d4       ?Release@?$CComContainedObject@VCOPOSElectronicJournal@@@ATL@@WBEA@EAAKXZ 00000001800266d4 f i ElectronicJournal.obj
 0001:000256e0       ?Release@?$CComContainedObject@VCOPOSElectronicJournal@@@ATL@@WLI@EAAKXZ 00000001800266e0 f i ElectronicJournal.obj
 0001:000256ec       ?Release@?$CComContainedObject@VCOPOSElectronicJournal@@@ATL@@WMA@EAAKXZ 00000001800266ec f i ElectronicJournal.obj
 0001:000256f8       ?Release@?$CComContainedObject@VCOPOSElectronicJournal@@@ATL@@WMI@EAAKXZ 00000001800266f8 f i ElectronicJournal.obj
 0001:00025704       ?Release@?$CComContainedObject@VCOPOSElectronicJournal@@@ATL@@WNA@EAAKXZ 0000000180026704 f i ElectronicJournal.obj
 0001:00025710       ?Release@?$CComContainedObject@VCOPOSElectronicJournal@@@ATL@@WNI@EAAKXZ 0000000180026710 f i ElectronicJournal.obj
 0001:0002571c       ?Release@?$CComContainedObject@VCOPOSElectronicJournal@@@ATL@@WOA@EAAKXZ 000000018002671c f i ElectronicJournal.obj
 0001:00025728       ?Release@?$CComContainedObject@VCOPOSElectronicJournal@@@ATL@@WOI@EAAKXZ 0000000180026728 f i ElectronicJournal.obj
 0001:00025734       ?Release@?$CComContainedObject@VCOPOSElectronicJournal@@@ATL@@WPA@EAAKXZ 0000000180026734 f i ElectronicJournal.obj
 0001:00025740       ?Release@?$CComContainedObject@VCOPOSElectronicJournal@@@ATL@@WPI@EAAKXZ 0000000180026740 f i ElectronicJournal.obj
 0001:00025750       ?Release@?$CComObject@V?$CComEnum@UIEnumConnectionPoints@@$1?_GUID_b196b285_bab4_101a_b69c_00aa00341d07@@3U__s_GUID@@BPEAUIConnectionPoint@@V?$_CopyInterface@UIConnectionPoint@@@ATL@@VCComSingleThreadModel@6@@ATL@@@ATL@@UEAAKXZ 0000000180026750 f i ElectronicJournal.obj
 0001:00025800       ?Release@?$CComObject@V?$CComEnum@UIEnumConnections@@$1?_GUID_b196b287_bab4_101a_b69c_00aa00341d07@@3U__s_GUID@@BUtagCONNECTDATA@@V?$_Copy@UtagCONNECTDATA@@@ATL@@VCComSingleThreadModel@6@@ATL@@@ATL@@UEAAKXZ 0000000180026800 f i ElectronicJournal.obj
 0001:000258b0       ?Release@?$CComObject@VCOPOSElectronicJournal@@@ATL@@UEAAKXZ 00000001800268b0 f i ElectronicJournal.obj
 0001:00025978       ?Release@?$CComObject@VCOPOSElectronicJournal@@@ATL@@WBAA@EAAKXZ 0000000180026978 f i ElectronicJournal.obj
 0001:00025984       ?Release@?$CComObject@VCOPOSElectronicJournal@@@ATL@@WBAI@EAAKXZ 0000000180026984 f i ElectronicJournal.obj
 0001:00025990       ?Release@?$CComObject@VCOPOSElectronicJournal@@@ATL@@WBBA@EAAKXZ 0000000180026990 f i ElectronicJournal.obj
 0001:0002599c       ?Release@?$CComObject@VCOPOSElectronicJournal@@@ATL@@WBBI@EAAKXZ 000000018002699c f i ElectronicJournal.obj
 0001:000259a8       ?Release@?$CComObject@VCOPOSElectronicJournal@@@ATL@@WBCI@EAAKXZ 00000001800269a8 f i ElectronicJournal.obj
 0001:000259b4       ?Release@?$CComObject@VCOPOSElectronicJournal@@@ATL@@WBEA@EAAKXZ 00000001800269b4 f i ElectronicJournal.obj
 0001:000259c0       ?Release@?$CComObject@VCOPOSElectronicJournal@@@ATL@@WLI@EAAKXZ 00000001800269c0 f i ElectronicJournal.obj
 0001:000259cc       ?Release@?$CComObject@VCOPOSElectronicJournal@@@ATL@@WMA@EAAKXZ 00000001800269cc f i ElectronicJournal.obj
 0001:000259d8       ?Release@?$CComObject@VCOPOSElectronicJournal@@@ATL@@WMI@EAAKXZ 00000001800269d8 f i ElectronicJournal.obj
 0001:000259e4       ?Release@?$CComObject@VCOPOSElectronicJournal@@@ATL@@WNA@EAAKXZ 00000001800269e4 f i ElectronicJournal.obj
 0001:000259f0       ?Release@?$CComObject@VCOPOSElectronicJournal@@@ATL@@WNI@EAAKXZ 00000001800269f0 f i ElectronicJournal.obj
 0001:000259fc       ?Release@?$CComObject@VCOPOSElectronicJournal@@@ATL@@WOA@EAAKXZ 00000001800269fc f i ElectronicJournal.obj
 0001:00025a08       ?Release@?$CComObject@VCOPOSElectronicJournal@@@ATL@@WOI@EAAKXZ 0000000180026a08 f i ElectronicJournal.obj
 0001:00025a14       ?Release@?$CComObject@VCOPOSElectronicJournal@@@ATL@@WPA@EAAKXZ 0000000180026a14 f i ElectronicJournal.obj
 0001:00025a20       ?Release@?$CComObject@VCOPOSElectronicJournal@@@ATL@@WPI@EAAKXZ 0000000180026a20 f i ElectronicJournal.obj
 0001:00025a30       ?Release@?$CComObjectCached@VCComClassFactory@ATL@@@ATL@@UEAAKXZ 0000000180026a30 f i ElectronicJournal.obj
 0001:00025ae0       ?Release@?$CComPtrBase@UIAdviseSink@@@ATL@@QEAAXXZ 0000000180026ae0 f i ElectronicJournal.obj
 0001:00025b40       ?Release@?$CComPtrBase@UIDispatch@@@ATL@@QEAAXXZ 0000000180026b40 f i ElectronicJournal.obj
 0001:00025ba0       ?Release@?$CComPtrBase@UIOleInPlaceSiteWindowless@@@ATL@@QEAAXXZ 0000000180026ba0 f i ElectronicJournal.obj
 0001:00025c00       ?Release@CRegObject@ATL@@UEAAKXZ 0000000180026c00 f i ElectronicJournal.obj
 0001:00025c70       ?Remove@CComDynamicUnkArray@ATL@@QEAAHK@Z 0000000180026c70 f i ElectronicJournal.obj
 0001:00025d50       ?RemoveAll@?$CSimpleMap@PEA_WPEA_WVCExpansionVectorEqualHelper@ATL@@@ATL@@QEAAXXZ 0000000180026d50 f i ElectronicJournal.obj
 0001:00025df0       ?Reset@?$CComEnumImpl@UIEnumConnectionPoints@@$1?_GUID_b196b285_bab4_101a_b69c_00aa00341d07@@3U__s_GUID@@BPEAUIConnectionPoint@@V?$_CopyInterface@UIConnectionPoint@@@ATL@@@ATL@@UEAAJXZ 0000000180026df0 f i ElectronicJournal.obj
 0001:00025e10       ?Reset@?$CComEnumImpl@UIEnumConnections@@$1?_GUID_b196b287_bab4_101a_b69c_00aa00341d07@@3U__s_GUID@@BUtagCONNECTDATA@@V?$_Copy@UtagCONNECTDATA@@@ATL@@@ATL@@UEAAJXZ 0000000180026e10 f i ElectronicJournal.obj
 0001:00025e30       ?ResizeBorder@?$IOleInPlaceActiveObjectImpl@VCOPOSElectronicJournal@@@ATL@@UEAAJPEBUtagRECT@@PEAUIOleInPlaceUIWindow@@H@Z 0000000180026e30 f i ElectronicJournal.obj
 0001:00025eb0       ?ResourceRegister@CRegObject@ATL@@QEAAJPEB_WI0@Z 0000000180026eb0 f i ElectronicJournal.obj
 0001:00025f90       ?ResourceRegisterSz@CRegObject@ATL@@QEAAJPEB_W00@Z 0000000180026f90 f i ElectronicJournal.obj
 0001:000260b0       ?ResourceUnregister@CRegObject@ATL@@QEAAJPEB_WI0@Z 00000001800270b0 f i ElectronicJournal.obj
 0001:00026190       ?ResourceUnregisterSz@CRegObject@ATL@@QEAAJPEB_W00@Z 0000000180027190 f i ElectronicJournal.obj
 0001:000262b0       ?SOData@COPOSElectronicJournal@@MEAAJJ@Z 00000001800272b0 f i ElectronicJournal.obj
 0001:00026350       ?SODirectIO@COPOSElectronicJournal@@MEAAJJPEAJPEAPEA_W@Z 0000000180027350 f i ElectronicJournal.obj
 0001:00026590       ?SOError@COPOSElectronicJournal@@MEAAJJJJPEAJ@Z 0000000180027590 f i ElectronicJournal.obj
 0001:000266a0       ?SOOutputComplete@COPOSElectronicJournal@@MEAAJJ@Z 00000001800276a0 f i ElectronicJournal.obj
 0001:00026740       ?SOStatusUpdate@COPOSElectronicJournal@@MEAAJJ@Z 0000000180027740 f i ElectronicJournal.obj
 0001:000267e0       ?Save@?$IPersistStorageImpl@VCOPOSElectronicJournal@@@ATL@@UEAAJPEAUIStorage@@H@Z 00000001800277e0 f i ElectronicJournal.obj
 0001:000269a0       ?Save@?$IPersistStreamInitImpl@VCOPOSElectronicJournal@@@ATL@@UEAAJPEAUIStream@@H@Z 00000001800279a0 f i ElectronicJournal.obj
 0001:00026a60       ?SaveCompleted@?$IPersistStorageImpl@VCOPOSElectronicJournal@@@ATL@@UEAAJPEAUIStorage@@@Z 0000000180027a60 f i ElectronicJournal.obj
 0001:00026ad0       ?SendOnDataChange@CComControlBase@ATL@@QEAAJK@Z 0000000180027ad0 f i ElectronicJournal.obj
 0001:00026bc0       ?SendOnSave@CComControlBase@ATL@@QEAAJXZ 0000000180027bc0 f i ElectronicJournal.obj
 0001:00026c30       ?SendOnViewChange@CComControlBase@ATL@@QEAAJKJ@Z 0000000180027c30 f i ElectronicJournal.obj
 0001:00026cb0       ?SetAdvise@?$IViewObjectExImpl@VCOPOSElectronicJournal@@@ATL@@UEAAJKKPEAUIAdviseSink@@@Z 0000000180027cb0 f i ElectronicJournal.obj
 0001:00026d70       ?SetClientSite@?$IOleObjectImpl@VCOPOSElectronicJournal@@@ATL@@UEAAJPEAUIOleClientSite@@@Z 0000000180027d70 f i ElectronicJournal.obj
 0001:00026e20       ?SetColorScheme@?$IOleObjectImpl@VCOPOSElectronicJournal@@@ATL@@UEAAJPEAUtagLOGPALETTE@@@Z 0000000180027e20 f i ElectronicJournal.obj
 0001:00026eb0       ?SetContentExtent@?$IQuickActivateImpl@VCOPOSElectronicJournal@@@ATL@@UEAAJPEAUtagSIZE@@@Z 0000000180027eb0 f i ElectronicJournal.obj
 0001:00026f70       ?SetControlFocus@CComControlBase@ATL@@QEAAHH@Z 0000000180027f70 f i ElectronicJournal.obj
 0001:00027100       ?SetDWORDValue@CRegKey@ATL@@QEAAJPEB_WK@Z 0000000180028100 f i ElectronicJournal.obj
 0001:000271b0       ?SetData@?$IDataObjectImpl@VCOPOSElectronicJournal@@@ATL@@UEAAJPEAUtagFORMATETC@@PEAUtagSTGMEDIUM@@H@Z 00000001800281b0 f i ElectronicJournal.obj
 0001:00027240       ?SetExtent@?$IOleObjectImpl@VCOPOSElectronicJournal@@@ATL@@UEAAJKPEAUtagSIZE@@@Z 0000000180028240 f i ElectronicJournal.obj
 0001:00027300       ?SetHostNames@?$IOleObjectImpl@VCOPOSElectronicJournal@@@ATL@@UEAAJPEB_W0@Z 0000000180028300 f i ElectronicJournal.obj
 0001:00027380       ?SetInterfaceSafetyOptions@?$IObjectSafetyImpl@VCOPOSElectronicJournal@@$02@ATL@@UEAAJAEBU_GUID@@KK@Z 0000000180028380 f i ElectronicJournal.obj
 0001:00027520       ?SetMoniker@?$IOleObjectImpl@VCOPOSElectronicJournal@@@ATL@@UEAAJKPEAUIMoniker@@@Z 0000000180028520 f i ElectronicJournal.obj
 0001:000275b0       ?SetMultiStringValue@CRegKey@ATL@@QEAAJPEB_W0@Z 00000001800285b0 f i ElectronicJournal.obj
 0001:00027720       ?SetObjectRects@?$IOleInPlaceObjectWindowlessImpl@VCOPOSElectronicJournal@@@ATL@@UEAAJPEBUtagRECT@@0@Z 0000000180028720 f i ElectronicJournal.obj
 0001:000277e0       ?SetStringValue@CRegKey@ATL@@QEAAJPEB_W0K@Z 00000001800287e0 f i ElectronicJournal.obj
 0001:00027960       ?SetVoid@CComClassFactory@ATL@@QEAAXPEAX@Z 0000000180028960 f i ElectronicJournal.obj
 0001:00027980       ?SetVoid@CComObjectRootBase@ATL@@QEAAXPEAX@Z 0000000180028980 f i ElectronicJournal.obj
 0001:00027990       ?ShowWindow@CWindow@ATL@@QEAAHH@Z 0000000180028990 f i ElectronicJournal.obj
 0001:00027a20       ?Skip@?$CComEnumImpl@UIEnumConnectionPoints@@$1?_GUID_b196b285_bab4_101a_b69c_00aa00341d07@@3U__s_GUID@@BPEAUIConnectionPoint@@V?$_CopyInterface@UIConnectionPoint@@@ATL@@@ATL@@UEAAJK@Z 0000000180028a20 f i ElectronicJournal.obj
 0001:00027ac0       ?Skip@?$CComEnumImpl@UIEnumConnections@@$1?_GUID_b196b287_bab4_101a_b69c_00aa00341d07@@3U__s_GUID@@BUtagCONNECTDATA@@V?$_Copy@UtagCONNECTDATA@@@ATL@@@ATL@@UEAAJK@Z 0000000180028ac0 f i ElectronicJournal.obj
 0001:00027b60       ?SkipAssignment@CRegParser@ATL@@IEAAJPEA_W@Z 0000000180028b60 f i ElectronicJournal.obj
 0001:00027c60       ?SkipWhiteSpace@CRegParser@ATL@@IEAAXXZ 0000000180028c60 f i ElectronicJournal.obj
 0001:00027cc0       ?StartWindowProc@?$CWindowImplBaseT@VCWindow@ATL@@V?$CWinTraits@$0FGAAAAAA@$0A@@2@@ATL@@SA_JPEAUHWND__@@I_K_J@Z 0000000180028cc0 f i ElectronicJournal.obj
 0001:00027e30       ?StrChrW@CRegParser@ATL@@KAPEA_WPEA_W_W@Z 0000000180028e30 f i ElectronicJournal.obj
 0001:00027eb0       ?StrFromMap@CRegObject@ATL@@QEAAPEB_WPEA_W@Z 0000000180028eb0 f i ElectronicJournal.obj
 0001:00027f70       ?Swap@?$CComPtrBase@UIAdviseSink@@@ATL@@IEAAXAEAV12@@Z 0000000180028f70 f i ElectronicJournal.obj
 0001:00027fd0       ?Swap@?$CComPtrBase@UIOleClientSite@@@ATL@@IEAAXAEAV12@@Z 0000000180028fd0 f i ElectronicJournal.obj
 0001:00028030       ?Swap@?$CComPtrBase@UIUnknown@@@ATL@@IEAAXAEAV12@@Z 0000000180029030 f i ElectronicJournal.obj
 0001:00028090       ?T2COLE_EX@@YAPEB_WPEB_WI@Z 0000000180029090 f i ElectronicJournal.obj
 0001:000280b0       ?T2OLE_EX@@YAPEA_WPEA_WI@Z 00000001800290b0 f i ElectronicJournal.obj
 0001:000280d0       ?Term@CAtlModule@ATL@@QEAAXXZ 00000001800290d0 f i ElectronicJournal.obj
 0001:00028190       ?Term@CComModule@ATL@@QEAAXXZ 0000000180029190 f i ElectronicJournal.obj
 0001:00028280       ?TranslateAcceleratorW@?$IOleInPlaceActiveObjectImpl@VCOPOSElectronicJournal@@@ATL@@UEAAJPEAUtagMSG@@@Z 0000000180029280 f i ElectronicJournal.obj
 0001:000284f0       ?UIDeactivate@?$IOleInPlaceObjectWindowlessImpl@VCOPOSElectronicJournal@@@ATL@@UEAAJXZ 00000001800294f0 f i ElectronicJournal.obj
 0001:000285a0       ?Unadvise@?$CProxy_IOPOSEvents@VCOPOSElectronicJournal@@@@UEAAJK@Z 00000001800295a0 f i ElectronicJournal.obj
 0001:000285f0       ?Unadvise@?$IConnectionPointImpl@VCOPOSElectronicJournal@@$1?DIID__IOPOSElectronicJournalEvents@@3U_GUID@@BVCComDynamicUnkArray@ATL@@@ATL@@UEAAJK@Z 00000001800295f0 f i ElectronicJournal.obj
 0001:000286e0       ?Unadvise@?$IConnectionPointImpl@VCOPOSElectronicJournal@@$1?IID_IPropertyNotifySink@@3U_GUID@@BVCComDynamicUnkArray@ATL@@@ATL@@UEAAJK@Z 00000001800296e0 f i ElectronicJournal.obj
 0001:000287d0       ?Unadvise@?$IOleObjectImpl@VCOPOSElectronicJournal@@@ATL@@UEAAJK@Z 00000001800297d0 f i ElectronicJournal.obj
 0001:000288c0       ?Unfreeze@?$IViewObjectExImpl@VCOPOSElectronicJournal@@@ATL@@UEAAJK@Z 00000001800298c0 f i ElectronicJournal.obj
 0001:00028940       ?Unlock@?$CComCritSecLock@VCComCriticalSection@ATL@@@ATL@@QEAAXXZ 0000000180029940 f i ElectronicJournal.obj
 0001:000289d0       ?Unlock@?$CComObjectRootEx@VCComSingleThreadModel@ATL@@@ATL@@QEAAXXZ 00000001800299d0 f i ElectronicJournal.obj
 0001:000289e0       ?Unlock@CAtlModule@ATL@@UEAAJXZ 00000001800299e0 f i ElectronicJournal.obj
 0001:00028a20       ?Unlock@CComCriticalSection@ATL@@QEAAJXZ 0000000180029a20 f i ElectronicJournal.obj
 0001:00028a60       ?Unlock@CComFakeCriticalSection@ATL@@QEAAJXZ 0000000180029a60 f i ElectronicJournal.obj
 0001:00028a70       ?UnregisterServer@?$CAtlModuleT@VCComModule@ATL@@@ATL@@QEAAJHPEBU_GUID@@@Z 0000000180029a70 f i ElectronicJournal.obj
 0001:00028ae0       ?UnregisterServer@CAtlComModule@ATL@@QEAAJHPEBU_GUID@@@Z 0000000180029ae0 f i ElectronicJournal.obj
 0001:00028b20       ?UnregisterServer@CComModule@ATL@@QEAAJHPEBU_GUID@@@Z 0000000180029b20 f i ElectronicJournal.obj
 0001:00028c10       ?Update@?$IOleObjectImpl@VCOPOSElectronicJournal@@@ATL@@UEAAJXZ 0000000180029c10 f i ElectronicJournal.obj
 0001:00028c80       ?UpdateRegistryFromResource@CAtlModule@ATL@@QEAAJIHPEAU_ATL_REGMAP_ENTRY@2@@Z 0000000180029c80 f i ElectronicJournal.obj
 0001:000291b0       ?UpdateRegistryFromResource@CAtlModule@ATL@@QEAAJPEB_WHPEAU_ATL_REGMAP_ENTRY@2@@Z 000000018002a1b0 f i ElectronicJournal.obj
 0001:00029700       ?UpdateRegistryFromResource@CComModule@ATL@@UEAAJIHPEAU_ATL_REGMAP_ENTRY@2@@Z 000000018002a700 f i ElectronicJournal.obj
 0001:00029750       ?UpdateRegistryFromResource@CComModule@ATL@@UEAAJPEB_WHPEAU_ATL_REGMAP_ENTRY@2@@Z 000000018002a750 f i ElectronicJournal.obj
 0001:000297a0       ?UpdateRegistryFromResourceD@CComModule@ATL@@UEAAJIHPEAU_ATL_REGMAP_ENTRY@2@@Z 000000018002a7a0 f i ElectronicJournal.obj
 0001:000297c0       ?UpdateRegistryFromResourceD@CComModule@ATL@@UEAAJPEB_WHPEAU_ATL_REGMAP_ENTRY@2@@Z 000000018002a7c0 f i ElectronicJournal.obj
 0001:000297e0       ?VTFromRegType@CRegParser@ATL@@KAHPEB_WAEAG@Z 000000018002a7e0 f i ElectronicJournal.obj
 0001:000298c0       ?WindowProc@?$CWindowImplBaseT@VCWindow@ATL@@V?$CWinTraits@$0FGAAAAAA@$0A@@2@@ATL@@SA_JPEAUHWND__@@I_K_J@Z 000000018002a8c0 f i ElectronicJournal.obj
 0001:00029ba0       ?WriteToStream@CComBSTR@ATL@@QEAAJPEAUIStream@@@Z 000000018002aba0 f i ElectronicJournal.obj
 0001:00029d10       ?WriteToStream@CComVariant@ATL@@QEAAJPEAUIStream@@@Z 000000018002ad10 f i ElectronicJournal.obj
 0001:0002a120       ?WriteToStream@CComVariant@ATL@@QEAAJPEAUIStream@@G@Z 000000018002b120 f i ElectronicJournal.obj
 0001:0002a200       ?_AtlFinalConstruct@CComObjectRootBase@ATL@@QEAAJXZ 000000018002b200 f i ElectronicJournal.obj
 0001:0002a210       ?_AtlGetConversionACP@ATL@@YAIXZ 000000018002b210 f i ElectronicJournal.obj
 0001:0002a220       ?_AtlInitialConstruct@?$CComAggObject@VCOPOSElectronicJournal@@@ATL@@QEAAJXZ 000000018002b220 f i ElectronicJournal.obj
 0001:0002a280       ?_AtlInitialConstruct@?$CComObjectRootEx@VCComMultiThreadModel@ATL@@@ATL@@QEAAJXZ 000000018002b280 f i ElectronicJournal.obj
 0001:0002a2c0       ?_AtlInitialConstruct@?$CComObjectRootEx@VCComSingleThreadModel@ATL@@@ATL@@QEAAJXZ 000000018002b2c0 f i ElectronicJournal.obj
 0001:0002a2d0       ?_AtlVerifyStackAvailable@_ATL_SAFE_ALLOCA_IMPL@ATL@@YA_N_K@Z 000000018002b2d0 f i ElectronicJournal.obj
 0001:0002a430       ?_GetEntries@?$CComEnum@UIEnumConnectionPoints@@$1?_GUID_b196b285_bab4_101a_b69c_00aa00341d07@@3U__s_GUID@@BPEAUIConnectionPoint@@V?$_CopyInterface@UIConnectionPoint@@@ATL@@VCComSingleThreadModel@6@@ATL@@SAPEBU_ATL_INTMAP_ENTRY@2@XZ 000000018002b430 f i ElectronicJournal.obj
 0001:0002a450       ?_GetEntries@?$CComEnum@UIEnumConnections@@$1?_GUID_b196b287_bab4_101a_b69c_00aa00341d07@@3U__s_GUID@@BUtagCONNECTDATA@@V?$_Copy@UtagCONNECTDATA@@@ATL@@VCComSingleThreadModel@6@@ATL@@SAPEBU_ATL_INTMAP_ENTRY@2@XZ 000000018002b450 f i ElectronicJournal.obj
 0001:0002a470       ?_GetEntries@CComClassFactory@ATL@@SAPEBU_ATL_INTMAP_ENTRY@2@XZ 000000018002b470 f i ElectronicJournal.obj
 0001:0002a490       ?_GetEntries@COPOSElectronicJournal@@SAPEBU_ATL_INTMAP_ENTRY@ATL@@XZ 000000018002b490 f i ElectronicJournal.obj
 0001:0002a4b0       ?_GetRawUnknown@COPOSElectronicJournal@@QEAAPEAUIUnknown@@XZ 000000018002b4b0 f i ElectronicJournal.obj
 0001:0002a540       ?_GetViewStatus@COPOSElectronicJournal@@QEAAKXZ 000000018002b540 f i ElectronicJournal.obj
 0001:0002a550       ?_InternalQueryInterface@?$CComEnum@UIEnumConnectionPoints@@$1?_GUID_b196b285_bab4_101a_b69c_00aa00341d07@@3U__s_GUID@@BPEAUIConnectionPoint@@V?$_CopyInterface@UIConnectionPoint@@@ATL@@VCComSingleThreadModel@6@@ATL@@QEAAJAEBU_GUID@@PEAPEAX@Z 000000018002b550 f i ElectronicJournal.obj
 0001:0002a5a0       ?_InternalQueryInterface@?$CComEnum@UIEnumConnections@@$1?_GUID_b196b287_bab4_101a_b69c_00aa00341d07@@3U__s_GUID@@BUtagCONNECTDATA@@V?$_Copy@UtagCONNECTDATA@@@ATL@@VCComSingleThreadModel@6@@ATL@@QEAAJAEBU_GUID@@PEAPEAX@Z 000000018002b5a0 f i ElectronicJournal.obj
 0001:0002a5f0       ?_InternalQueryInterface@CComClassFactory@ATL@@QEAAJAEBU_GUID@@PEAPEAX@Z 000000018002b5f0 f i ElectronicJournal.obj
 0001:0002a640       ?_InternalQueryInterface@COPOSElectronicJournal@@QEAAJAEBU_GUID@@PEAPEAX@Z 000000018002b640 f i ElectronicJournal.obj
 0001:0002a690       ?_LocCPQueryInterface@?$IConnectionPointImpl@VCOPOSElectronicJournal@@$1?DIID__IOPOSElectronicJournalEvents@@3U_GUID@@BVCComDynamicUnkArray@ATL@@@ATL@@UEAAJAEBU_GUID@@PEAPEAX@Z 000000018002b690 f i ElectronicJournal.obj
 0001:0002a770       ?_LocCPQueryInterface@?$IConnectionPointImpl@VCOPOSElectronicJournal@@$1?IID_IPropertyNotifySink@@3U_GUID@@BVCComDynamicUnkArray@ATL@@@ATL@@UEAAJAEBU_GUID@@PEAPEAX@Z 000000018002b770 f i ElectronicJournal.obj
 0001:0002a850       ?atlCreate@?$CWindowImpl@VCOPOSElectronicJournal@@VCWindow@ATL@@V?$CWinTraits@$0FGAAAAAA@$0A@@3@@ATL@@QEAAPEAUHWND__@@PEAU3@V_U_RECT@2@PEB_WKKV_U_MENUorID@2@PEAX@Z 000000018002b850 f i ElectronicJournal.obj
 0001:0002a980       ?atlCreate@?$CWindowImplBaseT@VCWindow@ATL@@V?$CWinTraits@$0FGAAAAAA@$0A@@2@@ATL@@QEAAPEAUHWND__@@PEAU3@V_U_RECT@2@PEB_WKKV_U_MENUorID@2@GPEAX@Z 000000018002b980 f i ElectronicJournal.obj
 0001:0002abe0       ?atlCreate@CRegKey@ATL@@QEAAJPEAUHKEY__@@PEB_WPEA_WKKPEAU_SECURITY_ATTRIBUTES@@PEAK@Z 000000018002bbe0 f i ElectronicJournal.obj
 0001:0002add0       ?begin@CComDynamicUnkArray@ATL@@QEAAPEAPEAUIUnknown@@XZ 000000018002bdd0 f i ElectronicJournal.obj
 0001:0002ade0       ?copy@?$_Copy@UtagCONNECTDATA@@@ATL@@SAJPEAUtagCONNECTDATA@@PEBU3@@Z 000000018002bde0 f i ElectronicJournal.obj
 0001:0002aed0       ?copy@?$_CopyInterface@UIConnectionPoint@@@ATL@@SAJPEAPEAUIConnectionPoint@@PEBQEAU3@@Z 000000018002bed0 f i ElectronicJournal.obj
 0001:0002afc0       ?destroy@?$_Copy@UtagCONNECTDATA@@@ATL@@SAXPEAUtagCONNECTDATA@@@Z 000000018002bfc0 f i ElectronicJournal.obj
 0001:0002b010       ?destroy@?$_CopyInterface@UIConnectionPoint@@@ATL@@SAXPEAPEAUIConnectionPoint@@@Z 000000018002c010 f i ElectronicJournal.obj
 0001:0002b060       ?end@CComDynamicUnkArray@ATL@@QEAAPEAPEAUIUnknown@@XZ 000000018002c060 f i ElectronicJournal.obj
 0001:0002b080       ?init@?$_Copy@UtagCONNECTDATA@@@ATL@@SAXPEAUtagCONNECTDATA@@@Z 000000018002c080 f i ElectronicJournal.obj
 0001:0002b090       ?init@?$_CopyInterface@UIConnectionPoint@@@ATL@@SAXPEAPEAUIConnectionPoint@@@Z 000000018002c090 f i ElectronicJournal.obj
 0001:0002b0a0       ?memcpy_s@Checked@ATL@@YAXPEAX_KPEBX1@Z 000000018002c0a0 f i ElectronicJournal.obj
 0001:0002b100       ?ocscpy_s@@YA_NPEA_W_KPEB_W@Z 000000018002c100 f i ElectronicJournal.obj
 0001:0002b180       ?ocslen@@YAHPEB_W@Z        000000018002c180 f i ElectronicJournal.obj
 0001:0002b1c0       ?tcsncpy_s@Checked@ATL@@YAHPEA_W_KPEB_W1@Z 000000018002c1c0 f i ElectronicJournal.obj
 0001:0002b220       ?wcscat_s@Checked@ATL@@YAXPEA_W_KPEB_W@Z 000000018002c220 f i ElectronicJournal.obj
 0001:0002b270       ?wcscpy_s@Checked@ATL@@YAXPEA_W_KPEB_W@Z 000000018002c270 f i ElectronicJournal.obj
 0001:0002b2c0       ?wcsncpy_s@Checked@ATL@@YAHPEA_W_KPEB_W1@Z 000000018002c2c0 f i ElectronicJournal.obj
 0001:0002b320       ?wcsstr@@YAPEA_WPEA_WPEB_W@Z 000000018002c320 f i ElectronicJournal.obj
 0001:0002b360       InlineIsEqualGUID          000000018002c360 f i ElectronicJournal.obj
 0001:0002b430       IsEqualGUID                000000018002c430 f i ElectronicJournal.obj
 0001:0002b490       ??0COPOSElectronicJournal@@QEAA@XZ 000000018002c490 f   ElectronicJournalImpl.obj
 0001:0002b610       ?FinalConstruct@COPOSElectronicJournal@@QEAAJXZ 000000018002c610 f   ElectronicJournalImpl.obj
 0001:0002b700       ??1COPOSElectronicJournal@@UEAA@XZ 000000018002c700 f   ElectronicJournalImpl.obj
 0001:0002b7e0       ?WriteTrace@COPOSElectronicJournal@@QEAAXPEB_WZZ 000000018002c7e0 f   ElectronicJournalImpl.obj
 0001:0002b8a0       ?WriteTraceString@COPOSElectronicJournal@@QEAAXPEB_WPEA_W@Z 000000018002c8a0 f   ElectronicJournalImpl.obj
 0001:0002bce0       ?WriteTraceString@COPOSElectronicJournal@@QEAAXPEAXHHHPEB_WZZ 000000018002cce0 f   ElectronicJournalImpl.obj
 0001:0002bf70       ?WriteTraceError@COPOSElectronicJournal@@QEAAXPEB_WK@Z 000000018002cf70 f   ElectronicJournalImpl.obj
 0001:0002c070       ?WriteTraceMethods@COPOSElectronicJournal@@QEAAXPEAJH@Z 000000018002d070 f   ElectronicJournalImpl.obj
 0001:0002c100       ?FormatCurrency@COPOSElectronicJournal@@QEAAPEB_WTtagCY@@@Z 000000018002d100 f   ElectronicJournalImpl.obj
 0001:0002c220       ?GetOposProp@COPOSElectronicJournal@@IEAAJPEBDJPEAJJ@Z 000000018002d220 f   ElectronicJournalImpl.obj
 0001:0002c540       ?SetOposProp@COPOSElectronicJournal@@IEAAJPEBDJJJ@Z 000000018002d540 f   ElectronicJournalImpl.obj
 0001:0002c8a0       ?GetOposProp@COPOSElectronicJournal@@IEAAJPEBDJPEAFJ@Z 000000018002d8a0 f   ElectronicJournalImpl.obj
 0001:0002c940       ?SetOposProp@COPOSElectronicJournal@@IEAAJPEBDJFJ@Z 000000018002d940 f   ElectronicJournalImpl.obj
 0001:0002c9c0       ?GetOposProp@COPOSElectronicJournal@@IEAAJPEBDJPEAPEA_WJ@Z 000000018002d9c0 f   ElectronicJournalImpl.obj
 0001:0002cce0       ?SetOposProp@COPOSElectronicJournal@@IEAAJPEBDJPEA_WJ@Z 000000018002dce0 f   ElectronicJournalImpl.obj
 0001:0002d0c0       ?DoInvoke@COPOSElectronicJournal@@IEAAJPEBDJPEAVOposVariant@@IHPEAJ_N@Z 000000018002e0c0 f   ElectronicJournalImpl.obj
 0001:0002dd20       ?SetCOFreezeEvents@COPOSElectronicJournal@@IEAAXF@Z 000000018002ed20 f   ElectronicJournalImpl.obj
 0001:0002deb0       ?FreezeEvents@COPOSElectronicJournal@@MEAAJH@Z 000000018002eeb0 f   ElectronicJournalImpl.obj
 0001:0002dfe0       ?OnDraw@COPOSElectronicJournal@@MEAAJAEAUATL_DRAWINFO@@@Z 000000018002efe0 f   ElectronicJournalImpl.obj
 0001:0002e1b0       ?SOProcessID@COPOSElectronicJournal@@UEAAJPEAJ@Z 000000018002f1b0 f   ElectronicJournalImpl.obj
 0001:0002e210       ?get_OpenResult@COPOSElectronicJournal@@UEAAJPEAJ@Z 000000018002f210 f   ElectronicJournalImpl.obj
 0001:0002e270       ?get_AutoDisable@COPOSElectronicJournal@@UEAAJPEAF@Z 000000018002f270 f   ElectronicJournalImpl.obj
 0001:0002e2d0       ?put_AutoDisable@COPOSElectronicJournal@@UEAAJF@Z 000000018002f2d0 f   ElectronicJournalImpl.obj
 0001:0002e330       ?get_BinaryConversion@COPOSElectronicJournal@@UEAAJPEAJ@Z 000000018002f330 f   ElectronicJournalImpl.obj
 0001:0002e390       ?put_BinaryConversion@COPOSElectronicJournal@@UEAAJJ@Z 000000018002f390 f   ElectronicJournalImpl.obj
 0001:0002e400       ?get_CapPowerReporting@COPOSElectronicJournal@@UEAAJPEAJ@Z 000000018002f400 f   ElectronicJournalImpl.obj
 0001:0002e460       ?get_CheckHealthText@COPOSElectronicJournal@@UEAAJPEAPEA_W@Z 000000018002f460 f   ElectronicJournalImpl.obj
 0001:0002e4c0       ?get_Claimed@COPOSElectronicJournal@@UEAAJPEAF@Z 000000018002f4c0 f   ElectronicJournalImpl.obj
 0001:0002e520       ?get_DataCount@COPOSElectronicJournal@@UEAAJPEAJ@Z 000000018002f520 f   ElectronicJournalImpl.obj
 0001:0002e580       ?get_DataEventEnabled@COPOSElectronicJournal@@UEAAJPEAF@Z 000000018002f580 f   ElectronicJournalImpl.obj
 0001:0002e5e0       ?put_DataEventEnabled@COPOSElectronicJournal@@UEAAJF@Z 000000018002f5e0 f   ElectronicJournalImpl.obj
 0001:0002e640       ?get_DeviceEnabled@COPOSElectronicJournal@@UEAAJPEAF@Z 000000018002f640 f   ElectronicJournalImpl.obj
 0001:0002e6a0       ?put_DeviceEnabled@COPOSElectronicJournal@@UEAAJF@Z 000000018002f6a0 f   ElectronicJournalImpl.obj
 0001:0002e700       ?get_FreezeEvents@COPOSElectronicJournal@@UEAAJPEAF@Z 000000018002f700 f   ElectronicJournalImpl.obj
 0001:0002e760       ?put_FreezeEvents@COPOSElectronicJournal@@UEAAJF@Z 000000018002f760 f   ElectronicJournalImpl.obj
 0001:0002e840       ?get_OutputID@COPOSElectronicJournal@@UEAAJPEAJ@Z 000000018002f840 f   ElectronicJournalImpl.obj
 0001:0002e8a0       ?get_PowerNotify@COPOSElectronicJournal@@UEAAJPEAJ@Z 000000018002f8a0 f   ElectronicJournalImpl.obj
 0001:0002e900       ?put_PowerNotify@COPOSElectronicJournal@@UEAAJJ@Z 000000018002f900 f   ElectronicJournalImpl.obj
 0001:0002e960       ?get_PowerState@COPOSElectronicJournal@@UEAAJPEAJ@Z 000000018002f960 f   ElectronicJournalImpl.obj
 0001:0002e9c0       ?get_ResultCode@COPOSElectronicJournal@@UEAAJPEAJ@Z 000000018002f9c0 f   ElectronicJournalImpl.obj
 0001:0002ea90       ?get_ResultCodeExtended@COPOSElectronicJournal@@UEAAJPEAJ@Z 000000018002fa90 f   ElectronicJournalImpl.obj
 0001:0002eaf0       ?get_State@COPOSElectronicJournal@@UEAAJPEAJ@Z 000000018002faf0 f   ElectronicJournalImpl.obj
 0001:0002eb80       ?get_ControlObjectDescription@COPOSElectronicJournal@@UEAAJPEAPEA_W@Z 000000018002fb80 f   ElectronicJournalImpl.obj
 0001:0002ec00       ?get_ControlObjectVersion@COPOSElectronicJournal@@UEAAJPEAJ@Z 000000018002fc00 f   ElectronicJournalImpl.obj
 0001:0002ec60       ?get_ServiceObjectDescription@COPOSElectronicJournal@@UEAAJPEAPEA_W@Z 000000018002fc60 f   ElectronicJournalImpl.obj
 0001:0002ecc0       ?get_ServiceObjectVersion@COPOSElectronicJournal@@UEAAJPEAJ@Z 000000018002fcc0 f   ElectronicJournalImpl.obj
 0001:0002ed20       ?get_DeviceDescription@COPOSElectronicJournal@@UEAAJPEAPEA_W@Z 000000018002fd20 f   ElectronicJournalImpl.obj
 0001:0002ed80       ?get_DeviceName@COPOSElectronicJournal@@UEAAJPEAPEA_W@Z 000000018002fd80 f   ElectronicJournalImpl.obj
 0001:0002ede0       ?get_CapStatisticsReporting@COPOSElectronicJournal@@UEAAJPEAF@Z 000000018002fde0 f   ElectronicJournalImpl.obj
 0001:0002ee40       ?get_CapUpdateStatistics@COPOSElectronicJournal@@UEAAJPEAF@Z 000000018002fe40 f   ElectronicJournalImpl.obj
 0001:0002eea0       ?get_CapCompareFirmwareVersion@COPOSElectronicJournal@@UEAAJPEAF@Z 000000018002fea0 f   ElectronicJournalImpl.obj
 0001:0002ef00       ?get_CapUpdateFirmware@COPOSElectronicJournal@@UEAAJPEAF@Z 000000018002ff00 f   ElectronicJournalImpl.obj
 0001:0002ef60       ?CheckHealth@COPOSElectronicJournal@@UEAAJJPEAJ@Z 000000018002ff60 f   ElectronicJournalImpl.obj
 0001:0002f020       ?ClaimDevice@COPOSElectronicJournal@@UEAAJJPEAJ@Z 0000000180030020 f   ElectronicJournalImpl.obj
 0001:0002f140       ?ClearInput@COPOSElectronicJournal@@UEAAJPEAJ@Z 0000000180030140 f   ElectronicJournalImpl.obj
 0001:0002f1b0       ?ClearOutput@COPOSElectronicJournal@@UEAAJPEAJ@Z 00000001800301b0 f   ElectronicJournalImpl.obj
 0001:0002f220       ?Close@COPOSElectronicJournal@@UEAAJPEAJ@Z 0000000180030220 f   ElectronicJournalImpl.obj
 0001:0002f330       ?DirectIO@COPOSElectronicJournal@@UEAAJJPEAJPEAPEA_W0@Z 0000000180030330 f   ElectronicJournalImpl.obj
 0001:0002f4b0       ?Open@COPOSElectronicJournal@@UEAAJPEA_WPEAJ@Z 00000001800304b0 f   ElectronicJournalImpl.obj
 0001:00030990       ?ReleaseDevice@COPOSElectronicJournal@@UEAAJPEAJ@Z 0000000180031990 f   ElectronicJournalImpl.obj
 0001:00030a40       ?ResetStatistics@COPOSElectronicJournal@@UEAAJPEA_WPEAJ@Z 0000000180031a40 f   ElectronicJournalImpl.obj
 0001:00030b20       ?RetrieveStatistics@COPOSElectronicJournal@@UEAAJPEAPEA_WPEAJ@Z 0000000180031b20 f   ElectronicJournalImpl.obj
 0001:00030c00       ?UpdateStatistics@COPOSElectronicJournal@@UEAAJPEA_WPEAJ@Z 0000000180031c00 f   ElectronicJournalImpl.obj
 0001:00030ce0       ?CompareFirmwareVersion@COPOSElectronicJournal@@UEAAJPEA_WPEAJ1@Z 0000000180031ce0 f   ElectronicJournalImpl.obj
 0001:00030e20       ?UpdateFirmware@COPOSElectronicJournal@@UEAAJPEA_WPEAJ@Z 0000000180031e20 f   ElectronicJournalImpl.obj
 0001:00030f00       ?get_AsyncMode@COPOSElectronicJournal@@UEAAJPEAF@Z 0000000180031f00 f   ElectronicJournalImpl.obj
 0001:00030f60       ?put_AsyncMode@COPOSElectronicJournal@@UEAAJF@Z 0000000180031f60 f   ElectronicJournalImpl.obj
 0001:00030fc0       ?get_CapAddMarker@COPOSElectronicJournal@@UEAAJPEAF@Z 0000000180031fc0 f   ElectronicJournalImpl.obj
 0001:00031020       ?get_CapErasableMedium@COPOSElectronicJournal@@UEAAJPEAF@Z 0000000180032020 f   ElectronicJournalImpl.obj
 0001:00031080       ?get_CapInitializeMedium@COPOSElectronicJournal@@UEAAJPEAF@Z 0000000180032080 f   ElectronicJournalImpl.obj
 0001:000310e0       ?get_CapMediumIsAvailable@COPOSElectronicJournal@@UEAAJPEAF@Z 00000001800320e0 f   ElectronicJournalImpl.obj
 0001:00031140       ?get_CapPrintContent@COPOSElectronicJournal@@UEAAJPEAF@Z 0000000180032140 f   ElectronicJournalImpl.obj
 0001:000311a0       ?get_CapPrintContentFile@COPOSElectronicJournal@@UEAAJPEAF@Z 00000001800321a0 f   ElectronicJournalImpl.obj
 0001:00031200       ?get_CapRetrieveCurrentMarker@COPOSElectronicJournal@@UEAAJPEAF@Z 0000000180032200 f   ElectronicJournalImpl.obj
 0001:00031260       ?get_CapRetrieveMarker@COPOSElectronicJournal@@UEAAJPEAF@Z 0000000180032260 f   ElectronicJournalImpl.obj
 0001:000312c0       ?get_CapRetrieveMarkerByDateTime@COPOSElectronicJournal@@UEAAJPEAF@Z 00000001800322c0 f   ElectronicJournalImpl.obj
 0001:00031320       ?get_CapRetrieveMarkersDateTime@COPOSElectronicJournal@@UEAAJPEAF@Z 0000000180032320 f   ElectronicJournalImpl.obj
 0001:00031380       ?get_CapStation@COPOSElectronicJournal@@UEAAJPEAJ@Z 0000000180032380 f   ElectronicJournalImpl.obj
 0001:000313e0       ?get_CapStorageEnabled@COPOSElectronicJournal@@UEAAJPEAF@Z 00000001800323e0 f   ElectronicJournalImpl.obj
 0001:00031440       ?get_CapSuspendPrintContent@COPOSElectronicJournal@@UEAAJPEAF@Z 0000000180032440 f   ElectronicJournalImpl.obj
 0001:000314a0       ?get_CapSuspendQueryContent@COPOSElectronicJournal@@UEAAJPEAF@Z 00000001800324a0 f   ElectronicJournalImpl.obj
 0001:00031500       ?get_CapWaterMark@COPOSElectronicJournal@@UEAAJPEAF@Z 0000000180032500 f   ElectronicJournalImpl.obj
 0001:00031560       ?get_FlagWhenIdle@COPOSElectronicJournal@@UEAAJPEAF@Z 0000000180032560 f   ElectronicJournalImpl.obj
 0001:000315c0       ?put_FlagWhenIdle@COPOSElectronicJournal@@UEAAJF@Z 00000001800325c0 f   ElectronicJournalImpl.obj
 0001:00031620       ?get_MediumFreeSpace@COPOSElectronicJournal@@UEAAJPEATtagCY@@@Z 0000000180032620 f   ElectronicJournalImpl.obj
 0001:00031870       ?get_MediumID@COPOSElectronicJournal@@UEAAJPEAPEA_W@Z 0000000180032870 f   ElectronicJournalImpl.obj
 0001:000318d0       ?get_MediumIsAvailable@COPOSElectronicJournal@@UEAAJPEAF@Z 00000001800328d0 f   ElectronicJournalImpl.obj
 0001:00031930       ?get_MediumSize@COPOSElectronicJournal@@UEAAJPEATtagCY@@@Z 0000000180032930 f   ElectronicJournalImpl.obj
 0001:00031b80       ?get_Station@COPOSElectronicJournal@@UEAAJPEAJ@Z 0000000180032b80 f   ElectronicJournalImpl.obj
 0001:00031be0       ?put_Station@COPOSElectronicJournal@@UEAAJJ@Z 0000000180032be0 f   ElectronicJournalImpl.obj
 0001:00031c40       ?get_StorageEnabled@COPOSElectronicJournal@@UEAAJPEAF@Z 0000000180032c40 f   ElectronicJournalImpl.obj
 0001:00031ca0       ?put_StorageEnabled@COPOSElectronicJournal@@UEAAJF@Z 0000000180032ca0 f   ElectronicJournalImpl.obj
 0001:00031d00       ?get_Suspended@COPOSElectronicJournal@@UEAAJPEAF@Z 0000000180032d00 f   ElectronicJournalImpl.obj
 0001:00031d60       ?get_WaterMark@COPOSElectronicJournal@@UEAAJPEAF@Z 0000000180032d60 f   ElectronicJournalImpl.obj
 0001:00031dc0       ?put_WaterMark@COPOSElectronicJournal@@UEAAJF@Z 0000000180032dc0 f   ElectronicJournalImpl.obj
 0001:00031e20       ?AddMarker@COPOSElectronicJournal@@UEAAJPEA_WPEAJ@Z 0000000180032e20 f   ElectronicJournalImpl.obj
 0001:00031f00       ?CancelPrintContent@COPOSElectronicJournal@@UEAAJPEAJ@Z 0000000180032f00 f   ElectronicJournalImpl.obj
 0001:00031f70       ?CancelQueryContent@COPOSElectronicJournal@@UEAAJPEAJ@Z 0000000180032f70 f   ElectronicJournalImpl.obj
 0001:00031fe0       ?EraseMedium@COPOSElectronicJournal@@UEAAJPEAJ@Z 0000000180032fe0 f   ElectronicJournalImpl.obj
 0001:00032050       ?InitializeMedium@COPOSElectronicJournal@@UEAAJPEA_WPEAJ@Z 0000000180033050 f   ElectronicJournalImpl.obj
 0001:00032130       ?PrintContent@COPOSElectronicJournal@@UEAAJPEA_W0PEAJ@Z 0000000180033130 f   ElectronicJournalImpl.obj
 0001:00032270       ?PrintContentFile@COPOSElectronicJournal@@UEAAJPEA_WPEAJ@Z 0000000180033270 f   ElectronicJournalImpl.obj
 0001:00032350       ?QueryContent@COPOSElectronicJournal@@UEAAJPEA_W00PEAJ@Z 0000000180033350 f   ElectronicJournalImpl.obj
 0001:000324d0       ?ResumePrintContent@COPOSElectronicJournal@@UEAAJPEAJ@Z 00000001800334d0 f   ElectronicJournalImpl.obj
 0001:00032540       ?ResumeQueryContent@COPOSElectronicJournal@@UEAAJPEAJ@Z 0000000180033540 f   ElectronicJournalImpl.obj
 0001:000325b0       ?RetrieveCurrentMarker@COPOSElectronicJournal@@UEAAJJPEAPEA_WPEAJ@Z 00000001800335b0 f   ElectronicJournalImpl.obj
 0001:000326e0       ?RetrieveMarker@COPOSElectronicJournal@@UEAAJJJJPEAPEA_WPEAJ@Z 00000001800336e0 f   ElectronicJournalImpl.obj
 0001:00032870       ?RetrieveMarkerByDateTime@COPOSElectronicJournal@@UEAAJJPEA_W0PEAPEA_WPEAJ@Z 0000000180033870 f   ElectronicJournalImpl.obj
 0001:00032a10       ?RetrieveMarkersDateTime@COPOSElectronicJournal@@UEAAJPEA_WPEAPEA_WPEAJ@Z 0000000180033a10 f   ElectronicJournalImpl.obj
 0001:00032b50       ?SuspendPrintContent@COPOSElectronicJournal@@UEAAJPEAJ@Z 0000000180033b50 f   ElectronicJournalImpl.obj
 0001:00032bc0       ?SuspendQueryContent@COPOSElectronicJournal@@UEAAJPEAJ@Z 0000000180033bc0 f   ElectronicJournalImpl.obj
 0001:00032c20       ??0?$CComControl@VCOPOSElectronicJournal@@V?$CWindowImpl@VCOPOSElectronicJournal@@VCWindow@ATL@@V?$CWinTraits@$0FGAAAAAA@$0A@@3@@ATL@@@ATL@@QEAA@XZ 0000000180033c20 f i ElectronicJournalImpl.obj
 0001:00032c70       ??0?$CComPtr@UIAdviseSink@@@ATL@@QEAA@XZ 0000000180033c70 f i ElectronicJournalImpl.obj
 0001:00032cb0       ??0?$CComPtr@UIDataAdviseHolder@@@ATL@@QEAA@XZ 0000000180033cb0 f i ElectronicJournalImpl.obj
 0001:00032cf0       ??0?$CComPtr@UIOleAdviseHolder@@@ATL@@QEAA@XZ 0000000180033cf0 f i ElectronicJournalImpl.obj
 0001:00032d30       ??0?$CComPtr@UIOleClientSite@@@ATL@@QEAA@XZ 0000000180033d30 f i ElectronicJournalImpl.obj
 0001:00032d70       ??0?$CComPtr@UIOleInPlaceSiteWindowless@@@ATL@@QEAA@XZ 0000000180033d70 f i ElectronicJournalImpl.obj
 0001:00032db0       ??0?$CComPtrBase@UIAdviseSink@@@ATL@@IEAA@XZ 0000000180033db0 f i ElectronicJournalImpl.obj
 0001:00032dd0       ??0?$CComPtrBase@UIDataAdviseHolder@@@ATL@@IEAA@XZ 0000000180033dd0 f i ElectronicJournalImpl.obj
 0001:00032df0       ??0?$CComPtrBase@UIOleAdviseHolder@@@ATL@@IEAA@XZ 0000000180033df0 f i ElectronicJournalImpl.obj
 0001:00032e10       ??0?$CComPtrBase@UIOleClientSite@@@ATL@@IEAA@XZ 0000000180033e10 f i ElectronicJournalImpl.obj
 0001:00032e30       ??0?$CComPtrBase@UIOleInPlaceSiteWindowless@@@ATL@@IEAA@XZ 0000000180033e30 f i ElectronicJournalImpl.obj
 0001:00032e50       ??0?$CComQIPtr@UIDispatch@@$1?_GUID_00020400_0000_0000_c000_000000000046@@3U__s_GUID@@B@ATL@@QEAA@XZ 0000000180033e50 f i ElectronicJournalImpl.obj
 0001:00032e90       ??0?$CProxy_IOPOSEvents@VCOPOSElectronicJournal@@@@QEAA@PEAVCOPOSElectronicJournal@@@Z 0000000180033e90 f i ElectronicJournalImpl.obj
 0001:00032f30       ??0?$CWindowImpl@VCOPOSElectronicJournal@@VCWindow@ATL@@V?$CWinTraits@$0FGAAAAAA@$0A@@3@@ATL@@QEAA@XZ 0000000180033f30 f i ElectronicJournalImpl.obj
 0001:00032f70       ??0?$CWindowImplBaseT@VCWindow@ATL@@V?$CWinTraits@$0FGAAAAAA@$0A@@2@@ATL@@QEAA@XZ 0000000180033f70 f i ElectronicJournalImpl.obj
 0001:00032fc0       ??0?$CWindowImplRoot@VCWindow@ATL@@@ATL@@QEAA@XZ 0000000180033fc0 f i ElectronicJournalImpl.obj
 0001:00033030       ??0?$IConnectionPointContainerImpl@VCOPOSElectronicJournal@@@ATL@@QEAA@XZ 0000000180034030 f i ElectronicJournalImpl.obj
 0001:00033070       ??0?$IConnectionPointImpl@VCOPOSElectronicJournal@@$1?DIID__IOPOSElectronicJournalEvents@@3U_GUID@@BVCComDynamicUnkArray@ATL@@@ATL@@QEAA@XZ 0000000180034070 f i ElectronicJournalImpl.obj
 0001:000330c0       ??0?$IConnectionPointImpl@VCOPOSElectronicJournal@@$1?IID_IPropertyNotifySink@@3U_GUID@@BVCComDynamicUnkArray@ATL@@@ATL@@QEAA@XZ 00000001800340c0 f i ElectronicJournalImpl.obj
 0001:00033110       ??0?$IDataObjectImpl@VCOPOSElectronicJournal@@@ATL@@QEAA@XZ 0000000180034110 f i ElectronicJournalImpl.obj
 0001:00033150       ??0?$IDispatchImpl@UIOPOSElectronicJournal@@$1?IID_IOPOSElectronicJournal@@3U_GUID@@B$1?LIBID_OposElectronicJournal_CCO@@3U3@B$00$0A@VCComTypeInfoHolder@ATL@@@ATL@@QEAA@XZ 0000000180034150 f i ElectronicJournalImpl.obj
 0001:00033190       ??0?$IObjectSafetyImpl@VCOPOSElectronicJournal@@$02@ATL@@QEAA@XZ 0000000180034190 f i ElectronicJournalImpl.obj
 0001:000331d0       ??0?$IOleControlImpl@VCOPOSElectronicJournal@@@ATL@@QEAA@XZ 00000001800341d0 f i ElectronicJournalImpl.obj
 0001:00033210       ??0?$IOleInPlaceActiveObjectImpl@VCOPOSElectronicJournal@@@ATL@@QEAA@XZ 0000000180034210 f i ElectronicJournalImpl.obj
 0001:00033250       ??0?$IOleInPlaceObjectWindowlessImpl@VCOPOSElectronicJournal@@@ATL@@QEAA@XZ 0000000180034250 f i ElectronicJournalImpl.obj
 0001:00033290       ??0?$IOleObjectImpl@VCOPOSElectronicJournal@@@ATL@@QEAA@XZ 0000000180034290 f i ElectronicJournalImpl.obj
 0001:000332d0       ??0?$IPersistStorageImpl@VCOPOSElectronicJournal@@@ATL@@QEAA@XZ 00000001800342d0 f i ElectronicJournalImpl.obj
 0001:00033310       ??0?$IPersistStreamInitImpl@VCOPOSElectronicJournal@@@ATL@@QEAA@XZ 0000000180034310 f i ElectronicJournalImpl.obj
 0001:00033350       ??0?$IPropertyNotifySinkCP@VCOPOSElectronicJournal@@VCComDynamicUnkArray@ATL@@@ATL@@QEAA@XZ 0000000180034350 f i ElectronicJournalImpl.obj
 0001:00033390       ??0?$IProvideClassInfo2Impl@$1?CLSID_OPOSElectronicJournal@@3U_GUID@@B$1?DIID__IOPOSElectronicJournalEvents@@3U2@B$1?LIBID_OposElectronicJournal_CCO@@3U2@B$00$0A@VCComTypeInfoHolder@ATL@@@ATL@@QEAA@XZ 0000000180034390 f i ElectronicJournalImpl.obj
 0001:000333d0       ??0?$IQuickActivateImpl@VCOPOSElectronicJournal@@@ATL@@QEAA@XZ 00000001800343d0 f i ElectronicJournalImpl.obj
 0001:00033410       ??0?$ISpecifyPropertyPagesImpl@VCOPOSElectronicJournal@@@ATL@@QEAA@XZ 0000000180034410 f i ElectronicJournalImpl.obj
 0001:00033450       ??0?$IViewObjectExImpl@VCOPOSElectronicJournal@@@ATL@@QEAA@XZ 0000000180034450 f i ElectronicJournalImpl.obj
 0001:00033490       ??0?$_ICPLocator@$1?DIID__IOPOSElectronicJournalEvents@@3U_GUID@@B@ATL@@QEAA@XZ 0000000180034490 f i ElectronicJournalImpl.obj
 0001:000334a0       ??0?$_ICPLocator@$1?IID_IPropertyNotifySink@@3U_GUID@@B@ATL@@QEAA@XZ 00000001800344a0 f i ElectronicJournalImpl.obj
 0001:000334b0       ??0CComControlBase@ATL@@QEAA@AEAPEAUHWND__@@@Z 00000001800344b0 f i ElectronicJournalImpl.obj
 0001:000336d0       ??0CComDynamicUnkArray@ATL@@QEAA@XZ 00000001800346d0 f i ElectronicJournalImpl.obj
 0001:00033700       ??0CDynamicStdCallThunk2@ATL@@QEAA@XZ 0000000180034700 f i ElectronicJournalImpl.obj
 0001:00033720       ??0CMessageMap@ATL@@QEAA@XZ 0000000180034720 f i ElectronicJournalImpl.obj
 0001:00033730       ??0CWindow@ATL@@QEAA@PEAUHWND__@@@Z 0000000180034730 f i ElectronicJournalImpl.obj
 0001:00033750       ??0CWndProcThunk@ATL@@QEAA@XZ 0000000180034750 f i ElectronicJournalImpl.obj
 0001:00033790       ??0IConnectionPointContainer@@QEAA@XZ 0000000180034790 f i ElectronicJournalImpl.obj
 0001:000337d0       ??0IDataObject@@QEAA@XZ    00000001800347d0 f i ElectronicJournalImpl.obj
 0001:00033810       ??0IDispatch@@QEAA@XZ      0000000180034810 f i ElectronicJournalImpl.obj
 0001:00033850       ??0IOPOSElectronicJournal@@QEAA@XZ 0000000180034850 f i ElectronicJournalImpl.obj
 0001:00033890       ??0IOPOSElectronicJournal_1_10@@QEAA@XZ 0000000180034890 f i ElectronicJournalImpl.obj
 0001:000338d0       ??0IObjectSafety@@QEAA@XZ  00000001800348d0 f i ElectronicJournalImpl.obj
 0001:00033910       ??0IOleControl@@QEAA@XZ    0000000180034910 f i ElectronicJournalImpl.obj
 0001:00033950       ??0IOleInPlaceActiveObject@@QEAA@XZ 0000000180034950 f i ElectronicJournalImpl.obj
 0001:00033990       ??0IOleInPlaceObject@@QEAA@XZ 0000000180034990 f i ElectronicJournalImpl.obj
 0001:000339d0       ??0IOleInPlaceObjectWindowless@@QEAA@XZ 00000001800349d0 f i ElectronicJournalImpl.obj
 0001:00033a10       ??0IOleObject@@QEAA@XZ     0000000180034a10 f i ElectronicJournalImpl.obj
 0001:00033a50       ??0IOleWindow@@QEAA@XZ     0000000180034a50 f i ElectronicJournalImpl.obj
 0001:00033a90       ??0IPersist@@QEAA@XZ       0000000180034a90 f i ElectronicJournalImpl.obj
 0001:00033ad0       ??0IPersistStorage@@QEAA@XZ 0000000180034ad0 f i ElectronicJournalImpl.obj
 0001:00033b10       ??0IPersistStreamInit@@QEAA@XZ 0000000180034b10 f i ElectronicJournalImpl.obj
 0001:00033b50       ??0IProvideClassInfo2@@QEAA@XZ 0000000180034b50 f i ElectronicJournalImpl.obj
 0001:00033b90       ??0IProvideClassInfo@@QEAA@XZ 0000000180034b90 f i ElectronicJournalImpl.obj
 0001:00033bd0       ??0IQuickActivate@@QEAA@XZ 0000000180034bd0 f i ElectronicJournalImpl.obj
 0001:00033c10       ??0ISpecifyPropertyPages@@QEAA@XZ 0000000180034c10 f i ElectronicJournalImpl.obj
 0001:00033c50       ??0IViewObject2@@QEAA@XZ   0000000180034c50 f i ElectronicJournalImpl.obj
 0001:00033c90       ??0IViewObject@@QEAA@XZ    0000000180034c90 f i ElectronicJournalImpl.obj
 0001:00033cd0       ??0IViewObjectEx@@QEAA@XZ  0000000180034cd0 f i ElectronicJournalImpl.obj
 0001:00033d10       ??0OposVariantResult@@QEAA@XZ 0000000180034d10 f i ElectronicJournalImpl.obj
 0001:00033d50       ??0_CW@@QEAA@PEBD@Z        0000000180034d50 f i ElectronicJournalImpl.obj
 0001:00033da0       ??0_CW@@QEAA@PEB_W@Z       0000000180034da0 f i ElectronicJournalImpl.obj
 0001:00033df0       ??0_CWNCC@@QEAA@PEBD@Z     0000000180034df0 f i ElectronicJournalImpl.obj
 0001:00033e30       ??1?$CComControl@VCOPOSElectronicJournal@@V?$CWindowImpl@VCOPOSElectronicJournal@@VCWindow@ATL@@V?$CWinTraits@$0FGAAAAAA@$0A@@3@@ATL@@@ATL@@UEAA@XZ 0000000180034e30 f i ElectronicJournalImpl.obj
 0001:00033e70       ??1?$CComPtr@UIDataAdviseHolder@@@ATL@@QEAA@XZ 0000000180034e70 f i ElectronicJournalImpl.obj
 0001:00033ea0       ??1?$CComPtr@UIOleAdviseHolder@@@ATL@@QEAA@XZ 0000000180034ea0 f i ElectronicJournalImpl.obj
 0001:00033ed0       ??1?$CComPtr@UIOleInPlaceSiteWindowless@@@ATL@@QEAA@XZ 0000000180034ed0 f i ElectronicJournalImpl.obj
 0001:00033f00       ??1?$CComPtrBase@UIDataAdviseHolder@@@ATL@@QEAA@XZ 0000000180034f00 f i ElectronicJournalImpl.obj
 0001:00033f50       ??1?$CComPtrBase@UIOleAdviseHolder@@@ATL@@QEAA@XZ 0000000180034f50 f i ElectronicJournalImpl.obj
 0001:00033fa0       ??1?$CComPtrBase@UIOleInPlaceSiteWindowless@@@ATL@@QEAA@XZ 0000000180034fa0 f i ElectronicJournalImpl.obj
 0001:00033ff0       ??1?$CComQIPtr@UIDispatch@@$1?_GUID_00020400_0000_0000_c000_000000000046@@3U__s_GUID@@B@ATL@@QEAA@XZ 0000000180034ff0 f i ElectronicJournalImpl.obj
 0001:00034020       ??1?$CProxy_IOPOSEvents@VCOPOSElectronicJournal@@@@QEAA@XZ 0000000180035020 f i ElectronicJournalImpl.obj
 0001:00034050       ??1?$CWindowImpl@VCOPOSElectronicJournal@@VCWindow@ATL@@V?$CWinTraits@$0FGAAAAAA@$0A@@3@@ATL@@UEAA@XZ 0000000180035050 f i ElectronicJournalImpl.obj
 0001:00034080       ??1?$CWindowImplBaseT@VCWindow@ATL@@V?$CWinTraits@$0FGAAAAAA@$0A@@2@@ATL@@UEAA@XZ 0000000180035080 f i ElectronicJournalImpl.obj
 0001:000340b0       ??1?$CWindowImplRoot@VCWindow@ATL@@@ATL@@UEAA@XZ 00000001800350b0 f i ElectronicJournalImpl.obj
 0001:00034170       ??1?$IConnectionPointImpl@VCOPOSElectronicJournal@@$1?DIID__IOPOSElectronicJournalEvents@@3U_GUID@@BVCComDynamicUnkArray@ATL@@@ATL@@QEAA@XZ 0000000180035170 f i ElectronicJournalImpl.obj
 0001:00034210       ??1?$IConnectionPointImpl@VCOPOSElectronicJournal@@$1?IID_IPropertyNotifySink@@3U_GUID@@BVCComDynamicUnkArray@ATL@@@ATL@@QEAA@XZ 0000000180035210 f i ElectronicJournalImpl.obj
 0001:000342b0       ??1?$IPropertyNotifySinkCP@VCOPOSElectronicJournal@@VCComDynamicUnkArray@ATL@@@ATL@@QEAA@XZ 00000001800352b0 f i ElectronicJournalImpl.obj
 0001:000342e0       ??1CComControlBase@ATL@@UEAA@XZ 00000001800352e0 f i ElectronicJournalImpl.obj
 0001:000343d0       ??1CComDynamicUnkArray@ATL@@QEAA@XZ 00000001800353d0 f i ElectronicJournalImpl.obj
 0001:00034410       ??1CDynamicStdCallThunk2@ATL@@QEAA@XZ 0000000180035410 f i ElectronicJournalImpl.obj
 0001:00034450       ??1CWndProcThunk@ATL@@QEAA@XZ 0000000180035450 f i ElectronicJournalImpl.obj
 0001:00034490       ??1OposVariantResult@@QEAA@XZ 0000000180035490 f i ElectronicJournalImpl.obj
 0001:000344d0       ??1_CW@@QEAA@XZ            00000001800354d0 f i ElectronicJournalImpl.obj
 0001:00034550       ??1_CWNCC@@QEAA@XZ         0000000180035550 f i ElectronicJournalImpl.obj
 0001:00034580       ??B_CW@@QEAAPEB_WXZ        0000000180035580 f i ElectronicJournalImpl.obj
 0001:000345d0       ??B_CWNCC@@QEAAPEA_WXZ     00000001800355d0 f i ElectronicJournalImpl.obj
 0001:00034600       ??_EOposVariant@@QEAAPEAXI@Z 0000000180035600 f i ElectronicJournalImpl.obj
 0001:000346b0       ?EventClaim@COPOSElectronicJournal@@IEAAXXZ 00000001800356b0 f i ElectronicJournalImpl.obj
 0001:00034700       ?EventClose@COPOSElectronicJournal@@IEAAXXZ 0000000180035700 f i ElectronicJournalImpl.obj
 0001:000347a0       ?EventInit@COPOSElectronicJournal@@IEAAJXZ 00000001800357a0 f i ElectronicJournalImpl.obj
 0001:00034a50       ?EventOpen@COPOSElectronicJournal@@IEAAXXZ 0000000180035a50 f i ElectronicJournalImpl.obj
 0001:00034a90       ?EventPreCloseRelease@COPOSElectronicJournal@@IEAAXXZ 0000000180035a90 f i ElectronicJournalImpl.obj
 0001:00034b10       ?EventUninit@COPOSElectronicJournal@@IEAAXXZ 0000000180035b10 f i ElectronicJournalImpl.obj
 0001:00034c40       ?EventWindowProc@COPOSElectronicJournal@@IEAA_JI_K_J@Z 0000000180035c40 f i ElectronicJournalImpl.obj
 0001:00034e70       ?FireEventCleanup@COPOSElectronicJournal@@IEAAXXZ 0000000180035e70 f i ElectronicJournalImpl.obj
 0001:00034ec0       ?FireEventSetup@COPOSElectronicJournal@@IEAA_NXZ 0000000180035ec0 f i ElectronicJournalImpl.obj
 0001:00034f40       ?GetModuleInstance@CComModule@ATL@@QEAAPEAUHINSTANCE__@@XZ 0000000180035f40 f i ElectronicJournalImpl.obj
 0001:00034f50       ?SetRC@COPOSElectronicJournal@@IEAAJJ@Z 0000000180035f50 f i ElectronicJournalImpl.obj
 0001:00034f70       ?s_EventWindowProc@COPOSElectronicJournal@@KA_JPEAUHWND__@@I_K_J@Z 0000000180035f70 f i ElectronicJournalImpl.obj
 0001:00035020       _snwprintf                 0000000180036020 f i ElectronicJournalImpl.obj
 0001:000350b0       _vfwprintf_l               00000001800360b0 f i ElectronicJournalImpl.obj
 0001:00035110       _vsnwprintf                0000000180036110 f i ElectronicJournalImpl.obj
 0001:00035170       _vsnwprintf_l              0000000180036170 f i ElectronicJournalImpl.obj
 0001:00035200       vfwprintf                  0000000180036200 f i ElectronicJournalImpl.obj
 0001:00035245       DebugBreak                 0000000180036245 f   kernel32:KERNEL32.dll
 0001:0003524b       Sleep                      000000018003624b f   kernel32:KERNEL32.dll
 0001:00035251       GetCurrentProcess          0000000180036251 f   kernel32:KERNEL32.dll
 0001:00035257       TerminateProcess           0000000180036257 f   kernel32:KERNEL32.dll
 0001:0003525d       MultiByteToWideChar        000000018003625d f   kernel32:KERNEL32.dll
 0001:00035263       WideCharToMultiByte        0000000180036263 f   kernel32:KERNEL32.dll
 0001:00035269       DecodePointer              0000000180036269 f   kernel32:KERNEL32.dll
 0001:0003526f       RaiseException             000000018003626f f   kernel32:KERNEL32.dll
 0001:00035275       GetLastError               0000000180036275 f   kernel32:KERNEL32.dll
 0001:0003527b       SetLastError               000000018003627b f   kernel32:KERNEL32.dll
 0001:00035281       InitializeCriticalSectionEx 0000000180036281 f   kernel32:KERNEL32.dll
 0001:00035287       DeleteCriticalSection      0000000180036287 f   kernel32:KERNEL32.dll
 0001:0003528d       EncodePointer              000000018003628d f   kernel32:KERNEL32.dll
 0001:00035293       EnterCriticalSection       0000000180036293 f   kernel32:KERNEL32.dll
 0001:00035299       LeaveCriticalSection       0000000180036299 f   kernel32:KERNEL32.dll
 0001:0003529f       ResetEvent                 000000018003629f f   kernel32:KERNEL32.dll
 0001:000352a5       ReleaseMutex               00000001800362a5 f   kernel32:KERNEL32.dll
 0001:000352ab       WaitForSingleObject        00000001800362ab f   kernel32:KERNEL32.dll
 0001:000352b1       GetCurrentThreadId         00000001800362b1 f   kernel32:KERNEL32.dll
 0001:000352b7       DisableThreadLibraryCalls  00000001800362b7 f   kernel32:KERNEL32.dll
 0001:000352bd       FreeLibrary                00000001800362bd f   kernel32:KERNEL32.dll
 0001:000352c3       GetModuleFileNameW         00000001800362c3 f   kernel32:KERNEL32.dll
 0001:000352c9       GetModuleHandleW           00000001800362c9 f   kernel32:KERNEL32.dll
 0001:000352cf       GetProcAddress             00000001800362cf f   kernel32:KERNEL32.dll
 0001:000352d5       LoadLibraryExW             00000001800362d5 f   kernel32:KERNEL32.dll
 0001:000352db       LoadResource               00000001800362db f   kernel32:KERNEL32.dll
 0001:000352e1       SizeofResource             00000001800362e1 f   kernel32:KERNEL32.dll
 0001:000352e7       GlobalAlloc                00000001800362e7 f   kernel32:KERNEL32.dll
 0001:000352ed       GlobalLock                 00000001800362ed f   kernel32:KERNEL32.dll
 0001:000352f3       GlobalUnlock               00000001800362f3 f   kernel32:KERNEL32.dll
 0001:000352f9       MulDiv                     00000001800362f9 f   kernel32:KERNEL32.dll
 0001:000352ff       lstrcmpiW                  00000001800362ff f   kernel32:KERNEL32.dll
 0001:00035305       FindResourceW              0000000180036305 f   kernel32:KERNEL32.dll
 0001:0003530b       DeleteFileW                000000018003630b f   kernel32:KERNEL32.dll
 0001:00035311       CloseHandle                0000000180036311 f   kernel32:KERNEL32.dll
 0001:00035317       SetEvent                   0000000180036317 f   kernel32:KERNEL32.dll
 0001:0003531d       CreateMutexW               000000018003631d f   kernel32:KERNEL32.dll
 0001:00035323       CreateEventW               0000000180036323 f   kernel32:KERNEL32.dll
 0001:00035329       GetCurrentProcessId        0000000180036329 f   kernel32:KERNEL32.dll
 0001:0003532f       LocalFree                  000000018003632f f   kernel32:KERNEL32.dll
 0001:00035335       FormatMessageW             0000000180036335 f   kernel32:KERNEL32.dll
 0001:0003533b       GetActiveWindow            000000018003633b f   user32:USER32.dll
 0001:00035341       MessageBoxW                0000000180036341 f   user32:USER32.dll
 0001:00035347       UnregisterClassW           0000000180036347 f   user32:USER32.dll
 0001:0003534d       PostMessageW               000000018003634d f   user32:USER32.dll
 0001:00035353       DefWindowProcW             0000000180036353 f   user32:USER32.dll
 0001:00035359       CallWindowProcW            0000000180036359 f   user32:USER32.dll
 0001:0003535f       RegisterClassExW           000000018003635f f   user32:USER32.dll
 0001:00035365       GetClassInfoExW            0000000180036365 f   user32:USER32.dll
 0001:0003536b       CreateWindowExW            000000018003636b f   user32:USER32.dll
 0001:00035371       IsWindow                   0000000180036371 f   user32:USER32.dll
 0001:00035377       IsChild                    0000000180036377 f   user32:USER32.dll
 0001:0003537d       DestroyWindow              000000018003637d f   user32:USER32.dll
 0001:00035383       ShowWindow                 0000000180036383 f   user32:USER32.dll
 0001:00035389       SetWindowPos               0000000180036389 f   user32:USER32.dll
 0001:0003538f       CharNextW                  000000018003638f f   user32:USER32.dll
 0001:00035395       SetFocus                   0000000180036395 f   user32:USER32.dll
 0001:0003539b       GetFocus                   000000018003639b f   user32:USER32.dll
 0001:000353a1       GetKeyState                00000001800363a1 f   user32:USER32.dll
 0001:000353a7       GetDC                      00000001800363a7 f   user32:USER32.dll
 0001:000353ad       ReleaseDC                  00000001800363ad f   user32:USER32.dll
 0001:000353b3       BeginPaint                 00000001800363b3 f   user32:USER32.dll
 0001:000353b9       EndPaint                   00000001800363b9 f   user32:USER32.dll
 0001:000353bf       SetWindowRgn               00000001800363bf f   user32:USER32.dll
 0001:000353c5       InvalidateRect             00000001800363c5 f   user32:USER32.dll
 0001:000353cb       GetClientRect              00000001800363cb f   user32:USER32.dll
 0001:000353d1       IntersectRect              00000001800363d1 f   user32:USER32.dll
 0001:000353d7       UnionRect                  00000001800363d7 f   user32:USER32.dll
 0001:000353dd       OffsetRect                 00000001800363dd f   user32:USER32.dll
 0001:000353e3       EqualRect                  00000001800363e3 f   user32:USER32.dll
 0001:000353e9       PtInRect                   00000001800363e9 f   user32:USER32.dll
 0001:000353ef       GetWindowLongPtrW          00000001800363ef f   user32:USER32.dll
 0001:000353f5       SetWindowLongPtrW          00000001800363f5 f   user32:USER32.dll
 0001:000353fb       GetParent                  00000001800363fb f   user32:USER32.dll
 0001:00035401       LoadCursorW                0000000180036401 f   user32:USER32.dll
 0001:00035407       PeekMessageW               0000000180036407 f   user32:USER32.dll
 0001:0003540d       RegisterClassW             000000018003640d f   user32:USER32.dll
 0001:00035413       LoadBitmapW                0000000180036413 f   user32:USER32.dll
 0001:00035419       CloseMetaFile              0000000180036419 f   gdi32:GDI32.dll
 0001:0003541f       CreateDCW                  000000018003641f f   gdi32:GDI32.dll
 0001:00035425       CreateMetaFileW            0000000180036425 f   gdi32:GDI32.dll
 0001:0003542b       CreateRectRgnIndirect      000000018003642b f   gdi32:GDI32.dll
 0001:00035431       DeleteDC                   0000000180036431 f   gdi32:GDI32.dll
 0001:00035437       DeleteMetaFile             0000000180036437 f   gdi32:GDI32.dll
 0001:0003543d       GetDeviceCaps              000000018003643d f   gdi32:GDI32.dll
 0001:00035443       RestoreDC                  0000000180036443 f   gdi32:GDI32.dll
 0001:00035449       SaveDC                     0000000180036449 f   gdi32:GDI32.dll
 0001:0003544f       SetMapMode                 000000018003644f f   gdi32:GDI32.dll
 0001:00035455       LPtoDP                     0000000180036455 f   gdi32:GDI32.dll
 0001:0003545b       SetViewportOrgEx           000000018003645b f   gdi32:GDI32.dll
 0001:00035461       SetWindowExtEx             0000000180036461 f   gdi32:GDI32.dll
 0001:00035467       SetWindowOrgEx             0000000180036467 f   gdi32:GDI32.dll
 0001:0003546d       BitBlt                     000000018003646d f   gdi32:GDI32.dll
 0001:00035473       CreateCompatibleDC         0000000180036473 f   gdi32:GDI32.dll
 0001:00035479       DeleteObject               0000000180036479 f   gdi32:GDI32.dll
 0001:0003547f       SelectObject               000000018003647f f   gdi32:GDI32.dll
 0001:00035485       GetObjectW                 0000000180036485 f   gdi32:GDI32.dll
 0001:0003548b       RegCloseKey                000000018003648b f   advapi32:ADVAPI32.dll
 0001:00035491       RegCreateKeyExW            0000000180036491 f   advapi32:ADVAPI32.dll
 0001:00035497       RegDeleteKeyW              0000000180036497 f   advapi32:ADVAPI32.dll
 0001:0003549d       RegDeleteValueW            000000018003649d f   advapi32:ADVAPI32.dll
 0001:000354a3       RegEnumKeyExW              00000001800364a3 f   advapi32:ADVAPI32.dll
 0001:000354a9       RegOpenKeyExW              00000001800364a9 f   advapi32:ADVAPI32.dll
 0001:000354af       RegQueryInfoKeyW           00000001800364af f   advapi32:ADVAPI32.dll
 0001:000354b5       RegSetValueExW             00000001800364b5 f   advapi32:ADVAPI32.dll
 0001:000354bb       RegQueryValueExW           00000001800364bb f   advapi32:ADVAPI32.dll
 0001:000354c1       CoCreateInstance           00000001800364c1 f   ole32:ole32.dll
 0001:000354c7       StringFromGUID2            00000001800364c7 f   ole32:ole32.dll
 0001:000354cd       CoTaskMemAlloc             00000001800364cd f   ole32:ole32.dll
 0001:000354d3       CoTaskMemRealloc           00000001800364d3 f   ole32:ole32.dll
 0001:000354d9       CoTaskMemFree              00000001800364d9 f   ole32:ole32.dll
 0001:000354df       CreateDataAdviseHolder     00000001800364df f   ole32:ole32.dll
 0001:000354e5       ReadClassStm               00000001800364e5 f   ole32:ole32.dll
 0001:000354eb       WriteClassStm              00000001800364eb f   ole32:ole32.dll
 0001:000354f1       OleSaveToStream            00000001800364f1 f   ole32:ole32.dll
 0001:000354f7       CreateOleAdviseHolder      00000001800364f7 f   ole32:ole32.dll
 0001:000354fd       OleRegGetUserType          00000001800364fd f   ole32:ole32.dll
 0001:00035503       OleRegGetMiscStatus        0000000180036503 f   ole32:ole32.dll
 0001:00035509       OleRegEnumVerbs            0000000180036509 f   ole32:ole32.dll
 0001:0003550f       CLSIDFromProgID            000000018003650f f   ole32:ole32.dll
 0001:00035515       SysAllocString             0000000180036515 f   oleaut32:OLEAUT32.dll
 0001:0003551b       SysAllocStringLen          000000018003651b f   oleaut32:OLEAUT32.dll
 0001:00035521       SysFreeString              0000000180036521 f   oleaut32:OLEAUT32.dll
 0001:00035527       SysStringLen               0000000180036527 f   oleaut32:OLEAUT32.dll
 0001:0003552d       VariantClear               000000018003652d f   oleaut32:OLEAUT32.dll
 0001:00035533       VariantCopyInd             0000000180036533 f   oleaut32:OLEAUT32.dll
 0001:00035539       VariantChangeType          0000000180036539 f   oleaut32:OLEAUT32.dll
 0001:0003553f       SysStringByteLen           000000018003653f f   oleaut32:OLEAUT32.dll
 0001:00035545       SysAllocStringByteLen      0000000180036545 f   oleaut32:OLEAUT32.dll
 0001:0003554b       VariantInit                000000018003654b f   oleaut32:OLEAUT32.dll
 0001:00035551       VarUI4FromStr              0000000180036551 f   oleaut32:OLEAUT32.dll
 0001:00035557       LoadTypeLib                0000000180036557 f   oleaut32:OLEAUT32.dll
 0001:0003555d       LoadRegTypeLib             000000018003655d f   oleaut32:OLEAUT32.dll
 0001:00035563       RegisterTypeLib            0000000180036563 f   oleaut32:OLEAUT32.dll
 0001:00035569       UnRegisterTypeLib          0000000180036569 f   oleaut32:OLEAUT32.dll
 0001:0003556f       OleCreatePropertyFrame     000000018003656f f   oleaut32:OLEAUT32.dll
 0001:00035580       _RTC_AllocaHelper          0000000180036580 f   LIBCMTD:stack.obj
 0001:000355c0       _RTC_CheckStackVars        00000001800365c0 f   LIBCMTD:stack.obj
 0001:00035650       _RTC_CheckStackVars2       0000000180036650 f   LIBCMTD:stack.obj
 0001:00035760       _CRT_RTC_INIT              0000000180036760 f   LIBCMTD:init.obj
 0001:00035770       _CRT_RTC_INITW             0000000180036770 f   LIBCMTD:init.obj
 0001:00035780       _RTC_InitBase              0000000180036780 f   LIBCMTD:init.obj
 0001:000357c0       _RTC_Shutdown              00000001800367c0 f   LIBCMTD:init.obj
 0001:000357f0       __GSHandlerCheck           00000001800367f0 f   LIBCMTD:gshandler.obj
 0001:00035830       __GSHandlerCheckCommon     0000000180036830 f   LIBCMTD:gshandler.obj
 0001:00035940       __security_check_cookie    0000000180036940 f   LIBCMTD:amdsecgs.obj
 0001:00035970       ??_U@YAPEAX_K@Z            0000000180036970 f   LIBCMTD:new_array.obj
 0001:00035990       ??3@YAXPEAX_K@Z            0000000180036990 f   LIBCMTD:delete_scalar_size.obj
 0001:000359b0       ??_V@YAXPEAX@Z             00000001800369b0 f   LIBCMTD:delete_array.obj
 0001:000359d0       ??_V@YAXPEAX_K@Z           00000001800369d0 f   LIBCMTD:delete_array_size.obj
 0001:000359f0       ??$__crt_fast_decode_pointer@PEAP6AXXZ@@YAPEAP6AXXZQEAP6AXXZ@Z 00000001800369f0 f i LIBCMTD:utility.obj
 0001:00035a30       ??$__crt_fast_encode_pointer@PEAP6AXXZ@@YAPEAP6AXXZQEAP6AXXZ@Z 0000000180036a30 f i LIBCMTD:utility.obj
 0001:00035a70       ?__crt_rotate_pointer_value@@YA_K_KH@Z 0000000180036a70 f i LIBCMTD:utility.obj
 0001:00035a90       ?configure_argv@__scrt_narrow_argv_policy@@SAHXZ 0000000180036a90 f i LIBCMTD:utility.obj
 0001:00035b80       ?initialize_environment@__scrt_narrow_environment_policy@@SAHXZ 0000000180036b80 f i LIBCMTD:utility.obj
 0001:00035c20       NtCurrentTeb               0000000180036c20 f i LIBCMTD:utility.obj
 0001:00035c30       __scrt_acquire_startup_lock 0000000180036c30 f   LIBCMTD:utility.obj
 0001:00035ca0       __scrt_dllmain_after_initialize_c 0000000180036ca0 f   LIBCMTD:utility.obj
 0001:00035cd0       __scrt_dllmain_before_initialize_c 0000000180036cd0 f   LIBCMTD:utility.obj
 0001:00035cf0       __scrt_dllmain_crt_thread_attach 0000000180036cf0 f   LIBCMTD:utility.obj
 0001:00035d20       __scrt_dllmain_crt_thread_detach 0000000180036d20 f   LIBCMTD:utility.obj
 0001:00035d40       __scrt_dllmain_exception_filter 0000000180036d40 f   LIBCMTD:utility.obj
 0001:00035da0       __scrt_dllmain_uninitialize_c 0000000180036da0 f   LIBCMTD:utility.obj
 0001:00035dd0       __scrt_dllmain_uninitialize_critical 0000000180036dd0 f   LIBCMTD:utility.obj
 0001:00035df0       __scrt_initialize_crt      0000000180036df0 f   LIBCMTD:utility.obj
 0001:00035e40       __scrt_initialize_onexit_tables 0000000180036e40 f   LIBCMTD:utility.obj
 0001:00035f50       __scrt_is_nonwritable_in_current_image 0000000180036f50 f   LIBCMTD:utility.obj
 0001:00035fe0       __scrt_release_startup_lock 0000000180036fe0 f   LIBCMTD:utility.obj
 0001:00036010       __scrt_uninitialize_crt    0000000180037010 f   LIBCMTD:utility.obj
 0001:00036050       _onexit                    0000000180037050 f   LIBCMTD:utility.obj
 0001:000360e0       at_quick_exit              00000001800370e0 f   LIBCMTD:utility.obj
 0001:00036130       atexit                     0000000180037130 f   LIBCMTD:utility.obj
 0001:00036170       ??3@YAXPEAX@Z              0000000180037170 f   LIBCMTD:delete_scalar.obj
 0001:00036190       __raise_securityfailure    0000000180037190 f   LIBCMTD:gs_report.obj
 0001:000361d0       __report_gsfailure         00000001800371d0 f   LIBCMTD:gs_report.obj
 0001:000362b0       __report_rangecheckfailure 00000001800372b0 f   LIBCMTD:gs_report.obj
 0001:000362d0       __report_securityfailure   00000001800372d0 f   LIBCMTD:gs_report.obj
 0001:00036370       __report_securityfailureEx 0000000180037370 f   LIBCMTD:gs_report.obj
 0001:00036620       ??$__crt_fast_decode_pointer@P6AHPEAU_RTL_CONDITION_VARIABLE@@PEAU_RTL_CRITICAL_SECTION@@K@Z@@YAP6AHPEAU_RTL_CONDITION_VARIABLE@@PEAU_RTL_CRITICAL_SECTION@@K@ZQ6AH01K@Z@Z 0000000180037620 f i LIBCMTD:thread_safe_statics.obj
 0001:00036660       ??$__crt_fast_decode_pointer@P6AXPEAU_RTL_CONDITION_VARIABLE@@@Z@@YAP6AXPEAU_RTL_CONDITION_VARIABLE@@@ZQ6AX0@Z@Z 0000000180037660 f i LIBCMTD:thread_safe_statics.obj
 0001:000366a0       ??$__crt_fast_encode_pointer@P6AHPEAU_RTL_CONDITION_VARIABLE@@PEAU_RTL_CRITICAL_SECTION@@K@Z@@YAP6AHPEAU_RTL_CONDITION_VARIABLE@@PEAU_RTL_CRITICAL_SECTION@@K@ZQ6AH01K@Z@Z 00000001800376a0 f i LIBCMTD:thread_safe_statics.obj
 0001:000366e0       ??$__crt_fast_encode_pointer@P6AXPEAU_RTL_CONDITION_VARIABLE@@@Z@@YAP6AXPEAU_RTL_CONDITION_VARIABLE@@@ZQ6AX0@Z@Z 00000001800376e0 f i LIBCMTD:thread_safe_statics.obj
 0001:00036870       ?__scrt_is_event_api_used@@YA_NQEAX@Z 0000000180037870 f i LIBCMTD:thread_safe_statics.obj
 0001:000368f0       _Init_thread_abort         00000001800378f0 f   LIBCMTD:thread_safe_statics.obj
 0001:00036920       _Init_thread_footer        0000000180037920 f   LIBCMTD:thread_safe_statics.obj
 0001:00036980       _Init_thread_header        0000000180037980 f   LIBCMTD:thread_safe_statics.obj
 0001:00036a10       _Init_thread_lock          0000000180037a10 f   LIBCMTD:thread_safe_statics.obj
 0001:00036a30       _Init_thread_notify        0000000180037a30 f   LIBCMTD:thread_safe_statics.obj
 0001:00036aa0       _Init_thread_unlock        0000000180037aa0 f   LIBCMTD:thread_safe_statics.obj
 0001:00036ac0       _Init_thread_wait          0000000180037ac0 f   LIBCMTD:thread_safe_statics.obj
 0001:00036b80       ??2@YAPEAX_KAEBUnothrow_t@std@@@Z 0000000180037b80 f   LIBCMTD:new_scalar_nothrow.obj
 0001:00036bc0       ??_U@YAPEAX_KAEBUnothrow_t@std@@@Z 0000000180037bc0 f   LIBCMTD:new_array_nothrow.obj
 0001:00036bf0       __GSHandlerCheck_SEH       0000000180037bf0 f   LIBCMTD:gshandlerseh.obj
 0001:00036cc0       __chkstk                   0000000180037cc0 f   LIBCMTD:chkstk.obj
 0001:00036cc0       _alloca_probe              0000000180037cc0 f   LIBCMTD:chkstk.obj
 0001:00037110       _CRT_INIT                  0000000180038110 f   LIBCMTD:dll_dllmain.obj
 0001:00037140       _DllMainCRTStartup         0000000180038140 f   LIBCMTD:dll_dllmain.obj
 0001:00037210       ?_RTC_AllocaFailure@@YAXPEAXPEAU_RTC_ALLOCA_NODE@@H@Z 0000000180038210 f   LIBCMTD:error.obj
 0001:00037370       ?_RTC_Failure@@YAXPEAXH@Z  0000000180038370 f   LIBCMTD:error.obj
 0001:000373c0       ?_RTC_StackFailure@@YAXPEAXPEBD@Z 00000001800383c0 f   LIBCMTD:error.obj
 0001:000377f0       _RTC_UninitUse             00000001800387f0 f   LIBCMTD:error.obj
 0001:000378c0       _vsprintf_s_l              00000001800388c0 f i LIBCMTD:error.obj
 0001:00037930       sprintf_s                  0000000180038930 f i LIBCMTD:error.obj
 0001:00037960       ?_RTC_GetErrorFunc@@YAP6AHHPEBDH00ZZPEBX@Z 0000000180038960 f   LIBCMTD:userapi.obj
 0001:00037970       ?_RTC_GetErrorFuncW@@YAP6AHHPEB_WH00ZZPEBX@Z 0000000180038970 f   LIBCMTD:userapi.obj
 0001:00037980       _RTC_GetErrDesc            0000000180038980 f   LIBCMTD:userapi.obj
 0001:000379a0       _RTC_NumErrors             00000001800389a0 f   LIBCMTD:userapi.obj
 0001:000379b0       _RTC_SetErrorFunc          00000001800389b0 f   LIBCMTD:userapi.obj
 0001:000379d0       _RTC_SetErrorFuncW         00000001800389d0 f   LIBCMTD:userapi.obj
 0001:000379f0       _RTC_SetErrorType          00000001800389f0 f   LIBCMTD:userapi.obj
 0001:00037a10       ??2@YAPEAX_K@Z             0000000180038a10 f   LIBCMTD:new_scalar.obj
 0001:00037a60       __isa_available_init       0000000180038a60 f   LIBCMTD:cpu_disp.obj
 0001:00037dd0       _get_startup_argv_mode     0000000180038dd0 f   LIBCMTD:argv_mode.obj
 0001:00037de0       __scrt_is_ucrt_dll_in_use  0000000180038de0 f   LIBCMTD:ucrt_detection.obj
 0001:00037e10       __crt_debugger_hook        0000000180038e10 f   LIBCMTD:utility_desktop.obj
 0001:00037e20       __scrt_fastfail            0000000180038e20 f   LIBCMTD:utility_desktop.obj
 0001:00037fc0       __scrt_get_show_window_mode 0000000180038fc0 f   LIBCMTD:utility_desktop.obj
 0001:00038020       __scrt_initialize_mta      0000000180039020 f   LIBCMTD:utility_desktop.obj
 0001:00038030       __scrt_initialize_winrt    0000000180039030 f   LIBCMTD:utility_desktop.obj
 0001:00038040       __scrt_is_managed_app      0000000180039040 f   LIBCMTD:utility_desktop.obj
 0001:000380f0       __scrt_set_unhandled_exception_filter 00000001800390f0 f   LIBCMTD:utility_desktop.obj
 0001:00038110       __scrt_stub_for_initialize_mta 0000000180039110 f   LIBCMTD:utility_desktop.obj
 0001:00038110       __scrt_exe_initialize_mta  0000000180039110 f   LIBCMTD:utility_desktop.obj
 0001:00038120       __scrt_unhandled_exception_filter 0000000180039120 f   LIBCMTD:utility_desktop.obj
 0001:000381a0       _guard_check_icall_nop     00000001800391a0 f i LIBCMTD:guard_support.obj
 0001:000381b0       ReadNoFence64              00000001800391b0 f i LIBCMTD:guard_support.obj
 0001:000381d0       ReadPointerNoFence         00000001800391d0 f i LIBCMTD:guard_support.obj
 0001:000381f0       _guard_icall_checks_enforced 00000001800391f0 f i LIBCMTD:guard_support.obj
 0001:00038230       _guard_rf_checks_enforced  0000000180039230 f i LIBCMTD:guard_support.obj
 0001:00038300       __security_init_cookie     0000000180039300 f   LIBCMTD:gs_support.obj
 0001:00038380       ?__scrt_initialize_type_info@@YAXXZ 0000000180039380 f   LIBCMTD:tncleanup.obj
 0001:000383a0       ?__scrt_uninitialize_type_info@@YAXXZ 00000001800393a0 f   LIBCMTD:tncleanup.obj
 0001:000383c0       __local_stdio_scanf_options 00000001800393c0 f i LIBCMTD:default_local_stdio_options.obj
 0001:000383d0       __scrt_initialize_default_local_stdio_options 00000001800393d0 f   LIBCMTD:default_local_stdio_options.obj
 0001:00038420       __scrt_get_dyn_tls_init_callback 0000000180039420 f   LIBCMTD:dyn_tls_init.obj
 0001:00038430       _RTC_Initialize            0000000180039430 f   LIBCMTD:initsect.obj
 0001:00038480       _RTC_Terminate             0000000180039480 f   LIBCMTD:initsect.obj
 0001:000389e0       ?_RTC_GetSrcLine@@YAHPEAEPEA_WKPEAH1K@Z 00000001800399e0 f   LIBCMTD:pdblkup.obj
 0001:00038db0       ??0bad_alloc@std@@AEAA@QEBD@Z 0000000180039db0 f i LIBCMTD:throw_bad_alloc.obj
 0001:00038df0       ??0bad_alloc@std@@QEAA@AEBV01@@Z 0000000180039df0 f i LIBCMTD:throw_bad_alloc.obj
 0001:00038e30       ??0bad_alloc@std@@QEAA@XZ  0000000180039e30 f i LIBCMTD:throw_bad_alloc.obj
 0001:00038e70       ??0bad_array_new_length@std@@QEAA@AEBV01@@Z 0000000180039e70 f i LIBCMTD:throw_bad_alloc.obj
 0001:00038eb0       ??0bad_array_new_length@std@@QEAA@XZ 0000000180039eb0 f i LIBCMTD:throw_bad_alloc.obj
 0001:00038ef0       ??0exception@std@@QEAA@AEBV01@@Z 0000000180039ef0 f i LIBCMTD:throw_bad_alloc.obj
 0001:00038f50       ??0exception@std@@QEAA@QEBDH@Z 0000000180039f50 f i LIBCMTD:throw_bad_alloc.obj
 0001:00038fa0       ??1bad_alloc@std@@UEAA@XZ  0000000180039fa0 f i LIBCMTD:throw_bad_alloc.obj
 0001:00038fc0       ??1bad_array_new_length@std@@UEAA@XZ 0000000180039fc0 f i LIBCMTD:throw_bad_alloc.obj
 0001:00038fe0       ??1exception@std@@UEAA@XZ  0000000180039fe0 f i LIBCMTD:throw_bad_alloc.obj
 0001:00039010       ??_Ebad_alloc@std@@UEAAPEAXI@Z 000000018003a010 f i LIBCMTD:throw_bad_alloc.obj
 0001:00039010       ??_Gbad_alloc@std@@UEAAPEAXI@Z 000000018003a010 f i LIBCMTD:throw_bad_alloc.obj
 0001:00039050       ??_Ebad_array_new_length@std@@UEAAPEAXI@Z 000000018003a050 f i LIBCMTD:throw_bad_alloc.obj
 0001:00039050       ??_Gbad_array_new_length@std@@UEAAPEAXI@Z 000000018003a050 f i LIBCMTD:throw_bad_alloc.obj
 0001:00039090       ??_Eexception@std@@UEAAPEAXI@Z 000000018003a090 f i LIBCMTD:throw_bad_alloc.obj
 0001:00039090       ??_Gexception@std@@UEAAPEAXI@Z 000000018003a090 f i LIBCMTD:throw_bad_alloc.obj
 0001:000390d0       ?__scrt_throw_std_bad_alloc@@YAXXZ 000000018003a0d0 f   LIBCMTD:throw_bad_alloc.obj
 0001:00039100       ?__scrt_throw_std_bad_array_new_length@@YAXXZ 000000018003a100 f   LIBCMTD:throw_bad_alloc.obj
 0001:00039130       ?what@exception@std@@UEBAPEBDXZ 000000018003a130 f i LIBCMTD:throw_bad_alloc.obj
 0001:00039170       ??1type_info@@UEAA@XZ      000000018003a170 f   LIBCMTD:std_type_info_static.obj
 0001:00039190       ??_Gtype_info@@UEAAPEAXI@Z 000000018003a190 f i LIBCMTD:std_type_info_static.obj
 0001:00039190       ??_Etype_info@@UEAAPEAXI@Z 000000018003a190 f i LIBCMTD:std_type_info_static.obj
 0001:000391cc       ??$?2PEAUHINSTANCE__@@@Wrapper@?$CSimpleArray@PEAUHINSTANCE__@@V?$CSimpleArrayEqualHelper@PEAUHINSTANCE__@@@ATL@@@ATL@@SAPEAX_KPEAPEAUHINSTANCE__@@@Z 000000018003a1cc f i atls:atlbase.obj
 0001:000391d0       ??0?$CSimpleArray@PEAUHINSTANCE__@@V?$CSimpleArrayEqualHelper@PEAUHINSTANCE__@@@ATL@@@ATL@@QEAA@XZ 000000018003a1d0 f i atls:atlbase.obj
 0001:000391e0       ??0CAtlBaseModule@ATL@@QEAA@XZ 000000018003a1e0 f   atls:atlbase.obj
 0001:00039288       ??0Wrapper@?$CSimpleArray@PEAUHINSTANCE__@@V?$CSimpleArrayEqualHelper@PEAUHINSTANCE__@@@ATL@@@ATL@@QEAA@AEBQEAUHINSTANCE__@@@Z 000000018003a288 f i atls:atlbase.obj
 0001:00039294       ??0_ATL_BASE_MODULE70@ATL@@QEAA@XZ 000000018003a294 f i atls:atlbase.obj
 0001:000392c0       ??1?$CSimpleArray@PEAUHINSTANCE__@@V?$CSimpleArrayEqualHelper@PEAUHINSTANCE__@@@ATL@@@ATL@@QEAA@XZ 000000018003a2c0 f i atls:atlbase.obj
 0001:000392e8       ??1CAtlBaseModule@ATL@@QEAA@XZ 000000018003a2e8 f   atls:atlbase.obj
 0001:0003931c       ??1_ATL_BASE_MODULE70@ATL@@QEAA@XZ 000000018003a31c f i atls:atlbase.obj
 0001:00039348       ??A?$CSimpleArray@PEAUHINSTANCE__@@V?$CSimpleArrayEqualHelper@PEAUHINSTANCE__@@@ATL@@@ATL@@QEAAAEAPEAUHINSTANCE__@@H@Z 000000018003a348 f i atls:atlbase.obj
 0001:00039374       ?Add@?$CSimpleArray@PEAUHINSTANCE__@@V?$CSimpleArrayEqualHelper@PEAUHINSTANCE__@@@ATL@@@ATL@@QEAAHAEBQEAUHINSTANCE__@@@Z 000000018003a374 f i atls:atlbase.obj
 0001:00039428       ?AddResourceInstance@CAtlBaseModule@ATL@@QEAA_NPEAUHINSTANCE__@@@Z 000000018003a428 f   atls:atlbase.obj
 0001:00039470       ?GetHInstanceAt@CAtlBaseModule@ATL@@QEAAPEAUHINSTANCE__@@H@Z 000000018003a470 f   atls:atlbase.obj
 0001:000394e8       ?GetSize@?$CSimpleArray@PEAUHINSTANCE__@@V?$CSimpleArrayEqualHelper@PEAUHINSTANCE__@@@ATL@@@ATL@@QEBAHXZ 000000018003a4e8 f i atls:atlbase.obj
 0001:000394ec       ?InternalSetAtIndex@?$CSimpleArray@PEAUHINSTANCE__@@V?$CSimpleArrayEqualHelper@PEAUHINSTANCE__@@@ATL@@@ATL@@QEAAXHAEBQEAUHINSTANCE__@@@Z 000000018003a4ec f i atls:atlbase.obj
 0001:00039504       ?RemoveAll@?$CSimpleArray@PEAUHINSTANCE__@@V?$CSimpleArrayEqualHelper@PEAUHINSTANCE__@@@ATL@@@ATL@@QEAAXXZ 000000018003a504 f i atls:atlbase.obj
 0001:0003952c       ?RemoveAt@?$CSimpleArray@PEAUHINSTANCE__@@V?$CSimpleArrayEqualHelper@PEAUHINSTANCE__@@@ATL@@@ATL@@QEAAHH@Z 000000018003a52c f i atls:atlbase.obj
 0001:000395d0       ?RemoveResourceInstance@CAtlBaseModule@ATL@@QEAA_NPEAUHINSTANCE__@@@Z 000000018003a5d0 f   atls:atlbase.obj
 0001:00039658       ?memmove_s@Checked@ATL@@YAXPEAX_KPEBX1@Z 000000018003a658 f i atls:atlbase.obj
 0001:00039b00       ?GetCodeAddress@_stdcallthunk@ATL@@QEAAPEAXXZ 000000018003ab00 f i atls:atlthunk.obj
 0001:00039b2c       ?Init@_stdcallthunk@ATL@@QEAAH_KPEAX@Z 000000018003ab2c f i atls:atlthunk.obj
 0001:00039b7c       ?__AllocStdCallThunk@@YAPEAXXZ 000000018003ab7c f   atls:atlthunk.obj
 0001:00039b84       ?__AllocStdCallThunk@ATL@@YAPEAXXZ 000000018003ab84 f   atls:atlthunk.obj
 0001:00039b8c       ?__AllocStdCallThunk_cmn@@YAPEAXXZ 000000018003ab8c f   atls:atlthunk.obj
 0001:00039c64       ?__FreeStdCallThunk@@YAXPEAX@Z 000000018003ac64 f   atls:atlthunk.obj
 0001:00039c84       ?__FreeStdCallThunk@ATL@@YAXPEAX@Z 000000018003ac84 f   atls:atlthunk.obj
 0001:00039ca4       ?__FreeStdCallThunk_cmn@@YAXPEAX@Z 000000018003aca4 f   atls:atlthunk.obj
 0001:00039d44       AtlThunk_AllocateData      000000018003ad44 f   atls:atlthunk.obj
 0001:00039dc0       AtlThunk_DataToCode        000000018003adc0 f   atls:atlthunk.obj
 0001:00039e14       AtlThunk_FreeData          000000018003ae14 f   atls:atlthunk.obj
 0001:00039e74       AtlThunk_InitData          000000018003ae74 f   atls:atlthunk.obj
 0001:00039f30       memset_repmovs             000000018003af30 f   libvcruntimed:memset.obj
 0001:00039f50       memset                     000000018003af50 f   libvcruntimed:memset.obj
 0001:0003a0e0       ??$__crt_fast_decode_pointer@P6AXXZ@@YAP6AXXZQ6AXXZ@Z 000000018003b0e0 f i libvcruntimed:purevirt.obj
 0001:0003a120       ??$__crt_fast_encode_pointer@P6AXXZ@@YAP6AXXZQ6AXXZ@Z 000000018003b120 f i libvcruntimed:purevirt.obj
 0001:0003a160       ??$__crt_interlocked_exchange_pointer@$$A6AXXZP6AXXZ@@YAP6AXXZPEDS6AXXZQ6AXXZ@Z 000000018003b160 f i libvcruntimed:purevirt.obj
 0001:0003a180       ??$__crt_interlocked_read_pointer@$$A6AXXZ@@YAP6AXXZPEDS6AXXZ@Z 000000018003b180 f i libvcruntimed:purevirt.obj
 0001:0003a1a0       ?__crt_interlocked_read_64@@YA_JPED_J@Z 000000018003b1a0 f i libvcruntimed:purevirt.obj
 0001:0003a1c0       _get_purecall_handler      000000018003b1c0 f   libvcruntimed:purevirt.obj
 0001:0003a1e0       _purecall                  000000018003b1e0 f   libvcruntimed:purevirt.obj
 0001:0003a220       _set_purecall_handler      000000018003b220 f   libvcruntimed:purevirt.obj
 0001:0003a260       memcmp                     000000018003b260 f   libvcruntimed:memcmp.obj
 0001:0003a340       memcpy_repmovs             000000018003b340 f   libvcruntimed:memcpy.obj
 0001:0003a360       memmove                    000000018003b360 f   libvcruntimed:memcpy.obj
 0001:0003a360       memcpy                     000000018003b360 f   libvcruntimed:memcpy.obj
 0001:0003a7a0       wcsstr                     000000018003b7a0 f   libvcruntimed:wcsstr.obj
 0001:0003ae00       __vcrt_initialize          000000018003be00 f   libvcruntimed:initialization.obj
 0001:0003ae40       __vcrt_thread_attach       000000018003be40 f   libvcruntimed:initialization.obj
 0001:0003ae60       __vcrt_thread_detach       000000018003be60 f   libvcruntimed:initialization.obj
 0001:0003ae80       __vcrt_uninitialize        000000018003be80 f   libvcruntimed:initialization.obj
 0001:0003aeb0       __vcrt_uninitialize_critical 000000018003beb0 f   libvcruntimed:initialization.obj
 0001:0003aed0       __C_specific_handler       000000018003bed0 f   libvcruntimed:riscchandler.obj
 0001:0003b310       ??$?0AEAViterator@TryBlockMap@__FrameHandler3@@AEAV012@$0A@@?$pair@Viterator@TryBlockMap@__FrameHandler3@@V123@@std@@QEAA@AEAViterator@TryBlockMap@__FrameHandler3@@0@Z 000000018003c310 f i libvcruntimed:risctrnsctrl.obj
 0001:0003b370       ??$?0AEAViterator@TryBlockMap@__FrameHandler4@@AEAV012@$0A@@?$pair@Viterator@TryBlockMap@__FrameHandler4@@V123@@std@@QEAA@AEAViterator@TryBlockMap@__FrameHandler4@@0@Z 000000018003c370 f i libvcruntimed:risctrnsctrl.obj
 0001:0003b530       ??$_CallSETranslator@V__FrameHandler3@@@@YAHPEAUEHExceptionRecord@@PEA_KPEAU_CONTEXT@@PEAU_xDISPATCHER_CONTEXT@@PEBU_s_FuncInfo@@K1@Z 000000018003c530 f i libvcruntimed:risctrnsctrl.obj
 0001:0003b5b0       ??$_CallSETranslator@V__FrameHandler4@@@@YAHPEAUEHExceptionRecord@@PEA_KPEAU_CONTEXT@@PEAU_xDISPATCHER_CONTEXT@@PEAUFuncInfo4@@K1@Z 000000018003c5b0 f i libvcruntimed:risctrnsctrl.obj
 0001:0003b630       ??$forward@AEAViterator@TryBlockMap@__FrameHandler3@@@std@@YAAEAViterator@TryBlockMap@__FrameHandler3@@AEAV123@@Z 000000018003c630 f i libvcruntimed:risctrnsctrl.obj
 0001:0003b640       ??$forward@AEAViterator@TryBlockMap@__FrameHandler4@@@std@@YAAEAViterator@TryBlockMap@__FrameHandler4@@AEAV123@@Z 000000018003c640 f i libvcruntimed:risctrnsctrl.obj
 0001:0003b650       ??0FuncInfo4@@QEAA@XZ      000000018003c650 f i libvcruntimed:risctrnsctrl.obj
 0001:0003b6a0       ??0iterator@TryBlockMap@__FrameHandler3@@QEAA@AEAV12@I@Z 000000018003c6a0 f i libvcruntimed:risctrnsctrl.obj
 0001:0003b6d0       ??0iterator@TryBlockMap@__FrameHandler4@@QEAA@AEAV12@I@Z 000000018003c6d0 f i libvcruntimed:risctrnsctrl.obj
 0001:0003b700       ??4iterator@TryBlockMap@__FrameHandler4@@QEAAAEAV012@AEBV012@@Z 000000018003c700 f i libvcruntimed:risctrnsctrl.obj
 0001:0003b720       ??9iterator@TryBlockMap@__FrameHandler4@@QEBA_NAEBV012@@Z 000000018003c720 f i libvcruntimed:risctrnsctrl.obj
 0001:0003b760       ??Diterator@TryBlockMap@__FrameHandler4@@QEAAPEAUTryBlockMapEntry4@@XZ 000000018003c760 f i libvcruntimed:risctrnsctrl.obj
 0001:0003b780       ??Eiterator@TryBlockMap@__FrameHandler4@@QEAAAEAV012@XZ 000000018003c780 f i libvcruntimed:risctrnsctrl.obj
 0001:0003b7c0       ?CatchTryBlock@__FrameHandler3@@SAPEBU_s_TryBlockMapEntry@@PEBU_s_FuncInfo@@H@Z 000000018003c7c0 f   libvcruntimed:risctrnsctrl.obj
 0001:0003b860       ?DecompFuncInfo@@YAXPEAEAEAUFuncInfo4@@@Z 000000018003c860 f i libvcruntimed:risctrnsctrl.obj
 0001:0003b950       ?DecompTryBlock@TryBlockMap@__FrameHandler4@@AEAAXXZ 000000018003c950 f i libvcruntimed:risctrnsctrl.obj
 0001:0003b9d0       ?ExecutionInCatch@__FrameHandler3@@SA_NPEAU_xDISPATCHER_CONTEXT@@PEBU_s_FuncInfo@@@Z 000000018003c9d0 f   libvcruntimed:risctrnsctrl.obj
 0001:0003ba20       ?ExecutionInCatch@__FrameHandler4@@SA_NPEAU_xDISPATCHER_CONTEXT@@PEAUFuncInfo4@@@Z 000000018003ca20 f   libvcruntimed:risctrnsctrl.obj
 0001:0003ba60       ?FrameUnwindToEmptyState@__FrameHandler3@@SAXPEA_KPEAU_xDISPATCHER_CONTEXT@@PEBU_s_FuncInfo@@@Z 000000018003ca60 f   libvcruntimed:risctrnsctrl.obj
 0001:0003bb00       ?FrameUnwindToEmptyState@__FrameHandler4@@SAXPEA_KPEAU_xDISPATCHER_CONTEXT@@PEAUFuncInfo4@@@Z 000000018003cb00 f   libvcruntimed:risctrnsctrl.obj
 0001:0003bb50       ?GetEstablisherFrame@__FrameHandler3@@SAPEA_KPEA_KPEAU_xDISPATCHER_CONTEXT@@PEBU_s_FuncInfo@@0@Z 000000018003cb50 f   libvcruntimed:risctrnsctrl.obj
 0001:0003bcc0       ?GetEstablisherFrame@__FrameHandler4@@SAPEA_KPEA_KPEAU_xDISPATCHER_CONTEXT@@PEAUFuncInfo4@@0@Z 000000018003ccc0 f   libvcruntimed:risctrnsctrl.obj
 0001:0003bd30       ?GetRangeOfTrysToCheck@__FrameHandler3@@SA?AU?$pair@Viterator@TryBlockMap@__FrameHandler3@@V123@@std@@AEAVTryBlockMap@1@HH@Z 000000018003cd30 f   libvcruntimed:risctrnsctrl.obj
 0001:0003bf80       ?GetRangeOfTrysToCheck@__FrameHandler4@@SA?AU?$pair@Viterator@TryBlockMap@__FrameHandler4@@V123@@std@@AEAVTryBlockMap@1@HH@Z 000000018003cf80 f   libvcruntimed:risctrnsctrl.obj
 0001:0003c110       ?ReadInt@@YAHPEAPEAE@Z     000000018003d110 f i libvcruntimed:risctrnsctrl.obj
 0001:0003c150       ?ReadUnsigned@@YAIPEAPEAE@Z 000000018003d150 f i libvcruntimed:risctrnsctrl.obj
 0001:0003c1e0       ?UnwindNestedFrames@__FrameHandler3@@SAXPEA_KPEAUEHExceptionRecord@@PEAU_CONTEXT@@0PEAXPEBU_s_FuncInfo@@HHPEBU_s_HandlerType@@PEAU_xDISPATCHER_CONTEXT@@E@Z 000000018003d1e0 f   libvcruntimed:risctrnsctrl.obj
 0001:0003c350       ?UnwindNestedFrames@__FrameHandler4@@SAXPEA_KPEAUEHExceptionRecord@@PEAU_CONTEXT@@0PEAXPEAUFuncInfo4@@HHPEAUHandlerType4@@PEAU_xDISPATCHER_CONTEXT@@E@Z 000000018003d350 f   libvcruntimed:risctrnsctrl.obj
 0001:0003c580       ?__FuncToImageRelOffset@@YA_KPEAU_xDISPATCHER_CONTEXT@@I@Z 000000018003d580 f   libvcruntimed:risctrnsctrl.obj
 0001:0003c5b0       ?begin@TryBlockMap@__FrameHandler4@@QEAA?AViterator@12@XZ 000000018003d5b0 f i libvcruntimed:risctrnsctrl.obj
 0001:0003c5e0       ?end@TryBlockMap@__FrameHandler4@@QEAA?AViterator@12@XZ 000000018003d5e0 f i libvcruntimed:risctrnsctrl.obj
 0001:0003c610       ?getFuncInfo@TryBlockMap@__FrameHandler3@@QEAAPEBU_s_FuncInfo@@XZ 000000018003d610 f i libvcruntimed:risctrnsctrl.obj
 0001:0003c620       ?getpDC@TryBlockMap@__FrameHandler3@@QEAAPEAU_xDISPATCHER_CONTEXT@@XZ 000000018003d620 f i libvcruntimed:risctrnsctrl.obj
 0001:0003c630       ?incrementToSentinel@iterator@TryBlockMap@__FrameHandler4@@QEAAXXZ 000000018003d630 f i libvcruntimed:risctrnsctrl.obj
 0001:0003c650       ?setBuffer@TryBlockMap@__FrameHandler4@@QEAAXViterator@12@@Z 000000018003d650 f i libvcruntimed:risctrnsctrl.obj
 0001:0003c6c0       _CreateFrameInfo           000000018003d6c0 f   libvcruntimed:risctrnsctrl.obj
 0001:0003c730       _FindAndUnlinkFrame        000000018003d730 f   libvcruntimed:risctrnsctrl.obj
 0001:0003c7b0       _GetImageBase              000000018003d7b0 f   libvcruntimed:risctrnsctrl.obj
 0001:0003c7d0       _GetThrowImageBase         000000018003d7d0 f   libvcruntimed:risctrnsctrl.obj
 0001:0003c7f0       _SetImageBase              000000018003d7f0 f   libvcruntimed:risctrnsctrl.obj
 0001:0003c810       _SetThrowImageBase         000000018003d810 f   libvcruntimed:risctrnsctrl.obj
 0001:0003c830       __CxxFrameHandler          000000018003d830 f   libvcruntimed:risctrnsctrl.obj
 0001:0003c870       __CxxFrameHandler2         000000018003d870 f   libvcruntimed:risctrnsctrl.obj
 0001:0003c8b0       __CxxFrameHandler3         000000018003d8b0 f   libvcruntimed:risctrnsctrl.obj
 0001:0003c970       __CxxFrameHandler4         000000018003d970 f   libvcruntimed:risctrnsctrl.obj
 0001:0003ca50       __C_specific_handler_noexcept 000000018003da50 f   libvcruntimed:chandler_noexcept.obj
 0001:0003cb00       ??$?RD@__crt_internal_free_policy@@QEBAXQEBD@Z 000000018003db00 f i libvcruntimed:std_type_info.obj
 0001:0003cb30       ??$?RX@__crt_internal_free_policy@@QEBAXQEBX@Z 000000018003db30 f i libvcruntimed:std_type_info.obj
 0001:0003cb60       ??$__crt_interlocked_compare_exchange_pointer@$$CBDPEAD$$T@@YAPEBDPEDSEBDQEAD$$T@Z 000000018003db60 f i libvcruntimed:std_type_info.obj
 0001:0003cba0       ??$__crt_interlocked_read_pointer@$$CBD@@YAPEBDPEDSEBD@Z 000000018003dba0 f i libvcruntimed:std_type_info.obj
 0001:0003cbc0       ??0?$__crt_unique_heap_ptr@DU__crt_internal_free_policy@@@@QEAA@QEAD@Z 000000018003dbc0 f i libvcruntimed:std_type_info.obj
 0001:0003cbe0       ??0?$__crt_unique_heap_ptr@XU__crt_internal_free_policy@@@@QEAA@QEAX@Z 000000018003dbe0 f i libvcruntimed:std_type_info.obj
 0001:0003cc00       ??1?$__crt_unique_heap_ptr@DU__crt_internal_free_policy@@@@QEAA@XZ 000000018003dc00 f i libvcruntimed:std_type_info.obj
 0001:0003cc20       ??1?$__crt_unique_heap_ptr@XU__crt_internal_free_policy@@@@QEAA@XZ 000000018003dc20 f i libvcruntimed:std_type_info.obj
 0001:0003cc60       ??B?$__crt_unique_heap_ptr@DU__crt_internal_free_policy@@@@QEBA_NXZ 000000018003dc60 f i libvcruntimed:std_type_info.obj
 0001:0003cc80       ??B?$__crt_unique_heap_ptr@XU__crt_internal_free_policy@@@@QEBA_NXZ 000000018003dc80 f i libvcruntimed:std_type_info.obj
 0001:0003cd00       ?detach@?$__crt_unique_heap_ptr@XU__crt_internal_free_policy@@@@QEAAPEAXXZ 000000018003dd00 f i libvcruntimed:std_type_info.obj
 0001:0003cd30       ?get@?$__crt_unique_heap_ptr@DU__crt_internal_free_policy@@@@QEBAPEADXZ 000000018003dd30 f i libvcruntimed:std_type_info.obj
 0001:0003cd40       ?get@?$__crt_unique_heap_ptr@XU__crt_internal_free_policy@@@@QEBAPEAXXZ 000000018003dd40 f i libvcruntimed:std_type_info.obj
 0001:0003cd50       ?is_valid@?$__crt_unique_heap_ptr@DU__crt_internal_free_policy@@@@QEBA_NXZ 000000018003dd50 f i libvcruntimed:std_type_info.obj
 0001:0003cd80       ?is_valid@?$__crt_unique_heap_ptr@XU__crt_internal_free_policy@@@@QEBA_NXZ 000000018003dd80 f i libvcruntimed:std_type_info.obj
 0001:0003cdb0       ?release@?$__crt_unique_heap_ptr@DU__crt_internal_free_policy@@@@QEAAXXZ 000000018003ddb0 f i libvcruntimed:std_type_info.obj
 0001:0003cde0       ?release@?$__crt_unique_heap_ptr@XU__crt_internal_free_policy@@@@QEAAXXZ 000000018003dde0 f i libvcruntimed:std_type_info.obj
 0001:0003ce10       __std_type_info_compare    000000018003de10 f   libvcruntimed:std_type_info.obj
 0001:0003ce50       __std_type_info_destroy_list 000000018003de50 f   libvcruntimed:std_type_info.obj
 0001:0003ceb0       __std_type_info_hash       000000018003deb0 f   libvcruntimed:std_type_info.obj
 0001:0003cf60       __std_type_info_name       000000018003df60 f   libvcruntimed:std_type_info.obj
 0001:0003d250       __vcrt_GetModuleFileNameW  000000018003e250 f   libvcruntimed:winapi_thunks.obj
 0001:0003d280       __vcrt_GetModuleHandleW    000000018003e280 f   libvcruntimed:winapi_thunks.obj
 0001:0003d2a0       __vcrt_LoadLibraryExW      000000018003e2a0 f   libvcruntimed:winapi_thunks.obj
 0001:0003d2d0       ??$?RD@__crt_public_free_policy@@QEBAXQEBD@Z 000000018003e2d0 f i libvcruntimed:std_exception.obj
 0001:0003d2f0       ??0?$__crt_unique_heap_ptr@DU__crt_public_free_policy@@@@QEAA@QEAD@Z 000000018003e2f0 f i libvcruntimed:std_exception.obj
 0001:0003d310       ??1?$__crt_unique_heap_ptr@DU__crt_public_free_policy@@@@QEAA@XZ 000000018003e310 f i libvcruntimed:std_exception.obj
 0001:0003d330       ??B?$__crt_unique_heap_ptr@DU__crt_public_free_policy@@@@QEBA_NXZ 000000018003e330 f i libvcruntimed:std_exception.obj
 0001:0003d350       ?detach@?$__crt_unique_heap_ptr@DU__crt_public_free_policy@@@@QEAAPEADXZ 000000018003e350 f i libvcruntimed:std_exception.obj
 0001:0003d380       ?get@?$__crt_unique_heap_ptr@DU__crt_public_free_policy@@@@QEBAPEADXZ 000000018003e380 f i libvcruntimed:std_exception.obj
 0001:0003d390       ?is_valid@?$__crt_unique_heap_ptr@DU__crt_public_free_policy@@@@QEBA_NXZ 000000018003e390 f i libvcruntimed:std_exception.obj
 0001:0003d3c0       ?release@?$__crt_unique_heap_ptr@DU__crt_public_free_policy@@@@QEAAXXZ 000000018003e3c0 f i libvcruntimed:std_exception.obj
 0001:0003d3f0       __std_exception_copy       000000018003e3f0 f   libvcruntimed:std_exception.obj
 0001:0003d520       __std_exception_destroy    000000018003e520 f   libvcruntimed:std_exception.obj
 0001:0003d560       _CxxThrowException         000000018003e560 f   libvcruntimed:throw.obj
 0001:0003d6b0       ??$?B$$A6AXXZ@__crt_fast_encoded_nullptr_t@@QEBAP6AXXZXZ 000000018003e6b0 f i libvcruntimed:purevirt_data.obj
 0001:0003d6d0       ?__crt_fast_encode_pointer@@YA?AU__crt_fast_encoded_nullptr_t@@$$T@Z 000000018003e6d0 f i libvcruntimed:purevirt_data.obj
 0001:0003d6f0       __vcrt_initialize_pure_virtual_call_handler 000000018003e6f0 f   libvcruntimed:purevirt_data.obj
 0001:0003d720       ??$?RU__vcrt_ptd@@@__crt_internal_free_policy@@QEBAXQEBU__vcrt_ptd@@@Z 000000018003e720 f i libvcruntimed:per_thread_data.obj
 0001:0003d750       ??0?$__crt_unique_heap_ptr@U__vcrt_ptd@@U__crt_internal_free_policy@@@@QEAA@QEAU__vcrt_ptd@@@Z 000000018003e750 f i libvcruntimed:per_thread_data.obj
 0001:0003d790       ??1?$__crt_unique_heap_ptr@U__vcrt_ptd@@U__crt_internal_free_policy@@@@QEAA@XZ 000000018003e790 f i libvcruntimed:per_thread_data.obj
 0001:0003d7d0       ??B?$__crt_unique_heap_ptr@U__vcrt_ptd@@U__crt_internal_free_policy@@@@QEBA_NXZ 000000018003e7d0 f i libvcruntimed:per_thread_data.obj
 0001:0003d7f0       ?detach@?$__crt_unique_heap_ptr@U__vcrt_ptd@@U__crt_internal_free_policy@@@@QEAAPEAU__vcrt_ptd@@XZ 000000018003e7f0 f i libvcruntimed:per_thread_data.obj
 0001:0003d820       ?get@?$__crt_unique_heap_ptr@U__vcrt_ptd@@U__crt_internal_free_policy@@@@QEBAPEAU__vcrt_ptd@@XZ 000000018003e820 f i libvcruntimed:per_thread_data.obj
 0001:0003d830       ?is_valid@?$__crt_unique_heap_ptr@U__vcrt_ptd@@U__crt_internal_free_policy@@@@QEBA_NXZ 000000018003e830 f i libvcruntimed:per_thread_data.obj
 0001:0003d860       ?release@?$__crt_unique_heap_ptr@U__vcrt_ptd@@U__crt_internal_free_policy@@@@QEAAXXZ 000000018003e860 f i libvcruntimed:per_thread_data.obj
 0001:0003d8e0       __vcrt_freefls             000000018003e8e0 f   libvcruntimed:per_thread_data.obj
 0001:0003d920       __vcrt_freeptd             000000018003e920 f   libvcruntimed:per_thread_data.obj
 0001:0003d980       __vcrt_getptd              000000018003e980 f   libvcruntimed:per_thread_data.obj
 0001:0003d9b0       __vcrt_getptd_noexit       000000018003e9b0 f   libvcruntimed:per_thread_data.obj
 0001:0003db50       __vcrt_getptd_noinit       000000018003eb50 f   libvcruntimed:per_thread_data.obj
 0001:0003dbb0       __vcrt_initialize_ptd      000000018003ebb0 f   libvcruntimed:per_thread_data.obj
 0001:0003dc00       __vcrt_uninitialize_ptd    000000018003ec00 f   libvcruntimed:per_thread_data.obj
 0001:0003dc30       __vcrt_initialize_locks    000000018003ec30 f   libvcruntimed:locks.obj
 0001:0003dca0       __vcrt_lock                000000018003eca0 f   libvcruntimed:locks.obj
 0001:0003dcd0       __vcrt_uninitialize_locks  000000018003ecd0 f   libvcruntimed:locks.obj
 0001:0003dd30       __vcrt_unlock              000000018003ed30 f   libvcruntimed:locks.obj
 0001:0003dd60       ??$?BX@__crt_fast_encoded_nullptr_t@@QEBAPEAXXZ 000000018003ed60 f i libvcruntimed:winapi_downlevel.obj
 0001:0003dd80       ??$__crt_fast_decode_pointer@PEAX@@YAPEAXQEAX@Z 000000018003ed80 f i libvcruntimed:winapi_downlevel.obj
 0001:0003ddc0       ??$__crt_fast_encode_pointer@PEAX@@YAPEAXQEAX@Z 000000018003edc0 f i libvcruntimed:winapi_downlevel.obj
 0001:0003de00       ??$__crt_interlocked_exchange_pointer@UHINSTANCE__@@PEAU1@@@YAPEAUHINSTANCE__@@PEDSEAU0@QEAU0@@Z 000000018003ee00 f i libvcruntimed:winapi_downlevel.obj
 0001:0003de20       ??$__crt_interlocked_exchange_pointer@UHINSTANCE__@@PEAX@@YAPEAUHINSTANCE__@@PEDSEAU0@QEAX@Z 000000018003ee20 f i libvcruntimed:winapi_downlevel.obj
 0001:0003de40       ??$__crt_interlocked_exchange_pointer@XPEAX@@YAPEAXPEDSEAXQEAX@Z 000000018003ee40 f i libvcruntimed:winapi_downlevel.obj
 0001:0003de60       ??$__crt_interlocked_read_pointer@UHINSTANCE__@@@@YAPEAUHINSTANCE__@@PEDSEAU0@@Z 000000018003ee60 f i libvcruntimed:winapi_downlevel.obj
 0001:0003de80       ??$__crt_interlocked_read_pointer@X@@YAPEAXPEDSEAX@Z 000000018003ee80 f i libvcruntimed:winapi_downlevel.obj
 0001:0003e3e0       __vcrt_FlsAlloc            000000018003f3e0 f   libvcruntimed:winapi_downlevel.obj
 0001:0003e430       __vcrt_FlsFree             000000018003f430 f   libvcruntimed:winapi_downlevel.obj
 0001:0003e480       __vcrt_FlsGetValue         000000018003f480 f   libvcruntimed:winapi_downlevel.obj
 0001:0003e4d0       __vcrt_FlsSetValue         000000018003f4d0 f   libvcruntimed:winapi_downlevel.obj
 0001:0003e530       __vcrt_InitializeCriticalSectionEx 000000018003f530 f   libvcruntimed:winapi_downlevel.obj
 0001:0003e590       __vcrt_initialize_winapi_thunks 000000018003f590 f   libvcruntimed:winapi_downlevel.obj
 0001:0003e610       __vcrt_uninitialize_winapi_thunks 000000018003f610 f   libvcruntimed:winapi_downlevel.obj
 0001:0003e6c0       _NLG_Notify                000000018003f6c0 f   libvcruntimed:notify.obj
 0001:0003e6e0       __NLG_Dispatch2            000000018003f6e0 f   libvcruntimed:notify.obj
 0001:0003e6f0       __NLG_Return2              000000018003f6f0 f   libvcruntimed:notify.obj
 0001:0003e710       __except_validate_context_record 000000018003f710 f   libvcruntimed:jbcxrval.obj
 0001:0003e770       __except_validate_jump_buffer 000000018003f770 f   libvcruntimed:jbcxrval.obj
 0001:0003e790       __except_validate_jump_buffer_common 000000018003f790 f i libvcruntimed:jbcxrval.obj
 0001:0003e810       __DestructExceptionObject  000000018003f810 f   libvcruntimed:ehhelpers.obj
 0001:0003e910       ?_CallMemberFunction0@@YAXQEAX0@Z 000000018003f910 f i libvcruntimed:ehhelpers.obj
 0001:0003e940       ?raw_name@type_info@@QEBAPEBDXZ 000000018003f940 f i libvcruntimed:ehhelpers.obj
 0001:0003e950       _IsExceptionObjectToBeDestroyed 000000018003f950 f   libvcruntimed:ehhelpers.obj
 0001:0003e9a0       _SetWinRTOutOfMemoryExceptionCallback 000000018003f9a0 f   libvcruntimed:ehhelpers.obj
 0001:0003e9c0       __AdjustPointer            000000018003f9c0 f   libvcruntimed:ehhelpers.obj
 0001:0003ea40       __FrameUnwindFilter        000000018003fa40 f   libvcruntimed:ehhelpers.obj
 0001:0003ead0       __GetPlatformExceptionInfo 000000018003fad0 f   libvcruntimed:ehhelpers.obj
 0001:0003eb80       __current_exception        000000018003fb80 f   libvcruntimed:ehhelpers.obj
 0001:0003eba0       __current_exception_context 000000018003fba0 f   libvcruntimed:ehhelpers.obj
 0001:0003ebc0       __processing_throw         000000018003fbc0 f   libvcruntimed:ehhelpers.obj
 0001:0003ebe0       __std_terminate            000000018003fbe0 f   libvcruntimed:ehhelpers.obj
 0001:0003ebf0       _is_exception_typeof       000000018003fbf0 f   libvcruntimed:ehhelpers.obj
 0001:0003ed40       ?GetCurrentState@__FrameHandler3@@SAHPEA_KPEAU_xDISPATCHER_CONTEXT@@PEBU_s_FuncInfo@@@Z 000000018003fd40 f   libvcruntimed:ehstate.obj
 0001:0003eda0       ?GetUnwindTryBlock@__FrameHandler3@@SAHPEA_KPEAU_xDISPATCHER_CONTEXT@@PEBU_s_FuncInfo@@@Z 000000018003fda0 f   libvcruntimed:ehstate.obj
 0001:0003edf0       ?SetState@__FrameHandler3@@SAXPEA_KPEBU_s_FuncInfo@@H@Z 000000018003fdf0 f   libvcruntimed:ehstate.obj
 0001:0003ee20       ?SetUnwindTryBlock@__FrameHandler3@@SAXPEA_KPEAU_xDISPATCHER_CONTEXT@@PEBU_s_FuncInfo@@H@Z 000000018003fe20 f   libvcruntimed:ehstate.obj
 0001:0003ee90       ?StateFromControlPc@__FrameHandler3@@SAHPEBU_s_FuncInfo@@PEAU_xDISPATCHER_CONTEXT@@@Z 000000018003fe90 f   libvcruntimed:ehstate.obj
 0001:0003eed0       ?StateFromControlPc@__FrameHandler4@@SAHPEAUFuncInfo4@@PEAU_xDISPATCHER_CONTEXT@@@Z 000000018003fed0 f   libvcruntimed:ehstate.obj
 0001:0003ef10       ?StateFromIp@__FrameHandler3@@SAHPEBU_s_FuncInfo@@PEAU_xDISPATCHER_CONTEXT@@_K@Z 000000018003ff10 f   libvcruntimed:ehstate.obj
 0001:0003f000       ?StateFromIp@__FrameHandler4@@SAHPEAUFuncInfo4@@PEAU_xDISPATCHER_CONTEXT@@_K@Z 0000000180040000 f   libvcruntimed:ehstate.obj
 0001:000412d0       ??$TypeMatchHelper@V__FrameHandler3@@@@YAHPEBU_s_HandlerType@@PEBU_s_CatchableType@@PEBU_s_ThrowInfo@@@Z 00000001800422d0 f i libvcruntimed:frame.obj
 0001:000414c0       ??$TypeMatchHelper@V__FrameHandler4@@@@YAHPEAUHandlerType4@@PEBU_s_CatchableType@@PEBU_s_ThrowInfo@@@Z 00000001800424c0 f i libvcruntimed:frame.obj
 0001:000416b0       ??$__InternalCxxFrameHandler@V__FrameHandler3@@@@YA?AW4_EXCEPTION_DISPOSITION@@PEAUEHExceptionRecord@@PEA_KPEAU_CONTEXT@@PEAU_xDISPATCHER_CONTEXT@@PEBU_s_FuncInfo@@H1E@Z 00000001800426b0 f i libvcruntimed:frame.obj
 0001:00041b30       ??$__InternalCxxFrameHandler@V__FrameHandler4@@@@YA?AW4_EXCEPTION_DISPOSITION@@PEAUEHExceptionRecord@@PEA_KPEAU_CONTEXT@@PEAU_xDISPATCHER_CONTEXT@@PEAUFuncInfo4@@H1E@Z 0000000180042b30 f i libvcruntimed:frame.obj
 0001:00041fd0       ??0HandlerMap@__FrameHandler3@@QEAA@PEBU_s_TryBlockMapEntry@@PEAU_xDISPATCHER_CONTEXT@@@Z 0000000180042fd0 f i libvcruntimed:frame.obj
 0001:00042010       ??0HandlerMap@__FrameHandler4@@QEAA@PEAUTryBlockMapEntry4@@PEAU_xDISPATCHER_CONTEXT@@@Z 0000000180043010 f i libvcruntimed:frame.obj
 0001:00042090       ??0HandlerType4@@QEAA@XZ   0000000180043090 f i libvcruntimed:frame.obj
 0001:000420b0       ??0TryBlockMap@__FrameHandler3@@QEAA@PEBU_s_FuncInfo@@PEAU_xDISPATCHER_CONTEXT@@@Z 00000001800430b0 f i libvcruntimed:frame.obj
 0001:000420e0       ??0TryBlockMap@__FrameHandler4@@QEAA@PEAUFuncInfo4@@PEAU_xDISPATCHER_CONTEXT@@@Z 00000001800430e0 f i libvcruntimed:frame.obj
 0001:00042170       ??0UWMap@@QEAA@PEAE@Z      0000000180043170 f i libvcruntimed:frame.obj
 0001:000421c0       ??0bad_exception@std@@QEAA@AEBV01@@Z 00000001800431c0 f i libvcruntimed:frame.obj
 0001:00042200       ??0bad_exception@std@@QEAA@XZ 0000000180043200 f i libvcruntimed:frame.obj
 0001:00042240       ??0iterator@HandlerMap@__FrameHandler3@@QEAA@AEAV12@I@Z 0000000180043240 f i libvcruntimed:frame.obj
 0001:00042270       ??0iterator@HandlerMap@__FrameHandler4@@QEAA@AEAV12@I@Z 0000000180043270 f i libvcruntimed:frame.obj
 0001:000422a0       ??0iterator@UWMap@@QEAA@AEAV1@PEAE@Z 00000001800432a0 f i libvcruntimed:frame.obj
 0001:000422d0       ??1bad_exception@std@@UEAA@XZ 00000001800432d0 f i libvcruntimed:frame.obj
 0001:000422f0       ??4iterator@UWMap@@QEAAAEAV01@AEBV01@@Z 00000001800432f0 f i libvcruntimed:frame.obj
 0001:00042320       ??8iterator@HandlerMap@__FrameHandler3@@QEBA_NAEBV012@@Z 0000000180043320 f i libvcruntimed:frame.obj
 0001:00042360       ??8iterator@HandlerMap@__FrameHandler4@@QEBA_NAEBV012@@Z 0000000180043360 f i libvcruntimed:frame.obj
 0001:000423a0       ??8type_info@@QEBA_NAEBV0@@Z 00000001800433a0 f i libvcruntimed:frame.obj
 0001:000423f0       ??9iterator@HandlerMap@__FrameHandler3@@QEBA_NAEBV012@@Z 00000001800433f0 f i libvcruntimed:frame.obj
 0001:00042430       ??9iterator@HandlerMap@__FrameHandler4@@QEBA_NAEBV012@@Z 0000000180043430 f i libvcruntimed:frame.obj
 0001:00042470       ??Diterator@HandlerMap@__FrameHandler3@@QEAAPEBU_s_HandlerType@@XZ 0000000180043470 f i libvcruntimed:frame.obj
 0001:000424a0       ??Diterator@HandlerMap@__FrameHandler4@@QEAAPEAUHandlerType4@@XZ 00000001800434a0 f i libvcruntimed:frame.obj
 0001:000424c0       ??Diterator@TryBlockMap@__FrameHandler3@@QEAAPEBU_s_TryBlockMapEntry@@XZ 00000001800434c0 f i libvcruntimed:frame.obj
 0001:00042500       ??Diterator@UWMap@@QEAA?AUUnwindMapEntry4@@XZ 0000000180043500 f i libvcruntimed:frame.obj
 0001:00042560       ??Eiterator@HandlerMap@__FrameHandler3@@QEAAAEAV012@XZ 0000000180043560 f i libvcruntimed:frame.obj
 0001:00042580       ??Eiterator@HandlerMap@__FrameHandler4@@QEAAAEAV012@XZ 0000000180043580 f i libvcruntimed:frame.obj
 0001:000425c0       ??Eiterator@TryBlockMap@__FrameHandler3@@QEAAAEAV012@XZ 00000001800435c0 f i libvcruntimed:frame.obj
 0001:000425e0       ??Eiterator@UWMap@@QEAAAEAV01@XZ 00000001800435e0 f i libvcruntimed:frame.obj
 0001:00042620       ??Giterator@UWMap@@QEBA_JAEBV01@@Z 0000000180043620 f i libvcruntimed:frame.obj
 0001:00042640       ??Miterator@TryBlockMap@__FrameHandler3@@QEBA_NAEBV012@@Z 0000000180043640 f i libvcruntimed:frame.obj
 0001:00042680       ??Miterator@TryBlockMap@__FrameHandler4@@QEBA_NAEBV012@@Z 0000000180043680 f i libvcruntimed:frame.obj
 0001:000426c0       ??Oiterator@UWMap@@QEBA_NAEBV01@@Z 00000001800436c0 f i libvcruntimed:frame.obj
 0001:00042700       ??Piterator@UWMap@@QEBA_NAEBV01@@Z 0000000180043700 f i libvcruntimed:frame.obj
 0001:00042740       ??_Ebad_exception@std@@UEAAPEAXI@Z 0000000180043740 f i libvcruntimed:frame.obj
 0001:00042740       ??_Gbad_exception@std@@UEAAPEAXI@Z 0000000180043740 f i libvcruntimed:frame.obj
 0001:00042780       ?BuildCatchObject@__FrameHandler3@@SAXPEAUEHExceptionRecord@@PEAXPEBU_s_HandlerType@@PEBU_s_CatchableType@@@Z 0000000180043780 f   libvcruntimed:frame.obj
 0001:000427c0       ?BuildCatchObject@__FrameHandler4@@SAXPEAUEHExceptionRecord@@PEAXPEAUHandlerType4@@PEBU_s_CatchableType@@@Z 00000001800437c0 f   libvcruntimed:frame.obj
 0001:00042800       ?BuildCatchObjectHelper@__FrameHandler3@@SAHPEAUEHExceptionRecord@@PEAXPEBU_s_HandlerType@@PEBU_s_CatchableType@@@Z 0000000180043800 f   libvcruntimed:frame.obj
 0001:00042840       ?BuildCatchObjectHelper@__FrameHandler4@@SAHPEAUEHExceptionRecord@@PEAXPEAUHandlerType4@@PEBU_s_CatchableType@@@Z 0000000180043840 f   libvcruntimed:frame.obj
 0001:00042880       ?CxxCallCatchBlock@__FrameHandler3@@SAPEAXPEAU_EXCEPTION_RECORD@@@Z 0000000180043880 f   libvcruntimed:frame.obj
 0001:00042ae0       ?CxxCallCatchBlock@__FrameHandler4@@SAPEAXPEAU_EXCEPTION_RECORD@@@Z 0000000180043ae0 f   libvcruntimed:frame.obj
 0001:00042e20       ?DecompHandler@HandlerMap@__FrameHandler4@@AEAAXXZ 0000000180043e20 f i libvcruntimed:frame.obj
 0001:000430b0       ?FrameUnwindToState@__FrameHandler3@@SAXPEA_KPEAU_xDISPATCHER_CONTEXT@@PEBU_s_FuncInfo@@H@Z 00000001800440b0 f   libvcruntimed:frame.obj
 0001:00043340       ?FrameUnwindToState@__FrameHandler4@@SAXPEA_KPEAU_xDISPATCHER_CONTEXT@@PEAUFuncInfo4@@H@Z 0000000180044340 f   libvcruntimed:frame.obj
 0001:000436f0       ?GetHandlerSearchState@__FrameHandler3@@SAHPEA_KPEAU_xDISPATCHER_CONTEXT@@PEBU_s_FuncInfo@@@Z 00000001800446f0 f i libvcruntimed:frame.obj
 0001:000437a0       ?GetHandlerSearchState@__FrameHandler4@@SAHPEA_KPEAU_xDISPATCHER_CONTEXT@@PEAUFuncInfo4@@@Z 00000001800447a0 f i libvcruntimed:frame.obj
 0001:00043800       ?GetMaxState@__FrameHandler3@@SAHPEAU_xDISPATCHER_CONTEXT@@PEBU_s_FuncInfo@@@Z 0000000180044800 f i libvcruntimed:frame.obj
 0001:00043820       ?GetMaxState@__FrameHandler4@@SAHPEAU_xDISPATCHER_CONTEXT@@PEAUFuncInfo4@@@Z 0000000180044820 f i libvcruntimed:frame.obj
 0001:00043a80       ?ReadEntry@UWMap@@AEAAXXZ  0000000180044a80 f i libvcruntimed:frame.obj
 0001:00043b40       ?TypeMatch@__FrameHandler3@@SAHPEBU_s_HandlerType@@PEBU_s_CatchableType@@PEBU_s_ThrowInfo@@@Z 0000000180044b40 f   libvcruntimed:frame.obj
 0001:00043b70       ?TypeMatch@__FrameHandler4@@SAHPEAUHandlerType4@@PEBU_s_CatchableType@@PEBU_s_ThrowInfo@@@Z 0000000180044b70 f   libvcruntimed:frame.obj
 0001:00043ba0       ?WalkBack@UWMap@@AEAAPEAEXZ 0000000180044ba0 f i libvcruntimed:frame.obj
 0001:00043bf0       ?_CallMemberFunction1@@YAXQEAX00@Z 0000000180044bf0 f i libvcruntimed:frame.obj
 0001:00043c20       ?_CallMemberFunction2@@YAXQEAX00H@Z 0000000180044c20 f i libvcruntimed:frame.obj
 0001:00043c60       ?_ValidateExecute@@YA_NP6A_JXZ@Z 0000000180044c60 f i libvcruntimed:frame.obj
 0001:00043c80       ?_ValidateRead@@YA_NPEBXI@Z 0000000180044c80 f i libvcruntimed:frame.obj
 0001:00043ca0       ?_ValidateWrite@@YA_NPEAXI@Z 0000000180044ca0 f i libvcruntimed:frame.obj
 0001:00043d00       ?begin@HandlerMap@__FrameHandler3@@QEAA?AViterator@12@XZ 0000000180044d00 f i libvcruntimed:frame.obj
 0001:00043d30       ?begin@HandlerMap@__FrameHandler4@@QEAA?AViterator@12@XZ 0000000180044d30 f i libvcruntimed:frame.obj
 0001:00043d60       ?begin@UWMap@@QEAA?AViterator@1@XZ 0000000180044d60 f i libvcruntimed:frame.obj
 0001:00043d90       ?end@HandlerMap@__FrameHandler3@@QEAA?AViterator@12@XZ 0000000180044d90 f i libvcruntimed:frame.obj
 0001:00043dc0       ?end@HandlerMap@__FrameHandler4@@QEAA?AViterator@12@XZ 0000000180044dc0 f i libvcruntimed:frame.obj
 0001:00043df0       ?getESTypes@__FrameHandler3@@SAPEBU_s_ESTypeList@@PEBU_s_FuncInfo@@@Z 0000000180044df0 f i libvcruntimed:frame.obj
 0001:00043e30       ?getESTypes@__FrameHandler4@@SAPEBU_s_ESTypeList@@PEAUFuncInfo4@@@Z 0000000180044e30 f i libvcruntimed:frame.obj
 0001:00043e40       ?getLastEntry@HandlerMap@__FrameHandler3@@QEAAPEBU_s_HandlerType@@XZ 0000000180044e40 f i libvcruntimed:frame.obj
 0001:00043e60       ?getLastEntry@HandlerMap@__FrameHandler4@@QEAAPEAUHandlerType4@@XZ 0000000180044e60 f i libvcruntimed:frame.obj
 0001:00043ea0       ?getMagicNum@__FrameHandler3@@SAIPEBU_s_FuncInfo@@@Z 0000000180044ea0 f i libvcruntimed:frame.obj
 0001:00043ec0       ?getMagicNum@__FrameHandler4@@SAIPEAUFuncInfo4@@@Z 0000000180044ec0 f i libvcruntimed:frame.obj
 0001:00043ed0       ?getNumTryBlocks@TryBlockMap@__FrameHandler3@@QEAAIXZ 0000000180044ed0 f i libvcruntimed:frame.obj
 0001:00043ef0       ?getNumTryBlocks@TryBlockMap@__FrameHandler4@@QEAAIXZ 0000000180044ef0 f i libvcruntimed:frame.obj
 0001:00043f00       ?getOffsetIter@UWMap@@QEAA?AViterator@1@_J@Z 0000000180044f00 f i libvcruntimed:frame.obj
 0001:00043f40       ?getStartStop@UWMap@@QEAAXHHAEAViterator@1@0@Z 0000000180044f40 f i libvcruntimed:frame.obj
 0001:000440a0       ?getStateIter@UWMap@@QEAA?AViterator@1@H@Z 00000001800450a0 f i libvcruntimed:frame.obj
 0001:00044160       ?isEHs@__FrameHandler3@@SA_NPEBU_s_FuncInfo@@@Z 0000000180045160 f i libvcruntimed:frame.obj
 0001:000441a0       ?isEHs@__FrameHandler4@@SA_NPEAUFuncInfo4@@@Z 00000001800451a0 f i libvcruntimed:frame.obj
 0001:000441c0       ?isNoExcept@__FrameHandler3@@SA_NPEBU_s_FuncInfo@@@Z 00000001800451c0 f i libvcruntimed:frame.obj
 0001:00044200       ?isNoExcept@__FrameHandler4@@SA_NPEAUFuncInfo4@@@Z 0000000180045200 f i libvcruntimed:frame.obj
 0001:00044220       ?reset@HandlerType4@@QEAAXXZ 0000000180045220 f i libvcruntimed:frame.obj
 0001:00044280       ?resetBuffer@HandlerMap@__FrameHandler4@@QEAAXXZ 0000000180045280 f i libvcruntimed:frame.obj
 0001:000442a0       ?setBuffer@HandlerMap@__FrameHandler4@@QEAAXI@Z 00000001800452a0 f i libvcruntimed:frame.obj
 0001:00044300       __BuildCatchObject         0000000180045300 f   libvcruntimed:frame.obj
 0001:00044340       __BuildCatchObjectHelper   0000000180045340 f   libvcruntimed:frame.obj
 0001:00044380       __TypeMatch                0000000180045380 f   libvcruntimed:frame.obj
 0001:000443b0       __vcrt_EncodePointer       00000001800453b0 f i libvcruntimed:frame.obj
 0001:000443d0       ??0Block@_HeapManager@@QEAA@XZ 00000001800453d0 f i libvcruntimed:undname.obj
 0001:000443f0       ??0DName@@QEAA@AEAPEBDD@Z  00000001800453f0 f   libvcruntimed:undname.obj
 0001:000446a0       ??0DName@@QEAA@AEBV0@@Z    00000001800456a0 f i libvcruntimed:undname.obj
 0001:000446d0       ??0DName@@QEAA@D@Z         00000001800456d0 f   libvcruntimed:undname.obj
 0001:00044720       ??0DName@@QEAA@PEAV0@@Z    0000000180045720 f   libvcruntimed:undname.obj
 0001:00044800       ??0DName@@QEAA@PEBD@Z      0000000180045800 f   libvcruntimed:undname.obj
 0001:00044870       ??0DName@@QEAA@W4DNameStatus@@@Z 0000000180045870 f   libvcruntimed:undname.obj
 0001:00044920       ??0DName@@QEAA@XZ          0000000180045920 f i libvcruntimed:undname.obj
 0001:00044950       ??0DName@@QEAA@_J@Z        0000000180045950 f   libvcruntimed:undname.obj
 0001:00044a60       ??0DName@@QEAA@_K@Z        0000000180045a60 f   libvcruntimed:undname.obj
 0001:00044b30       ??0DNameNode@@IEAA@XZ      0000000180045b30 f i libvcruntimed:undname.obj
 0001:00044b50       ??0Replicator@@QEAA@XZ     0000000180045b50 f i libvcruntimed:undname.obj
 0001:00044b90       ??0UnDecorator@@QEAA@PEBDP6APEADJ@ZK@Z 0000000180045b90 f i libvcruntimed:undname.obj
 0001:00044c40       ??0charNode@@QEAA@D@Z      0000000180045c40 f i libvcruntimed:undname.obj
 0001:00044c80       ??0pDNameNode@@QEAA@PEAVDName@@@Z 0000000180045c80 f   libvcruntimed:undname.obj
 0001:00044d00       ??0pairNode@@QEAA@PEBVDNameNode@@0@Z 0000000180045d00 f i libvcruntimed:undname.obj
 0001:00044d60       ??0pcharNode@@QEAA@PEBDH@Z 0000000180045d60 f   libvcruntimed:undname.obj
 0001:00044e50       ??2@YAPEAX_KAEAV_HeapManager@@H@Z 0000000180045e50 f i libvcruntimed:undname.obj
 0001:00044e80       ??4DName@@QEAAAEAV0@AEBV0@@Z 0000000180045e80 f   libvcruntimed:undname.obj
 0001:00044eb0       ??4DName@@QEAAAEAV0@D@Z    0000000180045eb0 f i libvcruntimed:undname.obj
 0001:00044f00       ??4DName@@QEAAAEAV0@PEAV0@@Z 0000000180045f00 f   libvcruntimed:undname.obj
 0001:00044fd0       ??4DName@@QEAAAEAV0@PEBD@Z 0000000180045fd0 f   libvcruntimed:undname.obj
 0001:00045020       ??4DName@@QEAAAEAV0@W4DNameStatus@@@Z 0000000180046020 f   libvcruntimed:undname.obj
 0001:000450b0       ??AReplicator@@QEBA?AVDName@@H@Z 00000001800460b0 f   libvcruntimed:undname.obj
 0001:00045140       ??H@YA?AVDName@@DAEBV0@@Z  0000000180046140 f i libvcruntimed:undname.obj
 0001:00045190       ??H@YA?AVDName@@PEBDAEBV0@@Z 0000000180046190 f i libvcruntimed:undname.obj
 0001:000451e0       ??H@YA?AVDName@@W4DNameStatus@@AEBV0@@Z 00000001800461e0 f i libvcruntimed:undname.obj
 0001:00045230       ??HDName@@QEBA?AV0@AEBV0@@Z 0000000180046230 f   libvcruntimed:undname.obj
 0001:00045280       ??HDName@@QEBA?AV0@D@Z     0000000180046280 f   libvcruntimed:undname.obj
 0001:000452d0       ??HDName@@QEBA?AV0@PEAV0@@Z 00000001800462d0 f   libvcruntimed:undname.obj
 0001:00045320       ??HDName@@QEBA?AV0@PEBD@Z  0000000180046320 f   libvcruntimed:undname.obj
 0001:00045370       ??HDName@@QEBA?AV0@W4DNameStatus@@@Z 0000000180046370 f   libvcruntimed:undname.obj
 0001:000453c0       ??YDName@@QEAAAEAV0@AEBV0@@Z 00000001800463c0 f   libvcruntimed:undname.obj
 0001:00045450       ??YDName@@QEAAAEAV0@D@Z    0000000180046450 f   libvcruntimed:undname.obj
 0001:000454f0       ??YDName@@QEAAAEAV0@PEAV0@@Z 00000001800464f0 f   libvcruntimed:undname.obj
 0001:000455e0       ??YDName@@QEAAAEAV0@PEBD@Z 00000001800465e0 f   libvcruntimed:undname.obj
 0001:000456a0       ??YDName@@QEAAAEAV0@W4DNameStatus@@@Z 00000001800466a0 f   libvcruntimed:undname.obj
 0001:00045710       ??YReplicator@@QEAAAEAV0@AEBVDName@@@Z 0000000180046710 f   libvcruntimed:undname.obj
 0001:000457d0       ??_5DName@@QEAAAEAV0@AEBV0@@Z 00000001800467d0 f   libvcruntimed:undname.obj
 0001:00045840       ?Constructor@_HeapManager@@QEAAXP6APEAX_K@ZP6AXPEAX@Z@Z 0000000180046840 f i libvcruntimed:undname.obj
 0001:000458a0       ?Destructor@_HeapManager@@QEAAXXZ 00000001800468a0 f i libvcruntimed:undname.obj
 0001:00045920       ?UScore@UnDecorator@@SAPEBDW4Tokens@@@Z 0000000180046920 f   libvcruntimed:undname.obj
 0001:00045960       ?append@DName@@AEAAXPEBVDNameNode@@@Z 0000000180046960 f   libvcruntimed:undname.obj
 0001:00045a10       ?composeDeclaration@UnDecorator@@CA?AVDName@@AEBV2@@Z 0000000180046a10 f i libvcruntimed:undname.obj
 0001:00047db0       ?dbGetString@DName@@QEBAPEADXZ 0000000180048db0 f   libvcruntimed:undname.obj
 0001:00047de0       ?doAccessSpecifiers@UnDecorator@@SAHXZ 0000000180048de0 f i libvcruntimed:undname.obj
 0001:00047e10       ?doAllocationLanguage@UnDecorator@@SAHXZ 0000000180048e10 f i libvcruntimed:undname.obj
 0001:00047e40       ?doAllocationModel@UnDecorator@@SAHXZ 0000000180048e40 f i libvcruntimed:undname.obj
 0001:00047e70       ?doEcsu@UnDecorator@@SAHXZ 0000000180048e70 f i libvcruntimed:undname.obj
 0001:00047ea0       ?doEllipsis@UnDecorator@@SAHXZ 0000000180048ea0 f i libvcruntimed:undname.obj
 0001:00047ed0       ?doFunctionReturns@UnDecorator@@SAHXZ 0000000180048ed0 f i libvcruntimed:undname.obj
 0001:00047f00       ?doMSKeywords@UnDecorator@@SAHXZ 0000000180048f00 f i libvcruntimed:undname.obj
 0001:00047f30       ?doMemberTypes@UnDecorator@@SAHXZ 0000000180048f30 f i libvcruntimed:undname.obj
 0001:00047f60       ?doNameOnly@UnDecorator@@SAHXZ 0000000180048f60 f i libvcruntimed:undname.obj
 0001:00047f70       ?doNoIdentCharCheck@UnDecorator@@SAHXZ 0000000180048f70 f i libvcruntimed:undname.obj
 0001:00047f80       ?doPchar@DName@@AEAAXPEBDH@Z 0000000180048f80 f   libvcruntimed:undname.obj
 0001:00048110       ?doPtr64@UnDecorator@@SAHXZ 0000000180049110 f i libvcruntimed:undname.obj
 0001:00048140       ?doRestrictionSpec@UnDecorator@@SAHXZ 0000000180049140 f i libvcruntimed:undname.obj
 0001:00048170       ?doThisTypes@UnDecorator@@SAHXZ 0000000180049170 f i libvcruntimed:undname.obj
 0001:000481a0       ?doThrowTypes@UnDecorator@@SAHXZ 00000001800491a0 f i libvcruntimed:undname.obj
 0001:000481d0       ?doTypeOnly@UnDecorator@@SAHXZ 00000001800491d0 f i libvcruntimed:undname.obj
 0001:000481e0       ?doUnderScore@UnDecorator@@SAHXZ 00000001800491e0 f i libvcruntimed:undname.obj
 0001:00048210       ?getArgumentList@UnDecorator@@CA?AVDName@@XZ 0000000180049210 f   libvcruntimed:undname.obj
 0001:000483c0       ?getArgumentTypes@UnDecorator@@CA?AVDName@@XZ 00000001800493c0 f   libvcruntimed:undname.obj
 0001:00048570       ?getArrayType@UnDecorator@@CA?AVDName@@AEBV2@@Z 0000000180049570 f i libvcruntimed:undname.obj
 0001:000488f0       ?getBasedType@UnDecorator@@CA?AVDName@@XZ 00000001800498f0 f   libvcruntimed:undname.obj
 0001:000489f0       ?getBasicDataType@UnDecorator@@CA?AVDName@@AEBV2@@Z 00000001800499f0 f   libvcruntimed:undname.obj
 0001:00049190       ?getCHPEName@UnDecorator@@QEAAPEADPEADH@Z 000000018004a190 f i libvcruntimed:undname.obj
 0001:00049360       ?getCallIndex@UnDecorator@@CA?AVDName@@XZ 000000018004a360 f i libvcruntimed:undname.obj
 0001:00049380       ?getCallingConvention@UnDecorator@@CA?AVDName@@XZ 000000018004a380 f   libvcruntimed:undname.obj
 0001:00049630       ?getDataIndirectType@UnDecorator@@CA?AVDName@@AEBV2@PEBD0H@Z 000000018004a630 f   libvcruntimed:undname.obj
 0001:0004a210       ?getDataIndirectType@UnDecorator@@CA?AVDName@@XZ 000000018004b210 f i libvcruntimed:undname.obj
 0001:0004a270       ?getDataType@UnDecorator@@CA?AVDName@@PEAV2@@Z 000000018004b270 f   libvcruntimed:undname.obj
 0001:0004a400       ?getDecoratedName@UnDecorator@@CA?AVDName@@XZ 000000018004b400 f   libvcruntimed:undname.obj
 0001:0004a8c0       ?getDimension@UnDecorator@@CA?AVDName@@_N@Z 000000018004b8c0 f   libvcruntimed:undname.obj
 0001:0004ac20       ?getDispatchTarget@UnDecorator@@CA?AVDName@@XZ 000000018004bc20 f   libvcruntimed:undname.obj
 0001:0004acf0       ?getDisplacement@UnDecorator@@CA?AVDName@@XZ 000000018004bcf0 f i libvcruntimed:undname.obj
 0001:0004ad10       ?getECSUDataType@UnDecorator@@CA?AVDName@@XZ 000000018004bd10 f   libvcruntimed:undname.obj
 0001:0004af60       ?getECSUName@UnDecorator@@CA?AVDName@@XZ 000000018004bf60 f i libvcruntimed:undname.obj
 0001:0004af80       ?getEnumType@UnDecorator@@CA?AVDName@@XZ 000000018004bf80 f i libvcruntimed:undname.obj
 0001:0004b110       ?getExtendedDataIndirectType@UnDecorator@@CA?AVDName@@AEAPEBDAEA_NH@Z 000000018004c110 f   libvcruntimed:undname.obj
 0001:0004b450       ?getExternalDataType@UnDecorator@@CA?AVDName@@AEBV2@@Z 000000018004c450 f i libvcruntimed:undname.obj
 0001:0004b530       ?getFunctionIndirectType@UnDecorator@@CA?AVDName@@AEBV2@@Z 000000018004c530 f   libvcruntimed:undname.obj
 0001:0004bc00       ?getGuardNumber@UnDecorator@@CA?AVDName@@XZ 000000018004cc00 f i libvcruntimed:undname.obj
 0001:0004bc20       ?getLastChar@DName@@QEBADXZ 000000018004cc20 f i libvcruntimed:undname.obj
 0001:0004bc70       ?getLastChar@DNameStatusNode@@UEBADXZ 000000018004cc70 f i libvcruntimed:undname.obj
 0001:0004bcb0       ?getLastChar@charNode@@UEBADXZ 000000018004ccb0 f i libvcruntimed:undname.obj
 0001:0004bcc0       ?getLastChar@pDNameNode@@UEBADXZ 000000018004ccc0 f i libvcruntimed:undname.obj
 0001:0004bd00       ?getLastChar@pairNode@@UEBADXZ 000000018004cd00 f i libvcruntimed:undname.obj
 0001:0004bd80       ?getLastChar@pcharNode@@UEBADXZ 000000018004cd80 f i libvcruntimed:undname.obj
 0001:0004bdc0       ?getLexicalFrame@UnDecorator@@CA?AVDName@@XZ 000000018004cdc0 f i libvcruntimed:undname.obj
 0001:0004be10       ?getMemory@_HeapManager@@QEAAPEAX_KH@Z 000000018004ce10 f   libvcruntimed:undname.obj
 0001:0004bf90       ?getNoexcept@UnDecorator@@CA?AVDName@@XZ 000000018004cf90 f   libvcruntimed:undname.obj
 0001:0004c020       ?getNumberOfDimensions@UnDecorator@@CAHXZ 000000018004d020 f   libvcruntimed:undname.obj
 0001:0004c140       ?getOperatorName@UnDecorator@@CA?AVDName@@_NPEA_N@Z 000000018004d140 f i libvcruntimed:undname.obj
 0001:0004cfa0       ?getPointerType@UnDecorator@@CA?AVDName@@AEBV2@0@Z 000000018004dfa0 f i libvcruntimed:undname.obj
 0001:0004cff0       ?getPointerTypeArray@UnDecorator@@CA?AVDName@@AEBV2@0@Z 000000018004dff0 f i libvcruntimed:undname.obj
 0001:0004d040       ?getPrimaryDataType@UnDecorator@@CA?AVDName@@AEBV2@@Z 000000018004e040 f   libvcruntimed:undname.obj
 0001:0004d530       ?getPtrRefDataType@UnDecorator@@CA?AVDName@@AEBV2@H@Z 000000018004e530 f   libvcruntimed:undname.obj
 0001:0004d7d0       ?getPtrRefType@UnDecorator@@CA?AVDName@@AEBV2@0PEBD@Z 000000018004e7d0 f   libvcruntimed:undname.obj
 0001:0004d9e0       ?getReferenceType@UnDecorator@@CA?AVDName@@AEBV2@0PEBD@Z 000000018004e9e0 f i libvcruntimed:undname.obj
 0001:0004da20       ?getRestrictionSpec@UnDecorator@@CA?AVDName@@XZ 000000018004ea20 f   libvcruntimed:undname.obj
 0001:0004dbf0       ?getReturnType@UnDecorator@@CA?AVDName@@PEAV2@@Z 000000018004ebf0 f   libvcruntimed:undname.obj
 0001:0004dc50       ?getScope@UnDecorator@@CA?AVDName@@XZ 000000018004ec50 f   libvcruntimed:undname.obj
 0001:0004e370       ?getScopedName@UnDecorator@@CA?AVDName@@XZ 000000018004f370 f   libvcruntimed:undname.obj
 0001:0004e520       ?getSignedDimension@UnDecorator@@CA?AVDName@@XZ 000000018004f520 f   libvcruntimed:undname.obj
 0001:0004e5b0       ?getStorageConvention@UnDecorator@@CA?AVDName@@XZ 000000018004f5b0 f i libvcruntimed:undname.obj
 0001:0004e5d0       ?getString@DName@@QEBAPEADPEAD0@Z 000000018004f5d0 f i libvcruntimed:undname.obj
 0001:0004e650       ?getString@DName@@QEBAPEADPEADH@Z 000000018004f650 f i libvcruntimed:undname.obj
 0001:0004e710       ?getString@DNameStatusNode@@UEBAPEADPEAD0@Z 000000018004f710 f i libvcruntimed:undname.obj
 0001:0004e760       ?getString@charNode@@UEBAPEADPEAD0@Z 000000018004f760 f i libvcruntimed:undname.obj
 0001:0004e7a0       ?getString@pDNameNode@@UEBAPEADPEAD0@Z 000000018004f7a0 f i libvcruntimed:undname.obj
 0001:0004e800       ?getString@pairNode@@UEBAPEADPEAD0@Z 000000018004f800 f i libvcruntimed:undname.obj
 0001:0004e8d0       ?getString@pcharNode@@UEBAPEADPEAD0@Z 000000018004f8d0 f i libvcruntimed:undname.obj
 0001:0004e910       ?getStringEncoding@UnDecorator@@CA?AVDName@@PEBDH@Z 000000018004f910 f   libvcruntimed:undname.obj
 0001:0004ea50       ?getStringHelper@@YAPEADPEADPEBD1H@Z 000000018004fa50 f i libvcruntimed:undname.obj
 0001:0004eac0       ?getSymbolName@UnDecorator@@CA?AVDName@@XZ 000000018004fac0 f i libvcruntimed:undname.obj
 0001:0004eb60       ?getTemplateArgumentList@UnDecorator@@CA?AVDName@@XZ 000000018004fb60 f   libvcruntimed:undname.obj
 0001:0004f020       ?getTemplateConstant@UnDecorator@@CA?AVDName@@XZ 0000000180050020 f   libvcruntimed:undname.obj
 0001:0004f740       ?getTemplateName@UnDecorator@@CA?AVDName@@_N@Z 0000000180050740 f   libvcruntimed:undname.obj
 0001:0004f9a0       ?getThisType@UnDecorator@@CA?AVDName@@XZ 00000001800509a0 f i libvcruntimed:undname.obj
 0001:0004fa00       ?getThrowTypes@UnDecorator@@CA?AVDName@@XZ 0000000180050a00 f   libvcruntimed:undname.obj
 0001:0004fa50       ?getTypeEncoding@UnDecorator@@CAHXZ 0000000180050a50 f i libvcruntimed:undname.obj
 0001:00050650       ?getUndecoratedName@UnDecorator@@QEAAPEADPEADH@Z 0000000180051650 f i libvcruntimed:undname.obj
 0001:00050810       ?getVCallThunkType@UnDecorator@@CA?AVDName@@XZ 0000000180051810 f i libvcruntimed:undname.obj
 0001:00050890       ?getVbTableType@UnDecorator@@CA?AVDName@@AEBV2@@Z 0000000180051890 f i libvcruntimed:undname.obj
 0001:000508c0       ?getVdispMapType@UnDecorator@@CA?AVDName@@AEBV2@@Z 00000001800518c0 f i libvcruntimed:undname.obj
 0001:00050960       ?getVfTableType@UnDecorator@@CA?AVDName@@AEBV2@@Z 0000000180051960 f i libvcruntimed:undname.obj
 0001:00050bc0       ?getZName@UnDecorator@@CA?AVDName@@_N0@Z 0000000180051bc0 f   libvcruntimed:undname.obj
 0001:00050fb0       ?haveTemplateParameters@UnDecorator@@SAHXZ 0000000180051fb0 f i libvcruntimed:undname.obj
 0001:00050fc0       ?isArray@DName@@QEBAHXZ    0000000180051fc0 f i libvcruntimed:undname.obj
 0001:00050fe0       ?isComArray@DName@@QEBAHXZ 0000000180051fe0 f i libvcruntimed:undname.obj
 0001:00051000       ?isEmpty@DName@@QEBAHXZ    0000000180052000 f i libvcruntimed:undname.obj
 0001:00051030       ?isFull@Replicator@@QEBAHXZ 0000000180052030 f i libvcruntimed:undname.obj
 0001:00051060       ?isNoTE@DName@@QEBAHXZ     0000000180052060 f i libvcruntimed:undname.obj
 0001:00051080       ?isPinPtr@DName@@QEBAHXZ   0000000180052080 f i libvcruntimed:undname.obj
 0001:000510a0       ?isPtrRef@DName@@QEBAHXZ   00000001800520a0 f i libvcruntimed:undname.obj
 0001:000510c0       ?isUDC@DName@@QEBAHXZ      00000001800520c0 f i libvcruntimed:undname.obj
 0001:00051110       ?isUDTThunk@DName@@QEBAHXZ 0000000180052110 f i libvcruntimed:undname.obj
 0001:00051160       ?isVCallThunk@DName@@QEBAHXZ 0000000180052160 f i libvcruntimed:undname.obj
 0001:00051180       ?isValid@DName@@QEBAHXZ    0000000180052180 f i libvcruntimed:undname.obj
 0001:000511c0       ?length@DName@@QEBAHXZ     00000001800521c0 f i libvcruntimed:undname.obj
 0001:00051210       ?length@DNameStatusNode@@UEBAHXZ 0000000180052210 f i libvcruntimed:undname.obj
 0001:00051220       ?length@charNode@@UEBAHXZ  0000000180052220 f i libvcruntimed:undname.obj
 0001:00051230       ?length@pDNameNode@@UEBAHXZ 0000000180052230 f i libvcruntimed:undname.obj
 0001:00051270       ?length@pairNode@@UEBAHXZ  0000000180052270 f i libvcruntimed:undname.obj
 0001:00051300       ?length@pcharNode@@UEBAHXZ 0000000180052300 f i libvcruntimed:undname.obj
 0001:00051310       ?make@DNameStatusNode@@SAPEBV1@W4DNameStatus@@@Z 0000000180052310 f i libvcruntimed:undname.obj
 0001:00051360       ?parseDecoratedName@UnDecorator@@CA?AVDName@@XZ 0000000180052360 f   libvcruntimed:undname.obj
 0001:00051540       ?setIsArray@DName@@QEAAXXZ 0000000180052540 f i libvcruntimed:undname.obj
 0001:00051560       ?setIsComArray@DName@@QEAAXXZ 0000000180052560 f i libvcruntimed:undname.obj
 0001:00051580       ?setIsNoTE@DName@@QEAAXXZ  0000000180052580 f i libvcruntimed:undname.obj
 0001:000515a0       ?setIsPinPtr@DName@@QEAAXXZ 00000001800525a0 f i libvcruntimed:undname.obj
 0001:000515c0       ?setIsUDC@DName@@QEAAXXZ   00000001800525c0 f i libvcruntimed:undname.obj
 0001:000515f0       ?setIsVCallThunk@DName@@QEAAXXZ 00000001800525f0 f i libvcruntimed:undname.obj
 0001:00051610       ?setPtrRef@DName@@QEAAAEAV1@XZ 0000000180052610 f i libvcruntimed:undname.obj
 0001:00051630       ?status@DName@@QEBA?AW4DNameStatus@@XZ 0000000180052630 f i libvcruntimed:undname.obj
 0001:00051760       __unDName                  0000000180052760 f   libvcruntimed:undname.obj
 0001:000517c0       __unDNameEx                00000001800527c0 f   libvcruntimed:undname.obj
 0001:00051880       unDNameGenerateCHPE        0000000180052880 f   libvcruntimed:undname.obj
 0001:00051940       _CallSettingFrame          0000000180052940 f   libvcruntimed:handlers.obj
 0001:00051990       _CallSettingFrameEncoded   0000000180052990 f   libvcruntimed:handlers.obj
 0001:000519e0       ??$?0AEBV?$stream_output_adapter@D@__crt_stdio_output@@AEB_KAEBQEBDAEBQEAU__crt_locale_pointers@@AEBQEAD@?$format_validation_base@DV?$stream_output_adapter@D@__crt_stdio_output@@@__crt_stdio_output@@IEAA@AEBV?$stream_output_adapter@D@1@AEB_KAEBQEBDAEBQEAU__crt_locale_pointers@@AEBQEAD@Z 00000001800529e0 f i libucrtd:output.obj
 0001:00051a30       ??$?0AEBV?$stream_output_adapter@D@__crt_stdio_output@@AEB_KAEBQEBDAEBQEAU__crt_locale_pointers@@AEBQEAD@?$positional_parameter_base@DV?$stream_output_adapter@D@__crt_stdio_output@@@__crt_stdio_output@@IEAA@AEBV?$stream_output_adapter@D@1@AEB_KAEBQEBDAEBQEAU__crt_locale_pointers@@AEBQEAD@Z 0000000180052a30 f i libucrtd:output.obj
 0001:00051ad0       ??$?0AEBV?$stream_output_adapter@D@__crt_stdio_output@@AEB_KAEBQEBDAEBQEAU__crt_locale_pointers@@AEBQEAD@?$standard_base@DV?$stream_output_adapter@D@__crt_stdio_output@@@__crt_stdio_output@@IEAA@AEBV?$stream_output_adapter@D@1@AEB_KAEBQEBDAEBQEAU__crt_locale_pointers@@AEBQEAD@Z 0000000180052ad0 f i libucrtd:output.obj
 0001:00051b40       ??$?0AEBV?$stream_output_adapter@_W@__crt_stdio_output@@AEB_KAEBQEB_WAEBQEAU__crt_locale_pointers@@AEBQEAD@?$format_validation_base@_WV?$stream_output_adapter@_W@__crt_stdio_output@@@__crt_stdio_output@@IEAA@AEBV?$stream_output_adapter@_W@1@AEB_KAEBQEB_WAEBQEAU__crt_locale_pointers@@AEBQEAD@Z 0000000180052b40 f i libucrtd:output.obj
 0001:00051b90       ??$?0AEBV?$stream_output_adapter@_W@__crt_stdio_output@@AEB_KAEBQEB_WAEBQEAU__crt_locale_pointers@@AEBQEAD@?$positional_parameter_base@_WV?$stream_output_adapter@_W@__crt_stdio_output@@@__crt_stdio_output@@IEAA@AEBV?$stream_output_adapter@_W@1@AEB_KAEBQEB_WAEBQEAU__crt_locale_pointers@@AEBQEAD@Z 0000000180052b90 f i libucrtd:output.obj
 0001:00051c30       ??$?0AEBV?$stream_output_adapter@_W@__crt_stdio_output@@AEB_KAEBQEB_WAEBQEAU__crt_locale_pointers@@AEBQEAD@?$standard_base@_WV?$stream_output_adapter@_W@__crt_stdio_output@@@__crt_stdio_output@@IEAA@AEBV?$stream_output_adapter@_W@1@AEB_KAEBQEB_WAEBQEAU__crt_locale_pointers@@AEBQEAD@Z 0000000180052c30 f i libucrtd:output.obj
 0001:00051ca0       ??$?0AEBV?$string_output_adapter@D@__crt_stdio_output@@AEB_KAEBQEBDAEBQEAU__crt_locale_pointers@@AEBQEAD@?$format_validation_base@DV?$string_output_adapter@D@__crt_stdio_output@@@__crt_stdio_output@@IEAA@AEBV?$string_output_adapter@D@1@AEB_KAEBQEBDAEBQEAU__crt_locale_pointers@@AEBQEAD@Z 0000000180052ca0 f i libucrtd:output.obj
 0001:00051cf0       ??$?0AEBV?$string_output_adapter@D@__crt_stdio_output@@AEB_KAEBQEBDAEBQEAU__crt_locale_pointers@@AEBQEAD@?$positional_parameter_base@DV?$string_output_adapter@D@__crt_stdio_output@@@__crt_stdio_output@@IEAA@AEBV?$string_output_adapter@D@1@AEB_KAEBQEBDAEBQEAU__crt_locale_pointers@@AEBQEAD@Z 0000000180052cf0 f i libucrtd:output.obj
 0001:00051d90       ??$?0AEBV?$string_output_adapter@D@__crt_stdio_output@@AEB_KAEBQEBDAEBQEAU__crt_locale_pointers@@AEBQEAD@?$standard_base@DV?$string_output_adapter@D@__crt_stdio_output@@@__crt_stdio_output@@IEAA@AEBV?$string_output_adapter@D@1@AEB_KAEBQEBDAEBQEAU__crt_locale_pointers@@AEBQEAD@Z 0000000180052d90 f i libucrtd:output.obj
 0001:00051e00       ??$?0AEBV?$string_output_adapter@_W@__crt_stdio_output@@AEB_KAEBQEB_WAEBQEAU__crt_locale_pointers@@AEBQEAD@?$format_validation_base@_WV?$string_output_adapter@_W@__crt_stdio_output@@@__crt_stdio_output@@IEAA@AEBV?$string_output_adapter@_W@1@AEB_KAEBQEB_WAEBQEAU__crt_locale_pointers@@AEBQEAD@Z 0000000180052e00 f i libucrtd:output.obj
 0001:00051e50       ??$?0AEBV?$string_output_adapter@_W@__crt_stdio_output@@AEB_KAEBQEB_WAEBQEAU__crt_locale_pointers@@AEBQEAD@?$positional_parameter_base@_WV?$string_output_adapter@_W@__crt_stdio_output@@@__crt_stdio_output@@IEAA@AEBV?$string_output_adapter@_W@1@AEB_KAEBQEB_WAEBQEAU__crt_locale_pointers@@AEBQEAD@Z 0000000180052e50 f i libucrtd:output.obj
 0001:00051ef0       ??$?0AEBV?$string_output_adapter@_W@__crt_stdio_output@@AEB_KAEBQEB_WAEBQEAU__crt_locale_pointers@@AEBQEAD@?$standard_base@_WV?$string_output_adapter@_W@__crt_stdio_output@@@__crt_stdio_output@@IEAA@AEBV?$string_output_adapter@_W@1@AEB_KAEBQEB_WAEBQEAU__crt_locale_pointers@@AEBQEAD@Z 0000000180052ef0 f i libucrtd:output.obj
 0001:00051f60       ??$?RV<lambda_2647abb55a408a205467c4169a724277>@@AEAV<lambda_576477a770bb5ab586b2d9569451c7f7>@@V<lambda_c2b006f504a10a4cf14b9a1fbce2a01e>@@@?$__crt_seh_guarded_call@H@@QEAAH$$QEAV<lambda_2647abb55a408a205467c4169a724277>@@AEAV<lambda_576477a770bb5ab586b2d9569451c7f7>@@$$QEAV<lambda_c2b006f504a10a4cf14b9a1fbce2a01e>@@@Z 0000000180052f60 f i libucrtd:output.obj
 0001:00051fb0       ??$?RV<lambda_2b8ba55cb2a29189d70f882b678c7350>@@AEAV<lambda_ab9668973a2a61b07c64846465621f55>@@V<lambda_748afda9c1ab82b4e15f74dcdf75db74>@@@?$__crt_seh_guarded_call@H@@QEAAH$$QEAV<lambda_2b8ba55cb2a29189d70f882b678c7350>@@AEAV<lambda_ab9668973a2a61b07c64846465621f55>@@$$QEAV<lambda_748afda9c1ab82b4e15f74dcdf75db74>@@@Z 0000000180052fb0 f i libucrtd:output.obj
 0001:00052000       ??$?RV<lambda_4942f9dcb8a83a0b649775421cdab7f2>@@AEAV<lambda_9fdeb54d99e6c7e515b8c19e0613d470>@@V<lambda_f61bc4569557b8ad96931f67d51af400>@@@?$__crt_seh_guarded_call@H@@QEAAH$$QEAV<lambda_4942f9dcb8a83a0b649775421cdab7f2>@@AEAV<lambda_9fdeb54d99e6c7e515b8c19e0613d470>@@$$QEAV<lambda_f61bc4569557b8ad96931f67d51af400>@@@Z 0000000180053000 f i libucrtd:output.obj
 0001:00052050       ??$?RV<lambda_7b91131dde12e1c3dfc74ff76b3f2eac>@@AEAV<lambda_dd75445284c072d0bd3768540cc698fa>@@V<lambda_16bc4ecb55b4718497c16bceaea2ceaf>@@@?$__crt_seh_guarded_call@H@@QEAAH$$QEAV<lambda_7b91131dde12e1c3dfc74ff76b3f2eac>@@AEAV<lambda_dd75445284c072d0bd3768540cc698fa>@@$$QEAV<lambda_16bc4ecb55b4718497c16bceaea2ceaf>@@@Z 0000000180053050 f i libucrtd:output.obj
 0001:000520a0       ??$?RV<lambda_aa279a7bcb127014629d5b1d62c7325d>@@AEAV<lambda_0a64b6a4deda75c01876f29c44fc5eb3>@@V<lambda_3323e69fbefe9d1a11713e670d47cdfa>@@@?$__crt_seh_guarded_call@H@@QEAAH$$QEAV<lambda_aa279a7bcb127014629d5b1d62c7325d>@@AEAV<lambda_0a64b6a4deda75c01876f29c44fc5eb3>@@$$QEAV<lambda_3323e69fbefe9d1a11713e670d47cdfa>@@@Z 00000001800530a0 f i libucrtd:output.obj
 0001:000520f0       ??$?RV<lambda_c232a0c49490a30f399a8430f51b50ba>@@AEAV<lambda_7b6c652cce95ef5b7c2ff34f92bf0578>@@V<lambda_c415c6f6d9d103d7e93818ef66b8cc8a>@@@?$__crt_seh_guarded_call@H@@QEAAH$$QEAV<lambda_c232a0c49490a30f399a8430f51b50ba>@@AEAV<lambda_7b6c652cce95ef5b7c2ff34f92bf0578>@@$$QEAV<lambda_c415c6f6d9d103d7e93818ef66b8cc8a>@@@Z 00000001800530f0 f i libucrtd:output.obj
 0001:00052140       ??$__acrt_lock_stream_and_call@V<lambda_0a64b6a4deda75c01876f29c44fc5eb3>@@@@YAHQEAU_iobuf@@$$QEAV<lambda_0a64b6a4deda75c01876f29c44fc5eb3>@@@Z 0000000180053140 f i libucrtd:output.obj
 0001:000521b0       ??$__acrt_lock_stream_and_call@V<lambda_576477a770bb5ab586b2d9569451c7f7>@@@@YAHQEAU_iobuf@@$$QEAV<lambda_576477a770bb5ab586b2d9569451c7f7>@@@Z 00000001800531b0 f i libucrtd:output.obj
 0001:00052220       ??$__acrt_lock_stream_and_call@V<lambda_7b6c652cce95ef5b7c2ff34f92bf0578>@@@@YAHQEAU_iobuf@@$$QEAV<lambda_7b6c652cce95ef5b7c2ff34f92bf0578>@@@Z 0000000180053220 f i libucrtd:output.obj
 0001:00052290       ??$__acrt_lock_stream_and_call@V<lambda_9fdeb54d99e6c7e515b8c19e0613d470>@@@@YAHQEAU_iobuf@@$$QEAV<lambda_9fdeb54d99e6c7e515b8c19e0613d470>@@@Z 0000000180053290 f i libucrtd:output.obj
 0001:00052300       ??$__acrt_lock_stream_and_call@V<lambda_ab9668973a2a61b07c64846465621f55>@@@@YAHQEAU_iobuf@@$$QEAV<lambda_ab9668973a2a61b07c64846465621f55>@@@Z 0000000180053300 f i libucrtd:output.obj
 0001:00052370       ??$__acrt_lock_stream_and_call@V<lambda_dd75445284c072d0bd3768540cc698fa>@@@@YAHQEAU_iobuf@@$$QEAV<lambda_dd75445284c072d0bd3768540cc698fa>@@@Z 0000000180053370 f i libucrtd:output.obj
 0001:000523e0       ??$__crt_interlocked_read@J@@YAJPEDJ@Z 00000001800533e0 f i libucrtd:output.obj
 0001:00055ec0       ??$count@D@formatting_buffer@__crt_stdio_output@@QEBA_KXZ 0000000180056ec0 f i libucrtd:output.obj
 0001:00055f10       ??$data@D@formatting_buffer@__crt_stdio_output@@QEAAPEADXZ 0000000180056f10 f i libucrtd:output.obj
 0001:00055f60       ??$data@_W@formatting_buffer@__crt_stdio_output@@QEAAPEA_WXZ 0000000180056f60 f i libucrtd:output.obj
 0001:00055fb0       ??$ensure_buffer_is_big_enough@D@formatting_buffer@__crt_stdio_output@@QEAA_N_K@Z 0000000180056fb0 f i libucrtd:output.obj
 0001:000560e0       ??$extract_argument_from_va_list@C_J@?$positional_parameter_base@DV?$stream_output_adapter@D@__crt_stdio_output@@@__crt_stdio_output@@IEAA_NAEA_J@Z 00000001800570e0 f i libucrtd:output.obj
 0001:00056260       ??$extract_argument_from_va_list@C_J@?$positional_parameter_base@DV?$string_output_adapter@D@__crt_stdio_output@@@__crt_stdio_output@@IEAA_NAEA_J@Z 0000000180057260 f i libucrtd:output.obj
 0001:000563e0       ??$extract_argument_from_va_list@C_J@?$positional_parameter_base@_WV?$stream_output_adapter@_W@__crt_stdio_output@@@__crt_stdio_output@@IEAA_NAEA_J@Z 00000001800573e0 f i libucrtd:output.obj
 0001:00056560       ??$extract_argument_from_va_list@C_J@?$positional_parameter_base@_WV?$string_output_adapter@_W@__crt_stdio_output@@@__crt_stdio_output@@IEAA_NAEA_J@Z 0000000180057560 f i libucrtd:output.obj
 0001:000566e0       ??$extract_argument_from_va_list@C_J@?$standard_base@DV?$stream_output_adapter@D@__crt_stdio_output@@@__crt_stdio_output@@IEAA_NAEA_J@Z 00000001800576e0 f i libucrtd:output.obj
 0001:00056720       ??$extract_argument_from_va_list@C_J@?$standard_base@DV?$string_output_adapter@D@__crt_stdio_output@@@__crt_stdio_output@@IEAA_NAEA_J@Z 0000000180057720 f i libucrtd:output.obj
 0001:00056760       ??$extract_argument_from_va_list@C_J@?$standard_base@_WV?$stream_output_adapter@_W@__crt_stdio_output@@@__crt_stdio_output@@IEAA_NAEA_J@Z 0000000180057760 f i libucrtd:output.obj
 0001:000567a0       ??$extract_argument_from_va_list@C_J@?$standard_base@_WV?$string_output_adapter@_W@__crt_stdio_output@@@__crt_stdio_output@@IEAA_NAEA_J@Z 00000001800577a0 f i libucrtd:output.obj
 0001:000567e0       ??$extract_argument_from_va_list@E_J@?$positional_parameter_base@DV?$stream_output_adapter@D@__crt_stdio_output@@@__crt_stdio_output@@IEAA_NAEA_J@Z 00000001800577e0 f i libucrtd:output.obj
 0001:00056960       ??$extract_argument_from_va_list@E_J@?$positional_parameter_base@DV?$string_output_adapter@D@__crt_stdio_output@@@__crt_stdio_output@@IEAA_NAEA_J@Z 0000000180057960 f i libucrtd:output.obj
 0001:00056ae0       ??$extract_argument_from_va_list@E_J@?$positional_parameter_base@_WV?$stream_output_adapter@_W@__crt_stdio_output@@@__crt_stdio_output@@IEAA_NAEA_J@Z 0000000180057ae0 f i libucrtd:output.obj
 0001:00056c60       ??$extract_argument_from_va_list@E_J@?$positional_parameter_base@_WV?$string_output_adapter@_W@__crt_stdio_output@@@__crt_stdio_output@@IEAA_NAEA_J@Z 0000000180057c60 f i libucrtd:output.obj
 0001:00056de0       ??$extract_argument_from_va_list@E_J@?$standard_base@DV?$stream_output_adapter@D@__crt_stdio_output@@@__crt_stdio_output@@IEAA_NAEA_J@Z 0000000180057de0 f i libucrtd:output.obj
 0001:00056e20       ??$extract_argument_from_va_list@E_J@?$standard_base@DV?$string_output_adapter@D@__crt_stdio_output@@@__crt_stdio_output@@IEAA_NAEA_J@Z 0000000180057e20 f i libucrtd:output.obj
 0001:00056e60       ??$extract_argument_from_va_list@E_J@?$standard_base@_WV?$stream_output_adapter@_W@__crt_stdio_output@@@__crt_stdio_output@@IEAA_NAEA_J@Z 0000000180057e60 f i libucrtd:output.obj
 0001:00056ea0       ??$extract_argument_from_va_list@E_J@?$standard_base@_WV?$string_output_adapter@_W@__crt_stdio_output@@@__crt_stdio_output@@IEAA_NAEA_J@Z 0000000180057ea0 f i libucrtd:output.obj
 0001:00056ee0       ??$extract_argument_from_va_list@F_J@?$positional_parameter_base@DV?$stream_output_adapter@D@__crt_stdio_output@@@__crt_stdio_output@@IEAA_NAEA_J@Z 0000000180057ee0 f i libucrtd:output.obj
 0001:00057060       ??$extract_argument_from_va_list@F_J@?$positional_parameter_base@DV?$string_output_adapter@D@__crt_stdio_output@@@__crt_stdio_output@@IEAA_NAEA_J@Z 0000000180058060 f i libucrtd:output.obj
 0001:000571e0       ??$extract_argument_from_va_list@F_J@?$positional_parameter_base@_WV?$stream_output_adapter@_W@__crt_stdio_output@@@__crt_stdio_output@@IEAA_NAEA_J@Z 00000001800581e0 f i libucrtd:output.obj
 0001:00057360       ??$extract_argument_from_va_list@F_J@?$positional_parameter_base@_WV?$string_output_adapter@_W@__crt_stdio_output@@@__crt_stdio_output@@IEAA_NAEA_J@Z 0000000180058360 f i libucrtd:output.obj
 0001:000574e0       ??$extract_argument_from_va_list@F_J@?$standard_base@DV?$stream_output_adapter@D@__crt_stdio_output@@@__crt_stdio_output@@IEAA_NAEA_J@Z 00000001800584e0 f i libucrtd:output.obj
 0001:00057520       ??$extract_argument_from_va_list@F_J@?$standard_base@DV?$string_output_adapter@D@__crt_stdio_output@@@__crt_stdio_output@@IEAA_NAEA_J@Z 0000000180058520 f i libucrtd:output.obj
 0001:00057560       ??$extract_argument_from_va_list@F_J@?$standard_base@_WV?$stream_output_adapter@_W@__crt_stdio_output@@@__crt_stdio_output@@IEAA_NAEA_J@Z 0000000180058560 f i libucrtd:output.obj
 0001:000575a0       ??$extract_argument_from_va_list@F_J@?$standard_base@_WV?$string_output_adapter@_W@__crt_stdio_output@@@__crt_stdio_output@@IEAA_NAEA_J@Z 00000001800585a0 f i libucrtd:output.obj
 0001:000575e0       ??$extract_argument_from_va_list@GD@?$positional_parameter_base@DV?$stream_output_adapter@D@__crt_stdio_output@@@__crt_stdio_output@@IEAA_NAEAD@Z 00000001800585e0 f i libucrtd:output.obj
 0001:00057760       ??$extract_argument_from_va_list@GD@?$positional_parameter_base@DV?$string_output_adapter@D@__crt_stdio_output@@@__crt_stdio_output@@IEAA_NAEAD@Z 0000000180058760 f i libucrtd:output.obj
 0001:000578e0       ??$extract_argument_from_va_list@GD@?$standard_base@DV?$stream_output_adapter@D@__crt_stdio_output@@@__crt_stdio_output@@IEAA_NAEAD@Z 00000001800588e0 f i libucrtd:output.obj
 0001:00057910       ??$extract_argument_from_va_list@GD@?$standard_base@DV?$string_output_adapter@D@__crt_stdio_output@@@__crt_stdio_output@@IEAA_NAEAD@Z 0000000180058910 f i libucrtd:output.obj
 0001:00057940       ??$extract_argument_from_va_list@G_J@?$positional_parameter_base@DV?$stream_output_adapter@D@__crt_stdio_output@@@__crt_stdio_output@@IEAA_NAEA_J@Z 0000000180058940 f i libucrtd:output.obj
 0001:00057ac0       ??$extract_argument_from_va_list@G_J@?$positional_parameter_base@DV?$string_output_adapter@D@__crt_stdio_output@@@__crt_stdio_output@@IEAA_NAEA_J@Z 0000000180058ac0 f i libucrtd:output.obj
 0001:00057c40       ??$extract_argument_from_va_list@G_J@?$positional_parameter_base@_WV?$stream_output_adapter@_W@__crt_stdio_output@@@__crt_stdio_output@@IEAA_NAEA_J@Z 0000000180058c40 f i libucrtd:output.obj
 0001:00057dc0       ??$extract_argument_from_va_list@G_J@?$positional_parameter_base@_WV?$string_output_adapter@_W@__crt_stdio_output@@@__crt_stdio_output@@IEAA_NAEA_J@Z 0000000180058dc0 f i libucrtd:output.obj
 0001:00057f40       ??$extract_argument_from_va_list@G_J@?$standard_base@DV?$stream_output_adapter@D@__crt_stdio_output@@@__crt_stdio_output@@IEAA_NAEA_J@Z 0000000180058f40 f i libucrtd:output.obj
 0001:00057f80       ??$extract_argument_from_va_list@G_J@?$standard_base@DV?$string_output_adapter@D@__crt_stdio_output@@@__crt_stdio_output@@IEAA_NAEA_J@Z 0000000180058f80 f i libucrtd:output.obj
 0001:00057fc0       ??$extract_argument_from_va_list@G_J@?$standard_base@_WV?$stream_output_adapter@_W@__crt_stdio_output@@@__crt_stdio_output@@IEAA_NAEA_J@Z 0000000180058fc0 f i libucrtd:output.obj
 0001:00058000       ??$extract_argument_from_va_list@G_J@?$standard_base@_WV?$string_output_adapter@_W@__crt_stdio_output@@@__crt_stdio_output@@IEAA_NAEA_J@Z 0000000180059000 f i libucrtd:output.obj
 0001:00058040       ??$extract_argument_from_va_list@H_J@?$positional_parameter_base@DV?$stream_output_adapter@D@__crt_stdio_output@@@__crt_stdio_output@@IEAA_NAEA_J@Z 0000000180059040 f i libucrtd:output.obj
 0001:000581c0       ??$extract_argument_from_va_list@H_J@?$positional_parameter_base@DV?$string_output_adapter@D@__crt_stdio_output@@@__crt_stdio_output@@IEAA_NAEA_J@Z 00000001800591c0 f i libucrtd:output.obj
 0001:00058340       ??$extract_argument_from_va_list@H_J@?$positional_parameter_base@_WV?$stream_output_adapter@_W@__crt_stdio_output@@@__crt_stdio_output@@IEAA_NAEA_J@Z 0000000180059340 f i libucrtd:output.obj
 0001:000584c0       ??$extract_argument_from_va_list@H_J@?$positional_parameter_base@_WV?$string_output_adapter@_W@__crt_stdio_output@@@__crt_stdio_output@@IEAA_NAEA_J@Z 00000001800594c0 f i libucrtd:output.obj
 0001:00058640       ??$extract_argument_from_va_list@H_J@?$standard_base@DV?$stream_output_adapter@D@__crt_stdio_output@@@__crt_stdio_output@@IEAA_NAEA_J@Z 0000000180059640 f i libucrtd:output.obj
 0001:00058670       ??$extract_argument_from_va_list@H_J@?$standard_base@DV?$string_output_adapter@D@__crt_stdio_output@@@__crt_stdio_output@@IEAA_NAEA_J@Z 0000000180059670 f i libucrtd:output.obj
 0001:000586a0       ??$extract_argument_from_va_list@H_J@?$standard_base@_WV?$stream_output_adapter@_W@__crt_stdio_output@@@__crt_stdio_output@@IEAA_NAEA_J@Z 00000001800596a0 f i libucrtd:output.obj
 0001:000586d0       ??$extract_argument_from_va_list@H_J@?$standard_base@_WV?$string_output_adapter@_W@__crt_stdio_output@@@__crt_stdio_output@@IEAA_NAEA_J@Z 00000001800596d0 f i libucrtd:output.obj
 0001:00058700       ??$extract_argument_from_va_list@I_J@?$positional_parameter_base@DV?$stream_output_adapter@D@__crt_stdio_output@@@__crt_stdio_output@@IEAA_NAEA_J@Z 0000000180059700 f i libucrtd:output.obj
 0001:00058880       ??$extract_argument_from_va_list@I_J@?$positional_parameter_base@DV?$string_output_adapter@D@__crt_stdio_output@@@__crt_stdio_output@@IEAA_NAEA_J@Z 0000000180059880 f i libucrtd:output.obj
 0001:00058a00       ??$extract_argument_from_va_list@I_J@?$positional_parameter_base@_WV?$stream_output_adapter@_W@__crt_stdio_output@@@__crt_stdio_output@@IEAA_NAEA_J@Z 0000000180059a00 f i libucrtd:output.obj
 0001:00058b80       ??$extract_argument_from_va_list@I_J@?$positional_parameter_base@_WV?$string_output_adapter@_W@__crt_stdio_output@@@__crt_stdio_output@@IEAA_NAEA_J@Z 0000000180059b80 f i libucrtd:output.obj
 0001:00058d00       ??$extract_argument_from_va_list@I_J@?$standard_base@DV?$stream_output_adapter@D@__crt_stdio_output@@@__crt_stdio_output@@IEAA_NAEA_J@Z 0000000180059d00 f i libucrtd:output.obj
 0001:00058d30       ??$extract_argument_from_va_list@I_J@?$standard_base@DV?$string_output_adapter@D@__crt_stdio_output@@@__crt_stdio_output@@IEAA_NAEA_J@Z 0000000180059d30 f i libucrtd:output.obj
 0001:00058d60       ??$extract_argument_from_va_list@I_J@?$standard_base@_WV?$stream_output_adapter@_W@__crt_stdio_output@@@__crt_stdio_output@@IEAA_NAEA_J@Z 0000000180059d60 f i libucrtd:output.obj
 0001:00058d90       ??$extract_argument_from_va_list@I_J@?$standard_base@_WV?$string_output_adapter@_W@__crt_stdio_output@@@__crt_stdio_output@@IEAA_NAEA_J@Z 0000000180059d90 f i libucrtd:output.obj
 0001:00058dc0       ??$extract_argument_from_va_list@PEADPEAD@?$positional_parameter_base@DV?$stream_output_adapter@D@__crt_stdio_output@@@__crt_stdio_output@@IEAA_NAEAPEAD@Z 0000000180059dc0 f i libucrtd:output.obj
 0001:00058f40       ??$extract_argument_from_va_list@PEADPEAD@?$positional_parameter_base@DV?$string_output_adapter@D@__crt_stdio_output@@@__crt_stdio_output@@IEAA_NAEAPEAD@Z 0000000180059f40 f i libucrtd:output.obj
 0001:000590c0       ??$extract_argument_from_va_list@PEADPEAD@?$positional_parameter_base@_WV?$stream_output_adapter@_W@__crt_stdio_output@@@__crt_stdio_output@@IEAA_NAEAPEAD@Z 000000018005a0c0 f i libucrtd:output.obj
 0001:00059240       ??$extract_argument_from_va_list@PEADPEAD@?$positional_parameter_base@_WV?$string_output_adapter@_W@__crt_stdio_output@@@__crt_stdio_output@@IEAA_NAEAPEAD@Z 000000018005a240 f i libucrtd:output.obj
 0001:000593c0       ??$extract_argument_from_va_list@PEADPEAD@?$standard_base@DV?$stream_output_adapter@D@__crt_stdio_output@@@__crt_stdio_output@@IEAA_NAEAPEAD@Z 000000018005a3c0 f i libucrtd:output.obj
 0001:000593f0       ??$extract_argument_from_va_list@PEADPEAD@?$standard_base@DV?$string_output_adapter@D@__crt_stdio_output@@@__crt_stdio_output@@IEAA_NAEAPEAD@Z 000000018005a3f0 f i libucrtd:output.obj
 0001:00059420       ??$extract_argument_from_va_list@PEADPEAD@?$standard_base@_WV?$stream_output_adapter@_W@__crt_stdio_output@@@__crt_stdio_output@@IEAA_NAEAPEAD@Z 000000018005a420 f i libucrtd:output.obj
 0001:00059450       ??$extract_argument_from_va_list@PEADPEAD@?$standard_base@_WV?$string_output_adapter@_W@__crt_stdio_output@@@__crt_stdio_output@@IEAA_NAEAPEAD@Z 000000018005a450 f i libucrtd:output.obj
 0001:00059480       ??$extract_argument_from_va_list@PEAUansi_string@?1??type_case_Z@?$output_processor@DV?$stream_output_adapter@D@__crt_stdio_output@@V?$format_validation_base@DV?$stream_output_adapter@D@__crt_stdio_output@@@2@@__crt_stdio_output@@AEAA_NXZ@PEAU1?1??234@AEAA_NXZ@@?$standard_base@DV?$stream_output_adapter@D@__crt_stdio_output@@@__crt_stdio_output@@IEAA_NAEAPEAUansi_string@?1??type_case_Z@?$output_processor@DV?$stream_output_adapter@D@__crt_stdio_output@@V?$format_validation_base@DV?$stream_output_adapter@D@__crt_stdio_output@@@2@@1@AEAA_NXZ@@Z 000000018005a480 f i libucrtd:output.obj
 0001:000594b0       ??$extract_argument_from_va_list@PEAUansi_string@?1??type_case_Z@?$output_processor@DV?$stream_output_adapter@D@__crt_stdio_output@@V?$positional_parameter_base@DV?$stream_output_adapter@D@__crt_stdio_output@@@2@@__crt_stdio_output@@AEAA_NXZ@PEAU1?1??234@AEAA_NXZ@@?$positional_parameter_base@DV?$stream_output_adapter@D@__crt_stdio_output@@@__crt_stdio_output@@IEAA_NAEAPEAUansi_string@?1??type_case_Z@?$output_processor@DV?$stream_output_adapter@D@__crt_stdio_output@@V?$positional_parameter_base@DV?$stream_output_adapter@D@__crt_stdio_output@@@2@@1@AEAA_NXZ@@Z 000000018005a4b0 f i libucrtd:output.obj
 0001:00059630       ??$extract_argument_from_va_list@PEAUansi_string@?1??type_case_Z@?$output_processor@DV?$stream_output_adapter@D@__crt_stdio_output@@V?$positional_parameter_base@DV?$stream_output_adapter@D@__crt_stdio_output@@@2@@__crt_stdio_output@@AEAA_NXZ@PEAU1?1??234@AEAA_NXZ@@?$standard_base@DV?$stream_output_adapter@D@__crt_stdio_output@@@__crt_stdio_output@@IEAA_NAEAPEAUansi_string@?1??type_case_Z@?$output_processor@DV?$stream_output_adapter@D@__crt_stdio_output@@V?$positional_parameter_base@DV?$stream_output_adapter@D@__crt_stdio_output@@@2@@1@AEAA_NXZ@@Z 000000018005a630 f i libucrtd:output.obj
 0001:00059660       ??$extract_argument_from_va_list@PEAUansi_string@?1??type_case_Z@?$output_processor@DV?$stream_output_adapter@D@__crt_stdio_output@@V?$standard_base@DV?$stream_output_adapter@D@__crt_stdio_output@@@2@@__crt_stdio_output@@AEAA_NXZ@PEAU1?1??234@AEAA_NXZ@@?$standard_base@DV?$stream_output_adapter@D@__crt_stdio_output@@@__crt_stdio_output@@IEAA_NAEAPEAUansi_string@?1??type_case_Z@?$output_processor@DV?$stream_output_adapter@D@__crt_stdio_output@@V?$standard_base@DV?$stream_output_adapter@D@__crt_stdio_output@@@2@@1@AEAA_NXZ@@Z 000000018005a660 f i libucrtd:output.obj
 0001:00059690       ??$extract_argument_from_va_list@PEAUansi_string@?1??type_case_Z@?$output_processor@DV?$string_output_adapter@D@__crt_stdio_output@@V?$format_validation_base@DV?$string_output_adapter@D@__crt_stdio_output@@@2@@__crt_stdio_output@@AEAA_NXZ@PEAU1?1??234@AEAA_NXZ@@?$standard_base@DV?$string_output_adapter@D@__crt_stdio_output@@@__crt_stdio_output@@IEAA_NAEAPEAUansi_string@?1??type_case_Z@?$output_processor@DV?$string_output_adapter@D@__crt_stdio_output@@V?$format_validation_base@DV?$string_output_adapter@D@__crt_stdio_output@@@2@@1@AEAA_NXZ@@Z 000000018005a690 f i libucrtd:output.obj
 0001:000596c0       ??$extract_argument_from_va_list@PEAUansi_string@?1??type_case_Z@?$output_processor@DV?$string_output_adapter@D@__crt_stdio_output@@V?$positional_parameter_base@DV?$string_output_adapter@D@__crt_stdio_output@@@2@@__crt_stdio_output@@AEAA_NXZ@PEAU1?1??234@AEAA_NXZ@@?$positional_parameter_base@DV?$string_output_adapter@D@__crt_stdio_output@@@__crt_stdio_output@@IEAA_NAEAPEAUansi_string@?1??type_case_Z@?$output_processor@DV?$string_output_adapter@D@__crt_stdio_output@@V?$positional_parameter_base@DV?$string_output_adapter@D@__crt_stdio_output@@@2@@1@AEAA_NXZ@@Z 000000018005a6c0 f i libucrtd:output.obj
 0001:00059840       ??$extract_argument_from_va_list@PEAUansi_string@?1??type_case_Z@?$output_processor@DV?$string_output_adapter@D@__crt_stdio_output@@V?$positional_parameter_base@DV?$string_output_adapter@D@__crt_stdio_output@@@2@@__crt_stdio_output@@AEAA_NXZ@PEAU1?1??234@AEAA_NXZ@@?$standard_base@DV?$string_output_adapter@D@__crt_stdio_output@@@__crt_stdio_output@@IEAA_NAEAPEAUansi_string@?1??type_case_Z@?$output_processor@DV?$string_output_adapter@D@__crt_stdio_output@@V?$positional_parameter_base@DV?$string_output_adapter@D@__crt_stdio_output@@@2@@1@AEAA_NXZ@@Z 000000018005a840 f i libucrtd:output.obj
 0001:00059870       ??$extract_argument_from_va_list@PEAUansi_string@?1??type_case_Z@?$output_processor@DV?$string_output_adapter@D@__crt_stdio_output@@V?$standard_base@DV?$string_output_adapter@D@__crt_stdio_output@@@2@@__crt_stdio_output@@AEAA_NXZ@PEAU1?1??234@AEAA_NXZ@@?$standard_base@DV?$string_output_adapter@D@__crt_stdio_output@@@__crt_stdio_output@@IEAA_NAEAPEAUansi_string@?1??type_case_Z@?$output_processor@DV?$string_output_adapter@D@__crt_stdio_output@@V?$standard_base@DV?$string_output_adapter@D@__crt_stdio_output@@@2@@1@AEAA_NXZ@@Z 000000018005a870 f i libucrtd:output.obj
 0001:000598a0       ??$extract_argument_from_va_list@PEAUansi_string@?1??type_case_Z@?$output_processor@_WV?$stream_output_adapter@_W@__crt_stdio_output@@V?$format_validation_base@_WV?$stream_output_adapter@_W@__crt_stdio_output@@@2@@__crt_stdio_output@@AEAA_NXZ@PEAU1?1??234@AEAA_NXZ@@?$standard_base@_WV?$stream_output_adapter@_W@__crt_stdio_output@@@__crt_stdio_output@@IEAA_NAEAPEAUansi_string@?1??type_case_Z@?$output_processor@_WV?$stream_output_adapter@_W@__crt_stdio_output@@V?$format_validation_base@_WV?$stream_output_adapter@_W@__crt_stdio_output@@@2@@1@AEAA_NXZ@@Z 000000018005a8a0 f i libucrtd:output.obj
 0001:000598d0       ??$extract_argument_from_va_list@PEAUansi_string@?1??type_case_Z@?$output_processor@_WV?$stream_output_adapter@_W@__crt_stdio_output@@V?$positional_parameter_base@_WV?$stream_output_adapter@_W@__crt_stdio_output@@@2@@__crt_stdio_output@@AEAA_NXZ@PEAU1?1??234@AEAA_NXZ@@?$positional_parameter_base@_WV?$stream_output_adapter@_W@__crt_stdio_output@@@__crt_stdio_output@@IEAA_NAEAPEAUansi_string@?1??type_case_Z@?$output_processor@_WV?$stream_output_adapter@_W@__crt_stdio_output@@V?$positional_parameter_base@_WV?$stream_output_adapter@_W@__crt_stdio_output@@@2@@1@AEAA_NXZ@@Z 000000018005a8d0 f i libucrtd:output.obj
 0001:00059a50       ??$extract_argument_from_va_list@PEAUansi_string@?1??type_case_Z@?$output_processor@_WV?$stream_output_adapter@_W@__crt_stdio_output@@V?$positional_parameter_base@_WV?$stream_output_adapter@_W@__crt_stdio_output@@@2@@__crt_stdio_output@@AEAA_NXZ@PEAU1?1??234@AEAA_NXZ@@?$standard_base@_WV?$stream_output_adapter@_W@__crt_stdio_output@@@__crt_stdio_output@@IEAA_NAEAPEAUansi_string@?1??type_case_Z@?$output_processor@_WV?$stream_output_adapter@_W@__crt_stdio_output@@V?$positional_parameter_base@_WV?$stream_output_adapter@_W@__crt_stdio_output@@@2@@1@AEAA_NXZ@@Z 000000018005aa50 f i libucrtd:output.obj
 0001:00059a80       ??$extract_argument_from_va_list@PEAUansi_string@?1??type_case_Z@?$output_processor@_WV?$stream_output_adapter@_W@__crt_stdio_output@@V?$standard_base@_WV?$stream_output_adapter@_W@__crt_stdio_output@@@2@@__crt_stdio_output@@AEAA_NXZ@PEAU1?1??234@AEAA_NXZ@@?$standard_base@_WV?$stream_output_adapter@_W@__crt_stdio_output@@@__crt_stdio_output@@IEAA_NAEAPEAUansi_string@?1??type_case_Z@?$output_processor@_WV?$stream_output_adapter@_W@__crt_stdio_output@@V?$standard_base@_WV?$stream_output_adapter@_W@__crt_stdio_output@@@2@@1@AEAA_NXZ@@Z 000000018005aa80 f i libucrtd:output.obj
 0001:00059ab0       ??$extract_argument_from_va_list@PEAUansi_string@?1??type_case_Z@?$output_processor@_WV?$string_output_adapter@_W@__crt_stdio_output@@V?$format_validation_base@_WV?$string_output_adapter@_W@__crt_stdio_output@@@2@@__crt_stdio_output@@AEAA_NXZ@PEAU1?1??234@AEAA_NXZ@@?$standard_base@_WV?$string_output_adapter@_W@__crt_stdio_output@@@__crt_stdio_output@@IEAA_NAEAPEAUansi_string@?1??type_case_Z@?$output_processor@_WV?$string_output_adapter@_W@__crt_stdio_output@@V?$format_validation_base@_WV?$string_output_adapter@_W@__crt_stdio_output@@@2@@1@AEAA_NXZ@@Z 000000018005aab0 f i libucrtd:output.obj
 0001:00059ae0       ??$extract_argument_from_va_list@PEAUansi_string@?1??type_case_Z@?$output_processor@_WV?$string_output_adapter@_W@__crt_stdio_output@@V?$positional_parameter_base@_WV?$string_output_adapter@_W@__crt_stdio_output@@@2@@__crt_stdio_output@@AEAA_NXZ@PEAU1?1??234@AEAA_NXZ@@?$positional_parameter_base@_WV?$string_output_adapter@_W@__crt_stdio_output@@@__crt_stdio_output@@IEAA_NAEAPEAUansi_string@?1??type_case_Z@?$output_processor@_WV?$string_output_adapter@_W@__crt_stdio_output@@V?$positional_parameter_base@_WV?$string_output_adapter@_W@__crt_stdio_output@@@2@@1@AEAA_NXZ@@Z 000000018005aae0 f i libucrtd:output.obj
 0001:00059c60       ??$extract_argument_from_va_list@PEAUansi_string@?1??type_case_Z@?$output_processor@_WV?$string_output_adapter@_W@__crt_stdio_output@@V?$positional_parameter_base@_WV?$string_output_adapter@_W@__crt_stdio_output@@@2@@__crt_stdio_output@@AEAA_NXZ@PEAU1?1??234@AEAA_NXZ@@?$standard_base@_WV?$string_output_adapter@_W@__crt_stdio_output@@@__crt_stdio_output@@IEAA_NAEAPEAUansi_string@?1??type_case_Z@?$output_processor@_WV?$string_output_adapter@_W@__crt_stdio_output@@V?$positional_parameter_base@_WV?$string_output_adapter@_W@__crt_stdio_output@@@2@@1@AEAA_NXZ@@Z 000000018005ac60 f i libucrtd:output.obj
 0001:00059c90       ??$extract_argument_from_va_list@PEAUansi_string@?1??type_case_Z@?$output_processor@_WV?$string_output_adapter@_W@__crt_stdio_output@@V?$standard_base@_WV?$string_output_adapter@_W@__crt_stdio_output@@@2@@__crt_stdio_output@@AEAA_NXZ@PEAU1?1??234@AEAA_NXZ@@?$standard_base@_WV?$string_output_adapter@_W@__crt_stdio_output@@@__crt_stdio_output@@IEAA_NAEAPEAUansi_string@?1??type_case_Z@?$output_processor@_WV?$string_output_adapter@_W@__crt_stdio_output@@V?$standard_base@_WV?$string_output_adapter@_W@__crt_stdio_output@@@2@@1@AEAA_NXZ@@Z 000000018005ac90 f i libucrtd:output.obj
 0001:00059cc0       ??$extract_argument_from_va_list@PEAXPEAX@?$positional_parameter_base@DV?$stream_output_adapter@D@__crt_stdio_output@@@__crt_stdio_output@@IEAA_NAEAPEAX@Z 000000018005acc0 f i libucrtd:output.obj
 0001:00059e40       ??$extract_argument_from_va_list@PEAXPEAX@?$positional_parameter_base@DV?$string_output_adapter@D@__crt_stdio_output@@@__crt_stdio_output@@IEAA_NAEAPEAX@Z 000000018005ae40 f i libucrtd:output.obj
 0001:00059fc0       ??$extract_argument_from_va_list@PEAXPEAX@?$positional_parameter_base@_WV?$stream_output_adapter@_W@__crt_stdio_output@@@__crt_stdio_output@@IEAA_NAEAPEAX@Z 000000018005afc0 f i libucrtd:output.obj
 0001:0005a140       ??$extract_argument_from_va_list@PEAXPEAX@?$positional_parameter_base@_WV?$string_output_adapter@_W@__crt_stdio_output@@@__crt_stdio_output@@IEAA_NAEAPEAX@Z 000000018005b140 f i libucrtd:output.obj
 0001:0005a2c0       ??$extract_argument_from_va_list@PEAXPEAX@?$standard_base@DV?$stream_output_adapter@D@__crt_stdio_output@@@__crt_stdio_output@@IEAA_NAEAPEAX@Z 000000018005b2c0 f i libucrtd:output.obj
 0001:0005a2f0       ??$extract_argument_from_va_list@PEAXPEAX@?$standard_base@DV?$string_output_adapter@D@__crt_stdio_output@@@__crt_stdio_output@@IEAA_NAEAPEAX@Z 000000018005b2f0 f i libucrtd:output.obj
 0001:0005a320       ??$extract_argument_from_va_list@PEAXPEAX@?$standard_base@_WV?$stream_output_adapter@_W@__crt_stdio_output@@@__crt_stdio_output@@IEAA_NAEAPEAX@Z 000000018005b320 f i libucrtd:output.obj
 0001:0005a350       ??$extract_argument_from_va_list@PEAXPEAX@?$standard_base@_WV?$string_output_adapter@_W@__crt_stdio_output@@@__crt_stdio_output@@IEAA_NAEAPEAX@Z 000000018005b350 f i libucrtd:output.obj
 0001:0005a380       ??$extract_argument_from_va_list@U_CRT_DOUBLE@@U1@@?$positional_parameter_base@DV?$stream_output_adapter@D@__crt_stdio_output@@@__crt_stdio_output@@IEAA_NAEAU_CRT_DOUBLE@@@Z 000000018005b380 f i libucrtd:output.obj
 0001:0005a520       ??$extract_argument_from_va_list@U_CRT_DOUBLE@@U1@@?$positional_parameter_base@DV?$string_output_adapter@D@__crt_stdio_output@@@__crt_stdio_output@@IEAA_NAEAU_CRT_DOUBLE@@@Z 000000018005b520 f i libucrtd:output.obj
 0001:0005a6c0       ??$extract_argument_from_va_list@U_CRT_DOUBLE@@U1@@?$positional_parameter_base@_WV?$stream_output_adapter@_W@__crt_stdio_output@@@__crt_stdio_output@@IEAA_NAEAU_CRT_DOUBLE@@@Z 000000018005b6c0 f i libucrtd:output.obj
 0001:0005a860       ??$extract_argument_from_va_list@U_CRT_DOUBLE@@U1@@?$positional_parameter_base@_WV?$string_output_adapter@_W@__crt_stdio_output@@@__crt_stdio_output@@IEAA_NAEAU_CRT_DOUBLE@@@Z 000000018005b860 f i libucrtd:output.obj
 0001:0005aa00       ??$extract_argument_from_va_list@U_CRT_DOUBLE@@U1@@?$standard_base@DV?$stream_output_adapter@D@__crt_stdio_output@@@__crt_stdio_output@@IEAA_NAEAU_CRT_DOUBLE@@@Z 000000018005ba00 f i libucrtd:output.obj
 0001:0005aa50       ??$extract_argument_from_va_list@U_CRT_DOUBLE@@U1@@?$standard_base@DV?$string_output_adapter@D@__crt_stdio_output@@@__crt_stdio_output@@IEAA_NAEAU_CRT_DOUBLE@@@Z 000000018005ba50 f i libucrtd:output.obj
 0001:0005aaa0       ??$extract_argument_from_va_list@U_CRT_DOUBLE@@U1@@?$standard_base@_WV?$stream_output_adapter@_W@__crt_stdio_output@@@__crt_stdio_output@@IEAA_NAEAU_CRT_DOUBLE@@@Z 000000018005baa0 f i libucrtd:output.obj
 0001:0005aaf0       ??$extract_argument_from_va_list@U_CRT_DOUBLE@@U1@@?$standard_base@_WV?$string_output_adapter@_W@__crt_stdio_output@@@__crt_stdio_output@@IEAA_NAEAU_CRT_DOUBLE@@@Z 000000018005baf0 f i libucrtd:output.obj
 0001:0005ab40       ??$extract_argument_from_va_list@_J_J@?$positional_parameter_base@DV?$stream_output_adapter@D@__crt_stdio_output@@@__crt_stdio_output@@IEAA_NAEA_J@Z 000000018005bb40 f i libucrtd:output.obj
 0001:0005acc0       ??$extract_argument_from_va_list@_J_J@?$positional_parameter_base@DV?$string_output_adapter@D@__crt_stdio_output@@@__crt_stdio_output@@IEAA_NAEA_J@Z 000000018005bcc0 f i libucrtd:output.obj
 0001:0005ae40       ??$extract_argument_from_va_list@_J_J@?$positional_parameter_base@_WV?$stream_output_adapter@_W@__crt_stdio_output@@@__crt_stdio_output@@IEAA_NAEA_J@Z 000000018005be40 f i libucrtd:output.obj
 0001:0005afc0       ??$extract_argument_from_va_list@_J_J@?$positional_parameter_base@_WV?$string_output_adapter@_W@__crt_stdio_output@@@__crt_stdio_output@@IEAA_NAEA_J@Z 000000018005bfc0 f i libucrtd:output.obj
 0001:0005b140       ??$extract_argument_from_va_list@_J_J@?$standard_base@DV?$stream_output_adapter@D@__crt_stdio_output@@@__crt_stdio_output@@IEAA_NAEA_J@Z 000000018005c140 f i libucrtd:output.obj
 0001:0005b170       ??$extract_argument_from_va_list@_J_J@?$standard_base@DV?$string_output_adapter@D@__crt_stdio_output@@@__crt_stdio_output@@IEAA_NAEA_J@Z 000000018005c170 f i libucrtd:output.obj
 0001:0005b1a0       ??$extract_argument_from_va_list@_J_J@?$standard_base@_WV?$stream_output_adapter@_W@__crt_stdio_output@@@__crt_stdio_output@@IEAA_NAEA_J@Z 000000018005c1a0 f i libucrtd:output.obj
 0001:0005b1d0       ??$extract_argument_from_va_list@_J_J@?$standard_base@_WV?$string_output_adapter@_W@__crt_stdio_output@@@__crt_stdio_output@@IEAA_NAEA_J@Z 000000018005c1d0 f i libucrtd:output.obj
 0001:0005b200       ??$extract_argument_from_va_list@_K_J@?$positional_parameter_base@DV?$stream_output_adapter@D@__crt_stdio_output@@@__crt_stdio_output@@IEAA_NAEA_J@Z 000000018005c200 f i libucrtd:output.obj
 0001:0005b380       ??$extract_argument_from_va_list@_K_J@?$positional_parameter_base@DV?$string_output_adapter@D@__crt_stdio_output@@@__crt_stdio_output@@IEAA_NAEA_J@Z 000000018005c380 f i libucrtd:output.obj
 0001:0005b500       ??$extract_argument_from_va_list@_K_J@?$positional_parameter_base@_WV?$stream_output_adapter@_W@__crt_stdio_output@@@__crt_stdio_output@@IEAA_NAEA_J@Z 000000018005c500 f i libucrtd:output.obj
 0001:0005b680       ??$extract_argument_from_va_list@_K_J@?$positional_parameter_base@_WV?$string_output_adapter@_W@__crt_stdio_output@@@__crt_stdio_output@@IEAA_NAEA_J@Z 000000018005c680 f i libucrtd:output.obj
 0001:0005b800       ??$extract_argument_from_va_list@_K_J@?$standard_base@DV?$stream_output_adapter@D@__crt_stdio_output@@@__crt_stdio_output@@IEAA_NAEA_J@Z 000000018005c800 f i libucrtd:output.obj
 0001:0005b830       ??$extract_argument_from_va_list@_K_J@?$standard_base@DV?$string_output_adapter@D@__crt_stdio_output@@@__crt_stdio_output@@IEAA_NAEA_J@Z 000000018005c830 f i libucrtd:output.obj
 0001:0005b860       ??$extract_argument_from_va_list@_K_J@?$standard_base@_WV?$stream_output_adapter@_W@__crt_stdio_output@@@__crt_stdio_output@@IEAA_NAEA_J@Z 000000018005c860 f i libucrtd:output.obj
 0001:0005b890       ??$extract_argument_from_va_list@_K_J@?$standard_base@_WV?$string_output_adapter@_W@__crt_stdio_output@@@__crt_stdio_output@@IEAA_NAEA_J@Z 000000018005c890 f i libucrtd:output.obj
 0001:0005b8c0       ??$extract_argument_from_va_list@_W_W@?$positional_parameter_base@DV?$stream_output_adapter@D@__crt_stdio_output@@@__crt_stdio_output@@IEAA_NAEA_W@Z 000000018005c8c0 f i libucrtd:output.obj
 0001:0005ba40       ??$extract_argument_from_va_list@_W_W@?$positional_parameter_base@DV?$string_output_adapter@D@__crt_stdio_output@@@__crt_stdio_output@@IEAA_NAEA_W@Z 000000018005ca40 f i libucrtd:output.obj
 0001:0005bbc0       ??$extract_argument_from_va_list@_W_W@?$positional_parameter_base@_WV?$stream_output_adapter@_W@__crt_stdio_output@@@__crt_stdio_output@@IEAA_NAEA_W@Z 000000018005cbc0 f i libucrtd:output.obj
 0001:0005bd40       ??$extract_argument_from_va_list@_W_W@?$positional_parameter_base@_WV?$string_output_adapter@_W@__crt_stdio_output@@@__crt_stdio_output@@IEAA_NAEA_W@Z 000000018005cd40 f i libucrtd:output.obj
 0001:0005bec0       ??$extract_argument_from_va_list@_W_W@?$standard_base@DV?$stream_output_adapter@D@__crt_stdio_output@@@__crt_stdio_output@@IEAA_NAEA_W@Z 000000018005cec0 f i libucrtd:output.obj
 0001:0005bef0       ??$extract_argument_from_va_list@_W_W@?$standard_base@DV?$string_output_adapter@D@__crt_stdio_output@@@__crt_stdio_output@@IEAA_NAEA_W@Z 000000018005cef0 f i libucrtd:output.obj
 0001:0005bf20       ??$extract_argument_from_va_list@_W_W@?$standard_base@_WV?$stream_output_adapter@_W@__crt_stdio_output@@@__crt_stdio_output@@IEAA_NAEA_W@Z 000000018005cf20 f i libucrtd:output.obj
 0001:0005bf50       ??$extract_argument_from_va_list@_W_W@?$standard_base@_WV?$string_output_adapter@_W@__crt_stdio_output@@@__crt_stdio_output@@IEAA_NAEA_W@Z 000000018005cf50 f i libucrtd:output.obj
 0001:0005bf80       ??$get_parameter_type@D@?$positional_parameter_base@DV?$stream_output_adapter@D@__crt_stdio_output@@@__crt_stdio_output@@CA?AW4parameter_type@01@PEAD@Z 000000018005cf80 f i libucrtd:output.obj
 0001:0005bf90       ??$get_parameter_type@D@?$positional_parameter_base@DV?$string_output_adapter@D@__crt_stdio_output@@@__crt_stdio_output@@CA?AW4parameter_type@01@PEAD@Z 000000018005cf90 f i libucrtd:output.obj
 0001:0005bfa0       ??$get_parameter_type@D@?$positional_parameter_base@_WV?$stream_output_adapter@_W@__crt_stdio_output@@@__crt_stdio_output@@CA?AW4parameter_type@01@PEAD@Z 000000018005cfa0 f i libucrtd:output.obj
 0001:0005bfb0       ??$get_parameter_type@D@?$positional_parameter_base@_WV?$string_output_adapter@_W@__crt_stdio_output@@@__crt_stdio_output@@CA?AW4parameter_type@01@PEAD@Z 000000018005cfb0 f i libucrtd:output.obj
 0001:0005bfc0       ??$get_parameter_type@Uansi_string@?1??type_case_Z@?$output_processor@DV?$stream_output_adapter@D@__crt_stdio_output@@V?$positional_parameter_base@DV?$stream_output_adapter@D@__crt_stdio_output@@@2@@__crt_stdio_output@@AEAA_NXZ@@?$positional_parameter_base@DV?$stream_output_adapter@D@__crt_stdio_output@@@__crt_stdio_output@@CA?AW4parameter_type@01@PEAUansi_string@?1??type_case_Z@?$output_processor@DV?$stream_output_adapter@D@__crt_stdio_output@@V?$positional_parameter_base@DV?$stream_output_adapter@D@__crt_stdio_output@@@2@@1@AEAA_NXZ@@Z 000000018005cfc0 f i libucrtd:output.obj
 0001:0005bfd0       ??$get_parameter_type@Uansi_string@?1??type_case_Z@?$output_processor@DV?$string_output_adapter@D@__crt_stdio_output@@V?$positional_parameter_base@DV?$string_output_adapter@D@__crt_stdio_output@@@2@@__crt_stdio_output@@AEAA_NXZ@@?$positional_parameter_base@DV?$string_output_adapter@D@__crt_stdio_output@@@__crt_stdio_output@@CA?AW4parameter_type@01@PEAUansi_string@?1??type_case_Z@?$output_processor@DV?$string_output_adapter@D@__crt_stdio_output@@V?$positional_parameter_base@DV?$string_output_adapter@D@__crt_stdio_output@@@2@@1@AEAA_NXZ@@Z 000000018005cfd0 f i libucrtd:output.obj
 0001:0005bfe0       ??$get_parameter_type@Uansi_string@?1??type_case_Z@?$output_processor@_WV?$stream_output_adapter@_W@__crt_stdio_output@@V?$positional_parameter_base@_WV?$stream_output_adapter@_W@__crt_stdio_output@@@2@@__crt_stdio_output@@AEAA_NXZ@@?$positional_parameter_base@_WV?$stream_output_adapter@_W@__crt_stdio_output@@@__crt_stdio_output@@CA?AW4parameter_type@01@PEAUansi_string@?1??type_case_Z@?$output_processor@_WV?$stream_output_adapter@_W@__crt_stdio_output@@V?$positional_parameter_base@_WV?$stream_output_adapter@_W@__crt_stdio_output@@@2@@1@AEAA_NXZ@@Z 000000018005cfe0 f i libucrtd:output.obj
 0001:0005bff0       ??$get_parameter_type@Uansi_string@?1??type_case_Z@?$output_processor@_WV?$string_output_adapter@_W@__crt_stdio_output@@V?$positional_parameter_base@_WV?$string_output_adapter@_W@__crt_stdio_output@@@2@@__crt_stdio_output@@AEAA_NXZ@@?$positional_parameter_base@_WV?$string_output_adapter@_W@__crt_stdio_output@@@__crt_stdio_output@@CA?AW4parameter_type@01@PEAUansi_string@?1??type_case_Z@?$output_processor@_WV?$string_output_adapter@_W@__crt_stdio_output@@V?$positional_parameter_base@_WV?$string_output_adapter@_W@__crt_stdio_output@@@2@@1@AEAA_NXZ@@Z 000000018005cff0 f i libucrtd:output.obj
 0001:0005c000       ??$get_parameter_type@X@?$positional_parameter_base@DV?$stream_output_adapter@D@__crt_stdio_output@@@__crt_stdio_output@@CA?AW4parameter_type@01@PEAX@Z 000000018005d000 f i libucrtd:output.obj
 0001:0005c010       ??$get_parameter_type@X@?$positional_parameter_base@DV?$string_output_adapter@D@__crt_stdio_output@@@__crt_stdio_output@@CA?AW4parameter_type@01@PEAX@Z 000000018005d010 f i libucrtd:output.obj
 0001:0005c020       ??$get_parameter_type@X@?$positional_parameter_base@_WV?$stream_output_adapter@_W@__crt_stdio_output@@@__crt_stdio_output@@CA?AW4parameter_type@01@PEAX@Z 000000018005d020 f i libucrtd:output.obj
 0001:0005c030       ??$get_parameter_type@X@?$positional_parameter_base@_WV?$string_output_adapter@_W@__crt_stdio_output@@@__crt_stdio_output@@CA?AW4parameter_type@01@PEAX@Z 000000018005d030 f i libucrtd:output.obj
 0001:0005c040       ??$is_character_specifier@D@?$positional_parameter_base@DV?$stream_output_adapter@D@__crt_stdio_output@@@__crt_stdio_output@@CA_ND@Z 000000018005d040 f i libucrtd:output.obj
 0001:0005c080       ??$is_character_specifier@D@?$positional_parameter_base@DV?$string_output_adapter@D@__crt_stdio_output@@@__crt_stdio_output@@CA_ND@Z 000000018005d080 f i libucrtd:output.obj
 0001:0005c0c0       ??$is_character_specifier@_W@?$positional_parameter_base@_WV?$stream_output_adapter@_W@__crt_stdio_output@@@__crt_stdio_output@@CA_N_W@Z 000000018005d0c0 f i libucrtd:output.obj
 0001:0005c100       ??$is_character_specifier@_W@?$positional_parameter_base@_WV?$string_output_adapter@_W@__crt_stdio_output@@@__crt_stdio_output@@CA_N_W@Z 000000018005d100 f i libucrtd:output.obj
 0001:0005c140       ??$is_integral_specifier@D@?$positional_parameter_base@DV?$stream_output_adapter@D@__crt_stdio_output@@@__crt_stdio_output@@CA_ND@Z 000000018005d140 f i libucrtd:output.obj
 0001:0005c1b0       ??$is_integral_specifier@D@?$positional_parameter_base@DV?$string_output_adapter@D@__crt_stdio_output@@@__crt_stdio_output@@CA_ND@Z 000000018005d1b0 f i libucrtd:output.obj
 0001:0005c220       ??$is_integral_specifier@_W@?$positional_parameter_base@_WV?$stream_output_adapter@_W@__crt_stdio_output@@@__crt_stdio_output@@CA_N_W@Z 000000018005d220 f i libucrtd:output.obj
 0001:0005c290       ??$is_integral_specifier@_W@?$positional_parameter_base@_WV?$string_output_adapter@_W@__crt_stdio_output@@@__crt_stdio_output@@CA_N_W@Z 000000018005d290 f i libucrtd:output.obj
 0001:0005c300       ??$is_pointer_specifier@D@?$positional_parameter_base@DV?$stream_output_adapter@D@__crt_stdio_output@@@__crt_stdio_output@@CA_ND@Z 000000018005d300 f i libucrtd:output.obj
 0001:0005c330       ??$is_pointer_specifier@D@?$positional_parameter_base@DV?$string_output_adapter@D@__crt_stdio_output@@@__crt_stdio_output@@CA_ND@Z 000000018005d330 f i libucrtd:output.obj
 0001:0005c360       ??$is_pointer_specifier@_W@?$positional_parameter_base@_WV?$stream_output_adapter@_W@__crt_stdio_output@@@__crt_stdio_output@@CA_N_W@Z 000000018005d360 f i libucrtd:output.obj
 0001:0005c390       ??$is_pointer_specifier@_W@?$positional_parameter_base@_WV?$string_output_adapter@_W@__crt_stdio_output@@@__crt_stdio_output@@CA_N_W@Z 000000018005d390 f i libucrtd:output.obj
 0001:0005c3c0       ??$is_string_specifier@D@?$positional_parameter_base@DV?$stream_output_adapter@D@__crt_stdio_output@@@__crt_stdio_output@@CA_ND@Z 000000018005d3c0 f i libucrtd:output.obj
 0001:0005c400       ??$is_string_specifier@D@?$positional_parameter_base@DV?$string_output_adapter@D@__crt_stdio_output@@@__crt_stdio_output@@CA_ND@Z 000000018005d400 f i libucrtd:output.obj
 0001:0005c440       ??$is_string_specifier@_W@?$positional_parameter_base@_WV?$stream_output_adapter@_W@__crt_stdio_output@@@__crt_stdio_output@@CA_N_W@Z 000000018005d440 f i libucrtd:output.obj
 0001:0005c480       ??$is_string_specifier@_W@?$positional_parameter_base@_WV?$string_output_adapter@_W@__crt_stdio_output@@@__crt_stdio_output@@CA_N_W@Z 000000018005d480 f i libucrtd:output.obj
 0001:0005c4c0       ??$is_wide_character_specifier@D@__crt_stdio_output@@YA_N_KDW4length_modifier@0@@Z 000000018005d4c0 f i libucrtd:output.obj
 0001:0005c560       ??$is_wide_character_specifier@_W@__crt_stdio_output@@YA_N_K_WW4length_modifier@0@@Z 000000018005d560 f i libucrtd:output.obj
 0001:0005c630       ??$peek_va_arg@C@__crt_stdio_output@@YACPEAD@Z 000000018005d630 f i libucrtd:output.obj
 0001:0005c690       ??$peek_va_arg@E@__crt_stdio_output@@YAEPEAD@Z 000000018005d690 f i libucrtd:output.obj
 0001:0005c6f0       ??$peek_va_arg@F@__crt_stdio_output@@YAFPEAD@Z 000000018005d6f0 f i libucrtd:output.obj
 0001:0005c750       ??$peek_va_arg@G@__crt_stdio_output@@YAGPEAD@Z 000000018005d750 f i libucrtd:output.obj
 0001:0005c7b0       ??$peek_va_arg@H@__crt_stdio_output@@YAHPEAD@Z 000000018005d7b0 f i libucrtd:output.obj
 0001:0005c800       ??$peek_va_arg@I@__crt_stdio_output@@YAIPEAD@Z 000000018005d800 f i libucrtd:output.obj
 0001:0005c850       ??$peek_va_arg@PEAD@__crt_stdio_output@@YAPEADPEAD@Z 000000018005d850 f i libucrtd:output.obj
 0001:0005c8b0       ??$peek_va_arg@PEAUansi_string@?1??type_case_Z@?$output_processor@DV?$stream_output_adapter@D@__crt_stdio_output@@V?$positional_parameter_base@DV?$stream_output_adapter@D@__crt_stdio_output@@@2@@__crt_stdio_output@@AEAA_NXZ@@__crt_stdio_output@@YAPEAUansi_string@?1??type_case_Z@?$output_processor@DV?$stream_output_adapter@D@__crt_stdio_output@@V?$positional_parameter_base@DV?$stream_output_adapter@D@__crt_stdio_output@@@2@@0@AEAA_NXZ@PEAD@Z 000000018005d8b0 f i libucrtd:output.obj
 0001:0005c910       ??$peek_va_arg@PEAUansi_string@?1??type_case_Z@?$output_processor@DV?$string_output_adapter@D@__crt_stdio_output@@V?$positional_parameter_base@DV?$string_output_adapter@D@__crt_stdio_output@@@2@@__crt_stdio_output@@AEAA_NXZ@@__crt_stdio_output@@YAPEAUansi_string@?1??type_case_Z@?$output_processor@DV?$string_output_adapter@D@__crt_stdio_output@@V?$positional_parameter_base@DV?$string_output_adapter@D@__crt_stdio_output@@@2@@0@AEAA_NXZ@PEAD@Z 000000018005d910 f i libucrtd:output.obj
 0001:0005c970       ??$peek_va_arg@PEAUansi_string@?1??type_case_Z@?$output_processor@_WV?$stream_output_adapter@_W@__crt_stdio_output@@V?$positional_parameter_base@_WV?$stream_output_adapter@_W@__crt_stdio_output@@@2@@__crt_stdio_output@@AEAA_NXZ@@__crt_stdio_output@@YAPEAUansi_string@?1??type_case_Z@?$output_processor@_WV?$stream_output_adapter@_W@__crt_stdio_output@@V?$positional_parameter_base@_WV?$stream_output_adapter@_W@__crt_stdio_output@@@2@@0@AEAA_NXZ@PEAD@Z 000000018005d970 f i libucrtd:output.obj
 0001:0005c9d0       ??$peek_va_arg@PEAUansi_string@?1??type_case_Z@?$output_processor@_WV?$string_output_adapter@_W@__crt_stdio_output@@V?$positional_parameter_base@_WV?$string_output_adapter@_W@__crt_stdio_output@@@2@@__crt_stdio_output@@AEAA_NXZ@@__crt_stdio_output@@YAPEAUansi_string@?1??type_case_Z@?$output_processor@_WV?$string_output_adapter@_W@__crt_stdio_output@@V?$positional_parameter_base@_WV?$string_output_adapter@_W@__crt_stdio_output@@@2@@0@AEAA_NXZ@PEAD@Z 000000018005d9d0 f i libucrtd:output.obj
 0001:0005ca30       ??$peek_va_arg@PEAX@__crt_stdio_output@@YAPEAXPEAD@Z 000000018005da30 f i libucrtd:output.obj
 0001:0005ca90       ??$peek_va_arg@U_CRT_DOUBLE@@@__crt_stdio_output@@YA?AU_CRT_DOUBLE@@PEAD@Z 000000018005da90 f i libucrtd:output.obj
 0001:0005caf0       ??$peek_va_arg@_J@__crt_stdio_output@@YA_JPEAD@Z 000000018005daf0 f i libucrtd:output.obj
 0001:0005cb50       ??$peek_va_arg@_K@__crt_stdio_output@@YA_KPEAD@Z 000000018005db50 f i libucrtd:output.obj
 0001:0005cbb0       ??$peek_va_arg@_W@__crt_stdio_output@@YA_WPEAD@Z 000000018005dbb0 f i libucrtd:output.obj
 0001:0005cc10       ??$puttc_nolock@AEBDPEAU_iobuf@@@?$__crt_char_traits@D@@SAHAEBD$$QEAPEAU_iobuf@@@Z 000000018005dc10 f i libucrtd:output.obj
 0001:0005cc40       ??$puttc_nolock@AEB_WPEAU_iobuf@@@?$__crt_char_traits@_W@@SAGAEB_W$$QEAPEAU_iobuf@@@Z 000000018005dc40 f i libucrtd:output.obj
 0001:0005cc70       ??$read_va_arg@C@__crt_stdio_output@@YACAEAPEAD@Z 000000018005dc70 f i libucrtd:output.obj
 0001:0005cce0       ??$read_va_arg@E@__crt_stdio_output@@YAEAEAPEAD@Z 000000018005dce0 f i libucrtd:output.obj
 0001:0005cd50       ??$read_va_arg@F@__crt_stdio_output@@YAFAEAPEAD@Z 000000018005dd50 f i libucrtd:output.obj
 0001:0005cdc0       ??$read_va_arg@G@__crt_stdio_output@@YAGAEAPEAD@Z 000000018005ddc0 f i libucrtd:output.obj
 0001:0005ce30       ??$read_va_arg@H@__crt_stdio_output@@YAHAEAPEAD@Z 000000018005de30 f i libucrtd:output.obj
 0001:0005ce90       ??$read_va_arg@I@__crt_stdio_output@@YAIAEAPEAD@Z 000000018005de90 f i libucrtd:output.obj
 0001:0005cef0       ??$read_va_arg@PEAD@__crt_stdio_output@@YAPEADAEAPEAD@Z 000000018005def0 f i libucrtd:output.obj
 0001:0005cf60       ??$read_va_arg@PEAUansi_string@?1??type_case_Z@?$output_processor@DV?$stream_output_adapter@D@__crt_stdio_output@@V?$format_validation_base@DV?$stream_output_adapter@D@__crt_stdio_output@@@2@@__crt_stdio_output@@AEAA_NXZ@@__crt_stdio_output@@YAPEAUansi_string@?1??type_case_Z@?$output_processor@DV?$stream_output_adapter@D@__crt_stdio_output@@V?$format_validation_base@DV?$stream_output_adapter@D@__crt_stdio_output@@@2@@0@AEAA_NXZ@AEAPEAD@Z 000000018005df60 f i libucrtd:output.obj
 0001:0005cfd0       ??$read_va_arg@PEAUansi_string@?1??type_case_Z@?$output_processor@DV?$stream_output_adapter@D@__crt_stdio_output@@V?$positional_parameter_base@DV?$stream_output_adapter@D@__crt_stdio_output@@@2@@__crt_stdio_output@@AEAA_NXZ@@__crt_stdio_output@@YAPEAUansi_string@?1??type_case_Z@?$output_processor@DV?$stream_output_adapter@D@__crt_stdio_output@@V?$positional_parameter_base@DV?$stream_output_adapter@D@__crt_stdio_output@@@2@@0@AEAA_NXZ@AEAPEAD@Z 000000018005dfd0 f i libucrtd:output.obj
 0001:0005d040       ??$read_va_arg@PEAUansi_string@?1??type_case_Z@?$output_processor@DV?$stream_output_adapter@D@__crt_stdio_output@@V?$standard_base@DV?$stream_output_adapter@D@__crt_stdio_output@@@2@@__crt_stdio_output@@AEAA_NXZ@@__crt_stdio_output@@YAPEAUansi_string@?1??type_case_Z@?$output_processor@DV?$stream_output_adapter@D@__crt_stdio_output@@V?$standard_base@DV?$stream_output_adapter@D@__crt_stdio_output@@@2@@0@AEAA_NXZ@AEAPEAD@Z 000000018005e040 f i libucrtd:output.obj
 0001:0005d0b0       ??$read_va_arg@PEAUansi_string@?1??type_case_Z@?$output_processor@DV?$string_output_adapter@D@__crt_stdio_output@@V?$format_validation_base@DV?$string_output_adapter@D@__crt_stdio_output@@@2@@__crt_stdio_output@@AEAA_NXZ@@__crt_stdio_output@@YAPEAUansi_string@?1??type_case_Z@?$output_processor@DV?$string_output_adapter@D@__crt_stdio_output@@V?$format_validation_base@DV?$string_output_adapter@D@__crt_stdio_output@@@2@@0@AEAA_NXZ@AEAPEAD@Z 000000018005e0b0 f i libucrtd:output.obj
 0001:0005d120       ??$read_va_arg@PEAUansi_string@?1??type_case_Z@?$output_processor@DV?$string_output_adapter@D@__crt_stdio_output@@V?$positional_parameter_base@DV?$string_output_adapter@D@__crt_stdio_output@@@2@@__crt_stdio_output@@AEAA_NXZ@@__crt_stdio_output@@YAPEAUansi_string@?1??type_case_Z@?$output_processor@DV?$string_output_adapter@D@__crt_stdio_output@@V?$positional_parameter_base@DV?$string_output_adapter@D@__crt_stdio_output@@@2@@0@AEAA_NXZ@AEAPEAD@Z 000000018005e120 f i libucrtd:output.obj
 0001:0005d190       ??$read_va_arg@PEAUansi_string@?1??type_case_Z@?$output_processor@DV?$string_output_adapter@D@__crt_stdio_output@@V?$standard_base@DV?$string_output_adapter@D@__crt_stdio_output@@@2@@__crt_stdio_output@@AEAA_NXZ@@__crt_stdio_output@@YAPEAUansi_string@?1??type_case_Z@?$output_processor@DV?$string_output_adapter@D@__crt_stdio_output@@V?$standard_base@DV?$string_output_adapter@D@__crt_stdio_output@@@2@@0@AEAA_NXZ@AEAPEAD@Z 000000018005e190 f i libucrtd:output.obj
 0001:0005d200       ??$read_va_arg@PEAUansi_string@?1??type_case_Z@?$output_processor@_WV?$stream_output_adapter@_W@__crt_stdio_output@@V?$format_validation_base@_WV?$stream_output_adapter@_W@__crt_stdio_output@@@2@@__crt_stdio_output@@AEAA_NXZ@@__crt_stdio_output@@YAPEAUansi_string@?1??type_case_Z@?$output_processor@_WV?$stream_output_adapter@_W@__crt_stdio_output@@V?$format_validation_base@_WV?$stream_output_adapter@_W@__crt_stdio_output@@@2@@0@AEAA_NXZ@AEAPEAD@Z 000000018005e200 f i libucrtd:output.obj
 0001:0005d270       ??$read_va_arg@PEAUansi_string@?1??type_case_Z@?$output_processor@_WV?$stream_output_adapter@_W@__crt_stdio_output@@V?$positional_parameter_base@_WV?$stream_output_adapter@_W@__crt_stdio_output@@@2@@__crt_stdio_output@@AEAA_NXZ@@__crt_stdio_output@@YAPEAUansi_string@?1??type_case_Z@?$output_processor@_WV?$stream_output_adapter@_W@__crt_stdio_output@@V?$positional_parameter_base@_WV?$stream_output_adapter@_W@__crt_stdio_output@@@2@@0@AEAA_NXZ@AEAPEAD@Z 000000018005e270 f i libucrtd:output.obj
 0001:0005d2e0       ??$read_va_arg@PEAUansi_string@?1??type_case_Z@?$output_processor@_WV?$stream_output_adapter@_W@__crt_stdio_output@@V?$standard_base@_WV?$stream_output_adapter@_W@__crt_stdio_output@@@2@@__crt_stdio_output@@AEAA_NXZ@@__crt_stdio_output@@YAPEAUansi_string@?1??type_case_Z@?$output_processor@_WV?$stream_output_adapter@_W@__crt_stdio_output@@V?$standard_base@_WV?$stream_output_adapter@_W@__crt_stdio_output@@@2@@0@AEAA_NXZ@AEAPEAD@Z 000000018005e2e0 f i libucrtd:output.obj
 0001:0005d350       ??$read_va_arg@PEAUansi_string@?1??type_case_Z@?$output_processor@_WV?$string_output_adapter@_W@__crt_stdio_output@@V?$format_validation_base@_WV?$string_output_adapter@_W@__crt_stdio_output@@@2@@__crt_stdio_output@@AEAA_NXZ@@__crt_stdio_output@@YAPEAUansi_string@?1??type_case_Z@?$output_processor@_WV?$string_output_adapter@_W@__crt_stdio_output@@V?$format_validation_base@_WV?$string_output_adapter@_W@__crt_stdio_output@@@2@@0@AEAA_NXZ@AEAPEAD@Z 000000018005e350 f i libucrtd:output.obj
 0001:0005d3c0       ??$read_va_arg@PEAUansi_string@?1??type_case_Z@?$output_processor@_WV?$string_output_adapter@_W@__crt_stdio_output@@V?$positional_parameter_base@_WV?$string_output_adapter@_W@__crt_stdio_output@@@2@@__crt_stdio_output@@AEAA_NXZ@@__crt_stdio_output@@YAPEAUansi_string@?1??type_case_Z@?$output_processor@_WV?$string_output_adapter@_W@__crt_stdio_output@@V?$positional_parameter_base@_WV?$string_output_adapter@_W@__crt_stdio_output@@@2@@0@AEAA_NXZ@AEAPEAD@Z 000000018005e3c0 f i libucrtd:output.obj
 0001:0005d430       ??$read_va_arg@PEAUansi_string@?1??type_case_Z@?$output_processor@_WV?$string_output_adapter@_W@__crt_stdio_output@@V?$standard_base@_WV?$string_output_adapter@_W@__crt_stdio_output@@@2@@__crt_stdio_output@@AEAA_NXZ@@__crt_stdio_output@@YAPEAUansi_string@?1??type_case_Z@?$output_processor@_WV?$string_output_adapter@_W@__crt_stdio_output@@V?$standard_base@_WV?$string_output_adapter@_W@__crt_stdio_output@@@2@@0@AEAA_NXZ@AEAPEAD@Z 000000018005e430 f i libucrtd:output.obj
 0001:0005d4a0       ??$read_va_arg@PEAX@__crt_stdio_output@@YAPEAXAEAPEAD@Z 000000018005e4a0 f i libucrtd:output.obj
 0001:0005d510       ??$read_va_arg@U_CRT_DOUBLE@@@__crt_stdio_output@@YA?AU_CRT_DOUBLE@@AEAPEAD@Z 000000018005e510 f i libucrtd:output.obj
 0001:0005d580       ??$read_va_arg@_J@__crt_stdio_output@@YA_JAEAPEAD@Z 000000018005e580 f i libucrtd:output.obj
 0001:0005d5f0       ??$read_va_arg@_K@__crt_stdio_output@@YA_KAEAPEAD@Z 000000018005e5f0 f i libucrtd:output.obj
 0001:0005d660       ??$read_va_arg@_W@__crt_stdio_output@@YA_WAEAPEAD@Z 000000018005e660 f i libucrtd:output.obj
 0001:0005d6d0       ??$scratch_count@D@formatting_buffer@__crt_stdio_output@@QEBA_KXZ 000000018005e6d0 f i libucrtd:output.obj
 0001:0005d6f0       ??$scratch_data@D@formatting_buffer@__crt_stdio_output@@QEAAPEADXZ 000000018005e6f0 f i libucrtd:output.obj
 0001:0005d760       ??$tcstol@AEAPEBDPEAPEADH@?$__crt_char_traits@D@@SAJAEAPEBD$$QEAPEAPEAD$$QEAH@Z 000000018005e760 f i libucrtd:output.obj
 0001:0005d7a0       ??$tcstol@AEAPEB_WPEAPEA_WH@?$__crt_char_traits@_W@@SAJAEAPEB_W$$QEAPEAPEA_W$$QEAH@Z 000000018005e7a0 f i libucrtd:output.obj
 0001:0005d7e0       ??$tcstol@PEBDPEAPEADH@?$__crt_char_traits@D@@SAJ$$QEAPEBD$$QEAPEAPEAD$$QEAH@Z 000000018005e7e0 f i libucrtd:output.obj
 0001:0005d820       ??$tcstol@PEB_WPEAPEA_WH@?$__crt_char_traits@_W@@SAJ$$QEAPEB_W$$QEAPEAPEA_W$$QEAH@Z 000000018005e820 f i libucrtd:output.obj
 0001:0005d860       ??$type_case_integer_parse_into_buffer@I@?$output_processor@DV?$stream_output_adapter@D@__crt_stdio_output@@V?$format_validation_base@DV?$stream_output_adapter@D@__crt_stdio_output@@@2@@__crt_stdio_output@@AEAAXII_N@Z 000000018005e860 f i libucrtd:output.obj
 0001:0005d980       ??$type_case_integer_parse_into_buffer@I@?$output_processor@DV?$stream_output_adapter@D@__crt_stdio_output@@V?$positional_parameter_base@DV?$stream_output_adapter@D@__crt_stdio_output@@@2@@__crt_stdio_output@@AEAAXII_N@Z 000000018005e980 f i libucrtd:output.obj
 0001:0005daa0       ??$type_case_integer_parse_into_buffer@I@?$output_processor@DV?$stream_output_adapter@D@__crt_stdio_output@@V?$standard_base@DV?$stream_output_adapter@D@__crt_stdio_output@@@2@@__crt_stdio_output@@AEAAXII_N@Z 000000018005eaa0 f i libucrtd:output.obj
 0001:0005dbc0       ??$type_case_integer_parse_into_buffer@I@?$output_processor@DV?$string_output_adapter@D@__crt_stdio_output@@V?$format_validation_base@DV?$string_output_adapter@D@__crt_stdio_output@@@2@@__crt_stdio_output@@AEAAXII_N@Z 000000018005ebc0 f i libucrtd:output.obj
 0001:0005dce0       ??$type_case_integer_parse_into_buffer@I@?$output_processor@DV?$string_output_adapter@D@__crt_stdio_output@@V?$positional_parameter_base@DV?$string_output_adapter@D@__crt_stdio_output@@@2@@__crt_stdio_output@@AEAAXII_N@Z 000000018005ece0 f i libucrtd:output.obj
 0001:0005de00       ??$type_case_integer_parse_into_buffer@I@?$output_processor@DV?$string_output_adapter@D@__crt_stdio_output@@V?$standard_base@DV?$string_output_adapter@D@__crt_stdio_output@@@2@@__crt_stdio_output@@AEAAXII_N@Z 000000018005ee00 f i libucrtd:output.obj
 0001:0005df20       ??$type_case_integer_parse_into_buffer@I@?$output_processor@_WV?$stream_output_adapter@_W@__crt_stdio_output@@V?$format_validation_base@_WV?$stream_output_adapter@_W@__crt_stdio_output@@@2@@__crt_stdio_output@@AEAAXII_N@Z 000000018005ef20 f i libucrtd:output.obj
 0001:0005e050       ??$type_case_integer_parse_into_buffer@I@?$output_processor@_WV?$stream_output_adapter@_W@__crt_stdio_output@@V?$positional_parameter_base@_WV?$stream_output_adapter@_W@__crt_stdio_output@@@2@@__crt_stdio_output@@AEAAXII_N@Z 000000018005f050 f i libucrtd:output.obj
 0001:0005e180       ??$type_case_integer_parse_into_buffer@I@?$output_processor@_WV?$stream_output_adapter@_W@__crt_stdio_output@@V?$standard_base@_WV?$stream_output_adapter@_W@__crt_stdio_output@@@2@@__crt_stdio_output@@AEAAXII_N@Z 000000018005f180 f i libucrtd:output.obj
 0001:0005e2b0       ??$type_case_integer_parse_into_buffer@I@?$output_processor@_WV?$string_output_adapter@_W@__crt_stdio_output@@V?$format_validation_base@_WV?$string_output_adapter@_W@__crt_stdio_output@@@2@@__crt_stdio_output@@AEAAXII_N@Z 000000018005f2b0 f i libucrtd:output.obj
 0001:0005e3e0       ??$type_case_integer_parse_into_buffer@I@?$output_processor@_WV?$string_output_adapter@_W@__crt_stdio_output@@V?$positional_parameter_base@_WV?$string_output_adapter@_W@__crt_stdio_output@@@2@@__crt_stdio_output@@AEAAXII_N@Z 000000018005f3e0 f i libucrtd:output.obj
 0001:0005e510       ??$type_case_integer_parse_into_buffer@I@?$output_processor@_WV?$string_output_adapter@_W@__crt_stdio_output@@V?$standard_base@_WV?$string_output_adapter@_W@__crt_stdio_output@@@2@@__crt_stdio_output@@AEAAXII_N@Z 000000018005f510 f i libucrtd:output.obj
 0001:0005e640       ??$type_case_integer_parse_into_buffer@_K@?$output_processor@DV?$stream_output_adapter@D@__crt_stdio_output@@V?$format_validation_base@DV?$stream_output_adapter@D@__crt_stdio_output@@@2@@__crt_stdio_output@@AEAAX_KI_N@Z 000000018005f640 f i libucrtd:output.obj
 0001:0005e790       ??$type_case_integer_parse_into_buffer@_K@?$output_processor@DV?$stream_output_adapter@D@__crt_stdio_output@@V?$positional_parameter_base@DV?$stream_output_adapter@D@__crt_stdio_output@@@2@@__crt_stdio_output@@AEAAX_KI_N@Z 000000018005f790 f i libucrtd:output.obj
 0001:0005e8e0       ??$type_case_integer_parse_into_buffer@_K@?$output_processor@DV?$stream_output_adapter@D@__crt_stdio_output@@V?$standard_base@DV?$stream_output_adapter@D@__crt_stdio_output@@@2@@__crt_stdio_output@@AEAAX_KI_N@Z 000000018005f8e0 f i libucrtd:output.obj
 0001:0005ea30       ??$type_case_integer_parse_into_buffer@_K@?$output_processor@DV?$string_output_adapter@D@__crt_stdio_output@@V?$format_validation_base@DV?$string_output_adapter@D@__crt_stdio_output@@@2@@__crt_stdio_output@@AEAAX_KI_N@Z 000000018005fa30 f i libucrtd:output.obj
 0001:0005eb80       ??$type_case_integer_parse_into_buffer@_K@?$output_processor@DV?$string_output_adapter@D@__crt_stdio_output@@V?$positional_parameter_base@DV?$string_output_adapter@D@__crt_stdio_output@@@2@@__crt_stdio_output@@AEAAX_KI_N@Z 000000018005fb80 f i libucrtd:output.obj
 0001:0005ecd0       ??$type_case_integer_parse_into_buffer@_K@?$output_processor@DV?$string_output_adapter@D@__crt_stdio_output@@V?$standard_base@DV?$string_output_adapter@D@__crt_stdio_output@@@2@@__crt_stdio_output@@AEAAX_KI_N@Z 000000018005fcd0 f i libucrtd:output.obj
 0001:0005ee20       ??$type_case_integer_parse_into_buffer@_K@?$output_processor@_WV?$stream_output_adapter@_W@__crt_stdio_output@@V?$format_validation_base@_WV?$stream_output_adapter@_W@__crt_stdio_output@@@2@@__crt_stdio_output@@AEAAX_KI_N@Z 000000018005fe20 f i libucrtd:output.obj
 0001:0005ef70       ??$type_case_integer_parse_into_buffer@_K@?$output_processor@_WV?$stream_output_adapter@_W@__crt_stdio_output@@V?$positional_parameter_base@_WV?$stream_output_adapter@_W@__crt_stdio_output@@@2@@__crt_stdio_output@@AEAAX_KI_N@Z 000000018005ff70 f i libucrtd:output.obj
 0001:0005f0c0       ??$type_case_integer_parse_into_buffer@_K@?$output_processor@_WV?$stream_output_adapter@_W@__crt_stdio_output@@V?$standard_base@_WV?$stream_output_adapter@_W@__crt_stdio_output@@@2@@__crt_stdio_output@@AEAAX_KI_N@Z 00000001800600c0 f i libucrtd:output.obj
 0001:0005f210       ??$type_case_integer_parse_into_buffer@_K@?$output_processor@_WV?$string_output_adapter@_W@__crt_stdio_output@@V?$format_validation_base@_WV?$string_output_adapter@_W@__crt_stdio_output@@@2@@__crt_stdio_output@@AEAAX_KI_N@Z 0000000180060210 f i libucrtd:output.obj
 0001:0005f360       ??$type_case_integer_parse_into_buffer@_K@?$output_processor@_WV?$string_output_adapter@_W@__crt_stdio_output@@V?$positional_parameter_base@_WV?$string_output_adapter@_W@__crt_stdio_output@@@2@@__crt_stdio_output@@AEAAX_KI_N@Z 0000000180060360 f i libucrtd:output.obj
 0001:0005f4b0       ??$type_case_integer_parse_into_buffer@_K@?$output_processor@_WV?$string_output_adapter@_W@__crt_stdio_output@@V?$standard_base@_WV?$string_output_adapter@_W@__crt_stdio_output@@@2@@__crt_stdio_output@@AEAAX_KI_N@Z 00000001800604b0 f i libucrtd:output.obj
 0001:0005f600       ??$write_multiple_characters@V?$stream_output_adapter@D@__crt_stdio_output@@D@__crt_stdio_output@@YAXAEBV?$stream_output_adapter@D@0@DHQEAH@Z 0000000180060600 f i libucrtd:output.obj
 0001:0005f660       ??$write_multiple_characters@V?$stream_output_adapter@_W@__crt_stdio_output@@D@__crt_stdio_output@@YAXAEBV?$stream_output_adapter@_W@0@DHQEAH@Z 0000000180060660 f i libucrtd:output.obj
 0001:0005f6c0       ??$write_multiple_characters@V?$string_output_adapter@D@__crt_stdio_output@@D@__crt_stdio_output@@YAXAEBV?$string_output_adapter@D@0@DHQEAH@Z 00000001800606c0 f i libucrtd:output.obj
 0001:0005f720       ??$write_multiple_characters@V?$string_output_adapter@_W@__crt_stdio_output@@D@__crt_stdio_output@@YAXAEBV?$string_output_adapter@_W@0@DHQEAH@Z 0000000180060720 f i libucrtd:output.obj
 0001:0005fb40       ??0?$common_data@D@__crt_stdio_output@@IEAA@XZ 0000000180060b40 f i libucrtd:output.obj
 0001:0005fc10       ??0?$common_data@_W@__crt_stdio_output@@IEAA@XZ 0000000180060c10 f i libucrtd:output.obj
 0001:0005fce0       ??0?$output_adapter_data@DV?$stream_output_adapter@D@__crt_stdio_output@@@__crt_stdio_output@@IEAA@AEBV?$stream_output_adapter@D@1@_KQEBDQEAU__crt_locale_pointers@@QEAD@Z 0000000180060ce0 f i libucrtd:output.obj
 0001:0005fd60       ??0?$output_adapter_data@DV?$string_output_adapter@D@__crt_stdio_output@@@__crt_stdio_output@@IEAA@AEBV?$string_output_adapter@D@1@_KQEBDQEAU__crt_locale_pointers@@QEAD@Z 0000000180060d60 f i libucrtd:output.obj
 0001:0005fde0       ??0?$output_adapter_data@_WV?$stream_output_adapter@_W@__crt_stdio_output@@@__crt_stdio_output@@IEAA@AEBV?$stream_output_adapter@_W@1@_KQEB_WQEAU__crt_locale_pointers@@QEAD@Z 0000000180060de0 f i libucrtd:output.obj
 0001:0005fe60       ??0?$output_adapter_data@_WV?$string_output_adapter@_W@__crt_stdio_output@@@__crt_stdio_output@@IEAA@AEBV?$string_output_adapter@_W@1@_KQEB_WQEAU__crt_locale_pointers@@QEAD@Z 0000000180060e60 f i libucrtd:output.obj
 0001:0005fee0       ??0?$output_processor@DV?$stream_output_adapter@D@__crt_stdio_output@@V?$format_validation_base@DV?$stream_output_adapter@D@__crt_stdio_output@@@2@@__crt_stdio_output@@QEAA@AEBV?$stream_output_adapter@D@1@_KQEBDQEAU__crt_locale_pointers@@QEAD@Z 0000000180060ee0 f i libucrtd:output.obj
 0001:0005ff40       ??0?$output_processor@DV?$stream_output_adapter@D@__crt_stdio_output@@V?$positional_parameter_base@DV?$stream_output_adapter@D@__crt_stdio_output@@@2@@__crt_stdio_output@@QEAA@AEBV?$stream_output_adapter@D@1@_KQEBDQEAU__crt_locale_pointers@@QEAD@Z 0000000180060f40 f i libucrtd:output.obj
 0001:0005ffa0       ??0?$output_processor@DV?$stream_output_adapter@D@__crt_stdio_output@@V?$standard_base@DV?$stream_output_adapter@D@__crt_stdio_output@@@2@@__crt_stdio_output@@QEAA@AEBV?$stream_output_adapter@D@1@_KQEBDQEAU__crt_locale_pointers@@QEAD@Z 0000000180060fa0 f i libucrtd:output.obj
 0001:00060000       ??0?$output_processor@DV?$string_output_adapter@D@__crt_stdio_output@@V?$format_validation_base@DV?$string_output_adapter@D@__crt_stdio_output@@@2@@__crt_stdio_output@@QEAA@AEBV?$string_output_adapter@D@1@_KQEBDQEAU__crt_locale_pointers@@QEAD@Z 0000000180061000 f i libucrtd:output.obj
 0001:00060060       ??0?$output_processor@DV?$string_output_adapter@D@__crt_stdio_output@@V?$positional_parameter_base@DV?$string_output_adapter@D@__crt_stdio_output@@@2@@__crt_stdio_output@@QEAA@AEBV?$string_output_adapter@D@1@_KQEBDQEAU__crt_locale_pointers@@QEAD@Z 0000000180061060 f i libucrtd:output.obj
 0001:000600c0       ??0?$output_processor@DV?$string_output_adapter@D@__crt_stdio_output@@V?$standard_base@DV?$string_output_adapter@D@__crt_stdio_output@@@2@@__crt_stdio_output@@QEAA@AEBV?$string_output_adapter@D@1@_KQEBDQEAU__crt_locale_pointers@@QEAD@Z 00000001800610c0 f i libucrtd:output.obj
 0001:00060120       ??0?$output_processor@_WV?$stream_output_adapter@_W@__crt_stdio_output@@V?$format_validation_base@_WV?$stream_output_adapter@_W@__crt_stdio_output@@@2@@__crt_stdio_output@@QEAA@AEBV?$stream_output_adapter@_W@1@_KQEB_WQEAU__crt_locale_pointers@@QEAD@Z 0000000180061120 f i libucrtd:output.obj
 0001:00060180       ??0?$output_processor@_WV?$stream_output_adapter@_W@__crt_stdio_output@@V?$positional_parameter_base@_WV?$stream_output_adapter@_W@__crt_stdio_output@@@2@@__crt_stdio_output@@QEAA@AEBV?$stream_output_adapter@_W@1@_KQEB_WQEAU__crt_locale_pointers@@QEAD@Z 0000000180061180 f i libucrtd:output.obj
 0001:000601e0       ??0?$output_processor@_WV?$stream_output_adapter@_W@__crt_stdio_output@@V?$standard_base@_WV?$stream_output_adapter@_W@__crt_stdio_output@@@2@@__crt_stdio_output@@QEAA@AEBV?$stream_output_adapter@_W@1@_KQEB_WQEAU__crt_locale_pointers@@QEAD@Z 00000001800611e0 f i libucrtd:output.obj
 0001:00060240       ??0?$output_processor@_WV?$string_output_adapter@_W@__crt_stdio_output@@V?$format_validation_base@_WV?$string_output_adapter@_W@__crt_stdio_output@@@2@@__crt_stdio_output@@QEAA@AEBV?$string_output_adapter@_W@1@_KQEB_WQEAU__crt_locale_pointers@@QEAD@Z 0000000180061240 f i libucrtd:output.obj
 0001:000602a0       ??0?$output_processor@_WV?$string_output_adapter@_W@__crt_stdio_output@@V?$positional_parameter_base@_WV?$string_output_adapter@_W@__crt_stdio_output@@@2@@__crt_stdio_output@@QEAA@AEBV?$string_output_adapter@_W@1@_KQEB_WQEAU__crt_locale_pointers@@QEAD@Z 00000001800612a0 f i libucrtd:output.obj
 0001:00060300       ??0?$output_processor@_WV?$string_output_adapter@_W@__crt_stdio_output@@V?$standard_base@_WV?$string_output_adapter@_W@__crt_stdio_output@@@2@@__crt_stdio_output@@QEAA@AEBV?$string_output_adapter@_W@1@_KQEB_WQEAU__crt_locale_pointers@@QEAD@Z 0000000180061300 f i libucrtd:output.obj
 0001:00060360       ??0?$stream_output_adapter@D@__crt_stdio_output@@QEAA@QEAU_iobuf@@@Z 0000000180061360 f i libucrtd:output.obj
 0001:00060390       ??0?$stream_output_adapter@_W@__crt_stdio_output@@QEAA@QEAU_iobuf@@@Z 0000000180061390 f i libucrtd:output.obj
 0001:000603c0       ??0?$string_output_adapter@D@__crt_stdio_output@@QEAA@QEAU?$string_output_adapter_context@D@1@@Z 00000001800613c0 f i libucrtd:output.obj
 0001:000603e0       ??0?$string_output_adapter@_W@__crt_stdio_output@@QEAA@QEAU?$string_output_adapter_context@_W@1@@Z 00000001800613e0 f i libucrtd:output.obj
 0001:00060400       ??0_LocaleUpdate@@QEAA@QEAU__crt_locale_pointers@@@Z 0000000180061400 f i libucrtd:output.obj
 0001:00060520       ??0__acrt_stdio_temporary_buffering_guard@@QEAA@QEAU_iobuf@@@Z 0000000180061520 f i libucrtd:output.obj
 0001:00060560       ??0__crt_errno_guard@@QEAA@QEAH@Z 0000000180061560 f i libucrtd:output.obj
 0001:000605a0       ??0__crt_stdio_stream@@QEAA@QEAU_iobuf@@@Z 00000001800615a0 f i libucrtd:output.obj
 0001:000605c0       ??0formatting_buffer@__crt_stdio_output@@QEAA@XZ 00000001800615c0 f i libucrtd:output.obj
 0001:00060600       ??1?$common_data@D@__crt_stdio_output@@QEAA@XZ 0000000180061600 f i libucrtd:output.obj
 0001:00060620       ??1?$common_data@_W@__crt_stdio_output@@QEAA@XZ 0000000180061620 f i libucrtd:output.obj
 0001:00060640       ??1?$format_validation_base@DV?$stream_output_adapter@D@__crt_stdio_output@@@__crt_stdio_output@@QEAA@XZ 0000000180061640 f i libucrtd:output.obj
 0001:00060660       ??1?$format_validation_base@DV?$string_output_adapter@D@__crt_stdio_output@@@__crt_stdio_output@@QEAA@XZ 0000000180061660 f i libucrtd:output.obj
 0001:00060680       ??1?$format_validation_base@_WV?$stream_output_adapter@_W@__crt_stdio_output@@@__crt_stdio_output@@QEAA@XZ 0000000180061680 f i libucrtd:output.obj
 0001:000606a0       ??1?$format_validation_base@_WV?$string_output_adapter@_W@__crt_stdio_output@@@__crt_stdio_output@@QEAA@XZ 00000001800616a0 f i libucrtd:output.obj
 0001:000606c0       ??1?$output_adapter_data@DV?$stream_output_adapter@D@__crt_stdio_output@@@__crt_stdio_output@@QEAA@XZ 00000001800616c0 f i libucrtd:output.obj
 0001:000606e0       ??1?$output_adapter_data@DV?$string_output_adapter@D@__crt_stdio_output@@@__crt_stdio_output@@QEAA@XZ 00000001800616e0 f i libucrtd:output.obj
 0001:00060700       ??1?$output_adapter_data@_WV?$stream_output_adapter@_W@__crt_stdio_output@@@__crt_stdio_output@@QEAA@XZ 0000000180061700 f i libucrtd:output.obj
 0001:00060720       ??1?$output_adapter_data@_WV?$string_output_adapter@_W@__crt_stdio_output@@@__crt_stdio_output@@QEAA@XZ 0000000180061720 f i libucrtd:output.obj
 0001:00060740       ??1?$output_processor@DV?$stream_output_adapter@D@__crt_stdio_output@@V?$format_validation_base@DV?$stream_output_adapter@D@__crt_stdio_output@@@2@@__crt_stdio_output@@QEAA@XZ 0000000180061740 f i libucrtd:output.obj
 0001:00060760       ??1?$output_processor@DV?$stream_output_adapter@D@__crt_stdio_output@@V?$positional_parameter_base@DV?$stream_output_adapter@D@__crt_stdio_output@@@2@@__crt_stdio_output@@QEAA@XZ 0000000180061760 f i libucrtd:output.obj
 0001:00060780       ??1?$output_processor@DV?$stream_output_adapter@D@__crt_stdio_output@@V?$standard_base@DV?$stream_output_adapter@D@__crt_stdio_output@@@2@@__crt_stdio_output@@QEAA@XZ 0000000180061780 f i libucrtd:output.obj
 0001:000607a0       ??1?$output_processor@DV?$string_output_adapter@D@__crt_stdio_output@@V?$format_validation_base@DV?$string_output_adapter@D@__crt_stdio_output@@@2@@__crt_stdio_output@@QEAA@XZ 00000001800617a0 f i libucrtd:output.obj
 0001:000607c0       ??1?$output_processor@DV?$string_output_adapter@D@__crt_stdio_output@@V?$positional_parameter_base@DV?$string_output_adapter@D@__crt_stdio_output@@@2@@__crt_stdio_output@@QEAA@XZ 00000001800617c0 f i libucrtd:output.obj
 0001:000607e0       ??1?$output_processor@DV?$string_output_adapter@D@__crt_stdio_output@@V?$standard_base@DV?$string_output_adapter@D@__crt_stdio_output@@@2@@__crt_stdio_output@@QEAA@XZ 00000001800617e0 f i libucrtd:output.obj
 0001:00060800       ??1?$output_processor@_WV?$stream_output_adapter@_W@__crt_stdio_output@@V?$format_validation_base@_WV?$stream_output_adapter@_W@__crt_stdio_output@@@2@@__crt_stdio_output@@QEAA@XZ 0000000180061800 f i libucrtd:output.obj
 0001:00060820       ??1?$output_processor@_WV?$stream_output_adapter@_W@__crt_stdio_output@@V?$positional_parameter_base@_WV?$stream_output_adapter@_W@__crt_stdio_output@@@2@@__crt_stdio_output@@QEAA@XZ 0000000180061820 f i libucrtd:output.obj
 0001:00060840       ??1?$output_processor@_WV?$stream_output_adapter@_W@__crt_stdio_output@@V?$standard_base@_WV?$stream_output_adapter@_W@__crt_stdio_output@@@2@@__crt_stdio_output@@QEAA@XZ 0000000180061840 f i libucrtd:output.obj
 0001:00060860       ??1?$output_processor@_WV?$string_output_adapter@_W@__crt_stdio_output@@V?$format_validation_base@_WV?$string_output_adapter@_W@__crt_stdio_output@@@2@@__crt_stdio_output@@QEAA@XZ 0000000180061860 f i libucrtd:output.obj
 0001:00060880       ??1?$output_processor@_WV?$string_output_adapter@_W@__crt_stdio_output@@V?$positional_parameter_base@_WV?$string_output_adapter@_W@__crt_stdio_output@@@2@@__crt_stdio_output@@QEAA@XZ 0000000180061880 f i libucrtd:output.obj
 0001:000608a0       ??1?$output_processor@_WV?$string_output_adapter@_W@__crt_stdio_output@@V?$standard_base@_WV?$string_output_adapter@_W@__crt_stdio_output@@@2@@__crt_stdio_output@@QEAA@XZ 00000001800618a0 f i libucrtd:output.obj
 0001:000608c0       ??1?$positional_parameter_base@DV?$stream_output_adapter@D@__crt_stdio_output@@@__crt_stdio_output@@QEAA@XZ 00000001800618c0 f i libucrtd:output.obj
 0001:000608e0       ??1?$positional_parameter_base@DV?$string_output_adapter@D@__crt_stdio_output@@@__crt_stdio_output@@QEAA@XZ 00000001800618e0 f i libucrtd:output.obj
 0001:00060900       ??1?$positional_parameter_base@_WV?$stream_output_adapter@_W@__crt_stdio_output@@@__crt_stdio_output@@QEAA@XZ 0000000180061900 f i libucrtd:output.obj
 0001:00060920       ??1?$positional_parameter_base@_WV?$string_output_adapter@_W@__crt_stdio_output@@@__crt_stdio_output@@QEAA@XZ 0000000180061920 f i libucrtd:output.obj
 0001:00060940       ??1?$standard_base@DV?$stream_output_adapter@D@__crt_stdio_output@@@__crt_stdio_output@@QEAA@XZ 0000000180061940 f i libucrtd:output.obj
 0001:00060960       ??1?$standard_base@DV?$string_output_adapter@D@__crt_stdio_output@@@__crt_stdio_output@@QEAA@XZ 0000000180061960 f i libucrtd:output.obj
 0001:00060980       ??1?$standard_base@_WV?$stream_output_adapter@_W@__crt_stdio_output@@@__crt_stdio_output@@QEAA@XZ 0000000180061980 f i libucrtd:output.obj
 0001:000609a0       ??1?$standard_base@_WV?$string_output_adapter@_W@__crt_stdio_output@@@__crt_stdio_output@@QEAA@XZ 00000001800619a0 f i libucrtd:output.obj
 0001:000609c0       ??1_LocaleUpdate@@QEAA@XZ  00000001800619c0 f i libucrtd:output.obj
 0001:00060a00       ??1__acrt_stdio_temporary_buffering_guard@@QEAA@XZ 0000000180061a00 f i libucrtd:output.obj
 0001:00060a30       ??1__crt_errno_guard@@QEAA@XZ 0000000180061a30 f i libucrtd:output.obj
 0001:00060a60       ??1formatting_buffer@__crt_stdio_output@@QEAA@XZ 0000000180061a60 f i libucrtd:output.obj
 0001:00060a90       ??4?$__crt_unique_heap_ptr@DU__crt_internal_free_policy@@@@QEAAAEAV0@$$QEAV0@@Z 0000000180061a90 f i libucrtd:output.obj
 0001:00060ad0       ??C__crt_stdio_stream@@QEBAPEAU__crt_stdio_stream_data@@XZ 0000000180061ad0 f i libucrtd:output.obj
 0001:00061380       ?GetLocaleT@_LocaleUpdate@@QEAAPEAU__crt_locale_pointers@@XZ 0000000180062380 f i libucrtd:output.obj
 0001:00061390       ?__crt_interlocked_read_32@@YAHPEDH@Z 0000000180062390 f i libucrtd:output.obj
 0001:000613b0       ?adjust_hexit@?$output_processor@DV?$stream_output_adapter@D@__crt_stdio_output@@V?$format_validation_base@DV?$stream_output_adapter@D@__crt_stdio_output@@@2@@__crt_stdio_output@@CADH_N@Z 00000001800623b0 f i libucrtd:output.obj
 0001:00061400       ?adjust_hexit@?$output_processor@DV?$stream_output_adapter@D@__crt_stdio_output@@V?$positional_parameter_base@DV?$stream_output_adapter@D@__crt_stdio_output@@@2@@__crt_stdio_output@@CADH_N@Z 0000000180062400 f i libucrtd:output.obj
 0001:00061450       ?adjust_hexit@?$output_processor@DV?$stream_output_adapter@D@__crt_stdio_output@@V?$standard_base@DV?$stream_output_adapter@D@__crt_stdio_output@@@2@@__crt_stdio_output@@CADH_N@Z 0000000180062450 f i libucrtd:output.obj
 0001:000614a0       ?adjust_hexit@?$output_processor@DV?$string_output_adapter@D@__crt_stdio_output@@V?$format_validation_base@DV?$string_output_adapter@D@__crt_stdio_output@@@2@@__crt_stdio_output@@CADH_N@Z 00000001800624a0 f i libucrtd:output.obj
 0001:000614f0       ?adjust_hexit@?$output_processor@DV?$string_output_adapter@D@__crt_stdio_output@@V?$positional_parameter_base@DV?$string_output_adapter@D@__crt_stdio_output@@@2@@__crt_stdio_output@@CADH_N@Z 00000001800624f0 f i libucrtd:output.obj
 0001:00061540       ?adjust_hexit@?$output_processor@DV?$string_output_adapter@D@__crt_stdio_output@@V?$standard_base@DV?$string_output_adapter@D@__crt_stdio_output@@@2@@__crt_stdio_output@@CADH_N@Z 0000000180062540 f i libucrtd:output.obj
 0001:00061590       ?adjust_hexit@?$output_processor@_WV?$stream_output_adapter@_W@__crt_stdio_output@@V?$format_validation_base@_WV?$stream_output_adapter@_W@__crt_stdio_output@@@2@@__crt_stdio_output@@CADH_N@Z 0000000180062590 f i libucrtd:output.obj
 0001:000615e0       ?adjust_hexit@?$output_processor@_WV?$stream_output_adapter@_W@__crt_stdio_output@@V?$positional_parameter_base@_WV?$stream_output_adapter@_W@__crt_stdio_output@@@2@@__crt_stdio_output@@CADH_N@Z 00000001800625e0 f i libucrtd:output.obj
 0001:00061630       ?adjust_hexit@?$output_processor@_WV?$stream_output_adapter@_W@__crt_stdio_output@@V?$standard_base@_WV?$stream_output_adapter@_W@__crt_stdio_output@@@2@@__crt_stdio_output@@CADH_N@Z 0000000180062630 f i libucrtd:output.obj
 0001:00061680       ?adjust_hexit@?$output_processor@_WV?$string_output_adapter@_W@__crt_stdio_output@@V?$format_validation_base@_WV?$string_output_adapter@_W@__crt_stdio_output@@@2@@__crt_stdio_output@@CADH_N@Z 0000000180062680 f i libucrtd:output.obj
 0001:000616d0       ?adjust_hexit@?$output_processor@_WV?$string_output_adapter@_W@__crt_stdio_output@@V?$positional_parameter_base@_WV?$string_output_adapter@_W@__crt_stdio_output@@@2@@__crt_stdio_output@@CADH_N@Z 00000001800626d0 f i libucrtd:output.obj
 0001:00061720       ?adjust_hexit@?$output_processor@_WV?$string_output_adapter@_W@__crt_stdio_output@@V?$standard_base@_WV?$string_output_adapter@_W@__crt_stdio_output@@@2@@__crt_stdio_output@@CADH_N@Z 0000000180062720 f i libucrtd:output.obj
 0001:00061770       ?advance_to_next_pass@?$positional_parameter_base@DV?$stream_output_adapter@D@__crt_stdio_output@@@__crt_stdio_output@@IEAA_NXZ 0000000180062770 f i libucrtd:output.obj
 0001:00061820       ?advance_to_next_pass@?$positional_parameter_base@DV?$string_output_adapter@D@__crt_stdio_output@@@__crt_stdio_output@@IEAA_NXZ 0000000180062820 f i libucrtd:output.obj
 0001:000618d0       ?advance_to_next_pass@?$positional_parameter_base@_WV?$stream_output_adapter@_W@__crt_stdio_output@@@__crt_stdio_output@@IEAA_NXZ 00000001800628d0 f i libucrtd:output.obj
 0001:00061980       ?advance_to_next_pass@?$positional_parameter_base@_WV?$string_output_adapter@_W@__crt_stdio_output@@@__crt_stdio_output@@IEAA_NXZ 0000000180062980 f i libucrtd:output.obj
 0001:00061a30       ?advance_to_next_pass@?$standard_base@DV?$stream_output_adapter@D@__crt_stdio_output@@@__crt_stdio_output@@IEAA_NXZ 0000000180062a30 f i libucrtd:output.obj
 0001:00061a80       ?advance_to_next_pass@?$standard_base@DV?$string_output_adapter@D@__crt_stdio_output@@@__crt_stdio_output@@IEAA_NXZ 0000000180062a80 f i libucrtd:output.obj
 0001:00061ad0       ?advance_to_next_pass@?$standard_base@_WV?$stream_output_adapter@_W@__crt_stdio_output@@@__crt_stdio_output@@IEAA_NXZ 0000000180062ad0 f i libucrtd:output.obj
 0001:00061b20       ?advance_to_next_pass@?$standard_base@_WV?$string_output_adapter@_W@__crt_stdio_output@@@__crt_stdio_output@@IEAA_NXZ 0000000180062b20 f i libucrtd:output.obj
 0001:00061b70       ?crop_zeroes@__crt_stdio_output@@YAXPEADQEAU__crt_locale_pointers@@@Z 0000000180062b70 f i libucrtd:output.obj
 0001:00061cb0       ?find_next_state@?$output_processor@DV?$stream_output_adapter@D@__crt_stdio_output@@V?$format_validation_base@DV?$stream_output_adapter@D@__crt_stdio_output@@@2@@__crt_stdio_output@@AEBA?AW4state@2@DW432@@Z 0000000180062cb0 f i libucrtd:output.obj
 0001:00061d50       ?find_next_state@?$output_processor@DV?$stream_output_adapter@D@__crt_stdio_output@@V?$positional_parameter_base@DV?$stream_output_adapter@D@__crt_stdio_output@@@2@@__crt_stdio_output@@AEBA?AW4state@2@DW432@@Z 0000000180062d50 f i libucrtd:output.obj
 0001:00061df0       ?find_next_state@?$output_processor@DV?$stream_output_adapter@D@__crt_stdio_output@@V?$standard_base@DV?$stream_output_adapter@D@__crt_stdio_output@@@2@@__crt_stdio_output@@AEBA?AW4state@2@DW432@@Z 0000000180062df0 f i libucrtd:output.obj
 0001:00061e90       ?find_next_state@?$output_processor@DV?$string_output_adapter@D@__crt_stdio_output@@V?$format_validation_base@DV?$string_output_adapter@D@__crt_stdio_output@@@2@@__crt_stdio_output@@AEBA?AW4state@2@DW432@@Z 0000000180062e90 f i libucrtd:output.obj
 0001:00061f30       ?find_next_state@?$output_processor@DV?$string_output_adapter@D@__crt_stdio_output@@V?$positional_parameter_base@DV?$string_output_adapter@D@__crt_stdio_output@@@2@@__crt_stdio_output@@AEBA?AW4state@2@DW432@@Z 0000000180062f30 f i libucrtd:output.obj
 0001:00061fd0       ?find_next_state@?$output_processor@DV?$string_output_adapter@D@__crt_stdio_output@@V?$standard_base@DV?$string_output_adapter@D@__crt_stdio_output@@@2@@__crt_stdio_output@@AEBA?AW4state@2@DW432@@Z 0000000180062fd0 f i libucrtd:output.obj
 0001:00062070       ?find_next_state@?$output_processor@_WV?$stream_output_adapter@_W@__crt_stdio_output@@V?$format_validation_base@_WV?$stream_output_adapter@_W@__crt_stdio_output@@@2@@__crt_stdio_output@@AEBA?AW4state@2@_WW432@@Z 0000000180063070 f i libucrtd:output.obj
 0001:00062110       ?find_next_state@?$output_processor@_WV?$stream_output_adapter@_W@__crt_stdio_output@@V?$positional_parameter_base@_WV?$stream_output_adapter@_W@__crt_stdio_output@@@2@@__crt_stdio_output@@AEBA?AW4state@2@_WW432@@Z 0000000180063110 f i libucrtd:output.obj
 0001:000621b0       ?find_next_state@?$output_processor@_WV?$stream_output_adapter@_W@__crt_stdio_output@@V?$standard_base@_WV?$stream_output_adapter@_W@__crt_stdio_output@@@2@@__crt_stdio_output@@AEBA?AW4state@2@_WW432@@Z 00000001800631b0 f i libucrtd:output.obj
 0001:00062250       ?find_next_state@?$output_processor@_WV?$string_output_adapter@_W@__crt_stdio_output@@V?$format_validation_base@_WV?$string_output_adapter@_W@__crt_stdio_output@@@2@@__crt_stdio_output@@AEBA?AW4state@2@_WW432@@Z 0000000180063250 f i libucrtd:output.obj
 0001:000622f0       ?find_next_state@?$output_processor@_WV?$string_output_adapter@_W@__crt_stdio_output@@V?$positional_parameter_base@_WV?$string_output_adapter@_W@__crt_stdio_output@@@2@@__crt_stdio_output@@AEBA?AW4state@2@_WW432@@Z 00000001800632f0 f i libucrtd:output.obj
 0001:00062390       ?find_next_state@?$output_processor@_WV?$string_output_adapter@_W@__crt_stdio_output@@V?$standard_base@_WV?$string_output_adapter@_W@__crt_stdio_output@@@2@@__crt_stdio_output@@AEBA?AW4state@2@_WW432@@Z 0000000180063390 f i libucrtd:output.obj
 0001:00062430       ?force_decimal_point@__crt_stdio_output@@YAXPEADQEAU__crt_locale_pointers@@@Z 0000000180063430 f i libucrtd:output.obj
 0001:00062510       ?get_flags@__crt_stdio_stream@@QEBAJXZ 0000000180063510 f i libucrtd:output.obj
 0001:00062540       ?get_parameter_type@?$positional_parameter_base@DV?$stream_output_adapter@D@__crt_stdio_output@@@__crt_stdio_output@@CA?AW4parameter_type@12@F@Z 0000000180063540 f i libucrtd:output.obj
 0001:00062550       ?get_parameter_type@?$positional_parameter_base@DV?$stream_output_adapter@D@__crt_stdio_output@@@__crt_stdio_output@@CA?AW4parameter_type@12@G@Z 0000000180063550 f i libucrtd:output.obj
 0001:00062560       ?get_parameter_type@?$positional_parameter_base@DV?$stream_output_adapter@D@__crt_stdio_output@@@__crt_stdio_output@@CA?AW4parameter_type@12@H@Z 0000000180063560 f i libucrtd:output.obj
 0001:00062570       ?get_parameter_type@?$positional_parameter_base@DV?$stream_output_adapter@D@__crt_stdio_output@@@__crt_stdio_output@@CA?AW4parameter_type@12@I@Z 0000000180063570 f i libucrtd:output.obj
 0001:00062580       ?get_parameter_type@?$positional_parameter_base@DV?$stream_output_adapter@D@__crt_stdio_output@@@__crt_stdio_output@@CA?AW4parameter_type@12@U_CRT_DOUBLE@@@Z 0000000180063580 f i libucrtd:output.obj
 0001:00062590       ?get_parameter_type@?$positional_parameter_base@DV?$stream_output_adapter@D@__crt_stdio_output@@@__crt_stdio_output@@CA?AW4parameter_type@12@_J@Z 0000000180063590 f i libucrtd:output.obj
 0001:000625a0       ?get_parameter_type@?$positional_parameter_base@DV?$stream_output_adapter@D@__crt_stdio_output@@@__crt_stdio_output@@CA?AW4parameter_type@12@_K@Z 00000001800635a0 f i libucrtd:output.obj
 0001:000625b0       ?get_parameter_type@?$positional_parameter_base@DV?$stream_output_adapter@D@__crt_stdio_output@@@__crt_stdio_output@@CA?AW4parameter_type@12@_W@Z 00000001800635b0 f i libucrtd:output.obj
 0001:000625c0       ?get_parameter_type@?$positional_parameter_base@DV?$string_output_adapter@D@__crt_stdio_output@@@__crt_stdio_output@@CA?AW4parameter_type@12@F@Z 00000001800635c0 f i libucrtd:output.obj
 0001:000625d0       ?get_parameter_type@?$positional_parameter_base@DV?$string_output_adapter@D@__crt_stdio_output@@@__crt_stdio_output@@CA?AW4parameter_type@12@G@Z 00000001800635d0 f i libucrtd:output.obj
 0001:000625e0       ?get_parameter_type@?$positional_parameter_base@DV?$string_output_adapter@D@__crt_stdio_output@@@__crt_stdio_output@@CA?AW4parameter_type@12@H@Z 00000001800635e0 f i libucrtd:output.obj
 0001:000625f0       ?get_parameter_type@?$positional_parameter_base@DV?$string_output_adapter@D@__crt_stdio_output@@@__crt_stdio_output@@CA?AW4parameter_type@12@I@Z 00000001800635f0 f i libucrtd:output.obj
 0001:00062600       ?get_parameter_type@?$positional_parameter_base@DV?$string_output_adapter@D@__crt_stdio_output@@@__crt_stdio_output@@CA?AW4parameter_type@12@U_CRT_DOUBLE@@@Z 0000000180063600 f i libucrtd:output.obj
 0001:00062610       ?get_parameter_type@?$positional_parameter_base@DV?$string_output_adapter@D@__crt_stdio_output@@@__crt_stdio_output@@CA?AW4parameter_type@12@_J@Z 0000000180063610 f i libucrtd:output.obj
 0001:00062620       ?get_parameter_type@?$positional_parameter_base@DV?$string_output_adapter@D@__crt_stdio_output@@@__crt_stdio_output@@CA?AW4parameter_type@12@_K@Z 0000000180063620 f i libucrtd:output.obj
 0001:00062630       ?get_parameter_type@?$positional_parameter_base@DV?$string_output_adapter@D@__crt_stdio_output@@@__crt_stdio_output@@CA?AW4parameter_type@12@_W@Z 0000000180063630 f i libucrtd:output.obj
 0001:00062640       ?get_parameter_type@?$positional_parameter_base@_WV?$stream_output_adapter@_W@__crt_stdio_output@@@__crt_stdio_output@@CA?AW4parameter_type@12@F@Z 0000000180063640 f i libucrtd:output.obj
 0001:00062650       ?get_parameter_type@?$positional_parameter_base@_WV?$stream_output_adapter@_W@__crt_stdio_output@@@__crt_stdio_output@@CA?AW4parameter_type@12@G@Z 0000000180063650 f i libucrtd:output.obj
 0001:00062660       ?get_parameter_type@?$positional_parameter_base@_WV?$stream_output_adapter@_W@__crt_stdio_output@@@__crt_stdio_output@@CA?AW4parameter_type@12@H@Z 0000000180063660 f i libucrtd:output.obj
 0001:00062670       ?get_parameter_type@?$positional_parameter_base@_WV?$stream_output_adapter@_W@__crt_stdio_output@@@__crt_stdio_output@@CA?AW4parameter_type@12@I@Z 0000000180063670 f i libucrtd:output.obj
 0001:00062680       ?get_parameter_type@?$positional_parameter_base@_WV?$stream_output_adapter@_W@__crt_stdio_output@@@__crt_stdio_output@@CA?AW4parameter_type@12@U_CRT_DOUBLE@@@Z 0000000180063680 f i libucrtd:output.obj
 0001:00062690       ?get_parameter_type@?$positional_parameter_base@_WV?$stream_output_adapter@_W@__crt_stdio_output@@@__crt_stdio_output@@CA?AW4parameter_type@12@_J@Z 0000000180063690 f i libucrtd:output.obj
 0001:000626a0       ?get_parameter_type@?$positional_parameter_base@_WV?$stream_output_adapter@_W@__crt_stdio_output@@@__crt_stdio_output@@CA?AW4parameter_type@12@_K@Z 00000001800636a0 f i libucrtd:output.obj
 0001:000626b0       ?get_parameter_type@?$positional_parameter_base@_WV?$stream_output_adapter@_W@__crt_stdio_output@@@__crt_stdio_output@@CA?AW4parameter_type@12@_W@Z 00000001800636b0 f i libucrtd:output.obj
 0001:000626c0       ?get_parameter_type@?$positional_parameter_base@_WV?$string_output_adapter@_W@__crt_stdio_output@@@__crt_stdio_output@@CA?AW4parameter_type@12@F@Z 00000001800636c0 f i libucrtd:output.obj
 0001:000626d0       ?get_parameter_type@?$positional_parameter_base@_WV?$string_output_adapter@_W@__crt_stdio_output@@@__crt_stdio_output@@CA?AW4parameter_type@12@G@Z 00000001800636d0 f i libucrtd:output.obj
 0001:000626e0       ?get_parameter_type@?$positional_parameter_base@_WV?$string_output_adapter@_W@__crt_stdio_output@@@__crt_stdio_output@@CA?AW4parameter_type@12@H@Z 00000001800636e0 f i libucrtd:output.obj
 0001:000626f0       ?get_parameter_type@?$positional_parameter_base@_WV?$string_output_adapter@_W@__crt_stdio_output@@@__crt_stdio_output@@CA?AW4parameter_type@12@I@Z 00000001800636f0 f i libucrtd:output.obj
 0001:00062700       ?get_parameter_type@?$positional_parameter_base@_WV?$string_output_adapter@_W@__crt_stdio_output@@@__crt_stdio_output@@CA?AW4parameter_type@12@U_CRT_DOUBLE@@@Z 0000000180063700 f i libucrtd:output.obj
 0001:00062710       ?get_parameter_type@?$positional_parameter_base@_WV?$string_output_adapter@_W@__crt_stdio_output@@@__crt_stdio_output@@CA?AW4parameter_type@12@_J@Z 0000000180063710 f i libucrtd:output.obj
 0001:00062720       ?get_parameter_type@?$positional_parameter_base@_WV?$string_output_adapter@_W@__crt_stdio_output@@@__crt_stdio_output@@CA?AW4parameter_type@12@_K@Z 0000000180063720 f i libucrtd:output.obj
 0001:00062730       ?get_parameter_type@?$positional_parameter_base@_WV?$string_output_adapter@_W@__crt_stdio_output@@@__crt_stdio_output@@CA?AW4parameter_type@12@_W@Z 0000000180063730 f i libucrtd:output.obj
 0001:00062740       ?has_flag@?$output_processor@DV?$stream_output_adapter@D@__crt_stdio_output@@V?$format_validation_base@DV?$stream_output_adapter@D@__crt_stdio_output@@@2@@__crt_stdio_output@@AEBA_NI@Z 0000000180063740 f i libucrtd:output.obj
 0001:00062780       ?has_flag@?$output_processor@DV?$stream_output_adapter@D@__crt_stdio_output@@V?$positional_parameter_base@DV?$stream_output_adapter@D@__crt_stdio_output@@@2@@__crt_stdio_output@@AEBA_NI@Z 0000000180063780 f i libucrtd:output.obj
 0001:000627c0       ?has_flag@?$output_processor@DV?$stream_output_adapter@D@__crt_stdio_output@@V?$standard_base@DV?$stream_output_adapter@D@__crt_stdio_output@@@2@@__crt_stdio_output@@AEBA_NI@Z 00000001800637c0 f i libucrtd:output.obj
 0001:00062800       ?has_flag@?$output_processor@DV?$string_output_adapter@D@__crt_stdio_output@@V?$format_validation_base@DV?$string_output_adapter@D@__crt_stdio_output@@@2@@__crt_stdio_output@@AEBA_NI@Z 0000000180063800 f i libucrtd:output.obj
 0001:00062840       ?has_flag@?$output_processor@DV?$string_output_adapter@D@__crt_stdio_output@@V?$positional_parameter_base@DV?$string_output_adapter@D@__crt_stdio_output@@@2@@__crt_stdio_output@@AEBA_NI@Z 0000000180063840 f i libucrtd:output.obj
 0001:00062880       ?has_flag@?$output_processor@DV?$string_output_adapter@D@__crt_stdio_output@@V?$standard_base@DV?$string_output_adapter@D@__crt_stdio_output@@@2@@__crt_stdio_output@@AEBA_NI@Z 0000000180063880 f i libucrtd:output.obj
 0001:000628c0       ?has_flag@?$output_processor@_WV?$stream_output_adapter@_W@__crt_stdio_output@@V?$format_validation_base@_WV?$stream_output_adapter@_W@__crt_stdio_output@@@2@@__crt_stdio_output@@AEBA_NI@Z 00000001800638c0 f i libucrtd:output.obj
 0001:00062900       ?has_flag@?$output_processor@_WV?$stream_output_adapter@_W@__crt_stdio_output@@V?$positional_parameter_base@_WV?$stream_output_adapter@_W@__crt_stdio_output@@@2@@__crt_stdio_output@@AEBA_NI@Z 0000000180063900 f i libucrtd:output.obj
 0001:00062940       ?has_flag@?$output_processor@_WV?$stream_output_adapter@_W@__crt_stdio_output@@V?$standard_base@_WV?$stream_output_adapter@_W@__crt_stdio_output@@@2@@__crt_stdio_output@@AEBA_NI@Z 0000000180063940 f i libucrtd:output.obj
 0001:00062980       ?has_flag@?$output_processor@_WV?$string_output_adapter@_W@__crt_stdio_output@@V?$format_validation_base@_WV?$string_output_adapter@_W@__crt_stdio_output@@@2@@__crt_stdio_output@@AEBA_NI@Z 0000000180063980 f i libucrtd:output.obj
 0001:000629c0       ?has_flag@?$output_processor@_WV?$string_output_adapter@_W@__crt_stdio_output@@V?$positional_parameter_base@_WV?$string_output_adapter@_W@__crt_stdio_output@@@2@@__crt_stdio_output@@AEBA_NI@Z 00000001800639c0 f i libucrtd:output.obj
 0001:00062a00       ?has_flag@?$output_processor@_WV?$string_output_adapter@_W@__crt_stdio_output@@V?$standard_base@_WV?$string_output_adapter@_W@__crt_stdio_output@@@2@@__crt_stdio_output@@AEBA_NI@Z 0000000180063a00 f i libucrtd:output.obj
 0001:00062a40       ?is_positional_parameter_reappearance_consistent@?$positional_parameter_base@DV?$stream_output_adapter@D@__crt_stdio_output@@@__crt_stdio_output@@AEAA_NAEBUparameter_data@12@W4parameter_type@12@DW4length_modifier@2@@Z 0000000180063a40 f i libucrtd:output.obj
 0001:00062ca0       ?is_positional_parameter_reappearance_consistent@?$positional_parameter_base@DV?$string_output_adapter@D@__crt_stdio_output@@@__crt_stdio_output@@AEAA_NAEBUparameter_data@12@W4parameter_type@12@DW4length_modifier@2@@Z 0000000180063ca0 f i libucrtd:output.obj
 0001:00062f00       ?is_positional_parameter_reappearance_consistent@?$positional_parameter_base@_WV?$stream_output_adapter@_W@__crt_stdio_output@@@__crt_stdio_output@@AEAA_NAEBUparameter_data@12@W4parameter_type@12@_WW4length_modifier@2@@Z 0000000180063f00 f i libucrtd:output.obj
 0001:00063160       ?is_positional_parameter_reappearance_consistent@?$positional_parameter_base@_WV?$string_output_adapter@_W@__crt_stdio_output@@@__crt_stdio_output@@AEAA_NAEBUparameter_data@12@W4parameter_type@12@_WW4length_modifier@2@@Z 0000000180064160 f i libucrtd:output.obj
 0001:000633c0       ?is_string_backed@__crt_stdio_stream@@QEBA_NXZ 00000001800643c0 f i libucrtd:output.obj
 0001:00063400       ?narrow_null_string@?$output_processor@DV?$stream_output_adapter@D@__crt_stdio_output@@V?$format_validation_base@DV?$stream_output_adapter@D@__crt_stdio_output@@@2@@__crt_stdio_output@@CAPEADXZ 0000000180064400 f i libucrtd:output.obj
 0001:00063410       ?narrow_null_string@?$output_processor@DV?$stream_output_adapter@D@__crt_stdio_output@@V?$positional_parameter_base@DV?$stream_output_adapter@D@__crt_stdio_output@@@2@@__crt_stdio_output@@CAPEADXZ 0000000180064410 f i libucrtd:output.obj
 0001:00063420       ?narrow_null_string@?$output_processor@DV?$stream_output_adapter@D@__crt_stdio_output@@V?$standard_base@DV?$stream_output_adapter@D@__crt_stdio_output@@@2@@__crt_stdio_output@@CAPEADXZ 0000000180064420 f i libucrtd:output.obj
 0001:00063430       ?narrow_null_string@?$output_processor@DV?$string_output_adapter@D@__crt_stdio_output@@V?$format_validation_base@DV?$string_output_adapter@D@__crt_stdio_output@@@2@@__crt_stdio_output@@CAPEADXZ 0000000180064430 f i libucrtd:output.obj
 0001:00063440       ?narrow_null_string@?$output_processor@DV?$string_output_adapter@D@__crt_stdio_output@@V?$positional_parameter_base@DV?$string_output_adapter@D@__crt_stdio_output@@@2@@__crt_stdio_output@@CAPEADXZ 0000000180064440 f i libucrtd:output.obj
 0001:00063450       ?narrow_null_string@?$output_processor@DV?$string_output_adapter@D@__crt_stdio_output@@V?$standard_base@DV?$string_output_adapter@D@__crt_stdio_output@@@2@@__crt_stdio_output@@CAPEADXZ 0000000180064450 f i libucrtd:output.obj
 0001:00063460       ?narrow_null_string@?$output_processor@_WV?$stream_output_adapter@_W@__crt_stdio_output@@V?$format_validation_base@_WV?$stream_output_adapter@_W@__crt_stdio_output@@@2@@__crt_stdio_output@@CAPEADXZ 0000000180064460 f i libucrtd:output.obj
 0001:00063470       ?narrow_null_string@?$output_processor@_WV?$stream_output_adapter@_W@__crt_stdio_output@@V?$positional_parameter_base@_WV?$stream_output_adapter@_W@__crt_stdio_output@@@2@@__crt_stdio_output@@CAPEADXZ 0000000180064470 f i libucrtd:output.obj
 0001:00063480       ?narrow_null_string@?$output_processor@_WV?$stream_output_adapter@_W@__crt_stdio_output@@V?$standard_base@_WV?$stream_output_adapter@_W@__crt_stdio_output@@@2@@__crt_stdio_output@@CAPEADXZ 0000000180064480 f i libucrtd:output.obj
 0001:00063490       ?narrow_null_string@?$output_processor@_WV?$string_output_adapter@_W@__crt_stdio_output@@V?$format_validation_base@_WV?$string_output_adapter@_W@__crt_stdio_output@@@2@@__crt_stdio_output@@CAPEADXZ 0000000180064490 f i libucrtd:output.obj
 0001:000634a0       ?narrow_null_string@?$output_processor@_WV?$string_output_adapter@_W@__crt_stdio_output@@V?$positional_parameter_base@_WV?$string_output_adapter@_W@__crt_stdio_output@@@2@@__crt_stdio_output@@CAPEADXZ 00000001800644a0 f i libucrtd:output.obj
 0001:000634b0       ?narrow_null_string@?$output_processor@_WV?$string_output_adapter@_W@__crt_stdio_output@@V?$standard_base@_WV?$string_output_adapter@_W@__crt_stdio_output@@@2@@__crt_stdio_output@@CAPEADXZ 00000001800644b0 f i libucrtd:output.obj
 0001:000634c0       ?parse_int_from_format_string@?$output_processor@DV?$stream_output_adapter@D@__crt_stdio_output@@V?$format_validation_base@DV?$stream_output_adapter@D@__crt_stdio_output@@@2@@__crt_stdio_output@@AEAA_NQEAH@Z 00000001800644c0 f i libucrtd:output.obj
 0001:000635a0       ?parse_int_from_format_string@?$output_processor@DV?$stream_output_adapter@D@__crt_stdio_output@@V?$positional_parameter_base@DV?$stream_output_adapter@D@__crt_stdio_output@@@2@@__crt_stdio_output@@AEAA_NQEAH@Z 00000001800645a0 f i libucrtd:output.obj
 0001:00063680       ?parse_int_from_format_string@?$output_processor@DV?$stream_output_adapter@D@__crt_stdio_output@@V?$standard_base@DV?$stream_output_adapter@D@__crt_stdio_output@@@2@@__crt_stdio_output@@AEAA_NQEAH@Z 0000000180064680 f i libucrtd:output.obj
 0001:00063760       ?parse_int_from_format_string@?$output_processor@DV?$string_output_adapter@D@__crt_stdio_output@@V?$format_validation_base@DV?$string_output_adapter@D@__crt_stdio_output@@@2@@__crt_stdio_output@@AEAA_NQEAH@Z 0000000180064760 f i libucrtd:output.obj
 0001:00063840       ?parse_int_from_format_string@?$output_processor@DV?$string_output_adapter@D@__crt_stdio_output@@V?$positional_parameter_base@DV?$string_output_adapter@D@__crt_stdio_output@@@2@@__crt_stdio_output@@AEAA_NQEAH@Z 0000000180064840 f i libucrtd:output.obj
 0001:00063920       ?parse_int_from_format_string@?$output_processor@DV?$string_output_adapter@D@__crt_stdio_output@@V?$standard_base@DV?$string_output_adapter@D@__crt_stdio_output@@@2@@__crt_stdio_output@@AEAA_NQEAH@Z 0000000180064920 f i libucrtd:output.obj
 0001:00063a00       ?parse_int_from_format_string@?$output_processor@_WV?$stream_output_adapter@_W@__crt_stdio_output@@V?$format_validation_base@_WV?$stream_output_adapter@_W@__crt_stdio_output@@@2@@__crt_stdio_output@@AEAA_NQEAH@Z 0000000180064a00 f i libucrtd:output.obj
 0001:00063ae0       ?parse_int_from_format_string@?$output_processor@_WV?$stream_output_adapter@_W@__crt_stdio_output@@V?$positional_parameter_base@_WV?$stream_output_adapter@_W@__crt_stdio_output@@@2@@__crt_stdio_output@@AEAA_NQEAH@Z 0000000180064ae0 f i libucrtd:output.obj
 0001:00063bc0       ?parse_int_from_format_string@?$output_processor@_WV?$stream_output_adapter@_W@__crt_stdio_output@@V?$standard_base@_WV?$stream_output_adapter@_W@__crt_stdio_output@@@2@@__crt_stdio_output@@AEAA_NQEAH@Z 0000000180064bc0 f i libucrtd:output.obj
 0001:00063ca0       ?parse_int_from_format_string@?$output_processor@_WV?$string_output_adapter@_W@__crt_stdio_output@@V?$format_validation_base@_WV?$string_output_adapter@_W@__crt_stdio_output@@@2@@__crt_stdio_output@@AEAA_NQEAH@Z 0000000180064ca0 f i libucrtd:output.obj
 0001:00063d80       ?parse_int_from_format_string@?$output_processor@_WV?$string_output_adapter@_W@__crt_stdio_output@@V?$positional_parameter_base@_WV?$string_output_adapter@_W@__crt_stdio_output@@@2@@__crt_stdio_output@@AEAA_NQEAH@Z 0000000180064d80 f i libucrtd:output.obj
 0001:00063e60       ?parse_int_from_format_string@?$output_processor@_WV?$string_output_adapter@_W@__crt_stdio_output@@V?$standard_base@_WV?$string_output_adapter@_W@__crt_stdio_output@@@2@@__crt_stdio_output@@AEAA_NQEAH@Z 0000000180064e60 f i libucrtd:output.obj
 0001:00063f40       ?process@?$output_processor@DV?$stream_output_adapter@D@__crt_stdio_output@@V?$format_validation_base@DV?$stream_output_adapter@D@__crt_stdio_output@@@2@@__crt_stdio_output@@QEAAHXZ 0000000180064f40 f i libucrtd:output.obj
 0001:000642a0       ?process@?$output_processor@DV?$stream_output_adapter@D@__crt_stdio_output@@V?$positional_parameter_base@DV?$stream_output_adapter@D@__crt_stdio_output@@@2@@__crt_stdio_output@@QEAAHXZ 00000001800652a0 f i libucrtd:output.obj
 0001:00064600       ?process@?$output_processor@DV?$stream_output_adapter@D@__crt_stdio_output@@V?$standard_base@DV?$stream_output_adapter@D@__crt_stdio_output@@@2@@__crt_stdio_output@@QEAAHXZ 0000000180065600 f i libucrtd:output.obj
 0001:00064960       ?process@?$output_processor@DV?$string_output_adapter@D@__crt_stdio_output@@V?$format_validation_base@DV?$string_output_adapter@D@__crt_stdio_output@@@2@@__crt_stdio_output@@QEAAHXZ 0000000180065960 f i libucrtd:output.obj
 0001:00064cc0       ?process@?$output_processor@DV?$string_output_adapter@D@__crt_stdio_output@@V?$positional_parameter_base@DV?$string_output_adapter@D@__crt_stdio_output@@@2@@__crt_stdio_output@@QEAAHXZ 0000000180065cc0 f i libucrtd:output.obj
 0001:00065020       ?process@?$output_processor@DV?$string_output_adapter@D@__crt_stdio_output@@V?$standard_base@DV?$string_output_adapter@D@__crt_stdio_output@@@2@@__crt_stdio_output@@QEAAHXZ 0000000180066020 f i libucrtd:output.obj
 0001:00065380       ?process@?$output_processor@_WV?$stream_output_adapter@_W@__crt_stdio_output@@V?$format_validation_base@_WV?$stream_output_adapter@_W@__crt_stdio_output@@@2@@__crt_stdio_output@@QEAAHXZ 0000000180066380 f i libucrtd:output.obj
 0001:000656e0       ?process@?$output_processor@_WV?$stream_output_adapter@_W@__crt_stdio_output@@V?$positional_parameter_base@_WV?$stream_output_adapter@_W@__crt_stdio_output@@@2@@__crt_stdio_output@@QEAAHXZ 00000001800666e0 f i libucrtd:output.obj
 0001:00065a40       ?process@?$output_processor@_WV?$stream_output_adapter@_W@__crt_stdio_output@@V?$standard_base@_WV?$stream_output_adapter@_W@__crt_stdio_output@@@2@@__crt_stdio_output@@QEAAHXZ 0000000180066a40 f i libucrtd:output.obj
 0001:00065da0       ?process@?$output_processor@_WV?$string_output_adapter@_W@__crt_stdio_output@@V?$format_validation_base@_WV?$string_output_adapter@_W@__crt_stdio_output@@@2@@__crt_stdio_output@@QEAAHXZ 0000000180066da0 f i libucrtd:output.obj
 0001:00066100       ?process@?$output_processor@_WV?$string_output_adapter@_W@__crt_stdio_output@@V?$positional_parameter_base@_WV?$string_output_adapter@_W@__crt_stdio_output@@@2@@__crt_stdio_output@@QEAAHXZ 0000000180067100 f i libucrtd:output.obj
 0001:00066460       ?process@?$output_processor@_WV?$string_output_adapter@_W@__crt_stdio_output@@V?$standard_base@_WV?$string_output_adapter@_W@__crt_stdio_output@@@2@@__crt_stdio_output@@QEAAHXZ 0000000180067460 f i libucrtd:output.obj
 0001:000667c0       ?public_stream@__crt_stdio_stream@@QEBAPEAU_iobuf@@XZ 00000001800677c0 f i libucrtd:output.obj
 0001:000667d0       ?set_flag@?$output_processor@DV?$stream_output_adapter@D@__crt_stdio_output@@V?$format_validation_base@DV?$stream_output_adapter@D@__crt_stdio_output@@@2@@__crt_stdio_output@@AEAAXI@Z 00000001800677d0 f i libucrtd:output.obj
 0001:000667f0       ?set_flag@?$output_processor@DV?$stream_output_adapter@D@__crt_stdio_output@@V?$positional_parameter_base@DV?$stream_output_adapter@D@__crt_stdio_output@@@2@@__crt_stdio_output@@AEAAXI@Z 00000001800677f0 f i libucrtd:output.obj
 0001:00066810       ?set_flag@?$output_processor@DV?$stream_output_adapter@D@__crt_stdio_output@@V?$standard_base@DV?$stream_output_adapter@D@__crt_stdio_output@@@2@@__crt_stdio_output@@AEAAXI@Z 0000000180067810 f i libucrtd:output.obj
 0001:00066830       ?set_flag@?$output_processor@DV?$string_output_adapter@D@__crt_stdio_output@@V?$format_validation_base@DV?$string_output_adapter@D@__crt_stdio_output@@@2@@__crt_stdio_output@@AEAAXI@Z 0000000180067830 f i libucrtd:output.obj
 0001:00066850       ?set_flag@?$output_processor@DV?$string_output_adapter@D@__crt_stdio_output@@V?$positional_parameter_base@DV?$string_output_adapter@D@__crt_stdio_output@@@2@@__crt_stdio_output@@AEAAXI@Z 0000000180067850 f i libucrtd:output.obj
 0001:00066870       ?set_flag@?$output_processor@DV?$string_output_adapter@D@__crt_stdio_output@@V?$standard_base@DV?$string_output_adapter@D@__crt_stdio_output@@@2@@__crt_stdio_output@@AEAAXI@Z 0000000180067870 f i libucrtd:output.obj
 0001:00066890       ?set_flag@?$output_processor@_WV?$stream_output_adapter@_W@__crt_stdio_output@@V?$format_validation_base@_WV?$stream_output_adapter@_W@__crt_stdio_output@@@2@@__crt_stdio_output@@AEAAXI@Z 0000000180067890 f i libucrtd:output.obj
 0001:000668b0       ?set_flag@?$output_processor@_WV?$stream_output_adapter@_W@__crt_stdio_output@@V?$positional_parameter_base@_WV?$stream_output_adapter@_W@__crt_stdio_output@@@2@@__crt_stdio_output@@AEAAXI@Z 00000001800678b0 f i libucrtd:output.obj
 0001:000668d0       ?set_flag@?$output_processor@_WV?$stream_output_adapter@_W@__crt_stdio_output@@V?$standard_base@_WV?$stream_output_adapter@_W@__crt_stdio_output@@@2@@__crt_stdio_output@@AEAAXI@Z 00000001800678d0 f i libucrtd:output.obj
 0001:000668f0       ?set_flag@?$output_processor@_WV?$string_output_adapter@_W@__crt_stdio_output@@V?$format_validation_base@_WV?$string_output_adapter@_W@__crt_stdio_output@@@2@@__crt_stdio_output@@AEAAXI@Z 00000001800678f0 f i libucrtd:output.obj
 0001:00066910       ?set_flag@?$output_processor@_WV?$string_output_adapter@_W@__crt_stdio_output@@V?$positional_parameter_base@_WV?$string_output_adapter@_W@__crt_stdio_output@@@2@@__crt_stdio_output@@AEAAXI@Z 0000000180067910 f i libucrtd:output.obj
 0001:00066930       ?set_flag@?$output_processor@_WV?$string_output_adapter@_W@__crt_stdio_output@@V?$standard_base@_WV?$string_output_adapter@_W@__crt_stdio_output@@@2@@__crt_stdio_output@@AEAAXI@Z 0000000180067930 f i libucrtd:output.obj
 0001:00066950       ?should_format@?$positional_parameter_base@DV?$stream_output_adapter@D@__crt_stdio_output@@@__crt_stdio_output@@IEAA_NXZ 0000000180067950 f i libucrtd:output.obj
 0001:00066990       ?should_format@?$positional_parameter_base@DV?$string_output_adapter@D@__crt_stdio_output@@@__crt_stdio_output@@IEAA_NXZ 0000000180067990 f i libucrtd:output.obj
 0001:000669d0       ?should_format@?$positional_parameter_base@_WV?$stream_output_adapter@_W@__crt_stdio_output@@@__crt_stdio_output@@IEAA_NXZ 00000001800679d0 f i libucrtd:output.obj
 0001:00066a10       ?should_format@?$positional_parameter_base@_WV?$string_output_adapter@_W@__crt_stdio_output@@@__crt_stdio_output@@IEAA_NXZ 0000000180067a10 f i libucrtd:output.obj
 0001:00066a50       ?should_format@?$standard_base@DV?$stream_output_adapter@D@__crt_stdio_output@@@__crt_stdio_output@@IEAA_NXZ 0000000180067a50 f i libucrtd:output.obj
 0001:00066a60       ?should_format@?$standard_base@DV?$string_output_adapter@D@__crt_stdio_output@@@__crt_stdio_output@@IEAA_NXZ 0000000180067a60 f i libucrtd:output.obj
 0001:00066a70       ?should_format@?$standard_base@_WV?$stream_output_adapter@_W@__crt_stdio_output@@@__crt_stdio_output@@IEAA_NXZ 0000000180067a70 f i libucrtd:output.obj
 0001:00066a80       ?should_format@?$standard_base@_WV?$string_output_adapter@_W@__crt_stdio_output@@@__crt_stdio_output@@IEAA_NXZ 0000000180067a80 f i libucrtd:output.obj
 0001:00066a90       ?should_skip_normal_state_processing@?$positional_parameter_base@DV?$stream_output_adapter@D@__crt_stdio_output@@@__crt_stdio_output@@IEAA_NXZ 0000000180067a90 f i libucrtd:output.obj
 0001:00066ae0       ?should_skip_normal_state_processing@?$positional_parameter_base@DV?$string_output_adapter@D@__crt_stdio_output@@@__crt_stdio_output@@IEAA_NXZ 0000000180067ae0 f i libucrtd:output.obj
 0001:00066b30       ?should_skip_normal_state_processing@?$positional_parameter_base@_WV?$stream_output_adapter@_W@__crt_stdio_output@@@__crt_stdio_output@@IEAA_NXZ 0000000180067b30 f i libucrtd:output.obj
 0001:00066b80       ?should_skip_normal_state_processing@?$positional_parameter_base@_WV?$string_output_adapter@_W@__crt_stdio_output@@@__crt_stdio_output@@IEAA_NXZ 0000000180067b80 f i libucrtd:output.obj
 0001:00066bd0       ?should_skip_normal_state_processing@?$standard_base@DV?$stream_output_adapter@D@__crt_stdio_output@@@__crt_stdio_output@@IEAA_NXZ 0000000180067bd0 f i libucrtd:output.obj
 0001:00066be0       ?should_skip_normal_state_processing@?$standard_base@DV?$string_output_adapter@D@__crt_stdio_output@@@__crt_stdio_output@@IEAA_NXZ 0000000180067be0 f i libucrtd:output.obj
 0001:00066bf0       ?should_skip_normal_state_processing@?$standard_base@_WV?$stream_output_adapter@_W@__crt_stdio_output@@@__crt_stdio_output@@IEAA_NXZ 0000000180067bf0 f i libucrtd:output.obj
 0001:00066c00       ?should_skip_normal_state_processing@?$standard_base@_WV?$string_output_adapter@_W@__crt_stdio_output@@@__crt_stdio_output@@IEAA_NXZ 0000000180067c00 f i libucrtd:output.obj
 0001:00066c10       ?should_skip_type_state_output@?$positional_parameter_base@DV?$stream_output_adapter@D@__crt_stdio_output@@@__crt_stdio_output@@IEBA_NXZ 0000000180067c10 f i libucrtd:output.obj
 0001:00066c50       ?should_skip_type_state_output@?$positional_parameter_base@DV?$string_output_adapter@D@__crt_stdio_output@@@__crt_stdio_output@@IEBA_NXZ 0000000180067c50 f i libucrtd:output.obj
 0001:00066c90       ?should_skip_type_state_output@?$positional_parameter_base@_WV?$stream_output_adapter@_W@__crt_stdio_output@@@__crt_stdio_output@@IEBA_NXZ 0000000180067c90 f i libucrtd:output.obj
 0001:00066cd0       ?should_skip_type_state_output@?$positional_parameter_base@_WV?$string_output_adapter@_W@__crt_stdio_output@@@__crt_stdio_output@@IEBA_NXZ 0000000180067cd0 f i libucrtd:output.obj
 0001:00066d10       ?should_skip_type_state_output@?$standard_base@DV?$stream_output_adapter@D@__crt_stdio_output@@@__crt_stdio_output@@IEBA_NXZ 0000000180067d10 f i libucrtd:output.obj
 0001:00066d20       ?should_skip_type_state_output@?$standard_base@DV?$string_output_adapter@D@__crt_stdio_output@@@__crt_stdio_output@@IEBA_NXZ 0000000180067d20 f i libucrtd:output.obj
 0001:00066d30       ?should_skip_type_state_output@?$standard_base@_WV?$stream_output_adapter@_W@__crt_stdio_output@@@__crt_stdio_output@@IEBA_NXZ 0000000180067d30 f i libucrtd:output.obj
 0001:00066d40       ?should_skip_type_state_output@?$standard_base@_WV?$string_output_adapter@_W@__crt_stdio_output@@@__crt_stdio_output@@IEBA_NXZ 0000000180067d40 f i libucrtd:output.obj
 0001:00066d50       ?state_case_dot@?$output_processor@DV?$stream_output_adapter@D@__crt_stdio_output@@V?$format_validation_base@DV?$stream_output_adapter@D@__crt_stdio_output@@@2@@__crt_stdio_output@@AEAA_NXZ 0000000180067d50 f i libucrtd:output.obj
 0001:00066d70       ?state_case_dot@?$output_processor@DV?$stream_output_adapter@D@__crt_stdio_output@@V?$positional_parameter_base@DV?$stream_output_adapter@D@__crt_stdio_output@@@2@@__crt_stdio_output@@AEAA_NXZ 0000000180067d70 f i libucrtd:output.obj
 0001:00066d90       ?state_case_dot@?$output_processor@DV?$stream_output_adapter@D@__crt_stdio_output@@V?$standard_base@DV?$stream_output_adapter@D@__crt_stdio_output@@@2@@__crt_stdio_output@@AEAA_NXZ 0000000180067d90 f i libucrtd:output.obj
 0001:00066db0       ?state_case_dot@?$output_processor@DV?$string_output_adapter@D@__crt_stdio_output@@V?$format_validation_base@DV?$string_output_adapter@D@__crt_stdio_output@@@2@@__crt_stdio_output@@AEAA_NXZ 0000000180067db0 f i libucrtd:output.obj
 0001:00066dd0       ?state_case_dot@?$output_processor@DV?$string_output_adapter@D@__crt_stdio_output@@V?$positional_parameter_base@DV?$string_output_adapter@D@__crt_stdio_output@@@2@@__crt_stdio_output@@AEAA_NXZ 0000000180067dd0 f i libucrtd:output.obj
 0001:00066df0       ?state_case_dot@?$output_processor@DV?$string_output_adapter@D@__crt_stdio_output@@V?$standard_base@DV?$string_output_adapter@D@__crt_stdio_output@@@2@@__crt_stdio_output@@AEAA_NXZ 0000000180067df0 f i libucrtd:output.obj
 0001:00066e10       ?state_case_dot@?$output_processor@_WV?$stream_output_adapter@_W@__crt_stdio_output@@V?$format_validation_base@_WV?$stream_output_adapter@_W@__crt_stdio_output@@@2@@__crt_stdio_output@@AEAA_NXZ 0000000180067e10 f i libucrtd:output.obj
 0001:00066e30       ?state_case_dot@?$output_processor@_WV?$stream_output_adapter@_W@__crt_stdio_output@@V?$positional_parameter_base@_WV?$stream_output_adapter@_W@__crt_stdio_output@@@2@@__crt_stdio_output@@AEAA_NXZ 0000000180067e30 f i libucrtd:output.obj
 0001:00066e50       ?state_case_dot@?$output_processor@_WV?$stream_output_adapter@_W@__crt_stdio_output@@V?$standard_base@_WV?$stream_output_adapter@_W@__crt_stdio_output@@@2@@__crt_stdio_output@@AEAA_NXZ 0000000180067e50 f i libucrtd:output.obj
 0001:00066e70       ?state_case_dot@?$output_processor@_WV?$string_output_adapter@_W@__crt_stdio_output@@V?$format_validation_base@_WV?$string_output_adapter@_W@__crt_stdio_output@@@2@@__crt_stdio_output@@AEAA_NXZ 0000000180067e70 f i libucrtd:output.obj
 0001:00066e90       ?state_case_dot@?$output_processor@_WV?$string_output_adapter@_W@__crt_stdio_output@@V?$positional_parameter_base@_WV?$string_output_adapter@_W@__crt_stdio_output@@@2@@__crt_stdio_output@@AEAA_NXZ 0000000180067e90 f i libucrtd:output.obj
 0001:00066eb0       ?state_case_dot@?$output_processor@_WV?$string_output_adapter@_W@__crt_stdio_output@@V?$standard_base@_WV?$string_output_adapter@_W@__crt_stdio_output@@@2@@__crt_stdio_output@@AEAA_NXZ 0000000180067eb0 f i libucrtd:output.obj
 0001:00066ed0       ?state_case_flag@?$output_processor@DV?$stream_output_adapter@D@__crt_stdio_output@@V?$format_validation_base@DV?$stream_output_adapter@D@__crt_stdio_output@@@2@@__crt_stdio_output@@AEAA_NXZ 0000000180067ed0 f i libucrtd:output.obj
 0001:00066f70       ?state_case_flag@?$output_processor@DV?$stream_output_adapter@D@__crt_stdio_output@@V?$positional_parameter_base@DV?$stream_output_adapter@D@__crt_stdio_output@@@2@@__crt_stdio_output@@AEAA_NXZ 0000000180067f70 f i libucrtd:output.obj
 0001:00067010       ?state_case_flag@?$output_processor@DV?$stream_output_adapter@D@__crt_stdio_output@@V?$standard_base@DV?$stream_output_adapter@D@__crt_stdio_output@@@2@@__crt_stdio_output@@AEAA_NXZ 0000000180068010 f i libucrtd:output.obj
 0001:000670b0       ?state_case_flag@?$output_processor@DV?$string_output_adapter@D@__crt_stdio_output@@V?$format_validation_base@DV?$string_output_adapter@D@__crt_stdio_output@@@2@@__crt_stdio_output@@AEAA_NXZ 00000001800680b0 f i libucrtd:output.obj
 0001:00067150       ?state_case_flag@?$output_processor@DV?$string_output_adapter@D@__crt_stdio_output@@V?$positional_parameter_base@DV?$string_output_adapter@D@__crt_stdio_output@@@2@@__crt_stdio_output@@AEAA_NXZ 0000000180068150 f i libucrtd:output.obj
 0001:000671f0       ?state_case_flag@?$output_processor@DV?$string_output_adapter@D@__crt_stdio_output@@V?$standard_base@DV?$string_output_adapter@D@__crt_stdio_output@@@2@@__crt_stdio_output@@AEAA_NXZ 00000001800681f0 f i libucrtd:output.obj
 0001:00067290       ?state_case_flag@?$output_processor@_WV?$stream_output_adapter@_W@__crt_stdio_output@@V?$format_validation_base@_WV?$stream_output_adapter@_W@__crt_stdio_output@@@2@@__crt_stdio_output@@AEAA_NXZ 0000000180068290 f i libucrtd:output.obj
 0001:00067330       ?state_case_flag@?$output_processor@_WV?$stream_output_adapter@_W@__crt_stdio_output@@V?$positional_parameter_base@_WV?$stream_output_adapter@_W@__crt_stdio_output@@@2@@__crt_stdio_output@@AEAA_NXZ 0000000180068330 f i libucrtd:output.obj
 0001:000673d0       ?state_case_flag@?$output_processor@_WV?$stream_output_adapter@_W@__crt_stdio_output@@V?$standard_base@_WV?$stream_output_adapter@_W@__crt_stdio_output@@@2@@__crt_stdio_output@@AEAA_NXZ 00000001800683d0 f i libucrtd:output.obj
 0001:00067470       ?state_case_flag@?$output_processor@_WV?$string_output_adapter@_W@__crt_stdio_output@@V?$format_validation_base@_WV?$string_output_adapter@_W@__crt_stdio_output@@@2@@__crt_stdio_output@@AEAA_NXZ 0000000180068470 f i libucrtd:output.obj
 0001:00067510       ?state_case_flag@?$output_processor@_WV?$string_output_adapter@_W@__crt_stdio_output@@V?$positional_parameter_base@_WV?$string_output_adapter@_W@__crt_stdio_output@@@2@@__crt_stdio_output@@AEAA_NXZ 0000000180068510 f i libucrtd:output.obj
 0001:000675b0       ?state_case_flag@?$output_processor@_WV?$string_output_adapter@_W@__crt_stdio_output@@V?$standard_base@_WV?$string_output_adapter@_W@__crt_stdio_output@@@2@@__crt_stdio_output@@AEAA_NXZ 00000001800685b0 f i libucrtd:output.obj
 0001:00067650       ?state_case_normal@?$output_processor@DV?$stream_output_adapter@D@__crt_stdio_output@@V?$format_validation_base@DV?$stream_output_adapter@D@__crt_stdio_output@@@2@@__crt_stdio_output@@AEAA_NXZ 0000000180068650 f i libucrtd:output.obj
 0001:00067730       ?state_case_normal@?$output_processor@DV?$stream_output_adapter@D@__crt_stdio_output@@V?$positional_parameter_base@DV?$stream_output_adapter@D@__crt_stdio_output@@@2@@__crt_stdio_output@@AEAA_NXZ 0000000180068730 f i libucrtd:output.obj
 0001:00067810       ?state_case_normal@?$output_processor@DV?$stream_output_adapter@D@__crt_stdio_output@@V?$standard_base@DV?$stream_output_adapter@D@__crt_stdio_output@@@2@@__crt_stdio_output@@AEAA_NXZ 0000000180068810 f i libucrtd:output.obj
 0001:000678f0       ?state_case_normal@?$output_processor@DV?$string_output_adapter@D@__crt_stdio_output@@V?$format_validation_base@DV?$string_output_adapter@D@__crt_stdio_output@@@2@@__crt_stdio_output@@AEAA_NXZ 00000001800688f0 f i libucrtd:output.obj
 0001:000679d0       ?state_case_normal@?$output_processor@DV?$string_output_adapter@D@__crt_stdio_output@@V?$positional_parameter_base@DV?$string_output_adapter@D@__crt_stdio_output@@@2@@__crt_stdio_output@@AEAA_NXZ 00000001800689d0 f i libucrtd:output.obj
 0001:00067ab0       ?state_case_normal@?$output_processor@DV?$string_output_adapter@D@__crt_stdio_output@@V?$standard_base@DV?$string_output_adapter@D@__crt_stdio_output@@@2@@__crt_stdio_output@@AEAA_NXZ 0000000180068ab0 f i libucrtd:output.obj
 0001:00067b90       ?state_case_normal@?$output_processor@_WV?$stream_output_adapter@_W@__crt_stdio_output@@V?$format_validation_base@_WV?$stream_output_adapter@_W@__crt_stdio_output@@@2@@__crt_stdio_output@@AEAA_NXZ 0000000180068b90 f i libucrtd:output.obj
 0001:00067c70       ?state_case_normal@?$output_processor@_WV?$stream_output_adapter@_W@__crt_stdio_output@@V?$positional_parameter_base@_WV?$stream_output_adapter@_W@__crt_stdio_output@@@2@@__crt_stdio_output@@AEAA_NXZ 0000000180068c70 f i libucrtd:output.obj
 0001:00067d50       ?state_case_normal@?$output_processor@_WV?$stream_output_adapter@_W@__crt_stdio_output@@V?$standard_base@_WV?$stream_output_adapter@_W@__crt_stdio_output@@@2@@__crt_stdio_output@@AEAA_NXZ 0000000180068d50 f i libucrtd:output.obj
 0001:00067e30       ?state_case_normal@?$output_processor@_WV?$string_output_adapter@_W@__crt_stdio_output@@V?$format_validation_base@_WV?$string_output_adapter@_W@__crt_stdio_output@@@2@@__crt_stdio_output@@AEAA_NXZ 0000000180068e30 f i libucrtd:output.obj
 0001:00067f10       ?state_case_normal@?$output_processor@_WV?$string_output_adapter@_W@__crt_stdio_output@@V?$positional_parameter_base@_WV?$string_output_adapter@_W@__crt_stdio_output@@@2@@__crt_stdio_output@@AEAA_NXZ 0000000180068f10 f i libucrtd:output.obj
 0001:00067ff0       ?state_case_normal@?$output_processor@_WV?$string_output_adapter@_W@__crt_stdio_output@@V?$standard_base@_WV?$string_output_adapter@_W@__crt_stdio_output@@@2@@__crt_stdio_output@@AEAA_NXZ 0000000180068ff0 f i libucrtd:output.obj
 0001:000680d0       ?state_case_normal_common@?$output_processor@DV?$stream_output_adapter@D@__crt_stdio_output@@V?$format_validation_base@DV?$stream_output_adapter@D@__crt_stdio_output@@@2@@__crt_stdio_output@@AEAA_NXZ 00000001800690d0 f i libucrtd:output.obj
 0001:00068120       ?state_case_normal_common@?$output_processor@DV?$stream_output_adapter@D@__crt_stdio_output@@V?$positional_parameter_base@DV?$stream_output_adapter@D@__crt_stdio_output@@@2@@__crt_stdio_output@@AEAA_NXZ 0000000180069120 f i libucrtd:output.obj
 0001:00068170       ?state_case_normal_common@?$output_processor@DV?$stream_output_adapter@D@__crt_stdio_output@@V?$standard_base@DV?$stream_output_adapter@D@__crt_stdio_output@@@2@@__crt_stdio_output@@AEAA_NXZ 0000000180069170 f i libucrtd:output.obj
 0001:000681c0       ?state_case_normal_common@?$output_processor@DV?$string_output_adapter@D@__crt_stdio_output@@V?$format_validation_base@DV?$string_output_adapter@D@__crt_stdio_output@@@2@@__crt_stdio_output@@AEAA_NXZ 00000001800691c0 f i libucrtd:output.obj
 0001:00068210       ?state_case_normal_common@?$output_processor@DV?$string_output_adapter@D@__crt_stdio_output@@V?$positional_parameter_base@DV?$string_output_adapter@D@__crt_stdio_output@@@2@@__crt_stdio_output@@AEAA_NXZ 0000000180069210 f i libucrtd:output.obj
 0001:00068260       ?state_case_normal_common@?$output_processor@DV?$string_output_adapter@D@__crt_stdio_output@@V?$standard_base@DV?$string_output_adapter@D@__crt_stdio_output@@@2@@__crt_stdio_output@@AEAA_NXZ 0000000180069260 f i libucrtd:output.obj
 0001:000682b0       ?state_case_normal_common@?$output_processor@_WV?$stream_output_adapter@_W@__crt_stdio_output@@V?$format_validation_base@_WV?$stream_output_adapter@_W@__crt_stdio_output@@@2@@__crt_stdio_output@@AEAA_NXZ 00000001800692b0 f i libucrtd:output.obj
 0001:00068300       ?state_case_normal_common@?$output_processor@_WV?$stream_output_adapter@_W@__crt_stdio_output@@V?$positional_parameter_base@_WV?$stream_output_adapter@_W@__crt_stdio_output@@@2@@__crt_stdio_output@@AEAA_NXZ 0000000180069300 f i libucrtd:output.obj
 0001:00068350       ?state_case_normal_common@?$output_processor@_WV?$stream_output_adapter@_W@__crt_stdio_output@@V?$standard_base@_WV?$stream_output_adapter@_W@__crt_stdio_output@@@2@@__crt_stdio_output@@AEAA_NXZ 0000000180069350 f i libucrtd:output.obj
 0001:000683a0       ?state_case_normal_common@?$output_processor@_WV?$string_output_adapter@_W@__crt_stdio_output@@V?$format_validation_base@_WV?$string_output_adapter@_W@__crt_stdio_output@@@2@@__crt_stdio_output@@AEAA_NXZ 00000001800693a0 f i libucrtd:output.obj
 0001:000683f0       ?state_case_normal_common@?$output_processor@_WV?$string_output_adapter@_W@__crt_stdio_output@@V?$positional_parameter_base@_WV?$string_output_adapter@_W@__crt_stdio_output@@@2@@__crt_stdio_output@@AEAA_NXZ 00000001800693f0 f i libucrtd:output.obj
 0001:00068440       ?state_case_normal_common@?$output_processor@_WV?$string_output_adapter@_W@__crt_stdio_output@@V?$standard_base@_WV?$string_output_adapter@_W@__crt_stdio_output@@@2@@__crt_stdio_output@@AEAA_NXZ 0000000180069440 f i libucrtd:output.obj
 0001:00068490       ?state_case_normal_tchar@?$output_processor@DV?$stream_output_adapter@D@__crt_stdio_output@@V?$format_validation_base@DV?$stream_output_adapter@D@__crt_stdio_output@@@2@@__crt_stdio_output@@AEAA_ND@Z 0000000180069490 f i libucrtd:output.obj
 0001:000685d0       ?state_case_normal_tchar@?$output_processor@DV?$stream_output_adapter@D@__crt_stdio_output@@V?$positional_parameter_base@DV?$stream_output_adapter@D@__crt_stdio_output@@@2@@__crt_stdio_output@@AEAA_ND@Z 00000001800695d0 f i libucrtd:output.obj
 0001:00068710       ?state_case_normal_tchar@?$output_processor@DV?$stream_output_adapter@D@__crt_stdio_output@@V?$standard_base@DV?$stream_output_adapter@D@__crt_stdio_output@@@2@@__crt_stdio_output@@AEAA_ND@Z 0000000180069710 f i libucrtd:output.obj
 0001:00068850       ?state_case_normal_tchar@?$output_processor@DV?$string_output_adapter@D@__crt_stdio_output@@V?$format_validation_base@DV?$string_output_adapter@D@__crt_stdio_output@@@2@@__crt_stdio_output@@AEAA_ND@Z 0000000180069850 f i libucrtd:output.obj
 0001:00068990       ?state_case_normal_tchar@?$output_processor@DV?$string_output_adapter@D@__crt_stdio_output@@V?$positional_parameter_base@DV?$string_output_adapter@D@__crt_stdio_output@@@2@@__crt_stdio_output@@AEAA_ND@Z 0000000180069990 f i libucrtd:output.obj
 0001:00068ad0       ?state_case_normal_tchar@?$output_processor@DV?$string_output_adapter@D@__crt_stdio_output@@V?$standard_base@DV?$string_output_adapter@D@__crt_stdio_output@@@2@@__crt_stdio_output@@AEAA_ND@Z 0000000180069ad0 f i libucrtd:output.obj
 0001:00068c10       ?state_case_normal_tchar@?$output_processor@_WV?$stream_output_adapter@_W@__crt_stdio_output@@V?$format_validation_base@_WV?$stream_output_adapter@_W@__crt_stdio_output@@@2@@__crt_stdio_output@@AEAA_N_W@Z 0000000180069c10 f i libucrtd:output.obj
 0001:00068c30       ?state_case_normal_tchar@?$output_processor@_WV?$stream_output_adapter@_W@__crt_stdio_output@@V?$positional_parameter_base@_WV?$stream_output_adapter@_W@__crt_stdio_output@@@2@@__crt_stdio_output@@AEAA_N_W@Z 0000000180069c30 f i libucrtd:output.obj
 0001:00068c50       ?state_case_normal_tchar@?$output_processor@_WV?$stream_output_adapter@_W@__crt_stdio_output@@V?$standard_base@_WV?$stream_output_adapter@_W@__crt_stdio_output@@@2@@__crt_stdio_output@@AEAA_N_W@Z 0000000180069c50 f i libucrtd:output.obj
 0001:00068c70       ?state_case_normal_tchar@?$output_processor@_WV?$string_output_adapter@_W@__crt_stdio_output@@V?$format_validation_base@_WV?$string_output_adapter@_W@__crt_stdio_output@@@2@@__crt_stdio_output@@AEAA_N_W@Z 0000000180069c70 f i libucrtd:output.obj
 0001:00068c90       ?state_case_normal_tchar@?$output_processor@_WV?$string_output_adapter@_W@__crt_stdio_output@@V?$positional_parameter_base@_WV?$string_output_adapter@_W@__crt_stdio_output@@@2@@__crt_stdio_output@@AEAA_N_W@Z 0000000180069c90 f i libucrtd:output.obj
 0001:00068cb0       ?state_case_normal_tchar@?$output_processor@_WV?$string_output_adapter@_W@__crt_stdio_output@@V?$standard_base@_WV?$string_output_adapter@_W@__crt_stdio_output@@@2@@__crt_stdio_output@@AEAA_N_W@Z 0000000180069cb0 f i libucrtd:output.obj
 0001:00068cd0       ?state_case_percent@?$output_processor@DV?$stream_output_adapter@D@__crt_stdio_output@@V?$format_validation_base@DV?$stream_output_adapter@D@__crt_stdio_output@@@2@@__crt_stdio_output@@AEAA_NXZ 0000000180069cd0 f i libucrtd:output.obj
 0001:00068d20       ?state_case_percent@?$output_processor@DV?$stream_output_adapter@D@__crt_stdio_output@@V?$positional_parameter_base@DV?$stream_output_adapter@D@__crt_stdio_output@@@2@@__crt_stdio_output@@AEAA_NXZ 0000000180069d20 f i libucrtd:output.obj
 0001:00068d70       ?state_case_percent@?$output_processor@DV?$stream_output_adapter@D@__crt_stdio_output@@V?$standard_base@DV?$stream_output_adapter@D@__crt_stdio_output@@@2@@__crt_stdio_output@@AEAA_NXZ 0000000180069d70 f i libucrtd:output.obj
 0001:00068dc0       ?state_case_percent@?$output_processor@DV?$string_output_adapter@D@__crt_stdio_output@@V?$format_validation_base@DV?$string_output_adapter@D@__crt_stdio_output@@@2@@__crt_stdio_output@@AEAA_NXZ 0000000180069dc0 f i libucrtd:output.obj
 0001:00068e10       ?state_case_percent@?$output_processor@DV?$string_output_adapter@D@__crt_stdio_output@@V?$positional_parameter_base@DV?$string_output_adapter@D@__crt_stdio_output@@@2@@__crt_stdio_output@@AEAA_NXZ 0000000180069e10 f i libucrtd:output.obj
 0001:00068e60       ?state_case_percent@?$output_processor@DV?$string_output_adapter@D@__crt_stdio_output@@V?$standard_base@DV?$string_output_adapter@D@__crt_stdio_output@@@2@@__crt_stdio_output@@AEAA_NXZ 0000000180069e60 f i libucrtd:output.obj
 0001:00068eb0       ?state_case_percent@?$output_processor@_WV?$stream_output_adapter@_W@__crt_stdio_output@@V?$format_validation_base@_WV?$stream_output_adapter@_W@__crt_stdio_output@@@2@@__crt_stdio_output@@AEAA_NXZ 0000000180069eb0 f i libucrtd:output.obj
 0001:00068f00       ?state_case_percent@?$output_processor@_WV?$stream_output_adapter@_W@__crt_stdio_output@@V?$positional_parameter_base@_WV?$stream_output_adapter@_W@__crt_stdio_output@@@2@@__crt_stdio_output@@AEAA_NXZ 0000000180069f00 f i libucrtd:output.obj
 0001:00068f50       ?state_case_percent@?$output_processor@_WV?$stream_output_adapter@_W@__crt_stdio_output@@V?$standard_base@_WV?$stream_output_adapter@_W@__crt_stdio_output@@@2@@__crt_stdio_output@@AEAA_NXZ 0000000180069f50 f i libucrtd:output.obj
 0001:00068fa0       ?state_case_percent@?$output_processor@_WV?$string_output_adapter@_W@__crt_stdio_output@@V?$format_validation_base@_WV?$string_output_adapter@_W@__crt_stdio_output@@@2@@__crt_stdio_output@@AEAA_NXZ 0000000180069fa0 f i libucrtd:output.obj
 0001:00068ff0       ?state_case_percent@?$output_processor@_WV?$string_output_adapter@_W@__crt_stdio_output@@V?$positional_parameter_base@_WV?$string_output_adapter@_W@__crt_stdio_output@@@2@@__crt_stdio_output@@AEAA_NXZ 0000000180069ff0 f i libucrtd:output.obj
 0001:00069040       ?state_case_percent@?$output_processor@_WV?$string_output_adapter@_W@__crt_stdio_output@@V?$standard_base@_WV?$string_output_adapter@_W@__crt_stdio_output@@@2@@__crt_stdio_output@@AEAA_NXZ 000000018006a040 f i libucrtd:output.obj
 0001:00069090       ?state_case_precision@?$output_processor@DV?$stream_output_adapter@D@__crt_stdio_output@@V?$format_validation_base@DV?$stream_output_adapter@D@__crt_stdio_output@@@2@@__crt_stdio_output@@AEAA_NXZ 000000018006a090 f i libucrtd:output.obj
 0001:00069110       ?state_case_precision@?$output_processor@DV?$stream_output_adapter@D@__crt_stdio_output@@V?$positional_parameter_base@DV?$stream_output_adapter@D@__crt_stdio_output@@@2@@__crt_stdio_output@@AEAA_NXZ 000000018006a110 f i libucrtd:output.obj
 0001:00069190       ?state_case_precision@?$output_processor@DV?$stream_output_adapter@D@__crt_stdio_output@@V?$standard_base@DV?$stream_output_adapter@D@__crt_stdio_output@@@2@@__crt_stdio_output@@AEAA_NXZ 000000018006a190 f i libucrtd:output.obj
 0001:00069210       ?state_case_precision@?$output_processor@DV?$string_output_adapter@D@__crt_stdio_output@@V?$format_validation_base@DV?$string_output_adapter@D@__crt_stdio_output@@@2@@__crt_stdio_output@@AEAA_NXZ 000000018006a210 f i libucrtd:output.obj
 0001:00069290       ?state_case_precision@?$output_processor@DV?$string_output_adapter@D@__crt_stdio_output@@V?$positional_parameter_base@DV?$string_output_adapter@D@__crt_stdio_output@@@2@@__crt_stdio_output@@AEAA_NXZ 000000018006a290 f i libucrtd:output.obj
 0001:00069310       ?state_case_precision@?$output_processor@DV?$string_output_adapter@D@__crt_stdio_output@@V?$standard_base@DV?$string_output_adapter@D@__crt_stdio_output@@@2@@__crt_stdio_output@@AEAA_NXZ 000000018006a310 f i libucrtd:output.obj
 0001:00069390       ?state_case_precision@?$output_processor@_WV?$stream_output_adapter@_W@__crt_stdio_output@@V?$format_validation_base@_WV?$stream_output_adapter@_W@__crt_stdio_output@@@2@@__crt_stdio_output@@AEAA_NXZ 000000018006a390 f i libucrtd:output.obj
 0001:00069410       ?state_case_precision@?$output_processor@_WV?$stream_output_adapter@_W@__crt_stdio_output@@V?$positional_parameter_base@_WV?$stream_output_adapter@_W@__crt_stdio_output@@@2@@__crt_stdio_output@@AEAA_NXZ 000000018006a410 f i libucrtd:output.obj
 0001:00069490       ?state_case_precision@?$output_processor@_WV?$stream_output_adapter@_W@__crt_stdio_output@@V?$standard_base@_WV?$stream_output_adapter@_W@__crt_stdio_output@@@2@@__crt_stdio_output@@AEAA_NXZ 000000018006a490 f i libucrtd:output.obj
 0001:00069510       ?state_case_precision@?$output_processor@_WV?$string_output_adapter@_W@__crt_stdio_output@@V?$format_validation_base@_WV?$string_output_adapter@_W@__crt_stdio_output@@@2@@__crt_stdio_output@@AEAA_NXZ 000000018006a510 f i libucrtd:output.obj
 0001:00069590       ?state_case_precision@?$output_processor@_WV?$string_output_adapter@_W@__crt_stdio_output@@V?$positional_parameter_base@_WV?$string_output_adapter@_W@__crt_stdio_output@@@2@@__crt_stdio_output@@AEAA_NXZ 000000018006a590 f i libucrtd:output.obj
 0001:00069610       ?state_case_precision@?$output_processor@_WV?$string_output_adapter@_W@__crt_stdio_output@@V?$standard_base@_WV?$string_output_adapter@_W@__crt_stdio_output@@@2@@__crt_stdio_output@@AEAA_NXZ 000000018006a610 f i libucrtd:output.obj
 0001:00069690       ?state_case_size@?$output_processor@DV?$stream_output_adapter@D@__crt_stdio_output@@V?$format_validation_base@DV?$stream_output_adapter@D@__crt_stdio_output@@@2@@__crt_stdio_output@@AEAA_NXZ 000000018006a690 f i libucrtd:output.obj
 0001:00069b10       ?state_case_size@?$output_processor@DV?$stream_output_adapter@D@__crt_stdio_output@@V?$positional_parameter_base@DV?$stream_output_adapter@D@__crt_stdio_output@@@2@@__crt_stdio_output@@AEAA_NXZ 000000018006ab10 f i libucrtd:output.obj
 0001:00069f90       ?state_case_size@?$output_processor@DV?$stream_output_adapter@D@__crt_stdio_output@@V?$standard_base@DV?$stream_output_adapter@D@__crt_stdio_output@@@2@@__crt_stdio_output@@AEAA_NXZ 000000018006af90 f i libucrtd:output.obj
 0001:0006a410       ?state_case_size@?$output_processor@DV?$string_output_adapter@D@__crt_stdio_output@@V?$format_validation_base@DV?$string_output_adapter@D@__crt_stdio_output@@@2@@__crt_stdio_output@@AEAA_NXZ 000000018006b410 f i libucrtd:output.obj
 0001:0006a890       ?state_case_size@?$output_processor@DV?$string_output_adapter@D@__crt_stdio_output@@V?$positional_parameter_base@DV?$string_output_adapter@D@__crt_stdio_output@@@2@@__crt_stdio_output@@AEAA_NXZ 000000018006b890 f i libucrtd:output.obj
 0001:0006ad10       ?state_case_size@?$output_processor@DV?$string_output_adapter@D@__crt_stdio_output@@V?$standard_base@DV?$string_output_adapter@D@__crt_stdio_output@@@2@@__crt_stdio_output@@AEAA_NXZ 000000018006bd10 f i libucrtd:output.obj
 0001:0006b190       ?state_case_size@?$output_processor@_WV?$stream_output_adapter@_W@__crt_stdio_output@@V?$format_validation_base@_WV?$stream_output_adapter@_W@__crt_stdio_output@@@2@@__crt_stdio_output@@AEAA_NXZ 000000018006c190 f i libucrtd:output.obj
 0001:0006b610       ?state_case_size@?$output_processor@_WV?$stream_output_adapter@_W@__crt_stdio_output@@V?$positional_parameter_base@_WV?$stream_output_adapter@_W@__crt_stdio_output@@@2@@__crt_stdio_output@@AEAA_NXZ 000000018006c610 f i libucrtd:output.obj
 0001:0006ba90       ?state_case_size@?$output_processor@_WV?$stream_output_adapter@_W@__crt_stdio_output@@V?$standard_base@_WV?$stream_output_adapter@_W@__crt_stdio_output@@@2@@__crt_stdio_output@@AEAA_NXZ 000000018006ca90 f i libucrtd:output.obj
 0001:0006bf10       ?state_case_size@?$output_processor@_WV?$string_output_adapter@_W@__crt_stdio_output@@V?$format_validation_base@_WV?$string_output_adapter@_W@__crt_stdio_output@@@2@@__crt_stdio_output@@AEAA_NXZ 000000018006cf10 f i libucrtd:output.obj
 0001:0006c390       ?state_case_size@?$output_processor@_WV?$string_output_adapter@_W@__crt_stdio_output@@V?$positional_parameter_base@_WV?$string_output_adapter@_W@__crt_stdio_output@@@2@@__crt_stdio_output@@AEAA_NXZ 000000018006d390 f i libucrtd:output.obj
 0001:0006c810       ?state_case_size@?$output_processor@_WV?$string_output_adapter@_W@__crt_stdio_output@@V?$standard_base@_WV?$string_output_adapter@_W@__crt_stdio_output@@@2@@__crt_stdio_output@@AEAA_NXZ 000000018006d810 f i libucrtd:output.obj
 0001:0006cc90       ?state_case_type@?$output_processor@DV?$stream_output_adapter@D@__crt_stdio_output@@V?$format_validation_base@DV?$stream_output_adapter@D@__crt_stdio_output@@@2@@__crt_stdio_output@@AEAA_NXZ 000000018006dc90 f i libucrtd:output.obj
 0001:0006d120       ?state_case_type@?$output_processor@DV?$stream_output_adapter@D@__crt_stdio_output@@V?$positional_parameter_base@DV?$stream_output_adapter@D@__crt_stdio_output@@@2@@__crt_stdio_output@@AEAA_NXZ 000000018006e120 f i libucrtd:output.obj
 0001:0006d5b0       ?state_case_type@?$output_processor@DV?$stream_output_adapter@D@__crt_stdio_output@@V?$standard_base@DV?$stream_output_adapter@D@__crt_stdio_output@@@2@@__crt_stdio_output@@AEAA_NXZ 000000018006e5b0 f i libucrtd:output.obj
 0001:0006da40       ?state_case_type@?$output_processor@DV?$string_output_adapter@D@__crt_stdio_output@@V?$format_validation_base@DV?$string_output_adapter@D@__crt_stdio_output@@@2@@__crt_stdio_output@@AEAA_NXZ 000000018006ea40 f i libucrtd:output.obj
 0001:0006ded0       ?state_case_type@?$output_processor@DV?$string_output_adapter@D@__crt_stdio_output@@V?$positional_parameter_base@DV?$string_output_adapter@D@__crt_stdio_output@@@2@@__crt_stdio_output@@AEAA_NXZ 000000018006eed0 f i libucrtd:output.obj
 0001:0006e360       ?state_case_type@?$output_processor@DV?$string_output_adapter@D@__crt_stdio_output@@V?$standard_base@DV?$string_output_adapter@D@__crt_stdio_output@@@2@@__crt_stdio_output@@AEAA_NXZ 000000018006f360 f i libucrtd:output.obj
 0001:0006e7f0       ?state_case_type@?$output_processor@_WV?$stream_output_adapter@_W@__crt_stdio_output@@V?$format_validation_base@_WV?$stream_output_adapter@_W@__crt_stdio_output@@@2@@__crt_stdio_output@@AEAA_NXZ 000000018006f7f0 f i libucrtd:output.obj
 0001:0006ecc0       ?state_case_type@?$output_processor@_WV?$stream_output_adapter@_W@__crt_stdio_output@@V?$positional_parameter_base@_WV?$stream_output_adapter@_W@__crt_stdio_output@@@2@@__crt_stdio_output@@AEAA_NXZ 000000018006fcc0 f i libucrtd:output.obj
 0001:0006f190       ?state_case_type@?$output_processor@_WV?$stream_output_adapter@_W@__crt_stdio_output@@V?$standard_base@_WV?$stream_output_adapter@_W@__crt_stdio_output@@@2@@__crt_stdio_output@@AEAA_NXZ 0000000180070190 f i libucrtd:output.obj
 0001:0006f660       ?state_case_type@?$output_processor@_WV?$string_output_adapter@_W@__crt_stdio_output@@V?$format_validation_base@_WV?$string_output_adapter@_W@__crt_stdio_output@@@2@@__crt_stdio_output@@AEAA_NXZ 0000000180070660 f i libucrtd:output.obj
 0001:0006fb30       ?state_case_type@?$output_processor@_WV?$string_output_adapter@_W@__crt_stdio_output@@V?$positional_parameter_base@_WV?$string_output_adapter@_W@__crt_stdio_output@@@2@@__crt_stdio_output@@AEAA_NXZ 0000000180070b30 f i libucrtd:output.obj
 0001:00070000       ?state_case_type@?$output_processor@_WV?$string_output_adapter@_W@__crt_stdio_output@@V?$standard_base@_WV?$string_output_adapter@_W@__crt_stdio_output@@@2@@__crt_stdio_output@@AEAA_NXZ 0000000180071000 f i libucrtd:output.obj
 0001:000704d0       ?state_case_width@?$output_processor@DV?$stream_output_adapter@D@__crt_stdio_output@@V?$format_validation_base@DV?$stream_output_adapter@D@__crt_stdio_output@@@2@@__crt_stdio_output@@AEAA_NXZ 00000001800714d0 f i libucrtd:output.obj
 0001:00070560       ?state_case_width@?$output_processor@DV?$stream_output_adapter@D@__crt_stdio_output@@V?$positional_parameter_base@DV?$stream_output_adapter@D@__crt_stdio_output@@@2@@__crt_stdio_output@@AEAA_NXZ 0000000180071560 f i libucrtd:output.obj
 0001:000705f0       ?state_case_width@?$output_processor@DV?$stream_output_adapter@D@__crt_stdio_output@@V?$standard_base@DV?$stream_output_adapter@D@__crt_stdio_output@@@2@@__crt_stdio_output@@AEAA_NXZ 00000001800715f0 f i libucrtd:output.obj
 0001:00070680       ?state_case_width@?$output_processor@DV?$string_output_adapter@D@__crt_stdio_output@@V?$format_validation_base@DV?$string_output_adapter@D@__crt_stdio_output@@@2@@__crt_stdio_output@@AEAA_NXZ 0000000180071680 f i libucrtd:output.obj
 0001:00070710       ?state_case_width@?$output_processor@DV?$string_output_adapter@D@__crt_stdio_output@@V?$positional_parameter_base@DV?$string_output_adapter@D@__crt_stdio_output@@@2@@__crt_stdio_output@@AEAA_NXZ 0000000180071710 f i libucrtd:output.obj
 0001:000707a0       ?state_case_width@?$output_processor@DV?$string_output_adapter@D@__crt_stdio_output@@V?$standard_base@DV?$string_output_adapter@D@__crt_stdio_output@@@2@@__crt_stdio_output@@AEAA_NXZ 00000001800717a0 f i libucrtd:output.obj
 0001:00070830       ?state_case_width@?$output_processor@_WV?$stream_output_adapter@_W@__crt_stdio_output@@V?$format_validation_base@_WV?$stream_output_adapter@_W@__crt_stdio_output@@@2@@__crt_stdio_output@@AEAA_NXZ 0000000180071830 f i libucrtd:output.obj
 0001:000708c0       ?state_case_width@?$output_processor@_WV?$stream_output_adapter@_W@__crt_stdio_output@@V?$positional_parameter_base@_WV?$stream_output_adapter@_W@__crt_stdio_output@@@2@@__crt_stdio_output@@AEAA_NXZ 00000001800718c0 f i libucrtd:output.obj
 0001:00070950       ?state_case_width@?$output_processor@_WV?$stream_output_adapter@_W@__crt_stdio_output@@V?$standard_base@_WV?$stream_output_adapter@_W@__crt_stdio_output@@@2@@__crt_stdio_output@@AEAA_NXZ 0000000180071950 f i libucrtd:output.obj
 0001:000709e0       ?state_case_width@?$output_processor@_WV?$string_output_adapter@_W@__crt_stdio_output@@V?$format_validation_base@_WV?$string_output_adapter@_W@__crt_stdio_output@@@2@@__crt_stdio_output@@AEAA_NXZ 00000001800719e0 f i libucrtd:output.obj
 0001:00070a70       ?state_case_width@?$output_processor@_WV?$string_output_adapter@_W@__crt_stdio_output@@V?$positional_parameter_base@_WV?$string_output_adapter@_W@__crt_stdio_output@@@2@@__crt_stdio_output@@AEAA_NXZ 0000000180071a70 f i libucrtd:output.obj
 0001:00070b00       ?state_case_width@?$output_processor@_WV?$string_output_adapter@_W@__crt_stdio_output@@V?$standard_base@_WV?$string_output_adapter@_W@__crt_stdio_output@@@2@@__crt_stdio_output@@AEAA_NXZ 0000000180071b00 f i libucrtd:output.obj
 0001:00070b90       ?state_count@?$format_validation_base@DV?$stream_output_adapter@D@__crt_stdio_output@@@__crt_stdio_output@@KAIXZ 0000000180071b90 f i libucrtd:output.obj
 0001:00070ba0       ?state_count@?$format_validation_base@DV?$string_output_adapter@D@__crt_stdio_output@@@__crt_stdio_output@@KAIXZ 0000000180071ba0 f i libucrtd:output.obj
 0001:00070bb0       ?state_count@?$format_validation_base@_WV?$stream_output_adapter@_W@__crt_stdio_output@@@__crt_stdio_output@@KAIXZ 0000000180071bb0 f i libucrtd:output.obj
 0001:00070bc0       ?state_count@?$format_validation_base@_WV?$string_output_adapter@_W@__crt_stdio_output@@@__crt_stdio_output@@KAIXZ 0000000180071bc0 f i libucrtd:output.obj
 0001:00070bd0       ?state_count@?$standard_base@DV?$stream_output_adapter@D@__crt_stdio_output@@@__crt_stdio_output@@KAIXZ 0000000180071bd0 f i libucrtd:output.obj
 0001:00070be0       ?state_count@?$standard_base@DV?$string_output_adapter@D@__crt_stdio_output@@@__crt_stdio_output@@KAIXZ 0000000180071be0 f i libucrtd:output.obj
 0001:00070bf0       ?state_count@?$standard_base@_WV?$stream_output_adapter@_W@__crt_stdio_output@@@__crt_stdio_output@@KAIXZ 0000000180071bf0 f i libucrtd:output.obj
 0001:00070c00       ?state_count@?$standard_base@_WV?$string_output_adapter@_W@__crt_stdio_output@@@__crt_stdio_output@@KAIXZ 0000000180071c00 f i libucrtd:output.obj
 0001:00070c10       ?state_transition_table@?$format_validation_base@DV?$stream_output_adapter@D@__crt_stdio_output@@@__crt_stdio_output@@KAPEBEXZ 0000000180071c10 f i libucrtd:output.obj
 0001:00070c20       ?state_transition_table@?$format_validation_base@DV?$string_output_adapter@D@__crt_stdio_output@@@__crt_stdio_output@@KAPEBEXZ 0000000180071c20 f i libucrtd:output.obj
 0001:00070c30       ?state_transition_table@?$format_validation_base@_WV?$stream_output_adapter@_W@__crt_stdio_output@@@__crt_stdio_output@@KAPEBEXZ 0000000180071c30 f i libucrtd:output.obj
 0001:00070c40       ?state_transition_table@?$format_validation_base@_WV?$string_output_adapter@_W@__crt_stdio_output@@@__crt_stdio_output@@KAPEBEXZ 0000000180071c40 f i libucrtd:output.obj
 0001:00070c50       ?state_transition_table@?$standard_base@DV?$stream_output_adapter@D@__crt_stdio_output@@@__crt_stdio_output@@KAPEBEXZ 0000000180071c50 f i libucrtd:output.obj
 0001:00070c60       ?state_transition_table@?$standard_base@DV?$string_output_adapter@D@__crt_stdio_output@@@__crt_stdio_output@@KAPEBEXZ 0000000180071c60 f i libucrtd:output.obj
 0001:00070c70       ?state_transition_table@?$standard_base@_WV?$stream_output_adapter@_W@__crt_stdio_output@@@__crt_stdio_output@@KAPEBEXZ 0000000180071c70 f i libucrtd:output.obj
 0001:00070c80       ?state_transition_table@?$standard_base@_WV?$string_output_adapter@_W@__crt_stdio_output@@@__crt_stdio_output@@KAPEBEXZ 0000000180071c80 f i libucrtd:output.obj
 0001:00070c90       ?to_integer_size@__crt_stdio_output@@YA_KW4length_modifier@1@@Z 0000000180071c90 f i libucrtd:output.obj
 0001:00070d40       ?type_case_X@?$output_processor@DV?$stream_output_adapter@D@__crt_stdio_output@@V?$format_validation_base@DV?$stream_output_adapter@D@__crt_stdio_output@@@2@@__crt_stdio_output@@AEAA_NXZ 0000000180071d40 f i libucrtd:output.obj
 0001:00070d60       ?type_case_X@?$output_processor@DV?$stream_output_adapter@D@__crt_stdio_output@@V?$positional_parameter_base@DV?$stream_output_adapter@D@__crt_stdio_output@@@2@@__crt_stdio_output@@AEAA_NXZ 0000000180071d60 f i libucrtd:output.obj
 0001:00070d80       ?type_case_X@?$output_processor@DV?$stream_output_adapter@D@__crt_stdio_output@@V?$standard_base@DV?$stream_output_adapter@D@__crt_stdio_output@@@2@@__crt_stdio_output@@AEAA_NXZ 0000000180071d80 f i libucrtd:output.obj
 0001:00070da0       ?type_case_X@?$output_processor@DV?$string_output_adapter@D@__crt_stdio_output@@V?$format_validation_base@DV?$string_output_adapter@D@__crt_stdio_output@@@2@@__crt_stdio_output@@AEAA_NXZ 0000000180071da0 f i libucrtd:output.obj
 0001:00070dc0       ?type_case_X@?$output_processor@DV?$string_output_adapter@D@__crt_stdio_output@@V?$positional_parameter_base@DV?$string_output_adapter@D@__crt_stdio_output@@@2@@__crt_stdio_output@@AEAA_NXZ 0000000180071dc0 f i libucrtd:output.obj
 0001:00070de0       ?type_case_X@?$output_processor@DV?$string_output_adapter@D@__crt_stdio_output@@V?$standard_base@DV?$string_output_adapter@D@__crt_stdio_output@@@2@@__crt_stdio_output@@AEAA_NXZ 0000000180071de0 f i libucrtd:output.obj
 0001:00070e00       ?type_case_X@?$output_processor@_WV?$stream_output_adapter@_W@__crt_stdio_output@@V?$format_validation_base@_WV?$stream_output_adapter@_W@__crt_stdio_output@@@2@@__crt_stdio_output@@AEAA_NXZ 0000000180071e00 f i libucrtd:output.obj
 0001:00070e20       ?type_case_X@?$output_processor@_WV?$stream_output_adapter@_W@__crt_stdio_output@@V?$positional_parameter_base@_WV?$stream_output_adapter@_W@__crt_stdio_output@@@2@@__crt_stdio_output@@AEAA_NXZ 0000000180071e20 f i libucrtd:output.obj
 0001:00070e40       ?type_case_X@?$output_processor@_WV?$stream_output_adapter@_W@__crt_stdio_output@@V?$standard_base@_WV?$stream_output_adapter@_W@__crt_stdio_output@@@2@@__crt_stdio_output@@AEAA_NXZ 0000000180071e40 f i libucrtd:output.obj
 0001:00070e60       ?type_case_X@?$output_processor@_WV?$string_output_adapter@_W@__crt_stdio_output@@V?$format_validation_base@_WV?$string_output_adapter@_W@__crt_stdio_output@@@2@@__crt_stdio_output@@AEAA_NXZ 0000000180071e60 f i libucrtd:output.obj
 0001:00070e80       ?type_case_X@?$output_processor@_WV?$string_output_adapter@_W@__crt_stdio_output@@V?$positional_parameter_base@_WV?$string_output_adapter@_W@__crt_stdio_output@@@2@@__crt_stdio_output@@AEAA_NXZ 0000000180071e80 f i libucrtd:output.obj
 0001:00070ea0       ?type_case_X@?$output_processor@_WV?$string_output_adapter@_W@__crt_stdio_output@@V?$standard_base@_WV?$string_output_adapter@_W@__crt_stdio_output@@@2@@__crt_stdio_output@@AEAA_NXZ 0000000180071ea0 f i libucrtd:output.obj
 0001:00070ec0       ?type_case_Z@?$output_processor@DV?$stream_output_adapter@D@__crt_stdio_output@@V?$format_validation_base@DV?$stream_output_adapter@D@__crt_stdio_output@@@2@@__crt_stdio_output@@AEAA_NXZ 0000000180071ec0 f i libucrtd:output.obj
 0001:00070fe0       ?type_case_Z@?$output_processor@DV?$stream_output_adapter@D@__crt_stdio_output@@V?$positional_parameter_base@DV?$stream_output_adapter@D@__crt_stdio_output@@@2@@__crt_stdio_output@@AEAA_NXZ 0000000180071fe0 f i libucrtd:output.obj
 0001:00071100       ?type_case_Z@?$output_processor@DV?$stream_output_adapter@D@__crt_stdio_output@@V?$standard_base@DV?$stream_output_adapter@D@__crt_stdio_output@@@2@@__crt_stdio_output@@AEAA_NXZ 0000000180072100 f i libucrtd:output.obj
 0001:00071220       ?type_case_Z@?$output_processor@DV?$string_output_adapter@D@__crt_stdio_output@@V?$format_validation_base@DV?$string_output_adapter@D@__crt_stdio_output@@@2@@__crt_stdio_output@@AEAA_NXZ 0000000180072220 f i libucrtd:output.obj
 0001:00071340       ?type_case_Z@?$output_processor@DV?$string_output_adapter@D@__crt_stdio_output@@V?$positional_parameter_base@DV?$string_output_adapter@D@__crt_stdio_output@@@2@@__crt_stdio_output@@AEAA_NXZ 0000000180072340 f i libucrtd:output.obj
 0001:00071460       ?type_case_Z@?$output_processor@DV?$string_output_adapter@D@__crt_stdio_output@@V?$standard_base@DV?$string_output_adapter@D@__crt_stdio_output@@@2@@__crt_stdio_output@@AEAA_NXZ 0000000180072460 f i libucrtd:output.obj
 0001:00071580       ?type_case_Z@?$output_processor@_WV?$stream_output_adapter@_W@__crt_stdio_output@@V?$format_validation_base@_WV?$stream_output_adapter@_W@__crt_stdio_output@@@2@@__crt_stdio_output@@AEAA_NXZ 0000000180072580 f i libucrtd:output.obj
 0001:000716a0       ?type_case_Z@?$output_processor@_WV?$stream_output_adapter@_W@__crt_stdio_output@@V?$positional_parameter_base@_WV?$stream_output_adapter@_W@__crt_stdio_output@@@2@@__crt_stdio_output@@AEAA_NXZ 00000001800726a0 f i libucrtd:output.obj
 0001:000717c0       ?type_case_Z@?$output_processor@_WV?$stream_output_adapter@_W@__crt_stdio_output@@V?$standard_base@_WV?$stream_output_adapter@_W@__crt_stdio_output@@@2@@__crt_stdio_output@@AEAA_NXZ 00000001800727c0 f i libucrtd:output.obj
 0001:000718e0       ?type_case_Z@?$output_processor@_WV?$string_output_adapter@_W@__crt_stdio_output@@V?$format_validation_base@_WV?$string_output_adapter@_W@__crt_stdio_output@@@2@@__crt_stdio_output@@AEAA_NXZ 00000001800728e0 f i libucrtd:output.obj
 0001:00071a00       ?type_case_Z@?$output_processor@_WV?$string_output_adapter@_W@__crt_stdio_output@@V?$positional_parameter_base@_WV?$string_output_adapter@_W@__crt_stdio_output@@@2@@__crt_stdio_output@@AEAA_NXZ 0000000180072a00 f i libucrtd:output.obj
 0001:00071b20       ?type_case_Z@?$output_processor@_WV?$string_output_adapter@_W@__crt_stdio_output@@V?$standard_base@_WV?$string_output_adapter@_W@__crt_stdio_output@@@2@@__crt_stdio_output@@AEAA_NXZ 0000000180072b20 f i libucrtd:output.obj
 0001:00071c40       ?type_case_a@?$output_processor@DV?$stream_output_adapter@D@__crt_stdio_output@@V?$format_validation_base@DV?$stream_output_adapter@D@__crt_stdio_output@@@2@@__crt_stdio_output@@AEAA_NXZ 0000000180072c40 f i libucrtd:output.obj
 0001:00071ff0       ?type_case_a@?$output_processor@DV?$stream_output_adapter@D@__crt_stdio_output@@V?$positional_parameter_base@DV?$stream_output_adapter@D@__crt_stdio_output@@@2@@__crt_stdio_output@@AEAA_NXZ 0000000180072ff0 f i libucrtd:output.obj
 0001:000723a0       ?type_case_a@?$output_processor@DV?$stream_output_adapter@D@__crt_stdio_output@@V?$standard_base@DV?$stream_output_adapter@D@__crt_stdio_output@@@2@@__crt_stdio_output@@AEAA_NXZ 00000001800733a0 f i libucrtd:output.obj
 0001:00072750       ?type_case_a@?$output_processor@DV?$string_output_adapter@D@__crt_stdio_output@@V?$format_validation_base@DV?$string_output_adapter@D@__crt_stdio_output@@@2@@__crt_stdio_output@@AEAA_NXZ 0000000180073750 f i libucrtd:output.obj
 0001:00072b00       ?type_case_a@?$output_processor@DV?$string_output_adapter@D@__crt_stdio_output@@V?$positional_parameter_base@DV?$string_output_adapter@D@__crt_stdio_output@@@2@@__crt_stdio_output@@AEAA_NXZ 0000000180073b00 f i libucrtd:output.obj
 0001:00072eb0       ?type_case_a@?$output_processor@DV?$string_output_adapter@D@__crt_stdio_output@@V?$standard_base@DV?$string_output_adapter@D@__crt_stdio_output@@@2@@__crt_stdio_output@@AEAA_NXZ 0000000180073eb0 f i libucrtd:output.obj
 0001:00073260       ?type_case_a@?$output_processor@_WV?$stream_output_adapter@_W@__crt_stdio_output@@V?$format_validation_base@_WV?$stream_output_adapter@_W@__crt_stdio_output@@@2@@__crt_stdio_output@@AEAA_NXZ 0000000180074260 f i libucrtd:output.obj
 0001:00073610       ?type_case_a@?$output_processor@_WV?$stream_output_adapter@_W@__crt_stdio_output@@V?$positional_parameter_base@_WV?$stream_output_adapter@_W@__crt_stdio_output@@@2@@__crt_stdio_output@@AEAA_NXZ 0000000180074610 f i libucrtd:output.obj
 0001:000739c0       ?type_case_a@?$output_processor@_WV?$stream_output_adapter@_W@__crt_stdio_output@@V?$standard_base@_WV?$stream_output_adapter@_W@__crt_stdio_output@@@2@@__crt_stdio_output@@AEAA_NXZ 00000001800749c0 f i libucrtd:output.obj
 0001:00073d70       ?type_case_a@?$output_processor@_WV?$string_output_adapter@_W@__crt_stdio_output@@V?$format_validation_base@_WV?$string_output_adapter@_W@__crt_stdio_output@@@2@@__crt_stdio_output@@AEAA_NXZ 0000000180074d70 f i libucrtd:output.obj
 0001:00074120       ?type_case_a@?$output_processor@_WV?$string_output_adapter@_W@__crt_stdio_output@@V?$positional_parameter_base@_WV?$string_output_adapter@_W@__crt_stdio_output@@@2@@__crt_stdio_output@@AEAA_NXZ 0000000180075120 f i libucrtd:output.obj
 0001:000744d0       ?type_case_a@?$output_processor@_WV?$string_output_adapter@_W@__crt_stdio_output@@V?$standard_base@_WV?$string_output_adapter@_W@__crt_stdio_output@@@2@@__crt_stdio_output@@AEAA_NXZ 00000001800754d0 f i libucrtd:output.obj
 0001:00074880       ?type_case_c@?$output_processor@DV?$stream_output_adapter@D@__crt_stdio_output@@V?$format_validation_base@DV?$stream_output_adapter@D@__crt_stdio_output@@@2@@__crt_stdio_output@@AEAA_NXZ 0000000180075880 f i libucrtd:output.obj
 0001:000748a0       ?type_case_c@?$output_processor@DV?$stream_output_adapter@D@__crt_stdio_output@@V?$positional_parameter_base@DV?$stream_output_adapter@D@__crt_stdio_output@@@2@@__crt_stdio_output@@AEAA_NXZ 00000001800758a0 f i libucrtd:output.obj
 0001:000748c0       ?type_case_c@?$output_processor@DV?$stream_output_adapter@D@__crt_stdio_output@@V?$standard_base@DV?$stream_output_adapter@D@__crt_stdio_output@@@2@@__crt_stdio_output@@AEAA_NXZ 00000001800758c0 f i libucrtd:output.obj
 0001:000748e0       ?type_case_c@?$output_processor@DV?$string_output_adapter@D@__crt_stdio_output@@V?$format_validation_base@DV?$string_output_adapter@D@__crt_stdio_output@@@2@@__crt_stdio_output@@AEAA_NXZ 00000001800758e0 f i libucrtd:output.obj
 0001:00074900       ?type_case_c@?$output_processor@DV?$string_output_adapter@D@__crt_stdio_output@@V?$positional_parameter_base@DV?$string_output_adapter@D@__crt_stdio_output@@@2@@__crt_stdio_output@@AEAA_NXZ 0000000180075900 f i libucrtd:output.obj
 0001:00074920       ?type_case_c@?$output_processor@DV?$string_output_adapter@D@__crt_stdio_output@@V?$standard_base@DV?$string_output_adapter@D@__crt_stdio_output@@@2@@__crt_stdio_output@@AEAA_NXZ 0000000180075920 f i libucrtd:output.obj
 0001:00074940       ?type_case_c@?$output_processor@_WV?$stream_output_adapter@_W@__crt_stdio_output@@V?$format_validation_base@_WV?$stream_output_adapter@_W@__crt_stdio_output@@@2@@__crt_stdio_output@@AEAA_NXZ 0000000180075940 f i libucrtd:output.obj
 0001:00074960       ?type_case_c@?$output_processor@_WV?$stream_output_adapter@_W@__crt_stdio_output@@V?$positional_parameter_base@_WV?$stream_output_adapter@_W@__crt_stdio_output@@@2@@__crt_stdio_output@@AEAA_NXZ 0000000180075960 f i libucrtd:output.obj
 0001:00074980       ?type_case_c@?$output_processor@_WV?$stream_output_adapter@_W@__crt_stdio_output@@V?$standard_base@_WV?$stream_output_adapter@_W@__crt_stdio_output@@@2@@__crt_stdio_output@@AEAA_NXZ 0000000180075980 f i libucrtd:output.obj
 0001:000749a0       ?type_case_c@?$output_processor@_WV?$string_output_adapter@_W@__crt_stdio_output@@V?$format_validation_base@_WV?$string_output_adapter@_W@__crt_stdio_output@@@2@@__crt_stdio_output@@AEAA_NXZ 00000001800759a0 f i libucrtd:output.obj
 0001:000749c0       ?type_case_c@?$output_processor@_WV?$string_output_adapter@_W@__crt_stdio_output@@V?$positional_parameter_base@_WV?$string_output_adapter@_W@__crt_stdio_output@@@2@@__crt_stdio_output@@AEAA_NXZ 00000001800759c0 f i libucrtd:output.obj
 0001:000749e0       ?type_case_c@?$output_processor@_WV?$string_output_adapter@_W@__crt_stdio_output@@V?$standard_base@_WV?$string_output_adapter@_W@__crt_stdio_output@@@2@@__crt_stdio_output@@AEAA_NXZ 00000001800759e0 f i libucrtd:output.obj
 0001:00074a00       ?type_case_c_tchar@?$output_processor@DV?$stream_output_adapter@D@__crt_stdio_output@@V?$format_validation_base@DV?$stream_output_adapter@D@__crt_stdio_output@@@2@@__crt_stdio_output@@AEAA_ND@Z 0000000180075a00 f i libucrtd:output.obj
 0001:00074b50       ?type_case_c_tchar@?$output_processor@DV?$stream_output_adapter@D@__crt_stdio_output@@V?$positional_parameter_base@DV?$stream_output_adapter@D@__crt_stdio_output@@@2@@__crt_stdio_output@@AEAA_ND@Z 0000000180075b50 f i libucrtd:output.obj
 0001:00074ca0       ?type_case_c_tchar@?$output_processor@DV?$stream_output_adapter@D@__crt_stdio_output@@V?$standard_base@DV?$stream_output_adapter@D@__crt_stdio_output@@@2@@__crt_stdio_output@@AEAA_ND@Z 0000000180075ca0 f i libucrtd:output.obj
 0001:00074df0       ?type_case_c_tchar@?$output_processor@DV?$string_output_adapter@D@__crt_stdio_output@@V?$format_validation_base@DV?$string_output_adapter@D@__crt_stdio_output@@@2@@__crt_stdio_output@@AEAA_ND@Z 0000000180075df0 f i libucrtd:output.obj
 0001:00074f40       ?type_case_c_tchar@?$output_processor@DV?$string_output_adapter@D@__crt_stdio_output@@V?$positional_parameter_base@DV?$string_output_adapter@D@__crt_stdio_output@@@2@@__crt_stdio_output@@AEAA_ND@Z 0000000180075f40 f i libucrtd:output.obj
 0001:00075090       ?type_case_c_tchar@?$output_processor@DV?$string_output_adapter@D@__crt_stdio_output@@V?$standard_base@DV?$string_output_adapter@D@__crt_stdio_output@@@2@@__crt_stdio_output@@AEAA_ND@Z 0000000180076090 f i libucrtd:output.obj
 0001:000751e0       ?type_case_c_tchar@?$output_processor@_WV?$stream_output_adapter@_W@__crt_stdio_output@@V?$format_validation_base@_WV?$stream_output_adapter@_W@__crt_stdio_output@@@2@@__crt_stdio_output@@AEAA_N_W@Z 00000001800761e0 f i libucrtd:output.obj
 0001:00075310       ?type_case_c_tchar@?$output_processor@_WV?$stream_output_adapter@_W@__crt_stdio_output@@V?$positional_parameter_base@_WV?$stream_output_adapter@_W@__crt_stdio_output@@@2@@__crt_stdio_output@@AEAA_N_W@Z 0000000180076310 f i libucrtd:output.obj
 0001:00075440       ?type_case_c_tchar@?$output_processor@_WV?$stream_output_adapter@_W@__crt_stdio_output@@V?$standard_base@_WV?$stream_output_adapter@_W@__crt_stdio_output@@@2@@__crt_stdio_output@@AEAA_N_W@Z 0000000180076440 f i libucrtd:output.obj
 0001:00075570       ?type_case_c_tchar@?$output_processor@_WV?$string_output_adapter@_W@__crt_stdio_output@@V?$format_validation_base@_WV?$string_output_adapter@_W@__crt_stdio_output@@@2@@__crt_stdio_output@@AEAA_N_W@Z 0000000180076570 f i libucrtd:output.obj
 0001:000756a0       ?type_case_c_tchar@?$output_processor@_WV?$string_output_adapter@_W@__crt_stdio_output@@V?$positional_parameter_base@_WV?$string_output_adapter@_W@__crt_stdio_output@@@2@@__crt_stdio_output@@AEAA_N_W@Z 00000001800766a0 f i libucrtd:output.obj
 0001:000757d0       ?type_case_c_tchar@?$output_processor@_WV?$string_output_adapter@_W@__crt_stdio_output@@V?$standard_base@_WV?$string_output_adapter@_W@__crt_stdio_output@@@2@@__crt_stdio_output@@AEAA_N_W@Z 00000001800767d0 f i libucrtd:output.obj
 0001:00075900       ?type_case_d@?$output_processor@DV?$stream_output_adapter@D@__crt_stdio_output@@V?$format_validation_base@DV?$stream_output_adapter@D@__crt_stdio_output@@@2@@__crt_stdio_output@@AEAA_NXZ 0000000180076900 f i libucrtd:output.obj
 0001:00075930       ?type_case_d@?$output_processor@DV?$stream_output_adapter@D@__crt_stdio_output@@V?$positional_parameter_base@DV?$stream_output_adapter@D@__crt_stdio_output@@@2@@__crt_stdio_output@@AEAA_NXZ 0000000180076930 f i libucrtd:output.obj
 0001:00075960       ?type_case_d@?$output_processor@DV?$stream_output_adapter@D@__crt_stdio_output@@V?$standard_base@DV?$stream_output_adapter@D@__crt_stdio_output@@@2@@__crt_stdio_output@@AEAA_NXZ 0000000180076960 f i libucrtd:output.obj
 0001:00075990       ?type_case_d@?$output_processor@DV?$string_output_adapter@D@__crt_stdio_output@@V?$format_validation_base@DV?$string_output_adapter@D@__crt_stdio_output@@@2@@__crt_stdio_output@@AEAA_NXZ 0000000180076990 f i libucrtd:output.obj
 0001:000759c0       ?type_case_d@?$output_processor@DV?$string_output_adapter@D@__crt_stdio_output@@V?$positional_parameter_base@DV?$string_output_adapter@D@__crt_stdio_output@@@2@@__crt_stdio_output@@AEAA_NXZ 00000001800769c0 f i libucrtd:output.obj
 0001:000759f0       ?type_case_d@?$output_processor@DV?$string_output_adapter@D@__crt_stdio_output@@V?$standard_base@DV?$string_output_adapter@D@__crt_stdio_output@@@2@@__crt_stdio_output@@AEAA_NXZ 00000001800769f0 f i libucrtd:output.obj
 0001:00075a20       ?type_case_d@?$output_processor@_WV?$stream_output_adapter@_W@__crt_stdio_output@@V?$format_validation_base@_WV?$stream_output_adapter@_W@__crt_stdio_output@@@2@@__crt_stdio_output@@AEAA_NXZ 0000000180076a20 f i libucrtd:output.obj
 0001:00075a50       ?type_case_d@?$output_processor@_WV?$stream_output_adapter@_W@__crt_stdio_output@@V?$positional_parameter_base@_WV?$stream_output_adapter@_W@__crt_stdio_output@@@2@@__crt_stdio_output@@AEAA_NXZ 0000000180076a50 f i libucrtd:output.obj
 0001:00075a80       ?type_case_d@?$output_processor@_WV?$stream_output_adapter@_W@__crt_stdio_output@@V?$standard_base@_WV?$stream_output_adapter@_W@__crt_stdio_output@@@2@@__crt_stdio_output@@AEAA_NXZ 0000000180076a80 f i libucrtd:output.obj
 0001:00075ab0       ?type_case_d@?$output_processor@_WV?$string_output_adapter@_W@__crt_stdio_output@@V?$format_validation_base@_WV?$string_output_adapter@_W@__crt_stdio_output@@@2@@__crt_stdio_output@@AEAA_NXZ 0000000180076ab0 f i libucrtd:output.obj
 0001:00075ae0       ?type_case_d@?$output_processor@_WV?$string_output_adapter@_W@__crt_stdio_output@@V?$positional_parameter_base@_WV?$string_output_adapter@_W@__crt_stdio_output@@@2@@__crt_stdio_output@@AEAA_NXZ 0000000180076ae0 f i libucrtd:output.obj
 0001:00075b10       ?type_case_d@?$output_processor@_WV?$string_output_adapter@_W@__crt_stdio_output@@V?$standard_base@_WV?$string_output_adapter@_W@__crt_stdio_output@@@2@@__crt_stdio_output@@AEAA_NXZ 0000000180076b10 f i libucrtd:output.obj
 0001:00075b40       ?type_case_integer@?$output_processor@DV?$stream_output_adapter@D@__crt_stdio_output@@V?$format_validation_base@DV?$stream_output_adapter@D@__crt_stdio_output@@@2@@__crt_stdio_output@@AEAA_NI_N@Z 0000000180076b40 f i libucrtd:output.obj
 0001:00075f70       ?type_case_integer@?$output_processor@DV?$stream_output_adapter@D@__crt_stdio_output@@V?$positional_parameter_base@DV?$stream_output_adapter@D@__crt_stdio_output@@@2@@__crt_stdio_output@@AEAA_NI_N@Z 0000000180076f70 f i libucrtd:output.obj
 0001:000763a0       ?type_case_integer@?$output_processor@DV?$stream_output_adapter@D@__crt_stdio_output@@V?$standard_base@DV?$stream_output_adapter@D@__crt_stdio_output@@@2@@__crt_stdio_output@@AEAA_NI_N@Z 00000001800773a0 f i libucrtd:output.obj
 0001:000767d0       ?type_case_integer@?$output_processor@DV?$string_output_adapter@D@__crt_stdio_output@@V?$format_validation_base@DV?$string_output_adapter@D@__crt_stdio_output@@@2@@__crt_stdio_output@@AEAA_NI_N@Z 00000001800777d0 f i libucrtd:output.obj
 0001:00076c00       ?type_case_integer@?$output_processor@DV?$string_output_adapter@D@__crt_stdio_output@@V?$positional_parameter_base@DV?$string_output_adapter@D@__crt_stdio_output@@@2@@__crt_stdio_output@@AEAA_NI_N@Z 0000000180077c00 f i libucrtd:output.obj
 0001:00077030       ?type_case_integer@?$output_processor@DV?$string_output_adapter@D@__crt_stdio_output@@V?$standard_base@DV?$string_output_adapter@D@__crt_stdio_output@@@2@@__crt_stdio_output@@AEAA_NI_N@Z 0000000180078030 f i libucrtd:output.obj
 0001:00077460       ?type_case_integer@?$output_processor@_WV?$stream_output_adapter@_W@__crt_stdio_output@@V?$format_validation_base@_WV?$stream_output_adapter@_W@__crt_stdio_output@@@2@@__crt_stdio_output@@AEAA_NI_N@Z 0000000180078460 f i libucrtd:output.obj
 0001:00077890       ?type_case_integer@?$output_processor@_WV?$stream_output_adapter@_W@__crt_stdio_output@@V?$positional_parameter_base@_WV?$stream_output_adapter@_W@__crt_stdio_output@@@2@@__crt_stdio_output@@AEAA_NI_N@Z 0000000180078890 f i libucrtd:output.obj
 0001:00077cc0       ?type_case_integer@?$output_processor@_WV?$stream_output_adapter@_W@__crt_stdio_output@@V?$standard_base@_WV?$stream_output_adapter@_W@__crt_stdio_output@@@2@@__crt_stdio_output@@AEAA_NI_N@Z 0000000180078cc0 f i libucrtd:output.obj
 0001:000780f0       ?type_case_integer@?$output_processor@_WV?$string_output_adapter@_W@__crt_stdio_output@@V?$format_validation_base@_WV?$string_output_adapter@_W@__crt_stdio_output@@@2@@__crt_stdio_output@@AEAA_NI_N@Z 00000001800790f0 f i libucrtd:output.obj
 0001:00078520       ?type_case_integer@?$output_processor@_WV?$string_output_adapter@_W@__crt_stdio_output@@V?$positional_parameter_base@_WV?$string_output_adapter@_W@__crt_stdio_output@@@2@@__crt_stdio_output@@AEAA_NI_N@Z 0000000180079520 f i libucrtd:output.obj
 0001:00078950       ?type_case_integer@?$output_processor@_WV?$string_output_adapter@_W@__crt_stdio_output@@V?$standard_base@_WV?$string_output_adapter@_W@__crt_stdio_output@@@2@@__crt_stdio_output@@AEAA_NI_N@Z 0000000180079950 f i libucrtd:output.obj
 0001:00078d80       ?type_case_n@?$output_processor@DV?$stream_output_adapter@D@__crt_stdio_output@@V?$format_validation_base@DV?$stream_output_adapter@D@__crt_stdio_output@@@2@@__crt_stdio_output@@AEAA_NXZ 0000000180079d80 f i libucrtd:output.obj
 0001:00078fc0       ?type_case_n@?$output_processor@DV?$stream_output_adapter@D@__crt_stdio_output@@V?$positional_parameter_base@DV?$stream_output_adapter@D@__crt_stdio_output@@@2@@__crt_stdio_output@@AEAA_NXZ 0000000180079fc0 f i libucrtd:output.obj
 0001:00079200       ?type_case_n@?$output_processor@DV?$stream_output_adapter@D@__crt_stdio_output@@V?$standard_base@DV?$stream_output_adapter@D@__crt_stdio_output@@@2@@__crt_stdio_output@@AEAA_NXZ 000000018007a200 f i libucrtd:output.obj
 0001:00079440       ?type_case_n@?$output_processor@DV?$string_output_adapter@D@__crt_stdio_output@@V?$format_validation_base@DV?$string_output_adapter@D@__crt_stdio_output@@@2@@__crt_stdio_output@@AEAA_NXZ 000000018007a440 f i libucrtd:output.obj
 0001:00079680       ?type_case_n@?$output_processor@DV?$string_output_adapter@D@__crt_stdio_output@@V?$positional_parameter_base@DV?$string_output_adapter@D@__crt_stdio_output@@@2@@__crt_stdio_output@@AEAA_NXZ 000000018007a680 f i libucrtd:output.obj
 0001:000798c0       ?type_case_n@?$output_processor@DV?$string_output_adapter@D@__crt_stdio_output@@V?$standard_base@DV?$string_output_adapter@D@__crt_stdio_output@@@2@@__crt_stdio_output@@AEAA_NXZ 000000018007a8c0 f i libucrtd:output.obj
 0001:00079b00       ?type_case_n@?$output_processor@_WV?$stream_output_adapter@_W@__crt_stdio_output@@V?$format_validation_base@_WV?$stream_output_adapter@_W@__crt_stdio_output@@@2@@__crt_stdio_output@@AEAA_NXZ 000000018007ab00 f i libucrtd:output.obj
 0001:00079d40       ?type_case_n@?$output_processor@_WV?$stream_output_adapter@_W@__crt_stdio_output@@V?$positional_parameter_base@_WV?$stream_output_adapter@_W@__crt_stdio_output@@@2@@__crt_stdio_output@@AEAA_NXZ 000000018007ad40 f i libucrtd:output.obj
 0001:00079f80       ?type_case_n@?$output_processor@_WV?$stream_output_adapter@_W@__crt_stdio_output@@V?$standard_base@_WV?$stream_output_adapter@_W@__crt_stdio_output@@@2@@__crt_stdio_output@@AEAA_NXZ 000000018007af80 f i libucrtd:output.obj
 0001:0007a1c0       ?type_case_n@?$output_processor@_WV?$string_output_adapter@_W@__crt_stdio_output@@V?$format_validation_base@_WV?$string_output_adapter@_W@__crt_stdio_output@@@2@@__crt_stdio_output@@AEAA_NXZ 000000018007b1c0 f i libucrtd:output.obj
 0001:0007a400       ?type_case_n@?$output_processor@_WV?$string_output_adapter@_W@__crt_stdio_output@@V?$positional_parameter_base@_WV?$string_output_adapter@_W@__crt_stdio_output@@@2@@__crt_stdio_output@@AEAA_NXZ 000000018007b400 f i libucrtd:output.obj
 0001:0007a640       ?type_case_n@?$output_processor@_WV?$string_output_adapter@_W@__crt_stdio_output@@V?$standard_base@_WV?$string_output_adapter@_W@__crt_stdio_output@@@2@@__crt_stdio_output@@AEAA_NXZ 000000018007b640 f i libucrtd:output.obj
 0001:0007a880       ?type_case_o@?$output_processor@DV?$stream_output_adapter@D@__crt_stdio_output@@V?$format_validation_base@DV?$stream_output_adapter@D@__crt_stdio_output@@@2@@__crt_stdio_output@@AEAA_NXZ 000000018007b880 f i libucrtd:output.obj
 0001:0007a8d0       ?type_case_o@?$output_processor@DV?$stream_output_adapter@D@__crt_stdio_output@@V?$positional_parameter_base@DV?$stream_output_adapter@D@__crt_stdio_output@@@2@@__crt_stdio_output@@AEAA_NXZ 000000018007b8d0 f i libucrtd:output.obj
 0001:0007a920       ?type_case_o@?$output_processor@DV?$stream_output_adapter@D@__crt_stdio_output@@V?$standard_base@DV?$stream_output_adapter@D@__crt_stdio_output@@@2@@__crt_stdio_output@@AEAA_NXZ 000000018007b920 f i libucrtd:output.obj
 0001:0007a970       ?type_case_o@?$output_processor@DV?$string_output_adapter@D@__crt_stdio_output@@V?$format_validation_base@DV?$string_output_adapter@D@__crt_stdio_output@@@2@@__crt_stdio_output@@AEAA_NXZ 000000018007b970 f i libucrtd:output.obj
 0001:0007a9c0       ?type_case_o@?$output_processor@DV?$string_output_adapter@D@__crt_stdio_output@@V?$positional_parameter_base@DV?$string_output_adapter@D@__crt_stdio_output@@@2@@__crt_stdio_output@@AEAA_NXZ 000000018007b9c0 f i libucrtd:output.obj
 0001:0007aa10       ?type_case_o@?$output_processor@DV?$string_output_adapter@D@__crt_stdio_output@@V?$standard_base@DV?$string_output_adapter@D@__crt_stdio_output@@@2@@__crt_stdio_output@@AEAA_NXZ 000000018007ba10 f i libucrtd:output.obj
 0001:0007aa60       ?type_case_o@?$output_processor@_WV?$stream_output_adapter@_W@__crt_stdio_output@@V?$format_validation_base@_WV?$stream_output_adapter@_W@__crt_stdio_output@@@2@@__crt_stdio_output@@AEAA_NXZ 000000018007ba60 f i libucrtd:output.obj
 0001:0007aab0       ?type_case_o@?$output_processor@_WV?$stream_output_adapter@_W@__crt_stdio_output@@V?$positional_parameter_base@_WV?$stream_output_adapter@_W@__crt_stdio_output@@@2@@__crt_stdio_output@@AEAA_NXZ 000000018007bab0 f i libucrtd:output.obj
 0001:0007ab00       ?type_case_o@?$output_processor@_WV?$stream_output_adapter@_W@__crt_stdio_output@@V?$standard_base@_WV?$stream_output_adapter@_W@__crt_stdio_output@@@2@@__crt_stdio_output@@AEAA_NXZ 000000018007bb00 f i libucrtd:output.obj
 0001:0007ab50       ?type_case_o@?$output_processor@_WV?$string_output_adapter@_W@__crt_stdio_output@@V?$format_validation_base@_WV?$string_output_adapter@_W@__crt_stdio_output@@@2@@__crt_stdio_output@@AEAA_NXZ 000000018007bb50 f i libucrtd:output.obj
 0001:0007aba0       ?type_case_o@?$output_processor@_WV?$string_output_adapter@_W@__crt_stdio_output@@V?$positional_parameter_base@_WV?$string_output_adapter@_W@__crt_stdio_output@@@2@@__crt_stdio_output@@AEAA_NXZ 000000018007bba0 f i libucrtd:output.obj
 0001:0007abf0       ?type_case_o@?$output_processor@_WV?$string_output_adapter@_W@__crt_stdio_output@@V?$standard_base@_WV?$string_output_adapter@_W@__crt_stdio_output@@@2@@__crt_stdio_output@@AEAA_NXZ 000000018007bbf0 f i libucrtd:output.obj
 0001:0007ac40       ?type_case_p@?$output_processor@DV?$stream_output_adapter@D@__crt_stdio_output@@V?$format_validation_base@DV?$stream_output_adapter@D@__crt_stdio_output@@@2@@__crt_stdio_output@@AEAA_NXZ 000000018007bc40 f i libucrtd:output.obj
 0001:0007ac80       ?type_case_p@?$output_processor@DV?$stream_output_adapter@D@__crt_stdio_output@@V?$positional_parameter_base@DV?$stream_output_adapter@D@__crt_stdio_output@@@2@@__crt_stdio_output@@AEAA_NXZ 000000018007bc80 f i libucrtd:output.obj
 0001:0007acc0       ?type_case_p@?$output_processor@DV?$stream_output_adapter@D@__crt_stdio_output@@V?$standard_base@DV?$stream_output_adapter@D@__crt_stdio_output@@@2@@__crt_stdio_output@@AEAA_NXZ 000000018007bcc0 f i libucrtd:output.obj
 0001:0007ad00       ?type_case_p@?$output_processor@DV?$string_output_adapter@D@__crt_stdio_output@@V?$format_validation_base@DV?$string_output_adapter@D@__crt_stdio_output@@@2@@__crt_stdio_output@@AEAA_NXZ 000000018007bd00 f i libucrtd:output.obj
 0001:0007ad40       ?type_case_p@?$output_processor@DV?$string_output_adapter@D@__crt_stdio_output@@V?$positional_parameter_base@DV?$string_output_adapter@D@__crt_stdio_output@@@2@@__crt_stdio_output@@AEAA_NXZ 000000018007bd40 f i libucrtd:output.obj
 0001:0007ad80       ?type_case_p@?$output_processor@DV?$string_output_adapter@D@__crt_stdio_output@@V?$standard_base@DV?$string_output_adapter@D@__crt_stdio_output@@@2@@__crt_stdio_output@@AEAA_NXZ 000000018007bd80 f i libucrtd:output.obj
 0001:0007adc0       ?type_case_p@?$output_processor@_WV?$stream_output_adapter@_W@__crt_stdio_output@@V?$format_validation_base@_WV?$stream_output_adapter@_W@__crt_stdio_output@@@2@@__crt_stdio_output@@AEAA_NXZ 000000018007bdc0 f i libucrtd:output.obj
 0001:0007ae00       ?type_case_p@?$output_processor@_WV?$stream_output_adapter@_W@__crt_stdio_output@@V?$positional_parameter_base@_WV?$stream_output_adapter@_W@__crt_stdio_output@@@2@@__crt_stdio_output@@AEAA_NXZ 000000018007be00 f i libucrtd:output.obj
 0001:0007ae40       ?type_case_p@?$output_processor@_WV?$stream_output_adapter@_W@__crt_stdio_output@@V?$standard_base@_WV?$stream_output_adapter@_W@__crt_stdio_output@@@2@@__crt_stdio_output@@AEAA_NXZ 000000018007be40 f i libucrtd:output.obj
 0001:0007ae80       ?type_case_p@?$output_processor@_WV?$string_output_adapter@_W@__crt_stdio_output@@V?$format_validation_base@_WV?$string_output_adapter@_W@__crt_stdio_output@@@2@@__crt_stdio_output@@AEAA_NXZ 000000018007be80 f i libucrtd:output.obj
 0001:0007aec0       ?type_case_p@?$output_processor@_WV?$string_output_adapter@_W@__crt_stdio_output@@V?$positional_parameter_base@_WV?$string_output_adapter@_W@__crt_stdio_output@@@2@@__crt_stdio_output@@AEAA_NXZ 000000018007bec0 f i libucrtd:output.obj
 0001:0007af00       ?type_case_p@?$output_processor@_WV?$string_output_adapter@_W@__crt_stdio_output@@V?$standard_base@_WV?$string_output_adapter@_W@__crt_stdio_output@@@2@@__crt_stdio_output@@AEAA_NXZ 000000018007bf00 f i libucrtd:output.obj
 0001:0007af40       ?type_case_s@?$output_processor@DV?$stream_output_adapter@D@__crt_stdio_output@@V?$format_validation_base@DV?$stream_output_adapter@D@__crt_stdio_output@@@2@@__crt_stdio_output@@AEAA_NXZ 000000018007bf40 f i libucrtd:output.obj
 0001:0007b060       ?type_case_s@?$output_processor@DV?$stream_output_adapter@D@__crt_stdio_output@@V?$positional_parameter_base@DV?$stream_output_adapter@D@__crt_stdio_output@@@2@@__crt_stdio_output@@AEAA_NXZ 000000018007c060 f i libucrtd:output.obj
 0001:0007b180       ?type_case_s@?$output_processor@DV?$stream_output_adapter@D@__crt_stdio_output@@V?$standard_base@DV?$stream_output_adapter@D@__crt_stdio_output@@@2@@__crt_stdio_output@@AEAA_NXZ 000000018007c180 f i libucrtd:output.obj
 0001:0007b2a0       ?type_case_s@?$output_processor@DV?$string_output_adapter@D@__crt_stdio_output@@V?$format_validation_base@DV?$string_output_adapter@D@__crt_stdio_output@@@2@@__crt_stdio_output@@AEAA_NXZ 000000018007c2a0 f i libucrtd:output.obj
 0001:0007b3c0       ?type_case_s@?$output_processor@DV?$string_output_adapter@D@__crt_stdio_output@@V?$positional_parameter_base@DV?$string_output_adapter@D@__crt_stdio_output@@@2@@__crt_stdio_output@@AEAA_NXZ 000000018007c3c0 f i libucrtd:output.obj
 0001:0007b4e0       ?type_case_s@?$output_processor@DV?$string_output_adapter@D@__crt_stdio_output@@V?$standard_base@DV?$string_output_adapter@D@__crt_stdio_output@@@2@@__crt_stdio_output@@AEAA_NXZ 000000018007c4e0 f i libucrtd:output.obj
 0001:0007b600       ?type_case_s@?$output_processor@_WV?$stream_output_adapter@_W@__crt_stdio_output@@V?$format_validation_base@_WV?$stream_output_adapter@_W@__crt_stdio_output@@@2@@__crt_stdio_output@@AEAA_NXZ 000000018007c600 f i libucrtd:output.obj
 0001:0007b720       ?type_case_s@?$output_processor@_WV?$stream_output_adapter@_W@__crt_stdio_output@@V?$positional_parameter_base@_WV?$stream_output_adapter@_W@__crt_stdio_output@@@2@@__crt_stdio_output@@AEAA_NXZ 000000018007c720 f i libucrtd:output.obj
 0001:0007b840       ?type_case_s@?$output_processor@_WV?$stream_output_adapter@_W@__crt_stdio_output@@V?$standard_base@_WV?$stream_output_adapter@_W@__crt_stdio_output@@@2@@__crt_stdio_output@@AEAA_NXZ 000000018007c840 f i libucrtd:output.obj
 0001:0007b960       ?type_case_s@?$output_processor@_WV?$string_output_adapter@_W@__crt_stdio_output@@V?$format_validation_base@_WV?$string_output_adapter@_W@__crt_stdio_output@@@2@@__crt_stdio_output@@AEAA_NXZ 000000018007c960 f i libucrtd:output.obj
 0001:0007ba80       ?type_case_s@?$output_processor@_WV?$string_output_adapter@_W@__crt_stdio_output@@V?$positional_parameter_base@_WV?$string_output_adapter@_W@__crt_stdio_output@@@2@@__crt_stdio_output@@AEAA_NXZ 000000018007ca80 f i libucrtd:output.obj
 0001:0007bba0       ?type_case_s@?$output_processor@_WV?$string_output_adapter@_W@__crt_stdio_output@@V?$standard_base@_WV?$string_output_adapter@_W@__crt_stdio_output@@@2@@__crt_stdio_output@@AEAA_NXZ 000000018007cba0 f i libucrtd:output.obj
 0001:0007bcc0       ?type_case_s_compute_narrow_string_length@?$output_processor@DV?$stream_output_adapter@D@__crt_stdio_output@@V?$format_validation_base@DV?$stream_output_adapter@D@__crt_stdio_output@@@2@@__crt_stdio_output@@AEBAHHD@Z 000000018007ccc0 f i libucrtd:output.obj
 0001:0007bcf0       ?type_case_s_compute_narrow_string_length@?$output_processor@DV?$stream_output_adapter@D@__crt_stdio_output@@V?$positional_parameter_base@DV?$stream_output_adapter@D@__crt_stdio_output@@@2@@__crt_stdio_output@@AEBAHHD@Z 000000018007ccf0 f i libucrtd:output.obj
 0001:0007bd20       ?type_case_s_compute_narrow_string_length@?$output_processor@DV?$stream_output_adapter@D@__crt_stdio_output@@V?$standard_base@DV?$stream_output_adapter@D@__crt_stdio_output@@@2@@__crt_stdio_output@@AEBAHHD@Z 000000018007cd20 f i libucrtd:output.obj
 0001:0007bd50       ?type_case_s_compute_narrow_string_length@?$output_processor@DV?$string_output_adapter@D@__crt_stdio_output@@V?$format_validation_base@DV?$string_output_adapter@D@__crt_stdio_output@@@2@@__crt_stdio_output@@AEBAHHD@Z 000000018007cd50 f i libucrtd:output.obj
 0001:0007bd80       ?type_case_s_compute_narrow_string_length@?$output_processor@DV?$string_output_adapter@D@__crt_stdio_output@@V?$positional_parameter_base@DV?$string_output_adapter@D@__crt_stdio_output@@@2@@__crt_stdio_output@@AEBAHHD@Z 000000018007cd80 f i libucrtd:output.obj
 0001:0007bdb0       ?type_case_s_compute_narrow_string_length@?$output_processor@DV?$string_output_adapter@D@__crt_stdio_output@@V?$standard_base@DV?$string_output_adapter@D@__crt_stdio_output@@@2@@__crt_stdio_output@@AEBAHHD@Z 000000018007cdb0 f i libucrtd:output.obj
 0001:0007bde0       ?type_case_s_compute_narrow_string_length@?$output_processor@_WV?$stream_output_adapter@_W@__crt_stdio_output@@V?$format_validation_base@_WV?$stream_output_adapter@_W@__crt_stdio_output@@@2@@__crt_stdio_output@@AEBAHH_W@Z 000000018007cde0 f i libucrtd:output.obj
 0001:0007be70       ?type_case_s_compute_narrow_string_length@?$output_processor@_WV?$stream_output_adapter@_W@__crt_stdio_output@@V?$positional_parameter_base@_WV?$stream_output_adapter@_W@__crt_stdio_output@@@2@@__crt_stdio_output@@AEBAHH_W@Z 000000018007ce70 f i libucrtd:output.obj
 0001:0007bf00       ?type_case_s_compute_narrow_string_length@?$output_processor@_WV?$stream_output_adapter@_W@__crt_stdio_output@@V?$standard_base@_WV?$stream_output_adapter@_W@__crt_stdio_output@@@2@@__crt_stdio_output@@AEBAHH_W@Z 000000018007cf00 f i libucrtd:output.obj
 0001:0007bf90       ?type_case_s_compute_narrow_string_length@?$output_processor@_WV?$string_output_adapter@_W@__crt_stdio_output@@V?$format_validation_base@_WV?$string_output_adapter@_W@__crt_stdio_output@@@2@@__crt_stdio_output@@AEBAHH_W@Z 000000018007cf90 f i libucrtd:output.obj
 0001:0007c020       ?type_case_s_compute_narrow_string_length@?$output_processor@_WV?$string_output_adapter@_W@__crt_stdio_output@@V?$positional_parameter_base@_WV?$string_output_adapter@_W@__crt_stdio_output@@@2@@__crt_stdio_output@@AEBAHH_W@Z 000000018007d020 f i libucrtd:output.obj
 0001:0007c0b0       ?type_case_s_compute_narrow_string_length@?$output_processor@_WV?$string_output_adapter@_W@__crt_stdio_output@@V?$standard_base@_WV?$string_output_adapter@_W@__crt_stdio_output@@@2@@__crt_stdio_output@@AEBAHH_W@Z 000000018007d0b0 f i libucrtd:output.obj
 0001:0007c140       ?type_case_u@?$output_processor@DV?$stream_output_adapter@D@__crt_stdio_output@@V?$format_validation_base@DV?$stream_output_adapter@D@__crt_stdio_output@@@2@@__crt_stdio_output@@AEAA_NXZ 000000018007d140 f i libucrtd:output.obj
 0001:0007c160       ?type_case_u@?$output_processor@DV?$stream_output_adapter@D@__crt_stdio_output@@V?$positional_parameter_base@DV?$stream_output_adapter@D@__crt_stdio_output@@@2@@__crt_stdio_output@@AEAA_NXZ 000000018007d160 f i libucrtd:output.obj
 0001:0007c180       ?type_case_u@?$output_processor@DV?$stream_output_adapter@D@__crt_stdio_output@@V?$standard_base@DV?$stream_output_adapter@D@__crt_stdio_output@@@2@@__crt_stdio_output@@AEAA_NXZ 000000018007d180 f i libucrtd:output.obj
 0001:0007c1a0       ?type_case_u@?$output_processor@DV?$string_output_adapter@D@__crt_stdio_output@@V?$format_validation_base@DV?$string_output_adapter@D@__crt_stdio_output@@@2@@__crt_stdio_output@@AEAA_NXZ 000000018007d1a0 f i libucrtd:output.obj
 0001:0007c1c0       ?type_case_u@?$output_processor@DV?$string_output_adapter@D@__crt_stdio_output@@V?$positional_parameter_base@DV?$string_output_adapter@D@__crt_stdio_output@@@2@@__crt_stdio_output@@AEAA_NXZ 000000018007d1c0 f i libucrtd:output.obj
 0001:0007c1e0       ?type_case_u@?$output_processor@DV?$string_output_adapter@D@__crt_stdio_output@@V?$standard_base@DV?$string_output_adapter@D@__crt_stdio_output@@@2@@__crt_stdio_output@@AEAA_NXZ 000000018007d1e0 f i libucrtd:output.obj
 0001:0007c200       ?type_case_u@?$output_processor@_WV?$stream_output_adapter@_W@__crt_stdio_output@@V?$format_validation_base@_WV?$stream_output_adapter@_W@__crt_stdio_output@@@2@@__crt_stdio_output@@AEAA_NXZ 000000018007d200 f i libucrtd:output.obj
 0001:0007c220       ?type_case_u@?$output_processor@_WV?$stream_output_adapter@_W@__crt_stdio_output@@V?$positional_parameter_base@_WV?$stream_output_adapter@_W@__crt_stdio_output@@@2@@__crt_stdio_output@@AEAA_NXZ 000000018007d220 f i libucrtd:output.obj
 0001:0007c240       ?type_case_u@?$output_processor@_WV?$stream_output_adapter@_W@__crt_stdio_output@@V?$standard_base@_WV?$stream_output_adapter@_W@__crt_stdio_output@@@2@@__crt_stdio_output@@AEAA_NXZ 000000018007d240 f i libucrtd:output.obj
 0001:0007c260       ?type_case_u@?$output_processor@_WV?$string_output_adapter@_W@__crt_stdio_output@@V?$format_validation_base@_WV?$string_output_adapter@_W@__crt_stdio_output@@@2@@__crt_stdio_output@@AEAA_NXZ 000000018007d260 f i libucrtd:output.obj
 0001:0007c280       ?type_case_u@?$output_processor@_WV?$string_output_adapter@_W@__crt_stdio_output@@V?$positional_parameter_base@_WV?$string_output_adapter@_W@__crt_stdio_output@@@2@@__crt_stdio_output@@AEAA_NXZ 000000018007d280 f i libucrtd:output.obj
 0001:0007c2a0       ?type_case_u@?$output_processor@_WV?$string_output_adapter@_W@__crt_stdio_output@@V?$standard_base@_WV?$string_output_adapter@_W@__crt_stdio_output@@@2@@__crt_stdio_output@@AEAA_NXZ 000000018007d2a0 f i libucrtd:output.obj
 0001:0007c2c0       ?type_case_x@?$output_processor@DV?$stream_output_adapter@D@__crt_stdio_output@@V?$format_validation_base@DV?$stream_output_adapter@D@__crt_stdio_output@@@2@@__crt_stdio_output@@AEAA_NXZ 000000018007d2c0 f i libucrtd:output.obj
 0001:0007c2e0       ?type_case_x@?$output_processor@DV?$stream_output_adapter@D@__crt_stdio_output@@V?$positional_parameter_base@DV?$stream_output_adapter@D@__crt_stdio_output@@@2@@__crt_stdio_output@@AEAA_NXZ 000000018007d2e0 f i libucrtd:output.obj
 0001:0007c300       ?type_case_x@?$output_processor@DV?$stream_output_adapter@D@__crt_stdio_output@@V?$standard_base@DV?$stream_output_adapter@D@__crt_stdio_output@@@2@@__crt_stdio_output@@AEAA_NXZ 000000018007d300 f i libucrtd:output.obj
 0001:0007c320       ?type_case_x@?$output_processor@DV?$string_output_adapter@D@__crt_stdio_output@@V?$format_validation_base@DV?$string_output_adapter@D@__crt_stdio_output@@@2@@__crt_stdio_output@@AEAA_NXZ 000000018007d320 f i libucrtd:output.obj
 0001:0007c340       ?type_case_x@?$output_processor@DV?$string_output_adapter@D@__crt_stdio_output@@V?$positional_parameter_base@DV?$string_output_adapter@D@__crt_stdio_output@@@2@@__crt_stdio_output@@AEAA_NXZ 000000018007d340 f i libucrtd:output.obj
 0001:0007c360       ?type_case_x@?$output_processor@DV?$string_output_adapter@D@__crt_stdio_output@@V?$standard_base@DV?$string_output_adapter@D@__crt_stdio_output@@@2@@__crt_stdio_output@@AEAA_NXZ 000000018007d360 f i libucrtd:output.obj
 0001:0007c380       ?type_case_x@?$output_processor@_WV?$stream_output_adapter@_W@__crt_stdio_output@@V?$format_validation_base@_WV?$stream_output_adapter@_W@__crt_stdio_output@@@2@@__crt_stdio_output@@AEAA_NXZ 000000018007d380 f i libucrtd:output.obj
 0001:0007c3a0       ?type_case_x@?$output_processor@_WV?$stream_output_adapter@_W@__crt_stdio_output@@V?$positional_parameter_base@_WV?$stream_output_adapter@_W@__crt_stdio_output@@@2@@__crt_stdio_output@@AEAA_NXZ 000000018007d3a0 f i libucrtd:output.obj
 0001:0007c3c0       ?type_case_x@?$output_processor@_WV?$stream_output_adapter@_W@__crt_stdio_output@@V?$standard_base@_WV?$stream_output_adapter@_W@__crt_stdio_output@@@2@@__crt_stdio_output@@AEAA_NXZ 000000018007d3c0 f i libucrtd:output.obj
 0001:0007c3e0       ?type_case_x@?$output_processor@_WV?$string_output_adapter@_W@__crt_stdio_output@@V?$format_validation_base@_WV?$string_output_adapter@_W@__crt_stdio_output@@@2@@__crt_stdio_output@@AEAA_NXZ 000000018007d3e0 f i libucrtd:output.obj
 0001:0007c400       ?type_case_x@?$output_processor@_WV?$string_output_adapter@_W@__crt_stdio_output@@V?$positional_parameter_base@_WV?$string_output_adapter@_W@__crt_stdio_output@@@2@@__crt_stdio_output@@AEAA_NXZ 000000018007d400 f i libucrtd:output.obj
 0001:0007c420       ?type_case_x@?$output_processor@_WV?$string_output_adapter@_W@__crt_stdio_output@@V?$standard_base@_WV?$string_output_adapter@_W@__crt_stdio_output@@@2@@__crt_stdio_output@@AEAA_NXZ 000000018007d420 f i libucrtd:output.obj
 0001:0007c440       ?unset_flag@?$output_processor@DV?$stream_output_adapter@D@__crt_stdio_output@@V?$format_validation_base@DV?$stream_output_adapter@D@__crt_stdio_output@@@2@@__crt_stdio_output@@AEAAXI@Z 000000018007d440 f i libucrtd:output.obj
 0001:0007c470       ?unset_flag@?$output_processor@DV?$stream_output_adapter@D@__crt_stdio_output@@V?$positional_parameter_base@DV?$stream_output_adapter@D@__crt_stdio_output@@@2@@__crt_stdio_output@@AEAAXI@Z 000000018007d470 f i libucrtd:output.obj
 0001:0007c4a0       ?unset_flag@?$output_processor@DV?$stream_output_adapter@D@__crt_stdio_output@@V?$standard_base@DV?$stream_output_adapter@D@__crt_stdio_output@@@2@@__crt_stdio_output@@AEAAXI@Z 000000018007d4a0 f i libucrtd:output.obj
 0001:0007c4d0       ?unset_flag@?$output_processor@DV?$string_output_adapter@D@__crt_stdio_output@@V?$format_validation_base@DV?$string_output_adapter@D@__crt_stdio_output@@@2@@__crt_stdio_output@@AEAAXI@Z 000000018007d4d0 f i libucrtd:output.obj
 0001:0007c500       ?unset_flag@?$output_processor@DV?$string_output_adapter@D@__crt_stdio_output@@V?$positional_parameter_base@DV?$string_output_adapter@D@__crt_stdio_output@@@2@@__crt_stdio_output@@AEAAXI@Z 000000018007d500 f i libucrtd:output.obj
 0001:0007c530       ?unset_flag@?$output_processor@DV?$string_output_adapter@D@__crt_stdio_output@@V?$standard_base@DV?$string_output_adapter@D@__crt_stdio_output@@@2@@__crt_stdio_output@@AEAAXI@Z 000000018007d530 f i libucrtd:output.obj
 0001:0007c560       ?unset_flag@?$output_processor@_WV?$stream_output_adapter@_W@__crt_stdio_output@@V?$format_validation_base@_WV?$stream_output_adapter@_W@__crt_stdio_output@@@2@@__crt_stdio_output@@AEAAXI@Z 000000018007d560 f i libucrtd:output.obj
 0001:0007c590       ?unset_flag@?$output_processor@_WV?$stream_output_adapter@_W@__crt_stdio_output@@V?$positional_parameter_base@_WV?$stream_output_adapter@_W@__crt_stdio_output@@@2@@__crt_stdio_output@@AEAAXI@Z 000000018007d590 f i libucrtd:output.obj
 0001:0007c5c0       ?unset_flag@?$output_processor@_WV?$stream_output_adapter@_W@__crt_stdio_output@@V?$standard_base@_WV?$stream_output_adapter@_W@__crt_stdio_output@@@2@@__crt_stdio_output@@AEAAXI@Z 000000018007d5c0 f i libucrtd:output.obj
 0001:0007c5f0       ?unset_flag@?$output_processor@_WV?$string_output_adapter@_W@__crt_stdio_output@@V?$format_validation_base@_WV?$string_output_adapter@_W@__crt_stdio_output@@@2@@__crt_stdio_output@@AEAAXI@Z 000000018007d5f0 f i libucrtd:output.obj
 0001:0007c620       ?unset_flag@?$output_processor@_WV?$string_output_adapter@_W@__crt_stdio_output@@V?$positional_parameter_base@_WV?$string_output_adapter@_W@__crt_stdio_output@@@2@@__crt_stdio_output@@AEAAXI@Z 000000018007d620 f i libucrtd:output.obj
 0001:0007c650       ?unset_flag@?$output_processor@_WV?$string_output_adapter@_W@__crt_stdio_output@@V?$standard_base@_WV?$string_output_adapter@_W@__crt_stdio_output@@@2@@__crt_stdio_output@@AEAAXI@Z 000000018007d650 f i libucrtd:output.obj
 0001:0007c680       ?update_field_width@?$positional_parameter_base@DV?$stream_output_adapter@D@__crt_stdio_output@@@__crt_stdio_output@@IEAA_NXZ 000000018007d680 f i libucrtd:output.obj
 0001:0007c870       ?update_field_width@?$positional_parameter_base@DV?$string_output_adapter@D@__crt_stdio_output@@@__crt_stdio_output@@IEAA_NXZ 000000018007d870 f i libucrtd:output.obj
 0001:0007ca60       ?update_field_width@?$positional_parameter_base@_WV?$stream_output_adapter@_W@__crt_stdio_output@@@__crt_stdio_output@@IEAA_NXZ 000000018007da60 f i libucrtd:output.obj
 0001:0007cc50       ?update_field_width@?$positional_parameter_base@_WV?$string_output_adapter@_W@__crt_stdio_output@@@__crt_stdio_output@@IEAA_NXZ 000000018007dc50 f i libucrtd:output.obj
 0001:0007ce40       ?update_field_width@?$standard_base@DV?$stream_output_adapter@D@__crt_stdio_output@@@__crt_stdio_output@@IEAA_NXZ 000000018007de40 f i libucrtd:output.obj
 0001:0007ce70       ?update_field_width@?$standard_base@DV?$string_output_adapter@D@__crt_stdio_output@@@__crt_stdio_output@@IEAA_NXZ 000000018007de70 f i libucrtd:output.obj
 0001:0007cea0       ?update_field_width@?$standard_base@_WV?$stream_output_adapter@_W@__crt_stdio_output@@@__crt_stdio_output@@IEAA_NXZ 000000018007dea0 f i libucrtd:output.obj
 0001:0007ced0       ?update_field_width@?$standard_base@_WV?$string_output_adapter@_W@__crt_stdio_output@@@__crt_stdio_output@@IEAA_NXZ 000000018007ded0 f i libucrtd:output.obj
 0001:0007cf00       ?update_precision@?$positional_parameter_base@DV?$stream_output_adapter@D@__crt_stdio_output@@@__crt_stdio_output@@IEAA_NXZ 000000018007df00 f i libucrtd:output.obj
 0001:0007d0f0       ?update_precision@?$positional_parameter_base@DV?$string_output_adapter@D@__crt_stdio_output@@@__crt_stdio_output@@IEAA_NXZ 000000018007e0f0 f i libucrtd:output.obj
 0001:0007d2e0       ?update_precision@?$positional_parameter_base@_WV?$stream_output_adapter@_W@__crt_stdio_output@@@__crt_stdio_output@@IEAA_NXZ 000000018007e2e0 f i libucrtd:output.obj
 0001:0007d4d0       ?update_precision@?$positional_parameter_base@_WV?$string_output_adapter@_W@__crt_stdio_output@@@__crt_stdio_output@@IEAA_NXZ 000000018007e4d0 f i libucrtd:output.obj
 0001:0007d6c0       ?update_precision@?$standard_base@DV?$stream_output_adapter@D@__crt_stdio_output@@@__crt_stdio_output@@IEAA_NXZ 000000018007e6c0 f i libucrtd:output.obj
 0001:0007d6f0       ?update_precision@?$standard_base@DV?$string_output_adapter@D@__crt_stdio_output@@@__crt_stdio_output@@IEAA_NXZ 000000018007e6f0 f i libucrtd:output.obj
 0001:0007d720       ?update_precision@?$standard_base@_WV?$stream_output_adapter@_W@__crt_stdio_output@@@__crt_stdio_output@@IEAA_NXZ 000000018007e720 f i libucrtd:output.obj
 0001:0007d750       ?update_precision@?$standard_base@_WV?$string_output_adapter@_W@__crt_stdio_output@@@__crt_stdio_output@@IEAA_NXZ 000000018007e750 f i libucrtd:output.obj
 0001:0007d780       ?valid@__crt_stdio_stream@@QEBA_NXZ 000000018007e780 f i libucrtd:output.obj
 0001:0007d7b0       ?validate@?$stream_output_adapter@D@__crt_stdio_output@@QEBA_NXZ 000000018007e7b0 f i libucrtd:output.obj
 0001:0007d890       ?validate@?$stream_output_adapter@_W@__crt_stdio_output@@QEBA_NXZ 000000018007e890 f i libucrtd:output.obj
 0001:0007d970       ?validate@?$string_output_adapter@D@__crt_stdio_output@@QEBA_NXZ 000000018007e970 f i libucrtd:output.obj
 0001:0007da30       ?validate@?$string_output_adapter@_W@__crt_stdio_output@@QEBA_NXZ 000000018007ea30 f i libucrtd:output.obj
 0001:0007daf0       ?validate_and_store_parameter_data@?$positional_parameter_base@DV?$stream_output_adapter@D@__crt_stdio_output@@@__crt_stdio_output@@AEAA_NAEAUparameter_data@12@W4parameter_type@12@DW4length_modifier@2@@Z 000000018007eaf0 f i libucrtd:output.obj
 0001:0007dc10       ?validate_and_store_parameter_data@?$positional_parameter_base@DV?$string_output_adapter@D@__crt_stdio_output@@@__crt_stdio_output@@AEAA_NAEAUparameter_data@12@W4parameter_type@12@DW4length_modifier@2@@Z 000000018007ec10 f i libucrtd:output.obj
 0001:0007dd30       ?validate_and_store_parameter_data@?$positional_parameter_base@_WV?$stream_output_adapter@_W@__crt_stdio_output@@@__crt_stdio_output@@AEAA_NAEAUparameter_data@12@W4parameter_type@12@_WW4length_modifier@2@@Z 000000018007ed30 f i libucrtd:output.obj
 0001:0007de50       ?validate_and_store_parameter_data@?$positional_parameter_base@_WV?$string_output_adapter@_W@__crt_stdio_output@@@__crt_stdio_output@@AEAA_NAEAUparameter_data@12@W4parameter_type@12@_WW4length_modifier@2@@Z 000000018007ee50 f i libucrtd:output.obj
 0001:0007df70       ?validate_and_update_state_at_beginning_of_format_character@?$positional_parameter_base@DV?$stream_output_adapter@D@__crt_stdio_output@@@__crt_stdio_output@@IEAA_NXZ 000000018007ef70 f i libucrtd:output.obj
 0001:0007e250       ?validate_and_update_state_at_beginning_of_format_character@?$positional_parameter_base@DV?$string_output_adapter@D@__crt_stdio_output@@@__crt_stdio_output@@IEAA_NXZ 000000018007f250 f i libucrtd:output.obj
 0001:0007e530       ?validate_and_update_state_at_beginning_of_format_character@?$positional_parameter_base@_WV?$stream_output_adapter@_W@__crt_stdio_output@@@__crt_stdio_output@@IEAA_NXZ 000000018007f530 f i libucrtd:output.obj
 0001:0007e810       ?validate_and_update_state_at_beginning_of_format_character@?$positional_parameter_base@_WV?$string_output_adapter@_W@__crt_stdio_output@@@__crt_stdio_output@@IEAA_NXZ 000000018007f810 f i libucrtd:output.obj
 0001:0007eaf0       ?validate_and_update_state_at_beginning_of_format_character@?$standard_base@DV?$stream_output_adapter@D@__crt_stdio_output@@@__crt_stdio_output@@IEAA_NXZ 000000018007faf0 f i libucrtd:output.obj
 0001:0007eb00       ?validate_and_update_state_at_beginning_of_format_character@?$standard_base@DV?$string_output_adapter@D@__crt_stdio_output@@@__crt_stdio_output@@IEAA_NXZ 000000018007fb00 f i libucrtd:output.obj
 0001:0007eb10       ?validate_and_update_state_at_beginning_of_format_character@?$standard_base@_WV?$stream_output_adapter@_W@__crt_stdio_output@@@__crt_stdio_output@@IEAA_NXZ 000000018007fb10 f i libucrtd:output.obj
 0001:0007eb20       ?validate_and_update_state_at_beginning_of_format_character@?$standard_base@_WV?$string_output_adapter@_W@__crt_stdio_output@@@__crt_stdio_output@@IEAA_NXZ 000000018007fb20 f i libucrtd:output.obj
 0001:0007eb30       ?validate_and_update_state_at_end_of_format_string@?$format_validation_base@DV?$stream_output_adapter@D@__crt_stdio_output@@@__crt_stdio_output@@IEBA_NXZ 000000018007fb30 f i libucrtd:output.obj
 0001:0007ebf0       ?validate_and_update_state_at_end_of_format_string@?$format_validation_base@DV?$string_output_adapter@D@__crt_stdio_output@@@__crt_stdio_output@@IEBA_NXZ 000000018007fbf0 f i libucrtd:output.obj
 0001:0007ecb0       ?validate_and_update_state_at_end_of_format_string@?$format_validation_base@_WV?$stream_output_adapter@_W@__crt_stdio_output@@@__crt_stdio_output@@IEBA_NXZ 000000018007fcb0 f i libucrtd:output.obj
 0001:0007ed70       ?validate_and_update_state_at_end_of_format_string@?$format_validation_base@_WV?$string_output_adapter@_W@__crt_stdio_output@@@__crt_stdio_output@@IEBA_NXZ 000000018007fd70 f i libucrtd:output.obj
 0001:0007ee30       ?validate_and_update_state_at_end_of_format_string@?$positional_parameter_base@DV?$stream_output_adapter@D@__crt_stdio_output@@@__crt_stdio_output@@IEAA_NXZ 000000018007fe30 f i libucrtd:output.obj
 0001:0007f020       ?validate_and_update_state_at_end_of_format_string@?$positional_parameter_base@DV?$string_output_adapter@D@__crt_stdio_output@@@__crt_stdio_output@@IEAA_NXZ 0000000180080020 f i libucrtd:output.obj
 0001:0007f210       ?validate_and_update_state_at_end_of_format_string@?$positional_parameter_base@_WV?$stream_output_adapter@_W@__crt_stdio_output@@@__crt_stdio_output@@IEAA_NXZ 0000000180080210 f i libucrtd:output.obj
 0001:0007f400       ?validate_and_update_state_at_end_of_format_string@?$positional_parameter_base@_WV?$string_output_adapter@_W@__crt_stdio_output@@@__crt_stdio_output@@IEAA_NXZ 0000000180080400 f i libucrtd:output.obj
 0001:0007f5f0       ?validate_and_update_state_at_end_of_format_string@?$standard_base@DV?$stream_output_adapter@D@__crt_stdio_output@@@__crt_stdio_output@@IEBA_NXZ 00000001800805f0 f i libucrtd:output.obj
 0001:0007f600       ?validate_and_update_state_at_end_of_format_string@?$standard_base@DV?$string_output_adapter@D@__crt_stdio_output@@@__crt_stdio_output@@IEBA_NXZ 0000000180080600 f i libucrtd:output.obj
 0001:0007f610       ?validate_and_update_state_at_end_of_format_string@?$standard_base@_WV?$stream_output_adapter@_W@__crt_stdio_output@@@__crt_stdio_output@@IEBA_NXZ 0000000180080610 f i libucrtd:output.obj
 0001:0007f620       ?validate_and_update_state_at_end_of_format_string@?$standard_base@_WV?$string_output_adapter@_W@__crt_stdio_output@@@__crt_stdio_output@@IEBA_NXZ 0000000180080620 f i libucrtd:output.obj
 0001:0007f630       ?validate_state_for_type_case_a@?$positional_parameter_base@DV?$stream_output_adapter@D@__crt_stdio_output@@@__crt_stdio_output@@IEAA_NXZ 0000000180080630 f i libucrtd:output.obj
 0001:0007f770       ?validate_state_for_type_case_a@?$positional_parameter_base@DV?$string_output_adapter@D@__crt_stdio_output@@@__crt_stdio_output@@IEAA_NXZ 0000000180080770 f i libucrtd:output.obj
 0001:0007f8b0       ?validate_state_for_type_case_a@?$positional_parameter_base@_WV?$stream_output_adapter@_W@__crt_stdio_output@@@__crt_stdio_output@@IEAA_NXZ 00000001800808b0 f i libucrtd:output.obj
 0001:0007f9f0       ?validate_state_for_type_case_a@?$positional_parameter_base@_WV?$string_output_adapter@_W@__crt_stdio_output@@@__crt_stdio_output@@IEAA_NXZ 00000001800809f0 f i libucrtd:output.obj
 0001:0007fb30       ?validate_state_for_type_case_a@?$standard_base@DV?$stream_output_adapter@D@__crt_stdio_output@@@__crt_stdio_output@@IEBA_NXZ 0000000180080b30 f i libucrtd:output.obj
 0001:0007fb40       ?validate_state_for_type_case_a@?$standard_base@DV?$string_output_adapter@D@__crt_stdio_output@@@__crt_stdio_output@@IEBA_NXZ 0000000180080b40 f i libucrtd:output.obj
 0001:0007fb50       ?validate_state_for_type_case_a@?$standard_base@_WV?$stream_output_adapter@_W@__crt_stdio_output@@@__crt_stdio_output@@IEBA_NXZ 0000000180080b50 f i libucrtd:output.obj
 0001:0007fb60       ?validate_state_for_type_case_a@?$standard_base@_WV?$string_output_adapter@_W@__crt_stdio_output@@@__crt_stdio_output@@IEBA_NXZ 0000000180080b60 f i libucrtd:output.obj
 0001:0007fb70       ?validate_stream_is_ansi_if_required@?$__acrt_stdio_char_traits@D@@SA_NQEAU_iobuf@@@Z 0000000180080b70 f i libucrtd:output.obj
 0001:0007fd00       ?validate_stream_is_ansi_if_required@?$__acrt_stdio_char_traits@_W@@SA_NQEAU_iobuf@@@Z 0000000180080d00 f i libucrtd:output.obj
 0001:0007fd10       ?wide_null_string@?$output_processor@DV?$stream_output_adapter@D@__crt_stdio_output@@V?$format_validation_base@DV?$stream_output_adapter@D@__crt_stdio_output@@@2@@__crt_stdio_output@@CAPEA_WXZ 0000000180080d10 f i libucrtd:output.obj
 0001:0007fd20       ?wide_null_string@?$output_processor@DV?$stream_output_adapter@D@__crt_stdio_output@@V?$positional_parameter_base@DV?$stream_output_adapter@D@__crt_stdio_output@@@2@@__crt_stdio_output@@CAPEA_WXZ 0000000180080d20 f i libucrtd:output.obj
 0001:0007fd30       ?wide_null_string@?$output_processor@DV?$stream_output_adapter@D@__crt_stdio_output@@V?$standard_base@DV?$stream_output_adapter@D@__crt_stdio_output@@@2@@__crt_stdio_output@@CAPEA_WXZ 0000000180080d30 f i libucrtd:output.obj
 0001:0007fd40       ?wide_null_string@?$output_processor@DV?$string_output_adapter@D@__crt_stdio_output@@V?$format_validation_base@DV?$string_output_adapter@D@__crt_stdio_output@@@2@@__crt_stdio_output@@CAPEA_WXZ 0000000180080d40 f i libucrtd:output.obj
 0001:0007fd50       ?wide_null_string@?$output_processor@DV?$string_output_adapter@D@__crt_stdio_output@@V?$positional_parameter_base@DV?$string_output_adapter@D@__crt_stdio_output@@@2@@__crt_stdio_output@@CAPEA_WXZ 0000000180080d50 f i libucrtd:output.obj
 0001:0007fd60       ?wide_null_string@?$output_processor@DV?$string_output_adapter@D@__crt_stdio_output@@V?$standard_base@DV?$string_output_adapter@D@__crt_stdio_output@@@2@@__crt_stdio_output@@CAPEA_WXZ 0000000180080d60 f i libucrtd:output.obj
 0001:0007fd70       ?wide_null_string@?$output_processor@_WV?$stream_output_adapter@_W@__crt_stdio_output@@V?$format_validation_base@_WV?$stream_output_adapter@_W@__crt_stdio_output@@@2@@__crt_stdio_output@@CAPEA_WXZ 0000000180080d70 f i libucrtd:output.obj
 0001:0007fd80       ?wide_null_string@?$output_processor@_WV?$stream_output_adapter@_W@__crt_stdio_output@@V?$positional_parameter_base@_WV?$stream_output_adapter@_W@__crt_stdio_output@@@2@@__crt_stdio_output@@CAPEA_WXZ 0000000180080d80 f i libucrtd:output.obj
 0001:0007fd90       ?wide_null_string@?$output_processor@_WV?$stream_output_adapter@_W@__crt_stdio_output@@V?$standard_base@_WV?$stream_output_adapter@_W@__crt_stdio_output@@@2@@__crt_stdio_output@@CAPEA_WXZ 0000000180080d90 f i libucrtd:output.obj
 0001:0007fda0       ?wide_null_string@?$output_processor@_WV?$string_output_adapter@_W@__crt_stdio_output@@V?$format_validation_base@_WV?$string_output_adapter@_W@__crt_stdio_output@@@2@@__crt_stdio_output@@CAPEA_WXZ 0000000180080da0 f i libucrtd:output.obj
 0001:0007fdb0       ?wide_null_string@?$output_processor@_WV?$string_output_adapter@_W@__crt_stdio_output@@V?$positional_parameter_base@_WV?$string_output_adapter@_W@__crt_stdio_output@@@2@@__crt_stdio_output@@CAPEA_WXZ 0000000180080db0 f i libucrtd:output.obj
 0001:0007fdc0       ?wide_null_string@?$output_processor@_WV?$string_output_adapter@_W@__crt_stdio_output@@V?$standard_base@_WV?$string_output_adapter@_W@__crt_stdio_output@@@2@@__crt_stdio_output@@CAPEA_WXZ 0000000180080dc0 f i libucrtd:output.obj
 0001:0007fdd0       ?write_character@?$stream_output_adapter@D@__crt_stdio_output@@QEBAXDQEAH@Z 0000000180080dd0 f i libucrtd:output.obj
 0001:0007fe70       ?write_character@?$stream_output_adapter@_W@__crt_stdio_output@@QEBAX_WQEAH@Z 0000000180080e70 f i libucrtd:output.obj
 0001:0007ff10       ?write_character@?$string_output_adapter@D@__crt_stdio_output@@QEBA_NDQEAH@Z 0000000180080f10 f i libucrtd:output.obj
 0001:0007ffd0       ?write_character@?$string_output_adapter@_W@__crt_stdio_output@@QEBA_N_WQEAH@Z 0000000180080fd0 f i libucrtd:output.obj
 0001:00080090       ?write_stored_string_tchar@?$output_processor@DV?$stream_output_adapter@D@__crt_stdio_output@@V?$format_validation_base@DV?$stream_output_adapter@D@__crt_stdio_output@@@2@@__crt_stdio_output@@AEAA_ND@Z 0000000180081090 f i libucrtd:output.obj
 0001:000801f0       ?write_stored_string_tchar@?$output_processor@DV?$stream_output_adapter@D@__crt_stdio_output@@V?$positional_parameter_base@DV?$stream_output_adapter@D@__crt_stdio_output@@@2@@__crt_stdio_output@@AEAA_ND@Z 00000001800811f0 f i libucrtd:output.obj
 0001:00080350       ?write_stored_string_tchar@?$output_processor@DV?$stream_output_adapter@D@__crt_stdio_output@@V?$standard_base@DV?$stream_output_adapter@D@__crt_stdio_output@@@2@@__crt_stdio_output@@AEAA_ND@Z 0000000180081350 f i libucrtd:output.obj
 0001:000804b0       ?write_stored_string_tchar@?$output_processor@DV?$string_output_adapter@D@__crt_stdio_output@@V?$format_validation_base@DV?$string_output_adapter@D@__crt_stdio_output@@@2@@__crt_stdio_output@@AEAA_ND@Z 00000001800814b0 f i libucrtd:output.obj
 0001:00080610       ?write_stored_string_tchar@?$output_processor@DV?$string_output_adapter@D@__crt_stdio_output@@V?$positional_parameter_base@DV?$string_output_adapter@D@__crt_stdio_output@@@2@@__crt_stdio_output@@AEAA_ND@Z 0000000180081610 f i libucrtd:output.obj
 0001:00080770       ?write_stored_string_tchar@?$output_processor@DV?$string_output_adapter@D@__crt_stdio_output@@V?$standard_base@DV?$string_output_adapter@D@__crt_stdio_output@@@2@@__crt_stdio_output@@AEAA_ND@Z 0000000180081770 f i libucrtd:output.obj
 0001:000808d0       ?write_stored_string_tchar@?$output_processor@_WV?$stream_output_adapter@_W@__crt_stdio_output@@V?$format_validation_base@_WV?$stream_output_adapter@_W@__crt_stdio_output@@@2@@__crt_stdio_output@@AEAA_N_W@Z 00000001800818d0 f i libucrtd:output.obj
 0001:00080a10       ?write_stored_string_tchar@?$output_processor@_WV?$stream_output_adapter@_W@__crt_stdio_output@@V?$positional_parameter_base@_WV?$stream_output_adapter@_W@__crt_stdio_output@@@2@@__crt_stdio_output@@AEAA_N_W@Z 0000000180081a10 f i libucrtd:output.obj
 0001:00080b50       ?write_stored_string_tchar@?$output_processor@_WV?$stream_output_adapter@_W@__crt_stdio_output@@V?$standard_base@_WV?$stream_output_adapter@_W@__crt_stdio_output@@@2@@__crt_stdio_output@@AEAA_N_W@Z 0000000180081b50 f i libucrtd:output.obj
 0001:00080c90       ?write_stored_string_tchar@?$output_processor@_WV?$string_output_adapter@_W@__crt_stdio_output@@V?$format_validation_base@_WV?$string_output_adapter@_W@__crt_stdio_output@@@2@@__crt_stdio_output@@AEAA_N_W@Z 0000000180081c90 f i libucrtd:output.obj
 0001:00080dd0       ?write_stored_string_tchar@?$output_processor@_WV?$string_output_adapter@_W@__crt_stdio_output@@V?$positional_parameter_base@_WV?$string_output_adapter@_W@__crt_stdio_output@@@2@@__crt_stdio_output@@AEAA_N_W@Z 0000000180081dd0 f i libucrtd:output.obj
 0001:00080f10       ?write_stored_string_tchar@?$output_processor@_WV?$string_output_adapter@_W@__crt_stdio_output@@V?$standard_base@_WV?$string_output_adapter@_W@__crt_stdio_output@@@2@@__crt_stdio_output@@AEAA_N_W@Z 0000000180081f10 f i libucrtd:output.obj
 0001:00081050       ?write_string@?$stream_output_adapter@D@__crt_stdio_output@@QEBAXQEBDHQEAH1@Z 0000000180082050 f i libucrtd:output.obj
 0001:00081150       ?write_string@?$stream_output_adapter@_W@__crt_stdio_output@@QEBAXQEB_WHQEAH1@Z 0000000180082150 f i libucrtd:output.obj
 0001:00081250       ?write_string@?$string_output_adapter@D@__crt_stdio_output@@QEBAXQEBDHQEAH1@Z 0000000180082250 f i libucrtd:output.obj
 0001:000813d0       ?write_string@?$string_output_adapter@_W@__crt_stdio_output@@QEBAXQEB_WHQEAH1@Z 00000001800823d0 f i libucrtd:output.obj
 0001:00081560       __acrt_isleadbyte_l_noupdate 0000000180082560 f i libucrtd:output.obj
 0001:00081590       __acrt_locale_changed      0000000180082590 f i libucrtd:output.obj
 0001:000815c0       __stdio_common_vfprintf    00000001800825c0 f   libucrtd:output.obj
 0001:00081600       __stdio_common_vfprintf_p  0000000180082600 f   libucrtd:output.obj
 0001:00081640       __stdio_common_vfprintf_s  0000000180082640 f   libucrtd:output.obj
 0001:00081680       __stdio_common_vfwprintf   0000000180082680 f   libucrtd:output.obj
 0001:000816c0       __stdio_common_vfwprintf_p 00000001800826c0 f   libucrtd:output.obj
 0001:00081700       __stdio_common_vfwprintf_s 0000000180082700 f   libucrtd:output.obj
 0001:00081740       __stdio_common_vsnprintf_s 0000000180082740 f   libucrtd:output.obj
 0001:000817a0       __stdio_common_vsnwprintf_s 00000001800827a0 f   libucrtd:output.obj
 0001:00081800       __stdio_common_vsprintf    0000000180082800 f   libucrtd:output.obj
 0001:00081850       __stdio_common_vsprintf_p  0000000180082850 f   libucrtd:output.obj
 0001:000818a0       __stdio_common_vsprintf_s  00000001800828a0 f   libucrtd:output.obj
 0001:000818f0       __stdio_common_vswprintf   00000001800828f0 f   libucrtd:output.obj
 0001:00081940       __stdio_common_vswprintf_p 0000000180082940 f   libucrtd:output.obj
 0001:00081990       __stdio_common_vswprintf_s 0000000180082990 f   libucrtd:output.obj
 0001:000819e0       free                       00000001800829e0 f   libucrtd:free.obj
 0001:00081a00       malloc                     0000000180082a00 f   libucrtd:malloc.obj
 0001:00081a30       ??$?RU?$__crt_report_hook_node@D@@@__crt_internal_free_policy@@QEBAXQEBU?$__crt_report_hook_node@D@@@Z 0000000180082a30 f i libucrtd:dbgrpt.obj
 0001:00081a60       ??$?RU?$__crt_report_hook_node@_W@@@__crt_internal_free_policy@@QEBAXQEBU?$__crt_report_hook_node@_W@@@Z 0000000180082a60 f i libucrtd:dbgrpt.obj
 0001:00081a90       ??$?RV<lambda_48a95ab302c68b6787c202ce7b2428f2>@@AEAV<lambda_be7e00bcb36969a0670e3c91fd6c4917>@@V<lambda_95ad94005304955f3afd56db85f2c0f0>@@@?$__crt_seh_guarded_call@H@@QEAAH$$QEAV<lambda_48a95ab302c68b6787c202ce7b2428f2>@@AEAV<lambda_be7e00bcb36969a0670e3c91fd6c4917>@@$$QEAV<lambda_95ad94005304955f3afd56db85f2c0f0>@@@Z 0000000180082a90 f i libucrtd:dbgrpt.obj
 0001:00081ae0       ??$?RV<lambda_af6322564f367be6e210c9b3b377439e>@@AEAV<lambda_ade3d750d30aed7d611b25c09e4cbaa9>@@V<lambda_f1c030d06c6692bdc9654ba3f7602b04>@@@?$__crt_seh_guarded_call@H@@QEAAH$$QEAV<lambda_af6322564f367be6e210c9b3b377439e>@@AEAV<lambda_ade3d750d30aed7d611b25c09e4cbaa9>@@$$QEAV<lambda_f1c030d06c6692bdc9654ba3f7602b04>@@@Z 0000000180082ae0 f i libucrtd:dbgrpt.obj
 0001:00081b30       ??$__acrt_lock_and_call@V<lambda_ade3d750d30aed7d611b25c09e4cbaa9>@@@@YAHW4__acrt_lock_id@@$$QEAV<lambda_ade3d750d30aed7d611b25c09e4cbaa9>@@@Z 0000000180082b30 f i libucrtd:dbgrpt.obj
 0001:00081ba0       ??$__acrt_lock_and_call@V<lambda_be7e00bcb36969a0670e3c91fd6c4917>@@@@YAHW4__acrt_lock_id@@$$QEAV<lambda_be7e00bcb36969a0670e3c91fd6c4917>@@@Z 0000000180082ba0 f i libucrtd:dbgrpt.obj
 0001:00081c10       ??$__vcrt_va_start_verify_argument_type@QEBD@@YAXXZ 0000000180082c10 f i libucrtd:dbgrpt.obj
 0001:00081c20       ??$__vcrt_va_start_verify_argument_type@QEB_W@@YAXXZ 0000000180082c20 f i libucrtd:dbgrpt.obj
 0001:00082cc0       ??$get_module_file_name@AEAPEAUHINSTANCE__@@AEAY0BAF@DK@?$__crt_char_traits@D@@SAKAEAPEAUHINSTANCE__@@AEAY0BAF@D$$QEAK@Z 0000000180083cc0 f i libucrtd:dbgrpt.obj
 0001:00082d00       ??$get_module_file_name@AEAPEAUHINSTANCE__@@AEAY0BAF@_WK@?$__crt_char_traits@_W@@SAKAEAPEAUHINSTANCE__@@AEAY0BAF@_W$$QEAK@Z 0000000180083d00 f i libucrtd:dbgrpt.obj
 0001:00082d40       ??$tcscpy_s@AEAY0BAF@D_KPEBD@?$__crt_char_traits@D@@SAHAEAY0BAF@D$$QEA_K$$QEAPEBD@Z 0000000180083d40 f i libucrtd:dbgrpt.obj
 0001:00082d80       ??$tcscpy_s@AEAY0BAF@_W_KPEB_W@?$__crt_char_traits@_W@@SAHAEAY0BAF@_W$$QEA_K$$QEAPEB_W@Z 0000000180083d80 f i libucrtd:dbgrpt.obj
 0001:00082dc0       ??$tcslen@AEAY0BAF@D@?$__crt_char_traits@D@@SA_KAEAY0BAF@D@Z 0000000180083dc0 f i libucrtd:dbgrpt.obj
 0001:00082de0       ??$tcslen@AEAY0BAF@_W@?$__crt_char_traits@_W@@SA_KAEAY0BAF@_W@Z 0000000180083de0 f i libucrtd:dbgrpt.obj
 0001:00082e00       ??$tcslen@AEBQEBD@?$__crt_char_traits@D@@SA_KAEBQEBD@Z 0000000180083e00 f i libucrtd:dbgrpt.obj
 0001:00082e20       ??$tcslen@AEBQEB_W@?$__crt_char_traits@_W@@SA_KAEBQEB_W@Z 0000000180083e20 f i libucrtd:dbgrpt.obj
 0001:00082f20       ??0?$__crt_unique_heap_ptr@U?$__crt_report_hook_node@D@@U__crt_internal_free_policy@@@@QEAA@QEAU?$__crt_report_hook_node@D@@@Z 0000000180083f20 f i libucrtd:dbgrpt.obj
 0001:00082f40       ??0?$__crt_unique_heap_ptr@U?$__crt_report_hook_node@_W@@U__crt_internal_free_policy@@@@QEAA@QEAU?$__crt_report_hook_node@_W@@@Z 0000000180083f40 f i libucrtd:dbgrpt.obj
 0001:00082f60       ??1?$__crt_unique_heap_ptr@U?$__crt_report_hook_node@D@@U__crt_internal_free_policy@@@@QEAA@XZ 0000000180083f60 f i libucrtd:dbgrpt.obj
 0001:00082f80       ??1?$__crt_unique_heap_ptr@U?$__crt_report_hook_node@_W@@U__crt_internal_free_policy@@@@QEAA@XZ 0000000180083f80 f i libucrtd:dbgrpt.obj
 0001:00082fa0       ??B?$__crt_unique_heap_ptr@U?$__crt_report_hook_node@D@@U__crt_internal_free_policy@@@@QEBA_NXZ 0000000180083fa0 f i libucrtd:dbgrpt.obj
 0001:00082fc0       ??B?$__crt_unique_heap_ptr@U?$__crt_report_hook_node@_W@@U__crt_internal_free_policy@@@@QEBA_NXZ 0000000180083fc0 f i libucrtd:dbgrpt.obj
 0001:000836a0       ?detach@?$__crt_unique_heap_ptr@U?$__crt_report_hook_node@D@@U__crt_internal_free_policy@@@@QEAAPEAU?$__crt_report_hook_node@D@@XZ 00000001800846a0 f i libucrtd:dbgrpt.obj
 0001:000836d0       ?detach@?$__crt_unique_heap_ptr@U?$__crt_report_hook_node@_W@@U__crt_internal_free_policy@@@@QEAAPEAU?$__crt_report_hook_node@_W@@XZ 00000001800846d0 f i libucrtd:dbgrpt.obj
 0001:00083700       ?get@?$__crt_unique_heap_ptr@U?$__crt_report_hook_node@D@@U__crt_internal_free_policy@@@@QEBAPEAU?$__crt_report_hook_node@D@@XZ 0000000180084700 f i libucrtd:dbgrpt.obj
 0001:00083710       ?get@?$__crt_unique_heap_ptr@U?$__crt_report_hook_node@_W@@U__crt_internal_free_policy@@@@QEBAPEAU?$__crt_report_hook_node@_W@@XZ 0000000180084710 f i libucrtd:dbgrpt.obj
 0001:00083780       ?is_valid@?$__crt_unique_heap_ptr@U?$__crt_report_hook_node@D@@U__crt_internal_free_policy@@@@QEBA_NXZ 0000000180084780 f i libucrtd:dbgrpt.obj
 0001:000837b0       ?is_valid@?$__crt_unique_heap_ptr@U?$__crt_report_hook_node@_W@@U__crt_internal_free_policy@@@@QEBA_NXZ 00000001800847b0 f i libucrtd:dbgrpt.obj
 0001:000837e0       ?release@?$__crt_unique_heap_ptr@U?$__crt_report_hook_node@D@@U__crt_internal_free_policy@@@@QEAAXXZ 00000001800847e0 f i libucrtd:dbgrpt.obj
 0001:00083820       ?release@?$__crt_unique_heap_ptr@U?$__crt_report_hook_node@_W@@U__crt_internal_free_policy@@@@QEAAXXZ 0000000180084820 f i libucrtd:dbgrpt.obj
 0001:00083860       _CrtDbgReport              0000000180084860 f   libucrtd:dbgrpt.obj
 0001:000838e0       _CrtDbgReportW             00000001800848e0 f   libucrtd:dbgrpt.obj
 0001:00083960       _CrtSetReportHook2         0000000180084960 f   libucrtd:dbgrpt.obj
 0001:00083980       _CrtSetReportHookW2        0000000180084980 f   libucrtd:dbgrpt.obj
 0001:000839a0       __acrt_MessageWindowA      00000001800849a0 f   libucrtd:dbgrpt.obj
 0001:000839f0       __acrt_MessageWindowW      00000001800849f0 f   libucrtd:dbgrpt.obj
 0001:00083a40       _invoke_watson_if_error    0000000180084a40 f i libucrtd:dbgrpt.obj
 0001:00083a90       _invoke_watson_if_oneof    0000000180084a90 f i libucrtd:dbgrpt.obj
 0001:00083af0       _snwprintf_s               0000000180084af0 f i libucrtd:dbgrpt.obj
 0001:00083b60       _vsnwprintf_s_l            0000000180084b60 f i libucrtd:dbgrpt.obj
 0001:000840c0       wcscpy_s                   00000001800850c0 f   libucrtd:wcscpy_s.obj
 0001:000840f0       wcslen                     00000001800850f0 f   libucrtd:wcslen.obj
 0001:00084140       ??$__crt_fast_decode_pointer@P6AXPEB_W00I_K@Z@@YAP6AXPEB_W00I_K@ZQ6AX000I1@Z@Z 0000000180085140 f i libucrtd:invalid_parameter.obj
 0001:00084180       ??$__crt_fast_encode_pointer@P6AXPEB_W00I_K@Z@@YAP6AXPEB_W00I_K@ZQ6AX000I1@Z@Z 0000000180085180 f i libucrtd:invalid_parameter.obj
 0001:00084260       ?get_current_state_index@__crt_state_management@@YA_KXZ 0000000180085260 f i libucrtd:invalid_parameter.obj
 0001:00084270       ?initialize@?$dual_state_global@P6AXPEB_W00I_K@Z@__crt_state_management@@QEAAXQ6AXPEB_W00I_K@Z@Z 0000000180085270 f i libucrtd:invalid_parameter.obj
 0001:000842c0       ?value@?$dual_state_global@P6AXPEB_W00I_K@Z@__crt_state_management@@QEAAAEAP6AXPEB_W00I_K@ZXZ 00000001800852c0 f i libucrtd:invalid_parameter.obj
 0001:000842e0       __acrt_call_reportfault    00000001800852e0 f   libucrtd:invalid_parameter.obj
 0001:00084410       __acrt_initialize_invalid_parameter_handler 0000000180085410 f   libucrtd:invalid_parameter.obj
 0001:00084430       _get_invalid_parameter_handler 0000000180085430 f   libucrtd:invalid_parameter.obj
 0001:00084450       _get_thread_local_invalid_parameter_handler 0000000180085450 f   libucrtd:invalid_parameter.obj
 0001:00084480       _invalid_parameter         0000000180085480 f   libucrtd:invalid_parameter.obj
 0001:00084590       _invalid_parameter_noinfo  0000000180085590 f   libucrtd:invalid_parameter.obj
 0001:000845c0       _invalid_parameter_noinfo_noreturn 00000001800855c0 f   libucrtd:invalid_parameter.obj
 0001:00084600       _invoke_watson             0000000180085600 f   libucrtd:invalid_parameter.obj
 0001:00084660       _set_invalid_parameter_handler 0000000180085660 f   libucrtd:invalid_parameter.obj
 0001:000846b0       _set_thread_local_invalid_parameter_handler 00000001800856b0 f   libucrtd:invalid_parameter.obj
 0001:000846f0       __acrt_errno_from_os_error 00000001800856f0 f   libucrtd:errno.obj
 0001:00084780       __acrt_errno_map_os_error  0000000180085780 f   libucrtd:errno.obj
 0001:000847b0       __doserrno                 00000001800857b0 f   libucrtd:errno.obj
 0001:000847e0       _errno                     00000001800857e0 f   libucrtd:errno.obj
 0001:00084810       _get_doserrno              0000000180085810 f   libucrtd:errno.obj
 0001:000848d0       _get_errno                 00000001800858d0 f   libucrtd:errno.obj
 0001:00084990       _set_doserrno              0000000180085990 f   libucrtd:errno.obj
 0001:000849d0       _set_errno                 00000001800859d0 f   libucrtd:errno.obj
 0001:00084a10       calloc                     0000000180085a10 f   libucrtd:calloc.obj
 0001:00084a50       _recalloc                  0000000180085a50 f   libucrtd:recalloc.obj
 0001:00084aa0       _recalloc_base             0000000180085aa0 f   libucrtd:recalloc.obj
 0001:00084b7c       _resetstkoflw              0000000180085b7c f   libucrtd:resetstk.obj
 0001:00085320       wcscat_s                   0000000180086320 f   libucrtd:wcscat_s.obj
 0001:000859e0       wcsncpy_s                  00000001800869e0 f   libucrtd:wcsncpy_s.obj
 0001:00085a40       __acrt_get_locale_data_prefix 0000000180086a40 f i libucrtd:_ctype.obj
 0001:00085a60       __isascii                  0000000180086a60 f i libucrtd:_ctype.obj
 0001:00085a90       __iscsym                   0000000180086a90 f i libucrtd:_ctype.obj
 0001:00085ad0       __iscsymf                  0000000180086ad0 f i libucrtd:_ctype.obj
 0001:00085b10       __toascii                  0000000180086b10 f i libucrtd:_ctype.obj
 0001:00085b20       _chvalidchk_l              0000000180086b20 f i libucrtd:_ctype.obj
 0001:00085b50       _isalnum_l                 0000000180086b50 f i libucrtd:_ctype.obj
 0001:00085ba0       _isalpha_l                 0000000180086ba0 f i libucrtd:_ctype.obj
 0001:00085bf0       _isblank_l                 0000000180086bf0 f i libucrtd:_ctype.obj
 0001:00085c60       _ischartype_l              0000000180086c60 f i libucrtd:_ctype.obj
 0001:00085cc0       _iscntrl_l                 0000000180086cc0 f i libucrtd:_ctype.obj
 0001:00085d10       _iscsym_l                  0000000180086d10 f i libucrtd:_ctype.obj
 0001:00085d60       _iscsymf_l                 0000000180086d60 f i libucrtd:_ctype.obj
 0001:00085db0       _isdigit_l                 0000000180086db0 f i libucrtd:_ctype.obj
 0001:00085e00       _isgraph_l                 0000000180086e00 f i libucrtd:_ctype.obj
 0001:00085e50       _islower_l                 0000000180086e50 f i libucrtd:_ctype.obj
 0001:00085ea0       _isprint_l                 0000000180086ea0 f i libucrtd:_ctype.obj
 0001:00085ef0       _ispunct_l                 0000000180086ef0 f i libucrtd:_ctype.obj
 0001:00085f40       _isspace_l                 0000000180086f40 f i libucrtd:_ctype.obj
 0001:00085f90       _isupper_l                 0000000180086f90 f i libucrtd:_ctype.obj
 0001:00085fe0       _isxdigit_l                0000000180086fe0 f i libucrtd:_ctype.obj
 0001:00086030       isalnum                    0000000180087030 f i libucrtd:_ctype.obj
 0001:00086070       isalpha                    0000000180087070 f i libucrtd:_ctype.obj
 0001:000860b0       isblank                    00000001800870b0 f i libucrtd:_ctype.obj
 0001:00086110       iscntrl                    0000000180087110 f i libucrtd:_ctype.obj
 0001:00086150       isdigit                    0000000180087150 f i libucrtd:_ctype.obj
 0001:00086190       isgraph                    0000000180087190 f i libucrtd:_ctype.obj
 0001:000861d0       islower                    00000001800871d0 f i libucrtd:_ctype.obj
 0001:00086210       isprint                    0000000180087210 f i libucrtd:_ctype.obj
 0001:00086250       ispunct                    0000000180087250 f i libucrtd:_ctype.obj
 0001:00086290       isspace                    0000000180087290 f i libucrtd:_ctype.obj
 0001:000862d0       isupper                    00000001800872d0 f i libucrtd:_ctype.obj
 0001:00086310       isxdigit                   0000000180087310 f i libucrtd:_ctype.obj
 0001:00086350       wcscat                     0000000180087350 f   libucrtd:wcscat.obj
 0001:000863d0       wcscpy                     00000001800873d0 f   libucrtd:wcscpy.obj
 0001:00086b80       ??$open_file@AEBQEBDAEBQEBDAEBHPEAU_iobuf@@@?$__crt_char_traits@D@@SAPEAU_iobuf@@AEBQEBD0AEBH$$QEAPEAU1@@Z 0000000180087b80 f i libucrtd:fopen.obj
 0001:00086bd0       ??$open_file@AEBQEB_WAEBQEB_WAEBHPEAU_iobuf@@@?$__crt_char_traits@_W@@SAPEAU_iobuf@@AEBQEB_W0AEBH$$QEAPEAU1@@Z 0000000180087bd0 f i libucrtd:fopen.obj
 0001:00086c20       ?unlock@__crt_stdio_stream@@QEBAXXZ 0000000180087c20 f i libucrtd:fopen.obj
 0001:00086c40       _fsopen                    0000000180087c40 f   libucrtd:fopen.obj
 0001:00086c70       _wfopen                    0000000180087c70 f   libucrtd:fopen.obj
 0001:00086ca0       _wfopen_s                  0000000180087ca0 f   libucrtd:fopen.obj
 0001:00086cd0       _wfsopen                   0000000180087cd0 f   libucrtd:fopen.obj
 0001:00086d00       fopen                      0000000180087d00 f   libucrtd:fopen.obj
 0001:00086d30       fopen_s                    0000000180087d30 f   libucrtd:fopen.obj
 0001:00086d60       ?is_in_use@__crt_stdio_stream@@QEBA_NXZ 0000000180087d60 f i libucrtd:fclose.obj
 0001:00086da0       _fclose_nolock             0000000180087da0 f   libucrtd:fclose.obj
 0001:00086f30       fclose                     0000000180087f30 f   libucrtd:fclose.obj
 0001:00087070       _fputc_nolock              0000000180088070 f   libucrtd:fputc.obj
 0001:00087120       _fputchar                  0000000180088120 f   libucrtd:fputc.obj
 0001:00087150       _putc_nolock               0000000180088150 f   libucrtd:fputc.obj
 0001:00087170       fputc                      0000000180088170 f   libucrtd:fputc.obj
 0001:00087410       putc                       0000000180088410 f   libucrtd:fputc.obj
 0001:00087430       putchar                    0000000180088430 f   libucrtd:fputc.obj
 0001:000874c0       _seh_filter_dll            00000001800884c0 f   libucrtd:exception_filter.obj
 0001:000874f0       _seh_filter_exe            00000001800884f0 f   libucrtd:exception_filter.obj
 0001:000877a0       ??$?B$$A6AXPEAXK0@Z@__crt_fast_encoded_nullptr_t@@QEBAP6AXPEAXK0@ZXZ 00000001800887a0 f i libucrtd:exit.obj
 0001:000877c0       ??$__crt_fast_decode_pointer@P6AXPEAXK0@Z@@YAP6AXPEAXK0@ZQ6AX0K0@Z@Z 00000001800887c0 f i libucrtd:exit.obj
 0001:00087800       ??$__crt_fast_encode_pointer@P6AXPEAXK0@Z@@YAP6AXPEAXK0@ZQ6AX0K0@Z@Z 0000000180088800 f i libucrtd:exit.obj
 0001:00087840       ??$__crt_get_proc_address@P6AXI@Z@@YAP6AXI@ZQEAUHINSTANCE__@@QEBD@Z 0000000180088840 f i libucrtd:exit.obj
 0001:00087870       ??0?$__crt_unique_handle_t@U__crt_hmodule_traits@@@@QEAA@QEAUHINSTANCE__@@@Z 0000000180088870 f i libucrtd:exit.obj
 0001:00087890       ??1?$__crt_unique_handle_t@U__crt_hmodule_traits@@@@QEAA@XZ 0000000180088890 f i libucrtd:exit.obj
 0001:000878d0       ?close@?$__crt_unique_handle_t@U__crt_hmodule_traits@@@@QEAAXXZ 00000001800888d0 f i libucrtd:exit.obj
 0001:00087910       ?close@__crt_hmodule_traits@@SA_NPEAUHINSTANCE__@@@Z 0000000180088910 f i libucrtd:exit.obj
 0001:00087ae0       ?get@?$__crt_unique_handle_t@U__crt_hmodule_traits@@@@QEBAPEAUHINSTANCE__@@XZ 0000000180088ae0 f i libucrtd:exit.obj
 0001:00087af0       ?get_address_of@?$__crt_unique_handle_t@U__crt_hmodule_traits@@@@QEAAPEAPEAUHINSTANCE__@@XZ 0000000180088af0 f i libucrtd:exit.obj
 0001:00087b00       ?get_invalid_value@__crt_hmodule_traits@@SAPEAUHINSTANCE__@@XZ 0000000180088b00 f i libucrtd:exit.obj
 0001:00087cd0       _Exit                      0000000180088cd0 f   libucrtd:exit.obj
 0001:00087cf0       __acrt_initialize_thread_local_exit_callback 0000000180088cf0 f   libucrtd:exit.obj
 0001:00087d10       _c_exit                    0000000180088d10 f   libucrtd:exit.obj
 0001:00087d30       _cexit                     0000000180088d30 f   libucrtd:exit.obj
 0001:00087d50       _exit                      0000000180088d50 f   libucrtd:exit.obj
 0001:00087d70       _is_c_termination_complete 0000000180088d70 f   libucrtd:exit.obj
 0001:00087d90       _register_thread_local_exe_atexit_callback 0000000180088d90 f   libucrtd:exit.obj
 0001:00087de0       exit                       0000000180088de0 f   libucrtd:exit.obj
 0001:00087e00       quick_exit                 0000000180088e00 f   libucrtd:exit.obj
 0001:00087e20       ??$?RE@__crt_internal_free_policy@@QEBAXQEBE@Z 0000000180088e20 f i libucrtd:argv_parsing.obj
 0001:00087e50       ??$?RPEAD@__crt_internal_free_policy@@QEBAXQEBQEAD@Z 0000000180088e50 f i libucrtd:argv_parsing.obj
 0001:00087e80       ??$?RPEA_W@__crt_internal_free_policy@@QEBAXQEBQEA_W@Z 0000000180088e80 f i libucrtd:argv_parsing.obj
 0001:000885b0       ??$get_module_file_name@$$TAEAY0BAF@DH@?$__crt_char_traits@D@@SAK$$QEA$$TAEAY0BAF@D$$QEAH@Z 00000001800895b0 f i libucrtd:argv_parsing.obj
 0001:000885f0       ??$get_module_file_name@$$TAEAY0BAF@_WH@?$__crt_char_traits@_W@@SAK$$QEA$$TAEAY0BAF@_W$$QEAH@Z 00000001800895f0 f i libucrtd:argv_parsing.obj
 0001:00088fa0       ??$set_program_name@PEAD@?$__crt_char_traits@D@@SAX$$QEAPEAD@Z 0000000180089fa0 f i libucrtd:argv_parsing.obj
 0001:00088fc0       ??$set_program_name@PEA_W@?$__crt_char_traits@_W@@SAX$$QEAPEA_W@Z 0000000180089fc0 f i libucrtd:argv_parsing.obj
 0001:00089020       ??0?$__crt_unique_heap_ptr@EU__crt_internal_free_policy@@@@QEAA@QEAE@Z 000000018008a020 f i libucrtd:argv_parsing.obj
 0001:00089040       ??0?$__crt_unique_heap_ptr@PEADU__crt_internal_free_policy@@@@QEAA@QEAPEAD@Z 000000018008a040 f i libucrtd:argv_parsing.obj
 0001:00089060       ??0?$__crt_unique_heap_ptr@PEA_WU__crt_internal_free_policy@@@@QEAA@QEAPEA_W@Z 000000018008a060 f i libucrtd:argv_parsing.obj
 0001:00089080       ??1?$__crt_unique_heap_ptr@EU__crt_internal_free_policy@@@@QEAA@XZ 000000018008a080 f i libucrtd:argv_parsing.obj
 0001:000890a0       ??1?$__crt_unique_heap_ptr@PEADU__crt_internal_free_policy@@@@QEAA@XZ 000000018008a0a0 f i libucrtd:argv_parsing.obj
 0001:000890c0       ??1?$__crt_unique_heap_ptr@PEA_WU__crt_internal_free_policy@@@@QEAA@XZ 000000018008a0c0 f i libucrtd:argv_parsing.obj
 0001:000890e0       ??B?$__crt_unique_heap_ptr@EU__crt_internal_free_policy@@@@QEBA_NXZ 000000018008a0e0 f i libucrtd:argv_parsing.obj
 0001:000891c0       ?detach@?$__crt_unique_heap_ptr@EU__crt_internal_free_policy@@@@QEAAPEAEXZ 000000018008a1c0 f i libucrtd:argv_parsing.obj
 0001:000891f0       ?detach@?$__crt_unique_heap_ptr@PEADU__crt_internal_free_policy@@@@QEAAPEAPEADXZ 000000018008a1f0 f i libucrtd:argv_parsing.obj
 0001:00089220       ?detach@?$__crt_unique_heap_ptr@PEA_WU__crt_internal_free_policy@@@@QEAAPEAPEA_WXZ 000000018008a220 f i libucrtd:argv_parsing.obj
 0001:000892e0       ?get@?$__crt_unique_heap_ptr@EU__crt_internal_free_policy@@@@QEBAPEAEXZ 000000018008a2e0 f i libucrtd:argv_parsing.obj
 0001:000892f0       ?get@?$__crt_unique_heap_ptr@PEADU__crt_internal_free_policy@@@@QEBAPEAPEADXZ 000000018008a2f0 f i libucrtd:argv_parsing.obj
 0001:00089300       ?get@?$__crt_unique_heap_ptr@PEA_WU__crt_internal_free_policy@@@@QEBAPEAPEA_WXZ 000000018008a300 f i libucrtd:argv_parsing.obj
 0001:00089310       ?get_address_of@?$__crt_unique_heap_ptr@PEADU__crt_internal_free_policy@@@@QEAAPEAPEAPEADXZ 000000018008a310 f i libucrtd:argv_parsing.obj
 0001:00089320       ?get_address_of@?$__crt_unique_heap_ptr@PEA_WU__crt_internal_free_policy@@@@QEAAPEAPEAPEA_WXZ 000000018008a320 f i libucrtd:argv_parsing.obj
 0001:00089370       ?is_valid@?$__crt_unique_heap_ptr@EU__crt_internal_free_policy@@@@QEBA_NXZ 000000018008a370 f i libucrtd:argv_parsing.obj
 0001:000893a0       ?release@?$__crt_unique_heap_ptr@EU__crt_internal_free_policy@@@@QEAAXXZ 000000018008a3a0 f i libucrtd:argv_parsing.obj
 0001:000893e0       ?release@?$__crt_unique_heap_ptr@PEADU__crt_internal_free_policy@@@@QEAAXXZ 000000018008a3e0 f i libucrtd:argv_parsing.obj
 0001:00089420       ?release@?$__crt_unique_heap_ptr@PEA_WU__crt_internal_free_policy@@@@QEAAXXZ 000000018008a420 f i libucrtd:argv_parsing.obj
 0001:000894b0       __acrt_allocate_buffer_for_argv 000000018008a4b0 f   libucrtd:argv_parsing.obj
 0001:000895d0       _configure_narrow_argv     000000018008a5d0 f   libucrtd:argv_parsing.obj
 0001:000895f0       _configure_wide_argv       000000018008a5f0 f   libucrtd:argv_parsing.obj
 0001:00089610       _set_pgmptr                000000018008a610 f i libucrtd:argv_parsing.obj
 0001:00089630       _set_wpgmptr               000000018008a630 f i libucrtd:argv_parsing.obj
 0001:00089644       ??$?R_W@__crt_internal_free_policy@@QEBAXQEB_W@Z 000000018008a644 f i libucrtd:environment_initialization.obj
 0001:00089ba8       ??$get_environment_from_os@$$$V@?$__crt_char_traits@D@@SAPEADXZ 000000018008aba8 f i libucrtd:environment_initialization.obj
 0001:00089bb0       ??$get_environment_from_os@$$$V@?$__crt_char_traits@_W@@SAPEA_WXZ 000000018008abb0 f i libucrtd:environment_initialization.obj
 0001:00089d80       ??$set_variable_in_environment_nolock@PEADH@?$__crt_char_traits@D@@SAH$$QEAPEAD$$QEAH@Z 000000018008ad80 f i libucrtd:environment_initialization.obj
 0001:00089d8c       ??$set_variable_in_environment_nolock@PEA_WH@?$__crt_char_traits@_W@@SAH$$QEAPEA_W$$QEAH@Z 000000018008ad8c f i libucrtd:environment_initialization.obj
 0001:00089d98       ??$tcscpy_s@PEADAEB_KAEAPEAD@?$__crt_char_traits@D@@SAH$$QEAPEADAEB_KAEAPEAD@Z 000000018008ad98 f i libucrtd:environment_initialization.obj
 0001:00089da8       ??$tcscpy_s@PEA_WAEB_KAEAPEA_W@?$__crt_char_traits@_W@@SAH$$QEAPEA_WAEB_KAEAPEA_W@Z 000000018008ada8 f i libucrtd:environment_initialization.obj
 0001:00089db8       ??$tcslen@AEAPEAD@?$__crt_char_traits@D@@SA_KAEAPEAD@Z 000000018008adb8 f i libucrtd:environment_initialization.obj
 0001:00089dcc       ??$tcslen@AEAPEA_W@?$__crt_char_traits@_W@@SA_KAEAPEA_W@Z 000000018008adcc f i libucrtd:environment_initialization.obj
 0001:00089de0       ??$uninitialize@A6AXAEAPEAPEAD@Z@?$dual_state_global@PEAPEAD@__crt_state_management@@QEAAXA6AXAEAPEAPEAD@Z@Z 000000018008ade0 f i libucrtd:environment_initialization.obj
 0001:00089e28       ??$uninitialize@A6AXAEAPEAPEA_W@Z@?$dual_state_global@PEAPEA_W@__crt_state_management@@QEAAXA6AXAEAPEAPEA_W@Z@Z 000000018008ae28 f i libucrtd:environment_initialization.obj
 0001:00089ea8       ??0?$__crt_unique_heap_ptr@_WU__crt_internal_free_policy@@@@QEAA@QEA_W@Z 000000018008aea8 f i libucrtd:environment_initialization.obj
 0001:00089eb0       ??1?$__crt_unique_heap_ptr@_WU__crt_internal_free_policy@@@@QEAA@XZ 000000018008aeb0 f i libucrtd:environment_initialization.obj
 0001:00089ed0       ??B?$__crt_unique_heap_ptr@PEADU__crt_internal_free_policy@@@@QEBA_NXZ 000000018008aed0 f i libucrtd:environment_initialization.obj
 0001:00089edc       ??B?$__crt_unique_heap_ptr@PEA_WU__crt_internal_free_policy@@@@QEBA_NXZ 000000018008aedc f i libucrtd:environment_initialization.obj
 0001:00089ee8       ??B?$__crt_unique_heap_ptr@_WU__crt_internal_free_policy@@@@QEBA_NXZ 000000018008aee8 f i libucrtd:environment_initialization.obj
 0001:00089ef4       ?__crt_compute_required_transform_buffer_count@@YA_KIQEBD@Z 000000018008aef4 f i libucrtd:environment_initialization.obj
 0001:00089f1c       ?__crt_compute_required_transform_buffer_count@@YA_KIQEB_W@Z 000000018008af1c f i libucrtd:environment_initialization.obj
 0001:00089f4c       ?__crt_transform_string@@YA_KIQEBDQEA_W_K@Z 000000018008af4c f i libucrtd:environment_initialization.obj
 0001:00089f70       ?__crt_transform_string@@YA_KIQEB_WQEAD_K@Z 000000018008af70 f i libucrtd:environment_initialization.obj
 0001:00089fa0       ?detach@?$__crt_unique_heap_ptr@DU__crt_internal_free_policy@@@@QEAAPEADXZ 000000018008afa0 f i libucrtd:environment_initialization.obj
 0001:00089fa8       ?detach@?$__crt_unique_heap_ptr@_WU__crt_internal_free_policy@@@@QEAAPEA_WXZ 000000018008afa8 f i libucrtd:environment_initialization.obj
 0001:00089fb0       ?get@?$__crt_unique_heap_ptr@_WU__crt_internal_free_policy@@@@QEBAPEA_WXZ 000000018008afb0 f i libucrtd:environment_initialization.obj
 0001:00089fe4       ?initialize@?$dual_state_global@PEAPEAD@__crt_state_management@@QEAAXQEAPEAD@Z 000000018008afe4 f i libucrtd:environment_initialization.obj
 0001:0008a018       ?initialize@?$dual_state_global@PEAPEA_W@__crt_state_management@@QEAAXQEAPEA_W@Z 000000018008b018 f i libucrtd:environment_initialization.obj
 0001:0008a04c       ?is_valid@?$__crt_unique_heap_ptr@PEADU__crt_internal_free_policy@@@@QEBA_NXZ 000000018008b04c f i libucrtd:environment_initialization.obj
 0001:0008a058       ?is_valid@?$__crt_unique_heap_ptr@PEA_WU__crt_internal_free_policy@@@@QEBA_NXZ 000000018008b058 f i libucrtd:environment_initialization.obj
 0001:0008a064       ?is_valid@?$__crt_unique_heap_ptr@_WU__crt_internal_free_policy@@@@QEBA_NXZ 000000018008b064 f i libucrtd:environment_initialization.obj
 0001:0008a07c       ?release@?$__crt_unique_heap_ptr@_WU__crt_internal_free_policy@@@@QEAAXXZ 000000018008b07c f i libucrtd:environment_initialization.obj
 0001:0008a09c       ?value@?$dual_state_global@PEAPEAD@__crt_state_management@@QEAAAEAPEAPEADXZ 000000018008b09c f i libucrtd:environment_initialization.obj
 0001:0008a0a0       ?value@?$dual_state_global@PEAPEA_W@__crt_state_management@@QEAAAEAPEAPEA_WXZ 000000018008b0a0 f i libucrtd:environment_initialization.obj
 0001:0008a0a4       __dcrt_get_or_create_narrow_environment_nolock 000000018008b0a4 f   libucrtd:environment_initialization.obj
 0001:0008a0ac       __dcrt_get_or_create_wide_environment_nolock 000000018008b0ac f   libucrtd:environment_initialization.obj
 0001:0008a0b4       __dcrt_uninitialize_environments_nolock 000000018008b0b4 f   libucrtd:environment_initialization.obj
 0001:0008a0ec       __p__environ               000000018008b0ec f   libucrtd:environment_initialization.obj
 0001:0008a0f4       __p__wenviron              000000018008b0f4 f   libucrtd:environment_initialization.obj
 0001:0008a0fc       _get_initial_narrow_environment 000000018008b0fc f   libucrtd:environment_initialization.obj
 0001:0008a120       _get_initial_wide_environment 000000018008b120 f   libucrtd:environment_initialization.obj
 0001:0008a144       _initialize_narrow_environment 000000018008b144 f   libucrtd:environment_initialization.obj
 0001:0008a14c       _initialize_wide_environment 000000018008b14c f   libucrtd:environment_initialization.obj
 0001:0008a160       ??$?BP6AXXZ@__crt_fast_encoded_nullptr_t@@QEBAPEAP6AXXZXZ 000000018008b160 f i libucrtd:onexit.obj
 0001:0008a180       ??$?RP6AXXZ@__crt_internal_free_policy@@QEBAXQEBQ6AXXZ@Z 000000018008b180 f i libucrtd:onexit.obj
 0001:0008a1b0       ??$?RV<lambda_b0d8f1f77f5878de4f648f281b223c15>@@AEAV<lambda_942beefa13ab35ff55f86422493ffd6a>@@V<lambda_7adb6fc9c0d6a5bd4e2d9c212ec7cdcc>@@@?$__crt_seh_guarded_call@H@@QEAAH$$QEAV<lambda_b0d8f1f77f5878de4f648f281b223c15>@@AEAV<lambda_942beefa13ab35ff55f86422493ffd6a>@@$$QEAV<lambda_7adb6fc9c0d6a5bd4e2d9c212ec7cdcc>@@@Z 000000018008b1b0 f i libucrtd:onexit.obj
 0001:0008a200       ??$?RV<lambda_d22e02de4d14401f49897516b29a2b7c>@@AEAV<lambda_e971338317bfa523bb8920b43d823727>@@V<lambda_b0b8599c9027f5b14541fbbd6863d1f1>@@@?$__crt_seh_guarded_call@H@@QEAAH$$QEAV<lambda_d22e02de4d14401f49897516b29a2b7c>@@AEAV<lambda_e971338317bfa523bb8920b43d823727>@@$$QEAV<lambda_b0b8599c9027f5b14541fbbd6863d1f1>@@@Z 000000018008b200 f i libucrtd:onexit.obj
 0001:0008a250       ??$__acrt_lock_and_call@V<lambda_942beefa13ab35ff55f86422493ffd6a>@@@@YAHW4__acrt_lock_id@@$$QEAV<lambda_942beefa13ab35ff55f86422493ffd6a>@@@Z 000000018008b250 f i libucrtd:onexit.obj
 0001:0008a2c0       ??$__acrt_lock_and_call@V<lambda_e971338317bfa523bb8920b43d823727>@@@@YAHW4__acrt_lock_id@@$$QEAV<lambda_e971338317bfa523bb8920b43d823727>@@@Z 000000018008b2c0 f i libucrtd:onexit.obj
 0001:0008a330       ??$__crt_fast_encode_pointer@P6AHXZ@@YAP6AHXZQ6AHXZ@Z 000000018008b330 f i libucrtd:onexit.obj
 0001:0008a440       ??0?$__crt_unique_heap_ptr@P6AXXZU__crt_internal_free_policy@@@@QEAA@QEAP6AXXZ@Z 000000018008b440 f i libucrtd:onexit.obj
 0001:0008a460       ??1?$__crt_unique_heap_ptr@P6AXXZU__crt_internal_free_policy@@@@QEAA@XZ 000000018008b460 f i libucrtd:onexit.obj
 0001:0008aa30       ?detach@?$__crt_unique_heap_ptr@P6AXXZU__crt_internal_free_policy@@@@QEAAPEAP6AXXZXZ 000000018008ba30 f i libucrtd:onexit.obj
 0001:0008aa60       ?release@?$__crt_unique_heap_ptr@P6AXXZU__crt_internal_free_policy@@@@QEAAXXZ 000000018008ba60 f i libucrtd:onexit.obj
 0001:0008aaa0       _crt_at_quick_exit         000000018008baa0 f   libucrtd:onexit.obj
 0001:0008aac0       _crt_atexit                000000018008bac0 f   libucrtd:onexit.obj
 0001:0008aae0       _execute_onexit_table      000000018008bae0 f   libucrtd:onexit.obj
 0001:0008ab10       _initialize_onexit_table   000000018008bb10 f   libucrtd:onexit.obj
 0001:0008ab90       _register_onexit_function  000000018008bb90 f   libucrtd:onexit.obj
 0001:0008ae10       ?initialize@?$dual_state_global@PEAU__crt_locale_data@@@__crt_state_management@@QEAAXQEAU__crt_locale_data@@@Z 000000018008be10 f i libucrtd:initialization.obj
 0001:0008ae60       __acrt_initialize          000000018008be60 f   libucrtd:initialization.obj
 0001:0008ae90       __acrt_thread_attach       000000018008be90 f   libucrtd:initialization.obj
 0001:0008aeb0       __acrt_thread_detach       000000018008beb0 f   libucrtd:initialization.obj
 0001:0008aec0       __acrt_uninitialize        000000018008bec0 f   libucrtd:initialization.obj
 0001:0008aef0       __acrt_uninitialize_critical 000000018008bef0 f   libucrtd:initialization.obj
 0001:0008cef0       _CrtCheckMemory            000000018008def0 f   libucrtd:debug_heap.obj
 0001:0008d080       _CrtDoForAllClientObjects  000000018008e080 f   libucrtd:debug_heap.obj
 0001:0008d1c0       _CrtDumpMemoryLeaks        000000018008e1c0 f   libucrtd:debug_heap.obj
 0001:0008d280       _CrtGetAllocHook           000000018008e280 f   libucrtd:debug_heap.obj
 0001:0008d290       _CrtGetDumpClient          000000018008e290 f   libucrtd:debug_heap.obj
 0001:0008d2a0       _CrtIsMemoryBlock          000000018008e2a0 f   libucrtd:debug_heap.obj
 0001:0008d3e0       _CrtIsValidHeapPointer     000000018008e3e0 f   libucrtd:debug_heap.obj
 0001:0008d420       _CrtIsValidPointer         000000018008e420 f   libucrtd:debug_heap.obj
 0001:0008d460       _CrtMemCheckpoint          000000018008e460 f   libucrtd:debug_heap.obj
 0001:0008d6e0       _CrtMemDifference          000000018008e6e0 f   libucrtd:debug_heap.obj
 0001:0008da40       _CrtMemDumpAllObjectsSince 000000018008ea40 f   libucrtd:debug_heap.obj
 0001:0008daa0       _CrtMemDumpStatistics      000000018008eaa0 f   libucrtd:debug_heap.obj
 0001:0008dc30       _CrtReportBlockType        000000018008ec30 f   libucrtd:debug_heap.obj
 0001:0008dc60       _CrtSetAllocHook           000000018008ec60 f   libucrtd:debug_heap.obj
 0001:0008dc90       _CrtSetBreakAlloc          000000018008ec90 f   libucrtd:debug_heap.obj
 0001:0008dcc0       _CrtSetDbgBlockType        000000018008ecc0 f   libucrtd:debug_heap.obj
 0001:0008dd60       _CrtSetDbgFlag             000000018008ed60 f   libucrtd:debug_heap.obj
 0001:0008dec0       _CrtSetDumpClient          000000018008eec0 f   libucrtd:debug_heap.obj
 0001:0008def0       __p__crtBreakAlloc         000000018008eef0 f   libucrtd:debug_heap.obj
 0001:0008df00       __p__crtDbgFlag            000000018008ef00 f   libucrtd:debug_heap.obj
 0001:0008df10       _aligned_free_dbg          000000018008ef10 f   libucrtd:debug_heap.obj
 0001:0008e000       _aligned_malloc_dbg        000000018008f000 f   libucrtd:debug_heap.obj
 0001:0008e040       _aligned_msize_dbg         000000018008f040 f   libucrtd:debug_heap.obj
 0001:0008e200       _aligned_offset_malloc_dbg 000000018008f200 f   libucrtd:debug_heap.obj
 0001:0008e4f0       _aligned_offset_realloc_dbg 000000018008f4f0 f   libucrtd:debug_heap.obj
 0001:0008e9a0       _aligned_offset_recalloc_dbg 000000018008f9a0 f   libucrtd:debug_heap.obj
 0001:0008eac0       _aligned_realloc_dbg       000000018008fac0 f   libucrtd:debug_heap.obj
 0001:0008eb10       _aligned_recalloc_dbg      000000018008fb10 f   libucrtd:debug_heap.obj
 0001:0008eb70       _calloc_dbg                000000018008fb70 f   libucrtd:debug_heap.obj
 0001:0008ec10       _expand_dbg                000000018008fc10 f   libucrtd:debug_heap.obj
 0001:0008ed40       _free_dbg                  000000018008fd40 f   libucrtd:debug_heap.obj
 0001:0008edb0       _malloc_dbg                000000018008fdb0 f   libucrtd:debug_heap.obj
 0001:0008edf0       _msize_dbg                 000000018008fdf0 f   libucrtd:debug_heap.obj
 0001:0008ef90       _realloc_dbg               000000018008ff90 f   libucrtd:debug_heap.obj
 0001:0008f000       _recalloc_dbg              0000000180090000 f   libucrtd:debug_heap.obj
 0001:0008f100       _initterm                  0000000180090100 f   libucrtd:initterm.obj
 0001:0008f170       _initterm_e                0000000180090170 f   libucrtd:initterm.obj
 0001:0008f6c0       strcpy_s                   00000001800906c0 f   libucrtd:strcpy_s.obj
 0001:0008fd50       strcat_s                   0000000180090d50 f   libucrtd:strcat_s.obj
 0001:0008fd80       ??$?B$$A6AH_K@Z@__crt_fast_encoded_nullptr_t@@QEBAP6AH_K@ZXZ 0000000180090d80 f i libucrtd:new_handler.obj
 0001:0008fda0       ??$__crt_fast_decode_pointer@P6AH_K@Z@@YAP6AH_K@ZQ6AH0@Z@Z 0000000180090da0 f i libucrtd:new_handler.obj
 0001:0008fde0       ??$__crt_fast_encode_pointer@P6AH_K@Z@@YAP6AH_K@ZQ6AH0@Z@Z 0000000180090de0 f i libucrtd:new_handler.obj
 0001:0008fe20       ?_set_new_handler@@YAP6AH_K@ZH@Z 0000000180090e20 f   libucrtd:new_handler.obj
 0001:0008fe90       ?initialize@?$dual_state_global@P6AH_K@Z@__crt_state_management@@QEAAXQ6AH_K@Z@Z 0000000180090e90 f i libucrtd:new_handler.obj
 0001:0008fee0       ?value@?$dual_state_global@P6AH_K@Z@__crt_state_management@@QEAAAEAP6AH_K@ZXZ 0000000180090ee0 f i libucrtd:new_handler.obj
 0001:0008ff00       __acrt_initialize_new_handler 0000000180090f00 f   libucrtd:new_handler.obj
 0001:0008ff20       _callnewh                  0000000180090f20 f   libucrtd:new_handler.obj
 0001:0008ff70       _query_new_handler         0000000180090f70 f   libucrtd:new_handler.obj
 0001:0008ffb0       _set_new_handler           0000000180090fb0 f   libucrtd:new_handler.obj
 0001:00090060       _get_terminate             0000000180091060 f   libucrtd:terminate.obj
 0001:00090080       set_terminate              0000000180091080 f   libucrtd:terminate.obj
 0001:000900c0       terminate                  00000001800910c0 f   libucrtd:terminate.obj
 0001:00090ec0       _makepath                  0000000180091ec0 f   libucrtd:makepath.obj
 0001:00090f10       _makepath_s                0000000180091f10 f   libucrtd:makepath.obj
 0001:00090f60       _wmakepath                 0000000180091f60 f   libucrtd:makepath.obj
 0001:00090fb0       _wmakepath_s               0000000180091fb0 f   libucrtd:makepath.obj
 0001:00093480       ??$tcsncpy_s@AEAPEAD_KAEAPEBDAEB_K@?$__crt_char_traits@D@@SAHAEAPEAD$$QEA_KAEAPEBDAEB_K@Z 0000000180094480 f i libucrtd:splitpath.obj
 0001:000934d0       ??$tcsncpy_s@AEAPEAD_KAEAPEBDH@?$__crt_char_traits@D@@SAHAEAPEAD$$QEA_KAEAPEBD$$QEAH@Z 00000001800944d0 f i libucrtd:splitpath.obj
 0001:00093520       ??$tcsncpy_s@AEAPEA_W_KAEAPEB_WAEB_K@?$__crt_char_traits@_W@@SAHAEAPEA_W$$QEA_KAEAPEB_WAEB_K@Z 0000000180094520 f i libucrtd:splitpath.obj
 0001:00093570       ??$tcsncpy_s@AEAPEA_W_KAEAPEB_WH@?$__crt_char_traits@_W@@SAHAEAPEA_W$$QEA_KAEAPEB_W$$QEAH@Z 0000000180094570 f i libucrtd:splitpath.obj
 0001:000937d0       _splitpath                 00000001800947d0 f   libucrtd:splitpath.obj
 0001:00093810       _splitpath_s               0000000180094810 f   libucrtd:splitpath.obj
 0001:000938b0       _wsplitpath                00000001800948b0 f   libucrtd:splitpath.obj
 0001:000938f0       _wsplitpath_s              00000001800948f0 f   libucrtd:splitpath.obj
 0001:00093990       _set_abort_behavior        0000000180094990 f   libucrtd:abort.obj
 0001:000939d0       abort                      00000001800949d0 f   libucrtd:abort.obj
 0001:00093a60       strcmp                     0000000180094a60 f   libucrtd:strcmp.obj
 0001:00093ae0       strlen                     0000000180094ae0 f   libucrtd:strlen.obj
 0001:00093b90       wcsncmp                    0000000180094b90 f   libucrtd:wcsncmp.obj
 0001:00093c20       ??$is_overflow_condition@K@__crt_strtox@@YA_NIK@Z 0000000180094c20 f i libucrtd:atox.obj
 0001:00093c90       ??$is_overflow_condition@_K@__crt_strtox@@YA_NI_K@Z 0000000180094c90 f i libucrtd:atox.obj
 0001:00093d00       ??$make_c_string_character_source@D$$T@__crt_strtox@@YA?AV?$c_string_character_source@D@0@QEBD$$T@Z 0000000180094d00 f i libucrtd:atox.obj
 0001:00093d40       ??$make_c_string_character_source@_W$$T@__crt_strtox@@YA?AV?$c_string_character_source@_W@0@QEB_W$$T@Z 0000000180094d40 f i libucrtd:atox.obj
 0001:00093d80       ??$parse_integer@KV?$c_string_character_source@D@__crt_strtox@@@__crt_strtox@@YAKQEAU__crt_locale_pointers@@V?$c_string_character_source@D@0@H_N@Z 0000000180094d80 f i libucrtd:atox.obj
 0001:00094210       ??$parse_integer@KV?$c_string_character_source@_W@__crt_strtox@@@__crt_strtox@@YAKQEAU__crt_locale_pointers@@V?$c_string_character_source@_W@0@H_N@Z 0000000180095210 f i libucrtd:atox.obj
 0001:000946c0       ??$parse_integer@_KV?$c_string_character_source@D@__crt_strtox@@@__crt_strtox@@YA_KQEAU__crt_locale_pointers@@V?$c_string_character_source@D@0@H_N@Z 00000001800956c0 f i libucrtd:atox.obj
 0001:00094be0       ??$parse_integer@_KV?$c_string_character_source@_W@__crt_strtox@@@__crt_strtox@@YA_KQEAU__crt_locale_pointers@@V?$c_string_character_source@_W@0@H_N@Z 0000000180095be0 f i libucrtd:atox.obj
 0001:00095100       ??$parse_integer_from_string@JD$$T@__crt_strtox@@YAJQEBD$$THQEAU__crt_locale_pointers@@@Z 0000000180096100 f i libucrtd:atox.obj
 0001:00095150       ??$parse_integer_from_string@J_W$$T@__crt_strtox@@YAJQEB_W$$THQEAU__crt_locale_pointers@@@Z 0000000180096150 f i libucrtd:atox.obj
