 OPOSVideoCapture

 Timestamp is 61a758fd (Wed Dec  1 20:14:05 2021)

 Preferred load address is 0000000180000000

 Start         Length     Name                   Class
 0001:00000000 00000d90H .text$di                CODE
 0001:00000d90 000e4d20H .text$mn                CODE
 0001:000e5ab0 00000040H .text$mn$00             CODE
 0001:000e5af0 00001330H .text$x                 CODE
 0001:000e6e20 00000124H .text$yd                CODE
 0002:00000000 000006f8H .idata$5                DATA
 0002:000006f8 00000030H .00cfg                  DATA
 0002:00000728 00000008H .CRT$XCA                DATA
 0002:00000730 00000008H .CRT$XCL                DATA
 0002:00000738 000000d8H .CRT$XCU                DATA
 0002:00000810 00000008H .CRT$XCZ                DATA
 0002:00000818 00000008H .CRT$XIA                DATA
 0002:00000820 00000028H .CRT$XIC                DATA
 0002:00000848 00000008H .CRT$XIZ                DATA
 0002:00000850 00000008H .CRT$XLA                DATA
 0002:00000858 00000008H .CRT$XLZ                DATA
 0002:00000860 00000008H .CRT$XPA                DATA
 0002:00000868 00000010H .CRT$XPX                DATA
 0002:00000878 00000008H .CRT$XPXA               DATA
 0002:00000880 00000008H .CRT$XPZ                DATA
 0002:00000888 00000008H .CRT$XTA                DATA
 0002:00000890 00000010H .CRT$XTZ                DATA
 0002:00000898 00000000H .gehcont$y              DATA
 0002:00000898 00000000H .gfids$y                DATA
 0002:000008a0 0003c5e0H .rdata                  DATA
 0002:0003ce80 00000080H .rdata$CastGuardVftablesA DATA
 0002:0003cf00 00000080H .rdata$CastGuardVftablesC DATA
 0002:0003cf80 00000028H .rdata$T                DATA
 0002:0003cfa8 0000056cH .rdata$r                DATA
 0002:0003d514 00000190H .rdata$voltmd           DATA
 0002:0003d6a4 000004a4H .rdata$zzzdbg           DATA
 0002:0003db48 00000008H .rtc$IAA                DATA
 0002:0003db50 00000030H .rtc$IMZ                DATA
 0002:0003db80 00000008H .rtc$IZZ                DATA
 0002:0003db88 00000008H .rtc$TAA                DATA
 0002:0003db90 00000030H .rtc$TMZ                DATA
 0002:0003dbc0 00000008H .rtc$TZZ                DATA
 0002:0003dbc8 00000004H .tls                    DATA
 0002:0003dbcc 00000004H .tls$                   DATA
 0002:0003dbd0 00000008H .tls$ZZZ                DATA
 0002:0003dbd8 0000a0e8H .xdata                  DATA
 0002:00047cc0 00000150H .xdata$x                DATA
 0002:00047e10 00000008H ATL$__a                 DATA
 0002:00047e18 00000008H ATL$__z                 DATA
 0002:00047e20 000000b0H .edata                  DATA
 0002:00047ed0 00000078H .idata$2                DATA
 0002:00047f48 00000018H .idata$3                DATA
 0002:00047f60 000006f8H .idata$4                DATA
 0002:00048658 00000df0H .idata$6                DATA
 0003:00000000 00000eb8H .data                   DATA
 0003:00000eb8 000000a8H .data$r                 DATA
 0003:00000f60 000000f0H .data$rs                DATA
 0003:00001050 00003e7cH .bss                    DATA
 0004:00000000 0000ca68H .pdata                  DATA
 0005:00000000 000000fcH _RDATA                  DATA
 0006:00000000 00000220H .rsrc$01                DATA
 0006:00000220 000057f8H .rsrc$02                DATA

  Address         Publics by Value              Rva+Base               Lib:Object

 0000:00000000       __guard_eh_cont_table      0000000000000000     <absolute>
 0000:00000000       __arm64x_extra_rfe_table   0000000000000000     <absolute>
 0000:00000000       __x64_code_ranges_to_entry_points_count 0000000000000000     <absolute>
 0000:00000000       __guard_fids_count         0000000000000000     <absolute>
 0000:00000000       __guard_eh_cont_count      0000000000000000     <absolute>
 0000:00000000       ___safe_se_handler_table   0000000000000000     <absolute>
 0000:00000000       __dynamic_value_reloc_table 0000000000000000     <absolute>
 0000:00000000       __AbsoluteZero             0000000000000000     <absolute>
 0000:00000000       __hybrid_auxiliary_iat     0000000000000000     <absolute>
 0000:00000000       __guard_fids_table         0000000000000000     <absolute>
 0000:00000000       __guard_check_icall_a64n_fptr 0000000000000000     <absolute>
 0000:00000000       __hybrid_code_map_count    0000000000000000     <absolute>
 0000:00000000       __enclave_config           0000000000000000     <absolute>
 0000:00000000       __arm64x_native_entrypoint 0000000000000000     <absolute>
 0000:00000000       __hybrid_auxiliary_iat_copy 0000000000000000     <absolute>
 0000:00000000       __guard_iat_count          0000000000000000     <absolute>
 0000:00000000       ___safe_se_handler_count   0000000000000000     <absolute>
 0000:00000000       __x64_code_ranges_to_entry_points 0000000000000000     <absolute>
 0000:00000000       __arm64x_redirection_metadata_count 0000000000000000     <absolute>
 0000:00000000       __arm64x_extra_rfe_table_size 0000000000000000     <absolute>
 0000:00000000       __arm64x_redirection_metadata 0000000000000000     <absolute>
 0000:00000000       __guard_iat_table          0000000000000000     <absolute>
 0000:00000000       __guard_longjmp_count      0000000000000000     <absolute>
 0000:00000000       __guard_longjmp_table      0000000000000000     <absolute>
 0000:00000000       __hybrid_code_map          0000000000000000     <absolute>
 0000:00000100       __guard_flags              0000000000000100     <absolute>
 0000:00000000       __ImageBase                0000000180000000     <linker-defined>
 0001:00000d90       ?_assert@@YAXPEB_W0I@Z     0000000180001d90 f   Assert.obj
 0001:00000e90       __local_stdio_printf_options 0000000180001e90 f i Assert.obj
 0001:00000ea0       __vswprintf_l              0000000180001ea0 f i Assert.obj
 0001:00000ef0       _swprintf                  0000000180001ef0 f i Assert.obj
 0001:00000f70       _vswprintf_c_l             0000000180001f70 f i Assert.obj
 0001:00000fe0       _vswprintf_l               0000000180001fe0 f i Assert.obj
 0001:00001030       ?cw_memcpy@@YAHPEADPEB_WH@Z 0000000180002030 f   CWString.obj
 0001:000010b0       ?cw_memcpy@@YAHPEA_WPEBDH@Z 00000001800020b0 f   CWString.obj
 0001:00001120       ?cw_memcpy@@YAHPEADPEBDH@Z 0000000180002120 f   CWString.obj
 0001:000011b0       ?cw_memcpy@@YAHPEA_WPEB_WH@Z 00000001800021b0 f   CWString.obj
 0001:00001210       ?cw_memset@@YAXPEADDH@Z    0000000180002210 f   CWString.obj
 0001:00001270       ?cw_memset@@YAXPEA_W_WH@Z  0000000180002270 f   CWString.obj
 0001:00001300       ?cw_strlen@@YAHPEBD@Z      0000000180002300 f   CWString.obj
 0001:00001360       ?cw_strlen@@YAHPEB_W@Z     0000000180002360 f   CWString.obj
 0001:000013c0       ?cw_strcpy@@YAHPEADPEB_W@Z 00000001800023c0 f   CWString.obj
 0001:00001400       ?cw_strcpy@@YAHPEA_WPEBD@Z 0000000180002400 f   CWString.obj
 0001:00001440       ?cw_strcpy@@YAHPEADPEBD@Z  0000000180002440 f   CWString.obj
 0001:00001480       ?cw_strcpy@@YAHPEA_WPEB_W@Z 0000000180002480 f   CWString.obj
 0001:000014c0       ?cw_strcat@@YAHPEADPEB_W@Z 00000001800024c0 f   CWString.obj
 0001:00001510       ?cw_strcat@@YAHPEA_WPEBD@Z 0000000180002510 f   CWString.obj
 0001:00001560       ?cw_strcat@@YAHPEADPEBD@Z  0000000180002560 f   CWString.obj
 0001:000015b0       ?cw_strcat@@YAHPEA_WPEB_W@Z 00000001800025b0 f   CWString.obj
 0001:00001600       ?cw_dup@@YAXPEBDAEAHAEAPEA_W1@Z 0000000180002600 f   CWString.obj
 0001:00001700       ?cw_dup@@YAXPEB_WAEAHAEAPEAD1@Z 0000000180002700 f   CWString.obj
 0001:000017e0       ?DupChar@_CW@@AEAAXXZ      00000001800027e0 f   CWString.obj
 0001:00001830       ?DupWide@_CW@@AEAAXXZ      0000000180002830 f   CWString.obj
 0001:00001880       ?GetCharsMbcs@_CW@@QEAAHXZ 0000000180002880 f   CWString.obj
 0001:000018e0       ?GetCharsWide@_CW@@QEAAHXZ 00000001800028e0 f   CWString.obj
 0001:00001940       ?SetVARIANT_BOOL@OposVariant@@QEAAXF@Z 0000000180002940 f   OposVariant.obj
 0001:000019a0       ?SetVARIANT_BOOL_Ptr@OposVariant@@QEAAXPEAFAEAJ@Z 00000001800029a0 f   OposVariant.obj
 0001:00001a00       ?GetLONG@OposVariant@@QEAAJXZ 0000000180002a00 f   OposVariant.obj
 0001:00001a60       ?ChangeLONG@OposVariant@@QEAAXPEAJAEAJ@Z 0000000180002a60 f   OposVariant.obj
 0001:00001b10       ?SetLONG@OposVariant@@QEAAXJ@Z 0000000180002b10 f   OposVariant.obj
 0001:00001b50       ?SetLONG_Ptr@OposVariant@@QEAAXPEAJAEAJ@Z 0000000180002b50 f   OposVariant.obj
 0001:00001bb0       ?ChangeCURRENCY@OposVariant@@QEAAXPEATtagCY@@AEAJ@Z 0000000180002bb0 f   OposVariant.obj
 0001:00001c60       ?SetCURRENCY@OposVariant@@QEAAXTtagCY@@@Z 0000000180002c60 f   OposVariant.obj
 0001:00001ca0       ?SetCURRENCY_Ptr@OposVariant@@QEAAXPEATtagCY@@AEAJ@Z 0000000180002ca0 f   OposVariant.obj
 0001:00001d00       ?ChangeBSTR@OposVariant@@QEAAXPEAPEA_WAEAJ@Z 0000000180002d00 f   OposVariant.obj
 0001:00001db0       ?SetBSTR@OposVariant@@QEAAXPEA_WAEAJ@Z 0000000180002db0 f   OposVariant.obj
 0001:00001e10       ?SetBSTR_Copy@OposVariant@@QEAAXPEA_WAEAJ@Z 0000000180002e10 f   OposVariant.obj
 0001:00001eb0       ?SetBSTR_OutPtr@OposVariant@@QEAA_NPEAPEA_WAEAJ@Z 0000000180002eb0 f   OposVariant.obj
 0001:00001f10       ?SetBSTR_InOutPtr@OposVariant@@QEAA_NPEAPEA_WAEAJ@Z 0000000180002f10 f   OposVariant.obj
 0001:00001f70       ?SetVARIANT@OposVariant@@QEAAXAEAUtagVARIANT@@GAEAJ@Z 0000000180002f70 f   OposVariant.obj
 0001:00002000       ?SetVARIANT_Ptr@OposVariant@@QEAAXAEAPEAUtagVARIANT@@GAEAJ@Z 0000000180003000 f   OposVariant.obj
 0001:000020a0       ?SetString@OposVariant@@QEAAXPEB_WAEAJ@Z 00000001800030a0 f   OposVariant.obj
 0001:00002130       ?SetDispatch_Ptr@OposVariant@@QEAAXPEAUIDispatch@@AEAJ@Z 0000000180003130 f   OposVariant.obj
 0001:000021b0       ??0OposDispParms@@QEAA@PEAVOposVariant@@H@Z 00000001800031b0 f   OposVariant.obj
 0001:000022b0       ??1OposDispParms@@QEAA@XZ  00000001800032b0 f   OposVariant.obj
 0001:000022f0       ??$AtlMultiply@_K@ATL@@YAJPEA_K_K1@Z 00000001800032f0 f i OposVariant.obj
 0001:00002360       ??0?$CHeapPtr@_WVCCRTAllocator@ATL@@@ATL@@QEAA@XZ 0000000180003360 f i OposVariant.obj
 0001:00002380       ??0?$CHeapPtrBase@_WVCCRTAllocator@ATL@@@ATL@@IEAA@XZ 0000000180003380 f i OposVariant.obj
 0001:000023a0       ??0?$CSimpleArray@GV?$CSimpleArrayEqualHelper@G@ATL@@@ATL@@QEAA@XZ 00000001800033a0 f i OposVariant.obj
 0001:000023e0       ??0?$CTraceCategoryEx@$00$0A@@ATL@@QEAA@PEB_W@Z 00000001800033e0 f i OposVariant.obj
 0001:00002410       ??0?$CTraceCategoryEx@$01$0A@@ATL@@QEAA@PEB_W@Z 0000000180003410 f i OposVariant.obj
 0001:00002440       ??0?$CTraceCategoryEx@$03$0A@@ATL@@QEAA@PEB_W@Z 0000000180003440 f i OposVariant.obj
 0001:00002470       ??0?$CTraceCategoryEx@$07$0A@@ATL@@QEAA@PEB_W@Z 0000000180003470 f i OposVariant.obj
 0001:000024a0       ??0?$CTraceCategoryEx@$0BA@$0A@@ATL@@QEAA@PEB_W@Z 00000001800034a0 f i OposVariant.obj
 0001:000024d0       ??0?$CTraceCategoryEx@$0BAA@$0A@@ATL@@QEAA@PEB_W@Z 00000001800034d0 f i OposVariant.obj
 0001:00002500       ??0?$CTraceCategoryEx@$0BAAA@$0A@@ATL@@QEAA@PEB_W@Z 0000000180003500 f i OposVariant.obj
 0001:00002530       ??0?$CTraceCategoryEx@$0BAAAA@$0A@@ATL@@QEAA@PEB_W@Z 0000000180003530 f i OposVariant.obj
 0001:00002560       ??0?$CTraceCategoryEx@$0BAAAAA@$0A@@ATL@@QEAA@PEB_W@Z 0000000180003560 f i OposVariant.obj
 0001:00002590       ??0?$CTraceCategoryEx@$0CA@$0A@@ATL@@QEAA@PEB_W@Z 0000000180003590 f i OposVariant.obj
 0001:000025c0       ??0?$CTraceCategoryEx@$0CAA@$0A@@ATL@@QEAA@PEB_W@Z 00000001800035c0 f i OposVariant.obj
 0001:000025f0       ??0?$CTraceCategoryEx@$0CAAA@$0A@@ATL@@QEAA@PEB_W@Z 00000001800035f0 f i OposVariant.obj
 0001:00002620       ??0?$CTraceCategoryEx@$0CAAAA@$0A@@ATL@@QEAA@PEB_W@Z 0000000180003620 f i OposVariant.obj
 0001:00002650       ??0?$CTraceCategoryEx@$0CAAAAA@$0A@@ATL@@QEAA@PEB_W@Z 0000000180003650 f i OposVariant.obj
 0001:00002680       ??0?$CTraceCategoryEx@$0EA@$0A@@ATL@@QEAA@PEB_W@Z 0000000180003680 f i OposVariant.obj
 0001:000026b0       ??0?$CTraceCategoryEx@$0EAA@$0A@@ATL@@QEAA@PEB_W@Z 00000001800036b0 f i OposVariant.obj
 0001:000026e0       ??0?$CTraceCategoryEx@$0EAAA@$0A@@ATL@@QEAA@PEB_W@Z 00000001800036e0 f i OposVariant.obj
 0001:00002710       ??0?$CTraceCategoryEx@$0EAAAA@$0A@@ATL@@QEAA@PEB_W@Z 0000000180003710 f i OposVariant.obj
 0001:00002740       ??0?$CTraceCategoryEx@$0EAAAAA@$0A@@ATL@@QEAA@PEB_W@Z 0000000180003740 f i OposVariant.obj
 0001:00002770       ??0?$CTraceCategoryEx@$0IA@$0A@@ATL@@QEAA@PEB_W@Z 0000000180003770 f i OposVariant.obj
 0001:000027a0       ??0?$CTraceCategoryEx@$0IAA@$0A@@ATL@@QEAA@PEB_W@Z 00000001800037a0 f i OposVariant.obj
 0001:000027d0       ??0?$CTraceCategoryEx@$0IAAA@$0A@@ATL@@QEAA@PEB_W@Z 00000001800037d0 f i OposVariant.obj
 0001:00002800       ??0?$CTraceCategoryEx@$0IAAAA@$0A@@ATL@@QEAA@PEB_W@Z 0000000180003800 f i OposVariant.obj
 0001:00002830       ??0CAtlComModule@ATL@@QEAA@XZ 0000000180003830 f i OposVariant.obj
 0001:00002940       ??0CAtlWinModule@ATL@@QEAA@XZ 0000000180003940 f i OposVariant.obj
 0001:000029e0       ??0CComCriticalSection@ATL@@QEAA@XZ 00000001800039e0 f i OposVariant.obj
 0001:00002a10       ??0CPreserveLastError@ATL@@QEAA@XZ 0000000180003a10 f i OposVariant.obj
 0001:00002a40       ??0CTraceFileAndLineInfo@ATL@@QEAA@PEBDH@Z 0000000180003a40 f i OposVariant.obj
 0001:00002a70       ??0_ATL_COM_MODULE70@ATL@@QEAA@XZ 0000000180003a70 f i OposVariant.obj
 0001:00002aa0       ??0_ATL_WIN_MODULE70@ATL@@QEAA@XZ 0000000180003aa0 f i OposVariant.obj
 0001:00002ae0       ??1?$CHeapPtr@_WVCCRTAllocator@ATL@@@ATL@@QEAA@XZ 0000000180003ae0 f i OposVariant.obj
 0001:00002b00       ??1?$CHeapPtrBase@_WVCCRTAllocator@ATL@@@ATL@@QEAA@XZ 0000000180003b00 f i OposVariant.obj
 0001:00002b20       ??1?$CSimpleArray@GV?$CSimpleArrayEqualHelper@G@ATL@@@ATL@@QEAA@XZ 0000000180003b20 f i OposVariant.obj
 0001:00002b40       ??1CAtlComModule@ATL@@QEAA@XZ 0000000180003b40 f i OposVariant.obj
 0001:00002b70       ??1CAtlWinModule@ATL@@QEAA@XZ 0000000180003b70 f i OposVariant.obj
 0001:00002ba0       ??1CComBSTR@ATL@@QEAA@XZ   0000000180003ba0 f i OposVariant.obj
 0001:00002bc0       ??1CComCriticalSection@ATL@@QEAA@XZ 0000000180003bc0 f i OposVariant.obj
 0001:00002bd0       ??1CPreserveLastError@ATL@@QEAA@XZ 0000000180003bd0 f i OposVariant.obj
 0001:00002bf0       ??1_ATL_COM_MODULE70@ATL@@QEAA@XZ 0000000180003bf0 f i OposVariant.obj
 0001:00002c20       ??1_ATL_WIN_MODULE70@ATL@@QEAA@XZ 0000000180003c20 f i OposVariant.obj
 0001:00002c60       ??1stringdispid@CComTypeInfoHolder@ATL@@QEAA@XZ 0000000180003c60 f i OposVariant.obj
 0001:00002c80       ??A?$CSimpleArray@GV?$CSimpleArrayEqualHelper@G@ATL@@@ATL@@QEAAAEAGH@Z 0000000180003c80 f i OposVariant.obj
 0001:00002d20       ??B?$CHeapPtrBase@_WVCCRTAllocator@ATL@@@ATL@@QEBAPEA_WXZ 0000000180003d20 f i OposVariant.obj
 0001:00002d30       ??B?$CTraceCategoryEx@$01$0A@@ATL@@QEAAIXZ 0000000180003d30 f i OposVariant.obj
 0001:00002d40       ??B?$CTraceCategoryEx@$0CA@$0A@@ATL@@QEAAIXZ 0000000180003d40 f i OposVariant.obj
 0001:00002d50       ??RCTraceFileAndLineInfo@ATL@@QEBAXHIPEB_WZZ 0000000180003d50 f i OposVariant.obj
 0001:00002e10       ??_Estringdispid@CComTypeInfoHolder@ATL@@QEAAPEAXI@Z 0000000180003e10 f i OposVariant.obj
 0001:00002eb0       ??_H@YAXPEAX_K1P6APEAX0@Z@Z 0000000180003eb0 f i OposVariant.obj
 0001:00002f30       ??_I@YAXPEAX_K1P6AX0@Z@Z   0000000180003f30 f i OposVariant.obj
 0001:00002fd0       ?Allocate@?$CHeapPtr@_WVCCRTAllocator@ATL@@@ATL@@QEAA_N_K@Z 0000000180003fd0 f i OposVariant.obj
 0001:00003050       ?Allocate@CCRTAllocator@ATL@@SAPEAX_K@Z 0000000180004050 f i OposVariant.obj
 0001:00003070       ?AllocateBytes@?$CHeapPtrBase@_WVCCRTAllocator@ATL@@@ATL@@QEAA_N_K@Z 0000000180004070 f i OposVariant.obj
 0001:000030f0       ?AtlWinModuleInit@ATL@@YAJPEAU_ATL_WIN_MODULE70@1@@Z 00000001800040f0 f i OposVariant.obj
 0001:000031e0       ?AtlWinModuleTerm@ATL@@YAJPEAU_ATL_WIN_MODULE70@1@PEAUHINSTANCE__@@@Z 00000001800041e0 f i OposVariant.obj
 0001:000032b0       ?Clear@OposVariant@@QEAAJXZ 00000001800042b0 f i OposVariant.obj
 0001:000032e0       ?Free@?$CHeapPtrBase@_WVCCRTAllocator@ATL@@@ATL@@QEAAXXZ 00000001800042e0 f i OposVariant.obj
 0001:00003310       ?Free@CCRTAllocator@ATL@@SAXPEAX@Z 0000000180004310 f i OposVariant.obj
 0001:00003330       ?GetCategoryName@CTrace@ATL@@CAPEA_WI@Z 0000000180004330 f i OposVariant.obj
 0001:000033a0       ?GetModuleInstance@CAtlBaseModule@ATL@@QEAAPEAUHINSTANCE__@@XZ 00000001800043a0 f i OposVariant.obj
 0001:000033c0       ?GetSize@?$CSimpleArray@GV?$CSimpleArrayEqualHelper@G@ATL@@@ATL@@QEBAHXZ 00000001800043c0 f i OposVariant.obj
 0001:000033d0       ?Init@CComCriticalSection@ATL@@QEAAJXZ 00000001800043d0 f i OposVariant.obj
 0001:00003420       ?RegisterCategory@CTrace@ATL@@SAXPEB_WI@Z 0000000180004420 f i OposVariant.obj
 0001:000034e0       ?RemoveAll@?$CSimpleArray@GV?$CSimpleArrayEqualHelper@G@ATL@@@ATL@@QEAAXXZ 00000001800044e0 f i OposVariant.obj
 0001:00003550       ?Term@CAtlComModule@ATL@@QEAAXXZ 0000000180004550 f i OposVariant.obj
 0001:00003620       ?Term@CAtlWinModule@ATL@@QEAAXXZ 0000000180004620 f i OposVariant.obj
 0001:00003650       ?Term@CComCriticalSection@ATL@@QEAAJXZ 0000000180004650 f i OposVariant.obj
 0001:00003670       ?TraceV@CTrace@ATL@@CAXPEBDHIIPEB_W@Z 0000000180004670 f i OposVariant.obj
 0001:00003920       ?TraceV@CTrace@ATL@@SAXPEBDHIIPEB_WPEAD@Z 0000000180004920 f i OposVariant.obj
 0001:00003ad0       ?_AtlInitializeCriticalSectionEx@ATL@@YAHPEAU_RTL_CRITICAL_SECTION@@KK@Z 0000000180004ad0 f i OposVariant.obj
 0001:00003b00       ?_AtlRaiseException@ATL@@YAXKK@Z 0000000180004b00 f i OposVariant.obj
 0001:00003b30       HRESULT_FROM_WIN32         0000000180004b30 f i OposVariant.obj
 0001:00003b70       _vswprintf_s_l             0000000180004b70 f i OposVariant.obj
 0001:00003be0       swprintf_s                 0000000180004be0 f i OposVariant.obj
 0001:00003c70       ?ObjectMain@CComObjectRootBase@ATL@@SAX_N@Z 0000000180004c70 f i VideoCapture.obj
 0001:00003c80       ?GetCategoryMap@CComObjectRootBase@ATL@@SAPEBU_ATL_CATMAP_ENTRY@2@XZ 0000000180004c80 f i VideoCapture.obj
 0001:00003c90       ?GetObjectDescription@?$CComCoClass@VCOPOSVideoCapture@@$1?CLSID_OPOSVideoCapture@@3U_GUID@@B@ATL@@SAPEB_WXZ 0000000180004c90 f i VideoCapture.obj
 0001:00003ca0       ?UpdateRegistry@COPOSVideoCapture@@SAJH@Z 0000000180004ca0 f i VideoCapture.obj
 0001:00003cd0       ?CreateInstance@?$CComCreator@V?$CComObjectCached@VCComClassFactory@ATL@@@ATL@@@ATL@@SAJPEAXAEBU_GUID@@PEAPEAX@Z 0000000180004cd0 f i VideoCapture.obj
 0001:00003ea0       ?CreateInstance@?$CComCreator2@V?$CComCreator@V?$CComObject@VCOPOSVideoCapture@@@ATL@@@ATL@@V?$CComCreator@V?$CComAggObject@VCOPOSVideoCapture@@@ATL@@@2@@ATL@@SAJPEAXAEBU_GUID@@PEAPEAX@Z 0000000180004ea0 f i VideoCapture.obj
 0001:00004090       DllGetClassObject          0000000180005090 f   VideoCapture.obj
 0001:000040d0       DllCanUnloadNow            00000001800050d0 f   VideoCapture.obj
 0001:00004110       DllRegisterServer          0000000180005110 f   VideoCapture.obj
 0001:00004140       DllUnregisterServer        0000000180005140 f   VideoCapture.obj
 0001:00004300       DllMain                    0000000180005300 f   VideoCapture.obj
 0001:00004370       ??$?2G@Wrapper@?$CSimpleArray@GV?$CSimpleArrayEqualHelper@G@ATL@@@ATL@@SAPEAX_KPEAG@Z 0000000180005370 f i VideoCapture.obj
 0001:00004390       ??$?2PEA_W@?$Wrapper@PEA_W@?$CSimpleMap@PEA_WPEA_WVCExpansionVectorEqualHelper@ATL@@@ATL@@SAPEAX_KPEAPEA_W@Z 0000000180005390 f i VideoCapture.obj
 0001:000043b0       ??$?4UITypeInfo2@@@?$CComPtr@UITypeInfo@@@ATL@@QEAAPEAUITypeInfo@@AEBV?$CComPtr@UITypeInfo2@@@1@@Z 00000001800053b0 f i VideoCapture.obj
 0001:00004410       ??$AtlAdd@_K@ATL@@YAJPEA_K_K1@Z 0000000180005410 f i VideoCapture.obj
 0001:00004470       ??$AtlAddThrow@_K@ATL@@YA_K_K0@Z 0000000180005470 f i VideoCapture.obj
 0001:000044e0       ??$AtlModuleRegisterWndClassInfoT@VAtlModuleRegisterWndClassInfoParamW@ATL@@@ATL@@YAGPEAU_ATL_BASE_MODULE70@0@PEAU_ATL_WIN_MODULE70@0@PEAU_ATL_WNDCLASSINFOW@0@PEAP6A_JPEAUHWND__@@I_K_J@ZVAtlModuleRegisterWndClassInfoParamW@0@@Z 00000001800054e0 f i VideoCapture.obj
 0001:00004ab0       ??$AtlMultiply@H@ATL@@YAJPEAHHH@Z 0000000180005ab0 f i VideoCapture.obj
 0001:00004b10       ??$AtlMultiply@K@ATL@@YAJPEAKKK@Z 0000000180005b10 f i VideoCapture.obj
 0001:00004b60       ??$AtlMultiplyThrow@_K@ATL@@YA_K_K0@Z 0000000180005b60 f i VideoCapture.obj
 0001:00004bd0       ??$QueryInterface@UIPersistStream@@@IUnknown@@QEAAJPEAPEAUIPersistStream@@@Z 0000000180005bd0 f i VideoCapture.obj
 0001:00004c00       ??$QueryInterface@UITypeInfo2@@@IUnknown@@QEAAJPEAPEAUITypeInfo2@@@Z 0000000180005c00 f i VideoCapture.obj
 0001:00004c30       ??0?$CAtlModuleT@VCComModule@ATL@@@ATL@@QEAA@XZ 0000000180005c30 f i VideoCapture.obj
 0001:00004c60       ??0?$CAtlSafeAllocBufferManager@VCCRTAllocator@ATL@@@_ATL_SAFE_ALLOCA_IMPL@ATL@@QEAA@XZ 0000000180005c60 f i VideoCapture.obj
 0001:00004c80       ??0?$CAutoVectorPtr@_W@ATL@@QEAA@XZ 0000000180005c80 f i VideoCapture.obj
 0001:00004ca0       ??0?$CComAggObject@VCOPOSVideoCapture@@@ATL@@QEAA@PEAX@Z 0000000180005ca0 f i VideoCapture.obj
 0001:00004d10       ??0?$CComContainedObject@VCOPOSVideoCapture@@@ATL@@QEAA@PEAX@Z 0000000180005d10 f i VideoCapture.obj
 0001:00004ea0       ??0?$CComCritSecLock@VCComCriticalSection@ATL@@@ATL@@QEAA@AEAVCComCriticalSection@1@_N@Z 0000000180005ea0 f i VideoCapture.obj
 0001:00004f00       ??0?$CComEnum@UIEnumConnectionPoints@@$1?_GUID_b196b285_bab4_101a_b69c_00aa00341d07@@3U__s_GUID@@BPEAUIConnectionPoint@@V?$_CopyInterface@UIConnectionPoint@@@ATL@@VCComSingleThreadModel@6@@ATL@@QEAA@XZ 0000000180005f00 f i VideoCapture.obj
 0001:00004f30       ??0?$CComEnum@UIEnumConnections@@$1?_GUID_b196b287_bab4_101a_b69c_00aa00341d07@@3U__s_GUID@@BUtagCONNECTDATA@@V?$_Copy@UtagCONNECTDATA@@@ATL@@VCComSingleThreadModel@6@@ATL@@QEAA@XZ 0000000180005f30 f i VideoCapture.obj
 0001:00004f60       ??0?$CComEnumImpl@UIEnumConnectionPoints@@$1?_GUID_b196b285_bab4_101a_b69c_00aa00341d07@@3U__s_GUID@@BPEAUIConnectionPoint@@V?$_CopyInterface@UIConnectionPoint@@@ATL@@@ATL@@QEAA@XZ 0000000180005f60 f i VideoCapture.obj
 0001:00004fd0       ??0?$CComEnumImpl@UIEnumConnections@@$1?_GUID_b196b287_bab4_101a_b69c_00aa00341d07@@3U__s_GUID@@BUtagCONNECTDATA@@V?$_Copy@UtagCONNECTDATA@@@ATL@@@ATL@@QEAA@XZ 0000000180005fd0 f i VideoCapture.obj
 0001:00005040       ??0?$CComObject@V?$CComEnum@UIEnumConnectionPoints@@$1?_GUID_b196b285_bab4_101a_b69c_00aa00341d07@@3U__s_GUID@@BPEAUIConnectionPoint@@V?$_CopyInterface@UIConnectionPoint@@@ATL@@VCComSingleThreadModel@6@@ATL@@@ATL@@QEAA@PEAX@Z 0000000180006040 f i VideoCapture.obj
 0001:00005090       ??0?$CComObject@V?$CComEnum@UIEnumConnections@@$1?_GUID_b196b287_bab4_101a_b69c_00aa00341d07@@3U__s_GUID@@BUtagCONNECTDATA@@V?$_Copy@UtagCONNECTDATA@@@ATL@@VCComSingleThreadModel@6@@ATL@@@ATL@@QEAA@PEAX@Z 0000000180006090 f i VideoCapture.obj
 0001:000050e0       ??0?$CComObject@VCOPOSVideoCapture@@@ATL@@QEAA@PEAX@Z 00000001800060e0 f i VideoCapture.obj
 0001:00005270       ??0?$CComObjectCached@VCComClassFactory@ATL@@@ATL@@QEAA@PEAX@Z 0000000180006270 f i VideoCapture.obj
 0001:000052b0       ??0?$CComObjectRootEx@VCComMultiThreadModel@ATL@@@ATL@@QEAA@XZ 00000001800062b0 f i VideoCapture.obj
 0001:000052e0       ??0?$CComObjectRootEx@VCComSingleThreadModel@ATL@@@ATL@@QEAA@XZ 00000001800062e0 f i VideoCapture.obj
 0001:00005300       ??0?$CComPtr@UIAdviseSink@@@ATL@@QEAA@PEAUIAdviseSink@@@Z 0000000180006300 f i VideoCapture.obj
 0001:00005330       ??0?$CComPtr@UICatRegister@@@ATL@@QEAA@XZ 0000000180006330 f i VideoCapture.obj
 0001:00005350       ??0?$CComPtr@UIConnectionPoint@@@ATL@@QEAA@XZ 0000000180006350 f i VideoCapture.obj
 0001:00005370       ??0?$CComPtr@UIConnectionPointContainer@@@ATL@@QEAA@XZ 0000000180006370 f i VideoCapture.obj
 0001:00005390       ??0?$CComPtr@UIDataObject@@@ATL@@QEAA@XZ 0000000180006390 f i VideoCapture.obj
 0001:000053b0       ??0?$CComPtr@UIDispatch@@@ATL@@QEAA@XZ 00000001800063b0 f i VideoCapture.obj
 0001:000053d0       ??0?$CComPtr@UIOleClientSite@@@ATL@@QEAA@PEAUIOleClientSite@@@Z 00000001800063d0 f i VideoCapture.obj
 0001:00005400       ??0?$CComPtr@UIOleControlSite@@@ATL@@QEAA@XZ 0000000180006400 f i VideoCapture.obj
 0001:00005420       ??0?$CComPtr@UIOleInPlaceActiveObject@@@ATL@@QEAA@XZ 0000000180006420 f i VideoCapture.obj
 0001:00005440       ??0?$CComPtr@UIOleInPlaceFrame@@@ATL@@QEAA@XZ 0000000180006440 f i VideoCapture.obj
 0001:00005460       ??0?$CComPtr@UIOleInPlaceObject@@@ATL@@QEAA@XZ 0000000180006460 f i VideoCapture.obj
 0001:00005480       ??0?$CComPtr@UIOleInPlaceUIWindow@@@ATL@@QEAA@XZ 0000000180006480 f i VideoCapture.obj
 0001:000054a0       ??0?$CComPtr@UIOleObject@@@ATL@@QEAA@XZ 00000001800064a0 f i VideoCapture.obj
 0001:000054c0       ??0?$CComPtr@UIPersistStream@@@ATL@@QEAA@XZ 00000001800064c0 f i VideoCapture.obj
 0001:000054e0       ??0?$CComPtr@UIPersistStreamInit@@@ATL@@QEAA@XZ 00000001800064e0 f i VideoCapture.obj
 0001:00005500       ??0?$CComPtr@UIPointerInactive@@@ATL@@QEAA@XZ 0000000180006500 f i VideoCapture.obj
 0001:00005520       ??0?$CComPtr@UIProvideClassInfo2@@@ATL@@QEAA@XZ 0000000180006520 f i VideoCapture.obj
 0001:00005540       ??0?$CComPtr@UISpecifyPropertyPages@@@ATL@@QEAA@XZ 0000000180006540 f i VideoCapture.obj
 0001:00005560       ??0?$CComPtr@UIStream@@@ATL@@QEAA@XZ 0000000180006560 f i VideoCapture.obj
 0001:00005580       ??0?$CComPtr@UITypeInfo2@@@ATL@@QEAA@XZ 0000000180006580 f i VideoCapture.obj
 0001:000055a0       ??0?$CComPtr@UITypeInfo@@@ATL@@QEAA@AEBV01@@Z 00000001800065a0 f i VideoCapture.obj
 0001:000055d0       ??0?$CComPtr@UITypeInfo@@@ATL@@QEAA@XZ 00000001800065d0 f i VideoCapture.obj
 0001:000055f0       ??0?$CComPtr@UITypeLib@@@ATL@@QEAA@XZ 00000001800065f0 f i VideoCapture.obj
 0001:00005610       ??0?$CComPtr@UIUnknown@@@ATL@@QEAA@AEBV01@@Z 0000000180006610 f i VideoCapture.obj
 0001:00005640       ??0?$CComPtr@UIUnknown@@@ATL@@QEAA@PEAUIUnknown@@@Z 0000000180006640 f i VideoCapture.obj
 0001:00005670       ??0?$CComPtr@UIUnknown@@@ATL@@QEAA@XZ 0000000180006670 f i VideoCapture.obj
 0001:00005690       ??0?$CComPtr@UIViewObjectEx@@@ATL@@QEAA@XZ 0000000180006690 f i VideoCapture.obj
 0001:000056b0       ??0?$CComPtrBase@UIAdviseSink@@@ATL@@IEAA@PEAUIAdviseSink@@@Z 00000001800066b0 f i VideoCapture.obj
 0001:00005700       ??0?$CComPtrBase@UICatRegister@@@ATL@@IEAA@XZ 0000000180006700 f i VideoCapture.obj
 0001:00005720       ??0?$CComPtrBase@UIConnectionPoint@@@ATL@@IEAA@XZ 0000000180006720 f i VideoCapture.obj
 0001:00005740       ??0?$CComPtrBase@UIConnectionPointContainer@@@ATL@@IEAA@XZ 0000000180006740 f i VideoCapture.obj
 0001:00005760       ??0?$CComPtrBase@UIDataObject@@@ATL@@IEAA@XZ 0000000180006760 f i VideoCapture.obj
 0001:00005780       ??0?$CComPtrBase@UIDispatch@@@ATL@@IEAA@XZ 0000000180006780 f i VideoCapture.obj
 0001:000057a0       ??0?$CComPtrBase@UIOleClientSite@@@ATL@@IEAA@PEAUIOleClientSite@@@Z 00000001800067a0 f i VideoCapture.obj
 0001:000057f0       ??0?$CComPtrBase@UIOleControlSite@@@ATL@@IEAA@XZ 00000001800067f0 f i VideoCapture.obj
 0001:00005810       ??0?$CComPtrBase@UIOleInPlaceActiveObject@@@ATL@@IEAA@XZ 0000000180006810 f i VideoCapture.obj
 0001:00005830       ??0?$CComPtrBase@UIOleInPlaceFrame@@@ATL@@IEAA@XZ 0000000180006830 f i VideoCapture.obj
 0001:00005850       ??0?$CComPtrBase@UIOleInPlaceObject@@@ATL@@IEAA@XZ 0000000180006850 f i VideoCapture.obj
 0001:00005870       ??0?$CComPtrBase@UIOleInPlaceUIWindow@@@ATL@@IEAA@XZ 0000000180006870 f i VideoCapture.obj
 0001:00005890       ??0?$CComPtrBase@UIOleObject@@@ATL@@IEAA@XZ 0000000180006890 f i VideoCapture.obj
 0001:000058b0       ??0?$CComPtrBase@UIPersistStream@@@ATL@@IEAA@XZ 00000001800068b0 f i VideoCapture.obj
 0001:000058d0       ??0?$CComPtrBase@UIPersistStreamInit@@@ATL@@IEAA@XZ 00000001800068d0 f i VideoCapture.obj
 0001:000058f0       ??0?$CComPtrBase@UIPointerInactive@@@ATL@@IEAA@XZ 00000001800068f0 f i VideoCapture.obj
 0001:00005910       ??0?$CComPtrBase@UIProvideClassInfo2@@@ATL@@IEAA@XZ 0000000180006910 f i VideoCapture.obj
 0001:00005930       ??0?$CComPtrBase@UISpecifyPropertyPages@@@ATL@@IEAA@XZ 0000000180006930 f i VideoCapture.obj
 0001:00005950       ??0?$CComPtrBase@UIStream@@@ATL@@IEAA@XZ 0000000180006950 f i VideoCapture.obj
 0001:00005970       ??0?$CComPtrBase@UITypeInfo2@@@ATL@@IEAA@XZ 0000000180006970 f i VideoCapture.obj
 0001:00005990       ??0?$CComPtrBase@UITypeInfo@@@ATL@@IEAA@PEAUITypeInfo@@@Z 0000000180006990 f i VideoCapture.obj
 0001:000059e0       ??0?$CComPtrBase@UITypeInfo@@@ATL@@IEAA@XZ 00000001800069e0 f i VideoCapture.obj
 0001:00005a00       ??0?$CComPtrBase@UITypeLib@@@ATL@@IEAA@XZ 0000000180006a00 f i VideoCapture.obj
 0001:00005a20       ??0?$CComPtrBase@UIUnknown@@@ATL@@IEAA@PEAUIUnknown@@@Z 0000000180006a20 f i VideoCapture.obj
 0001:00005a70       ??0?$CComPtrBase@UIUnknown@@@ATL@@IEAA@XZ 0000000180006a70 f i VideoCapture.obj
 0001:00005a90       ??0?$CComPtrBase@UIViewObjectEx@@@ATL@@IEAA@XZ 0000000180006a90 f i VideoCapture.obj
 0001:00005ab0       ??0?$CComQIPtr@UIOleControlSite@@$1?_GUID_b196b289_bab4_101a_b69c_00aa00341d07@@3U__s_GUID@@B@ATL@@QEAA@PEAUIUnknown@@@Z 0000000180006ab0 f i VideoCapture.obj
 0001:00005b10       ??0?$CComQIPtr@UIOleObject@@$1?_GUID_00000112_0000_0000_c000_000000000046@@3U__s_GUID@@B@ATL@@QEAA@XZ 0000000180006b10 f i VideoCapture.obj
 0001:00005b30       ??0?$CComQIPtr@UISpecifyPropertyPages@@$1?_GUID_b196b28b_bab4_101a_b69c_00aa00341d07@@3U__s_GUID@@B@ATL@@QEAA@XZ 0000000180006b30 f i VideoCapture.obj
 0001:00005b50       ??0?$CSimpleMap@PEA_WPEA_WVCExpansionVectorEqualHelper@ATL@@@ATL@@QEAA@XZ 0000000180006b50 f i VideoCapture.obj
 0001:00005b90       ??0?$CTempBuffer@E$0BAA@VCCRTAllocator@ATL@@@ATL@@QEAA@XZ 0000000180006b90 f i VideoCapture.obj
 0001:00005bb0       ??0?$CTempBuffer@_W$0BAA@VCCRTAllocator@ATL@@@ATL@@QEAA@XZ 0000000180006bb0 f i VideoCapture.obj
 0001:00005bd0       ??0?$CTempBuffer@_W$0EAA@VCCRTAllocator@ATL@@@ATL@@QEAA@XZ 0000000180006bd0 f i VideoCapture.obj
 0001:00005bf0       ??0?$Wrapper@PEA_W@?$CSimpleMap@PEA_WPEA_WVCExpansionVectorEqualHelper@ATL@@@ATL@@QEAA@AEBQEA_W@Z 0000000180006bf0 f i VideoCapture.obj
 0001:00005c20       ??0CAtlModule@ATL@@QEAA@XZ 0000000180006c20 f i VideoCapture.obj
 0001:00005d80       ??0CComAutoDeleteCriticalSection@ATL@@QEAA@XZ 0000000180006d80 f i VideoCapture.obj
 0001:00005da0       ??0CComBSTR@ATL@@QEAA@XZ   0000000180006da0 f i VideoCapture.obj
 0001:00005dc0       ??0CComClassFactory@ATL@@QEAA@XZ 0000000180006dc0 f i VideoCapture.obj
 0001:00005e00       ??0CComModule@ATL@@QEAA@XZ 0000000180006e00 f i VideoCapture.obj
 0001:00005e80       ??0CComObjectRootBase@ATL@@QEAA@XZ 0000000180006e80 f i VideoCapture.obj
 0001:00005ea0       ??0CComSafeDeleteCriticalSection@ATL@@QEAA@XZ 0000000180006ea0 f i VideoCapture.obj
 0001:00005ed0       ??0CComVariant@ATL@@QEAA@XZ 0000000180006ed0 f i VideoCapture.obj
 0001:00005f10       ??0CExpansionVector@ATL@@QEAA@XZ 0000000180006f10 f i VideoCapture.obj
 0001:00005f30       ??0CParseBuffer@CRegParser@ATL@@QEAA@H@Z 0000000180006f30 f i VideoCapture.obj
 0001:00005fb0       ??0CRegKey@ATL@@QEAA@PEAUHKEY__@@@Z 0000000180006fb0 f i VideoCapture.obj
 0001:00005ff0       ??0CRegKey@ATL@@QEAA@PEAVCAtlTransactionManager@1@@Z 0000000180006ff0 f i VideoCapture.obj
 0001:00006030       ??0CRegObject@ATL@@QEAA@XZ 0000000180007030 f i VideoCapture.obj
 0001:00006070       ??0CRegParser@ATL@@QEAA@PEAVCRegObject@1@@Z 0000000180007070 f i VideoCapture.obj
 0001:000060a0       ??0IClassFactory@@QEAA@XZ  00000001800070a0 f i VideoCapture.obj
 0001:000060c0       ??0IEnumConnectionPoints@@QEAA@XZ 00000001800070c0 f i VideoCapture.obj
 0001:000060e0       ??0IEnumConnections@@QEAA@XZ 00000001800070e0 f i VideoCapture.obj
 0001:00006100       ??0IRegistrarBase@@QEAA@XZ 0000000180007100 f i VideoCapture.obj
 0001:00006120       ??0IUnknown@@QEAA@XZ       0000000180007120 f i VideoCapture.obj
 0001:00006130       ??0ModuleLockHelper@ATL@@QEAA@XZ 0000000180007130 f i VideoCapture.obj
 0001:00006160       ??0OposVariant@@QEAA@XZ    0000000180007160 f i VideoCapture.obj
 0001:00006180       ??0Wrapper@?$CSimpleArray@GV?$CSimpleArrayEqualHelper@G@ATL@@@ATL@@QEAA@AEBG@Z 0000000180007180 f i VideoCapture.obj
 0001:000061b0       ??0_ATL_MODULE70@ATL@@QEAA@XZ 00000001800071b0 f i VideoCapture.obj
 0001:000061e0       ??0_ATL_MSG@ATL@@QEAA@PEAUHWND__@@I_K_JH@Z 00000001800071e0 f i VideoCapture.obj
 0001:00006270       ??0_U_MENUorID@ATL@@QEAA@I@Z 0000000180007270 f i VideoCapture.obj
 0001:00006290       ??0_U_RECT@ATL@@QEAA@AEAUtagRECT@@@Z 0000000180007290 f i VideoCapture.obj
 0001:000062b0       ??0stringdispid@CComTypeInfoHolder@ATL@@QEAA@XZ 00000001800072b0 f i VideoCapture.obj
 0001:000062f0       ??1?$CAtlModuleT@VCComModule@ATL@@@ATL@@UEAA@XZ 00000001800072f0 f i VideoCapture.obj
 0001:00006310       ??1?$CAtlSafeAllocBufferManager@VCCRTAllocator@ATL@@@_ATL_SAFE_ALLOCA_IMPL@ATL@@QEAA@XZ 0000000180007310 f i VideoCapture.obj
 0001:00006360       ??1?$CAutoVectorPtr@_W@ATL@@QEAA@XZ 0000000180007360 f i VideoCapture.obj
 0001:00006380       ??1?$CComAggObject@VCOPOSVideoCapture@@@ATL@@UEAA@XZ 0000000180007380 f i VideoCapture.obj
 0001:000063f0       ??1?$CComContainedObject@VCOPOSVideoCapture@@@ATL@@UEAA@XZ 00000001800073f0 f i VideoCapture.obj
 0001:00006410       ??1?$CComCritSecLock@VCComCriticalSection@ATL@@@ATL@@QEAA@XZ 0000000180007410 f i VideoCapture.obj
 0001:00006440       ??1?$CComEnum@UIEnumConnectionPoints@@$1?_GUID_b196b285_bab4_101a_b69c_00aa00341d07@@3U__s_GUID@@BPEAUIConnectionPoint@@V?$_CopyInterface@UIConnectionPoint@@@ATL@@VCComSingleThreadModel@6@@ATL@@UEAA@XZ 0000000180007440 f i VideoCapture.obj
 0001:00006470       ??1?$CComEnum@UIEnumConnections@@$1?_GUID_b196b287_bab4_101a_b69c_00aa00341d07@@3U__s_GUID@@BUtagCONNECTDATA@@V?$_Copy@UtagCONNECTDATA@@@ATL@@VCComSingleThreadModel@6@@ATL@@UEAA@XZ 0000000180007470 f i VideoCapture.obj
 0001:000064a0       ??1?$CComEnumImpl@UIEnumConnectionPoints@@$1?_GUID_b196b285_bab4_101a_b69c_00aa00341d07@@3U__s_GUID@@BPEAUIConnectionPoint@@V?$_CopyInterface@UIConnectionPoint@@@ATL@@@ATL@@UEAA@XZ 00000001800074a0 f i VideoCapture.obj
 0001:00006530       ??1?$CComEnumImpl@UIEnumConnections@@$1?_GUID_b196b287_bab4_101a_b69c_00aa00341d07@@3U__s_GUID@@BUtagCONNECTDATA@@V?$_Copy@UtagCONNECTDATA@@@ATL@@@ATL@@UEAA@XZ 0000000180007530 f i VideoCapture.obj
 0001:000065c0       ??1?$CComObject@V?$CComEnum@UIEnumConnectionPoints@@$1?_GUID_b196b285_bab4_101a_b69c_00aa00341d07@@3U__s_GUID@@BPEAUIConnectionPoint@@V?$_CopyInterface@UIConnectionPoint@@@ATL@@VCComSingleThreadModel@6@@ATL@@@ATL@@UEAA@XZ 00000001800075c0 f i VideoCapture.obj
 0001:00006620       ??1?$CComObject@V?$CComEnum@UIEnumConnections@@$1?_GUID_b196b287_bab4_101a_b69c_00aa00341d07@@3U__s_GUID@@BUtagCONNECTDATA@@V?$_Copy@UtagCONNECTDATA@@@ATL@@VCComSingleThreadModel@6@@ATL@@@ATL@@UEAA@XZ 0000000180007620 f i VideoCapture.obj
 0001:00006680       ??1?$CComObject@VCOPOSVideoCapture@@@ATL@@UEAA@XZ 0000000180007680 f i VideoCapture.obj
 0001:00006820       ??1?$CComObjectCached@VCComClassFactory@ATL@@@ATL@@UEAA@XZ 0000000180007820 f i VideoCapture.obj
 0001:00006870       ??1?$CComObjectRootEx@VCComMultiThreadModel@ATL@@@ATL@@QEAA@XZ 0000000180007870 f i VideoCapture.obj
 0001:000068a0       ??1?$CComObjectRootEx@VCComSingleThreadModel@ATL@@@ATL@@QEAA@XZ 00000001800078a0 f i VideoCapture.obj
 0001:000068c0       ??1?$CComPtr@UIAdviseSink@@@ATL@@QEAA@XZ 00000001800078c0 f i VideoCapture.obj
 0001:000068e0       ??1?$CComPtr@UICatRegister@@@ATL@@QEAA@XZ 00000001800078e0 f i VideoCapture.obj
 0001:00006900       ??1?$CComPtr@UIConnectionPoint@@@ATL@@QEAA@XZ 0000000180007900 f i VideoCapture.obj
 0001:00006920       ??1?$CComPtr@UIConnectionPointContainer@@@ATL@@QEAA@XZ 0000000180007920 f i VideoCapture.obj
 0001:00006940       ??1?$CComPtr@UIDataObject@@@ATL@@QEAA@XZ 0000000180007940 f i VideoCapture.obj
 0001:00006960       ??1?$CComPtr@UIDispatch@@@ATL@@QEAA@XZ 0000000180007960 f i VideoCapture.obj
 0001:00006980       ??1?$CComPtr@UIOleClientSite@@@ATL@@QEAA@XZ 0000000180007980 f i VideoCapture.obj
 0001:000069a0       ??1?$CComPtr@UIOleControlSite@@@ATL@@QEAA@XZ 00000001800079a0 f i VideoCapture.obj
 0001:000069c0       ??1?$CComPtr@UIOleInPlaceActiveObject@@@ATL@@QEAA@XZ 00000001800079c0 f i VideoCapture.obj
 0001:000069e0       ??1?$CComPtr@UIOleInPlaceFrame@@@ATL@@QEAA@XZ 00000001800079e0 f i VideoCapture.obj
 0001:00006a00       ??1?$CComPtr@UIOleInPlaceObject@@@ATL@@QEAA@XZ 0000000180007a00 f i VideoCapture.obj
 0001:00006a20       ??1?$CComPtr@UIOleInPlaceUIWindow@@@ATL@@QEAA@XZ 0000000180007a20 f i VideoCapture.obj
 0001:00006a40       ??1?$CComPtr@UIOleObject@@@ATL@@QEAA@XZ 0000000180007a40 f i VideoCapture.obj
 0001:00006a60       ??1?$CComPtr@UIPersistStream@@@ATL@@QEAA@XZ 0000000180007a60 f i VideoCapture.obj
 0001:00006a80       ??1?$CComPtr@UIPersistStreamInit@@@ATL@@QEAA@XZ 0000000180007a80 f i VideoCapture.obj
 0001:00006aa0       ??1?$CComPtr@UIPointerInactive@@@ATL@@QEAA@XZ 0000000180007aa0 f i VideoCapture.obj
 0001:00006ac0       ??1?$CComPtr@UIProvideClassInfo2@@@ATL@@QEAA@XZ 0000000180007ac0 f i VideoCapture.obj
 0001:00006ae0       ??1?$CComPtr@UISpecifyPropertyPages@@@ATL@@QEAA@XZ 0000000180007ae0 f i VideoCapture.obj
 0001:00006b00       ??1?$CComPtr@UIStream@@@ATL@@QEAA@XZ 0000000180007b00 f i VideoCapture.obj
 0001:00006b20       ??1?$CComPtr@UITypeInfo2@@@ATL@@QEAA@XZ 0000000180007b20 f i VideoCapture.obj
 0001:00006b40       ??1?$CComPtr@UITypeInfo@@@ATL@@QEAA@XZ 0000000180007b40 f i VideoCapture.obj
 0001:00006b60       ??1?$CComPtr@UITypeLib@@@ATL@@QEAA@XZ 0000000180007b60 f i VideoCapture.obj
 0001:00006b80       ??1?$CComPtr@UIUnknown@@@ATL@@QEAA@XZ 0000000180007b80 f i VideoCapture.obj
 0001:00006ba0       ??1?$CComPtr@UIViewObjectEx@@@ATL@@QEAA@XZ 0000000180007ba0 f i VideoCapture.obj
 0001:00006bc0       ??1?$CComPtrBase@UIAdviseSink@@@ATL@@QEAA@XZ 0000000180007bc0 f i VideoCapture.obj
 0001:00006c00       ??1?$CComPtrBase@UICatRegister@@@ATL@@QEAA@XZ 0000000180007c00 f i VideoCapture.obj
 0001:00006c40       ??1?$CComPtrBase@UIConnectionPoint@@@ATL@@QEAA@XZ 0000000180007c40 f i VideoCapture.obj
 0001:00006c80       ??1?$CComPtrBase@UIConnectionPointContainer@@@ATL@@QEAA@XZ 0000000180007c80 f i VideoCapture.obj
 0001:00006cc0       ??1?$CComPtrBase@UIDataObject@@@ATL@@QEAA@XZ 0000000180007cc0 f i VideoCapture.obj
 0001:00006d00       ??1?$CComPtrBase@UIDispatch@@@ATL@@QEAA@XZ 0000000180007d00 f i VideoCapture.obj
 0001:00006d40       ??1?$CComPtrBase@UIOleClientSite@@@ATL@@QEAA@XZ 0000000180007d40 f i VideoCapture.obj
 0001:00006d80       ??1?$CComPtrBase@UIOleControlSite@@@ATL@@QEAA@XZ 0000000180007d80 f i VideoCapture.obj
 0001:00006dc0       ??1?$CComPtrBase@UIOleInPlaceActiveObject@@@ATL@@QEAA@XZ 0000000180007dc0 f i VideoCapture.obj
 0001:00006e00       ??1?$CComPtrBase@UIOleInPlaceFrame@@@ATL@@QEAA@XZ 0000000180007e00 f i VideoCapture.obj
 0001:00006e40       ??1?$CComPtrBase@UIOleInPlaceObject@@@ATL@@QEAA@XZ 0000000180007e40 f i VideoCapture.obj
 0001:00006e80       ??1?$CComPtrBase@UIOleInPlaceUIWindow@@@ATL@@QEAA@XZ 0000000180007e80 f i VideoCapture.obj
 0001:00006ec0       ??1?$CComPtrBase@UIOleObject@@@ATL@@QEAA@XZ 0000000180007ec0 f i VideoCapture.obj
 0001:00006f00       ??1?$CComPtrBase@UIPersistStream@@@ATL@@QEAA@XZ 0000000180007f00 f i VideoCapture.obj
 0001:00006f40       ??1?$CComPtrBase@UIPersistStreamInit@@@ATL@@QEAA@XZ 0000000180007f40 f i VideoCapture.obj
 0001:00006f80       ??1?$CComPtrBase@UIPointerInactive@@@ATL@@QEAA@XZ 0000000180007f80 f i VideoCapture.obj
 0001:00006fc0       ??1?$CComPtrBase@UIProvideClassInfo2@@@ATL@@QEAA@XZ 0000000180007fc0 f i VideoCapture.obj
 0001:00007000       ??1?$CComPtrBase@UISpecifyPropertyPages@@@ATL@@QEAA@XZ 0000000180008000 f i VideoCapture.obj
 0001:00007040       ??1?$CComPtrBase@UIStream@@@ATL@@QEAA@XZ 0000000180008040 f i VideoCapture.obj
 0001:00007080       ??1?$CComPtrBase@UITypeInfo2@@@ATL@@QEAA@XZ 0000000180008080 f i VideoCapture.obj
 0001:000070c0       ??1?$CComPtrBase@UITypeInfo@@@ATL@@QEAA@XZ 00000001800080c0 f i VideoCapture.obj
 0001:00007100       ??1?$CComPtrBase@UITypeLib@@@ATL@@QEAA@XZ 0000000180008100 f i VideoCapture.obj
 0001:00007140       ??1?$CComPtrBase@UIUnknown@@@ATL@@QEAA@XZ 0000000180008140 f i VideoCapture.obj
 0001:00007180       ??1?$CComPtrBase@UIViewObjectEx@@@ATL@@QEAA@XZ 0000000180008180 f i VideoCapture.obj
 0001:000071c0       ??1?$CComQIPtr@UIOleControlSite@@$1?_GUID_b196b289_bab4_101a_b69c_00aa00341d07@@3U__s_GUID@@B@ATL@@QEAA@XZ 00000001800081c0 f i VideoCapture.obj
 0001:000071e0       ??1?$CComQIPtr@UIOleObject@@$1?_GUID_00000112_0000_0000_c000_000000000046@@3U__s_GUID@@B@ATL@@QEAA@XZ 00000001800081e0 f i VideoCapture.obj
 0001:00007200       ??1?$CComQIPtr@UISpecifyPropertyPages@@$1?_GUID_b196b28b_bab4_101a_b69c_00aa00341d07@@3U__s_GUID@@B@ATL@@QEAA@XZ 0000000180008200 f i VideoCapture.obj
 0001:00007220       ??1?$CSimpleMap@PEA_WPEA_WVCExpansionVectorEqualHelper@ATL@@@ATL@@QEAA@XZ 0000000180008220 f i VideoCapture.obj
 0001:00007240       ??1?$CTempBuffer@E$0BAA@VCCRTAllocator@ATL@@@ATL@@QEAA@XZ 0000000180008240 f i VideoCapture.obj
 0001:00007270       ??1?$CTempBuffer@_W$0BAA@VCCRTAllocator@ATL@@@ATL@@QEAA@XZ 0000000180008270 f i VideoCapture.obj
 0001:000072a0       ??1?$CTempBuffer@_W$0EAA@VCCRTAllocator@ATL@@@ATL@@QEAA@XZ 00000001800082a0 f i VideoCapture.obj
 0001:000072d0       ??1CAtlModule@ATL@@UEAA@XZ 00000001800082d0 f i VideoCapture.obj
 0001:00007300       ??1CComAutoDeleteCriticalSection@ATL@@QEAA@XZ 0000000180008300 f i VideoCapture.obj
 0001:00007320       ??1CComClassFactory@ATL@@UEAA@XZ 0000000180008320 f i VideoCapture.obj
 0001:00007350       ??1CComModule@ATL@@UEAA@XZ 0000000180008350 f i VideoCapture.obj
 0001:00007380       ??1CComObjectRootBase@ATL@@QEAA@XZ 0000000180008380 f i VideoCapture.obj
 0001:00007390       ??1CComSafeDeleteCriticalSection@ATL@@QEAA@XZ 0000000180008390 f i VideoCapture.obj
 0001:000073d0       ??1CComVariant@ATL@@QEAA@XZ 00000001800083d0 f i VideoCapture.obj
 0001:00007430       ??1CExpansionVector@ATL@@QEAA@XZ 0000000180008430 f i VideoCapture.obj
 0001:00007460       ??1CParseBuffer@CRegParser@ATL@@QEAA@XZ 0000000180008460 f i VideoCapture.obj
 0001:00007480       ??1CRegKey@ATL@@QEAA@XZ    0000000180008480 f i VideoCapture.obj
 0001:000074a0       ??1CRegObject@ATL@@UEAA@XZ 00000001800084a0 f i VideoCapture.obj
 0001:000074e0       ??1ModuleLockHelper@ATL@@QEAA@XZ 00000001800084e0 f i VideoCapture.obj
 0001:00007510       ??1OposVariant@@QEAA@XZ    0000000180008510 f i VideoCapture.obj
 0001:00007540       ??1_ATL_MODULE70@ATL@@QEAA@XZ 0000000180008540 f i VideoCapture.obj
 0001:00007570       ??4?$CComPtr@UIAdviseSink@@@ATL@@QEAAPEAUIAdviseSink@@PEAU2@@Z 0000000180008570 f i VideoCapture.obj
 0001:000075d0       ??4?$CComPtr@UIOleClientSite@@@ATL@@QEAAPEAUIOleClientSite@@PEAU2@@Z 00000001800085d0 f i VideoCapture.obj
 0001:00007630       ??4?$CComPtr@UIUnknown@@@ATL@@QEAAPEAUIUnknown@@PEAU2@@Z 0000000180008630 f i VideoCapture.obj
 0001:00007690       ??4?$CComQIPtr@UIOleObject@@$1?_GUID_00000112_0000_0000_c000_000000000046@@3U__s_GUID@@B@ATL@@QEAAPEAUIOleObject@@PEAUIUnknown@@@Z 0000000180008690 f i VideoCapture.obj
 0001:000076e0       ??4?$CComQIPtr@UISpecifyPropertyPages@@$1?_GUID_b196b28b_bab4_101a_b69c_00aa00341d07@@3U__s_GUID@@B@ATL@@QEAAPEAUISpecifyPropertyPages@@PEAUIUnknown@@@Z 00000001800086e0 f i VideoCapture.obj
 0001:00007730       ??7?$CComPtrBase@UIOleClientSite@@@ATL@@QEBA_NXZ 0000000180008730 f i VideoCapture.obj
 0001:00007760       ??7?$CComPtrBase@UIOleInPlaceSiteWindowless@@@ATL@@QEBA_NXZ 0000000180008760 f i VideoCapture.obj
 0001:00007790       ??7CComBSTR@ATL@@QEBA_NXZ  0000000180008790 f i VideoCapture.obj
 0001:000077c0       ??8?$CComPtrBase@UIConnectionPointContainer@@@ATL@@QEBA_NPEAUIConnectionPointContainer@@@Z 00000001800087c0 f i VideoCapture.obj
 0001:00007800       ??8?$CComPtrBase@UIDataAdviseHolder@@@ATL@@QEBA_NPEAUIDataAdviseHolder@@@Z 0000000180008800 f i VideoCapture.obj
 0001:00007840       ??8?$CComPtrBase@UIOleAdviseHolder@@@ATL@@QEBA_NPEAUIOleAdviseHolder@@@Z 0000000180008840 f i VideoCapture.obj
 0001:00007880       ??8?$CComPtrBase@UIOleClientSite@@@ATL@@QEBA_NPEAUIOleClientSite@@@Z 0000000180008880 f i VideoCapture.obj
 0001:000078c0       ??8?$CComPtrBase@UIOleControlSite@@@ATL@@QEBA_NPEAUIOleControlSite@@@Z 00000001800088c0 f i VideoCapture.obj
 0001:00007900       ??8?$CComPtrBase@UIOleInPlaceObject@@@ATL@@QEBA_NPEAUIOleInPlaceObject@@@Z 0000000180008900 f i VideoCapture.obj
 0001:00007940       ??8?$CComPtrBase@UIOleInPlaceSiteWindowless@@@ATL@@QEBA_NPEAUIOleInPlaceSiteWindowless@@@Z 0000000180008940 f i VideoCapture.obj
 0001:00007980       ??8?$CComPtrBase@UIOleObject@@@ATL@@QEBA_NPEAUIOleObject@@@Z 0000000180008980 f i VideoCapture.obj
 0001:000079c0       ??8?$CComPtrBase@UIPersistStream@@@ATL@@QEBA_NPEAUIPersistStream@@@Z 00000001800089c0 f i VideoCapture.obj
 0001:00007a00       ??8?$CComPtrBase@UIPersistStreamInit@@@ATL@@QEBA_NPEAUIPersistStreamInit@@@Z 0000000180008a00 f i VideoCapture.obj
 0001:00007a40       ??8?$CComPtrBase@UIPointerInactive@@@ATL@@QEBA_NPEAUIPointerInactive@@@Z 0000000180008a40 f i VideoCapture.obj
 0001:00007a80       ??8?$CComPtrBase@UIUnknown@@@ATL@@QEBA_NPEAUIUnknown@@@Z 0000000180008a80 f i VideoCapture.obj
 0001:00007ac0       ??8?$CComPtrBase@UIViewObjectEx@@@ATL@@QEBA_NPEAUIViewObjectEx@@@Z 0000000180008ac0 f i VideoCapture.obj
 0001:00007b00       ??8CComBSTR@ATL@@QEBA_NH@Z 0000000180008b00 f i VideoCapture.obj
 0001:00007b60       ??9?$CComPtrBase@UIConnectionPointContainer@@@ATL@@QEBA_NPEAUIConnectionPointContainer@@@Z 0000000180008b60 f i VideoCapture.obj
 0001:00007bb0       ??9?$CComPtrBase@UIDataAdviseHolder@@@ATL@@QEBA_NPEAUIDataAdviseHolder@@@Z 0000000180008bb0 f i VideoCapture.obj
 0001:00007c00       ??9?$CComPtrBase@UIOleAdviseHolder@@@ATL@@QEBA_NPEAUIOleAdviseHolder@@@Z 0000000180008c00 f i VideoCapture.obj
 0001:00007c50       ??9?$CComPtrBase@UIOleClientSite@@@ATL@@QEBA_NPEAUIOleClientSite@@@Z 0000000180008c50 f i VideoCapture.obj
 0001:00007ca0       ??9?$CComPtrBase@UIOleControlSite@@@ATL@@QEBA_NPEAUIOleControlSite@@@Z 0000000180008ca0 f i VideoCapture.obj
 0001:00007cf0       ??9?$CComPtrBase@UIOleInPlaceObject@@@ATL@@QEBA_NPEAUIOleInPlaceObject@@@Z 0000000180008cf0 f i VideoCapture.obj
 0001:00007d40       ??9?$CComPtrBase@UIOleInPlaceSiteWindowless@@@ATL@@QEBA_NPEAUIOleInPlaceSiteWindowless@@@Z 0000000180008d40 f i VideoCapture.obj
 0001:00007d90       ??9?$CComPtrBase@UIOleObject@@@ATL@@QEBA_NPEAUIOleObject@@@Z 0000000180008d90 f i VideoCapture.obj
 0001:00007de0       ??9?$CComPtrBase@UIPersistStream@@@ATL@@QEBA_NPEAUIPersistStream@@@Z 0000000180008de0 f i VideoCapture.obj
 0001:00007e30       ??9?$CComPtrBase@UIPersistStreamInit@@@ATL@@QEBA_NPEAUIPersistStreamInit@@@Z 0000000180008e30 f i VideoCapture.obj
 0001:00007e80       ??9?$CComPtrBase@UIPointerInactive@@@ATL@@QEBA_NPEAUIPointerInactive@@@Z 0000000180008e80 f i VideoCapture.obj
 0001:00007ed0       ??9?$CComPtrBase@UIUnknown@@@ATL@@QEBA_NPEAUIUnknown@@@Z 0000000180008ed0 f i VideoCapture.obj
 0001:00007f20       ??9?$CComPtrBase@UIViewObjectEx@@@ATL@@QEBA_NPEAUIViewObjectEx@@@Z 0000000180008f20 f i VideoCapture.obj
 0001:00007f70       ??9CComBSTR@ATL@@QEBA_NH@Z 0000000180008f70 f i VideoCapture.obj
 0001:00007fb0       ??B?$CComPtrBase@UIAdviseSink@@@ATL@@QEBAPEAUIAdviseSink@@XZ 0000000180008fb0 f i VideoCapture.obj
 0001:00007fc0       ??B?$CComPtrBase@UIDataAdviseHolder@@@ATL@@QEBAPEAUIDataAdviseHolder@@XZ 0000000180008fc0 f i VideoCapture.obj
 0001:00007fd0       ??B?$CComPtrBase@UIDataObject@@@ATL@@QEBAPEAUIDataObject@@XZ 0000000180008fd0 f i VideoCapture.obj
 0001:00007fe0       ??B?$CComPtrBase@UIOleAdviseHolder@@@ATL@@QEBAPEAUIOleAdviseHolder@@XZ 0000000180008fe0 f i VideoCapture.obj
 0001:00007ff0       ??B?$CComPtrBase@UIOleClientSite@@@ATL@@QEBAPEAUIOleClientSite@@XZ 0000000180008ff0 f i VideoCapture.obj
 0001:00008000       ??B?$CComPtrBase@UIOleControlSite@@@ATL@@QEBAPEAUIOleControlSite@@XZ 0000000180009000 f i VideoCapture.obj
 0001:00008010       ??B?$CComPtrBase@UIOleInPlaceActiveObject@@@ATL@@QEBAPEAUIOleInPlaceActiveObject@@XZ 0000000180009010 f i VideoCapture.obj
 0001:00008020       ??B?$CComPtrBase@UIOleInPlaceFrame@@@ATL@@QEBAPEAUIOleInPlaceFrame@@XZ 0000000180009020 f i VideoCapture.obj
 0001:00008030       ??B?$CComPtrBase@UIOleInPlaceSiteWindowless@@@ATL@@QEBAPEAUIOleInPlaceSiteWindowless@@XZ 0000000180009030 f i VideoCapture.obj
 0001:00008040       ??B?$CComPtrBase@UIOleInPlaceUIWindow@@@ATL@@QEBAPEAUIOleInPlaceUIWindow@@XZ 0000000180009040 f i VideoCapture.obj
 0001:00008050       ??B?$CComPtrBase@UIOleObject@@@ATL@@QEBAPEAUIOleObject@@XZ 0000000180009050 f i VideoCapture.obj
 0001:00008060       ??B?$CComPtrBase@UIPersistStream@@@ATL@@QEBAPEAUIPersistStream@@XZ 0000000180009060 f i VideoCapture.obj
 0001:00008070       ??B?$CComPtrBase@UIProvideClassInfo2@@@ATL@@QEBAPEAUIProvideClassInfo2@@XZ 0000000180009070 f i VideoCapture.obj
 0001:00008080       ??B?$CComPtrBase@UISpecifyPropertyPages@@@ATL@@QEBAPEAUISpecifyPropertyPages@@XZ 0000000180009080 f i VideoCapture.obj
 0001:00008090       ??B?$CComPtrBase@UIStream@@@ATL@@QEBAPEAUIStream@@XZ 0000000180009090 f i VideoCapture.obj
 0001:000080a0       ??B?$CComPtrBase@UITypeInfo2@@@ATL@@QEBAPEAUITypeInfo2@@XZ 00000001800090a0 f i VideoCapture.obj
 0001:000080b0       ??B?$CComPtrBase@UITypeInfo@@@ATL@@QEBAPEAUITypeInfo@@XZ 00000001800090b0 f i VideoCapture.obj
 0001:000080c0       ??B?$CComPtrBase@UITypeLib@@@ATL@@QEBAPEAUITypeLib@@XZ 00000001800090c0 f i VideoCapture.obj
 0001:000080d0       ??B?$CComPtrBase@UIUnknown@@@ATL@@QEBAPEAUIUnknown@@XZ 00000001800090d0 f i VideoCapture.obj
 0001:000080e0       ??B?$CTempBuffer@E$0BAA@VCCRTAllocator@ATL@@@ATL@@QEBAPEAEXZ 00000001800090e0 f i VideoCapture.obj
 0001:000080f0       ??B?$CTempBuffer@_W$0BAA@VCCRTAllocator@ATL@@@ATL@@QEBAPEA_WXZ 00000001800090f0 f i VideoCapture.obj
 0001:00008100       ??B?$CTempBuffer@_W$0EAA@VCCRTAllocator@ATL@@@ATL@@QEBAPEA_WXZ 0000000180009100 f i VideoCapture.obj
 0001:00008110       ??B?$CTraceCategoryEx@$00$0A@@ATL@@QEAAIXZ 0000000180009110 f i VideoCapture.obj
 0001:00008120       ??B?$CTraceCategoryEx@$07$0A@@ATL@@QEAAIXZ 0000000180009120 f i VideoCapture.obj
 0001:00008130       ??B?$CTraceCategoryEx@$0CAAA@$0A@@ATL@@QEAAIXZ 0000000180009130 f i VideoCapture.obj
 0001:00008140       ??B?$CTraceCategoryEx@$0EA@$0A@@ATL@@QEAAIXZ 0000000180009140 f i VideoCapture.obj
 0001:00008150       ??B?$CTraceCategoryEx@$0IAA@$0A@@ATL@@QEAAIXZ 0000000180009150 f i VideoCapture.obj
 0001:00008160       ??BCComBSTR@ATL@@QEBAPEA_WXZ 0000000180009160 f i VideoCapture.obj
 0001:00008170       ??BCRegKey@ATL@@QEBAPEAUHKEY__@@XZ 0000000180009170 f i VideoCapture.obj
 0001:00008180       ??C?$CComPtrBase@UIAdviseSink@@@ATL@@QEBAPEAV?$_NoAddRefReleaseOnCComPtr@UIAdviseSink@@@1@XZ 0000000180009180 f i VideoCapture.obj
 0001:000081e0       ??C?$CComPtrBase@UICatRegister@@@ATL@@QEBAPEAV?$_NoAddRefReleaseOnCComPtr@UICatRegister@@@1@XZ 00000001800091e0 f i VideoCapture.obj
 0001:00008240       ??C?$CComPtrBase@UIConnectionPoint@@@ATL@@QEBAPEAV?$_NoAddRefReleaseOnCComPtr@UIConnectionPoint@@@1@XZ 0000000180009240 f i VideoCapture.obj
 0001:000082a0       ??C?$CComPtrBase@UIConnectionPointContainer@@@ATL@@QEBAPEAV?$_NoAddRefReleaseOnCComPtr@UIConnectionPointContainer@@@1@XZ 00000001800092a0 f i VideoCapture.obj
 0001:00008300       ??C?$CComPtrBase@UIDataAdviseHolder@@@ATL@@QEBAPEAV?$_NoAddRefReleaseOnCComPtr@UIDataAdviseHolder@@@1@XZ 0000000180009300 f i VideoCapture.obj
 0001:00008360       ??C?$CComPtrBase@UIOleAdviseHolder@@@ATL@@QEBAPEAV?$_NoAddRefReleaseOnCComPtr@UIOleAdviseHolder@@@1@XZ 0000000180009360 f i VideoCapture.obj
 0001:000083c0       ??C?$CComPtrBase@UIOleClientSite@@@ATL@@QEBAPEAV?$_NoAddRefReleaseOnCComPtr@UIOleClientSite@@@1@XZ 00000001800093c0 f i VideoCapture.obj
 0001:00008420       ??C?$CComPtrBase@UIOleControlSite@@@ATL@@QEBAPEAV?$_NoAddRefReleaseOnCComPtr@UIOleControlSite@@@1@XZ 0000000180009420 f i VideoCapture.obj
 0001:00008480       ??C?$CComPtrBase@UIOleInPlaceFrame@@@ATL@@QEBAPEAV?$_NoAddRefReleaseOnCComPtr@UIOleInPlaceFrame@@@1@XZ 0000000180009480 f i VideoCapture.obj
 0001:000084e0       ??C?$CComPtrBase@UIOleInPlaceObject@@@ATL@@QEBAPEAV?$_NoAddRefReleaseOnCComPtr@UIOleInPlaceObject@@@1@XZ 00000001800094e0 f i VideoCapture.obj
 0001:00008540       ??C?$CComPtrBase@UIOleInPlaceSiteWindowless@@@ATL@@QEBAPEAV?$_NoAddRefReleaseOnCComPtr@UIOleInPlaceSiteWindowless@@@1@XZ 0000000180009540 f i VideoCapture.obj
 0001:000085a0       ??C?$CComPtrBase@UIOleInPlaceUIWindow@@@ATL@@QEBAPEAV?$_NoAddRefReleaseOnCComPtr@UIOleInPlaceUIWindow@@@1@XZ 00000001800095a0 f i VideoCapture.obj
 0001:00008600       ??C?$CComPtrBase@UIOleObject@@@ATL@@QEBAPEAV?$_NoAddRefReleaseOnCComPtr@UIOleObject@@@1@XZ 0000000180009600 f i VideoCapture.obj
 0001:00008660       ??C?$CComPtrBase@UIPersistStream@@@ATL@@QEBAPEAV?$_NoAddRefReleaseOnCComPtr@UIPersistStream@@@1@XZ 0000000180009660 f i VideoCapture.obj
 0001:000086c0       ??C?$CComPtrBase@UIPersistStreamInit@@@ATL@@QEBAPEAV?$_NoAddRefReleaseOnCComPtr@UIPersistStreamInit@@@1@XZ 00000001800096c0 f i VideoCapture.obj
 0001:00008720       ??C?$CComPtrBase@UIPointerInactive@@@ATL@@QEBAPEAV?$_NoAddRefReleaseOnCComPtr@UIPointerInactive@@@1@XZ 0000000180009720 f i VideoCapture.obj
 0001:00008780       ??C?$CComPtrBase@UIProvideClassInfo2@@@ATL@@QEBAPEAV?$_NoAddRefReleaseOnCComPtr@UIProvideClassInfo2@@@1@XZ 0000000180009780 f i VideoCapture.obj
 0001:000087e0       ??C?$CComPtrBase@UISpecifyPropertyPages@@@ATL@@QEBAPEAV?$_NoAddRefReleaseOnCComPtr@UISpecifyPropertyPages@@@1@XZ 00000001800097e0 f i VideoCapture.obj
 0001:00008840       ??C?$CComPtrBase@UITypeInfo@@@ATL@@QEBAPEAV?$_NoAddRefReleaseOnCComPtr@UITypeInfo@@@1@XZ 0000000180009840 f i VideoCapture.obj
 0001:000088a0       ??C?$CComPtrBase@UITypeLib@@@ATL@@QEBAPEAV?$_NoAddRefReleaseOnCComPtr@UITypeLib@@@1@XZ 00000001800098a0 f i VideoCapture.obj
 0001:00008900       ??C?$CComPtrBase@UIUnknown@@@ATL@@QEBAPEAV?$_NoAddRefReleaseOnCComPtr@UIUnknown@@@1@XZ 0000000180009900 f i VideoCapture.obj
 0001:00008960       ??C?$CComPtrBase@UIViewObjectEx@@@ATL@@QEBAPEAV?$_NoAddRefReleaseOnCComPtr@UIViewObjectEx@@@1@XZ 0000000180009960 f i VideoCapture.obj
 0001:000089c0       ??I?$CComPtrBase@UICatRegister@@@ATL@@QEAAPEAPEAUICatRegister@@XZ 00000001800099c0 f i VideoCapture.obj
 0001:00008a20       ??I?$CComPtrBase@UIConnectionPoint@@@ATL@@QEAAPEAPEAUIConnectionPoint@@XZ 0000000180009a20 f i VideoCapture.obj
 0001:00008a80       ??I?$CComPtrBase@UIConnectionPointContainer@@@ATL@@QEAAPEAPEAUIConnectionPointContainer@@XZ 0000000180009a80 f i VideoCapture.obj
 0001:00008ae0       ??I?$CComPtrBase@UIDataAdviseHolder@@@ATL@@QEAAPEAPEAUIDataAdviseHolder@@XZ 0000000180009ae0 f i VideoCapture.obj
 0001:00008b40       ??I?$CComPtrBase@UIDataObject@@@ATL@@QEAAPEAPEAUIDataObject@@XZ 0000000180009b40 f i VideoCapture.obj
 0001:00008ba0       ??I?$CComPtrBase@UIDispatch@@@ATL@@QEAAPEAPEAUIDispatch@@XZ 0000000180009ba0 f i VideoCapture.obj
 0001:00008c00       ??I?$CComPtrBase@UIOleAdviseHolder@@@ATL@@QEAAPEAPEAUIOleAdviseHolder@@XZ 0000000180009c00 f i VideoCapture.obj
 0001:00008c60       ??I?$CComPtrBase@UIOleControlSite@@@ATL@@QEAAPEAPEAUIOleControlSite@@XZ 0000000180009c60 f i VideoCapture.obj
 0001:00008cc0       ??I?$CComPtrBase@UIOleInPlaceActiveObject@@@ATL@@QEAAPEAPEAUIOleInPlaceActiveObject@@XZ 0000000180009cc0 f i VideoCapture.obj
 0001:00008d20       ??I?$CComPtrBase@UIOleInPlaceFrame@@@ATL@@QEAAPEAPEAUIOleInPlaceFrame@@XZ 0000000180009d20 f i VideoCapture.obj
 0001:00008d80       ??I?$CComPtrBase@UIOleInPlaceObject@@@ATL@@QEAAPEAPEAUIOleInPlaceObject@@XZ 0000000180009d80 f i VideoCapture.obj
 0001:00008de0       ??I?$CComPtrBase@UIOleInPlaceSiteWindowless@@@ATL@@QEAAPEAPEAUIOleInPlaceSiteWindowless@@XZ 0000000180009de0 f i VideoCapture.obj
 0001:00008e40       ??I?$CComPtrBase@UIOleInPlaceUIWindow@@@ATL@@QEAAPEAPEAUIOleInPlaceUIWindow@@XZ 0000000180009e40 f i VideoCapture.obj
 0001:00008ea0       ??I?$CComPtrBase@UIOleObject@@@ATL@@QEAAPEAPEAUIOleObject@@XZ 0000000180009ea0 f i VideoCapture.obj
 0001:00008f00       ??I?$CComPtrBase@UIPersistStream@@@ATL@@QEAAPEAPEAUIPersistStream@@XZ 0000000180009f00 f i VideoCapture.obj
 0001:00008f60       ??I?$CComPtrBase@UIPointerInactive@@@ATL@@QEAAPEAPEAUIPointerInactive@@XZ 0000000180009f60 f i VideoCapture.obj
 0001:00008fc0       ??I?$CComPtrBase@UIProvideClassInfo2@@@ATL@@QEAAPEAPEAUIProvideClassInfo2@@XZ 0000000180009fc0 f i VideoCapture.obj
 0001:00009020       ??I?$CComPtrBase@UIStream@@@ATL@@QEAAPEAPEAUIStream@@XZ 000000018000a020 f i VideoCapture.obj
 0001:00009080       ??I?$CComPtrBase@UITypeInfo2@@@ATL@@QEAAPEAPEAUITypeInfo2@@XZ 000000018000a080 f i VideoCapture.obj
 0001:000090e0       ??I?$CComPtrBase@UITypeInfo@@@ATL@@QEAAPEAPEAUITypeInfo@@XZ 000000018000a0e0 f i VideoCapture.obj
 0001:00009140       ??I?$CComPtrBase@UITypeLib@@@ATL@@QEAAPEAPEAUITypeLib@@XZ 000000018000a140 f i VideoCapture.obj
 0001:000091a0       ??I?$CComPtrBase@UIUnknown@@@ATL@@QEAAPEAPEAUIUnknown@@XZ 000000018000a1a0 f i VideoCapture.obj
 0001:00009200       ??I?$CComPtrBase@UIViewObjectEx@@@ATL@@QEAAPEAPEAUIViewObjectEx@@XZ 000000018000a200 f i VideoCapture.obj
 0001:00009260       ??ICComBSTR@ATL@@QEAAPEAPEA_WXZ 000000018000a260 f i VideoCapture.obj
 0001:00009270       ??_E?$CComContainedObject@VCOPOSVideoCapture@@@ATL@@W7EAAPEAXI@Z 000000018000a270 f i VideoCapture.obj
 0001:0000927c       ??_E?$CComContainedObject@VCOPOSVideoCapture@@@ATL@@WHA@EAAPEAXI@Z 000000018000a27c f i VideoCapture.obj
 0001:00009288       ??_E?$CComObject@VCOPOSVideoCapture@@@ATL@@W7EAAPEAXI@Z 000000018000a288 f i VideoCapture.obj
 0001:00009294       ??_E?$CComObject@VCOPOSVideoCapture@@@ATL@@WHA@EAAPEAXI@Z 000000018000a294 f i VideoCapture.obj
 0001:000092a0       ??_G?$CComAggObject@VCOPOSVideoCapture@@@ATL@@UEAAPEAXI@Z 000000018000a2a0 f i VideoCapture.obj
 0001:000092a0       ??_E?$CComAggObject@VCOPOSVideoCapture@@@ATL@@UEAAPEAXI@Z 000000018000a2a0 f i VideoCapture.obj
 0001:000092e0       ??_G?$CComContainedObject@VCOPOSVideoCapture@@@ATL@@UEAAPEAXI@Z 000000018000a2e0 f i VideoCapture.obj
 0001:000092e0       ??_E?$CComContainedObject@VCOPOSVideoCapture@@@ATL@@UEAAPEAXI@Z 000000018000a2e0 f i VideoCapture.obj
 0001:00009320       ??_E?$CComObject@V?$CComEnum@UIEnumConnectionPoints@@$1?_GUID_b196b285_bab4_101a_b69c_00aa00341d07@@3U__s_GUID@@BPEAUIConnectionPoint@@V?$_CopyInterface@UIConnectionPoint@@@ATL@@VCComSingleThreadModel@6@@ATL@@@ATL@@UEAAPEAXI@Z 000000018000a320 f i VideoCapture.obj
 0001:00009320       ??_G?$CComObject@V?$CComEnum@UIEnumConnectionPoints@@$1?_GUID_b196b285_bab4_101a_b69c_00aa00341d07@@3U__s_GUID@@BPEAUIConnectionPoint@@V?$_CopyInterface@UIConnectionPoint@@@ATL@@VCComSingleThreadModel@6@@ATL@@@ATL@@UEAAPEAXI@Z 000000018000a320 f i VideoCapture.obj
 0001:00009360       ??_E?$CComObject@V?$CComEnum@UIEnumConnections@@$1?_GUID_b196b287_bab4_101a_b69c_00aa00341d07@@3U__s_GUID@@BUtagCONNECTDATA@@V?$_Copy@UtagCONNECTDATA@@@ATL@@VCComSingleThreadModel@6@@ATL@@@ATL@@UEAAPEAXI@Z 000000018000a360 f i VideoCapture.obj
 0001:00009360       ??_G?$CComObject@V?$CComEnum@UIEnumConnections@@$1?_GUID_b196b287_bab4_101a_b69c_00aa00341d07@@3U__s_GUID@@BUtagCONNECTDATA@@V?$_Copy@UtagCONNECTDATA@@@ATL@@VCComSingleThreadModel@6@@ATL@@@ATL@@UEAAPEAXI@Z 000000018000a360 f i VideoCapture.obj
 0001:000093a0       ??_G?$CComObject@VCOPOSVideoCapture@@@ATL@@UEAAPEAXI@Z 000000018000a3a0 f i VideoCapture.obj
 0001:000093a0       ??_E?$CComObject@VCOPOSVideoCapture@@@ATL@@UEAAPEAXI@Z 000000018000a3a0 f i VideoCapture.obj
 0001:000093e0       ??_E?$CComObjectCached@VCComClassFactory@ATL@@@ATL@@UEAAPEAXI@Z 000000018000a3e0 f i VideoCapture.obj
 0001:000093e0       ??_G?$CComObjectCached@VCComClassFactory@ATL@@@ATL@@UEAAPEAXI@Z 000000018000a3e0 f i VideoCapture.obj
 0001:00009420       ??_ECComClassFactory@ATL@@UEAAPEAXI@Z 000000018000a420 f i VideoCapture.obj
 0001:00009420       ??_GCComClassFactory@ATL@@UEAAPEAXI@Z 000000018000a420 f i VideoCapture.obj
 0001:00009460       ??_GCComModule@ATL@@UEAAPEAXI@Z 000000018000a460 f i VideoCapture.obj
 0001:00009460       ??_ECComModule@ATL@@UEAAPEAXI@Z 000000018000a460 f i VideoCapture.obj
 0001:000094a0       ??_ECRegObject@ATL@@UEAAPEAXI@Z 000000018000a4a0 f i VideoCapture.obj
 0001:000094a0       ??_GCRegObject@ATL@@UEAAPEAXI@Z 000000018000a4a0 f i VideoCapture.obj
 0001:000094e0       ?Add@?$CSimpleArray@GV?$CSimpleArrayEqualHelper@G@ATL@@@ATL@@QEAAHAEBG@Z 000000018000a4e0 f i VideoCapture.obj
 0001:00009670       ?Add@?$CSimpleMap@PEA_WPEA_WVCExpansionVectorEqualHelper@ATL@@@ATL@@QEAAHAEBQEA_W0@Z 000000018000a670 f i VideoCapture.obj
 0001:00009750       ?Add@CComDynamicUnkArray@ATL@@QEAAKPEAUIUnknown@@@Z 000000018000a750 f i VideoCapture.obj
 0001:00009930       ?Add@CExpansionVector@ATL@@QEAAHPEB_W0@Z 000000018000a930 f i VideoCapture.obj
 0001:00009c70       ?AddChar@CParseBuffer@CRegParser@ATL@@QEAAHPEB_W@Z 000000018000ac70 f i VideoCapture.obj
 0001:00009cb0       ?AddCommonRGSReplacements@?$CAtlModuleT@VCComModule@ATL@@@ATL@@UEAAJPEAUIRegistrarBase@@@Z 000000018000acb0 f i VideoCapture.obj
 0001:00009cf0       ?AddCreateWndData@CAtlWinModule@ATL@@QEAAXPEAU_AtlCreateWndData@2@PEAX@Z 000000018000acf0 f i VideoCapture.obj
 0001:00009d20       ?AddRef@?$CComAggObject@VCOPOSVideoCapture@@@ATL@@UEAAKXZ 000000018000ad20 f i VideoCapture.obj
 0001:00009d50       ?AddRef@?$CComContainedObject@VCOPOSVideoCapture@@@ATL@@UEAAKXZ 000000018000ad50 f i VideoCapture.obj
 0001:00009d74       ?AddRef@?$CComContainedObject@VCOPOSVideoCapture@@@ATL@@WBAA@EAAKXZ 000000018000ad74 f i VideoCapture.obj
 0001:00009d80       ?AddRef@?$CComContainedObject@VCOPOSVideoCapture@@@ATL@@WBAI@EAAKXZ 000000018000ad80 f i VideoCapture.obj
 0001:00009d8c       ?AddRef@?$CComContainedObject@VCOPOSVideoCapture@@@ATL@@WBBA@EAAKXZ 000000018000ad8c f i VideoCapture.obj
 0001:00009d98       ?AddRef@?$CComContainedObject@VCOPOSVideoCapture@@@ATL@@WBBI@EAAKXZ 000000018000ad98 f i VideoCapture.obj
 0001:00009da4       ?AddRef@?$CComContainedObject@VCOPOSVideoCapture@@@ATL@@WBCI@EAAKXZ 000000018000ada4 f i VideoCapture.obj
 0001:00009db0       ?AddRef@?$CComContainedObject@VCOPOSVideoCapture@@@ATL@@WBEA@EAAKXZ 000000018000adb0 f i VideoCapture.obj
 0001:00009dbc       ?AddRef@?$CComContainedObject@VCOPOSVideoCapture@@@ATL@@WLI@EAAKXZ 000000018000adbc f i VideoCapture.obj
 0001:00009dc8       ?AddRef@?$CComContainedObject@VCOPOSVideoCapture@@@ATL@@WMA@EAAKXZ 000000018000adc8 f i VideoCapture.obj
 0001:00009dd4       ?AddRef@?$CComContainedObject@VCOPOSVideoCapture@@@ATL@@WMI@EAAKXZ 000000018000add4 f i VideoCapture.obj
 0001:00009de0       ?AddRef@?$CComContainedObject@VCOPOSVideoCapture@@@ATL@@WNA@EAAKXZ 000000018000ade0 f i VideoCapture.obj
 0001:00009dec       ?AddRef@?$CComContainedObject@VCOPOSVideoCapture@@@ATL@@WNI@EAAKXZ 000000018000adec f i VideoCapture.obj
 0001:00009df8       ?AddRef@?$CComContainedObject@VCOPOSVideoCapture@@@ATL@@WOA@EAAKXZ 000000018000adf8 f i VideoCapture.obj
 0001:00009e04       ?AddRef@?$CComContainedObject@VCOPOSVideoCapture@@@ATL@@WOI@EAAKXZ 000000018000ae04 f i VideoCapture.obj
 0001:00009e10       ?AddRef@?$CComContainedObject@VCOPOSVideoCapture@@@ATL@@WPA@EAAKXZ 000000018000ae10 f i VideoCapture.obj
 0001:00009e1c       ?AddRef@?$CComContainedObject@VCOPOSVideoCapture@@@ATL@@WPI@EAAKXZ 000000018000ae1c f i VideoCapture.obj
 0001:00009e30       ?AddRef@?$CComObject@V?$CComEnum@UIEnumConnectionPoints@@$1?_GUID_b196b285_bab4_101a_b69c_00aa00341d07@@3U__s_GUID@@BPEAUIConnectionPoint@@V?$_CopyInterface@UIConnectionPoint@@@ATL@@VCComSingleThreadModel@6@@ATL@@@ATL@@UEAAKXZ 000000018000ae30 f i VideoCapture.obj
 0001:00009e60       ?AddRef@?$CComObject@V?$CComEnum@UIEnumConnections@@$1?_GUID_b196b287_bab4_101a_b69c_00aa00341d07@@3U__s_GUID@@BUtagCONNECTDATA@@V?$_Copy@UtagCONNECTDATA@@@ATL@@VCComSingleThreadModel@6@@ATL@@@ATL@@UEAAKXZ 000000018000ae60 f i VideoCapture.obj
 0001:00009e90       ?AddRef@?$CComObject@VCOPOSVideoCapture@@@ATL@@UEAAKXZ 000000018000ae90 f i VideoCapture.obj
 0001:00009eb4       ?AddRef@?$CComObject@VCOPOSVideoCapture@@@ATL@@WBAA@EAAKXZ 000000018000aeb4 f i VideoCapture.obj
 0001:00009ec0       ?AddRef@?$CComObject@VCOPOSVideoCapture@@@ATL@@WBAI@EAAKXZ 000000018000aec0 f i VideoCapture.obj
 0001:00009ecc       ?AddRef@?$CComObject@VCOPOSVideoCapture@@@ATL@@WBBA@EAAKXZ 000000018000aecc f i VideoCapture.obj
 0001:00009ed8       ?AddRef@?$CComObject@VCOPOSVideoCapture@@@ATL@@WBBI@EAAKXZ 000000018000aed8 f i VideoCapture.obj
 0001:00009ee4       ?AddRef@?$CComObject@VCOPOSVideoCapture@@@ATL@@WBCI@EAAKXZ 000000018000aee4 f i VideoCapture.obj
 0001:00009ef0       ?AddRef@?$CComObject@VCOPOSVideoCapture@@@ATL@@WBEA@EAAKXZ 000000018000aef0 f i VideoCapture.obj
 0001:00009efc       ?AddRef@?$CComObject@VCOPOSVideoCapture@@@ATL@@WLI@EAAKXZ 000000018000aefc f i VideoCapture.obj
 0001:00009f08       ?AddRef@?$CComObject@VCOPOSVideoCapture@@@ATL@@WMA@EAAKXZ 000000018000af08 f i VideoCapture.obj
 0001:00009f14       ?AddRef@?$CComObject@VCOPOSVideoCapture@@@ATL@@WMI@EAAKXZ 000000018000af14 f i VideoCapture.obj
 0001:00009f20       ?AddRef@?$CComObject@VCOPOSVideoCapture@@@ATL@@WNA@EAAKXZ 000000018000af20 f i VideoCapture.obj
 0001:00009f2c       ?AddRef@?$CComObject@VCOPOSVideoCapture@@@ATL@@WNI@EAAKXZ 000000018000af2c f i VideoCapture.obj
 0001:00009f38       ?AddRef@?$CComObject@VCOPOSVideoCapture@@@ATL@@WOA@EAAKXZ 000000018000af38 f i VideoCapture.obj
 0001:00009f44       ?AddRef@?$CComObject@VCOPOSVideoCapture@@@ATL@@WOI@EAAKXZ 000000018000af44 f i VideoCapture.obj
 0001:00009f50       ?AddRef@?$CComObject@VCOPOSVideoCapture@@@ATL@@WPA@EAAKXZ 000000018000af50 f i VideoCapture.obj
 0001:00009f5c       ?AddRef@?$CComObject@VCOPOSVideoCapture@@@ATL@@WPI@EAAKXZ 000000018000af5c f i VideoCapture.obj
 0001:00009f70       ?AddRef@?$CComObjectCached@VCComClassFactory@ATL@@@ATL@@UEAAKXZ 000000018000af70 f i VideoCapture.obj
 0001:00009fc0       ?AddRef@CRegObject@ATL@@UEAAKXZ 000000018000afc0 f i VideoCapture.obj
 0001:0000a020       ?AddReplacement@CRegObject@ATL@@UEAAJPEB_W0@Z 000000018000b020 f i VideoCapture.obj
 0001:0000a150       ?AddString@CParseBuffer@CRegParser@ATL@@QEAAHPEB_W@Z 000000018000b150 f i VideoCapture.obj
 0001:0000a240       ?AddTermFunc@CAtlModule@ATL@@QEAAJP6AX_K@Z0@Z 000000018000b240 f i VideoCapture.obj
 0001:0000a290       ?AddValue@CRegParser@ATL@@IEAAJAEAVCRegKey@2@PEB_WPEA_W@Z 000000018000b290 f i VideoCapture.obj
 0001:0000ab60       ?Advise@?$CProxy_IOPOSEvents@VCOPOSVideoCapture@@@@UEAAJPEAUIUnknown@@PEAK@Z 000000018000bb60 f i VideoCapture.obj
 0001:0000abc0       ?Advise@?$IConnectionPointImpl@VCOPOSVideoCapture@@$1?DIID__IOPOSVideoCaptureEvents@@3U_GUID@@BVCComDynamicUnkArray@ATL@@@ATL@@UEAAJPEAUIUnknown@@PEAK@Z 000000018000bbc0 f i VideoCapture.obj
 0001:0000adc0       ?Advise@?$IConnectionPointImpl@VCOPOSVideoCapture@@$1?IID_IPropertyNotifySink@@3U_GUID@@BVCComDynamicUnkArray@ATL@@@ATL@@UEAAJPEAUIUnknown@@PEAK@Z 000000018000bdc0 f i VideoCapture.obj
 0001:0000afc0       ?Advise@?$IOleObjectImpl@VCOPOSVideoCapture@@@ATL@@UEAAJPEAUIAdviseSink@@PEAK@Z 000000018000bfc0 f i VideoCapture.obj
 0001:0000b070       ?Allocate@?$CAtlSafeAllocBufferManager@VCCRTAllocator@ATL@@@_ATL_SAFE_ALLOCA_IMPL@ATL@@QEAAPEAX_K@Z 000000018000c070 f i VideoCapture.obj
 0001:0000b0e0       ?Allocate@?$CTempBuffer@E$0BAA@VCCRTAllocator@ATL@@@ATL@@QEAAPEAE_K@Z 000000018000c0e0 f i VideoCapture.obj
 0001:0000b120       ?Allocate@?$CTempBuffer@_W$0BAA@VCCRTAllocator@ATL@@@ATL@@QEAAPEA_W_K@Z 000000018000c120 f i VideoCapture.obj
 0001:0000b160       ?Allocate@?$CTempBuffer@_W$0EAA@VCCRTAllocator@ATL@@@ATL@@QEAAPEA_W_K@Z 000000018000c160 f i VideoCapture.obj
 0001:0000b1a0       ?AllocateBytes@?$CTempBuffer@E$0BAA@VCCRTAllocator@ATL@@@ATL@@QEAAPEAE_K@Z 000000018000c1a0 f i VideoCapture.obj
 0001:0000b230       ?AllocateBytes@?$CTempBuffer@_W$0BAA@VCCRTAllocator@ATL@@@ATL@@QEAAPEA_W_K@Z 000000018000c230 f i VideoCapture.obj
 0001:0000b2c0       ?AllocateBytes@?$CTempBuffer@_W$0EAA@VCCRTAllocator@ATL@@@ATL@@QEAAPEA_W_K@Z 000000018000c2c0 f i VideoCapture.obj
 0001:0000b350       ?AllocateHeap@?$CTempBuffer@E$0BAA@VCCRTAllocator@ATL@@@ATL@@AEAAX_K@Z 000000018000c350 f i VideoCapture.obj
 0001:0000b3a0       ?AllocateHeap@?$CTempBuffer@_W$0BAA@VCCRTAllocator@ATL@@@ATL@@AEAAX_K@Z 000000018000c3a0 f i VideoCapture.obj
 0001:0000b3f0       ?AllocateHeap@?$CTempBuffer@_W$0EAA@VCCRTAllocator@ATL@@@ATL@@AEAAX_K@Z 000000018000c3f0 f i VideoCapture.obj
 0001:0000b440       ?Append@CParseBuffer@CRegParser@ATL@@QEAAHPEB_WH@Z 000000018000c440 f i VideoCapture.obj
 0001:0000b660       ?AtlCallTermFunc@ATL@@YAXPEAU_ATL_MODULE70@1@@Z 000000018000c660 f i VideoCapture.obj
 0001:0000b700       ?AtlCoTaskMemCAlloc@ATL@@YAPEAXKK@Z 000000018000c700 f i VideoCapture.obj
 0001:0000b780       ?AtlCoTaskMemRecalloc@ATL@@YAPEAXPEAXKK@Z 000000018000c780 f i VideoCapture.obj
 0001:0000b800       ?AtlComModuleGetClassObject@ATL@@YAJPEAU_ATL_COM_MODULE70@1@AEBU_GUID@@1PEAPEAX@Z 000000018000c800 f i VideoCapture.obj
 0001:0000bb30       ?AtlComModuleRegisterServer@ATL@@YAJPEAU_ATL_COM_MODULE70@1@HPEBU_GUID@@@Z 000000018000cb30 f i VideoCapture.obj
 0001:0000bd20       ?AtlComModuleUnregisterServer@ATL@@YAJPEAU_ATL_COM_MODULE70@1@HPEBU_GUID@@@Z 000000018000cd20 f i VideoCapture.obj
 0001:0000be70       ?AtlComQIPtrAssign2@ATL@@YAXPEAPEAUIUnknown@@PEAU2@AEBU_GUID@@@Z 000000018000ce70 f i VideoCapture.obj
 0001:0000bee0       ?AtlCreateTargetDC@ATL@@YAPEAUHDC__@@PEAU2@PEAUtagDVTARGETDEVICE@@@Z 000000018000cee0 f i VideoCapture.obj
 0001:0000c110       ?AtlCrtErrorCheck@ATL@@YAHH@Z 000000018000d110 f i VideoCapture.obj
 0001:0000c180       ?AtlGetPerUserRegistration@ATL@@YAJPEA_N@Z 000000018000d180 f i VideoCapture.obj
 0001:0000c1b0       ?AtlHiMetricToPixel@ATL@@YAXPEBUtagSIZE@@PEAU2@@Z 000000018000d1b0 f i VideoCapture.obj
 0001:0000c390       ?AtlHresultFromLastError@ATL@@YAJXZ 000000018000d390 f i VideoCapture.obj
 0001:0000c3b0       ?AtlHresultFromWin32@ATL@@YAJK@Z 000000018000d3b0 f i VideoCapture.obj
 0001:0000c3d0       ?AtlIPersistStreamInit_Load@ATL@@YAJPEAUIStream@@PEBUATL_PROPMAP_ENTRY@1@PEAXPEAUIUnknown@@@Z 000000018000d3d0 f i VideoCapture.obj
 0001:0000ca50       ?AtlIPersistStreamInit_Save@ATL@@YAJPEAUIStream@@HPEBUATL_PROPMAP_ENTRY@1@PEAXPEAUIUnknown@@@Z 000000018000da50 f i VideoCapture.obj
 0001:0000cfe0       ?AtlInternalOleLoadFromStream@ATL@@YAJPEAUIStream@@AEBU_GUID@@PEAPEAXTClassesAllowedInStream@1@K@Z 000000018000dfe0 f i VideoCapture.obj
 0001:0000d320       ?AtlInternalQueryInterface@ATL@@YAJPEAXPEBU_ATL_INTMAP_ENTRY@1@AEBU_GUID@@PEAPEAX@Z 000000018000e320 f i VideoCapture.obj
 0001:0000d5d0       ?AtlLoadTypeLib@ATL@@YAJPEAUHINSTANCE__@@PEB_WPEAPEA_WPEAPEAUITypeLib@@@Z 000000018000e5d0 f i VideoCapture.obj
 0001:0000daa0       ?AtlModuleAddTermFunc@ATL@@YAJPEAU_ATL_MODULE70@1@P6AX_K@Z1@Z 000000018000eaa0 f i VideoCapture.obj
 0001:0000dc70       ?AtlRegisterClassCategoriesHelper@ATL@@YAJAEBU_GUID@@PEBU_ATL_CATMAP_ENTRY@1@H@Z 000000018000ec70 f i VideoCapture.obj
 0001:0000e440       ?AtlRegisterTypeLib@ATL@@YAJPEAUHINSTANCE__@@PEB_W@Z 000000018000f440 f i VideoCapture.obj
 0001:0000e7a0       ?AtlThrowImpl@ATL@@YAXJ@Z  000000018000f7a0 f i VideoCapture.obj
 0001:0000e870       ?AtlUnRegisterTypeLib@ATL@@YAJPEAUHINSTANCE__@@PEB_W@Z 000000018000f870 f i VideoCapture.obj
 0001:0000eaa0       ?AtlWinModuleAddCreateWndData@ATL@@YAXPEAU_ATL_WIN_MODULE70@1@PEAU_AtlCreateWndData@1@PEAX@Z 000000018000faa0 f i VideoCapture.obj
 0001:0000ec90       ?AtlWinModuleExtractCreateWndData@ATL@@YAPEAXPEAU_ATL_WIN_MODULE70@1@@Z 000000018000fc90 f i VideoCapture.obj
 0001:0000ee90       ?AtlWinModuleRegisterClassExW@ATL@@YAGPEAU_ATL_WIN_MODULE70@1@PEBUtagWNDCLASSEXW@@@Z 000000018000fe90 f i VideoCapture.obj
 0001:0000ef60       ?AtlWinModuleRegisterWndClassInfoW@ATL@@YAGPEAU_ATL_WIN_MODULE70@1@PEAU_ATL_BASE_MODULE70@1@PEAU_ATL_WNDCLASSINFOW@1@PEAP6A_JPEAUHWND__@@I_K_J@Z@Z 000000018000ff60 f i VideoCapture.obj
 0001:0000efd0       ?Attach@?$CAutoVectorPtr@_W@ATL@@QEAAXPEA_W@Z 000000018000ffd0 f i VideoCapture.obj
 0001:0000f040       ?Attach@CComBSTR@ATL@@QEAAXPEA_W@Z 0000000180010040 f i VideoCapture.obj
 0001:0000f080       ?Attach@CRegKey@ATL@@QEAAXPEAUHKEY__@@@Z 0000000180010080 f i VideoCapture.obj
 0001:0000f110       ?CanForceRemoveKey@CRegParser@ATL@@IEAAHPEB_W@Z 0000000180010110 f i VideoCapture.obj
 0001:0000f170       ?ChToByte@CRegParser@ATL@@KAE_W@Z 0000000180010170 f i VideoCapture.obj
 0001:0000f310       ?ChangeType@CComVariant@ATL@@QEAAJGPEBUtagVARIANT@@@Z 0000000180010310 f i VideoCapture.obj
 0001:0000f360       ?Cleanup@CComTypeInfoHolder@ATL@@SAX_K@Z 0000000180010360 f i VideoCapture.obj
 0001:0000f440       ?Clear@CComVariant@ATL@@QEAAJXZ 0000000180010440 f i VideoCapture.obj
 0001:0000f460       ?ClearReplacements@CExpansionVector@ATL@@QEAAJXZ 0000000180010460 f i VideoCapture.obj
 0001:0000f4f0       ?ClearReplacements@CRegObject@ATL@@UEAAJXZ 00000001800104f0 f i VideoCapture.obj
 0001:0000f540       ?Clone@?$CComEnumImpl@UIEnumConnectionPoints@@$1?_GUID_b196b285_bab4_101a_b69c_00aa00341d07@@3U__s_GUID@@BPEAUIConnectionPoint@@V?$_CopyInterface@UIConnectionPoint@@@ATL@@@ATL@@UEAAJPEAPEAUIEnumConnectionPoints@@@Z 0000000180010540 f i VideoCapture.obj
 0001:0000f730       ?Clone@?$CComEnumImpl@UIEnumConnections@@$1?_GUID_b196b287_bab4_101a_b69c_00aa00341d07@@3U__s_GUID@@BUtagCONNECTDATA@@V?$_Copy@UtagCONNECTDATA@@@ATL@@@ATL@@UEAAJPEAPEAUIEnumConnections@@@Z 0000000180010730 f i VideoCapture.obj
 0001:0000f920       ?Close@?$IOleObjectImpl@VCOPOSVideoCapture@@@ATL@@UEAAJK@Z 0000000180010920 f i VideoCapture.obj
 0001:0000f9c0       ?Close@CRegKey@ATL@@QEAAJXZ 00000001800109c0 f i VideoCapture.obj
 0001:0000fa20       ?ContextSensitiveHelp@?$IOleInPlaceActiveObjectImpl@VCOPOSVideoCapture@@@ATL@@UEAAJH@Z 0000000180010a20 f i VideoCapture.obj
 0001:0000fa90       ?ContextSensitiveHelp@?$IOleInPlaceObjectWindowlessImpl@VCOPOSVideoCapture@@@ATL@@UEAAJH@Z 0000000180010a90 f i VideoCapture.obj
 0001:0000fb00       ?ControlQueryInterface@?$CComControl@VCOPOSVideoCapture@@V?$CWindowImpl@VCOPOSVideoCapture@@VCWindow@ATL@@V?$CWinTraits@$0FGAAAAAA@$0A@@3@@ATL@@@ATL@@UEAAJAEBU_GUID@@PEAPEAX@Z 0000000180010b00 f i VideoCapture.obj
 0001:0000fb70       ?CreateControlWindow@?$CComControl@VCOPOSVideoCapture@@V?$CWindowImpl@VCOPOSVideoCapture@@VCWindow@ATL@@V?$CWinTraits@$0FGAAAAAA@$0A@@3@@ATL@@@ATL@@UEAAPEAUHWND__@@PEAU3@AEAUtagRECT@@@Z 0000000180010b70 f i VideoCapture.obj
 0001:0000fc40       ?CreateInstance@?$CComCreator@V?$CComAggObject@VCOPOSVideoCapture@@@ATL@@@ATL@@SAJPEAXAEBU_GUID@@PEAPEAX@Z 0000000180010c40 f i VideoCapture.obj
 0001:0000fe10       ?CreateInstance@?$CComCreator@V?$CComObject@VCOPOSVideoCapture@@@ATL@@@ATL@@SAJPEAXAEBU_GUID@@PEAPEAX@Z 0000000180010e10 f i VideoCapture.obj
 0001:0000fff0       ?CreateInstance@?$CComObject@V?$CComEnum@UIEnumConnectionPoints@@$1?_GUID_b196b285_bab4_101a_b69c_00aa00341d07@@3U__s_GUID@@BPEAUIConnectionPoint@@V?$_CopyInterface@UIConnectionPoint@@@ATL@@VCComSingleThreadModel@6@@ATL@@@ATL@@SAJPEAPEAV12@@Z 0000000180010ff0 f i VideoCapture.obj
 0001:000101a0       ?CreateInstance@?$CComObject@V?$CComEnum@UIEnumConnections@@$1?_GUID_b196b287_bab4_101a_b69c_00aa00341d07@@3U__s_GUID@@BUtagCONNECTDATA@@V?$_Copy@UtagCONNECTDATA@@@ATL@@VCComSingleThreadModel@6@@ATL@@@ATL@@SAJPEAPEAV12@@Z 00000001800111a0 f i VideoCapture.obj
 0001:00010350       ?CreateInstance@CComClassFactory@ATL@@UEAAJPEAUIUnknown@@AEBU_GUID@@PEAPEAX@Z 0000000180011350 f i VideoCapture.obj
 0001:00010460       ?DAdvise@?$IDataObjectImpl@VCOPOSVideoCapture@@@ATL@@UEAAJPEAUtagFORMATETC@@KPEAUIAdviseSink@@PEAK@Z 0000000180011460 f i VideoCapture.obj
 0001:000105a0       ?DEVMODEOLE2T_EX@@YAPEAU_devicemodeW@@PEAU1@@Z 00000001800115a0 f i VideoCapture.obj
 0001:000105b0       ?DUnadvise@?$IDataObjectImpl@VCOPOSVideoCapture@@@ATL@@UEAAJK@Z 00000001800115b0 f i VideoCapture.obj
 0001:000106a0       ?Decrement@CComMultiThreadModel@ATL@@SAKPEAJ@Z 00000001800116a0 f i VideoCapture.obj
 0001:000106c0       ?Decrement@CComSingleThreadModel@ATL@@SAKPEAJ@Z 00000001800116c0 f i VideoCapture.obj
 0001:000106e0       ?DefWindowProcW@?$CWindowImplBaseT@VCWindow@ATL@@V?$CWinTraits@$0FGAAAAAA@$0A@@2@@ATL@@QEAA_JI_K_J@Z 00000001800116e0 f i VideoCapture.obj
 0001:00010730       ?DefaultReflectionHandler@?$CWindowImplRoot@VCWindow@ATL@@@ATL@@SAHPEAUHWND__@@I_K_JAEA_J@Z 0000000180011730 f i VideoCapture.obj
 0001:00010a30       ?DeleteSubKey@CRegKey@ATL@@QEAAJPEB_W@Z 0000000180011a30 f i VideoCapture.obj
 0001:00010b40       ?DeleteValue@CRegKey@ATL@@QEAAJPEB_W@Z 0000000180011b40 f i VideoCapture.obj
 0001:00010bc0       ?Detach@?$CAutoVectorPtr@_W@ATL@@QEAAPEA_WXZ 0000000180011bc0 f i VideoCapture.obj
 0001:00010bf0       ?Detach@?$CComPtrBase@UIPersistStream@@@ATL@@QEAAPEAUIPersistStream@@XZ 0000000180011bf0 f i VideoCapture.obj
 0001:00010c20       ?Detach@?$CComPtrBase@UITypeInfo@@@ATL@@QEAAPEAUITypeInfo@@XZ 0000000180011c20 f i VideoCapture.obj
 0001:00010c50       ?Detach@?$CComPtrBase@UIUnknown@@@ATL@@QEAAPEAUIUnknown@@XZ 0000000180011c50 f i VideoCapture.obj
 0001:00010c80       ?Detach@CComBSTR@ATL@@QEAAPEA_WXZ 0000000180011c80 f i VideoCapture.obj
 0001:00010cb0       ?Detach@CParseBuffer@CRegParser@ATL@@QEAAPEA_WXZ 0000000180011cb0 f i VideoCapture.obj
 0001:00010d00       ?Detach@CRegKey@ATL@@QEAAPEAUHKEY__@@XZ 0000000180011d00 f i VideoCapture.obj
 0001:00010d50       ?DoEvent@COPOSVideoCapture@@IEAAXI_K_J@Z 0000000180011d50 f i VideoCapture.obj
 0001:00010e70       ?DoVerb@?$IOleObjectImpl@VCOPOSVideoCapture@@@ATL@@UEAAJJPEAUtagMSG@@PEAUIOleClientSite@@JPEAUHWND__@@PEBUtagRECT@@@Z 0000000180011e70 f i VideoCapture.obj
 0001:00011170       ?DoVerbDiscardUndo@?$IOleObjectImpl@VCOPOSVideoCapture@@@ATL@@QEAAJPEBUtagRECT@@PEAUHWND__@@@Z 0000000180012170 f i VideoCapture.obj
 0001:000111f0       ?DoVerbHide@?$IOleObjectImpl@VCOPOSVideoCapture@@@ATL@@QEAAJPEBUtagRECT@@PEAUHWND__@@@Z 00000001800121f0 f i VideoCapture.obj
 0001:000112c0       ?DoVerbInPlaceActivate@?$IOleObjectImpl@VCOPOSVideoCapture@@@ATL@@QEAAJPEBUtagRECT@@PEAUHWND__@@@Z 00000001800122c0 f i VideoCapture.obj
 0001:00011380       ?DoVerbOpen@?$IOleObjectImpl@VCOPOSVideoCapture@@@ATL@@QEAAJPEBUtagRECT@@PEAUHWND__@@@Z 0000000180012380 f i VideoCapture.obj
 0001:00011400       ?DoVerbPrimary@?$IOleObjectImpl@VCOPOSVideoCapture@@@ATL@@QEAAJPEBUtagRECT@@PEAUHWND__@@@Z 0000000180012400 f i VideoCapture.obj
 0001:00011540       ?DoVerbProperties@CComControlBase@ATL@@QEAAJPEBUtagRECT@@PEAUHWND__@@@Z 0000000180012540 f i VideoCapture.obj
 0001:000118f0       ?DoVerbShow@?$IOleObjectImpl@VCOPOSVideoCapture@@@ATL@@QEAAJPEBUtagRECT@@PEAUHWND__@@@Z 00000001800128f0 f i VideoCapture.obj
 0001:000119a0       ?DoVerbUIActivate@?$IOleObjectImpl@VCOPOSVideoCapture@@@ATL@@QEAAJPEBUtagRECT@@PEAUHWND__@@@Z 00000001800129a0 f i VideoCapture.obj
 0001:00011a60       ?DoesVerbActivate@CComControlBase@ATL@@QEAAHJ@Z 0000000180012a60 f i VideoCapture.obj
 0001:00011ab0       ?DoesVerbUIActivate@CComControlBase@ATL@@QEAAHJ@Z 0000000180012ab0 f i VideoCapture.obj
 0001:00011b20       ?Draw@?$IViewObjectExImpl@VCOPOSVideoCapture@@@ATL@@UEAAJKJPEAXPEAUtagDVTARGETDEVICE@@PEAUHDC__@@2PEBU_RECTL@@3P6AH_K@Z4@Z 0000000180012b20 f i VideoCapture.obj
 0001:00011c30       ?Empty@CComBSTR@ATL@@QEAAXXZ 0000000180012c30 f i VideoCapture.obj
 0001:00011c60       ?EnableModeless@?$IOleInPlaceActiveObjectImpl@VCOPOSVideoCapture@@@ATL@@UEAAJH@Z 0000000180012c60 f i VideoCapture.obj
 0001:00011cc0       ?EndOfVar@CRegParser@ATL@@IEAAHXZ 0000000180012cc0 f i VideoCapture.obj
 0001:00011d10       ?EnsureTI@CComTypeInfoHolder@ATL@@QEAAJK@Z 0000000180012d10 f i VideoCapture.obj
 0001:00011d60       ?EnumAdvise@?$IOleObjectImpl@VCOPOSVideoCapture@@@ATL@@UEAAJPEAPEAUIEnumSTATDATA@@@Z 0000000180012d60 f i VideoCapture.obj
 0001:00011eb0       ?EnumConnectionPoints@?$IConnectionPointContainerImpl@VCOPOSVideoCapture@@@ATL@@UEAAJPEAPEAUIEnumConnectionPoints@@@Z 0000000180012eb0 f i VideoCapture.obj
 0001:000123a0       ?EnumConnections@?$IConnectionPointImpl@VCOPOSVideoCapture@@$1?DIID__IOPOSVideoCaptureEvents@@3U_GUID@@BVCComDynamicUnkArray@ATL@@@ATL@@UEAAJPEAPEAUIEnumConnections@@@Z 00000001800133a0 f i VideoCapture.obj
 0001:000126d0       ?EnumConnections@?$IConnectionPointImpl@VCOPOSVideoCapture@@$1?IID_IPropertyNotifySink@@3U_GUID@@BVCComDynamicUnkArray@ATL@@@ATL@@UEAAJPEAPEAUIEnumConnections@@@Z 00000001800136d0 f i VideoCapture.obj
 0001:00012a00       ?EnumDAdvise@?$IDataObjectImpl@VCOPOSVideoCapture@@@ATL@@UEAAJPEAPEAUIEnumSTATDATA@@@Z 0000000180013a00 f i VideoCapture.obj
 0001:00012b30       ?EnumFormatEtc@?$IDataObjectImpl@VCOPOSVideoCapture@@@ATL@@UEAAJKPEAPEAUIEnumFORMATETC@@@Z 0000000180013b30 f i VideoCapture.obj
 0001:00012bb0       ?EnumVerbs@?$IOleObjectImpl@VCOPOSVideoCapture@@@ATL@@UEAAJPEAPEAUIEnumOLEVERB@@@Z 0000000180013bb0 f i VideoCapture.obj
 0001:00012c70       ?EscapeSingleQuote@CAtlModule@ATL@@SAXPEA_W_KPEB_W@Z 0000000180013c70 f i VideoCapture.obj
 0001:00012d50       ?ExtractCreateWndData@CAtlWinModule@ATL@@QEAAPEAXXZ 0000000180013d50 f i VideoCapture.obj
 0001:00012d70       ?FAccessAllowed@?$IObjectSafetyImpl@VCOPOSVideoCapture@@$02@ATL@@MEAAHXZ 0000000180013d70 f i VideoCapture.obj
 0001:00012d80       ?FinalConstruct@?$CComAggObject@VCOPOSVideoCapture@@@ATL@@QEAAJXZ 0000000180013d80 f i VideoCapture.obj
 0001:00012dc0       ?FinalConstruct@CComObjectRootBase@ATL@@QEAAJXZ 0000000180013dc0 f i VideoCapture.obj
 0001:00012dd0       ?FinalConstruct@CRegObject@ATL@@QEAAJXZ 0000000180013dd0 f i VideoCapture.obj
 0001:00012e00       ?FinalRelease@?$CComAggObject@VCOPOSVideoCapture@@@ATL@@QEAAXXZ 0000000180013e00 f i VideoCapture.obj
 0001:00012e40       ?FinalRelease@CComObjectRootBase@ATL@@QEAAXXZ 0000000180013e40 f i VideoCapture.obj
 0001:00012e50       ?FindConnectionPoint@?$IConnectionPointContainerImpl@VCOPOSVideoCapture@@@ATL@@UEAAJAEBU_GUID@@PEAPEAUIConnectionPoint@@@Z 0000000180013e50 f i VideoCapture.obj
 0001:00012fc0       ?FindKey@?$CSimpleMap@PEA_WPEA_WVCExpansionVectorEqualHelper@ATL@@@ATL@@QEBAHAEBQEA_W@Z 0000000180013fc0 f i VideoCapture.obj
 0001:00013030       ?FireTheEvent@?$CProxy_IOPOSEvents@VCOPOSVideoCapture@@@@IEAAXPEAUIUnknown@@PEAVOposVariant@@IAEAJPEB_WJ@Z 0000000180014030 f i VideoCapture.obj
 0001:00013210       ?FireViewChange@CComControlBase@ATL@@QEAAJXZ 0000000180014210 f i VideoCapture.obj
 0001:000132e0       ?Fire_DirectIOEvent@?$CProxy_IOPOSEvents@VCOPOSVideoCapture@@@@QEAAXJPEAJPEAPEA_W@Z 00000001800142e0 f i VideoCapture.obj
 0001:00013580       ?Fire_ErrorEvent@?$CProxy_IOPOSEvents@VCOPOSVideoCapture@@@@QEAAXJJJPEAJ@Z 0000000180014580 f i VideoCapture.obj
 0001:00013830       ?Fire_StatusUpdateEvent@?$CProxy_IOPOSEvents@VCOPOSVideoCapture@@@@QEAAXJ@Z 0000000180014830 f i VideoCapture.obj
 0001:00013a20       ?FormatWindowClassName@AtlModuleRegisterWndClassInfoParamW@ATL@@SAXPEA_WKPEAX@Z 0000000180014a20 f i VideoCapture.obj
 0001:00013a60       ?Free@?$CAutoVectorPtr@_W@ATL@@QEAAXXZ 0000000180014a60 f i VideoCapture.obj
 0001:00013aa0       ?FreeHeap@?$CTempBuffer@E$0BAA@VCCRTAllocator@ATL@@@ATL@@AEAAXXZ 0000000180014aa0 f i VideoCapture.obj
 0001:00013ac0       ?FreeHeap@?$CTempBuffer@_W$0BAA@VCCRTAllocator@ATL@@@ATL@@AEAAXXZ 0000000180014ac0 f i VideoCapture.obj
 0001:00013ae0       ?FreeHeap@?$CTempBuffer@_W$0EAA@VCCRTAllocator@ATL@@@ATL@@AEAAXXZ 0000000180014ae0 f i VideoCapture.obj
 0001:00013b00       ?Freeze@?$IViewObjectExImpl@VCOPOSVideoCapture@@@ATL@@UEAAJKJPEAXPEAK@Z 0000000180014b00 f i VideoCapture.obj
 0001:00013b80       ?GenerateError@CRegParser@ATL@@IEAAJI@Z 0000000180014b80 f i VideoCapture.obj
 0001:00013ba0       ?GetAdvise@?$IViewObjectExImpl@VCOPOSVideoCapture@@@ATL@@UEAAJPEAK0PEAPEAUIAdviseSink@@@Z 0000000180014ba0 f i VideoCapture.obj
 0001:00013ce0       ?GetAmbientLocaleID@CComControlBase@ATL@@QEAAJAEAK@Z 0000000180014ce0 f i VideoCapture.obj
 0001:00013dc0       ?GetAmbientProperty@CComControlBase@ATL@@QEAAJJAEAUtagVARIANT@@@Z 0000000180014dc0 f i VideoCapture.obj
 0001:00013e10       ?GetAmbientUserMode@CComControlBase@ATL@@QEAAJAEAH@Z 0000000180014e10 f i VideoCapture.obj
 0001:00013f30       ?GetAppId@?$CAtlModuleT@VCComModule@ATL@@@ATL@@SAPEB_WXZ 0000000180014f30 f i VideoCapture.obj
 0001:00013f40       ?GetAt@CComDynamicUnkArray@ATL@@QEAAPEAUIUnknown@@H@Z 0000000180014f40 f i VideoCapture.obj
 0001:00013fd0       ?GetCanonicalFormatEtc@?$IDataObjectImpl@VCOPOSVideoCapture@@@ATL@@UEAAJPEAUtagFORMATETC@@0@Z 0000000180014fd0 f i VideoCapture.obj
 0001:00014050       ?GetClassID@?$IPersistStorageImpl@VCOPOSVideoCapture@@@ATL@@UEAAJPEAU_GUID@@@Z 0000000180015050 f i VideoCapture.obj
 0001:000140d0       ?GetClassID@?$IPersistStreamInitImpl@VCOPOSVideoCapture@@@ATL@@UEAAJPEAU_GUID@@@Z 00000001800150d0 f i VideoCapture.obj
 0001:00014150       ?GetClassInfoExW@AtlModuleRegisterWndClassInfoParamW@ATL@@SAHPEAUHINSTANCE__@@PEB_WPEAUtagWNDCLASSEXW@@@Z 0000000180015150 f i VideoCapture.obj
 0001:00014180       ?GetClassInfoW@?$IProvideClassInfo2Impl@$1?CLSID_OPOSVideoCapture@@3U_GUID@@B$1?DIID__IOPOSVideoCaptureEvents@@3U2@B$1?LIBID_OposVideoCapture_CCO@@3U2@B$00$0A@VCComTypeInfoHolder@ATL@@@ATL@@UEAAJPEAPEAUITypeInfo@@@Z 0000000180015180 f i VideoCapture.obj
 0001:000141b0       ?GetClassObject@CComModule@ATL@@QEAAJAEBU_GUID@@0PEAPEAX@Z 00000001800151b0 f i VideoCapture.obj
 0001:00014420       ?GetClientSite@?$IOleObjectImpl@VCOPOSVideoCapture@@@ATL@@UEAAJPEAPEAUIOleClientSite@@@Z 0000000180015420 f i VideoCapture.obj
 0001:000144c0       ?GetClipboardData@?$IOleObjectImpl@VCOPOSVideoCapture@@@ATL@@UEAAJKPEAPEAUIDataObject@@@Z 00000001800154c0 f i VideoCapture.obj
 0001:00014540       ?GetCodeAddress@CDynamicStdCallThunk2@ATL@@QEAAPEAXXZ 0000000180015540 f i VideoCapture.obj
 0001:00014560       ?GetColorSet@?$IViewObjectExImpl@VCOPOSVideoCapture@@@ATL@@UEAAJKJPEAXPEAUtagDVTARGETDEVICE@@PEAUHDC__@@PEAPEAUtagLOGPALETTE@@@Z 0000000180015560 f i VideoCapture.obj
 0001:000145e0       ?GetConnMap@COPOSVideoCapture@@SAPEBU_ATL_CONNMAP_ENTRY@ATL@@PEAH@Z 00000001800155e0 f i VideoCapture.obj
 0001:00014730       ?GetConnectionInterface@?$IConnectionPointImpl@VCOPOSVideoCapture@@$1?DIID__IOPOSVideoCaptureEvents@@3U_GUID@@BVCComDynamicUnkArray@ATL@@@ATL@@UEAAJPEAU_GUID@@@Z 0000000180015730 f i VideoCapture.obj
 0001:00014770       ?GetConnectionInterface@?$IConnectionPointImpl@VCOPOSVideoCapture@@$1?IID_IPropertyNotifySink@@3U_GUID@@BVCComDynamicUnkArray@ATL@@@ATL@@UEAAJPEAU_GUID@@@Z 0000000180015770 f i VideoCapture.obj
 0001:000147b0       ?GetConnectionPointContainer@?$IConnectionPointImpl@VCOPOSVideoCapture@@$1?DIID__IOPOSVideoCaptureEvents@@3U_GUID@@BVCComDynamicUnkArray@ATL@@@ATL@@UEAAJPEAPEAUIConnectionPointContainer@@@Z 00000001800157b0 f i VideoCapture.obj
 0001:00014810       ?GetConnectionPointContainer@?$IConnectionPointImpl@VCOPOSVideoCapture@@$1?IID_IPropertyNotifySink@@3U_GUID@@BVCComDynamicUnkArray@ATL@@@ATL@@UEAAJPEAPEAUIConnectionPointContainer@@@Z 0000000180015810 f i VideoCapture.obj
 0001:00014870       ?GetContentExtent@?$IQuickActivateImpl@VCOPOSVideoCapture@@@ATL@@UEAAJPEAUtagSIZE@@@Z 0000000180015870 f i VideoCapture.obj
 0001:00014920       ?GetControlInfo@?$IOleControlImpl@VCOPOSVideoCapture@@@ATL@@UEAAJPEAUtagCONTROLINFO@@@Z 0000000180015920 f i VideoCapture.obj
 0001:00014990       ?GetCookie@CComDynamicUnkArray@ATL@@QEAAKPEAPEAUIUnknown@@@Z 0000000180015990 f i VideoCapture.obj
 0001:00014a70       ?GetData@?$IDataObjectImpl@VCOPOSVideoCapture@@@ATL@@UEAAJPEAUtagFORMATETC@@PEAUtagSTGMEDIUM@@@Z 0000000180015a70 f i VideoCapture.obj
 0001:00014b20       ?GetData@CAtlSafeAllocBufferNode@?$CAtlSafeAllocBufferManager@VCCRTAllocator@ATL@@@_ATL_SAFE_ALLOCA_IMPL@ATL@@QEAAPEAXXZ 0000000180015b20 f i VideoCapture.obj
 0001:00014b40       ?GetDataHere@?$IDataObjectImpl@VCOPOSVideoCapture@@@ATL@@UEAAJPEAUtagFORMATETC@@PEAUtagSTGMEDIUM@@@Z 0000000180015b40 f i VideoCapture.obj
 0001:00014bc0       ?GetDropTarget@?$IOleInPlaceObjectWindowlessImpl@VCOPOSVideoCapture@@@ATL@@UEAAJPEAPEAUIDropTarget@@@Z 0000000180015bc0 f i VideoCapture.obj
 0001:00014c30       ?GetExtent@?$IOleObjectImpl@VCOPOSVideoCapture@@@ATL@@UEAAJKPEAUtagSIZE@@@Z 0000000180015c30 f i VideoCapture.obj
 0001:00014cf0       ?GetExtent@?$IViewObjectExImpl@VCOPOSVideoCapture@@@ATL@@UEAAJKJPEAUtagDVTARGETDEVICE@@PEAUtagSIZE@@@Z 0000000180015cf0 f i VideoCapture.obj
 0001:00014df0       ?GetGITPtr@CAtlModule@ATL@@UEAAJPEAPEAUIGlobalInterfaceTable@@@Z 0000000180015df0 f i VideoCapture.obj
 0001:00014f20       ?GetGUID@?$IProvideClassInfo2Impl@$1?CLSID_OPOSVideoCapture@@3U_GUID@@B$1?DIID__IOPOSVideoCaptureEvents@@3U2@B$1?LIBID_OposVideoCapture_CCO@@3U2@B$00$0A@VCComTypeInfoHolder@ATL@@@ATL@@UEAAJKPEAU_GUID@@@Z 0000000180015f20 f i VideoCapture.obj
 0001:00014fa0       ?GetIDsOfNames@?$IDispatchImpl@UIOPOSVideoCapture@@$1?IID_IOPOSVideoCapture@@3U_GUID@@B$1?LIBID_OposVideoCapture_CCO@@3U3@B$00$0A@VCComTypeInfoHolder@ATL@@@ATL@@UEAAJAEBU_GUID@@PEAPEA_WIKPEAJ@Z 0000000180015fa0 f i VideoCapture.obj
 0001:00014ff0       ?GetIDsOfNames@CComTypeInfoHolder@ATL@@QEAAJAEBU_GUID@@PEAPEA_WIKPEAJ@Z 0000000180015ff0 f i VideoCapture.obj
 0001:00015200       ?GetInterfaceSafetyOptions@?$IObjectSafetyImpl@VCOPOSVideoCapture@@$02@ATL@@UEAAJAEBU_GUID@@PEAK1@Z 0000000180016200 f i VideoCapture.obj
 0001:000153a0       ?GetKeyAt@?$CSimpleMap@PEA_WPEA_WVCExpansionVectorEqualHelper@ATL@@@ATL@@QEBAAEAPEA_WH@Z 00000001800163a0 f i VideoCapture.obj
 0001:00015440       ?GetLockCount@CAtlModule@ATL@@UEAAJXZ 0000000180016440 f i VideoCapture.obj
 0001:00015450       ?GetMiscStatus@?$IOleObjectImpl@VCOPOSVideoCapture@@@ATL@@UEAAJKPEAK@Z 0000000180016450 f i VideoCapture.obj
 0001:000154d0       ?GetMoniker@?$IOleObjectImpl@VCOPOSVideoCapture@@@ATL@@UEAAJKKPEAPEAUIMoniker@@@Z 00000001800164d0 f i VideoCapture.obj
 0001:00015550       ?GetNaturalExtent@?$IViewObjectExImpl@VCOPOSVideoCapture@@@ATL@@UEAAJKJPEAUtagDVTARGETDEVICE@@PEAUHDC__@@PEAUtagExtentInfo@@PEAUtagSIZE@@@Z 0000000180016550 f i VideoCapture.obj
 0001:000156d0       ?GetObjectCLSID@?$CComCoClass@VCOPOSVideoCapture@@$1?CLSID_OPOSVideoCapture@@3U_GUID@@B@ATL@@SAAEBU_GUID@@XZ 00000001800166d0 f i VideoCapture.obj
 0001:000156e0       ?GetPages@?$ISpecifyPropertyPagesImpl@VCOPOSVideoCapture@@@ATL@@UEAAJPEAUtagCAUUID@@@Z 00000001800166e0 f i VideoCapture.obj
 0001:00015760       ?GetPagesHelper@?$ISpecifyPropertyPagesImpl@VCOPOSVideoCapture@@@ATL@@IEAAJPEAUtagCAUUID@@PEBUATL_PROPMAP_ENTRY@2@@Z 0000000180016760 f i VideoCapture.obj
 0001:000159c0       ?GetProperty@?$CComPtr@UIDispatch@@@ATL@@QEAAJJPEAUtagVARIANT@@@Z 00000001800169c0 f i VideoCapture.obj
 0001:000159f0       ?GetProperty@?$CComPtr@UIDispatch@@@ATL@@SAJPEAUIDispatch@@JPEAUtagVARIANT@@@Z 00000001800169f0 f i VideoCapture.obj
 0001:00015bc0       ?GetPropertyMap@COPOSVideoCapture@@SAPEBUATL_PROPMAP_ENTRY@ATL@@XZ 0000000180016bc0 f i VideoCapture.obj
 0001:00015bd0       ?GetRect@?$IViewObjectExImpl@VCOPOSVideoCapture@@@ATL@@UEAAJKPEAU_RECTL@@@Z 0000000180016bd0 f i VideoCapture.obj
 0001:00015c50       ?GetSize@?$CSimpleMap@PEA_WPEA_WVCExpansionVectorEqualHelper@ATL@@@ATL@@QEBAHXZ 0000000180016c50 f i VideoCapture.obj
 0001:00015c60       ?GetSize@CComDynamicUnkArray@ATL@@QEBAHXZ 0000000180016c60 f i VideoCapture.obj
 0001:00015c70       ?GetSizeMax@?$IPersistStreamInitImpl@VCOPOSVideoCapture@@@ATL@@UEAAJPEAT_ULARGE_INTEGER@@@Z 0000000180016c70 f i VideoCapture.obj
 0001:00016410       ?GetSizeMax@CComVariant@ATL@@QEBAJPEAT_ULARGE_INTEGER@@@Z 0000000180017410 f i VideoCapture.obj
 0001:00016860       ?GetStreamSize@CComBSTR@ATL@@SAKPEA_W@Z 0000000180017860 f i VideoCapture.obj
 0001:000168a0       ?GetTI@CComTypeInfoHolder@ATL@@QEAAJK@Z 00000001800178a0 f i VideoCapture.obj
 0001:00017170       ?GetTI@CComTypeInfoHolder@ATL@@QEAAJKPEAPEAUITypeInfo@@@Z 0000000180018170 f i VideoCapture.obj
 0001:00017250       ?GetTypeInfo@?$IDispatchImpl@UIOPOSVideoCapture@@$1?IID_IOPOSVideoCapture@@3U_GUID@@B$1?LIBID_OposVideoCapture_CCO@@3U3@B$00$0A@VCComTypeInfoHolder@ATL@@@ATL@@UEAAJIKPEAPEAUITypeInfo@@@Z 0000000180018250 f i VideoCapture.obj
 0001:00017290       ?GetTypeInfo@CComTypeInfoHolder@ATL@@QEAAJIKPEAPEAUITypeInfo@@@Z 0000000180018290 f i VideoCapture.obj
 0001:000172d0       ?GetTypeInfoCount@?$IDispatchImpl@UIOPOSVideoCapture@@$1?IID_IOPOSVideoCapture@@3U_GUID@@B$1?LIBID_OposVideoCapture_CCO@@3U3@B$00$0A@VCComTypeInfoHolder@ATL@@@ATL@@UEAAJPEAI@Z 00000001800182d0 f i VideoCapture.obj
 0001:00017300       ?GetUnknown@CComDynamicUnkArray@ATL@@QEAAPEAUIUnknown@@K@Z 0000000180018300 f i VideoCapture.obj
 0001:00017390       ?GetUnknown@COPOSVideoCapture@@QEAAPEAUIUnknown@@XZ 0000000180018390 f i VideoCapture.obj
 0001:000173b0       ?GetUserClassID@?$IOleObjectImpl@VCOPOSVideoCapture@@@ATL@@UEAAJPEAU_GUID@@@Z 00000001800183b0 f i VideoCapture.obj
 0001:00017470       ?GetUserType@?$IOleObjectImpl@VCOPOSVideoCapture@@@ATL@@UEAAJKPEAPEA_W@Z 0000000180018470 f i VideoCapture.obj
 0001:000174f0       ?GetValueAt@?$CSimpleMap@PEA_WPEA_WVCExpansionVectorEqualHelper@ATL@@@ATL@@QEBAAEAPEA_WH@Z 00000001800184f0 f i VideoCapture.obj
 0001:00017590       ?GetViewStatus@?$IViewObjectExImpl@VCOPOSVideoCapture@@@ATL@@UEAAJPEAK@Z 0000000180018590 f i VideoCapture.obj
 0001:00017680       ?GetWNDPROC@CWndProcThunk@ATL@@QEAAP6A_JPEAUHWND__@@I_K_J@ZXZ 0000000180018680 f i VideoCapture.obj
 0001:000176b0       ?GetWindow@?$IOleInPlaceActiveObjectImpl@VCOPOSVideoCapture@@@ATL@@UEAAJPEAPEAUHWND__@@@Z 00000001800186b0 f i VideoCapture.obj
 0001:000177a0       ?GetWindow@?$IOleInPlaceObjectWindowlessImpl@VCOPOSVideoCapture@@@ATL@@UEAAJPEAPEAUHWND__@@@Z 00000001800187a0 f i VideoCapture.obj
 0001:00017890       ?GetWindowProc@?$CWindowImplBaseT@VCWindow@ATL@@V?$CWinTraits@$0FGAAAAAA@$0A@@2@@ATL@@UEAAP6A_JPEAUHWND__@@I_K_J@ZXZ 0000000180018890 f i VideoCapture.obj
 0001:000178a0       ?GetWndCaption@?$CWindowImpl@VCOPOSVideoCapture@@VCWindow@ATL@@V?$CWinTraits@$0FGAAAAAA@$0A@@3@@ATL@@SAPEB_WXZ 00000001800188a0 f i VideoCapture.obj
 0001:000178b0       ?GetWndClassInfo@?$CWindowImpl@VCOPOSVideoCapture@@VCWindow@ATL@@V?$CWinTraits@$0FGAAAAAA@$0A@@3@@ATL@@SAAEAU_ATL_WNDCLASSINFOW@2@XZ 00000001800188b0 f i VideoCapture.obj
 0001:000178c0       ?GetWndClassName@CWindow@ATL@@SAPEB_WXZ 00000001800188c0 f i VideoCapture.obj
 0001:000178d0       ?GetWndExStyle@?$CWinTraits@$0FGAAAAAA@$0A@@ATL@@SAKK@Z 00000001800188d0 f i VideoCapture.obj
 0001:00017900       ?GetWndExStyle@?$CWindowImplBaseT@VCWindow@ATL@@V?$CWinTraits@$0FGAAAAAA@$0A@@2@@ATL@@SAKK@Z 0000000180018900 f i VideoCapture.obj
 0001:00017920       ?GetWndStyle@?$CWinTraits@$0FGAAAAAA@$0A@@ATL@@SAKK@Z 0000000180018920 f i VideoCapture.obj
 0001:00017950       ?GetWndStyle@?$CWindowImplBaseT@VCWindow@ATL@@V?$CWinTraits@$0FGAAAAAA@$0A@@2@@ATL@@SAKK@Z 0000000180018950 f i VideoCapture.obj
 0001:00017970       ?GetZoomInfo@CComControlBase@ATL@@QEAAXAEAUATL_DRAWINFO@@@Z 0000000180018970 f i VideoCapture.obj
 0001:00017b20       ?HKeyFromString@CRegParser@ATL@@KAPEAUHKEY__@@PEA_W@Z 0000000180018b20 f i VideoCapture.obj
 0001:00017b90       ?HandsOffStorage@?$IPersistStorageImpl@VCOPOSVideoCapture@@@ATL@@UEAAJXZ 0000000180018b90 f i VideoCapture.obj
 0001:00017bf0       ?HasSubKeys@CRegParser@ATL@@IEAAHPEAUHKEY__@@@Z 0000000180018bf0 f i VideoCapture.obj
 0001:00017d60       ?IDataObject_GetData@CComControlBase@ATL@@QEAAJPEAUtagFORMATETC@@PEAUtagSTGMEDIUM@@@Z 0000000180018d60 f i VideoCapture.obj
 0001:00018210       ?IOleInPlaceObject_InPlaceDeactivate@CComControlBase@ATL@@QEAAJXZ 0000000180019210 f i VideoCapture.obj
 0001:00018480       ?IOleInPlaceObject_SetObjectRects@CComControlBase@ATL@@QEAAJPEBUtagRECT@@0@Z 0000000180019480 f i VideoCapture.obj
 0001:00018670       ?IOleInPlaceObject_UIDeactivate@CComControlBase@ATL@@QEAAJXZ 0000000180019670 f i VideoCapture.obj
 0001:000188e0       ?IOleObject_Advise@CComControlBase@ATL@@QEAAJPEAUIAdviseSink@@PEAK@Z 00000001800198e0 f i VideoCapture.obj
 0001:00018980       ?IOleObject_Close@CComControlBase@ATL@@QEAAJK@Z 0000000180019980 f i VideoCapture.obj
 0001:00018cf0       ?IOleObject_GetClientSite@CComControlBase@ATL@@QEAAJPEAPEAUIOleClientSite@@@Z 0000000180019cf0 f i VideoCapture.obj
 0001:00018db0       ?IOleObject_SetClientSite@CComControlBase@ATL@@QEAAJPEAUIOleClientSite@@@Z 0000000180019db0 f i VideoCapture.obj
 0001:00018eb0       ?IOleObject_SetExtent@CComControlBase@ATL@@QEAAJKPEAUtagSIZE@@@Z 0000000180019eb0 f i VideoCapture.obj
 0001:00019000       ?IPSI_GetIPersistStreamInit@?$IPersistStorageImpl@VCOPOSVideoCapture@@@ATL@@AEAAPEAUIPersistStreamInit@@XZ 000000018001a000 f i VideoCapture.obj
 0001:000190c0       ?IPersistStreamInit_Load@?$IPersistStreamInitImpl@VCOPOSVideoCapture@@@ATL@@QEAAJPEAUIStream@@PEBUATL_PROPMAP_ENTRY@2@@Z 000000018001a0c0 f i VideoCapture.obj
 0001:00019150       ?IPersistStreamInit_Save@?$IPersistStreamInitImpl@VCOPOSVideoCapture@@@ATL@@QEAAJPEAUIStream@@HPEBUATL_PROPMAP_ENTRY@2@@Z 000000018001a150 f i VideoCapture.obj
 0001:000191f0       ?IQuickActivate_QuickActivate@CComControlBase@ATL@@QEAAJPEAUtagQACONTAINER@@PEAUtagQACONTROL@@@Z 000000018001a1f0 f i VideoCapture.obj
 0001:00019a30       ?IViewObject_Draw@CComControlBase@ATL@@QEAAJKJPEAXPEAUtagDVTARGETDEVICE@@PEAUHDC__@@2PEBU_RECTL@@3@Z 000000018001aa30 f i VideoCapture.obj
 0001:00019e80       ?InPlaceActivate@CComControlBase@ATL@@QEAAJJPEBUtagRECT@@@Z 000000018001ae80 f i VideoCapture.obj
 0001:0001aa20       ?InPlaceDeactivate@?$IOleInPlaceObjectWindowlessImpl@VCOPOSVideoCapture@@@ATL@@UEAAJXZ 000000018001ba20 f i VideoCapture.obj
 0001:0001aab0       ?Increment@CComMultiThreadModel@ATL@@SAKPEAJ@Z 000000018001bab0 f i VideoCapture.obj
 0001:0001aad0       ?Increment@CComSingleThreadModel@ATL@@SAKPEAJ@Z 000000018001bad0 f i VideoCapture.obj
 0001:0001aaf0       ?Init@?$CComEnumImpl@UIEnumConnectionPoints@@$1?_GUID_b196b285_bab4_101a_b69c_00aa00341d07@@3U__s_GUID@@BPEAUIConnectionPoint@@V?$_CopyInterface@UIConnectionPoint@@@ATL@@@ATL@@QEAAJPEAPEAUIConnectionPoint@@0PEAUIUnknown@@W4CComEnumFlags@2@@Z 000000018001baf0 f i VideoCapture.obj
 0001:0001add0       ?Init@?$CComEnumImpl@UIEnumConnections@@$1?_GUID_b196b287_bab4_101a_b69c_00aa00341d07@@3U__s_GUID@@BUtagCONNECTDATA@@V?$_Copy@UtagCONNECTDATA@@@ATL@@@ATL@@QEAAJPEAUtagCONNECTDATA@@0PEAUIUnknown@@W4CComEnumFlags@2@@Z 000000018001bdd0 f i VideoCapture.obj
 0001:0001b0b0       ?Init@CComFakeCriticalSection@ATL@@QEAAJXZ 000000018001c0b0 f i VideoCapture.obj
 0001:0001b0c0       ?Init@CComModule@ATL@@QEAAJPEAU_ATL_OBJMAP_ENTRY30@2@PEAUHINSTANCE__@@PEBU_GUID@@@Z 000000018001c0c0 f i VideoCapture.obj
 0001:0001b1a0       ?Init@CComSafeDeleteCriticalSection@ATL@@QEAAJXZ 000000018001c1a0 f i VideoCapture.obj
 0001:0001b220       ?Init@CDynamicStdCallThunk2@ATL@@QEAAH_KPEAX@Z 000000018001c220 f i VideoCapture.obj
 0001:0001b280       ?Init@CWndProcThunk@ATL@@QEAAHP6A_JPEAUHWND__@@I_K_J@ZPEAX@Z 000000018001c280 f i VideoCapture.obj
 0001:0001b2c0       ?InitFromData@?$IOleObjectImpl@VCOPOSVideoCapture@@@ATL@@UEAAJPEAUIDataObject@@HK@Z 000000018001c2c0 f i VideoCapture.obj
 0001:0001b340       ?InitLibId@?$CAtlModuleT@VCComModule@ATL@@@ATL@@SAXXZ 000000018001c340 f i VideoCapture.obj
 0001:0001b350       ?InitNew@?$IPersistStorageImpl@VCOPOSVideoCapture@@@ATL@@UEAAJPEAUIStorage@@@Z 000000018001c350 f i VideoCapture.obj
 0001:0001b440       ?InitNew@?$IPersistStreamInitImpl@VCOPOSVideoCapture@@@ATL@@UEAAJXZ 000000018001c440 f i VideoCapture.obj
 0001:0001b4e0       ?InlineIsEqualUnknown@ATL@@YAHAEBU_GUID@@@Z 000000018001c4e0 f i VideoCapture.obj
 0001:0001b560       ?InternalAddRef@?$CComObjectRootEx@VCComMultiThreadModel@ATL@@@ATL@@QEAAKXZ 000000018001c560 f i VideoCapture.obj
 0001:0001b5d0       ?InternalAddRef@?$CComObjectRootEx@VCComSingleThreadModel@ATL@@@ATL@@QEAAKXZ 000000018001c5d0 f i VideoCapture.obj
 0001:0001b640       ?InternalFinalConstructAddRef@CComObjectRootBase@ATL@@QEAAXXZ 000000018001c640 f i VideoCapture.obj
 0001:0001b650       ?InternalFinalConstructAddRef@COPOSVideoCapture@@QEAAXXZ 000000018001c650 f i VideoCapture.obj
 0001:0001b680       ?InternalFinalConstructRelease@CComObjectRootBase@ATL@@QEAAXXZ 000000018001c680 f i VideoCapture.obj
 0001:0001b6e0       ?InternalFinalConstructRelease@COPOSVideoCapture@@QEAAXXZ 000000018001c6e0 f i VideoCapture.obj
 0001:0001b710       ?InternalGetSite@CComControlBase@ATL@@QEAAJAEBU_GUID@@PEAPEAX@Z 000000018001c710 f i VideoCapture.obj
 0001:0001b7e0       ?InternalQueryInterface@CComObjectRootBase@ATL@@SAJPEAXPEBU_ATL_INTMAP_ENTRY@2@AEBU_GUID@@PEAPEAX@Z 000000018001c7e0 f i VideoCapture.obj
 0001:0001b8f0       ?InternalRelease@?$CComObjectRootEx@VCComMultiThreadModel@ATL@@@ATL@@QEAAKXZ 000000018001c8f0 f i VideoCapture.obj
 0001:0001b960       ?InternalRelease@?$CComObjectRootEx@VCComSingleThreadModel@ATL@@@ATL@@QEAAKXZ 000000018001c960 f i VideoCapture.obj
 0001:0001b9d0       ?InternalSetAtIndex@?$CSimpleArray@GV?$CSimpleArrayEqualHelper@G@ATL@@@ATL@@QEAAXHAEBG@Z 000000018001c9d0 f i VideoCapture.obj
 0001:0001ba40       ?InternalSetAtIndex@?$CSimpleMap@PEA_WPEA_WVCExpansionVectorEqualHelper@ATL@@@ATL@@QEAAXHAEBQEA_W0@Z 000000018001ca40 f i VideoCapture.obj
 0001:0001bb00       ?Invoke@?$IDispatchImpl@UIOPOSVideoCapture@@$1?IID_IOPOSVideoCapture@@3U_GUID@@B$1?LIBID_OposVideoCapture_CCO@@3U3@B$00$0A@VCComTypeInfoHolder@ATL@@@ATL@@UEAAJJAEBU_GUID@@KGPEAUtagDISPPARAMS@@PEAUtagVARIANT@@PEAUtagEXCEPINFO@@PEAI@Z 000000018001cb00 f i VideoCapture.obj
 0001:0001bb90       ?Invoke@CComTypeInfoHolder@ATL@@QEAAJPEAUIDispatch@@JAEBU_GUID@@KGPEAUtagDISPPARAMS@@PEAUtagVARIANT@@PEAUtagEXCEPINFO@@PEAI@Z 000000018001cb90 f i VideoCapture.obj
 0001:0001bc40       ?IsDirty@?$IPersistStorageImpl@VCOPOSVideoCapture@@@ATL@@UEAAJXZ 000000018001cc40 f i VideoCapture.obj
 0001:0001bd30       ?IsDirty@?$IPersistStreamInitImpl@VCOPOSVideoCapture@@@ATL@@UEAAJXZ 000000018001cd30 f i VideoCapture.obj
 0001:0001bde0       ?IsEqualKey@CExpansionVectorEqualHelper@ATL@@SA_NQEA_W0@Z 000000018001cde0 f i VideoCapture.obj
 0001:0001be10       ?IsEqualObject@?$CComPtrBase@UIOleClientSite@@@ATL@@QEAA_NPEAUIUnknown@@@Z 000000018001ce10 f i VideoCapture.obj
 0001:0001bf60       ?IsEqualObject@?$CComPtrBase@UITypeInfo@@@ATL@@QEAA_NPEAUIUnknown@@@Z 000000018001cf60 f i VideoCapture.obj
 0001:0001c0b0       ?IsSpace@CRegParser@ATL@@IEAAH_W@Z 000000018001d0b0 f i VideoCapture.obj
 0001:0001c0f0       ?IsUpToDate@?$IOleObjectImpl@VCOPOSVideoCapture@@@ATL@@UEAAJXZ 000000018001d0f0 f i VideoCapture.obj
 0001:0001c150       ?Length@CComBSTR@ATL@@QEBAIXZ 000000018001d150 f i VideoCapture.obj
 0001:0001c170       ?Load@?$IPersistStorageImpl@VCOPOSVideoCapture@@@ATL@@UEAAJPEAUIStorage@@@Z 000000018001d170 f i VideoCapture.obj
 0001:0001c320       ?Load@?$IPersistStreamInitImpl@VCOPOSVideoCapture@@@ATL@@UEAAJPEAUIStream@@@Z 000000018001d320 f i VideoCapture.obj
 0001:0001c3d0       ?LoadCursorW@AtlModuleRegisterWndClassInfoParamW@ATL@@SAPEAUHICON__@@PEAUHINSTANCE__@@PEB_W@Z 000000018001d3d0 f i VideoCapture.obj
 0001:0001c400       ?LoadNameCache@CComTypeInfoHolder@ATL@@QEAAJPEAUITypeInfo@@@Z 000000018001d400 f i VideoCapture.obj
 0001:0001c740       ?Lock@?$CComCritSecLock@VCComCriticalSection@ATL@@@ATL@@QEAAJXZ 000000018001d740 f i VideoCapture.obj
 0001:0001c810       ?Lock@?$CComObjectRootEx@VCComSingleThreadModel@ATL@@@ATL@@QEAAXXZ 000000018001d810 f i VideoCapture.obj
 0001:0001c820       ?Lock@CAtlModule@ATL@@UEAAJXZ 000000018001d820 f i VideoCapture.obj
 0001:0001c850       ?Lock@CComCriticalSection@ATL@@QEAAJXZ 000000018001d850 f i VideoCapture.obj
 0001:0001c870       ?Lock@CComFakeCriticalSection@ATL@@QEAAJXZ 000000018001d870 f i VideoCapture.obj
 0001:0001c880       ?LockServer@CComClassFactory@ATL@@UEAAJH@Z 000000018001d880 f i VideoCapture.obj
 0001:0001c8d0       ?Lookup@?$CSimpleMap@PEA_WPEA_WVCExpansionVectorEqualHelper@ATL@@@ATL@@QEBAPEA_WAEBQEA_W@Z 000000018001d8d0 f i VideoCapture.obj
 0001:0001c920       ?Next@?$CComEnumImpl@UIEnumConnectionPoints@@$1?_GUID_b196b285_bab4_101a_b69c_00aa00341d07@@3U__s_GUID@@BPEAUIConnectionPoint@@V?$_CopyInterface@UIConnectionPoint@@@ATL@@@ATL@@UEAAJKPEAPEAUIConnectionPoint@@PEAK@Z 000000018001d920 f i VideoCapture.obj
 0001:0001cad0       ?Next@?$CComEnumImpl@UIEnumConnections@@$1?_GUID_b196b287_bab4_101a_b69c_00aa00341d07@@3U__s_GUID@@BUtagCONNECTDATA@@V?$_Copy@UtagCONNECTDATA@@@ATL@@@ATL@@UEAAJKPEAUtagCONNECTDATA@@PEAK@Z 000000018001dad0 f i VideoCapture.obj
 0001:0001cc80       ?NextToken@CRegParser@ATL@@IEAAJPEA_W@Z 000000018001dc80 f i VideoCapture.obj
 0001:0001d000       ?OLE2CT_EX@@YAPEB_WPEB_WI@Z 000000018001e000 f i VideoCapture.obj
 0001:0001d020       ?OLE2CT_EX_DEF@@YAPEB_WPEB_W@Z 000000018001e020 f i VideoCapture.obj
 0001:0001d030       ?OLE2T_EX@@YAPEA_WPEA_WI@Z 000000018001e030 f i VideoCapture.obj
 0001:0001d050       ?OnAmbientPropertyChange@?$IOleControlImpl@VCOPOSVideoCapture@@@ATL@@UEAAJJ@Z 000000018001e050 f i VideoCapture.obj
 0001:0001d100       ?OnDocWindowActivate@?$IOleInPlaceActiveObjectImpl@VCOPOSVideoCapture@@@ATL@@UEAAJH@Z 000000018001e100 f i VideoCapture.obj
 0001:0001d1a0       ?OnDrawAdvanced@CComControlBase@ATL@@UEAAJAEAUATL_DRAWINFO@@@Z 000000018001e1a0 f i VideoCapture.obj
 0001:0001d3f0       ?OnFinalMessage@?$CWindowImplBaseT@VCWindow@ATL@@V?$CWinTraits@$0FGAAAAAA@$0A@@2@@ATL@@UEAAXPEAUHWND__@@@Z 000000018001e3f0 f i VideoCapture.obj
 0001:0001d400       ?OnFrameWindowActivate@?$IOleInPlaceActiveObjectImpl@VCOPOSVideoCapture@@@ATL@@UEAAJH@Z 000000018001e400 f i VideoCapture.obj
 0001:0001d460       ?OnKillFocus@CComControlBase@ATL@@QEAA_JI_K_JAEAH@Z 000000018001e460 f i VideoCapture.obj
 0001:0001d560       ?OnMnemonic@?$IOleControlImpl@VCOPOSVideoCapture@@@ATL@@UEAAJPEAUtagMSG@@@Z 000000018001e560 f i VideoCapture.obj
 0001:0001d5d0       ?OnMouseActivate@CComControlBase@ATL@@QEAA_JI_K_JAEAH@Z 000000018001e5d0 f i VideoCapture.obj
 0001:0001d770       ?OnPaint@CComControlBase@ATL@@QEAA_JI_K_JAEAH@Z 000000018001e770 f i VideoCapture.obj
 0001:0001d900       ?OnPostVerbDiscardUndo@?$IOleObjectImpl@VCOPOSVideoCapture@@@ATL@@QEAAJXZ 000000018001e900 f i VideoCapture.obj
 0001:0001d910       ?OnPostVerbHide@?$IOleObjectImpl@VCOPOSVideoCapture@@@ATL@@QEAAJXZ 000000018001e910 f i VideoCapture.obj
 0001:0001d920       ?OnPostVerbInPlaceActivate@?$IOleObjectImpl@VCOPOSVideoCapture@@@ATL@@QEAAJXZ 000000018001e920 f i VideoCapture.obj
 0001:0001d930       ?OnPostVerbOpen@?$IOleObjectImpl@VCOPOSVideoCapture@@@ATL@@QEAAJXZ 000000018001e930 f i VideoCapture.obj
 0001:0001d940       ?OnPostVerbShow@?$IOleObjectImpl@VCOPOSVideoCapture@@@ATL@@QEAAJXZ 000000018001e940 f i VideoCapture.obj
 0001:0001d950       ?OnPostVerbUIActivate@?$IOleObjectImpl@VCOPOSVideoCapture@@@ATL@@QEAAJXZ 000000018001e950 f i VideoCapture.obj
 0001:0001d960       ?OnPreVerbDiscardUndo@?$IOleObjectImpl@VCOPOSVideoCapture@@@ATL@@QEAAJXZ 000000018001e960 f i VideoCapture.obj
 0001:0001d970       ?OnPreVerbHide@?$IOleObjectImpl@VCOPOSVideoCapture@@@ATL@@QEAAJXZ 000000018001e970 f i VideoCapture.obj
 0001:0001d980       ?OnPreVerbInPlaceActivate@?$IOleObjectImpl@VCOPOSVideoCapture@@@ATL@@QEAAJXZ 000000018001e980 f i VideoCapture.obj
 0001:0001d990       ?OnPreVerbOpen@?$IOleObjectImpl@VCOPOSVideoCapture@@@ATL@@QEAAJXZ 000000018001e990 f i VideoCapture.obj
 0001:0001d9a0       ?OnPreVerbShow@?$IOleObjectImpl@VCOPOSVideoCapture@@@ATL@@QEAAJXZ 000000018001e9a0 f i VideoCapture.obj
 0001:0001d9b0       ?OnPreVerbUIActivate@?$IOleObjectImpl@VCOPOSVideoCapture@@@ATL@@QEAAJXZ 000000018001e9b0 f i VideoCapture.obj
 0001:0001d9c0       ?OnSetFocus@CComControlBase@ATL@@QEAA_JI_K_JAEAH@Z 000000018001e9c0 f i VideoCapture.obj
 0001:0001dbc0       ?OnWindowMessage@?$IOleInPlaceObjectWindowlessImpl@VCOPOSVideoCapture@@@ATL@@UEAAJI_K_JPEA_J@Z 000000018001ebc0 f i VideoCapture.obj
 0001:0001dde0       ?Open@CRegKey@ATL@@QEAAJPEAUHKEY__@@PEB_WK@Z 000000018001ede0 f i VideoCapture.obj
 0001:0001df60       ?OuterAddRef@CComObjectRootBase@ATL@@QEAAKXZ 000000018001ef60 f i VideoCapture.obj
 0001:0001df90       ?OuterQueryInterface@CComObjectRootBase@ATL@@QEAAJAEBU_GUID@@PEAPEAX@Z 000000018001ef90 f i VideoCapture.obj
 0001:0001dfd0       ?OuterRelease@CComObjectRootBase@ATL@@QEAAKXZ 000000018001efd0 f i VideoCapture.obj
 0001:0001e000       ?PreProcessBuffer@CRegParser@ATL@@QEAAJPEA_WPEAPEA_W@Z 000000018001f000 f i VideoCapture.obj
 0001:0001e6e0       ?PreTranslateAccelerator@CComControlBase@ATL@@QEAAHPEAUtagMSG@@AEAJ@Z 000000018001f6e0 f i VideoCapture.obj
 0001:0001e700       ?ProcessWindowMessage@?$CComControl@VCOPOSVideoCapture@@V?$CWindowImpl@VCOPOSVideoCapture@@VCWindow@ATL@@V?$CWinTraits@$0FGAAAAAA@$0A@@3@@ATL@@@ATL@@UEAAHPEAUHWND__@@I_K_JAEA_JK@Z 000000018001f700 f i VideoCapture.obj
 0001:0001e980       ?ProcessWindowMessage@COPOSVideoCapture@@UEAAHPEAUHWND__@@I_K_JAEA_JK@Z 000000018001f980 f i VideoCapture.obj
 0001:0001eae0       ?PutProperty@?$CComPtr@UIDispatch@@@ATL@@QEAAJJPEAUtagVARIANT@@@Z 000000018001fae0 f i VideoCapture.obj
 0001:0001eb10       ?PutProperty@?$CComPtr@UIDispatch@@@ATL@@SAJPEAUIDispatch@@JPEAUtagVARIANT@@@Z 000000018001fb10 f i VideoCapture.obj
 0001:0001edc0       ?QueryGetData@?$IDataObjectImpl@VCOPOSVideoCapture@@@ATL@@UEAAJPEAUtagFORMATETC@@@Z 000000018001fdc0 f i VideoCapture.obj
 0001:0001ee30       ?QueryHitPoint@?$IViewObjectExImpl@VCOPOSVideoCapture@@@ATL@@UEAAJKPEBUtagRECT@@UtagPOINT@@JPEAK@Z 000000018001fe30 f i VideoCapture.obj
 0001:0001ef90       ?QueryHitRect@?$IViewObjectExImpl@VCOPOSVideoCapture@@@ATL@@UEAAJKPEBUtagRECT@@0JPEAK@Z 000000018001ff90 f i VideoCapture.obj
 0001:0001f160       ?QueryInterface@?$CComAggObject@VCOPOSVideoCapture@@@ATL@@UEAAJAEBU_GUID@@PEAPEAX@Z 0000000180020160 f i VideoCapture.obj
 0001:0001f230       ?QueryInterface@?$CComContainedObject@VCOPOSVideoCapture@@@ATL@@UEAAJAEBU_GUID@@PEAPEAX@Z 0000000180020230 f i VideoCapture.obj
 0001:0001f268       ?QueryInterface@?$CComContainedObject@VCOPOSVideoCapture@@@ATL@@WBAA@EAAJAEBU_GUID@@PEAPEAX@Z 0000000180020268 f i VideoCapture.obj
 0001:0001f274       ?QueryInterface@?$CComContainedObject@VCOPOSVideoCapture@@@ATL@@WBAI@EAAJAEBU_GUID@@PEAPEAX@Z 0000000180020274 f i VideoCapture.obj
 0001:0001f280       ?QueryInterface@?$CComContainedObject@VCOPOSVideoCapture@@@ATL@@WBBA@EAAJAEBU_GUID@@PEAPEAX@Z 0000000180020280 f i VideoCapture.obj
 0001:0001f28c       ?QueryInterface@?$CComContainedObject@VCOPOSVideoCapture@@@ATL@@WBBI@EAAJAEBU_GUID@@PEAPEAX@Z 000000018002028c f i VideoCapture.obj
 0001:0001f298       ?QueryInterface@?$CComContainedObject@VCOPOSVideoCapture@@@ATL@@WLI@EAAJAEBU_GUID@@PEAPEAX@Z 0000000180020298 f i VideoCapture.obj
 0001:0001f2a4       ?QueryInterface@?$CComContainedObject@VCOPOSVideoCapture@@@ATL@@WMA@EAAJAEBU_GUID@@PEAPEAX@Z 00000001800202a4 f i VideoCapture.obj
 0001:0001f2b0       ?QueryInterface@?$CComContainedObject@VCOPOSVideoCapture@@@ATL@@WMI@EAAJAEBU_GUID@@PEAPEAX@Z 00000001800202b0 f i VideoCapture.obj
 0001:0001f2bc       ?QueryInterface@?$CComContainedObject@VCOPOSVideoCapture@@@ATL@@WNA@EAAJAEBU_GUID@@PEAPEAX@Z 00000001800202bc f i VideoCapture.obj
 0001:0001f2c8       ?QueryInterface@?$CComContainedObject@VCOPOSVideoCapture@@@ATL@@WNI@EAAJAEBU_GUID@@PEAPEAX@Z 00000001800202c8 f i VideoCapture.obj
 0001:0001f2d4       ?QueryInterface@?$CComContainedObject@VCOPOSVideoCapture@@@ATL@@WOA@EAAJAEBU_GUID@@PEAPEAX@Z 00000001800202d4 f i VideoCapture.obj
 0001:0001f2e0       ?QueryInterface@?$CComContainedObject@VCOPOSVideoCapture@@@ATL@@WOI@EAAJAEBU_GUID@@PEAPEAX@Z 00000001800202e0 f i VideoCapture.obj
 0001:0001f2ec       ?QueryInterface@?$CComContainedObject@VCOPOSVideoCapture@@@ATL@@WPA@EAAJAEBU_GUID@@PEAPEAX@Z 00000001800202ec f i VideoCapture.obj
 0001:0001f2f8       ?QueryInterface@?$CComContainedObject@VCOPOSVideoCapture@@@ATL@@WPI@EAAJAEBU_GUID@@PEAPEAX@Z 00000001800202f8 f i VideoCapture.obj
 0001:0001f310       ?QueryInterface@?$CComObject@V?$CComEnum@UIEnumConnectionPoints@@$1?_GUID_b196b285_bab4_101a_b69c_00aa00341d07@@3U__s_GUID@@BPEAUIConnectionPoint@@V?$_CopyInterface@UIConnectionPoint@@@ATL@@VCComSingleThreadModel@6@@ATL@@@ATL@@UEAAJAEBU_GUID@@PEAPEAX@Z 0000000180020310 f i VideoCapture.obj
 0001:0001f340       ?QueryInterface@?$CComObject@V?$CComEnum@UIEnumConnections@@$1?_GUID_b196b287_bab4_101a_b69c_00aa00341d07@@3U__s_GUID@@BUtagCONNECTDATA@@V?$_Copy@UtagCONNECTDATA@@@ATL@@VCComSingleThreadModel@6@@ATL@@@ATL@@UEAAJAEBU_GUID@@PEAPEAX@Z 0000000180020340 f i VideoCapture.obj
 0001:0001f370       ?QueryInterface@?$CComObject@VCOPOSVideoCapture@@@ATL@@UEAAJAEBU_GUID@@PEAPEAX@Z 0000000180020370 f i VideoCapture.obj
 0001:0001f3a0       ?QueryInterface@?$CComObject@VCOPOSVideoCapture@@@ATL@@WBAA@EAAJAEBU_GUID@@PEAPEAX@Z 00000001800203a0 f i VideoCapture.obj
 0001:0001f3ac       ?QueryInterface@?$CComObject@VCOPOSVideoCapture@@@ATL@@WBAI@EAAJAEBU_GUID@@PEAPEAX@Z 00000001800203ac f i VideoCapture.obj
 0001:0001f3b8       ?QueryInterface@?$CComObject@VCOPOSVideoCapture@@@ATL@@WBBA@EAAJAEBU_GUID@@PEAPEAX@Z 00000001800203b8 f i VideoCapture.obj
 0001:0001f3c4       ?QueryInterface@?$CComObject@VCOPOSVideoCapture@@@ATL@@WBBI@EAAJAEBU_GUID@@PEAPEAX@Z 00000001800203c4 f i VideoCapture.obj
 0001:0001f3d0       ?QueryInterface@?$CComObject@VCOPOSVideoCapture@@@ATL@@WLI@EAAJAEBU_GUID@@PEAPEAX@Z 00000001800203d0 f i VideoCapture.obj
 0001:0001f3dc       ?QueryInterface@?$CComObject@VCOPOSVideoCapture@@@ATL@@WMA@EAAJAEBU_GUID@@PEAPEAX@Z 00000001800203dc f i VideoCapture.obj
 0001:0001f3e8       ?QueryInterface@?$CComObject@VCOPOSVideoCapture@@@ATL@@WMI@EAAJAEBU_GUID@@PEAPEAX@Z 00000001800203e8 f i VideoCapture.obj
 0001:0001f3f4       ?QueryInterface@?$CComObject@VCOPOSVideoCapture@@@ATL@@WNA@EAAJAEBU_GUID@@PEAPEAX@Z 00000001800203f4 f i VideoCapture.obj
 0001:0001f400       ?QueryInterface@?$CComObject@VCOPOSVideoCapture@@@ATL@@WNI@EAAJAEBU_GUID@@PEAPEAX@Z 0000000180020400 f i VideoCapture.obj
 0001:0001f40c       ?QueryInterface@?$CComObject@VCOPOSVideoCapture@@@ATL@@WOA@EAAJAEBU_GUID@@PEAPEAX@Z 000000018002040c f i VideoCapture.obj
 0001:0001f418       ?QueryInterface@?$CComObject@VCOPOSVideoCapture@@@ATL@@WOI@EAAJAEBU_GUID@@PEAPEAX@Z 0000000180020418 f i VideoCapture.obj
 0001:0001f424       ?QueryInterface@?$CComObject@VCOPOSVideoCapture@@@ATL@@WPA@EAAJAEBU_GUID@@PEAPEAX@Z 0000000180020424 f i VideoCapture.obj
 0001:0001f430       ?QueryInterface@?$CComObject@VCOPOSVideoCapture@@@ATL@@WPI@EAAJAEBU_GUID@@PEAPEAX@Z 0000000180020430 f i VideoCapture.obj
 0001:0001f440       ?QueryInterface@?$CComObjectCached@VCComClassFactory@ATL@@@ATL@@UEAAJAEBU_GUID@@PEAPEAX@Z 0000000180020440 f i VideoCapture.obj
 0001:0001f470       ?QueryInterface@CRegObject@ATL@@UEAAJAEBU_GUID@@PEAPEAX@Z 0000000180020470 f i VideoCapture.obj
 0001:0001f4e0       ?QuickActivate@?$IQuickActivateImpl@VCOPOSVideoCapture@@@ATL@@UEAAJPEAUtagQACONTAINER@@PEAUtagQACONTROL@@@Z 00000001800204e0 f i VideoCapture.obj
 0001:0001f590       ?ReactivateAndUndo@?$IOleInPlaceObjectWindowlessImpl@VCOPOSVideoCapture@@@ATL@@UEAAJXZ 0000000180020590 f i VideoCapture.obj
 0001:0001f600       ?ReadFromStream@CComBSTR@ATL@@QEAAJPEAUIStream@@@Z 0000000180020600 f i VideoCapture.obj
 0001:0001fae0       ?ReadFromStream@CComVariant@ATL@@QEAAJPEAUIStream@@GTClassesAllowedInStream@2@K@Z 0000000180020ae0 f i VideoCapture.obj
 0001:0001ff20       ?RecurseDeleteKey@CRegKey@ATL@@QEAAJPEB_W@Z 0000000180020f20 f i VideoCapture.obj
 0001:00020140       ?RegCreateKeyExW@CAtlTransactionManager@ATL@@QEAAJPEAUHKEY__@@PEB_WKPEA_WKKQEAU_SECURITY_ATTRIBUTES@@PEAPEAU3@PEAK@Z 0000000180021140 f i VideoCapture.obj
 0001:000202f0       ?RegDeleteKeyW@CAtlTransactionManager@ATL@@QEAAJPEAUHKEY__@@PEB_W@Z 00000001800212f0 f i VideoCapture.obj
 0001:000203f0       ?RegOpenKeyExW@CAtlTransactionManager@ATL@@QEAAJPEAUHKEY__@@PEB_WKKPEAPEAU3@@Z 00000001800213f0 f i VideoCapture.obj
 0001:00020530       ?Register@_ATL_WNDCLASSINFOW@ATL@@QEAAGPEAP6A_JPEAUHWND__@@I_K_J@Z@Z 0000000180021530 f i VideoCapture.obj
 0001:00020570       ?RegisterBuffer@CRegParser@ATL@@QEAAJPEA_WH@Z 0000000180021570 f i VideoCapture.obj
 0001:00020960       ?RegisterClassExW@AtlModuleRegisterWndClassInfoParamW@ATL@@SAGPEAU_ATL_WIN_MODULE70@2@PEBUtagWNDCLASSEXW@@@Z 0000000180021960 f i VideoCapture.obj
 0001:00020990       ?RegisterFromResource@CRegObject@ATL@@IEAAJPEB_W00H@Z 0000000180021990 f i VideoCapture.obj
 0001:00020df0       ?RegisterServer@?$CAtlModuleT@VCComModule@ATL@@@ATL@@QEAAJHPEBU_GUID@@@Z 0000000180021df0 f i VideoCapture.obj
 0001:00020e50       ?RegisterServer@CAtlComModule@ATL@@QEAAJHPEBU_GUID@@@Z 0000000180021e50 f i VideoCapture.obj
 0001:00020e80       ?RegisterServer@CComModule@ATL@@QEAAJHPEBU_GUID@@@Z 0000000180021e80 f i VideoCapture.obj
 0001:00020f60       ?RegisterSubkeys@CRegParser@ATL@@IEAAJPEA_WPEAUHKEY__@@HH@Z 0000000180021f60 f i VideoCapture.obj
 0001:00021d40       ?Release@?$CComAggObject@VCOPOSVideoCapture@@@ATL@@UEAAKXZ 0000000180022d40 f i VideoCapture.obj
 0001:00021df0       ?Release@?$CComContainedObject@VCOPOSVideoCapture@@@ATL@@UEAAKXZ 0000000180022df0 f i VideoCapture.obj
 0001:00021e14       ?Release@?$CComContainedObject@VCOPOSVideoCapture@@@ATL@@WBAA@EAAKXZ 0000000180022e14 f i VideoCapture.obj
 0001:00021e20       ?Release@?$CComContainedObject@VCOPOSVideoCapture@@@ATL@@WBAI@EAAKXZ 0000000180022e20 f i VideoCapture.obj
 0001:00021e2c       ?Release@?$CComContainedObject@VCOPOSVideoCapture@@@ATL@@WBBA@EAAKXZ 0000000180022e2c f i VideoCapture.obj
 0001:00021e38       ?Release@?$CComContainedObject@VCOPOSVideoCapture@@@ATL@@WBBI@EAAKXZ 0000000180022e38 f i VideoCapture.obj
 0001:00021e44       ?Release@?$CComContainedObject@VCOPOSVideoCapture@@@ATL@@WBCI@EAAKXZ 0000000180022e44 f i VideoCapture.obj
 0001:00021e50       ?Release@?$CComContainedObject@VCOPOSVideoCapture@@@ATL@@WBEA@EAAKXZ 0000000180022e50 f i VideoCapture.obj
 0001:00021e5c       ?Release@?$CComContainedObject@VCOPOSVideoCapture@@@ATL@@WLI@EAAKXZ 0000000180022e5c f i VideoCapture.obj
 0001:00021e68       ?Release@?$CComContainedObject@VCOPOSVideoCapture@@@ATL@@WMA@EAAKXZ 0000000180022e68 f i VideoCapture.obj
 0001:00021e74       ?Release@?$CComContainedObject@VCOPOSVideoCapture@@@ATL@@WMI@EAAKXZ 0000000180022e74 f i VideoCapture.obj
 0001:00021e80       ?Release@?$CComContainedObject@VCOPOSVideoCapture@@@ATL@@WNA@EAAKXZ 0000000180022e80 f i VideoCapture.obj
 0001:00021e8c       ?Release@?$CComContainedObject@VCOPOSVideoCapture@@@ATL@@WNI@EAAKXZ 0000000180022e8c f i VideoCapture.obj
 0001:00021e98       ?Release@?$CComContainedObject@VCOPOSVideoCapture@@@ATL@@WOA@EAAKXZ 0000000180022e98 f i VideoCapture.obj
 0001:00021ea4       ?Release@?$CComContainedObject@VCOPOSVideoCapture@@@ATL@@WOI@EAAKXZ 0000000180022ea4 f i VideoCapture.obj
 0001:00021eb0       ?Release@?$CComContainedObject@VCOPOSVideoCapture@@@ATL@@WPA@EAAKXZ 0000000180022eb0 f i VideoCapture.obj
 0001:00021ebc       ?Release@?$CComContainedObject@VCOPOSVideoCapture@@@ATL@@WPI@EAAKXZ 0000000180022ebc f i VideoCapture.obj
 0001:00021ed0       ?Release@?$CComObject@V?$CComEnum@UIEnumConnectionPoints@@$1?_GUID_b196b285_bab4_101a_b69c_00aa00341d07@@3U__s_GUID@@BPEAUIConnectionPoint@@V?$_CopyInterface@UIConnectionPoint@@@ATL@@VCComSingleThreadModel@6@@ATL@@@ATL@@UEAAKXZ 0000000180022ed0 f i VideoCapture.obj
 0001:00021f80       ?Release@?$CComObject@V?$CComEnum@UIEnumConnections@@$1?_GUID_b196b287_bab4_101a_b69c_00aa00341d07@@3U__s_GUID@@BUtagCONNECTDATA@@V?$_Copy@UtagCONNECTDATA@@@ATL@@VCComSingleThreadModel@6@@ATL@@@ATL@@UEAAKXZ 0000000180022f80 f i VideoCapture.obj
 0001:00022030       ?Release@?$CComObject@VCOPOSVideoCapture@@@ATL@@UEAAKXZ 0000000180023030 f i VideoCapture.obj
 0001:000220e8       ?Release@?$CComObject@VCOPOSVideoCapture@@@ATL@@WBAA@EAAKXZ 00000001800230e8 f i VideoCapture.obj
 0001:000220f4       ?Release@?$CComObject@VCOPOSVideoCapture@@@ATL@@WBAI@EAAKXZ 00000001800230f4 f i VideoCapture.obj
 0001:00022100       ?Release@?$CComObject@VCOPOSVideoCapture@@@ATL@@WBBA@EAAKXZ 0000000180023100 f i VideoCapture.obj
 0001:0002210c       ?Release@?$CComObject@VCOPOSVideoCapture@@@ATL@@WBBI@EAAKXZ 000000018002310c f i VideoCapture.obj
 0001:00022118       ?Release@?$CComObject@VCOPOSVideoCapture@@@ATL@@WBCI@EAAKXZ 0000000180023118 f i VideoCapture.obj
 0001:00022124       ?Release@?$CComObject@VCOPOSVideoCapture@@@ATL@@WBEA@EAAKXZ 0000000180023124 f i VideoCapture.obj
 0001:00022130       ?Release@?$CComObject@VCOPOSVideoCapture@@@ATL@@WLI@EAAKXZ 0000000180023130 f i VideoCapture.obj
 0001:0002213c       ?Release@?$CComObject@VCOPOSVideoCapture@@@ATL@@WMA@EAAKXZ 000000018002313c f i VideoCapture.obj
 0001:00022148       ?Release@?$CComObject@VCOPOSVideoCapture@@@ATL@@WMI@EAAKXZ 0000000180023148 f i VideoCapture.obj
 0001:00022154       ?Release@?$CComObject@VCOPOSVideoCapture@@@ATL@@WNA@EAAKXZ 0000000180023154 f i VideoCapture.obj
 0001:00022160       ?Release@?$CComObject@VCOPOSVideoCapture@@@ATL@@WNI@EAAKXZ 0000000180023160 f i VideoCapture.obj
 0001:0002216c       ?Release@?$CComObject@VCOPOSVideoCapture@@@ATL@@WOA@EAAKXZ 000000018002316c f i VideoCapture.obj
 0001:00022178       ?Release@?$CComObject@VCOPOSVideoCapture@@@ATL@@WOI@EAAKXZ 0000000180023178 f i VideoCapture.obj
 0001:00022184       ?Release@?$CComObject@VCOPOSVideoCapture@@@ATL@@WPA@EAAKXZ 0000000180023184 f i VideoCapture.obj
 0001:00022190       ?Release@?$CComObject@VCOPOSVideoCapture@@@ATL@@WPI@EAAKXZ 0000000180023190 f i VideoCapture.obj
 0001:000221a0       ?Release@?$CComObjectCached@VCComClassFactory@ATL@@@ATL@@UEAAKXZ 00000001800231a0 f i VideoCapture.obj
 0001:00022230       ?Release@?$CComPtrBase@UIAdviseSink@@@ATL@@QEAAXXZ 0000000180023230 f i VideoCapture.obj
 0001:00022280       ?Release@?$CComPtrBase@UIDispatch@@@ATL@@QEAAXXZ 0000000180023280 f i VideoCapture.obj
 0001:000222d0       ?Release@?$CComPtrBase@UIOleInPlaceSiteWindowless@@@ATL@@QEAAXXZ 00000001800232d0 f i VideoCapture.obj
 0001:00022320       ?Release@CRegObject@ATL@@UEAAKXZ 0000000180023320 f i VideoCapture.obj
 0001:00022380       ?Remove@CComDynamicUnkArray@ATL@@QEAAHK@Z 0000000180023380 f i VideoCapture.obj
 0001:00022440       ?RemoveAll@?$CSimpleMap@PEA_WPEA_WVCExpansionVectorEqualHelper@ATL@@@ATL@@QEAAXXZ 0000000180023440 f i VideoCapture.obj
 0001:000224d0       ?Reset@?$CComEnumImpl@UIEnumConnectionPoints@@$1?_GUID_b196b285_bab4_101a_b69c_00aa00341d07@@3U__s_GUID@@BPEAUIConnectionPoint@@V?$_CopyInterface@UIConnectionPoint@@@ATL@@@ATL@@UEAAJXZ 00000001800234d0 f i VideoCapture.obj
 0001:000224f0       ?Reset@?$CComEnumImpl@UIEnumConnections@@$1?_GUID_b196b287_bab4_101a_b69c_00aa00341d07@@3U__s_GUID@@BUtagCONNECTDATA@@V?$_Copy@UtagCONNECTDATA@@@ATL@@@ATL@@UEAAJXZ 00000001800234f0 f i VideoCapture.obj
 0001:00022510       ?ResizeBorder@?$IOleInPlaceActiveObjectImpl@VCOPOSVideoCapture@@@ATL@@UEAAJPEBUtagRECT@@PEAUIOleInPlaceUIWindow@@H@Z 0000000180023510 f i VideoCapture.obj
 0001:00022580       ?ResourceRegister@CRegObject@ATL@@QEAAJPEB_WI0@Z 0000000180023580 f i VideoCapture.obj
 0001:00022660       ?ResourceRegisterSz@CRegObject@ATL@@QEAAJPEB_W00@Z 0000000180023660 f i VideoCapture.obj
 0001:00022780       ?ResourceUnregister@CRegObject@ATL@@QEAAJPEB_WI0@Z 0000000180023780 f i VideoCapture.obj
 0001:00022860       ?ResourceUnregisterSz@CRegObject@ATL@@QEAAJPEB_W00@Z 0000000180023860 f i VideoCapture.obj
 0001:00022980       ?SODataDummy@COPOSVideoCapture@@MEAAJJ@Z 0000000180023980 f i VideoCapture.obj
 0001:000229a0       ?SODirectIO@COPOSVideoCapture@@MEAAJJPEAJPEAPEA_W@Z 00000001800239a0 f i VideoCapture.obj
 0001:00022be0       ?SOError@COPOSVideoCapture@@MEAAJJJJPEAJ@Z 0000000180023be0 f i VideoCapture.obj
 0001:00022cd0       ?SOOutputCompleteDummy@COPOSVideoCapture@@MEAAJJ@Z 0000000180023cd0 f i VideoCapture.obj
 0001:00022cf0       ?SOStatusUpdate@COPOSVideoCapture@@MEAAJJ@Z 0000000180023cf0 f i VideoCapture.obj
 0001:00022d80       ?Save@?$IPersistStorageImpl@VCOPOSVideoCapture@@@ATL@@UEAAJPEAUIStorage@@H@Z 0000000180023d80 f i VideoCapture.obj
 0001:00022f40       ?Save@?$IPersistStreamInitImpl@VCOPOSVideoCapture@@@ATL@@UEAAJPEAUIStream@@H@Z 0000000180023f40 f i VideoCapture.obj
 0001:00022ff0       ?SaveCompleted@?$IPersistStorageImpl@VCOPOSVideoCapture@@@ATL@@UEAAJPEAUIStorage@@@Z 0000000180023ff0 f i VideoCapture.obj
 0001:00023050       ?SendOnDataChange@CComControlBase@ATL@@QEAAJK@Z 0000000180024050 f i VideoCapture.obj
 0001:00023150       ?SendOnSave@CComControlBase@ATL@@QEAAJXZ 0000000180024150 f i VideoCapture.obj
 0001:000231b0       ?SendOnViewChange@CComControlBase@ATL@@QEAAJKJ@Z 00000001800241b0 f i VideoCapture.obj
 0001:00023210       ?SetAdvise@?$IViewObjectExImpl@VCOPOSVideoCapture@@@ATL@@UEAAJKKPEAUIAdviseSink@@@Z 0000000180024210 f i VideoCapture.obj
 0001:000232c0       ?SetClientSite@?$IOleObjectImpl@VCOPOSVideoCapture@@@ATL@@UEAAJPEAUIOleClientSite@@@Z 00000001800242c0 f i VideoCapture.obj
 0001:00023360       ?SetColorScheme@?$IOleObjectImpl@VCOPOSVideoCapture@@@ATL@@UEAAJPEAUtagLOGPALETTE@@@Z 0000000180024360 f i VideoCapture.obj
 0001:000233d0       ?SetContentExtent@?$IQuickActivateImpl@VCOPOSVideoCapture@@@ATL@@UEAAJPEAUtagSIZE@@@Z 00000001800243d0 f i VideoCapture.obj
 0001:00023480       ?SetControlFocus@CComControlBase@ATL@@QEAAHH@Z 0000000180024480 f i VideoCapture.obj
 0001:00023600       ?SetDWORDValue@CRegKey@ATL@@QEAAJPEB_WK@Z 0000000180024600 f i VideoCapture.obj
 0001:000236a0       ?SetData@?$IDataObjectImpl@VCOPOSVideoCapture@@@ATL@@UEAAJPEAUtagFORMATETC@@PEAUtagSTGMEDIUM@@H@Z 00000001800246a0 f i VideoCapture.obj
 0001:00023720       ?SetExtent@?$IOleObjectImpl@VCOPOSVideoCapture@@@ATL@@UEAAJKPEAUtagSIZE@@@Z 0000000180024720 f i VideoCapture.obj
 0001:000237d0       ?SetHostNames@?$IOleObjectImpl@VCOPOSVideoCapture@@@ATL@@UEAAJPEB_W0@Z 00000001800247d0 f i VideoCapture.obj
 0001:00023830       ?SetInterfaceSafetyOptions@?$IObjectSafetyImpl@VCOPOSVideoCapture@@$02@ATL@@UEAAJAEBU_GUID@@KK@Z 0000000180024830 f i VideoCapture.obj
 0001:000239d0       ?SetMoniker@?$IOleObjectImpl@VCOPOSVideoCapture@@@ATL@@UEAAJKPEAUIMoniker@@@Z 00000001800249d0 f i VideoCapture.obj
 0001:00023a50       ?SetMultiStringValue@CRegKey@ATL@@QEAAJPEB_W0@Z 0000000180024a50 f i VideoCapture.obj
 0001:00023bb0       ?SetObjectRects@?$IOleInPlaceObjectWindowlessImpl@VCOPOSVideoCapture@@@ATL@@UEAAJPEBUtagRECT@@0@Z 0000000180024bb0 f i VideoCapture.obj
 0001:00023c60       ?SetStringValue@CRegKey@ATL@@QEAAJPEB_W0K@Z 0000000180024c60 f i VideoCapture.obj
 0001:00023dd0       ?SetVoid@CComClassFactory@ATL@@QEAAXPEAX@Z 0000000180024dd0 f i VideoCapture.obj
 0001:00023df0       ?SetVoid@CComObjectRootBase@ATL@@QEAAXPEAX@Z 0000000180024df0 f i VideoCapture.obj
 0001:00023e00       ?ShowWindow@CWindow@ATL@@QEAAHH@Z 0000000180024e00 f i VideoCapture.obj
 0001:00023e80       ?Skip@?$CComEnumImpl@UIEnumConnectionPoints@@$1?_GUID_b196b285_bab4_101a_b69c_00aa00341d07@@3U__s_GUID@@BPEAUIConnectionPoint@@V?$_CopyInterface@UIConnectionPoint@@@ATL@@@ATL@@UEAAJK@Z 0000000180024e80 f i VideoCapture.obj
 0001:00023f10       ?Skip@?$CComEnumImpl@UIEnumConnections@@$1?_GUID_b196b287_bab4_101a_b69c_00aa00341d07@@3U__s_GUID@@BUtagCONNECTDATA@@V?$_Copy@UtagCONNECTDATA@@@ATL@@@ATL@@UEAAJK@Z 0000000180024f10 f i VideoCapture.obj
 0001:00023fa0       ?SkipAssignment@CRegParser@ATL@@IEAAJPEA_W@Z 0000000180024fa0 f i VideoCapture.obj
 0001:000240a0       ?SkipWhiteSpace@CRegParser@ATL@@IEAAXXZ 00000001800250a0 f i VideoCapture.obj
 0001:000240f0       ?StartWindowProc@?$CWindowImplBaseT@VCWindow@ATL@@V?$CWinTraits@$0FGAAAAAA@$0A@@2@@ATL@@SA_JPEAUHWND__@@I_K_J@Z 00000001800250f0 f i VideoCapture.obj
 0001:00024240       ?StrChrW@CRegParser@ATL@@KAPEA_WPEA_W_W@Z 0000000180025240 f i VideoCapture.obj
 0001:000242b0       ?StrFromMap@CRegObject@ATL@@QEAAPEB_WPEA_W@Z 00000001800252b0 f i VideoCapture.obj
 0001:00024350       ?Swap@?$CComPtrBase@UIAdviseSink@@@ATL@@IEAAXAEAV12@@Z 0000000180025350 f i VideoCapture.obj
 0001:00024390       ?Swap@?$CComPtrBase@UIOleClientSite@@@ATL@@IEAAXAEAV12@@Z 0000000180025390 f i VideoCapture.obj
 0001:000243d0       ?Swap@?$CComPtrBase@UIUnknown@@@ATL@@IEAAXAEAV12@@Z 00000001800253d0 f i VideoCapture.obj
 0001:00024410       ?T2COLE_EX@@YAPEB_WPEB_WI@Z 0000000180025410 f i VideoCapture.obj
 0001:00024430       ?T2OLE_EX@@YAPEA_WPEA_WI@Z 0000000180025430 f i VideoCapture.obj
 0001:00024450       ?Term@CAtlModule@ATL@@QEAAXXZ 0000000180025450 f i VideoCapture.obj
 0001:00024500       ?Term@CComModule@ATL@@QEAAXXZ 0000000180025500 f i VideoCapture.obj
 0001:000245e0       ?TranslateAcceleratorW@?$IOleInPlaceActiveObjectImpl@VCOPOSVideoCapture@@@ATL@@UEAAJPEAUtagMSG@@@Z 00000001800255e0 f i VideoCapture.obj
 0001:00024850       ?UIDeactivate@?$IOleInPlaceObjectWindowlessImpl@VCOPOSVideoCapture@@@ATL@@UEAAJXZ 0000000180025850 f i VideoCapture.obj
 0001:000248e0       ?Unadvise@?$CProxy_IOPOSEvents@VCOPOSVideoCapture@@@@UEAAJK@Z 00000001800258e0 f i VideoCapture.obj
 0001:00024920       ?Unadvise@?$IConnectionPointImpl@VCOPOSVideoCapture@@$1?DIID__IOPOSVideoCaptureEvents@@3U_GUID@@BVCComDynamicUnkArray@ATL@@@ATL@@UEAAJK@Z 0000000180025920 f i VideoCapture.obj
 0001:00024a00       ?Unadvise@?$IConnectionPointImpl@VCOPOSVideoCapture@@$1?IID_IPropertyNotifySink@@3U_GUID@@BVCComDynamicUnkArray@ATL@@@ATL@@UEAAJK@Z 0000000180025a00 f i VideoCapture.obj
 0001:00024ae0       ?Unadvise@?$IOleObjectImpl@VCOPOSVideoCapture@@@ATL@@UEAAJK@Z 0000000180025ae0 f i VideoCapture.obj
 0001:00024bc0       ?Unfreeze@?$IViewObjectExImpl@VCOPOSVideoCapture@@@ATL@@UEAAJK@Z 0000000180025bc0 f i VideoCapture.obj
 0001:00024c30       ?Unlock@?$CComCritSecLock@VCComCriticalSection@ATL@@@ATL@@QEAAXXZ 0000000180025c30 f i VideoCapture.obj
 0001:00024cb0       ?Unlock@?$CComObjectRootEx@VCComSingleThreadModel@ATL@@@ATL@@QEAAXXZ 0000000180025cb0 f i VideoCapture.obj
 0001:00024cc0       ?Unlock@CAtlModule@ATL@@UEAAJXZ 0000000180025cc0 f i VideoCapture.obj
 0001:00024cf0       ?Unlock@CComCriticalSection@ATL@@QEAAJXZ 0000000180025cf0 f i VideoCapture.obj
 0001:00024d10       ?Unlock@CComFakeCriticalSection@ATL@@QEAAJXZ 0000000180025d10 f i VideoCapture.obj
 0001:00024d20       ?UnregisterServer@?$CAtlModuleT@VCComModule@ATL@@@ATL@@QEAAJHPEBU_GUID@@@Z 0000000180025d20 f i VideoCapture.obj
 0001:00024d80       ?UnregisterServer@CAtlComModule@ATL@@QEAAJHPEBU_GUID@@@Z 0000000180025d80 f i VideoCapture.obj
 0001:00024db0       ?UnregisterServer@CComModule@ATL@@QEAAJHPEBU_GUID@@@Z 0000000180025db0 f i VideoCapture.obj
 0001:00024e90       ?Update@?$IOleObjectImpl@VCOPOSVideoCapture@@@ATL@@UEAAJXZ 0000000180025e90 f i VideoCapture.obj
 0001:00024ef0       ?UpdateRegistryFromResource@CAtlModule@ATL@@QEAAJIHPEAU_ATL_REGMAP_ENTRY@2@@Z 0000000180025ef0 f i VideoCapture.obj
 0001:00025430       ?UpdateRegistryFromResource@CAtlModule@ATL@@QEAAJPEB_WHPEAU_ATL_REGMAP_ENTRY@2@@Z 0000000180026430 f i VideoCapture.obj
 0001:00025980       ?UpdateRegistryFromResource@CComModule@ATL@@UEAAJIHPEAU_ATL_REGMAP_ENTRY@2@@Z 0000000180026980 f i VideoCapture.obj
 0001:000259c0       ?UpdateRegistryFromResource@CComModule@ATL@@UEAAJPEB_WHPEAU_ATL_REGMAP_ENTRY@2@@Z 00000001800269c0 f i VideoCapture.obj
 0001:00025a00       ?UpdateRegistryFromResourceD@CComModule@ATL@@UEAAJIHPEAU_ATL_REGMAP_ENTRY@2@@Z 0000000180026a00 f i VideoCapture.obj
 0001:00025a20       ?UpdateRegistryFromResourceD@CComModule@ATL@@UEAAJPEB_WHPEAU_ATL_REGMAP_ENTRY@2@@Z 0000000180026a20 f i VideoCapture.obj
 0001:00025a40       ?VTFromRegType@CRegParser@ATL@@KAHPEB_WAEAG@Z 0000000180026a40 f i VideoCapture.obj
 0001:00025b10       ?WindowProc@?$CWindowImplBaseT@VCWindow@ATL@@V?$CWinTraits@$0FGAAAAAA@$0A@@2@@ATL@@SA_JPEAUHWND__@@I_K_J@Z 0000000180026b10 f i VideoCapture.obj
 0001:00025df0       ?WriteToStream@CComBSTR@ATL@@QEAAJPEAUIStream@@@Z 0000000180026df0 f i VideoCapture.obj
 0001:00025f60       ?WriteToStream@CComVariant@ATL@@QEAAJPEAUIStream@@@Z 0000000180026f60 f i VideoCapture.obj
 0001:00026390       ?WriteToStream@CComVariant@ATL@@QEAAJPEAUIStream@@G@Z 0000000180027390 f i VideoCapture.obj
 0001:00026470       ?_AtlFinalConstruct@CComObjectRootBase@ATL@@QEAAJXZ 0000000180027470 f i VideoCapture.obj
 0001:00026480       ?_AtlGetConversionACP@ATL@@YAIXZ 0000000180027480 f i VideoCapture.obj
 0001:00026490       ?_AtlInitialConstruct@?$CComAggObject@VCOPOSVideoCapture@@@ATL@@QEAAJXZ 0000000180027490 f i VideoCapture.obj
 0001:000264e0       ?_AtlInitialConstruct@?$CComObjectRootEx@VCComMultiThreadModel@ATL@@@ATL@@QEAAJXZ 00000001800274e0 f i VideoCapture.obj
 0001:00026510       ?_AtlInitialConstruct@?$CComObjectRootEx@VCComSingleThreadModel@ATL@@@ATL@@QEAAJXZ 0000000180027510 f i VideoCapture.obj
 0001:00026520       ?_AtlVerifyStackAvailable@_ATL_SAFE_ALLOCA_IMPL@ATL@@YA_N_K@Z 0000000180027520 f i VideoCapture.obj
 0001:00026680       ?_GetEntries@?$CComEnum@UIEnumConnectionPoints@@$1?_GUID_b196b285_bab4_101a_b69c_00aa00341d07@@3U__s_GUID@@BPEAUIConnectionPoint@@V?$_CopyInterface@UIConnectionPoint@@@ATL@@VCComSingleThreadModel@6@@ATL@@SAPEBU_ATL_INTMAP_ENTRY@2@XZ 0000000180027680 f i VideoCapture.obj
 0001:000266a0       ?_GetEntries@?$CComEnum@UIEnumConnections@@$1?_GUID_b196b287_bab4_101a_b69c_00aa00341d07@@3U__s_GUID@@BUtagCONNECTDATA@@V?$_Copy@UtagCONNECTDATA@@@ATL@@VCComSingleThreadModel@6@@ATL@@SAPEBU_ATL_INTMAP_ENTRY@2@XZ 00000001800276a0 f i VideoCapture.obj
 0001:000266c0       ?_GetEntries@CComClassFactory@ATL@@SAPEBU_ATL_INTMAP_ENTRY@2@XZ 00000001800276c0 f i VideoCapture.obj
 0001:000266e0       ?_GetEntries@COPOSVideoCapture@@SAPEBU_ATL_INTMAP_ENTRY@ATL@@XZ 00000001800276e0 f i VideoCapture.obj
 0001:00026700       ?_GetRawUnknown@COPOSVideoCapture@@QEAAPEAUIUnknown@@XZ 0000000180027700 f i VideoCapture.obj
 0001:00026780       ?_GetViewStatus@COPOSVideoCapture@@QEAAKXZ 0000000180027780 f i VideoCapture.obj
 0001:00026790       ?_InternalQueryInterface@?$CComEnum@UIEnumConnectionPoints@@$1?_GUID_b196b285_bab4_101a_b69c_00aa00341d07@@3U__s_GUID@@BPEAUIConnectionPoint@@V?$_CopyInterface@UIConnectionPoint@@@ATL@@VCComSingleThreadModel@6@@ATL@@QEAAJAEBU_GUID@@PEAPEAX@Z 0000000180027790 f i VideoCapture.obj
 0001:000267d0       ?_InternalQueryInterface@?$CComEnum@UIEnumConnections@@$1?_GUID_b196b287_bab4_101a_b69c_00aa00341d07@@3U__s_GUID@@BUtagCONNECTDATA@@V?$_Copy@UtagCONNECTDATA@@@ATL@@VCComSingleThreadModel@6@@ATL@@QEAAJAEBU_GUID@@PEAPEAX@Z 00000001800277d0 f i VideoCapture.obj
 0001:00026810       ?_InternalQueryInterface@CComClassFactory@ATL@@QEAAJAEBU_GUID@@PEAPEAX@Z 0000000180027810 f i VideoCapture.obj
 0001:00026850       ?_InternalQueryInterface@COPOSVideoCapture@@QEAAJAEBU_GUID@@PEAPEAX@Z 0000000180027850 f i VideoCapture.obj
 0001:00026890       ?_LocCPQueryInterface@?$IConnectionPointImpl@VCOPOSVideoCapture@@$1?DIID__IOPOSVideoCaptureEvents@@3U_GUID@@BVCComDynamicUnkArray@ATL@@@ATL@@UEAAJAEBU_GUID@@PEAPEAX@Z 0000000180027890 f i VideoCapture.obj
 0001:00026960       ?_LocCPQueryInterface@?$IConnectionPointImpl@VCOPOSVideoCapture@@$1?IID_IPropertyNotifySink@@3U_GUID@@BVCComDynamicUnkArray@ATL@@@ATL@@UEAAJAEBU_GUID@@PEAPEAX@Z 0000000180027960 f i VideoCapture.obj
 0001:00026a30       ?atlCreate@?$CWindowImpl@VCOPOSVideoCapture@@VCWindow@ATL@@V?$CWinTraits@$0FGAAAAAA@$0A@@3@@ATL@@QEAAPEAUHWND__@@PEAU3@V_U_RECT@2@PEB_WKKV_U_MENUorID@2@PEAX@Z 0000000180027a30 f i VideoCapture.obj
 0001:00026b40       ?atlCreate@?$CWindowImplBaseT@VCWindow@ATL@@V?$CWinTraits@$0FGAAAAAA@$0A@@2@@ATL@@QEAAPEAUHWND__@@PEAU3@V_U_RECT@2@PEB_WKKV_U_MENUorID@2@GPEAX@Z 0000000180027b40 f i VideoCapture.obj
 0001:00026d90       ?atlCreate@CRegKey@ATL@@QEAAJPEAUHKEY__@@PEB_WPEA_WKKPEAU_SECURITY_ATTRIBUTES@@PEAK@Z 0000000180027d90 f i VideoCapture.obj
 0001:00026f90       ?begin@CComDynamicUnkArray@ATL@@QEAAPEAPEAUIUnknown@@XZ 0000000180027f90 f i VideoCapture.obj
 0001:00026fa0       ?copy@?$_Copy@UtagCONNECTDATA@@@ATL@@SAJPEAUtagCONNECTDATA@@PEBU3@@Z 0000000180027fa0 f i VideoCapture.obj
 0001:00027080       ?copy@?$_CopyInterface@UIConnectionPoint@@@ATL@@SAJPEAPEAUIConnectionPoint@@PEBQEAU3@@Z 0000000180028080 f i VideoCapture.obj
 0001:00027160       ?destroy@?$_Copy@UtagCONNECTDATA@@@ATL@@SAXPEAUtagCONNECTDATA@@@Z 0000000180028160 f i VideoCapture.obj
 0001:000271a0       ?destroy@?$_CopyInterface@UIConnectionPoint@@@ATL@@SAXPEAPEAUIConnectionPoint@@@Z 00000001800281a0 f i VideoCapture.obj
 0001:000271e0       ?end@CComDynamicUnkArray@ATL@@QEAAPEAPEAUIUnknown@@XZ 00000001800281e0 f i VideoCapture.obj
 0001:00027200       ?init@?$_Copy@UtagCONNECTDATA@@@ATL@@SAXPEAUtagCONNECTDATA@@@Z 0000000180028200 f i VideoCapture.obj
 0001:00027210       ?init@?$_CopyInterface@UIConnectionPoint@@@ATL@@SAXPEAPEAUIConnectionPoint@@@Z 0000000180028210 f i VideoCapture.obj
 0001:00027220       ?memcpy_s@Checked@ATL@@YAXPEAX_KPEBX1@Z 0000000180028220 f i VideoCapture.obj
 0001:00027260       ?ocscpy_s@@YA_NPEA_W_KPEB_W@Z 0000000180028260 f i VideoCapture.obj
 0001:000272d0       ?ocslen@@YAHPEB_W@Z        00000001800282d0 f i VideoCapture.obj
 0001:00027300       ?tcsncpy_s@Checked@ATL@@YAHPEA_W_KPEB_W1@Z 0000000180028300 f i VideoCapture.obj
 0001:00027340       ?wcscat_s@Checked@ATL@@YAXPEA_W_KPEB_W@Z 0000000180028340 f i VideoCapture.obj
 0001:00027380       ?wcscpy_s@Checked@ATL@@YAXPEA_W_KPEB_W@Z 0000000180028380 f i VideoCapture.obj
 0001:000273c0       ?wcsncpy_s@Checked@ATL@@YAHPEA_W_KPEB_W1@Z 00000001800283c0 f i VideoCapture.obj
 0001:00027400       ?wcsstr@@YAPEA_WPEA_WPEB_W@Z 0000000180028400 f i VideoCapture.obj
 0001:00027430       InlineIsEqualGUID          0000000180028430 f i VideoCapture.obj
 0001:000274f0       IsEqualGUID                00000001800284f0 f i VideoCapture.obj
 0001:00027540       ??0COPOSVideoCapture@@QEAA@XZ 0000000180028540 f   VideoCaptureImpl.obj
 0001:000276b0       ?FinalConstruct@COPOSVideoCapture@@QEAAJXZ 00000001800286b0 f   VideoCaptureImpl.obj
 0001:00027790       ??1COPOSVideoCapture@@UEAA@XZ 0000000180028790 f   VideoCaptureImpl.obj
 0001:00027870       ?WriteTrace@COPOSVideoCapture@@QEAAXPEB_WZZ 0000000180028870 f   VideoCaptureImpl.obj
 0001:00027940       ?WriteTraceString@COPOSVideoCapture@@QEAAXPEB_WPEA_W@Z 0000000180028940 f   VideoCaptureImpl.obj
 0001:00027d70       ?WriteTraceString@COPOSVideoCapture@@QEAAXPEAXHHHPEB_WZZ 0000000180028d70 f   VideoCaptureImpl.obj
 0001:00028000       ?WriteTraceError@COPOSVideoCapture@@QEAAXPEB_WK@Z 0000000180029000 f   VideoCaptureImpl.obj
 0001:00028100       ?WriteTraceMethods@COPOSVideoCapture@@QEAAXPEAJH@Z 0000000180029100 f   VideoCaptureImpl.obj
 0001:00028180       ?GetOposProp@COPOSVideoCapture@@IEAAJPEBDJPEAJJ@Z 0000000180029180 f   VideoCaptureImpl.obj
 0001:000284a0       ?SetOposProp@COPOSVideoCapture@@IEAAJPEBDJJJ@Z 00000001800294a0 f   VideoCaptureImpl.obj
 0001:00028810       ?GetOposProp@COPOSVideoCapture@@IEAAJPEBDJPEAFJ@Z 0000000180029810 f   VideoCaptureImpl.obj
 0001:000288c0       ?SetOposProp@COPOSVideoCapture@@IEAAJPEBDJFJ@Z 00000001800298c0 f   VideoCaptureImpl.obj
 0001:00028930       ?GetOposProp@COPOSVideoCapture@@IEAAJPEBDJPEAPEA_WJ@Z 0000000180029930 f   VideoCaptureImpl.obj
 0001:00028c50       ?SetOposProp@COPOSVideoCapture@@IEAAJPEBDJPEA_WJ@Z 0000000180029c50 f   VideoCaptureImpl.obj
 0001:00029030       ?DoInvoke@COPOSVideoCapture@@IEAAJPEBDJPEAVOposVariant@@IHPEAJ_N@Z 000000018002a030 f   VideoCaptureImpl.obj
 0001:00029b90       ?SetCOFreezeEvents@COPOSVideoCapture@@IEAAXF@Z 000000018002ab90 f   VideoCaptureImpl.obj
 0001:00029d20       ?FreezeEvents@COPOSVideoCapture@@MEAAJH@Z 000000018002ad20 f   VideoCaptureImpl.obj
 0001:00029e40       ?OnDraw@COPOSVideoCapture@@MEAAJAEAUATL_DRAWINFO@@@Z 000000018002ae40 f   VideoCaptureImpl.obj
 0001:0002a010       ?SOProcessID@COPOSVideoCapture@@UEAAJPEAJ@Z 000000018002b010 f   VideoCaptureImpl.obj
 0001:0002a060       ?get_OpenResult@COPOSVideoCapture@@UEAAJPEAJ@Z 000000018002b060 f   VideoCaptureImpl.obj
 0001:0002a0b0       ?get_BinaryConversion@COPOSVideoCapture@@UEAAJPEAJ@Z 000000018002b0b0 f   VideoCaptureImpl.obj
 0001:0002a0f0       ?put_BinaryConversion@COPOSVideoCapture@@UEAAJJ@Z 000000018002b0f0 f   VideoCaptureImpl.obj
 0001:0002a140       ?get_CapPowerReporting@COPOSVideoCapture@@UEAAJPEAJ@Z 000000018002b140 f   VideoCaptureImpl.obj
 0001:0002a180       ?get_CheckHealthText@COPOSVideoCapture@@UEAAJPEAPEA_W@Z 000000018002b180 f   VideoCaptureImpl.obj
 0001:0002a1c0       ?get_Claimed@COPOSVideoCapture@@UEAAJPEAF@Z 000000018002b1c0 f   VideoCaptureImpl.obj
 0001:0002a200       ?get_DeviceEnabled@COPOSVideoCapture@@UEAAJPEAF@Z 000000018002b200 f   VideoCaptureImpl.obj
 0001:0002a240       ?put_DeviceEnabled@COPOSVideoCapture@@UEAAJF@Z 000000018002b240 f   VideoCaptureImpl.obj
 0001:0002a280       ?get_FreezeEvents@COPOSVideoCapture@@UEAAJPEAF@Z 000000018002b280 f   VideoCaptureImpl.obj
 0001:0002a2c0       ?put_FreezeEvents@COPOSVideoCapture@@UEAAJF@Z 000000018002b2c0 f   VideoCaptureImpl.obj
 0001:0002a380       ?get_PowerNotify@COPOSVideoCapture@@UEAAJPEAJ@Z 000000018002b380 f   VideoCaptureImpl.obj
 0001:0002a3c0       ?put_PowerNotify@COPOSVideoCapture@@UEAAJJ@Z 000000018002b3c0 f   VideoCaptureImpl.obj
 0001:0002a400       ?get_PowerState@COPOSVideoCapture@@UEAAJPEAJ@Z 000000018002b400 f   VideoCaptureImpl.obj
 0001:0002a440       ?get_ResultCode@COPOSVideoCapture@@UEAAJPEAJ@Z 000000018002b440 f   VideoCaptureImpl.obj
 0001:0002a4f0       ?get_ResultCodeExtended@COPOSVideoCapture@@UEAAJPEAJ@Z 000000018002b4f0 f   VideoCaptureImpl.obj
 0001:0002a530       ?get_State@COPOSVideoCapture@@UEAAJPEAJ@Z 000000018002b530 f   VideoCaptureImpl.obj
 0001:0002a5a0       ?get_ControlObjectDescription@COPOSVideoCapture@@UEAAJPEAPEA_W@Z 000000018002b5a0 f   VideoCaptureImpl.obj
 0001:0002a610       ?get_ControlObjectVersion@COPOSVideoCapture@@UEAAJPEAJ@Z 000000018002b610 f   VideoCaptureImpl.obj
 0001:0002a660       ?get_ServiceObjectDescription@COPOSVideoCapture@@UEAAJPEAPEA_W@Z 000000018002b660 f   VideoCaptureImpl.obj
 0001:0002a6a0       ?get_ServiceObjectVersion@COPOSVideoCapture@@UEAAJPEAJ@Z 000000018002b6a0 f   VideoCaptureImpl.obj
 0001:0002a6e0       ?get_DeviceDescription@COPOSVideoCapture@@UEAAJPEAPEA_W@Z 000000018002b6e0 f   VideoCaptureImpl.obj
 0001:0002a720       ?get_DeviceName@COPOSVideoCapture@@UEAAJPEAPEA_W@Z 000000018002b720 f   VideoCaptureImpl.obj
 0001:0002a760       ?get_CapStatisticsReporting@COPOSVideoCapture@@UEAAJPEAF@Z 000000018002b760 f   VideoCaptureImpl.obj
 0001:0002a7a0       ?get_CapUpdateStatistics@COPOSVideoCapture@@UEAAJPEAF@Z 000000018002b7a0 f   VideoCaptureImpl.obj
 0001:0002a7e0       ?get_CapCompareFirmwareVersion@COPOSVideoCapture@@UEAAJPEAF@Z 000000018002b7e0 f   VideoCaptureImpl.obj
 0001:0002a820       ?get_CapUpdateFirmware@COPOSVideoCapture@@UEAAJPEAF@Z 000000018002b820 f   VideoCaptureImpl.obj
 0001:0002a860       ?CheckHealth@COPOSVideoCapture@@UEAAJJPEAJ@Z 000000018002b860 f   VideoCaptureImpl.obj
 0001:0002a920       ?ClaimDevice@COPOSVideoCapture@@UEAAJJPEAJ@Z 000000018002b920 f   VideoCaptureImpl.obj
 0001:0002aa40       ?ClearInput@COPOSVideoCapture@@UEAAJPEAJ@Z 000000018002ba40 f   VideoCaptureImpl.obj
 0001:0002aaa0       ?Close@COPOSVideoCapture@@UEAAJPEAJ@Z 000000018002baa0 f   VideoCaptureImpl.obj
 0001:0002aba0       ?DirectIO@COPOSVideoCapture@@UEAAJJPEAJPEAPEA_W0@Z 000000018002bba0 f   VideoCaptureImpl.obj
 0001:0002ad20       ?Open@COPOSVideoCapture@@UEAAJPEA_WPEAJ@Z 000000018002bd20 f   VideoCaptureImpl.obj
 0001:0002c200       ?ReleaseDevice@COPOSVideoCapture@@UEAAJPEAJ@Z 000000018002d200 f   VideoCaptureImpl.obj
 0001:0002c2a0       ?ResetStatistics@COPOSVideoCapture@@UEAAJPEA_WPEAJ@Z 000000018002d2a0 f   VideoCaptureImpl.obj
 0001:0002c380       ?RetrieveStatistics@COPOSVideoCapture@@UEAAJPEAPEA_WPEAJ@Z 000000018002d380 f   VideoCaptureImpl.obj
 0001:0002c460       ?UpdateStatistics@COPOSVideoCapture@@UEAAJPEA_WPEAJ@Z 000000018002d460 f   VideoCaptureImpl.obj
 0001:0002c540       ?CompareFirmwareVersion@COPOSVideoCapture@@UEAAJPEA_WPEAJ1@Z 000000018002d540 f   VideoCaptureImpl.obj
 0001:0002c680       ?UpdateFirmware@COPOSVideoCapture@@UEAAJPEA_WPEAJ@Z 000000018002d680 f   VideoCaptureImpl.obj
 0001:0002c760       ?get_AutoExposure@COPOSVideoCapture@@UEAAJPEAF@Z 000000018002d760 f   VideoCaptureImpl.obj
 0001:0002c7a0       ?put_AutoExposure@COPOSVideoCapture@@UEAAJF@Z 000000018002d7a0 f   VideoCaptureImpl.obj
 0001:0002c7e0       ?get_AutoFocus@COPOSVideoCapture@@UEAAJPEAF@Z 000000018002d7e0 f   VideoCaptureImpl.obj
 0001:0002c820       ?put_AutoFocus@COPOSVideoCapture@@UEAAJF@Z 000000018002d820 f   VideoCaptureImpl.obj
 0001:0002c860       ?get_AutoGain@COPOSVideoCapture@@UEAAJPEAF@Z 000000018002d860 f   VideoCaptureImpl.obj
 0001:0002c8a0       ?put_AutoGain@COPOSVideoCapture@@UEAAJF@Z 000000018002d8a0 f   VideoCaptureImpl.obj
 0001:0002c8e0       ?get_AutoWhiteBalance@COPOSVideoCapture@@UEAAJPEAF@Z 000000018002d8e0 f   VideoCaptureImpl.obj
 0001:0002c920       ?put_AutoWhiteBalance@COPOSVideoCapture@@UEAAJF@Z 000000018002d920 f   VideoCaptureImpl.obj
 0001:0002c960       ?get_Brightness@COPOSVideoCapture@@UEAAJPEAJ@Z 000000018002d960 f   VideoCaptureImpl.obj
 0001:0002c9a0       ?put_Brightness@COPOSVideoCapture@@UEAAJJ@Z 000000018002d9a0 f   VideoCaptureImpl.obj
 0001:0002c9e0       ?get_CapAssociatedHardTotalsDevice@COPOSVideoCapture@@UEAAJPEAPEA_W@Z 000000018002d9e0 f   VideoCaptureImpl.obj
 0001:0002ca20       ?get_CapAutoExposure@COPOSVideoCapture@@UEAAJPEAF@Z 000000018002da20 f   VideoCaptureImpl.obj
 0001:0002ca60       ?get_CapAutoFocus@COPOSVideoCapture@@UEAAJPEAF@Z 000000018002da60 f   VideoCaptureImpl.obj
 0001:0002caa0       ?get_CapAutoGain@COPOSVideoCapture@@UEAAJPEAF@Z 000000018002daa0 f   VideoCaptureImpl.obj
 0001:0002cae0       ?get_CapAutoWhiteBalance@COPOSVideoCapture@@UEAAJPEAF@Z 000000018002dae0 f   VideoCaptureImpl.obj
 0001:0002cb20       ?get_CapBrightness@COPOSVideoCapture@@UEAAJPEAF@Z 000000018002db20 f   VideoCaptureImpl.obj
 0001:0002cb60       ?get_CapContrast@COPOSVideoCapture@@UEAAJPEAF@Z 000000018002db60 f   VideoCaptureImpl.obj
 0001:0002cba0       ?get_CapExposure@COPOSVideoCapture@@UEAAJPEAF@Z 000000018002dba0 f   VideoCaptureImpl.obj
 0001:0002cbe0       ?get_CapGain@COPOSVideoCapture@@UEAAJPEAF@Z 000000018002dbe0 f   VideoCaptureImpl.obj
 0001:0002cc20       ?get_CapHorizontalFlip@COPOSVideoCapture@@UEAAJPEAF@Z 000000018002dc20 f   VideoCaptureImpl.obj
 0001:0002cc60       ?get_CapHue@COPOSVideoCapture@@UEAAJPEAF@Z 000000018002dc60 f   VideoCaptureImpl.obj
 0001:0002cca0       ?get_CapPhoto@COPOSVideoCapture@@UEAAJPEAF@Z 000000018002dca0 f   VideoCaptureImpl.obj
 0001:0002cce0       ?get_CapPhotoColorSpace@COPOSVideoCapture@@UEAAJPEAF@Z 000000018002dce0 f   VideoCaptureImpl.obj
 0001:0002cd20       ?get_CapPhotoFrameRate@COPOSVideoCapture@@UEAAJPEAF@Z 000000018002dd20 f   VideoCaptureImpl.obj
 0001:0002cd60       ?get_CapPhotoResolution@COPOSVideoCapture@@UEAAJPEAF@Z 000000018002dd60 f   VideoCaptureImpl.obj
 0001:0002cda0       ?get_CapPhotoType@COPOSVideoCapture@@UEAAJPEAF@Z 000000018002dda0 f   VideoCaptureImpl.obj
 0001:0002cde0       ?get_CapSaturation@COPOSVideoCapture@@UEAAJPEAF@Z 000000018002dde0 f   VideoCaptureImpl.obj
 0001:0002ce20       ?get_CapStorage@COPOSVideoCapture@@UEAAJPEAJ@Z 000000018002de20 f   VideoCaptureImpl.obj
 0001:0002ce60       ?get_CapVerticalFlip@COPOSVideoCapture@@UEAAJPEAF@Z 000000018002de60 f   VideoCaptureImpl.obj
 0001:0002cea0       ?get_CapVideo@COPOSVideoCapture@@UEAAJPEAF@Z 000000018002dea0 f   VideoCaptureImpl.obj
 0001:0002cee0       ?get_CapVideoColorSpace@COPOSVideoCapture@@UEAAJPEAF@Z 000000018002dee0 f   VideoCaptureImpl.obj
 0001:0002cf20       ?get_CapVideoFrameRate@COPOSVideoCapture@@UEAAJPEAF@Z 000000018002df20 f   VideoCaptureImpl.obj
 0001:0002cf60       ?get_CapVideoResolution@COPOSVideoCapture@@UEAAJPEAF@Z 000000018002df60 f   VideoCaptureImpl.obj
 0001:0002cfa0       ?get_CapVideoType@COPOSVideoCapture@@UEAAJPEAF@Z 000000018002dfa0 f   VideoCaptureImpl.obj
 0001:0002cfe0       ?get_Contrast@COPOSVideoCapture@@UEAAJPEAJ@Z 000000018002dfe0 f   VideoCaptureImpl.obj
 0001:0002d020       ?put_Contrast@COPOSVideoCapture@@UEAAJJ@Z 000000018002e020 f   VideoCaptureImpl.obj
 0001:0002d060       ?get_Exposure@COPOSVideoCapture@@UEAAJPEAJ@Z 000000018002e060 f   VideoCaptureImpl.obj
 0001:0002d0a0       ?put_Exposure@COPOSVideoCapture@@UEAAJJ@Z 000000018002e0a0 f   VideoCaptureImpl.obj
 0001:0002d0e0       ?get_Gain@COPOSVideoCapture@@UEAAJPEAJ@Z 000000018002e0e0 f   VideoCaptureImpl.obj
 0001:0002d120       ?put_Gain@COPOSVideoCapture@@UEAAJJ@Z 000000018002e120 f   VideoCaptureImpl.obj
 0001:0002d160       ?get_HorizontalFlip@COPOSVideoCapture@@UEAAJPEAF@Z 000000018002e160 f   VideoCaptureImpl.obj
 0001:0002d1a0       ?put_HorizontalFlip@COPOSVideoCapture@@UEAAJF@Z 000000018002e1a0 f   VideoCaptureImpl.obj
 0001:0002d1e0       ?get_Hue@COPOSVideoCapture@@UEAAJPEAJ@Z 000000018002e1e0 f   VideoCaptureImpl.obj
 0001:0002d220       ?put_Hue@COPOSVideoCapture@@UEAAJJ@Z 000000018002e220 f   VideoCaptureImpl.obj
 0001:0002d260       ?get_PhotoColorSpace@COPOSVideoCapture@@UEAAJPEAPEA_W@Z 000000018002e260 f   VideoCaptureImpl.obj
 0001:0002d2a0       ?put_PhotoColorSpace@COPOSVideoCapture@@UEAAJPEA_W@Z 000000018002e2a0 f   VideoCaptureImpl.obj
 0001:0002d2e0       ?get_PhotoColorSpaceList@COPOSVideoCapture@@UEAAJPEAPEA_W@Z 000000018002e2e0 f   VideoCaptureImpl.obj
 0001:0002d320       ?get_PhotoFrameRate@COPOSVideoCapture@@UEAAJPEAJ@Z 000000018002e320 f   VideoCaptureImpl.obj
 0001:0002d360       ?put_PhotoFrameRate@COPOSVideoCapture@@UEAAJJ@Z 000000018002e360 f   VideoCaptureImpl.obj
 0001:0002d3a0       ?get_PhotoMaxFrameRate@COPOSVideoCapture@@UEAAJPEAJ@Z 000000018002e3a0 f   VideoCaptureImpl.obj
 0001:0002d3e0       ?get_PhotoResolution@COPOSVideoCapture@@UEAAJPEAPEA_W@Z 000000018002e3e0 f   VideoCaptureImpl.obj
 0001:0002d420       ?put_PhotoResolution@COPOSVideoCapture@@UEAAJPEA_W@Z 000000018002e420 f   VideoCaptureImpl.obj
 0001:0002d460       ?get_PhotoResolutionList@COPOSVideoCapture@@UEAAJPEAPEA_W@Z 000000018002e460 f   VideoCaptureImpl.obj
 0001:0002d4a0       ?get_PhotoType@COPOSVideoCapture@@UEAAJPEAPEA_W@Z 000000018002e4a0 f   VideoCaptureImpl.obj
 0001:0002d4e0       ?put_PhotoType@COPOSVideoCapture@@UEAAJPEA_W@Z 000000018002e4e0 f   VideoCaptureImpl.obj
 0001:0002d520       ?get_PhotoTypeList@COPOSVideoCapture@@UEAAJPEAPEA_W@Z 000000018002e520 f   VideoCaptureImpl.obj
 0001:0002d560       ?get_RemainingRecordingTimeInSec@COPOSVideoCapture@@UEAAJPEAJ@Z 000000018002e560 f   VideoCaptureImpl.obj
 0001:0002d5a0       ?get_Saturation@COPOSVideoCapture@@UEAAJPEAJ@Z 000000018002e5a0 f   VideoCaptureImpl.obj
 0001:0002d5e0       ?put_Saturation@COPOSVideoCapture@@UEAAJJ@Z 000000018002e5e0 f   VideoCaptureImpl.obj
 0001:0002d620       ?get_Storage@COPOSVideoCapture@@UEAAJPEAJ@Z 000000018002e620 f   VideoCaptureImpl.obj
 0001:0002d660       ?put_Storage@COPOSVideoCapture@@UEAAJJ@Z 000000018002e660 f   VideoCaptureImpl.obj
 0001:0002d6a0       ?get_VerticalFlip@COPOSVideoCapture@@UEAAJPEAF@Z 000000018002e6a0 f   VideoCaptureImpl.obj
 0001:0002d6e0       ?put_VerticalFlip@COPOSVideoCapture@@UEAAJF@Z 000000018002e6e0 f   VideoCaptureImpl.obj
 0001:0002d720       ?get_VideoCaptureMode@COPOSVideoCapture@@UEAAJPEAJ@Z 000000018002e720 f   VideoCaptureImpl.obj
 0001:0002d760       ?put_VideoCaptureMode@COPOSVideoCapture@@UEAAJJ@Z 000000018002e760 f   VideoCaptureImpl.obj
 0001:0002d7a0       ?get_VideoColorSpace@COPOSVideoCapture@@UEAAJPEAPEA_W@Z 000000018002e7a0 f   VideoCaptureImpl.obj
 0001:0002d7e0       ?put_VideoColorSpace@COPOSVideoCapture@@UEAAJPEA_W@Z 000000018002e7e0 f   VideoCaptureImpl.obj
 0001:0002d820       ?get_VideoColorSpaceList@COPOSVideoCapture@@UEAAJPEAPEA_W@Z 000000018002e820 f   VideoCaptureImpl.obj
 0001:0002d860       ?get_VideoFrameRate@COPOSVideoCapture@@UEAAJPEAJ@Z 000000018002e860 f   VideoCaptureImpl.obj
 0001:0002d8a0       ?put_VideoFrameRate@COPOSVideoCapture@@UEAAJJ@Z 000000018002e8a0 f   VideoCaptureImpl.obj
 0001:0002d8e0       ?get_VideoMaxFrameRate@COPOSVideoCapture@@UEAAJPEAJ@Z 000000018002e8e0 f   VideoCaptureImpl.obj
 0001:0002d920       ?get_VideoResolution@COPOSVideoCapture@@UEAAJPEAPEA_W@Z 000000018002e920 f   VideoCaptureImpl.obj
 0001:0002d960       ?put_VideoResolution@COPOSVideoCapture@@UEAAJPEA_W@Z 000000018002e960 f   VideoCaptureImpl.obj
 0001:0002d9a0       ?get_VideoResolutionList@COPOSVideoCapture@@UEAAJPEAPEA_W@Z 000000018002e9a0 f   VideoCaptureImpl.obj
 0001:0002d9e0       ?get_VideoType@COPOSVideoCapture@@UEAAJPEAPEA_W@Z 000000018002e9e0 f   VideoCaptureImpl.obj
 0001:0002da20       ?put_VideoType@COPOSVideoCapture@@UEAAJPEA_W@Z 000000018002ea20 f   VideoCaptureImpl.obj
 0001:0002da60       ?get_VideoTypeList@COPOSVideoCapture@@UEAAJPEAPEA_W@Z 000000018002ea60 f   VideoCaptureImpl.obj
 0001:0002daa0       ?StartVideo@COPOSVideoCapture@@UEAAJPEA_WFJPEAJ@Z 000000018002eaa0 f   VideoCaptureImpl.obj
 0001:0002dc10       ?StopVideo@COPOSVideoCapture@@UEAAJPEAJ@Z 000000018002ec10 f   VideoCaptureImpl.obj
 0001:0002dc70       ?TakePhoto@COPOSVideoCapture@@UEAAJPEA_WFJPEAJ@Z 000000018002ec70 f   VideoCaptureImpl.obj
 0001:0002dde0       ??0?$CComControl@VCOPOSVideoCapture@@V?$CWindowImpl@VCOPOSVideoCapture@@VCWindow@ATL@@V?$CWinTraits@$0FGAAAAAA@$0A@@3@@ATL@@@ATL@@QEAA@XZ 000000018002ede0 f i VideoCaptureImpl.obj
 0001:0002de20       ??0?$CComPtr@UIAdviseSink@@@ATL@@QEAA@XZ 000000018002ee20 f i VideoCaptureImpl.obj
 0001:0002de40       ??0?$CComPtr@UIDataAdviseHolder@@@ATL@@QEAA@XZ 000000018002ee40 f i VideoCaptureImpl.obj
 0001:0002de60       ??0?$CComPtr@UIOleAdviseHolder@@@ATL@@QEAA@XZ 000000018002ee60 f i VideoCaptureImpl.obj
 0001:0002de80       ??0?$CComPtr@UIOleClientSite@@@ATL@@QEAA@XZ 000000018002ee80 f i VideoCaptureImpl.obj
 0001:0002dea0       ??0?$CComPtr@UIOleInPlaceSiteWindowless@@@ATL@@QEAA@XZ 000000018002eea0 f i VideoCaptureImpl.obj
 0001:0002dec0       ??0?$CComPtrBase@UIAdviseSink@@@ATL@@IEAA@XZ 000000018002eec0 f i VideoCaptureImpl.obj
 0001:0002dee0       ??0?$CComPtrBase@UIDataAdviseHolder@@@ATL@@IEAA@XZ 000000018002eee0 f i VideoCaptureImpl.obj
 0001:0002df00       ??0?$CComPtrBase@UIOleAdviseHolder@@@ATL@@IEAA@XZ 000000018002ef00 f i VideoCaptureImpl.obj
 0001:0002df20       ??0?$CComPtrBase@UIOleClientSite@@@ATL@@IEAA@XZ 000000018002ef20 f i VideoCaptureImpl.obj
 0001:0002df40       ??0?$CComPtrBase@UIOleInPlaceSiteWindowless@@@ATL@@IEAA@XZ 000000018002ef40 f i VideoCaptureImpl.obj
 0001:0002df60       ??0?$CComQIPtr@UIDispatch@@$1?_GUID_00020400_0000_0000_c000_000000000046@@3U__s_GUID@@B@ATL@@QEAA@XZ 000000018002ef60 f i VideoCaptureImpl.obj
 0001:0002df80       ??0?$CProxy_IOPOSEvents@VCOPOSVideoCapture@@@@QEAA@PEAVCOPOSVideoCapture@@@Z 000000018002ef80 f i VideoCaptureImpl.obj
 0001:0002e000       ??0?$CWindowImpl@VCOPOSVideoCapture@@VCWindow@ATL@@V?$CWinTraits@$0FGAAAAAA@$0A@@3@@ATL@@QEAA@XZ 000000018002f000 f i VideoCaptureImpl.obj
 0001:0002e020       ??0?$CWindowImplBaseT@VCWindow@ATL@@V?$CWinTraits@$0FGAAAAAA@$0A@@2@@ATL@@QEAA@XZ 000000018002f020 f i VideoCaptureImpl.obj
 0001:0002e050       ??0?$CWindowImplRoot@VCWindow@ATL@@@ATL@@QEAA@XZ 000000018002f050 f i VideoCaptureImpl.obj
 0001:0002e0b0       ??0?$IConnectionPointContainerImpl@VCOPOSVideoCapture@@@ATL@@QEAA@XZ 000000018002f0b0 f i VideoCaptureImpl.obj
 0001:0002e0d0       ??0?$IConnectionPointImpl@VCOPOSVideoCapture@@$1?DIID__IOPOSVideoCaptureEvents@@3U_GUID@@BVCComDynamicUnkArray@ATL@@@ATL@@QEAA@XZ 000000018002f0d0 f i VideoCaptureImpl.obj
 0001:0002e100       ??0?$IConnectionPointImpl@VCOPOSVideoCapture@@$1?IID_IPropertyNotifySink@@3U_GUID@@BVCComDynamicUnkArray@ATL@@@ATL@@QEAA@XZ 000000018002f100 f i VideoCaptureImpl.obj
 0001:0002e130       ??0?$IDataObjectImpl@VCOPOSVideoCapture@@@ATL@@QEAA@XZ 000000018002f130 f i VideoCaptureImpl.obj
 0001:0002e150       ??0?$IDispatchImpl@UIOPOSVideoCapture@@$1?IID_IOPOSVideoCapture@@3U_GUID@@B$1?LIBID_OposVideoCapture_CCO@@3U3@B$00$0A@VCComTypeInfoHolder@ATL@@@ATL@@QEAA@XZ 000000018002f150 f i VideoCaptureImpl.obj
 0001:0002e170       ??0?$IObjectSafetyImpl@VCOPOSVideoCapture@@$02@ATL@@QEAA@XZ 000000018002f170 f i VideoCaptureImpl.obj
 0001:0002e1a0       ??0?$IOleControlImpl@VCOPOSVideoCapture@@@ATL@@QEAA@XZ 000000018002f1a0 f i VideoCaptureImpl.obj
 0001:0002e1c0       ??0?$IOleInPlaceActiveObjectImpl@VCOPOSVideoCapture@@@ATL@@QEAA@XZ 000000018002f1c0 f i VideoCaptureImpl.obj
 0001:0002e1e0       ??0?$IOleInPlaceObjectWindowlessImpl@VCOPOSVideoCapture@@@ATL@@QEAA@XZ 000000018002f1e0 f i VideoCaptureImpl.obj
 0001:0002e200       ??0?$IOleObjectImpl@VCOPOSVideoCapture@@@ATL@@QEAA@XZ 000000018002f200 f i VideoCaptureImpl.obj
 0001:0002e220       ??0?$IPersistStorageImpl@VCOPOSVideoCapture@@@ATL@@QEAA@XZ 000000018002f220 f i VideoCaptureImpl.obj
 0001:0002e240       ??0?$IPersistStreamInitImpl@VCOPOSVideoCapture@@@ATL@@QEAA@XZ 000000018002f240 f i VideoCaptureImpl.obj
 0001:0002e260       ??0?$IPropertyNotifySinkCP@VCOPOSVideoCapture@@VCComDynamicUnkArray@ATL@@@ATL@@QEAA@XZ 000000018002f260 f i VideoCaptureImpl.obj
 0001:0002e280       ??0?$IProvideClassInfo2Impl@$1?CLSID_OPOSVideoCapture@@3U_GUID@@B$1?DIID__IOPOSVideoCaptureEvents@@3U2@B$1?LIBID_OposVideoCapture_CCO@@3U2@B$00$0A@VCComTypeInfoHolder@ATL@@@ATL@@QEAA@XZ 000000018002f280 f i VideoCaptureImpl.obj
 0001:0002e2a0       ??0?$IQuickActivateImpl@VCOPOSVideoCapture@@@ATL@@QEAA@XZ 000000018002f2a0 f i VideoCaptureImpl.obj
 0001:0002e2c0       ??0?$ISpecifyPropertyPagesImpl@VCOPOSVideoCapture@@@ATL@@QEAA@XZ 000000018002f2c0 f i VideoCaptureImpl.obj
 0001:0002e2e0       ??0?$IViewObjectExImpl@VCOPOSVideoCapture@@@ATL@@QEAA@XZ 000000018002f2e0 f i VideoCaptureImpl.obj
 0001:0002e300       ??0?$_ICPLocator@$1?DIID__IOPOSVideoCaptureEvents@@3U_GUID@@B@ATL@@QEAA@XZ 000000018002f300 f i VideoCaptureImpl.obj
 0001:0002e310       ??0?$_ICPLocator@$1?IID_IPropertyNotifySink@@3U_GUID@@B@ATL@@QEAA@XZ 000000018002f310 f i VideoCaptureImpl.obj
 0001:0002e320       ??0CComControlBase@ATL@@QEAA@AEAPEAUHWND__@@@Z 000000018002f320 f i VideoCaptureImpl.obj
 0001:0002e530       ??0CComDynamicUnkArray@ATL@@QEAA@XZ 000000018002f530 f i VideoCaptureImpl.obj
 0001:0002e560       ??0CDynamicStdCallThunk2@ATL@@QEAA@XZ 000000018002f560 f i VideoCaptureImpl.obj
 0001:0002e580       ??0CMessageMap@ATL@@QEAA@XZ 000000018002f580 f i VideoCaptureImpl.obj
 0001:0002e590       ??0CWindow@ATL@@QEAA@PEAUHWND__@@@Z 000000018002f590 f i VideoCaptureImpl.obj
 0001:0002e5b0       ??0CWndProcThunk@ATL@@QEAA@XZ 000000018002f5b0 f i VideoCaptureImpl.obj
 0001:0002e5e0       ??0IConnectionPointContainer@@QEAA@XZ 000000018002f5e0 f i VideoCaptureImpl.obj
 0001:0002e600       ??0IDataObject@@QEAA@XZ    000000018002f600 f i VideoCaptureImpl.obj
 0001:0002e620       ??0IDispatch@@QEAA@XZ      000000018002f620 f i VideoCaptureImpl.obj
 0001:0002e640       ??0IOPOSVideoCapture@@QEAA@XZ 000000018002f640 f i VideoCaptureImpl.obj
 0001:0002e660       ??0IOPOSVideoCapture_1_16@@QEAA@XZ 000000018002f660 f i VideoCaptureImpl.obj
 0001:0002e680       ??0IObjectSafety@@QEAA@XZ  000000018002f680 f i VideoCaptureImpl.obj
 0001:0002e6a0       ??0IOleControl@@QEAA@XZ    000000018002f6a0 f i VideoCaptureImpl.obj
 0001:0002e6c0       ??0IOleInPlaceActiveObject@@QEAA@XZ 000000018002f6c0 f i VideoCaptureImpl.obj
 0001:0002e6e0       ??0IOleInPlaceObject@@QEAA@XZ 000000018002f6e0 f i VideoCaptureImpl.obj
 0001:0002e700       ??0IOleInPlaceObjectWindowless@@QEAA@XZ 000000018002f700 f i VideoCaptureImpl.obj
 0001:0002e720       ??0IOleObject@@QEAA@XZ     000000018002f720 f i VideoCaptureImpl.obj
 0001:0002e740       ??0IOleWindow@@QEAA@XZ     000000018002f740 f i VideoCaptureImpl.obj
 0001:0002e760       ??0IPersist@@QEAA@XZ       000000018002f760 f i VideoCaptureImpl.obj
 0001:0002e780       ??0IPersistStorage@@QEAA@XZ 000000018002f780 f i VideoCaptureImpl.obj
 0001:0002e7a0       ??0IPersistStreamInit@@QEAA@XZ 000000018002f7a0 f i VideoCaptureImpl.obj
 0001:0002e7c0       ??0IProvideClassInfo2@@QEAA@XZ 000000018002f7c0 f i VideoCaptureImpl.obj
 0001:0002e7e0       ??0IProvideClassInfo@@QEAA@XZ 000000018002f7e0 f i VideoCaptureImpl.obj
 0001:0002e800       ??0IQuickActivate@@QEAA@XZ 000000018002f800 f i VideoCaptureImpl.obj
 0001:0002e820       ??0ISpecifyPropertyPages@@QEAA@XZ 000000018002f820 f i VideoCaptureImpl.obj
 0001:0002e840       ??0IViewObject2@@QEAA@XZ   000000018002f840 f i VideoCaptureImpl.obj
 0001:0002e860       ??0IViewObject@@QEAA@XZ    000000018002f860 f i VideoCaptureImpl.obj
 0001:0002e880       ??0IViewObjectEx@@QEAA@XZ  000000018002f880 f i VideoCaptureImpl.obj
 0001:0002e8a0       ??0OposVariantResult@@QEAA@XZ 000000018002f8a0 f i VideoCaptureImpl.obj
 0001:0002e8c0       ??0_CW@@QEAA@PEBD@Z        000000018002f8c0 f i VideoCaptureImpl.obj
 0001:0002e910       ??0_CW@@QEAA@PEB_W@Z       000000018002f910 f i VideoCaptureImpl.obj
 0001:0002e960       ??0_CWNCC@@QEAA@PEBD@Z     000000018002f960 f i VideoCaptureImpl.obj
 0001:0002e990       ??1?$CComControl@VCOPOSVideoCapture@@V?$CWindowImpl@VCOPOSVideoCapture@@VCWindow@ATL@@V?$CWinTraits@$0FGAAAAAA@$0A@@3@@ATL@@@ATL@@UEAA@XZ 000000018002f990 f i VideoCaptureImpl.obj
 0001:0002e9c0       ??1?$CComPtr@UIDataAdviseHolder@@@ATL@@QEAA@XZ 000000018002f9c0 f i VideoCaptureImpl.obj
 0001:0002e9e0       ??1?$CComPtr@UIOleAdviseHolder@@@ATL@@QEAA@XZ 000000018002f9e0 f i VideoCaptureImpl.obj
 0001:0002ea00       ??1?$CComPtr@UIOleInPlaceSiteWindowless@@@ATL@@QEAA@XZ 000000018002fa00 f i VideoCaptureImpl.obj
 0001:0002ea20       ??1?$CComPtrBase@UIDataAdviseHolder@@@ATL@@QEAA@XZ 000000018002fa20 f i VideoCaptureImpl.obj
 0001:0002ea60       ??1?$CComPtrBase@UIOleAdviseHolder@@@ATL@@QEAA@XZ 000000018002fa60 f i VideoCaptureImpl.obj
 0001:0002eaa0       ??1?$CComPtrBase@UIOleInPlaceSiteWindowless@@@ATL@@QEAA@XZ 000000018002faa0 f i VideoCaptureImpl.obj
 0001:0002eae0       ??1?$CComQIPtr@UIDispatch@@$1?_GUID_00020400_0000_0000_c000_000000000046@@3U__s_GUID@@B@ATL@@QEAA@XZ 000000018002fae0 f i VideoCaptureImpl.obj
 0001:0002eb00       ??1?$CProxy_IOPOSEvents@VCOPOSVideoCapture@@@@QEAA@XZ 000000018002fb00 f i VideoCaptureImpl.obj
 0001:0002eb20       ??1?$CWindowImpl@VCOPOSVideoCapture@@VCWindow@ATL@@V?$CWinTraits@$0FGAAAAAA@$0A@@3@@ATL@@UEAA@XZ 000000018002fb20 f i VideoCaptureImpl.obj
 0001:0002eb40       ??1?$CWindowImplBaseT@VCWindow@ATL@@V?$CWinTraits@$0FGAAAAAA@$0A@@2@@ATL@@UEAA@XZ 000000018002fb40 f i VideoCaptureImpl.obj
 0001:0002eb60       ??1?$CWindowImplRoot@VCWindow@ATL@@@ATL@@UEAA@XZ 000000018002fb60 f i VideoCaptureImpl.obj
 0001:0002ec10       ??1?$IConnectionPointImpl@VCOPOSVideoCapture@@$1?DIID__IOPOSVideoCaptureEvents@@3U_GUID@@BVCComDynamicUnkArray@ATL@@@ATL@@QEAA@XZ 000000018002fc10 f i VideoCaptureImpl.obj
 0001:0002ec90       ??1?$IConnectionPointImpl@VCOPOSVideoCapture@@$1?IID_IPropertyNotifySink@@3U_GUID@@BVCComDynamicUnkArray@ATL@@@ATL@@QEAA@XZ 000000018002fc90 f i VideoCaptureImpl.obj
 0001:0002ed10       ??1?$IPropertyNotifySinkCP@VCOPOSVideoCapture@@VCComDynamicUnkArray@ATL@@@ATL@@QEAA@XZ 000000018002fd10 f i VideoCaptureImpl.obj
 0001:0002ed30       ??1CComControlBase@ATL@@UEAA@XZ 000000018002fd30 f i VideoCaptureImpl.obj
 0001:0002ee10       ??1CComDynamicUnkArray@ATL@@QEAA@XZ 000000018002fe10 f i VideoCaptureImpl.obj
 0001:0002ee40       ??1CDynamicStdCallThunk2@ATL@@QEAA@XZ 000000018002fe40 f i VideoCaptureImpl.obj
 0001:0002ee70       ??1CWndProcThunk@ATL@@QEAA@XZ 000000018002fe70 f i VideoCaptureImpl.obj
 0001:0002eea0       ??1OposVariantResult@@QEAA@XZ 000000018002fea0 f i VideoCaptureImpl.obj
 0001:0002eed0       ??1_CW@@QEAA@XZ            000000018002fed0 f i VideoCaptureImpl.obj
 0001:0002ef30       ??1_CWNCC@@QEAA@XZ         000000018002ff30 f i VideoCaptureImpl.obj
 0001:0002ef50       ??B_CW@@QEAAPEB_WXZ        000000018002ff50 f i VideoCaptureImpl.obj
 0001:0002ef80       ??B_CWNCC@@QEAAPEA_WXZ     000000018002ff80 f i VideoCaptureImpl.obj
 0001:0002efa0       ??_EOposVariant@@QEAAPEAXI@Z 000000018002ffa0 f i VideoCaptureImpl.obj
 0001:0002f040       ?EventClaim@COPOSVideoCapture@@IEAAXXZ 0000000180030040 f i VideoCaptureImpl.obj
 0001:0002f070       ?EventClose@COPOSVideoCapture@@IEAAXXZ 0000000180030070 f i VideoCaptureImpl.obj
 0001:0002f110       ?EventInit@COPOSVideoCapture@@IEAAJXZ 0000000180030110 f i VideoCaptureImpl.obj
 0001:0002f3c0       ?EventOpen@COPOSVideoCapture@@IEAAXXZ 00000001800303c0 f i VideoCaptureImpl.obj
 0001:0002f400       ?EventPreCloseRelease@COPOSVideoCapture@@IEAAXXZ 0000000180030400 f i VideoCaptureImpl.obj
 0001:0002f470       ?EventUninit@COPOSVideoCapture@@IEAAXXZ 0000000180030470 f i VideoCaptureImpl.obj
 0001:0002f590       ?EventWindowProc@COPOSVideoCapture@@IEAA_JI_K_J@Z 0000000180030590 f i VideoCaptureImpl.obj
 0001:0002f700       ?FireEventCleanup@COPOSVideoCapture@@IEAAXXZ 0000000180030700 f i VideoCaptureImpl.obj
 0001:0002f740       ?FireEventSetup@COPOSVideoCapture@@IEAA_NXZ 0000000180030740 f i VideoCaptureImpl.obj
 0001:0002f7b0       ?GetModuleInstance@CComModule@ATL@@QEAAPEAUHINSTANCE__@@XZ 00000001800307b0 f i VideoCaptureImpl.obj
 0001:0002f7c0       ?SetRC@COPOSVideoCapture@@IEAAJJ@Z 00000001800307c0 f i VideoCaptureImpl.obj
 0001:0002f7e0       ?s_EventWindowProc@COPOSVideoCapture@@KA_JPEAUHWND__@@I_K_J@Z 00000001800307e0 f i VideoCaptureImpl.obj
 0001:0002f880       _snwprintf                 0000000180030880 f i VideoCaptureImpl.obj
 0001:0002f910       _vfwprintf_l               0000000180030910 f i VideoCaptureImpl.obj
 0001:0002f960       _vsnwprintf                0000000180030960 f i VideoCaptureImpl.obj
 0001:0002f9a0       _vsnwprintf_l              00000001800309a0 f i VideoCaptureImpl.obj
 0001:0002fa20       vfwprintf                  0000000180030a20 f i VideoCaptureImpl.obj
 0001:0002fa51       DebugBreak                 0000000180030a51 f   kernel32:KERNEL32.dll
 0001:0002fa57       Sleep                      0000000180030a57 f   kernel32:KERNEL32.dll
 0001:0002fa5d       GetCurrentProcess          0000000180030a5d f   kernel32:KERNEL32.dll
 0001:0002fa63       TerminateProcess           0000000180030a63 f   kernel32:KERNEL32.dll
 0001:0002fa69       MultiByteToWideChar        0000000180030a69 f   kernel32:KERNEL32.dll
 0001:0002fa6f       WideCharToMultiByte        0000000180030a6f f   kernel32:KERNEL32.dll
 0001:0002fa75       DecodePointer              0000000180030a75 f   kernel32:KERNEL32.dll
 0001:0002fa7b       RaiseException             0000000180030a7b f   kernel32:KERNEL32.dll
 0001:0002fa81       GetLastError               0000000180030a81 f   kernel32:KERNEL32.dll
 0001:0002fa87       SetLastError               0000000180030a87 f   kernel32:KERNEL32.dll
 0001:0002fa8d       InitializeCriticalSectionEx 0000000180030a8d f   kernel32:KERNEL32.dll
 0001:0002fa93       DeleteCriticalSection      0000000180030a93 f   kernel32:KERNEL32.dll
 0001:0002fa99       EncodePointer              0000000180030a99 f   kernel32:KERNEL32.dll
 0001:0002fa9f       EnterCriticalSection       0000000180030a9f f   kernel32:KERNEL32.dll
 0001:0002faa5       LeaveCriticalSection       0000000180030aa5 f   kernel32:KERNEL32.dll
 0001:0002faab       ResetEvent                 0000000180030aab f   kernel32:KERNEL32.dll
 0001:0002fab1       ReleaseMutex               0000000180030ab1 f   kernel32:KERNEL32.dll
 0001:0002fab7       WaitForSingleObject        0000000180030ab7 f   kernel32:KERNEL32.dll
 0001:0002fabd       GetCurrentThreadId         0000000180030abd f   kernel32:KERNEL32.dll
 0001:0002fac3       DisableThreadLibraryCalls  0000000180030ac3 f   kernel32:KERNEL32.dll
 0001:0002fac9       FreeLibrary                0000000180030ac9 f   kernel32:KERNEL32.dll
 0001:0002facf       GetModuleFileNameW         0000000180030acf f   kernel32:KERNEL32.dll
 0001:0002fad5       GetModuleHandleW           0000000180030ad5 f   kernel32:KERNEL32.dll
 0001:0002fadb       GetProcAddress             0000000180030adb f   kernel32:KERNEL32.dll
 0001:0002fae1       LoadLibraryExW             0000000180030ae1 f   kernel32:KERNEL32.dll
 0001:0002fae7       LoadResource               0000000180030ae7 f   kernel32:KERNEL32.dll
 0001:0002faed       SizeofResource             0000000180030aed f   kernel32:KERNEL32.dll
 0001:0002faf3       FindResourceW              0000000180030af3 f   kernel32:KERNEL32.dll
 0001:0002faf9       GlobalAlloc                0000000180030af9 f   kernel32:KERNEL32.dll
 0001:0002faff       GlobalUnlock               0000000180030aff f   kernel32:KERNEL32.dll
 0001:0002fb05       GlobalLock                 0000000180030b05 f   kernel32:KERNEL32.dll
 0001:0002fb0b       MulDiv                     0000000180030b0b f   kernel32:KERNEL32.dll
 0001:0002fb11       lstrcmpiW                  0000000180030b11 f   kernel32:KERNEL32.dll
 0001:0002fb17       DeleteFileW                0000000180030b17 f   kernel32:KERNEL32.dll
 0001:0002fb1d       CloseHandle                0000000180030b1d f   kernel32:KERNEL32.dll
 0001:0002fb23       SetEvent                   0000000180030b23 f   kernel32:KERNEL32.dll
 0001:0002fb29       CreateMutexW               0000000180030b29 f   kernel32:KERNEL32.dll
 0001:0002fb2f       CreateEventW               0000000180030b2f f   kernel32:KERNEL32.dll
 0001:0002fb35       GetCurrentProcessId        0000000180030b35 f   kernel32:KERNEL32.dll
 0001:0002fb3b       LocalFree                  0000000180030b3b f   kernel32:KERNEL32.dll
 0001:0002fb41       FormatMessageW             0000000180030b41 f   kernel32:KERNEL32.dll
 0001:0002fb47       GetActiveWindow            0000000180030b47 f   user32:USER32.dll
 0001:0002fb4d       MessageBoxW                0000000180030b4d f   user32:USER32.dll
 0001:0002fb53       UnregisterClassW           0000000180030b53 f   user32:USER32.dll
 0001:0002fb59       PostMessageW               0000000180030b59 f   user32:USER32.dll
 0001:0002fb5f       DefWindowProcW             0000000180030b5f f   user32:USER32.dll
 0001:0002fb65       CallWindowProcW            0000000180030b65 f   user32:USER32.dll
 0001:0002fb6b       RegisterClassExW           0000000180030b6b f   user32:USER32.dll
 0001:0002fb71       GetClassInfoExW            0000000180030b71 f   user32:USER32.dll
 0001:0002fb77       CreateWindowExW            0000000180030b77 f   user32:USER32.dll
 0001:0002fb7d       IsWindow                   0000000180030b7d f   user32:USER32.dll
 0001:0002fb83       IsChild                    0000000180030b83 f   user32:USER32.dll
 0001:0002fb89       DestroyWindow              0000000180030b89 f   user32:USER32.dll
 0001:0002fb8f       ShowWindow                 0000000180030b8f f   user32:USER32.dll
 0001:0002fb95       SetWindowPos               0000000180030b95 f   user32:USER32.dll
 0001:0002fb9b       CharNextW                  0000000180030b9b f   user32:USER32.dll
 0001:0002fba1       SetFocus                   0000000180030ba1 f   user32:USER32.dll
 0001:0002fba7       GetFocus                   0000000180030ba7 f   user32:USER32.dll
 0001:0002fbad       GetKeyState                0000000180030bad f   user32:USER32.dll
 0001:0002fbb3       GetDC                      0000000180030bb3 f   user32:USER32.dll
 0001:0002fbb9       ReleaseDC                  0000000180030bb9 f   user32:USER32.dll
 0001:0002fbbf       BeginPaint                 0000000180030bbf f   user32:USER32.dll
 0001:0002fbc5       EndPaint                   0000000180030bc5 f   user32:USER32.dll
 0001:0002fbcb       SetWindowRgn               0000000180030bcb f   user32:USER32.dll
 0001:0002fbd1       InvalidateRect             0000000180030bd1 f   user32:USER32.dll
 0001:0002fbd7       GetClientRect              0000000180030bd7 f   user32:USER32.dll
 0001:0002fbdd       IntersectRect              0000000180030bdd f   user32:USER32.dll
 0001:0002fbe3       UnionRect                  0000000180030be3 f   user32:USER32.dll
 0001:0002fbe9       OffsetRect                 0000000180030be9 f   user32:USER32.dll
 0001:0002fbef       EqualRect                  0000000180030bef f   user32:USER32.dll
 0001:0002fbf5       PtInRect                   0000000180030bf5 f   user32:USER32.dll
 0001:0002fbfb       GetWindowLongPtrW          0000000180030bfb f   user32:USER32.dll
 0001:0002fc01       SetWindowLongPtrW          0000000180030c01 f   user32:USER32.dll
 0001:0002fc07       GetParent                  0000000180030c07 f   user32:USER32.dll
 0001:0002fc0d       LoadCursorW                0000000180030c0d f   user32:USER32.dll
 0001:0002fc13       PeekMessageW               0000000180030c13 f   user32:USER32.dll
 0001:0002fc19       RegisterClassW             0000000180030c19 f   user32:USER32.dll
 0001:0002fc1f       LoadBitmapW                0000000180030c1f f   user32:USER32.dll
 0001:0002fc25       CloseMetaFile              0000000180030c25 f   gdi32:GDI32.dll
 0001:0002fc2b       CreateDCW                  0000000180030c2b f   gdi32:GDI32.dll
 0001:0002fc31       CreateMetaFileW            0000000180030c31 f   gdi32:GDI32.dll
 0001:0002fc37       CreateRectRgnIndirect      0000000180030c37 f   gdi32:GDI32.dll
 0001:0002fc3d       DeleteDC                   0000000180030c3d f   gdi32:GDI32.dll
 0001:0002fc43       DeleteMetaFile             0000000180030c43 f   gdi32:GDI32.dll
 0001:0002fc49       GetDeviceCaps              0000000180030c49 f   gdi32:GDI32.dll
 0001:0002fc4f       RestoreDC                  0000000180030c4f f   gdi32:GDI32.dll
 0001:0002fc55       SaveDC                     0000000180030c55 f   gdi32:GDI32.dll
 0001:0002fc5b       SetMapMode                 0000000180030c5b f   gdi32:GDI32.dll
 0001:0002fc61       LPtoDP                     0000000180030c61 f   gdi32:GDI32.dll
 0001:0002fc67       SetViewportOrgEx           0000000180030c67 f   gdi32:GDI32.dll
 0001:0002fc6d       SetWindowExtEx             0000000180030c6d f   gdi32:GDI32.dll
 0001:0002fc73       SetWindowOrgEx             0000000180030c73 f   gdi32:GDI32.dll
 0001:0002fc79       BitBlt                     0000000180030c79 f   gdi32:GDI32.dll
 0001:0002fc7f       CreateCompatibleDC         0000000180030c7f f   gdi32:GDI32.dll
 0001:0002fc85       DeleteObject               0000000180030c85 f   gdi32:GDI32.dll
 0001:0002fc8b       SelectObject               0000000180030c8b f   gdi32:GDI32.dll
 0001:0002fc91       GetObjectW                 0000000180030c91 f   gdi32:GDI32.dll
 0001:0002fc97       RegCloseKey                0000000180030c97 f   advapi32:ADVAPI32.dll
 0001:0002fc9d       RegCreateKeyExW            0000000180030c9d f   advapi32:ADVAPI32.dll
 0001:0002fca3       RegDeleteKeyW              0000000180030ca3 f   advapi32:ADVAPI32.dll
 0001:0002fca9       RegDeleteValueW            0000000180030ca9 f   advapi32:ADVAPI32.dll
 0001:0002fcaf       RegEnumKeyExW              0000000180030caf f   advapi32:ADVAPI32.dll
 0001:0002fcb5       RegOpenKeyExW              0000000180030cb5 f   advapi32:ADVAPI32.dll
 0001:0002fcbb       RegQueryInfoKeyW           0000000180030cbb f   advapi32:ADVAPI32.dll
 0001:0002fcc1       RegSetValueExW             0000000180030cc1 f   advapi32:ADVAPI32.dll
 0001:0002fcc7       RegQueryValueExW           0000000180030cc7 f   advapi32:ADVAPI32.dll
 0001:0002fccd       CoCreateInstance           0000000180030ccd f   ole32:ole32.dll
 0001:0002fcd3       StringFromGUID2            0000000180030cd3 f   ole32:ole32.dll
 0001:0002fcd9       CoTaskMemAlloc             0000000180030cd9 f   ole32:ole32.dll
 0001:0002fcdf       CoTaskMemRealloc           0000000180030cdf f   ole32:ole32.dll
 0001:0002fce5       CoTaskMemFree              0000000180030ce5 f   ole32:ole32.dll
 0001:0002fceb       ReadClassStm               0000000180030ceb f   ole32:ole32.dll
 0001:0002fcf1       WriteClassStm              0000000180030cf1 f   ole32:ole32.dll
 0001:0002fcf7       CreateDataAdviseHolder     0000000180030cf7 f   ole32:ole32.dll
 0001:0002fcfd       OleSaveToStream            0000000180030cfd f   ole32:ole32.dll
 0001:0002fd03       CreateOleAdviseHolder      0000000180030d03 f   ole32:ole32.dll
 0001:0002fd09       OleRegGetUserType          0000000180030d09 f   ole32:ole32.dll
 0001:0002fd0f       OleRegGetMiscStatus        0000000180030d0f f   ole32:ole32.dll
 0001:0002fd15       OleRegEnumVerbs            0000000180030d15 f   ole32:ole32.dll
 0001:0002fd1b       CLSIDFromProgID            0000000180030d1b f   ole32:ole32.dll
 0001:0002fd21       SysAllocString             0000000180030d21 f   oleaut32:OLEAUT32.dll
 0001:0002fd27       SysAllocStringLen          0000000180030d27 f   oleaut32:OLEAUT32.dll
 0001:0002fd2d       SysFreeString              0000000180030d2d f   oleaut32:OLEAUT32.dll
 0001:0002fd33       SysStringLen               0000000180030d33 f   oleaut32:OLEAUT32.dll
 0001:0002fd39       VariantClear               0000000180030d39 f   oleaut32:OLEAUT32.dll
 0001:0002fd3f       VariantCopyInd             0000000180030d3f f   oleaut32:OLEAUT32.dll
 0001:0002fd45       VariantChangeType          0000000180030d45 f   oleaut32:OLEAUT32.dll
 0001:0002fd4b       SysStringByteLen           0000000180030d4b f   oleaut32:OLEAUT32.dll
 0001:0002fd51       SysAllocStringByteLen      0000000180030d51 f   oleaut32:OLEAUT32.dll
 0001:0002fd57       VariantInit                0000000180030d57 f   oleaut32:OLEAUT32.dll
 0001:0002fd5d       VarUI4FromStr              0000000180030d5d f   oleaut32:OLEAUT32.dll
 0001:0002fd63       LoadTypeLib                0000000180030d63 f   oleaut32:OLEAUT32.dll
 0001:0002fd69       LoadRegTypeLib             0000000180030d69 f   oleaut32:OLEAUT32.dll
 0001:0002fd6f       RegisterTypeLib            0000000180030d6f f   oleaut32:OLEAUT32.dll
 0001:0002fd75       UnRegisterTypeLib          0000000180030d75 f   oleaut32:OLEAUT32.dll
 0001:0002fd7b       OleCreatePropertyFrame     0000000180030d7b f   oleaut32:OLEAUT32.dll
 0001:0002fd90       _RTC_AllocaHelper          0000000180030d90 f   LIBCMTD:stack.obj
 0001:0002fdd0       _RTC_CheckStackVars        0000000180030dd0 f   LIBCMTD:stack.obj
 0001:0002fe60       _RTC_CheckStackVars2       0000000180030e60 f   LIBCMTD:stack.obj
 0001:0002ff70       _CRT_RTC_INIT              0000000180030f70 f   LIBCMTD:init.obj
 0001:0002ff80       _CRT_RTC_INITW             0000000180030f80 f   LIBCMTD:init.obj
 0001:0002ff90       _RTC_InitBase              0000000180030f90 f   LIBCMTD:init.obj
 0001:0002ffd0       _RTC_Shutdown              0000000180030fd0 f   LIBCMTD:init.obj
 0001:00030000       __GSHandlerCheck           0000000180031000 f   LIBCMTD:gshandler.obj
 0001:00030040       __GSHandlerCheckCommon     0000000180031040 f   LIBCMTD:gshandler.obj
 0001:00030150       __security_check_cookie    0000000180031150 f   LIBCMTD:amdsecgs.obj
 0001:00030170       ??_U@YAPEAX_K@Z            0000000180031170 f   LIBCMTD:new_array.obj
 0001:00030190       ??3@YAXPEAX_K@Z            0000000180031190 f   LIBCMTD:delete_scalar_size.obj
 0001:000301b0       ??_V@YAXPEAX@Z             00000001800311b0 f   LIBCMTD:delete_array.obj
 0001:000301d0       ??_V@YAXPEAX_K@Z           00000001800311d0 f   LIBCMTD:delete_array_size.obj
 0001:000301f0       ?configure_argv@__scrt_narrow_argv_policy@@SAHXZ 00000001800311f0 f i LIBCMTD:utility.obj
 0001:000302e0       ?initialize_environment@__scrt_narrow_environment_policy@@SAHXZ 00000001800312e0 f i LIBCMTD:utility.obj
 0001:00030380       NtCurrentTeb               0000000180031380 f i LIBCMTD:utility.obj
 0001:00030390       __scrt_acquire_startup_lock 0000000180031390 f   LIBCMTD:utility.obj
 0001:00030400       __scrt_dllmain_after_initialize_c 0000000180031400 f   LIBCMTD:utility.obj
 0001:00030430       __scrt_dllmain_before_initialize_c 0000000180031430 f   LIBCMTD:utility.obj
 0001:00030450       __scrt_dllmain_crt_thread_attach 0000000180031450 f   LIBCMTD:utility.obj
 0001:00030480       __scrt_dllmain_crt_thread_detach 0000000180031480 f   LIBCMTD:utility.obj
 0001:000304a0       __scrt_dllmain_exception_filter 00000001800314a0 f   LIBCMTD:utility.obj
 0001:00030510       __scrt_dllmain_uninitialize_c 0000000180031510 f   LIBCMTD:utility.obj
 0001:00030540       __scrt_dllmain_uninitialize_critical 0000000180031540 f   LIBCMTD:utility.obj
 0001:00030560       __scrt_initialize_crt      0000000180031560 f   LIBCMTD:utility.obj
 0001:000305b0       __scrt_initialize_onexit_tables 00000001800315b0 f   LIBCMTD:utility.obj
 0001:000306c0       __scrt_is_nonwritable_in_current_image 00000001800316c0 f   LIBCMTD:utility.obj
 0001:00030750       __scrt_release_startup_lock 0000000180031750 f   LIBCMTD:utility.obj
 0001:00030780       __scrt_uninitialize_crt    0000000180031780 f   LIBCMTD:utility.obj
 0001:000307c0       _onexit                    00000001800317c0 f   LIBCMTD:utility.obj
 0001:00030840       at_quick_exit              0000000180031840 f   LIBCMTD:utility.obj
 0001:00030890       atexit                     0000000180031890 f   LIBCMTD:utility.obj
 0001:000308d0       ??3@YAXPEAX@Z              00000001800318d0 f   LIBCMTD:delete_scalar.obj
 0001:000308f0       __raise_securityfailure    00000001800318f0 f   LIBCMTD:gs_report.obj
 0001:00030930       __report_gsfailure         0000000180031930 f   LIBCMTD:gs_report.obj
 0001:00030a10       __report_rangecheckfailure 0000000180031a10 f   LIBCMTD:gs_report.obj
 0001:00030a30       __report_securityfailure   0000000180031a30 f   LIBCMTD:gs_report.obj
 0001:00030ad0       __report_securityfailureEx 0000000180031ad0 f   LIBCMTD:gs_report.obj
 0001:00030e90       _Init_thread_abort         0000000180031e90 f   LIBCMTD:thread_safe_statics.obj
 0001:00030ec0       _Init_thread_footer        0000000180031ec0 f   LIBCMTD:thread_safe_statics.obj
 0001:00030f20       _Init_thread_header        0000000180031f20 f   LIBCMTD:thread_safe_statics.obj
 0001:00030fb0       _Init_thread_lock          0000000180031fb0 f   LIBCMTD:thread_safe_statics.obj
 0001:00030fd0       _Init_thread_notify        0000000180031fd0 f   LIBCMTD:thread_safe_statics.obj
 0001:00031030       _Init_thread_unlock        0000000180032030 f   LIBCMTD:thread_safe_statics.obj
 0001:00031050       _Init_thread_wait          0000000180032050 f   LIBCMTD:thread_safe_statics.obj
 0001:00031100       ??2@YAPEAX_KAEBUnothrow_t@std@@@Z 0000000180032100 f   LIBCMTD:new_scalar_nothrow.obj
 0001:00031140       ??_U@YAPEAX_KAEBUnothrow_t@std@@@Z 0000000180032140 f   LIBCMTD:new_array_nothrow.obj
 0001:00031170       __GSHandlerCheck_SEH       0000000180032170 f   LIBCMTD:gshandlerseh.obj
 0001:00031240       _alloca_probe              0000000180032240 f   LIBCMTD:chkstk.obj
 0001:00031240       __chkstk                   0000000180032240 f   LIBCMTD:chkstk.obj
 0001:000316a0       _CRT_INIT                  00000001800326a0 f   LIBCMTD:dll_dllmain.obj
 0001:000316d0       _DllMainCRTStartup         00000001800326d0 f   LIBCMTD:dll_dllmain.obj
 0001:000317a0       ?_RTC_AllocaFailure@@YAXPEAXPEAU_RTC_ALLOCA_NODE@@H@Z 00000001800327a0 f   LIBCMTD:error.obj
 0001:00031900       ?_RTC_Failure@@YAXPEAXH@Z  0000000180032900 f   LIBCMTD:error.obj
 0001:00031950       ?_RTC_StackFailure@@YAXPEAXPEBD@Z 0000000180032950 f   LIBCMTD:error.obj
 0001:00031d80       _RTC_UninitUse             0000000180032d80 f   LIBCMTD:error.obj
 0001:00031e50       _vsprintf_s_l              0000000180032e50 f i LIBCMTD:error.obj
 0001:00031ec0       sprintf_s                  0000000180032ec0 f i LIBCMTD:error.obj
 0001:00031ef0       ?_RTC_GetErrorFunc@@YAP6AHHPEBDH00ZZPEBX@Z 0000000180032ef0 f   LIBCMTD:userapi.obj
 0001:00031f00       ?_RTC_GetErrorFuncW@@YAP6AHHPEB_WH00ZZPEBX@Z 0000000180032f00 f   LIBCMTD:userapi.obj
 0001:00031f10       _RTC_GetErrDesc            0000000180032f10 f   LIBCMTD:userapi.obj
 0001:00031f30       _RTC_NumErrors             0000000180032f30 f   LIBCMTD:userapi.obj
 0001:00031f40       _RTC_SetErrorFunc          0000000180032f40 f   LIBCMTD:userapi.obj
 0001:00031f60       _RTC_SetErrorFuncW         0000000180032f60 f   LIBCMTD:userapi.obj
 0001:00031f80       _RTC_SetErrorType          0000000180032f80 f   LIBCMTD:userapi.obj
 0001:00031fa0       ??2@YAPEAX_K@Z             0000000180032fa0 f   LIBCMTD:new_scalar.obj
 0001:00031ff0       __isa_available_init       0000000180032ff0 f   LIBCMTD:cpu_disp.obj
 0001:00032390       _get_startup_argv_mode     0000000180033390 f   LIBCMTD:argv_mode.obj
 0001:000323a0       __scrt_is_ucrt_dll_in_use  00000001800333a0 f   LIBCMTD:ucrt_detection.obj
 0001:000323d0       __crt_debugger_hook        00000001800333d0 f   LIBCMTD:utility_desktop.obj
 0001:000323e0       __scrt_fastfail            00000001800333e0 f   LIBCMTD:utility_desktop.obj
 0001:00032580       __scrt_get_show_window_mode 0000000180033580 f   LIBCMTD:utility_desktop.obj
 0001:000325e0       __scrt_initialize_mta      00000001800335e0 f   LIBCMTD:utility_desktop.obj
 0001:000325f0       __scrt_initialize_winrt    00000001800335f0 f   LIBCMTD:utility_desktop.obj
 0001:00032600       __scrt_is_managed_app      0000000180033600 f   LIBCMTD:utility_desktop.obj
 0001:000326b0       __scrt_set_unhandled_exception_filter 00000001800336b0 f   LIBCMTD:utility_desktop.obj
 0001:000326d0       __scrt_stub_for_initialize_mta 00000001800336d0 f   LIBCMTD:utility_desktop.obj
 0001:000326d0       __scrt_exe_initialize_mta  00000001800336d0 f   LIBCMTD:utility_desktop.obj
 0001:000326e0       __scrt_unhandled_exception_filter 00000001800336e0 f   LIBCMTD:utility_desktop.obj
 0001:00032780       _guard_check_icall_nop     0000000180033780 f i LIBCMTD:guard_support.obj
 0001:00032790       ReadNoFence64              0000000180033790 f i LIBCMTD:guard_support.obj
 0001:000327b0       ReadPointerNoFence         00000001800337b0 f i LIBCMTD:guard_support.obj
 0001:000327d0       __castguard_check_failure_debugbreak 00000001800337d0 f i LIBCMTD:guard_support.obj
 0001:000327f0       __castguard_check_failure_fastfail 00000001800337f0 f i LIBCMTD:guard_support.obj
 0001:00032820       __castguard_check_failure_nop 0000000180033820 f i LIBCMTD:guard_support.obj
 0001:00032830       __castguard_check_failure_os_handled 0000000180033830 f i LIBCMTD:guard_support.obj
 0001:00032900       __castguard_slow_path_check_debugbreak 0000000180033900 f i LIBCMTD:guard_support.obj
 0001:00032940       __castguard_slow_path_check_fastfail 0000000180033940 f i LIBCMTD:guard_support.obj
 0001:00032990       __castguard_slow_path_check_nop 0000000180033990 f i LIBCMTD:guard_support.obj
 0001:000329a0       __castguard_slow_path_check_os_handled 00000001800339a0 f i LIBCMTD:guard_support.obj
 0001:00032a60       _guard_icall_checks_enforced 0000000180033a60 f i LIBCMTD:guard_support.obj
 0001:00032aa0       _guard_rf_checks_enforced  0000000180033aa0 f i LIBCMTD:guard_support.obj
 0001:00032b70       __security_init_cookie     0000000180033b70 f   LIBCMTD:gs_support.obj
 0001:00032bf0       ?__scrt_initialize_type_info@@YAXXZ 0000000180033bf0 f   LIBCMTD:tncleanup.obj
 0001:00032c10       ?__scrt_uninitialize_type_info@@YAXXZ 0000000180033c10 f   LIBCMTD:tncleanup.obj
 0001:00032c30       __local_stdio_scanf_options 0000000180033c30 f i LIBCMTD:default_local_stdio_options.obj
 0001:00032c40       __scrt_initialize_default_local_stdio_options 0000000180033c40 f   LIBCMTD:default_local_stdio_options.obj
 0001:00032c90       __scrt_get_dyn_tls_init_callback 0000000180033c90 f   LIBCMTD:dyn_tls_init.obj
 0001:00032ca0       _RTC_Initialize            0000000180033ca0 f   LIBCMTD:initsect.obj
 0001:00032cf0       _RTC_Terminate             0000000180033cf0 f   LIBCMTD:initsect.obj
 0001:00033260       ?_RTC_GetSrcLine@@YAHPEAEPEA_WKPEAH1K@Z 0000000180034260 f   LIBCMTD:pdblkup.obj
 0001:00033630       ??0bad_alloc@std@@AEAA@QEBD@Z 0000000180034630 f i LIBCMTD:throw_bad_alloc.obj
 0001:00033670       ??0bad_alloc@std@@QEAA@AEBV01@@Z 0000000180034670 f i LIBCMTD:throw_bad_alloc.obj
 0001:000336b0       ??0bad_alloc@std@@QEAA@XZ  00000001800346b0 f i LIBCMTD:throw_bad_alloc.obj
 0001:000336f0       ??0bad_array_new_length@std@@QEAA@AEBV01@@Z 00000001800346f0 f i LIBCMTD:throw_bad_alloc.obj
 0001:00033730       ??0bad_array_new_length@std@@QEAA@XZ 0000000180034730 f i LIBCMTD:throw_bad_alloc.obj
 0001:00033770       ??0exception@std@@QEAA@AEBV01@@Z 0000000180034770 f i LIBCMTD:throw_bad_alloc.obj
 0001:000337d0       ??0exception@std@@QEAA@QEBDH@Z 00000001800347d0 f i LIBCMTD:throw_bad_alloc.obj
 0001:00033820       ??1bad_alloc@std@@UEAA@XZ  0000000180034820 f i LIBCMTD:throw_bad_alloc.obj
 0001:00033840       ??1bad_array_new_length@std@@UEAA@XZ 0000000180034840 f i LIBCMTD:throw_bad_alloc.obj
 0001:00033860       ??1exception@std@@UEAA@XZ  0000000180034860 f i LIBCMTD:throw_bad_alloc.obj
 0001:00033890       ??_Gbad_alloc@std@@UEAAPEAXI@Z 0000000180034890 f i LIBCMTD:throw_bad_alloc.obj
 0001:00033890       ??_Ebad_alloc@std@@UEAAPEAXI@Z 0000000180034890 f i LIBCMTD:throw_bad_alloc.obj
 0001:000338d0       ??_Ebad_array_new_length@std@@UEAAPEAXI@Z 00000001800348d0 f i LIBCMTD:throw_bad_alloc.obj
 0001:000338d0       ??_Gbad_array_new_length@std@@UEAAPEAXI@Z 00000001800348d0 f i LIBCMTD:throw_bad_alloc.obj
 0001:00033910       ??_Eexception@std@@UEAAPEAXI@Z 0000000180034910 f i LIBCMTD:throw_bad_alloc.obj
 0001:00033910       ??_Gexception@std@@UEAAPEAXI@Z 0000000180034910 f i LIBCMTD:throw_bad_alloc.obj
 0001:00033950       ?__scrt_throw_std_bad_alloc@@YAXXZ 0000000180034950 f   LIBCMTD:throw_bad_alloc.obj
 0001:00033980       ?__scrt_throw_std_bad_array_new_length@@YAXXZ 0000000180034980 f   LIBCMTD:throw_bad_alloc.obj
 0001:000339b0       ?what@exception@std@@UEBAPEBDXZ 00000001800349b0 f i LIBCMTD:throw_bad_alloc.obj
 0001:000339f0       ??1type_info@@UEAA@XZ      00000001800349f0 f   LIBCMTD:std_type_info_static.obj
 0001:00033a10       ??_Etype_info@@UEAAPEAXI@Z 0000000180034a10 f i LIBCMTD:std_type_info_static.obj
 0001:00033a10       ??_Gtype_info@@UEAAPEAXI@Z 0000000180034a10 f i LIBCMTD:std_type_info_static.obj
 0001:00033a4c       ??$?2PEAUHINSTANCE__@@@Wrapper@?$CSimpleArray@PEAUHINSTANCE__@@V?$CSimpleArrayEqualHelper@PEAUHINSTANCE__@@@ATL@@@ATL@@SAPEAX_KPEAPEAUHINSTANCE__@@@Z 0000000180034a4c f i atls:atlbase.obj
 0001:00033a50       ??0?$CSimpleArray@PEAUHINSTANCE__@@V?$CSimpleArrayEqualHelper@PEAUHINSTANCE__@@@ATL@@@ATL@@QEAA@XZ 0000000180034a50 f i atls:atlbase.obj
 0001:00033a60       ??0CAtlBaseModule@ATL@@QEAA@XZ 0000000180034a60 f   atls:atlbase.obj
 0001:00033b08       ??0Wrapper@?$CSimpleArray@PEAUHINSTANCE__@@V?$CSimpleArrayEqualHelper@PEAUHINSTANCE__@@@ATL@@@ATL@@QEAA@AEBQEAUHINSTANCE__@@@Z 0000000180034b08 f i atls:atlbase.obj
 0001:00033b14       ??0_ATL_BASE_MODULE70@ATL@@QEAA@XZ 0000000180034b14 f i atls:atlbase.obj
 0001:00033b40       ??1?$CSimpleArray@PEAUHINSTANCE__@@V?$CSimpleArrayEqualHelper@PEAUHINSTANCE__@@@ATL@@@ATL@@QEAA@XZ 0000000180034b40 f i atls:atlbase.obj
 0001:00033b68       ??1CAtlBaseModule@ATL@@QEAA@XZ 0000000180034b68 f   atls:atlbase.obj
 0001:00033b9c       ??1_ATL_BASE_MODULE70@ATL@@QEAA@XZ 0000000180034b9c f i atls:atlbase.obj
 0001:00033bc8       ??A?$CSimpleArray@PEAUHINSTANCE__@@V?$CSimpleArrayEqualHelper@PEAUHINSTANCE__@@@ATL@@@ATL@@QEAAAEAPEAUHINSTANCE__@@H@Z 0000000180034bc8 f i atls:atlbase.obj
 0001:00033bf4       ?Add@?$CSimpleArray@PEAUHINSTANCE__@@V?$CSimpleArrayEqualHelper@PEAUHINSTANCE__@@@ATL@@@ATL@@QEAAHAEBQEAUHINSTANCE__@@@Z 0000000180034bf4 f i atls:atlbase.obj
 0001:00033c94       ?AddResourceInstance@CAtlBaseModule@ATL@@QEAA_NPEAUHINSTANCE__@@@Z 0000000180034c94 f   atls:atlbase.obj
 0001:00033cdc       ?GetHInstanceAt@CAtlBaseModule@ATL@@QEAAPEAUHINSTANCE__@@H@Z 0000000180034cdc f   atls:atlbase.obj
 0001:00033d54       ?GetSize@?$CSimpleArray@PEAUHINSTANCE__@@V?$CSimpleArrayEqualHelper@PEAUHINSTANCE__@@@ATL@@@ATL@@QEBAHXZ 0000000180034d54 f i atls:atlbase.obj
 0001:00033d58       ?InternalSetAtIndex@?$CSimpleArray@PEAUHINSTANCE__@@V?$CSimpleArrayEqualHelper@PEAUHINSTANCE__@@@ATL@@@ATL@@QEAAXHAEBQEAUHINSTANCE__@@@Z 0000000180034d58 f i atls:atlbase.obj
 0001:00033d70       ?RemoveAll@?$CSimpleArray@PEAUHINSTANCE__@@V?$CSimpleArrayEqualHelper@PEAUHINSTANCE__@@@ATL@@@ATL@@QEAAXXZ 0000000180034d70 f i atls:atlbase.obj
 0001:00033d98       ?RemoveAt@?$CSimpleArray@PEAUHINSTANCE__@@V?$CSimpleArrayEqualHelper@PEAUHINSTANCE__@@@ATL@@@ATL@@QEAAHH@Z 0000000180034d98 f i atls:atlbase.obj
 0001:00033e30       ?RemoveResourceInstance@CAtlBaseModule@ATL@@QEAA_NPEAUHINSTANCE__@@@Z 0000000180034e30 f   atls:atlbase.obj
 0001:00033eb8       ?memmove_s@Checked@ATL@@YAXPEAX_KPEBX1@Z 0000000180034eb8 f i atls:atlbase.obj
 0001:00034360       ?GetCodeAddress@_stdcallthunk@ATL@@QEAAPEAXXZ 0000000180035360 f i atls:atlthunk.obj
 0001:0003438c       ?Init@_stdcallthunk@ATL@@QEAAH_KPEAX@Z 000000018003538c f i atls:atlthunk.obj
 0001:000343dc       ?__AllocStdCallThunk@@YAPEAXXZ 00000001800353dc f   atls:atlthunk.obj
 0001:000343e4       ?__AllocStdCallThunk@ATL@@YAPEAXXZ 00000001800353e4 f   atls:atlthunk.obj
 0001:000343ec       ?__AllocStdCallThunk_cmn@@YAPEAXXZ 00000001800353ec f   atls:atlthunk.obj
 0001:000344c4       ?__FreeStdCallThunk@@YAXPEAX@Z 00000001800354c4 f   atls:atlthunk.obj
 0001:000344e4       ?__FreeStdCallThunk@ATL@@YAXPEAX@Z 00000001800354e4 f   atls:atlthunk.obj
 0001:00034504       ?__FreeStdCallThunk_cmn@@YAXPEAX@Z 0000000180035504 f   atls:atlthunk.obj
 0001:000345a4       AtlThunk_AllocateData      00000001800355a4 f   atls:atlthunk.obj
 0001:00034620       AtlThunk_DataToCode        0000000180035620 f   atls:atlthunk.obj
 0001:00034674       AtlThunk_FreeData          0000000180035674 f   atls:atlthunk.obj
 0001:000346d4       AtlThunk_InitData          00000001800356d4 f   atls:atlthunk.obj
 0001:00034790       memset_repmovs             0000000180035790 f   libvcruntimed:memset.obj
 0001:000347b0       memset                     00000001800357b0 f   libvcruntimed:memset.obj
 0001:00034940       ??$__crt_interlocked_exchange_pointer@$$A6AXXZP6AXXZ@@YAP6AXXZPEDS6AXXZQ6AXXZ@Z 0000000180035940 f i libvcruntimed:purevirt.obj
 0001:00034960       ??$__crt_interlocked_read_pointer@$$A6AXXZ@@YAP6AXXZPEDS6AXXZ@Z 0000000180035960 f i libvcruntimed:purevirt.obj
 0001:00034980       ?__crt_interlocked_read_64@@YA_JPED_J@Z 0000000180035980 f i libvcruntimed:purevirt.obj
 0001:000349a0       _get_purecall_handler      00000001800359a0 f   libvcruntimed:purevirt.obj
 0001:000349c0       _purecall                  00000001800359c0 f   libvcruntimed:purevirt.obj
 0001:00034a00       _set_purecall_handler      0000000180035a00 f   libvcruntimed:purevirt.obj
 0001:00034a30       memcmp                     0000000180035a30 f   libvcruntimed:memcmp.obj
 0001:00034b10       memcpy_repmovs             0000000180035b10 f   libvcruntimed:memcpy.obj
 0001:00034b30       memmove                    0000000180035b30 f   libvcruntimed:memcpy.obj
 0001:00034b30       memcpy                     0000000180035b30 f   libvcruntimed:memcpy.obj
 0001:000351b0       wcsstr                     00000001800361b0 f   libvcruntimed:wcsstr.obj
 0001:00035810       __vcrt_initialize          0000000180036810 f   libvcruntimed:initialization.obj
 0001:00035850       __vcrt_thread_attach       0000000180036850 f   libvcruntimed:initialization.obj
 0001:00035870       __vcrt_thread_detach       0000000180036870 f   libvcruntimed:initialization.obj
 0001:00035890       __vcrt_uninitialize        0000000180036890 f   libvcruntimed:initialization.obj
 0001:000358b0       __vcrt_uninitialize_critical 00000001800368b0 f   libvcruntimed:initialization.obj
 0001:000358d0       __C_specific_handler       00000001800368d0 f   libvcruntimed:riscchandler.obj
 0001:00035d40       ??$?0AEAViterator@TryBlockMap4@FH4@@AEAV012@$0A@@?$pair@Viterator@TryBlockMap4@FH4@@V123@@std@@QEAA@AEAViterator@TryBlockMap4@FH4@@0@Z 0000000180036d40 f i libvcruntimed:risctrnsctrl.obj
 0001:00035da0       ??$?0AEAViterator@TryBlockMap@__FrameHandler3@@AEAV012@$0A@@?$pair@Viterator@TryBlockMap@__FrameHandler3@@V123@@std@@QEAA@AEAViterator@TryBlockMap@__FrameHandler3@@0@Z 0000000180036da0 f i libvcruntimed:risctrnsctrl.obj
 0001:00035f70       ??$_CallSETranslator@V__FrameHandler3@@@@YAHPEAUEHExceptionRecord@@PEA_KPEAU_CONTEXT@@PEAU_xDISPATCHER_CONTEXT@@PEBU_s_FuncInfo@@K1H@Z 0000000180036f70 f i libvcruntimed:risctrnsctrl.obj
 0001:00036000       ??$_CallSETranslator@V__FrameHandler4@@@@YAHPEAUEHExceptionRecord@@PEA_KPEAU_CONTEXT@@PEAU_xDISPATCHER_CONTEXT@@PEAUFuncInfo4@FH4@@K1H@Z 0000000180037000 f i libvcruntimed:risctrnsctrl.obj
 0001:00036090       ??$forward@AEAViterator@TryBlockMap4@FH4@@@std@@YAAEAViterator@TryBlockMap4@FH4@@AEAV123@@Z 0000000180037090 f i libvcruntimed:risctrnsctrl.obj
 0001:000360a0       ??$forward@AEAViterator@TryBlockMap@__FrameHandler3@@@std@@YAAEAViterator@TryBlockMap@__FrameHandler3@@AEAV123@@Z 00000001800370a0 f i libvcruntimed:risctrnsctrl.obj
 0001:000360b0       ??0FuncInfo4@FH4@@QEAA@XZ  00000001800370b0 f i libvcruntimed:risctrnsctrl.obj
 0001:00036120       ??0FuncInfoHeader@FH4@@QEAA@XZ 0000000180037120 f i libvcruntimed:risctrnsctrl.obj
 0001:00036140       ??0iterator@TryBlockMap4@FH4@@QEAA@AEAV12@I@Z 0000000180037140 f i libvcruntimed:risctrnsctrl.obj
 0001:00036170       ??0iterator@TryBlockMap@__FrameHandler3@@QEAA@AEAV12@I@Z 0000000180037170 f i libvcruntimed:risctrnsctrl.obj
 0001:000361a0       ??4iterator@TryBlockMap4@FH4@@QEAAAEAV012@AEBV012@@Z 00000001800371a0 f i libvcruntimed:risctrnsctrl.obj
 0001:000361c0       ??9iterator@TryBlockMap4@FH4@@QEBA_NAEBV012@@Z 00000001800371c0 f i libvcruntimed:risctrnsctrl.obj
 0001:00036200       ??Diterator@TryBlockMap4@FH4@@QEAA?AUTryBlockMapEntry4@2@XZ 0000000180037200 f i libvcruntimed:risctrnsctrl.obj
 0001:00036230       ??Eiterator@TryBlockMap4@FH4@@QEAAAEAV012@XZ 0000000180037230 f i libvcruntimed:risctrnsctrl.obj
 0001:00036270       ?CatchTryBlock@__FrameHandler3@@SAPEBU_s_TryBlockMapEntry@@PEBU_s_FuncInfo@@H@Z 0000000180037270 f   libvcruntimed:risctrnsctrl.obj
 0001:00036300       ?DecompFuncInfo@FH4@@YA_JPEAEAEAUFuncInfo4@1@_KH@Z 0000000180037300 f i libvcruntimed:risctrnsctrl.obj
 0001:00036340       ?DecompFuncInfo@FH4@@YA_JPEAEAEAUFuncInfo4@1@_KH_N@Z 0000000180037340 f i libvcruntimed:risctrnsctrl.obj
 0001:00036510       ?DecompTryBlock@TryBlockMap4@FH4@@AEAAXXZ 0000000180037510 f i libvcruntimed:risctrnsctrl.obj
 0001:00036590       ?ExecutionInCatch@__FrameHandler3@@SA_NPEAU_xDISPATCHER_CONTEXT@@PEBU_s_FuncInfo@@@Z 0000000180037590 f   libvcruntimed:risctrnsctrl.obj
 0001:000365e0       ?ExecutionInCatch@__FrameHandler4@@SA_NPEAU_xDISPATCHER_CONTEXT@@PEAUFuncInfo4@FH4@@@Z 00000001800375e0 f   libvcruntimed:risctrnsctrl.obj
 0001:00036600       ?FrameUnwindToEmptyState@__FrameHandler3@@SAXPEA_KPEAU_xDISPATCHER_CONTEXT@@PEBU_s_FuncInfo@@@Z 0000000180037600 f   libvcruntimed:risctrnsctrl.obj
 0001:000366a0       ?FrameUnwindToEmptyState@__FrameHandler4@@SAXPEA_KPEAU_xDISPATCHER_CONTEXT@@PEAUFuncInfo4@FH4@@@Z 00000001800376a0 f   libvcruntimed:risctrnsctrl.obj
 0001:000366f0       ?GetEstablisherFrame@__FrameHandler3@@SAPEA_KPEA_KPEAU_xDISPATCHER_CONTEXT@@PEBU_s_FuncInfo@@0@Z 00000001800376f0 f   libvcruntimed:risctrnsctrl.obj
 0001:00036860       ?GetEstablisherFrame@__FrameHandler4@@SAPEA_KPEA_KPEAU_xDISPATCHER_CONTEXT@@PEAUFuncInfo4@FH4@@0@Z 0000000180037860 f   libvcruntimed:risctrnsctrl.obj
 0001:000368d0       ?GetRangeOfTrysToCheck@__FrameHandler3@@SA?AU?$pair@Viterator@TryBlockMap@__FrameHandler3@@V123@@std@@AEAVTryBlockMap@1@HPEAU_xDISPATCHER_CONTEXT@@PEBU_s_FuncInfo@@H@Z 00000001800378d0 f   libvcruntimed:risctrnsctrl.obj
 0001:00036b10       ?GetRangeOfTrysToCheck@__FrameHandler4@@SA?AU?$pair@Viterator@TryBlockMap4@FH4@@V123@@std@@AEAVTryBlockMap4@FH4@@HPEAU_xDISPATCHER_CONTEXT@@PEAUFuncInfo4@5@H@Z 0000000180037b10 f   libvcruntimed:risctrnsctrl.obj
 0001:00036cc0       ?ReadInt@FH4@@YAHPEAPEAE@Z 0000000180037cc0 f i libvcruntimed:risctrnsctrl.obj
 0001:00036d00       ?ReadUnsigned@FH4@@YAIPEAPEAE@Z 0000000180037d00 f i libvcruntimed:risctrnsctrl.obj
 0001:00036d90       ?UnwindNestedFrames@__FrameHandler3@@SAXPEA_KPEAUEHExceptionRecord@@PEAU_CONTEXT@@0PEAXPEBU_s_FuncInfo@@HHPEBU_s_HandlerType@@PEAU_xDISPATCHER_CONTEXT@@E@Z 0000000180037d90 f   libvcruntimed:risctrnsctrl.obj
 0001:00036f00       ?UnwindNestedFrames@__FrameHandler4@@SAXPEA_KPEAUEHExceptionRecord@@PEAU_CONTEXT@@0PEAXPEAUFuncInfo4@FH4@@HHPEAUHandlerType4@5@PEAU_xDISPATCHER_CONTEXT@@E@Z 0000000180037f00 f   libvcruntimed:risctrnsctrl.obj
 0001:000370d0       ?begin@TryBlockMap4@FH4@@QEAA?AViterator@12@XZ 00000001800380d0 f i libvcruntimed:risctrnsctrl.obj
 0001:00037100       ?end@TryBlockMap4@FH4@@QEAA?AViterator@12@XZ 0000000180038100 f i libvcruntimed:risctrnsctrl.obj
 0001:00037130       ?imageRelToByteBuffer@FH4@@YAPEAE_KH@Z 0000000180038130 f i libvcruntimed:risctrnsctrl.obj
 0001:00037150       ?incrementToSentinel@iterator@TryBlockMap4@FH4@@QEAAXXZ 0000000180038150 f i libvcruntimed:risctrnsctrl.obj
 0001:00037170       ?setBuffer@TryBlockMap4@FH4@@QEAAXViterator@12@@Z 0000000180038170 f i libvcruntimed:risctrnsctrl.obj
 0001:000371e0       _CreateFrameInfo           00000001800381e0 f   libvcruntimed:risctrnsctrl.obj
 0001:00037250       _FindAndUnlinkFrame        0000000180038250 f   libvcruntimed:risctrnsctrl.obj
 0001:000372d0       _GetImageBase              00000001800382d0 f   libvcruntimed:risctrnsctrl.obj
 0001:000372f0       _GetThrowImageBase         00000001800382f0 f   libvcruntimed:risctrnsctrl.obj
 0001:00037310       _SetImageBase              0000000180038310 f   libvcruntimed:risctrnsctrl.obj
 0001:00037330       _SetThrowImageBase         0000000180038330 f   libvcruntimed:risctrnsctrl.obj
 0001:00037350       __CxxFrameHandler          0000000180038350 f   libvcruntimed:risctrnsctrl.obj
 0001:00037390       __CxxFrameHandler2         0000000180038390 f   libvcruntimed:risctrnsctrl.obj
 0001:000373d0       __CxxFrameHandler3         00000001800383d0 f   libvcruntimed:risctrnsctrl.obj
 0001:000374b0       __CxxFrameHandler4         00000001800384b0 f   libvcruntimed:risctrnsctrl.obj
 0001:000375c0       __C_specific_handler_noexcept 00000001800385c0 f   libvcruntimed:chandler_noexcept.obj
 0001:00037650       __DestructExceptionObject  0000000180038650 f   libvcruntimed:ehhelpers.obj
 0001:00037750       ?_CallMemberFunction0@@YAXQEAX0@Z 0000000180038750 f i libvcruntimed:ehhelpers.obj
 0001:00037820       ?raw_name@type_info@@QEBAPEBDXZ 0000000180038820 f i libvcruntimed:ehhelpers.obj
 0001:00037830       _IsExceptionObjectToBeDestroyed 0000000180038830 f   libvcruntimed:ehhelpers.obj
 0001:00037880       _SetWinRTOutOfMemoryExceptionCallback 0000000180038880 f   libvcruntimed:ehhelpers.obj
 0001:000378a0       __AdjustPointer            00000001800388a0 f   libvcruntimed:ehhelpers.obj
 0001:00037920       __FrameUnwindFilter        0000000180038920 f   libvcruntimed:ehhelpers.obj
 0001:000379d0       __GetPlatformExceptionInfo 00000001800389d0 f   libvcruntimed:ehhelpers.obj
 0001:00037a80       __current_exception        0000000180038a80 f   libvcruntimed:ehhelpers.obj
 0001:00037aa0       __current_exception_context 0000000180038aa0 f   libvcruntimed:ehhelpers.obj
 0001:00037ac0       __processing_throw         0000000180038ac0 f   libvcruntimed:ehhelpers.obj
 0001:00037ae0       __std_terminate            0000000180038ae0 f   libvcruntimed:ehhelpers.obj
 0001:00037af0       _is_exception_typeof       0000000180038af0 f   libvcruntimed:ehhelpers.obj
 0001:00037c80       ??$?RD@__crt_internal_free_policy@@QEBAXQEBD@Z 0000000180038c80 f i libvcruntimed:std_type_info.obj
 0001:00037cb0       ??$?RX@__crt_internal_free_policy@@QEBAXQEBX@Z 0000000180038cb0 f i libvcruntimed:std_type_info.obj
 0001:00037ce0       ??$__crt_interlocked_compare_exchange_pointer@$$CBDPEAD$$T@@YAPEBDPEDSEBDQEAD$$T@Z 0000000180038ce0 f i libvcruntimed:std_type_info.obj
 0001:00037d20       ??$__crt_interlocked_read_pointer@$$CBD@@YAPEBDPEDSEBD@Z 0000000180038d20 f i libvcruntimed:std_type_info.obj
 0001:00037d40       ??0?$__crt_unique_heap_ptr@DU__crt_internal_free_policy@@@@QEAA@QEAD@Z 0000000180038d40 f i libvcruntimed:std_type_info.obj
 0001:00037d60       ??0?$__crt_unique_heap_ptr@XU__crt_internal_free_policy@@@@QEAA@QEAX@Z 0000000180038d60 f i libvcruntimed:std_type_info.obj
 0001:00037d80       ??1?$__crt_unique_heap_ptr@DU__crt_internal_free_policy@@@@QEAA@XZ 0000000180038d80 f i libvcruntimed:std_type_info.obj
 0001:00037da0       ??1?$__crt_unique_heap_ptr@XU__crt_internal_free_policy@@@@QEAA@XZ 0000000180038da0 f i libvcruntimed:std_type_info.obj
 0001:00037dc0       ??B?$__crt_unique_heap_ptr@DU__crt_internal_free_policy@@@@QEBA_NXZ 0000000180038dc0 f i libvcruntimed:std_type_info.obj
 0001:00037de0       ??B?$__crt_unique_heap_ptr@XU__crt_internal_free_policy@@@@QEBA_NXZ 0000000180038de0 f i libvcruntimed:std_type_info.obj
 0001:00037e80       ?detach@?$__crt_unique_heap_ptr@XU__crt_internal_free_policy@@@@QEAAPEAXXZ 0000000180038e80 f i libvcruntimed:std_type_info.obj
 0001:00037eb0       ?get@?$__crt_unique_heap_ptr@DU__crt_internal_free_policy@@@@QEBAPEADXZ 0000000180038eb0 f i libvcruntimed:std_type_info.obj
 0001:00037ec0       ?get@?$__crt_unique_heap_ptr@XU__crt_internal_free_policy@@@@QEBAPEAXXZ 0000000180038ec0 f i libvcruntimed:std_type_info.obj
 0001:00037ed0       ?is_valid@?$__crt_unique_heap_ptr@DU__crt_internal_free_policy@@@@QEBA_NXZ 0000000180038ed0 f i libvcruntimed:std_type_info.obj
 0001:00037f00       ?is_valid@?$__crt_unique_heap_ptr@XU__crt_internal_free_policy@@@@QEBA_NXZ 0000000180038f00 f i libvcruntimed:std_type_info.obj
 0001:00037f30       ?release@?$__crt_unique_heap_ptr@DU__crt_internal_free_policy@@@@QEAAXXZ 0000000180038f30 f i libvcruntimed:std_type_info.obj
 0001:00037f60       ?release@?$__crt_unique_heap_ptr@XU__crt_internal_free_policy@@@@QEAAXXZ 0000000180038f60 f i libvcruntimed:std_type_info.obj
 0001:00037f90       __std_type_info_compare    0000000180038f90 f   libvcruntimed:std_type_info.obj
 0001:00037fd0       __std_type_info_destroy_list 0000000180038fd0 f   libvcruntimed:std_type_info.obj
 0001:00038030       __std_type_info_hash       0000000180039030 f   libvcruntimed:std_type_info.obj
 0001:000380e0       __std_type_info_name       00000001800390e0 f   libvcruntimed:std_type_info.obj
 0001:00038390       __vcrt_GetModuleFileNameW  0000000180039390 f   libvcruntimed:winapi_thunks.obj
 0001:000383c0       __vcrt_GetModuleHandleW    00000001800393c0 f   libvcruntimed:winapi_thunks.obj
 0001:000383e0       __vcrt_LoadLibraryExW      00000001800393e0 f   libvcruntimed:winapi_thunks.obj
 0001:00038410       ??$?RD@__crt_public_free_policy@@QEBAXQEBD@Z 0000000180039410 f i libvcruntimed:std_exception.obj
 0001:00038430       ??0?$__crt_unique_heap_ptr@DU__crt_public_free_policy@@@@QEAA@QEAD@Z 0000000180039430 f i libvcruntimed:std_exception.obj
 0001:00038450       ??1?$__crt_unique_heap_ptr@DU__crt_public_free_policy@@@@QEAA@XZ 0000000180039450 f i libvcruntimed:std_exception.obj
 0001:00038470       ??B?$__crt_unique_heap_ptr@DU__crt_public_free_policy@@@@QEBA_NXZ 0000000180039470 f i libvcruntimed:std_exception.obj
 0001:00038490       ?detach@?$__crt_unique_heap_ptr@DU__crt_public_free_policy@@@@QEAAPEADXZ 0000000180039490 f i libvcruntimed:std_exception.obj
 0001:000384c0       ?get@?$__crt_unique_heap_ptr@DU__crt_public_free_policy@@@@QEBAPEADXZ 00000001800394c0 f i libvcruntimed:std_exception.obj
 0001:000384d0       ?is_valid@?$__crt_unique_heap_ptr@DU__crt_public_free_policy@@@@QEBA_NXZ 00000001800394d0 f i libvcruntimed:std_exception.obj
 0001:00038500       ?release@?$__crt_unique_heap_ptr@DU__crt_public_free_policy@@@@QEAAXXZ 0000000180039500 f i libvcruntimed:std_exception.obj
 0001:00038530       __std_exception_copy       0000000180039530 f   libvcruntimed:std_exception.obj
 0001:00038670       __std_exception_destroy    0000000180039670 f   libvcruntimed:std_exception.obj
 0001:000386b0       _CxxThrowException         00000001800396b0 f   libvcruntimed:throw.obj
 0001:000387e0       ??$?RU__vcrt_ptd@@@__crt_internal_free_policy@@QEBAXQEBU__vcrt_ptd@@@Z 00000001800397e0 f i libvcruntimed:per_thread_data.obj
 0001:00038810       ??0?$__crt_unique_heap_ptr@U__vcrt_ptd@@U__crt_internal_free_policy@@@@QEAA@QEAU__vcrt_ptd@@@Z 0000000180039810 f i libvcruntimed:per_thread_data.obj
 0001:00038850       ??1?$__crt_unique_heap_ptr@U__vcrt_ptd@@U__crt_internal_free_policy@@@@QEAA@XZ 0000000180039850 f i libvcruntimed:per_thread_data.obj
 0001:00038890       ??B?$__crt_unique_heap_ptr@U__vcrt_ptd@@U__crt_internal_free_policy@@@@QEBA_NXZ 0000000180039890 f i libvcruntimed:per_thread_data.obj
 0001:000388b0       ?detach@?$__crt_unique_heap_ptr@U__vcrt_ptd@@U__crt_internal_free_policy@@@@QEAAPEAU__vcrt_ptd@@XZ 00000001800398b0 f i libvcruntimed:per_thread_data.obj
 0001:000388e0       ?get@?$__crt_unique_heap_ptr@U__vcrt_ptd@@U__crt_internal_free_policy@@@@QEBAPEAU__vcrt_ptd@@XZ 00000001800398e0 f i libvcruntimed:per_thread_data.obj
 0001:000388f0       ?is_valid@?$__crt_unique_heap_ptr@U__vcrt_ptd@@U__crt_internal_free_policy@@@@QEBA_NXZ 00000001800398f0 f i libvcruntimed:per_thread_data.obj
 0001:00038920       ?release@?$__crt_unique_heap_ptr@U__vcrt_ptd@@U__crt_internal_free_policy@@@@QEAAXXZ 0000000180039920 f i libvcruntimed:per_thread_data.obj
 0001:00038990       __vcrt_freefls             0000000180039990 f   libvcruntimed:per_thread_data.obj
 0001:000389d0       __vcrt_freeptd             00000001800399d0 f   libvcruntimed:per_thread_data.obj
 0001:00038a30       __vcrt_getptd              0000000180039a30 f   libvcruntimed:per_thread_data.obj
 0001:00038a60       __vcrt_getptd_noexit       0000000180039a60 f   libvcruntimed:per_thread_data.obj
 0001:00038c00       __vcrt_getptd_noinit       0000000180039c00 f   libvcruntimed:per_thread_data.obj
 0001:00038c60       __vcrt_initialize_ptd      0000000180039c60 f   libvcruntimed:per_thread_data.obj
 0001:00038cb0       __vcrt_uninitialize_ptd    0000000180039cb0 f   libvcruntimed:per_thread_data.obj
 0001:00038ce0       __vcrt_initialize_locks    0000000180039ce0 f   libvcruntimed:locks.obj
 0001:00038d50       __vcrt_lock                0000000180039d50 f   libvcruntimed:locks.obj
 0001:00038d80       __vcrt_uninitialize_locks  0000000180039d80 f   libvcruntimed:locks.obj
 0001:00038de0       __vcrt_unlock              0000000180039de0 f   libvcruntimed:locks.obj
 0001:00038e20       _NLG_Notify                0000000180039e20 f   libvcruntimed:notify.obj
 0001:00038e40       __NLG_Dispatch2            0000000180039e40 f   libvcruntimed:notify.obj
 0001:00038e50       __NLG_Return2              0000000180039e50 f   libvcruntimed:notify.obj
 0001:00038e70       __except_validate_context_record 0000000180039e70 f   libvcruntimed:jbcxrval.obj
 0001:00038ed0       __except_validate_jump_buffer 0000000180039ed0 f   libvcruntimed:jbcxrval.obj
 0001:00038ef0       __except_validate_jump_buffer_common 0000000180039ef0 f i libvcruntimed:jbcxrval.obj
 0001:00038f70       ?GetCurrentState@__FrameHandler3@@SAHPEA_KPEAU_xDISPATCHER_CONTEXT@@PEBU_s_FuncInfo@@@Z 0000000180039f70 f   libvcruntimed:ehstate.obj
 0001:00038fd0       ?GetUnwindTryBlock@__FrameHandler3@@SAHPEA_KPEAU_xDISPATCHER_CONTEXT@@PEBU_s_FuncInfo@@@Z 0000000180039fd0 f   libvcruntimed:ehstate.obj
 0001:00039020       ?SetState@__FrameHandler3@@SAXPEA_KPEBU_s_FuncInfo@@H@Z 000000018003a020 f   libvcruntimed:ehstate.obj
 0001:00039050       ?SetUnwindTryBlock@__FrameHandler3@@SAXPEA_KPEAU_xDISPATCHER_CONTEXT@@PEBU_s_FuncInfo@@H@Z 000000018003a050 f   libvcruntimed:ehstate.obj
 0001:000390c0       ?StateFromControlPc@__FrameHandler3@@SAHPEBU_s_FuncInfo@@PEAU_xDISPATCHER_CONTEXT@@@Z 000000018003a0c0 f   libvcruntimed:ehstate.obj
 0001:00039100       ?StateFromControlPc@__FrameHandler4@@SAHPEAUFuncInfo4@FH4@@PEAU_xDISPATCHER_CONTEXT@@@Z 000000018003a100 f   libvcruntimed:ehstate.obj
 0001:00039140       ?StateFromIp@__FrameHandler3@@SAHPEBU_s_FuncInfo@@PEAU_xDISPATCHER_CONTEXT@@_K@Z 000000018003a140 f   libvcruntimed:ehstate.obj
 0001:00039230       ?StateFromIp@__FrameHandler4@@SAHPEAUFuncInfo4@FH4@@PEAU_xDISPATCHER_CONTEXT@@_K@Z 000000018003a230 f   libvcruntimed:ehstate.obj
 0001:00039320       ?__FuncRelToRealOffset@@YA_KPEAU_xDISPATCHER_CONTEXT@@I@Z 000000018003a320 f i libvcruntimed:ehstate.obj
 0001:00039350       ?__RVAtoRealOffset@@YA_KPEAU_xDISPATCHER_CONTEXT@@H@Z 000000018003a350 f i libvcruntimed:ehstate.obj
 0001:0003b5b0       ??$TypeMatchHelper@V__FrameHandler3@@@@YAHPEBU_s_HandlerType@@PEBU_s_CatchableType@@PEBU_s_ThrowInfo@@@Z 000000018003c5b0 f i libvcruntimed:frame.obj
 0001:0003b7b0       ??$TypeMatchHelper@V__FrameHandler4@@@@YAHPEAUHandlerType4@FH4@@PEBU_s_CatchableType@@PEBU_s_ThrowInfo@@@Z 000000018003c7b0 f i libvcruntimed:frame.obj
 0001:0003b9c0       ??$__InternalCxxFrameHandler@V__FrameHandler3@@@@YA?AW4_EXCEPTION_DISPOSITION@@PEAUEHExceptionRecord@@PEA_KPEAU_CONTEXT@@PEAU_xDISPATCHER_CONTEXT@@PEBU_s_FuncInfo@@H1E@Z 000000018003c9c0 f i libvcruntimed:frame.obj
 0001:0003be30       ??$__InternalCxxFrameHandler@V__FrameHandler4@@@@YA?AW4_EXCEPTION_DISPOSITION@@PEAUEHExceptionRecord@@PEA_KPEAU_CONTEXT@@PEAU_xDISPATCHER_CONTEXT@@PEAUFuncInfo4@FH4@@H1E@Z 000000018003ce30 f i libvcruntimed:frame.obj
 0001:0003c2c0       ??0HandlerMap4@FH4@@QEAA@PEBUTryBlockMapEntry4@1@_KH@Z 000000018003d2c0 f i libvcruntimed:frame.obj
 0001:0003c380       ??0HandlerMap@__FrameHandler3@@QEAA@PEBU_s_TryBlockMapEntry@@_KI@Z 000000018003d380 f i libvcruntimed:frame.obj
 0001:0003c3d0       ??0HandlerType4@FH4@@QEAA@XZ 000000018003d3d0 f i libvcruntimed:frame.obj
 0001:0003c3f0       ??0TryBlockMap4@FH4@@QEAA@PEBUFuncInfo4@1@_K@Z 000000018003d3f0 f i libvcruntimed:frame.obj
 0001:0003c480       ??0TryBlockMap@__FrameHandler3@@QEAA@PEBU_s_FuncInfo@@_K@Z 000000018003d480 f i libvcruntimed:frame.obj
 0001:0003c4b0       ??0UWMap4@FH4@@QEAA@PEBUFuncInfo4@1@_K@Z 000000018003d4b0 f i libvcruntimed:frame.obj
 0001:0003c520       ??0bad_exception@std@@QEAA@AEBV01@@Z 000000018003d520 f i libvcruntimed:frame.obj
 0001:0003c560       ??0bad_exception@std@@QEAA@XZ 000000018003d560 f i libvcruntimed:frame.obj
 0001:0003c5a0       ??0iterator@HandlerMap4@FH4@@QEAA@AEAV12@I@Z 000000018003d5a0 f i libvcruntimed:frame.obj
 0001:0003c5d0       ??0iterator@HandlerMap@__FrameHandler3@@QEAA@AEAV12@I@Z 000000018003d5d0 f i libvcruntimed:frame.obj
 0001:0003c600       ??0iterator@UWMap4@FH4@@QEAA@AEAV12@PEAE@Z 000000018003d600 f i libvcruntimed:frame.obj
 0001:0003c630       ??1bad_exception@std@@UEAA@XZ 000000018003d630 f i libvcruntimed:frame.obj
 0001:0003c650       ??4iterator@UWMap4@FH4@@QEAAAEAV012@AEBV012@@Z 000000018003d650 f i libvcruntimed:frame.obj
 0001:0003c6a0       ??8iterator@HandlerMap4@FH4@@QEBA_NAEBV012@@Z 000000018003d6a0 f i libvcruntimed:frame.obj
 0001:0003c6e0       ??8iterator@HandlerMap@__FrameHandler3@@QEBA_NAEBV012@@Z 000000018003d6e0 f i libvcruntimed:frame.obj
 0001:0003c720       ??8type_info@@QEBA_NAEBV0@@Z 000000018003d720 f i libvcruntimed:frame.obj
 0001:0003c770       ??9iterator@HandlerMap4@FH4@@QEBA_NAEBV012@@Z 000000018003d770 f i libvcruntimed:frame.obj
 0001:0003c7b0       ??9iterator@HandlerMap@__FrameHandler3@@QEBA_NAEBV012@@Z 000000018003d7b0 f i libvcruntimed:frame.obj
 0001:0003c7f0       ??Diterator@HandlerMap4@FH4@@QEAA?AUHandlerType4@2@XZ 000000018003d7f0 f i libvcruntimed:frame.obj
 0001:0003c820       ??Diterator@HandlerMap@__FrameHandler3@@QEAA?BU_s_HandlerType@@XZ 000000018003d820 f i libvcruntimed:frame.obj
 0001:0003c860       ??Diterator@TryBlockMap@__FrameHandler3@@QEAA?BU_s_TryBlockMapEntry@@XZ 000000018003d860 f i libvcruntimed:frame.obj
 0001:0003c8b0       ??Diterator@UWMap4@FH4@@QEAA?AUUnwindMapEntry4@2@XZ 000000018003d8b0 f i libvcruntimed:frame.obj
 0001:0003c930       ??Eiterator@HandlerMap4@FH4@@QEAAAEAV012@XZ 000000018003d930 f i libvcruntimed:frame.obj
 0001:0003c970       ??Eiterator@HandlerMap@__FrameHandler3@@QEAAAEAV012@XZ 000000018003d970 f i libvcruntimed:frame.obj
 0001:0003c990       ??Eiterator@TryBlockMap@__FrameHandler3@@QEAAAEAV012@XZ 000000018003d990 f i libvcruntimed:frame.obj
 0001:0003c9b0       ??Eiterator@UWMap4@FH4@@QEAAAEAV012@XZ 000000018003d9b0 f i libvcruntimed:frame.obj
 0001:0003c9f0       ??Giterator@UWMap4@FH4@@QEBA_JAEBV012@@Z 000000018003d9f0 f i libvcruntimed:frame.obj
 0001:0003ca10       ??Miterator@TryBlockMap4@FH4@@QEBA_NAEBV012@@Z 000000018003da10 f i libvcruntimed:frame.obj
 0001:0003ca50       ??Miterator@TryBlockMap@__FrameHandler3@@QEBA_NAEBV012@@Z 000000018003da50 f i libvcruntimed:frame.obj
 0001:0003ca90       ??Oiterator@UWMap4@FH4@@QEBA_NAEBV012@@Z 000000018003da90 f i libvcruntimed:frame.obj
 0001:0003cad0       ??Piterator@UWMap4@FH4@@QEBA_NAEBV012@@Z 000000018003dad0 f i libvcruntimed:frame.obj
 0001:0003cb10       ??_Gbad_exception@std@@UEAAPEAXI@Z 000000018003db10 f i libvcruntimed:frame.obj
 0001:0003cb10       ??_Ebad_exception@std@@UEAAPEAXI@Z 000000018003db10 f i libvcruntimed:frame.obj
 0001:0003cb50       ?BuildCatchObject@__FrameHandler3@@SAXPEAUEHExceptionRecord@@PEAXPEBU_s_HandlerType@@PEBU_s_CatchableType@@@Z 000000018003db50 f   libvcruntimed:frame.obj
 0001:0003cb90       ?BuildCatchObject@__FrameHandler4@@SAXPEAUEHExceptionRecord@@PEAXPEAUHandlerType4@FH4@@PEBU_s_CatchableType@@@Z 000000018003db90 f   libvcruntimed:frame.obj
 0001:0003cbd0       ?BuildCatchObjectHelper@__FrameHandler3@@SAHPEAUEHExceptionRecord@@PEAXPEBU_s_HandlerType@@PEBU_s_CatchableType@@@Z 000000018003dbd0 f   libvcruntimed:frame.obj
 0001:0003cc10       ?BuildCatchObjectHelper@__FrameHandler4@@SAHPEAUEHExceptionRecord@@PEAXPEAUHandlerType4@FH4@@PEBU_s_CatchableType@@@Z 000000018003dc10 f   libvcruntimed:frame.obj
 0001:0003cc50       ?CxxCallCatchBlock@__FrameHandler3@@SAPEAXPEAU_EXCEPTION_RECORD@@@Z 000000018003dc50 f   libvcruntimed:frame.obj
 0001:0003ceb0       ?CxxCallCatchBlock@__FrameHandler4@@SAPEAXPEAU_EXCEPTION_RECORD@@@Z 000000018003deb0 f   libvcruntimed:frame.obj
 0001:0003d1e0       ?DecompHandler@HandlerMap4@FH4@@AEAAXXZ 000000018003e1e0 f i libvcruntimed:frame.obj
 0001:0003d5b0       ?FrameUnwindToState@__FrameHandler3@@SAXPEA_KPEAU_xDISPATCHER_CONTEXT@@PEBU_s_FuncInfo@@H@Z 000000018003e5b0 f   libvcruntimed:frame.obj
 0001:0003d800       ?FrameUnwindToState@__FrameHandler4@@SAXPEA_KPEAU_xDISPATCHER_CONTEXT@@PEAUFuncInfo4@FH4@@H@Z 000000018003e800 f   libvcruntimed:frame.obj
 0001:0003db10       ?GetHandlerSearchState@__FrameHandler3@@SAHPEA_KPEAU_xDISPATCHER_CONTEXT@@PEBU_s_FuncInfo@@@Z 000000018003eb10 f i libvcruntimed:frame.obj
 0001:0003dbc0       ?GetHandlerSearchState@__FrameHandler4@@SAHPEA_KPEAU_xDISPATCHER_CONTEXT@@PEAUFuncInfo4@FH4@@@Z 000000018003ebc0 f i libvcruntimed:frame.obj
 0001:0003dc40       ?GetMaxState@__FrameHandler3@@SAHPEAU_xDISPATCHER_CONTEXT@@PEBU_s_FuncInfo@@@Z 000000018003ec40 f i libvcruntimed:frame.obj
 0001:0003dc60       ?GetMaxState@__FrameHandler4@@SAHPEAU_xDISPATCHER_CONTEXT@@PEAUFuncInfo4@FH4@@@Z 000000018003ec60 f i libvcruntimed:frame.obj
 0001:0003de90       ?ReadEntry@UWMap4@FH4@@AEAAXPEAPEAE@Z 000000018003ee90 f i libvcruntimed:frame.obj
 0001:0003df40       ?TypeMatch@__FrameHandler3@@SAHPEBU_s_HandlerType@@PEBU_s_CatchableType@@PEBU_s_ThrowInfo@@@Z 000000018003ef40 f   libvcruntimed:frame.obj
 0001:0003df70       ?TypeMatch@__FrameHandler4@@SAHPEAUHandlerType4@FH4@@PEBU_s_CatchableType@@PEBU_s_ThrowInfo@@@Z 000000018003ef70 f   libvcruntimed:frame.obj
 0001:0003dfa0       ?WalkBack@UWMap4@FH4@@AEAAXPEAPEAE@Z 000000018003efa0 f i libvcruntimed:frame.obj
 0001:0003dff0       ?WalkBack@iterator@UWMap4@FH4@@QEAAXXZ 000000018003eff0 f i libvcruntimed:frame.obj
 0001:0003e030       ?WalkForward@UWMap4@FH4@@AEAAXPEAPEAE@Z 000000018003f030 f i libvcruntimed:frame.obj
 0001:0003e060       ?_CallMemberFunction1@@YAXQEAX00@Z 000000018003f060 f i libvcruntimed:frame.obj
 0001:0003e0a0       ?_CallMemberFunction2@@YAXQEAX00H@Z 000000018003f0a0 f i libvcruntimed:frame.obj
 0001:0003e130       ?begin@HandlerMap4@FH4@@QEAA?AViterator@12@XZ 000000018003f130 f i libvcruntimed:frame.obj
 0001:0003e160       ?begin@HandlerMap@__FrameHandler3@@QEAA?AViterator@12@XZ 000000018003f160 f i libvcruntimed:frame.obj
 0001:0003e190       ?begin@UWMap4@FH4@@QEAA?AViterator@12@XZ 000000018003f190 f i libvcruntimed:frame.obj
 0001:0003e1c0       ?end@HandlerMap4@FH4@@QEAA?AViterator@12@XZ 000000018003f1c0 f i libvcruntimed:frame.obj
 0001:0003e1f0       ?end@HandlerMap@__FrameHandler3@@QEAA?AViterator@12@XZ 000000018003f1f0 f i libvcruntimed:frame.obj
 0001:0003e220       ?getESTypes@__FrameHandler3@@SAPEBU_s_ESTypeList@@PEBU_s_FuncInfo@@@Z 000000018003f220 f i libvcruntimed:frame.obj
 0001:0003e260       ?getESTypes@__FrameHandler4@@SAPEBU_s_ESTypeList@@PEAUFuncInfo4@FH4@@@Z 000000018003f260 f i libvcruntimed:frame.obj
 0001:0003e270       ?getLastEntry@HandlerMap4@FH4@@QEAAPEAUHandlerType4@2@XZ 000000018003f270 f i libvcruntimed:frame.obj
 0001:0003e2b0       ?getLastEntry@HandlerMap@__FrameHandler3@@QEAAPEBU_s_HandlerType@@XZ 000000018003f2b0 f i libvcruntimed:frame.obj
 0001:0003e2d0       ?getMagicNum@__FrameHandler3@@SAIPEBU_s_FuncInfo@@@Z 000000018003f2d0 f i libvcruntimed:frame.obj
 0001:0003e2f0       ?getMagicNum@__FrameHandler4@@SAIPEAUFuncInfo4@FH4@@@Z 000000018003f2f0 f i libvcruntimed:frame.obj
 0001:0003e300       ?getNumTryBlocks@TryBlockMap4@FH4@@QEAAIXZ 000000018003f300 f i libvcruntimed:frame.obj
 0001:0003e310       ?getNumTryBlocks@TryBlockMap@__FrameHandler3@@QEAAIXZ 000000018003f310 f i libvcruntimed:frame.obj
 0001:0003e330       ?getStartStop@UWMap4@FH4@@QEAAXHHAEAViterator@12@0@Z 000000018003f330 f i libvcruntimed:frame.obj
 0001:0003e450       ?getStateFromIterators@UWMap4@FH4@@SAHAEBViterator@12@H0H0@Z 000000018003f450 f i libvcruntimed:frame.obj
 0001:0003e590       ?isEHs@__FrameHandler3@@SA_NPEBU_s_FuncInfo@@@Z 000000018003f590 f i libvcruntimed:frame.obj
 0001:0003e5d0       ?isEHs@__FrameHandler4@@SA_NPEAUFuncInfo4@FH4@@@Z 000000018003f5d0 f i libvcruntimed:frame.obj
 0001:0003e5f0       ?isNoExcept@__FrameHandler3@@SA_NPEBU_s_FuncInfo@@@Z 000000018003f5f0 f i libvcruntimed:frame.obj
 0001:0003e630       ?isNoExcept@__FrameHandler4@@SA_NPEAUFuncInfo4@FH4@@@Z 000000018003f630 f i libvcruntimed:frame.obj
 0001:0003e650       ?reset@HandlerType4@FH4@@QEAAXXZ 000000018003f650 f i libvcruntimed:frame.obj
 0001:0003e6b0       ?resetBuffer@HandlerMap4@FH4@@QEAAXXZ 000000018003f6b0 f i libvcruntimed:frame.obj
 0001:0003e6d0       ?setBuffer@HandlerMap4@FH4@@QEAAXI@Z 000000018003f6d0 f i libvcruntimed:frame.obj
 0001:0003e730       __BuildCatchObject         000000018003f730 f   libvcruntimed:frame.obj
 0001:0003e770       __BuildCatchObjectHelper   000000018003f770 f   libvcruntimed:frame.obj
 0001:0003e7b0       __TypeMatch                000000018003f7b0 f   libvcruntimed:frame.obj
 0001:0003e7e0       __vcrt_EncodePointer       000000018003f7e0 f i libvcruntimed:frame.obj
 0001:0003e800       ??$?0$00@DName@@QEAA@PEBDU?$StringLifeSelector@$00@@@Z 000000018003f800 f i libvcruntimed:undname.obj
 0001:0003e870       ??$?0$00@pcharNode@@QEAA@PEBDHU?$StringLifeSelector@$00@@@Z 000000018003f870 f i libvcruntimed:undname.obj
 0001:0003e8d0       ??$?0$01@DName@@QEAA@PEBDU?$StringLifeSelector@$01@@@Z 000000018003f8d0 f i libvcruntimed:undname.obj
 0001:0003e940       ??$?0$01@pcharNode@@QEAA@PEBDHU?$StringLifeSelector@$01@@@Z 000000018003f940 f i libvcruntimed:undname.obj
 0001:0003e9f0       ??$?0$0A@@DName@@QEAA@PEBDU?$StringLifeSelector@$0A@@@@Z 000000018003f9f0 f i libvcruntimed:undname.obj
 0001:0003ea60       ??$?0$0A@@pcharNode@@QEAA@PEBDHU?$StringLifeSelector@$0A@@@@Z 000000018003fa60 f i libvcruntimed:undname.obj
 0001:0003eb10       ??$?0_K$0A@@?$optional@_K@std@@QEAA@$$QEA_K@Z 000000018003fb10 f i libvcruntimed:undname.obj
 0001:0003eb60       ??$?0_K@?$_Optional_construct_base@_K@std@@QEAA@Uin_place_t@1@$$QEA_K@Z 000000018003fb60 f i libvcruntimed:undname.obj
 0001:0003eb90       ??$?0_K@?$_Optional_destruct_base@_K$00@std@@QEAA@Uin_place_t@1@$$QEA_K@Z 000000018003fb90 f i libvcruntimed:undname.obj
 0001:0003ebd0       ??$append@VDNameNode@@@DName@@AEAAXPEBVDNameNode@@@Z 000000018003fbd0 f i libvcruntimed:undname.obj
 0001:0003ec80       ??$append@VDNameStatusNode@@@DName@@AEAAXPEBVDNameStatusNode@@@Z 000000018003fc80 f i libvcruntimed:undname.obj
 0001:0003ed30       ??$append@VcharNode@@@DName@@AEAAXPEBVcharNode@@@Z 000000018003fd30 f i libvcruntimed:undname.obj
 0001:0003ede0       ??$append@VpDNameNode@@@DName@@AEAAXPEBVpDNameNode@@@Z 000000018003fde0 f i libvcruntimed:undname.obj
 0001:0003ee90       ??$append@VpcharNode@@@DName@@AEAAXPEBVpcharNode@@@Z 000000018003fe90 f i libvcruntimed:undname.obj
 0001:0003ef40       ??$doPchar@$00@DName@@AEAAXPEBDH@Z 000000018003ff40 f i libvcruntimed:undname.obj
 0001:0003f0a0       ??$doPchar@$01@DName@@AEAAXPEBDH@Z 00000001800400a0 f i libvcruntimed:undname.obj
 0001:0003f200       ??$doPchar@$0A@@DName@@AEAAXPEBDH@Z 0000000180040200 f i libvcruntimed:undname.obj
 0001:0003f360       ??$forward@_K@std@@YA$$QEA_KAEA_K@Z 0000000180040360 f i libvcruntimed:undname.obj
 0001:0003f370       ??$size@D$04@std@@YA_KAEAY04$$CBD@Z 0000000180040370 f i libvcruntimed:undname.obj
 0001:0003f380       ??$size@D$0EB@@std@@YA_KAEAY0EB@$$CBD@Z 0000000180040380 f i libvcruntimed:undname.obj
 0001:0003f390       ??0?$_Optional_construct_base@_K@std@@QEAA@XZ 0000000180040390 f i libvcruntimed:undname.obj
 0001:0003f3b0       ??0?$_Optional_destruct_base@_K$00@std@@QEAA@XZ 00000001800403b0 f i libvcruntimed:undname.obj
 0001:0003f3e0       ??0?$optional@_K@std@@QEAA@XZ 00000001800403e0 f i libvcruntimed:undname.obj
 0001:0003f400       ??0Block@_HeapManager@@QEAA@XZ 0000000180040400 f i libvcruntimed:undname.obj
 0001:0003f420       ??0DName@@QEAA@AEAPEBDD@Z  0000000180040420 f   libvcruntimed:undname.obj
 0001:0003f5f0       ??0DName@@QEAA@AEBUStringLiteral@@@Z 00000001800405f0 f   libvcruntimed:undname.obj
 0001:0003f650       ??0DName@@QEAA@AEBV0@@Z    0000000180040650 f i libvcruntimed:undname.obj
 0001:0003f680       ??0DName@@QEAA@D@Z         0000000180040680 f   libvcruntimed:undname.obj
 0001:0003f6c0       ??0DName@@QEAA@PEAV0@@Z    00000001800406c0 f   libvcruntimed:undname.obj
 0001:0003f7a0       ??0DName@@QEAA@W4DNameStatus@@@Z 00000001800407a0 f   libvcruntimed:undname.obj
 0001:0003f850       ??0DName@@QEAA@XZ          0000000180040850 f i libvcruntimed:undname.obj
 0001:0003f880       ??0DName@@QEAA@_J@Z        0000000180040880 f   libvcruntimed:undname.obj
 0001:0003f990       ??0DName@@QEAA@_K@Z        0000000180040990 f   libvcruntimed:undname.obj
 0001:0003fa60       ??0DNameNode@@IEAA@XZ      0000000180040a60 f i libvcruntimed:undname.obj
 0001:0003fa80       ??0Replicator@@QEAA@XZ     0000000180040a80 f i libvcruntimed:undname.obj
 0001:0003fac0       ??0UnDecorator@@QEAA@PEBDP6APEADJ@ZK@Z 0000000180040ac0 f i libvcruntimed:undname.obj
 0001:0003fb70       ??0_Nontrivial_dummy_type@std@@QEAA@XZ 0000000180040b70 f i libvcruntimed:undname.obj
 0001:0003fb80       ??0charNode@@QEAA@D@Z      0000000180040b80 f i libvcruntimed:undname.obj
 0001:0003fbc0       ??0pDNameNode@@QEAA@PEAVDName@@@Z 0000000180040bc0 f   libvcruntimed:undname.obj
 0001:0003fc40       ??0pairNode@@QEAA@PEBVDNameNode@@0@Z 0000000180040c40 f i libvcruntimed:undname.obj
 0001:0003fcc0       ??2@YAPEAX_KAEAV_HeapManager@@H@Z 0000000180040cc0 f   libvcruntimed:undname.obj
 0001:0003fd20       ??4DName@@QEAAAEAV0@AEBUStringLiteral@@@Z 0000000180040d20 f   libvcruntimed:undname.obj
 0001:0003fd70       ??4DName@@QEAAAEAV0@AEBV0@@Z 0000000180040d70 f   libvcruntimed:undname.obj
 0001:0003fda0       ??4DName@@QEAAAEAV0@D@Z    0000000180040da0 f i libvcruntimed:undname.obj
 0001:0003fde0       ??4DName@@QEAAAEAV0@PEAV0@@Z 0000000180040de0 f   libvcruntimed:undname.obj
 0001:0003feb0       ??4DName@@QEAAAEAV0@W4DNameStatus@@@Z 0000000180040eb0 f   libvcruntimed:undname.obj
 0001:0003ff40       ??AReplicator@@QEBA?AVDName@@H@Z 0000000180040f40 f   libvcruntimed:undname.obj
 0001:0003ffd0       ??B?$optional@_K@std@@QEBA_NXZ 0000000180040fd0 f i libvcruntimed:undname.obj
 0001:0003ffe0       ??D?$optional@_K@std@@QEGAAAEA_KXZ 0000000180040fe0 f i libvcruntimed:undname.obj
 0001:00040080       ??H@YA?AVDName@@AEBUStringLiteral@@AEBV0@@Z 0000000180041080 f i libvcruntimed:undname.obj
 0001:000400d0       ??H@YA?AVDName@@DAEBV0@@Z  00000001800410d0 f i libvcruntimed:undname.obj
 0001:00040120       ??H@YA?AVDName@@W4DNameStatus@@AEBV0@@Z 0000000180041120 f i libvcruntimed:undname.obj
 0001:00040170       ??HDName@@QEBA?AV0@AEBUStringLiteral@@@Z 0000000180041170 f   libvcruntimed:undname.obj
 0001:000401c0       ??HDName@@QEBA?AV0@AEBV0@@Z 00000001800411c0 f   libvcruntimed:undname.obj
 0001:00040210       ??HDName@@QEBA?AV0@D@Z     0000000180041210 f   libvcruntimed:undname.obj
 0001:00040260       ??HDName@@QEBA?AV0@PEAV0@@Z 0000000180041260 f   libvcruntimed:undname.obj
 0001:000402b0       ??HDName@@QEBA?AV0@W4DNameStatus@@@Z 00000001800412b0 f   libvcruntimed:undname.obj
 0001:00040300       ??HStringLiteral@@QEBA?AU0@H@Z 0000000180041300 f i libvcruntimed:undname.obj
 0001:00040340       ??YDName@@QEAAAEAV0@AEBUStringLiteral@@@Z 0000000180041340 f   libvcruntimed:undname.obj
 0001:00040410       ??YDName@@QEAAAEAV0@AEBV0@@Z 0000000180041410 f   libvcruntimed:undname.obj
 0001:000404d0       ??YDName@@QEAAAEAV0@D@Z    00000001800414d0 f   libvcruntimed:undname.obj
 0001:00040570       ??YDName@@QEAAAEAV0@PEAV0@@Z 0000000180041570 f   libvcruntimed:undname.obj
 0001:00040650       ??YDName@@QEAAAEAV0@W4DNameStatus@@@Z 0000000180041650 f   libvcruntimed:undname.obj
 0001:000406c0       ??YReplicator@@QEAAAEAV0@AEBVDName@@@Z 00000001800416c0 f   libvcruntimed:undname.obj
 0001:00040780       ??_5DName@@QEAAAEAV0@AEBV0@@Z 0000000180041780 f   libvcruntimed:undname.obj
 0001:000407f0       ??__K_l@@YA?AUStringLiteral@@PEBD_K@Z 00000001800417f0 f i libvcruntimed:undname.obj
 0001:00040840       ?Constructor@_HeapManager@@QEAAXP6APEAX_K@ZP6AXPEAX@Z@Z 0000000180041840 f i libvcruntimed:undname.obj
 0001:000408a0       ?Destructor@_HeapManager@@QEAAXXZ 00000001800418a0 f i libvcruntimed:undname.obj
 0001:00040940       ?UScore@UnDecorator@@SA?AUStringLiteral@@W4Tokens@@@Z 0000000180041940 f   libvcruntimed:undname.obj
 0001:000409d0       ?composeDeclaration@UnDecorator@@CA?AVDName@@AEBV2@@Z 00000001800419d0 f i libvcruntimed:undname.obj
 0001:00042ed0       ?dbGetString@DName@@QEBAPEADXZ 0000000180043ed0 f   libvcruntimed:undname.obj
 0001:00042f00       ?doAccessSpecifiers@UnDecorator@@SAHXZ 0000000180043f00 f i libvcruntimed:undname.obj
 0001:00042f30       ?doAllocationLanguage@UnDecorator@@SAHXZ 0000000180043f30 f i libvcruntimed:undname.obj
 0001:00042f60       ?doAllocationModel@UnDecorator@@SAHXZ 0000000180043f60 f i libvcruntimed:undname.obj
 0001:00042f90       ?doEcsu@UnDecorator@@SAHXZ 0000000180043f90 f i libvcruntimed:undname.obj
 0001:00042fc0       ?doEllipsis@UnDecorator@@SAHXZ 0000000180043fc0 f i libvcruntimed:undname.obj
 0001:00042ff0       ?doFunctionReturns@UnDecorator@@SAHXZ 0000000180043ff0 f i libvcruntimed:undname.obj
 0001:00043020       ?doMSKeywords@UnDecorator@@SAHXZ 0000000180044020 f i libvcruntimed:undname.obj
 0001:00043050       ?doMemberTypes@UnDecorator@@SAHXZ 0000000180044050 f i libvcruntimed:undname.obj
 0001:00043080       ?doNameOnly@UnDecorator@@SAHXZ 0000000180044080 f i libvcruntimed:undname.obj
 0001:00043090       ?doNoIdentCharCheck@UnDecorator@@SAHXZ 0000000180044090 f i libvcruntimed:undname.obj
 0001:000430a0       ?doPchar@DName@@AEAAXD@Z   00000001800440a0 f   libvcruntimed:undname.obj
 0001:00043130       ?doPtr64@UnDecorator@@SAHXZ 0000000180044130 f i libvcruntimed:undname.obj
 0001:00043160       ?doRestrictionSpec@UnDecorator@@SAHXZ 0000000180044160 f i libvcruntimed:undname.obj
 0001:00043190       ?doThisTypes@UnDecorator@@SAHXZ 0000000180044190 f i libvcruntimed:undname.obj
 0001:000431c0       ?doThrowTypes@UnDecorator@@SAHXZ 00000001800441c0 f i libvcruntimed:undname.obj
 0001:000431f0       ?doTypeOnly@UnDecorator@@SAHXZ 00000001800441f0 f i libvcruntimed:undname.obj
 0001:00043200       ?doUnderScore@UnDecorator@@SAHXZ 0000000180044200 f i libvcruntimed:undname.obj
 0001:00043230       ?getAddressOf@UnDecorator@@CA?AVDName@@XZ 0000000180044230 f   libvcruntimed:undname.obj
 0001:000432d0       ?getArgumentList@UnDecorator@@CA?AVDName@@XZ 00000001800442d0 f   libvcruntimed:undname.obj
 0001:00043470       ?getArgumentTypes@UnDecorator@@CA?AVDName@@XZ 0000000180044470 f   libvcruntimed:undname.obj
 0001:00043750       ?getArrayAccess@UnDecorator@@CA?AVDName@@XZ 0000000180044750 f   libvcruntimed:undname.obj
 0001:00043810       ?getArrayObject@UnDecorator@@CA?AVDName@@XZ 0000000180044810 f   libvcruntimed:undname.obj
 0001:00043930       ?getArrayType@UnDecorator@@CA?AVDName@@AEBV2@@Z 0000000180044930 f i libvcruntimed:undname.obj
 0001:00043cf0       ?getBasedType@UnDecorator@@CA?AVDName@@XZ 0000000180044cf0 f   libvcruntimed:undname.obj
 0001:00043e60       ?getBasicDataType@UnDecorator@@CA?AVDName@@AEBV2@@Z 0000000180044e60 f   libvcruntimed:undname.obj
 0001:00044c00       ?getCHPEName@UnDecorator@@QEAAPEADPEADH@Z 0000000180045c00 f i libvcruntimed:undname.obj
 0001:00044dd0       ?getCallIndex@UnDecorator@@CA?AVDName@@XZ 0000000180045dd0 f i libvcruntimed:undname.obj
 0001:00044df0       ?getCallingConvention@UnDecorator@@CA?AVDName@@XZ 0000000180045df0 f   libvcruntimed:undname.obj
 0001:000451e0       ?getDataIndirectType@UnDecorator@@CA?AVDName@@AEBV2@W4IndirectionKind@@0H@Z 00000001800461e0 f   libvcruntimed:undname.obj
 0001:00045e80       ?getDataIndirectType@UnDecorator@@CA?AVDName@@XZ 0000000180046e80 f i libvcruntimed:undname.obj
 0001:00045ed0       ?getDataType@UnDecorator@@CA?AVDName@@PEAV2@@Z 0000000180046ed0 f   libvcruntimed:undname.obj
 0001:000460b0       ?getDecoratedName@UnDecorator@@CA?AVDName@@XZ 00000001800470b0 f   libvcruntimed:undname.obj
 0001:000465a0       ?getDimension@UnDecorator@@CA?AVDName@@_N@Z 00000001800475a0 f   libvcruntimed:undname.obj
 0001:000468b0       ?getDispatchTarget@UnDecorator@@CA?AVDName@@XZ 00000001800478b0 f   libvcruntimed:undname.obj
 0001:00046980       ?getDisplacement@UnDecorator@@CA?AVDName@@XZ 0000000180047980 f i libvcruntimed:undname.obj
 0001:000469a0       ?getECSUDataType@UnDecorator@@CA?AVDName@@XZ 00000001800479a0 f   libvcruntimed:undname.obj
 0001:00046d30       ?getECSUName@UnDecorator@@CA?AVDName@@XZ 0000000180047d30 f i libvcruntimed:undname.obj
 0001:00046d50       ?getEnumType@UnDecorator@@CA?AVDName@@XZ 0000000180047d50 f i libvcruntimed:undname.obj
 0001:00046fe0       ?getExtendedDataIndirectType@UnDecorator@@CA?AVDName@@AEAW4IndirectionKind@@AEA_NH@Z 0000000180047fe0 f   libvcruntimed:undname.obj
 0001:00047300       ?getExternalDataType@UnDecorator@@CA?AVDName@@AEBV2@@Z 0000000180048300 f i libvcruntimed:undname.obj
 0001:000473e0       ?getFloatingPoint@UnDecorator@@CA?AVDName@@H@Z 00000001800483e0 f   libvcruntimed:undname.obj
 0001:00047660       ?getFunctionIndirectType@UnDecorator@@CA?AVDName@@AEBV2@@Z 0000000180048660 f   libvcruntimed:undname.obj
 0001:00047c90       ?getGuardNumber@UnDecorator@@CA?AVDName@@XZ 0000000180048c90 f i libvcruntimed:undname.obj
 0001:00047cb0       ?getLastChar@DName@@QEBADXZ 0000000180048cb0 f i libvcruntimed:undname.obj
 0001:00047d00       ?getLastChar@DNameStatusNode@@UEBADXZ 0000000180048d00 f i libvcruntimed:undname.obj
 0001:00047d40       ?getLastChar@charNode@@UEBADXZ 0000000180048d40 f i libvcruntimed:undname.obj
 0001:00047d50       ?getLastChar@pDNameNode@@UEBADXZ 0000000180048d50 f i libvcruntimed:undname.obj
 0001:00047d90       ?getLastChar@pairNode@@UEBADXZ 0000000180048d90 f i libvcruntimed:undname.obj
 0001:00047e10       ?getLastChar@pcharNode@@UEBADXZ 0000000180048e10 f i libvcruntimed:undname.obj
 0001:00047e50       ?getLexicalFrame@UnDecorator@@CA?AVDName@@XZ 0000000180048e50 f i libvcruntimed:undname.obj
 0001:00047ea0       ?getMemberAccess@UnDecorator@@CA?AVDName@@XZ 0000000180048ea0 f   libvcruntimed:undname.obj
 0001:00047f50       ?getMemoryWithBuffer@_HeapManager@@QEAAPEAX_K@Z 0000000180048f50 f   libvcruntimed:undname.obj
 0001:000480a0       ?getMemoryWithoutBuffer@_HeapManager@@QEAAPEAX_K@Z 00000001800490a0 f   libvcruntimed:undname.obj
 0001:000480f0       ?getNoexcept@UnDecorator@@CA?AVDName@@XZ 00000001800490f0 f   libvcruntimed:undname.obj
 0001:000481a0       ?getNumberOfDimensions@UnDecorator@@CAHXZ 00000001800491a0 f   libvcruntimed:undname.obj
 0001:000482c0       ?getOperatorName@UnDecorator@@CA?AVDName@@_NPEA_N@Z 00000001800492c0 f i libvcruntimed:undname.obj
 0001:000492b0       ?getPointerToMember@UnDecorator@@CA?AVDName@@XZ 000000018004a2b0 f   libvcruntimed:undname.obj
 0001:00049400       ?getPointerType@UnDecorator@@CA?AVDName@@AEBV2@0@Z 000000018004a400 f i libvcruntimed:undname.obj
 0001:00049440       ?getPointerTypeArray@UnDecorator@@CA?AVDName@@AEBV2@0@Z 000000018004a440 f i libvcruntimed:undname.obj
 0001:00049480       ?getPrimaryDataType@UnDecorator@@CA?AVDName@@AEBV2@@Z 000000018004a480 f   libvcruntimed:undname.obj
 0001:00049ab0       ?getPtrRefDataType@UnDecorator@@CA?AVDName@@AEBV2@H@Z 000000018004aab0 f   libvcruntimed:undname.obj
 0001:00049ea0       ?getPtrRefType@UnDecorator@@CA?AVDName@@AEBV2@0W4IndirectionKind@@@Z 000000018004aea0 f   libvcruntimed:undname.obj
 0001:0004a0e0       ?getReferenceType@UnDecorator@@CA?AVDName@@AEBV2@0W4IndirectionKind@@@Z 000000018004b0e0 f i libvcruntimed:undname.obj
 0001:0004a120       ?getRestrictionSpec@UnDecorator@@CA?AVDName@@XZ 000000018004b120 f   libvcruntimed:undname.obj
 0001:0004a3b0       ?getReturnType@UnDecorator@@CA?AVDName@@PEAV2@@Z 000000018004b3b0 f   libvcruntimed:undname.obj
 0001:0004a410       ?getScope@UnDecorator@@CA?AVDName@@XZ 000000018004b410 f   libvcruntimed:undname.obj
 0001:0004ab70       ?getScopedName@UnDecorator@@CA?AVDName@@XZ 000000018004bb70 f   libvcruntimed:undname.obj
 0001:0004ad70       ?getSignedDimension@UnDecorator@@CA?AVDName@@XZ 000000018004bd70 f   libvcruntimed:undname.obj
 0001:0004ae00       ?getStorageConvention@UnDecorator@@CA?AVDName@@XZ 000000018004be00 f i libvcruntimed:undname.obj
 0001:0004ae20       ?getString@DName@@QEBAPEADPEAD0@Z 000000018004be20 f i libvcruntimed:undname.obj
 0001:0004aea0       ?getString@DName@@QEBAPEADPEADH@Z 000000018004bea0 f i libvcruntimed:undname.obj
 0001:0004af60       ?getString@DNameStatusNode@@UEBAPEADPEAD0@Z 000000018004bf60 f i libvcruntimed:undname.obj
 0001:0004afb0       ?getString@charNode@@UEBAPEADPEAD0@Z 000000018004bfb0 f i libvcruntimed:undname.obj
 0001:0004aff0       ?getString@pDNameNode@@UEBAPEADPEAD0@Z 000000018004bff0 f i libvcruntimed:undname.obj
 0001:0004b050       ?getString@pairNode@@UEBAPEADPEAD0@Z 000000018004c050 f i libvcruntimed:undname.obj
 0001:0004b120       ?getString@pcharNode@@UEBAPEADPEAD0@Z 000000018004c120 f i libvcruntimed:undname.obj
 0001:0004b160       ?getStringEncoding@UnDecorator@@CA?AVDName@@W4PrefixKind@@H@Z 000000018004c160 f   libvcruntimed:undname.obj
 0001:0004b2c0       ?getStringHelper@@YAPEADPEADPEBD1H@Z 000000018004c2c0 f i libvcruntimed:undname.obj
 0001:0004b330       ?getStringObject@UnDecorator@@CA?AVDName@@XZ 000000018004c330 f   libvcruntimed:undname.obj
 0001:0004b410       ?getSymbolName@UnDecorator@@CA?AVDName@@XZ 000000018004c410 f i libvcruntimed:undname.obj
 0001:0004b4b0       ?getTemplateArgumentList@UnDecorator@@CA?AVDName@@XZ 000000018004c4b0 f   libvcruntimed:undname.obj
 0001:0004b7f0       ?getTemplateName@UnDecorator@@CA?AVDName@@_N@Z 000000018004c7f0 f   libvcruntimed:undname.obj
 0001:0004ba30       ?getTemplateNonTypeArgument@UnDecorator@@CA?AVDName@@XZ 000000018004ca30 f   libvcruntimed:undname.obj
 0001:0004c2d0       ?getTemplateTypeArgument@UnDecorator@@CA?AVDName@@XZ 000000018004d2d0 f   libvcruntimed:undname.obj
 0001:0004c540       ?getThisType@UnDecorator@@CA?AVDName@@XZ 000000018004d540 f i libvcruntimed:undname.obj
 0001:0004c590       ?getThrowTypes@UnDecorator@@CA?AVDName@@XZ 000000018004d590 f   libvcruntimed:undname.obj
 0001:0004c5e0       ?getTypeEncoding@UnDecorator@@CAHXZ 000000018004d5e0 f i libvcruntimed:undname.obj
 0001:0004d240       ?getUndecoratedName@UnDecorator@@QEAAPEADPEADH@Z 000000018004e240 f i libvcruntimed:undname.obj
 0001:0004d430       ?getUnionObject@UnDecorator@@CA?AVDName@@XZ 000000018004e430 f   libvcruntimed:undname.obj
 0001:0004d540       ?getVCallThunkType@UnDecorator@@CA?AVDName@@XZ 000000018004e540 f i libvcruntimed:undname.obj
 0001:0004d5f0       ?getValue@UnDecorator@@CA?AV?$optional@_K@std@@XZ 000000018004e5f0 f   libvcruntimed:undname.obj
 0001:0004d6c0       ?getValueObject@UnDecorator@@CA?AVDName@@XZ 000000018004e6c0 f   libvcruntimed:undname.obj
 0001:0004d8e0       ?getVbTableType@UnDecorator@@CA?AVDName@@AEBV2@@Z 000000018004e8e0 f i libvcruntimed:undname.obj
 0001:0004d910       ?getVdispMapType@UnDecorator@@CA?AVDName@@AEBV2@@Z 000000018004e910 f i libvcruntimed:undname.obj
 0001:0004d9d0       ?getVfTableType@UnDecorator@@CA?AVDName@@AEBV2@@Z 000000018004e9d0 f i libvcruntimed:undname.obj
 0001:0004dc70       ?getZName@UnDecorator@@CA?AVDName@@_N0@Z 000000018004ec70 f   libvcruntimed:undname.obj
 0001:0004e0e0       ?haveTemplateParameters@UnDecorator@@SAHXZ 000000018004f0e0 f i libvcruntimed:undname.obj
 0001:0004e0f0       ?isArray@DName@@QEBAHXZ    000000018004f0f0 f i libvcruntimed:undname.obj
 0001:0004e110       ?isComArray@DName@@QEBAHXZ 000000018004f110 f i libvcruntimed:undname.obj
 0001:0004e130       ?isEmpty@DName@@QEBAHXZ    000000018004f130 f i libvcruntimed:undname.obj
 0001:0004e160       ?isFull@Replicator@@QEBAHXZ 000000018004f160 f i libvcruntimed:undname.obj
 0001:0004e190       ?isNoTE@DName@@QEBAHXZ     000000018004f190 f i libvcruntimed:undname.obj
 0001:0004e1b0       ?isPinPtr@DName@@QEBAHXZ   000000018004f1b0 f i libvcruntimed:undname.obj
 0001:0004e1d0       ?isPtrRef@DName@@QEBAHXZ   000000018004f1d0 f i libvcruntimed:undname.obj
 0001:0004e1f0       ?isUDC@DName@@QEBAHXZ      000000018004f1f0 f i libvcruntimed:undname.obj
 0001:0004e240       ?isUDTThunk@DName@@QEBAHXZ 000000018004f240 f i libvcruntimed:undname.obj
 0001:0004e290       ?isVCallThunk@DName@@QEBAHXZ 000000018004f290 f i libvcruntimed:undname.obj
 0001:0004e2b0       ?isValid@DName@@QEBAHXZ    000000018004f2b0 f i libvcruntimed:undname.obj
 0001:0004e2f0       ?length@DName@@QEBAHXZ     000000018004f2f0 f i libvcruntimed:undname.obj
 0001:0004e340       ?length@DNameStatusNode@@UEBAHXZ 000000018004f340 f i libvcruntimed:undname.obj
 0001:0004e350       ?length@charNode@@UEBAHXZ  000000018004f350 f i libvcruntimed:undname.obj
 0001:0004e360       ?length@pDNameNode@@UEBAHXZ 000000018004f360 f i libvcruntimed:undname.obj
 0001:0004e3a0       ?length@pairNode@@UEBAHXZ  000000018004f3a0 f i libvcruntimed:undname.obj
 0001:0004e430       ?length@pcharNode@@UEBAHXZ 000000018004f430 f i libvcruntimed:undname.obj
 0001:0004e440       ?make@DNameStatusNode@@SAPEBV1@W4DNameStatus@@@Z 000000018004f440 f i libvcruntimed:undname.obj
 0001:0004e490       ?parseDecoratedName@UnDecorator@@CA?AVDName@@XZ 000000018004f490 f   libvcruntimed:undname.obj
 0001:0004e680       ?raw_length@DNameStatusNode@@UEBAHXZ 000000018004f680 f i libvcruntimed:undname.obj
 0001:0004e6a0       ?raw_length@charNode@@UEBAHXZ 000000018004f6a0 f i libvcruntimed:undname.obj
 0001:0004e6c0       ?raw_length@pDNameNode@@UEBAHXZ 000000018004f6c0 f i libvcruntimed:undname.obj
 0001:0004e6d0       ?raw_length@pairNode@@UEBAHXZ 000000018004f6d0 f i libvcruntimed:undname.obj
 0001:0004e6e0       ?raw_length@pcharNode@@UEBAHXZ 000000018004f6e0 f i libvcruntimed:undname.obj
 0001:0004e700       ?setIsArray@DName@@QEAAXXZ 000000018004f700 f i libvcruntimed:undname.obj
 0001:0004e720       ?setIsComArray@DName@@QEAAXXZ 000000018004f720 f i libvcruntimed:undname.obj
 0001:0004e740       ?setIsNoTE@DName@@QEAAXXZ  000000018004f740 f i libvcruntimed:undname.obj
 0001:0004e760       ?setIsPinPtr@DName@@QEAAXXZ 000000018004f760 f i libvcruntimed:undname.obj
 0001:0004e780       ?setIsUDC@DName@@QEAAXXZ   000000018004f780 f i libvcruntimed:undname.obj
 0001:0004e7b0       ?setIsVCallThunk@DName@@QEAAXXZ 000000018004f7b0 f i libvcruntimed:undname.obj
 0001:0004e7d0       ?setPtrRef@DName@@QEAAAEAV1@XZ 000000018004f7d0 f i libvcruntimed:undname.obj
 0001:0004e7f0       ?status@DName@@QEBA?AW4DNameStatus@@XZ 000000018004f7f0 f i libvcruntimed:undname.obj
 0001:0004e920       __unDName                  000000018004f920 f   libvcruntimed:undname.obj
 0001:0004e980       __unDNameEx                000000018004f980 f   libvcruntimed:undname.obj
 0001:0004ea40       unDNameGenerateCHPE        000000018004fa40 f   libvcruntimed:undname.obj
 0001:0004eaf0       ??$__crt_interlocked_exchange_pointer@UHINSTANCE__@@PEAU1@@@YAPEAUHINSTANCE__@@PEDSEAU0@QEAU0@@Z 000000018004faf0 f i libvcruntimed:winapi_downlevel.obj
 0001:0004eb10       ??$__crt_interlocked_exchange_pointer@UHINSTANCE__@@PEAX@@YAPEAUHINSTANCE__@@PEDSEAU0@QEAX@Z 000000018004fb10 f i libvcruntimed:winapi_downlevel.obj
 0001:0004eb30       ??$__crt_interlocked_exchange_pointer@XPEAX@@YAPEAXPEDSEAXQEAX@Z 000000018004fb30 f i libvcruntimed:winapi_downlevel.obj
 0001:0004eb50       ??$__crt_interlocked_read_pointer@UHINSTANCE__@@@@YAPEAUHINSTANCE__@@PEDSEAU0@@Z 000000018004fb50 f i libvcruntimed:winapi_downlevel.obj
 0001:0004eb70       ??$__crt_interlocked_read_pointer@X@@YAPEAXPEDSEAX@Z 000000018004fb70 f i libvcruntimed:winapi_downlevel.obj
 0001:0004f080       __vcrt_FlsAlloc            0000000180050080 f   libvcruntimed:winapi_downlevel.obj
 0001:0004f0d0       __vcrt_FlsFree             00000001800500d0 f   libvcruntimed:winapi_downlevel.obj
 0001:0004f120       __vcrt_FlsGetValue         0000000180050120 f   libvcruntimed:winapi_downlevel.obj
 0001:0004f170       __vcrt_FlsSetValue         0000000180050170 f   libvcruntimed:winapi_downlevel.obj
 0001:0004f1d0       __vcrt_InitializeCriticalSectionEx 00000001800501d0 f   libvcruntimed:winapi_downlevel.obj
 0001:0004f250       _CallSettingFrame          0000000180050250 f   libvcruntimed:handlers.obj
 0001:0004f2a0       _CallSettingFrame_LookupContinuationIndex 00000001800502a0 f   libvcruntimed:handlers.obj
 0001:0004f2d0       _CallSettingFrame_NotifyContinuationAddr 00000001800502d0 f   libvcruntimed:handlers.obj
 0001:0004f300       _CallSettingFrameEncoded   0000000180050300 f   libvcruntimed:handlers.obj
 0001:0004f350       ??$?0AEBV?$stream_output_adapter@D@__crt_stdio_output@@AEB_KAEBQEBDAEAV__crt_cached_ptd_host@@AEBQEAD@?$format_validation_base@DV?$stream_output_adapter@D@__crt_stdio_output@@@__crt_stdio_output@@IEAA@AEBV?$stream_output_adapter@D@1@AEB_KAEBQEBDAEAV__crt_cached_ptd_host@@AEBQEAD@Z 0000000180050350 f i libucrtd:output.obj
 0001:0004f3a0       ??$?0AEBV?$stream_output_adapter@D@__crt_stdio_output@@AEB_KAEBQEBDAEAV__crt_cached_ptd_host@@AEBQEAD@?$positional_parameter_base@DV?$stream_output_adapter@D@__crt_stdio_output@@@__crt_stdio_output@@IEAA@AEBV?$stream_output_adapter@D@1@AEB_KAEBQEBDAEAV__crt_cached_ptd_host@@AEBQEAD@Z 00000001800503a0 f i libucrtd:output.obj
 0001:0004f440       ??$?0AEBV?$stream_output_adapter@D@__crt_stdio_output@@AEB_KAEBQEBDAEAV__crt_cached_ptd_host@@AEBQEAD@?$standard_base@DV?$stream_output_adapter@D@__crt_stdio_output@@@__crt_stdio_output@@IEAA@AEBV?$stream_output_adapter@D@1@AEB_KAEBQEBDAEAV__crt_cached_ptd_host@@AEBQEAD@Z 0000000180050440 f i libucrtd:output.obj
 0001:0004f4b0       ??$?0AEBV?$stream_output_adapter@_W@__crt_stdio_output@@AEB_KAEBQEB_WAEAV__crt_cached_ptd_host@@AEBQEAD@?$format_validation_base@_WV?$stream_output_adapter@_W@__crt_stdio_output@@@__crt_stdio_output@@IEAA@AEBV?$stream_output_adapter@_W@1@AEB_KAEBQEB_WAEAV__crt_cached_ptd_host@@AEBQEAD@Z 00000001800504b0 f i libucrtd:output.obj
 0001:0004f500       ??$?0AEBV?$stream_output_adapter@_W@__crt_stdio_output@@AEB_KAEBQEB_WAEAV__crt_cached_ptd_host@@AEBQEAD@?$positional_parameter_base@_WV?$stream_output_adapter@_W@__crt_stdio_output@@@__crt_stdio_output@@IEAA@AEBV?$stream_output_adapter@_W@1@AEB_KAEBQEB_WAEAV__crt_cached_ptd_host@@AEBQEAD@Z 0000000180050500 f i libucrtd:output.obj
 0001:0004f5a0       ??$?0AEBV?$stream_output_adapter@_W@__crt_stdio_output@@AEB_KAEBQEB_WAEAV__crt_cached_ptd_host@@AEBQEAD@?$standard_base@_WV?$stream_output_adapter@_W@__crt_stdio_output@@@__crt_stdio_output@@IEAA@AEBV?$stream_output_adapter@_W@1@AEB_KAEBQEB_WAEAV__crt_cached_ptd_host@@AEBQEAD@Z 00000001800505a0 f i libucrtd:output.obj
 0001:0004f610       ??$?0AEBV?$string_output_adapter@D@__crt_stdio_output@@AEB_KAEBQEBDAEAV__crt_cached_ptd_host@@AEBQEAD@?$format_validation_base@DV?$string_output_adapter@D@__crt_stdio_output@@@__crt_stdio_output@@IEAA@AEBV?$string_output_adapter@D@1@AEB_KAEBQEBDAEAV__crt_cached_ptd_host@@AEBQEAD@Z 0000000180050610 f i libucrtd:output.obj
 0001:0004f660       ??$?0AEBV?$string_output_adapter@D@__crt_stdio_output@@AEB_KAEBQEBDAEAV__crt_cached_ptd_host@@AEBQEAD@?$positional_parameter_base@DV?$string_output_adapter@D@__crt_stdio_output@@@__crt_stdio_output@@IEAA@AEBV?$string_output_adapter@D@1@AEB_KAEBQEBDAEAV__crt_cached_ptd_host@@AEBQEAD@Z 0000000180050660 f i libucrtd:output.obj
 0001:0004f700       ??$?0AEBV?$string_output_adapter@D@__crt_stdio_output@@AEB_KAEBQEBDAEAV__crt_cached_ptd_host@@AEBQEAD@?$standard_base@DV?$string_output_adapter@D@__crt_stdio_output@@@__crt_stdio_output@@IEAA@AEBV?$string_output_adapter@D@1@AEB_KAEBQEBDAEAV__crt_cached_ptd_host@@AEBQEAD@Z 0000000180050700 f i libucrtd:output.obj
 0001:0004f770       ??$?0AEBV?$string_output_adapter@_W@__crt_stdio_output@@AEB_KAEBQEB_WAEAV__crt_cached_ptd_host@@AEBQEAD@?$format_validation_base@_WV?$string_output_adapter@_W@__crt_stdio_output@@@__crt_stdio_output@@IEAA@AEBV?$string_output_adapter@_W@1@AEB_KAEBQEB_WAEAV__crt_cached_ptd_host@@AEBQEAD@Z 0000000180050770 f i libucrtd:output.obj
 0001:0004f7c0       ??$?0AEBV?$string_output_adapter@_W@__crt_stdio_output@@AEB_KAEBQEB_WAEAV__crt_cached_ptd_host@@AEBQEAD@?$positional_parameter_base@_WV?$string_output_adapter@_W@__crt_stdio_output@@@__crt_stdio_output@@IEAA@AEBV?$string_output_adapter@_W@1@AEB_KAEBQEB_WAEAV__crt_cached_ptd_host@@AEBQEAD@Z 00000001800507c0 f i libucrtd:output.obj
 0001:0004f860       ??$?0AEBV?$string_output_adapter@_W@__crt_stdio_output@@AEB_KAEBQEB_WAEAV__crt_cached_ptd_host@@AEBQEAD@?$standard_base@_WV?$string_output_adapter@_W@__crt_stdio_output@@@__crt_stdio_output@@IEAA@AEBV?$string_output_adapter@_W@1@AEB_KAEBQEB_WAEAV__crt_cached_ptd_host@@AEBQEAD@Z 0000000180050860 f i libucrtd:output.obj
 0001:0004fcf0       ??$__crt_interlocked_read@J@@YAJPEDJ@Z 0000000180050cf0 f i libucrtd:output.obj
 0001:0004fd10       ??$_tcstol_internal@DPEAPEAD$0A@@@YAJAEAV__crt_cached_ptd_host@@QEBDQEAPEADH@Z 0000000180050d10 f i libucrtd:output.obj
 0001:0004fd60       ??$_tcstol_internal@_WPEAPEA_W$0A@@@YAJAEAV__crt_cached_ptd_host@@QEB_WQEAPEA_WH@Z 0000000180050d60 f i libucrtd:output.obj
 0001:00053d80       ??$count@D@formatting_buffer@__crt_stdio_output@@QEBA_KXZ 0000000180054d80 f i libucrtd:output.obj
 0001:00053dd0       ??$count@_W@formatting_buffer@__crt_stdio_output@@QEBA_KXZ 0000000180054dd0 f i libucrtd:output.obj
 0001:00053e20       ??$data@D@formatting_buffer@__crt_stdio_output@@QEAAPEADXZ 0000000180054e20 f i libucrtd:output.obj
 0001:00053e70       ??$data@_W@formatting_buffer@__crt_stdio_output@@QEAAPEA_WXZ 0000000180054e70 f i libucrtd:output.obj
 0001:00053ec0       ??$ensure_buffer_is_big_enough@D@formatting_buffer@__crt_stdio_output@@QEAA_N_KAEAV__crt_cached_ptd_host@@@Z 0000000180054ec0 f i libucrtd:output.obj
 0001:00054000       ??$ensure_buffer_is_big_enough@_W@formatting_buffer@__crt_stdio_output@@QEAA_N_KAEAV__crt_cached_ptd_host@@@Z 0000000180055000 f i libucrtd:output.obj
 0001:00054140       ??$extract_argument_from_va_list@C_J@?$positional_parameter_base@DV?$stream_output_adapter@D@__crt_stdio_output@@@__crt_stdio_output@@IEAA_NAEA_J@Z 0000000180055140 f i libucrtd:output.obj
 0001:00054300       ??$extract_argument_from_va_list@C_J@?$positional_parameter_base@DV?$string_output_adapter@D@__crt_stdio_output@@@__crt_stdio_output@@IEAA_NAEA_J@Z 0000000180055300 f i libucrtd:output.obj
 0001:000544c0       ??$extract_argument_from_va_list@C_J@?$positional_parameter_base@_WV?$stream_output_adapter@_W@__crt_stdio_output@@@__crt_stdio_output@@IEAA_NAEA_J@Z 00000001800554c0 f i libucrtd:output.obj
 0001:00054680       ??$extract_argument_from_va_list@C_J@?$positional_parameter_base@_WV?$string_output_adapter@_W@__crt_stdio_output@@@__crt_stdio_output@@IEAA_NAEA_J@Z 0000000180055680 f i libucrtd:output.obj
 0001:00054840       ??$extract_argument_from_va_list@C_J@?$standard_base@DV?$stream_output_adapter@D@__crt_stdio_output@@@__crt_stdio_output@@IEAA_NAEA_J@Z 0000000180055840 f i libucrtd:output.obj
 0001:00054880       ??$extract_argument_from_va_list@C_J@?$standard_base@DV?$string_output_adapter@D@__crt_stdio_output@@@__crt_stdio_output@@IEAA_NAEA_J@Z 0000000180055880 f i libucrtd:output.obj
 0001:000548c0       ??$extract_argument_from_va_list@C_J@?$standard_base@_WV?$stream_output_adapter@_W@__crt_stdio_output@@@__crt_stdio_output@@IEAA_NAEA_J@Z 00000001800558c0 f i libucrtd:output.obj
 0001:00054900       ??$extract_argument_from_va_list@C_J@?$standard_base@_WV?$string_output_adapter@_W@__crt_stdio_output@@@__crt_stdio_output@@IEAA_NAEA_J@Z 0000000180055900 f i libucrtd:output.obj
 0001:00054940       ??$extract_argument_from_va_list@E_J@?$positional_parameter_base@DV?$stream_output_adapter@D@__crt_stdio_output@@@__crt_stdio_output@@IEAA_NAEA_J@Z 0000000180055940 f i libucrtd:output.obj
 0001:00054b00       ??$extract_argument_from_va_list@E_J@?$positional_parameter_base@DV?$string_output_adapter@D@__crt_stdio_output@@@__crt_stdio_output@@IEAA_NAEA_J@Z 0000000180055b00 f i libucrtd:output.obj
 0001:00054cc0       ??$extract_argument_from_va_list@E_J@?$positional_parameter_base@_WV?$stream_output_adapter@_W@__crt_stdio_output@@@__crt_stdio_output@@IEAA_NAEA_J@Z 0000000180055cc0 f i libucrtd:output.obj
 0001:00054e80       ??$extract_argument_from_va_list@E_J@?$positional_parameter_base@_WV?$string_output_adapter@_W@__crt_stdio_output@@@__crt_stdio_output@@IEAA_NAEA_J@Z 0000000180055e80 f i libucrtd:output.obj
 0001:00055040       ??$extract_argument_from_va_list@E_J@?$standard_base@DV?$stream_output_adapter@D@__crt_stdio_output@@@__crt_stdio_output@@IEAA_NAEA_J@Z 0000000180056040 f i libucrtd:output.obj
 0001:00055080       ??$extract_argument_from_va_list@E_J@?$standard_base@DV?$string_output_adapter@D@__crt_stdio_output@@@__crt_stdio_output@@IEAA_NAEA_J@Z 0000000180056080 f i libucrtd:output.obj
 0001:000550c0       ??$extract_argument_from_va_list@E_J@?$standard_base@_WV?$stream_output_adapter@_W@__crt_stdio_output@@@__crt_stdio_output@@IEAA_NAEA_J@Z 00000001800560c0 f i libucrtd:output.obj
 0001:00055100       ??$extract_argument_from_va_list@E_J@?$standard_base@_WV?$string_output_adapter@_W@__crt_stdio_output@@@__crt_stdio_output@@IEAA_NAEA_J@Z 0000000180056100 f i libucrtd:output.obj
 0001:00055140       ??$extract_argument_from_va_list@F_J@?$positional_parameter_base@DV?$stream_output_adapter@D@__crt_stdio_output@@@__crt_stdio_output@@IEAA_NAEA_J@Z 0000000180056140 f i libucrtd:output.obj
 0001:00055300       ??$extract_argument_from_va_list@F_J@?$positional_parameter_base@DV?$string_output_adapter@D@__crt_stdio_output@@@__crt_stdio_output@@IEAA_NAEA_J@Z 0000000180056300 f i libucrtd:output.obj
 0001:000554c0       ??$extract_argument_from_va_list@F_J@?$positional_parameter_base@_WV?$stream_output_adapter@_W@__crt_stdio_output@@@__crt_stdio_output@@IEAA_NAEA_J@Z 00000001800564c0 f i libucrtd:output.obj
 0001:00055680       ??$extract_argument_from_va_list@F_J@?$positional_parameter_base@_WV?$string_output_adapter@_W@__crt_stdio_output@@@__crt_stdio_output@@IEAA_NAEA_J@Z 0000000180056680 f i libucrtd:output.obj
 0001:00055840       ??$extract_argument_from_va_list@F_J@?$standard_base@DV?$stream_output_adapter@D@__crt_stdio_output@@@__crt_stdio_output@@IEAA_NAEA_J@Z 0000000180056840 f i libucrtd:output.obj
 0001:00055880       ??$extract_argument_from_va_list@F_J@?$standard_base@DV?$string_output_adapter@D@__crt_stdio_output@@@__crt_stdio_output@@IEAA_NAEA_J@Z 0000000180056880 f i libucrtd:output.obj
 0001:000558c0       ??$extract_argument_from_va_list@F_J@?$standard_base@_WV?$stream_output_adapter@_W@__crt_stdio_output@@@__crt_stdio_output@@IEAA_NAEA_J@Z 00000001800568c0 f i libucrtd:output.obj
 0001:00055900       ??$extract_argument_from_va_list@F_J@?$standard_base@_WV?$string_output_adapter@_W@__crt_stdio_output@@@__crt_stdio_output@@IEAA_NAEA_J@Z 0000000180056900 f i libucrtd:output.obj
 0001:00055940       ??$extract_argument_from_va_list@GD@?$positional_parameter_base@DV?$stream_output_adapter@D@__crt_stdio_output@@@__crt_stdio_output@@IEAA_NAEAD@Z 0000000180056940 f i libucrtd:output.obj
 0001:00055b00       ??$extract_argument_from_va_list@GD@?$positional_parameter_base@DV?$string_output_adapter@D@__crt_stdio_output@@@__crt_stdio_output@@IEAA_NAEAD@Z 0000000180056b00 f i libucrtd:output.obj
 0001:00055cc0       ??$extract_argument_from_va_list@GD@?$standard_base@DV?$stream_output_adapter@D@__crt_stdio_output@@@__crt_stdio_output@@IEAA_NAEAD@Z 0000000180056cc0 f i libucrtd:output.obj
 0001:00055cf0       ??$extract_argument_from_va_list@GD@?$standard_base@DV?$string_output_adapter@D@__crt_stdio_output@@@__crt_stdio_output@@IEAA_NAEAD@Z 0000000180056cf0 f i libucrtd:output.obj
 0001:00055d20       ??$extract_argument_from_va_list@G_J@?$positional_parameter_base@DV?$stream_output_adapter@D@__crt_stdio_output@@@__crt_stdio_output@@IEAA_NAEA_J@Z 0000000180056d20 f i libucrtd:output.obj
 0001:00055ee0       ??$extract_argument_from_va_list@G_J@?$positional_parameter_base@DV?$string_output_adapter@D@__crt_stdio_output@@@__crt_stdio_output@@IEAA_NAEA_J@Z 0000000180056ee0 f i libucrtd:output.obj
 0001:000560a0       ??$extract_argument_from_va_list@G_J@?$positional_parameter_base@_WV?$stream_output_adapter@_W@__crt_stdio_output@@@__crt_stdio_output@@IEAA_NAEA_J@Z 00000001800570a0 f i libucrtd:output.obj
 0001:00056260       ??$extract_argument_from_va_list@G_J@?$positional_parameter_base@_WV?$string_output_adapter@_W@__crt_stdio_output@@@__crt_stdio_output@@IEAA_NAEA_J@Z 0000000180057260 f i libucrtd:output.obj
 0001:00056420       ??$extract_argument_from_va_list@G_J@?$standard_base@DV?$stream_output_adapter@D@__crt_stdio_output@@@__crt_stdio_output@@IEAA_NAEA_J@Z 0000000180057420 f i libucrtd:output.obj
 0001:00056460       ??$extract_argument_from_va_list@G_J@?$standard_base@DV?$string_output_adapter@D@__crt_stdio_output@@@__crt_stdio_output@@IEAA_NAEA_J@Z 0000000180057460 f i libucrtd:output.obj
 0001:000564a0       ??$extract_argument_from_va_list@G_J@?$standard_base@_WV?$stream_output_adapter@_W@__crt_stdio_output@@@__crt_stdio_output@@IEAA_NAEA_J@Z 00000001800574a0 f i libucrtd:output.obj
 0001:000564e0       ??$extract_argument_from_va_list@G_J@?$standard_base@_WV?$string_output_adapter@_W@__crt_stdio_output@@@__crt_stdio_output@@IEAA_NAEA_J@Z 00000001800574e0 f i libucrtd:output.obj
 0001:00056520       ??$extract_argument_from_va_list@H_J@?$positional_parameter_base@DV?$stream_output_adapter@D@__crt_stdio_output@@@__crt_stdio_output@@IEAA_NAEA_J@Z 0000000180057520 f i libucrtd:output.obj
 0001:000566e0       ??$extract_argument_from_va_list@H_J@?$positional_parameter_base@DV?$string_output_adapter@D@__crt_stdio_output@@@__crt_stdio_output@@IEAA_NAEA_J@Z 00000001800576e0 f i libucrtd:output.obj
 0001:000568a0       ??$extract_argument_from_va_list@H_J@?$positional_parameter_base@_WV?$stream_output_adapter@_W@__crt_stdio_output@@@__crt_stdio_output@@IEAA_NAEA_J@Z 00000001800578a0 f i libucrtd:output.obj
 0001:00056a60       ??$extract_argument_from_va_list@H_J@?$positional_parameter_base@_WV?$string_output_adapter@_W@__crt_stdio_output@@@__crt_stdio_output@@IEAA_NAEA_J@Z 0000000180057a60 f i libucrtd:output.obj
 0001:00056c20       ??$extract_argument_from_va_list@H_J@?$standard_base@DV?$stream_output_adapter@D@__crt_stdio_output@@@__crt_stdio_output@@IEAA_NAEA_J@Z 0000000180057c20 f i libucrtd:output.obj
 0001:00056c50       ??$extract_argument_from_va_list@H_J@?$standard_base@DV?$string_output_adapter@D@__crt_stdio_output@@@__crt_stdio_output@@IEAA_NAEA_J@Z 0000000180057c50 f i libucrtd:output.obj
 0001:00056c80       ??$extract_argument_from_va_list@H_J@?$standard_base@_WV?$stream_output_adapter@_W@__crt_stdio_output@@@__crt_stdio_output@@IEAA_NAEA_J@Z 0000000180057c80 f i libucrtd:output.obj
 0001:00056cb0       ??$extract_argument_from_va_list@H_J@?$standard_base@_WV?$string_output_adapter@_W@__crt_stdio_output@@@__crt_stdio_output@@IEAA_NAEA_J@Z 0000000180057cb0 f i libucrtd:output.obj
 0001:00056ce0       ??$extract_argument_from_va_list@I_J@?$positional_parameter_base@DV?$stream_output_adapter@D@__crt_stdio_output@@@__crt_stdio_output@@IEAA_NAEA_J@Z 0000000180057ce0 f i libucrtd:output.obj
 0001:00056ea0       ??$extract_argument_from_va_list@I_J@?$positional_parameter_base@DV?$string_output_adapter@D@__crt_stdio_output@@@__crt_stdio_output@@IEAA_NAEA_J@Z 0000000180057ea0 f i libucrtd:output.obj
 0001:00057060       ??$extract_argument_from_va_list@I_J@?$positional_parameter_base@_WV?$stream_output_adapter@_W@__crt_stdio_output@@@__crt_stdio_output@@IEAA_NAEA_J@Z 0000000180058060 f i libucrtd:output.obj
 0001:00057220       ??$extract_argument_from_va_list@I_J@?$positional_parameter_base@_WV?$string_output_adapter@_W@__crt_stdio_output@@@__crt_stdio_output@@IEAA_NAEA_J@Z 0000000180058220 f i libucrtd:output.obj
 0001:000573e0       ??$extract_argument_from_va_list@I_J@?$standard_base@DV?$stream_output_adapter@D@__crt_stdio_output@@@__crt_stdio_output@@IEAA_NAEA_J@Z 00000001800583e0 f i libucrtd:output.obj
 0001:00057410       ??$extract_argument_from_va_list@I_J@?$standard_base@DV?$string_output_adapter@D@__crt_stdio_output@@@__crt_stdio_output@@IEAA_NAEA_J@Z 0000000180058410 f i libucrtd:output.obj
 0001:00057440       ??$extract_argument_from_va_list@I_J@?$standard_base@_WV?$stream_output_adapter@_W@__crt_stdio_output@@@__crt_stdio_output@@IEAA_NAEA_J@Z 0000000180058440 f i libucrtd:output.obj
 0001:00057470       ??$extract_argument_from_va_list@I_J@?$standard_base@_WV?$string_output_adapter@_W@__crt_stdio_output@@@__crt_stdio_output@@IEAA_NAEA_J@Z 0000000180058470 f i libucrtd:output.obj
 0001:000574a0       ??$extract_argument_from_va_list@PEADPEAD@?$positional_parameter_base@DV?$stream_output_adapter@D@__crt_stdio_output@@@__crt_stdio_output@@IEAA_NAEAPEAD@Z 00000001800584a0 f i libucrtd:output.obj
 0001:00057660       ??$extract_argument_from_va_list@PEADPEAD@?$positional_parameter_base@DV?$string_output_adapter@D@__crt_stdio_output@@@__crt_stdio_output@@IEAA_NAEAPEAD@Z 0000000180058660 f i libucrtd:output.obj
 0001:00057820       ??$extract_argument_from_va_list@PEADPEAD@?$positional_parameter_base@_WV?$stream_output_adapter@_W@__crt_stdio_output@@@__crt_stdio_output@@IEAA_NAEAPEAD@Z 0000000180058820 f i libucrtd:output.obj
 0001:000579e0       ??$extract_argument_from_va_list@PEADPEAD@?$positional_parameter_base@_WV?$string_output_adapter@_W@__crt_stdio_output@@@__crt_stdio_output@@IEAA_NAEAPEAD@Z 00000001800589e0 f i libucrtd:output.obj
 0001:00057ba0       ??$extract_argument_from_va_list@PEADPEAD@?$standard_base@DV?$stream_output_adapter@D@__crt_stdio_output@@@__crt_stdio_output@@IEAA_NAEAPEAD@Z 0000000180058ba0 f i libucrtd:output.obj
 0001:00057bd0       ??$extract_argument_from_va_list@PEADPEAD@?$standard_base@DV?$string_output_adapter@D@__crt_stdio_output@@@__crt_stdio_output@@IEAA_NAEAPEAD@Z 0000000180058bd0 f i libucrtd:output.obj
 0001:00057c00       ??$extract_argument_from_va_list@PEADPEAD@?$standard_base@_WV?$stream_output_adapter@_W@__crt_stdio_output@@@__crt_stdio_output@@IEAA_NAEAPEAD@Z 0000000180058c00 f i libucrtd:output.obj
 0001:00057c30       ??$extract_argument_from_va_list@PEADPEAD@?$standard_base@_WV?$string_output_adapter@_W@__crt_stdio_output@@@__crt_stdio_output@@IEAA_NAEAPEAD@Z 0000000180058c30 f i libucrtd:output.obj
 0001:00057c60       ??$extract_argument_from_va_list@PEAUansi_string@?1??type_case_Z@?$output_processor@DV?$stream_output_adapter@D@__crt_stdio_output@@V?$format_validation_base@DV?$stream_output_adapter@D@__crt_stdio_output@@@2@@__crt_stdio_output@@AEAA_NXZ@PEAU1?1??234@AEAA_NXZ@@?$standard_base@DV?$stream_output_adapter@D@__crt_stdio_output@@@__crt_stdio_output@@IEAA_NAEAPEAUansi_string@?1??type_case_Z@?$output_processor@DV?$stream_output_adapter@D@__crt_stdio_output@@V?$format_validation_base@DV?$stream_output_adapter@D@__crt_stdio_output@@@2@@1@AEAA_NXZ@@Z 0000000180058c60 f i libucrtd:output.obj
 0001:00057c90       ??$extract_argument_from_va_list@PEAUansi_string@?1??type_case_Z@?$output_processor@DV?$stream_output_adapter@D@__crt_stdio_output@@V?$positional_parameter_base@DV?$stream_output_adapter@D@__crt_stdio_output@@@2@@__crt_stdio_output@@AEAA_NXZ@PEAU1?1??234@AEAA_NXZ@@?$positional_parameter_base@DV?$stream_output_adapter@D@__crt_stdio_output@@@__crt_stdio_output@@IEAA_NAEAPEAUansi_string@?1??type_case_Z@?$output_processor@DV?$stream_output_adapter@D@__crt_stdio_output@@V?$positional_parameter_base@DV?$stream_output_adapter@D@__crt_stdio_output@@@2@@1@AEAA_NXZ@@Z 0000000180058c90 f i libucrtd:output.obj
 0001:00057e50       ??$extract_argument_from_va_list@PEAUansi_string@?1??type_case_Z@?$output_processor@DV?$stream_output_adapter@D@__crt_stdio_output@@V?$positional_parameter_base@DV?$stream_output_adapter@D@__crt_stdio_output@@@2@@__crt_stdio_output@@AEAA_NXZ@PEAU1?1??234@AEAA_NXZ@@?$standard_base@DV?$stream_output_adapter@D@__crt_stdio_output@@@__crt_stdio_output@@IEAA_NAEAPEAUansi_string@?1??type_case_Z@?$output_processor@DV?$stream_output_adapter@D@__crt_stdio_output@@V?$positional_parameter_base@DV?$stream_output_adapter@D@__crt_stdio_output@@@2@@1@AEAA_NXZ@@Z 0000000180058e50 f i libucrtd:output.obj
 0001:00057e80       ??$extract_argument_from_va_list@PEAUansi_string@?1??type_case_Z@?$output_processor@DV?$stream_output_adapter@D@__crt_stdio_output@@V?$standard_base@DV?$stream_output_adapter@D@__crt_stdio_output@@@2@@__crt_stdio_output@@AEAA_NXZ@PEAU1?1??234@AEAA_NXZ@@?$standard_base@DV?$stream_output_adapter@D@__crt_stdio_output@@@__crt_stdio_output@@IEAA_NAEAPEAUansi_string@?1??type_case_Z@?$output_processor@DV?$stream_output_adapter@D@__crt_stdio_output@@V?$standard_base@DV?$stream_output_adapter@D@__crt_stdio_output@@@2@@1@AEAA_NXZ@@Z 0000000180058e80 f i libucrtd:output.obj
 0001:00057eb0       ??$extract_argument_from_va_list@PEAUansi_string@?1??type_case_Z@?$output_processor@DV?$string_output_adapter@D@__crt_stdio_output@@V?$format_validation_base@DV?$string_output_adapter@D@__crt_stdio_output@@@2@@__crt_stdio_output@@AEAA_NXZ@PEAU1?1??234@AEAA_NXZ@@?$standard_base@DV?$string_output_adapter@D@__crt_stdio_output@@@__crt_stdio_output@@IEAA_NAEAPEAUansi_string@?1??type_case_Z@?$output_processor@DV?$string_output_adapter@D@__crt_stdio_output@@V?$format_validation_base@DV?$string_output_adapter@D@__crt_stdio_output@@@2@@1@AEAA_NXZ@@Z 0000000180058eb0 f i libucrtd:output.obj
 0001:00057ee0       ??$extract_argument_from_va_list@PEAUansi_string@?1??type_case_Z@?$output_processor@DV?$string_output_adapter@D@__crt_stdio_output@@V?$positional_parameter_base@DV?$string_output_adapter@D@__crt_stdio_output@@@2@@__crt_stdio_output@@AEAA_NXZ@PEAU1?1??234@AEAA_NXZ@@?$positional_parameter_base@DV?$string_output_adapter@D@__crt_stdio_output@@@__crt_stdio_output@@IEAA_NAEAPEAUansi_string@?1??type_case_Z@?$output_processor@DV?$string_output_adapter@D@__crt_stdio_output@@V?$positional_parameter_base@DV?$string_output_adapter@D@__crt_stdio_output@@@2@@1@AEAA_NXZ@@Z 0000000180058ee0 f i libucrtd:output.obj
 0001:000580a0       ??$extract_argument_from_va_list@PEAUansi_string@?1??type_case_Z@?$output_processor@DV?$string_output_adapter@D@__crt_stdio_output@@V?$positional_parameter_base@DV?$string_output_adapter@D@__crt_stdio_output@@@2@@__crt_stdio_output@@AEAA_NXZ@PEAU1?1??234@AEAA_NXZ@@?$standard_base@DV?$string_output_adapter@D@__crt_stdio_output@@@__crt_stdio_output@@IEAA_NAEAPEAUansi_string@?1??type_case_Z@?$output_processor@DV?$string_output_adapter@D@__crt_stdio_output@@V?$positional_parameter_base@DV?$string_output_adapter@D@__crt_stdio_output@@@2@@1@AEAA_NXZ@@Z 00000001800590a0 f i libucrtd:output.obj
 0001:000580d0       ??$extract_argument_from_va_list@PEAUansi_string@?1??type_case_Z@?$output_processor@DV?$string_output_adapter@D@__crt_stdio_output@@V?$standard_base@DV?$string_output_adapter@D@__crt_stdio_output@@@2@@__crt_stdio_output@@AEAA_NXZ@PEAU1?1??234@AEAA_NXZ@@?$standard_base@DV?$string_output_adapter@D@__crt_stdio_output@@@__crt_stdio_output@@IEAA_NAEAPEAUansi_string@?1??type_case_Z@?$output_processor@DV?$string_output_adapter@D@__crt_stdio_output@@V?$standard_base@DV?$string_output_adapter@D@__crt_stdio_output@@@2@@1@AEAA_NXZ@@Z 00000001800590d0 f i libucrtd:output.obj
 0001:00058100       ??$extract_argument_from_va_list@PEAUansi_string@?1??type_case_Z@?$output_processor@_WV?$stream_output_adapter@_W@__crt_stdio_output@@V?$format_validation_base@_WV?$stream_output_adapter@_W@__crt_stdio_output@@@2@@__crt_stdio_output@@AEAA_NXZ@PEAU1?1??234@AEAA_NXZ@@?$standard_base@_WV?$stream_output_adapter@_W@__crt_stdio_output@@@__crt_stdio_output@@IEAA_NAEAPEAUansi_string@?1??type_case_Z@?$output_processor@_WV?$stream_output_adapter@_W@__crt_stdio_output@@V?$format_validation_base@_WV?$stream_output_adapter@_W@__crt_stdio_output@@@2@@1@AEAA_NXZ@@Z 0000000180059100 f i libucrtd:output.obj
 0001:00058130       ??$extract_argument_from_va_list@PEAUansi_string@?1??type_case_Z@?$output_processor@_WV?$stream_output_adapter@_W@__crt_stdio_output@@V?$positional_parameter_base@_WV?$stream_output_adapter@_W@__crt_stdio_output@@@2@@__crt_stdio_output@@AEAA_NXZ@PEAU1?1??234@AEAA_NXZ@@?$positional_parameter_base@_WV?$stream_output_adapter@_W@__crt_stdio_output@@@__crt_stdio_output@@IEAA_NAEAPEAUansi_string@?1??type_case_Z@?$output_processor@_WV?$stream_output_adapter@_W@__crt_stdio_output@@V?$positional_parameter_base@_WV?$stream_output_adapter@_W@__crt_stdio_output@@@2@@1@AEAA_NXZ@@Z 0000000180059130 f i libucrtd:output.obj
 0001:000582f0       ??$extract_argument_from_va_list@PEAUansi_string@?1??type_case_Z@?$output_processor@_WV?$stream_output_adapter@_W@__crt_stdio_output@@V?$positional_parameter_base@_WV?$stream_output_adapter@_W@__crt_stdio_output@@@2@@__crt_stdio_output@@AEAA_NXZ@PEAU1?1??234@AEAA_NXZ@@?$standard_base@_WV?$stream_output_adapter@_W@__crt_stdio_output@@@__crt_stdio_output@@IEAA_NAEAPEAUansi_string@?1??type_case_Z@?$output_processor@_WV?$stream_output_adapter@_W@__crt_stdio_output@@V?$positional_parameter_base@_WV?$stream_output_adapter@_W@__crt_stdio_output@@@2@@1@AEAA_NXZ@@Z 00000001800592f0 f i libucrtd:output.obj
 0001:00058320       ??$extract_argument_from_va_list@PEAUansi_string@?1??type_case_Z@?$output_processor@_WV?$stream_output_adapter@_W@__crt_stdio_output@@V?$standard_base@_WV?$stream_output_adapter@_W@__crt_stdio_output@@@2@@__crt_stdio_output@@AEAA_NXZ@PEAU1?1??234@AEAA_NXZ@@?$standard_base@_WV?$stream_output_adapter@_W@__crt_stdio_output@@@__crt_stdio_output@@IEAA_NAEAPEAUansi_string@?1??type_case_Z@?$output_processor@_WV?$stream_output_adapter@_W@__crt_stdio_output@@V?$standard_base@_WV?$stream_output_adapter@_W@__crt_stdio_output@@@2@@1@AEAA_NXZ@@Z 0000000180059320 f i libucrtd:output.obj
 0001:00058350       ??$extract_argument_from_va_list@PEAUansi_string@?1??type_case_Z@?$output_processor@_WV?$string_output_adapter@_W@__crt_stdio_output@@V?$format_validation_base@_WV?$string_output_adapter@_W@__crt_stdio_output@@@2@@__crt_stdio_output@@AEAA_NXZ@PEAU1?1??234@AEAA_NXZ@@?$standard_base@_WV?$string_output_adapter@_W@__crt_stdio_output@@@__crt_stdio_output@@IEAA_NAEAPEAUansi_string@?1??type_case_Z@?$output_processor@_WV?$string_output_adapter@_W@__crt_stdio_output@@V?$format_validation_base@_WV?$string_output_adapter@_W@__crt_stdio_output@@@2@@1@AEAA_NXZ@@Z 0000000180059350 f i libucrtd:output.obj
 0001:00058380       ??$extract_argument_from_va_list@PEAUansi_string@?1??type_case_Z@?$output_processor@_WV?$string_output_adapter@_W@__crt_stdio_output@@V?$positional_parameter_base@_WV?$string_output_adapter@_W@__crt_stdio_output@@@2@@__crt_stdio_output@@AEAA_NXZ@PEAU1?1??234@AEAA_NXZ@@?$positional_parameter_base@_WV?$string_output_adapter@_W@__crt_stdio_output@@@__crt_stdio_output@@IEAA_NAEAPEAUansi_string@?1??type_case_Z@?$output_processor@_WV?$string_output_adapter@_W@__crt_stdio_output@@V?$positional_parameter_base@_WV?$string_output_adapter@_W@__crt_stdio_output@@@2@@1@AEAA_NXZ@@Z 0000000180059380 f i libucrtd:output.obj
 0001:00058540       ??$extract_argument_from_va_list@PEAUansi_string@?1??type_case_Z@?$output_processor@_WV?$string_output_adapter@_W@__crt_stdio_output@@V?$positional_parameter_base@_WV?$string_output_adapter@_W@__crt_stdio_output@@@2@@__crt_stdio_output@@AEAA_NXZ@PEAU1?1??234@AEAA_NXZ@@?$standard_base@_WV?$string_output_adapter@_W@__crt_stdio_output@@@__crt_stdio_output@@IEAA_NAEAPEAUansi_string@?1??type_case_Z@?$output_processor@_WV?$string_output_adapter@_W@__crt_stdio_output@@V?$positional_parameter_base@_WV?$string_output_adapter@_W@__crt_stdio_output@@@2@@1@AEAA_NXZ@@Z 0000000180059540 f i libucrtd:output.obj
 0001:00058570       ??$extract_argument_from_va_list@PEAUansi_string@?1??type_case_Z@?$output_processor@_WV?$string_output_adapter@_W@__crt_stdio_output@@V?$standard_base@_WV?$string_output_adapter@_W@__crt_stdio_output@@@2@@__crt_stdio_output@@AEAA_NXZ@PEAU1?1??234@AEAA_NXZ@@?$standard_base@_WV?$string_output_adapter@_W@__crt_stdio_output@@@__crt_stdio_output@@IEAA_NAEAPEAUansi_string@?1??type_case_Z@?$output_processor@_WV?$string_output_adapter@_W@__crt_stdio_output@@V?$standard_base@_WV?$string_output_adapter@_W@__crt_stdio_output@@@2@@1@AEAA_NXZ@@Z 0000000180059570 f i libucrtd:output.obj
 0001:000585a0       ??$extract_argument_from_va_list@PEAXPEAX@?$positional_parameter_base@DV?$stream_output_adapter@D@__crt_stdio_output@@@__crt_stdio_output@@IEAA_NAEAPEAX@Z 00000001800595a0 f i libucrtd:output.obj
 0001:00058760       ??$extract_argument_from_va_list@PEAXPEAX@?$positional_parameter_base@DV?$string_output_adapter@D@__crt_stdio_output@@@__crt_stdio_output@@IEAA_NAEAPEAX@Z 0000000180059760 f i libucrtd:output.obj
 0001:00058920       ??$extract_argument_from_va_list@PEAXPEAX@?$positional_parameter_base@_WV?$stream_output_adapter@_W@__crt_stdio_output@@@__crt_stdio_output@@IEAA_NAEAPEAX@Z 0000000180059920 f i libucrtd:output.obj
 0001:00058ae0       ??$extract_argument_from_va_list@PEAXPEAX@?$positional_parameter_base@_WV?$string_output_adapter@_W@__crt_stdio_output@@@__crt_stdio_output@@IEAA_NAEAPEAX@Z 0000000180059ae0 f i libucrtd:output.obj
 0001:00058ca0       ??$extract_argument_from_va_list@PEAXPEAX@?$standard_base@DV?$stream_output_adapter@D@__crt_stdio_output@@@__crt_stdio_output@@IEAA_NAEAPEAX@Z 0000000180059ca0 f i libucrtd:output.obj
 0001:00058cd0       ??$extract_argument_from_va_list@PEAXPEAX@?$standard_base@DV?$string_output_adapter@D@__crt_stdio_output@@@__crt_stdio_output@@IEAA_NAEAPEAX@Z 0000000180059cd0 f i libucrtd:output.obj
 0001:00058d00       ??$extract_argument_from_va_list@PEAXPEAX@?$standard_base@_WV?$stream_output_adapter@_W@__crt_stdio_output@@@__crt_stdio_output@@IEAA_NAEAPEAX@Z 0000000180059d00 f i libucrtd:output.obj
 0001:00058d30       ??$extract_argument_from_va_list@PEAXPEAX@?$standard_base@_WV?$string_output_adapter@_W@__crt_stdio_output@@@__crt_stdio_output@@IEAA_NAEAPEAX@Z 0000000180059d30 f i libucrtd:output.obj
 0001:00058d60       ??$extract_argument_from_va_list@U_CRT_DOUBLE@@U1@@?$positional_parameter_base@DV?$stream_output_adapter@D@__crt_stdio_output@@@__crt_stdio_output@@IEAA_NAEAU_CRT_DOUBLE@@@Z 0000000180059d60 f i libucrtd:output.obj
 0001:00058f80       ??$extract_argument_from_va_list@U_CRT_DOUBLE@@U1@@?$positional_parameter_base@DV?$string_output_adapter@D@__crt_stdio_output@@@__crt_stdio_output@@IEAA_NAEAU_CRT_DOUBLE@@@Z 0000000180059f80 f i libucrtd:output.obj
 0001:000591a0       ??$extract_argument_from_va_list@U_CRT_DOUBLE@@U1@@?$positional_parameter_base@_WV?$stream_output_adapter@_W@__crt_stdio_output@@@__crt_stdio_output@@IEAA_NAEAU_CRT_DOUBLE@@@Z 000000018005a1a0 f i libucrtd:output.obj
 0001:000593c0       ??$extract_argument_from_va_list@U_CRT_DOUBLE@@U1@@?$positional_parameter_base@_WV?$string_output_adapter@_W@__crt_stdio_output@@@__crt_stdio_output@@IEAA_NAEAU_CRT_DOUBLE@@@Z 000000018005a3c0 f i libucrtd:output.obj
 0001:000595e0       ??$extract_argument_from_va_list@U_CRT_DOUBLE@@U1@@?$standard_base@DV?$stream_output_adapter@D@__crt_stdio_output@@@__crt_stdio_output@@IEAA_NAEAU_CRT_DOUBLE@@@Z 000000018005a5e0 f i libucrtd:output.obj
 0001:00059630       ??$extract_argument_from_va_list@U_CRT_DOUBLE@@U1@@?$standard_base@DV?$string_output_adapter@D@__crt_stdio_output@@@__crt_stdio_output@@IEAA_NAEAU_CRT_DOUBLE@@@Z 000000018005a630 f i libucrtd:output.obj
 0001:00059680       ??$extract_argument_from_va_list@U_CRT_DOUBLE@@U1@@?$standard_base@_WV?$stream_output_adapter@_W@__crt_stdio_output@@@__crt_stdio_output@@IEAA_NAEAU_CRT_DOUBLE@@@Z 000000018005a680 f i libucrtd:output.obj
 0001:000596d0       ??$extract_argument_from_va_list@U_CRT_DOUBLE@@U1@@?$standard_base@_WV?$string_output_adapter@_W@__crt_stdio_output@@@__crt_stdio_output@@IEAA_NAEAU_CRT_DOUBLE@@@Z 000000018005a6d0 f i libucrtd:output.obj
 0001:00059720       ??$extract_argument_from_va_list@_J_J@?$positional_parameter_base@DV?$stream_output_adapter@D@__crt_stdio_output@@@__crt_stdio_output@@IEAA_NAEA_J@Z 000000018005a720 f i libucrtd:output.obj
 0001:000598e0       ??$extract_argument_from_va_list@_J_J@?$positional_parameter_base@DV?$string_output_adapter@D@__crt_stdio_output@@@__crt_stdio_output@@IEAA_NAEA_J@Z 000000018005a8e0 f i libucrtd:output.obj
 0001:00059aa0       ??$extract_argument_from_va_list@_J_J@?$positional_parameter_base@_WV?$stream_output_adapter@_W@__crt_stdio_output@@@__crt_stdio_output@@IEAA_NAEA_J@Z 000000018005aaa0 f i libucrtd:output.obj
 0001:00059c60       ??$extract_argument_from_va_list@_J_J@?$positional_parameter_base@_WV?$string_output_adapter@_W@__crt_stdio_output@@@__crt_stdio_output@@IEAA_NAEA_J@Z 000000018005ac60 f i libucrtd:output.obj
 0001:00059e20       ??$extract_argument_from_va_list@_J_J@?$standard_base@DV?$stream_output_adapter@D@__crt_stdio_output@@@__crt_stdio_output@@IEAA_NAEA_J@Z 000000018005ae20 f i libucrtd:output.obj
 0001:00059e50       ??$extract_argument_from_va_list@_J_J@?$standard_base@DV?$string_output_adapter@D@__crt_stdio_output@@@__crt_stdio_output@@IEAA_NAEA_J@Z 000000018005ae50 f i libucrtd:output.obj
 0001:00059e80       ??$extract_argument_from_va_list@_J_J@?$standard_base@_WV?$stream_output_adapter@_W@__crt_stdio_output@@@__crt_stdio_output@@IEAA_NAEA_J@Z 000000018005ae80 f i libucrtd:output.obj
 0001:00059eb0       ??$extract_argument_from_va_list@_J_J@?$standard_base@_WV?$string_output_adapter@_W@__crt_stdio_output@@@__crt_stdio_output@@IEAA_NAEA_J@Z 000000018005aeb0 f i libucrtd:output.obj
 0001:00059ee0       ??$extract_argument_from_va_list@_K_J@?$positional_parameter_base@DV?$stream_output_adapter@D@__crt_stdio_output@@@__crt_stdio_output@@IEAA_NAEA_J@Z 000000018005aee0 f i libucrtd:output.obj
 0001:0005a0a0       ??$extract_argument_from_va_list@_K_J@?$positional_parameter_base@DV?$string_output_adapter@D@__crt_stdio_output@@@__crt_stdio_output@@IEAA_NAEA_J@Z 000000018005b0a0 f i libucrtd:output.obj
 0001:0005a260       ??$extract_argument_from_va_list@_K_J@?$positional_parameter_base@_WV?$stream_output_adapter@_W@__crt_stdio_output@@@__crt_stdio_output@@IEAA_NAEA_J@Z 000000018005b260 f i libucrtd:output.obj
 0001:0005a420       ??$extract_argument_from_va_list@_K_J@?$positional_parameter_base@_WV?$string_output_adapter@_W@__crt_stdio_output@@@__crt_stdio_output@@IEAA_NAEA_J@Z 000000018005b420 f i libucrtd:output.obj
 0001:0005a5e0       ??$extract_argument_from_va_list@_K_J@?$standard_base@DV?$stream_output_adapter@D@__crt_stdio_output@@@__crt_stdio_output@@IEAA_NAEA_J@Z 000000018005b5e0 f i libucrtd:output.obj
 0001:0005a610       ??$extract_argument_from_va_list@_K_J@?$standard_base@DV?$string_output_adapter@D@__crt_stdio_output@@@__crt_stdio_output@@IEAA_NAEA_J@Z 000000018005b610 f i libucrtd:output.obj
 0001:0005a640       ??$extract_argument_from_va_list@_K_J@?$standard_base@_WV?$stream_output_adapter@_W@__crt_stdio_output@@@__crt_stdio_output@@IEAA_NAEA_J@Z 000000018005b640 f i libucrtd:output.obj
 0001:0005a670       ??$extract_argument_from_va_list@_K_J@?$standard_base@_WV?$string_output_adapter@_W@__crt_stdio_output@@@__crt_stdio_output@@IEAA_NAEA_J@Z 000000018005b670 f i libucrtd:output.obj
 0001:0005a6a0       ??$extract_argument_from_va_list@_W_W@?$positional_parameter_base@DV?$stream_output_adapter@D@__crt_stdio_output@@@__crt_stdio_output@@IEAA_NAEA_W@Z 000000018005b6a0 f i libucrtd:output.obj
 0001:0005a860       ??$extract_argument_from_va_list@_W_W@?$positional_parameter_base@DV?$string_output_adapter@D@__crt_stdio_output@@@__crt_stdio_output@@IEAA_NAEA_W@Z 000000018005b860 f i libucrtd:output.obj
 0001:0005aa20       ??$extract_argument_from_va_list@_W_W@?$positional_parameter_base@_WV?$stream_output_adapter@_W@__crt_stdio_output@@@__crt_stdio_output@@IEAA_NAEA_W@Z 000000018005ba20 f i libucrtd:output.obj
 0001:0005abe0       ??$extract_argument_from_va_list@_W_W@?$positional_parameter_base@_WV?$string_output_adapter@_W@__crt_stdio_output@@@__crt_stdio_output@@IEAA_NAEA_W@Z 000000018005bbe0 f i libucrtd:output.obj
 0001:0005ada0       ??$extract_argument_from_va_list@_W_W@?$standard_base@DV?$stream_output_adapter@D@__crt_stdio_output@@@__crt_stdio_output@@IEAA_NAEA_W@Z 000000018005bda0 f i libucrtd:output.obj
 0001:0005add0       ??$extract_argument_from_va_list@_W_W@?$standard_base@DV?$string_output_adapter@D@__crt_stdio_output@@@__crt_stdio_output@@IEAA_NAEA_W@Z 000000018005bdd0 f i libucrtd:output.obj
 0001:0005ae00       ??$extract_argument_from_va_list@_W_W@?$standard_base@_WV?$stream_output_adapter@_W@__crt_stdio_output@@@__crt_stdio_output@@IEAA_NAEA_W@Z 000000018005be00 f i libucrtd:output.obj
 0001:0005ae30       ??$extract_argument_from_va_list@_W_W@?$standard_base@_WV?$string_output_adapter@_W@__crt_stdio_output@@@__crt_stdio_output@@IEAA_NAEA_W@Z 000000018005be30 f i libucrtd:output.obj
 0001:0005ae60       ??$get_parameter_type@D@?$positional_parameter_base@DV?$stream_output_adapter@D@__crt_stdio_output@@@__crt_stdio_output@@CA?AW4parameter_type@01@PEAD@Z 000000018005be60 f i libucrtd:output.obj
 0001:0005ae70       ??$get_parameter_type@D@?$positional_parameter_base@DV?$string_output_adapter@D@__crt_stdio_output@@@__crt_stdio_output@@CA?AW4parameter_type@01@PEAD@Z 000000018005be70 f i libucrtd:output.obj
 0001:0005ae80       ??$get_parameter_type@D@?$positional_parameter_base@_WV?$stream_output_adapter@_W@__crt_stdio_output@@@__crt_stdio_output@@CA?AW4parameter_type@01@PEAD@Z 000000018005be80 f i libucrtd:output.obj
 0001:0005ae90       ??$get_parameter_type@D@?$positional_parameter_base@_WV?$string_output_adapter@_W@__crt_stdio_output@@@__crt_stdio_output@@CA?AW4parameter_type@01@PEAD@Z 000000018005be90 f i libucrtd:output.obj
 0001:0005aea0       ??$get_parameter_type@Uansi_string@?1??type_case_Z@?$output_processor@DV?$stream_output_adapter@D@__crt_stdio_output@@V?$positional_parameter_base@DV?$stream_output_adapter@D@__crt_stdio_output@@@2@@__crt_stdio_output@@AEAA_NXZ@@?$positional_parameter_base@DV?$stream_output_adapter@D@__crt_stdio_output@@@__crt_stdio_output@@CA?AW4parameter_type@01@PEAUansi_string@?1??type_case_Z@?$output_processor@DV?$stream_output_adapter@D@__crt_stdio_output@@V?$positional_parameter_base@DV?$stream_output_adapter@D@__crt_stdio_output@@@2@@1@AEAA_NXZ@@Z 000000018005bea0 f i libucrtd:output.obj
 0001:0005aeb0       ??$get_parameter_type@Uansi_string@?1??type_case_Z@?$output_processor@DV?$string_output_adapter@D@__crt_stdio_output@@V?$positional_parameter_base@DV?$string_output_adapter@D@__crt_stdio_output@@@2@@__crt_stdio_output@@AEAA_NXZ@@?$positional_parameter_base@DV?$string_output_adapter@D@__crt_stdio_output@@@__crt_stdio_output@@CA?AW4parameter_type@01@PEAUansi_string@?1??type_case_Z@?$output_processor@DV?$string_output_adapter@D@__crt_stdio_output@@V?$positional_parameter_base@DV?$string_output_adapter@D@__crt_stdio_output@@@2@@1@AEAA_NXZ@@Z 000000018005beb0 f i libucrtd:output.obj
 0001:0005aec0       ??$get_parameter_type@Uansi_string@?1??type_case_Z@?$output_processor@_WV?$stream_output_adapter@_W@__crt_stdio_output@@V?$positional_parameter_base@_WV?$stream_output_adapter@_W@__crt_stdio_output@@@2@@__crt_stdio_output@@AEAA_NXZ@@?$positional_parameter_base@_WV?$stream_output_adapter@_W@__crt_stdio_output@@@__crt_stdio_output@@CA?AW4parameter_type@01@PEAUansi_string@?1??type_case_Z@?$output_processor@_WV?$stream_output_adapter@_W@__crt_stdio_output@@V?$positional_parameter_base@_WV?$stream_output_adapter@_W@__crt_stdio_output@@@2@@1@AEAA_NXZ@@Z 000000018005bec0 f i libucrtd:output.obj
 0001:0005aed0       ??$get_parameter_type@Uansi_string@?1??type_case_Z@?$output_processor@_WV?$string_output_adapter@_W@__crt_stdio_output@@V?$positional_parameter_base@_WV?$string_output_adapter@_W@__crt_stdio_output@@@2@@__crt_stdio_output@@AEAA_NXZ@@?$positional_parameter_base@_WV?$string_output_adapter@_W@__crt_stdio_output@@@__crt_stdio_output@@CA?AW4parameter_type@01@PEAUansi_string@?1??type_case_Z@?$output_processor@_WV?$string_output_adapter@_W@__crt_stdio_output@@V?$positional_parameter_base@_WV?$string_output_adapter@_W@__crt_stdio_output@@@2@@1@AEAA_NXZ@@Z 000000018005bed0 f i libucrtd:output.obj
 0001:0005aee0       ??$get_parameter_type@X@?$positional_parameter_base@DV?$stream_output_adapter@D@__crt_stdio_output@@@__crt_stdio_output@@CA?AW4parameter_type@01@PEAX@Z 000000018005bee0 f i libucrtd:output.obj
 0001:0005aef0       ??$get_parameter_type@X@?$positional_parameter_base@DV?$string_output_adapter@D@__crt_stdio_output@@@__crt_stdio_output@@CA?AW4parameter_type@01@PEAX@Z 000000018005bef0 f i libucrtd:output.obj
 0001:0005af00       ??$get_parameter_type@X@?$positional_parameter_base@_WV?$stream_output_adapter@_W@__crt_stdio_output@@@__crt_stdio_output@@CA?AW4parameter_type@01@PEAX@Z 000000018005bf00 f i libucrtd:output.obj
 0001:0005af10       ??$get_parameter_type@X@?$positional_parameter_base@_WV?$string_output_adapter@_W@__crt_stdio_output@@@__crt_stdio_output@@CA?AW4parameter_type@01@PEAX@Z 000000018005bf10 f i libucrtd:output.obj
 0001:0005af20       ??$is_character_specifier@D@?$positional_parameter_base@DV?$stream_output_adapter@D@__crt_stdio_output@@@__crt_stdio_output@@CA_ND@Z 000000018005bf20 f i libucrtd:output.obj
 0001:0005af60       ??$is_character_specifier@D@?$positional_parameter_base@DV?$string_output_adapter@D@__crt_stdio_output@@@__crt_stdio_output@@CA_ND@Z 000000018005bf60 f i libucrtd:output.obj
 0001:0005afa0       ??$is_character_specifier@_W@?$positional_parameter_base@_WV?$stream_output_adapter@_W@__crt_stdio_output@@@__crt_stdio_output@@CA_N_W@Z 000000018005bfa0 f i libucrtd:output.obj
 0001:0005afe0       ??$is_character_specifier@_W@?$positional_parameter_base@_WV?$string_output_adapter@_W@__crt_stdio_output@@@__crt_stdio_output@@CA_N_W@Z 000000018005bfe0 f i libucrtd:output.obj
 0001:0005b020       ??$is_integral_specifier@D@?$positional_parameter_base@DV?$stream_output_adapter@D@__crt_stdio_output@@@__crt_stdio_output@@CA_ND@Z 000000018005c020 f i libucrtd:output.obj
 0001:0005b090       ??$is_integral_specifier@D@?$positional_parameter_base@DV?$string_output_adapter@D@__crt_stdio_output@@@__crt_stdio_output@@CA_ND@Z 000000018005c090 f i libucrtd:output.obj
 0001:0005b100       ??$is_integral_specifier@_W@?$positional_parameter_base@_WV?$stream_output_adapter@_W@__crt_stdio_output@@@__crt_stdio_output@@CA_N_W@Z 000000018005c100 f i libucrtd:output.obj
 0001:0005b170       ??$is_integral_specifier@_W@?$positional_parameter_base@_WV?$string_output_adapter@_W@__crt_stdio_output@@@__crt_stdio_output@@CA_N_W@Z 000000018005c170 f i libucrtd:output.obj
 0001:0005b1e0       ??$is_overflow_condition@K@__crt_strtox@@YA_NIK@Z 000000018005c1e0 f i libucrtd:output.obj
 0001:0005b250       ??$is_pointer_specifier@D@?$positional_parameter_base@DV?$stream_output_adapter@D@__crt_stdio_output@@@__crt_stdio_output@@CA_ND@Z 000000018005c250 f i libucrtd:output.obj
 0001:0005b280       ??$is_pointer_specifier@D@?$positional_parameter_base@DV?$string_output_adapter@D@__crt_stdio_output@@@__crt_stdio_output@@CA_ND@Z 000000018005c280 f i libucrtd:output.obj
 0001:0005b2b0       ??$is_pointer_specifier@_W@?$positional_parameter_base@_WV?$stream_output_adapter@_W@__crt_stdio_output@@@__crt_stdio_output@@CA_N_W@Z 000000018005c2b0 f i libucrtd:output.obj
 0001:0005b2e0       ??$is_pointer_specifier@_W@?$positional_parameter_base@_WV?$string_output_adapter@_W@__crt_stdio_output@@@__crt_stdio_output@@CA_N_W@Z 000000018005c2e0 f i libucrtd:output.obj
 0001:0005b310       ??$is_string_specifier@D@?$positional_parameter_base@DV?$stream_output_adapter@D@__crt_stdio_output@@@__crt_stdio_output@@CA_ND@Z 000000018005c310 f i libucrtd:output.obj
 0001:0005b350       ??$is_string_specifier@D@?$positional_parameter_base@DV?$string_output_adapter@D@__crt_stdio_output@@@__crt_stdio_output@@CA_ND@Z 000000018005c350 f i libucrtd:output.obj
 0001:0005b390       ??$is_string_specifier@_W@?$positional_parameter_base@_WV?$stream_output_adapter@_W@__crt_stdio_output@@@__crt_stdio_output@@CA_N_W@Z 000000018005c390 f i libucrtd:output.obj
 0001:0005b3d0       ??$is_string_specifier@_W@?$positional_parameter_base@_WV?$string_output_adapter@_W@__crt_stdio_output@@@__crt_stdio_output@@CA_N_W@Z 000000018005c3d0 f i libucrtd:output.obj
 0001:0005b410       ??$is_wide_character_specifier@D@__crt_stdio_output@@YA_N_KDW4length_modifier@0@@Z 000000018005c410 f i libucrtd:output.obj
 0001:0005b4b0       ??$is_wide_character_specifier@_W@__crt_stdio_output@@YA_N_K_WW4length_modifier@0@@Z 000000018005c4b0 f i libucrtd:output.obj
 0001:0005b580       ??$make_c_string_character_source@DPEAPEAD@__crt_strtox@@YA?AV?$c_string_character_source@D@0@QEBDQEAPEAD@Z 000000018005c580 f i libucrtd:output.obj
 0001:0005b5c0       ??$make_c_string_character_source@_WPEAPEA_W@__crt_strtox@@YA?AV?$c_string_character_source@_W@0@QEB_WQEAPEA_W@Z 000000018005c5c0 f i libucrtd:output.obj
 0001:0005b600       ??$parse_integer@KV?$c_string_character_source@D@__crt_strtox@@$0A@@__crt_strtox@@YAKAEAV__crt_cached_ptd_host@@V?$c_string_character_source@D@0@H_N@Z 000000018005c600 f i libucrtd:output.obj
 0001:0005ba80       ??$parse_integer@KV?$c_string_character_source@_W@__crt_strtox@@$0A@@__crt_strtox@@YAKAEAV__crt_cached_ptd_host@@V?$c_string_character_source@_W@0@H_N@Z 000000018005ca80 f i libucrtd:output.obj
 0001:0005bf00       ??$peek_va_arg@C@__crt_stdio_output@@YACPEAD@Z 000000018005cf00 f i libucrtd:output.obj
 0001:0005bf60       ??$peek_va_arg@E@__crt_stdio_output@@YAEPEAD@Z 000000018005cf60 f i libucrtd:output.obj
 0001:0005bfc0       ??$peek_va_arg@F@__crt_stdio_output@@YAFPEAD@Z 000000018005cfc0 f i libucrtd:output.obj
 0001:0005c020       ??$peek_va_arg@G@__crt_stdio_output@@YAGPEAD@Z 000000018005d020 f i libucrtd:output.obj
 0001:0005c080       ??$peek_va_arg@H@__crt_stdio_output@@YAHPEAD@Z 000000018005d080 f i libucrtd:output.obj
 0001:0005c0d0       ??$peek_va_arg@I@__crt_stdio_output@@YAIPEAD@Z 000000018005d0d0 f i libucrtd:output.obj
 0001:0005c120       ??$peek_va_arg@PEAD@__crt_stdio_output@@YAPEADPEAD@Z 000000018005d120 f i libucrtd:output.obj
 0001:0005c180       ??$peek_va_arg@PEAUansi_string@?1??type_case_Z@?$output_processor@DV?$stream_output_adapter@D@__crt_stdio_output@@V?$positional_parameter_base@DV?$stream_output_adapter@D@__crt_stdio_output@@@2@@__crt_stdio_output@@AEAA_NXZ@@__crt_stdio_output@@YAPEAUansi_string@?1??type_case_Z@?$output_processor@DV?$stream_output_adapter@D@__crt_stdio_output@@V?$positional_parameter_base@DV?$stream_output_adapter@D@__crt_stdio_output@@@2@@0@AEAA_NXZ@PEAD@Z 000000018005d180 f i libucrtd:output.obj
 0001:0005c1e0       ??$peek_va_arg@PEAUansi_string@?1??type_case_Z@?$output_processor@DV?$string_output_adapter@D@__crt_stdio_output@@V?$positional_parameter_base@DV?$string_output_adapter@D@__crt_stdio_output@@@2@@__crt_stdio_output@@AEAA_NXZ@@__crt_stdio_output@@YAPEAUansi_string@?1??type_case_Z@?$output_processor@DV?$string_output_adapter@D@__crt_stdio_output@@V?$positional_parameter_base@DV?$string_output_adapter@D@__crt_stdio_output@@@2@@0@AEAA_NXZ@PEAD@Z 000000018005d1e0 f i libucrtd:output.obj
 0001:0005c240       ??$peek_va_arg@PEAUansi_string@?1??type_case_Z@?$output_processor@_WV?$stream_output_adapter@_W@__crt_stdio_output@@V?$positional_parameter_base@_WV?$stream_output_adapter@_W@__crt_stdio_output@@@2@@__crt_stdio_output@@AEAA_NXZ@@__crt_stdio_output@@YAPEAUansi_string@?1??type_case_Z@?$output_processor@_WV?$stream_output_adapter@_W@__crt_stdio_output@@V?$positional_parameter_base@_WV?$stream_output_adapter@_W@__crt_stdio_output@@@2@@0@AEAA_NXZ@PEAD@Z 000000018005d240 f i libucrtd:output.obj
 0001:0005c2a0       ??$peek_va_arg@PEAUansi_string@?1??type_case_Z@?$output_processor@_WV?$string_output_adapter@_W@__crt_stdio_output@@V?$positional_parameter_base@_WV?$string_output_adapter@_W@__crt_stdio_output@@@2@@__crt_stdio_output@@AEAA_NXZ@@__crt_stdio_output@@YAPEAUansi_string@?1??type_case_Z@?$output_processor@_WV?$string_output_adapter@_W@__crt_stdio_output@@V?$positional_parameter_base@_WV?$string_output_adapter@_W@__crt_stdio_output@@@2@@0@AEAA_NXZ@PEAD@Z 000000018005d2a0 f i libucrtd:output.obj
 0001:0005c300       ??$peek_va_arg@PEAX@__crt_stdio_output@@YAPEAXPEAD@Z 000000018005d300 f i libucrtd:output.obj
 0001:0005c360       ??$peek_va_arg@U_CRT_DOUBLE@@@__crt_stdio_output@@YA?AU_CRT_DOUBLE@@PEAD@Z 000000018005d360 f i libucrtd:output.obj
 0001:0005c3c0       ??$peek_va_arg@_J@__crt_stdio_output@@YA_JPEAD@Z 000000018005d3c0 f i libucrtd:output.obj
 0001:0005c420       ??$peek_va_arg@_K@__crt_stdio_output@@YA_KPEAD@Z 000000018005d420 f i libucrtd:output.obj
 0001:0005c480       ??$peek_va_arg@_W@__crt_stdio_output@@YA_WPEAD@Z 000000018005d480 f i libucrtd:output.obj
 0001:0005c4e0       ??$puttc_nolock_internal@AEBDPEAU_iobuf@@AEAV__crt_cached_ptd_host@@@?$__crt_char_traits@D@@SAHAEBD$$QEAPEAU_iobuf@@AEAV__crt_cached_ptd_host@@@Z 000000018005d4e0 f i libucrtd:output.obj
 0001:0005c520       ??$puttc_nolock_internal@AEB_WPEAU_iobuf@@AEAV__crt_cached_ptd_host@@@?$__crt_char_traits@_W@@SAGAEB_W$$QEAPEAU_iobuf@@AEAV__crt_cached_ptd_host@@@Z 000000018005d520 f i libucrtd:output.obj
 0001:0005c560       ??$read_va_arg@C@__crt_stdio_output@@YACAEAPEAD@Z 000000018005d560 f i libucrtd:output.obj
 0001:0005c5d0       ??$read_va_arg@E@__crt_stdio_output@@YAEAEAPEAD@Z 000000018005d5d0 f i libucrtd:output.obj
 0001:0005c640       ??$read_va_arg@F@__crt_stdio_output@@YAFAEAPEAD@Z 000000018005d640 f i libucrtd:output.obj
 0001:0005c6b0       ??$read_va_arg@G@__crt_stdio_output@@YAGAEAPEAD@Z 000000018005d6b0 f i libucrtd:output.obj
 0001:0005c720       ??$read_va_arg@H@__crt_stdio_output@@YAHAEAPEAD@Z 000000018005d720 f i libucrtd:output.obj
 0001:0005c780       ??$read_va_arg@I@__crt_stdio_output@@YAIAEAPEAD@Z 000000018005d780 f i libucrtd:output.obj
 0001:0005c7e0       ??$read_va_arg@PEAD@__crt_stdio_output@@YAPEADAEAPEAD@Z 000000018005d7e0 f i libucrtd:output.obj
 0001:0005c850       ??$read_va_arg@PEAUansi_string@?1??type_case_Z@?$output_processor@DV?$stream_output_adapter@D@__crt_stdio_output@@V?$format_validation_base@DV?$stream_output_adapter@D@__crt_stdio_output@@@2@@__crt_stdio_output@@AEAA_NXZ@@__crt_stdio_output@@YAPEAUansi_string@?1??type_case_Z@?$output_processor@DV?$stream_output_adapter@D@__crt_stdio_output@@V?$format_validation_base@DV?$stream_output_adapter@D@__crt_stdio_output@@@2@@0@AEAA_NXZ@AEAPEAD@Z 000000018005d850 f i libucrtd:output.obj
 0001:0005c8c0       ??$read_va_arg@PEAUansi_string@?1??type_case_Z@?$output_processor@DV?$stream_output_adapter@D@__crt_stdio_output@@V?$positional_parameter_base@DV?$stream_output_adapter@D@__crt_stdio_output@@@2@@__crt_stdio_output@@AEAA_NXZ@@__crt_stdio_output@@YAPEAUansi_string@?1??type_case_Z@?$output_processor@DV?$stream_output_adapter@D@__crt_stdio_output@@V?$positional_parameter_base@DV?$stream_output_adapter@D@__crt_stdio_output@@@2@@0@AEAA_NXZ@AEAPEAD@Z 000000018005d8c0 f i libucrtd:output.obj
 0001:0005c930       ??$read_va_arg@PEAUansi_string@?1??type_case_Z@?$output_processor@DV?$stream_output_adapter@D@__crt_stdio_output@@V?$standard_base@DV?$stream_output_adapter@D@__crt_stdio_output@@@2@@__crt_stdio_output@@AEAA_NXZ@@__crt_stdio_output@@YAPEAUansi_string@?1??type_case_Z@?$output_processor@DV?$stream_output_adapter@D@__crt_stdio_output@@V?$standard_base@DV?$stream_output_adapter@D@__crt_stdio_output@@@2@@0@AEAA_NXZ@AEAPEAD@Z 000000018005d930 f i libucrtd:output.obj
 0001:0005c9a0       ??$read_va_arg@PEAUansi_string@?1??type_case_Z@?$output_processor@DV?$string_output_adapter@D@__crt_stdio_output@@V?$format_validation_base@DV?$string_output_adapter@D@__crt_stdio_output@@@2@@__crt_stdio_output@@AEAA_NXZ@@__crt_stdio_output@@YAPEAUansi_string@?1??type_case_Z@?$output_processor@DV?$string_output_adapter@D@__crt_stdio_output@@V?$format_validation_base@DV?$string_output_adapter@D@__crt_stdio_output@@@2@@0@AEAA_NXZ@AEAPEAD@Z 000000018005d9a0 f i libucrtd:output.obj
 0001:0005ca10       ??$read_va_arg@PEAUansi_string@?1??type_case_Z@?$output_processor@DV?$string_output_adapter@D@__crt_stdio_output@@V?$positional_parameter_base@DV?$string_output_adapter@D@__crt_stdio_output@@@2@@__crt_stdio_output@@AEAA_NXZ@@__crt_stdio_output@@YAPEAUansi_string@?1??type_case_Z@?$output_processor@DV?$string_output_adapter@D@__crt_stdio_output@@V?$positional_parameter_base@DV?$string_output_adapter@D@__crt_stdio_output@@@2@@0@AEAA_NXZ@AEAPEAD@Z 000000018005da10 f i libucrtd:output.obj
 0001:0005ca80       ??$read_va_arg@PEAUansi_string@?1??type_case_Z@?$output_processor@DV?$string_output_adapter@D@__crt_stdio_output@@V?$standard_base@DV?$string_output_adapter@D@__crt_stdio_output@@@2@@__crt_stdio_output@@AEAA_NXZ@@__crt_stdio_output@@YAPEAUansi_string@?1??type_case_Z@?$output_processor@DV?$string_output_adapter@D@__crt_stdio_output@@V?$standard_base@DV?$string_output_adapter@D@__crt_stdio_output@@@2@@0@AEAA_NXZ@AEAPEAD@Z 000000018005da80 f i libucrtd:output.obj
 0001:0005caf0       ??$read_va_arg@PEAUansi_string@?1??type_case_Z@?$output_processor@_WV?$stream_output_adapter@_W@__crt_stdio_output@@V?$format_validation_base@_WV?$stream_output_adapter@_W@__crt_stdio_output@@@2@@__crt_stdio_output@@AEAA_NXZ@@__crt_stdio_output@@YAPEAUansi_string@?1??type_case_Z@?$output_processor@_WV?$stream_output_adapter@_W@__crt_stdio_output@@V?$format_validation_base@_WV?$stream_output_adapter@_W@__crt_stdio_output@@@2@@0@AEAA_NXZ@AEAPEAD@Z 000000018005daf0 f i libucrtd:output.obj
 0001:0005cb60       ??$read_va_arg@PEAUansi_string@?1??type_case_Z@?$output_processor@_WV?$stream_output_adapter@_W@__crt_stdio_output@@V?$positional_parameter_base@_WV?$stream_output_adapter@_W@__crt_stdio_output@@@2@@__crt_stdio_output@@AEAA_NXZ@@__crt_stdio_output@@YAPEAUansi_string@?1??type_case_Z@?$output_processor@_WV?$stream_output_adapter@_W@__crt_stdio_output@@V?$positional_parameter_base@_WV?$stream_output_adapter@_W@__crt_stdio_output@@@2@@0@AEAA_NXZ@AEAPEAD@Z 000000018005db60 f i libucrtd:output.obj
 0001:0005cbd0       ??$read_va_arg@PEAUansi_string@?1??type_case_Z@?$output_processor@_WV?$stream_output_adapter@_W@__crt_stdio_output@@V?$standard_base@_WV?$stream_output_adapter@_W@__crt_stdio_output@@@2@@__crt_stdio_output@@AEAA_NXZ@@__crt_stdio_output@@YAPEAUansi_string@?1??type_case_Z@?$output_processor@_WV?$stream_output_adapter@_W@__crt_stdio_output@@V?$standard_base@_WV?$stream_output_adapter@_W@__crt_stdio_output@@@2@@0@AEAA_NXZ@AEAPEAD@Z 000000018005dbd0 f i libucrtd:output.obj
 0001:0005cc40       ??$read_va_arg@PEAUansi_string@?1??type_case_Z@?$output_processor@_WV?$string_output_adapter@_W@__crt_stdio_output@@V?$format_validation_base@_WV?$string_output_adapter@_W@__crt_stdio_output@@@2@@__crt_stdio_output@@AEAA_NXZ@@__crt_stdio_output@@YAPEAUansi_string@?1??type_case_Z@?$output_processor@_WV?$string_output_adapter@_W@__crt_stdio_output@@V?$format_validation_base@_WV?$string_output_adapter@_W@__crt_stdio_output@@@2@@0@AEAA_NXZ@AEAPEAD@Z 000000018005dc40 f i libucrtd:output.obj
 0001:0005ccb0       ??$read_va_arg@PEAUansi_string@?1??type_case_Z@?$output_processor@_WV?$string_output_adapter@_W@__crt_stdio_output@@V?$positional_parameter_base@_WV?$string_output_adapter@_W@__crt_stdio_output@@@2@@__crt_stdio_output@@AEAA_NXZ@@__crt_stdio_output@@YAPEAUansi_string@?1??type_case_Z@?$output_processor@_WV?$string_output_adapter@_W@__crt_stdio_output@@V?$positional_parameter_base@_WV?$string_output_adapter@_W@__crt_stdio_output@@@2@@0@AEAA_NXZ@AEAPEAD@Z 000000018005dcb0 f i libucrtd:output.obj
 0001:0005cd20       ??$read_va_arg@PEAUansi_string@?1??type_case_Z@?$output_processor@_WV?$string_output_adapter@_W@__crt_stdio_output@@V?$standard_base@_WV?$string_output_adapter@_W@__crt_stdio_output@@@2@@__crt_stdio_output@@AEAA_NXZ@@__crt_stdio_output@@YAPEAUansi_string@?1??type_case_Z@?$output_processor@_WV?$string_output_adapter@_W@__crt_stdio_output@@V?$standard_base@_WV?$string_output_adapter@_W@__crt_stdio_output@@@2@@0@AEAA_NXZ@AEAPEAD@Z 000000018005dd20 f i libucrtd:output.obj
 0001:0005cd90       ??$read_va_arg@PEAX@__crt_stdio_output@@YAPEAXAEAPEAD@Z 000000018005dd90 f i libucrtd:output.obj
 0001:0005ce00       ??$read_va_arg@U_CRT_DOUBLE@@@__crt_stdio_output@@YA?AU_CRT_DOUBLE@@AEAPEAD@Z 000000018005de00 f i libucrtd:output.obj
 0001:0005ce70       ??$read_va_arg@_J@__crt_stdio_output@@YA_JAEAPEAD@Z 000000018005de70 f i libucrtd:output.obj
 0001:0005cee0       ??$read_va_arg@_K@__crt_stdio_output@@YA_KAEAPEAD@Z 000000018005dee0 f i libucrtd:output.obj
 0001:0005cf50       ??$read_va_arg@_W@__crt_stdio_output@@YA_WAEAPEAD@Z 000000018005df50 f i libucrtd:output.obj
 0001:0005cfc0       ??$scratch_count@D@formatting_buffer@__crt_stdio_output@@QEBA_KXZ 000000018005dfc0 f i libucrtd:output.obj
 0001:0005cfe0       ??$scratch_data@D@formatting_buffer@__crt_stdio_output@@QEAAPEADXZ 000000018005dfe0 f i libucrtd:output.obj
 0001:0005d050       ??$type_case_integer@$07@?$output_processor@DV?$stream_output_adapter@D@__crt_stdio_output@@V?$format_validation_base@DV?$stream_output_adapter@D@__crt_stdio_output@@@2@@__crt_stdio_output@@AEAA_N_N@Z 000000018005e050 f i libucrtd:output.obj
 0001:0005d4d0       ??$type_case_integer@$07@?$output_processor@DV?$stream_output_adapter@D@__crt_stdio_output@@V?$positional_parameter_base@DV?$stream_output_adapter@D@__crt_stdio_output@@@2@@__crt_stdio_output@@AEAA_N_N@Z 000000018005e4d0 f i libucrtd:output.obj
 0001:0005d950       ??$type_case_integer@$07@?$output_processor@DV?$stream_output_adapter@D@__crt_stdio_output@@V?$standard_base@DV?$stream_output_adapter@D@__crt_stdio_output@@@2@@__crt_stdio_output@@AEAA_N_N@Z 000000018005e950 f i libucrtd:output.obj
 0001:0005ddd0       ??$type_case_integer@$07@?$output_processor@DV?$string_output_adapter@D@__crt_stdio_output@@V?$format_validation_base@DV?$string_output_adapter@D@__crt_stdio_output@@@2@@__crt_stdio_output@@AEAA_N_N@Z 000000018005edd0 f i libucrtd:output.obj
 0001:0005e250       ??$type_case_integer@$07@?$output_processor@DV?$string_output_adapter@D@__crt_stdio_output@@V?$positional_parameter_base@DV?$string_output_adapter@D@__crt_stdio_output@@@2@@__crt_stdio_output@@AEAA_N_N@Z 000000018005f250 f i libucrtd:output.obj
 0001:0005e6d0       ??$type_case_integer@$07@?$output_processor@DV?$string_output_adapter@D@__crt_stdio_output@@V?$standard_base@DV?$string_output_adapter@D@__crt_stdio_output@@@2@@__crt_stdio_output@@AEAA_N_N@Z 000000018005f6d0 f i libucrtd:output.obj
 0001:0005eb50       ??$type_case_integer@$07@?$output_processor@_WV?$stream_output_adapter@_W@__crt_stdio_output@@V?$format_validation_base@_WV?$stream_output_adapter@_W@__crt_stdio_output@@@2@@__crt_stdio_output@@AEAA_N_N@Z 000000018005fb50 f i libucrtd:output.obj
 0001:0005efd0       ??$type_case_integer@$07@?$output_processor@_WV?$stream_output_adapter@_W@__crt_stdio_output@@V?$positional_parameter_base@_WV?$stream_output_adapter@_W@__crt_stdio_output@@@2@@__crt_stdio_output@@AEAA_N_N@Z 000000018005ffd0 f i libucrtd:output.obj
 0001:0005f450       ??$type_case_integer@$07@?$output_processor@_WV?$stream_output_adapter@_W@__crt_stdio_output@@V?$standard_base@_WV?$stream_output_adapter@_W@__crt_stdio_output@@@2@@__crt_stdio_output@@AEAA_N_N@Z 0000000180060450 f i libucrtd:output.obj
 0001:0005f8d0       ??$type_case_integer@$07@?$output_processor@_WV?$string_output_adapter@_W@__crt_stdio_output@@V?$format_validation_base@_WV?$string_output_adapter@_W@__crt_stdio_output@@@2@@__crt_stdio_output@@AEAA_N_N@Z 00000001800608d0 f i libucrtd:output.obj
 0001:0005fd50       ??$type_case_integer@$07@?$output_processor@_WV?$string_output_adapter@_W@__crt_stdio_output@@V?$positional_parameter_base@_WV?$string_output_adapter@_W@__crt_stdio_output@@@2@@__crt_stdio_output@@AEAA_N_N@Z 0000000180060d50 f i libucrtd:output.obj
 0001:000601d0       ??$type_case_integer@$07@?$output_processor@_WV?$string_output_adapter@_W@__crt_stdio_output@@V?$standard_base@_WV?$string_output_adapter@_W@__crt_stdio_output@@@2@@__crt_stdio_output@@AEAA_N_N@Z 00000001800611d0 f i libucrtd:output.obj
 0001:00060650       ??$type_case_integer@$09@?$output_processor@DV?$stream_output_adapter@D@__crt_stdio_output@@V?$format_validation_base@DV?$stream_output_adapter@D@__crt_stdio_output@@@2@@__crt_stdio_output@@AEAA_N_N@Z 0000000180061650 f i libucrtd:output.obj
 0001:00060ad0       ??$type_case_integer@$09@?$output_processor@DV?$stream_output_adapter@D@__crt_stdio_output@@V?$positional_parameter_base@DV?$stream_output_adapter@D@__crt_stdio_output@@@2@@__crt_stdio_output@@AEAA_N_N@Z 0000000180061ad0 f i libucrtd:output.obj
 0001:00060f50       ??$type_case_integer@$09@?$output_processor@DV?$stream_output_adapter@D@__crt_stdio_output@@V?$standard_base@DV?$stream_output_adapter@D@__crt_stdio_output@@@2@@__crt_stdio_output@@AEAA_N_N@Z 0000000180061f50 f i libucrtd:output.obj
 0001:000613d0       ??$type_case_integer@$09@?$output_processor@DV?$string_output_adapter@D@__crt_stdio_output@@V?$format_validation_base@DV?$string_output_adapter@D@__crt_stdio_output@@@2@@__crt_stdio_output@@AEAA_N_N@Z 00000001800623d0 f i libucrtd:output.obj
 0001:00061850       ??$type_case_integer@$09@?$output_processor@DV?$string_output_adapter@D@__crt_stdio_output@@V?$positional_parameter_base@DV?$string_output_adapter@D@__crt_stdio_output@@@2@@__crt_stdio_output@@AEAA_N_N@Z 0000000180062850 f i libucrtd:output.obj
 0001:00061cd0       ??$type_case_integer@$09@?$output_processor@DV?$string_output_adapter@D@__crt_stdio_output@@V?$standard_base@DV?$string_output_adapter@D@__crt_stdio_output@@@2@@__crt_stdio_output@@AEAA_N_N@Z 0000000180062cd0 f i libucrtd:output.obj
 0001:00062150       ??$type_case_integer@$09@?$output_processor@_WV?$stream_output_adapter@_W@__crt_stdio_output@@V?$format_validation_base@_WV?$stream_output_adapter@_W@__crt_stdio_output@@@2@@__crt_stdio_output@@AEAA_N_N@Z 0000000180063150 f i libucrtd:output.obj
 0001:000625d0       ??$type_case_integer@$09@?$output_processor@_WV?$stream_output_adapter@_W@__crt_stdio_output@@V?$positional_parameter_base@_WV?$stream_output_adapter@_W@__crt_stdio_output@@@2@@__crt_stdio_output@@AEAA_N_N@Z 00000001800635d0 f i libucrtd:output.obj
 0001:00062a50       ??$type_case_integer@$09@?$output_processor@_WV?$stream_output_adapter@_W@__crt_stdio_output@@V?$standard_base@_WV?$stream_output_adapter@_W@__crt_stdio_output@@@2@@__crt_stdio_output@@AEAA_N_N@Z 0000000180063a50 f i libucrtd:output.obj
 0001:00062ed0       ??$type_case_integer@$09@?$output_processor@_WV?$string_output_adapter@_W@__crt_stdio_output@@V?$format_validation_base@_WV?$string_output_adapter@_W@__crt_stdio_output@@@2@@__crt_stdio_output@@AEAA_N_N@Z 0000000180063ed0 f i libucrtd:output.obj
 0001:00063350       ??$type_case_integer@$09@?$output_processor@_WV?$string_output_adapter@_W@__crt_stdio_output@@V?$positional_parameter_base@_WV?$string_output_adapter@_W@__crt_stdio_output@@@2@@__crt_stdio_output@@AEAA_N_N@Z 0000000180064350 f i libucrtd:output.obj
 0001:000637d0       ??$type_case_integer@$09@?$output_processor@_WV?$string_output_adapter@_W@__crt_stdio_output@@V?$standard_base@_WV?$string_output_adapter@_W@__crt_stdio_output@@@2@@__crt_stdio_output@@AEAA_N_N@Z 00000001800647d0 f i libucrtd:output.obj
 0001:00063c50       ??$type_case_integer@$0BA@@?$output_processor@DV?$stream_output_adapter@D@__crt_stdio_output@@V?$format_validation_base@DV?$stream_output_adapter@D@__crt_stdio_output@@@2@@__crt_stdio_output@@AEAA_N_N@Z 0000000180064c50 f i libucrtd:output.obj
 0001:000640d0       ??$type_case_integer@$0BA@@?$output_processor@DV?$stream_output_adapter@D@__crt_stdio_output@@V?$positional_parameter_base@DV?$stream_output_adapter@D@__crt_stdio_output@@@2@@__crt_stdio_output@@AEAA_N_N@Z 00000001800650d0 f i libucrtd:output.obj
 0001:00064550       ??$type_case_integer@$0BA@@?$output_processor@DV?$stream_output_adapter@D@__crt_stdio_output@@V?$standard_base@DV?$stream_output_adapter@D@__crt_stdio_output@@@2@@__crt_stdio_output@@AEAA_N_N@Z 0000000180065550 f i libucrtd:output.obj
 0001:000649d0       ??$type_case_integer@$0BA@@?$output_processor@DV?$string_output_adapter@D@__crt_stdio_output@@V?$format_validation_base@DV?$string_output_adapter@D@__crt_stdio_output@@@2@@__crt_stdio_output@@AEAA_N_N@Z 00000001800659d0 f i libucrtd:output.obj
 0001:00064e50       ??$type_case_integer@$0BA@@?$output_processor@DV?$string_output_adapter@D@__crt_stdio_output@@V?$positional_parameter_base@DV?$string_output_adapter@D@__crt_stdio_output@@@2@@__crt_stdio_output@@AEAA_N_N@Z 0000000180065e50 f i libucrtd:output.obj
 0001:000652d0       ??$type_case_integer@$0BA@@?$output_processor@DV?$string_output_adapter@D@__crt_stdio_output@@V?$standard_base@DV?$string_output_adapter@D@__crt_stdio_output@@@2@@__crt_stdio_output@@AEAA_N_N@Z 00000001800662d0 f i libucrtd:output.obj
 0001:00065750       ??$type_case_integer@$0BA@@?$output_processor@_WV?$stream_output_adapter@_W@__crt_stdio_output@@V?$format_validation_base@_WV?$stream_output_adapter@_W@__crt_stdio_output@@@2@@__crt_stdio_output@@AEAA_N_N@Z 0000000180066750 f i libucrtd:output.obj
 0001:00065bd0       ??$type_case_integer@$0BA@@?$output_processor@_WV?$stream_output_adapter@_W@__crt_stdio_output@@V?$positional_parameter_base@_WV?$stream_output_adapter@_W@__crt_stdio_output@@@2@@__crt_stdio_output@@AEAA_N_N@Z 0000000180066bd0 f i libucrtd:output.obj
 0001:00066050       ??$type_case_integer@$0BA@@?$output_processor@_WV?$stream_output_adapter@_W@__crt_stdio_output@@V?$standard_base@_WV?$stream_output_adapter@_W@__crt_stdio_output@@@2@@__crt_stdio_output@@AEAA_N_N@Z 0000000180067050 f i libucrtd:output.obj
 0001:000664d0       ??$type_case_integer@$0BA@@?$output_processor@_WV?$string_output_adapter@_W@__crt_stdio_output@@V?$format_validation_base@_WV?$string_output_adapter@_W@__crt_stdio_output@@@2@@__crt_stdio_output@@AEAA_N_N@Z 00000001800674d0 f i libucrtd:output.obj
 0001:00066950       ??$type_case_integer@$0BA@@?$output_processor@_WV?$string_output_adapter@_W@__crt_stdio_output@@V?$positional_parameter_base@_WV?$string_output_adapter@_W@__crt_stdio_output@@@2@@__crt_stdio_output@@AEAA_N_N@Z 0000000180067950 f i libucrtd:output.obj
 0001:00066dd0       ??$type_case_integer@$0BA@@?$output_processor@_WV?$string_output_adapter@_W@__crt_stdio_output@@V?$standard_base@_WV?$string_output_adapter@_W@__crt_stdio_output@@@2@@__crt_stdio_output@@AEAA_N_N@Z 0000000180067dd0 f i libucrtd:output.obj
 0001:00067250       ??$type_case_integer_parse_into_buffer@I$07@?$output_processor@DV?$stream_output_adapter@D@__crt_stdio_output@@V?$format_validation_base@DV?$stream_output_adapter@D@__crt_stdio_output@@@2@@__crt_stdio_output@@AEAAXI_N@Z 0000000180068250 f i libucrtd:output.obj
 0001:00067380       ??$type_case_integer_parse_into_buffer@I$07@?$output_processor@DV?$stream_output_adapter@D@__crt_stdio_output@@V?$positional_parameter_base@DV?$stream_output_adapter@D@__crt_stdio_output@@@2@@__crt_stdio_output@@AEAAXI_N@Z 0000000180068380 f i libucrtd:output.obj
 0001:000674b0       ??$type_case_integer_parse_into_buffer@I$07@?$output_processor@DV?$stream_output_adapter@D@__crt_stdio_output@@V?$standard_base@DV?$stream_output_adapter@D@__crt_stdio_output@@@2@@__crt_stdio_output@@AEAAXI_N@Z 00000001800684b0 f i libucrtd:output.obj
 0001:000675e0       ??$type_case_integer_parse_into_buffer@I$07@?$output_processor@DV?$string_output_adapter@D@__crt_stdio_output@@V?$format_validation_base@DV?$string_output_adapter@D@__crt_stdio_output@@@2@@__crt_stdio_output@@AEAAXI_N@Z 00000001800685e0 f i libucrtd:output.obj
 0001:00067710       ??$type_case_integer_parse_into_buffer@I$07@?$output_processor@DV?$string_output_adapter@D@__crt_stdio_output@@V?$positional_parameter_base@DV?$string_output_adapter@D@__crt_stdio_output@@@2@@__crt_stdio_output@@AEAAXI_N@Z 0000000180068710 f i libucrtd:output.obj
 0001:00067840       ??$type_case_integer_parse_into_buffer@I$07@?$output_processor@DV?$string_output_adapter@D@__crt_stdio_output@@V?$standard_base@DV?$string_output_adapter@D@__crt_stdio_output@@@2@@__crt_stdio_output@@AEAAXI_N@Z 0000000180068840 f i libucrtd:output.obj
 0001:00067970       ??$type_case_integer_parse_into_buffer@I$07@?$output_processor@_WV?$stream_output_adapter@_W@__crt_stdio_output@@V?$format_validation_base@_WV?$stream_output_adapter@_W@__crt_stdio_output@@@2@@__crt_stdio_output@@AEAAXI_N@Z 0000000180068970 f i libucrtd:output.obj
 0001:00067ab0       ??$type_case_integer_parse_into_buffer@I$07@?$output_processor@_WV?$stream_output_adapter@_W@__crt_stdio_output@@V?$positional_parameter_base@_WV?$stream_output_adapter@_W@__crt_stdio_output@@@2@@__crt_stdio_output@@AEAAXI_N@Z 0000000180068ab0 f i libucrtd:output.obj
 0001:00067bf0       ??$type_case_integer_parse_into_buffer@I$07@?$output_processor@_WV?$stream_output_adapter@_W@__crt_stdio_output@@V?$standard_base@_WV?$stream_output_adapter@_W@__crt_stdio_output@@@2@@__crt_stdio_output@@AEAAXI_N@Z 0000000180068bf0 f i libucrtd:output.obj
 0001:00067d30       ??$type_case_integer_parse_into_buffer@I$07@?$output_processor@_WV?$string_output_adapter@_W@__crt_stdio_output@@V?$format_validation_base@_WV?$string_output_adapter@_W@__crt_stdio_output@@@2@@__crt_stdio_output@@AEAAXI_N@Z 0000000180068d30 f i libucrtd:output.obj
 0001:00067e70       ??$type_case_integer_parse_into_buffer@I$07@?$output_processor@_WV?$string_output_adapter@_W@__crt_stdio_output@@V?$positional_parameter_base@_WV?$string_output_adapter@_W@__crt_stdio_output@@@2@@__crt_stdio_output@@AEAAXI_N@Z 0000000180068e70 f i libucrtd:output.obj
 0001:00067fb0       ??$type_case_integer_parse_into_buffer@I$07@?$output_processor@_WV?$string_output_adapter@_W@__crt_stdio_output@@V?$standard_base@_WV?$string_output_adapter@_W@__crt_stdio_output@@@2@@__crt_stdio_output@@AEAAXI_N@Z 0000000180068fb0 f i libucrtd:output.obj
 0001:000680f0       ??$type_case_integer_parse_into_buffer@I$09@?$output_processor@DV?$stream_output_adapter@D@__crt_stdio_output@@V?$format_validation_base@DV?$stream_output_adapter@D@__crt_stdio_output@@@2@@__crt_stdio_output@@AEAAXI_N@Z 00000001800690f0 f i libucrtd:output.obj
 0001:00068220       ??$type_case_integer_parse_into_buffer@I$09@?$output_processor@DV?$stream_output_adapter@D@__crt_stdio_output@@V?$positional_parameter_base@DV?$stream_output_adapter@D@__crt_stdio_output@@@2@@__crt_stdio_output@@AEAAXI_N@Z 0000000180069220 f i libucrtd:output.obj
 0001:00068350       ??$type_case_integer_parse_into_buffer@I$09@?$output_processor@DV?$stream_output_adapter@D@__crt_stdio_output@@V?$standard_base@DV?$stream_output_adapter@D@__crt_stdio_output@@@2@@__crt_stdio_output@@AEAAXI_N@Z 0000000180069350 f i libucrtd:output.obj
 0001:00068480       ??$type_case_integer_parse_into_buffer@I$09@?$output_processor@DV?$string_output_adapter@D@__crt_stdio_output@@V?$format_validation_base@DV?$string_output_adapter@D@__crt_stdio_output@@@2@@__crt_stdio_output@@AEAAXI_N@Z 0000000180069480 f i libucrtd:output.obj
 0001:000685b0       ??$type_case_integer_parse_into_buffer@I$09@?$output_processor@DV?$string_output_adapter@D@__crt_stdio_output@@V?$positional_parameter_base@DV?$string_output_adapter@D@__crt_stdio_output@@@2@@__crt_stdio_output@@AEAAXI_N@Z 00000001800695b0 f i libucrtd:output.obj
 0001:000686e0       ??$type_case_integer_parse_into_buffer@I$09@?$output_processor@DV?$string_output_adapter@D@__crt_stdio_output@@V?$standard_base@DV?$string_output_adapter@D@__crt_stdio_output@@@2@@__crt_stdio_output@@AEAAXI_N@Z 00000001800696e0 f i libucrtd:output.obj
 0001:00068810       ??$type_case_integer_parse_into_buffer@I$09@?$output_processor@_WV?$stream_output_adapter@_W@__crt_stdio_output@@V?$format_validation_base@_WV?$stream_output_adapter@_W@__crt_stdio_output@@@2@@__crt_stdio_output@@AEAAXI_N@Z 0000000180069810 f i libucrtd:output.obj
 0001:00068950       ??$type_case_integer_parse_into_buffer@I$09@?$output_processor@_WV?$stream_output_adapter@_W@__crt_stdio_output@@V?$positional_parameter_base@_WV?$stream_output_adapter@_W@__crt_stdio_output@@@2@@__crt_stdio_output@@AEAAXI_N@Z 0000000180069950 f i libucrtd:output.obj
 0001:00068a90       ??$type_case_integer_parse_into_buffer@I$09@?$output_processor@_WV?$stream_output_adapter@_W@__crt_stdio_output@@V?$standard_base@_WV?$stream_output_adapter@_W@__crt_stdio_output@@@2@@__crt_stdio_output@@AEAAXI_N@Z 0000000180069a90 f i libucrtd:output.obj
 0001:00068bd0       ??$type_case_integer_parse_into_buffer@I$09@?$output_processor@_WV?$string_output_adapter@_W@__crt_stdio_output@@V?$format_validation_base@_WV?$string_output_adapter@_W@__crt_stdio_output@@@2@@__crt_stdio_output@@AEAAXI_N@Z 0000000180069bd0 f i libucrtd:output.obj
 0001:00068d10       ??$type_case_integer_parse_into_buffer@I$09@?$output_processor@_WV?$string_output_adapter@_W@__crt_stdio_output@@V?$positional_parameter_base@_WV?$string_output_adapter@_W@__crt_stdio_output@@@2@@__crt_stdio_output@@AEAAXI_N@Z 0000000180069d10 f i libucrtd:output.obj
 0001:00068e50       ??$type_case_integer_parse_into_buffer@I$09@?$output_processor@_WV?$string_output_adapter@_W@__crt_stdio_output@@V?$standard_base@_WV?$string_output_adapter@_W@__crt_stdio_output@@@2@@__crt_stdio_output@@AEAAXI_N@Z 0000000180069e50 f i libucrtd:output.obj
 0001:00068f90       ??$type_case_integer_parse_into_buffer@I$0BA@@?$output_processor@DV?$stream_output_adapter@D@__crt_stdio_output@@V?$format_validation_base@DV?$stream_output_adapter@D@__crt_stdio_output@@@2@@__crt_stdio_output@@AEAAXI_N@Z 0000000180069f90 f i libucrtd:output.obj
 0001:000690c0       ??$type_case_integer_parse_into_buffer@I$0BA@@?$output_processor@DV?$stream_output_adapter@D@__crt_stdio_output@@V?$positional_parameter_base@DV?$stream_output_adapter@D@__crt_stdio_output@@@2@@__crt_stdio_output@@AEAAXI_N@Z 000000018006a0c0 f i libucrtd:output.obj
 0001:000691f0       ??$type_case_integer_parse_into_buffer@I$0BA@@?$output_processor@DV?$stream_output_adapter@D@__crt_stdio_output@@V?$standard_base@DV?$stream_output_adapter@D@__crt_stdio_output@@@2@@__crt_stdio_output@@AEAAXI_N@Z 000000018006a1f0 f i libucrtd:output.obj
 0001:00069320       ??$type_case_integer_parse_into_buffer@I$0BA@@?$output_processor@DV?$string_output_adapter@D@__crt_stdio_output@@V?$format_validation_base@DV?$string_output_adapter@D@__crt_stdio_output@@@2@@__crt_stdio_output@@AEAAXI_N@Z 000000018006a320 f i libucrtd:output.obj
 0001:00069450       ??$type_case_integer_parse_into_buffer@I$0BA@@?$output_processor@DV?$string_output_adapter@D@__crt_stdio_output@@V?$positional_parameter_base@DV?$string_output_adapter@D@__crt_stdio_output@@@2@@__crt_stdio_output@@AEAAXI_N@Z 000000018006a450 f i libucrtd:output.obj
 0001:00069580       ??$type_case_integer_parse_into_buffer@I$0BA@@?$output_processor@DV?$string_output_adapter@D@__crt_stdio_output@@V?$standard_base@DV?$string_output_adapter@D@__crt_stdio_output@@@2@@__crt_stdio_output@@AEAAXI_N@Z 000000018006a580 f i libucrtd:output.obj
 0001:000696b0       ??$type_case_integer_parse_into_buffer@I$0BA@@?$output_processor@_WV?$stream_output_adapter@_W@__crt_stdio_output@@V?$format_validation_base@_WV?$stream_output_adapter@_W@__crt_stdio_output@@@2@@__crt_stdio_output@@AEAAXI_N@Z 000000018006a6b0 f i libucrtd:output.obj
 0001:000697f0       ??$type_case_integer_parse_into_buffer@I$0BA@@?$output_processor@_WV?$stream_output_adapter@_W@__crt_stdio_output@@V?$positional_parameter_base@_WV?$stream_output_adapter@_W@__crt_stdio_output@@@2@@__crt_stdio_output@@AEAAXI_N@Z 000000018006a7f0 f i libucrtd:output.obj
 0001:00069930       ??$type_case_integer_parse_into_buffer@I$0BA@@?$output_processor@_WV?$stream_output_adapter@_W@__crt_stdio_output@@V?$standard_base@_WV?$stream_output_adapter@_W@__crt_stdio_output@@@2@@__crt_stdio_output@@AEAAXI_N@Z 000000018006a930 f i libucrtd:output.obj
 0001:00069a70       ??$type_case_integer_parse_into_buffer@I$0BA@@?$output_processor@_WV?$string_output_adapter@_W@__crt_stdio_output@@V?$format_validation_base@_WV?$string_output_adapter@_W@__crt_stdio_output@@@2@@__crt_stdio_output@@AEAAXI_N@Z 000000018006aa70 f i libucrtd:output.obj
 0001:00069bb0       ??$type_case_integer_parse_into_buffer@I$0BA@@?$output_processor@_WV?$string_output_adapter@_W@__crt_stdio_output@@V?$positional_parameter_base@_WV?$string_output_adapter@_W@__crt_stdio_output@@@2@@__crt_stdio_output@@AEAAXI_N@Z 000000018006abb0 f i libucrtd:output.obj
 0001:00069cf0       ??$type_case_integer_parse_into_buffer@I$0BA@@?$output_processor@_WV?$string_output_adapter@_W@__crt_stdio_output@@V?$standard_base@_WV?$string_output_adapter@_W@__crt_stdio_output@@@2@@__crt_stdio_output@@AEAAXI_N@Z 000000018006acf0 f i libucrtd:output.obj
 0001:00069e30       ??$type_case_integer_parse_into_buffer@_K$07@?$output_processor@DV?$stream_output_adapter@D@__crt_stdio_output@@V?$format_validation_base@DV?$stream_output_adapter@D@__crt_stdio_output@@@2@@__crt_stdio_output@@AEAAX_K_N@Z 000000018006ae30 f i libucrtd:output.obj
 0001:00069f70       ??$type_case_integer_parse_into_buffer@_K$07@?$output_processor@DV?$stream_output_adapter@D@__crt_stdio_output@@V?$positional_parameter_base@DV?$stream_output_adapter@D@__crt_stdio_output@@@2@@__crt_stdio_output@@AEAAX_K_N@Z 000000018006af70 f i libucrtd:output.obj
 0001:0006a0b0       ??$type_case_integer_parse_into_buffer@_K$07@?$output_processor@DV?$stream_output_adapter@D@__crt_stdio_output@@V?$standard_base@DV?$stream_output_adapter@D@__crt_stdio_output@@@2@@__crt_stdio_output@@AEAAX_K_N@Z 000000018006b0b0 f i libucrtd:output.obj
 0001:0006a1f0       ??$type_case_integer_parse_into_buffer@_K$07@?$output_processor@DV?$string_output_adapter@D@__crt_stdio_output@@V?$format_validation_base@DV?$string_output_adapter@D@__crt_stdio_output@@@2@@__crt_stdio_output@@AEAAX_K_N@Z 000000018006b1f0 f i libucrtd:output.obj
 0001:0006a330       ??$type_case_integer_parse_into_buffer@_K$07@?$output_processor@DV?$string_output_adapter@D@__crt_stdio_output@@V?$positional_parameter_base@DV?$string_output_adapter@D@__crt_stdio_output@@@2@@__crt_stdio_output@@AEAAX_K_N@Z 000000018006b330 f i libucrtd:output.obj
 0001:0006a470       ??$type_case_integer_parse_into_buffer@_K$07@?$output_processor@DV?$string_output_adapter@D@__crt_stdio_output@@V?$standard_base@DV?$string_output_adapter@D@__crt_stdio_output@@@2@@__crt_stdio_output@@AEAAX_K_N@Z 000000018006b470 f i libucrtd:output.obj
 0001:0006a5b0       ??$type_case_integer_parse_into_buffer@_K$07@?$output_processor@_WV?$stream_output_adapter@_W@__crt_stdio_output@@V?$format_validation_base@_WV?$stream_output_adapter@_W@__crt_stdio_output@@@2@@__crt_stdio_output@@AEAAX_K_N@Z 000000018006b5b0 f i libucrtd:output.obj
 0001:0006a6f0       ??$type_case_integer_parse_into_buffer@_K$07@?$output_processor@_WV?$stream_output_adapter@_W@__crt_stdio_output@@V?$positional_parameter_base@_WV?$stream_output_adapter@_W@__crt_stdio_output@@@2@@__crt_stdio_output@@AEAAX_K_N@Z 000000018006b6f0 f i libucrtd:output.obj
 0001:0006a830       ??$type_case_integer_parse_into_buffer@_K$07@?$output_processor@_WV?$stream_output_adapter@_W@__crt_stdio_output@@V?$standard_base@_WV?$stream_output_adapter@_W@__crt_stdio_output@@@2@@__crt_stdio_output@@AEAAX_K_N@Z 000000018006b830 f i libucrtd:output.obj
 0001:0006a970       ??$type_case_integer_parse_into_buffer@_K$07@?$output_processor@_WV?$string_output_adapter@_W@__crt_stdio_output@@V?$format_validation_base@_WV?$string_output_adapter@_W@__crt_stdio_output@@@2@@__crt_stdio_output@@AEAAX_K_N@Z 000000018006b970 f i libucrtd:output.obj
 0001:0006aab0       ??$type_case_integer_parse_into_buffer@_K$07@?$output_processor@_WV?$string_output_adapter@_W@__crt_stdio_output@@V?$positional_parameter_base@_WV?$string_output_adapter@_W@__crt_stdio_output@@@2@@__crt_stdio_output@@AEAAX_K_N@Z 000000018006bab0 f i libucrtd:output.obj
 0001:0006abf0       ??$type_case_integer_parse_into_buffer@_K$07@?$output_processor@_WV?$string_output_adapter@_W@__crt_stdio_output@@V?$standard_base@_WV?$string_output_adapter@_W@__crt_stdio_output@@@2@@__crt_stdio_output@@AEAAX_K_N@Z 000000018006bbf0 f i libucrtd:output.obj
 0001:0006ad30       ??$type_case_integer_parse_into_buffer@_K$09@?$output_processor@DV?$stream_output_adapter@D@__crt_stdio_output@@V?$format_validation_base@DV?$stream_output_adapter@D@__crt_stdio_output@@@2@@__crt_stdio_output@@AEAAX_K_N@Z 000000018006bd30 f i libucrtd:output.obj
 0001:0006ae70       ??$type_case_integer_parse_into_buffer@_K$09@?$output_processor@DV?$stream_output_adapter@D@__crt_stdio_output@@V?$positional_parameter_base@DV?$stream_output_adapter@D@__crt_stdio_output@@@2@@__crt_stdio_output@@AEAAX_K_N@Z 000000018006be70 f i libucrtd:output.obj
 0001:0006afb0       ??$type_case_integer_parse_into_buffer@_K$09@?$output_processor@DV?$stream_output_adapter@D@__crt_stdio_output@@V?$standard_base@DV?$stream_output_adapter@D@__crt_stdio_output@@@2@@__crt_stdio_output@@AEAAX_K_N@Z 000000018006bfb0 f i libucrtd:output.obj
 0001:0006b0f0       ??$type_case_integer_parse_into_buffer@_K$09@?$output_processor@DV?$string_output_adapter@D@__crt_stdio_output@@V?$format_validation_base@DV?$string_output_adapter@D@__crt_stdio_output@@@2@@__crt_stdio_output@@AEAAX_K_N@Z 000000018006c0f0 f i libucrtd:output.obj
 0001:0006b230       ??$type_case_integer_parse_into_buffer@_K$09@?$output_processor@DV?$string_output_adapter@D@__crt_stdio_output@@V?$positional_parameter_base@DV?$string_output_adapter@D@__crt_stdio_output@@@2@@__crt_stdio_output@@AEAAX_K_N@Z 000000018006c230 f i libucrtd:output.obj
 0001:0006b370       ??$type_case_integer_parse_into_buffer@_K$09@?$output_processor@DV?$string_output_adapter@D@__crt_stdio_output@@V?$standard_base@DV?$string_output_adapter@D@__crt_stdio_output@@@2@@__crt_stdio_output@@AEAAX_K_N@Z 000000018006c370 f i libucrtd:output.obj
 0001:0006b4b0       ??$type_case_integer_parse_into_buffer@_K$09@?$output_processor@_WV?$stream_output_adapter@_W@__crt_stdio_output@@V?$format_validation_base@_WV?$stream_output_adapter@_W@__crt_stdio_output@@@2@@__crt_stdio_output@@AEAAX_K_N@Z 000000018006c4b0 f i libucrtd:output.obj
 0001:0006b5f0       ??$type_case_integer_parse_into_buffer@_K$09@?$output_processor@_WV?$stream_output_adapter@_W@__crt_stdio_output@@V?$positional_parameter_base@_WV?$stream_output_adapter@_W@__crt_stdio_output@@@2@@__crt_stdio_output@@AEAAX_K_N@Z 000000018006c5f0 f i libucrtd:output.obj
 0001:0006b730       ??$type_case_integer_parse_into_buffer@_K$09@?$output_processor@_WV?$stream_output_adapter@_W@__crt_stdio_output@@V?$standard_base@_WV?$stream_output_adapter@_W@__crt_stdio_output@@@2@@__crt_stdio_output@@AEAAX_K_N@Z 000000018006c730 f i libucrtd:output.obj
 0001:0006b870       ??$type_case_integer_parse_into_buffer@_K$09@?$output_processor@_WV?$string_output_adapter@_W@__crt_stdio_output@@V?$format_validation_base@_WV?$string_output_adapter@_W@__crt_stdio_output@@@2@@__crt_stdio_output@@AEAAX_K_N@Z 000000018006c870 f i libucrtd:output.obj
 0001:0006b9b0       ??$type_case_integer_parse_into_buffer@_K$09@?$output_processor@_WV?$string_output_adapter@_W@__crt_stdio_output@@V?$positional_parameter_base@_WV?$string_output_adapter@_W@__crt_stdio_output@@@2@@__crt_stdio_output@@AEAAX_K_N@Z 000000018006c9b0 f i libucrtd:output.obj
 0001:0006baf0       ??$type_case_integer_parse_into_buffer@_K$09@?$output_processor@_WV?$string_output_adapter@_W@__crt_stdio_output@@V?$standard_base@_WV?$string_output_adapter@_W@__crt_stdio_output@@@2@@__crt_stdio_output@@AEAAX_K_N@Z 000000018006caf0 f i libucrtd:output.obj
 0001:0006bc30       ??$type_case_integer_parse_into_buffer@_K$0BA@@?$output_processor@DV?$stream_output_adapter@D@__crt_stdio_output@@V?$format_validation_base@DV?$stream_output_adapter@D@__crt_stdio_output@@@2@@__crt_stdio_output@@AEAAX_K_N@Z 000000018006cc30 f i libucrtd:output.obj
 0001:0006bd70       ??$type_case_integer_parse_into_buffer@_K$0BA@@?$output_processor@DV?$stream_output_adapter@D@__crt_stdio_output@@V?$positional_parameter_base@DV?$stream_output_adapter@D@__crt_stdio_output@@@2@@__crt_stdio_output@@AEAAX_K_N@Z 000000018006cd70 f i libucrtd:output.obj
 0001:0006beb0       ??$type_case_integer_parse_into_buffer@_K$0BA@@?$output_processor@DV?$stream_output_adapter@D@__crt_stdio_output@@V?$standard_base@DV?$stream_output_adapter@D@__crt_stdio_output@@@2@@__crt_stdio_output@@AEAAX_K_N@Z 000000018006ceb0 f i libucrtd:output.obj
 0001:0006bff0       ??$type_case_integer_parse_into_buffer@_K$0BA@@?$output_processor@DV?$string_output_adapter@D@__crt_stdio_output@@V?$format_validation_base@DV?$string_output_adapter@D@__crt_stdio_output@@@2@@__crt_stdio_output@@AEAAX_K_N@Z 000000018006cff0 f i libucrtd:output.obj
 0001:0006c130       ??$type_case_integer_parse_into_buffer@_K$0BA@@?$output_processor@DV?$string_output_adapter@D@__crt_stdio_output@@V?$positional_parameter_base@DV?$string_output_adapter@D@__crt_stdio_output@@@2@@__crt_stdio_output@@AEAAX_K_N@Z 000000018006d130 f i libucrtd:output.obj
 0001:0006c270       ??$type_case_integer_parse_into_buffer@_K$0BA@@?$output_processor@DV?$string_output_adapter@D@__crt_stdio_output@@V?$standard_base@DV?$string_output_adapter@D@__crt_stdio_output@@@2@@__crt_stdio_output@@AEAAX_K_N@Z 000000018006d270 f i libucrtd:output.obj
 0001:0006c3b0       ??$type_case_integer_parse_into_buffer@_K$0BA@@?$output_processor@_WV?$stream_output_adapter@_W@__crt_stdio_output@@V?$format_validation_base@_WV?$stream_output_adapter@_W@__crt_stdio_output@@@2@@__crt_stdio_output@@AEAAX_K_N@Z 000000018006d3b0 f i libucrtd:output.obj
 0001:0006c4f0       ??$type_case_integer_parse_into_buffer@_K$0BA@@?$output_processor@_WV?$stream_output_adapter@_W@__crt_stdio_output@@V?$positional_parameter_base@_WV?$stream_output_adapter@_W@__crt_stdio_output@@@2@@__crt_stdio_output@@AEAAX_K_N@Z 000000018006d4f0 f i libucrtd:output.obj
 0001:0006c630       ??$type_case_integer_parse_into_buffer@_K$0BA@@?$output_processor@_WV?$stream_output_adapter@_W@__crt_stdio_output@@V?$standard_base@_WV?$stream_output_adapter@_W@__crt_stdio_output@@@2@@__crt_stdio_output@@AEAAX_K_N@Z 000000018006d630 f i libucrtd:output.obj
 0001:0006c770       ??$type_case_integer_parse_into_buffer@_K$0BA@@?$output_processor@_WV?$string_output_adapter@_W@__crt_stdio_output@@V?$format_validation_base@_WV?$string_output_adapter@_W@__crt_stdio_output@@@2@@__crt_stdio_output@@AEAAX_K_N@Z 000000018006d770 f i libucrtd:output.obj
 0001:0006c8b0       ??$type_case_integer_parse_into_buffer@_K$0BA@@?$output_processor@_WV?$string_output_adapter@_W@__crt_stdio_output@@V?$positional_parameter_base@_WV?$string_output_adapter@_W@__crt_stdio_output@@@2@@__crt_stdio_output@@AEAAX_K_N@Z 000000018006d8b0 f i libucrtd:output.obj
 0001:0006c9f0       ??$type_case_integer_parse_into_buffer@_K$0BA@@?$output_processor@_WV?$string_output_adapter@_W@__crt_stdio_output@@V?$standard_base@_WV?$string_output_adapter@_W@__crt_stdio_output@@@2@@__crt_stdio_output@@AEAAX_K_N@Z 000000018006d9f0 f i libucrtd:output.obj
 0001:0006cb30       ??$write_multiple_characters@V?$stream_output_adapter@D@__crt_stdio_output@@D@__crt_stdio_output@@YAXAEBV?$stream_output_adapter@D@0@DHQEAHAEAV__crt_cached_ptd_host@@@Z 000000018006db30 f i libucrtd:output.obj
 0001:0006cba0       ??$write_multiple_characters@V?$stream_output_adapter@_W@__crt_stdio_output@@D@__crt_stdio_output@@YAXAEBV?$stream_output_adapter@_W@0@DHQEAHAEAV__crt_cached_ptd_host@@@Z 000000018006dba0 f i libucrtd:output.obj
 0001:0006cc10       ??$write_multiple_characters@V?$string_output_adapter@D@__crt_stdio_output@@D@__crt_stdio_output@@YAXAEBV?$string_output_adapter@D@0@DHQEAHAEAV__crt_cached_ptd_host@@@Z 000000018006dc10 f i libucrtd:output.obj
 0001:0006cc80       ??$write_multiple_characters@V?$string_output_adapter@_W@__crt_stdio_output@@D@__crt_stdio_output@@YAXAEBV?$string_output_adapter@_W@0@DHQEAHAEAV__crt_cached_ptd_host@@@Z 000000018006dc80 f i libucrtd:output.obj
 0001:0006d0b0       ??0?$c_string_character_source@D@__crt_strtox@@QEAA@QEBDQEAPEBD@Z 000000018006e0b0 f i libucrtd:output.obj
 0001:0006d100       ??0?$c_string_character_source@_W@__crt_strtox@@QEAA@QEB_WQEAPEB_W@Z 000000018006e100 f i libucrtd:output.obj
 0001:0006d150       ??0?$cached@H@__crt_cached_ptd_host@@QEAA@XZ 000000018006e150 f i libucrtd:output.obj
 0001:0006d170       ??0?$cached@K@__crt_cached_ptd_host@@QEAA@XZ 000000018006e170 f i libucrtd:output.obj
 0001:0006d190       ??0?$common_data@D@__crt_stdio_output@@IEAA@AEAV__crt_cached_ptd_host@@@Z 000000018006e190 f i libucrtd:output.obj
 0001:0006d250       ??0?$common_data@_W@__crt_stdio_output@@IEAA@AEAV__crt_cached_ptd_host@@@Z 000000018006e250 f i libucrtd:output.obj
 0001:0006d310       ??0?$output_adapter_data@DV?$stream_output_adapter@D@__crt_stdio_output@@@__crt_stdio_output@@IEAA@AEBV?$stream_output_adapter@D@1@_KQEBDAEAV__crt_cached_ptd_host@@QEAD@Z 000000018006e310 f i libucrtd:output.obj
 0001:0006d390       ??0?$output_adapter_data@DV?$string_output_adapter@D@__crt_stdio_output@@@__crt_stdio_output@@IEAA@AEBV?$string_output_adapter@D@1@_KQEBDAEAV__crt_cached_ptd_host@@QEAD@Z 000000018006e390 f i libucrtd:output.obj
 0001:0006d410       ??0?$output_adapter_data@_WV?$stream_output_adapter@_W@__crt_stdio_output@@@__crt_stdio_output@@IEAA@AEBV?$stream_output_adapter@_W@1@_KQEB_WAEAV__crt_cached_ptd_host@@QEAD@Z 000000018006e410 f i libucrtd:output.obj
 0001:0006d490       ??0?$output_adapter_data@_WV?$string_output_adapter@_W@__crt_stdio_output@@@__crt_stdio_output@@IEAA@AEBV?$string_output_adapter@_W@1@_KQEB_WAEAV__crt_cached_ptd_host@@QEAD@Z 000000018006e490 f i libucrtd:output.obj
 0001:0006d510       ??0?$output_processor@DV?$stream_output_adapter@D@__crt_stdio_output@@V?$format_validation_base@DV?$stream_output_adapter@D@__crt_stdio_output@@@2@@__crt_stdio_output@@QEAA@AEBV?$stream_output_adapter@D@1@_KQEBDAEAV__crt_cached_ptd_host@@QEAD@Z 000000018006e510 f i libucrtd:output.obj
 0001:0006d560       ??0?$output_processor@DV?$stream_output_adapter@D@__crt_stdio_output@@V?$positional_parameter_base@DV?$stream_output_adapter@D@__crt_stdio_output@@@2@@__crt_stdio_output@@QEAA@AEBV?$stream_output_adapter@D@1@_KQEBDAEAV__crt_cached_ptd_host@@QEAD@Z 000000018006e560 f i libucrtd:output.obj
 0001:0006d5b0       ??0?$output_processor@DV?$stream_output_adapter@D@__crt_stdio_output@@V?$standard_base@DV?$stream_output_adapter@D@__crt_stdio_output@@@2@@__crt_stdio_output@@QEAA@AEBV?$stream_output_adapter@D@1@_KQEBDAEAV__crt_cached_ptd_host@@QEAD@Z 000000018006e5b0 f i libucrtd:output.obj
 0001:0006d600       ??0?$output_processor@DV?$string_output_adapter@D@__crt_stdio_output@@V?$format_validation_base@DV?$string_output_adapter@D@__crt_stdio_output@@@2@@__crt_stdio_output@@QEAA@AEBV?$string_output_adapter@D@1@_KQEBDAEAV__crt_cached_ptd_host@@QEAD@Z 000000018006e600 f i libucrtd:output.obj
 0001:0006d650       ??0?$output_processor@DV?$string_output_adapter@D@__crt_stdio_output@@V?$positional_parameter_base@DV?$string_output_adapter@D@__crt_stdio_output@@@2@@__crt_stdio_output@@QEAA@AEBV?$string_output_adapter@D@1@_KQEBDAEAV__crt_cached_ptd_host@@QEAD@Z 000000018006e650 f i libucrtd:output.obj
 0001:0006d6a0       ??0?$output_processor@DV?$string_output_adapter@D@__crt_stdio_output@@V?$standard_base@DV?$string_output_adapter@D@__crt_stdio_output@@@2@@__crt_stdio_output@@QEAA@AEBV?$string_output_adapter@D@1@_KQEBDAEAV__crt_cached_ptd_host@@QEAD@Z 000000018006e6a0 f i libucrtd:output.obj
 0001:0006d6f0       ??0?$output_processor@_WV?$stream_output_adapter@_W@__crt_stdio_output@@V?$format_validation_base@_WV?$stream_output_adapter@_W@__crt_stdio_output@@@2@@__crt_stdio_output@@QEAA@AEBV?$stream_output_adapter@_W@1@_KQEB_WAEAV__crt_cached_ptd_host@@QEAD@Z 000000018006e6f0 f i libucrtd:output.obj
 0001:0006d740       ??0?$output_processor@_WV?$stream_output_adapter@_W@__crt_stdio_output@@V?$positional_parameter_base@_WV?$stream_output_adapter@_W@__crt_stdio_output@@@2@@__crt_stdio_output@@QEAA@AEBV?$stream_output_adapter@_W@1@_KQEB_WAEAV__crt_cached_ptd_host@@QEAD@Z 000000018006e740 f i libucrtd:output.obj
 0001:0006d790       ??0?$output_processor@_WV?$stream_output_adapter@_W@__crt_stdio_output@@V?$standard_base@_WV?$stream_output_adapter@_W@__crt_stdio_output@@@2@@__crt_stdio_output@@QEAA@AEBV?$stream_output_adapter@_W@1@_KQEB_WAEAV__crt_cached_ptd_host@@QEAD@Z 000000018006e790 f i libucrtd:output.obj
 0001:0006d7e0       ??0?$output_processor@_WV?$string_output_adapter@_W@__crt_stdio_output@@V?$format_validation_base@_WV?$string_output_adapter@_W@__crt_stdio_output@@@2@@__crt_stdio_output@@QEAA@AEBV?$string_output_adapter@_W@1@_KQEB_WAEAV__crt_cached_ptd_host@@QEAD@Z 000000018006e7e0 f i libucrtd:output.obj
 0001:0006d830       ??0?$output_processor@_WV?$string_output_adapter@_W@__crt_stdio_output@@V?$positional_parameter_base@_WV?$string_output_adapter@_W@__crt_stdio_output@@@2@@__crt_stdio_output@@QEAA@AEBV?$string_output_adapter@_W@1@_KQEB_WAEAV__crt_cached_ptd_host@@QEAD@Z 000000018006e830 f i libucrtd:output.obj
 0001:0006d880       ??0?$output_processor@_WV?$string_output_adapter@_W@__crt_stdio_output@@V?$standard_base@_WV?$string_output_adapter@_W@__crt_stdio_output@@@2@@__crt_stdio_output@@QEAA@AEBV?$string_output_adapter@_W@1@_KQEB_WAEAV__crt_cached_ptd_host@@QEAD@Z 000000018006e880 f i libucrtd:output.obj
 0001:0006d8d0       ??0?$stream_output_adapter@D@__crt_stdio_output@@QEAA@QEAU_iobuf@@@Z 000000018006e8d0 f i libucrtd:output.obj
 0001:0006d910       ??0?$stream_output_adapter@_W@__crt_stdio_output@@QEAA@QEAU_iobuf@@@Z 000000018006e910 f i libucrtd:output.obj
 0001:0006d950       ??0?$string_output_adapter@D@__crt_stdio_output@@QEAA@QEAU?$string_output_adapter_context@D@1@@Z 000000018006e950 f i libucrtd:output.obj
 0001:0006d970       ??0?$string_output_adapter@_W@__crt_stdio_output@@QEAA@QEAU?$string_output_adapter_context@_W@1@@Z 000000018006e970 f i libucrtd:output.obj
 0001:0006d990       ??0__acrt_stdio_temporary_buffering_guard@@QEAA@QEAU_iobuf@@AEAV__crt_cached_ptd_host@@@Z 000000018006e990 f i libucrtd:output.obj
 0001:0006d9e0       ??0__crt_cached_ptd_host@@QEAA@QEAU__crt_locale_pointers@@@Z 000000018006e9e0 f i libucrtd:output.obj
 0001:0006daa0       ??0__crt_scoped_get_last_error_reset@@QEAA@XZ 000000018006eaa0 f i libucrtd:output.obj
 0001:0006dac0       ??0__crt_stdio_stream@@QEAA@QEAU_iobuf@@@Z 000000018006eac0 f i libucrtd:output.obj
 0001:0006dae0       ??0formatting_buffer@__crt_stdio_output@@QEAA@XZ 000000018006eae0 f i libucrtd:output.obj
 0001:0006db20       ??0guard@?$cached@H@__crt_cached_ptd_host@@QEAA@AEAU12@@Z 000000018006eb20 f i libucrtd:output.obj
 0001:0006db60       ??1?$c_string_character_source@D@__crt_strtox@@QEAA@XZ 000000018006eb60 f i libucrtd:output.obj
 0001:0006db90       ??1?$c_string_character_source@_W@__crt_strtox@@QEAA@XZ 000000018006eb90 f i libucrtd:output.obj
 0001:0006dbc0       ??1?$common_data@D@__crt_stdio_output@@QEAA@XZ 000000018006ebc0 f i libucrtd:output.obj
 0001:0006dbe0       ??1?$common_data@_W@__crt_stdio_output@@QEAA@XZ 000000018006ebe0 f i libucrtd:output.obj
 0001:0006dc00       ??1?$format_validation_base@DV?$stream_output_adapter@D@__crt_stdio_output@@@__crt_stdio_output@@QEAA@XZ 000000018006ec00 f i libucrtd:output.obj
 0001:0006dc20       ??1?$format_validation_base@DV?$string_output_adapter@D@__crt_stdio_output@@@__crt_stdio_output@@QEAA@XZ 000000018006ec20 f i libucrtd:output.obj
 0001:0006dc40       ??1?$format_validation_base@_WV?$stream_output_adapter@_W@__crt_stdio_output@@@__crt_stdio_output@@QEAA@XZ 000000018006ec40 f i libucrtd:output.obj
 0001:0006dc60       ??1?$format_validation_base@_WV?$string_output_adapter@_W@__crt_stdio_output@@@__crt_stdio_output@@QEAA@XZ 000000018006ec60 f i libucrtd:output.obj
 0001:0006dc80       ??1?$output_adapter_data@DV?$stream_output_adapter@D@__crt_stdio_output@@@__crt_stdio_output@@QEAA@XZ 000000018006ec80 f i libucrtd:output.obj
 0001:0006dca0       ??1?$output_adapter_data@DV?$string_output_adapter@D@__crt_stdio_output@@@__crt_stdio_output@@QEAA@XZ 000000018006eca0 f i libucrtd:output.obj
 0001:0006dcc0       ??1?$output_adapter_data@_WV?$stream_output_adapter@_W@__crt_stdio_output@@@__crt_stdio_output@@QEAA@XZ 000000018006ecc0 f i libucrtd:output.obj
 0001:0006dce0       ??1?$output_adapter_data@_WV?$string_output_adapter@_W@__crt_stdio_output@@@__crt_stdio_output@@QEAA@XZ 000000018006ece0 f i libucrtd:output.obj
 0001:0006dd00       ??1?$output_processor@DV?$stream_output_adapter@D@__crt_stdio_output@@V?$format_validation_base@DV?$stream_output_adapter@D@__crt_stdio_output@@@2@@__crt_stdio_output@@QEAA@XZ 000000018006ed00 f i libucrtd:output.obj
 0001:0006dd20       ??1?$output_processor@DV?$stream_output_adapter@D@__crt_stdio_output@@V?$positional_parameter_base@DV?$stream_output_adapter@D@__crt_stdio_output@@@2@@__crt_stdio_output@@QEAA@XZ 000000018006ed20 f i libucrtd:output.obj
 0001:0006dd40       ??1?$output_processor@DV?$stream_output_adapter@D@__crt_stdio_output@@V?$standard_base@DV?$stream_output_adapter@D@__crt_stdio_output@@@2@@__crt_stdio_output@@QEAA@XZ 000000018006ed40 f i libucrtd:output.obj
 0001:0006dd60       ??1?$output_processor@DV?$string_output_adapter@D@__crt_stdio_output@@V?$format_validation_base@DV?$string_output_adapter@D@__crt_stdio_output@@@2@@__crt_stdio_output@@QEAA@XZ 000000018006ed60 f i libucrtd:output.obj
 0001:0006dd80       ??1?$output_processor@DV?$string_output_adapter@D@__crt_stdio_output@@V?$positional_parameter_base@DV?$string_output_adapter@D@__crt_stdio_output@@@2@@__crt_stdio_output@@QEAA@XZ 000000018006ed80 f i libucrtd:output.obj
 0001:0006dda0       ??1?$output_processor@DV?$string_output_adapter@D@__crt_stdio_output@@V?$standard_base@DV?$string_output_adapter@D@__crt_stdio_output@@@2@@__crt_stdio_output@@QEAA@XZ 000000018006eda0 f i libucrtd:output.obj
 0001:0006ddc0       ??1?$output_processor@_WV?$stream_output_adapter@_W@__crt_stdio_output@@V?$format_validation_base@_WV?$stream_output_adapter@_W@__crt_stdio_output@@@2@@__crt_stdio_output@@QEAA@XZ 000000018006edc0 f i libucrtd:output.obj
 0001:0006dde0       ??1?$output_processor@_WV?$stream_output_adapter@_W@__crt_stdio_output@@V?$positional_parameter_base@_WV?$stream_output_adapter@_W@__crt_stdio_output@@@2@@__crt_stdio_output@@QEAA@XZ 000000018006ede0 f i libucrtd:output.obj
 0001:0006de00       ??1?$output_processor@_WV?$stream_output_adapter@_W@__crt_stdio_output@@V?$standard_base@_WV?$stream_output_adapter@_W@__crt_stdio_output@@@2@@__crt_stdio_output@@QEAA@XZ 000000018006ee00 f i libucrtd:output.obj
 0001:0006de20       ??1?$output_processor@_WV?$string_output_adapter@_W@__crt_stdio_output@@V?$format_validation_base@_WV?$string_output_adapter@_W@__crt_stdio_output@@@2@@__crt_stdio_output@@QEAA@XZ 000000018006ee20 f i libucrtd:output.obj
 0001:0006de40       ??1?$output_processor@_WV?$string_output_adapter@_W@__crt_stdio_output@@V?$positional_parameter_base@_WV?$string_output_adapter@_W@__crt_stdio_output@@@2@@__crt_stdio_output@@QEAA@XZ 000000018006ee40 f i libucrtd:output.obj
 0001:0006de60       ??1?$output_processor@_WV?$string_output_adapter@_W@__crt_stdio_output@@V?$standard_base@_WV?$string_output_adapter@_W@__crt_stdio_output@@@2@@__crt_stdio_output@@QEAA@XZ 000000018006ee60 f i libucrtd:output.obj
 0001:0006de80       ??1?$positional_parameter_base@DV?$stream_output_adapter@D@__crt_stdio_output@@@__crt_stdio_output@@QEAA@XZ 000000018006ee80 f i libucrtd:output.obj
 0001:0006dea0       ??1?$positional_parameter_base@DV?$string_output_adapter@D@__crt_stdio_output@@@__crt_stdio_output@@QEAA@XZ 000000018006eea0 f i libucrtd:output.obj
 0001:0006dec0       ??1?$positional_parameter_base@_WV?$stream_output_adapter@_W@__crt_stdio_output@@@__crt_stdio_output@@QEAA@XZ 000000018006eec0 f i libucrtd:output.obj
 0001:0006dee0       ??1?$positional_parameter_base@_WV?$string_output_adapter@_W@__crt_stdio_output@@@__crt_stdio_output@@QEAA@XZ 000000018006eee0 f i libucrtd:output.obj
 0001:0006df00       ??1?$standard_base@DV?$stream_output_adapter@D@__crt_stdio_output@@@__crt_stdio_output@@QEAA@XZ 000000018006ef00 f i libucrtd:output.obj
 0001:0006df20       ??1?$standard_base@DV?$string_output_adapter@D@__crt_stdio_output@@@__crt_stdio_output@@QEAA@XZ 000000018006ef20 f i libucrtd:output.obj
 0001:0006df40       ??1?$standard_base@_WV?$stream_output_adapter@_W@__crt_stdio_output@@@__crt_stdio_output@@QEAA@XZ 000000018006ef40 f i libucrtd:output.obj
 0001:0006df60       ??1?$standard_base@_WV?$string_output_adapter@_W@__crt_stdio_output@@@__crt_stdio_output@@QEAA@XZ 000000018006ef60 f i libucrtd:output.obj
 0001:0006df80       ??1__acrt_stdio_temporary_buffering_guard@@QEAA@XZ 000000018006ef80 f i libucrtd:output.obj
 0001:0006dfb0       ??1__crt_cached_ptd_host@@QEAA@XZ 000000018006efb0 f i libucrtd:output.obj
 0001:0006e060       ??1__crt_scoped_get_last_error_reset@@QEAA@XZ 000000018006f060 f i libucrtd:output.obj
 0001:0006e080       ??1formatting_buffer@__crt_stdio_output@@QEAA@XZ 000000018006f080 f i libucrtd:output.obj
 0001:0006e0b0       ??1guard@?$cached@H@__crt_cached_ptd_host@@QEAA@XZ 000000018006f0b0 f i libucrtd:output.obj
 0001:0006e0e0       ??4?$__crt_unique_heap_ptr@DU__crt_internal_free_policy@@@@QEAAAEAV0@$$QEAV0@@Z 000000018006f0e0 f i libucrtd:output.obj
 0001:0006e120       ??A?$spectre_mitigated_lookup_table@Ustate_transition_pair@__crt_stdio_output@@$0IA@@__crt_stdio_output@@QEBAAEBUstate_transition_pair@1@_K@Z 000000018006f120 f i libucrtd:output.obj
 0001:0006e140       ??C__crt_stdio_stream@@QEBAPEAU__crt_stdio_stream_data@@XZ 000000018006f140 f i libucrtd:output.obj
 0001:0006e990       ?__crt_interlocked_read_32@@YAHPEDH@Z 000000018006f990 f i libucrtd:output.obj
 0001:0006e9b0       ?adjust_hexit@?$output_processor@DV?$stream_output_adapter@D@__crt_stdio_output@@V?$format_validation_base@DV?$stream_output_adapter@D@__crt_stdio_output@@@2@@__crt_stdio_output@@CADH_N@Z 000000018006f9b0 f i libucrtd:output.obj
 0001:0006ea00       ?adjust_hexit@?$output_processor@DV?$stream_output_adapter@D@__crt_stdio_output@@V?$positional_parameter_base@DV?$stream_output_adapter@D@__crt_stdio_output@@@2@@__crt_stdio_output@@CADH_N@Z 000000018006fa00 f i libucrtd:output.obj
 0001:0006ea50       ?adjust_hexit@?$output_processor@DV?$stream_output_adapter@D@__crt_stdio_output@@V?$standard_base@DV?$stream_output_adapter@D@__crt_stdio_output@@@2@@__crt_stdio_output@@CADH_N@Z 000000018006fa50 f i libucrtd:output.obj
 0001:0006eaa0       ?adjust_hexit@?$output_processor@DV?$string_output_adapter@D@__crt_stdio_output@@V?$format_validation_base@DV?$string_output_adapter@D@__crt_stdio_output@@@2@@__crt_stdio_output@@CADH_N@Z 000000018006faa0 f i libucrtd:output.obj
 0001:0006eaf0       ?adjust_hexit@?$output_processor@DV?$string_output_adapter@D@__crt_stdio_output@@V?$positional_parameter_base@DV?$string_output_adapter@D@__crt_stdio_output@@@2@@__crt_stdio_output@@CADH_N@Z 000000018006faf0 f i libucrtd:output.obj
 0001:0006eb40       ?adjust_hexit@?$output_processor@DV?$string_output_adapter@D@__crt_stdio_output@@V?$standard_base@DV?$string_output_adapter@D@__crt_stdio_output@@@2@@__crt_stdio_output@@CADH_N@Z 000000018006fb40 f i libucrtd:output.obj
 0001:0006eb90       ?adjust_hexit@?$output_processor@_WV?$stream_output_adapter@_W@__crt_stdio_output@@V?$format_validation_base@_WV?$stream_output_adapter@_W@__crt_stdio_output@@@2@@__crt_stdio_output@@CADH_N@Z 000000018006fb90 f i libucrtd:output.obj
 0001:0006ebe0       ?adjust_hexit@?$output_processor@_WV?$stream_output_adapter@_W@__crt_stdio_output@@V?$positional_parameter_base@_WV?$stream_output_adapter@_W@__crt_stdio_output@@@2@@__crt_stdio_output@@CADH_N@Z 000000018006fbe0 f i libucrtd:output.obj
 0001:0006ec30       ?adjust_hexit@?$output_processor@_WV?$stream_output_adapter@_W@__crt_stdio_output@@V?$standard_base@_WV?$stream_output_adapter@_W@__crt_stdio_output@@@2@@__crt_stdio_output@@CADH_N@Z 000000018006fc30 f i libucrtd:output.obj
 0001:0006ec80       ?adjust_hexit@?$output_processor@_WV?$string_output_adapter@_W@__crt_stdio_output@@V?$format_validation_base@_WV?$string_output_adapter@_W@__crt_stdio_output@@@2@@__crt_stdio_output@@CADH_N@Z 000000018006fc80 f i libucrtd:output.obj
 0001:0006ecd0       ?adjust_hexit@?$output_processor@_WV?$string_output_adapter@_W@__crt_stdio_output@@V?$positional_parameter_base@_WV?$string_output_adapter@_W@__crt_stdio_output@@@2@@__crt_stdio_output@@CADH_N@Z 000000018006fcd0 f i libucrtd:output.obj
 0001:0006ed20       ?adjust_hexit@?$output_processor@_WV?$string_output_adapter@_W@__crt_stdio_output@@V?$standard_base@_WV?$string_output_adapter@_W@__crt_stdio_output@@@2@@__crt_stdio_output@@CADH_N@Z 000000018006fd20 f i libucrtd:output.obj
 0001:0006ed70       ?advance_to_next_pass@?$positional_parameter_base@DV?$stream_output_adapter@D@__crt_stdio_output@@@__crt_stdio_output@@IEAA_NXZ 000000018006fd70 f i libucrtd:output.obj
 0001:0006ee20       ?advance_to_next_pass@?$positional_parameter_base@DV?$string_output_adapter@D@__crt_stdio_output@@@__crt_stdio_output@@IEAA_NXZ 000000018006fe20 f i libucrtd:output.obj
 0001:0006eed0       ?advance_to_next_pass@?$positional_parameter_base@_WV?$stream_output_adapter@_W@__crt_stdio_output@@@__crt_stdio_output@@IEAA_NXZ 000000018006fed0 f i libucrtd:output.obj
 0001:0006ef80       ?advance_to_next_pass@?$positional_parameter_base@_WV?$string_output_adapter@_W@__crt_stdio_output@@@__crt_stdio_output@@IEAA_NXZ 000000018006ff80 f i libucrtd:output.obj
 0001:0006f030       ?advance_to_next_pass@?$standard_base@DV?$stream_output_adapter@D@__crt_stdio_output@@@__crt_stdio_output@@IEAA_NXZ 0000000180070030 f i libucrtd:output.obj
 0001:0006f080       ?advance_to_next_pass@?$standard_base@DV?$string_output_adapter@D@__crt_stdio_output@@@__crt_stdio_output@@IEAA_NXZ 0000000180070080 f i libucrtd:output.obj
 0001:0006f0d0       ?advance_to_next_pass@?$standard_base@_WV?$stream_output_adapter@_W@__crt_stdio_output@@@__crt_stdio_output@@IEAA_NXZ 00000001800700d0 f i libucrtd:output.obj
 0001:0006f120       ?advance_to_next_pass@?$standard_base@_WV?$string_output_adapter@_W@__crt_stdio_output@@@__crt_stdio_output@@IEAA_NXZ 0000000180070120 f i libucrtd:output.obj
 0001:0006f170       ?check@?$cached@H@__crt_cached_ptd_host@@QEBA_NH@Z 0000000180070170 f i libucrtd:output.obj
 0001:0006f1b0       ?check_synchronize_global_state_index@__crt_cached_ptd_host@@AEAA_KAEBV__crt_scoped_get_last_error_reset@@@Z 00000001800701b0 f i libucrtd:output.obj
 0001:0006f1f0       ?check_synchronize_per_thread_data@__crt_cached_ptd_host@@AEAAPEAU__acrt_ptd@@XZ 00000001800701f0 f i libucrtd:output.obj
 0001:0006f230       ?create_guard@?$cached@H@__crt_cached_ptd_host@@QEAA?AVguard@12@XZ 0000000180070230 f i libucrtd:output.obj
 0001:0006f260       ?crop_zeroes@__crt_stdio_output@@YAXPEADQEAU__crt_locale_pointers@@@Z 0000000180070260 f i libucrtd:output.obj
 0001:0006f3b0       ?disable@guard@?$cached@H@__crt_cached_ptd_host@@QEAAXXZ 00000001800703b0 f i libucrtd:output.obj
 0001:0006f3c0       ?enable@guard@?$cached@H@__crt_cached_ptd_host@@QEAAXXZ 00000001800703c0 f i libucrtd:output.obj
 0001:0006f3d0       ?find_next_state@?$output_processor@DV?$stream_output_adapter@D@__crt_stdio_output@@V?$format_validation_base@DV?$stream_output_adapter@D@__crt_stdio_output@@@2@@__crt_stdio_output@@AEBA?AW4state@2@DW432@@Z 00000001800703d0 f i libucrtd:output.obj
 0001:0006f470       ?find_next_state@?$output_processor@DV?$stream_output_adapter@D@__crt_stdio_output@@V?$positional_parameter_base@DV?$stream_output_adapter@D@__crt_stdio_output@@@2@@__crt_stdio_output@@AEBA?AW4state@2@DW432@@Z 0000000180070470 f i libucrtd:output.obj
 0001:0006f510       ?find_next_state@?$output_processor@DV?$stream_output_adapter@D@__crt_stdio_output@@V?$standard_base@DV?$stream_output_adapter@D@__crt_stdio_output@@@2@@__crt_stdio_output@@AEBA?AW4state@2@DW432@@Z 0000000180070510 f i libucrtd:output.obj
 0001:0006f5b0       ?find_next_state@?$output_processor@DV?$string_output_adapter@D@__crt_stdio_output@@V?$format_validation_base@DV?$string_output_adapter@D@__crt_stdio_output@@@2@@__crt_stdio_output@@AEBA?AW4state@2@DW432@@Z 00000001800705b0 f i libucrtd:output.obj
 0001:0006f650       ?find_next_state@?$output_processor@DV?$string_output_adapter@D@__crt_stdio_output@@V?$positional_parameter_base@DV?$string_output_adapter@D@__crt_stdio_output@@@2@@__crt_stdio_output@@AEBA?AW4state@2@DW432@@Z 0000000180070650 f i libucrtd:output.obj
 0001:0006f6f0       ?find_next_state@?$output_processor@DV?$string_output_adapter@D@__crt_stdio_output@@V?$standard_base@DV?$string_output_adapter@D@__crt_stdio_output@@@2@@__crt_stdio_output@@AEBA?AW4state@2@DW432@@Z 00000001800706f0 f i libucrtd:output.obj
 0001:0006f790       ?find_next_state@?$output_processor@_WV?$stream_output_adapter@_W@__crt_stdio_output@@V?$format_validation_base@_WV?$stream_output_adapter@_W@__crt_stdio_output@@@2@@__crt_stdio_output@@AEBA?AW4state@2@_WW432@@Z 0000000180070790 f i libucrtd:output.obj
 0001:0006f830       ?find_next_state@?$output_processor@_WV?$stream_output_adapter@_W@__crt_stdio_output@@V?$positional_parameter_base@_WV?$stream_output_adapter@_W@__crt_stdio_output@@@2@@__crt_stdio_output@@AEBA?AW4state@2@_WW432@@Z 0000000180070830 f i libucrtd:output.obj
 0001:0006f8d0       ?find_next_state@?$output_processor@_WV?$stream_output_adapter@_W@__crt_stdio_output@@V?$standard_base@_WV?$stream_output_adapter@_W@__crt_stdio_output@@@2@@__crt_stdio_output@@AEBA?AW4state@2@_WW432@@Z 00000001800708d0 f i libucrtd:output.obj
 0001:0006f970       ?find_next_state@?$output_processor@_WV?$string_output_adapter@_W@__crt_stdio_output@@V?$format_validation_base@_WV?$string_output_adapter@_W@__crt_stdio_output@@@2@@__crt_stdio_output@@AEBA?AW4state@2@_WW432@@Z 0000000180070970 f i libucrtd:output.obj
 0001:0006fa10       ?find_next_state@?$output_processor@_WV?$string_output_adapter@_W@__crt_stdio_output@@V?$positional_parameter_base@_WV?$string_output_adapter@_W@__crt_stdio_output@@@2@@__crt_stdio_output@@AEBA?AW4state@2@_WW432@@Z 0000000180070a10 f i libucrtd:output.obj
 0001:0006fab0       ?find_next_state@?$output_processor@_WV?$string_output_adapter@_W@__crt_stdio_output@@V?$standard_base@_WV?$string_output_adapter@_W@__crt_stdio_output@@@2@@__crt_stdio_output@@AEBA?AW4state@2@_WW432@@Z 0000000180070ab0 f i libucrtd:output.obj
 0001:0006fb50       ?force_decimal_point@__crt_stdio_output@@YAXPEADQEAU__crt_locale_pointers@@@Z 0000000180070b50 f i libucrtd:output.obj
 0001:0006fc50       ?force_synchronize_global_state_index@__crt_cached_ptd_host@@AEAA_KAEBV__crt_scoped_get_last_error_reset@@@Z 0000000180070c50 f i libucrtd:output.obj
 0001:0006fc90       ?force_synchronize_per_thread_data@__crt_cached_ptd_host@@AEAAPEAU__acrt_ptd@@XZ 0000000180070c90 f i libucrtd:output.obj
 0001:0006fcf0       ?get@?$c_string_character_source@D@__crt_strtox@@QEAADXZ 0000000180070cf0 f i libucrtd:output.obj
 0001:0006fd30       ?get@?$c_string_character_source@_W@__crt_strtox@@QEAA_WXZ 0000000180070d30 f i libucrtd:output.obj
 0001:0006fd70       ?get_current_state_index@__crt_state_management@@YA_KAEBV__crt_scoped_get_last_error_reset@@@Z 0000000180070d70 f i libucrtd:output.obj
 0001:0006fd80       ?get_errno@__crt_cached_ptd_host@@QEAAAEAU?$cached@H@1@XZ 0000000180070d80 f i libucrtd:output.obj
 0001:0006fd90       ?get_flags@__crt_stdio_stream@@QEBAJXZ 0000000180070d90 f i libucrtd:output.obj
 0001:0006fdc0       ?get_locale@__crt_cached_ptd_host@@QEAAPEAU__crt_locale_pointers@@XZ 0000000180070dc0 f i libucrtd:output.obj
 0001:0006fdf0       ?get_parameter_type@?$positional_parameter_base@DV?$stream_output_adapter@D@__crt_stdio_output@@@__crt_stdio_output@@CA?AW4parameter_type@12@F@Z 0000000180070df0 f i libucrtd:output.obj
 0001:0006fe00       ?get_parameter_type@?$positional_parameter_base@DV?$stream_output_adapter@D@__crt_stdio_output@@@__crt_stdio_output@@CA?AW4parameter_type@12@G@Z 0000000180070e00 f i libucrtd:output.obj
 0001:0006fe10       ?get_parameter_type@?$positional_parameter_base@DV?$stream_output_adapter@D@__crt_stdio_output@@@__crt_stdio_output@@CA?AW4parameter_type@12@H@Z 0000000180070e10 f i libucrtd:output.obj
 0001:0006fe20       ?get_parameter_type@?$positional_parameter_base@DV?$stream_output_adapter@D@__crt_stdio_output@@@__crt_stdio_output@@CA?AW4parameter_type@12@I@Z 0000000180070e20 f i libucrtd:output.obj
 0001:0006fe30       ?get_parameter_type@?$positional_parameter_base@DV?$stream_output_adapter@D@__crt_stdio_output@@@__crt_stdio_output@@CA?AW4parameter_type@12@U_CRT_DOUBLE@@@Z 0000000180070e30 f i libucrtd:output.obj
 0001:0006fe40       ?get_parameter_type@?$positional_parameter_base@DV?$stream_output_adapter@D@__crt_stdio_output@@@__crt_stdio_output@@CA?AW4parameter_type@12@_J@Z 0000000180070e40 f i libucrtd:output.obj
 0001:0006fe50       ?get_parameter_type@?$positional_parameter_base@DV?$stream_output_adapter@D@__crt_stdio_output@@@__crt_stdio_output@@CA?AW4parameter_type@12@_K@Z 0000000180070e50 f i libucrtd:output.obj
 0001:0006fe60       ?get_parameter_type@?$positional_parameter_base@DV?$stream_output_adapter@D@__crt_stdio_output@@@__crt_stdio_output@@CA?AW4parameter_type@12@_W@Z 0000000180070e60 f i libucrtd:output.obj
 0001:0006fe70       ?get_parameter_type@?$positional_parameter_base@DV?$string_output_adapter@D@__crt_stdio_output@@@__crt_stdio_output@@CA?AW4parameter_type@12@F@Z 0000000180070e70 f i libucrtd:output.obj
 0001:0006fe80       ?get_parameter_type@?$positional_parameter_base@DV?$string_output_adapter@D@__crt_stdio_output@@@__crt_stdio_output@@CA?AW4parameter_type@12@G@Z 0000000180070e80 f i libucrtd:output.obj
 0001:0006fe90       ?get_parameter_type@?$positional_parameter_base@DV?$string_output_adapter@D@__crt_stdio_output@@@__crt_stdio_output@@CA?AW4parameter_type@12@H@Z 0000000180070e90 f i libucrtd:output.obj
 0001:0006fea0       ?get_parameter_type@?$positional_parameter_base@DV?$string_output_adapter@D@__crt_stdio_output@@@__crt_stdio_output@@CA?AW4parameter_type@12@I@Z 0000000180070ea0 f i libucrtd:output.obj
 0001:0006feb0       ?get_parameter_type@?$positional_parameter_base@DV?$string_output_adapter@D@__crt_stdio_output@@@__crt_stdio_output@@CA?AW4parameter_type@12@U_CRT_DOUBLE@@@Z 0000000180070eb0 f i libucrtd:output.obj
 0001:0006fec0       ?get_parameter_type@?$positional_parameter_base@DV?$string_output_adapter@D@__crt_stdio_output@@@__crt_stdio_output@@CA?AW4parameter_type@12@_J@Z 0000000180070ec0 f i libucrtd:output.obj
 0001:0006fed0       ?get_parameter_type@?$positional_parameter_base@DV?$string_output_adapter@D@__crt_stdio_output@@@__crt_stdio_output@@CA?AW4parameter_type@12@_K@Z 0000000180070ed0 f i libucrtd:output.obj
 0001:0006fee0       ?get_parameter_type@?$positional_parameter_base@DV?$string_output_adapter@D@__crt_stdio_output@@@__crt_stdio_output@@CA?AW4parameter_type@12@_W@Z 0000000180070ee0 f i libucrtd:output.obj
 0001:0006fef0       ?get_parameter_type@?$positional_parameter_base@_WV?$stream_output_adapter@_W@__crt_stdio_output@@@__crt_stdio_output@@CA?AW4parameter_type@12@F@Z 0000000180070ef0 f i libucrtd:output.obj
 0001:0006ff00       ?get_parameter_type@?$positional_parameter_base@_WV?$stream_output_adapter@_W@__crt_stdio_output@@@__crt_stdio_output@@CA?AW4parameter_type@12@G@Z 0000000180070f00 f i libucrtd:output.obj
 0001:0006ff10       ?get_parameter_type@?$positional_parameter_base@_WV?$stream_output_adapter@_W@__crt_stdio_output@@@__crt_stdio_output@@CA?AW4parameter_type@12@H@Z 0000000180070f10 f i libucrtd:output.obj
 0001:0006ff20       ?get_parameter_type@?$positional_parameter_base@_WV?$stream_output_adapter@_W@__crt_stdio_output@@@__crt_stdio_output@@CA?AW4parameter_type@12@I@Z 0000000180070f20 f i libucrtd:output.obj
 0001:0006ff30       ?get_parameter_type@?$positional_parameter_base@_WV?$stream_output_adapter@_W@__crt_stdio_output@@@__crt_stdio_output@@CA?AW4parameter_type@12@U_CRT_DOUBLE@@@Z 0000000180070f30 f i libucrtd:output.obj
 0001:0006ff40       ?get_parameter_type@?$positional_parameter_base@_WV?$stream_output_adapter@_W@__crt_stdio_output@@@__crt_stdio_output@@CA?AW4parameter_type@12@_J@Z 0000000180070f40 f i libucrtd:output.obj
 0001:0006ff50       ?get_parameter_type@?$positional_parameter_base@_WV?$stream_output_adapter@_W@__crt_stdio_output@@@__crt_stdio_output@@CA?AW4parameter_type@12@_K@Z 0000000180070f50 f i libucrtd:output.obj
 0001:0006ff60       ?get_parameter_type@?$positional_parameter_base@_WV?$stream_output_adapter@_W@__crt_stdio_output@@@__crt_stdio_output@@CA?AW4parameter_type@12@_W@Z 0000000180070f60 f i libucrtd:output.obj
 0001:0006ff70       ?get_parameter_type@?$positional_parameter_base@_WV?$string_output_adapter@_W@__crt_stdio_output@@@__crt_stdio_output@@CA?AW4parameter_type@12@F@Z 0000000180070f70 f i libucrtd:output.obj
 0001:0006ff80       ?get_parameter_type@?$positional_parameter_base@_WV?$string_output_adapter@_W@__crt_stdio_output@@@__crt_stdio_output@@CA?AW4parameter_type@12@G@Z 0000000180070f80 f i libucrtd:output.obj
 0001:0006ff90       ?get_parameter_type@?$positional_parameter_base@_WV?$string_output_adapter@_W@__crt_stdio_output@@@__crt_stdio_output@@CA?AW4parameter_type@12@H@Z 0000000180070f90 f i libucrtd:output.obj
 0001:0006ffa0       ?get_parameter_type@?$positional_parameter_base@_WV?$string_output_adapter@_W@__crt_stdio_output@@@__crt_stdio_output@@CA?AW4parameter_type@12@I@Z 0000000180070fa0 f i libucrtd:output.obj
 0001:0006ffb0       ?get_parameter_type@?$positional_parameter_base@_WV?$string_output_adapter@_W@__crt_stdio_output@@@__crt_stdio_output@@CA?AW4parameter_type@12@U_CRT_DOUBLE@@@Z 0000000180070fb0 f i libucrtd:output.obj
 0001:0006ffc0       ?get_parameter_type@?$positional_parameter_base@_WV?$string_output_adapter@_W@__crt_stdio_output@@@__crt_stdio_output@@CA?AW4parameter_type@12@_J@Z 0000000180070fc0 f i libucrtd:output.obj
 0001:0006ffd0       ?get_parameter_type@?$positional_parameter_base@_WV?$string_output_adapter@_W@__crt_stdio_output@@@__crt_stdio_output@@CA?AW4parameter_type@12@_K@Z 0000000180070fd0 f i libucrtd:output.obj
 0001:0006ffe0       ?get_parameter_type@?$positional_parameter_base@_WV?$string_output_adapter@_W@__crt_stdio_output@@@__crt_stdio_output@@CA?AW4parameter_type@12@_W@Z 0000000180070fe0 f i libucrtd:output.obj
 0001:0006fff0       ?get_raw_ptd@__crt_cached_ptd_host@@QEAAPEAU__acrt_ptd@@XZ 0000000180070ff0 f i libucrtd:output.obj
 0001:00070010       ?has_flag@?$output_processor@DV?$stream_output_adapter@D@__crt_stdio_output@@V?$format_validation_base@DV?$stream_output_adapter@D@__crt_stdio_output@@@2@@__crt_stdio_output@@AEBA_NI@Z 0000000180071010 f i libucrtd:output.obj
 0001:00070050       ?has_flag@?$output_processor@DV?$stream_output_adapter@D@__crt_stdio_output@@V?$positional_parameter_base@DV?$stream_output_adapter@D@__crt_stdio_output@@@2@@__crt_stdio_output@@AEBA_NI@Z 0000000180071050 f i libucrtd:output.obj
 0001:00070090       ?has_flag@?$output_processor@DV?$stream_output_adapter@D@__crt_stdio_output@@V?$standard_base@DV?$stream_output_adapter@D@__crt_stdio_output@@@2@@__crt_stdio_output@@AEBA_NI@Z 0000000180071090 f i libucrtd:output.obj
 0001:000700d0       ?has_flag@?$output_processor@DV?$string_output_adapter@D@__crt_stdio_output@@V?$format_validation_base@DV?$string_output_adapter@D@__crt_stdio_output@@@2@@__crt_stdio_output@@AEBA_NI@Z 00000001800710d0 f i libucrtd:output.obj
 0001:00070110       ?has_flag@?$output_processor@DV?$string_output_adapter@D@__crt_stdio_output@@V?$positional_parameter_base@DV?$string_output_adapter@D@__crt_stdio_output@@@2@@__crt_stdio_output@@AEBA_NI@Z 0000000180071110 f i libucrtd:output.obj
 0001:00070150       ?has_flag@?$output_processor@DV?$string_output_adapter@D@__crt_stdio_output@@V?$standard_base@DV?$string_output_adapter@D@__crt_stdio_output@@@2@@__crt_stdio_output@@AEBA_NI@Z 0000000180071150 f i libucrtd:output.obj
 0001:00070190       ?has_flag@?$output_processor@_WV?$stream_output_adapter@_W@__crt_stdio_output@@V?$format_validation_base@_WV?$stream_output_adapter@_W@__crt_stdio_output@@@2@@__crt_stdio_output@@AEBA_NI@Z 0000000180071190 f i libucrtd:output.obj
 0001:000701d0       ?has_flag@?$output_processor@_WV?$stream_output_adapter@_W@__crt_stdio_output@@V?$positional_parameter_base@_WV?$stream_output_adapter@_W@__crt_stdio_output@@@2@@__crt_stdio_output@@AEBA_NI@Z 00000001800711d0 f i libucrtd:output.obj
 0001:00070210       ?has_flag@?$output_processor@_WV?$stream_output_adapter@_W@__crt_stdio_output@@V?$standard_base@_WV?$stream_output_adapter@_W@__crt_stdio_output@@@2@@__crt_stdio_output@@AEBA_NI@Z 0000000180071210 f i libucrtd:output.obj
 0001:00070250       ?has_flag@?$output_processor@_WV?$string_output_adapter@_W@__crt_stdio_output@@V?$format_validation_base@_WV?$string_output_adapter@_W@__crt_stdio_output@@@2@@__crt_stdio_output@@AEBA_NI@Z 0000000180071250 f i libucrtd:output.obj
 0001:00070290       ?has_flag@?$output_processor@_WV?$string_output_adapter@_W@__crt_stdio_output@@V?$positional_parameter_base@_WV?$string_output_adapter@_W@__crt_stdio_output@@@2@@__crt_stdio_output@@AEBA_NI@Z 0000000180071290 f i libucrtd:output.obj
 0001:000702d0       ?has_flag@?$output_processor@_WV?$string_output_adapter@_W@__crt_stdio_output@@V?$standard_base@_WV?$string_output_adapter@_W@__crt_stdio_output@@@2@@__crt_stdio_output@@AEBA_NI@Z 00000001800712d0 f i libucrtd:output.obj
 0001:00070310       ?is_positional_parameter_reappearance_consistent@?$positional_parameter_base@DV?$stream_output_adapter@D@__crt_stdio_output@@@__crt_stdio_output@@AEAA_NAEBUparameter_data@12@W4parameter_type@12@DW4length_modifier@2@@Z 0000000180071310 f i libucrtd:output.obj
 0001:00070570       ?is_positional_parameter_reappearance_consistent@?$positional_parameter_base@DV?$string_output_adapter@D@__crt_stdio_output@@@__crt_stdio_output@@AEAA_NAEBUparameter_data@12@W4parameter_type@12@DW4length_modifier@2@@Z 0000000180071570 f i libucrtd:output.obj
 0001:000707d0       ?is_positional_parameter_reappearance_consistent@?$positional_parameter_base@_WV?$stream_output_adapter@_W@__crt_stdio_output@@@__crt_stdio_output@@AEAA_NAEBUparameter_data@12@W4parameter_type@12@_WW4length_modifier@2@@Z 00000001800717d0 f i libucrtd:output.obj
 0001:00070a30       ?is_positional_parameter_reappearance_consistent@?$positional_parameter_base@_WV?$string_output_adapter@_W@__crt_stdio_output@@@__crt_stdio_output@@AEAA_NAEBUparameter_data@12@W4parameter_type@12@_WW4length_modifier@2@@Z 0000000180071a30 f i libucrtd:output.obj
 0001:00070c90       ?is_string_backed@__crt_stdio_stream@@QEBA_NXZ 0000000180071c90 f i libucrtd:output.obj
 0001:00070cd0       ?maximum_signed_value@__crt_strtox@@YAJK@Z 0000000180071cd0 f i libucrtd:output.obj
 0001:00070ce0       ?minimum_signed_value@__crt_strtox@@YAJK@Z 0000000180071ce0 f i libucrtd:output.obj
 0001:00070cf0       ?narrow_null_string@?$output_processor@DV?$stream_output_adapter@D@__crt_stdio_output@@V?$format_validation_base@DV?$stream_output_adapter@D@__crt_stdio_output@@@2@@__crt_stdio_output@@CAPEADXZ 0000000180071cf0 f i libucrtd:output.obj
 0001:00070d00       ?narrow_null_string@?$output_processor@DV?$stream_output_adapter@D@__crt_stdio_output@@V?$positional_parameter_base@DV?$stream_output_adapter@D@__crt_stdio_output@@@2@@__crt_stdio_output@@CAPEADXZ 0000000180071d00 f i libucrtd:output.obj
 0001:00070d10       ?narrow_null_string@?$output_processor@DV?$stream_output_adapter@D@__crt_stdio_output@@V?$standard_base@DV?$stream_output_adapter@D@__crt_stdio_output@@@2@@__crt_stdio_output@@CAPEADXZ 0000000180071d10 f i libucrtd:output.obj
 0001:00070d20       ?narrow_null_string@?$output_processor@DV?$string_output_adapter@D@__crt_stdio_output@@V?$format_validation_base@DV?$string_output_adapter@D@__crt_stdio_output@@@2@@__crt_stdio_output@@CAPEADXZ 0000000180071d20 f i libucrtd:output.obj
 0001:00070d30       ?narrow_null_string@?$output_processor@DV?$string_output_adapter@D@__crt_stdio_output@@V?$positional_parameter_base@DV?$string_output_adapter@D@__crt_stdio_output@@@2@@__crt_stdio_output@@CAPEADXZ 0000000180071d30 f i libucrtd:output.obj
 0001:00070d40       ?narrow_null_string@?$output_processor@DV?$string_output_adapter@D@__crt_stdio_output@@V?$standard_base@DV?$string_output_adapter@D@__crt_stdio_output@@@2@@__crt_stdio_output@@CAPEADXZ 0000000180071d40 f i libucrtd:output.obj
 0001:00070d50       ?narrow_null_string@?$output_processor@_WV?$stream_output_adapter@_W@__crt_stdio_output@@V?$format_validation_base@_WV?$stream_output_adapter@_W@__crt_stdio_output@@@2@@__crt_stdio_output@@CAPEADXZ 0000000180071d50 f i libucrtd:output.obj
 0001:00070d60       ?narrow_null_string@?$output_processor@_WV?$stream_output_adapter@_W@__crt_stdio_output@@V?$positional_parameter_base@_WV?$stream_output_adapter@_W@__crt_stdio_output@@@2@@__crt_stdio_output@@CAPEADXZ 0000000180071d60 f i libucrtd:output.obj
 0001:00070d70       ?narrow_null_string@?$output_processor@_WV?$stream_output_adapter@_W@__crt_stdio_output@@V?$standard_base@_WV?$stream_output_adapter@_W@__crt_stdio_output@@@2@@__crt_stdio_output@@CAPEADXZ 0000000180071d70 f i libucrtd:output.obj
 0001:00070d80       ?narrow_null_string@?$output_processor@_WV?$string_output_adapter@_W@__crt_stdio_output@@V?$format_validation_base@_WV?$string_output_adapter@_W@__crt_stdio_output@@@2@@__crt_stdio_output@@CAPEADXZ 0000000180071d80 f i libucrtd:output.obj
 0001:00070d90       ?narrow_null_string@?$output_processor@_WV?$string_output_adapter@_W@__crt_stdio_output@@V?$positional_parameter_base@_WV?$string_output_adapter@_W@__crt_stdio_output@@@2@@__crt_stdio_output@@CAPEADXZ 0000000180071d90 f i libucrtd:output.obj
 0001:00070da0       ?narrow_null_string@?$output_processor@_WV?$string_output_adapter@_W@__crt_stdio_output@@V?$standard_base@_WV?$string_output_adapter@_W@__crt_stdio_output@@@2@@__crt_stdio_output@@CAPEADXZ 0000000180071da0 f i libucrtd:output.obj
 0001:00070db0       ?parse_digit@__crt_strtox@@YAID@Z 0000000180071db0 f i libucrtd:output.obj
 0001:00070e20       ?parse_digit@__crt_strtox@@YAI_W@Z 0000000180071e20 f i libucrtd:output.obj
 0001:00070e70       ?parse_int_from_format_string@?$output_processor@DV?$stream_output_adapter@D@__crt_stdio_output@@V?$format_validation_base@DV?$stream_output_adapter@D@__crt_stdio_output@@@2@@__crt_stdio_output@@AEAA_NQEAH@Z 0000000180071e70 f i libucrtd:output.obj
 0001:00070f70       ?parse_int_from_format_string@?$output_processor@DV?$stream_output_adapter@D@__crt_stdio_output@@V?$positional_parameter_base@DV?$stream_output_adapter@D@__crt_stdio_output@@@2@@__crt_stdio_output@@AEAA_NQEAH@Z 0000000180071f70 f i libucrtd:output.obj
 0001:00071070       ?parse_int_from_format_string@?$output_processor@DV?$stream_output_adapter@D@__crt_stdio_output@@V?$standard_base@DV?$stream_output_adapter@D@__crt_stdio_output@@@2@@__crt_stdio_output@@AEAA_NQEAH@Z 0000000180072070 f i libucrtd:output.obj
 0001:00071170       ?parse_int_from_format_string@?$output_processor@DV?$string_output_adapter@D@__crt_stdio_output@@V?$format_validation_base@DV?$string_output_adapter@D@__crt_stdio_output@@@2@@__crt_stdio_output@@AEAA_NQEAH@Z 0000000180072170 f i libucrtd:output.obj
 0001:00071270       ?parse_int_from_format_string@?$output_processor@DV?$string_output_adapter@D@__crt_stdio_output@@V?$positional_parameter_base@DV?$string_output_adapter@D@__crt_stdio_output@@@2@@__crt_stdio_output@@AEAA_NQEAH@Z 0000000180072270 f i libucrtd:output.obj
 0001:00071370       ?parse_int_from_format_string@?$output_processor@DV?$string_output_adapter@D@__crt_stdio_output@@V?$standard_base@DV?$string_output_adapter@D@__crt_stdio_output@@@2@@__crt_stdio_output@@AEAA_NQEAH@Z 0000000180072370 f i libucrtd:output.obj
 0001:00071470       ?parse_int_from_format_string@?$output_processor@_WV?$stream_output_adapter@_W@__crt_stdio_output@@V?$format_validation_base@_WV?$stream_output_adapter@_W@__crt_stdio_output@@@2@@__crt_stdio_output@@AEAA_NQEAH@Z 0000000180072470 f i libucrtd:output.obj
 0001:00071570       ?parse_int_from_format_string@?$output_processor@_WV?$stream_output_adapter@_W@__crt_stdio_output@@V?$positional_parameter_base@_WV?$stream_output_adapter@_W@__crt_stdio_output@@@2@@__crt_stdio_output@@AEAA_NQEAH@Z 0000000180072570 f i libucrtd:output.obj
 0001:00071670       ?parse_int_from_format_string@?$output_processor@_WV?$stream_output_adapter@_W@__crt_stdio_output@@V?$standard_base@_WV?$stream_output_adapter@_W@__crt_stdio_output@@@2@@__crt_stdio_output@@AEAA_NQEAH@Z 0000000180072670 f i libucrtd:output.obj
 0001:00071770       ?parse_int_from_format_string@?$output_processor@_WV?$string_output_adapter@_W@__crt_stdio_output@@V?$format_validation_base@_WV?$string_output_adapter@_W@__crt_stdio_output@@@2@@__crt_stdio_output@@AEAA_NQEAH@Z 0000000180072770 f i libucrtd:output.obj
 0001:00071870       ?parse_int_from_format_string@?$output_processor@_WV?$string_output_adapter@_W@__crt_stdio_output@@V?$positional_parameter_base@_WV?$string_output_adapter@_W@__crt_stdio_output@@@2@@__crt_stdio_output@@AEAA_NQEAH@Z 0000000180072870 f i libucrtd:output.obj
 0001:00071970       ?parse_int_from_format_string@?$output_processor@_WV?$string_output_adapter@_W@__crt_stdio_output@@V?$standard_base@_WV?$string_output_adapter@_W@__crt_stdio_output@@@2@@__crt_stdio_output@@AEAA_NQEAH@Z 0000000180072970 f i libucrtd:output.obj
 0001:00071a70       ?process@?$output_processor@DV?$stream_output_adapter@D@__crt_stdio_output@@V?$format_validation_base@DV?$stream_output_adapter@D@__crt_stdio_output@@@2@@__crt_stdio_output@@QEAAHXZ 0000000180072a70 f i libucrtd:output.obj
 0001:00071e30       ?process@?$output_processor@DV?$stream_output_adapter@D@__crt_stdio_output@@V?$positional_parameter_base@DV?$stream_output_adapter@D@__crt_stdio_output@@@2@@__crt_stdio_output@@QEAAHXZ 0000000180072e30 f i libucrtd:output.obj
 0001:000721f0       ?process@?$output_processor@DV?$stream_output_adapter@D@__crt_stdio_output@@V?$standard_base@DV?$stream_output_adapter@D@__crt_stdio_output@@@2@@__crt_stdio_output@@QEAAHXZ 00000001800731f0 f i libucrtd:output.obj
 0001:000725b0       ?process@?$output_processor@DV?$string_output_adapter@D@__crt_stdio_output@@V?$format_validation_base@DV?$string_output_adapter@D@__crt_stdio_output@@@2@@__crt_stdio_output@@QEAAHXZ 00000001800735b0 f i libucrtd:output.obj
 0001:00072970       ?process@?$output_processor@DV?$string_output_adapter@D@__crt_stdio_output@@V?$positional_parameter_base@DV?$string_output_adapter@D@__crt_stdio_output@@@2@@__crt_stdio_output@@QEAAHXZ 0000000180073970 f i libucrtd:output.obj
 0001:00072d30       ?process@?$output_processor@DV?$string_output_adapter@D@__crt_stdio_output@@V?$standard_base@DV?$string_output_adapter@D@__crt_stdio_output@@@2@@__crt_stdio_output@@QEAAHXZ 0000000180073d30 f i libucrtd:output.obj
 0001:000730f0       ?process@?$output_processor@_WV?$stream_output_adapter@_W@__crt_stdio_output@@V?$format_validation_base@_WV?$stream_output_adapter@_W@__crt_stdio_output@@@2@@__crt_stdio_output@@QEAAHXZ 00000001800740f0 f i libucrtd:output.obj
 0001:000734b0       ?process@?$output_processor@_WV?$stream_output_adapter@_W@__crt_stdio_output@@V?$positional_parameter_base@_WV?$stream_output_adapter@_W@__crt_stdio_output@@@2@@__crt_stdio_output@@QEAAHXZ 00000001800744b0 f i libucrtd:output.obj
 0001:00073870       ?process@?$output_processor@_WV?$stream_output_adapter@_W@__crt_stdio_output@@V?$standard_base@_WV?$stream_output_adapter@_W@__crt_stdio_output@@@2@@__crt_stdio_output@@QEAAHXZ 0000000180074870 f i libucrtd:output.obj
 0001:00073c30       ?process@?$output_processor@_WV?$string_output_adapter@_W@__crt_stdio_output@@V?$format_validation_base@_WV?$string_output_adapter@_W@__crt_stdio_output@@@2@@__crt_stdio_output@@QEAAHXZ 0000000180074c30 f i libucrtd:output.obj
 0001:00073ff0       ?process@?$output_processor@_WV?$string_output_adapter@_W@__crt_stdio_output@@V?$positional_parameter_base@_WV?$string_output_adapter@_W@__crt_stdio_output@@@2@@__crt_stdio_output@@QEAAHXZ 0000000180074ff0 f i libucrtd:output.obj
 0001:000743b0       ?process@?$output_processor@_WV?$string_output_adapter@_W@__crt_stdio_output@@V?$standard_base@_WV?$string_output_adapter@_W@__crt_stdio_output@@@2@@__crt_stdio_output@@QEAAHXZ 00000001800753b0 f i libucrtd:output.obj
 0001:00074770       ?public_stream@__crt_stdio_stream@@QEBAPEAU_iobuf@@XZ 0000000180075770 f i libucrtd:output.obj
 0001:00074780       ?restore_state@?$c_string_character_source@D@__crt_strtox@@QEAA_NQEBD@Z 0000000180075780 f i libucrtd:output.obj
 0001:000747a0       ?restore_state@?$c_string_character_source@_W@__crt_strtox@@QEAA_NQEB_W@Z 00000001800757a0 f i libucrtd:output.obj
 0001:000747c0       ?save_state@?$c_string_character_source@D@__crt_strtox@@QEBAPEBDXZ 00000001800757c0 f i libucrtd:output.obj
 0001:000747d0       ?save_state@?$c_string_character_source@_W@__crt_strtox@@QEBAPEB_WXZ 00000001800757d0 f i libucrtd:output.obj
 0001:000747e0       ?set@?$cached@H@__crt_cached_ptd_host@@QEAAHH@Z 00000001800757e0 f i libucrtd:output.obj
 0001:00074810       ?set_flag@?$output_processor@DV?$stream_output_adapter@D@__crt_stdio_output@@V?$format_validation_base@DV?$stream_output_adapter@D@__crt_stdio_output@@@2@@__crt_stdio_output@@AEAAXI@Z 0000000180075810 f i libucrtd:output.obj
 0001:00074830       ?set_flag@?$output_processor@DV?$stream_output_adapter@D@__crt_stdio_output@@V?$positional_parameter_base@DV?$stream_output_adapter@D@__crt_stdio_output@@@2@@__crt_stdio_output@@AEAAXI@Z 0000000180075830 f i libucrtd:output.obj
 0001:00074850       ?set_flag@?$output_processor@DV?$stream_output_adapter@D@__crt_stdio_output@@V?$standard_base@DV?$stream_output_adapter@D@__crt_stdio_output@@@2@@__crt_stdio_output@@AEAAXI@Z 0000000180075850 f i libucrtd:output.obj
 0001:00074870       ?set_flag@?$output_processor@DV?$string_output_adapter@D@__crt_stdio_output@@V?$format_validation_base@DV?$string_output_adapter@D@__crt_stdio_output@@@2@@__crt_stdio_output@@AEAAXI@Z 0000000180075870 f i libucrtd:output.obj
 0001:00074890       ?set_flag@?$output_processor@DV?$string_output_adapter@D@__crt_stdio_output@@V?$positional_parameter_base@DV?$string_output_adapter@D@__crt_stdio_output@@@2@@__crt_stdio_output@@AEAAXI@Z 0000000180075890 f i libucrtd:output.obj
 0001:000748b0       ?set_flag@?$output_processor@DV?$string_output_adapter@D@__crt_stdio_output@@V?$standard_base@DV?$string_output_adapter@D@__crt_stdio_output@@@2@@__crt_stdio_output@@AEAAXI@Z 00000001800758b0 f i libucrtd:output.obj
 0001:000748d0       ?set_flag@?$output_processor@_WV?$stream_output_adapter@_W@__crt_stdio_output@@V?$format_validation_base@_WV?$stream_output_adapter@_W@__crt_stdio_output@@@2@@__crt_stdio_output@@AEAAXI@Z 00000001800758d0 f i libucrtd:output.obj
 0001:000748f0       ?set_flag@?$output_processor@_WV?$stream_output_adapter@_W@__crt_stdio_output@@V?$positional_parameter_base@_WV?$stream_output_adapter@_W@__crt_stdio_output@@@2@@__crt_stdio_output@@AEAAXI@Z 00000001800758f0 f i libucrtd:output.obj
 0001:00074910       ?set_flag@?$output_processor@_WV?$stream_output_adapter@_W@__crt_stdio_output@@V?$standard_base@_WV?$stream_output_adapter@_W@__crt_stdio_output@@@2@@__crt_stdio_output@@AEAAXI@Z 0000000180075910 f i libucrtd:output.obj
 0001:00074930       ?set_flag@?$output_processor@_WV?$string_output_adapter@_W@__crt_stdio_output@@V?$format_validation_base@_WV?$string_output_adapter@_W@__crt_stdio_output@@@2@@__crt_stdio_output@@AEAAXI@Z 0000000180075930 f i libucrtd:output.obj
 0001:00074950       ?set_flag@?$output_processor@_WV?$string_output_adapter@_W@__crt_stdio_output@@V?$positional_parameter_base@_WV?$string_output_adapter@_W@__crt_stdio_output@@@2@@__crt_stdio_output@@AEAAXI@Z 0000000180075950 f i libucrtd:output.obj
 0001:00074970       ?set_flag@?$output_processor@_WV?$string_output_adapter@_W@__crt_stdio_output@@V?$standard_base@_WV?$string_output_adapter@_W@__crt_stdio_output@@@2@@__crt_stdio_output@@AEAAXI@Z 0000000180075970 f i libucrtd:output.obj
 0001:00074990       ?should_format@?$positional_parameter_base@DV?$stream_output_adapter@D@__crt_stdio_output@@@__crt_stdio_output@@IEAA_NXZ 0000000180075990 f i libucrtd:output.obj
 0001:000749d0       ?should_format@?$positional_parameter_base@DV?$string_output_adapter@D@__crt_stdio_output@@@__crt_stdio_output@@IEAA_NXZ 00000001800759d0 f i libucrtd:output.obj
 0001:00074a10       ?should_format@?$positional_parameter_base@_WV?$stream_output_adapter@_W@__crt_stdio_output@@@__crt_stdio_output@@IEAA_NXZ 0000000180075a10 f i libucrtd:output.obj
 0001:00074a50       ?should_format@?$positional_parameter_base@_WV?$string_output_adapter@_W@__crt_stdio_output@@@__crt_stdio_output@@IEAA_NXZ 0000000180075a50 f i libucrtd:output.obj
 0001:00074a90       ?should_format@?$standard_base@DV?$stream_output_adapter@D@__crt_stdio_output@@@__crt_stdio_output@@IEAA_NXZ 0000000180075a90 f i libucrtd:output.obj
 0001:00074aa0       ?should_format@?$standard_base@DV?$string_output_adapter@D@__crt_stdio_output@@@__crt_stdio_output@@IEAA_NXZ 0000000180075aa0 f i libucrtd:output.obj
 0001:00074ab0       ?should_format@?$standard_base@_WV?$stream_output_adapter@_W@__crt_stdio_output@@@__crt_stdio_output@@IEAA_NXZ 0000000180075ab0 f i libucrtd:output.obj
 0001:00074ac0       ?should_format@?$standard_base@_WV?$string_output_adapter@_W@__crt_stdio_output@@@__crt_stdio_output@@IEAA_NXZ 0000000180075ac0 f i libucrtd:output.obj
 0001:00074ad0       ?should_skip_normal_state_processing@?$positional_parameter_base@DV?$stream_output_adapter@D@__crt_stdio_output@@@__crt_stdio_output@@IEAA_NXZ 0000000180075ad0 f i libucrtd:output.obj
 0001:00074b20       ?should_skip_normal_state_processing@?$positional_parameter_base@DV?$string_output_adapter@D@__crt_stdio_output@@@__crt_stdio_output@@IEAA_NXZ 0000000180075b20 f i libucrtd:output.obj
 0001:00074b70       ?should_skip_normal_state_processing@?$positional_parameter_base@_WV?$stream_output_adapter@_W@__crt_stdio_output@@@__crt_stdio_output@@IEAA_NXZ 0000000180075b70 f i libucrtd:output.obj
 0001:00074bc0       ?should_skip_normal_state_processing@?$positional_parameter_base@_WV?$string_output_adapter@_W@__crt_stdio_output@@@__crt_stdio_output@@IEAA_NXZ 0000000180075bc0 f i libucrtd:output.obj
 0001:00074c10       ?should_skip_normal_state_processing@?$standard_base@DV?$stream_output_adapter@D@__crt_stdio_output@@@__crt_stdio_output@@IEAA_NXZ 0000000180075c10 f i libucrtd:output.obj
 0001:00074c20       ?should_skip_normal_state_processing@?$standard_base@DV?$string_output_adapter@D@__crt_stdio_output@@@__crt_stdio_output@@IEAA_NXZ 0000000180075c20 f i libucrtd:output.obj
 0001:00074c30       ?should_skip_normal_state_processing@?$standard_base@_WV?$stream_output_adapter@_W@__crt_stdio_output@@@__crt_stdio_output@@IEAA_NXZ 0000000180075c30 f i libucrtd:output.obj
 0001:00074c40       ?should_skip_normal_state_processing@?$standard_base@_WV?$string_output_adapter@_W@__crt_stdio_output@@@__crt_stdio_output@@IEAA_NXZ 0000000180075c40 f i libucrtd:output.obj
 0001:00074c50       ?should_skip_type_state_output@?$positional_parameter_base@DV?$stream_output_adapter@D@__crt_stdio_output@@@__crt_stdio_output@@IEBA_NXZ 0000000180075c50 f i libucrtd:output.obj
 0001:00074c90       ?should_skip_type_state_output@?$positional_parameter_base@DV?$string_output_adapter@D@__crt_stdio_output@@@__crt_stdio_output@@IEBA_NXZ 0000000180075c90 f i libucrtd:output.obj
 0001:00074cd0       ?should_skip_type_state_output@?$positional_parameter_base@_WV?$stream_output_adapter@_W@__crt_stdio_output@@@__crt_stdio_output@@IEBA_NXZ 0000000180075cd0 f i libucrtd:output.obj
 0001:00074d10       ?should_skip_type_state_output@?$positional_parameter_base@_WV?$string_output_adapter@_W@__crt_stdio_output@@@__crt_stdio_output@@IEBA_NXZ 0000000180075d10 f i libucrtd:output.obj
 0001:00074d50       ?should_skip_type_state_output@?$standard_base@DV?$stream_output_adapter@D@__crt_stdio_output@@@__crt_stdio_output@@IEBA_NXZ 0000000180075d50 f i libucrtd:output.obj
 0001:00074d60       ?should_skip_type_state_output@?$standard_base@DV?$string_output_adapter@D@__crt_stdio_output@@@__crt_stdio_output@@IEBA_NXZ 0000000180075d60 f i libucrtd:output.obj
 0001:00074d70       ?should_skip_type_state_output@?$standard_base@_WV?$stream_output_adapter@_W@__crt_stdio_output@@@__crt_stdio_output@@IEBA_NXZ 0000000180075d70 f i libucrtd:output.obj
 0001:00074d80       ?should_skip_type_state_output@?$standard_base@_WV?$string_output_adapter@_W@__crt_stdio_output@@@__crt_stdio_output@@IEBA_NXZ 0000000180075d80 f i libucrtd:output.obj
 0001:00074d90       ?state_case_dot@?$output_processor@DV?$stream_output_adapter@D@__crt_stdio_output@@V?$format_validation_base@DV?$stream_output_adapter@D@__crt_stdio_output@@@2@@__crt_stdio_output@@AEAA_NXZ 0000000180075d90 f i libucrtd:output.obj
 0001:00074db0       ?state_case_dot@?$output_processor@DV?$stream_output_adapter@D@__crt_stdio_output@@V?$positional_parameter_base@DV?$stream_output_adapter@D@__crt_stdio_output@@@2@@__crt_stdio_output@@AEAA_NXZ 0000000180075db0 f i libucrtd:output.obj
 0001:00074dd0       ?state_case_dot@?$output_processor@DV?$stream_output_adapter@D@__crt_stdio_output@@V?$standard_base@DV?$stream_output_adapter@D@__crt_stdio_output@@@2@@__crt_stdio_output@@AEAA_NXZ 0000000180075dd0 f i libucrtd:output.obj
 0001:00074df0       ?state_case_dot@?$output_processor@DV?$string_output_adapter@D@__crt_stdio_output@@V?$format_validation_base@DV?$string_output_adapter@D@__crt_stdio_output@@@2@@__crt_stdio_output@@AEAA_NXZ 0000000180075df0 f i libucrtd:output.obj
 0001:00074e10       ?state_case_dot@?$output_processor@DV?$string_output_adapter@D@__crt_stdio_output@@V?$positional_parameter_base@DV?$string_output_adapter@D@__crt_stdio_output@@@2@@__crt_stdio_output@@AEAA_NXZ 0000000180075e10 f i libucrtd:output.obj
 0001:00074e30       ?state_case_dot@?$output_processor@DV?$string_output_adapter@D@__crt_stdio_output@@V?$standard_base@DV?$string_output_adapter@D@__crt_stdio_output@@@2@@__crt_stdio_output@@AEAA_NXZ 0000000180075e30 f i libucrtd:output.obj
 0001:00074e50       ?state_case_dot@?$output_processor@_WV?$stream_output_adapter@_W@__crt_stdio_output@@V?$format_validation_base@_WV?$stream_output_adapter@_W@__crt_stdio_output@@@2@@__crt_stdio_output@@AEAA_NXZ 0000000180075e50 f i libucrtd:output.obj
 0001:00074e70       ?state_case_dot@?$output_processor@_WV?$stream_output_adapter@_W@__crt_stdio_output@@V?$positional_parameter_base@_WV?$stream_output_adapter@_W@__crt_stdio_output@@@2@@__crt_stdio_output@@AEAA_NXZ 0000000180075e70 f i libucrtd:output.obj
 0001:00074e90       ?state_case_dot@?$output_processor@_WV?$stream_output_adapter@_W@__crt_stdio_output@@V?$standard_base@_WV?$stream_output_adapter@_W@__crt_stdio_output@@@2@@__crt_stdio_output@@AEAA_NXZ 0000000180075e90 f i libucrtd:output.obj
 0001:00074eb0       ?state_case_dot@?$output_processor@_WV?$string_output_adapter@_W@__crt_stdio_output@@V?$format_validation_base@_WV?$string_output_adapter@_W@__crt_stdio_output@@@2@@__crt_stdio_output@@AEAA_NXZ 0000000180075eb0 f i libucrtd:output.obj
 0001:00074ed0       ?state_case_dot@?$output_processor@_WV?$string_output_adapter@_W@__crt_stdio_output@@V?$positional_parameter_base@_WV?$string_output_adapter@_W@__crt_stdio_output@@@2@@__crt_stdio_output@@AEAA_NXZ 0000000180075ed0 f i libucrtd:output.obj
 0001:00074ef0       ?state_case_dot@?$output_processor@_WV?$string_output_adapter@_W@__crt_stdio_output@@V?$standard_base@_WV?$string_output_adapter@_W@__crt_stdio_output@@@2@@__crt_stdio_output@@AEAA_NXZ 0000000180075ef0 f i libucrtd:output.obj
 0001:00074f10       ?state_case_flag@?$output_processor@DV?$stream_output_adapter@D@__crt_stdio_output@@V?$format_validation_base@DV?$stream_output_adapter@D@__crt_stdio_output@@@2@@__crt_stdio_output@@AEAA_NXZ 0000000180075f10 f i libucrtd:output.obj
 0001:00074fb0       ?state_case_flag@?$output_processor@DV?$stream_output_adapter@D@__crt_stdio_output@@V?$positional_parameter_base@DV?$stream_output_adapter@D@__crt_stdio_output@@@2@@__crt_stdio_output@@AEAA_NXZ 0000000180075fb0 f i libucrtd:output.obj
 0001:00075050       ?state_case_flag@?$output_processor@DV?$stream_output_adapter@D@__crt_stdio_output@@V?$standard_base@DV?$stream_output_adapter@D@__crt_stdio_output@@@2@@__crt_stdio_output@@AEAA_NXZ 0000000180076050 f i libucrtd:output.obj
 0001:000750f0       ?state_case_flag@?$output_processor@DV?$string_output_adapter@D@__crt_stdio_output@@V?$format_validation_base@DV?$string_output_adapter@D@__crt_stdio_output@@@2@@__crt_stdio_output@@AEAA_NXZ 00000001800760f0 f i libucrtd:output.obj
 0001:00075190       ?state_case_flag@?$output_processor@DV?$string_output_adapter@D@__crt_stdio_output@@V?$positional_parameter_base@DV?$string_output_adapter@D@__crt_stdio_output@@@2@@__crt_stdio_output@@AEAA_NXZ 0000000180076190 f i libucrtd:output.obj
 0001:00075230       ?state_case_flag@?$output_processor@DV?$string_output_adapter@D@__crt_stdio_output@@V?$standard_base@DV?$string_output_adapter@D@__crt_stdio_output@@@2@@__crt_stdio_output@@AEAA_NXZ 0000000180076230 f i libucrtd:output.obj
 0001:000752d0       ?state_case_flag@?$output_processor@_WV?$stream_output_adapter@_W@__crt_stdio_output@@V?$format_validation_base@_WV?$stream_output_adapter@_W@__crt_stdio_output@@@2@@__crt_stdio_output@@AEAA_NXZ 00000001800762d0 f i libucrtd:output.obj
 0001:00075370       ?state_case_flag@?$output_processor@_WV?$stream_output_adapter@_W@__crt_stdio_output@@V?$positional_parameter_base@_WV?$stream_output_adapter@_W@__crt_stdio_output@@@2@@__crt_stdio_output@@AEAA_NXZ 0000000180076370 f i libucrtd:output.obj
 0001:00075410       ?state_case_flag@?$output_processor@_WV?$stream_output_adapter@_W@__crt_stdio_output@@V?$standard_base@_WV?$stream_output_adapter@_W@__crt_stdio_output@@@2@@__crt_stdio_output@@AEAA_NXZ 0000000180076410 f i libucrtd:output.obj
 0001:000754b0       ?state_case_flag@?$output_processor@_WV?$string_output_adapter@_W@__crt_stdio_output@@V?$format_validation_base@_WV?$string_output_adapter@_W@__crt_stdio_output@@@2@@__crt_stdio_output@@AEAA_NXZ 00000001800764b0 f i libucrtd:output.obj
 0001:00075550       ?state_case_flag@?$output_processor@_WV?$string_output_adapter@_W@__crt_stdio_output@@V?$positional_parameter_base@_WV?$string_output_adapter@_W@__crt_stdio_output@@@2@@__crt_stdio_output@@AEAA_NXZ 0000000180076550 f i libucrtd:output.obj
 0001:000755f0       ?state_case_flag@?$output_processor@_WV?$string_output_adapter@_W@__crt_stdio_output@@V?$standard_base@_WV?$string_output_adapter@_W@__crt_stdio_output@@@2@@__crt_stdio_output@@AEAA_NXZ 00000001800765f0 f i libucrtd:output.obj
 0001:00075690       ?state_case_normal@?$output_processor@DV?$stream_output_adapter@D@__crt_stdio_output@@V?$format_validation_base@DV?$stream_output_adapter@D@__crt_stdio_output@@@2@@__crt_stdio_output@@AEAA_NXZ 0000000180076690 f i libucrtd:output.obj
 0001:00075790       ?state_case_normal@?$output_processor@DV?$stream_output_adapter@D@__crt_stdio_output@@V?$positional_parameter_base@DV?$stream_output_adapter@D@__crt_stdio_output@@@2@@__crt_stdio_output@@AEAA_NXZ 0000000180076790 f i libucrtd:output.obj
 0001:00075890       ?state_case_normal@?$output_processor@DV?$stream_output_adapter@D@__crt_stdio_output@@V?$standard_base@DV?$stream_output_adapter@D@__crt_stdio_output@@@2@@__crt_stdio_output@@AEAA_NXZ 0000000180076890 f i libucrtd:output.obj
 0001:00075990       ?state_case_normal@?$output_processor@DV?$string_output_adapter@D@__crt_stdio_output@@V?$format_validation_base@DV?$string_output_adapter@D@__crt_stdio_output@@@2@@__crt_stdio_output@@AEAA_NXZ 0000000180076990 f i libucrtd:output.obj
 0001:00075a90       ?state_case_normal@?$output_processor@DV?$string_output_adapter@D@__crt_stdio_output@@V?$positional_parameter_base@DV?$string_output_adapter@D@__crt_stdio_output@@@2@@__crt_stdio_output@@AEAA_NXZ 0000000180076a90 f i libucrtd:output.obj
 0001:00075b90       ?state_case_normal@?$output_processor@DV?$string_output_adapter@D@__crt_stdio_output@@V?$standard_base@DV?$string_output_adapter@D@__crt_stdio_output@@@2@@__crt_stdio_output@@AEAA_NXZ 0000000180076b90 f i libucrtd:output.obj
 0001:00075c90       ?state_case_normal@?$output_processor@_WV?$stream_output_adapter@_W@__crt_stdio_output@@V?$format_validation_base@_WV?$stream_output_adapter@_W@__crt_stdio_output@@@2@@__crt_stdio_output@@AEAA_NXZ 0000000180076c90 f i libucrtd:output.obj
 0001:00075d90       ?state_case_normal@?$output_processor@_WV?$stream_output_adapter@_W@__crt_stdio_output@@V?$positional_parameter_base@_WV?$stream_output_adapter@_W@__crt_stdio_output@@@2@@__crt_stdio_output@@AEAA_NXZ 0000000180076d90 f i libucrtd:output.obj
 0001:00075e90       ?state_case_normal@?$output_processor@_WV?$stream_output_adapter@_W@__crt_stdio_output@@V?$standard_base@_WV?$stream_output_adapter@_W@__crt_stdio_output@@@2@@__crt_stdio_output@@AEAA_NXZ 0000000180076e90 f i libucrtd:output.obj
 0001:00075f90       ?state_case_normal@?$output_processor@_WV?$string_output_adapter@_W@__crt_stdio_output@@V?$format_validation_base@_WV?$string_output_adapter@_W@__crt_stdio_output@@@2@@__crt_stdio_output@@AEAA_NXZ 0000000180076f90 f i libucrtd:output.obj
 0001:00076090       ?state_case_normal@?$output_processor@_WV?$string_output_adapter@_W@__crt_stdio_output@@V?$positional_parameter_base@_WV?$string_output_adapter@_W@__crt_stdio_output@@@2@@__crt_stdio_output@@AEAA_NXZ 0000000180077090 f i libucrtd:output.obj
 0001:00076190       ?state_case_normal@?$output_processor@_WV?$string_output_adapter@_W@__crt_stdio_output@@V?$standard_base@_WV?$string_output_adapter@_W@__crt_stdio_output@@@2@@__crt_stdio_output@@AEAA_NXZ 0000000180077190 f i libucrtd:output.obj
 0001:00076290       ?state_case_normal_common@?$output_processor@DV?$stream_output_adapter@D@__crt_stdio_output@@V?$format_validation_base@DV?$stream_output_adapter@D@__crt_stdio_output@@@2@@__crt_stdio_output@@AEAA_NXZ 0000000180077290 f i libucrtd:output.obj
 0001:000762f0       ?state_case_normal_common@?$output_processor@DV?$stream_output_adapter@D@__crt_stdio_output@@V?$positional_parameter_base@DV?$stream_output_adapter@D@__crt_stdio_output@@@2@@__crt_stdio_output@@AEAA_NXZ 00000001800772f0 f i libucrtd:output.obj
 0001:00076350       ?state_case_normal_common@?$output_processor@DV?$stream_output_adapter@D@__crt_stdio_output@@V?$standard_base@DV?$stream_output_adapter@D@__crt_stdio_output@@@2@@__crt_stdio_output@@AEAA_NXZ 0000000180077350 f i libucrtd:output.obj
 0001:000763b0       ?state_case_normal_common@?$output_processor@DV?$string_output_adapter@D@__crt_stdio_output@@V?$format_validation_base@DV?$string_output_adapter@D@__crt_stdio_output@@@2@@__crt_stdio_output@@AEAA_NXZ 00000001800773b0 f i libucrtd:output.obj
 0001:00076410       ?state_case_normal_common@?$output_processor@DV?$string_output_adapter@D@__crt_stdio_output@@V?$positional_parameter_base@DV?$string_output_adapter@D@__crt_stdio_output@@@2@@__crt_stdio_output@@AEAA_NXZ 0000000180077410 f i libucrtd:output.obj
 0001:00076470       ?state_case_normal_common@?$output_processor@DV?$string_output_adapter@D@__crt_stdio_output@@V?$standard_base@DV?$string_output_adapter@D@__crt_stdio_output@@@2@@__crt_stdio_output@@AEAA_NXZ 0000000180077470 f i libucrtd:output.obj
 0001:000764d0       ?state_case_normal_common@?$output_processor@_WV?$stream_output_adapter@_W@__crt_stdio_output@@V?$format_validation_base@_WV?$stream_output_adapter@_W@__crt_stdio_output@@@2@@__crt_stdio_output@@AEAA_NXZ 00000001800774d0 f i libucrtd:output.obj
 0001:00076530       ?state_case_normal_common@?$output_processor@_WV?$stream_output_adapter@_W@__crt_stdio_output@@V?$positional_parameter_base@_WV?$stream_output_adapter@_W@__crt_stdio_output@@@2@@__crt_stdio_output@@AEAA_NXZ 0000000180077530 f i libucrtd:output.obj
 0001:00076590       ?state_case_normal_common@?$output_processor@_WV?$stream_output_adapter@_W@__crt_stdio_output@@V?$standard_base@_WV?$stream_output_adapter@_W@__crt_stdio_output@@@2@@__crt_stdio_output@@AEAA_NXZ 0000000180077590 f i libucrtd:output.obj
 0001:000765f0       ?state_case_normal_common@?$output_processor@_WV?$string_output_adapter@_W@__crt_stdio_output@@V?$format_validation_base@_WV?$string_output_adapter@_W@__crt_stdio_output@@@2@@__crt_stdio_output@@AEAA_NXZ 00000001800775f0 f i libucrtd:output.obj
 0001:00076650       ?state_case_normal_common@?$output_processor@_WV?$string_output_adapter@_W@__crt_stdio_output@@V?$positional_parameter_base@_WV?$string_output_adapter@_W@__crt_stdio_output@@@2@@__crt_stdio_output@@AEAA_NXZ 0000000180077650 f i libucrtd:output.obj
 0001:000766b0       ?state_case_normal_common@?$output_processor@_WV?$string_output_adapter@_W@__crt_stdio_output@@V?$standard_base@_WV?$string_output_adapter@_W@__crt_stdio_output@@@2@@__crt_stdio_output@@AEAA_NXZ 00000001800776b0 f i libucrtd:output.obj
 0001:00076710       ?state_case_normal_tchar@?$output_processor@DV?$stream_output_adapter@D@__crt_stdio_output@@V?$format_validation_base@DV?$stream_output_adapter@D@__crt_stdio_output@@@2@@__crt_stdio_output@@AEAA_ND@Z 0000000180077710 f i libucrtd:output.obj
 0001:000768a0       ?state_case_normal_tchar@?$output_processor@DV?$stream_output_adapter@D@__crt_stdio_output@@V?$positional_parameter_base@DV?$stream_output_adapter@D@__crt_stdio_output@@@2@@__crt_stdio_output@@AEAA_ND@Z 00000001800778a0 f i libucrtd:output.obj
 0001:00076a30       ?state_case_normal_tchar@?$output_processor@DV?$stream_output_adapter@D@__crt_stdio_output@@V?$standard_base@DV?$stream_output_adapter@D@__crt_stdio_output@@@2@@__crt_stdio_output@@AEAA_ND@Z 0000000180077a30 f i libucrtd:output.obj
 0001:00076bc0       ?state_case_normal_tchar@?$output_processor@DV?$string_output_adapter@D@__crt_stdio_output@@V?$format_validation_base@DV?$string_output_adapter@D@__crt_stdio_output@@@2@@__crt_stdio_output@@AEAA_ND@Z 0000000180077bc0 f i libucrtd:output.obj
 0001:00076d50       ?state_case_normal_tchar@?$output_processor@DV?$string_output_adapter@D@__crt_stdio_output@@V?$positional_parameter_base@DV?$string_output_adapter@D@__crt_stdio_output@@@2@@__crt_stdio_output@@AEAA_ND@Z 0000000180077d50 f i libucrtd:output.obj
 0001:00076ee0       ?state_case_normal_tchar@?$output_processor@DV?$string_output_adapter@D@__crt_stdio_output@@V?$standard_base@DV?$string_output_adapter@D@__crt_stdio_output@@@2@@__crt_stdio_output@@AEAA_ND@Z 0000000180077ee0 f i libucrtd:output.obj
 0001:00077070       ?state_case_normal_tchar@?$output_processor@_WV?$stream_output_adapter@_W@__crt_stdio_output@@V?$format_validation_base@_WV?$stream_output_adapter@_W@__crt_stdio_output@@@2@@__crt_stdio_output@@AEAA_N_W@Z 0000000180078070 f i libucrtd:output.obj
 0001:00077090       ?state_case_normal_tchar@?$output_processor@_WV?$stream_output_adapter@_W@__crt_stdio_output@@V?$positional_parameter_base@_WV?$stream_output_adapter@_W@__crt_stdio_output@@@2@@__crt_stdio_output@@AEAA_N_W@Z 0000000180078090 f i libucrtd:output.obj
 0001:000770b0       ?state_case_normal_tchar@?$output_processor@_WV?$stream_output_adapter@_W@__crt_stdio_output@@V?$standard_base@_WV?$stream_output_adapter@_W@__crt_stdio_output@@@2@@__crt_stdio_output@@AEAA_N_W@Z 00000001800780b0 f i libucrtd:output.obj
 0001:000770d0       ?state_case_normal_tchar@?$output_processor@_WV?$string_output_adapter@_W@__crt_stdio_output@@V?$format_validation_base@_WV?$string_output_adapter@_W@__crt_stdio_output@@@2@@__crt_stdio_output@@AEAA_N_W@Z 00000001800780d0 f i libucrtd:output.obj
 0001:000770f0       ?state_case_normal_tchar@?$output_processor@_WV?$string_output_adapter@_W@__crt_stdio_output@@V?$positional_parameter_base@_WV?$string_output_adapter@_W@__crt_stdio_output@@@2@@__crt_stdio_output@@AEAA_N_W@Z 00000001800780f0 f i libucrtd:output.obj
 0001:00077110       ?state_case_normal_tchar@?$output_processor@_WV?$string_output_adapter@_W@__crt_stdio_output@@V?$standard_base@_WV?$string_output_adapter@_W@__crt_stdio_output@@@2@@__crt_stdio_output@@AEAA_N_W@Z 0000000180078110 f i libucrtd:output.obj
 0001:00077130       ?state_case_percent@?$output_processor@DV?$stream_output_adapter@D@__crt_stdio_output@@V?$format_validation_base@DV?$stream_output_adapter@D@__crt_stdio_output@@@2@@__crt_stdio_output@@AEAA_NXZ 0000000180078130 f i libucrtd:output.obj
 0001:00077180       ?state_case_percent@?$output_processor@DV?$stream_output_adapter@D@__crt_stdio_output@@V?$positional_parameter_base@DV?$stream_output_adapter@D@__crt_stdio_output@@@2@@__crt_stdio_output@@AEAA_NXZ 0000000180078180 f i libucrtd:output.obj
 0001:000771d0       ?state_case_percent@?$output_processor@DV?$stream_output_adapter@D@__crt_stdio_output@@V?$standard_base@DV?$stream_output_adapter@D@__crt_stdio_output@@@2@@__crt_stdio_output@@AEAA_NXZ 00000001800781d0 f i libucrtd:output.obj
 0001:00077220       ?state_case_percent@?$output_processor@DV?$string_output_adapter@D@__crt_stdio_output@@V?$format_validation_base@DV?$string_output_adapter@D@__crt_stdio_output@@@2@@__crt_stdio_output@@AEAA_NXZ 0000000180078220 f i libucrtd:output.obj
 0001:00077270       ?state_case_percent@?$output_processor@DV?$string_output_adapter@D@__crt_stdio_output@@V?$positional_parameter_base@DV?$string_output_adapter@D@__crt_stdio_output@@@2@@__crt_stdio_output@@AEAA_NXZ 0000000180078270 f i libucrtd:output.obj
 0001:000772c0       ?state_case_percent@?$output_processor@DV?$string_output_adapter@D@__crt_stdio_output@@V?$standard_base@DV?$string_output_adapter@D@__crt_stdio_output@@@2@@__crt_stdio_output@@AEAA_NXZ 00000001800782c0 f i libucrtd:output.obj
 0001:00077310       ?state_case_percent@?$output_processor@_WV?$stream_output_adapter@_W@__crt_stdio_output@@V?$format_validation_base@_WV?$stream_output_adapter@_W@__crt_stdio_output@@@2@@__crt_stdio_output@@AEAA_NXZ 0000000180078310 f i libucrtd:output.obj
 0001:00077360       ?state_case_percent@?$output_processor@_WV?$stream_output_adapter@_W@__crt_stdio_output@@V?$positional_parameter_base@_WV?$stream_output_adapter@_W@__crt_stdio_output@@@2@@__crt_stdio_output@@AEAA_NXZ 0000000180078360 f i libucrtd:output.obj
 0001:000773b0       ?state_case_percent@?$output_processor@_WV?$stream_output_adapter@_W@__crt_stdio_output@@V?$standard_base@_WV?$stream_output_adapter@_W@__crt_stdio_output@@@2@@__crt_stdio_output@@AEAA_NXZ 00000001800783b0 f i libucrtd:output.obj
 0001:00077400       ?state_case_percent@?$output_processor@_WV?$string_output_adapter@_W@__crt_stdio_output@@V?$format_validation_base@_WV?$string_output_adapter@_W@__crt_stdio_output@@@2@@__crt_stdio_output@@AEAA_NXZ 0000000180078400 f i libucrtd:output.obj
 0001:00077450       ?state_case_percent@?$output_processor@_WV?$string_output_adapter@_W@__crt_stdio_output@@V?$positional_parameter_base@_WV?$string_output_adapter@_W@__crt_stdio_output@@@2@@__crt_stdio_output@@AEAA_NXZ 0000000180078450 f i libucrtd:output.obj
 0001:000774a0       ?state_case_percent@?$output_processor@_WV?$string_output_adapter@_W@__crt_stdio_output@@V?$standard_base@_WV?$string_output_adapter@_W@__crt_stdio_output@@@2@@__crt_stdio_output@@AEAA_NXZ 00000001800784a0 f i libucrtd:output.obj
 0001:000774f0       ?state_case_precision@?$output_processor@DV?$stream_output_adapter@D@__crt_stdio_output@@V?$format_validation_base@DV?$stream_output_adapter@D@__crt_stdio_output@@@2@@__crt_stdio_output@@AEAA_NXZ 00000001800784f0 f i libucrtd:output.obj
 0001:00077570       ?state_case_precision@?$output_processor@DV?$stream_output_adapter@D@__crt_stdio_output@@V?$positional_parameter_base@DV?$stream_output_adapter@D@__crt_stdio_output@@@2@@__crt_stdio_output@@AEAA_NXZ 0000000180078570 f i libucrtd:output.obj
 0001:000775f0       ?state_case_precision@?$output_processor@DV?$stream_output_adapter@D@__crt_stdio_output@@V?$standard_base@DV?$stream_output_adapter@D@__crt_stdio_output@@@2@@__crt_stdio_output@@AEAA_NXZ 00000001800785f0 f i libucrtd:output.obj
 0001:00077670       ?state_case_precision@?$output_processor@DV?$string_output_adapter@D@__crt_stdio_output@@V?$format_validation_base@DV?$string_output_adapter@D@__crt_stdio_output@@@2@@__crt_stdio_output@@AEAA_NXZ 0000000180078670 f i libucrtd:output.obj
 0001:000776f0       ?state_case_precision@?$output_processor@DV?$string_output_adapter@D@__crt_stdio_output@@V?$positional_parameter_base@DV?$string_output_adapter@D@__crt_stdio_output@@@2@@__crt_stdio_output@@AEAA_NXZ 00000001800786f0 f i libucrtd:output.obj
 0001:00077770       ?state_case_precision@?$output_processor@DV?$string_output_adapter@D@__crt_stdio_output@@V?$standard_base@DV?$string_output_adapter@D@__crt_stdio_output@@@2@@__crt_stdio_output@@AEAA_NXZ 0000000180078770 f i libucrtd:output.obj
 0001:000777f0       ?state_case_precision@?$output_processor@_WV?$stream_output_adapter@_W@__crt_stdio_output@@V?$format_validation_base@_WV?$stream_output_adapter@_W@__crt_stdio_output@@@2@@__crt_stdio_output@@AEAA_NXZ 00000001800787f0 f i libucrtd:output.obj
 0001:00077870       ?state_case_precision@?$output_processor@_WV?$stream_output_adapter@_W@__crt_stdio_output@@V?$positional_parameter_base@_WV?$stream_output_adapter@_W@__crt_stdio_output@@@2@@__crt_stdio_output@@AEAA_NXZ 0000000180078870 f i libucrtd:output.obj
 0001:000778f0       ?state_case_precision@?$output_processor@_WV?$stream_output_adapter@_W@__crt_stdio_output@@V?$standard_base@_WV?$stream_output_adapter@_W@__crt_stdio_output@@@2@@__crt_stdio_output@@AEAA_NXZ 00000001800788f0 f i libucrtd:output.obj
 0001:00077970       ?state_case_precision@?$output_processor@_WV?$string_output_adapter@_W@__crt_stdio_output@@V?$format_validation_base@_WV?$string_output_adapter@_W@__crt_stdio_output@@@2@@__crt_stdio_output@@AEAA_NXZ 0000000180078970 f i libucrtd:output.obj
 0001:000779f0       ?state_case_precision@?$output_processor@_WV?$string_output_adapter@_W@__crt_stdio_output@@V?$positional_parameter_base@_WV?$string_output_adapter@_W@__crt_stdio_output@@@2@@__crt_stdio_output@@AEAA_NXZ 00000001800789f0 f i libucrtd:output.obj
 0001:00077a70       ?state_case_precision@?$output_processor@_WV?$string_output_adapter@_W@__crt_stdio_output@@V?$standard_base@_WV?$string_output_adapter@_W@__crt_stdio_output@@@2@@__crt_stdio_output@@AEAA_NXZ 0000000180078a70 f i libucrtd:output.obj
 0001:00077af0       ?state_case_size@?$output_processor@DV?$stream_output_adapter@D@__crt_stdio_output@@V?$format_validation_base@DV?$stream_output_adapter@D@__crt_stdio_output@@@2@@__crt_stdio_output@@AEAA_NXZ 0000000180078af0 f i libucrtd:output.obj
 0001:00077fb0       ?state_case_size@?$output_processor@DV?$stream_output_adapter@D@__crt_stdio_output@@V?$positional_parameter_base@DV?$stream_output_adapter@D@__crt_stdio_output@@@2@@__crt_stdio_output@@AEAA_NXZ 0000000180078fb0 f i libucrtd:output.obj
 0001:00078470       ?state_case_size@?$output_processor@DV?$stream_output_adapter@D@__crt_stdio_output@@V?$standard_base@DV?$stream_output_adapter@D@__crt_stdio_output@@@2@@__crt_stdio_output@@AEAA_NXZ 0000000180079470 f i libucrtd:output.obj
 0001:00078930       ?state_case_size@?$output_processor@DV?$string_output_adapter@D@__crt_stdio_output@@V?$format_validation_base@DV?$string_output_adapter@D@__crt_stdio_output@@@2@@__crt_stdio_output@@AEAA_NXZ 0000000180079930 f i libucrtd:output.obj
 0001:00078df0       ?state_case_size@?$output_processor@DV?$string_output_adapter@D@__crt_stdio_output@@V?$positional_parameter_base@DV?$string_output_adapter@D@__crt_stdio_output@@@2@@__crt_stdio_output@@AEAA_NXZ 0000000180079df0 f i libucrtd:output.obj
 0001:000792b0       ?state_case_size@?$output_processor@DV?$string_output_adapter@D@__crt_stdio_output@@V?$standard_base@DV?$string_output_adapter@D@__crt_stdio_output@@@2@@__crt_stdio_output@@AEAA_NXZ 000000018007a2b0 f i libucrtd:output.obj
 0001:00079770       ?state_case_size@?$output_processor@_WV?$stream_output_adapter@_W@__crt_stdio_output@@V?$format_validation_base@_WV?$stream_output_adapter@_W@__crt_stdio_output@@@2@@__crt_stdio_output@@AEAA_NXZ 000000018007a770 f i libucrtd:output.obj
 0001:00079c30       ?state_case_size@?$output_processor@_WV?$stream_output_adapter@_W@__crt_stdio_output@@V?$positional_parameter_base@_WV?$stream_output_adapter@_W@__crt_stdio_output@@@2@@__crt_stdio_output@@AEAA_NXZ 000000018007ac30 f i libucrtd:output.obj
 0001:0007a0f0       ?state_case_size@?$output_processor@_WV?$stream_output_adapter@_W@__crt_stdio_output@@V?$standard_base@_WV?$stream_output_adapter@_W@__crt_stdio_output@@@2@@__crt_stdio_output@@AEAA_NXZ 000000018007b0f0 f i libucrtd:output.obj
 0001:0007a5b0       ?state_case_size@?$output_processor@_WV?$string_output_adapter@_W@__crt_stdio_output@@V?$format_validation_base@_WV?$string_output_adapter@_W@__crt_stdio_output@@@2@@__crt_stdio_output@@AEAA_NXZ 000000018007b5b0 f i libucrtd:output.obj
 0001:0007aa70       ?state_case_size@?$output_processor@_WV?$string_output_adapter@_W@__crt_stdio_output@@V?$positional_parameter_base@_WV?$string_output_adapter@_W@__crt_stdio_output@@@2@@__crt_stdio_output@@AEAA_NXZ 000000018007ba70 f i libucrtd:output.obj
 0001:0007af30       ?state_case_size@?$output_processor@_WV?$string_output_adapter@_W@__crt_stdio_output@@V?$standard_base@_WV?$string_output_adapter@_W@__crt_stdio_output@@@2@@__crt_stdio_output@@AEAA_NXZ 000000018007bf30 f i libucrtd:output.obj
 0001:0007b3f0       ?state_case_type@?$output_processor@DV?$stream_output_adapter@D@__crt_stdio_output@@V?$format_validation_base@DV?$stream_output_adapter@D@__crt_stdio_output@@@2@@__crt_stdio_output@@AEAA_NXZ 000000018007c3f0 f i libucrtd:output.obj
 0001:0007b8b0       ?state_case_type@?$output_processor@DV?$stream_output_adapter@D@__crt_stdio_output@@V?$positional_parameter_base@DV?$stream_output_adapter@D@__crt_stdio_output@@@2@@__crt_stdio_output@@AEAA_NXZ 000000018007c8b0 f i libucrtd:output.obj
 0001:0007bd70       ?state_case_type@?$output_processor@DV?$stream_output_adapter@D@__crt_stdio_output@@V?$standard_base@DV?$stream_output_adapter@D@__crt_stdio_output@@@2@@__crt_stdio_output@@AEAA_NXZ 000000018007cd70 f i libucrtd:output.obj
 0001:0007c230       ?state_case_type@?$output_processor@DV?$string_output_adapter@D@__crt_stdio_output@@V?$format_validation_base@DV?$string_output_adapter@D@__crt_stdio_output@@@2@@__crt_stdio_output@@AEAA_NXZ 000000018007d230 f i libucrtd:output.obj
 0001:0007c6f0       ?state_case_type@?$output_processor@DV?$string_output_adapter@D@__crt_stdio_output@@V?$positional_parameter_base@DV?$string_output_adapter@D@__crt_stdio_output@@@2@@__crt_stdio_output@@AEAA_NXZ 000000018007d6f0 f i libucrtd:output.obj
 0001:0007cbb0       ?state_case_type@?$output_processor@DV?$string_output_adapter@D@__crt_stdio_output@@V?$standard_base@DV?$string_output_adapter@D@__crt_stdio_output@@@2@@__crt_stdio_output@@AEAA_NXZ 000000018007dbb0 f i libucrtd:output.obj
 0001:0007d070       ?state_case_type@?$output_processor@_WV?$stream_output_adapter@_W@__crt_stdio_output@@V?$format_validation_base@_WV?$stream_output_adapter@_W@__crt_stdio_output@@@2@@__crt_stdio_output@@AEAA_NXZ 000000018007e070 f i libucrtd:output.obj
 0001:0007d600       ?state_case_type@?$output_processor@_WV?$stream_output_adapter@_W@__crt_stdio_output@@V?$positional_parameter_base@_WV?$stream_output_adapter@_W@__crt_stdio_output@@@2@@__crt_stdio_output@@AEAA_NXZ 000000018007e600 f i libucrtd:output.obj
 0001:0007db90       ?state_case_type@?$output_processor@_WV?$stream_output_adapter@_W@__crt_stdio_output@@V?$standard_base@_WV?$stream_output_adapter@_W@__crt_stdio_output@@@2@@__crt_stdio_output@@AEAA_NXZ 000000018007eb90 f i libucrtd:output.obj
 0001:0007e120       ?state_case_type@?$output_processor@_WV?$string_output_adapter@_W@__crt_stdio_output@@V?$format_validation_base@_WV?$string_output_adapter@_W@__crt_stdio_output@@@2@@__crt_stdio_output@@AEAA_NXZ 000000018007f120 f i libucrtd:output.obj
 0001:0007e6b0       ?state_case_type@?$output_processor@_WV?$string_output_adapter@_W@__crt_stdio_output@@V?$positional_parameter_base@_WV?$string_output_adapter@_W@__crt_stdio_output@@@2@@__crt_stdio_output@@AEAA_NXZ 000000018007f6b0 f i libucrtd:output.obj
 0001:0007ec40       ?state_case_type@?$output_processor@_WV?$string_output_adapter@_W@__crt_stdio_output@@V?$standard_base@_WV?$string_output_adapter@_W@__crt_stdio_output@@@2@@__crt_stdio_output@@AEAA_NXZ 000000018007fc40 f i libucrtd:output.obj
 0001:0007f1d0       ?state_case_width@?$output_processor@DV?$stream_output_adapter@D@__crt_stdio_output@@V?$format_validation_base@DV?$stream_output_adapter@D@__crt_stdio_output@@@2@@__crt_stdio_output@@AEAA_NXZ 00000001800801d0 f i libucrtd:output.obj
 0001:0007f260       ?state_case_width@?$output_processor@DV?$stream_output_adapter@D@__crt_stdio_output@@V?$positional_parameter_base@DV?$stream_output_adapter@D@__crt_stdio_output@@@2@@__crt_stdio_output@@AEAA_NXZ 0000000180080260 f i libucrtd:output.obj
 0001:0007f2f0       ?state_case_width@?$output_processor@DV?$stream_output_adapter@D@__crt_stdio_output@@V?$standard_base@DV?$stream_output_adapter@D@__crt_stdio_output@@@2@@__crt_stdio_output@@AEAA_NXZ 00000001800802f0 f i libucrtd:output.obj
 0001:0007f380       ?state_case_width@?$output_processor@DV?$string_output_adapter@D@__crt_stdio_output@@V?$format_validation_base@DV?$string_output_adapter@D@__crt_stdio_output@@@2@@__crt_stdio_output@@AEAA_NXZ 0000000180080380 f i libucrtd:output.obj
 0001:0007f410       ?state_case_width@?$output_processor@DV?$string_output_adapter@D@__crt_stdio_output@@V?$positional_parameter_base@DV?$string_output_adapter@D@__crt_stdio_output@@@2@@__crt_stdio_output@@AEAA_NXZ 0000000180080410 f i libucrtd:output.obj
 0001:0007f4a0       ?state_case_width@?$output_processor@DV?$string_output_adapter@D@__crt_stdio_output@@V?$standard_base@DV?$string_output_adapter@D@__crt_stdio_output@@@2@@__crt_stdio_output@@AEAA_NXZ 00000001800804a0 f i libucrtd:output.obj
 0001:0007f530       ?state_case_width@?$output_processor@_WV?$stream_output_adapter@_W@__crt_stdio_output@@V?$format_validation_base@_WV?$stream_output_adapter@_W@__crt_stdio_output@@@2@@__crt_stdio_output@@AEAA_NXZ 0000000180080530 f i libucrtd:output.obj
 0001:0007f5c0       ?state_case_width@?$output_processor@_WV?$stream_output_adapter@_W@__crt_stdio_output@@V?$positional_parameter_base@_WV?$stream_output_adapter@_W@__crt_stdio_output@@@2@@__crt_stdio_output@@AEAA_NXZ 00000001800805c0 f i libucrtd:output.obj
 0001:0007f650       ?state_case_width@?$output_processor@_WV?$stream_output_adapter@_W@__crt_stdio_output@@V?$standard_base@_WV?$stream_output_adapter@_W@__crt_stdio_output@@@2@@__crt_stdio_output@@AEAA_NXZ 0000000180080650 f i libucrtd:output.obj
 0001:0007f6e0       ?state_case_width@?$output_processor@_WV?$string_output_adapter@_W@__crt_stdio_output@@V?$format_validation_base@_WV?$string_output_adapter@_W@__crt_stdio_output@@@2@@__crt_stdio_output@@AEAA_NXZ 00000001800806e0 f i libucrtd:output.obj
 0001:0007f770       ?state_case_width@?$output_processor@_WV?$string_output_adapter@_W@__crt_stdio_output@@V?$positional_parameter_base@_WV?$string_output_adapter@_W@__crt_stdio_output@@@2@@__crt_stdio_output@@AEAA_NXZ 0000000180080770 f i libucrtd:output.obj
 0001:0007f800       ?state_case_width@?$output_processor@_WV?$string_output_adapter@_W@__crt_stdio_output@@V?$standard_base@_WV?$string_output_adapter@_W@__crt_stdio_output@@@2@@__crt_stdio_output@@AEAA_NXZ 0000000180080800 f i libucrtd:output.obj
 0001:0007f890       ?state_count@?$format_validation_base@DV?$stream_output_adapter@D@__crt_stdio_output@@@__crt_stdio_output@@KAIXZ 0000000180080890 f i libucrtd:output.obj
 0001:0007f8a0       ?state_count@?$format_validation_base@DV?$string_output_adapter@D@__crt_stdio_output@@@__crt_stdio_output@@KAIXZ 00000001800808a0 f i libucrtd:output.obj
 0001:0007f8b0       ?state_count@?$format_validation_base@_WV?$stream_output_adapter@_W@__crt_stdio_output@@@__crt_stdio_output@@KAIXZ 00000001800808b0 f i libucrtd:output.obj
 0001:0007f8c0       ?state_count@?$format_validation_base@_WV?$string_output_adapter@_W@__crt_stdio_output@@@__crt_stdio_output@@KAIXZ 00000001800808c0 f i libucrtd:output.obj
 0001:0007f8d0       ?state_count@?$standard_base@DV?$stream_output_adapter@D@__crt_stdio_output@@@__crt_stdio_output@@KAIXZ 00000001800808d0 f i libucrtd:output.obj
 0001:0007f8e0       ?state_count@?$standard_base@DV?$string_output_adapter@D@__crt_stdio_output@@@__crt_stdio_output@@KAIXZ 00000001800808e0 f i libucrtd:output.obj
 0001:0007f8f0       ?state_count@?$standard_base@_WV?$stream_output_adapter@_W@__crt_stdio_output@@@__crt_stdio_output@@KAIXZ 00000001800808f0 f i libucrtd:output.obj
 0001:0007f900       ?state_count@?$standard_base@_WV?$string_output_adapter@_W@__crt_stdio_output@@@__crt_stdio_output@@KAIXZ 0000000180080900 f i libucrtd:output.obj
 0001:0007f910       ?state_transition_table@?$format_validation_base@DV?$stream_output_adapter@D@__crt_stdio_output@@@__crt_stdio_output@@KAAEBV?$spectre_mitigated_lookup_table@Ustate_transition_pair@__crt_stdio_output@@$0IA@@2@XZ 0000000180080910 f i libucrtd:output.obj
 0001:0007f920       ?state_transition_table@?$format_validation_base@DV?$string_output_adapter@D@__crt_stdio_output@@@__crt_stdio_output@@KAAEBV?$spectre_mitigated_lookup_table@Ustate_transition_pair@__crt_stdio_output@@$0IA@@2@XZ 0000000180080920 f i libucrtd:output.obj
 0001:0007f930       ?state_transition_table@?$format_validation_base@_WV?$stream_output_adapter@_W@__crt_stdio_output@@@__crt_stdio_output@@KAAEBV?$spectre_mitigated_lookup_table@Ustate_transition_pair@__crt_stdio_output@@$0IA@@2@XZ 0000000180080930 f i libucrtd:output.obj
 0001:0007f940       ?state_transition_table@?$format_validation_base@_WV?$string_output_adapter@_W@__crt_stdio_output@@@__crt_stdio_output@@KAAEBV?$spectre_mitigated_lookup_table@Ustate_transition_pair@__crt_stdio_output@@$0IA@@2@XZ 0000000180080940 f i libucrtd:output.obj
 0001:0007f950       ?state_transition_table@?$standard_base@DV?$stream_output_adapter@D@__crt_stdio_output@@@__crt_stdio_output@@KAAEBV?$spectre_mitigated_lookup_table@Ustate_transition_pair@__crt_stdio_output@@$0IA@@2@XZ 0000000180080950 f i libucrtd:output.obj
 0001:0007f960       ?state_transition_table@?$standard_base@DV?$string_output_adapter@D@__crt_stdio_output@@@__crt_stdio_output@@KAAEBV?$spectre_mitigated_lookup_table@Ustate_transition_pair@__crt_stdio_output@@$0IA@@2@XZ 0000000180080960 f i libucrtd:output.obj
 0001:0007f970       ?state_transition_table@?$standard_base@_WV?$stream_output_adapter@_W@__crt_stdio_output@@@__crt_stdio_output@@KAAEBV?$spectre_mitigated_lookup_table@Ustate_transition_pair@__crt_stdio_output@@$0IA@@2@XZ 0000000180080970 f i libucrtd:output.obj
 0001:0007f980       ?state_transition_table@?$standard_base@_WV?$string_output_adapter@_W@__crt_stdio_output@@@__crt_stdio_output@@KAAEBV?$spectre_mitigated_lookup_table@Ustate_transition_pair@__crt_stdio_output@@$0IA@@2@XZ 0000000180080980 f i libucrtd:output.obj
 0001:0007f990       ?tchar_string@?$common_data@D@__crt_stdio_output@@IEAAAEAPEADD@Z 0000000180080990 f i libucrtd:output.obj
 0001:0007f9b0       ?tchar_string@?$common_data@D@__crt_stdio_output@@IEAAAEAPEADXZ 00000001800809b0 f i libucrtd:output.obj
 0001:0007f9d0       ?tchar_string@?$common_data@_W@__crt_stdio_output@@IEAAAEAPEA_WXZ 00000001800809d0 f i libucrtd:output.obj
 0001:0007f9f0       ?tchar_string@?$common_data@_W@__crt_stdio_output@@IEAAAEAPEA_W_W@Z 00000001800809f0 f i libucrtd:output.obj
 0001:0007fa10       ?to_integer_size@__crt_stdio_output@@YA_KW4length_modifier@1@@Z 0000000180080a10 f i libucrtd:output.obj
 0001:0007fac0       ?type_case_X@?$output_processor@DV?$stream_output_adapter@D@__crt_stdio_output@@V?$format_validation_base@DV?$stream_output_adapter@D@__crt_stdio_output@@@2@@__crt_stdio_output@@AEAA_NXZ 0000000180080ac0 f i libucrtd:output.obj
 0001:0007fae0       ?type_case_X@?$output_processor@DV?$stream_output_adapter@D@__crt_stdio_output@@V?$positional_parameter_base@DV?$stream_output_adapter@D@__crt_stdio_output@@@2@@__crt_stdio_output@@AEAA_NXZ 0000000180080ae0 f i libucrtd:output.obj
 0001:0007fb00       ?type_case_X@?$output_processor@DV?$stream_output_adapter@D@__crt_stdio_output@@V?$standard_base@DV?$stream_output_adapter@D@__crt_stdio_output@@@2@@__crt_stdio_output@@AEAA_NXZ 0000000180080b00 f i libucrtd:output.obj
 0001:0007fb20       ?type_case_X@?$output_processor@DV?$string_output_adapter@D@__crt_stdio_output@@V?$format_validation_base@DV?$string_output_adapter@D@__crt_stdio_output@@@2@@__crt_stdio_output@@AEAA_NXZ 0000000180080b20 f i libucrtd:output.obj
 0001:0007fb40       ?type_case_X@?$output_processor@DV?$string_output_adapter@D@__crt_stdio_output@@V?$positional_parameter_base@DV?$string_output_adapter@D@__crt_stdio_output@@@2@@__crt_stdio_output@@AEAA_NXZ 0000000180080b40 f i libucrtd:output.obj
 0001:0007fb60       ?type_case_X@?$output_processor@DV?$string_output_adapter@D@__crt_stdio_output@@V?$standard_base@DV?$string_output_adapter@D@__crt_stdio_output@@@2@@__crt_stdio_output@@AEAA_NXZ 0000000180080b60 f i libucrtd:output.obj
 0001:0007fb80       ?type_case_X@?$output_processor@_WV?$stream_output_adapter@_W@__crt_stdio_output@@V?$format_validation_base@_WV?$stream_output_adapter@_W@__crt_stdio_output@@@2@@__crt_stdio_output@@AEAA_NXZ 0000000180080b80 f i libucrtd:output.obj
 0001:0007fba0       ?type_case_X@?$output_processor@_WV?$stream_output_adapter@_W@__crt_stdio_output@@V?$positional_parameter_base@_WV?$stream_output_adapter@_W@__crt_stdio_output@@@2@@__crt_stdio_output@@AEAA_NXZ 0000000180080ba0 f i libucrtd:output.obj
 0001:0007fbc0       ?type_case_X@?$output_processor@_WV?$stream_output_adapter@_W@__crt_stdio_output@@V?$standard_base@_WV?$stream_output_adapter@_W@__crt_stdio_output@@@2@@__crt_stdio_output@@AEAA_NXZ 0000000180080bc0 f i libucrtd:output.obj
 0001:0007fbe0       ?type_case_X@?$output_processor@_WV?$string_output_adapter@_W@__crt_stdio_output@@V?$format_validation_base@_WV?$string_output_adapter@_W@__crt_stdio_output@@@2@@__crt_stdio_output@@AEAA_NXZ 0000000180080be0 f i libucrtd:output.obj
 0001:0007fc00       ?type_case_X@?$output_processor@_WV?$string_output_adapter@_W@__crt_stdio_output@@V?$positional_parameter_base@_WV?$string_output_adapter@_W@__crt_stdio_output@@@2@@__crt_stdio_output@@AEAA_NXZ 0000000180080c00 f i libucrtd:output.obj
 0001:0007fc20       ?type_case_X@?$output_processor@_WV?$string_output_adapter@_W@__crt_stdio_output@@V?$standard_base@_WV?$string_output_adapter@_W@__crt_stdio_output@@@2@@__crt_stdio_output@@AEAA_NXZ 0000000180080c20 f i libucrtd:output.obj
 0001:0007fc40       ?type_case_Z@?$output_processor@DV?$stream_output_adapter@D@__crt_stdio_output@@V?$format_validation_base@DV?$stream_output_adapter@D@__crt_stdio_output@@@2@@__crt_stdio_output@@AEAA_NXZ 0000000180080c40 f i libucrtd:output.obj
 0001:0007fd60       ?type_case_Z@?$output_processor@DV?$stream_output_adapter@D@__crt_stdio_output@@V?$positional_parameter_base@DV?$stream_output_adapter@D@__crt_stdio_output@@@2@@__crt_stdio_output@@AEAA_NXZ 0000000180080d60 f i libucrtd:output.obj
 0001:0007fe80       ?type_case_Z@?$output_processor@DV?$stream_output_adapter@D@__crt_stdio_output@@V?$standard_base@DV?$stream_output_adapter@D@__crt_stdio_output@@@2@@__crt_stdio_output@@AEAA_NXZ 0000000180080e80 f i libucrtd:output.obj
 0001:0007ffa0       ?type_case_Z@?$output_processor@DV?$string_output_adapter@D@__crt_stdio_output@@V?$format_validation_base@DV?$string_output_adapter@D@__crt_stdio_output@@@2@@__crt_stdio_output@@AEAA_NXZ 0000000180080fa0 f i libucrtd:output.obj
 0001:000800c0       ?type_case_Z@?$output_processor@DV?$string_output_adapter@D@__crt_stdio_output@@V?$positional_parameter_base@DV?$string_output_adapter@D@__crt_stdio_output@@@2@@__crt_stdio_output@@AEAA_NXZ 00000001800810c0 f i libucrtd:output.obj
 0001:000801e0       ?type_case_Z@?$output_processor@DV?$string_output_adapter@D@__crt_stdio_output@@V?$standard_base@DV?$string_output_adapter@D@__crt_stdio_output@@@2@@__crt_stdio_output@@AEAA_NXZ 00000001800811e0 f i libucrtd:output.obj
 0001:00080300       ?type_case_Z@?$output_processor@_WV?$stream_output_adapter@_W@__crt_stdio_output@@V?$format_validation_base@_WV?$stream_output_adapter@_W@__crt_stdio_output@@@2@@__crt_stdio_output@@AEAA_NXZ 0000000180081300 f i libucrtd:output.obj
 0001:00080420       ?type_case_Z@?$output_processor@_WV?$stream_output_adapter@_W@__crt_stdio_output@@V?$positional_parameter_base@_WV?$stream_output_adapter@_W@__crt_stdio_output@@@2@@__crt_stdio_output@@AEAA_NXZ 0000000180081420 f i libucrtd:output.obj
 0001:00080540       ?type_case_Z@?$output_processor@_WV?$stream_output_adapter@_W@__crt_stdio_output@@V?$standard_base@_WV?$stream_output_adapter@_W@__crt_stdio_output@@@2@@__crt_stdio_output@@AEAA_NXZ 0000000180081540 f i libucrtd:output.obj
 0001:00080660       ?type_case_Z@?$output_processor@_WV?$string_output_adapter@_W@__crt_stdio_output@@V?$format_validation_base@_WV?$string_output_adapter@_W@__crt_stdio_output@@@2@@__crt_stdio_output@@AEAA_NXZ 0000000180081660 f i libucrtd:output.obj
 0001:00080780       ?type_case_Z@?$output_processor@_WV?$string_output_adapter@_W@__crt_stdio_output@@V?$positional_parameter_base@_WV?$string_output_adapter@_W@__crt_stdio_output@@@2@@__crt_stdio_output@@AEAA_NXZ 0000000180081780 f i libucrtd:output.obj
 0001:000808a0       ?type_case_Z@?$output_processor@_WV?$string_output_adapter@_W@__crt_stdio_output@@V?$standard_base@_WV?$string_output_adapter@_W@__crt_stdio_output@@@2@@__crt_stdio_output@@AEAA_NXZ 00000001800818a0 f i libucrtd:output.obj
 0001:000809c0       ?type_case_a@?$output_processor@DV?$stream_output_adapter@D@__crt_stdio_output@@V?$format_validation_base@DV?$stream_output_adapter@D@__crt_stdio_output@@@2@@__crt_stdio_output@@AEAA_NXZ 00000001800819c0 f i libucrtd:output.obj
 0001:00080e20       ?type_case_a@?$output_processor@DV?$stream_output_adapter@D@__crt_stdio_output@@V?$positional_parameter_base@DV?$stream_output_adapter@D@__crt_stdio_output@@@2@@__crt_stdio_output@@AEAA_NXZ 0000000180081e20 f i libucrtd:output.obj
 0001:00081280       ?type_case_a@?$output_processor@DV?$stream_output_adapter@D@__crt_stdio_output@@V?$standard_base@DV?$stream_output_adapter@D@__crt_stdio_output@@@2@@__crt_stdio_output@@AEAA_NXZ 0000000180082280 f i libucrtd:output.obj
 0001:000816e0       ?type_case_a@?$output_processor@DV?$string_output_adapter@D@__crt_stdio_output@@V?$format_validation_base@DV?$string_output_adapter@D@__crt_stdio_output@@@2@@__crt_stdio_output@@AEAA_NXZ 00000001800826e0 f i libucrtd:output.obj
 0001:00081b40       ?type_case_a@?$output_processor@DV?$string_output_adapter@D@__crt_stdio_output@@V?$positional_parameter_base@DV?$string_output_adapter@D@__crt_stdio_output@@@2@@__crt_stdio_output@@AEAA_NXZ 0000000180082b40 f i libucrtd:output.obj
 0001:00081fa0       ?type_case_a@?$output_processor@DV?$string_output_adapter@D@__crt_stdio_output@@V?$standard_base@DV?$string_output_adapter@D@__crt_stdio_output@@@2@@__crt_stdio_output@@AEAA_NXZ 0000000180082fa0 f i libucrtd:output.obj
 0001:00082400       ?type_case_a@?$output_processor@_WV?$stream_output_adapter@_W@__crt_stdio_output@@V?$format_validation_base@_WV?$stream_output_adapter@_W@__crt_stdio_output@@@2@@__crt_stdio_output@@AEAA_NXZ 0000000180083400 f i libucrtd:output.obj
 0001:00082870       ?type_case_a@?$output_processor@_WV?$stream_output_adapter@_W@__crt_stdio_output@@V?$positional_parameter_base@_WV?$stream_output_adapter@_W@__crt_stdio_output@@@2@@__crt_stdio_output@@AEAA_NXZ 0000000180083870 f i libucrtd:output.obj
 0001:00082ce0       ?type_case_a@?$output_processor@_WV?$stream_output_adapter@_W@__crt_stdio_output@@V?$standard_base@_WV?$stream_output_adapter@_W@__crt_stdio_output@@@2@@__crt_stdio_output@@AEAA_NXZ 0000000180083ce0 f i libucrtd:output.obj
 0001:00083150       ?type_case_a@?$output_processor@_WV?$string_output_adapter@_W@__crt_stdio_output@@V?$format_validation_base@_WV?$string_output_adapter@_W@__crt_stdio_output@@@2@@__crt_stdio_output@@AEAA_NXZ 0000000180084150 f i libucrtd:output.obj
 0001:000835c0       ?type_case_a@?$output_processor@_WV?$string_output_adapter@_W@__crt_stdio_output@@V?$positional_parameter_base@_WV?$string_output_adapter@_W@__crt_stdio_output@@@2@@__crt_stdio_output@@AEAA_NXZ 00000001800845c0 f i libucrtd:output.obj
 0001:00083a30       ?type_case_a@?$output_processor@_WV?$string_output_adapter@_W@__crt_stdio_output@@V?$standard_base@_WV?$string_output_adapter@_W@__crt_stdio_output@@@2@@__crt_stdio_output@@AEAA_NXZ 0000000180084a30 f i libucrtd:output.obj
 0001:00083ea0       ?type_case_c@?$output_processor@DV?$stream_output_adapter@D@__crt_stdio_output@@V?$format_validation_base@DV?$stream_output_adapter@D@__crt_stdio_output@@@2@@__crt_stdio_output@@AEAA_NXZ 0000000180084ea0 f i libucrtd:output.obj
 0001:00083ec0       ?type_case_c@?$output_processor@DV?$stream_output_adapter@D@__crt_stdio_output@@V?$positional_parameter_base@DV?$stream_output_adapter@D@__crt_stdio_output@@@2@@__crt_stdio_output@@AEAA_NXZ 0000000180084ec0 f i libucrtd:output.obj
 0001:00083ee0       ?type_case_c@?$output_processor@DV?$stream_output_adapter@D@__crt_stdio_output@@V?$standard_base@DV?$stream_output_adapter@D@__crt_stdio_output@@@2@@__crt_stdio_output@@AEAA_NXZ 0000000180084ee0 f i libucrtd:output.obj
 0001:00083f00       ?type_case_c@?$output_processor@DV?$string_output_adapter@D@__crt_stdio_output@@V?$format_validation_base@DV?$string_output_adapter@D@__crt_stdio_output@@@2@@__crt_stdio_output@@AEAA_NXZ 0000000180084f00 f i libucrtd:output.obj
 0001:00083f20       ?type_case_c@?$output_processor@DV?$string_output_adapter@D@__crt_stdio_output@@V?$positional_parameter_base@DV?$string_output_adapter@D@__crt_stdio_output@@@2@@__crt_stdio_output@@AEAA_NXZ 0000000180084f20 f i libucrtd:output.obj
 0001:00083f40       ?type_case_c@?$output_processor@DV?$string_output_adapter@D@__crt_stdio_output@@V?$standard_base@DV?$string_output_adapter@D@__crt_stdio_output@@@2@@__crt_stdio_output@@AEAA_NXZ 0000000180084f40 f i libucrtd:output.obj
 0001:00083f60       ?type_case_c@?$output_processor@_WV?$stream_output_adapter@_W@__crt_stdio_output@@V?$format_validation_base@_WV?$stream_output_adapter@_W@__crt_stdio_output@@@2@@__crt_stdio_output@@AEAA_NXZ 0000000180084f60 f i libucrtd:output.obj
 0001:00083f80       ?type_case_c@?$output_processor@_WV?$stream_output_adapter@_W@__crt_stdio_output@@V?$positional_parameter_base@_WV?$stream_output_adapter@_W@__crt_stdio_output@@@2@@__crt_stdio_output@@AEAA_NXZ 0000000180084f80 f i libucrtd:output.obj
 0001:00083fa0       ?type_case_c@?$output_processor@_WV?$stream_output_adapter@_W@__crt_stdio_output@@V?$standard_base@_WV?$stream_output_adapter@_W@__crt_stdio_output@@@2@@__crt_stdio_output@@AEAA_NXZ 0000000180084fa0 f i libucrtd:output.obj
 0001:00083fc0       ?type_case_c@?$output_processor@_WV?$string_output_adapter@_W@__crt_stdio_output@@V?$format_validation_base@_WV?$string_output_adapter@_W@__crt_stdio_output@@@2@@__crt_stdio_output@@AEAA_NXZ 0000000180084fc0 f i libucrtd:output.obj
 0001:00083fe0       ?type_case_c@?$output_processor@_WV?$string_output_adapter@_W@__crt_stdio_output@@V?$positional_parameter_base@_WV?$string_output_adapter@_W@__crt_stdio_output@@@2@@__crt_stdio_output@@AEAA_NXZ 0000000180084fe0 f i libucrtd:output.obj
 0001:00084000       ?type_case_c@?$output_processor@_WV?$string_output_adapter@_W@__crt_stdio_output@@V?$standard_base@_WV?$string_output_adapter@_W@__crt_stdio_output@@@2@@__crt_stdio_output@@AEAA_NXZ 0000000180085000 f i libucrtd:output.obj
 0001:00084020       ?type_case_c_tchar@?$output_processor@DV?$stream_output_adapter@D@__crt_stdio_output@@V?$format_validation_base@DV?$stream_output_adapter@D@__crt_stdio_output@@@2@@__crt_stdio_output@@AEAA_ND@Z 0000000180085020 f i libucrtd:output.obj
 0001:00084190       ?type_case_c_tchar@?$output_processor@DV?$stream_output_adapter@D@__crt_stdio_output@@V?$positional_parameter_base@DV?$stream_output_adapter@D@__crt_stdio_output@@@2@@__crt_stdio_output@@AEAA_ND@Z 0000000180085190 f i libucrtd:output.obj
 0001:00084300       ?type_case_c_tchar@?$output_processor@DV?$stream_output_adapter@D@__crt_stdio_output@@V?$standard_base@DV?$stream_output_adapter@D@__crt_stdio_output@@@2@@__crt_stdio_output@@AEAA_ND@Z 0000000180085300 f i libucrtd:output.obj
 0001:00084470       ?type_case_c_tchar@?$output_processor@DV?$string_output_adapter@D@__crt_stdio_output@@V?$format_validation_base@DV?$string_output_adapter@D@__crt_stdio_output@@@2@@__crt_stdio_output@@AEAA_ND@Z 0000000180085470 f i libucrtd:output.obj
 0001:000845e0       ?type_case_c_tchar@?$output_processor@DV?$string_output_adapter@D@__crt_stdio_output@@V?$positional_parameter_base@DV?$string_output_adapter@D@__crt_stdio_output@@@2@@__crt_stdio_output@@AEAA_ND@Z 00000001800855e0 f i libucrtd:output.obj
 0001:00084750       ?type_case_c_tchar@?$output_processor@DV?$string_output_adapter@D@__crt_stdio_output@@V?$standard_base@DV?$string_output_adapter@D@__crt_stdio_output@@@2@@__crt_stdio_output@@AEAA_ND@Z 0000000180085750 f i libucrtd:output.obj
 0001:000848c0       ?type_case_c_tchar@?$output_processor@_WV?$stream_output_adapter@_W@__crt_stdio_output@@V?$format_validation_base@_WV?$stream_output_adapter@_W@__crt_stdio_output@@@2@@__crt_stdio_output@@AEAA_N_W@Z 00000001800858c0 f i libucrtd:output.obj
 0001:00084a20       ?type_case_c_tchar@?$output_processor@_WV?$stream_output_adapter@_W@__crt_stdio_output@@V?$positional_parameter_base@_WV?$stream_output_adapter@_W@__crt_stdio_output@@@2@@__crt_stdio_output@@AEAA_N_W@Z 0000000180085a20 f i libucrtd:output.obj
 0001:00084b80       ?type_case_c_tchar@?$output_processor@_WV?$stream_output_adapter@_W@__crt_stdio_output@@V?$standard_base@_WV?$stream_output_adapter@_W@__crt_stdio_output@@@2@@__crt_stdio_output@@AEAA_N_W@Z 0000000180085b80 f i libucrtd:output.obj
 0001:00084ce0       ?type_case_c_tchar@?$output_processor@_WV?$string_output_adapter@_W@__crt_stdio_output@@V?$format_validation_base@_WV?$string_output_adapter@_W@__crt_stdio_output@@@2@@__crt_stdio_output@@AEAA_N_W@Z 0000000180085ce0 f i libucrtd:output.obj
 0001:00084e40       ?type_case_c_tchar@?$output_processor@_WV?$string_output_adapter@_W@__crt_stdio_output@@V?$positional_parameter_base@_WV?$string_output_adapter@_W@__crt_stdio_output@@@2@@__crt_stdio_output@@AEAA_N_W@Z 0000000180085e40 f i libucrtd:output.obj
 0001:00084fa0       ?type_case_c_tchar@?$output_processor@_WV?$string_output_adapter@_W@__crt_stdio_output@@V?$standard_base@_WV?$string_output_adapter@_W@__crt_stdio_output@@@2@@__crt_stdio_output@@AEAA_N_W@Z 0000000180085fa0 f i libucrtd:output.obj
 0001:00085100       ?type_case_d@?$output_processor@DV?$stream_output_adapter@D@__crt_stdio_output@@V?$format_validation_base@DV?$stream_output_adapter@D@__crt_stdio_output@@@2@@__crt_stdio_output@@AEAA_NXZ 0000000180086100 f i libucrtd:output.obj
 0001:00085130       ?type_case_d@?$output_processor@DV?$stream_output_adapter@D@__crt_stdio_output@@V?$positional_parameter_base@DV?$stream_output_adapter@D@__crt_stdio_output@@@2@@__crt_stdio_output@@AEAA_NXZ 0000000180086130 f i libucrtd:output.obj
 0001:00085160       ?type_case_d@?$output_processor@DV?$stream_output_adapter@D@__crt_stdio_output@@V?$standard_base@DV?$stream_output_adapter@D@__crt_stdio_output@@@2@@__crt_stdio_output@@AEAA_NXZ 0000000180086160 f i libucrtd:output.obj
 0001:00085190       ?type_case_d@?$output_processor@DV?$string_output_adapter@D@__crt_stdio_output@@V?$format_validation_base@DV?$string_output_adapter@D@__crt_stdio_output@@@2@@__crt_stdio_output@@AEAA_NXZ 0000000180086190 f i libucrtd:output.obj
 0001:000851c0       ?type_case_d@?$output_processor@DV?$string_output_adapter@D@__crt_stdio_output@@V?$positional_parameter_base@DV?$string_output_adapter@D@__crt_stdio_output@@@2@@__crt_stdio_output@@AEAA_NXZ 00000001800861c0 f i libucrtd:output.obj
 0001:000851f0       ?type_case_d@?$output_processor@DV?$string_output_adapter@D@__crt_stdio_output@@V?$standard_base@DV?$string_output_adapter@D@__crt_stdio_output@@@2@@__crt_stdio_output@@AEAA_NXZ 00000001800861f0 f i libucrtd:output.obj
 0001:00085220       ?type_case_d@?$output_processor@_WV?$stream_output_adapter@_W@__crt_stdio_output@@V?$format_validation_base@_WV?$stream_output_adapter@_W@__crt_stdio_output@@@2@@__crt_stdio_output@@AEAA_NXZ 0000000180086220 f i libucrtd:output.obj
 0001:00085250       ?type_case_d@?$output_processor@_WV?$stream_output_adapter@_W@__crt_stdio_output@@V?$positional_parameter_base@_WV?$stream_output_adapter@_W@__crt_stdio_output@@@2@@__crt_stdio_output@@AEAA_NXZ 0000000180086250 f i libucrtd:output.obj
 0001:00085280       ?type_case_d@?$output_processor@_WV?$stream_output_adapter@_W@__crt_stdio_output@@V?$standard_base@_WV?$stream_output_adapter@_W@__crt_stdio_output@@@2@@__crt_stdio_output@@AEAA_NXZ 0000000180086280 f i libucrtd:output.obj
 0001:000852b0       ?type_case_d@?$output_processor@_WV?$string_output_adapter@_W@__crt_stdio_output@@V?$format_validation_base@_WV?$string_output_adapter@_W@__crt_stdio_output@@@2@@__crt_stdio_output@@AEAA_NXZ 00000001800862b0 f i libucrtd:output.obj
 0001:000852e0       ?type_case_d@?$output_processor@_WV?$string_output_adapter@_W@__crt_stdio_output@@V?$positional_parameter_base@_WV?$string_output_adapter@_W@__crt_stdio_output@@@2@@__crt_stdio_output@@AEAA_NXZ 00000001800862e0 f i libucrtd:output.obj
 0001:00085310       ?type_case_d@?$output_processor@_WV?$string_output_adapter@_W@__crt_stdio_output@@V?$standard_base@_WV?$string_output_adapter@_W@__crt_stdio_output@@@2@@__crt_stdio_output@@AEAA_NXZ 0000000180086310 f i libucrtd:output.obj
 0001:00085340       ?type_case_n@?$output_processor@DV?$stream_output_adapter@D@__crt_stdio_output@@V?$format_validation_base@DV?$stream_output_adapter@D@__crt_stdio_output@@@2@@__crt_stdio_output@@AEAA_NXZ 0000000180086340 f i libucrtd:output.obj
 0001:000855d0       ?type_case_n@?$output_processor@DV?$stream_output_adapter@D@__crt_stdio_output@@V?$positional_parameter_base@DV?$stream_output_adapter@D@__crt_stdio_output@@@2@@__crt_stdio_output@@AEAA_NXZ 00000001800865d0 f i libucrtd:output.obj
 0001:00085860       ?type_case_n@?$output_processor@DV?$stream_output_adapter@D@__crt_stdio_output@@V?$standard_base@DV?$stream_output_adapter@D@__crt_stdio_output@@@2@@__crt_stdio_output@@AEAA_NXZ 0000000180086860 f i libucrtd:output.obj
 0001:00085af0       ?type_case_n@?$output_processor@DV?$string_output_adapter@D@__crt_stdio_output@@V?$format_validation_base@DV?$string_output_adapter@D@__crt_stdio_output@@@2@@__crt_stdio_output@@AEAA_NXZ 0000000180086af0 f i libucrtd:output.obj
 0001:00085d80       ?type_case_n@?$output_processor@DV?$string_output_adapter@D@__crt_stdio_output@@V?$positional_parameter_base@DV?$string_output_adapter@D@__crt_stdio_output@@@2@@__crt_stdio_output@@AEAA_NXZ 0000000180086d80 f i libucrtd:output.obj
 0001:00086010       ?type_case_n@?$output_processor@DV?$string_output_adapter@D@__crt_stdio_output@@V?$standard_base@DV?$string_output_adapter@D@__crt_stdio_output@@@2@@__crt_stdio_output@@AEAA_NXZ 0000000180087010 f i libucrtd:output.obj
 0001:000862a0       ?type_case_n@?$output_processor@_WV?$stream_output_adapter@_W@__crt_stdio_output@@V?$format_validation_base@_WV?$stream_output_adapter@_W@__crt_stdio_output@@@2@@__crt_stdio_output@@AEAA_NXZ 00000001800872a0 f i libucrtd:output.obj
 0001:00086530       ?type_case_n@?$output_processor@_WV?$stream_output_adapter@_W@__crt_stdio_output@@V?$positional_parameter_base@_WV?$stream_output_adapter@_W@__crt_stdio_output@@@2@@__crt_stdio_output@@AEAA_NXZ 0000000180087530 f i libucrtd:output.obj
 0001:000867c0       ?type_case_n@?$output_processor@_WV?$stream_output_adapter@_W@__crt_stdio_output@@V?$standard_base@_WV?$stream_output_adapter@_W@__crt_stdio_output@@@2@@__crt_stdio_output@@AEAA_NXZ 00000001800877c0 f i libucrtd:output.obj
 0001:00086a50       ?type_case_n@?$output_processor@_WV?$string_output_adapter@_W@__crt_stdio_output@@V?$format_validation_base@_WV?$string_output_adapter@_W@__crt_stdio_output@@@2@@__crt_stdio_output@@AEAA_NXZ 0000000180087a50 f i libucrtd:output.obj
 0001:00086ce0       ?type_case_n@?$output_processor@_WV?$string_output_adapter@_W@__crt_stdio_output@@V?$positional_parameter_base@_WV?$string_output_adapter@_W@__crt_stdio_output@@@2@@__crt_stdio_output@@AEAA_NXZ 0000000180087ce0 f i libucrtd:output.obj
 0001:00086f70       ?type_case_n@?$output_processor@_WV?$string_output_adapter@_W@__crt_stdio_output@@V?$standard_base@_WV?$string_output_adapter@_W@__crt_stdio_output@@@2@@__crt_stdio_output@@AEAA_NXZ 0000000180087f70 f i libucrtd:output.obj
 0001:00087200       ?type_case_o@?$output_processor@DV?$stream_output_adapter@D@__crt_stdio_output@@V?$format_validation_base@DV?$stream_output_adapter@D@__crt_stdio_output@@@2@@__crt_stdio_output@@AEAA_NXZ 0000000180088200 f i libucrtd:output.obj
 0001:00087240       ?type_case_o@?$output_processor@DV?$stream_output_adapter@D@__crt_stdio_output@@V?$positional_parameter_base@DV?$stream_output_adapter@D@__crt_stdio_output@@@2@@__crt_stdio_output@@AEAA_NXZ 0000000180088240 f i libucrtd:output.obj
 0001:00087280       ?type_case_o@?$output_processor@DV?$stream_output_adapter@D@__crt_stdio_output@@V?$standard_base@DV?$stream_output_adapter@D@__crt_stdio_output@@@2@@__crt_stdio_output@@AEAA_NXZ 0000000180088280 f i libucrtd:output.obj
 0001:000872c0       ?type_case_o@?$output_processor@DV?$string_output_adapter@D@__crt_stdio_output@@V?$format_validation_base@DV?$string_output_adapter@D@__crt_stdio_output@@@2@@__crt_stdio_output@@AEAA_NXZ 00000001800882c0 f i libucrtd:output.obj
 0001:00087300       ?type_case_o@?$output_processor@DV?$string_output_adapter@D@__crt_stdio_output@@V?$positional_parameter_base@DV?$string_output_adapter@D@__crt_stdio_output@@@2@@__crt_stdio_output@@AEAA_NXZ 0000000180088300 f i libucrtd:output.obj
 0001:00087340       ?type_case_o@?$output_processor@DV?$string_output_adapter@D@__crt_stdio_output@@V?$standard_base@DV?$string_output_adapter@D@__crt_stdio_output@@@2@@__crt_stdio_output@@AEAA_NXZ 0000000180088340 f i libucrtd:output.obj
 0001:00087380       ?type_case_o@?$output_processor@_WV?$stream_output_adapter@_W@__crt_stdio_output@@V?$format_validation_base@_WV?$stream_output_adapter@_W@__crt_stdio_output@@@2@@__crt_stdio_output@@AEAA_NXZ 0000000180088380 f i libucrtd:output.obj
 0001:000873c0       ?type_case_o@?$output_processor@_WV?$stream_output_adapter@_W@__crt_stdio_output@@V?$positional_parameter_base@_WV?$stream_output_adapter@_W@__crt_stdio_output@@@2@@__crt_stdio_output@@AEAA_NXZ 00000001800883c0 f i libucrtd:output.obj
 0001:00087400       ?type_case_o@?$output_processor@_WV?$stream_output_adapter@_W@__crt_stdio_output@@V?$standard_base@_WV?$stream_output_adapter@_W@__crt_stdio_output@@@2@@__crt_stdio_output@@AEAA_NXZ 0000000180088400 f i libucrtd:output.obj
 0001:00087440       ?type_case_o@?$output_processor@_WV?$string_output_adapter@_W@__crt_stdio_output@@V?$format_validation_base@_WV?$string_output_adapter@_W@__crt_stdio_output@@@2@@__crt_stdio_output@@AEAA_NXZ 0000000180088440 f i libucrtd:output.obj
 0001:00087480       ?type_case_o@?$output_processor@_WV?$string_output_adapter@_W@__crt_stdio_output@@V?$positional_parameter_base@_WV?$string_output_adapter@_W@__crt_stdio_output@@@2@@__crt_stdio_output@@AEAA_NXZ 0000000180088480 f i libucrtd:output.obj
 0001:000874c0       ?type_case_o@?$output_processor@_WV?$string_output_adapter@_W@__crt_stdio_output@@V?$standard_base@_WV?$string_output_adapter@_W@__crt_stdio_output@@@2@@__crt_stdio_output@@AEAA_NXZ 00000001800884c0 f i libucrtd:output.obj
 0001:00087500       ?type_case_p@?$output_processor@DV?$stream_output_adapter@D@__crt_stdio_output@@V?$format_validation_base@DV?$stream_output_adapter@D@__crt_stdio_output@@@2@@__crt_stdio_output@@AEAA_NXZ 0000000180088500 f i libucrtd:output.obj
 0001:00087540       ?type_case_p@?$output_processor@DV?$stream_output_adapter@D@__crt_stdio_output@@V?$positional_parameter_base@DV?$stream_output_adapter@D@__crt_stdio_output@@@2@@__crt_stdio_output@@AEAA_NXZ 0000000180088540 f i libucrtd:output.obj
 0001:00087580       ?type_case_p@?$output_processor@DV?$stream_output_adapter@D@__crt_stdio_output@@V?$standard_base@DV?$stream_output_adapter@D@__crt_stdio_output@@@2@@__crt_stdio_output@@AEAA_NXZ 0000000180088580 f i libucrtd:output.obj
 0001:000875c0       ?type_case_p@?$output_processor@DV?$string_output_adapter@D@__crt_stdio_output@@V?$format_validation_base@DV?$string_output_adapter@D@__crt_stdio_output@@@2@@__crt_stdio_output@@AEAA_NXZ 00000001800885c0 f i libucrtd:output.obj
 0001:00087600       ?type_case_p@?$output_processor@DV?$string_output_adapter@D@__crt_stdio_output@@V?$positional_parameter_base@DV?$string_output_adapter@D@__crt_stdio_output@@@2@@__crt_stdio_output@@AEAA_NXZ 0000000180088600 f i libucrtd:output.obj
 0001:00087640       ?type_case_p@?$output_processor@DV?$string_output_adapter@D@__crt_stdio_output@@V?$standard_base@DV?$string_output_adapter@D@__crt_stdio_output@@@2@@__crt_stdio_output@@AEAA_NXZ 0000000180088640 f i libucrtd:output.obj
 0001:00087680       ?type_case_p@?$output_processor@_WV?$stream_output_adapter@_W@__crt_stdio_output@@V?$format_validation_base@_WV?$stream_output_adapter@_W@__crt_stdio_output@@@2@@__crt_stdio_output@@AEAA_NXZ 0000000180088680 f i libucrtd:output.obj
 0001:000876c0       ?type_case_p@?$output_processor@_WV?$stream_output_adapter@_W@__crt_stdio_output@@V?$positional_parameter_base@_WV?$stream_output_adapter@_W@__crt_stdio_output@@@2@@__crt_stdio_output@@AEAA_NXZ 00000001800886c0 f i libucrtd:output.obj
 0001:00087700       ?type_case_p@?$output_processor@_WV?$stream_output_adapter@_W@__crt_stdio_output@@V?$standard_base@_WV?$stream_output_adapter@_W@__crt_stdio_output@@@2@@__crt_stdio_output@@AEAA_NXZ 0000000180088700 f i libucrtd:output.obj
 0001:00087740       ?type_case_p@?$output_processor@_WV?$string_output_adapter@_W@__crt_stdio_output@@V?$format_validation_base@_WV?$string_output_adapter@_W@__crt_stdio_output@@@2@@__crt_stdio_output@@AEAA_NXZ 0000000180088740 f i libucrtd:output.obj
 0001:00087780       ?type_case_p@?$output_processor@_WV?$string_output_adapter@_W@__crt_stdio_output@@V?$positional_parameter_base@_WV?$string_output_adapter@_W@__crt_stdio_output@@@2@@__crt_stdio_output@@AEAA_NXZ 0000000180088780 f i libucrtd:output.obj
 0001:000877c0       ?type_case_p@?$output_processor@_WV?$string_output_adapter@_W@__crt_stdio_output@@V?$standard_base@_WV?$string_output_adapter@_W@__crt_stdio_output@@@2@@__crt_stdio_output@@AEAA_NXZ 00000001800887c0 f i libucrtd:output.obj
 0001:00087800       ?type_case_s@?$output_processor@DV?$stream_output_adapter@D@__crt_stdio_output@@V?$format_validation_base@DV?$stream_output_adapter@D@__crt_stdio_output@@@2@@__crt_stdio_output@@AEAA_NXZ 0000000180088800 f i libucrtd:output.obj
 0001:00087920       ?type_case_s@?$output_processor@DV?$stream_output_adapter@D@__crt_stdio_output@@V?$positional_parameter_base@DV?$stream_output_adapter@D@__crt_stdio_output@@@2@@__crt_stdio_output@@AEAA_NXZ 0000000180088920 f i libucrtd:output.obj
 0001:00087a40       ?type_case_s@?$output_processor@DV?$stream_output_adapter@D@__crt_stdio_output@@V?$standard_base@DV?$stream_output_adapter@D@__crt_stdio_output@@@2@@__crt_stdio_output@@AEAA_NXZ 0000000180088a40 f i libucrtd:output.obj
 0001:00087b60       ?type_case_s@?$output_processor@DV?$string_output_adapter@D@__crt_stdio_output@@V?$format_validation_base@DV?$string_output_adapter@D@__crt_stdio_output@@@2@@__crt_stdio_output@@AEAA_NXZ 0000000180088b60 f i libucrtd:output.obj
 0001:00087c80       ?type_case_s@?$output_processor@DV?$string_output_adapter@D@__crt_stdio_output@@V?$positional_parameter_base@DV?$string_output_adapter@D@__crt_stdio_output@@@2@@__crt_stdio_output@@AEAA_NXZ 0000000180088c80 f i libucrtd:output.obj
 0001:00087da0       ?type_case_s@?$output_processor@DV?$string_output_adapter@D@__crt_stdio_output@@V?$standard_base@DV?$string_output_adapter@D@__crt_stdio_output@@@2@@__crt_stdio_output@@AEAA_NXZ 0000000180088da0 f i libucrtd:output.obj
 0001:00087ec0       ?type_case_s@?$output_processor@_WV?$stream_output_adapter@_W@__crt_stdio_output@@V?$format_validation_base@_WV?$stream_output_adapter@_W@__crt_stdio_output@@@2@@__crt_stdio_output@@AEAA_NXZ 0000000180088ec0 f i libucrtd:output.obj
 0001:00087fe0       ?type_case_s@?$output_processor@_WV?$stream_output_adapter@_W@__crt_stdio_output@@V?$positional_parameter_base@_WV?$stream_output_adapter@_W@__crt_stdio_output@@@2@@__crt_stdio_output@@AEAA_NXZ 0000000180088fe0 f i libucrtd:output.obj
 0001:00088100       ?type_case_s@?$output_processor@_WV?$stream_output_adapter@_W@__crt_stdio_output@@V?$standard_base@_WV?$stream_output_adapter@_W@__crt_stdio_output@@@2@@__crt_stdio_output@@AEAA_NXZ 0000000180089100 f i libucrtd:output.obj
 0001:00088220       ?type_case_s@?$output_processor@_WV?$string_output_adapter@_W@__crt_stdio_output@@V?$format_validation_base@_WV?$string_output_adapter@_W@__crt_stdio_output@@@2@@__crt_stdio_output@@AEAA_NXZ 0000000180089220 f i libucrtd:output.obj
 0001:00088340       ?type_case_s@?$output_processor@_WV?$string_output_adapter@_W@__crt_stdio_output@@V?$positional_parameter_base@_WV?$string_output_adapter@_W@__crt_stdio_output@@@2@@__crt_stdio_output@@AEAA_NXZ 0000000180089340 f i libucrtd:output.obj
 0001:00088460       ?type_case_s@?$output_processor@_WV?$string_output_adapter@_W@__crt_stdio_output@@V?$standard_base@_WV?$string_output_adapter@_W@__crt_stdio_output@@@2@@__crt_stdio_output@@AEAA_NXZ 0000000180089460 f i libucrtd:output.obj
 0001:00088580       ?type_case_s_compute_narrow_string_length@?$output_processor@DV?$stream_output_adapter@D@__crt_stdio_output@@V?$format_validation_base@DV?$stream_output_adapter@D@__crt_stdio_output@@@2@@__crt_stdio_output@@AEAAHHD@Z 0000000180089580 f i libucrtd:output.obj
 0001:000885b0       ?type_case_s_compute_narrow_string_length@?$output_processor@DV?$stream_output_adapter@D@__crt_stdio_output@@V?$positional_parameter_base@DV?$stream_output_adapter@D@__crt_stdio_output@@@2@@__crt_stdio_output@@AEAAHHD@Z 00000001800895b0 f i libucrtd:output.obj
 0001:000885e0       ?type_case_s_compute_narrow_string_length@?$output_processor@DV?$stream_output_adapter@D@__crt_stdio_output@@V?$standard_base@DV?$stream_output_adapter@D@__crt_stdio_output@@@2@@__crt_stdio_output@@AEAAHHD@Z 00000001800895e0 f i libucrtd:output.obj
 0001:00088610       ?type_case_s_compute_narrow_string_length@?$output_processor@DV?$string_output_adapter@D@__crt_stdio_output@@V?$format_validation_base@DV?$string_output_adapter@D@__crt_stdio_output@@@2@@__crt_stdio_output@@AEAAHHD@Z 0000000180089610 f i libucrtd:output.obj
 0001:00088640       ?type_case_s_compute_narrow_string_length@?$output_processor@DV?$string_output_adapter@D@__crt_stdio_output@@V?$positional_parameter_base@DV?$string_output_adapter@D@__crt_stdio_output@@@2@@__crt_stdio_output@@AEAAHHD@Z 0000000180089640 f i libucrtd:output.obj
 0001:00088670       ?type_case_s_compute_narrow_string_length@?$output_processor@DV?$string_output_adapter@D@__crt_stdio_output@@V?$standard_base@DV?$string_output_adapter@D@__crt_stdio_output@@@2@@__crt_stdio_output@@AEAAHHD@Z 0000000180089670 f i libucrtd:output.obj
 0001:000886a0       ?type_case_s_compute_narrow_string_length@?$output_processor@_WV?$stream_output_adapter@_W@__crt_stdio_output@@V?$format_validation_base@_WV?$stream_output_adapter@_W@__crt_stdio_output@@@2@@__crt_stdio_output@@AEAAHH_W@Z 00000001800896a0 f i libucrtd:output.obj
 0001:00088740       ?type_case_s_compute_narrow_string_length@?$output_processor@_WV?$stream_output_adapter@_W@__crt_stdio_output@@V?$positional_parameter_base@_WV?$stream_output_adapter@_W@__crt_stdio_output@@@2@@__crt_stdio_output@@AEAAHH_W@Z 0000000180089740 f i libucrtd:output.obj
 0001:000887e0       ?type_case_s_compute_narrow_string_length@?$output_processor@_WV?$stream_output_adapter@_W@__crt_stdio_output@@V?$standard_base@_WV?$stream_output_adapter@_W@__crt_stdio_output@@@2@@__crt_stdio_output@@AEAAHH_W@Z 00000001800897e0 f i libucrtd:output.obj
 0001:00088880       ?type_case_s_compute_narrow_string_length@?$output_processor@_WV?$string_output_adapter@_W@__crt_stdio_output@@V?$format_validation_base@_WV?$string_output_adapter@_W@__crt_stdio_output@@@2@@__crt_stdio_output@@AEAAHH_W@Z 0000000180089880 f i libucrtd:output.obj
 0001:00088920       ?type_case_s_compute_narrow_string_length@?$output_processor@_WV?$string_output_adapter@_W@__crt_stdio_output@@V?$positional_parameter_base@_WV?$string_output_adapter@_W@__crt_stdio_output@@@2@@__crt_stdio_output@@AEAAHH_W@Z 0000000180089920 f i libucrtd:output.obj
 0001:000889c0       ?type_case_s_compute_narrow_string_length@?$output_processor@_WV?$string_output_adapter@_W@__crt_stdio_output@@V?$standard_base@_WV?$string_output_adapter@_W@__crt_stdio_output@@@2@@__crt_stdio_output@@AEAAHH_W@Z 00000001800899c0 f i libucrtd:output.obj
 0001:00088a60       ?type_case_u@?$output_processor@DV?$stream_output_adapter@D@__crt_stdio_output@@V?$format_validation_base@DV?$stream_output_adapter@D@__crt_stdio_output@@@2@@__crt_stdio_output@@AEAA_NXZ 0000000180089a60 f i libucrtd:output.obj
 0001:00088a80       ?type_case_u@?$output_processor@DV?$stream_output_adapter@D@__crt_stdio_output@@V?$positional_parameter_base@DV?$stream_output_adapter@D@__crt_stdio_output@@@2@@__crt_stdio_output@@AEAA_NXZ 0000000180089a80 f i libucrtd:output.obj
 0001:00088aa0       ?type_case_u@?$output_processor@DV?$stream_output_adapter@D@__crt_stdio_output@@V?$standard_base@DV?$stream_output_adapter@D@__crt_stdio_output@@@2@@__crt_stdio_output@@AEAA_NXZ 0000000180089aa0 f i libucrtd:output.obj
 0001:00088ac0       ?type_case_u@?$output_processor@DV?$string_output_adapter@D@__crt_stdio_output@@V?$format_validation_base@DV?$string_output_adapter@D@__crt_stdio_output@@@2@@__crt_stdio_output@@AEAA_NXZ 0000000180089ac0 f i libucrtd:output.obj
 0001:00088ae0       ?type_case_u@?$output_processor@DV?$string_output_adapter@D@__crt_stdio_output@@V?$positional_parameter_base@DV?$string_output_adapter@D@__crt_stdio_output@@@2@@__crt_stdio_output@@AEAA_NXZ 0000000180089ae0 f i libucrtd:output.obj
 0001:00088b00       ?type_case_u@?$output_processor@DV?$string_output_adapter@D@__crt_stdio_output@@V?$standard_base@DV?$string_output_adapter@D@__crt_stdio_output@@@2@@__crt_stdio_output@@AEAA_NXZ 0000000180089b00 f i libucrtd:output.obj
 0001:00088b20       ?type_case_u@?$output_processor@_WV?$stream_output_adapter@_W@__crt_stdio_output@@V?$format_validation_base@_WV?$stream_output_adapter@_W@__crt_stdio_output@@@2@@__crt_stdio_output@@AEAA_NXZ 0000000180089b20 f i libucrtd:output.obj
 0001:00088b40       ?type_case_u@?$output_processor@_WV?$stream_output_adapter@_W@__crt_stdio_output@@V?$positional_parameter_base@_WV?$stream_output_adapter@_W@__crt_stdio_output@@@2@@__crt_stdio_output@@AEAA_NXZ 0000000180089b40 f i libucrtd:output.obj
 0001:00088b60       ?type_case_u@?$output_processor@_WV?$stream_output_adapter@_W@__crt_stdio_output@@V?$standard_base@_WV?$stream_output_adapter@_W@__crt_stdio_output@@@2@@__crt_stdio_output@@AEAA_NXZ 0000000180089b60 f i libucrtd:output.obj
 0001:00088b80       ?type_case_u@?$output_processor@_WV?$string_output_adapter@_W@__crt_stdio_output@@V?$format_validation_base@_WV?$string_output_adapter@_W@__crt_stdio_output@@@2@@__crt_stdio_output@@AEAA_NXZ 0000000180089b80 f i libucrtd:output.obj
 0001:00088ba0       ?type_case_u@?$output_processor@_WV?$string_output_adapter@_W@__crt_stdio_output@@V?$positional_parameter_base@_WV?$string_output_adapter@_W@__crt_stdio_output@@@2@@__crt_stdio_output@@AEAA_NXZ 0000000180089ba0 f i libucrtd:output.obj
 0001:00088bc0       ?type_case_u@?$output_processor@_WV?$string_output_adapter@_W@__crt_stdio_output@@V?$standard_base@_WV?$string_output_adapter@_W@__crt_stdio_output@@@2@@__crt_stdio_output@@AEAA_NXZ 0000000180089bc0 f i libucrtd:output.obj
 0001:00088be0       ?type_case_x@?$output_processor@DV?$stream_output_adapter@D@__crt_stdio_output@@V?$format_validation_base@DV?$stream_output_adapter@D@__crt_stdio_output@@@2@@__crt_stdio_output@@AEAA_NXZ 0000000180089be0 f i libucrtd:output.obj
 0001:00088c00       ?type_case_x@?$output_processor@DV?$stream_output_adapter@D@__crt_stdio_output@@V?$positional_parameter_base@DV?$stream_output_adapter@D@__crt_stdio_output@@@2@@__crt_stdio_output@@AEAA_NXZ 0000000180089c00 f i libucrtd:output.obj
 0001:00088c20       ?type_case_x@?$output_processor@DV?$stream_output_adapter@D@__crt_stdio_output@@V?$standard_base@DV?$stream_output_adapter@D@__crt_stdio_output@@@2@@__crt_stdio_output@@AEAA_NXZ 0000000180089c20 f i libucrtd:output.obj
 0001:00088c40       ?type_case_x@?$output_processor@DV?$string_output_adapter@D@__crt_stdio_output@@V?$format_validation_base@DV?$string_output_adapter@D@__crt_stdio_output@@@2@@__crt_stdio_output@@AEAA_NXZ 0000000180089c40 f i libucrtd:output.obj
 0001:00088c60       ?type_case_x@?$output_processor@DV?$string_output_adapter@D@__crt_stdio_output@@V?$positional_parameter_base@DV?$string_output_adapter@D@__crt_stdio_output@@@2@@__crt_stdio_output@@AEAA_NXZ 0000000180089c60 f i libucrtd:output.obj
 0001:00088c80       ?type_case_x@?$output_processor@DV?$string_output_adapter@D@__crt_stdio_output@@V?$standard_base@DV?$string_output_adapter@D@__crt_stdio_output@@@2@@__crt_stdio_output@@AEAA_NXZ 0000000180089c80 f i libucrtd:output.obj
 0001:00088ca0       ?type_case_x@?$output_processor@_WV?$stream_output_adapter@_W@__crt_stdio_output@@V?$format_validation_base@_WV?$stream_output_adapter@_W@__crt_stdio_output@@@2@@__crt_stdio_output@@AEAA_NXZ 0000000180089ca0 f i libucrtd:output.obj
 0001:00088cc0       ?type_case_x@?$output_processor@_WV?$stream_output_adapter@_W@__crt_stdio_output@@V?$positional_parameter_base@_WV?$stream_output_adapter@_W@__crt_stdio_output@@@2@@__crt_stdio_output@@AEAA_NXZ 0000000180089cc0 f i libucrtd:output.obj
 0001:00088ce0       ?type_case_x@?$output_processor@_WV?$stream_output_adapter@_W@__crt_stdio_output@@V?$standard_base@_WV?$stream_output_adapter@_W@__crt_stdio_output@@@2@@__crt_stdio_output@@AEAA_NXZ 0000000180089ce0 f i libucrtd:output.obj
 0001:00088d00       ?type_case_x@?$output_processor@_WV?$string_output_adapter@_W@__crt_stdio_output@@V?$format_validation_base@_WV?$string_output_adapter@_W@__crt_stdio_output@@@2@@__crt_stdio_output@@AEAA_NXZ 0000000180089d00 f i libucrtd:output.obj
 0001:00088d20       ?type_case_x@?$output_processor@_WV?$string_output_adapter@_W@__crt_stdio_output@@V?$positional_parameter_base@_WV?$string_output_adapter@_W@__crt_stdio_output@@@2@@__crt_stdio_output@@AEAA_NXZ 0000000180089d20 f i libucrtd:output.obj
 0001:00088d40       ?type_case_x@?$output_processor@_WV?$string_output_adapter@_W@__crt_stdio_output@@V?$standard_base@_WV?$string_output_adapter@_W@__crt_stdio_output@@@2@@__crt_stdio_output@@AEAA_NXZ 0000000180089d40 f i libucrtd:output.obj
 0001:00088d60       ?unget@?$c_string_character_source@D@__crt_strtox@@QEAAXD@Z 0000000180089d60 f i libucrtd:output.obj
 0001:00088e40       ?unget@?$c_string_character_source@_W@__crt_strtox@@QEAAX_W@Z 0000000180089e40 f i libucrtd:output.obj
 0001:00088f20       ?unsafe_value@?$cached@H@__crt_cached_ptd_host@@QEAAHXZ 0000000180089f20 f i libucrtd:output.obj
 0001:00088f30       ?unsafe_value@?$cached@K@__crt_cached_ptd_host@@QEAAKXZ 0000000180089f30 f i libucrtd:output.obj
 0001:00088f40       ?unset_flag@?$output_processor@DV?$stream_output_adapter@D@__crt_stdio_output@@V?$format_validation_base@DV?$stream_output_adapter@D@__crt_stdio_output@@@2@@__crt_stdio_output@@AEAAXI@Z 0000000180089f40 f i libucrtd:output.obj
 0001:00088f70       ?unset_flag@?$output_processor@DV?$stream_output_adapter@D@__crt_stdio_output@@V?$positional_parameter_base@DV?$stream_output_adapter@D@__crt_stdio_output@@@2@@__crt_stdio_output@@AEAAXI@Z 0000000180089f70 f i libucrtd:output.obj
 0001:00088fa0       ?unset_flag@?$output_processor@DV?$stream_output_adapter@D@__crt_stdio_output@@V?$standard_base@DV?$stream_output_adapter@D@__crt_stdio_output@@@2@@__crt_stdio_output@@AEAAXI@Z 0000000180089fa0 f i libucrtd:output.obj
 0001:00088fd0       ?unset_flag@?$output_processor@DV?$string_output_adapter@D@__crt_stdio_output@@V?$format_validation_base@DV?$string_output_adapter@D@__crt_stdio_output@@@2@@__crt_stdio_output@@AEAAXI@Z 0000000180089fd0 f i libucrtd:output.obj
 0001:00089000       ?unset_flag@?$output_processor@DV?$string_output_adapter@D@__crt_stdio_output@@V?$positional_parameter_base@DV?$string_output_adapter@D@__crt_stdio_output@@@2@@__crt_stdio_output@@AEAAXI@Z 000000018008a000 f i libucrtd:output.obj
 0001:00089030       ?unset_flag@?$output_processor@DV?$string_output_adapter@D@__crt_stdio_output@@V?$standard_base@DV?$string_output_adapter@D@__crt_stdio_output@@@2@@__crt_stdio_output@@AEAAXI@Z 000000018008a030 f i libucrtd:output.obj
 0001:00089060       ?unset_flag@?$output_processor@_WV?$stream_output_adapter@_W@__crt_stdio_output@@V?$format_validation_base@_WV?$stream_output_adapter@_W@__crt_stdio_output@@@2@@__crt_stdio_output@@AEAAXI@Z 000000018008a060 f i libucrtd:output.obj
 0001:00089090       ?unset_flag@?$output_processor@_WV?$stream_output_adapter@_W@__crt_stdio_output@@V?$positional_parameter_base@_WV?$stream_output_adapter@_W@__crt_stdio_output@@@2@@__crt_stdio_output@@AEAAXI@Z 000000018008a090 f i libucrtd:output.obj
 0001:000890c0       ?unset_flag@?$output_processor@_WV?$stream_output_adapter@_W@__crt_stdio_output@@V?$standard_base@_WV?$stream_output_adapter@_W@__crt_stdio_output@@@2@@__crt_stdio_output@@AEAAXI@Z 000000018008a0c0 f i libucrtd:output.obj
 0001:000890f0       ?unset_flag@?$output_processor@_WV?$string_output_adapter@_W@__crt_stdio_output@@V?$format_validation_base@_WV?$string_output_adapter@_W@__crt_stdio_output@@@2@@__crt_stdio_output@@AEAAXI@Z 000000018008a0f0 f i libucrtd:output.obj
 0001:00089120       ?unset_flag@?$output_processor@_WV?$string_output_adapter@_W@__crt_stdio_output@@V?$positional_parameter_base@_WV?$string_output_adapter@_W@__crt_stdio_output@@@2@@__crt_stdio_output@@AEAAXI@Z 000000018008a120 f i libucrtd:output.obj
 0001:00089150       ?unset_flag@?$output_processor@_WV?$string_output_adapter@_W@__crt_stdio_output@@V?$standard_base@_WV?$string_output_adapter@_W@__crt_stdio_output@@@2@@__crt_stdio_output@@AEAAXI@Z 000000018008a150 f i libucrtd:output.obj
 0001:00089180       ?update_field_width@?$positional_parameter_base@DV?$stream_output_adapter@D@__crt_stdio_output@@@__crt_stdio_output@@IEAA_NXZ 000000018008a180 f i libucrtd:output.obj
 0001:00089380       ?update_field_width@?$positional_parameter_base@DV?$string_output_adapter@D@__crt_stdio_output@@@__crt_stdio_output@@IEAA_NXZ 000000018008a380 f i libucrtd:output.obj
 0001:00089580       ?update_field_width@?$positional_parameter_base@_WV?$stream_output_adapter@_W@__crt_stdio_output@@@__crt_stdio_output@@IEAA_NXZ 000000018008a580 f i libucrtd:output.obj
 0001:00089780       ?update_field_width@?$positional_parameter_base@_WV?$string_output_adapter@_W@__crt_stdio_output@@@__crt_stdio_output@@IEAA_NXZ 000000018008a780 f i libucrtd:output.obj
 0001:00089980       ?update_field_width@?$standard_base@DV?$stream_output_adapter@D@__crt_stdio_output@@@__crt_stdio_output@@IEAA_NXZ 000000018008a980 f i libucrtd:output.obj
 0001:000899b0       ?update_field_width@?$standard_base@DV?$string_output_adapter@D@__crt_stdio_output@@@__crt_stdio_output@@IEAA_NXZ 000000018008a9b0 f i libucrtd:output.obj
 0001:000899e0       ?update_field_width@?$standard_base@_WV?$stream_output_adapter@_W@__crt_stdio_output@@@__crt_stdio_output@@IEAA_NXZ 000000018008a9e0 f i libucrtd:output.obj
 0001:00089a10       ?update_field_width@?$standard_base@_WV?$string_output_adapter@_W@__crt_stdio_output@@@__crt_stdio_output@@IEAA_NXZ 000000018008aa10 f i libucrtd:output.obj
 0001:00089a40       ?update_locale@__crt_cached_ptd_host@@AEAAXXZ 000000018008aa40 f i libucrtd:output.obj
 0001:00089a70       ?update_locale_slow@__crt_cached_ptd_host@@AEAAXXZ 000000018008aa70 f i libucrtd:output.obj
 0001:00089b20       ?update_precision@?$positional_parameter_base@DV?$stream_output_adapter@D@__crt_stdio_output@@@__crt_stdio_output@@IEAA_NXZ 000000018008ab20 f i libucrtd:output.obj
 0001:00089d20       ?update_precision@?$positional_parameter_base@DV?$string_output_adapter@D@__crt_stdio_output@@@__crt_stdio_output@@IEAA_NXZ 000000018008ad20 f i libucrtd:output.obj
 0001:00089f20       ?update_precision@?$positional_parameter_base@_WV?$stream_output_adapter@_W@__crt_stdio_output@@@__crt_stdio_output@@IEAA_NXZ 000000018008af20 f i libucrtd:output.obj
 0001:0008a120       ?update_precision@?$positional_parameter_base@_WV?$string_output_adapter@_W@__crt_stdio_output@@@__crt_stdio_output@@IEAA_NXZ 000000018008b120 f i libucrtd:output.obj
 0001:0008a320       ?update_precision@?$standard_base@DV?$stream_output_adapter@D@__crt_stdio_output@@@__crt_stdio_output@@IEAA_NXZ 000000018008b320 f i libucrtd:output.obj
 0001:0008a350       ?update_precision@?$standard_base@DV?$string_output_adapter@D@__crt_stdio_output@@@__crt_stdio_output@@IEAA_NXZ 000000018008b350 f i libucrtd:output.obj
 0001:0008a380       ?update_precision@?$standard_base@_WV?$stream_output_adapter@_W@__crt_stdio_output@@@__crt_stdio_output@@IEAA_NXZ 000000018008b380 f i libucrtd:output.obj
 0001:0008a3b0       ?update_precision@?$standard_base@_WV?$string_output_adapter@_W@__crt_stdio_output@@@__crt_stdio_output@@IEAA_NXZ 000000018008b3b0 f i libucrtd:output.obj
 0001:0008a3e0       ?valid@?$cached@H@__crt_cached_ptd_host@@QEBA_NXZ 000000018008b3e0 f i libucrtd:output.obj
 0001:0008a3f0       ?valid@?$cached@K@__crt_cached_ptd_host@@QEBA_NXZ 000000018008b3f0 f i libucrtd:output.obj
 0001:0008a400       ?valid@__crt_stdio_stream@@QEBA_NXZ 000000018008b400 f i libucrtd:output.obj
 0001:0008a430       ?validate@?$c_string_character_source@D@__crt_strtox@@QEBA_NXZ 000000018008b430 f i libucrtd:output.obj
 0001:0008a4f0       ?validate@?$c_string_character_source@_W@__crt_strtox@@QEBA_NXZ 000000018008b4f0 f i libucrtd:output.obj
 0001:0008a5b0       ?validate@?$stream_output_adapter@D@__crt_stdio_output@@QEBA_NAEAV__crt_cached_ptd_host@@@Z 000000018008b5b0 f i libucrtd:output.obj
 0001:0008a6b0       ?validate@?$stream_output_adapter@_W@__crt_stdio_output@@QEBA_NAEAV__crt_cached_ptd_host@@@Z 000000018008b6b0 f i libucrtd:output.obj
 0001:0008a7b0       ?validate@?$string_output_adapter@D@__crt_stdio_output@@QEBA_NAEAV__crt_cached_ptd_host@@@Z 000000018008b7b0 f i libucrtd:output.obj
 0001:0008a890       ?validate@?$string_output_adapter@_W@__crt_stdio_output@@QEBA_NAEAV__crt_cached_ptd_host@@@Z 000000018008b890 f i libucrtd:output.obj
 0001:0008a970       ?validate_and_store_parameter_data@?$positional_parameter_base@DV?$stream_output_adapter@D@__crt_stdio_output@@@__crt_stdio_output@@AEAA_NAEAUparameter_data@12@W4parameter_type@12@DW4length_modifier@2@@Z 000000018008b970 f i libucrtd:output.obj
 0001:0008aab0       ?validate_and_store_parameter_data@?$positional_parameter_base@DV?$string_output_adapter@D@__crt_stdio_output@@@__crt_stdio_output@@AEAA_NAEAUparameter_data@12@W4parameter_type@12@DW4length_modifier@2@@Z 000000018008bab0 f i libucrtd:output.obj
 0001:0008abf0       ?validate_and_store_parameter_data@?$positional_parameter_base@_WV?$stream_output_adapter@_W@__crt_stdio_output@@@__crt_stdio_output@@AEAA_NAEAUparameter_data@12@W4parameter_type@12@_WW4length_modifier@2@@Z 000000018008bbf0 f i libucrtd:output.obj
 0001:0008ad30       ?validate_and_store_parameter_data@?$positional_parameter_base@_WV?$string_output_adapter@_W@__crt_stdio_output@@@__crt_stdio_output@@AEAA_NAEAUparameter_data@12@W4parameter_type@12@_WW4length_modifier@2@@Z 000000018008bd30 f i libucrtd:output.obj
 0001:0008ae70       ?validate_and_update_state_at_beginning_of_format_character@?$positional_parameter_base@DV?$stream_output_adapter@D@__crt_stdio_output@@@__crt_stdio_output@@IEAA_NXZ 000000018008be70 f i libucrtd:output.obj
 0001:0008b110       ?validate_and_update_state_at_beginning_of_format_character@?$positional_parameter_base@DV?$string_output_adapter@D@__crt_stdio_output@@@__crt_stdio_output@@IEAA_NXZ 000000018008c110 f i libucrtd:output.obj
 0001:0008b3b0       ?validate_and_update_state_at_beginning_of_format_character@?$positional_parameter_base@_WV?$stream_output_adapter@_W@__crt_stdio_output@@@__crt_stdio_output@@IEAA_NXZ 000000018008c3b0 f i libucrtd:output.obj
 0001:0008b650       ?validate_and_update_state_at_beginning_of_format_character@?$positional_parameter_base@_WV?$string_output_adapter@_W@__crt_stdio_output@@@__crt_stdio_output@@IEAA_NXZ 000000018008c650 f i libucrtd:output.obj
 0001:0008b8f0       ?validate_and_update_state_at_beginning_of_format_character@?$standard_base@DV?$stream_output_adapter@D@__crt_stdio_output@@@__crt_stdio_output@@IEAA_NXZ 000000018008c8f0 f i libucrtd:output.obj
 0001:0008b900       ?validate_and_update_state_at_beginning_of_format_character@?$standard_base@DV?$string_output_adapter@D@__crt_stdio_output@@@__crt_stdio_output@@IEAA_NXZ 000000018008c900 f i libucrtd:output.obj
 0001:0008b910       ?validate_and_update_state_at_beginning_of_format_character@?$standard_base@_WV?$stream_output_adapter@_W@__crt_stdio_output@@@__crt_stdio_output@@IEAA_NXZ 000000018008c910 f i libucrtd:output.obj
 0001:0008b920       ?validate_and_update_state_at_beginning_of_format_character@?$standard_base@_WV?$string_output_adapter@_W@__crt_stdio_output@@@__crt_stdio_output@@IEAA_NXZ 000000018008c920 f i libucrtd:output.obj
 0001:0008b930       ?validate_and_update_state_at_end_of_format_string@?$format_validation_base@DV?$stream_output_adapter@D@__crt_stdio_output@@@__crt_stdio_output@@IEAA_NXZ 000000018008c930 f i libucrtd:output.obj
 0001:0008ba20       ?validate_and_update_state_at_end_of_format_string@?$format_validation_base@DV?$string_output_adapter@D@__crt_stdio_output@@@__crt_stdio_output@@IEAA_NXZ 000000018008ca20 f i libucrtd:output.obj
 0001:0008bb10       ?validate_and_update_state_at_end_of_format_string@?$format_validation_base@_WV?$stream_output_adapter@_W@__crt_stdio_output@@@__crt_stdio_output@@IEAA_NXZ 000000018008cb10 f i libucrtd:output.obj
 0001:0008bc00       ?validate_and_update_state_at_end_of_format_string@?$format_validation_base@_WV?$string_output_adapter@_W@__crt_stdio_output@@@__crt_stdio_output@@IEAA_NXZ 000000018008cc00 f i libucrtd:output.obj
 0001:0008bcf0       ?validate_and_update_state_at_end_of_format_string@?$positional_parameter_base@DV?$stream_output_adapter@D@__crt_stdio_output@@@__crt_stdio_output@@IEAA_NXZ 000000018008ccf0 f i libucrtd:output.obj
 0001:0008bf20       ?validate_and_update_state_at_end_of_format_string@?$positional_parameter_base@DV?$string_output_adapter@D@__crt_stdio_output@@@__crt_stdio_output@@IEAA_NXZ 000000018008cf20 f i libucrtd:output.obj
 0001:0008c150       ?validate_and_update_state_at_end_of_format_string@?$positional_parameter_base@_WV?$stream_output_adapter@_W@__crt_stdio_output@@@__crt_stdio_output@@IEAA_NXZ 000000018008d150 f i libucrtd:output.obj
 0001:0008c380       ?validate_and_update_state_at_end_of_format_string@?$positional_parameter_base@_WV?$string_output_adapter@_W@__crt_stdio_output@@@__crt_stdio_output@@IEAA_NXZ 000000018008d380 f i libucrtd:output.obj
 0001:0008c5b0       ?validate_and_update_state_at_end_of_format_string@?$standard_base@DV?$stream_output_adapter@D@__crt_stdio_output@@@__crt_stdio_output@@IEBA_NXZ 000000018008d5b0 f i libucrtd:output.obj
 0001:0008c5c0       ?validate_and_update_state_at_end_of_format_string@?$standard_base@DV?$string_output_adapter@D@__crt_stdio_output@@@__crt_stdio_output@@IEBA_NXZ 000000018008d5c0 f i libucrtd:output.obj
 0001:0008c5d0       ?validate_and_update_state_at_end_of_format_string@?$standard_base@_WV?$stream_output_adapter@_W@__crt_stdio_output@@@__crt_stdio_output@@IEBA_NXZ 000000018008d5d0 f i libucrtd:output.obj
 0001:0008c5e0       ?validate_and_update_state_at_end_of_format_string@?$standard_base@_WV?$string_output_adapter@_W@__crt_stdio_output@@@__crt_stdio_output@@IEBA_NXZ 000000018008d5e0 f i libucrtd:output.obj
 0001:0008c5f0       ?validate_state_for_type_case_a@?$positional_parameter_base@DV?$stream_output_adapter@D@__crt_stdio_output@@@__crt_stdio_output@@IEAA_NXZ 000000018008d5f0 f i libucrtd:output.obj
 0001:0008c750       ?validate_state_for_type_case_a@?$positional_parameter_base@DV?$string_output_adapter@D@__crt_stdio_output@@@__crt_stdio_output@@IEAA_NXZ 000000018008d750 f i libucrtd:output.obj
 0001:0008c8b0       ?validate_state_for_type_case_a@?$positional_parameter_base@_WV?$stream_output_adapter@_W@__crt_stdio_output@@@__crt_stdio_output@@IEAA_NXZ 000000018008d8b0 f i libucrtd:output.obj
 0001:0008ca10       ?validate_state_for_type_case_a@?$positional_parameter_base@_WV?$string_output_adapter@_W@__crt_stdio_output@@@__crt_stdio_output@@IEAA_NXZ 000000018008da10 f i libucrtd:output.obj
 0001:0008cb70       ?validate_state_for_type_case_a@?$standard_base@DV?$stream_output_adapter@D@__crt_stdio_output@@@__crt_stdio_output@@IEBA_NXZ 000000018008db70 f i libucrtd:output.obj
 0001:0008cb80       ?validate_state_for_type_case_a@?$standard_base@DV?$string_output_adapter@D@__crt_stdio_output@@@__crt_stdio_output@@IEBA_NXZ 000000018008db80 f i libucrtd:output.obj
 0001:0008cb90       ?validate_state_for_type_case_a@?$standard_base@_WV?$stream_output_adapter@_W@__crt_stdio_output@@@__crt_stdio_output@@IEBA_NXZ 000000018008db90 f i libucrtd:output.obj
 0001:0008cba0       ?validate_state_for_type_case_a@?$standard_base@_WV?$string_output_adapter@_W@__crt_stdio_output@@@__crt_stdio_output@@IEBA_NXZ 000000018008dba0 f i libucrtd:output.obj
 0001:0008cbb0       ?validate_stream_is_ansi_if_required@?$__acrt_stdio_char_traits@D@@SA_NQEAU_iobuf@@@Z 000000018008dbb0 f i libucrtd:output.obj
 0001:0008cd40       ?validate_stream_is_ansi_if_required@?$__acrt_stdio_char_traits@_W@@SA_NQEAU_iobuf@@@Z 000000018008dd40 f i libucrtd:output.obj
 0001:0008cd50       ?wide_character_to_digit@__crt_strtox@@YAH_W@Z 000000018008dd50 f i libucrtd:output.obj
 0001:0008d0c0       ?wide_null_string@?$output_processor@DV?$stream_output_adapter@D@__crt_stdio_output@@V?$format_validation_base@DV?$stream_output_adapter@D@__crt_stdio_output@@@2@@__crt_stdio_output@@CAPEA_WXZ 000000018008e0c0 f i libucrtd:output.obj
 0001:0008d0d0       ?wide_null_string@?$output_processor@DV?$stream_output_adapter@D@__crt_stdio_output@@V?$positional_parameter_base@DV?$stream_output_adapter@D@__crt_stdio_output@@@2@@__crt_stdio_output@@CAPEA_WXZ 000000018008e0d0 f i libucrtd:output.obj
 0001:0008d0e0       ?wide_null_string@?$output_processor@DV?$stream_output_adapter@D@__crt_stdio_output@@V?$standard_base@DV?$stream_output_adapter@D@__crt_stdio_output@@@2@@__crt_stdio_output@@CAPEA_WXZ 000000018008e0e0 f i libucrtd:output.obj
 0001:0008d0f0       ?wide_null_string@?$output_processor@DV?$string_output_adapter@D@__crt_stdio_output@@V?$format_validation_base@DV?$string_output_adapter@D@__crt_stdio_output@@@2@@__crt_stdio_output@@CAPEA_WXZ 000000018008e0f0 f i libucrtd:output.obj
 0001:0008d100       ?wide_null_string@?$output_processor@DV?$string_output_adapter@D@__crt_stdio_output@@V?$positional_parameter_base@DV?$string_output_adapter@D@__crt_stdio_output@@@2@@__crt_stdio_output@@CAPEA_WXZ 000000018008e100 f i libucrtd:output.obj
 0001:0008d110       ?wide_null_string@?$output_processor@DV?$string_output_adapter@D@__crt_stdio_output@@V?$standard_base@DV?$string_output_adapter@D@__crt_stdio_output@@@2@@__crt_stdio_output@@CAPEA_WXZ 000000018008e110 f i libucrtd:output.obj
 0001:0008d120       ?wide_null_string@?$output_processor@_WV?$stream_output_adapter@_W@__crt_stdio_output@@V?$format_validation_base@_WV?$stream_output_adapter@_W@__crt_stdio_output@@@2@@__crt_stdio_output@@CAPEA_WXZ 000000018008e120 f i libucrtd:output.obj
 0001:0008d130       ?wide_null_string@?$output_processor@_WV?$stream_output_adapter@_W@__crt_stdio_output@@V?$positional_parameter_base@_WV?$stream_output_adapter@_W@__crt_stdio_output@@@2@@__crt_stdio_output@@CAPEA_WXZ 000000018008e130 f i libucrtd:output.obj
 0001:0008d140       ?wide_null_string@?$output_processor@_WV?$stream_output_adapter@_W@__crt_stdio_output@@V?$standard_base@_WV?$stream_output_adapter@_W@__crt_stdio_output@@@2@@__crt_stdio_output@@CAPEA_WXZ 000000018008e140 f i libucrtd:output.obj
 0001:0008d150       ?wide_null_string@?$output_processor@_WV?$string_output_adapter@_W@__crt_stdio_output@@V?$format_validation_base@_WV?$string_output_adapter@_W@__crt_stdio_output@@@2@@__crt_stdio_output@@CAPEA_WXZ 000000018008e150 f i libucrtd:output.obj
 0001:0008d160       ?wide_null_string@?$output_processor@_WV?$string_output_adapter@_W@__crt_stdio_output@@V?$positional_parameter_base@_WV?$string_output_adapter@_W@__crt_stdio_output@@@2@@__crt_stdio_output@@CAPEA_WXZ 000000018008e160 f i libucrtd:output.obj
 0001:0008d170       ?wide_null_string@?$output_processor@_WV?$string_output_adapter@_W@__crt_stdio_output@@V?$standard_base@_WV?$string_output_adapter@_W@__crt_stdio_output@@@2@@__crt_stdio_output@@CAPEA_WXZ 000000018008e170 f i libucrtd:output.obj
 0001:0008d180       ?write_character@?$output_adapter_common@DV?$stream_output_adapter@D@__crt_stdio_output@@@__crt_stdio_output@@QEBAXDQEAHAEAV__crt_cached_ptd_host@@@Z 000000018008e180 f i libucrtd:output.obj
 0001:0008d1e0       ?write_character@?$output_adapter_common@_WV?$stream_output_adapter@_W@__crt_stdio_output@@@__crt_stdio_output@@QEBAX_WQEAHAEAV__crt_cached_ptd_host@@@Z 000000018008e1e0 f i libucrtd:output.obj
 0001:0008d240       ?write_character@?$string_output_adapter@D@__crt_stdio_output@@QEBA_NDQEAHAEAV__crt_cached_ptd_host@@@Z 000000018008e240 f i libucrtd:output.obj
 0001:0008d310       ?write_character@?$string_output_adapter@_W@__crt_stdio_output@@QEBA_N_WQEAHAEAV__crt_cached_ptd_host@@@Z 000000018008e310 f i libucrtd:output.obj
 0001:0008d3e0       ?write_character_without_count_update@?$stream_output_adapter@D@__crt_stdio_output@@QEBA_NDAEAV__crt_cached_ptd_host@@@Z 000000018008e3e0 f i libucrtd:output.obj
 0001:0008d470       ?write_character_without_count_update@?$stream_output_adapter@_W@__crt_stdio_output@@QEBA_N_WAEAV__crt_cached_ptd_host@@@Z 000000018008e470 f i libucrtd:output.obj
 0001:0008d500       ?write_stored_string_tchar@?$output_processor@DV?$stream_output_adapter@D@__crt_stdio_output@@V?$format_validation_base@DV?$stream_output_adapter@D@__crt_stdio_output@@@2@@__crt_stdio_output@@AEAA_ND@Z 000000018008e500 f i libucrtd:output.obj
 0001:0008d6b0       ?write_stored_string_tchar@?$output_processor@DV?$stream_output_adapter@D@__crt_stdio_output@@V?$positional_parameter_base@DV?$stream_output_adapter@D@__crt_stdio_output@@@2@@__crt_stdio_output@@AEAA_ND@Z 000000018008e6b0 f i libucrtd:output.obj
 0001:0008d860       ?write_stored_string_tchar@?$output_processor@DV?$stream_output_adapter@D@__crt_stdio_output@@V?$standard_base@DV?$stream_output_adapter@D@__crt_stdio_output@@@2@@__crt_stdio_output@@AEAA_ND@Z 000000018008e860 f i libucrtd:output.obj
 0001:0008da10       ?write_stored_string_tchar@?$output_processor@DV?$string_output_adapter@D@__crt_stdio_output@@V?$format_validation_base@DV?$string_output_adapter@D@__crt_stdio_output@@@2@@__crt_stdio_output@@AEAA_ND@Z 000000018008ea10 f i libucrtd:output.obj
 0001:0008dbc0       ?write_stored_string_tchar@?$output_processor@DV?$string_output_adapter@D@__crt_stdio_output@@V?$positional_parameter_base@DV?$string_output_adapter@D@__crt_stdio_output@@@2@@__crt_stdio_output@@AEAA_ND@Z 000000018008ebc0 f i libucrtd:output.obj
 0001:0008dd70       ?write_stored_string_tchar@?$output_processor@DV?$string_output_adapter@D@__crt_stdio_output@@V?$standard_base@DV?$string_output_adapter@D@__crt_stdio_output@@@2@@__crt_stdio_output@@AEAA_ND@Z 000000018008ed70 f i libucrtd:output.obj
 0001:0008df20       ?write_stored_string_tchar@?$output_processor@_WV?$stream_output_adapter@_W@__crt_stdio_output@@V?$format_validation_base@_WV?$stream_output_adapter@_W@__crt_stdio_output@@@2@@__crt_stdio_output@@AEAA_N_W@Z 000000018008ef20 f i libucrtd:output.obj
 0001:0008e080       ?write_stored_string_tchar@?$output_processor@_WV?$stream_output_adapter@_W@__crt_stdio_output@@V?$positional_parameter_base@_WV?$stream_output_adapter@_W@__crt_stdio_output@@@2@@__crt_stdio_output@@AEAA_N_W@Z 000000018008f080 f i libucrtd:output.obj
 0001:0008e1e0       ?write_stored_string_tchar@?$output_processor@_WV?$stream_output_adapter@_W@__crt_stdio_output@@V?$standard_base@_WV?$stream_output_adapter@_W@__crt_stdio_output@@@2@@__crt_stdio_output@@AEAA_N_W@Z 000000018008f1e0 f i libucrtd:output.obj
 0001:0008e340       ?write_stored_string_tchar@?$output_processor@_WV?$string_output_adapter@_W@__crt_stdio_output@@V?$format_validation_base@_WV?$string_output_adapter@_W@__crt_stdio_output@@@2@@__crt_stdio_output@@AEAA_N_W@Z 000000018008f340 f i libucrtd:output.obj
 0001:0008e4a0       ?write_stored_string_tchar@?$output_processor@_WV?$string_output_adapter@_W@__crt_stdio_output@@V?$positional_parameter_base@_WV?$string_output_adapter@_W@__crt_stdio_output@@@2@@__crt_stdio_output@@AEAA_N_W@Z 000000018008f4a0 f i libucrtd:output.obj
 0001:0008e600       ?write_stored_string_tchar@?$output_processor@_WV?$string_output_adapter@_W@__crt_stdio_output@@V?$standard_base@_WV?$string_output_adapter@_W@__crt_stdio_output@@@2@@__crt_stdio_output@@AEAA_N_W@Z 000000018008f600 f i libucrtd:output.obj
 0001:0008e760       ?write_string@?$stream_output_adapter@D@__crt_stdio_output@@QEBAXQEBDHQEAHAEAV__crt_cached_ptd_host@@@Z 000000018008f760 f i libucrtd:output.obj
 0001:0008e7e0       ?write_string@?$stream_output_adapter@_W@__crt_stdio_output@@QEBAXQEB_WHQEAHAEAV__crt_cached_ptd_host@@@Z 000000018008f7e0 f i libucrtd:output.obj
 0001:0008e860       ?write_string@?$string_output_adapter@D@__crt_stdio_output@@QEBAXQEBDHQEAHAEAV__crt_cached_ptd_host@@@Z 000000018008f860 f i libucrtd:output.obj
 0001:0008e9d0       ?write_string@?$string_output_adapter@_W@__crt_stdio_output@@QEBAXQEB_WHQEAHAEAV__crt_cached_ptd_host@@@Z 000000018008f9d0 f i libucrtd:output.obj
 0001:0008eb40       ?write_string_impl@?$output_adapter_common@DV?$stream_output_adapter@D@__crt_stdio_output@@@__crt_stdio_output@@IEBAXQEBDHQEAHAEAV__crt_cached_ptd_host@@@Z 000000018008fb40 f i libucrtd:output.obj
 0001:0008ec60       ?write_string_impl@?$output_adapter_common@_WV?$stream_output_adapter@_W@__crt_stdio_output@@@__crt_stdio_output@@IEBAXQEB_WHQEAHAEAV__crt_cached_ptd_host@@@Z 000000018008fc60 f i libucrtd:output.obj
 0001:0008ed80       __acrt_disable_global_locale_sync 000000018008fd80 f i libucrtd:output.obj
 0001:0008edb0       __acrt_enable_global_locale_sync 000000018008fdb0 f i libucrtd:output.obj
 0001:0008ede0       __acrt_isleadbyte_l_noupdate 000000018008fde0 f i libucrtd:output.obj
 0001:0008ee10       __acrt_locale_changed      000000018008fe10 f i libucrtd:output.obj
 0001:0008ee40       __acrt_locale_get_ctype_array_value 000000018008fe40 f i libucrtd:output.obj
 0001:0008ee80       __ascii_iswalpha           000000018008fe80 f i libucrtd:output.obj
 0001:0008eec0       __ascii_toupper            000000018008fec0 f i libucrtd:output.obj
 0001:0008eee0       __ascii_towupper           000000018008fee0 f i libucrtd:output.obj
 0001:0008ef00       __stdio_common_vfprintf    000000018008ff00 f   libucrtd:output.obj
 0001:0008ef80       __stdio_common_vfprintf_p  000000018008ff80 f   libucrtd:output.obj
 0001:0008f000       __stdio_common_vfprintf_s  0000000180090000 f   libucrtd:output.obj
 0001:0008f080       __stdio_common_vfwprintf   0000000180090080 f   libucrtd:output.obj
 0001:0008f100       __stdio_common_vfwprintf_p 0000000180090100 f   libucrtd:output.obj
 0001:0008f180       __stdio_common_vfwprintf_s 0000000180090180 f   libucrtd:output.obj
 0001:0008f200       __stdio_common_vsnprintf_s 0000000180090200 f   libucrtd:output.obj
 0001:0008f290       __stdio_common_vsnwprintf_s 0000000180090290 f   libucrtd:output.obj
 0001:0008f320       __stdio_common_vsprintf    0000000180090320 f   libucrtd:output.obj
 0001:0008f3b0       __stdio_common_vsprintf_p  00000001800903b0 f   libucrtd:output.obj
 0001:0008f440       __stdio_common_vsprintf_s  0000000180090440 f   libucrtd:output.obj
 0001:0008f4d0       __stdio_common_vswprintf   00000001800904d0 f   libucrtd:output.obj
 0001:0008f560       __stdio_common_vswprintf_p 0000000180090560 f   libucrtd:output.obj
 0001:0008f5f0       __stdio_common_vswprintf_s 00000001800905f0 f   libucrtd:output.obj
 0001:0008f680       _ctype_fast_check_internal 0000000180090680 f i libucrtd:output.obj
 0001:0008f6b0       _isdigit_fast_internal     00000001800906b0 f i libucrtd:output.obj
 0001:0008f6e0       _tolower_fast_internal     00000001800906e0 f i libucrtd:output.obj
 0001:0008f710       free                       0000000180090710 f   libucrtd:free.obj
 0001:0008f740       malloc                     0000000180090740 f   libucrtd:malloc.obj
 0001:0008f770       ??$?RU?$__crt_report_hook_node@D@@@__crt_internal_free_policy@@QEBAXQEBU?$__crt_report_hook_node@D@@@Z 0000000180090770 f i libucrtd:dbgrpt.obj
 0001:0008f7a0       ??$?RU?$__crt_report_hook_node@_W@@@__crt_internal_free_policy@@QEBAXQEBU?$__crt_report_hook_node@_W@@@Z 00000001800907a0 f i libucrtd:dbgrpt.obj
 0001:00090a00       ??$get_module_file_name@AEAPEAUHINSTANCE__@@AEAY0BAF@DK@?$__crt_char_traits@D@@SAKAEAPEAUHINSTANCE__@@AEAY0BAF@D$$QEAK@Z 0000000180091a00 f i libucrtd:dbgrpt.obj
 0001:00090a40       ??$get_module_file_name@AEAPEAUHINSTANCE__@@AEAY0BAF@_WK@?$__crt_char_traits@_W@@SAKAEAPEAUHINSTANCE__@@AEAY0BAF@_W$$QEAK@Z 0000000180091a40 f i libucrtd:dbgrpt.obj
 0001:00090a80       ??$tcscpy_s@AEAY0BAF@D_KPEBD@?$__crt_char_traits@D@@SAHAEAY0BAF@D$$QEA_K$$QEAPEBD@Z 0000000180091a80 f i libucrtd:dbgrpt.obj
 0001:00090ac0       ??$tcscpy_s@AEAY0BAF@_W_KPEB_W@?$__crt_char_traits@_W@@SAHAEAY0BAF@_W$$QEA_K$$QEAPEB_W@Z 0000000180091ac0 f i libucrtd:dbgrpt.obj
 0001:00090b00       ??$tcslen@AEAY0BAF@D@?$__crt_char_traits@D@@SA_KAEAY0BAF@D@Z 0000000180091b00 f i libucrtd:dbgrpt.obj
 0001:00090b20       ??$tcslen@AEAY0BAF@_W@?$__crt_char_traits@_W@@SA_KAEAY0BAF@_W@Z 0000000180091b20 f i libucrtd:dbgrpt.obj
 0001:00090b40       ??$tcslen@AEBQEBD@?$__crt_char_traits@D@@SA_KAEBQEBD@Z 0000000180091b40 f i libucrtd:dbgrpt.obj
 0001:00090b60       ??$tcslen@AEBQEB_W@?$__crt_char_traits@_W@@SA_KAEBQEB_W@Z 0000000180091b60 f i libucrtd:dbgrpt.obj
 0001:00090c60       ??0?$__crt_unique_heap_ptr@U?$__crt_report_hook_node@D@@U__crt_internal_free_policy@@@@QEAA@QEAU?$__crt_report_hook_node@D@@@Z 0000000180091c60 f i libucrtd:dbgrpt.obj
 0001:00090c80       ??0?$__crt_unique_heap_ptr@U?$__crt_report_hook_node@_W@@U__crt_internal_free_policy@@@@QEAA@QEAU?$__crt_report_hook_node@_W@@@Z 0000000180091c80 f i libucrtd:dbgrpt.obj
 0001:00090ca0       ??1?$__crt_unique_heap_ptr@U?$__crt_report_hook_node@D@@U__crt_internal_free_policy@@@@QEAA@XZ 0000000180091ca0 f i libucrtd:dbgrpt.obj
 0001:00090cc0       ??1?$__crt_unique_heap_ptr@U?$__crt_report_hook_node@_W@@U__crt_internal_free_policy@@@@QEAA@XZ 0000000180091cc0 f i libucrtd:dbgrpt.obj
 0001:00090ce0       ??B?$__crt_unique_heap_ptr@U?$__crt_report_hook_node@D@@U__crt_internal_free_policy@@@@QEBA_NXZ 0000000180091ce0 f i libucrtd:dbgrpt.obj
 0001:00090d00       ??B?$__crt_unique_heap_ptr@U?$__crt_report_hook_node@_W@@U__crt_internal_free_policy@@@@QEBA_NXZ 0000000180091d00 f i libucrtd:dbgrpt.obj
 0001:00091420       ?detach@?$__crt_unique_heap_ptr@U?$__crt_report_hook_node@D@@U__crt_internal_free_policy@@@@QEAAPEAU?$__crt_report_hook_node@D@@XZ 0000000180092420 f i libucrtd:dbgrpt.obj
 0001:00091450       ?detach@?$__crt_unique_heap_ptr@U?$__crt_report_hook_node@_W@@U__crt_internal_free_policy@@@@QEAAPEAU?$__crt_report_hook_node@_W@@XZ 0000000180092450 f i libucrtd:dbgrpt.obj
 0001:00091480       ?get@?$__crt_unique_heap_ptr@U?$__crt_report_hook_node@D@@U__crt_internal_free_policy@@@@QEBAPEAU?$__crt_report_hook_node@D@@XZ 0000000180092480 f i libucrtd:dbgrpt.obj
 0001:00091490       ?get@?$__crt_unique_heap_ptr@U?$__crt_report_hook_node@_W@@U__crt_internal_free_policy@@@@QEBAPEAU?$__crt_report_hook_node@_W@@XZ 0000000180092490 f i libucrtd:dbgrpt.obj
 0001:00091500       ?is_valid@?$__crt_unique_heap_ptr@U?$__crt_report_hook_node@D@@U__crt_internal_free_policy@@@@QEBA_NXZ 0000000180092500 f i libucrtd:dbgrpt.obj
 0001:00091530       ?is_valid@?$__crt_unique_heap_ptr@U?$__crt_report_hook_node@_W@@U__crt_internal_free_policy@@@@QEBA_NXZ 0000000180092530 f i libucrtd:dbgrpt.obj
 0001:00091560       ?release@?$__crt_unique_heap_ptr@U?$__crt_report_hook_node@D@@U__crt_internal_free_policy@@@@QEAAXXZ 0000000180092560 f i libucrtd:dbgrpt.obj
 0001:00091590       ?release@?$__crt_unique_heap_ptr@U?$__crt_report_hook_node@_W@@U__crt_internal_free_policy@@@@QEAAXXZ 0000000180092590 f i libucrtd:dbgrpt.obj
 0001:000915c0       _CrtDbgReport              00000001800925c0 f   libucrtd:dbgrpt.obj
 0001:00091640       _CrtDbgReportW             0000000180092640 f   libucrtd:dbgrpt.obj
 0001:000916c0       _CrtSetReportHook2         00000001800926c0 f   libucrtd:dbgrpt.obj
 0001:000916e0       _CrtSetReportHookW2        00000001800926e0 f   libucrtd:dbgrpt.obj
 0001:00091700       __acrt_MessageWindowA      0000000180092700 f   libucrtd:dbgrpt.obj
 0001:00091750       __acrt_MessageWindowW      0000000180092750 f   libucrtd:dbgrpt.obj
 0001:000917a0       _invoke_watson_if_error    00000001800927a0 f i libucrtd:dbgrpt.obj
 0001:000917f0       _invoke_watson_if_oneof    00000001800927f0 f i libucrtd:dbgrpt.obj
 0001:00091850       _snwprintf_s               0000000180092850 f i libucrtd:dbgrpt.obj
 0001:000918c0       _vsnwprintf_s_l            00000001800928c0 f i libucrtd:dbgrpt.obj
 0001:00091e40       wcscpy_s                   0000000180092e40 f   libucrtd:wcscpy_s.obj
 0001:000931d0       ??1?$__crt_simd_cleanup_guard@$00@@QEAA@XZ 00000001800941d0 f i libucrtd:strnlen.obj
 0001:000931e0       ??1?$__crt_simd_cleanup_guard@$0A@@@QEAA@XZ 00000001800941e0 f i libucrtd:strnlen.obj
 0001:000931f0       ?compare_equals@?$__crt_simd_traits@$00E@@SA?AT__m256i@@T2@0@Z 00000001800941f0 f i libucrtd:strnlen.obj
 0001:00093230       ?compare_equals@?$__crt_simd_traits@$00G@@SA?AT__m256i@@T2@0@Z 0000000180094230 f i libucrtd:strnlen.obj
 0001:00093270       ?compare_equals@?$__crt_simd_traits@$0A@E@@SA?AT__m128i@@T2@0@Z 0000000180094270 f i libucrtd:strnlen.obj
 0001:000932a0       ?compare_equals@?$__crt_simd_traits@$0A@G@@SA?AT__m128i@@T2@0@Z 00000001800942a0 f i libucrtd:strnlen.obj
 0001:000932d0       ?compute_byte_mask@?$__crt_simd_pack_traits@$00@@SAHT__m256i@@@Z 00000001800942d0 f i libucrtd:strnlen.obj
 0001:000932f0       ?compute_byte_mask@?$__crt_simd_pack_traits@$0A@@@SAHT__m128i@@@Z 00000001800942f0 f i libucrtd:strnlen.obj
 0001:00093310       ?get_zero_pack@?$__crt_simd_pack_traits@$00@@SA?AT__m256i@@XZ 0000000180094310 f i libucrtd:strnlen.obj
 0001:00093340       ?get_zero_pack@?$__crt_simd_pack_traits@$0A@@@SA?AT__m128i@@XZ 0000000180094340 f i libucrtd:strnlen.obj
 0001:00093360       strnlen                    0000000180094360 f   libucrtd:strnlen.obj
 0001:00093390       wcslen                     0000000180094390 f   libucrtd:strnlen.obj
 0001:000933b0       wcsnlen                    00000001800943b0 f   libucrtd:strnlen.obj
 0001:000933e0       ??$__crt_fast_decode_pointer@P6AXPEB_W00I_K@Z@@YAP6AXPEB_W00I_K@ZQ6AX000I1@Z@Z 00000001800943e0 f i libucrtd:invalid_parameter.obj
 0001:00093420       ??$__crt_fast_encode_pointer@P6AXPEB_W00I_K@Z@@YAP6AXPEB_W00I_K@ZQ6AX000I1@Z@Z 0000000180094420 f i libucrtd:invalid_parameter.obj
 0001:00093460       ??$initialize_from_array@$$BY00Q6AXPEB_W00I_K@Z@?$dual_state_global@P6AXPEB_W00I_K@Z@__crt_state_management@@QEAAXAEAY00Q6AXPEB_W00I_K@Z@Z 0000000180094460 f i libucrtd:invalid_parameter.obj
 0001:000934c0       ?__crt_rotate_pointer_value@@YA_K_KH@Z 00000001800944c0 f i libucrtd:invalid_parameter.obj
 0001:00093580       ?check_synchronize_global_state_index@__crt_cached_ptd_host@@AEAA_KXZ 0000000180094580 f i libucrtd:invalid_parameter.obj
 0001:000935e0       ?dangerous_get_state_array@?$dual_state_global@P6AXPEB_W00I_K@Z@__crt_state_management@@QEAAPEAP6AXPEB_W00I_K@ZXZ 00000001800945e0 f i libucrtd:invalid_parameter.obj
 0001:000935f0       ?get_current_global_state_index@__crt_cached_ptd_host@@QEAA_KXZ 00000001800945f0 f i libucrtd:invalid_parameter.obj
 0001:00093610       ?get_current_state_index@__crt_state_management@@YA_KXZ 0000000180094610 f i libucrtd:invalid_parameter.obj
 0001:00093620       ?get_raw_ptd_noexit@__crt_cached_ptd_host@@QEAAPEAU__acrt_ptd@@XZ 0000000180094620 f i libucrtd:invalid_parameter.obj
 0001:00093640       ?try_synchronize_per_thread_data@__crt_cached_ptd_host@@AEAAPEAU__acrt_ptd@@XZ 0000000180094640 f i libucrtd:invalid_parameter.obj
 0001:00093670       ?value@?$dual_state_global@P6AXPEB_W00I_K@Z@__crt_state_management@@QEAAAEAP6AXPEB_W00I_K@ZAEAV__crt_cached_ptd_host@@@Z 0000000180094670 f i libucrtd:invalid_parameter.obj
 0001:000936a0       ?value@?$dual_state_global@P6AXPEB_W00I_K@Z@__crt_state_management@@QEAAAEAP6AXPEB_W00I_K@ZXZ 00000001800946a0 f i libucrtd:invalid_parameter.obj
 0001:000936c0       __acrt_call_reportfault    00000001800946c0 f   libucrtd:invalid_parameter.obj
 0001:000937f0       __acrt_initialize_invalid_parameter_handler 00000001800947f0 f   libucrtd:invalid_parameter.obj
 0001:00093820       _get_invalid_parameter_handler 0000000180094820 f   libucrtd:invalid_parameter.obj
 0001:00093840       _get_thread_local_invalid_parameter_handler 0000000180094840 f   libucrtd:invalid_parameter.obj
 0001:00093870       _invalid_parameter         0000000180094870 f   libucrtd:invalid_parameter.obj
 0001:000938e0       _invalid_parameter_internal 00000001800948e0 f   libucrtd:invalid_parameter.obj
 0001:00093a30       _invalid_parameter_noinfo  0000000180094a30 f   libucrtd:invalid_parameter.obj
 0001:00093a60       _invalid_parameter_noinfo_noreturn 0000000180094a60 f   libucrtd:invalid_parameter.obj
 0001:00093aa0       _invoke_watson             0000000180094aa0 f   libucrtd:invalid_parameter.obj
 0001:00093b00       _set_invalid_parameter_handler 0000000180094b00 f   libucrtd:invalid_parameter.obj
 0001:00093b50       _set_thread_local_invalid_parameter_handler 0000000180094b50 f   libucrtd:invalid_parameter.obj
 0001:00093b90       ?get_doserrno@__crt_cached_ptd_host@@QEAAAEAU?$cached@K@1@XZ 0000000180094b90 f i libucrtd:errno.obj
 0001:00093ba0       ?set@?$cached@K@__crt_cached_ptd_host@@QEAAKK@Z 0000000180094ba0 f i libucrtd:errno.obj
 0001:00093bd0       __acrt_errno_from_os_error 0000000180094bd0 f   libucrtd:errno.obj
 0001:00093c60       __acrt_errno_map_os_error  0000000180094c60 f   libucrtd:errno.obj
 0001:00093c90       __acrt_errno_map_os_error_ptd 0000000180094c90 f   libucrtd:errno.obj
 0001:00093cf0       __doserrno                 0000000180094cf0 f   libucrtd:errno.obj
 0001:00093d20       _errno                     0000000180094d20 f   libucrtd:errno.obj
 0001:00093d50       _get_doserrno              0000000180094d50 f   libucrtd:errno.obj
 0001:00093e10       _get_errno                 0000000180094e10 f   libucrtd:errno.obj
 0001:00093ed0       _set_doserrno              0000000180094ed0 f   libucrtd:errno.obj
 0001:00093f10       _set_errno                 0000000180094f10 f   libucrtd:errno.obj
 0001:00093f50       calloc                     0000000180094f50 f   libucrtd:calloc.obj
 0001:00093f90       _recalloc                  0000000180094f90 f   libucrtd:recalloc.obj
 0001:00093fe0       _recalloc_base             0000000180094fe0 f   libucrtd:recalloc.obj
 0001:000940c0       _resetstkoflw              00000001800950c0 f   libucrtd:resetstk.obj
 0001:000948c0       wcscat_s                   00000001800958c0 f   libucrtd:wcscat_s.obj
 0001:00094fa0       wcsncpy_s                  0000000180095fa0 f   libucrtd:wcsncpy_s.obj
 0001:00095120       __isascii                  0000000180096120 f   libucrtd:_ctype.obj
 0001:00095150       __iscsym                   0000000180096150 f   libucrtd:_ctype.obj
 0001:00095190       __iscsymf                  0000000180096190 f   libucrtd:_ctype.obj
 0001:000951d0       __toascii                  00000001800961d0 f   libucrtd:_ctype.obj
 0001:000951e0       _isalnum_l                 00000001800961e0 f   libucrtd:_ctype.obj
 0001:00095210       _isalpha_l                 0000000180096210 f   libucrtd:_ctype.obj
 0001:00095240       _isblank_l                 0000000180096240 f   libucrtd:_ctype.obj
 0001:00095270       _iscntrl_l                 0000000180096270 f   libucrtd:_ctype.obj
 0001:000952a0       _iscsym_l                  00000001800962a0 f   libucrtd:_ctype.obj
 0001:000952f0       _iscsymf_l                 00000001800962f0 f   libucrtd:_ctype.obj
 0001:00095340       _isdigit_l                 0000000180096340 f   libucrtd:_ctype.obj
 0001:00095370       _isgraph_l                 0000000180096370 f   libucrtd:_ctype.obj
 0001:000953a0       _islower_l                 00000001800963a0 f   libucrtd:_ctype.obj
 0001:000953d0       _isprint_l                 00000001800963d0 f   libucrtd:_ctype.obj
 0001:00095400       _ispunct_l                 0000000180096400 f   libucrtd:_ctype.obj
 0001:00095430       _isspace_l                 0000000180096430 f   libucrtd:_ctype.obj
 0001:00095460       _isupper_l                 0000000180096460 f   libucrtd:_ctype.obj
 0001:00095490       _isxdigit_l                0000000180096490 f   libucrtd:_ctype.obj
 0001:000954c0       isalnum                    00000001800964c0 f   libucrtd:_ctype.obj
 0001:000954e0       isalpha                    00000001800964e0 f   libucrtd:_ctype.obj
 0001:00095500       isblank                    0000000180096500 f   libucrtd:_ctype.obj
 0001:00095530       iscntrl                    0000000180096530 f   libucrtd:_ctype.obj
 0001:00095550       isdigit                    0000000180096550 f   libucrtd:_ctype.obj
 0001:00095570       isgraph                    0000000180096570 f   libucrtd:_ctype.obj
 0001:00095590       islower                    0000000180096590 f   libucrtd:_ctype.obj
 0001:000955b0       isprint                    00000001800965b0 f   libucrtd:_ctype.obj
 0001:000955d0       ispunct                    00000001800965d0 f   libucrtd:_ctype.obj
 0001:000955f0       isspace                    00000001800965f0 f   libucrtd:_ctype.obj
