 OPOSImageScanner

 Timestamp is 5defa96a (Tue Dec 10 23:19:22 2019)

 Preferred load address is 0000000180000000

 Start         Length     Name                   Class
 0001:00000000 00001400H .text$di                CODE
 0001:00001400 000d4720H .text$mn                CODE
 0001:000d5b20 00000020H .text$mn$00             CODE
 0001:000d5b40 00001370H .text$x                 CODE
 0001:000d6eb0 000001b4H .text$yd                CODE
 0002:00000000 000006d8H .idata$5                DATA
 0002:000006d8 00000010H .00cfg                  DATA
 0002:000006e8 00000008H .CRT$XCA                DATA
 0002:000006f0 00000008H .CRT$XCL                DATA
 0002:000006f8 000000d8H .CRT$XCU                DATA
 0002:000007d0 00000008H .CRT$XCZ                DATA
 0002:000007d8 00000008H .CRT$XIA                DATA
 0002:000007e0 00000020H .CRT$XIC                DATA
 0002:00000800 00000008H .CRT$XIZ                DATA
 0002:00000808 00000008H .CRT$XLA                DATA
 0002:00000810 00000008H .CRT$XLZ                DATA
 0002:00000818 00000008H .CRT$XPA                DATA
 0002:00000820 00000010H .CRT$XPX                DATA
 0002:00000830 00000008H .CRT$XPXA               DATA
 0002:00000838 00000008H .CRT$XPZ                DATA
 0002:00000840 00000008H .CRT$XTA                DATA
 0002:00000848 00000008H .CRT$XTZ                DATA
 0002:00000850 00000000H .gfids$y                DATA
 0002:00000850 0003b368H .rdata                  DATA
 0002:0003bbb8 00000028H .rdata$T                DATA
 0002:0003bbe0 0000056cH .rdata$r                DATA
 0002:0003c14c 00000434H .rdata$zzzdbg           DATA
 0002:0003c580 00000008H .rtc$IAA                DATA
 0002:0003c588 00000030H .rtc$IMZ                DATA
 0002:0003c5b8 00000008H .rtc$IZZ                DATA
 0002:0003c5c0 00000008H .rtc$TAA                DATA
 0002:0003c5c8 00000030H .rtc$TMZ                DATA
 0002:0003c5f8 00000008H .rtc$TZZ                DATA
 0002:0003c600 00000004H .tls                    DATA
 0002:0003c604 00000004H .tls$                   DATA
 0002:0003c608 00000008H .tls$ZZZ                DATA
 0002:0003c610 00009818H .xdata                  DATA
 0002:00045e28 00000150H .xdata$x                DATA
 0002:00045f78 00000008H ATL$__a                 DATA
 0002:00045f80 00000010H ATL$__z                 DATA
 0002:00045f90 000000b0H .edata                  DATA
 0002:00046040 00000078H .idata$2                DATA
 0002:000460b8 00000018H .idata$3                DATA
 0002:000460d0 000006d8H .idata$4                DATA
 0002:000467a8 00000db8H .idata$6                DATA
 0003:00000000 00000ea8H .data                   DATA
 0003:00000ea8 00000198H .data$r                 DATA
 0003:00001040 00003e9cH .bss                    DATA
 0004:00000000 0000c0f0H .pdata                  DATA
 0005:00000000 00000094H _RDATA                  DATA
 0006:00000000 00000220H .rsrc$01                DATA
 0006:00000220 000043d8H .rsrc$02                DATA

  Address         Publics by Value              Rva+Base               Lib:Object

 0000:00000000       __guard_iat_table          0000000000000000     <absolute>
 0000:00000000       __guard_iat_count          0000000000000000     <absolute>
 0000:00000000       __hybrid_code_map          0000000000000000     <absolute>
 0000:00000000       __hybrid_code_map_count    0000000000000000     <absolute>
 0000:00000000       __hybrid_auxiliary_iat     0000000000000000     <absolute>
 0000:00000000       __guard_fids_table         0000000000000000     <absolute>
 0000:00000000       ___safe_se_handler_table   0000000000000000     <absolute>
 0000:00000000       __guard_longjmp_table      0000000000000000     <absolute>
 0000:00000000       __AbsoluteZero             0000000000000000     <absolute>
 0000:00000000       __guard_fids_count         0000000000000000     <absolute>
 0000:00000000       __dynamic_value_reloc_table 0000000000000000     <absolute>
 0000:00000000       __guard_longjmp_count      0000000000000000     <absolute>
 0000:00000000       ___safe_se_handler_count   0000000000000000     <absolute>
 0000:00000000       __enclave_config           0000000000000000     <absolute>
 0000:00000000       __volatile_metadata        0000000000000000     <absolute>
 0000:00000100       __guard_flags              0000000000000100     <absolute>
 0000:00000000       __ImageBase                0000000180000000     <linker-defined>
 0001:00001400       ?_assert@@YAXPEB_W0I@Z     0000000180002400 f   Assert.obj
 0001:00001500       __local_stdio_printf_options 0000000180002500 f i Assert.obj
 0001:00001510       __vswprintf_l              0000000180002510 f i Assert.obj
 0001:00001570       _swprintf                  0000000180002570 f i Assert.obj
 0001:000015f0       _vswprintf_c_l             00000001800025f0 f i Assert.obj
 0001:00001680       _vswprintf_l               0000000180002680 f i Assert.obj
 0001:000016e0       ?cw_memcpy@@YAHPEADPEB_WH@Z 00000001800026e0 f   CWString.obj
 0001:00001770       ?cw_memcpy@@YAHPEA_WPEBDH@Z 0000000180002770 f   CWString.obj
 0001:000017f0       ?cw_memcpy@@YAHPEADPEBDH@Z 00000001800027f0 f   CWString.obj
 0001:00001890       ?cw_memcpy@@YAHPEA_WPEB_WH@Z 0000000180002890 f   CWString.obj
 0001:00001900       ?cw_memset@@YAXPEADDH@Z    0000000180002900 f   CWString.obj
 0001:00001970       ?cw_memset@@YAXPEA_W_WH@Z  0000000180002970 f   CWString.obj
 0001:00001a10       ?cw_strlen@@YAHPEBD@Z      0000000180002a10 f   CWString.obj
 0001:00001a80       ?cw_strlen@@YAHPEB_W@Z     0000000180002a80 f   CWString.obj
 0001:00001af0       ?cw_strcpy@@YAHPEADPEB_W@Z 0000000180002af0 f   CWString.obj
 0001:00001b40       ?cw_strcpy@@YAHPEA_WPEBD@Z 0000000180002b40 f   CWString.obj
 0001:00001b90       ?cw_strcpy@@YAHPEADPEBD@Z  0000000180002b90 f   CWString.obj
 0001:00001be0       ?cw_strcpy@@YAHPEA_WPEB_W@Z 0000000180002be0 f   CWString.obj
 0001:00001c30       ?cw_strcat@@YAHPEADPEB_W@Z 0000000180002c30 f   CWString.obj
 0001:00001c90       ?cw_strcat@@YAHPEA_WPEBD@Z 0000000180002c90 f   CWString.obj
 0001:00001cf0       ?cw_strcat@@YAHPEADPEBD@Z  0000000180002cf0 f   CWString.obj
 0001:00001d50       ?cw_strcat@@YAHPEA_WPEB_W@Z 0000000180002d50 f   CWString.obj
 0001:00001db0       ?cw_dup@@YAXPEBDAEAHAEAPEA_W1@Z 0000000180002db0 f   CWString.obj
 0001:00001ec0       ?cw_dup@@YAXPEB_WAEAHAEAPEAD1@Z 0000000180002ec0 f   CWString.obj
 0001:00001fb0       ?DupChar@_CW@@AEAAXXZ      0000000180002fb0 f   CWString.obj
 0001:00002010       ?DupWide@_CW@@AEAAXXZ      0000000180003010 f   CWString.obj
 0001:00002080       ?GetCharsMbcs@_CW@@QEAAHXZ 0000000180003080 f   CWString.obj
 0001:000020f0       ?GetCharsWide@_CW@@QEAAHXZ 00000001800030f0 f   CWString.obj
 0001:00002160       ?SetVARIANT_BOOL@OposVariant@@QEAAXF@Z 0000000180003160 f   OposVariant.obj
 0001:000021d0       ?SetVARIANT_BOOL_Ptr@OposVariant@@QEAAXPEAFAEAJ@Z 00000001800031d0 f   OposVariant.obj
 0001:00002240       ?GetLONG@OposVariant@@QEAAJXZ 0000000180003240 f   OposVariant.obj
 0001:000022a0       ?ChangeLONG@OposVariant@@QEAAXPEAJAEAJ@Z 00000001800032a0 f   OposVariant.obj
 0001:00002350       ?SetLONG@OposVariant@@QEAAXJ@Z 0000000180003350 f   OposVariant.obj
 0001:000023b0       ?SetLONG_Ptr@OposVariant@@QEAAXPEAJAEAJ@Z 00000001800033b0 f   OposVariant.obj
 0001:00002420       ?ChangeCURRENCY@OposVariant@@QEAAXPEATtagCY@@AEAJ@Z 0000000180003420 f   OposVariant.obj
 0001:000024d0       ?SetCURRENCY@OposVariant@@QEAAXTtagCY@@@Z 00000001800034d0 f   OposVariant.obj
 0001:00002530       ?SetCURRENCY_Ptr@OposVariant@@QEAAXPEATtagCY@@AEAJ@Z 0000000180003530 f   OposVariant.obj
 0001:000025a0       ?ChangeBSTR@OposVariant@@QEAAXPEAPEA_WAEAJ@Z 00000001800035a0 f   OposVariant.obj
 0001:00002650       ?SetBSTR@OposVariant@@QEAAXPEA_WAEAJ@Z 0000000180003650 f   OposVariant.obj
 0001:000026d0       ?SetBSTR_Copy@OposVariant@@QEAAXPEA_WAEAJ@Z 00000001800036d0 f   OposVariant.obj
 0001:00002780       ?SetBSTR_OutPtr@OposVariant@@QEAA_NPEAPEA_WAEAJ@Z 0000000180003780 f   OposVariant.obj
 0001:000027f0       ?SetBSTR_InOutPtr@OposVariant@@QEAA_NPEAPEA_WAEAJ@Z 00000001800037f0 f   OposVariant.obj
 0001:00002870       ?SetVARIANT@OposVariant@@QEAAXAEAUtagVARIANT@@GAEAJ@Z 0000000180003870 f   OposVariant.obj
 0001:00002910       ?SetVARIANT_Ptr@OposVariant@@QEAAXAEAPEAUtagVARIANT@@GAEAJ@Z 0000000180003910 f   OposVariant.obj
 0001:000029c0       ?SetString@OposVariant@@QEAAXPEB_WAEAJ@Z 00000001800039c0 f   OposVariant.obj
 0001:00002a70       ?SetDispatch_Ptr@OposVariant@@QEAAXPEAUIDispatch@@AEAJ@Z 0000000180003a70 f   OposVariant.obj
 0001:00002b00       ??0OposDispParms@@QEAA@PEAVOposVariant@@H@Z 0000000180003b00 f   OposVariant.obj
 0001:00002c10       ??1OposDispParms@@QEAA@XZ  0000000180003c10 f   OposVariant.obj
 0001:00002c60       ??$AtlMultiply@_K@ATL@@YAJPEA_K_K1@Z 0000000180003c60 f i OposVariant.obj
 0001:00002ce0       ??0?$CHeapPtr@_WVCCRTAllocator@ATL@@@ATL@@QEAA@XZ 0000000180003ce0 f i OposVariant.obj
 0001:00002d20       ??0?$CHeapPtrBase@_WVCCRTAllocator@ATL@@@ATL@@IEAA@XZ 0000000180003d20 f i OposVariant.obj
 0001:00002d40       ??0?$CSimpleArray@GV?$CSimpleArrayEqualHelper@G@ATL@@@ATL@@QEAA@XZ 0000000180003d40 f i OposVariant.obj
 0001:00002d80       ??0?$CTraceCategoryEx@$00$0A@@ATL@@QEAA@PEB_W@Z 0000000180003d80 f i OposVariant.obj
 0001:00002dc0       ??0?$CTraceCategoryEx@$01$0A@@ATL@@QEAA@PEB_W@Z 0000000180003dc0 f i OposVariant.obj
 0001:00002e00       ??0?$CTraceCategoryEx@$03$0A@@ATL@@QEAA@PEB_W@Z 0000000180003e00 f i OposVariant.obj
 0001:00002e40       ??0?$CTraceCategoryEx@$07$0A@@ATL@@QEAA@PEB_W@Z 0000000180003e40 f i OposVariant.obj
 0001:00002e80       ??0?$CTraceCategoryEx@$0BA@$0A@@ATL@@QEAA@PEB_W@Z 0000000180003e80 f i OposVariant.obj
 0001:00002ec0       ??0?$CTraceCategoryEx@$0BAA@$0A@@ATL@@QEAA@PEB_W@Z 0000000180003ec0 f i OposVariant.obj
 0001:00002f00       ??0?$CTraceCategoryEx@$0BAAA@$0A@@ATL@@QEAA@PEB_W@Z 0000000180003f00 f i OposVariant.obj
 0001:00002f40       ??0?$CTraceCategoryEx@$0BAAAA@$0A@@ATL@@QEAA@PEB_W@Z 0000000180003f40 f i OposVariant.obj
 0001:00002f80       ??0?$CTraceCategoryEx@$0BAAAAA@$0A@@ATL@@QEAA@PEB_W@Z 0000000180003f80 f i OposVariant.obj
 0001:00002fc0       ??0?$CTraceCategoryEx@$0CA@$0A@@ATL@@QEAA@PEB_W@Z 0000000180003fc0 f i OposVariant.obj
 0001:00003000       ??0?$CTraceCategoryEx@$0CAA@$0A@@ATL@@QEAA@PEB_W@Z 0000000180004000 f i OposVariant.obj
 0001:00003040       ??0?$CTraceCategoryEx@$0CAAA@$0A@@ATL@@QEAA@PEB_W@Z 0000000180004040 f i OposVariant.obj
 0001:00003080       ??0?$CTraceCategoryEx@$0CAAAA@$0A@@ATL@@QEAA@PEB_W@Z 0000000180004080 f i OposVariant.obj
 0001:000030c0       ??0?$CTraceCategoryEx@$0CAAAAA@$0A@@ATL@@QEAA@PEB_W@Z 00000001800040c0 f i OposVariant.obj
 0001:00003100       ??0?$CTraceCategoryEx@$0EA@$0A@@ATL@@QEAA@PEB_W@Z 0000000180004100 f i OposVariant.obj
 0001:00003140       ??0?$CTraceCategoryEx@$0EAA@$0A@@ATL@@QEAA@PEB_W@Z 0000000180004140 f i OposVariant.obj
 0001:00003180       ??0?$CTraceCategoryEx@$0EAAA@$0A@@ATL@@QEAA@PEB_W@Z 0000000180004180 f i OposVariant.obj
 0001:000031c0       ??0?$CTraceCategoryEx@$0EAAAA@$0A@@ATL@@QEAA@PEB_W@Z 00000001800041c0 f i OposVariant.obj
 0001:00003200       ??0?$CTraceCategoryEx@$0EAAAAA@$0A@@ATL@@QEAA@PEB_W@Z 0000000180004200 f i OposVariant.obj
 0001:00003240       ??0?$CTraceCategoryEx@$0IA@$0A@@ATL@@QEAA@PEB_W@Z 0000000180004240 f i OposVariant.obj
 0001:00003280       ??0?$CTraceCategoryEx@$0IAA@$0A@@ATL@@QEAA@PEB_W@Z 0000000180004280 f i OposVariant.obj
 0001:000032c0       ??0?$CTraceCategoryEx@$0IAAA@$0A@@ATL@@QEAA@PEB_W@Z 00000001800042c0 f i OposVariant.obj
 0001:00003300       ??0?$CTraceCategoryEx@$0IAAAA@$0A@@ATL@@QEAA@PEB_W@Z 0000000180004300 f i OposVariant.obj
 0001:00003340       ??0CAtlComModule@ATL@@QEAA@XZ 0000000180004340 f i OposVariant.obj
 0001:00003460       ??0CAtlWinModule@ATL@@QEAA@XZ 0000000180004460 f i OposVariant.obj
 0001:00003510       ??0CComCriticalSection@ATL@@QEAA@XZ 0000000180004510 f i OposVariant.obj
 0001:00003550       ??0CPreserveLastError@ATL@@QEAA@XZ 0000000180004550 f i OposVariant.obj
 0001:00003590       ??0CTraceFileAndLineInfo@ATL@@QEAA@PEBDH@Z 0000000180004590 f i OposVariant.obj
 0001:000035c0       ??0_ATL_COM_MODULE70@ATL@@QEAA@XZ 00000001800045c0 f i OposVariant.obj
 0001:00003600       ??0_ATL_WIN_MODULE70@ATL@@QEAA@XZ 0000000180004600 f i OposVariant.obj
 0001:00003650       ??1?$CHeapPtr@_WVCCRTAllocator@ATL@@@ATL@@QEAA@XZ 0000000180004650 f i OposVariant.obj
 0001:00003680       ??1?$CHeapPtrBase@_WVCCRTAllocator@ATL@@@ATL@@QEAA@XZ 0000000180004680 f i OposVariant.obj
 0001:000036b0       ??1?$CSimpleArray@GV?$CSimpleArrayEqualHelper@G@ATL@@@ATL@@QEAA@XZ 00000001800046b0 f i OposVariant.obj
 0001:000036e0       ??1CAtlComModule@ATL@@QEAA@XZ 00000001800046e0 f i OposVariant.obj
 0001:00003720       ??1CAtlWinModule@ATL@@QEAA@XZ 0000000180004720 f i OposVariant.obj
 0001:00003760       ??1CComBSTR@ATL@@QEAA@XZ   0000000180004760 f i OposVariant.obj
 0001:000037a0       ??1CComCriticalSection@ATL@@QEAA@XZ 00000001800047a0 f i OposVariant.obj
 0001:000037b0       ??1CPreserveLastError@ATL@@QEAA@XZ 00000001800047b0 f i OposVariant.obj
 0001:000037f0       ??1_ATL_COM_MODULE70@ATL@@QEAA@XZ 00000001800047f0 f i OposVariant.obj
 0001:00003830       ??1_ATL_WIN_MODULE70@ATL@@QEAA@XZ 0000000180004830 f i OposVariant.obj
 0001:00003880       ??1stringdispid@CComTypeInfoHolder@ATL@@QEAA@XZ 0000000180004880 f i OposVariant.obj
 0001:000038c0       ??A?$CSimpleArray@GV?$CSimpleArrayEqualHelper@G@ATL@@@ATL@@QEAAAEAGH@Z 00000001800048c0 f i OposVariant.obj
 0001:00003970       ??B?$CHeapPtrBase@_WVCCRTAllocator@ATL@@@ATL@@QEBAPEA_WXZ 0000000180004970 f i OposVariant.obj
 0001:00003980       ??B?$CTraceCategoryEx@$01$0A@@ATL@@QEAAIXZ 0000000180004980 f i OposVariant.obj
 0001:00003990       ??B?$CTraceCategoryEx@$0CA@$0A@@ATL@@QEAAIXZ 0000000180004990 f i OposVariant.obj
 0001:000039a0       ??RCTraceFileAndLineInfo@ATL@@QEBAXHIPEB_WZZ 00000001800049a0 f i OposVariant.obj
 0001:00003a50       ??_Estringdispid@CComTypeInfoHolder@ATL@@QEAAPEAXI@Z 0000000180004a50 f i OposVariant.obj
 0001:00003b00       ??_H@YAXPEAX_K1P6APEAX0@Z@Z 0000000180004b00 f i OposVariant.obj
 0001:00003b90       ??_I@YAXPEAX_K1P6AX0@Z@Z   0000000180004b90 f i OposVariant.obj
 0001:00003c40       ?Allocate@?$CHeapPtr@_WVCCRTAllocator@ATL@@@ATL@@QEAA_N_K@Z 0000000180004c40 f i OposVariant.obj
 0001:00003cc0       ?Allocate@CCRTAllocator@ATL@@SAPEAX_K@Z 0000000180004cc0 f i OposVariant.obj
 0001:00003cf0       ?AllocateBytes@?$CHeapPtrBase@_WVCCRTAllocator@ATL@@@ATL@@QEAA_N_K@Z 0000000180004cf0 f i OposVariant.obj
 0001:00003d90       ?AtlWinModuleInit@ATL@@YAJPEAU_ATL_WIN_MODULE70@1@@Z 0000000180004d90 f i OposVariant.obj
 0001:00003e90       ?AtlWinModuleTerm@ATL@@YAJPEAU_ATL_WIN_MODULE70@1@PEAUHINSTANCE__@@@Z 0000000180004e90 f i OposVariant.obj
 0001:00003f80       ?Clear@OposVariant@@QEAAJXZ 0000000180004f80 f i OposVariant.obj
 0001:00003fc0       ?Free@?$CHeapPtrBase@_WVCCRTAllocator@ATL@@@ATL@@QEAAXXZ 0000000180004fc0 f i OposVariant.obj
 0001:00004000       ?Free@CCRTAllocator@ATL@@SAXPEAX@Z 0000000180005000 f i OposVariant.obj
 0001:00004030       ?GetCategoryName@CTrace@ATL@@CAPEA_WI@Z 0000000180005030 f i OposVariant.obj
 0001:000040b0       ?GetModuleInstance@CAtlBaseModule@ATL@@QEAAPEAUHINSTANCE__@@XZ 00000001800050b0 f i OposVariant.obj
 0001:000040d0       ?GetSize@?$CSimpleArray@GV?$CSimpleArrayEqualHelper@G@ATL@@@ATL@@QEBAHXZ 00000001800050d0 f i OposVariant.obj
 0001:000040e0       ?Init@CComCriticalSection@ATL@@QEAAJXZ 00000001800050e0 f i OposVariant.obj
 0001:00004140       ?RegisterCategory@CTrace@ATL@@SAXPEB_WI@Z 0000000180005140 f i OposVariant.obj
 0001:00004220       ?RemoveAll@?$CSimpleArray@GV?$CSimpleArrayEqualHelper@G@ATL@@@ATL@@QEAAXXZ 0000000180005220 f i OposVariant.obj
 0001:000042b0       ?Term@CAtlComModule@ATL@@QEAAXXZ 00000001800052b0 f i OposVariant.obj
 0001:00004390       ?Term@CAtlWinModule@ATL@@QEAAXXZ 0000000180005390 f i OposVariant.obj
 0001:000043d0       ?Term@CComCriticalSection@ATL@@QEAAJXZ 00000001800053d0 f i OposVariant.obj
 0001:00004410       ?TraceV@CTrace@ATL@@CAXPEBDHIIPEB_W@Z 0000000180005410 f i OposVariant.obj
 0001:000046c0       ?TraceV@CTrace@ATL@@SAXPEBDHIIPEB_WPEAD@Z 00000001800056c0 f i OposVariant.obj
 0001:00004870       ?_AtlInitializeCriticalSectionEx@ATL@@YAHPEAU_RTL_CRITICAL_SECTION@@KK@Z 0000000180005870 f i OposVariant.obj
 0001:000048c0       ?_AtlRaiseException@ATL@@YAXKK@Z 00000001800058c0 f i OposVariant.obj
 0001:00004900       HRESULT_FROM_WIN32         0000000180005900 f i OposVariant.obj
 0001:00004950       _vswprintf_s_l             0000000180005950 f i OposVariant.obj
 0001:000049e0       swprintf_s                 00000001800059e0 f i OposVariant.obj
 0001:00004a70       ?ObjectMain@CComObjectRootBase@ATL@@SAX_N@Z 0000000180005a70 f i ImageScanner.obj
 0001:00004a80       ?GetCategoryMap@CComObjectRootBase@ATL@@SAPEBU_ATL_CATMAP_ENTRY@2@XZ 0000000180005a80 f i ImageScanner.obj
 0001:00004a90       ?GetObjectDescription@?$CComCoClass@VCOPOSImageScanner@@$1?CLSID_OPOSImageScanner@@3U_GUID@@B@ATL@@SAPEB_WXZ 0000000180005a90 f i ImageScanner.obj
 0001:00004aa0       ?UpdateRegistry@COPOSImageScanner@@SAJH@Z 0000000180005aa0 f i ImageScanner.obj
 0001:00004ae0       ?CreateInstance@?$CComCreator@V?$CComObjectCached@VCComClassFactory@ATL@@@ATL@@@ATL@@SAJPEAXAEBU_GUID@@PEAPEAX@Z 0000000180005ae0 f i ImageScanner.obj
 0001:00004cd0       ?CreateInstance@?$CComCreator2@V?$CComCreator@V?$CComObject@VCOPOSImageScanner@@@ATL@@@ATL@@V?$CComCreator@V?$CComAggObject@VCOPOSImageScanner@@@ATL@@@2@@ATL@@SAJPEAXAEBU_GUID@@PEAPEAX@Z 0000000180005cd0 f i ImageScanner.obj
 0001:00004ee0       DllGetClassObject          0000000180005ee0 f   ImageScanner.obj
 0001:00004f30       DllCanUnloadNow            0000000180005f30 f   ImageScanner.obj
 0001:00004f80       DllRegisterServer          0000000180005f80 f   ImageScanner.obj
 0001:00004fc0       DllUnregisterServer        0000000180005fc0 f   ImageScanner.obj
 0001:000051c0       DllMain                    00000001800061c0 f   ImageScanner.obj
 0001:00005240       ??$?2G@Wrapper@?$CSimpleArray@GV?$CSimpleArrayEqualHelper@G@ATL@@@ATL@@SAPEAX_KPEAG@Z 0000000180006240 f i ImageScanner.obj
 0001:00005260       ??$?2PEA_W@?$Wrapper@PEA_W@?$CSimpleMap@PEA_WPEA_WVCExpansionVectorEqualHelper@ATL@@@ATL@@SAPEAX_KPEAPEA_W@Z 0000000180006260 f i ImageScanner.obj
 0001:00005280       ??$?4UITypeInfo2@@@?$CComPtr@UITypeInfo@@@ATL@@QEAAPEAUITypeInfo@@AEBV?$CComPtr@UITypeInfo2@@@1@@Z 0000000180006280 f i ImageScanner.obj
 0001:000052f0       ??$AtlAdd@_K@ATL@@YAJPEA_K_K1@Z 00000001800062f0 f i ImageScanner.obj
 0001:00005360       ??$AtlAddThrow@_K@ATL@@YA_K_K0@Z 0000000180006360 f i ImageScanner.obj
 0001:000053d0       ??$AtlModuleRegisterWndClassInfoT@VAtlModuleRegisterWndClassInfoParamW@ATL@@@ATL@@YAGPEAU_ATL_BASE_MODULE70@0@PEAU_ATL_WIN_MODULE70@0@PEAU_ATL_WNDCLASSINFOW@0@PEAP6A_JPEAUHWND__@@I_K_J@ZVAtlModuleRegisterWndClassInfoParamW@0@@Z 00000001800063d0 f i ImageScanner.obj
 0001:000059a0       ??$AtlMultiply@H@ATL@@YAJPEAHHH@Z 00000001800069a0 f i ImageScanner.obj
 0001:00005a10       ??$AtlMultiply@K@ATL@@YAJPEAKKK@Z 0000000180006a10 f i ImageScanner.obj
 0001:00005a80       ??$AtlMultiplyThrow@_K@ATL@@YA_K_K0@Z 0000000180006a80 f i ImageScanner.obj
 0001:00005af0       ??$QueryInterface@UIPersistStream@@@IUnknown@@QEAAJPEAPEAUIPersistStream@@@Z 0000000180006af0 f i ImageScanner.obj
 0001:00005b40       ??$QueryInterface@UITypeInfo2@@@IUnknown@@QEAAJPEAPEAUITypeInfo2@@@Z 0000000180006b40 f i ImageScanner.obj
 0001:00005b90       ??0?$CAtlModuleT@VCComModule@ATL@@@ATL@@QEAA@XZ 0000000180006b90 f i ImageScanner.obj
 0001:00005bd0       ??0?$CAtlSafeAllocBufferManager@VCCRTAllocator@ATL@@@_ATL_SAFE_ALLOCA_IMPL@ATL@@QEAA@XZ 0000000180006bd0 f i ImageScanner.obj
 0001:00005bf0       ??0?$CAutoVectorPtr@_W@ATL@@QEAA@XZ 0000000180006bf0 f i ImageScanner.obj
 0001:00005c10       ??0?$CComAggObject@VCOPOSImageScanner@@@ATL@@QEAA@PEAX@Z 0000000180006c10 f i ImageScanner.obj
 0001:00005ca0       ??0?$CComContainedObject@VCOPOSImageScanner@@@ATL@@QEAA@PEAX@Z 0000000180006ca0 f i ImageScanner.obj
 0001:00005e40       ??0?$CComCritSecLock@VCComCriticalSection@ATL@@@ATL@@QEAA@AEAVCComCriticalSection@1@_N@Z 0000000180006e40 f i ImageScanner.obj
 0001:00005eb0       ??0?$CComEnum@UIEnumConnectionPoints@@$1?_GUID_b196b285_bab4_101a_b69c_00aa00341d07@@3U__s_GUID@@BPEAUIConnectionPoint@@V?$_CopyInterface@UIConnectionPoint@@@ATL@@VCComSingleThreadModel@6@@ATL@@QEAA@XZ 0000000180006eb0 f i ImageScanner.obj
 0001:00005f00       ??0?$CComEnum@UIEnumConnections@@$1?_GUID_b196b287_bab4_101a_b69c_00aa00341d07@@3U__s_GUID@@BUtagCONNECTDATA@@V?$_Copy@UtagCONNECTDATA@@@ATL@@VCComSingleThreadModel@6@@ATL@@QEAA@XZ 0000000180006f00 f i ImageScanner.obj
 0001:00005f50       ??0?$CComEnumImpl@UIEnumConnectionPoints@@$1?_GUID_b196b285_bab4_101a_b69c_00aa00341d07@@3U__s_GUID@@BPEAUIConnectionPoint@@V?$_CopyInterface@UIConnectionPoint@@@ATL@@@ATL@@QEAA@XZ 0000000180006f50 f i ImageScanner.obj
 0001:00005fd0       ??0?$CComEnumImpl@UIEnumConnections@@$1?_GUID_b196b287_bab4_101a_b69c_00aa00341d07@@3U__s_GUID@@BUtagCONNECTDATA@@V?$_Copy@UtagCONNECTDATA@@@ATL@@@ATL@@QEAA@XZ 0000000180006fd0 f i ImageScanner.obj
 0001:00006050       ??0?$CComObject@V?$CComEnum@UIEnumConnectionPoints@@$1?_GUID_b196b285_bab4_101a_b69c_00aa00341d07@@3U__s_GUID@@BPEAUIConnectionPoint@@V?$_CopyInterface@UIConnectionPoint@@@ATL@@VCComSingleThreadModel@6@@ATL@@@ATL@@QEAA@PEAX@Z 0000000180007050 f i ImageScanner.obj
 0001:000060b0       ??0?$CComObject@V?$CComEnum@UIEnumConnections@@$1?_GUID_b196b287_bab4_101a_b69c_00aa00341d07@@3U__s_GUID@@BUtagCONNECTDATA@@V?$_Copy@UtagCONNECTDATA@@@ATL@@VCComSingleThreadModel@6@@ATL@@@ATL@@QEAA@PEAX@Z 00000001800070b0 f i ImageScanner.obj
 0001:00006110       ??0?$CComObject@VCOPOSImageScanner@@@ATL@@QEAA@PEAX@Z 0000000180007110 f i ImageScanner.obj
 0001:000062b0       ??0?$CComObjectCached@VCComClassFactory@ATL@@@ATL@@QEAA@PEAX@Z 00000001800072b0 f i ImageScanner.obj
 0001:00006300       ??0?$CComObjectRootEx@VCComMultiThreadModel@ATL@@@ATL@@QEAA@XZ 0000000180007300 f i ImageScanner.obj
 0001:00006350       ??0?$CComObjectRootEx@VCComSingleThreadModel@ATL@@@ATL@@QEAA@XZ 0000000180007350 f i ImageScanner.obj
 0001:00006390       ??0?$CComPtr@UIAdviseSink@@@ATL@@QEAA@PEAUIAdviseSink@@@Z 0000000180007390 f i ImageScanner.obj
 0001:000063d0       ??0?$CComPtr@UICatRegister@@@ATL@@QEAA@XZ 00000001800073d0 f i ImageScanner.obj
 0001:00006410       ??0?$CComPtr@UIConnectionPoint@@@ATL@@QEAA@XZ 0000000180007410 f i ImageScanner.obj
 0001:00006450       ??0?$CComPtr@UIConnectionPointContainer@@@ATL@@QEAA@XZ 0000000180007450 f i ImageScanner.obj
 0001:00006490       ??0?$CComPtr@UIDataObject@@@ATL@@QEAA@XZ 0000000180007490 f i ImageScanner.obj
 0001:000064d0       ??0?$CComPtr@UIDispatch@@@ATL@@QEAA@XZ 00000001800074d0 f i ImageScanner.obj
 0001:00006510       ??0?$CComPtr@UIOleClientSite@@@ATL@@QEAA@PEAUIOleClientSite@@@Z 0000000180007510 f i ImageScanner.obj
 0001:00006550       ??0?$CComPtr@UIOleControlSite@@@ATL@@QEAA@XZ 0000000180007550 f i ImageScanner.obj
 0001:00006590       ??0?$CComPtr@UIOleInPlaceActiveObject@@@ATL@@QEAA@XZ 0000000180007590 f i ImageScanner.obj
 0001:000065d0       ??0?$CComPtr@UIOleInPlaceFrame@@@ATL@@QEAA@XZ 00000001800075d0 f i ImageScanner.obj
 0001:00006610       ??0?$CComPtr@UIOleInPlaceObject@@@ATL@@QEAA@XZ 0000000180007610 f i ImageScanner.obj
 0001:00006650       ??0?$CComPtr@UIOleInPlaceUIWindow@@@ATL@@QEAA@XZ 0000000180007650 f i ImageScanner.obj
 0001:00006690       ??0?$CComPtr@UIOleObject@@@ATL@@QEAA@XZ 0000000180007690 f i ImageScanner.obj
 0001:000066d0       ??0?$CComPtr@UIPersistStream@@@ATL@@QEAA@XZ 00000001800076d0 f i ImageScanner.obj
 0001:00006710       ??0?$CComPtr@UIPersistStreamInit@@@ATL@@QEAA@XZ 0000000180007710 f i ImageScanner.obj
 0001:00006750       ??0?$CComPtr@UIPointerInactive@@@ATL@@QEAA@XZ 0000000180007750 f i ImageScanner.obj
 0001:00006790       ??0?$CComPtr@UIProvideClassInfo2@@@ATL@@QEAA@XZ 0000000180007790 f i ImageScanner.obj
 0001:000067d0       ??0?$CComPtr@UISpecifyPropertyPages@@@ATL@@QEAA@XZ 00000001800077d0 f i ImageScanner.obj
 0001:00006810       ??0?$CComPtr@UIStream@@@ATL@@QEAA@XZ 0000000180007810 f i ImageScanner.obj
 0001:00006850       ??0?$CComPtr@UITypeInfo2@@@ATL@@QEAA@XZ 0000000180007850 f i ImageScanner.obj
 0001:00006890       ??0?$CComPtr@UITypeInfo@@@ATL@@QEAA@AEBV01@@Z 0000000180007890 f i ImageScanner.obj
 0001:000068d0       ??0?$CComPtr@UITypeInfo@@@ATL@@QEAA@XZ 00000001800078d0 f i ImageScanner.obj
 0001:00006910       ??0?$CComPtr@UITypeLib@@@ATL@@QEAA@XZ 0000000180007910 f i ImageScanner.obj
 0001:00006950       ??0?$CComPtr@UIUnknown@@@ATL@@QEAA@AEBV01@@Z 0000000180007950 f i ImageScanner.obj
 0001:00006990       ??0?$CComPtr@UIUnknown@@@ATL@@QEAA@PEAUIUnknown@@@Z 0000000180007990 f i ImageScanner.obj
 0001:000069d0       ??0?$CComPtr@UIUnknown@@@ATL@@QEAA@XZ 00000001800079d0 f i ImageScanner.obj
 0001:00006a10       ??0?$CComPtr@UIViewObjectEx@@@ATL@@QEAA@XZ 0000000180007a10 f i ImageScanner.obj
 0001:00006a50       ??0?$CComPtrBase@UIAdviseSink@@@ATL@@IEAA@PEAUIAdviseSink@@@Z 0000000180007a50 f i ImageScanner.obj
 0001:00006ab0       ??0?$CComPtrBase@UICatRegister@@@ATL@@IEAA@XZ 0000000180007ab0 f i ImageScanner.obj
 0001:00006ad0       ??0?$CComPtrBase@UIConnectionPoint@@@ATL@@IEAA@XZ 0000000180007ad0 f i ImageScanner.obj
 0001:00006af0       ??0?$CComPtrBase@UIConnectionPointContainer@@@ATL@@IEAA@XZ 0000000180007af0 f i ImageScanner.obj
 0001:00006b10       ??0?$CComPtrBase@UIDataObject@@@ATL@@IEAA@XZ 0000000180007b10 f i ImageScanner.obj
 0001:00006b30       ??0?$CComPtrBase@UIDispatch@@@ATL@@IEAA@XZ 0000000180007b30 f i ImageScanner.obj
 0001:00006b50       ??0?$CComPtrBase@UIOleClientSite@@@ATL@@IEAA@PEAUIOleClientSite@@@Z 0000000180007b50 f i ImageScanner.obj
 0001:00006bb0       ??0?$CComPtrBase@UIOleControlSite@@@ATL@@IEAA@XZ 0000000180007bb0 f i ImageScanner.obj
 0001:00006bd0       ??0?$CComPtrBase@UIOleInPlaceActiveObject@@@ATL@@IEAA@XZ 0000000180007bd0 f i ImageScanner.obj
 0001:00006bf0       ??0?$CComPtrBase@UIOleInPlaceFrame@@@ATL@@IEAA@XZ 0000000180007bf0 f i ImageScanner.obj
 0001:00006c10       ??0?$CComPtrBase@UIOleInPlaceObject@@@ATL@@IEAA@XZ 0000000180007c10 f i ImageScanner.obj
 0001:00006c30       ??0?$CComPtrBase@UIOleInPlaceUIWindow@@@ATL@@IEAA@XZ 0000000180007c30 f i ImageScanner.obj
 0001:00006c50       ??0?$CComPtrBase@UIOleObject@@@ATL@@IEAA@XZ 0000000180007c50 f i ImageScanner.obj
 0001:00006c70       ??0?$CComPtrBase@UIPersistStream@@@ATL@@IEAA@XZ 0000000180007c70 f i ImageScanner.obj
 0001:00006c90       ??0?$CComPtrBase@UIPersistStreamInit@@@ATL@@IEAA@XZ 0000000180007c90 f i ImageScanner.obj
 0001:00006cb0       ??0?$CComPtrBase@UIPointerInactive@@@ATL@@IEAA@XZ 0000000180007cb0 f i ImageScanner.obj
 0001:00006cd0       ??0?$CComPtrBase@UIProvideClassInfo2@@@ATL@@IEAA@XZ 0000000180007cd0 f i ImageScanner.obj
 0001:00006cf0       ??0?$CComPtrBase@UISpecifyPropertyPages@@@ATL@@IEAA@XZ 0000000180007cf0 f i ImageScanner.obj
 0001:00006d10       ??0?$CComPtrBase@UIStream@@@ATL@@IEAA@XZ 0000000180007d10 f i ImageScanner.obj
 0001:00006d30       ??0?$CComPtrBase@UITypeInfo2@@@ATL@@IEAA@XZ 0000000180007d30 f i ImageScanner.obj
 0001:00006d50       ??0?$CComPtrBase@UITypeInfo@@@ATL@@IEAA@PEAUITypeInfo@@@Z 0000000180007d50 f i ImageScanner.obj
 0001:00006db0       ??0?$CComPtrBase@UITypeInfo@@@ATL@@IEAA@XZ 0000000180007db0 f i ImageScanner.obj
 0001:00006dd0       ??0?$CComPtrBase@UITypeLib@@@ATL@@IEAA@XZ 0000000180007dd0 f i ImageScanner.obj
 0001:00006df0       ??0?$CComPtrBase@UIUnknown@@@ATL@@IEAA@PEAUIUnknown@@@Z 0000000180007df0 f i ImageScanner.obj
 0001:00006e50       ??0?$CComPtrBase@UIUnknown@@@ATL@@IEAA@XZ 0000000180007e50 f i ImageScanner.obj
 0001:00006e70       ??0?$CComPtrBase@UIViewObjectEx@@@ATL@@IEAA@XZ 0000000180007e70 f i ImageScanner.obj
 0001:00006e90       ??0?$CComQIPtr@UIOleControlSite@@$1?_GUID_b196b289_bab4_101a_b69c_00aa00341d07@@3U__s_GUID@@B@ATL@@QEAA@PEAUIUnknown@@@Z 0000000180007e90 f i ImageScanner.obj
 0001:00006f00       ??0?$CComQIPtr@UIOleObject@@$1?_GUID_00000112_0000_0000_c000_000000000046@@3U__s_GUID@@B@ATL@@QEAA@XZ 0000000180007f00 f i ImageScanner.obj
 0001:00006f40       ??0?$CComQIPtr@UISpecifyPropertyPages@@$1?_GUID_b196b28b_bab4_101a_b69c_00aa00341d07@@3U__s_GUID@@B@ATL@@QEAA@XZ 0000000180007f40 f i ImageScanner.obj
 0001:00006f80       ??0?$CSimpleMap@PEA_WPEA_WVCExpansionVectorEqualHelper@ATL@@@ATL@@QEAA@XZ 0000000180007f80 f i ImageScanner.obj
 0001:00006fc0       ??0?$CTempBuffer@E$0BAA@VCCRTAllocator@ATL@@@ATL@@QEAA@XZ 0000000180007fc0 f i ImageScanner.obj
 0001:00006fe0       ??0?$CTempBuffer@_W$0BAA@VCCRTAllocator@ATL@@@ATL@@QEAA@XZ 0000000180007fe0 f i ImageScanner.obj
 0001:00007000       ??0?$CTempBuffer@_W$0EAA@VCCRTAllocator@ATL@@@ATL@@QEAA@XZ 0000000180008000 f i ImageScanner.obj
 0001:00007020       ??0?$Wrapper@PEA_W@?$CSimpleMap@PEA_WPEA_WVCExpansionVectorEqualHelper@ATL@@@ATL@@QEAA@AEBQEA_W@Z 0000000180008020 f i ImageScanner.obj
 0001:00007050       ??0CAtlModule@ATL@@QEAA@XZ 0000000180008050 f i ImageScanner.obj
 0001:000071c0       ??0CComAutoDeleteCriticalSection@ATL@@QEAA@XZ 00000001800081c0 f i ImageScanner.obj
 0001:00007200       ??0CComBSTR@ATL@@QEAA@XZ   0000000180008200 f i ImageScanner.obj
 0001:00007220       ??0CComClassFactory@ATL@@QEAA@XZ 0000000180008220 f i ImageScanner.obj
 0001:00007280       ??0CComModule@ATL@@QEAA@XZ 0000000180008280 f i ImageScanner.obj
 0001:00007320       ??0CComObjectRootBase@ATL@@QEAA@XZ 0000000180008320 f i ImageScanner.obj
 0001:00007340       ??0CComSafeDeleteCriticalSection@ATL@@QEAA@XZ 0000000180008340 f i ImageScanner.obj
 0001:00007380       ??0CComVariant@ATL@@QEAA@XZ 0000000180008380 f i ImageScanner.obj
 0001:000073d0       ??0CExpansionVector@ATL@@QEAA@XZ 00000001800083d0 f i ImageScanner.obj
 0001:00007410       ??0CParseBuffer@CRegParser@ATL@@QEAA@H@Z 0000000180008410 f i ImageScanner.obj
 0001:000074a0       ??0CRegKey@ATL@@QEAA@PEAUHKEY__@@@Z 00000001800084a0 f i ImageScanner.obj
 0001:000074e0       ??0CRegKey@ATL@@QEAA@PEAVCAtlTransactionManager@1@@Z 00000001800084e0 f i ImageScanner.obj
 0001:00007520       ??0CRegObject@ATL@@QEAA@XZ 0000000180008520 f i ImageScanner.obj
 0001:00007580       ??0CRegParser@ATL@@QEAA@PEAVCRegObject@1@@Z 0000000180008580 f i ImageScanner.obj
 0001:000075b0       ??0IClassFactory@@QEAA@XZ  00000001800085b0 f i ImageScanner.obj
 0001:000075f0       ??0IEnumConnectionPoints@@QEAA@XZ 00000001800085f0 f i ImageScanner.obj
 0001:00007630       ??0IEnumConnections@@QEAA@XZ 0000000180008630 f i ImageScanner.obj
 0001:00007670       ??0IRegistrarBase@@QEAA@XZ 0000000180008670 f i ImageScanner.obj
 0001:000076b0       ??0IUnknown@@QEAA@XZ       00000001800086b0 f i ImageScanner.obj
 0001:000076c0       ??0ModuleLockHelper@ATL@@QEAA@XZ 00000001800086c0 f i ImageScanner.obj
 0001:00007700       ??0OposVariant@@QEAA@XZ    0000000180008700 f i ImageScanner.obj
 0001:00007720       ??0Wrapper@?$CSimpleArray@GV?$CSimpleArrayEqualHelper@G@ATL@@@ATL@@QEAA@AEBG@Z 0000000180008720 f i ImageScanner.obj
 0001:00007750       ??0_ATL_MODULE70@ATL@@QEAA@XZ 0000000180008750 f i ImageScanner.obj
 0001:00007790       ??0_ATL_MSG@ATL@@QEAA@PEAUHWND__@@I_K_JH@Z 0000000180008790 f i ImageScanner.obj
 0001:00007820       ??0_U_MENUorID@ATL@@QEAA@I@Z 0000000180008820 f i ImageScanner.obj
 0001:00007840       ??0_U_RECT@ATL@@QEAA@AEAUtagRECT@@@Z 0000000180008840 f i ImageScanner.obj
 0001:00007860       ??0stringdispid@CComTypeInfoHolder@ATL@@QEAA@XZ 0000000180008860 f i ImageScanner.obj
 0001:000078b0       ??1?$CAtlModuleT@VCComModule@ATL@@@ATL@@UEAA@XZ 00000001800088b0 f i ImageScanner.obj
 0001:000078e0       ??1?$CAtlSafeAllocBufferManager@VCCRTAllocator@ATL@@@_ATL_SAFE_ALLOCA_IMPL@ATL@@QEAA@XZ 00000001800088e0 f i ImageScanner.obj
 0001:00007940       ??1?$CAutoVectorPtr@_W@ATL@@QEAA@XZ 0000000180008940 f i ImageScanner.obj
 0001:00007970       ??1?$CComAggObject@VCOPOSImageScanner@@@ATL@@UEAA@XZ 0000000180008970 f i ImageScanner.obj
 0001:000079f0       ??1?$CComContainedObject@VCOPOSImageScanner@@@ATL@@UEAA@XZ 00000001800089f0 f i ImageScanner.obj
 0001:00007a20       ??1?$CComCritSecLock@VCComCriticalSection@ATL@@@ATL@@QEAA@XZ 0000000180008a20 f i ImageScanner.obj
 0001:00007a60       ??1?$CComEnum@UIEnumConnectionPoints@@$1?_GUID_b196b285_bab4_101a_b69c_00aa00341d07@@3U__s_GUID@@BPEAUIConnectionPoint@@V?$_CopyInterface@UIConnectionPoint@@@ATL@@VCComSingleThreadModel@6@@ATL@@UEAA@XZ 0000000180008a60 f i ImageScanner.obj
 0001:00007aa0       ??1?$CComEnum@UIEnumConnections@@$1?_GUID_b196b287_bab4_101a_b69c_00aa00341d07@@3U__s_GUID@@BUtagCONNECTDATA@@V?$_Copy@UtagCONNECTDATA@@@ATL@@VCComSingleThreadModel@6@@ATL@@UEAA@XZ 0000000180008aa0 f i ImageScanner.obj
 0001:00007ae0       ??1?$CComEnumImpl@UIEnumConnectionPoints@@$1?_GUID_b196b285_bab4_101a_b69c_00aa00341d07@@3U__s_GUID@@BPEAUIConnectionPoint@@V?$_CopyInterface@UIConnectionPoint@@@ATL@@@ATL@@UEAA@XZ 0000000180008ae0 f i ImageScanner.obj
 0001:00007b80       ??1?$CComEnumImpl@UIEnumConnections@@$1?_GUID_b196b287_bab4_101a_b69c_00aa00341d07@@3U__s_GUID@@BUtagCONNECTDATA@@V?$_Copy@UtagCONNECTDATA@@@ATL@@@ATL@@UEAA@XZ 0000000180008b80 f i ImageScanner.obj
 0001:00007c20       ??1?$CComObject@V?$CComEnum@UIEnumConnectionPoints@@$1?_GUID_b196b285_bab4_101a_b69c_00aa00341d07@@3U__s_GUID@@BPEAUIConnectionPoint@@V?$_CopyInterface@UIConnectionPoint@@@ATL@@VCComSingleThreadModel@6@@ATL@@@ATL@@UEAA@XZ 0000000180008c20 f i ImageScanner.obj
 0001:00007c90       ??1?$CComObject@V?$CComEnum@UIEnumConnections@@$1?_GUID_b196b287_bab4_101a_b69c_00aa00341d07@@3U__s_GUID@@BUtagCONNECTDATA@@V?$_Copy@UtagCONNECTDATA@@@ATL@@VCComSingleThreadModel@6@@ATL@@@ATL@@UEAA@XZ 0000000180008c90 f i ImageScanner.obj
 0001:00007d00       ??1?$CComObject@VCOPOSImageScanner@@@ATL@@UEAA@XZ 0000000180008d00 f i ImageScanner.obj
 0001:00007eb0       ??1?$CComObjectCached@VCComClassFactory@ATL@@@ATL@@UEAA@XZ 0000000180008eb0 f i ImageScanner.obj
 0001:00007f10       ??1?$CComObjectRootEx@VCComMultiThreadModel@ATL@@@ATL@@QEAA@XZ 0000000180008f10 f i ImageScanner.obj
 0001:00007f50       ??1?$CComObjectRootEx@VCComSingleThreadModel@ATL@@@ATL@@QEAA@XZ 0000000180008f50 f i ImageScanner.obj
 0001:00007f80       ??1?$CComPtr@UIAdviseSink@@@ATL@@QEAA@XZ 0000000180008f80 f i ImageScanner.obj
 0001:00007fb0       ??1?$CComPtr@UICatRegister@@@ATL@@QEAA@XZ 0000000180008fb0 f i ImageScanner.obj
 0001:00007fe0       ??1?$CComPtr@UIConnectionPoint@@@ATL@@QEAA@XZ 0000000180008fe0 f i ImageScanner.obj
 0001:00008010       ??1?$CComPtr@UIConnectionPointContainer@@@ATL@@QEAA@XZ 0000000180009010 f i ImageScanner.obj
 0001:00008040       ??1?$CComPtr@UIDataObject@@@ATL@@QEAA@XZ 0000000180009040 f i ImageScanner.obj
 0001:00008070       ??1?$CComPtr@UIDispatch@@@ATL@@QEAA@XZ 0000000180009070 f i ImageScanner.obj
 0001:000080a0       ??1?$CComPtr@UIOleClientSite@@@ATL@@QEAA@XZ 00000001800090a0 f i ImageScanner.obj
 0001:000080d0       ??1?$CComPtr@UIOleControlSite@@@ATL@@QEAA@XZ 00000001800090d0 f i ImageScanner.obj
 0001:00008100       ??1?$CComPtr@UIOleInPlaceActiveObject@@@ATL@@QEAA@XZ 0000000180009100 f i ImageScanner.obj
 0001:00008130       ??1?$CComPtr@UIOleInPlaceFrame@@@ATL@@QEAA@XZ 0000000180009130 f i ImageScanner.obj
 0001:00008160       ??1?$CComPtr@UIOleInPlaceObject@@@ATL@@QEAA@XZ 0000000180009160 f i ImageScanner.obj
 0001:00008190       ??1?$CComPtr@UIOleInPlaceUIWindow@@@ATL@@QEAA@XZ 0000000180009190 f i ImageScanner.obj
 0001:000081c0       ??1?$CComPtr@UIOleObject@@@ATL@@QEAA@XZ 00000001800091c0 f i ImageScanner.obj
 0001:000081f0       ??1?$CComPtr@UIPersistStream@@@ATL@@QEAA@XZ 00000001800091f0 f i ImageScanner.obj
 0001:00008220       ??1?$CComPtr@UIPersistStreamInit@@@ATL@@QEAA@XZ 0000000180009220 f i ImageScanner.obj
 0001:00008250       ??1?$CComPtr@UIPointerInactive@@@ATL@@QEAA@XZ 0000000180009250 f i ImageScanner.obj
 0001:00008280       ??1?$CComPtr@UIProvideClassInfo2@@@ATL@@QEAA@XZ 0000000180009280 f i ImageScanner.obj
 0001:000082b0       ??1?$CComPtr@UISpecifyPropertyPages@@@ATL@@QEAA@XZ 00000001800092b0 f i ImageScanner.obj
 0001:000082e0       ??1?$CComPtr@UIStream@@@ATL@@QEAA@XZ 00000001800092e0 f i ImageScanner.obj
 0001:00008310       ??1?$CComPtr@UITypeInfo2@@@ATL@@QEAA@XZ 0000000180009310 f i ImageScanner.obj
 0001:00008340       ??1?$CComPtr@UITypeInfo@@@ATL@@QEAA@XZ 0000000180009340 f i ImageScanner.obj
 0001:00008370       ??1?$CComPtr@UITypeLib@@@ATL@@QEAA@XZ 0000000180009370 f i ImageScanner.obj
 0001:000083a0       ??1?$CComPtr@UIUnknown@@@ATL@@QEAA@XZ 00000001800093a0 f i ImageScanner.obj
 0001:000083d0       ??1?$CComPtr@UIViewObjectEx@@@ATL@@QEAA@XZ 00000001800093d0 f i ImageScanner.obj
 0001:00008400       ??1?$CComPtrBase@UIAdviseSink@@@ATL@@QEAA@XZ 0000000180009400 f i ImageScanner.obj
 0001:00008450       ??1?$CComPtrBase@UICatRegister@@@ATL@@QEAA@XZ 0000000180009450 f i ImageScanner.obj
 0001:000084a0       ??1?$CComPtrBase@UIConnectionPoint@@@ATL@@QEAA@XZ 00000001800094a0 f i ImageScanner.obj
 0001:000084f0       ??1?$CComPtrBase@UIConnectionPointContainer@@@ATL@@QEAA@XZ 00000001800094f0 f i ImageScanner.obj
 0001:00008540       ??1?$CComPtrBase@UIDataObject@@@ATL@@QEAA@XZ 0000000180009540 f i ImageScanner.obj
 0001:00008590       ??1?$CComPtrBase@UIDispatch@@@ATL@@QEAA@XZ 0000000180009590 f i ImageScanner.obj
 0001:000085e0       ??1?$CComPtrBase@UIOleClientSite@@@ATL@@QEAA@XZ 00000001800095e0 f i ImageScanner.obj
 0001:00008630       ??1?$CComPtrBase@UIOleControlSite@@@ATL@@QEAA@XZ 0000000180009630 f i ImageScanner.obj
 0001:00008680       ??1?$CComPtrBase@UIOleInPlaceActiveObject@@@ATL@@QEAA@XZ 0000000180009680 f i ImageScanner.obj
 0001:000086d0       ??1?$CComPtrBase@UIOleInPlaceFrame@@@ATL@@QEAA@XZ 00000001800096d0 f i ImageScanner.obj
 0001:00008720       ??1?$CComPtrBase@UIOleInPlaceObject@@@ATL@@QEAA@XZ 0000000180009720 f i ImageScanner.obj
 0001:00008770       ??1?$CComPtrBase@UIOleInPlaceUIWindow@@@ATL@@QEAA@XZ 0000000180009770 f i ImageScanner.obj
 0001:000087c0       ??1?$CComPtrBase@UIOleObject@@@ATL@@QEAA@XZ 00000001800097c0 f i ImageScanner.obj
 0001:00008810       ??1?$CComPtrBase@UIPersistStream@@@ATL@@QEAA@XZ 0000000180009810 f i ImageScanner.obj
 0001:00008860       ??1?$CComPtrBase@UIPersistStreamInit@@@ATL@@QEAA@XZ 0000000180009860 f i ImageScanner.obj
 0001:000088b0       ??1?$CComPtrBase@UIPointerInactive@@@ATL@@QEAA@XZ 00000001800098b0 f i ImageScanner.obj
 0001:00008900       ??1?$CComPtrBase@UIProvideClassInfo2@@@ATL@@QEAA@XZ 0000000180009900 f i ImageScanner.obj
 0001:00008950       ??1?$CComPtrBase@UISpecifyPropertyPages@@@ATL@@QEAA@XZ 0000000180009950 f i ImageScanner.obj
 0001:000089a0       ??1?$CComPtrBase@UIStream@@@ATL@@QEAA@XZ 00000001800099a0 f i ImageScanner.obj
 0001:000089f0       ??1?$CComPtrBase@UITypeInfo2@@@ATL@@QEAA@XZ 00000001800099f0 f i ImageScanner.obj
 0001:00008a40       ??1?$CComPtrBase@UITypeInfo@@@ATL@@QEAA@XZ 0000000180009a40 f i ImageScanner.obj
 0001:00008a90       ??1?$CComPtrBase@UITypeLib@@@ATL@@QEAA@XZ 0000000180009a90 f i ImageScanner.obj
 0001:00008ae0       ??1?$CComPtrBase@UIUnknown@@@ATL@@QEAA@XZ 0000000180009ae0 f i ImageScanner.obj
 0001:00008b30       ??1?$CComPtrBase@UIViewObjectEx@@@ATL@@QEAA@XZ 0000000180009b30 f i ImageScanner.obj
 0001:00008b80       ??1?$CComQIPtr@UIOleControlSite@@$1?_GUID_b196b289_bab4_101a_b69c_00aa00341d07@@3U__s_GUID@@B@ATL@@QEAA@XZ 0000000180009b80 f i ImageScanner.obj
 0001:00008bb0       ??1?$CComQIPtr@UIOleObject@@$1?_GUID_00000112_0000_0000_c000_000000000046@@3U__s_GUID@@B@ATL@@QEAA@XZ 0000000180009bb0 f i ImageScanner.obj
 0001:00008be0       ??1?$CComQIPtr@UISpecifyPropertyPages@@$1?_GUID_b196b28b_bab4_101a_b69c_00aa00341d07@@3U__s_GUID@@B@ATL@@QEAA@XZ 0000000180009be0 f i ImageScanner.obj
 0001:00008c10       ??1?$CSimpleMap@PEA_WPEA_WVCExpansionVectorEqualHelper@ATL@@@ATL@@QEAA@XZ 0000000180009c10 f i ImageScanner.obj
 0001:00008c40       ??1?$CTempBuffer@E$0BAA@VCCRTAllocator@ATL@@@ATL@@QEAA@XZ 0000000180009c40 f i ImageScanner.obj
 0001:00008c90       ??1?$CTempBuffer@_W$0BAA@VCCRTAllocator@ATL@@@ATL@@QEAA@XZ 0000000180009c90 f i ImageScanner.obj
 0001:00008ce0       ??1?$CTempBuffer@_W$0EAA@VCCRTAllocator@ATL@@@ATL@@QEAA@XZ 0000000180009ce0 f i ImageScanner.obj
 0001:00008d30       ??1CAtlModule@ATL@@UEAA@XZ 0000000180009d30 f i ImageScanner.obj
 0001:00008d70       ??1CComAutoDeleteCriticalSection@ATL@@QEAA@XZ 0000000180009d70 f i ImageScanner.obj
 0001:00008da0       ??1CComClassFactory@ATL@@UEAA@XZ 0000000180009da0 f i ImageScanner.obj
 0001:00008df0       ??1CComModule@ATL@@UEAA@XZ 0000000180009df0 f i ImageScanner.obj
 0001:00008e30       ??1CComObjectRootBase@ATL@@QEAA@XZ 0000000180009e30 f i ImageScanner.obj
 0001:00008e40       ??1CComSafeDeleteCriticalSection@ATL@@QEAA@XZ 0000000180009e40 f i ImageScanner.obj
 0001:00008e90       ??1CComVariant@ATL@@QEAA@XZ 0000000180009e90 f i ImageScanner.obj
 0001:00008f10       ??1CExpansionVector@ATL@@QEAA@XZ 0000000180009f10 f i ImageScanner.obj
 0001:00008f50       ??1CParseBuffer@CRegParser@ATL@@QEAA@XZ 0000000180009f50 f i ImageScanner.obj
 0001:00008f90       ??1CRegKey@ATL@@QEAA@XZ    0000000180009f90 f i ImageScanner.obj
 0001:00008fc0       ??1CRegObject@ATL@@UEAA@XZ 0000000180009fc0 f i ImageScanner.obj
 0001:00009010       ??1ModuleLockHelper@ATL@@QEAA@XZ 000000018000a010 f i ImageScanner.obj
 0001:00009050       ??1OposVariant@@QEAA@XZ    000000018000a050 f i ImageScanner.obj
 0001:00009090       ??1_ATL_MODULE70@ATL@@QEAA@XZ 000000018000a090 f i ImageScanner.obj
 0001:000090d0       ??4?$CComPtr@UIAdviseSink@@@ATL@@QEAAPEAUIAdviseSink@@PEAU2@@Z 000000018000a0d0 f i ImageScanner.obj
 0001:00009140       ??4?$CComPtr@UIOleClientSite@@@ATL@@QEAAPEAUIOleClientSite@@PEAU2@@Z 000000018000a140 f i ImageScanner.obj
 0001:000091b0       ??4?$CComPtr@UIUnknown@@@ATL@@QEAAPEAUIUnknown@@PEAU2@@Z 000000018000a1b0 f i ImageScanner.obj
 0001:00009220       ??4?$CComQIPtr@UIOleObject@@$1?_GUID_00000112_0000_0000_c000_000000000046@@3U__s_GUID@@B@ATL@@QEAAPEAUIOleObject@@PEAUIUnknown@@@Z 000000018000a220 f i ImageScanner.obj
 0001:00009280       ??4?$CComQIPtr@UISpecifyPropertyPages@@$1?_GUID_b196b28b_bab4_101a_b69c_00aa00341d07@@3U__s_GUID@@B@ATL@@QEAAPEAUISpecifyPropertyPages@@PEAUIUnknown@@@Z 000000018000a280 f i ImageScanner.obj
 0001:000092e0       ??7?$CComPtrBase@UIOleClientSite@@@ATL@@QEBA_NXZ 000000018000a2e0 f i ImageScanner.obj
 0001:00009330       ??7?$CComPtrBase@UIOleInPlaceSiteWindowless@@@ATL@@QEBA_NXZ 000000018000a330 f i ImageScanner.obj
 0001:00009380       ??7CComBSTR@ATL@@QEBA_NXZ  000000018000a380 f i ImageScanner.obj
 0001:000093d0       ??8?$CComPtrBase@UIAdviseSink@@@ATL@@QEBA_NPEAUIAdviseSink@@@Z 000000018000a3d0 f i ImageScanner.obj
 0001:00009420       ??8?$CComPtrBase@UIConnectionPointContainer@@@ATL@@QEBA_NPEAUIConnectionPointContainer@@@Z 000000018000a420 f i ImageScanner.obj
 0001:00009470       ??8?$CComPtrBase@UIDataAdviseHolder@@@ATL@@QEBA_NPEAUIDataAdviseHolder@@@Z 000000018000a470 f i ImageScanner.obj
 0001:000094c0       ??8?$CComPtrBase@UIOleAdviseHolder@@@ATL@@QEBA_NPEAUIOleAdviseHolder@@@Z 000000018000a4c0 f i ImageScanner.obj
 0001:00009510       ??8?$CComPtrBase@UIOleClientSite@@@ATL@@QEBA_NPEAUIOleClientSite@@@Z 000000018000a510 f i ImageScanner.obj
 0001:00009560       ??8?$CComPtrBase@UIOleControlSite@@@ATL@@QEBA_NPEAUIOleControlSite@@@Z 000000018000a560 f i ImageScanner.obj
 0001:000095b0       ??8?$CComPtrBase@UIOleInPlaceObject@@@ATL@@QEBA_NPEAUIOleInPlaceObject@@@Z 000000018000a5b0 f i ImageScanner.obj
 0001:00009600       ??8?$CComPtrBase@UIOleInPlaceSiteWindowless@@@ATL@@QEBA_NPEAUIOleInPlaceSiteWindowless@@@Z 000000018000a600 f i ImageScanner.obj
 0001:00009650       ??8?$CComPtrBase@UIOleObject@@@ATL@@QEBA_NPEAUIOleObject@@@Z 000000018000a650 f i ImageScanner.obj
 0001:000096a0       ??8?$CComPtrBase@UIPersistStream@@@ATL@@QEBA_NPEAUIPersistStream@@@Z 000000018000a6a0 f i ImageScanner.obj
 0001:000096f0       ??8?$CComPtrBase@UIPersistStreamInit@@@ATL@@QEBA_NPEAUIPersistStreamInit@@@Z 000000018000a6f0 f i ImageScanner.obj
 0001:00009740       ??8?$CComPtrBase@UIPointerInactive@@@ATL@@QEBA_NPEAUIPointerInactive@@@Z 000000018000a740 f i ImageScanner.obj
 0001:00009790       ??8?$CComPtrBase@UIUnknown@@@ATL@@QEBA_NPEAUIUnknown@@@Z 000000018000a790 f i ImageScanner.obj
 0001:000097e0       ??8?$CComPtrBase@UIViewObjectEx@@@ATL@@QEBA_NPEAUIViewObjectEx@@@Z 000000018000a7e0 f i ImageScanner.obj
 0001:00009830       ??8CComBSTR@ATL@@QEBA_NH@Z 000000018000a830 f i ImageScanner.obj
 0001:000098b0       ??9?$CComPtrBase@UIAdviseSink@@@ATL@@QEBA_NPEAUIAdviseSink@@@Z 000000018000a8b0 f i ImageScanner.obj
 0001:00009910       ??9?$CComPtrBase@UIConnectionPointContainer@@@ATL@@QEBA_NPEAUIConnectionPointContainer@@@Z 000000018000a910 f i ImageScanner.obj
 0001:00009970       ??9?$CComPtrBase@UIDataAdviseHolder@@@ATL@@QEBA_NPEAUIDataAdviseHolder@@@Z 000000018000a970 f i ImageScanner.obj
 0001:000099d0       ??9?$CComPtrBase@UIOleAdviseHolder@@@ATL@@QEBA_NPEAUIOleAdviseHolder@@@Z 000000018000a9d0 f i ImageScanner.obj
 0001:00009a30       ??9?$CComPtrBase@UIOleClientSite@@@ATL@@QEBA_NPEAUIOleClientSite@@@Z 000000018000aa30 f i ImageScanner.obj
 0001:00009a90       ??9?$CComPtrBase@UIOleControlSite@@@ATL@@QEBA_NPEAUIOleControlSite@@@Z 000000018000aa90 f i ImageScanner.obj
 0001:00009af0       ??9?$CComPtrBase@UIOleInPlaceObject@@@ATL@@QEBA_NPEAUIOleInPlaceObject@@@Z 000000018000aaf0 f i ImageScanner.obj
 0001:00009b50       ??9?$CComPtrBase@UIOleInPlaceSiteWindowless@@@ATL@@QEBA_NPEAUIOleInPlaceSiteWindowless@@@Z 000000018000ab50 f i ImageScanner.obj
 0001:00009bb0       ??9?$CComPtrBase@UIOleObject@@@ATL@@QEBA_NPEAUIOleObject@@@Z 000000018000abb0 f i ImageScanner.obj
 0001:00009c10       ??9?$CComPtrBase@UIPersistStream@@@ATL@@QEBA_NPEAUIPersistStream@@@Z 000000018000ac10 f i ImageScanner.obj
 0001:00009c70       ??9?$CComPtrBase@UIPersistStreamInit@@@ATL@@QEBA_NPEAUIPersistStreamInit@@@Z 000000018000ac70 f i ImageScanner.obj
 0001:00009cd0       ??9?$CComPtrBase@UIPointerInactive@@@ATL@@QEBA_NPEAUIPointerInactive@@@Z 000000018000acd0 f i ImageScanner.obj
 0001:00009d30       ??9?$CComPtrBase@UIUnknown@@@ATL@@QEBA_NPEAUIUnknown@@@Z 000000018000ad30 f i ImageScanner.obj
 0001:00009d90       ??9?$CComPtrBase@UIViewObjectEx@@@ATL@@QEBA_NPEAUIViewObjectEx@@@Z 000000018000ad90 f i ImageScanner.obj
 0001:00009df0       ??9CComBSTR@ATL@@QEBA_NH@Z 000000018000adf0 f i ImageScanner.obj
 0001:00009e50       ??B?$CComPtrBase@UIAdviseSink@@@ATL@@QEBAPEAUIAdviseSink@@XZ 000000018000ae50 f i ImageScanner.obj
 0001:00009e60       ??B?$CComPtrBase@UIDataAdviseHolder@@@ATL@@QEBAPEAUIDataAdviseHolder@@XZ 000000018000ae60 f i ImageScanner.obj
 0001:00009e70       ??B?$CComPtrBase@UIDataObject@@@ATL@@QEBAPEAUIDataObject@@XZ 000000018000ae70 f i ImageScanner.obj
 0001:00009e80       ??B?$CComPtrBase@UIOleAdviseHolder@@@ATL@@QEBAPEAUIOleAdviseHolder@@XZ 000000018000ae80 f i ImageScanner.obj
 0001:00009e90       ??B?$CComPtrBase@UIOleClientSite@@@ATL@@QEBAPEAUIOleClientSite@@XZ 000000018000ae90 f i ImageScanner.obj
 0001:00009ea0       ??B?$CComPtrBase@UIOleControlSite@@@ATL@@QEBAPEAUIOleControlSite@@XZ 000000018000aea0 f i ImageScanner.obj
 0001:00009eb0       ??B?$CComPtrBase@UIOleInPlaceActiveObject@@@ATL@@QEBAPEAUIOleInPlaceActiveObject@@XZ 000000018000aeb0 f i ImageScanner.obj
 0001:00009ec0       ??B?$CComPtrBase@UIOleInPlaceFrame@@@ATL@@QEBAPEAUIOleInPlaceFrame@@XZ 000000018000aec0 f i ImageScanner.obj
 0001:00009ed0       ??B?$CComPtrBase@UIOleInPlaceSiteWindowless@@@ATL@@QEBAPEAUIOleInPlaceSiteWindowless@@XZ 000000018000aed0 f i ImageScanner.obj
 0001:00009ee0       ??B?$CComPtrBase@UIOleInPlaceUIWindow@@@ATL@@QEBAPEAUIOleInPlaceUIWindow@@XZ 000000018000aee0 f i ImageScanner.obj
 0001:00009ef0       ??B?$CComPtrBase@UIOleObject@@@ATL@@QEBAPEAUIOleObject@@XZ 000000018000aef0 f i ImageScanner.obj
 0001:00009f00       ??B?$CComPtrBase@UIPersistStream@@@ATL@@QEBAPEAUIPersistStream@@XZ 000000018000af00 f i ImageScanner.obj
 0001:00009f10       ??B?$CComPtrBase@UIProvideClassInfo2@@@ATL@@QEBAPEAUIProvideClassInfo2@@XZ 000000018000af10 f i ImageScanner.obj
 0001:00009f20       ??B?$CComPtrBase@UISpecifyPropertyPages@@@ATL@@QEBAPEAUISpecifyPropertyPages@@XZ 000000018000af20 f i ImageScanner.obj
 0001:00009f30       ??B?$CComPtrBase@UIStream@@@ATL@@QEBAPEAUIStream@@XZ 000000018000af30 f i ImageScanner.obj
 0001:00009f40       ??B?$CComPtrBase@UITypeInfo2@@@ATL@@QEBAPEAUITypeInfo2@@XZ 000000018000af40 f i ImageScanner.obj
 0001:00009f50       ??B?$CComPtrBase@UITypeInfo@@@ATL@@QEBAPEAUITypeInfo@@XZ 000000018000af50 f i ImageScanner.obj
 0001:00009f60       ??B?$CComPtrBase@UITypeLib@@@ATL@@QEBAPEAUITypeLib@@XZ 000000018000af60 f i ImageScanner.obj
 0001:00009f70       ??B?$CComPtrBase@UIUnknown@@@ATL@@QEBAPEAUIUnknown@@XZ 000000018000af70 f i ImageScanner.obj
 0001:00009f80       ??B?$CTempBuffer@E$0BAA@VCCRTAllocator@ATL@@@ATL@@QEBAPEAEXZ 000000018000af80 f i ImageScanner.obj
 0001:00009f90       ??B?$CTempBuffer@_W$0BAA@VCCRTAllocator@ATL@@@ATL@@QEBAPEA_WXZ 000000018000af90 f i ImageScanner.obj
 0001:00009fa0       ??B?$CTempBuffer@_W$0EAA@VCCRTAllocator@ATL@@@ATL@@QEBAPEA_WXZ 000000018000afa0 f i ImageScanner.obj
 0001:00009fb0       ??B?$CTraceCategoryEx@$00$0A@@ATL@@QEAAIXZ 000000018000afb0 f i ImageScanner.obj
 0001:00009fc0       ??B?$CTraceCategoryEx@$07$0A@@ATL@@QEAAIXZ 000000018000afc0 f i ImageScanner.obj
 0001:00009fd0       ??B?$CTraceCategoryEx@$0CAAA@$0A@@ATL@@QEAAIXZ 000000018000afd0 f i ImageScanner.obj
 0001:00009fe0       ??B?$CTraceCategoryEx@$0EA@$0A@@ATL@@QEAAIXZ 000000018000afe0 f i ImageScanner.obj
 0001:00009ff0       ??B?$CTraceCategoryEx@$0IAA@$0A@@ATL@@QEAAIXZ 000000018000aff0 f i ImageScanner.obj
 0001:0000a000       ??BCComBSTR@ATL@@QEBAPEA_WXZ 000000018000b000 f i ImageScanner.obj
 0001:0000a010       ??BCRegKey@ATL@@QEBAPEAUHKEY__@@XZ 000000018000b010 f i ImageScanner.obj
 0001:0000a020       ??C?$CComPtrBase@UIAdviseSink@@@ATL@@QEBAPEAV?$_NoAddRefReleaseOnCComPtr@UIAdviseSink@@@1@XZ 000000018000b020 f i ImageScanner.obj
 0001:0000a0a0       ??C?$CComPtrBase@UICatRegister@@@ATL@@QEBAPEAV?$_NoAddRefReleaseOnCComPtr@UICatRegister@@@1@XZ 000000018000b0a0 f i ImageScanner.obj
 0001:0000a120       ??C?$CComPtrBase@UIConnectionPoint@@@ATL@@QEBAPEAV?$_NoAddRefReleaseOnCComPtr@UIConnectionPoint@@@1@XZ 000000018000b120 f i ImageScanner.obj
 0001:0000a1a0       ??C?$CComPtrBase@UIConnectionPointContainer@@@ATL@@QEBAPEAV?$_NoAddRefReleaseOnCComPtr@UIConnectionPointContainer@@@1@XZ 000000018000b1a0 f i ImageScanner.obj
 0001:0000a220       ??C?$CComPtrBase@UIDataAdviseHolder@@@ATL@@QEBAPEAV?$_NoAddRefReleaseOnCComPtr@UIDataAdviseHolder@@@1@XZ 000000018000b220 f i ImageScanner.obj
 0001:0000a2a0       ??C?$CComPtrBase@UIOleAdviseHolder@@@ATL@@QEBAPEAV?$_NoAddRefReleaseOnCComPtr@UIOleAdviseHolder@@@1@XZ 000000018000b2a0 f i ImageScanner.obj
 0001:0000a320       ??C?$CComPtrBase@UIOleClientSite@@@ATL@@QEBAPEAV?$_NoAddRefReleaseOnCComPtr@UIOleClientSite@@@1@XZ 000000018000b320 f i ImageScanner.obj
 0001:0000a3a0       ??C?$CComPtrBase@UIOleControlSite@@@ATL@@QEBAPEAV?$_NoAddRefReleaseOnCComPtr@UIOleControlSite@@@1@XZ 000000018000b3a0 f i ImageScanner.obj
 0001:0000a420       ??C?$CComPtrBase@UIOleInPlaceFrame@@@ATL@@QEBAPEAV?$_NoAddRefReleaseOnCComPtr@UIOleInPlaceFrame@@@1@XZ 000000018000b420 f i ImageScanner.obj
 0001:0000a4a0       ??C?$CComPtrBase@UIOleInPlaceObject@@@ATL@@QEBAPEAV?$_NoAddRefReleaseOnCComPtr@UIOleInPlaceObject@@@1@XZ 000000018000b4a0 f i ImageScanner.obj
 0001:0000a520       ??C?$CComPtrBase@UIOleInPlaceSiteWindowless@@@ATL@@QEBAPEAV?$_NoAddRefReleaseOnCComPtr@UIOleInPlaceSiteWindowless@@@1@XZ 000000018000b520 f i ImageScanner.obj
 0001:0000a5a0       ??C?$CComPtrBase@UIOleInPlaceUIWindow@@@ATL@@QEBAPEAV?$_NoAddRefReleaseOnCComPtr@UIOleInPlaceUIWindow@@@1@XZ 000000018000b5a0 f i ImageScanner.obj
 0001:0000a620       ??C?$CComPtrBase@UIOleObject@@@ATL@@QEBAPEAV?$_NoAddRefReleaseOnCComPtr@UIOleObject@@@1@XZ 000000018000b620 f i ImageScanner.obj
 0001:0000a6a0       ??C?$CComPtrBase@UIPersistStream@@@ATL@@QEBAPEAV?$_NoAddRefReleaseOnCComPtr@UIPersistStream@@@1@XZ 000000018000b6a0 f i ImageScanner.obj
 0001:0000a720       ??C?$CComPtrBase@UIPersistStreamInit@@@ATL@@QEBAPEAV?$_NoAddRefReleaseOnCComPtr@UIPersistStreamInit@@@1@XZ 000000018000b720 f i ImageScanner.obj
 0001:0000a7a0       ??C?$CComPtrBase@UIPointerInactive@@@ATL@@QEBAPEAV?$_NoAddRefReleaseOnCComPtr@UIPointerInactive@@@1@XZ 000000018000b7a0 f i ImageScanner.obj
 0001:0000a820       ??C?$CComPtrBase@UIProvideClassInfo2@@@ATL@@QEBAPEAV?$_NoAddRefReleaseOnCComPtr@UIProvideClassInfo2@@@1@XZ 000000018000b820 f i ImageScanner.obj
 0001:0000a8a0       ??C?$CComPtrBase@UISpecifyPropertyPages@@@ATL@@QEBAPEAV?$_NoAddRefReleaseOnCComPtr@UISpecifyPropertyPages@@@1@XZ 000000018000b8a0 f i ImageScanner.obj
 0001:0000a920       ??C?$CComPtrBase@UITypeInfo@@@ATL@@QEBAPEAV?$_NoAddRefReleaseOnCComPtr@UITypeInfo@@@1@XZ 000000018000b920 f i ImageScanner.obj
 0001:0000a9a0       ??C?$CComPtrBase@UITypeLib@@@ATL@@QEBAPEAV?$_NoAddRefReleaseOnCComPtr@UITypeLib@@@1@XZ 000000018000b9a0 f i ImageScanner.obj
 0001:0000aa20       ??C?$CComPtrBase@UIUnknown@@@ATL@@QEBAPEAV?$_NoAddRefReleaseOnCComPtr@UIUnknown@@@1@XZ 000000018000ba20 f i ImageScanner.obj
 0001:0000aaa0       ??C?$CComPtrBase@UIViewObjectEx@@@ATL@@QEBAPEAV?$_NoAddRefReleaseOnCComPtr@UIViewObjectEx@@@1@XZ 000000018000baa0 f i ImageScanner.obj
 0001:0000ab20       ??I?$CComPtrBase@UICatRegister@@@ATL@@QEAAPEAPEAUICatRegister@@XZ 000000018000bb20 f i ImageScanner.obj
 0001:0000ab90       ??I?$CComPtrBase@UIConnectionPoint@@@ATL@@QEAAPEAPEAUIConnectionPoint@@XZ 000000018000bb90 f i ImageScanner.obj
 0001:0000ac00       ??I?$CComPtrBase@UIConnectionPointContainer@@@ATL@@QEAAPEAPEAUIConnectionPointContainer@@XZ 000000018000bc00 f i ImageScanner.obj
 0001:0000ac70       ??I?$CComPtrBase@UIDataAdviseHolder@@@ATL@@QEAAPEAPEAUIDataAdviseHolder@@XZ 000000018000bc70 f i ImageScanner.obj
 0001:0000ace0       ??I?$CComPtrBase@UIDataObject@@@ATL@@QEAAPEAPEAUIDataObject@@XZ 000000018000bce0 f i ImageScanner.obj
 0001:0000ad50       ??I?$CComPtrBase@UIDispatch@@@ATL@@QEAAPEAPEAUIDispatch@@XZ 000000018000bd50 f i ImageScanner.obj
 0001:0000adc0       ??I?$CComPtrBase@UIOleAdviseHolder@@@ATL@@QEAAPEAPEAUIOleAdviseHolder@@XZ 000000018000bdc0 f i ImageScanner.obj
 0001:0000ae30       ??I?$CComPtrBase@UIOleControlSite@@@ATL@@QEAAPEAPEAUIOleControlSite@@XZ 000000018000be30 f i ImageScanner.obj
 0001:0000aea0       ??I?$CComPtrBase@UIOleInPlaceActiveObject@@@ATL@@QEAAPEAPEAUIOleInPlaceActiveObject@@XZ 000000018000bea0 f i ImageScanner.obj
 0001:0000af10       ??I?$CComPtrBase@UIOleInPlaceFrame@@@ATL@@QEAAPEAPEAUIOleInPlaceFrame@@XZ 000000018000bf10 f i ImageScanner.obj
 0001:0000af80       ??I?$CComPtrBase@UIOleInPlaceObject@@@ATL@@QEAAPEAPEAUIOleInPlaceObject@@XZ 000000018000bf80 f i ImageScanner.obj
 0001:0000aff0       ??I?$CComPtrBase@UIOleInPlaceSiteWindowless@@@ATL@@QEAAPEAPEAUIOleInPlaceSiteWindowless@@XZ 000000018000bff0 f i ImageScanner.obj
 0001:0000b060       ??I?$CComPtrBase@UIOleInPlaceUIWindow@@@ATL@@QEAAPEAPEAUIOleInPlaceUIWindow@@XZ 000000018000c060 f i ImageScanner.obj
 0001:0000b0d0       ??I?$CComPtrBase@UIOleObject@@@ATL@@QEAAPEAPEAUIOleObject@@XZ 000000018000c0d0 f i ImageScanner.obj
 0001:0000b140       ??I?$CComPtrBase@UIPersistStream@@@ATL@@QEAAPEAPEAUIPersistStream@@XZ 000000018000c140 f i ImageScanner.obj
 0001:0000b1b0       ??I?$CComPtrBase@UIPointerInactive@@@ATL@@QEAAPEAPEAUIPointerInactive@@XZ 000000018000c1b0 f i ImageScanner.obj
 0001:0000b220       ??I?$CComPtrBase@UIProvideClassInfo2@@@ATL@@QEAAPEAPEAUIProvideClassInfo2@@XZ 000000018000c220 f i ImageScanner.obj
 0001:0000b290       ??I?$CComPtrBase@UIStream@@@ATL@@QEAAPEAPEAUIStream@@XZ 000000018000c290 f i ImageScanner.obj
 0001:0000b300       ??I?$CComPtrBase@UITypeInfo2@@@ATL@@QEAAPEAPEAUITypeInfo2@@XZ 000000018000c300 f i ImageScanner.obj
 0001:0000b370       ??I?$CComPtrBase@UITypeInfo@@@ATL@@QEAAPEAPEAUITypeInfo@@XZ 000000018000c370 f i ImageScanner.obj
 0001:0000b3e0       ??I?$CComPtrBase@UITypeLib@@@ATL@@QEAAPEAPEAUITypeLib@@XZ 000000018000c3e0 f i ImageScanner.obj
 0001:0000b450       ??I?$CComPtrBase@UIUnknown@@@ATL@@QEAAPEAPEAUIUnknown@@XZ 000000018000c450 f i ImageScanner.obj
 0001:0000b4c0       ??I?$CComPtrBase@UIViewObjectEx@@@ATL@@QEAAPEAPEAUIViewObjectEx@@XZ 000000018000c4c0 f i ImageScanner.obj
 0001:0000b530       ??ICComBSTR@ATL@@QEAAPEAPEA_WXZ 000000018000c530 f i ImageScanner.obj
 0001:0000b540       ??_E?$CComContainedObject@VCOPOSImageScanner@@@ATL@@W7EAAPEAXI@Z 000000018000c540 f i ImageScanner.obj
 0001:0000b54c       ??_E?$CComContainedObject@VCOPOSImageScanner@@@ATL@@WHA@EAAPEAXI@Z 000000018000c54c f i ImageScanner.obj
 0001:0000b558       ??_E?$CComObject@VCOPOSImageScanner@@@ATL@@W7EAAPEAXI@Z 000000018000c558 f i ImageScanner.obj
 0001:0000b564       ??_E?$CComObject@VCOPOSImageScanner@@@ATL@@WHA@EAAPEAXI@Z 000000018000c564 f i ImageScanner.obj
 0001:0000b570       ??_E?$CComAggObject@VCOPOSImageScanner@@@ATL@@UEAAPEAXI@Z 000000018000c570 f i ImageScanner.obj
 0001:0000b570       ??_G?$CComAggObject@VCOPOSImageScanner@@@ATL@@UEAAPEAXI@Z 000000018000c570 f i ImageScanner.obj
 0001:0000b5d0       ??_G?$CComContainedObject@VCOPOSImageScanner@@@ATL@@UEAAPEAXI@Z 000000018000c5d0 f i ImageScanner.obj
 0001:0000b5d0       ??_E?$CComContainedObject@VCOPOSImageScanner@@@ATL@@UEAAPEAXI@Z 000000018000c5d0 f i ImageScanner.obj
 0001:0000b630       ??_E?$CComObject@V?$CComEnum@UIEnumConnectionPoints@@$1?_GUID_b196b285_bab4_101a_b69c_00aa00341d07@@3U__s_GUID@@BPEAUIConnectionPoint@@V?$_CopyInterface@UIConnectionPoint@@@ATL@@VCComSingleThreadModel@6@@ATL@@@ATL@@UEAAPEAXI@Z 000000018000c630 f i ImageScanner.obj
 0001:0000b630       ??_G?$CComObject@V?$CComEnum@UIEnumConnectionPoints@@$1?_GUID_b196b285_bab4_101a_b69c_00aa00341d07@@3U__s_GUID@@BPEAUIConnectionPoint@@V?$_CopyInterface@UIConnectionPoint@@@ATL@@VCComSingleThreadModel@6@@ATL@@@ATL@@UEAAPEAXI@Z 000000018000c630 f i ImageScanner.obj
 0001:0000b690       ??_E?$CComObject@V?$CComEnum@UIEnumConnections@@$1?_GUID_b196b287_bab4_101a_b69c_00aa00341d07@@3U__s_GUID@@BUtagCONNECTDATA@@V?$_Copy@UtagCONNECTDATA@@@ATL@@VCComSingleThreadModel@6@@ATL@@@ATL@@UEAAPEAXI@Z 000000018000c690 f i ImageScanner.obj
 0001:0000b690       ??_G?$CComObject@V?$CComEnum@UIEnumConnections@@$1?_GUID_b196b287_bab4_101a_b69c_00aa00341d07@@3U__s_GUID@@BUtagCONNECTDATA@@V?$_Copy@UtagCONNECTDATA@@@ATL@@VCComSingleThreadModel@6@@ATL@@@ATL@@UEAAPEAXI@Z 000000018000c690 f i ImageScanner.obj
 0001:0000b6f0       ??_G?$CComObject@VCOPOSImageScanner@@@ATL@@UEAAPEAXI@Z 000000018000c6f0 f i ImageScanner.obj
 0001:0000b6f0       ??_E?$CComObject@VCOPOSImageScanner@@@ATL@@UEAAPEAXI@Z 000000018000c6f0 f i ImageScanner.obj
 0001:0000b750       ??_G?$CComObjectCached@VCComClassFactory@ATL@@@ATL@@UEAAPEAXI@Z 000000018000c750 f i ImageScanner.obj
 0001:0000b750       ??_E?$CComObjectCached@VCComClassFactory@ATL@@@ATL@@UEAAPEAXI@Z 000000018000c750 f i ImageScanner.obj
 0001:0000b7b0       ??_ECComClassFactory@ATL@@UEAAPEAXI@Z 000000018000c7b0 f i ImageScanner.obj
 0001:0000b7b0       ??_GCComClassFactory@ATL@@UEAAPEAXI@Z 000000018000c7b0 f i ImageScanner.obj
 0001:0000b810       ??_GCComModule@ATL@@UEAAPEAXI@Z 000000018000c810 f i ImageScanner.obj
 0001:0000b810       ??_ECComModule@ATL@@UEAAPEAXI@Z 000000018000c810 f i ImageScanner.obj
 0001:0000b870       ??_ECRegObject@ATL@@UEAAPEAXI@Z 000000018000c870 f i ImageScanner.obj
 0001:0000b870       ??_GCRegObject@ATL@@UEAAPEAXI@Z 000000018000c870 f i ImageScanner.obj
 0001:0000b8d0       ?Add@?$CSimpleArray@GV?$CSimpleArrayEqualHelper@G@ATL@@@ATL@@QEAAHAEBG@Z 000000018000c8d0 f i ImageScanner.obj
 0001:0000ba70       ?Add@?$CSimpleMap@PEA_WPEA_WVCExpansionVectorEqualHelper@ATL@@@ATL@@QEAAHAEBQEA_W0@Z 000000018000ca70 f i ImageScanner.obj
 0001:0000bb60       ?Add@CComDynamicUnkArray@ATL@@QEAAKPEAUIUnknown@@@Z 000000018000cb60 f i ImageScanner.obj
 0001:0000bd40       ?Add@CExpansionVector@ATL@@QEAAHPEB_W0@Z 000000018000cd40 f i ImageScanner.obj
 0001:0000c070       ?AddChar@CParseBuffer@CRegParser@ATL@@QEAAHPEB_W@Z 000000018000d070 f i ImageScanner.obj
 0001:0000c0c0       ?AddCommonRGSReplacements@?$CAtlModuleT@VCComModule@ATL@@@ATL@@UEAAJPEAUIRegistrarBase@@@Z 000000018000d0c0 f i ImageScanner.obj
 0001:0000c120       ?AddCreateWndData@CAtlWinModule@ATL@@QEAAXPEAU_AtlCreateWndData@2@PEAX@Z 000000018000d120 f i ImageScanner.obj
 0001:0000c170       ?AddRef@?$CComAggObject@VCOPOSImageScanner@@@ATL@@UEAAKXZ 000000018000d170 f i ImageScanner.obj
 0001:0000c1b0       ?AddRef@?$CComContainedObject@VCOPOSImageScanner@@@ATL@@UEAAKXZ 000000018000d1b0 f i ImageScanner.obj
 0001:0000c1e8       ?AddRef@?$CComContainedObject@VCOPOSImageScanner@@@ATL@@WBAA@EAAKXZ 000000018000d1e8 f i ImageScanner.obj
 0001:0000c1f4       ?AddRef@?$CComContainedObject@VCOPOSImageScanner@@@ATL@@WBAI@EAAKXZ 000000018000d1f4 f i ImageScanner.obj
 0001:0000c200       ?AddRef@?$CComContainedObject@VCOPOSImageScanner@@@ATL@@WBBA@EAAKXZ 000000018000d200 f i ImageScanner.obj
 0001:0000c20c       ?AddRef@?$CComContainedObject@VCOPOSImageScanner@@@ATL@@WBBI@EAAKXZ 000000018000d20c f i ImageScanner.obj
 0001:0000c218       ?AddRef@?$CComContainedObject@VCOPOSImageScanner@@@ATL@@WBCI@EAAKXZ 000000018000d218 f i ImageScanner.obj
 0001:0000c224       ?AddRef@?$CComContainedObject@VCOPOSImageScanner@@@ATL@@WBEA@EAAKXZ 000000018000d224 f i ImageScanner.obj
 0001:0000c230       ?AddRef@?$CComContainedObject@VCOPOSImageScanner@@@ATL@@WLI@EAAKXZ 000000018000d230 f i ImageScanner.obj
 0001:0000c23c       ?AddRef@?$CComContainedObject@VCOPOSImageScanner@@@ATL@@WMA@EAAKXZ 000000018000d23c f i ImageScanner.obj
 0001:0000c248       ?AddRef@?$CComContainedObject@VCOPOSImageScanner@@@ATL@@WMI@EAAKXZ 000000018000d248 f i ImageScanner.obj
 0001:0000c254       ?AddRef@?$CComContainedObject@VCOPOSImageScanner@@@ATL@@WNA@EAAKXZ 000000018000d254 f i ImageScanner.obj
 0001:0000c260       ?AddRef@?$CComContainedObject@VCOPOSImageScanner@@@ATL@@WNI@EAAKXZ 000000018000d260 f i ImageScanner.obj
 0001:0000c26c       ?AddRef@?$CComContainedObject@VCOPOSImageScanner@@@ATL@@WOA@EAAKXZ 000000018000d26c f i ImageScanner.obj
 0001:0000c278       ?AddRef@?$CComContainedObject@VCOPOSImageScanner@@@ATL@@WOI@EAAKXZ 000000018000d278 f i ImageScanner.obj
 0001:0000c284       ?AddRef@?$CComContainedObject@VCOPOSImageScanner@@@ATL@@WPA@EAAKXZ 000000018000d284 f i ImageScanner.obj
 0001:0000c290       ?AddRef@?$CComContainedObject@VCOPOSImageScanner@@@ATL@@WPI@EAAKXZ 000000018000d290 f i ImageScanner.obj
 0001:0000c2a0       ?AddRef@?$CComObject@V?$CComEnum@UIEnumConnectionPoints@@$1?_GUID_b196b285_bab4_101a_b69c_00aa00341d07@@3U__s_GUID@@BPEAUIConnectionPoint@@V?$_CopyInterface@UIConnectionPoint@@@ATL@@VCComSingleThreadModel@6@@ATL@@@ATL@@UEAAKXZ 000000018000d2a0 f i ImageScanner.obj
 0001:0000c2e0       ?AddRef@?$CComObject@V?$CComEnum@UIEnumConnections@@$1?_GUID_b196b287_bab4_101a_b69c_00aa00341d07@@3U__s_GUID@@BUtagCONNECTDATA@@V?$_Copy@UtagCONNECTDATA@@@ATL@@VCComSingleThreadModel@6@@ATL@@@ATL@@UEAAKXZ 000000018000d2e0 f i ImageScanner.obj
 0001:0000c320       ?AddRef@?$CComObject@VCOPOSImageScanner@@@ATL@@UEAAKXZ 000000018000d320 f i ImageScanner.obj
 0001:0000c358       ?AddRef@?$CComObject@VCOPOSImageScanner@@@ATL@@WBAA@EAAKXZ 000000018000d358 f i ImageScanner.obj
 0001:0000c364       ?AddRef@?$CComObject@VCOPOSImageScanner@@@ATL@@WBAI@EAAKXZ 000000018000d364 f i ImageScanner.obj
 0001:0000c370       ?AddRef@?$CComObject@VCOPOSImageScanner@@@ATL@@WBBA@EAAKXZ 000000018000d370 f i ImageScanner.obj
 0001:0000c37c       ?AddRef@?$CComObject@VCOPOSImageScanner@@@ATL@@WBBI@EAAKXZ 000000018000d37c f i ImageScanner.obj
 0001:0000c388       ?AddRef@?$CComObject@VCOPOSImageScanner@@@ATL@@WBCI@EAAKXZ 000000018000d388 f i ImageScanner.obj
 0001:0000c394       ?AddRef@?$CComObject@VCOPOSImageScanner@@@ATL@@WBEA@EAAKXZ 000000018000d394 f i ImageScanner.obj
 0001:0000c3a0       ?AddRef@?$CComObject@VCOPOSImageScanner@@@ATL@@WLI@EAAKXZ 000000018000d3a0 f i ImageScanner.obj
 0001:0000c3ac       ?AddRef@?$CComObject@VCOPOSImageScanner@@@ATL@@WMA@EAAKXZ 000000018000d3ac f i ImageScanner.obj
 0001:0000c3b8       ?AddRef@?$CComObject@VCOPOSImageScanner@@@ATL@@WMI@EAAKXZ 000000018000d3b8 f i ImageScanner.obj
 0001:0000c3c4       ?AddRef@?$CComObject@VCOPOSImageScanner@@@ATL@@WNA@EAAKXZ 000000018000d3c4 f i ImageScanner.obj
 0001:0000c3d0       ?AddRef@?$CComObject@VCOPOSImageScanner@@@ATL@@WNI@EAAKXZ 000000018000d3d0 f i ImageScanner.obj
 0001:0000c3dc       ?AddRef@?$CComObject@VCOPOSImageScanner@@@ATL@@WOA@EAAKXZ 000000018000d3dc f i ImageScanner.obj
 0001:0000c3e8       ?AddRef@?$CComObject@VCOPOSImageScanner@@@ATL@@WOI@EAAKXZ 000000018000d3e8 f i ImageScanner.obj
 0001:0000c3f4       ?AddRef@?$CComObject@VCOPOSImageScanner@@@ATL@@WPA@EAAKXZ 000000018000d3f4 f i ImageScanner.obj
 0001:0000c400       ?AddRef@?$CComObject@VCOPOSImageScanner@@@ATL@@WPI@EAAKXZ 000000018000d400 f i ImageScanner.obj
 0001:0000c410       ?AddRef@?$CComObjectCached@VCComClassFactory@ATL@@@ATL@@UEAAKXZ 000000018000d410 f i ImageScanner.obj
 0001:0000c470       ?AddRef@CRegObject@ATL@@UEAAKXZ 000000018000d470 f i ImageScanner.obj
 0001:0000c4e0       ?AddReplacement@CRegObject@ATL@@UEAAJPEB_W0@Z 000000018000d4e0 f i ImageScanner.obj
 0001:0000c610       ?AddString@CParseBuffer@CRegParser@ATL@@QEAAHPEB_W@Z 000000018000d610 f i ImageScanner.obj
 0001:0000c700       ?AddTermFunc@CAtlModule@ATL@@QEAAJP6AX_K@Z0@Z 000000018000d700 f i ImageScanner.obj
 0001:0000c770       ?AddValue@CRegParser@ATL@@IEAAJAEAVCRegKey@2@PEB_WPEA_W@Z 000000018000d770 f i ImageScanner.obj
 0001:0000d040       ?Advise@?$CProxy_IOPOSEvents@VCOPOSImageScanner@@@@UEAAJPEAUIUnknown@@PEAK@Z 000000018000e040 f i ImageScanner.obj
 0001:0000d0b0       ?Advise@?$IConnectionPointImpl@VCOPOSImageScanner@@$1?DIID__IOPOSImageScannerEvents@@3U_GUID@@BVCComDynamicUnkArray@ATL@@@ATL@@UEAAJPEAUIUnknown@@PEAK@Z 000000018000e0b0 f i ImageScanner.obj
 0001:0000d2b0       ?Advise@?$IConnectionPointImpl@VCOPOSImageScanner@@$1?IID_IPropertyNotifySink@@3U_GUID@@BVCComDynamicUnkArray@ATL@@@ATL@@UEAAJPEAUIUnknown@@PEAK@Z 000000018000e2b0 f i ImageScanner.obj
 0001:0000d4b0       ?Advise@?$IOleObjectImpl@VCOPOSImageScanner@@@ATL@@UEAAJPEAUIAdviseSink@@PEAK@Z 000000018000e4b0 f i ImageScanner.obj
 0001:0000d570       ?Allocate@?$CAtlSafeAllocBufferManager@VCCRTAllocator@ATL@@@_ATL_SAFE_ALLOCA_IMPL@ATL@@QEAAPEAX_K@Z 000000018000e570 f i ImageScanner.obj
 0001:0000d5f0       ?Allocate@?$CTempBuffer@E$0BAA@VCCRTAllocator@ATL@@@ATL@@QEAAPEAE_K@Z 000000018000e5f0 f i ImageScanner.obj
 0001:0000d640       ?Allocate@?$CTempBuffer@_W$0BAA@VCCRTAllocator@ATL@@@ATL@@QEAAPEA_W_K@Z 000000018000e640 f i ImageScanner.obj
 0001:0000d690       ?Allocate@?$CTempBuffer@_W$0EAA@VCCRTAllocator@ATL@@@ATL@@QEAAPEA_W_K@Z 000000018000e690 f i ImageScanner.obj
 0001:0000d6e0       ?AllocateBytes@?$CTempBuffer@E$0BAA@VCCRTAllocator@ATL@@@ATL@@QEAAPEAE_K@Z 000000018000e6e0 f i ImageScanner.obj
 0001:0000d790       ?AllocateBytes@?$CTempBuffer@_W$0BAA@VCCRTAllocator@ATL@@@ATL@@QEAAPEA_W_K@Z 000000018000e790 f i ImageScanner.obj
 0001:0000d840       ?AllocateBytes@?$CTempBuffer@_W$0EAA@VCCRTAllocator@ATL@@@ATL@@QEAAPEA_W_K@Z 000000018000e840 f i ImageScanner.obj
 0001:0000d8f0       ?AllocateHeap@?$CTempBuffer@E$0BAA@VCCRTAllocator@ATL@@@ATL@@AEAAX_K@Z 000000018000e8f0 f i ImageScanner.obj
 0001:0000d950       ?AllocateHeap@?$CTempBuffer@_W$0BAA@VCCRTAllocator@ATL@@@ATL@@AEAAX_K@Z 000000018000e950 f i ImageScanner.obj
 0001:0000d9b0       ?AllocateHeap@?$CTempBuffer@_W$0EAA@VCCRTAllocator@ATL@@@ATL@@AEAAX_K@Z 000000018000e9b0 f i ImageScanner.obj
 0001:0000da10       ?Append@CParseBuffer@CRegParser@ATL@@QEAAHPEB_WH@Z 000000018000ea10 f i ImageScanner.obj
 0001:0000dc40       ?AtlCallTermFunc@ATL@@YAXPEAU_ATL_MODULE70@1@@Z 000000018000ec40 f i ImageScanner.obj
 0001:0000dcf0       ?AtlCoTaskMemCAlloc@ATL@@YAPEAXKK@Z 000000018000ecf0 f i ImageScanner.obj
 0001:0000dd70       ?AtlCoTaskMemRecalloc@ATL@@YAPEAXPEAXKK@Z 000000018000ed70 f i ImageScanner.obj
 0001:0000ddf0       ?AtlComModuleGetClassObject@ATL@@YAJPEAU_ATL_COM_MODULE70@1@AEBU_GUID@@1PEAPEAX@Z 000000018000edf0 f i ImageScanner.obj
 0001:0000e120       ?AtlComModuleRegisterServer@ATL@@YAJPEAU_ATL_COM_MODULE70@1@HPEBU_GUID@@@Z 000000018000f120 f i ImageScanner.obj
 0001:0000e320       ?AtlComModuleUnregisterServer@ATL@@YAJPEAU_ATL_COM_MODULE70@1@HPEBU_GUID@@@Z 000000018000f320 f i ImageScanner.obj
 0001:0000e480       ?AtlComQIPtrAssign2@ATL@@YAXPEAPEAUIUnknown@@PEAU2@AEBU_GUID@@@Z 000000018000f480 f i ImageScanner.obj
 0001:0000e510       ?AtlCreateTargetDC@ATL@@YAPEAUHDC__@@PEAU2@PEAUtagDVTARGETDEVICE@@@Z 000000018000f510 f i ImageScanner.obj
 0001:0000e740       ?AtlCrtErrorCheck@ATL@@YAHH@Z 000000018000f740 f i ImageScanner.obj
 0001:0000e7c0       ?AtlGetPerUserRegistration@ATL@@YAJPEA_N@Z 000000018000f7c0 f i ImageScanner.obj
 0001:0000e7f0       ?AtlHiMetricToPixel@ATL@@YAXPEBUtagSIZE@@PEAU2@@Z 000000018000f7f0 f i ImageScanner.obj
 0001:0000e9f0       ?AtlHresultFromLastError@ATL@@YAJXZ 000000018000f9f0 f i ImageScanner.obj
 0001:0000ea20       ?AtlHresultFromWin32@ATL@@YAJK@Z 000000018000fa20 f i ImageScanner.obj
 0001:0000ea50       ?AtlIPersistStreamInit_Load@ATL@@YAJPEAUIStream@@PEBUATL_PROPMAP_ENTRY@1@PEAXPEAUIUnknown@@@Z 000000018000fa50 f i ImageScanner.obj
 0001:0000f0c0       ?AtlIPersistStreamInit_Save@ATL@@YAJPEAUIStream@@HPEBUATL_PROPMAP_ENTRY@1@PEAXPEAUIUnknown@@@Z 00000001800100c0 f i ImageScanner.obj
 0001:0000f650       ?AtlInternalOleLoadFromStream@ATL@@YAJPEAUIStream@@AEBU_GUID@@PEAPEAXTClassesAllowedInStream@1@K@Z 0000000180010650 f i ImageScanner.obj
 0001:0000f990       ?AtlInternalQueryInterface@ATL@@YAJPEAXPEBU_ATL_INTMAP_ENTRY@1@AEBU_GUID@@PEAPEAX@Z 0000000180010990 f i ImageScanner.obj
 0001:0000fc50       ?AtlLoadTypeLib@ATL@@YAJPEAUHINSTANCE__@@PEB_WPEAPEA_WPEAPEAUITypeLib@@@Z 0000000180010c50 f i ImageScanner.obj
 0001:00010120       ?AtlModuleAddTermFunc@ATL@@YAJPEAU_ATL_MODULE70@1@P6AX_K@Z1@Z 0000000180011120 f i ImageScanner.obj
 0001:000102f0       ?AtlRegisterClassCategoriesHelper@ATL@@YAJAEBU_GUID@@PEBU_ATL_CATMAP_ENTRY@1@H@Z 00000001800112f0 f i ImageScanner.obj
 0001:00010ac0       ?AtlRegisterTypeLib@ATL@@YAJPEAUHINSTANCE__@@PEB_W@Z 0000000180011ac0 f i ImageScanner.obj
 0001:00010e20       ?AtlThrowImpl@ATL@@YAXJ@Z  0000000180011e20 f i ImageScanner.obj
 0001:00010f00       ?AtlUnRegisterTypeLib@ATL@@YAJPEAUHINSTANCE__@@PEB_W@Z 0000000180011f00 f i ImageScanner.obj
 0001:00011130       ?AtlWinModuleAddCreateWndData@ATL@@YAXPEAU_ATL_WIN_MODULE70@1@PEAU_AtlCreateWndData@1@PEAX@Z 0000000180012130 f i ImageScanner.obj
 0001:00011320       ?AtlWinModuleExtractCreateWndData@ATL@@YAPEAXPEAU_ATL_WIN_MODULE70@1@@Z 0000000180012320 f i ImageScanner.obj
 0001:00011520       ?AtlWinModuleRegisterClassExW@ATL@@YAGPEAU_ATL_WIN_MODULE70@1@PEBUtagWNDCLASSEXW@@@Z 0000000180012520 f i ImageScanner.obj
 0001:000115f0       ?AtlWinModuleRegisterWndClassInfoW@ATL@@YAGPEAU_ATL_WIN_MODULE70@1@PEAU_ATL_BASE_MODULE70@1@PEAU_ATL_WNDCLASSINFOW@1@PEAP6A_JPEAUHWND__@@I_K_J@Z@Z 00000001800125f0 f i ImageScanner.obj
 0001:00011660       ?Attach@?$CAutoVectorPtr@_W@ATL@@QEAAXPEA_W@Z 0000000180012660 f i ImageScanner.obj
 0001:000116f0       ?Attach@CComBSTR@ATL@@QEAAXPEA_W@Z 00000001800126f0 f i ImageScanner.obj
 0001:00011750       ?Attach@CRegKey@ATL@@QEAAXPEAUHKEY__@@@Z 0000000180012750 f i ImageScanner.obj
 0001:000117f0       ?CanForceRemoveKey@CRegParser@ATL@@IEAAHPEB_W@Z 00000001800127f0 f i ImageScanner.obj
 0001:00011860       ?ChToByte@CRegParser@ATL@@KAE_W@Z 0000000180012860 f i ImageScanner.obj
 0001:000119c0       ?ChangeType@CComVariant@ATL@@QEAAJGPEBUtagVARIANT@@@Z 00000001800129c0 f i ImageScanner.obj
 0001:00011a30       ?Cleanup@CComTypeInfoHolder@ATL@@SAX_K@Z 0000000180012a30 f i ImageScanner.obj
 0001:00011b20       ?Clear@CComVariant@ATL@@QEAAJXZ 0000000180012b20 f i ImageScanner.obj
 0001:00011b50       ?ClearReplacements@CExpansionVector@ATL@@QEAAJXZ 0000000180012b50 f i ImageScanner.obj
 0001:00011bf0       ?ClearReplacements@CRegObject@ATL@@UEAAJXZ 0000000180012bf0 f i ImageScanner.obj
 0001:00011c50       ?Clone@?$CComEnumImpl@UIEnumConnectionPoints@@$1?_GUID_b196b285_bab4_101a_b69c_00aa00341d07@@3U__s_GUID@@BPEAUIConnectionPoint@@V?$_CopyInterface@UIConnectionPoint@@@ATL@@@ATL@@UEAAJPEAPEAUIEnumConnectionPoints@@@Z 0000000180012c50 f i ImageScanner.obj
 0001:00011e40       ?Clone@?$CComEnumImpl@UIEnumConnections@@$1?_GUID_b196b287_bab4_101a_b69c_00aa00341d07@@3U__s_GUID@@BUtagCONNECTDATA@@V?$_Copy@UtagCONNECTDATA@@@ATL@@@ATL@@UEAAJPEAPEAUIEnumConnections@@@Z 0000000180012e40 f i ImageScanner.obj
 0001:00012030       ?Close@?$IOleObjectImpl@VCOPOSImageScanner@@@ATL@@UEAAJK@Z 0000000180013030 f i ImageScanner.obj
 0001:000120e0       ?Close@CRegKey@ATL@@QEAAJXZ 00000001800130e0 f i ImageScanner.obj
 0001:00012150       ?ContextSensitiveHelp@?$IOleInPlaceActiveObjectImpl@VCOPOSImageScanner@@@ATL@@UEAAJH@Z 0000000180013150 f i ImageScanner.obj
 0001:000121d0       ?ContextSensitiveHelp@?$IOleInPlaceObjectWindowlessImpl@VCOPOSImageScanner@@@ATL@@UEAAJH@Z 00000001800131d0 f i ImageScanner.obj
 0001:00012250       ?ControlQueryInterface@?$CComControl@VCOPOSImageScanner@@V?$CWindowImpl@VCOPOSImageScanner@@VCWindow@ATL@@V?$CWinTraits@$0FGAAAAAA@$0A@@3@@ATL@@@ATL@@UEAAJAEBU_GUID@@PEAPEAX@Z 0000000180013250 f i ImageScanner.obj
 0001:000122e0       ?CreateControlWindow@?$CComControl@VCOPOSImageScanner@@V?$CWindowImpl@VCOPOSImageScanner@@VCWindow@ATL@@V?$CWinTraits@$0FGAAAAAA@$0A@@3@@ATL@@@ATL@@UEAAPEAUHWND__@@PEAU3@AEAUtagRECT@@@Z 00000001800132e0 f i ImageScanner.obj
 0001:000123d0       ?CreateInstance@?$CComCreator@V?$CComAggObject@VCOPOSImageScanner@@@ATL@@@ATL@@SAJPEAXAEBU_GUID@@PEAPEAX@Z 00000001800133d0 f i ImageScanner.obj
 0001:000125b0       ?CreateInstance@?$CComCreator@V?$CComObject@VCOPOSImageScanner@@@ATL@@@ATL@@SAJPEAXAEBU_GUID@@PEAPEAX@Z 00000001800135b0 f i ImageScanner.obj
 0001:000127b0       ?CreateInstance@?$CComObject@V?$CComEnum@UIEnumConnectionPoints@@$1?_GUID_b196b285_bab4_101a_b69c_00aa00341d07@@3U__s_GUID@@BPEAUIConnectionPoint@@V?$_CopyInterface@UIConnectionPoint@@@ATL@@VCComSingleThreadModel@6@@ATL@@@ATL@@SAJPEAPEAV12@@Z 00000001800137b0 f i ImageScanner.obj
 0001:00012970       ?CreateInstance@?$CComObject@V?$CComEnum@UIEnumConnections@@$1?_GUID_b196b287_bab4_101a_b69c_00aa00341d07@@3U__s_GUID@@BUtagCONNECTDATA@@V?$_Copy@UtagCONNECTDATA@@@ATL@@VCComSingleThreadModel@6@@ATL@@@ATL@@SAJPEAPEAV12@@Z 0000000180013970 f i ImageScanner.obj
 0001:00012b30       ?CreateInstance@CComClassFactory@ATL@@UEAAJPEAUIUnknown@@AEBU_GUID@@PEAPEAX@Z 0000000180013b30 f i ImageScanner.obj
 0001:00012c50       ?DAdvise@?$IDataObjectImpl@VCOPOSImageScanner@@@ATL@@UEAAJPEAUtagFORMATETC@@KPEAUIAdviseSink@@PEAK@Z 0000000180013c50 f i ImageScanner.obj
 0001:00012db0       ?DEVMODEOLE2T_EX@@YAPEAU_devicemodeW@@PEAU1@@Z 0000000180013db0 f i ImageScanner.obj
 0001:00012dc0       ?DUnadvise@?$IDataObjectImpl@VCOPOSImageScanner@@@ATL@@UEAAJK@Z 0000000180013dc0 f i ImageScanner.obj
 0001:00012ec0       ?Decrement@CComMultiThreadModel@ATL@@SAKPEAJ@Z 0000000180013ec0 f i ImageScanner.obj
 0001:00012ee0       ?Decrement@CComSingleThreadModel@ATL@@SAKPEAJ@Z 0000000180013ee0 f i ImageScanner.obj
 0001:00012f00       ?DefWindowProcW@?$CWindowImplBaseT@VCWindow@ATL@@V?$CWinTraits@$0FGAAAAAA@$0A@@2@@ATL@@QEAA_JI_K_J@Z 0000000180013f00 f i ImageScanner.obj
 0001:00012f60       ?DefaultReflectionHandler@?$CWindowImplRoot@VCWindow@ATL@@@ATL@@SAHPEAUHWND__@@I_K_JAEA_J@Z 0000000180013f60 f i ImageScanner.obj
 0001:00013050       ?DeleteSubKey@CRegKey@ATL@@QEAAJPEB_W@Z 0000000180014050 f i ImageScanner.obj
 0001:00013180       ?DeleteValue@CRegKey@ATL@@QEAAJPEB_W@Z 0000000180014180 f i ImageScanner.obj
 0001:00013210       ?Detach@?$CAutoVectorPtr@_W@ATL@@QEAAPEA_WXZ 0000000180014210 f i ImageScanner.obj
 0001:00013250       ?Detach@?$CComPtrBase@UIPersistStream@@@ATL@@QEAAPEAUIPersistStream@@XZ 0000000180014250 f i ImageScanner.obj
 0001:00013290       ?Detach@?$CComPtrBase@UITypeInfo@@@ATL@@QEAAPEAUITypeInfo@@XZ 0000000180014290 f i ImageScanner.obj
 0001:000132d0       ?Detach@?$CComPtrBase@UIUnknown@@@ATL@@QEAAPEAUIUnknown@@XZ 00000001800142d0 f i ImageScanner.obj
 0001:00013310       ?Detach@CComBSTR@ATL@@QEAAPEA_WXZ 0000000180014310 f i ImageScanner.obj
 0001:00013350       ?Detach@CParseBuffer@CRegParser@ATL@@QEAAPEA_WXZ 0000000180014350 f i ImageScanner.obj
 0001:000133b0       ?Detach@CRegKey@ATL@@QEAAPEAUHKEY__@@XZ 00000001800143b0 f i ImageScanner.obj
 0001:00013410       ?DoEvent@COPOSImageScanner@@IEAAXI_K_J@Z 0000000180014410 f i ImageScanner.obj
 0001:00013550       ?DoVerb@?$IOleObjectImpl@VCOPOSImageScanner@@@ATL@@UEAAJJPEAUtagMSG@@PEAUIOleClientSite@@JPEAUHWND__@@PEBUtagRECT@@@Z 0000000180014550 f i ImageScanner.obj
 0001:00013860       ?DoVerbDiscardUndo@?$IOleObjectImpl@VCOPOSImageScanner@@@ATL@@QEAAJPEBUtagRECT@@PEAUHWND__@@@Z 0000000180014860 f i ImageScanner.obj
 0001:00013900       ?DoVerbHide@?$IOleObjectImpl@VCOPOSImageScanner@@@ATL@@QEAAJPEBUtagRECT@@PEAUHWND__@@@Z 0000000180014900 f i ImageScanner.obj
 0001:000139e0       ?DoVerbInPlaceActivate@?$IOleObjectImpl@VCOPOSImageScanner@@@ATL@@QEAAJPEBUtagRECT@@PEAUHWND__@@@Z 00000001800149e0 f i ImageScanner.obj
 0001:00013ac0       ?DoVerbOpen@?$IOleObjectImpl@VCOPOSImageScanner@@@ATL@@QEAAJPEBUtagRECT@@PEAUHWND__@@@Z 0000000180014ac0 f i ImageScanner.obj
 0001:00013b60       ?DoVerbPrimary@?$IOleObjectImpl@VCOPOSImageScanner@@@ATL@@QEAAJPEBUtagRECT@@PEAUHWND__@@@Z 0000000180014b60 f i ImageScanner.obj
 0001:00013ca0       ?DoVerbProperties@CComControlBase@ATL@@QEAAJPEBUtagRECT@@PEAUHWND__@@@Z 0000000180014ca0 f i ImageScanner.obj
 0001:00014050       ?DoVerbShow@?$IOleObjectImpl@VCOPOSImageScanner@@@ATL@@QEAAJPEBUtagRECT@@PEAUHWND__@@@Z 0000000180015050 f i ImageScanner.obj
 0001:00014110       ?DoVerbUIActivate@?$IOleObjectImpl@VCOPOSImageScanner@@@ATL@@QEAAJPEBUtagRECT@@PEAUHWND__@@@Z 0000000180015110 f i ImageScanner.obj
 0001:000141f0       ?DoesVerbActivate@CComControlBase@ATL@@QEAAHJ@Z 00000001800151f0 f i ImageScanner.obj
 0001:00014250       ?DoesVerbUIActivate@CComControlBase@ATL@@QEAAHJ@Z 0000000180015250 f i ImageScanner.obj
 0001:000142d0       ?Draw@?$IViewObjectExImpl@VCOPOSImageScanner@@@ATL@@UEAAJKJPEAXPEAUtagDVTARGETDEVICE@@PEAUHDC__@@2PEBU_RECTL@@3P6AH_K@Z4@Z 00000001800152d0 f i ImageScanner.obj
 0001:000143f0       ?Empty@CComBSTR@ATL@@QEAAXXZ 00000001800153f0 f i ImageScanner.obj
 0001:00014430       ?EnableModeless@?$IOleInPlaceActiveObjectImpl@VCOPOSImageScanner@@@ATL@@UEAAJH@Z 0000000180015430 f i ImageScanner.obj
 0001:000144a0       ?EndOfVar@CRegParser@ATL@@IEAAHXZ 00000001800154a0 f i ImageScanner.obj
 0001:00014500       ?EnsureTI@CComTypeInfoHolder@ATL@@QEAAJK@Z 0000000180015500 f i ImageScanner.obj
 0001:00014560       ?EnumAdvise@?$IOleObjectImpl@VCOPOSImageScanner@@@ATL@@UEAAJPEAPEAUIEnumSTATDATA@@@Z 0000000180015560 f i ImageScanner.obj
 0001:000146c0       ?EnumConnectionPoints@?$IConnectionPointContainerImpl@VCOPOSImageScanner@@@ATL@@UEAAJPEAPEAUIEnumConnectionPoints@@@Z 00000001800156c0 f i ImageScanner.obj
 0001:00014bb0       ?EnumConnections@?$IConnectionPointImpl@VCOPOSImageScanner@@$1?DIID__IOPOSImageScannerEvents@@3U_GUID@@BVCComDynamicUnkArray@ATL@@@ATL@@UEAAJPEAPEAUIEnumConnections@@@Z 0000000180015bb0 f i ImageScanner.obj
 0001:00014f00       ?EnumConnections@?$IConnectionPointImpl@VCOPOSImageScanner@@$1?IID_IPropertyNotifySink@@3U_GUID@@BVCComDynamicUnkArray@ATL@@@ATL@@UEAAJPEAPEAUIEnumConnections@@@Z 0000000180015f00 f i ImageScanner.obj
 0001:00015250       ?EnumDAdvise@?$IDataObjectImpl@VCOPOSImageScanner@@@ATL@@UEAAJPEAPEAUIEnumSTATDATA@@@Z 0000000180016250 f i ImageScanner.obj
 0001:000153a0       ?EnumFormatEtc@?$IDataObjectImpl@VCOPOSImageScanner@@@ATL@@UEAAJKPEAPEAUIEnumFORMATETC@@@Z 00000001800163a0 f i ImageScanner.obj
 0001:00015430       ?EnumVerbs@?$IOleObjectImpl@VCOPOSImageScanner@@@ATL@@UEAAJPEAPEAUIEnumOLEVERB@@@Z 0000000180016430 f i ImageScanner.obj
 0001:00015500       ?EscapeSingleQuote@CAtlModule@ATL@@SAXPEA_W_KPEB_W@Z 0000000180016500 f i ImageScanner.obj
 0001:00015600       ?ExtractCreateWndData@CAtlWinModule@ATL@@QEAAPEAXXZ 0000000180016600 f i ImageScanner.obj
 0001:00015630       ?FAccessAllowed@?$IObjectSafetyImpl@VCOPOSImageScanner@@$02@ATL@@MEAAHXZ 0000000180016630 f i ImageScanner.obj
 0001:00015640       ?FinalConstruct@?$CComAggObject@VCOPOSImageScanner@@@ATL@@QEAAJXZ 0000000180016640 f i ImageScanner.obj
 0001:00015690       ?FinalConstruct@CComObjectRootBase@ATL@@QEAAJXZ 0000000180016690 f i ImageScanner.obj
 0001:000156a0       ?FinalConstruct@CRegObject@ATL@@QEAAJXZ 00000001800166a0 f i ImageScanner.obj
 0001:000156e0       ?FinalRelease@?$CComAggObject@VCOPOSImageScanner@@@ATL@@QEAAXXZ 00000001800166e0 f i ImageScanner.obj
 0001:00015730       ?FinalRelease@CComObjectRootBase@ATL@@QEAAXXZ 0000000180016730 f i ImageScanner.obj
 0001:00015740       ?FindConnectionPoint@?$IConnectionPointContainerImpl@VCOPOSImageScanner@@@ATL@@UEAAJAEBU_GUID@@PEAPEAUIConnectionPoint@@@Z 0000000180016740 f i ImageScanner.obj
 0001:000158b0       ?FindKey@?$CSimpleMap@PEA_WPEA_WVCExpansionVectorEqualHelper@ATL@@@ATL@@QEBAHAEBQEA_W@Z 00000001800168b0 f i ImageScanner.obj
 0001:00015930       ?FireTheEvent@?$CProxy_IOPOSEvents@VCOPOSImageScanner@@@@IEAAXPEAUIUnknown@@PEAVOposVariant@@IAEAJPEB_WJ@Z 0000000180016930 f i ImageScanner.obj
 0001:00015b10       ?FireViewChange@CComControlBase@ATL@@QEAAJXZ 0000000180016b10 f i ImageScanner.obj
 0001:00015bf0       ?Fire_DataEvent@?$CProxy_IOPOSEvents@VCOPOSImageScanner@@@@QEAAXJ@Z 0000000180016bf0 f i ImageScanner.obj
 0001:00015de0       ?Fire_DirectIOEvent@?$CProxy_IOPOSEvents@VCOPOSImageScanner@@@@QEAAXJPEAJPEAPEA_W@Z 0000000180016de0 f i ImageScanner.obj
 0001:00016070       ?Fire_ErrorEvent@?$CProxy_IOPOSEvents@VCOPOSImageScanner@@@@QEAAXJJJPEAJ@Z 0000000180017070 f i ImageScanner.obj
 0001:00016320       ?Fire_StatusUpdateEvent@?$CProxy_IOPOSEvents@VCOPOSImageScanner@@@@QEAAXJ@Z 0000000180017320 f i ImageScanner.obj
 0001:00016510       ?FormatWindowClassName@AtlModuleRegisterWndClassInfoParamW@ATL@@SAXPEA_WKPEAX@Z 0000000180017510 f i ImageScanner.obj
 0001:00016560       ?Free@?$CAutoVectorPtr@_W@ATL@@QEAAXXZ 0000000180017560 f i ImageScanner.obj
 0001:000165b0       ?FreeHeap@?$CTempBuffer@E$0BAA@VCCRTAllocator@ATL@@@ATL@@AEAAXXZ 00000001800175b0 f i ImageScanner.obj
 0001:000165f0       ?FreeHeap@?$CTempBuffer@_W$0BAA@VCCRTAllocator@ATL@@@ATL@@AEAAXXZ 00000001800175f0 f i ImageScanner.obj
 0001:00016630       ?FreeHeap@?$CTempBuffer@_W$0EAA@VCCRTAllocator@ATL@@@ATL@@AEAAXXZ 0000000180017630 f i ImageScanner.obj
 0001:00016670       ?Freeze@?$IViewObjectExImpl@VCOPOSImageScanner@@@ATL@@UEAAJKJPEAXPEAK@Z 0000000180017670 f i ImageScanner.obj
 0001:00016700       ?GenerateError@CRegParser@ATL@@IEAAJI@Z 0000000180017700 f i ImageScanner.obj
 0001:00016720       ?GetAdvise@?$IViewObjectExImpl@VCOPOSImageScanner@@@ATL@@UEAAJPEAK0PEAPEAUIAdviseSink@@@Z 0000000180017720 f i ImageScanner.obj
 0001:00016870       ?GetAmbientLocaleID@CComControlBase@ATL@@QEAAJAEAK@Z 0000000180017870 f i ImageScanner.obj
 0001:00016950       ?GetAmbientProperty@CComControlBase@ATL@@QEAAJJAEAUtagVARIANT@@@Z 0000000180017950 f i ImageScanner.obj
 0001:000169c0       ?GetAmbientUserMode@CComControlBase@ATL@@QEAAJAEAH@Z 00000001800179c0 f i ImageScanner.obj
 0001:00016ae0       ?GetAppId@?$CAtlModuleT@VCComModule@ATL@@@ATL@@SAPEB_WXZ 0000000180017ae0 f i ImageScanner.obj
 0001:00016af0       ?GetAt@CComDynamicUnkArray@ATL@@QEAAPEAUIUnknown@@H@Z 0000000180017af0 f i ImageScanner.obj
 0001:00016ba0       ?GetCanonicalFormatEtc@?$IDataObjectImpl@VCOPOSImageScanner@@@ATL@@UEAAJPEAUtagFORMATETC@@0@Z 0000000180017ba0 f i ImageScanner.obj
 0001:00016c30       ?GetClassID@?$IPersistStorageImpl@VCOPOSImageScanner@@@ATL@@UEAAJPEAU_GUID@@@Z 0000000180017c30 f i ImageScanner.obj
 0001:00016cd0       ?GetClassID@?$IPersistStreamInitImpl@VCOPOSImageScanner@@@ATL@@UEAAJPEAU_GUID@@@Z 0000000180017cd0 f i ImageScanner.obj
 0001:00016d70       ?GetClassInfoExW@AtlModuleRegisterWndClassInfoParamW@ATL@@SAHPEAUHINSTANCE__@@PEB_WPEAUtagWNDCLASSEXW@@@Z 0000000180017d70 f i ImageScanner.obj
 0001:00016dc0       ?GetClassInfoW@?$IProvideClassInfo2Impl@$1?CLSID_OPOSImageScanner@@3U_GUID@@B$1?DIID__IOPOSImageScannerEvents@@3U2@B$1?LIBID_OposImageScanner_CCO@@3U2@B$00$0A@VCComTypeInfoHolder@ATL@@@ATL@@UEAAJPEAPEAUITypeInfo@@@Z 0000000180017dc0 f i ImageScanner.obj
 0001:00016e00       ?GetClassObject@CComModule@ATL@@QEAAJAEBU_GUID@@0PEAPEAX@Z 0000000180017e00 f i ImageScanner.obj
 0001:00017070       ?GetClientSite@?$IOleObjectImpl@VCOPOSImageScanner@@@ATL@@UEAAJPEAPEAUIOleClientSite@@@Z 0000000180018070 f i ImageScanner.obj
 0001:00017120       ?GetClipboardData@?$IOleObjectImpl@VCOPOSImageScanner@@@ATL@@UEAAJKPEAPEAUIDataObject@@@Z 0000000180018120 f i ImageScanner.obj
 0001:000171b0       ?GetCodeAddress@CDynamicStdCallThunk2@ATL@@QEAAPEAXXZ 00000001800181b0 f i ImageScanner.obj
 0001:000171f0       ?GetColorSet@?$IViewObjectExImpl@VCOPOSImageScanner@@@ATL@@UEAAJKJPEAXPEAUtagDVTARGETDEVICE@@PEAUHDC__@@PEAPEAUtagLOGPALETTE@@@Z 00000001800181f0 f i ImageScanner.obj
 0001:00017280       ?GetConnMap@COPOSImageScanner@@SAPEBU_ATL_CONNMAP_ENTRY@ATL@@PEAH@Z 0000000180018280 f i ImageScanner.obj
 0001:000173e0       ?GetConnectionInterface@?$IConnectionPointImpl@VCOPOSImageScanner@@$1?DIID__IOPOSImageScannerEvents@@3U_GUID@@BVCComDynamicUnkArray@ATL@@@ATL@@UEAAJPEAU_GUID@@@Z 00000001800183e0 f i ImageScanner.obj
 0001:00017420       ?GetConnectionInterface@?$IConnectionPointImpl@VCOPOSImageScanner@@$1?IID_IPropertyNotifySink@@3U_GUID@@BVCComDynamicUnkArray@ATL@@@ATL@@UEAAJPEAU_GUID@@@Z 0000000180018420 f i ImageScanner.obj
 0001:00017460       ?GetConnectionPointContainer@?$IConnectionPointImpl@VCOPOSImageScanner@@$1?DIID__IOPOSImageScannerEvents@@3U_GUID@@BVCComDynamicUnkArray@ATL@@@ATL@@UEAAJPEAPEAUIConnectionPointContainer@@@Z 0000000180018460 f i ImageScanner.obj
 0001:000174e0       ?GetConnectionPointContainer@?$IConnectionPointImpl@VCOPOSImageScanner@@$1?IID_IPropertyNotifySink@@3U_GUID@@BVCComDynamicUnkArray@ATL@@@ATL@@UEAAJPEAPEAUIConnectionPointContainer@@@Z 00000001800184e0 f i ImageScanner.obj
 0001:00017560       ?GetContentExtent@?$IQuickActivateImpl@VCOPOSImageScanner@@@ATL@@UEAAJPEAUtagSIZE@@@Z 0000000180018560 f i ImageScanner.obj
 0001:00017620       ?GetControlInfo@?$IOleControlImpl@VCOPOSImageScanner@@@ATL@@UEAAJPEAUtagCONTROLINFO@@@Z 0000000180018620 f i ImageScanner.obj
 0001:000176b0       ?GetCookie@CComDynamicUnkArray@ATL@@QEAAKPEAPEAUIUnknown@@@Z 00000001800186b0 f i ImageScanner.obj
 0001:000177a0       ?GetData@?$IDataObjectImpl@VCOPOSImageScanner@@@ATL@@UEAAJPEAUtagFORMATETC@@PEAUtagSTGMEDIUM@@@Z 00000001800187a0 f i ImageScanner.obj
 0001:00017860       ?GetData@CAtlSafeAllocBufferNode@?$CAtlSafeAllocBufferManager@VCCRTAllocator@ATL@@@_ATL_SAFE_ALLOCA_IMPL@ATL@@QEAAPEAXXZ 0000000180018860 f i ImageScanner.obj
 0001:00017880       ?GetDataHere@?$IDataObjectImpl@VCOPOSImageScanner@@@ATL@@UEAAJPEAUtagFORMATETC@@PEAUtagSTGMEDIUM@@@Z 0000000180018880 f i ImageScanner.obj
 0001:00017910       ?GetDropTarget@?$IOleInPlaceObjectWindowlessImpl@VCOPOSImageScanner@@@ATL@@UEAAJPEAPEAUIDropTarget@@@Z 0000000180018910 f i ImageScanner.obj
 0001:000179a0       ?GetExtent@?$IOleObjectImpl@VCOPOSImageScanner@@@ATL@@UEAAJKPEAUtagSIZE@@@Z 00000001800189a0 f i ImageScanner.obj
 0001:00017a70       ?GetExtent@?$IViewObjectExImpl@VCOPOSImageScanner@@@ATL@@UEAAJKJPEAUtagDVTARGETDEVICE@@PEAUtagSIZE@@@Z 0000000180018a70 f i ImageScanner.obj
 0001:00017b80       ?GetGITPtr@CAtlModule@ATL@@UEAAJPEAPEAUIGlobalInterfaceTable@@@Z 0000000180018b80 f i ImageScanner.obj
 0001:00017cc0       ?GetGUID@?$IProvideClassInfo2Impl@$1?CLSID_OPOSImageScanner@@3U_GUID@@B$1?DIID__IOPOSImageScannerEvents@@3U2@B$1?LIBID_OposImageScanner_CCO@@3U2@B$00$0A@VCComTypeInfoHolder@ATL@@@ATL@@UEAAJKPEAU_GUID@@@Z 0000000180018cc0 f i ImageScanner.obj
 0001:00017d40       ?GetIDsOfNames@?$IDispatchImpl@UIOPOSImageScanner@@$1?IID_IOPOSImageScanner@@3U_GUID@@B$1?LIBID_OposImageScanner_CCO@@3U3@B$00$0A@VCComTypeInfoHolder@ATL@@@ATL@@UEAAJAEBU_GUID@@PEAPEA_WIKPEAJ@Z 0000000180018d40 f i ImageScanner.obj
 0001:00017da0       ?GetIDsOfNames@CComTypeInfoHolder@ATL@@QEAAJAEBU_GUID@@PEAPEA_WIKPEAJ@Z 0000000180018da0 f i ImageScanner.obj
 0001:00017fc0       ?GetInterfaceSafetyOptions@?$IObjectSafetyImpl@VCOPOSImageScanner@@$02@ATL@@UEAAJAEBU_GUID@@PEAK1@Z 0000000180018fc0 f i ImageScanner.obj
 0001:00018160       ?GetKeyAt@?$CSimpleMap@PEA_WPEA_WVCExpansionVectorEqualHelper@ATL@@@ATL@@QEBAAEAPEA_WH@Z 0000000180019160 f i ImageScanner.obj
 0001:00018210       ?GetLockCount@CAtlModule@ATL@@UEAAJXZ 0000000180019210 f i ImageScanner.obj
 0001:00018220       ?GetMiscStatus@?$IOleObjectImpl@VCOPOSImageScanner@@@ATL@@UEAAJKPEAK@Z 0000000180019220 f i ImageScanner.obj
 0001:000182b0       ?GetMoniker@?$IOleObjectImpl@VCOPOSImageScanner@@@ATL@@UEAAJKKPEAPEAUIMoniker@@@Z 00000001800192b0 f i ImageScanner.obj
 0001:00018340       ?GetNaturalExtent@?$IViewObjectExImpl@VCOPOSImageScanner@@@ATL@@UEAAJKJPEAUtagDVTARGETDEVICE@@PEAUHDC__@@PEAUtagExtentInfo@@PEAUtagSIZE@@@Z 0000000180019340 f i ImageScanner.obj
 0001:000184d0       ?GetObjectCLSID@?$CComCoClass@VCOPOSImageScanner@@$1?CLSID_OPOSImageScanner@@3U_GUID@@B@ATL@@SAAEBU_GUID@@XZ 00000001800194d0 f i ImageScanner.obj
 0001:000184e0       ?GetPages@?$ISpecifyPropertyPagesImpl@VCOPOSImageScanner@@@ATL@@UEAAJPEAUtagCAUUID@@@Z 00000001800194e0 f i ImageScanner.obj
 0001:00018570       ?GetPagesHelper@?$ISpecifyPropertyPagesImpl@VCOPOSImageScanner@@@ATL@@IEAAJPEAUtagCAUUID@@PEBUATL_PROPMAP_ENTRY@2@@Z 0000000180019570 f i ImageScanner.obj
 0001:000187e0       ?GetProperty@?$CComPtr@UIDispatch@@@ATL@@QEAAJJPEAUtagVARIANT@@@Z 00000001800197e0 f i ImageScanner.obj
 0001:00018830       ?GetProperty@?$CComPtr@UIDispatch@@@ATL@@SAJPEAUIDispatch@@JPEAUtagVARIANT@@@Z 0000000180019830 f i ImageScanner.obj
 0001:00018a00       ?GetPropertyMap@COPOSImageScanner@@SAPEBUATL_PROPMAP_ENTRY@ATL@@XZ 0000000180019a00 f i ImageScanner.obj
 0001:00018a10       ?GetRect@?$IViewObjectExImpl@VCOPOSImageScanner@@@ATL@@UEAAJKPEAU_RECTL@@@Z 0000000180019a10 f i ImageScanner.obj
 0001:00018aa0       ?GetSize@?$CSimpleMap@PEA_WPEA_WVCExpansionVectorEqualHelper@ATL@@@ATL@@QEBAHXZ 0000000180019aa0 f i ImageScanner.obj
 0001:00018ab0       ?GetSize@CComDynamicUnkArray@ATL@@QEBAHXZ 0000000180019ab0 f i ImageScanner.obj
 0001:00018ac0       ?GetSizeMax@?$IPersistStreamInitImpl@VCOPOSImageScanner@@@ATL@@UEAAJPEAT_ULARGE_INTEGER@@@Z 0000000180019ac0 f i ImageScanner.obj
 0001:00019250       ?GetSizeMax@CComVariant@ATL@@QEBAJPEAT_ULARGE_INTEGER@@@Z 000000018001a250 f i ImageScanner.obj
 0001:00019680       ?GetStreamSize@CComBSTR@ATL@@SAKPEA_W@Z 000000018001a680 f i ImageScanner.obj
 0001:000196e0       ?GetTI@CComTypeInfoHolder@ATL@@QEAAJK@Z 000000018001a6e0 f i ImageScanner.obj
 0001:00019fb0       ?GetTI@CComTypeInfoHolder@ATL@@QEAAJKPEAPEAUITypeInfo@@@Z 000000018001afb0 f i ImageScanner.obj
 0001:0001a0a0       ?GetTypeInfo@?$IDispatchImpl@UIOPOSImageScanner@@$1?IID_IOPOSImageScanner@@3U_GUID@@B$1?LIBID_OposImageScanner_CCO@@3U3@B$00$0A@VCComTypeInfoHolder@ATL@@@ATL@@UEAAJIKPEAPEAUITypeInfo@@@Z 000000018001b0a0 f i ImageScanner.obj
 0001:0001a0f0       ?GetTypeInfo@CComTypeInfoHolder@ATL@@QEAAJIKPEAPEAUITypeInfo@@@Z 000000018001b0f0 f i ImageScanner.obj
 0001:0001a150       ?GetTypeInfoCount@?$IDispatchImpl@UIOPOSImageScanner@@$1?IID_IOPOSImageScanner@@3U_GUID@@B$1?LIBID_OposImageScanner_CCO@@3U3@B$00$0A@VCComTypeInfoHolder@ATL@@@ATL@@UEAAJPEAI@Z 000000018001b150 f i ImageScanner.obj
 0001:0001a180       ?GetUnknown@CComDynamicUnkArray@ATL@@QEAAPEAUIUnknown@@K@Z 000000018001b180 f i ImageScanner.obj
 0001:0001a230       ?GetUnknown@COPOSImageScanner@@QEAAPEAUIUnknown@@XZ 000000018001b230 f i ImageScanner.obj
 0001:0001a260       ?GetUserClassID@?$IOleObjectImpl@VCOPOSImageScanner@@@ATL@@UEAAJPEAU_GUID@@@Z 000000018001b260 f i ImageScanner.obj
 0001:0001a340       ?GetUserType@?$IOleObjectImpl@VCOPOSImageScanner@@@ATL@@UEAAJKPEAPEA_W@Z 000000018001b340 f i ImageScanner.obj
 0001:0001a3d0       ?GetValueAt@?$CSimpleMap@PEA_WPEA_WVCExpansionVectorEqualHelper@ATL@@@ATL@@QEBAAEAPEA_WH@Z 000000018001b3d0 f i ImageScanner.obj
 0001:0001a480       ?GetViewStatus@?$IViewObjectExImpl@VCOPOSImageScanner@@@ATL@@UEAAJPEAK@Z 000000018001b480 f i ImageScanner.obj
 0001:0001a580       ?GetWNDPROC@CWndProcThunk@ATL@@QEAAP6A_JPEAUHWND__@@I_K_J@ZXZ 000000018001b580 f i ImageScanner.obj
 0001:0001a5c0       ?GetWindow@?$IOleInPlaceActiveObjectImpl@VCOPOSImageScanner@@@ATL@@UEAAJPEAPEAUHWND__@@@Z 000000018001b5c0 f i ImageScanner.obj
 0001:0001a6c0       ?GetWindow@?$IOleInPlaceObjectWindowlessImpl@VCOPOSImageScanner@@@ATL@@UEAAJPEAPEAUHWND__@@@Z 000000018001b6c0 f i ImageScanner.obj
 0001:0001a7c0       ?GetWindowProc@?$CWindowImplBaseT@VCWindow@ATL@@V?$CWinTraits@$0FGAAAAAA@$0A@@2@@ATL@@UEAAP6A_JPEAUHWND__@@I_K_J@ZXZ 000000018001b7c0 f i ImageScanner.obj
 0001:0001a7d0       ?GetWndCaption@?$CWindowImpl@VCOPOSImageScanner@@VCWindow@ATL@@V?$CWinTraits@$0FGAAAAAA@$0A@@3@@ATL@@SAPEB_WXZ 000000018001b7d0 f i ImageScanner.obj
 0001:0001a7e0       ?GetWndClassInfo@?$CWindowImpl@VCOPOSImageScanner@@VCWindow@ATL@@V?$CWinTraits@$0FGAAAAAA@$0A@@3@@ATL@@SAAEAU_ATL_WNDCLASSINFOW@2@XZ 000000018001b7e0 f i ImageScanner.obj
 0001:0001a7f0       ?GetWndClassName@CWindow@ATL@@SAPEB_WXZ 000000018001b7f0 f i ImageScanner.obj
 0001:0001a800       ?GetWndExStyle@?$CWinTraits@$0FGAAAAAA@$0A@@ATL@@SAKK@Z 000000018001b800 f i ImageScanner.obj
 0001:0001a840       ?GetWndExStyle@?$CWindowImplBaseT@VCWindow@ATL@@V?$CWinTraits@$0FGAAAAAA@$0A@@2@@ATL@@SAKK@Z 000000018001b840 f i ImageScanner.obj
 0001:0001a870       ?GetWndStyle@?$CWinTraits@$0FGAAAAAA@$0A@@ATL@@SAKK@Z 000000018001b870 f i ImageScanner.obj
 0001:0001a8b0       ?GetWndStyle@?$CWindowImplBaseT@VCWindow@ATL@@V?$CWinTraits@$0FGAAAAAA@$0A@@2@@ATL@@SAKK@Z 000000018001b8b0 f i ImageScanner.obj
 0001:0001a8e0       ?GetZoomInfo@CComControlBase@ATL@@QEAAXAEAUATL_DRAWINFO@@@Z 000000018001b8e0 f i ImageScanner.obj
 0001:0001aa90       ?HKeyFromString@CRegParser@ATL@@KAPEAUHKEY__@@PEA_W@Z 000000018001ba90 f i ImageScanner.obj
 0001:0001ab20       ?HandsOffStorage@?$IPersistStorageImpl@VCOPOSImageScanner@@@ATL@@UEAAJXZ 000000018001bb20 f i ImageScanner.obj
 0001:0001ab90       ?HasSubKeys@CRegParser@ATL@@IEAAHPEAUHKEY__@@@Z 000000018001bb90 f i ImageScanner.obj
 0001:0001ad00       ?IDataObject_GetData@CComControlBase@ATL@@QEAAJPEAUtagFORMATETC@@PEAUtagSTGMEDIUM@@@Z 000000018001bd00 f i ImageScanner.obj
 0001:0001b1b0       ?IOleInPlaceObject_InPlaceDeactivate@CComControlBase@ATL@@QEAAJXZ 000000018001c1b0 f i ImageScanner.obj
 0001:0001b420       ?IOleInPlaceObject_SetObjectRects@CComControlBase@ATL@@QEAAJPEBUtagRECT@@0@Z 000000018001c420 f i ImageScanner.obj
 0001:0001b600       ?IOleInPlaceObject_UIDeactivate@CComControlBase@ATL@@QEAAJXZ 000000018001c600 f i ImageScanner.obj
 0001:0001b870       ?IOleObject_Advise@CComControlBase@ATL@@QEAAJPEAUIAdviseSink@@PEAK@Z 000000018001c870 f i ImageScanner.obj
 0001:0001b920       ?IOleObject_Close@CComControlBase@ATL@@QEAAJK@Z 000000018001c920 f i ImageScanner.obj
 0001:0001bc90       ?IOleObject_GetClientSite@CComControlBase@ATL@@QEAAJPEAPEAUIOleClientSite@@@Z 000000018001cc90 f i ImageScanner.obj
 0001:0001bd60       ?IOleObject_SetClientSite@CComControlBase@ATL@@QEAAJPEAUIOleClientSite@@@Z 000000018001cd60 f i ImageScanner.obj
 0001:0001be70       ?IOleObject_SetExtent@CComControlBase@ATL@@QEAAJKPEAUtagSIZE@@@Z 000000018001ce70 f i ImageScanner.obj
 0001:0001bfe0       ?IPSI_GetIPersistStreamInit@?$IPersistStorageImpl@VCOPOSImageScanner@@@ATL@@AEAAPEAUIPersistStreamInit@@XZ 000000018001cfe0 f i ImageScanner.obj
 0001:0001c0a0       ?IPersistStreamInit_Load@?$IPersistStreamInitImpl@VCOPOSImageScanner@@@ATL@@QEAAJPEAUIStream@@PEBUATL_PROPMAP_ENTRY@2@@Z 000000018001d0a0 f i ImageScanner.obj
 0001:0001c140       ?IPersistStreamInit_Save@?$IPersistStreamInitImpl@VCOPOSImageScanner@@@ATL@@QEAAJPEAUIStream@@HPEBUATL_PROPMAP_ENTRY@2@@Z 000000018001d140 f i ImageScanner.obj
 0001:0001c200       ?IQuickActivate_QuickActivate@CComControlBase@ATL@@QEAAJPEAUtagQACONTAINER@@PEAUtagQACONTROL@@@Z 000000018001d200 f i ImageScanner.obj
 0001:0001ca40       ?IViewObject_Draw@CComControlBase@ATL@@QEAAJKJPEAXPEAUtagDVTARGETDEVICE@@PEAUHDC__@@2PEBU_RECTL@@3@Z 000000018001da40 f i ImageScanner.obj
 0001:0001ce90       ?InPlaceActivate@CComControlBase@ATL@@QEAAJJPEBUtagRECT@@@Z 000000018001de90 f i ImageScanner.obj
 0001:0001da30       ?InPlaceDeactivate@?$IOleInPlaceObjectWindowlessImpl@VCOPOSImageScanner@@@ATL@@UEAAJXZ 000000018001ea30 f i ImageScanner.obj
 0001:0001dae0       ?Increment@CComMultiThreadModel@ATL@@SAKPEAJ@Z 000000018001eae0 f i ImageScanner.obj
 0001:0001db00       ?Increment@CComSingleThreadModel@ATL@@SAKPEAJ@Z 000000018001eb00 f i ImageScanner.obj
 0001:0001db20       ?Init@?$CComEnumImpl@UIEnumConnectionPoints@@$1?_GUID_b196b285_bab4_101a_b69c_00aa00341d07@@3U__s_GUID@@BPEAUIConnectionPoint@@V?$_CopyInterface@UIConnectionPoint@@@ATL@@@ATL@@QEAAJPEAPEAUIConnectionPoint@@0PEAUIUnknown@@W4CComEnumFlags@2@@Z 000000018001eb20 f i ImageScanner.obj
 0001:0001de10       ?Init@?$CComEnumImpl@UIEnumConnections@@$1?_GUID_b196b287_bab4_101a_b69c_00aa00341d07@@3U__s_GUID@@BUtagCONNECTDATA@@V?$_Copy@UtagCONNECTDATA@@@ATL@@@ATL@@QEAAJPEAUtagCONNECTDATA@@0PEAUIUnknown@@W4CComEnumFlags@2@@Z 000000018001ee10 f i ImageScanner.obj
 0001:0001e100       ?Init@CComFakeCriticalSection@ATL@@QEAAJXZ 000000018001f100 f i ImageScanner.obj
 0001:0001e110       ?Init@CComModule@ATL@@QEAAJPEAU_ATL_OBJMAP_ENTRY30@2@PEAUHINSTANCE__@@PEBU_GUID@@@Z 000000018001f110 f i ImageScanner.obj
 0001:0001e200       ?Init@CComSafeDeleteCriticalSection@ATL@@QEAAJXZ 000000018001f200 f i ImageScanner.obj
 0001:0001e290       ?Init@CDynamicStdCallThunk2@ATL@@QEAAH_KPEAX@Z 000000018001f290 f i ImageScanner.obj
 0001:0001e310       ?Init@CWndProcThunk@ATL@@QEAAHP6A_JPEAUHWND__@@I_K_J@ZPEAX@Z 000000018001f310 f i ImageScanner.obj
 0001:0001e360       ?InitFromData@?$IOleObjectImpl@VCOPOSImageScanner@@@ATL@@UEAAJPEAUIDataObject@@HK@Z 000000018001f360 f i ImageScanner.obj
 0001:0001e3f0       ?InitLibId@?$CAtlModuleT@VCComModule@ATL@@@ATL@@SAXXZ 000000018001f3f0 f i ImageScanner.obj
 0001:0001e400       ?InitNew@?$IPersistStorageImpl@VCOPOSImageScanner@@@ATL@@UEAAJPEAUIStorage@@@Z 000000018001f400 f i ImageScanner.obj
 0001:0001e4f0       ?InitNew@?$IPersistStreamInitImpl@VCOPOSImageScanner@@@ATL@@UEAAJXZ 000000018001f4f0 f i ImageScanner.obj
 0001:0001e5a0       ?InlineIsEqualUnknown@ATL@@YAHAEBU_GUID@@@Z 000000018001f5a0 f i ImageScanner.obj
 0001:0001e630       ?InternalAddRef@?$CComObjectRootEx@VCComMultiThreadModel@ATL@@@ATL@@QEAAKXZ 000000018001f630 f i ImageScanner.obj
 0001:0001e6b0       ?InternalAddRef@?$CComObjectRootEx@VCComSingleThreadModel@ATL@@@ATL@@QEAAKXZ 000000018001f6b0 f i ImageScanner.obj
 0001:0001e730       ?InternalFinalConstructAddRef@CComObjectRootBase@ATL@@QEAAXXZ 000000018001f730 f i ImageScanner.obj
 0001:0001e740       ?InternalFinalConstructAddRef@COPOSImageScanner@@QEAAXXZ 000000018001f740 f i ImageScanner.obj
 0001:0001e780       ?InternalFinalConstructRelease@CComObjectRootBase@ATL@@QEAAXXZ 000000018001f780 f i ImageScanner.obj
 0001:0001e7f0       ?InternalFinalConstructRelease@COPOSImageScanner@@QEAAXXZ 000000018001f7f0 f i ImageScanner.obj
 0001:0001e830       ?InternalGetSite@CComControlBase@ATL@@QEAAJAEBU_GUID@@PEAPEAX@Z 000000018001f830 f i ImageScanner.obj
 0001:0001e910       ?InternalQueryInterface@CComObjectRootBase@ATL@@SAJPEAXPEBU_ATL_INTMAP_ENTRY@2@AEBU_GUID@@PEAPEAX@Z 000000018001f910 f i ImageScanner.obj
 0001:0001ea30       ?InternalRelease@?$CComObjectRootEx@VCComMultiThreadModel@ATL@@@ATL@@QEAAKXZ 000000018001fa30 f i ImageScanner.obj
 0001:0001eab0       ?InternalRelease@?$CComObjectRootEx@VCComSingleThreadModel@ATL@@@ATL@@QEAAKXZ 000000018001fab0 f i ImageScanner.obj
 0001:0001eb30       ?InternalSetAtIndex@?$CSimpleArray@GV?$CSimpleArrayEqualHelper@G@ATL@@@ATL@@QEAAXHAEBG@Z 000000018001fb30 f i ImageScanner.obj
 0001:0001ebb0       ?InternalSetAtIndex@?$CSimpleMap@PEA_WPEA_WVCExpansionVectorEqualHelper@ATL@@@ATL@@QEAAXHAEBQEA_W0@Z 000000018001fbb0 f i ImageScanner.obj
 0001:0001ec80       ?Invoke@?$IDispatchImpl@UIOPOSImageScanner@@$1?IID_IOPOSImageScanner@@3U_GUID@@B$1?LIBID_OposImageScanner_CCO@@3U3@B$00$0A@VCComTypeInfoHolder@ATL@@@ATL@@UEAAJJAEBU_GUID@@KGPEAUtagDISPPARAMS@@PEAUtagVARIANT@@PEAUtagEXCEPINFO@@PEAI@Z 000000018001fc80 f i ImageScanner.obj
 0001:0001ed20       ?Invoke@CComTypeInfoHolder@ATL@@QEAAJPEAUIDispatch@@JAEBU_GUID@@KGPEAUtagDISPPARAMS@@PEAUtagVARIANT@@PEAUtagEXCEPINFO@@PEAI@Z 000000018001fd20 f i ImageScanner.obj
 0001:0001ede0       ?IsDirty@?$IPersistStorageImpl@VCOPOSImageScanner@@@ATL@@UEAAJXZ 000000018001fde0 f i ImageScanner.obj
 0001:0001eed0       ?IsDirty@?$IPersistStreamInitImpl@VCOPOSImageScanner@@@ATL@@UEAAJXZ 000000018001fed0 f i ImageScanner.obj
 0001:0001ef90       ?IsEqualKey@CExpansionVectorEqualHelper@ATL@@SA_NQEA_W0@Z 000000018001ff90 f i ImageScanner.obj
 0001:0001efe0       ?IsEqualObject@?$CComPtrBase@UIOleClientSite@@@ATL@@QEAA_NPEAUIUnknown@@@Z 000000018001ffe0 f i ImageScanner.obj
 0001:0001f130       ?IsEqualObject@?$CComPtrBase@UITypeInfo@@@ATL@@QEAA_NPEAUIUnknown@@@Z 0000000180020130 f i ImageScanner.obj
 0001:0001f280       ?IsSpace@CRegParser@ATL@@IEAAH_W@Z 0000000180020280 f i ImageScanner.obj
 0001:0001f2e0       ?IsUpToDate@?$IOleObjectImpl@VCOPOSImageScanner@@@ATL@@UEAAJXZ 00000001800202e0 f i ImageScanner.obj
 0001:0001f350       ?Length@CComBSTR@ATL@@QEBAIXZ 0000000180020350 f i ImageScanner.obj
 0001:0001f390       ?Load@?$IPersistStorageImpl@VCOPOSImageScanner@@@ATL@@UEAAJPEAUIStorage@@@Z 0000000180020390 f i ImageScanner.obj
 0001:0001f540       ?Load@?$IPersistStreamInitImpl@VCOPOSImageScanner@@@ATL@@UEAAJPEAUIStream@@@Z 0000000180020540 f i ImageScanner.obj
 0001:0001f600       ?LoadCursorW@AtlModuleRegisterWndClassInfoParamW@ATL@@SAPEAUHICON__@@PEAUHINSTANCE__@@PEB_W@Z 0000000180020600 f i ImageScanner.obj
 0001:0001f640       ?LoadNameCache@CComTypeInfoHolder@ATL@@QEAAJPEAUITypeInfo@@@Z 0000000180020640 f i ImageScanner.obj
 0001:0001f980       ?Lock@?$CComCritSecLock@VCComCriticalSection@ATL@@@ATL@@QEAAJXZ 0000000180020980 f i ImageScanner.obj
 0001:0001fa70       ?Lock@?$CComObjectRootEx@VCComSingleThreadModel@ATL@@@ATL@@QEAAXXZ 0000000180020a70 f i ImageScanner.obj
 0001:0001fa80       ?Lock@CAtlModule@ATL@@UEAAJXZ 0000000180020a80 f i ImageScanner.obj
 0001:0001fac0       ?Lock@CComCriticalSection@ATL@@QEAAJXZ 0000000180020ac0 f i ImageScanner.obj
 0001:0001fb00       ?Lock@CComFakeCriticalSection@ATL@@QEAAJXZ 0000000180020b00 f i ImageScanner.obj
 0001:0001fb10       ?LockServer@CComClassFactory@ATL@@UEAAJH@Z 0000000180020b10 f i ImageScanner.obj
 0001:0001fb70       ?Lookup@?$CSimpleMap@PEA_WPEA_WVCExpansionVectorEqualHelper@ATL@@@ATL@@QEBAPEA_WAEBQEA_W@Z 0000000180020b70 f i ImageScanner.obj
 0001:0001fbd0       ?Next@?$CComEnumImpl@UIEnumConnectionPoints@@$1?_GUID_b196b285_bab4_101a_b69c_00aa00341d07@@3U__s_GUID@@BPEAUIConnectionPoint@@V?$_CopyInterface@UIConnectionPoint@@@ATL@@@ATL@@UEAAJKPEAPEAUIConnectionPoint@@PEAK@Z 0000000180020bd0 f i ImageScanner.obj
 0001:0001fd90       ?Next@?$CComEnumImpl@UIEnumConnections@@$1?_GUID_b196b287_bab4_101a_b69c_00aa00341d07@@3U__s_GUID@@BUtagCONNECTDATA@@V?$_Copy@UtagCONNECTDATA@@@ATL@@@ATL@@UEAAJKPEAUtagCONNECTDATA@@PEAK@Z 0000000180020d90 f i ImageScanner.obj
 0001:0001ff50       ?NextToken@CRegParser@ATL@@IEAAJPEA_W@Z 0000000180020f50 f i ImageScanner.obj
 0001:000202e0       ?OLE2CT_EX@@YAPEB_WPEB_WI@Z 00000001800212e0 f i ImageScanner.obj
 0001:00020300       ?OLE2CT_EX_DEF@@YAPEB_WPEB_W@Z 0000000180021300 f i ImageScanner.obj
 0001:00020310       ?OLE2T_EX@@YAPEA_WPEA_WI@Z 0000000180021310 f i ImageScanner.obj
 0001:00020330       ?OnAmbientPropertyChange@?$IOleControlImpl@VCOPOSImageScanner@@@ATL@@UEAAJJ@Z 0000000180021330 f i ImageScanner.obj
 0001:000203f0       ?OnDocWindowActivate@?$IOleInPlaceActiveObjectImpl@VCOPOSImageScanner@@@ATL@@UEAAJH@Z 00000001800213f0 f i ImageScanner.obj
 0001:000204b0       ?OnDrawAdvanced@CComControlBase@ATL@@UEAAJAEAUATL_DRAWINFO@@@Z 00000001800214b0 f i ImageScanner.obj
 0001:00020700       ?OnFinalMessage@?$CWindowImplBaseT@VCWindow@ATL@@V?$CWinTraits@$0FGAAAAAA@$0A@@2@@ATL@@UEAAXPEAUHWND__@@@Z 0000000180021700 f i ImageScanner.obj
 0001:00020710       ?OnFrameWindowActivate@?$IOleInPlaceActiveObjectImpl@VCOPOSImageScanner@@@ATL@@UEAAJH@Z 0000000180021710 f i ImageScanner.obj
 0001:00020780       ?OnKillFocus@CComControlBase@ATL@@QEAA_JI_K_JAEAH@Z 0000000180021780 f i ImageScanner.obj
 0001:00020870       ?OnMnemonic@?$IOleControlImpl@VCOPOSImageScanner@@@ATL@@UEAAJPEAUtagMSG@@@Z 0000000180021870 f i ImageScanner.obj
 0001:00020900       ?OnMouseActivate@CComControlBase@ATL@@QEAA_JI_K_JAEAH@Z 0000000180021900 f i ImageScanner.obj
 0001:00020aa0       ?OnPaint@CComControlBase@ATL@@QEAA_JI_K_JAEAH@Z 0000000180021aa0 f i ImageScanner.obj
 0001:00020c30       ?OnPostVerbDiscardUndo@?$IOleObjectImpl@VCOPOSImageScanner@@@ATL@@QEAAJXZ 0000000180021c30 f i ImageScanner.obj
 0001:00020c40       ?OnPostVerbHide@?$IOleObjectImpl@VCOPOSImageScanner@@@ATL@@QEAAJXZ 0000000180021c40 f i ImageScanner.obj
 0001:00020c50       ?OnPostVerbInPlaceActivate@?$IOleObjectImpl@VCOPOSImageScanner@@@ATL@@QEAAJXZ 0000000180021c50 f i ImageScanner.obj
 0001:00020c60       ?OnPostVerbOpen@?$IOleObjectImpl@VCOPOSImageScanner@@@ATL@@QEAAJXZ 0000000180021c60 f i ImageScanner.obj
 0001:00020c70       ?OnPostVerbShow@?$IOleObjectImpl@VCOPOSImageScanner@@@ATL@@QEAAJXZ 0000000180021c70 f i ImageScanner.obj
 0001:00020c80       ?OnPostVerbUIActivate@?$IOleObjectImpl@VCOPOSImageScanner@@@ATL@@QEAAJXZ 0000000180021c80 f i ImageScanner.obj
 0001:00020c90       ?OnPreVerbDiscardUndo@?$IOleObjectImpl@VCOPOSImageScanner@@@ATL@@QEAAJXZ 0000000180021c90 f i ImageScanner.obj
 0001:00020ca0       ?OnPreVerbHide@?$IOleObjectImpl@VCOPOSImageScanner@@@ATL@@QEAAJXZ 0000000180021ca0 f i ImageScanner.obj
 0001:00020cb0       ?OnPreVerbInPlaceActivate@?$IOleObjectImpl@VCOPOSImageScanner@@@ATL@@QEAAJXZ 0000000180021cb0 f i ImageScanner.obj
 0001:00020cc0       ?OnPreVerbOpen@?$IOleObjectImpl@VCOPOSImageScanner@@@ATL@@QEAAJXZ 0000000180021cc0 f i ImageScanner.obj
 0001:00020cd0       ?OnPreVerbShow@?$IOleObjectImpl@VCOPOSImageScanner@@@ATL@@QEAAJXZ 0000000180021cd0 f i ImageScanner.obj
 0001:00020ce0       ?OnPreVerbUIActivate@?$IOleObjectImpl@VCOPOSImageScanner@@@ATL@@QEAAJXZ 0000000180021ce0 f i ImageScanner.obj
 0001:00020cf0       ?OnSetFocus@CComControlBase@ATL@@QEAA_JI_K_JAEAH@Z 0000000180021cf0 f i ImageScanner.obj
 0001:00020ef0       ?OnWindowMessage@?$IOleInPlaceObjectWindowlessImpl@VCOPOSImageScanner@@@ATL@@UEAAJI_K_JPEA_J@Z 0000000180021ef0 f i ImageScanner.obj
 0001:00021110       ?Open@CRegKey@ATL@@QEAAJPEAUHKEY__@@PEB_WK@Z 0000000180022110 f i ImageScanner.obj
 0001:00021290       ?OuterAddRef@CComObjectRootBase@ATL@@QEAAKXZ 0000000180022290 f i ImageScanner.obj
 0001:000212d0       ?OuterQueryInterface@CComObjectRootBase@ATL@@QEAAJAEBU_GUID@@PEAPEAX@Z 00000001800222d0 f i ImageScanner.obj
 0001:00021320       ?OuterRelease@CComObjectRootBase@ATL@@QEAAKXZ 0000000180022320 f i ImageScanner.obj
 0001:00021360       ?PreProcessBuffer@CRegParser@ATL@@QEAAJPEA_WPEAPEA_W@Z 0000000180022360 f i ImageScanner.obj
 0001:00021a40       ?PreTranslateAccelerator@CComControlBase@ATL@@QEAAHPEAUtagMSG@@AEAJ@Z 0000000180022a40 f i ImageScanner.obj
 0001:00021a60       ?ProcessWindowMessage@?$CComControl@VCOPOSImageScanner@@V?$CWindowImpl@VCOPOSImageScanner@@VCWindow@ATL@@V?$CWinTraits@$0FGAAAAAA@$0A@@3@@ATL@@@ATL@@UEAAHPEAUHWND__@@I_K_JAEA_JK@Z 0000000180022a60 f i ImageScanner.obj
 0001:00021ce0       ?ProcessWindowMessage@COPOSImageScanner@@UEAAHPEAUHWND__@@I_K_JAEA_JK@Z 0000000180022ce0 f i ImageScanner.obj
 0001:00021e60       ?PutProperty@?$CComPtr@UIDispatch@@@ATL@@QEAAJJPEAUtagVARIANT@@@Z 0000000180022e60 f i ImageScanner.obj
 0001:00021eb0       ?PutProperty@?$CComPtr@UIDispatch@@@ATL@@SAJPEAUIDispatch@@JPEAUtagVARIANT@@@Z 0000000180022eb0 f i ImageScanner.obj
 0001:00022150       ?QueryGetData@?$IDataObjectImpl@VCOPOSImageScanner@@@ATL@@UEAAJPEAUtagFORMATETC@@@Z 0000000180023150 f i ImageScanner.obj
 0001:000221e0       ?QueryHitPoint@?$IViewObjectExImpl@VCOPOSImageScanner@@@ATL@@UEAAJKPEBUtagRECT@@UtagPOINT@@JPEAK@Z 00000001800231e0 f i ImageScanner.obj
 0001:00022350       ?QueryHitRect@?$IViewObjectExImpl@VCOPOSImageScanner@@@ATL@@UEAAJKPEBUtagRECT@@0JPEAK@Z 0000000180023350 f i ImageScanner.obj
 0001:00022520       ?QueryInterface@?$CComAggObject@VCOPOSImageScanner@@@ATL@@UEAAJAEBU_GUID@@PEAPEAX@Z 0000000180023520 f i ImageScanner.obj
 0001:00022610       ?QueryInterface@?$CComContainedObject@VCOPOSImageScanner@@@ATL@@UEAAJAEBU_GUID@@PEAPEAX@Z 0000000180023610 f i ImageScanner.obj
 0001:0002265c       ?QueryInterface@?$CComContainedObject@VCOPOSImageScanner@@@ATL@@WBAA@EAAJAEBU_GUID@@PEAPEAX@Z 000000018002365c f i ImageScanner.obj
 0001:00022668       ?QueryInterface@?$CComContainedObject@VCOPOSImageScanner@@@ATL@@WBAI@EAAJAEBU_GUID@@PEAPEAX@Z 0000000180023668 f i ImageScanner.obj
 0001:00022674       ?QueryInterface@?$CComContainedObject@VCOPOSImageScanner@@@ATL@@WBBA@EAAJAEBU_GUID@@PEAPEAX@Z 0000000180023674 f i ImageScanner.obj
 0001:00022680       ?QueryInterface@?$CComContainedObject@VCOPOSImageScanner@@@ATL@@WBBI@EAAJAEBU_GUID@@PEAPEAX@Z 0000000180023680 f i ImageScanner.obj
 0001:0002268c       ?QueryInterface@?$CComContainedObject@VCOPOSImageScanner@@@ATL@@WLI@EAAJAEBU_GUID@@PEAPEAX@Z 000000018002368c f i ImageScanner.obj
 0001:00022698       ?QueryInterface@?$CComContainedObject@VCOPOSImageScanner@@@ATL@@WMA@EAAJAEBU_GUID@@PEAPEAX@Z 0000000180023698 f i ImageScanner.obj
 0001:000226a4       ?QueryInterface@?$CComContainedObject@VCOPOSImageScanner@@@ATL@@WMI@EAAJAEBU_GUID@@PEAPEAX@Z 00000001800236a4 f i ImageScanner.obj
 0001:000226b0       ?QueryInterface@?$CComContainedObject@VCOPOSImageScanner@@@ATL@@WNA@EAAJAEBU_GUID@@PEAPEAX@Z 00000001800236b0 f i ImageScanner.obj
 0001:000226bc       ?QueryInterface@?$CComContainedObject@VCOPOSImageScanner@@@ATL@@WNI@EAAJAEBU_GUID@@PEAPEAX@Z 00000001800236bc f i ImageScanner.obj
 0001:000226c8       ?QueryInterface@?$CComContainedObject@VCOPOSImageScanner@@@ATL@@WOA@EAAJAEBU_GUID@@PEAPEAX@Z 00000001800236c8 f i ImageScanner.obj
 0001:000226d4       ?QueryInterface@?$CComContainedObject@VCOPOSImageScanner@@@ATL@@WOI@EAAJAEBU_GUID@@PEAPEAX@Z 00000001800236d4 f i ImageScanner.obj
 0001:000226e0       ?QueryInterface@?$CComContainedObject@VCOPOSImageScanner@@@ATL@@WPA@EAAJAEBU_GUID@@PEAPEAX@Z 00000001800236e0 f i ImageScanner.obj
 0001:000226ec       ?QueryInterface@?$CComContainedObject@VCOPOSImageScanner@@@ATL@@WPI@EAAJAEBU_GUID@@PEAPEAX@Z 00000001800236ec f i ImageScanner.obj
 0001:00022700       ?QueryInterface@?$CComObject@V?$CComEnum@UIEnumConnectionPoints@@$1?_GUID_b196b285_bab4_101a_b69c_00aa00341d07@@3U__s_GUID@@BPEAUIConnectionPoint@@V?$_CopyInterface@UIConnectionPoint@@@ATL@@VCComSingleThreadModel@6@@ATL@@@ATL@@UEAAJAEBU_GUID@@PEAPEAX@Z 0000000180023700 f i ImageScanner.obj
 0001:00022750       ?QueryInterface@?$CComObject@V?$CComEnum@UIEnumConnections@@$1?_GUID_b196b287_bab4_101a_b69c_00aa00341d07@@3U__s_GUID@@BUtagCONNECTDATA@@V?$_Copy@UtagCONNECTDATA@@@ATL@@VCComSingleThreadModel@6@@ATL@@@ATL@@UEAAJAEBU_GUID@@PEAPEAX@Z 0000000180023750 f i ImageScanner.obj
 0001:000227a0       ?QueryInterface@?$CComObject@VCOPOSImageScanner@@@ATL@@UEAAJAEBU_GUID@@PEAPEAX@Z 00000001800237a0 f i ImageScanner.obj
 0001:000227e4       ?QueryInterface@?$CComObject@VCOPOSImageScanner@@@ATL@@WBAA@EAAJAEBU_GUID@@PEAPEAX@Z 00000001800237e4 f i ImageScanner.obj
 0001:000227f0       ?QueryInterface@?$CComObject@VCOPOSImageScanner@@@ATL@@WBAI@EAAJAEBU_GUID@@PEAPEAX@Z 00000001800237f0 f i ImageScanner.obj
 0001:000227fc       ?QueryInterface@?$CComObject@VCOPOSImageScanner@@@ATL@@WBBA@EAAJAEBU_GUID@@PEAPEAX@Z 00000001800237fc f i ImageScanner.obj
 0001:00022808       ?QueryInterface@?$CComObject@VCOPOSImageScanner@@@ATL@@WBBI@EAAJAEBU_GUID@@PEAPEAX@Z 0000000180023808 f i ImageScanner.obj
 0001:00022814       ?QueryInterface@?$CComObject@VCOPOSImageScanner@@@ATL@@WLI@EAAJAEBU_GUID@@PEAPEAX@Z 0000000180023814 f i ImageScanner.obj
 0001:00022820       ?QueryInterface@?$CComObject@VCOPOSImageScanner@@@ATL@@WMA@EAAJAEBU_GUID@@PEAPEAX@Z 0000000180023820 f i ImageScanner.obj
 0001:0002282c       ?QueryInterface@?$CComObject@VCOPOSImageScanner@@@ATL@@WMI@EAAJAEBU_GUID@@PEAPEAX@Z 000000018002382c f i ImageScanner.obj
 0001:00022838       ?QueryInterface@?$CComObject@VCOPOSImageScanner@@@ATL@@WNA@EAAJAEBU_GUID@@PEAPEAX@Z 0000000180023838 f i ImageScanner.obj
 0001:00022844       ?QueryInterface@?$CComObject@VCOPOSImageScanner@@@ATL@@WNI@EAAJAEBU_GUID@@PEAPEAX@Z 0000000180023844 f i ImageScanner.obj
 0001:00022850       ?QueryInterface@?$CComObject@VCOPOSImageScanner@@@ATL@@WOA@EAAJAEBU_GUID@@PEAPEAX@Z 0000000180023850 f i ImageScanner.obj
 0001:0002285c       ?QueryInterface@?$CComObject@VCOPOSImageScanner@@@ATL@@WOI@EAAJAEBU_GUID@@PEAPEAX@Z 000000018002385c f i ImageScanner.obj
 0001:00022868       ?QueryInterface@?$CComObject@VCOPOSImageScanner@@@ATL@@WPA@EAAJAEBU_GUID@@PEAPEAX@Z 0000000180023868 f i ImageScanner.obj
 0001:00022874       ?QueryInterface@?$CComObject@VCOPOSImageScanner@@@ATL@@WPI@EAAJAEBU_GUID@@PEAPEAX@Z 0000000180023874 f i ImageScanner.obj
 0001:00022880       ?QueryInterface@?$CComObjectCached@VCComClassFactory@ATL@@@ATL@@UEAAJAEBU_GUID@@PEAPEAX@Z 0000000180023880 f i ImageScanner.obj
 0001:000228d0       ?QueryInterface@CRegObject@ATL@@UEAAJAEBU_GUID@@PEAPEAX@Z 00000001800238d0 f i ImageScanner.obj
 0001:00022950       ?QuickActivate@?$IQuickActivateImpl@VCOPOSImageScanner@@@ATL@@UEAAJPEAUtagQACONTAINER@@PEAUtagQACONTROL@@@Z 0000000180023950 f i ImageScanner.obj
 0001:00022a10       ?ReactivateAndUndo@?$IOleInPlaceObjectWindowlessImpl@VCOPOSImageScanner@@@ATL@@UEAAJXZ 0000000180023a10 f i ImageScanner.obj
 0001:00022a90       ?ReadFromStream@CComBSTR@ATL@@QEAAJPEAUIStream@@@Z 0000000180023a90 f i ImageScanner.obj
 0001:00022f70       ?ReadFromStream@CComVariant@ATL@@QEAAJPEAUIStream@@GTClassesAllowedInStream@2@K@Z 0000000180023f70 f i ImageScanner.obj
 0001:000233a0       ?RecurseDeleteKey@CRegKey@ATL@@QEAAJPEB_W@Z 00000001800243a0 f i ImageScanner.obj
 0001:000235c0       ?RegCreateKeyExW@CAtlTransactionManager@ATL@@QEAAJPEAUHKEY__@@PEB_WKPEA_WKKQEAU_SECURITY_ATTRIBUTES@@PEAPEAU3@PEAK@Z 00000001800245c0 f i ImageScanner.obj
 0001:00023790       ?RegDeleteKeyW@CAtlTransactionManager@ATL@@QEAAJPEAUHKEY__@@PEB_W@Z 0000000180024790 f i ImageScanner.obj
 0001:000238a0       ?RegOpenKeyExW@CAtlTransactionManager@ATL@@QEAAJPEAUHKEY__@@PEB_WKKPEAPEAU3@@Z 00000001800248a0 f i ImageScanner.obj
 0001:000239f0       ?Register@_ATL_WNDCLASSINFOW@ATL@@QEAAGPEAP6A_JPEAUHWND__@@I_K_J@Z@Z 00000001800249f0 f i ImageScanner.obj
 0001:00023a40       ?RegisterBuffer@CRegParser@ATL@@QEAAJPEA_WH@Z 0000000180024a40 f i ImageScanner.obj
 0001:00023e30       ?RegisterClassExW@AtlModuleRegisterWndClassInfoParamW@ATL@@SAGPEAU_ATL_WIN_MODULE70@2@PEBUtagWNDCLASSEXW@@@Z 0000000180024e30 f i ImageScanner.obj
 0001:00023e70       ?RegisterFromResource@CRegObject@ATL@@IEAAJPEB_W00H@Z 0000000180024e70 f i ImageScanner.obj
 0001:000242d0       ?RegisterServer@?$CAtlModuleT@VCComModule@ATL@@@ATL@@QEAAJHPEBU_GUID@@@Z 00000001800252d0 f i ImageScanner.obj
 0001:00024350       ?RegisterServer@CAtlComModule@ATL@@QEAAJHPEBU_GUID@@@Z 0000000180025350 f i ImageScanner.obj
 0001:00024390       ?RegisterServer@CComModule@ATL@@QEAAJHPEBU_GUID@@@Z 0000000180025390 f i ImageScanner.obj
 0001:00024490       ?RegisterSubkeys@CRegParser@ATL@@IEAAJPEA_WPEAUHKEY__@@HH@Z 0000000180025490 f i ImageScanner.obj
 0001:00025270       ?Release@?$CComAggObject@VCOPOSImageScanner@@@ATL@@UEAAKXZ 0000000180026270 f i ImageScanner.obj
 0001:00025320       ?Release@?$CComContainedObject@VCOPOSImageScanner@@@ATL@@UEAAKXZ 0000000180026320 f i ImageScanner.obj
 0001:00025358       ?Release@?$CComContainedObject@VCOPOSImageScanner@@@ATL@@WBAA@EAAKXZ 0000000180026358 f i ImageScanner.obj
 0001:00025364       ?Release@?$CComContainedObject@VCOPOSImageScanner@@@ATL@@WBAI@EAAKXZ 0000000180026364 f i ImageScanner.obj
 0001:00025370       ?Release@?$CComContainedObject@VCOPOSImageScanner@@@ATL@@WBBA@EAAKXZ 0000000180026370 f i ImageScanner.obj
 0001:0002537c       ?Release@?$CComContainedObject@VCOPOSImageScanner@@@ATL@@WBBI@EAAKXZ 000000018002637c f i ImageScanner.obj
 0001:00025388       ?Release@?$CComContainedObject@VCOPOSImageScanner@@@ATL@@WBCI@EAAKXZ 0000000180026388 f i ImageScanner.obj
 0001:00025394       ?Release@?$CComContainedObject@VCOPOSImageScanner@@@ATL@@WBEA@EAAKXZ 0000000180026394 f i ImageScanner.obj
 0001:000253a0       ?Release@?$CComContainedObject@VCOPOSImageScanner@@@ATL@@WLI@EAAKXZ 00000001800263a0 f i ImageScanner.obj
 0001:000253ac       ?Release@?$CComContainedObject@VCOPOSImageScanner@@@ATL@@WMA@EAAKXZ 00000001800263ac f i ImageScanner.obj
 0001:000253b8       ?Release@?$CComContainedObject@VCOPOSImageScanner@@@ATL@@WMI@EAAKXZ 00000001800263b8 f i ImageScanner.obj
 0001:000253c4       ?Release@?$CComContainedObject@VCOPOSImageScanner@@@ATL@@WNA@EAAKXZ 00000001800263c4 f i ImageScanner.obj
 0001:000253d0       ?Release@?$CComContainedObject@VCOPOSImageScanner@@@ATL@@WNI@EAAKXZ 00000001800263d0 f i ImageScanner.obj
 0001:000253dc       ?Release@?$CComContainedObject@VCOPOSImageScanner@@@ATL@@WOA@EAAKXZ 00000001800263dc f i ImageScanner.obj
 0001:000253e8       ?Release@?$CComContainedObject@VCOPOSImageScanner@@@ATL@@WOI@EAAKXZ 00000001800263e8 f i ImageScanner.obj
 0001:000253f4       ?Release@?$CComContainedObject@VCOPOSImageScanner@@@ATL@@WPA@EAAKXZ 00000001800263f4 f i ImageScanner.obj
 0001:00025400       ?Release@?$CComContainedObject@VCOPOSImageScanner@@@ATL@@WPI@EAAKXZ 0000000180026400 f i ImageScanner.obj
 0001:00025410       ?Release@?$CComObject@V?$CComEnum@UIEnumConnectionPoints@@$1?_GUID_b196b285_bab4_101a_b69c_00aa00341d07@@3U__s_GUID@@BPEAUIConnectionPoint@@V?$_CopyInterface@UIConnectionPoint@@@ATL@@VCComSingleThreadModel@6@@ATL@@@ATL@@UEAAKXZ 0000000180026410 f i ImageScanner.obj
 0001:000254c0       ?Release@?$CComObject@V?$CComEnum@UIEnumConnections@@$1?_GUID_b196b287_bab4_101a_b69c_00aa00341d07@@3U__s_GUID@@BUtagCONNECTDATA@@V?$_Copy@UtagCONNECTDATA@@@ATL@@VCComSingleThreadModel@6@@ATL@@@ATL@@UEAAKXZ 00000001800264c0 f i ImageScanner.obj
 0001:00025570       ?Release@?$CComObject@VCOPOSImageScanner@@@ATL@@UEAAKXZ 0000000180026570 f i ImageScanner.obj
 0001:00025628       ?Release@?$CComObject@VCOPOSImageScanner@@@ATL@@WBAA@EAAKXZ 0000000180026628 f i ImageScanner.obj
 0001:00025634       ?Release@?$CComObject@VCOPOSImageScanner@@@ATL@@WBAI@EAAKXZ 0000000180026634 f i ImageScanner.obj
 0001:00025640       ?Release@?$CComObject@VCOPOSImageScanner@@@ATL@@WBBA@EAAKXZ 0000000180026640 f i ImageScanner.obj
 0001:0002564c       ?Release@?$CComObject@VCOPOSImageScanner@@@ATL@@WBBI@EAAKXZ 000000018002664c f i ImageScanner.obj
 0001:00025658       ?Release@?$CComObject@VCOPOSImageScanner@@@ATL@@WBCI@EAAKXZ 0000000180026658 f i ImageScanner.obj
 0001:00025664       ?Release@?$CComObject@VCOPOSImageScanner@@@ATL@@WBEA@EAAKXZ 0000000180026664 f i ImageScanner.obj
 0001:00025670       ?Release@?$CComObject@VCOPOSImageScanner@@@ATL@@WLI@EAAKXZ 0000000180026670 f i ImageScanner.obj
 0001:0002567c       ?Release@?$CComObject@VCOPOSImageScanner@@@ATL@@WMA@EAAKXZ 000000018002667c f i ImageScanner.obj
 0001:00025688       ?Release@?$CComObject@VCOPOSImageScanner@@@ATL@@WMI@EAAKXZ 0000000180026688 f i ImageScanner.obj
 0001:00025694       ?Release@?$CComObject@VCOPOSImageScanner@@@ATL@@WNA@EAAKXZ 0000000180026694 f i ImageScanner.obj
 0001:000256a0       ?Release@?$CComObject@VCOPOSImageScanner@@@ATL@@WNI@EAAKXZ 00000001800266a0 f i ImageScanner.obj
 0001:000256ac       ?Release@?$CComObject@VCOPOSImageScanner@@@ATL@@WOA@EAAKXZ 00000001800266ac f i ImageScanner.obj
 0001:000256b8       ?Release@?$CComObject@VCOPOSImageScanner@@@ATL@@WOI@EAAKXZ 00000001800266b8 f i ImageScanner.obj
 0001:000256c4       ?Release@?$CComObject@VCOPOSImageScanner@@@ATL@@WPA@EAAKXZ 00000001800266c4 f i ImageScanner.obj
 0001:000256d0       ?Release@?$CComObject@VCOPOSImageScanner@@@ATL@@WPI@EAAKXZ 00000001800266d0 f i ImageScanner.obj
 0001:000256e0       ?Release@?$CComObjectCached@VCComClassFactory@ATL@@@ATL@@UEAAKXZ 00000001800266e0 f i ImageScanner.obj
 0001:00025780       ?Release@?$CComPtrBase@UIAdviseSink@@@ATL@@QEAAXXZ 0000000180026780 f i ImageScanner.obj
 0001:000257e0       ?Release@?$CComPtrBase@UIDispatch@@@ATL@@QEAAXXZ 00000001800267e0 f i ImageScanner.obj
 0001:00025840       ?Release@?$CComPtrBase@UIOleInPlaceSiteWindowless@@@ATL@@QEAAXXZ 0000000180026840 f i ImageScanner.obj
 0001:000258a0       ?Release@CRegObject@ATL@@UEAAKXZ 00000001800268a0 f i ImageScanner.obj
 0001:00025910       ?Remove@CComDynamicUnkArray@ATL@@QEAAHK@Z 0000000180026910 f i ImageScanner.obj
 0001:000259f0       ?RemoveAll@?$CSimpleMap@PEA_WPEA_WVCExpansionVectorEqualHelper@ATL@@@ATL@@QEAAXXZ 00000001800269f0 f i ImageScanner.obj
 0001:00025a90       ?Reset@?$CComEnumImpl@UIEnumConnectionPoints@@$1?_GUID_b196b285_bab4_101a_b69c_00aa00341d07@@3U__s_GUID@@BPEAUIConnectionPoint@@V?$_CopyInterface@UIConnectionPoint@@@ATL@@@ATL@@UEAAJXZ 0000000180026a90 f i ImageScanner.obj
 0001:00025ab0       ?Reset@?$CComEnumImpl@UIEnumConnections@@$1?_GUID_b196b287_bab4_101a_b69c_00aa00341d07@@3U__s_GUID@@BUtagCONNECTDATA@@V?$_Copy@UtagCONNECTDATA@@@ATL@@@ATL@@UEAAJXZ 0000000180026ab0 f i ImageScanner.obj
 0001:00025ad0       ?ResizeBorder@?$IOleInPlaceActiveObjectImpl@VCOPOSImageScanner@@@ATL@@UEAAJPEBUtagRECT@@PEAUIOleInPlaceUIWindow@@H@Z 0000000180026ad0 f i ImageScanner.obj
 0001:00025b50       ?ResourceRegister@CRegObject@ATL@@QEAAJPEB_WI0@Z 0000000180026b50 f i ImageScanner.obj
 0001:00025c30       ?ResourceRegisterSz@CRegObject@ATL@@QEAAJPEB_W00@Z 0000000180026c30 f i ImageScanner.obj
 0001:00025d50       ?ResourceUnregister@CRegObject@ATL@@QEAAJPEB_WI0@Z 0000000180026d50 f i ImageScanner.obj
 0001:00025e30       ?ResourceUnregisterSz@CRegObject@ATL@@QEAAJPEB_W00@Z 0000000180026e30 f i ImageScanner.obj
 0001:00025f50       ?SOData@COPOSImageScanner@@MEAAJJ@Z 0000000180026f50 f i ImageScanner.obj
 0001:00025ff0       ?SODirectIO@COPOSImageScanner@@MEAAJJPEAJPEAPEA_W@Z 0000000180026ff0 f i ImageScanner.obj
 0001:00026230       ?SOError@COPOSImageScanner@@MEAAJJJJPEAJ@Z 0000000180027230 f i ImageScanner.obj
 0001:00026340       ?SOOutputCompleteDummy@COPOSImageScanner@@MEAAJJ@Z 0000000180027340 f i ImageScanner.obj
 0001:00026360       ?SOStatusUpdate@COPOSImageScanner@@MEAAJJ@Z 0000000180027360 f i ImageScanner.obj
 0001:00026400       ?Save@?$IPersistStorageImpl@VCOPOSImageScanner@@@ATL@@UEAAJPEAUIStorage@@H@Z 0000000180027400 f i ImageScanner.obj
 0001:000265c0       ?Save@?$IPersistStreamInitImpl@VCOPOSImageScanner@@@ATL@@UEAAJPEAUIStream@@H@Z 00000001800275c0 f i ImageScanner.obj
 0001:00026680       ?SaveCompleted@?$IPersistStorageImpl@VCOPOSImageScanner@@@ATL@@UEAAJPEAUIStorage@@@Z 0000000180027680 f i ImageScanner.obj
 0001:000266f0       ?SendOnDataChange@CComControlBase@ATL@@QEAAJK@Z 00000001800276f0 f i ImageScanner.obj
 0001:000267e0       ?SendOnSave@CComControlBase@ATL@@QEAAJXZ 00000001800277e0 f i ImageScanner.obj
 0001:00026850       ?SendOnViewChange@CComControlBase@ATL@@QEAAJKJ@Z 0000000180027850 f i ImageScanner.obj
 0001:000268d0       ?SetAdvise@?$IViewObjectExImpl@VCOPOSImageScanner@@@ATL@@UEAAJKKPEAUIAdviseSink@@@Z 00000001800278d0 f i ImageScanner.obj
 0001:00026990       ?SetClientSite@?$IOleObjectImpl@VCOPOSImageScanner@@@ATL@@UEAAJPEAUIOleClientSite@@@Z 0000000180027990 f i ImageScanner.obj
 0001:00026a40       ?SetColorScheme@?$IOleObjectImpl@VCOPOSImageScanner@@@ATL@@UEAAJPEAUtagLOGPALETTE@@@Z 0000000180027a40 f i ImageScanner.obj
 0001:00026ad0       ?SetContentExtent@?$IQuickActivateImpl@VCOPOSImageScanner@@@ATL@@UEAAJPEAUtagSIZE@@@Z 0000000180027ad0 f i ImageScanner.obj
 0001:00026b90       ?SetControlFocus@CComControlBase@ATL@@QEAAHH@Z 0000000180027b90 f i ImageScanner.obj
 0001:00026d20       ?SetDWORDValue@CRegKey@ATL@@QEAAJPEB_WK@Z 0000000180027d20 f i ImageScanner.obj
 0001:00026dd0       ?SetData@?$IDataObjectImpl@VCOPOSImageScanner@@@ATL@@UEAAJPEAUtagFORMATETC@@PEAUtagSTGMEDIUM@@H@Z 0000000180027dd0 f i ImageScanner.obj
 0001:00026e60       ?SetExtent@?$IOleObjectImpl@VCOPOSImageScanner@@@ATL@@UEAAJKPEAUtagSIZE@@@Z 0000000180027e60 f i ImageScanner.obj
 0001:00026f20       ?SetHostNames@?$IOleObjectImpl@VCOPOSImageScanner@@@ATL@@UEAAJPEB_W0@Z 0000000180027f20 f i ImageScanner.obj
 0001:00026fa0       ?SetInterfaceSafetyOptions@?$IObjectSafetyImpl@VCOPOSImageScanner@@$02@ATL@@UEAAJAEBU_GUID@@KK@Z 0000000180027fa0 f i ImageScanner.obj
 0001:00027140       ?SetMoniker@?$IOleObjectImpl@VCOPOSImageScanner@@@ATL@@UEAAJKPEAUIMoniker@@@Z 0000000180028140 f i ImageScanner.obj
 0001:000271d0       ?SetMultiStringValue@CRegKey@ATL@@QEAAJPEB_W0@Z 00000001800281d0 f i ImageScanner.obj
 0001:00027340       ?SetObjectRects@?$IOleInPlaceObjectWindowlessImpl@VCOPOSImageScanner@@@ATL@@UEAAJPEBUtagRECT@@0@Z 0000000180028340 f i ImageScanner.obj
 0001:00027400       ?SetStringValue@CRegKey@ATL@@QEAAJPEB_W0K@Z 0000000180028400 f i ImageScanner.obj
 0001:00027580       ?SetVoid@CComClassFactory@ATL@@QEAAXPEAX@Z 0000000180028580 f i ImageScanner.obj
 0001:000275a0       ?SetVoid@CComObjectRootBase@ATL@@QEAAXPEAX@Z 00000001800285a0 f i ImageScanner.obj
 0001:000275b0       ?ShowWindow@CWindow@ATL@@QEAAHH@Z 00000001800285b0 f i ImageScanner.obj
 0001:00027640       ?Skip@?$CComEnumImpl@UIEnumConnectionPoints@@$1?_GUID_b196b285_bab4_101a_b69c_00aa00341d07@@3U__s_GUID@@BPEAUIConnectionPoint@@V?$_CopyInterface@UIConnectionPoint@@@ATL@@@ATL@@UEAAJK@Z 0000000180028640 f i ImageScanner.obj
 0001:000276e0       ?Skip@?$CComEnumImpl@UIEnumConnections@@$1?_GUID_b196b287_bab4_101a_b69c_00aa00341d07@@3U__s_GUID@@BUtagCONNECTDATA@@V?$_Copy@UtagCONNECTDATA@@@ATL@@@ATL@@UEAAJK@Z 00000001800286e0 f i ImageScanner.obj
 0001:00027780       ?SkipAssignment@CRegParser@ATL@@IEAAJPEA_W@Z 0000000180028780 f i ImageScanner.obj
 0001:00027880       ?SkipWhiteSpace@CRegParser@ATL@@IEAAXXZ 0000000180028880 f i ImageScanner.obj
 0001:000278e0       ?StartWindowProc@?$CWindowImplBaseT@VCWindow@ATL@@V?$CWinTraits@$0FGAAAAAA@$0A@@2@@ATL@@SA_JPEAUHWND__@@I_K_J@Z 00000001800288e0 f i ImageScanner.obj
 0001:00027a50       ?StrChrW@CRegParser@ATL@@KAPEA_WPEA_W_W@Z 0000000180028a50 f i ImageScanner.obj
 0001:00027ad0       ?StrFromMap@CRegObject@ATL@@QEAAPEB_WPEA_W@Z 0000000180028ad0 f i ImageScanner.obj
 0001:00027b90       ?Swap@?$CComPtrBase@UIAdviseSink@@@ATL@@IEAAXAEAV12@@Z 0000000180028b90 f i ImageScanner.obj
 0001:00027bf0       ?Swap@?$CComPtrBase@UIOleClientSite@@@ATL@@IEAAXAEAV12@@Z 0000000180028bf0 f i ImageScanner.obj
 0001:00027c50       ?Swap@?$CComPtrBase@UIUnknown@@@ATL@@IEAAXAEAV12@@Z 0000000180028c50 f i ImageScanner.obj
 0001:00027cb0       ?T2COLE_EX@@YAPEB_WPEB_WI@Z 0000000180028cb0 f i ImageScanner.obj
 0001:00027cd0       ?T2OLE_EX@@YAPEA_WPEA_WI@Z 0000000180028cd0 f i ImageScanner.obj
 0001:00027cf0       ?Term@CAtlModule@ATL@@QEAAXXZ 0000000180028cf0 f i ImageScanner.obj
 0001:00027db0       ?Term@CComModule@ATL@@QEAAXXZ 0000000180028db0 f i ImageScanner.obj
 0001:00027ea0       ?TranslateAcceleratorW@?$IOleInPlaceActiveObjectImpl@VCOPOSImageScanner@@@ATL@@UEAAJPEAUtagMSG@@@Z 0000000180028ea0 f i ImageScanner.obj
 0001:00028110       ?UIDeactivate@?$IOleInPlaceObjectWindowlessImpl@VCOPOSImageScanner@@@ATL@@UEAAJXZ 0000000180029110 f i ImageScanner.obj
 0001:000281c0       ?Unadvise@?$CProxy_IOPOSEvents@VCOPOSImageScanner@@@@UEAAJK@Z 00000001800291c0 f i ImageScanner.obj
 0001:00028210       ?Unadvise@?$IConnectionPointImpl@VCOPOSImageScanner@@$1?DIID__IOPOSImageScannerEvents@@3U_GUID@@BVCComDynamicUnkArray@ATL@@@ATL@@UEAAJK@Z 0000000180029210 f i ImageScanner.obj
 0001:00028300       ?Unadvise@?$IConnectionPointImpl@VCOPOSImageScanner@@$1?IID_IPropertyNotifySink@@3U_GUID@@BVCComDynamicUnkArray@ATL@@@ATL@@UEAAJK@Z 0000000180029300 f i ImageScanner.obj
 0001:000283f0       ?Unadvise@?$IOleObjectImpl@VCOPOSImageScanner@@@ATL@@UEAAJK@Z 00000001800293f0 f i ImageScanner.obj
 0001:000284e0       ?Unfreeze@?$IViewObjectExImpl@VCOPOSImageScanner@@@ATL@@UEAAJK@Z 00000001800294e0 f i ImageScanner.obj
 0001:00028560       ?Unlock@?$CComCritSecLock@VCComCriticalSection@ATL@@@ATL@@QEAAXXZ 0000000180029560 f i ImageScanner.obj
 0001:000285f0       ?Unlock@?$CComObjectRootEx@VCComSingleThreadModel@ATL@@@ATL@@QEAAXXZ 00000001800295f0 f i ImageScanner.obj
 0001:00028600       ?Unlock@CAtlModule@ATL@@UEAAJXZ 0000000180029600 f i ImageScanner.obj
 0001:00028640       ?Unlock@CComCriticalSection@ATL@@QEAAJXZ 0000000180029640 f i ImageScanner.obj
 0001:00028680       ?Unlock@CComFakeCriticalSection@ATL@@QEAAJXZ 0000000180029680 f i ImageScanner.obj
 0001:00028690       ?UnregisterServer@?$CAtlModuleT@VCComModule@ATL@@@ATL@@QEAAJHPEBU_GUID@@@Z 0000000180029690 f i ImageScanner.obj
 0001:00028700       ?UnregisterServer@CAtlComModule@ATL@@QEAAJHPEBU_GUID@@@Z 0000000180029700 f i ImageScanner.obj
 0001:00028740       ?UnregisterServer@CComModule@ATL@@QEAAJHPEBU_GUID@@@Z 0000000180029740 f i ImageScanner.obj
 0001:00028830       ?Update@?$IOleObjectImpl@VCOPOSImageScanner@@@ATL@@UEAAJXZ 0000000180029830 f i ImageScanner.obj
 0001:000288a0       ?UpdateRegistryFromResource@CAtlModule@ATL@@QEAAJIHPEAU_ATL_REGMAP_ENTRY@2@@Z 00000001800298a0 f i ImageScanner.obj
 0001:00028dd0       ?UpdateRegistryFromResource@CAtlModule@ATL@@QEAAJPEB_WHPEAU_ATL_REGMAP_ENTRY@2@@Z 0000000180029dd0 f i ImageScanner.obj
 0001:00029320       ?UpdateRegistryFromResource@CComModule@ATL@@UEAAJIHPEAU_ATL_REGMAP_ENTRY@2@@Z 000000018002a320 f i ImageScanner.obj
 0001:00029370       ?UpdateRegistryFromResource@CComModule@ATL@@UEAAJPEB_WHPEAU_ATL_REGMAP_ENTRY@2@@Z 000000018002a370 f i ImageScanner.obj
 0001:000293c0       ?UpdateRegistryFromResourceD@CComModule@ATL@@UEAAJIHPEAU_ATL_REGMAP_ENTRY@2@@Z 000000018002a3c0 f i ImageScanner.obj
 0001:000293e0       ?UpdateRegistryFromResourceD@CComModule@ATL@@UEAAJPEB_WHPEAU_ATL_REGMAP_ENTRY@2@@Z 000000018002a3e0 f i ImageScanner.obj
 0001:00029400       ?VTFromRegType@CRegParser@ATL@@KAHPEB_WAEAG@Z 000000018002a400 f i ImageScanner.obj
 0001:000294e0       ?WindowProc@?$CWindowImplBaseT@VCWindow@ATL@@V?$CWinTraits@$0FGAAAAAA@$0A@@2@@ATL@@SA_JPEAUHWND__@@I_K_J@Z 000000018002a4e0 f i ImageScanner.obj
 0001:000297c0       ?WriteToStream@CComBSTR@ATL@@QEAAJPEAUIStream@@@Z 000000018002a7c0 f i ImageScanner.obj
 0001:00029930       ?WriteToStream@CComVariant@ATL@@QEAAJPEAUIStream@@@Z 000000018002a930 f i ImageScanner.obj
 0001:00029d40       ?WriteToStream@CComVariant@ATL@@QEAAJPEAUIStream@@G@Z 000000018002ad40 f i ImageScanner.obj
 0001:00029e20       ?_AtlFinalConstruct@CComObjectRootBase@ATL@@QEAAJXZ 000000018002ae20 f i ImageScanner.obj
 0001:00029e30       ?_AtlGetConversionACP@ATL@@YAIXZ 000000018002ae30 f i ImageScanner.obj
 0001:00029e40       ?_AtlInitialConstruct@?$CComAggObject@VCOPOSImageScanner@@@ATL@@QEAAJXZ 000000018002ae40 f i ImageScanner.obj
 0001:00029ea0       ?_AtlInitialConstruct@?$CComObjectRootEx@VCComMultiThreadModel@ATL@@@ATL@@QEAAJXZ 000000018002aea0 f i ImageScanner.obj
 0001:00029ee0       ?_AtlInitialConstruct@?$CComObjectRootEx@VCComSingleThreadModel@ATL@@@ATL@@QEAAJXZ 000000018002aee0 f i ImageScanner.obj
 0001:00029ef0       ?_AtlVerifyStackAvailable@_ATL_SAFE_ALLOCA_IMPL@ATL@@YA_N_K@Z 000000018002aef0 f i ImageScanner.obj
 0001:0002a050       ?_GetEntries@?$CComEnum@UIEnumConnectionPoints@@$1?_GUID_b196b285_bab4_101a_b69c_00aa00341d07@@3U__s_GUID@@BPEAUIConnectionPoint@@V?$_CopyInterface@UIConnectionPoint@@@ATL@@VCComSingleThreadModel@6@@ATL@@SAPEBU_ATL_INTMAP_ENTRY@2@XZ 000000018002b050 f i ImageScanner.obj
 0001:0002a070       ?_GetEntries@?$CComEnum@UIEnumConnections@@$1?_GUID_b196b287_bab4_101a_b69c_00aa00341d07@@3U__s_GUID@@BUtagCONNECTDATA@@V?$_Copy@UtagCONNECTDATA@@@ATL@@VCComSingleThreadModel@6@@ATL@@SAPEBU_ATL_INTMAP_ENTRY@2@XZ 000000018002b070 f i ImageScanner.obj
 0001:0002a090       ?_GetEntries@CComClassFactory@ATL@@SAPEBU_ATL_INTMAP_ENTRY@2@XZ 000000018002b090 f i ImageScanner.obj
 0001:0002a0b0       ?_GetEntries@COPOSImageScanner@@SAPEBU_ATL_INTMAP_ENTRY@ATL@@XZ 000000018002b0b0 f i ImageScanner.obj
 0001:0002a0d0       ?_GetRawUnknown@COPOSImageScanner@@QEAAPEAUIUnknown@@XZ 000000018002b0d0 f i ImageScanner.obj
 0001:0002a160       ?_GetViewStatus@COPOSImageScanner@@QEAAKXZ 000000018002b160 f i ImageScanner.obj
 0001:0002a170       ?_InternalQueryInterface@?$CComEnum@UIEnumConnectionPoints@@$1?_GUID_b196b285_bab4_101a_b69c_00aa00341d07@@3U__s_GUID@@BPEAUIConnectionPoint@@V?$_CopyInterface@UIConnectionPoint@@@ATL@@VCComSingleThreadModel@6@@ATL@@QEAAJAEBU_GUID@@PEAPEAX@Z 000000018002b170 f i ImageScanner.obj
 0001:0002a1c0       ?_InternalQueryInterface@?$CComEnum@UIEnumConnections@@$1?_GUID_b196b287_bab4_101a_b69c_00aa00341d07@@3U__s_GUID@@BUtagCONNECTDATA@@V?$_Copy@UtagCONNECTDATA@@@ATL@@VCComSingleThreadModel@6@@ATL@@QEAAJAEBU_GUID@@PEAPEAX@Z 000000018002b1c0 f i ImageScanner.obj
 0001:0002a210       ?_InternalQueryInterface@CComClassFactory@ATL@@QEAAJAEBU_GUID@@PEAPEAX@Z 000000018002b210 f i ImageScanner.obj
 0001:0002a260       ?_InternalQueryInterface@COPOSImageScanner@@QEAAJAEBU_GUID@@PEAPEAX@Z 000000018002b260 f i ImageScanner.obj
 0001:0002a2b0       ?_LocCPQueryInterface@?$IConnectionPointImpl@VCOPOSImageScanner@@$1?DIID__IOPOSImageScannerEvents@@3U_GUID@@BVCComDynamicUnkArray@ATL@@@ATL@@UEAAJAEBU_GUID@@PEAPEAX@Z 000000018002b2b0 f i ImageScanner.obj
 0001:0002a390       ?_LocCPQueryInterface@?$IConnectionPointImpl@VCOPOSImageScanner@@$1?IID_IPropertyNotifySink@@3U_GUID@@BVCComDynamicUnkArray@ATL@@@ATL@@UEAAJAEBU_GUID@@PEAPEAX@Z 000000018002b390 f i ImageScanner.obj
 0001:0002a470       ?atlCreate@?$CWindowImpl@VCOPOSImageScanner@@VCWindow@ATL@@V?$CWinTraits@$0FGAAAAAA@$0A@@3@@ATL@@QEAAPEAUHWND__@@PEAU3@V_U_RECT@2@PEB_WKKV_U_MENUorID@2@PEAX@Z 000000018002b470 f i ImageScanner.obj
 0001:0002a5a0       ?atlCreate@?$CWindowImplBaseT@VCWindow@ATL@@V?$CWinTraits@$0FGAAAAAA@$0A@@2@@ATL@@QEAAPEAUHWND__@@PEAU3@V_U_RECT@2@PEB_WKKV_U_MENUorID@2@GPEAX@Z 000000018002b5a0 f i ImageScanner.obj
 0001:0002a800       ?atlCreate@CRegKey@ATL@@QEAAJPEAUHKEY__@@PEB_WPEA_WKKPEAU_SECURITY_ATTRIBUTES@@PEAK@Z 000000018002b800 f i ImageScanner.obj
 0001:0002a9f0       ?begin@CComDynamicUnkArray@ATL@@QEAAPEAPEAUIUnknown@@XZ 000000018002b9f0 f i ImageScanner.obj
 0001:0002aa00       ?copy@?$_Copy@UtagCONNECTDATA@@@ATL@@SAJPEAUtagCONNECTDATA@@PEBU3@@Z 000000018002ba00 f i ImageScanner.obj
 0001:0002aaf0       ?copy@?$_CopyInterface@UIConnectionPoint@@@ATL@@SAJPEAPEAUIConnectionPoint@@PEBQEAU3@@Z 000000018002baf0 f i ImageScanner.obj
 0001:0002abe0       ?destroy@?$_Copy@UtagCONNECTDATA@@@ATL@@SAXPEAUtagCONNECTDATA@@@Z 000000018002bbe0 f i ImageScanner.obj
 0001:0002ac30       ?destroy@?$_CopyInterface@UIConnectionPoint@@@ATL@@SAXPEAPEAUIConnectionPoint@@@Z 000000018002bc30 f i ImageScanner.obj
 0001:0002ac80       ?end@CComDynamicUnkArray@ATL@@QEAAPEAPEAUIUnknown@@XZ 000000018002bc80 f i ImageScanner.obj
 0001:0002aca0       ?init@?$_Copy@UtagCONNECTDATA@@@ATL@@SAXPEAUtagCONNECTDATA@@@Z 000000018002bca0 f i ImageScanner.obj
 0001:0002acb0       ?init@?$_CopyInterface@UIConnectionPoint@@@ATL@@SAXPEAPEAUIConnectionPoint@@@Z 000000018002bcb0 f i ImageScanner.obj
 0001:0002acc0       ?memcpy_s@Checked@ATL@@YAXPEAX_KPEBX1@Z 000000018002bcc0 f i ImageScanner.obj
 0001:0002ad20       ?ocscpy_s@@YA_NPEA_W_KPEB_W@Z 000000018002bd20 f i ImageScanner.obj
 0001:0002ada0       ?ocslen@@YAHPEB_W@Z        000000018002bda0 f i ImageScanner.obj
 0001:0002ade0       ?tcsncpy_s@Checked@ATL@@YAHPEA_W_KPEB_W1@Z 000000018002bde0 f i ImageScanner.obj
 0001:0002ae40       ?wcscat_s@Checked@ATL@@YAXPEA_W_KPEB_W@Z 000000018002be40 f i ImageScanner.obj
 0001:0002ae90       ?wcscpy_s@Checked@ATL@@YAXPEA_W_KPEB_W@Z 000000018002be90 f i ImageScanner.obj
 0001:0002aee0       ?wcsncpy_s@Checked@ATL@@YAHPEA_W_KPEB_W1@Z 000000018002bee0 f i ImageScanner.obj
 0001:0002af40       ?wcsstr@@YAPEA_WPEA_WPEB_W@Z 000000018002bf40 f i ImageScanner.obj
 0001:0002af80       InlineIsEqualGUID          000000018002bf80 f i ImageScanner.obj
 0001:0002b050       IsEqualGUID                000000018002c050 f i ImageScanner.obj
 0001:0002b0b0       ??0COPOSImageScanner@@QEAA@XZ 000000018002c0b0 f   ImageScannerImpl.obj
 0001:0002b230       ?FinalConstruct@COPOSImageScanner@@QEAAJXZ 000000018002c230 f   ImageScannerImpl.obj
 0001:0002b320       ??1COPOSImageScanner@@UEAA@XZ 000000018002c320 f   ImageScannerImpl.obj
 0001:0002b400       ?WriteTrace@COPOSImageScanner@@QEAAXPEB_WZZ 000000018002c400 f   ImageScannerImpl.obj
 0001:0002b4c0       ?WriteTraceString@COPOSImageScanner@@QEAAXPEB_WPEA_W@Z 000000018002c4c0 f   ImageScannerImpl.obj
 0001:0002b900       ?WriteTraceString@COPOSImageScanner@@QEAAXPEAXHHHPEB_WZZ 000000018002c900 f   ImageScannerImpl.obj
 0001:0002bb90       ?WriteTraceError@COPOSImageScanner@@QEAAXPEB_WK@Z 000000018002cb90 f   ImageScannerImpl.obj
 0001:0002bc90       ?WriteTraceMethods@COPOSImageScanner@@QEAAXPEAJH@Z 000000018002cc90 f   ImageScannerImpl.obj
 0001:0002bd20       ?GetOposProp@COPOSImageScanner@@IEAAJPEBDJPEAJJ@Z 000000018002cd20 f   ImageScannerImpl.obj
 0001:0002c040       ?SetOposProp@COPOSImageScanner@@IEAAJPEBDJJJ@Z 000000018002d040 f   ImageScannerImpl.obj
 0001:0002c3a0       ?GetOposProp@COPOSImageScanner@@IEAAJPEBDJPEAFJ@Z 000000018002d3a0 f   ImageScannerImpl.obj
 0001:0002c440       ?SetOposProp@COPOSImageScanner@@IEAAJPEBDJFJ@Z 000000018002d440 f   ImageScannerImpl.obj
 0001:0002c4c0       ?GetOposProp@COPOSImageScanner@@IEAAJPEBDJPEAPEA_WJ@Z 000000018002d4c0 f   ImageScannerImpl.obj
 0001:0002c7e0       ?SetOposProp@COPOSImageScanner@@IEAAJPEBDJPEA_WJ@Z 000000018002d7e0 f   ImageScannerImpl.obj
 0001:0002cbc0       ?DoInvoke@COPOSImageScanner@@IEAAJPEBDJPEAVOposVariant@@IHPEAJ_N@Z 000000018002dbc0 f   ImageScannerImpl.obj
 0001:0002d710       ?SetCOFreezeEvents@COPOSImageScanner@@IEAAXF@Z 000000018002e710 f   ImageScannerImpl.obj
 0001:0002d8a0       ?FreezeEvents@COPOSImageScanner@@MEAAJH@Z 000000018002e8a0 f   ImageScannerImpl.obj
 0001:0002d9d0       ?OnDraw@COPOSImageScanner@@MEAAJAEAUATL_DRAWINFO@@@Z 000000018002e9d0 f   ImageScannerImpl.obj
 0001:0002dba0       ?SOProcessID@COPOSImageScanner@@UEAAJPEAJ@Z 000000018002eba0 f   ImageScannerImpl.obj
 0001:0002dc00       ?get_OpenResult@COPOSImageScanner@@UEAAJPEAJ@Z 000000018002ec00 f   ImageScannerImpl.obj
 0001:0002dc60       ?get_AutoDisable@COPOSImageScanner@@UEAAJPEAF@Z 000000018002ec60 f   ImageScannerImpl.obj
 0001:0002dcc0       ?put_AutoDisable@COPOSImageScanner@@UEAAJF@Z 000000018002ecc0 f   ImageScannerImpl.obj
 0001:0002dd20       ?get_BinaryConversion@COPOSImageScanner@@UEAAJPEAJ@Z 000000018002ed20 f   ImageScannerImpl.obj
 0001:0002dd80       ?put_BinaryConversion@COPOSImageScanner@@UEAAJJ@Z 000000018002ed80 f   ImageScannerImpl.obj
 0001:0002ddf0       ?get_CapPowerReporting@COPOSImageScanner@@UEAAJPEAJ@Z 000000018002edf0 f   ImageScannerImpl.obj
 0001:0002de50       ?get_CheckHealthText@COPOSImageScanner@@UEAAJPEAPEA_W@Z 000000018002ee50 f   ImageScannerImpl.obj
 0001:0002deb0       ?get_Claimed@COPOSImageScanner@@UEAAJPEAF@Z 000000018002eeb0 f   ImageScannerImpl.obj
 0001:0002df10       ?get_DataCount@COPOSImageScanner@@UEAAJPEAJ@Z 000000018002ef10 f   ImageScannerImpl.obj
 0001:0002df70       ?get_DataEventEnabled@COPOSImageScanner@@UEAAJPEAF@Z 000000018002ef70 f   ImageScannerImpl.obj
 0001:0002dfd0       ?put_DataEventEnabled@COPOSImageScanner@@UEAAJF@Z 000000018002efd0 f   ImageScannerImpl.obj
 0001:0002e030       ?get_DeviceEnabled@COPOSImageScanner@@UEAAJPEAF@Z 000000018002f030 f   ImageScannerImpl.obj
 0001:0002e090       ?put_DeviceEnabled@COPOSImageScanner@@UEAAJF@Z 000000018002f090 f   ImageScannerImpl.obj
 0001:0002e0f0       ?get_FreezeEvents@COPOSImageScanner@@UEAAJPEAF@Z 000000018002f0f0 f   ImageScannerImpl.obj
 0001:0002e150       ?put_FreezeEvents@COPOSImageScanner@@UEAAJF@Z 000000018002f150 f   ImageScannerImpl.obj
 0001:0002e230       ?get_PowerNotify@COPOSImageScanner@@UEAAJPEAJ@Z 000000018002f230 f   ImageScannerImpl.obj
 0001:0002e290       ?put_PowerNotify@COPOSImageScanner@@UEAAJJ@Z 000000018002f290 f   ImageScannerImpl.obj
 0001:0002e2f0       ?get_PowerState@COPOSImageScanner@@UEAAJPEAJ@Z 000000018002f2f0 f   ImageScannerImpl.obj
 0001:0002e350       ?get_ResultCode@COPOSImageScanner@@UEAAJPEAJ@Z 000000018002f350 f   ImageScannerImpl.obj
 0001:0002e420       ?get_ResultCodeExtended@COPOSImageScanner@@UEAAJPEAJ@Z 000000018002f420 f   ImageScannerImpl.obj
 0001:0002e480       ?get_State@COPOSImageScanner@@UEAAJPEAJ@Z 000000018002f480 f   ImageScannerImpl.obj
 0001:0002e510       ?get_ControlObjectDescription@COPOSImageScanner@@UEAAJPEAPEA_W@Z 000000018002f510 f   ImageScannerImpl.obj
 0001:0002e590       ?get_ControlObjectVersion@COPOSImageScanner@@UEAAJPEAJ@Z 000000018002f590 f   ImageScannerImpl.obj
 0001:0002e5f0       ?get_ServiceObjectDescription@COPOSImageScanner@@UEAAJPEAPEA_W@Z 000000018002f5f0 f   ImageScannerImpl.obj
 0001:0002e650       ?get_ServiceObjectVersion@COPOSImageScanner@@UEAAJPEAJ@Z 000000018002f650 f   ImageScannerImpl.obj
 0001:0002e6b0       ?get_DeviceDescription@COPOSImageScanner@@UEAAJPEAPEA_W@Z 000000018002f6b0 f   ImageScannerImpl.obj
 0001:0002e710       ?get_DeviceName@COPOSImageScanner@@UEAAJPEAPEA_W@Z 000000018002f710 f   ImageScannerImpl.obj
 0001:0002e770       ?get_CapStatisticsReporting@COPOSImageScanner@@UEAAJPEAF@Z 000000018002f770 f   ImageScannerImpl.obj
 0001:0002e7d0       ?get_CapUpdateStatistics@COPOSImageScanner@@UEAAJPEAF@Z 000000018002f7d0 f   ImageScannerImpl.obj
 0001:0002e830       ?get_CapCompareFirmwareVersion@COPOSImageScanner@@UEAAJPEAF@Z 000000018002f830 f   ImageScannerImpl.obj
 0001:0002e890       ?get_CapUpdateFirmware@COPOSImageScanner@@UEAAJPEAF@Z 000000018002f890 f   ImageScannerImpl.obj
 0001:0002e8f0       ?CheckHealth@COPOSImageScanner@@UEAAJJPEAJ@Z 000000018002f8f0 f   ImageScannerImpl.obj
 0001:0002e9b0       ?ClaimDevice@COPOSImageScanner@@UEAAJJPEAJ@Z 000000018002f9b0 f   ImageScannerImpl.obj
 0001:0002ead0       ?ClearInput@COPOSImageScanner@@UEAAJPEAJ@Z 000000018002fad0 f   ImageScannerImpl.obj
 0001:0002eb40       ?Close@COPOSImageScanner@@UEAAJPEAJ@Z 000000018002fb40 f   ImageScannerImpl.obj
 0001:0002ec50       ?DirectIO@COPOSImageScanner@@UEAAJJPEAJPEAPEA_W0@Z 000000018002fc50 f   ImageScannerImpl.obj
 0001:0002edd0       ?Open@COPOSImageScanner@@UEAAJPEA_WPEAJ@Z 000000018002fdd0 f   ImageScannerImpl.obj
 0001:000302b0       ?ReleaseDevice@COPOSImageScanner@@UEAAJPEAJ@Z 00000001800312b0 f   ImageScannerImpl.obj
 0001:00030360       ?ResetStatistics@COPOSImageScanner@@UEAAJPEA_WPEAJ@Z 0000000180031360 f   ImageScannerImpl.obj
 0001:00030440       ?RetrieveStatistics@COPOSImageScanner@@UEAAJPEAPEA_WPEAJ@Z 0000000180031440 f   ImageScannerImpl.obj
 0001:00030520       ?UpdateStatistics@COPOSImageScanner@@UEAAJPEA_WPEAJ@Z 0000000180031520 f   ImageScannerImpl.obj
 0001:00030600       ?CompareFirmwareVersion@COPOSImageScanner@@UEAAJPEA_WPEAJ1@Z 0000000180031600 f   ImageScannerImpl.obj
 0001:00030740       ?UpdateFirmware@COPOSImageScanner@@UEAAJPEA_WPEAJ@Z 0000000180031740 f   ImageScannerImpl.obj
 0001:00030820       ?ClearInputProperties@COPOSImageScanner@@UEAAJPEAJ@Z 0000000180031820 f   ImageScannerImpl.obj
 0001:00030890       ?get_CapAim@COPOSImageScanner@@UEAAJPEAF@Z 0000000180031890 f   ImageScannerImpl.obj
 0001:000308f0       ?get_CapDecodeData@COPOSImageScanner@@UEAAJPEAF@Z 00000001800318f0 f   ImageScannerImpl.obj
 0001:00030950       ?get_CapHostTriggered@COPOSImageScanner@@UEAAJPEAF@Z 0000000180031950 f   ImageScannerImpl.obj
 0001:000309b0       ?get_CapIlluminate@COPOSImageScanner@@UEAAJPEAF@Z 00000001800319b0 f   ImageScannerImpl.obj
 0001:00030a10       ?get_CapImageData@COPOSImageScanner@@UEAAJPEAF@Z 0000000180031a10 f   ImageScannerImpl.obj
 0001:00030a70       ?get_CapImageQuality@COPOSImageScanner@@UEAAJPEAF@Z 0000000180031a70 f   ImageScannerImpl.obj
 0001:00030ad0       ?get_CapVideoData@COPOSImageScanner@@UEAAJPEAF@Z 0000000180031ad0 f   ImageScannerImpl.obj
 0001:00030b30       ?get_AimMode@COPOSImageScanner@@UEAAJPEAF@Z 0000000180031b30 f   ImageScannerImpl.obj
 0001:00030b90       ?put_AimMode@COPOSImageScanner@@UEAAJF@Z 0000000180031b90 f   ImageScannerImpl.obj
 0001:00030bf0       ?get_BitsPerPixel@COPOSImageScanner@@UEAAJPEAJ@Z 0000000180031bf0 f   ImageScannerImpl.obj
 0001:00030c50       ?get_FrameData@COPOSImageScanner@@UEAAJPEAPEA_W@Z 0000000180031c50 f   ImageScannerImpl.obj
 0001:00030cb0       ?get_FrameType@COPOSImageScanner@@UEAAJPEAJ@Z 0000000180031cb0 f   ImageScannerImpl.obj
 0001:00030d10       ?get_IlluminateMode@COPOSImageScanner@@UEAAJPEAF@Z 0000000180031d10 f   ImageScannerImpl.obj
 0001:00030d70       ?put_IlluminateMode@COPOSImageScanner@@UEAAJF@Z 0000000180031d70 f   ImageScannerImpl.obj
 0001:00030dd0       ?get_ImageHeight@COPOSImageScanner@@UEAAJPEAJ@Z 0000000180031dd0 f   ImageScannerImpl.obj
 0001:00030e30       ?get_ImageLength@COPOSImageScanner@@UEAAJPEAJ@Z 0000000180031e30 f   ImageScannerImpl.obj
 0001:00030e90       ?get_ImageMode@COPOSImageScanner@@UEAAJPEAJ@Z 0000000180031e90 f   ImageScannerImpl.obj
 0001:00030ef0       ?put_ImageMode@COPOSImageScanner@@UEAAJJ@Z 0000000180031ef0 f   ImageScannerImpl.obj
 0001:00030f50       ?get_ImageQuality@COPOSImageScanner@@UEAAJPEAJ@Z 0000000180031f50 f   ImageScannerImpl.obj
 0001:00030fb0       ?put_ImageQuality@COPOSImageScanner@@UEAAJJ@Z 0000000180031fb0 f   ImageScannerImpl.obj
 0001:00031010       ?get_ImageType@COPOSImageScanner@@UEAAJPEAJ@Z 0000000180032010 f   ImageScannerImpl.obj
 0001:00031070       ?get_ImageWidth@COPOSImageScanner@@UEAAJPEAJ@Z 0000000180032070 f   ImageScannerImpl.obj
 0001:000310d0       ?get_VideoCount@COPOSImageScanner@@UEAAJPEAJ@Z 00000001800320d0 f   ImageScannerImpl.obj
 0001:00031130       ?put_VideoCount@COPOSImageScanner@@UEAAJJ@Z 0000000180032130 f   ImageScannerImpl.obj
 0001:00031190       ?get_VideoRate@COPOSImageScanner@@UEAAJPEAJ@Z 0000000180032190 f   ImageScannerImpl.obj
 0001:000311f0       ?put_VideoRate@COPOSImageScanner@@UEAAJJ@Z 00000001800321f0 f   ImageScannerImpl.obj
 0001:00031250       ?StartSession@COPOSImageScanner@@UEAAJPEAJ@Z 0000000180032250 f   ImageScannerImpl.obj
 0001:000312c0       ?StopSession@COPOSImageScanner@@UEAAJPEAJ@Z 00000001800322c0 f   ImageScannerImpl.obj
 0001:00031320       ??0?$CComControl@VCOPOSImageScanner@@V?$CWindowImpl@VCOPOSImageScanner@@VCWindow@ATL@@V?$CWinTraits@$0FGAAAAAA@$0A@@3@@ATL@@@ATL@@QEAA@XZ 0000000180032320 f i ImageScannerImpl.obj
 0001:00031370       ??0?$CComPtr@UIAdviseSink@@@ATL@@QEAA@XZ 0000000180032370 f i ImageScannerImpl.obj
 0001:000313b0       ??0?$CComPtr@UIDataAdviseHolder@@@ATL@@QEAA@XZ 00000001800323b0 f i ImageScannerImpl.obj
 0001:000313f0       ??0?$CComPtr@UIOleAdviseHolder@@@ATL@@QEAA@XZ 00000001800323f0 f i ImageScannerImpl.obj
 0001:00031430       ??0?$CComPtr@UIOleClientSite@@@ATL@@QEAA@XZ 0000000180032430 f i ImageScannerImpl.obj
 0001:00031470       ??0?$CComPtr@UIOleInPlaceSiteWindowless@@@ATL@@QEAA@XZ 0000000180032470 f i ImageScannerImpl.obj
 0001:000314b0       ??0?$CComPtrBase@UIAdviseSink@@@ATL@@IEAA@XZ 00000001800324b0 f i ImageScannerImpl.obj
 0001:000314d0       ??0?$CComPtrBase@UIDataAdviseHolder@@@ATL@@IEAA@XZ 00000001800324d0 f i ImageScannerImpl.obj
 0001:000314f0       ??0?$CComPtrBase@UIOleAdviseHolder@@@ATL@@IEAA@XZ 00000001800324f0 f i ImageScannerImpl.obj
 0001:00031510       ??0?$CComPtrBase@UIOleClientSite@@@ATL@@IEAA@XZ 0000000180032510 f i ImageScannerImpl.obj
 0001:00031530       ??0?$CComPtrBase@UIOleInPlaceSiteWindowless@@@ATL@@IEAA@XZ 0000000180032530 f i ImageScannerImpl.obj
 0001:00031550       ??0?$CComQIPtr@UIDispatch@@$1?_GUID_00020400_0000_0000_c000_000000000046@@3U__s_GUID@@B@ATL@@QEAA@XZ 0000000180032550 f i ImageScannerImpl.obj
 0001:00031590       ??0?$CProxy_IOPOSEvents@VCOPOSImageScanner@@@@QEAA@PEAVCOPOSImageScanner@@@Z 0000000180032590 f i ImageScannerImpl.obj
 0001:00031620       ??0?$CWindowImpl@VCOPOSImageScanner@@VCWindow@ATL@@V?$CWinTraits@$0FGAAAAAA@$0A@@3@@ATL@@QEAA@XZ 0000000180032620 f i ImageScannerImpl.obj
 0001:00031660       ??0?$CWindowImplBaseT@VCWindow@ATL@@V?$CWinTraits@$0FGAAAAAA@$0A@@2@@ATL@@QEAA@XZ 0000000180032660 f i ImageScannerImpl.obj
 0001:000316b0       ??0?$CWindowImplRoot@VCWindow@ATL@@@ATL@@QEAA@XZ 00000001800326b0 f i ImageScannerImpl.obj
 0001:00031720       ??0?$IConnectionPointContainerImpl@VCOPOSImageScanner@@@ATL@@QEAA@XZ 0000000180032720 f i ImageScannerImpl.obj
 0001:00031760       ??0?$IConnectionPointImpl@VCOPOSImageScanner@@$1?DIID__IOPOSImageScannerEvents@@3U_GUID@@BVCComDynamicUnkArray@ATL@@@ATL@@QEAA@XZ 0000000180032760 f i ImageScannerImpl.obj
 0001:000317b0       ??0?$IConnectionPointImpl@VCOPOSImageScanner@@$1?IID_IPropertyNotifySink@@3U_GUID@@BVCComDynamicUnkArray@ATL@@@ATL@@QEAA@XZ 00000001800327b0 f i ImageScannerImpl.obj
 0001:00031800       ??0?$IDataObjectImpl@VCOPOSImageScanner@@@ATL@@QEAA@XZ 0000000180032800 f i ImageScannerImpl.obj
 0001:00031840       ??0?$IDispatchImpl@UIOPOSImageScanner@@$1?IID_IOPOSImageScanner@@3U_GUID@@B$1?LIBID_OposImageScanner_CCO@@3U3@B$00$0A@VCComTypeInfoHolder@ATL@@@ATL@@QEAA@XZ 0000000180032840 f i ImageScannerImpl.obj
 0001:00031880       ??0?$IObjectSafetyImpl@VCOPOSImageScanner@@$02@ATL@@QEAA@XZ 0000000180032880 f i ImageScannerImpl.obj
 0001:000318c0       ??0?$IOleControlImpl@VCOPOSImageScanner@@@ATL@@QEAA@XZ 00000001800328c0 f i ImageScannerImpl.obj
 0001:00031900       ??0?$IOleInPlaceActiveObjectImpl@VCOPOSImageScanner@@@ATL@@QEAA@XZ 0000000180032900 f i ImageScannerImpl.obj
 0001:00031940       ??0?$IOleInPlaceObjectWindowlessImpl@VCOPOSImageScanner@@@ATL@@QEAA@XZ 0000000180032940 f i ImageScannerImpl.obj
 0001:00031980       ??0?$IOleObjectImpl@VCOPOSImageScanner@@@ATL@@QEAA@XZ 0000000180032980 f i ImageScannerImpl.obj
 0001:000319c0       ??0?$IPersistStorageImpl@VCOPOSImageScanner@@@ATL@@QEAA@XZ 00000001800329c0 f i ImageScannerImpl.obj
 0001:00031a00       ??0?$IPersistStreamInitImpl@VCOPOSImageScanner@@@ATL@@QEAA@XZ 0000000180032a00 f i ImageScannerImpl.obj
 0001:00031a40       ??0?$IPropertyNotifySinkCP@VCOPOSImageScanner@@VCComDynamicUnkArray@ATL@@@ATL@@QEAA@XZ 0000000180032a40 f i ImageScannerImpl.obj
 0001:00031a80       ??0?$IProvideClassInfo2Impl@$1?CLSID_OPOSImageScanner@@3U_GUID@@B$1?DIID__IOPOSImageScannerEvents@@3U2@B$1?LIBID_OposImageScanner_CCO@@3U2@B$00$0A@VCComTypeInfoHolder@ATL@@@ATL@@QEAA@XZ 0000000180032a80 f i ImageScannerImpl.obj
 0001:00031ac0       ??0?$IQuickActivateImpl@VCOPOSImageScanner@@@ATL@@QEAA@XZ 0000000180032ac0 f i ImageScannerImpl.obj
 0001:00031b00       ??0?$ISpecifyPropertyPagesImpl@VCOPOSImageScanner@@@ATL@@QEAA@XZ 0000000180032b00 f i ImageScannerImpl.obj
 0001:00031b40       ??0?$IViewObjectExImpl@VCOPOSImageScanner@@@ATL@@QEAA@XZ 0000000180032b40 f i ImageScannerImpl.obj
 0001:00031b80       ??0?$_ICPLocator@$1?DIID__IOPOSImageScannerEvents@@3U_GUID@@B@ATL@@QEAA@XZ 0000000180032b80 f i ImageScannerImpl.obj
 0001:00031b90       ??0?$_ICPLocator@$1?IID_IPropertyNotifySink@@3U_GUID@@B@ATL@@QEAA@XZ 0000000180032b90 f i ImageScannerImpl.obj
 0001:00031ba0       ??0CComControlBase@ATL@@QEAA@AEAPEAUHWND__@@@Z 0000000180032ba0 f i ImageScannerImpl.obj
 0001:00031dc0       ??0CComDynamicUnkArray@ATL@@QEAA@XZ 0000000180032dc0 f i ImageScannerImpl.obj
 0001:00031df0       ??0CDynamicStdCallThunk2@ATL@@QEAA@XZ 0000000180032df0 f i ImageScannerImpl.obj
 0001:00031e10       ??0CMessageMap@ATL@@QEAA@XZ 0000000180032e10 f i ImageScannerImpl.obj
 0001:00031e20       ??0CWindow@ATL@@QEAA@PEAUHWND__@@@Z 0000000180032e20 f i ImageScannerImpl.obj
 0001:00031e40       ??0CWndProcThunk@ATL@@QEAA@XZ 0000000180032e40 f i ImageScannerImpl.obj
 0001:00031e80       ??0IConnectionPointContainer@@QEAA@XZ 0000000180032e80 f i ImageScannerImpl.obj
 0001:00031ec0       ??0IDataObject@@QEAA@XZ    0000000180032ec0 f i ImageScannerImpl.obj
 0001:00031f00       ??0IDispatch@@QEAA@XZ      0000000180032f00 f i ImageScannerImpl.obj
 0001:00031f40       ??0IOPOSImageScanner@@QEAA@XZ 0000000180032f40 f i ImageScannerImpl.obj
 0001:00031f80       ??0IOPOSImageScanner_1_11@@QEAA@XZ 0000000180032f80 f i ImageScannerImpl.obj
 0001:00031fc0       ??0IObjectSafety@@QEAA@XZ  0000000180032fc0 f i ImageScannerImpl.obj
 0001:00032000       ??0IOleControl@@QEAA@XZ    0000000180033000 f i ImageScannerImpl.obj
 0001:00032040       ??0IOleInPlaceActiveObject@@QEAA@XZ 0000000180033040 f i ImageScannerImpl.obj
 0001:00032080       ??0IOleInPlaceObject@@QEAA@XZ 0000000180033080 f i ImageScannerImpl.obj
 0001:000320c0       ??0IOleInPlaceObjectWindowless@@QEAA@XZ 00000001800330c0 f i ImageScannerImpl.obj
 0001:00032100       ??0IOleObject@@QEAA@XZ     0000000180033100 f i ImageScannerImpl.obj
 0001:00032140       ??0IOleWindow@@QEAA@XZ     0000000180033140 f i ImageScannerImpl.obj
 0001:00032180       ??0IPersist@@QEAA@XZ       0000000180033180 f i ImageScannerImpl.obj
 0001:000321c0       ??0IPersistStorage@@QEAA@XZ 00000001800331c0 f i ImageScannerImpl.obj
 0001:00032200       ??0IPersistStreamInit@@QEAA@XZ 0000000180033200 f i ImageScannerImpl.obj
 0001:00032240       ??0IProvideClassInfo2@@QEAA@XZ 0000000180033240 f i ImageScannerImpl.obj
 0001:00032280       ??0IProvideClassInfo@@QEAA@XZ 0000000180033280 f i ImageScannerImpl.obj
 0001:000322c0       ??0IQuickActivate@@QEAA@XZ 00000001800332c0 f i ImageScannerImpl.obj
 0001:00032300       ??0ISpecifyPropertyPages@@QEAA@XZ 0000000180033300 f i ImageScannerImpl.obj
 0001:00032340       ??0IViewObject2@@QEAA@XZ   0000000180033340 f i ImageScannerImpl.obj
 0001:00032380       ??0IViewObject@@QEAA@XZ    0000000180033380 f i ImageScannerImpl.obj
 0001:000323c0       ??0IViewObjectEx@@QEAA@XZ  00000001800333c0 f i ImageScannerImpl.obj
 0001:00032400       ??0OposVariantResult@@QEAA@XZ 0000000180033400 f i ImageScannerImpl.obj
 0001:00032440       ??0_CW@@QEAA@PEBD@Z        0000000180033440 f i ImageScannerImpl.obj
 0001:00032490       ??0_CW@@QEAA@PEB_W@Z       0000000180033490 f i ImageScannerImpl.obj
 0001:000324e0       ??0_CWNCC@@QEAA@PEBD@Z     00000001800334e0 f i ImageScannerImpl.obj
 0001:00032520       ??1?$CComControl@VCOPOSImageScanner@@V?$CWindowImpl@VCOPOSImageScanner@@VCWindow@ATL@@V?$CWinTraits@$0FGAAAAAA@$0A@@3@@ATL@@@ATL@@UEAA@XZ 0000000180033520 f i ImageScannerImpl.obj
 0001:00032560       ??1?$CComPtr@UIDataAdviseHolder@@@ATL@@QEAA@XZ 0000000180033560 f i ImageScannerImpl.obj
 0001:00032590       ??1?$CComPtr@UIOleAdviseHolder@@@ATL@@QEAA@XZ 0000000180033590 f i ImageScannerImpl.obj
 0001:000325c0       ??1?$CComPtr@UIOleInPlaceSiteWindowless@@@ATL@@QEAA@XZ 00000001800335c0 f i ImageScannerImpl.obj
 0001:000325f0       ??1?$CComPtrBase@UIDataAdviseHolder@@@ATL@@QEAA@XZ 00000001800335f0 f i ImageScannerImpl.obj
 0001:00032640       ??1?$CComPtrBase@UIOleAdviseHolder@@@ATL@@QEAA@XZ 0000000180033640 f i ImageScannerImpl.obj
 0001:00032690       ??1?$CComPtrBase@UIOleInPlaceSiteWindowless@@@ATL@@QEAA@XZ 0000000180033690 f i ImageScannerImpl.obj
 0001:000326e0       ??1?$CComQIPtr@UIDispatch@@$1?_GUID_00020400_0000_0000_c000_000000000046@@3U__s_GUID@@B@ATL@@QEAA@XZ 00000001800336e0 f i ImageScannerImpl.obj
 0001:00032710       ??1?$CProxy_IOPOSEvents@VCOPOSImageScanner@@@@QEAA@XZ 0000000180033710 f i ImageScannerImpl.obj
 0001:00032740       ??1?$CWindowImpl@VCOPOSImageScanner@@VCWindow@ATL@@V?$CWinTraits@$0FGAAAAAA@$0A@@3@@ATL@@UEAA@XZ 0000000180033740 f i ImageScannerImpl.obj
 0001:00032770       ??1?$CWindowImplBaseT@VCWindow@ATL@@V?$CWinTraits@$0FGAAAAAA@$0A@@2@@ATL@@UEAA@XZ 0000000180033770 f i ImageScannerImpl.obj
 0001:000327a0       ??1?$CWindowImplRoot@VCWindow@ATL@@@ATL@@UEAA@XZ 00000001800337a0 f i ImageScannerImpl.obj
 0001:00032860       ??1?$IConnectionPointImpl@VCOPOSImageScanner@@$1?DIID__IOPOSImageScannerEvents@@3U_GUID@@BVCComDynamicUnkArray@ATL@@@ATL@@QEAA@XZ 0000000180033860 f i ImageScannerImpl.obj
 0001:00032900       ??1?$IConnectionPointImpl@VCOPOSImageScanner@@$1?IID_IPropertyNotifySink@@3U_GUID@@BVCComDynamicUnkArray@ATL@@@ATL@@QEAA@XZ 0000000180033900 f i ImageScannerImpl.obj
 0001:000329a0       ??1?$IPropertyNotifySinkCP@VCOPOSImageScanner@@VCComDynamicUnkArray@ATL@@@ATL@@QEAA@XZ 00000001800339a0 f i ImageScannerImpl.obj
 0001:000329d0       ??1CComControlBase@ATL@@UEAA@XZ 00000001800339d0 f i ImageScannerImpl.obj
 0001:00032ac0       ??1CComDynamicUnkArray@ATL@@QEAA@XZ 0000000180033ac0 f i ImageScannerImpl.obj
 0001:00032b00       ??1CDynamicStdCallThunk2@ATL@@QEAA@XZ 0000000180033b00 f i ImageScannerImpl.obj
 0001:00032b40       ??1CWndProcThunk@ATL@@QEAA@XZ 0000000180033b40 f i ImageScannerImpl.obj
 0001:00032b80       ??1OposVariantResult@@QEAA@XZ 0000000180033b80 f i ImageScannerImpl.obj
 0001:00032bc0       ??1_CW@@QEAA@XZ            0000000180033bc0 f i ImageScannerImpl.obj
 0001:00032c40       ??1_CWNCC@@QEAA@XZ         0000000180033c40 f i ImageScannerImpl.obj
 0001:00032c70       ??B_CW@@QEAAPEB_WXZ        0000000180033c70 f i ImageScannerImpl.obj
 0001:00032cc0       ??B_CWNCC@@QEAAPEA_WXZ     0000000180033cc0 f i ImageScannerImpl.obj
 0001:00032cf0       ??_EOposVariant@@QEAAPEAXI@Z 0000000180033cf0 f i ImageScannerImpl.obj
 0001:00032da0       ?EventClaim@COPOSImageScanner@@IEAAXXZ 0000000180033da0 f i ImageScannerImpl.obj
 0001:00032df0       ?EventClose@COPOSImageScanner@@IEAAXXZ 0000000180033df0 f i ImageScannerImpl.obj
 0001:00032e90       ?EventInit@COPOSImageScanner@@IEAAJXZ 0000000180033e90 f i ImageScannerImpl.obj
 0001:00033140       ?EventOpen@COPOSImageScanner@@IEAAXXZ 0000000180034140 f i ImageScannerImpl.obj
 0001:00033180       ?EventPreCloseRelease@COPOSImageScanner@@IEAAXXZ 0000000180034180 f i ImageScannerImpl.obj
 0001:00033200       ?EventUninit@COPOSImageScanner@@IEAAXXZ 0000000180034200 f i ImageScannerImpl.obj
 0001:00033330       ?EventWindowProc@COPOSImageScanner@@IEAA_JI_K_J@Z 0000000180034330 f i ImageScannerImpl.obj
 0001:00033500       ?FireEventCleanup@COPOSImageScanner@@IEAAXXZ 0000000180034500 f i ImageScannerImpl.obj
 0001:00033550       ?FireEventSetup@COPOSImageScanner@@IEAA_NXZ 0000000180034550 f i ImageScannerImpl.obj
 0001:000335d0       ?GetModuleInstance@CComModule@ATL@@QEAAPEAUHINSTANCE__@@XZ 00000001800345d0 f i ImageScannerImpl.obj
 0001:000335e0       ?SetRC@COPOSImageScanner@@IEAAJJ@Z 00000001800345e0 f i ImageScannerImpl.obj
 0001:00033600       ?s_EventWindowProc@COPOSImageScanner@@KA_JPEAUHWND__@@I_K_J@Z 0000000180034600 f i ImageScannerImpl.obj
 0001:000336b0       _snwprintf                 00000001800346b0 f i ImageScannerImpl.obj
 0001:00033740       _vfwprintf_l               0000000180034740 f i ImageScannerImpl.obj
 0001:000337a0       _vsnwprintf                00000001800347a0 f i ImageScannerImpl.obj
 0001:00033800       _vsnwprintf_l              0000000180034800 f i ImageScannerImpl.obj
 0001:00033890       vfwprintf                  0000000180034890 f i ImageScannerImpl.obj
 0001:000338d5       DebugBreak                 00000001800348d5 f   kernel32:KERNEL32.dll
 0001:000338db       Sleep                      00000001800348db f   kernel32:KERNEL32.dll
 0001:000338e1       GetCurrentProcess          00000001800348e1 f   kernel32:KERNEL32.dll
 0001:000338e7       TerminateProcess           00000001800348e7 f   kernel32:KERNEL32.dll
 0001:000338ed       MultiByteToWideChar        00000001800348ed f   kernel32:KERNEL32.dll
 0001:000338f3       WideCharToMultiByte        00000001800348f3 f   kernel32:KERNEL32.dll
 0001:000338f9       DecodePointer              00000001800348f9 f   kernel32:KERNEL32.dll
 0001:000338ff       RaiseException             00000001800348ff f   kernel32:KERNEL32.dll
 0001:00033905       GetLastError               0000000180034905 f   kernel32:KERNEL32.dll
 0001:0003390b       SetLastError               000000018003490b f   kernel32:KERNEL32.dll
 0001:00033911       InitializeCriticalSectionEx 0000000180034911 f   kernel32:KERNEL32.dll
 0001:00033917       DeleteCriticalSection      0000000180034917 f   kernel32:KERNEL32.dll
 0001:0003391d       EncodePointer              000000018003491d f   kernel32:KERNEL32.dll
 0001:00033923       EnterCriticalSection       0000000180034923 f   kernel32:KERNEL32.dll
 0001:00033929       LeaveCriticalSection       0000000180034929 f   kernel32:KERNEL32.dll
 0001:0003392f       ResetEvent                 000000018003492f f   kernel32:KERNEL32.dll
 0001:00033935       ReleaseMutex               0000000180034935 f   kernel32:KERNEL32.dll
 0001:0003393b       WaitForSingleObject        000000018003493b f   kernel32:KERNEL32.dll
 0001:00033941       GetCurrentThreadId         0000000180034941 f   kernel32:KERNEL32.dll
 0001:00033947       DisableThreadLibraryCalls  0000000180034947 f   kernel32:KERNEL32.dll
 0001:0003394d       FreeLibrary                000000018003494d f   kernel32:KERNEL32.dll
 0001:00033953       GetModuleFileNameW         0000000180034953 f   kernel32:KERNEL32.dll
 0001:00033959       GetModuleHandleW           0000000180034959 f   kernel32:KERNEL32.dll
 0001:0003395f       GetProcAddress             000000018003495f f   kernel32:KERNEL32.dll
 0001:00033965       LoadLibraryExW             0000000180034965 f   kernel32:KERNEL32.dll
 0001:0003396b       LoadResource               000000018003496b f   kernel32:KERNEL32.dll
 0001:00033971       SizeofResource             0000000180034971 f   kernel32:KERNEL32.dll
 0001:00033977       FindResourceW              0000000180034977 f   kernel32:KERNEL32.dll
 0001:0003397d       GlobalAlloc                000000018003497d f   kernel32:KERNEL32.dll
 0001:00033983       GlobalUnlock               0000000180034983 f   kernel32:KERNEL32.dll
 0001:00033989       GlobalLock                 0000000180034989 f   kernel32:KERNEL32.dll
 0001:0003398f       MulDiv                     000000018003498f f   kernel32:KERNEL32.dll
 0001:00033995       lstrcmpiW                  0000000180034995 f   kernel32:KERNEL32.dll
 0001:0003399b       DeleteFileW                000000018003499b f   kernel32:KERNEL32.dll
 0001:000339a1       CloseHandle                00000001800349a1 f   kernel32:KERNEL32.dll
 0001:000339a7       SetEvent                   00000001800349a7 f   kernel32:KERNEL32.dll
 0001:000339ad       CreateMutexW               00000001800349ad f   kernel32:KERNEL32.dll
 0001:000339b3       CreateEventW               00000001800349b3 f   kernel32:KERNEL32.dll
 0001:000339b9       GetCurrentProcessId        00000001800349b9 f   kernel32:KERNEL32.dll
 0001:000339bf       LocalFree                  00000001800349bf f   kernel32:KERNEL32.dll
 0001:000339c5       FormatMessageW             00000001800349c5 f   kernel32:KERNEL32.dll
 0001:000339cb       GetActiveWindow            00000001800349cb f   user32:USER32.dll
 0001:000339d1       MessageBoxW                00000001800349d1 f   user32:USER32.dll
 0001:000339d7       UnregisterClassW           00000001800349d7 f   user32:USER32.dll
 0001:000339dd       PostMessageW               00000001800349dd f   user32:USER32.dll
 0001:000339e3       DefWindowProcW             00000001800349e3 f   user32:USER32.dll
 0001:000339e9       CallWindowProcW            00000001800349e9 f   user32:USER32.dll
 0001:000339ef       RegisterClassExW           00000001800349ef f   user32:USER32.dll
 0001:000339f5       GetClassInfoExW            00000001800349f5 f   user32:USER32.dll
 0001:000339fb       CreateWindowExW            00000001800349fb f   user32:USER32.dll
 0001:00033a01       IsWindow                   0000000180034a01 f   user32:USER32.dll
 0001:00033a07       IsChild                    0000000180034a07 f   user32:USER32.dll
 0001:00033a0d       DestroyWindow              0000000180034a0d f   user32:USER32.dll
 0001:00033a13       ShowWindow                 0000000180034a13 f   user32:USER32.dll
 0001:00033a19       SetWindowPos               0000000180034a19 f   user32:USER32.dll
 0001:00033a1f       CharNextW                  0000000180034a1f f   user32:USER32.dll
 0001:00033a25       SetFocus                   0000000180034a25 f   user32:USER32.dll
 0001:00033a2b       GetFocus                   0000000180034a2b f   user32:USER32.dll
 0001:00033a31       GetKeyState                0000000180034a31 f   user32:USER32.dll
 0001:00033a37       GetDC                      0000000180034a37 f   user32:USER32.dll
 0001:00033a3d       ReleaseDC                  0000000180034a3d f   user32:USER32.dll
 0001:00033a43       BeginPaint                 0000000180034a43 f   user32:USER32.dll
 0001:00033a49       EndPaint                   0000000180034a49 f   user32:USER32.dll
 0001:00033a4f       SetWindowRgn               0000000180034a4f f   user32:USER32.dll
 0001:00033a55       InvalidateRect             0000000180034a55 f   user32:USER32.dll
 0001:00033a5b       GetClientRect              0000000180034a5b f   user32:USER32.dll
 0001:00033a61       IntersectRect              0000000180034a61 f   user32:USER32.dll
 0001:00033a67       UnionRect                  0000000180034a67 f   user32:USER32.dll
 0001:00033a6d       OffsetRect                 0000000180034a6d f   user32:USER32.dll
 0001:00033a73       EqualRect                  0000000180034a73 f   user32:USER32.dll
 0001:00033a79       PtInRect                   0000000180034a79 f   user32:USER32.dll
 0001:00033a7f       GetWindowLongPtrW          0000000180034a7f f   user32:USER32.dll
 0001:00033a85       SetWindowLongPtrW          0000000180034a85 f   user32:USER32.dll
 0001:00033a8b       GetParent                  0000000180034a8b f   user32:USER32.dll
 0001:00033a91       LoadCursorW                0000000180034a91 f   user32:USER32.dll
 0001:00033a97       PeekMessageW               0000000180034a97 f   user32:USER32.dll
 0001:00033a9d       RegisterClassW             0000000180034a9d f   user32:USER32.dll
 0001:00033aa3       LoadBitmapW                0000000180034aa3 f   user32:USER32.dll
 0001:00033aa9       CloseMetaFile              0000000180034aa9 f   gdi32:GDI32.dll
 0001:00033aaf       CreateDCW                  0000000180034aaf f   gdi32:GDI32.dll
 0001:00033ab5       CreateMetaFileW            0000000180034ab5 f   gdi32:GDI32.dll
 0001:00033abb       CreateRectRgnIndirect      0000000180034abb f   gdi32:GDI32.dll
 0001:00033ac1       DeleteDC                   0000000180034ac1 f   gdi32:GDI32.dll
 0001:00033ac7       DeleteMetaFile             0000000180034ac7 f   gdi32:GDI32.dll
 0001:00033acd       GetDeviceCaps              0000000180034acd f   gdi32:GDI32.dll
 0001:00033ad3       RestoreDC                  0000000180034ad3 f   gdi32:GDI32.dll
 0001:00033ad9       SaveDC                     0000000180034ad9 f   gdi32:GDI32.dll
 0001:00033adf       SetMapMode                 0000000180034adf f   gdi32:GDI32.dll
 0001:00033ae5       LPtoDP                     0000000180034ae5 f   gdi32:GDI32.dll
 0001:00033aeb       SetViewportOrgEx           0000000180034aeb f   gdi32:GDI32.dll
 0001:00033af1       SetWindowExtEx             0000000180034af1 f   gdi32:GDI32.dll
 0001:00033af7       SetWindowOrgEx             0000000180034af7 f   gdi32:GDI32.dll
 0001:00033afd       BitBlt                     0000000180034afd f   gdi32:GDI32.dll
 0001:00033b03       CreateCompatibleDC         0000000180034b03 f   gdi32:GDI32.dll
 0001:00033b09       DeleteObject               0000000180034b09 f   gdi32:GDI32.dll
 0001:00033b0f       SelectObject               0000000180034b0f f   gdi32:GDI32.dll
 0001:00033b15       GetObjectW                 0000000180034b15 f   gdi32:GDI32.dll
 0001:00033b1b       RegCloseKey                0000000180034b1b f   advapi32:ADVAPI32.dll
 0001:00033b21       RegCreateKeyExW            0000000180034b21 f   advapi32:ADVAPI32.dll
 0001:00033b27       RegDeleteKeyW              0000000180034b27 f   advapi32:ADVAPI32.dll
 0001:00033b2d       RegDeleteValueW            0000000180034b2d f   advapi32:ADVAPI32.dll
 0001:00033b33       RegEnumKeyExW              0000000180034b33 f   advapi32:ADVAPI32.dll
 0001:00033b39       RegOpenKeyExW              0000000180034b39 f   advapi32:ADVAPI32.dll
 0001:00033b3f       RegQueryInfoKeyW           0000000180034b3f f   advapi32:ADVAPI32.dll
 0001:00033b45       RegSetValueExW             0000000180034b45 f   advapi32:ADVAPI32.dll
 0001:00033b4b       RegQueryValueExW           0000000180034b4b f   advapi32:ADVAPI32.dll
 0001:00033b51       CoCreateInstance           0000000180034b51 f   ole32:ole32.dll
 0001:00033b57       StringFromGUID2            0000000180034b57 f   ole32:ole32.dll
 0001:00033b5d       CoTaskMemAlloc             0000000180034b5d f   ole32:ole32.dll
 0001:00033b63       CoTaskMemRealloc           0000000180034b63 f   ole32:ole32.dll
 0001:00033b69       CoTaskMemFree              0000000180034b69 f   ole32:ole32.dll
 0001:00033b6f       ReadClassStm               0000000180034b6f f   ole32:ole32.dll
 0001:00033b75       WriteClassStm              0000000180034b75 f   ole32:ole32.dll
 0001:00033b7b       CreateDataAdviseHolder     0000000180034b7b f   ole32:ole32.dll
 0001:00033b81       OleSaveToStream            0000000180034b81 f   ole32:ole32.dll
 0001:00033b87       CreateOleAdviseHolder      0000000180034b87 f   ole32:ole32.dll
 0001:00033b8d       OleRegGetUserType          0000000180034b8d f   ole32:ole32.dll
 0001:00033b93       OleRegGetMiscStatus        0000000180034b93 f   ole32:ole32.dll
 0001:00033b99       OleRegEnumVerbs            0000000180034b99 f   ole32:ole32.dll
 0001:00033b9f       CLSIDFromProgID            0000000180034b9f f   ole32:ole32.dll
 0001:00033ba5       SysAllocString             0000000180034ba5 f   oleaut32:OLEAUT32.dll
 0001:00033bab       SysAllocStringLen          0000000180034bab f   oleaut32:OLEAUT32.dll
 0001:00033bb1       SysFreeString              0000000180034bb1 f   oleaut32:OLEAUT32.dll
 0001:00033bb7       SysStringLen               0000000180034bb7 f   oleaut32:OLEAUT32.dll
 0001:00033bbd       VariantClear               0000000180034bbd f   oleaut32:OLEAUT32.dll
 0001:00033bc3       VariantCopyInd             0000000180034bc3 f   oleaut32:OLEAUT32.dll
 0001:00033bc9       VariantChangeType          0000000180034bc9 f   oleaut32:OLEAUT32.dll
 0001:00033bcf       SysStringByteLen           0000000180034bcf f   oleaut32:OLEAUT32.dll
 0001:00033bd5       SysAllocStringByteLen      0000000180034bd5 f   oleaut32:OLEAUT32.dll
 0001:00033bdb       VariantInit                0000000180034bdb f   oleaut32:OLEAUT32.dll
 0001:00033be1       VarUI4FromStr              0000000180034be1 f   oleaut32:OLEAUT32.dll
 0001:00033be7       LoadTypeLib                0000000180034be7 f   oleaut32:OLEAUT32.dll
 0001:00033bed       LoadRegTypeLib             0000000180034bed f   oleaut32:OLEAUT32.dll
 0001:00033bf3       RegisterTypeLib            0000000180034bf3 f   oleaut32:OLEAUT32.dll
 0001:00033bf9       UnRegisterTypeLib          0000000180034bf9 f   oleaut32:OLEAUT32.dll
 0001:00033bff       OleCreatePropertyFrame     0000000180034bff f   oleaut32:OLEAUT32.dll
 0001:00033c10       _RTC_AllocaHelper          0000000180034c10 f   LIBCMTD:stack.obj
 0001:00033c50       _RTC_CheckStackVars        0000000180034c50 f   LIBCMTD:stack.obj
 0001:00033ce0       _RTC_CheckStackVars2       0000000180034ce0 f   LIBCMTD:stack.obj
 0001:00033df0       _CRT_RTC_INIT              0000000180034df0 f   LIBCMTD:init.obj
 0001:00033e00       _CRT_RTC_INITW             0000000180034e00 f   LIBCMTD:init.obj
 0001:00033e10       _RTC_InitBase              0000000180034e10 f   LIBCMTD:init.obj
 0001:00033e50       _RTC_Shutdown              0000000180034e50 f   LIBCMTD:init.obj
 0001:00033e80       __GSHandlerCheck           0000000180034e80 f   LIBCMTD:gshandler.obj
 0001:00033ec0       __GSHandlerCheckCommon     0000000180034ec0 f   LIBCMTD:gshandler.obj
 0001:00033fd0       __security_check_cookie    0000000180034fd0 f   LIBCMTD:amdsecgs.obj
 0001:00034000       ??_U@YAPEAX_K@Z            0000000180035000 f   LIBCMTD:new_array.obj
 0001:00034020       ??3@YAXPEAX_K@Z            0000000180035020 f   LIBCMTD:delete_scalar_size.obj
 0001:00034040       ??_V@YAXPEAX@Z             0000000180035040 f   LIBCMTD:delete_array.obj
 0001:00034060       ??_V@YAXPEAX_K@Z           0000000180035060 f   LIBCMTD:delete_array_size.obj
 0001:00034080       ?configure_argv@__scrt_narrow_argv_policy@@SAHXZ 0000000180035080 f i LIBCMTD:utility.obj
 0001:00034170       ?initialize_environment@__scrt_narrow_environment_policy@@SAHXZ 0000000180035170 f i LIBCMTD:utility.obj
 0001:00034210       NtCurrentTeb               0000000180035210 f i LIBCMTD:utility.obj
 0001:00034220       __scrt_acquire_startup_lock 0000000180035220 f   LIBCMTD:utility.obj
 0001:00034290       __scrt_dllmain_after_initialize_c 0000000180035290 f   LIBCMTD:utility.obj
 0001:000342c0       __scrt_dllmain_before_initialize_c 00000001800352c0 f   LIBCMTD:utility.obj
 0001:000342e0       __scrt_dllmain_crt_thread_attach 00000001800352e0 f   LIBCMTD:utility.obj
 0001:00034310       __scrt_dllmain_crt_thread_detach 0000000180035310 f   LIBCMTD:utility.obj
 0001:00034330       __scrt_dllmain_exception_filter 0000000180035330 f   LIBCMTD:utility.obj
 0001:000343a0       __scrt_dllmain_uninitialize_c 00000001800353a0 f   LIBCMTD:utility.obj
 0001:000343d0       __scrt_dllmain_uninitialize_critical 00000001800353d0 f   LIBCMTD:utility.obj
 0001:000343f0       __scrt_initialize_crt      00000001800353f0 f   LIBCMTD:utility.obj
 0001:00034440       __scrt_initialize_onexit_tables 0000000180035440 f   LIBCMTD:utility.obj
 0001:00034550       __scrt_is_nonwritable_in_current_image 0000000180035550 f   LIBCMTD:utility.obj
 0001:000345e0       __scrt_release_startup_lock 00000001800355e0 f   LIBCMTD:utility.obj
 0001:00034610       __scrt_uninitialize_crt    0000000180035610 f   LIBCMTD:utility.obj
 0001:00034650       _onexit                    0000000180035650 f   LIBCMTD:utility.obj
 0001:000346d0       at_quick_exit              00000001800356d0 f   LIBCMTD:utility.obj
 0001:00034720       atexit                     0000000180035720 f   LIBCMTD:utility.obj
 0001:00034760       ??3@YAXPEAX@Z              0000000180035760 f   LIBCMTD:delete_scalar.obj
 0001:00034780       __raise_securityfailure    0000000180035780 f   LIBCMTD:gs_report.obj
 0001:000347c0       __report_gsfailure         00000001800357c0 f   LIBCMTD:gs_report.obj
 0001:000348a0       __report_rangecheckfailure 00000001800358a0 f   LIBCMTD:gs_report.obj
 0001:000348c0       __report_securityfailure   00000001800358c0 f   LIBCMTD:gs_report.obj
 0001:00034960       __report_securityfailureEx 0000000180035960 f   LIBCMTD:gs_report.obj
 0001:00034d20       _Init_thread_abort         0000000180035d20 f   LIBCMTD:thread_safe_statics.obj
 0001:00034d50       _Init_thread_footer        0000000180035d50 f   LIBCMTD:thread_safe_statics.obj
 0001:00034db0       _Init_thread_header        0000000180035db0 f   LIBCMTD:thread_safe_statics.obj
 0001:00034e40       _Init_thread_lock          0000000180035e40 f   LIBCMTD:thread_safe_statics.obj
 0001:00034e60       _Init_thread_notify        0000000180035e60 f   LIBCMTD:thread_safe_statics.obj
 0001:00034ec0       _Init_thread_unlock        0000000180035ec0 f   LIBCMTD:thread_safe_statics.obj
 0001:00034ee0       _Init_thread_wait          0000000180035ee0 f   LIBCMTD:thread_safe_statics.obj
 0001:00034f90       ??2@YAPEAX_KAEBUnothrow_t@std@@@Z 0000000180035f90 f   LIBCMTD:new_scalar_nothrow.obj
 0001:00034fd0       ??_U@YAPEAX_KAEBUnothrow_t@std@@@Z 0000000180035fd0 f   LIBCMTD:new_array_nothrow.obj
 0001:00035000       __GSHandlerCheck_SEH       0000000180036000 f   LIBCMTD:gshandlerseh.obj
 0001:000350d0       _alloca_probe              00000001800360d0 f   LIBCMTD:chkstk.obj
 0001:000350d0       __chkstk                   00000001800360d0 f   LIBCMTD:chkstk.obj
 0001:00035540       _CRT_INIT                  0000000180036540 f   LIBCMTD:dll_dllmain.obj
 0001:00035570       _DllMainCRTStartup         0000000180036570 f   LIBCMTD:dll_dllmain.obj
 0001:00035640       ?_RTC_AllocaFailure@@YAXPEAXPEAU_RTC_ALLOCA_NODE@@H@Z 0000000180036640 f   LIBCMTD:error.obj
 0001:000357a0       ?_RTC_Failure@@YAXPEAXH@Z  00000001800367a0 f   LIBCMTD:error.obj
 0001:000357f0       ?_RTC_StackFailure@@YAXPEAXPEBD@Z 00000001800367f0 f   LIBCMTD:error.obj
 0001:00035c20       _RTC_UninitUse             0000000180036c20 f   LIBCMTD:error.obj
 0001:00035cf0       _vsprintf_s_l              0000000180036cf0 f i LIBCMTD:error.obj
 0001:00035d60       sprintf_s                  0000000180036d60 f i LIBCMTD:error.obj
 0001:00035d90       ?_RTC_GetErrorFunc@@YAP6AHHPEBDH00ZZPEBX@Z 0000000180036d90 f   LIBCMTD:userapi.obj
 0001:00035da0       ?_RTC_GetErrorFuncW@@YAP6AHHPEB_WH00ZZPEBX@Z 0000000180036da0 f   LIBCMTD:userapi.obj
 0001:00035db0       _RTC_GetErrDesc            0000000180036db0 f   LIBCMTD:userapi.obj
 0001:00035dd0       _RTC_NumErrors             0000000180036dd0 f   LIBCMTD:userapi.obj
 0001:00035de0       _RTC_SetErrorFunc          0000000180036de0 f   LIBCMTD:userapi.obj
 0001:00035e00       _RTC_SetErrorFuncW         0000000180036e00 f   LIBCMTD:userapi.obj
 0001:00035e20       _RTC_SetErrorType          0000000180036e20 f   LIBCMTD:userapi.obj
 0001:00035e40       ??2@YAPEAX_K@Z             0000000180036e40 f   LIBCMTD:new_scalar.obj
 0001:00035e90       __isa_available_init       0000000180036e90 f   LIBCMTD:cpu_disp.obj
 0001:00036230       _get_startup_argv_mode     0000000180037230 f   LIBCMTD:argv_mode.obj
 0001:00036240       __scrt_is_ucrt_dll_in_use  0000000180037240 f   LIBCMTD:ucrt_detection.obj
 0001:00036270       __crt_debugger_hook        0000000180037270 f   LIBCMTD:utility_desktop.obj
 0001:00036280       __scrt_fastfail            0000000180037280 f   LIBCMTD:utility_desktop.obj
 0001:00036420       __scrt_get_show_window_mode 0000000180037420 f   LIBCMTD:utility_desktop.obj
 0001:00036480       __scrt_initialize_mta      0000000180037480 f   LIBCMTD:utility_desktop.obj
 0001:00036490       __scrt_initialize_winrt    0000000180037490 f   LIBCMTD:utility_desktop.obj
 0001:000364a0       __scrt_is_managed_app      00000001800374a0 f   LIBCMTD:utility_desktop.obj
 0001:00036550       __scrt_set_unhandled_exception_filter 0000000180037550 f   LIBCMTD:utility_desktop.obj
 0001:00036570       __scrt_stub_for_initialize_mta 0000000180037570 f   LIBCMTD:utility_desktop.obj
 0001:00036570       __scrt_exe_initialize_mta  0000000180037570 f   LIBCMTD:utility_desktop.obj
 0001:00036580       __scrt_unhandled_exception_filter 0000000180037580 f   LIBCMTD:utility_desktop.obj
 0001:00036620       _guard_check_icall_nop     0000000180037620 f i LIBCMTD:guard_support.obj
 0001:00036630       ReadNoFence64              0000000180037630 f i LIBCMTD:guard_support.obj
 0001:00036650       ReadPointerNoFence         0000000180037650 f i LIBCMTD:guard_support.obj
 0001:00036670       _guard_icall_checks_enforced 0000000180037670 f i LIBCMTD:guard_support.obj
 0001:000366b0       _guard_rf_checks_enforced  00000001800376b0 f i LIBCMTD:guard_support.obj
 0001:00036780       __security_init_cookie     0000000180037780 f   LIBCMTD:gs_support.obj
 0001:00036800       ?__scrt_initialize_type_info@@YAXXZ 0000000180037800 f   LIBCMTD:tncleanup.obj
 0001:00036820       ?__scrt_uninitialize_type_info@@YAXXZ 0000000180037820 f   LIBCMTD:tncleanup.obj
 0001:00036840       __local_stdio_scanf_options 0000000180037840 f i LIBCMTD:default_local_stdio_options.obj
 0001:00036850       __scrt_initialize_default_local_stdio_options 0000000180037850 f   LIBCMTD:default_local_stdio_options.obj
 0001:000368a0       __scrt_get_dyn_tls_init_callback 00000001800378a0 f   LIBCMTD:dyn_tls_init.obj
 0001:000368b0       _RTC_Initialize            00000001800378b0 f   LIBCMTD:initsect.obj
 0001:00036900       _RTC_Terminate             0000000180037900 f   LIBCMTD:initsect.obj
 0001:00036e60       ?_RTC_GetSrcLine@@YAHPEAEPEA_WKPEAH1K@Z 0000000180037e60 f   LIBCMTD:pdblkup.obj
 0001:00037230       ??0bad_alloc@std@@AEAA@QEBD@Z 0000000180038230 f i LIBCMTD:throw_bad_alloc.obj
 0001:00037270       ??0bad_alloc@std@@QEAA@AEBV01@@Z 0000000180038270 f i LIBCMTD:throw_bad_alloc.obj
 0001:000372b0       ??0bad_alloc@std@@QEAA@XZ  00000001800382b0 f i LIBCMTD:throw_bad_alloc.obj
 0001:000372f0       ??0bad_array_new_length@std@@QEAA@AEBV01@@Z 00000001800382f0 f i LIBCMTD:throw_bad_alloc.obj
 0001:00037330       ??0bad_array_new_length@std@@QEAA@XZ 0000000180038330 f i LIBCMTD:throw_bad_alloc.obj
 0001:00037370       ??0exception@std@@QEAA@AEBV01@@Z 0000000180038370 f i LIBCMTD:throw_bad_alloc.obj
 0001:000373d0       ??0exception@std@@QEAA@QEBDH@Z 00000001800383d0 f i LIBCMTD:throw_bad_alloc.obj
 0001:00037420       ??1bad_alloc@std@@UEAA@XZ  0000000180038420 f i LIBCMTD:throw_bad_alloc.obj
 0001:00037440       ??1bad_array_new_length@std@@UEAA@XZ 0000000180038440 f i LIBCMTD:throw_bad_alloc.obj
 0001:00037460       ??1exception@std@@UEAA@XZ  0000000180038460 f i LIBCMTD:throw_bad_alloc.obj
 0001:00037490       ??_Ebad_alloc@std@@UEAAPEAXI@Z 0000000180038490 f i LIBCMTD:throw_bad_alloc.obj
 0001:00037490       ??_Gbad_alloc@std@@UEAAPEAXI@Z 0000000180038490 f i LIBCMTD:throw_bad_alloc.obj
 0001:000374d0       ??_Ebad_array_new_length@std@@UEAAPEAXI@Z 00000001800384d0 f i LIBCMTD:throw_bad_alloc.obj
 0001:000374d0       ??_Gbad_array_new_length@std@@UEAAPEAXI@Z 00000001800384d0 f i LIBCMTD:throw_bad_alloc.obj
 0001:00037510       ??_Gexception@std@@UEAAPEAXI@Z 0000000180038510 f i LIBCMTD:throw_bad_alloc.obj
 0001:00037510       ??_Eexception@std@@UEAAPEAXI@Z 0000000180038510 f i LIBCMTD:throw_bad_alloc.obj
 0001:00037550       ?__scrt_throw_std_bad_alloc@@YAXXZ 0000000180038550 f   LIBCMTD:throw_bad_alloc.obj
 0001:00037580       ?__scrt_throw_std_bad_array_new_length@@YAXXZ 0000000180038580 f   LIBCMTD:throw_bad_alloc.obj
 0001:000375b0       ?what@exception@std@@UEBAPEBDXZ 00000001800385b0 f i LIBCMTD:throw_bad_alloc.obj
 0001:000375f0       ??1type_info@@UEAA@XZ      00000001800385f0 f   LIBCMTD:std_type_info_static.obj
 0001:00037610       ??_Gtype_info@@UEAAPEAXI@Z 0000000180038610 f i LIBCMTD:std_type_info_static.obj
 0001:00037610       ??_Etype_info@@UEAAPEAXI@Z 0000000180038610 f i LIBCMTD:std_type_info_static.obj
 0001:0003764c       ??$?2PEAUHINSTANCE__@@@Wrapper@?$CSimpleArray@PEAUHINSTANCE__@@V?$CSimpleArrayEqualHelper@PEAUHINSTANCE__@@@ATL@@@ATL@@SAPEAX_KPEAPEAUHINSTANCE__@@@Z 000000018003864c f i atls:atlbase.obj
 0001:00037650       ??0?$CSimpleArray@PEAUHINSTANCE__@@V?$CSimpleArrayEqualHelper@PEAUHINSTANCE__@@@ATL@@@ATL@@QEAA@XZ 0000000180038650 f i atls:atlbase.obj
 0001:00037660       ??0CAtlBaseModule@ATL@@QEAA@XZ 0000000180038660 f   atls:atlbase.obj
 0001:00037708       ??0Wrapper@?$CSimpleArray@PEAUHINSTANCE__@@V?$CSimpleArrayEqualHelper@PEAUHINSTANCE__@@@ATL@@@ATL@@QEAA@AEBQEAUHINSTANCE__@@@Z 0000000180038708 f i atls:atlbase.obj
 0001:00037714       ??0_ATL_BASE_MODULE70@ATL@@QEAA@XZ 0000000180038714 f i atls:atlbase.obj
 0001:00037740       ??1?$CSimpleArray@PEAUHINSTANCE__@@V?$CSimpleArrayEqualHelper@PEAUHINSTANCE__@@@ATL@@@ATL@@QEAA@XZ 0000000180038740 f i atls:atlbase.obj
 0001:00037768       ??1CAtlBaseModule@ATL@@QEAA@XZ 0000000180038768 f   atls:atlbase.obj
 0001:0003779c       ??1_ATL_BASE_MODULE70@ATL@@QEAA@XZ 000000018003879c f i atls:atlbase.obj
 0001:000377c8       ??A?$CSimpleArray@PEAUHINSTANCE__@@V?$CSimpleArrayEqualHelper@PEAUHINSTANCE__@@@ATL@@@ATL@@QEAAAEAPEAUHINSTANCE__@@H@Z 00000001800387c8 f i atls:atlbase.obj
 0001:000377f4       ?Add@?$CSimpleArray@PEAUHINSTANCE__@@V?$CSimpleArrayEqualHelper@PEAUHINSTANCE__@@@ATL@@@ATL@@QEAAHAEBQEAUHINSTANCE__@@@Z 00000001800387f4 f i atls:atlbase.obj
 0001:000378a8       ?AddResourceInstance@CAtlBaseModule@ATL@@QEAA_NPEAUHINSTANCE__@@@Z 00000001800388a8 f   atls:atlbase.obj
 0001:000378f0       ?GetHInstanceAt@CAtlBaseModule@ATL@@QEAAPEAUHINSTANCE__@@H@Z 00000001800388f0 f   atls:atlbase.obj
 0001:00037968       ?GetSize@?$CSimpleArray@PEAUHINSTANCE__@@V?$CSimpleArrayEqualHelper@PEAUHINSTANCE__@@@ATL@@@ATL@@QEBAHXZ 0000000180038968 f i atls:atlbase.obj
 0001:0003796c       ?InternalSetAtIndex@?$CSimpleArray@PEAUHINSTANCE__@@V?$CSimpleArrayEqualHelper@PEAUHINSTANCE__@@@ATL@@@ATL@@QEAAXHAEBQEAUHINSTANCE__@@@Z 000000018003896c f i atls:atlbase.obj
 0001:00037984       ?RemoveAll@?$CSimpleArray@PEAUHINSTANCE__@@V?$CSimpleArrayEqualHelper@PEAUHINSTANCE__@@@ATL@@@ATL@@QEAAXXZ 0000000180038984 f i atls:atlbase.obj
 0001:000379ac       ?RemoveAt@?$CSimpleArray@PEAUHINSTANCE__@@V?$CSimpleArrayEqualHelper@PEAUHINSTANCE__@@@ATL@@@ATL@@QEAAHH@Z 00000001800389ac f i atls:atlbase.obj
 0001:00037a50       ?RemoveResourceInstance@CAtlBaseModule@ATL@@QEAA_NPEAUHINSTANCE__@@@Z 0000000180038a50 f   atls:atlbase.obj
 0001:00037ad0       ?memmove_s@Checked@ATL@@YAXPEAX_KPEBX1@Z 0000000180038ad0 f i atls:atlbase.obj
 0001:00037f78       ?GetCodeAddress@_stdcallthunk@ATL@@QEAAPEAXXZ 0000000180038f78 f i atls:atlthunk.obj
 0001:00037fa4       ?Init@_stdcallthunk@ATL@@QEAAH_KPEAX@Z 0000000180038fa4 f i atls:atlthunk.obj
 0001:00037ff4       ?__AllocStdCallThunk@@YAPEAXXZ 0000000180038ff4 f   atls:atlthunk.obj
 0001:00037ffc       ?__AllocStdCallThunk@ATL@@YAPEAXXZ 0000000180038ffc f   atls:atlthunk.obj
 0001:00038004       ?__AllocStdCallThunk_cmn@@YAPEAXXZ 0000000180039004 f   atls:atlthunk.obj
 0001:000380dc       ?__FreeStdCallThunk@@YAXPEAX@Z 00000001800390dc f   atls:atlthunk.obj
 0001:000380fc       ?__FreeStdCallThunk@ATL@@YAXPEAX@Z 00000001800390fc f   atls:atlthunk.obj
 0001:0003811c       ?__FreeStdCallThunk_cmn@@YAXPEAX@Z 000000018003911c f   atls:atlthunk.obj
 0001:000381bc       AtlThunk_AllocateData      00000001800391bc f   atls:atlthunk.obj
 0001:00038238       AtlThunk_DataToCode        0000000180039238 f   atls:atlthunk.obj
 0001:0003828c       AtlThunk_FreeData          000000018003928c f   atls:atlthunk.obj
 0001:000382ec       AtlThunk_InitData          00000001800392ec f   atls:atlthunk.obj
 0001:000383b0       memset_repmovs             00000001800393b0 f   libvcruntimed:memset.obj
 0001:000383d0       memset                     00000001800393d0 f   libvcruntimed:memset.obj
 0001:00038560       ??$__crt_interlocked_exchange_pointer@$$A6AXXZP6AXXZ@@YAP6AXXZPEDS6AXXZQ6AXXZ@Z 0000000180039560 f i libvcruntimed:purevirt.obj
 0001:00038580       ??$__crt_interlocked_read_pointer@$$A6AXXZ@@YAP6AXXZPEDS6AXXZ@Z 0000000180039580 f i libvcruntimed:purevirt.obj
 0001:000385a0       ?__crt_interlocked_read_64@@YA_JPED_J@Z 00000001800395a0 f i libvcruntimed:purevirt.obj
 0001:000385c0       _get_purecall_handler      00000001800395c0 f   libvcruntimed:purevirt.obj
 0001:000385e0       _purecall                  00000001800395e0 f   libvcruntimed:purevirt.obj
 0001:00038620       _set_purecall_handler      0000000180039620 f   libvcruntimed:purevirt.obj
 0001:00038650       memcmp                     0000000180039650 f   libvcruntimed:memcmp.obj
 0001:00038730       memcpy_repmovs             0000000180039730 f   libvcruntimed:memcpy.obj
 0001:00038750       memmove                    0000000180039750 f   libvcruntimed:memcpy.obj
 0001:00038750       memcpy                     0000000180039750 f   libvcruntimed:memcpy.obj
 0001:00038b30       wcsstr                     0000000180039b30 f   libvcruntimed:wcsstr.obj
 0001:00039190       __vcrt_initialize          000000018003a190 f   libvcruntimed:initialization.obj
 0001:000391d0       __vcrt_thread_attach       000000018003a1d0 f   libvcruntimed:initialization.obj
 0001:000391f0       __vcrt_thread_detach       000000018003a1f0 f   libvcruntimed:initialization.obj
 0001:00039210       __vcrt_uninitialize        000000018003a210 f   libvcruntimed:initialization.obj
 0001:00039230       __vcrt_uninitialize_critical 000000018003a230 f   libvcruntimed:initialization.obj
 0001:00039250       __C_specific_handler       000000018003a250 f   libvcruntimed:riscchandler.obj
 0001:000396c0       ??$?0AEAViterator@TryBlockMap4@FH4@@AEAV012@$0A@@?$pair@Viterator@TryBlockMap4@FH4@@V123@@std@@QEAA@AEAViterator@TryBlockMap4@FH4@@0@Z 000000018003a6c0 f i libvcruntimed:risctrnsctrl.obj
 0001:00039720       ??$?0AEAViterator@TryBlockMap@__FrameHandler3@@AEAV012@$0A@@?$pair@Viterator@TryBlockMap@__FrameHandler3@@V123@@std@@QEAA@AEAViterator@TryBlockMap@__FrameHandler3@@0@Z 000000018003a720 f i libvcruntimed:risctrnsctrl.obj
 0001:000398e0       ??$_CallSETranslator@V__FrameHandler3@@@@YAHPEAUEHExceptionRecord@@PEA_KPEAU_CONTEXT@@PEAU_xDISPATCHER_CONTEXT@@PEBU_s_FuncInfo@@K1@Z 000000018003a8e0 f i libvcruntimed:risctrnsctrl.obj
 0001:00039970       ??$_CallSETranslator@V__FrameHandler4@@@@YAHPEAUEHExceptionRecord@@PEA_KPEAU_CONTEXT@@PEAU_xDISPATCHER_CONTEXT@@PEAUFuncInfo4@FH4@@K1@Z 000000018003a970 f i libvcruntimed:risctrnsctrl.obj
 0001:00039a00       ??$forward@AEAViterator@TryBlockMap4@FH4@@@std@@YAAEAViterator@TryBlockMap4@FH4@@AEAV123@@Z 000000018003aa00 f i libvcruntimed:risctrnsctrl.obj
 0001:00039a10       ??$forward@AEAViterator@TryBlockMap@__FrameHandler3@@@std@@YAAEAViterator@TryBlockMap@__FrameHandler3@@AEAV123@@Z 000000018003aa10 f i libvcruntimed:risctrnsctrl.obj
 0001:00039a20       ??0FuncInfo4@FH4@@QEAA@XZ  000000018003aa20 f i libvcruntimed:risctrnsctrl.obj
 0001:00039a90       ??0FuncInfoHeader@FH4@@QEAA@XZ 000000018003aa90 f i libvcruntimed:risctrnsctrl.obj
 0001:00039ab0       ??0iterator@TryBlockMap4@FH4@@QEAA@AEAV12@I@Z 000000018003aab0 f i libvcruntimed:risctrnsctrl.obj
 0001:00039ae0       ??0iterator@TryBlockMap@__FrameHandler3@@QEAA@AEAV12@I@Z 000000018003aae0 f i libvcruntimed:risctrnsctrl.obj
 0001:00039b10       ??4iterator@TryBlockMap4@FH4@@QEAAAEAV012@AEBV012@@Z 000000018003ab10 f i libvcruntimed:risctrnsctrl.obj
 0001:00039b30       ??9iterator@TryBlockMap4@FH4@@QEBA_NAEBV012@@Z 000000018003ab30 f i libvcruntimed:risctrnsctrl.obj
 0001:00039b70       ??Diterator@TryBlockMap4@FH4@@QEAA?AUTryBlockMapEntry4@2@XZ 000000018003ab70 f i libvcruntimed:risctrnsctrl.obj
 0001:00039ba0       ??Eiterator@TryBlockMap4@FH4@@QEAAAEAV012@XZ 000000018003aba0 f i libvcruntimed:risctrnsctrl.obj
 0001:00039be0       ?CatchTryBlock@__FrameHandler3@@SAPEBU_s_TryBlockMapEntry@@PEBU_s_FuncInfo@@H@Z 000000018003abe0 f   libvcruntimed:risctrnsctrl.obj
 0001:00039c70       ?DecompFuncInfo@FH4@@YA_JPEAEAEAUFuncInfo4@1@_KH@Z 000000018003ac70 f i libvcruntimed:risctrnsctrl.obj
 0001:00039cb0       ?DecompFuncInfo@FH4@@YA_JPEAEAEAUFuncInfo4@1@_KH_N@Z 000000018003acb0 f i libvcruntimed:risctrnsctrl.obj
 0001:00039e80       ?DecompTryBlock@TryBlockMap4@FH4@@AEAAXXZ 000000018003ae80 f i libvcruntimed:risctrnsctrl.obj
 0001:00039f00       ?ExecutionInCatch@__FrameHandler3@@SA_NPEAU_xDISPATCHER_CONTEXT@@PEBU_s_FuncInfo@@@Z 000000018003af00 f   libvcruntimed:risctrnsctrl.obj
 0001:00039f50       ?ExecutionInCatch@__FrameHandler4@@SA_NPEAU_xDISPATCHER_CONTEXT@@PEAUFuncInfo4@FH4@@@Z 000000018003af50 f   libvcruntimed:risctrnsctrl.obj
 0001:00039f70       ?FrameUnwindToEmptyState@__FrameHandler3@@SAXPEA_KPEAU_xDISPATCHER_CONTEXT@@PEBU_s_FuncInfo@@@Z 000000018003af70 f   libvcruntimed:risctrnsctrl.obj
 0001:0003a010       ?FrameUnwindToEmptyState@__FrameHandler4@@SAXPEA_KPEAU_xDISPATCHER_CONTEXT@@PEAUFuncInfo4@FH4@@@Z 000000018003b010 f   libvcruntimed:risctrnsctrl.obj
 0001:0003a060       ?GetEstablisherFrame@__FrameHandler3@@SAPEA_KPEA_KPEAU_xDISPATCHER_CONTEXT@@PEBU_s_FuncInfo@@0@Z 000000018003b060 f   libvcruntimed:risctrnsctrl.obj
 0001:0003a1d0       ?GetEstablisherFrame@__FrameHandler4@@SAPEA_KPEA_KPEAU_xDISPATCHER_CONTEXT@@PEAUFuncInfo4@FH4@@0@Z 000000018003b1d0 f   libvcruntimed:risctrnsctrl.obj
 0001:0003a240       ?GetRangeOfTrysToCheck@__FrameHandler3@@SA?AU?$pair@Viterator@TryBlockMap@__FrameHandler3@@V123@@std@@AEAVTryBlockMap@1@HPEAU_xDISPATCHER_CONTEXT@@PEBU_s_FuncInfo@@H@Z 000000018003b240 f   libvcruntimed:risctrnsctrl.obj
 0001:0003a480       ?GetRangeOfTrysToCheck@__FrameHandler4@@SA?AU?$pair@Viterator@TryBlockMap4@FH4@@V123@@std@@AEAVTryBlockMap4@FH4@@HPEAU_xDISPATCHER_CONTEXT@@PEAUFuncInfo4@5@H@Z 000000018003b480 f   libvcruntimed:risctrnsctrl.obj
 0001:0003a630       ?ReadInt@FH4@@YAHPEAPEAE@Z 000000018003b630 f i libvcruntimed:risctrnsctrl.obj
 0001:0003a670       ?ReadUnsigned@FH4@@YAIPEAPEAE@Z 000000018003b670 f i libvcruntimed:risctrnsctrl.obj
 0001:0003a700       ?UnwindNestedFrames@__FrameHandler3@@SAXPEA_KPEAUEHExceptionRecord@@PEAU_CONTEXT@@0PEAXPEBU_s_FuncInfo@@HHPEBU_s_HandlerType@@PEAU_xDISPATCHER_CONTEXT@@E@Z 000000018003b700 f   libvcruntimed:risctrnsctrl.obj
 0001:0003a870       ?UnwindNestedFrames@__FrameHandler4@@SAXPEA_KPEAUEHExceptionRecord@@PEAU_CONTEXT@@0PEAXPEAUFuncInfo4@FH4@@HHPEAUHandlerType4@5@PEAU_xDISPATCHER_CONTEXT@@E@Z 000000018003b870 f   libvcruntimed:risctrnsctrl.obj
 0001:0003aa40       ?begin@TryBlockMap4@FH4@@QEAA?AViterator@12@XZ 000000018003ba40 f i libvcruntimed:risctrnsctrl.obj
 0001:0003aa70       ?end@TryBlockMap4@FH4@@QEAA?AViterator@12@XZ 000000018003ba70 f i libvcruntimed:risctrnsctrl.obj
 0001:0003aaa0       ?imageRelToByteBuffer@FH4@@YAPEAE_KH@Z 000000018003baa0 f i libvcruntimed:risctrnsctrl.obj
 0001:0003aac0       ?incrementToSentinel@iterator@TryBlockMap4@FH4@@QEAAXXZ 000000018003bac0 f i libvcruntimed:risctrnsctrl.obj
 0001:0003aae0       ?setBuffer@TryBlockMap4@FH4@@QEAAXViterator@12@@Z 000000018003bae0 f i libvcruntimed:risctrnsctrl.obj
 0001:0003ab50       _CreateFrameInfo           000000018003bb50 f   libvcruntimed:risctrnsctrl.obj
 0001:0003abc0       _FindAndUnlinkFrame        000000018003bbc0 f   libvcruntimed:risctrnsctrl.obj
 0001:0003ac40       _GetImageBase              000000018003bc40 f   libvcruntimed:risctrnsctrl.obj
 0001:0003ac60       _GetThrowImageBase         000000018003bc60 f   libvcruntimed:risctrnsctrl.obj
 0001:0003ac80       _SetImageBase              000000018003bc80 f   libvcruntimed:risctrnsctrl.obj
 0001:0003aca0       _SetThrowImageBase         000000018003bca0 f   libvcruntimed:risctrnsctrl.obj
 0001:0003acc0       __CxxFrameHandler          000000018003bcc0 f   libvcruntimed:risctrnsctrl.obj
 0001:0003ad00       __CxxFrameHandler2         000000018003bd00 f   libvcruntimed:risctrnsctrl.obj
 0001:0003ad40       __CxxFrameHandler3         000000018003bd40 f   libvcruntimed:risctrnsctrl.obj
 0001:0003ae20       __CxxFrameHandler4         000000018003be20 f   libvcruntimed:risctrnsctrl.obj
 0001:0003af30       __C_specific_handler_noexcept 000000018003bf30 f   libvcruntimed:chandler_noexcept.obj
 0001:0003afc0       __DestructExceptionObject  000000018003bfc0 f   libvcruntimed:ehhelpers.obj
 0001:0003b0c0       ?_CallMemberFunction0@@YAXQEAX0@Z 000000018003c0c0 f i libvcruntimed:ehhelpers.obj
 0001:0003b190       ?raw_name@type_info@@QEBAPEBDXZ 000000018003c190 f i libvcruntimed:ehhelpers.obj
 0001:0003b1a0       _IsExceptionObjectToBeDestroyed 000000018003c1a0 f   libvcruntimed:ehhelpers.obj
 0001:0003b1f0       _SetWinRTOutOfMemoryExceptionCallback 000000018003c1f0 f   libvcruntimed:ehhelpers.obj
 0001:0003b210       __AdjustPointer            000000018003c210 f   libvcruntimed:ehhelpers.obj
 0001:0003b290       __FrameUnwindFilter        000000018003c290 f   libvcruntimed:ehhelpers.obj
 0001:0003b340       __GetPlatformExceptionInfo 000000018003c340 f   libvcruntimed:ehhelpers.obj
 0001:0003b3f0       __current_exception        000000018003c3f0 f   libvcruntimed:ehhelpers.obj
 0001:0003b410       __current_exception_context 000000018003c410 f   libvcruntimed:ehhelpers.obj
 0001:0003b430       __processing_throw         000000018003c430 f   libvcruntimed:ehhelpers.obj
 0001:0003b450       __std_terminate            000000018003c450 f   libvcruntimed:ehhelpers.obj
 0001:0003b460       _is_exception_typeof       000000018003c460 f   libvcruntimed:ehhelpers.obj
 0001:0003b5f0       ??$?RD@__crt_internal_free_policy@@QEBAXQEBD@Z 000000018003c5f0 f i libvcruntimed:std_type_info.obj
 0001:0003b620       ??$?RX@__crt_internal_free_policy@@QEBAXQEBX@Z 000000018003c620 f i libvcruntimed:std_type_info.obj
 0001:0003b650       ??$__crt_interlocked_compare_exchange_pointer@$$CBDPEAD$$T@@YAPEBDPEDSEBDQEAD$$T@Z 000000018003c650 f i libvcruntimed:std_type_info.obj
 0001:0003b690       ??$__crt_interlocked_read_pointer@$$CBD@@YAPEBDPEDSEBD@Z 000000018003c690 f i libvcruntimed:std_type_info.obj
 0001:0003b6b0       ??0?$__crt_unique_heap_ptr@DU__crt_internal_free_policy@@@@QEAA@QEAD@Z 000000018003c6b0 f i libvcruntimed:std_type_info.obj
 0001:0003b6d0       ??0?$__crt_unique_heap_ptr@XU__crt_internal_free_policy@@@@QEAA@QEAX@Z 000000018003c6d0 f i libvcruntimed:std_type_info.obj
 0001:0003b6f0       ??1?$__crt_unique_heap_ptr@DU__crt_internal_free_policy@@@@QEAA@XZ 000000018003c6f0 f i libvcruntimed:std_type_info.obj
 0001:0003b710       ??1?$__crt_unique_heap_ptr@XU__crt_internal_free_policy@@@@QEAA@XZ 000000018003c710 f i libvcruntimed:std_type_info.obj
 0001:0003b730       ??B?$__crt_unique_heap_ptr@DU__crt_internal_free_policy@@@@QEBA_NXZ 000000018003c730 f i libvcruntimed:std_type_info.obj
 0001:0003b750       ??B?$__crt_unique_heap_ptr@XU__crt_internal_free_policy@@@@QEBA_NXZ 000000018003c750 f i libvcruntimed:std_type_info.obj
 0001:0003b7f0       ?detach@?$__crt_unique_heap_ptr@XU__crt_internal_free_policy@@@@QEAAPEAXXZ 000000018003c7f0 f i libvcruntimed:std_type_info.obj
 0001:0003b820       ?get@?$__crt_unique_heap_ptr@DU__crt_internal_free_policy@@@@QEBAPEADXZ 000000018003c820 f i libvcruntimed:std_type_info.obj
 0001:0003b830       ?get@?$__crt_unique_heap_ptr@XU__crt_internal_free_policy@@@@QEBAPEAXXZ 000000018003c830 f i libvcruntimed:std_type_info.obj
 0001:0003b840       ?is_valid@?$__crt_unique_heap_ptr@DU__crt_internal_free_policy@@@@QEBA_NXZ 000000018003c840 f i libvcruntimed:std_type_info.obj
 0001:0003b870       ?is_valid@?$__crt_unique_heap_ptr@XU__crt_internal_free_policy@@@@QEBA_NXZ 000000018003c870 f i libvcruntimed:std_type_info.obj
 0001:0003b8a0       ?release@?$__crt_unique_heap_ptr@DU__crt_internal_free_policy@@@@QEAAXXZ 000000018003c8a0 f i libvcruntimed:std_type_info.obj
 0001:0003b8d0       ?release@?$__crt_unique_heap_ptr@XU__crt_internal_free_policy@@@@QEAAXXZ 000000018003c8d0 f i libvcruntimed:std_type_info.obj
 0001:0003b900       __std_type_info_compare    000000018003c900 f   libvcruntimed:std_type_info.obj
 0001:0003b940       __std_type_info_destroy_list 000000018003c940 f   libvcruntimed:std_type_info.obj
 0001:0003b9a0       __std_type_info_hash       000000018003c9a0 f   libvcruntimed:std_type_info.obj
 0001:0003ba50       __std_type_info_name       000000018003ca50 f   libvcruntimed:std_type_info.obj
 0001:0003bd00       __vcrt_GetModuleFileNameW  000000018003cd00 f   libvcruntimed:winapi_thunks.obj
 0001:0003bd30       __vcrt_GetModuleHandleW    000000018003cd30 f   libvcruntimed:winapi_thunks.obj
 0001:0003bd50       __vcrt_LoadLibraryExW      000000018003cd50 f   libvcruntimed:winapi_thunks.obj
 0001:0003bd80       ??$?RD@__crt_public_free_policy@@QEBAXQEBD@Z 000000018003cd80 f i libvcruntimed:std_exception.obj
 0001:0003bda0       ??0?$__crt_unique_heap_ptr@DU__crt_public_free_policy@@@@QEAA@QEAD@Z 000000018003cda0 f i libvcruntimed:std_exception.obj
 0001:0003bdc0       ??1?$__crt_unique_heap_ptr@DU__crt_public_free_policy@@@@QEAA@XZ 000000018003cdc0 f i libvcruntimed:std_exception.obj
 0001:0003bde0       ??B?$__crt_unique_heap_ptr@DU__crt_public_free_policy@@@@QEBA_NXZ 000000018003cde0 f i libvcruntimed:std_exception.obj
 0001:0003be00       ?detach@?$__crt_unique_heap_ptr@DU__crt_public_free_policy@@@@QEAAPEADXZ 000000018003ce00 f i libvcruntimed:std_exception.obj
 0001:0003be30       ?get@?$__crt_unique_heap_ptr@DU__crt_public_free_policy@@@@QEBAPEADXZ 000000018003ce30 f i libvcruntimed:std_exception.obj
 0001:0003be40       ?is_valid@?$__crt_unique_heap_ptr@DU__crt_public_free_policy@@@@QEBA_NXZ 000000018003ce40 f i libvcruntimed:std_exception.obj
 0001:0003be70       ?release@?$__crt_unique_heap_ptr@DU__crt_public_free_policy@@@@QEAAXXZ 000000018003ce70 f i libvcruntimed:std_exception.obj
 0001:0003bea0       __std_exception_copy       000000018003cea0 f   libvcruntimed:std_exception.obj
 0001:0003bfe0       __std_exception_destroy    000000018003cfe0 f   libvcruntimed:std_exception.obj
 0001:0003c020       _CxxThrowException         000000018003d020 f   libvcruntimed:throw.obj
 0001:0003c150       ??$?RU__vcrt_ptd@@@__crt_internal_free_policy@@QEBAXQEBU__vcrt_ptd@@@Z 000000018003d150 f i libvcruntimed:per_thread_data.obj
 0001:0003c180       ??0?$__crt_unique_heap_ptr@U__vcrt_ptd@@U__crt_internal_free_policy@@@@QEAA@QEAU__vcrt_ptd@@@Z 000000018003d180 f i libvcruntimed:per_thread_data.obj
 0001:0003c1c0       ??1?$__crt_unique_heap_ptr@U__vcrt_ptd@@U__crt_internal_free_policy@@@@QEAA@XZ 000000018003d1c0 f i libvcruntimed:per_thread_data.obj
 0001:0003c200       ??B?$__crt_unique_heap_ptr@U__vcrt_ptd@@U__crt_internal_free_policy@@@@QEBA_NXZ 000000018003d200 f i libvcruntimed:per_thread_data.obj
 0001:0003c220       ?detach@?$__crt_unique_heap_ptr@U__vcrt_ptd@@U__crt_internal_free_policy@@@@QEAAPEAU__vcrt_ptd@@XZ 000000018003d220 f i libvcruntimed:per_thread_data.obj
 0001:0003c250       ?get@?$__crt_unique_heap_ptr@U__vcrt_ptd@@U__crt_internal_free_policy@@@@QEBAPEAU__vcrt_ptd@@XZ 000000018003d250 f i libvcruntimed:per_thread_data.obj
 0001:0003c260       ?is_valid@?$__crt_unique_heap_ptr@U__vcrt_ptd@@U__crt_internal_free_policy@@@@QEBA_NXZ 000000018003d260 f i libvcruntimed:per_thread_data.obj
 0001:0003c290       ?release@?$__crt_unique_heap_ptr@U__vcrt_ptd@@U__crt_internal_free_policy@@@@QEAAXXZ 000000018003d290 f i libvcruntimed:per_thread_data.obj
 0001:0003c300       __vcrt_freefls             000000018003d300 f   libvcruntimed:per_thread_data.obj
 0001:0003c340       __vcrt_freeptd             000000018003d340 f   libvcruntimed:per_thread_data.obj
 0001:0003c3a0       __vcrt_getptd              000000018003d3a0 f   libvcruntimed:per_thread_data.obj
 0001:0003c3d0       __vcrt_getptd_noexit       000000018003d3d0 f   libvcruntimed:per_thread_data.obj
 0001:0003c570       __vcrt_getptd_noinit       000000018003d570 f   libvcruntimed:per_thread_data.obj
 0001:0003c5d0       __vcrt_initialize_ptd      000000018003d5d0 f   libvcruntimed:per_thread_data.obj
 0001:0003c620       __vcrt_uninitialize_ptd    000000018003d620 f   libvcruntimed:per_thread_data.obj
 0001:0003c650       __vcrt_initialize_locks    000000018003d650 f   libvcruntimed:locks.obj
 0001:0003c6c0       __vcrt_lock                000000018003d6c0 f   libvcruntimed:locks.obj
 0001:0003c6f0       __vcrt_uninitialize_locks  000000018003d6f0 f   libvcruntimed:locks.obj
 0001:0003c750       __vcrt_unlock              000000018003d750 f   libvcruntimed:locks.obj
 0001:0003c790       _NLG_Notify                000000018003d790 f   libvcruntimed:notify.obj
 0001:0003c7b0       __NLG_Dispatch2            000000018003d7b0 f   libvcruntimed:notify.obj
 0001:0003c7c0       __NLG_Return2              000000018003d7c0 f   libvcruntimed:notify.obj
 0001:0003c7e0       __except_validate_context_record 000000018003d7e0 f   libvcruntimed:jbcxrval.obj
 0001:0003c840       __except_validate_jump_buffer 000000018003d840 f   libvcruntimed:jbcxrval.obj
 0001:0003c860       __except_validate_jump_buffer_common 000000018003d860 f i libvcruntimed:jbcxrval.obj
 0001:0003c8e0       ?GetCurrentState@__FrameHandler3@@SAHPEA_KPEAU_xDISPATCHER_CONTEXT@@PEBU_s_FuncInfo@@@Z 000000018003d8e0 f   libvcruntimed:ehstate.obj
 0001:0003c940       ?GetUnwindTryBlock@__FrameHandler3@@SAHPEA_KPEAU_xDISPATCHER_CONTEXT@@PEBU_s_FuncInfo@@@Z 000000018003d940 f   libvcruntimed:ehstate.obj
 0001:0003c990       ?SetState@__FrameHandler3@@SAXPEA_KPEBU_s_FuncInfo@@H@Z 000000018003d990 f   libvcruntimed:ehstate.obj
 0001:0003c9c0       ?SetUnwindTryBlock@__FrameHandler3@@SAXPEA_KPEAU_xDISPATCHER_CONTEXT@@PEBU_s_FuncInfo@@H@Z 000000018003d9c0 f   libvcruntimed:ehstate.obj
 0001:0003ca30       ?StateFromControlPc@__FrameHandler3@@SAHPEBU_s_FuncInfo@@PEAU_xDISPATCHER_CONTEXT@@@Z 000000018003da30 f   libvcruntimed:ehstate.obj
 0001:0003ca70       ?StateFromControlPc@__FrameHandler4@@SAHPEAUFuncInfo4@FH4@@PEAU_xDISPATCHER_CONTEXT@@@Z 000000018003da70 f   libvcruntimed:ehstate.obj
 0001:0003cab0       ?StateFromIp@__FrameHandler3@@SAHPEBU_s_FuncInfo@@PEAU_xDISPATCHER_CONTEXT@@_K@Z 000000018003dab0 f   libvcruntimed:ehstate.obj
 0001:0003cba0       ?StateFromIp@__FrameHandler4@@SAHPEAUFuncInfo4@FH4@@PEAU_xDISPATCHER_CONTEXT@@_K@Z 000000018003dba0 f   libvcruntimed:ehstate.obj
 0001:0003cc90       ?__FuncRelToRealOffset@@YA_KPEAU_xDISPATCHER_CONTEXT@@I@Z 000000018003dc90 f i libvcruntimed:ehstate.obj
 0001:0003ccc0       ?__RVAtoRealOffset@@YA_KPEAU_xDISPATCHER_CONTEXT@@H@Z 000000018003dcc0 f i libvcruntimed:ehstate.obj
 0001:0003ef30       ??$TypeMatchHelper@V__FrameHandler3@@@@YAHPEBU_s_HandlerType@@PEBU_s_CatchableType@@PEBU_s_ThrowInfo@@@Z 000000018003ff30 f i libvcruntimed:frame.obj
 0001:0003f130       ??$TypeMatchHelper@V__FrameHandler4@@@@YAHPEAUHandlerType4@FH4@@PEBU_s_CatchableType@@PEBU_s_ThrowInfo@@@Z 0000000180040130 f i libvcruntimed:frame.obj
 0001:0003f340       ??$__InternalCxxFrameHandler@V__FrameHandler3@@@@YA?AW4_EXCEPTION_DISPOSITION@@PEAUEHExceptionRecord@@PEA_KPEAU_CONTEXT@@PEAU_xDISPATCHER_CONTEXT@@PEBU_s_FuncInfo@@H1E@Z 0000000180040340 f i libvcruntimed:frame.obj
 0001:0003f7b0       ??$__InternalCxxFrameHandler@V__FrameHandler4@@@@YA?AW4_EXCEPTION_DISPOSITION@@PEAUEHExceptionRecord@@PEA_KPEAU_CONTEXT@@PEAU_xDISPATCHER_CONTEXT@@PEAUFuncInfo4@FH4@@H1E@Z 00000001800407b0 f i libvcruntimed:frame.obj
 0001:0003fc40       ??0HandlerMap4@FH4@@QEAA@PEBUTryBlockMapEntry4@1@_KH@Z 0000000180040c40 f i libvcruntimed:frame.obj
 0001:0003fd00       ??0HandlerMap@__FrameHandler3@@QEAA@PEBU_s_TryBlockMapEntry@@_KI@Z 0000000180040d00 f i libvcruntimed:frame.obj
 0001:0003fd50       ??0HandlerType4@FH4@@QEAA@XZ 0000000180040d50 f i libvcruntimed:frame.obj
 0001:0003fd70       ??0TryBlockMap4@FH4@@QEAA@PEBUFuncInfo4@1@_K@Z 0000000180040d70 f i libvcruntimed:frame.obj
 0001:0003fe00       ??0TryBlockMap@__FrameHandler3@@QEAA@PEBU_s_FuncInfo@@_K@Z 0000000180040e00 f i libvcruntimed:frame.obj
 0001:0003fe30       ??0UWMap4@FH4@@QEAA@PEBUFuncInfo4@1@_K@Z 0000000180040e30 f i libvcruntimed:frame.obj
 0001:0003fea0       ??0bad_exception@std@@QEAA@AEBV01@@Z 0000000180040ea0 f i libvcruntimed:frame.obj
 0001:0003fee0       ??0bad_exception@std@@QEAA@XZ 0000000180040ee0 f i libvcruntimed:frame.obj
 0001:0003ff20       ??0iterator@HandlerMap4@FH4@@QEAA@AEAV12@I@Z 0000000180040f20 f i libvcruntimed:frame.obj
 0001:0003ff50       ??0iterator@HandlerMap@__FrameHandler3@@QEAA@AEAV12@I@Z 0000000180040f50 f i libvcruntimed:frame.obj
 0001:0003ff80       ??0iterator@UWMap4@FH4@@QEAA@AEAV12@PEAE@Z 0000000180040f80 f i libvcruntimed:frame.obj
 0001:0003ffb0       ??1bad_exception@std@@UEAA@XZ 0000000180040fb0 f i libvcruntimed:frame.obj
 0001:0003ffd0       ??4iterator@UWMap4@FH4@@QEAAAEAV012@AEBV012@@Z 0000000180040fd0 f i libvcruntimed:frame.obj
 0001:00040020       ??8iterator@HandlerMap4@FH4@@QEBA_NAEBV012@@Z 0000000180041020 f i libvcruntimed:frame.obj
 0001:00040060       ??8iterator@HandlerMap@__FrameHandler3@@QEBA_NAEBV012@@Z 0000000180041060 f i libvcruntimed:frame.obj
 0001:000400a0       ??8type_info@@QEBA_NAEBV0@@Z 00000001800410a0 f i libvcruntimed:frame.obj
 0001:000400f0       ??9iterator@HandlerMap4@FH4@@QEBA_NAEBV012@@Z 00000001800410f0 f i libvcruntimed:frame.obj
 0001:00040130       ??9iterator@HandlerMap@__FrameHandler3@@QEBA_NAEBV012@@Z 0000000180041130 f i libvcruntimed:frame.obj
 0001:00040170       ??Diterator@HandlerMap4@FH4@@QEAA?AUHandlerType4@2@XZ 0000000180041170 f i libvcruntimed:frame.obj
 0001:000401a0       ??Diterator@HandlerMap@__FrameHandler3@@QEAA?BU_s_HandlerType@@XZ 00000001800411a0 f i libvcruntimed:frame.obj
 0001:000401e0       ??Diterator@TryBlockMap@__FrameHandler3@@QEAA?BU_s_TryBlockMapEntry@@XZ 00000001800411e0 f i libvcruntimed:frame.obj
 0001:00040230       ??Diterator@UWMap4@FH4@@QEAA?AUUnwindMapEntry4@2@XZ 0000000180041230 f i libvcruntimed:frame.obj
 0001:000402b0       ??Eiterator@HandlerMap4@FH4@@QEAAAEAV012@XZ 00000001800412b0 f i libvcruntimed:frame.obj
 0001:000402f0       ??Eiterator@HandlerMap@__FrameHandler3@@QEAAAEAV012@XZ 00000001800412f0 f i libvcruntimed:frame.obj
 0001:00040310       ??Eiterator@TryBlockMap@__FrameHandler3@@QEAAAEAV012@XZ 0000000180041310 f i libvcruntimed:frame.obj
 0001:00040330       ??Eiterator@UWMap4@FH4@@QEAAAEAV012@XZ 0000000180041330 f i libvcruntimed:frame.obj
 0001:00040370       ??Giterator@UWMap4@FH4@@QEBA_JAEBV012@@Z 0000000180041370 f i libvcruntimed:frame.obj
 0001:00040390       ??Miterator@TryBlockMap4@FH4@@QEBA_NAEBV012@@Z 0000000180041390 f i libvcruntimed:frame.obj
 0001:000403d0       ??Miterator@TryBlockMap@__FrameHandler3@@QEBA_NAEBV012@@Z 00000001800413d0 f i libvcruntimed:frame.obj
 0001:00040410       ??Oiterator@UWMap4@FH4@@QEBA_NAEBV012@@Z 0000000180041410 f i libvcruntimed:frame.obj
 0001:00040450       ??Piterator@UWMap4@FH4@@QEBA_NAEBV012@@Z 0000000180041450 f i libvcruntimed:frame.obj
 0001:00040490       ??_Ebad_exception@std@@UEAAPEAXI@Z 0000000180041490 f i libvcruntimed:frame.obj
 0001:00040490       ??_Gbad_exception@std@@UEAAPEAXI@Z 0000000180041490 f i libvcruntimed:frame.obj
 0001:000404d0       ?BuildCatchObject@__FrameHandler3@@SAXPEAUEHExceptionRecord@@PEAXPEBU_s_HandlerType@@PEBU_s_CatchableType@@@Z 00000001800414d0 f   libvcruntimed:frame.obj
 0001:00040510       ?BuildCatchObject@__FrameHandler4@@SAXPEAUEHExceptionRecord@@PEAXPEAUHandlerType4@FH4@@PEBU_s_CatchableType@@@Z 0000000180041510 f   libvcruntimed:frame.obj
 0001:00040550       ?BuildCatchObjectHelper@__FrameHandler3@@SAHPEAUEHExceptionRecord@@PEAXPEBU_s_HandlerType@@PEBU_s_CatchableType@@@Z 0000000180041550 f   libvcruntimed:frame.obj
 0001:00040590       ?BuildCatchObjectHelper@__FrameHandler4@@SAHPEAUEHExceptionRecord@@PEAXPEAUHandlerType4@FH4@@PEBU_s_CatchableType@@@Z 0000000180041590 f   libvcruntimed:frame.obj
 0001:000405d0       ?CxxCallCatchBlock@__FrameHandler3@@SAPEAXPEAU_EXCEPTION_RECORD@@@Z 00000001800415d0 f   libvcruntimed:frame.obj
 0001:00040830       ?CxxCallCatchBlock@__FrameHandler4@@SAPEAXPEAU_EXCEPTION_RECORD@@@Z 0000000180041830 f   libvcruntimed:frame.obj
 0001:00040b60       ?DecompHandler@HandlerMap4@FH4@@AEAAXXZ 0000000180041b60 f i libvcruntimed:frame.obj
 0001:00040f30       ?FrameUnwindToState@__FrameHandler3@@SAXPEA_KPEAU_xDISPATCHER_CONTEXT@@PEBU_s_FuncInfo@@H@Z 0000000180041f30 f   libvcruntimed:frame.obj
 0001:00041180       ?FrameUnwindToState@__FrameHandler4@@SAXPEA_KPEAU_xDISPATCHER_CONTEXT@@PEAUFuncInfo4@FH4@@H@Z 0000000180042180 f   libvcruntimed:frame.obj
 0001:000414d0       ?GetHandlerSearchState@__FrameHandler3@@SAHPEA_KPEAU_xDISPATCHER_CONTEXT@@PEBU_s_FuncInfo@@@Z 00000001800424d0 f i libvcruntimed:frame.obj
 0001:00041580       ?GetHandlerSearchState@__FrameHandler4@@SAHPEA_KPEAU_xDISPATCHER_CONTEXT@@PEAUFuncInfo4@FH4@@@Z 0000000180042580 f i libvcruntimed:frame.obj
 0001:00041600       ?GetMaxState@__FrameHandler3@@SAHPEAU_xDISPATCHER_CONTEXT@@PEBU_s_FuncInfo@@@Z 0000000180042600 f i libvcruntimed:frame.obj
 0001:00041620       ?GetMaxState@__FrameHandler4@@SAHPEAU_xDISPATCHER_CONTEXT@@PEAUFuncInfo4@FH4@@@Z 0000000180042620 f i libvcruntimed:frame.obj
 0001:00041850       ?ReadEntry@UWMap4@FH4@@AEAAXPEAPEAE@Z 0000000180042850 f i libvcruntimed:frame.obj
 0001:00041900       ?TypeMatch@__FrameHandler3@@SAHPEBU_s_HandlerType@@PEBU_s_CatchableType@@PEBU_s_ThrowInfo@@@Z 0000000180042900 f   libvcruntimed:frame.obj
 0001:00041930       ?TypeMatch@__FrameHandler4@@SAHPEAUHandlerType4@FH4@@PEBU_s_CatchableType@@PEBU_s_ThrowInfo@@@Z 0000000180042930 f   libvcruntimed:frame.obj
 0001:00041960       ?WalkBack@UWMap4@FH4@@AEAAXPEAPEAE@Z 0000000180042960 f i libvcruntimed:frame.obj
 0001:000419b0       ?WalkBack@iterator@UWMap4@FH4@@QEAAXXZ 00000001800429b0 f i libvcruntimed:frame.obj
 0001:000419f0       ?WalkForward@UWMap4@FH4@@AEAAXPEAPEAE@Z 00000001800429f0 f i libvcruntimed:frame.obj
 0001:00041a20       ?_CallMemberFunction1@@YAXQEAX00@Z 0000000180042a20 f i libvcruntimed:frame.obj
 0001:00041a60       ?_CallMemberFunction2@@YAXQEAX00H@Z 0000000180042a60 f i libvcruntimed:frame.obj
 0001:00041af0       ?begin@HandlerMap4@FH4@@QEAA?AViterator@12@XZ 0000000180042af0 f i libvcruntimed:frame.obj
 0001:00041b20       ?begin@HandlerMap@__FrameHandler3@@QEAA?AViterator@12@XZ 0000000180042b20 f i libvcruntimed:frame.obj
 0001:00041b50       ?begin@UWMap4@FH4@@QEAA?AViterator@12@XZ 0000000180042b50 f i libvcruntimed:frame.obj
 0001:00041b80       ?end@HandlerMap4@FH4@@QEAA?AViterator@12@XZ 0000000180042b80 f i libvcruntimed:frame.obj
 0001:00041bb0       ?end@HandlerMap@__FrameHandler3@@QEAA?AViterator@12@XZ 0000000180042bb0 f i libvcruntimed:frame.obj
 0001:00041be0       ?getESTypes@__FrameHandler3@@SAPEBU_s_ESTypeList@@PEBU_s_FuncInfo@@@Z 0000000180042be0 f i libvcruntimed:frame.obj
 0001:00041c20       ?getESTypes@__FrameHandler4@@SAPEBU_s_ESTypeList@@PEAUFuncInfo4@FH4@@@Z 0000000180042c20 f i libvcruntimed:frame.obj
 0001:00041c30       ?getLastEntry@HandlerMap4@FH4@@QEAAPEAUHandlerType4@2@XZ 0000000180042c30 f i libvcruntimed:frame.obj
 0001:00041c70       ?getLastEntry@HandlerMap@__FrameHandler3@@QEAAPEBU_s_HandlerType@@XZ 0000000180042c70 f i libvcruntimed:frame.obj
 0001:00041c90       ?getMagicNum@__FrameHandler3@@SAIPEBU_s_FuncInfo@@@Z 0000000180042c90 f i libvcruntimed:frame.obj
 0001:00041cb0       ?getMagicNum@__FrameHandler4@@SAIPEAUFuncInfo4@FH4@@@Z 0000000180042cb0 f i libvcruntimed:frame.obj
 0001:00041cc0       ?getNumTryBlocks@TryBlockMap4@FH4@@QEAAIXZ 0000000180042cc0 f i libvcruntimed:frame.obj
 0001:00041cd0       ?getNumTryBlocks@TryBlockMap@__FrameHandler3@@QEAAIXZ 0000000180042cd0 f i libvcruntimed:frame.obj
 0001:00041cf0       ?getStartStop@UWMap4@FH4@@QEAAXHHAEAViterator@12@0@Z 0000000180042cf0 f i libvcruntimed:frame.obj
 0001:00041e10       ?getStateFromIterators@UWMap4@FH4@@SAHAEBViterator@12@H0H0@Z 0000000180042e10 f i libvcruntimed:frame.obj
 0001:00041f50       ?isEHs@__FrameHandler3@@SA_NPEBU_s_FuncInfo@@@Z 0000000180042f50 f i libvcruntimed:frame.obj
 0001:00041f90       ?isEHs@__FrameHandler4@@SA_NPEAUFuncInfo4@FH4@@@Z 0000000180042f90 f i libvcruntimed:frame.obj
 0001:00041fb0       ?isNoExcept@__FrameHandler3@@SA_NPEBU_s_FuncInfo@@@Z 0000000180042fb0 f i libvcruntimed:frame.obj
 0001:00041ff0       ?isNoExcept@__FrameHandler4@@SA_NPEAUFuncInfo4@FH4@@@Z 0000000180042ff0 f i libvcruntimed:frame.obj
 0001:00042010       ?reset@HandlerType4@FH4@@QEAAXXZ 0000000180043010 f i libvcruntimed:frame.obj
 0001:00042070       ?resetBuffer@HandlerMap4@FH4@@QEAAXXZ 0000000180043070 f i libvcruntimed:frame.obj
 0001:00042090       ?setBuffer@HandlerMap4@FH4@@QEAAXI@Z 0000000180043090 f i libvcruntimed:frame.obj
 0001:000420f0       __BuildCatchObject         00000001800430f0 f   libvcruntimed:frame.obj
 0001:00042130       __BuildCatchObjectHelper   0000000180043130 f   libvcruntimed:frame.obj
 0001:00042170       __TypeMatch                0000000180043170 f   libvcruntimed:frame.obj
 0001:000421a0       __vcrt_EncodePointer       00000001800431a0 f i libvcruntimed:frame.obj
 0001:000421c0       ??$?0$00@DName@@QEAA@PEBDU?$StringLifeSelector@$00@@@Z 00000001800431c0 f i libvcruntimed:undname.obj
 0001:00042230       ??$?0$00@pcharNode@@QEAA@PEBDHU?$StringLifeSelector@$00@@@Z 0000000180043230 f i libvcruntimed:undname.obj
 0001:00042290       ??$?0$01@DName@@QEAA@PEBDU?$StringLifeSelector@$01@@@Z 0000000180043290 f i libvcruntimed:undname.obj
 0001:00042300       ??$?0$01@pcharNode@@QEAA@PEBDHU?$StringLifeSelector@$01@@@Z 0000000180043300 f i libvcruntimed:undname.obj
 0001:000423b0       ??$?0$0A@@DName@@QEAA@PEBDU?$StringLifeSelector@$0A@@@@Z 00000001800433b0 f i libvcruntimed:undname.obj
 0001:00042420       ??$?0$0A@@pcharNode@@QEAA@PEBDHU?$StringLifeSelector@$0A@@@@Z 0000000180043420 f i libvcruntimed:undname.obj
 0001:000424d0       ??$append@VDNameNode@@@DName@@AEAAXPEBVDNameNode@@@Z 00000001800434d0 f i libvcruntimed:undname.obj
 0001:00042580       ??$append@VDNameStatusNode@@@DName@@AEAAXPEBVDNameStatusNode@@@Z 0000000180043580 f i libvcruntimed:undname.obj
 0001:00042630       ??$append@VcharNode@@@DName@@AEAAXPEBVcharNode@@@Z 0000000180043630 f i libvcruntimed:undname.obj
 0001:000426e0       ??$append@VpDNameNode@@@DName@@AEAAXPEBVpDNameNode@@@Z 00000001800436e0 f i libvcruntimed:undname.obj
 0001:00042790       ??$append@VpcharNode@@@DName@@AEAAXPEBVpcharNode@@@Z 0000000180043790 f i libvcruntimed:undname.obj
 0001:00042840       ??$doPchar@$00@DName@@AEAAXPEBDH@Z 0000000180043840 f i libvcruntimed:undname.obj
 0001:000429a0       ??$doPchar@$01@DName@@AEAAXPEBDH@Z 00000001800439a0 f i libvcruntimed:undname.obj
 0001:00042b00       ??$doPchar@$0A@@DName@@AEAAXPEBDH@Z 0000000180043b00 f i libvcruntimed:undname.obj
 0001:00042c60       ??0Block@_HeapManager@@QEAA@XZ 0000000180043c60 f i libvcruntimed:undname.obj
 0001:00042c80       ??0DName@@QEAA@AEAPEBDD@Z  0000000180043c80 f   libvcruntimed:undname.obj
 0001:00042e50       ??0DName@@QEAA@AEBUStringLiteral@@@Z 0000000180043e50 f   libvcruntimed:undname.obj
 0001:00042eb0       ??0DName@@QEAA@AEBV0@@Z    0000000180043eb0 f i libvcruntimed:undname.obj
 0001:00042ee0       ??0DName@@QEAA@D@Z         0000000180043ee0 f   libvcruntimed:undname.obj
 0001:00042f20       ??0DName@@QEAA@PEAV0@@Z    0000000180043f20 f   libvcruntimed:undname.obj
 0001:00043000       ??0DName@@QEAA@W4DNameStatus@@@Z 0000000180044000 f   libvcruntimed:undname.obj
 0001:000430b0       ??0DName@@QEAA@XZ          00000001800440b0 f i libvcruntimed:undname.obj
 0001:000430e0       ??0DName@@QEAA@_J@Z        00000001800440e0 f   libvcruntimed:undname.obj
 0001:000431f0       ??0DName@@QEAA@_K@Z        00000001800441f0 f   libvcruntimed:undname.obj
 0001:000432c0       ??0DNameNode@@IEAA@XZ      00000001800442c0 f i libvcruntimed:undname.obj
 0001:000432e0       ??0Replicator@@QEAA@XZ     00000001800442e0 f i libvcruntimed:undname.obj
 0001:00043320       ??0UnDecorator@@QEAA@PEBDP6APEADJ@ZK@Z 0000000180044320 f i libvcruntimed:undname.obj
 0001:000433d0       ??0charNode@@QEAA@D@Z      00000001800443d0 f i libvcruntimed:undname.obj
 0001:00043410       ??0pDNameNode@@QEAA@PEAVDName@@@Z 0000000180044410 f   libvcruntimed:undname.obj
 0001:00043490       ??0pairNode@@QEAA@PEBVDNameNode@@0@Z 0000000180044490 f i libvcruntimed:undname.obj
 0001:00043510       ??2@YAPEAX_KAEAV_HeapManager@@H@Z 0000000180044510 f   libvcruntimed:undname.obj
 0001:00043570       ??4DName@@QEAAAEAV0@AEBUStringLiteral@@@Z 0000000180044570 f   libvcruntimed:undname.obj
 0001:000435c0       ??4DName@@QEAAAEAV0@AEBV0@@Z 00000001800445c0 f   libvcruntimed:undname.obj
 0001:000435f0       ??4DName@@QEAAAEAV0@D@Z    00000001800445f0 f i libvcruntimed:undname.obj
 0001:00043630       ??4DName@@QEAAAEAV0@PEAV0@@Z 0000000180044630 f   libvcruntimed:undname.obj
 0001:00043700       ??4DName@@QEAAAEAV0@W4DNameStatus@@@Z 0000000180044700 f   libvcruntimed:undname.obj
 0001:00043790       ??AReplicator@@QEBA?AVDName@@H@Z 0000000180044790 f   libvcruntimed:undname.obj
 0001:00043820       ??H@YA?AVDName@@AEBUStringLiteral@@AEBV0@@Z 0000000180044820 f i libvcruntimed:undname.obj
 0001:00043870       ??H@YA?AVDName@@DAEBV0@@Z  0000000180044870 f i libvcruntimed:undname.obj
 0001:000438c0       ??H@YA?AVDName@@W4DNameStatus@@AEBV0@@Z 00000001800448c0 f i libvcruntimed:undname.obj
 0001:00043910       ??HDName@@QEBA?AV0@AEBUStringLiteral@@@Z 0000000180044910 f   libvcruntimed:undname.obj
 0001:00043960       ??HDName@@QEBA?AV0@AEBV0@@Z 0000000180044960 f   libvcruntimed:undname.obj
 0001:000439b0       ??HDName@@QEBA?AV0@D@Z     00000001800449b0 f   libvcruntimed:undname.obj
 0001:00043a00       ??HDName@@QEBA?AV0@PEAV0@@Z 0000000180044a00 f   libvcruntimed:undname.obj
 0001:00043a50       ??HDName@@QEBA?AV0@W4DNameStatus@@@Z 0000000180044a50 f   libvcruntimed:undname.obj
 0001:00043aa0       ??HStringLiteral@@QEBA?AU0@H@Z 0000000180044aa0 f i libvcruntimed:undname.obj
 0001:00043ae0       ??YDName@@QEAAAEAV0@AEBUStringLiteral@@@Z 0000000180044ae0 f   libvcruntimed:undname.obj
 0001:00043bb0       ??YDName@@QEAAAEAV0@AEBV0@@Z 0000000180044bb0 f   libvcruntimed:undname.obj
 0001:00043c70       ??YDName@@QEAAAEAV0@D@Z    0000000180044c70 f   libvcruntimed:undname.obj
 0001:00043d10       ??YDName@@QEAAAEAV0@PEAV0@@Z 0000000180044d10 f   libvcruntimed:undname.obj
 0001:00043df0       ??YDName@@QEAAAEAV0@W4DNameStatus@@@Z 0000000180044df0 f   libvcruntimed:undname.obj
 0001:00043e60       ??YReplicator@@QEAAAEAV0@AEBVDName@@@Z 0000000180044e60 f   libvcruntimed:undname.obj
 0001:00043f20       ??_5DName@@QEAAAEAV0@AEBV0@@Z 0000000180044f20 f   libvcruntimed:undname.obj
 0001:00043f90       ??__K_l@@YA?AUStringLiteral@@PEBD_K@Z 0000000180044f90 f i libvcruntimed:undname.obj
 0001:00043fe0       ?Constructor@_HeapManager@@QEAAXP6APEAX_K@ZP6AXPEAX@Z@Z 0000000180044fe0 f i libvcruntimed:undname.obj
 0001:00044040       ?Destructor@_HeapManager@@QEAAXXZ 0000000180045040 f i libvcruntimed:undname.obj
 0001:000440e0       ?UScore@UnDecorator@@SA?AUStringLiteral@@W4Tokens@@@Z 00000001800450e0 f   libvcruntimed:undname.obj
 0001:00044170       ?composeDeclaration@UnDecorator@@CA?AVDName@@AEBV2@@Z 0000000180045170 f i libvcruntimed:undname.obj
 0001:00046670       ?dbGetString@DName@@QEBAPEADXZ 0000000180047670 f   libvcruntimed:undname.obj
 0001:000466a0       ?doAccessSpecifiers@UnDecorator@@SAHXZ 00000001800476a0 f i libvcruntimed:undname.obj
 0001:000466d0       ?doAllocationLanguage@UnDecorator@@SAHXZ 00000001800476d0 f i libvcruntimed:undname.obj
 0001:00046700       ?doAllocationModel@UnDecorator@@SAHXZ 0000000180047700 f i libvcruntimed:undname.obj
 0001:00046730       ?doEcsu@UnDecorator@@SAHXZ 0000000180047730 f i libvcruntimed:undname.obj
 0001:00046760       ?doEllipsis@UnDecorator@@SAHXZ 0000000180047760 f i libvcruntimed:undname.obj
 0001:00046790       ?doFunctionReturns@UnDecorator@@SAHXZ 0000000180047790 f i libvcruntimed:undname.obj
 0001:000467c0       ?doMSKeywords@UnDecorator@@SAHXZ 00000001800477c0 f i libvcruntimed:undname.obj
 0001:000467f0       ?doMemberTypes@UnDecorator@@SAHXZ 00000001800477f0 f i libvcruntimed:undname.obj
 0001:00046820       ?doNameOnly@UnDecorator@@SAHXZ 0000000180047820 f i libvcruntimed:undname.obj
 0001:00046830       ?doNoIdentCharCheck@UnDecorator@@SAHXZ 0000000180047830 f i libvcruntimed:undname.obj
 0001:00046840       ?doPchar@DName@@AEAAXD@Z   0000000180047840 f   libvcruntimed:undname.obj
 0001:000468d0       ?doPtr64@UnDecorator@@SAHXZ 00000001800478d0 f i libvcruntimed:undname.obj
 0001:00046900       ?doRestrictionSpec@UnDecorator@@SAHXZ 0000000180047900 f i libvcruntimed:undname.obj
 0001:00046930       ?doThisTypes@UnDecorator@@SAHXZ 0000000180047930 f i libvcruntimed:undname.obj
 0001:00046960       ?doThrowTypes@UnDecorator@@SAHXZ 0000000180047960 f i libvcruntimed:undname.obj
 0001:00046990       ?doTypeOnly@UnDecorator@@SAHXZ 0000000180047990 f i libvcruntimed:undname.obj
 0001:000469a0       ?doUnderScore@UnDecorator@@SAHXZ 00000001800479a0 f i libvcruntimed:undname.obj
 0001:000469d0       ?getArgumentList@UnDecorator@@CA?AVDName@@XZ 00000001800479d0 f   libvcruntimed:undname.obj
 0001:00046b70       ?getArgumentTypes@UnDecorator@@CA?AVDName@@XZ 0000000180047b70 f   libvcruntimed:undname.obj
 0001:00046ed0       ?getArrayType@UnDecorator@@CA?AVDName@@AEBV2@@Z 0000000180047ed0 f i libvcruntimed:undname.obj
 0001:00047290       ?getBasedType@UnDecorator@@CA?AVDName@@XZ 0000000180048290 f   libvcruntimed:undname.obj
 0001:00047400       ?getBasicDataType@UnDecorator@@CA?AVDName@@AEBV2@@Z 0000000180048400 f   libvcruntimed:undname.obj
 0001:000480d0       ?getCHPEName@UnDecorator@@QEAAPEADPEADH@Z 00000001800490d0 f i libvcruntimed:undname.obj
 0001:000482a0       ?getCallIndex@UnDecorator@@CA?AVDName@@XZ 00000001800492a0 f i libvcruntimed:undname.obj
 0001:000482c0       ?getCallingConvention@UnDecorator@@CA?AVDName@@XZ 00000001800492c0 f   libvcruntimed:undname.obj
 0001:00048660       ?getDataIndirectType@UnDecorator@@CA?AVDName@@AEBV2@W4IndirectionKind@@0H@Z 0000000180049660 f   libvcruntimed:undname.obj
 0001:00049300       ?getDataIndirectType@UnDecorator@@CA?AVDName@@XZ 000000018004a300 f i libvcruntimed:undname.obj
 0001:00049350       ?getDataType@UnDecorator@@CA?AVDName@@PEAV2@@Z 000000018004a350 f   libvcruntimed:undname.obj
 0001:00049530       ?getDecoratedName@UnDecorator@@CA?AVDName@@XZ 000000018004a530 f   libvcruntimed:undname.obj
 0001:00049a30       ?getDimension@UnDecorator@@CA?AVDName@@_N@Z 000000018004aa30 f   libvcruntimed:undname.obj
 0001:00049de0       ?getDispatchTarget@UnDecorator@@CA?AVDName@@XZ 000000018004ade0 f   libvcruntimed:undname.obj
 0001:00049eb0       ?getDisplacement@UnDecorator@@CA?AVDName@@XZ 000000018004aeb0 f i libvcruntimed:undname.obj
 0001:00049ed0       ?getECSUDataType@UnDecorator@@CA?AVDName@@XZ 000000018004aed0 f   libvcruntimed:undname.obj
 0001:0004a240       ?getECSUName@UnDecorator@@CA?AVDName@@XZ 000000018004b240 f i libvcruntimed:undname.obj
 0001:0004a260       ?getEnumType@UnDecorator@@CA?AVDName@@XZ 000000018004b260 f i libvcruntimed:undname.obj
 0001:0004a4f0       ?getExtendedDataIndirectType@UnDecorator@@CA?AVDName@@AEAW4IndirectionKind@@AEA_NH@Z 000000018004b4f0 f   libvcruntimed:undname.obj
 0001:0004a810       ?getExternalDataType@UnDecorator@@CA?AVDName@@AEBV2@@Z 000000018004b810 f i libvcruntimed:undname.obj
 0001:0004a8f0       ?getFunctionIndirectType@UnDecorator@@CA?AVDName@@AEBV2@@Z 000000018004b8f0 f   libvcruntimed:undname.obj
 0001:0004af20       ?getGuardNumber@UnDecorator@@CA?AVDName@@XZ 000000018004bf20 f i libvcruntimed:undname.obj
 0001:0004af40       ?getLastChar@DName@@QEBADXZ 000000018004bf40 f i libvcruntimed:undname.obj
 0001:0004af90       ?getLastChar@DNameStatusNode@@UEBADXZ 000000018004bf90 f i libvcruntimed:undname.obj
 0001:0004afd0       ?getLastChar@charNode@@UEBADXZ 000000018004bfd0 f i libvcruntimed:undname.obj
 0001:0004afe0       ?getLastChar@pDNameNode@@UEBADXZ 000000018004bfe0 f i libvcruntimed:undname.obj
 0001:0004b020       ?getLastChar@pairNode@@UEBADXZ 000000018004c020 f i libvcruntimed:undname.obj
 0001:0004b0a0       ?getLastChar@pcharNode@@UEBADXZ 000000018004c0a0 f i libvcruntimed:undname.obj
 0001:0004b0e0       ?getLexicalFrame@UnDecorator@@CA?AVDName@@XZ 000000018004c0e0 f i libvcruntimed:undname.obj
 0001:0004b130       ?getMemoryWithBuffer@_HeapManager@@QEAAPEAX_K@Z 000000018004c130 f   libvcruntimed:undname.obj
 0001:0004b280       ?getMemoryWithoutBuffer@_HeapManager@@QEAAPEAX_K@Z 000000018004c280 f   libvcruntimed:undname.obj
 0001:0004b2d0       ?getNoexcept@UnDecorator@@CA?AVDName@@XZ 000000018004c2d0 f   libvcruntimed:undname.obj
 0001:0004b380       ?getNumberOfDimensions@UnDecorator@@CAHXZ 000000018004c380 f   libvcruntimed:undname.obj
 0001:0004b4a0       ?getOperatorName@UnDecorator@@CA?AVDName@@_NPEA_N@Z 000000018004c4a0 f i libvcruntimed:undname.obj
 0001:0004c350       ?getPointerType@UnDecorator@@CA?AVDName@@AEBV2@0@Z 000000018004d350 f i libvcruntimed:undname.obj
 0001:0004c390       ?getPointerTypeArray@UnDecorator@@CA?AVDName@@AEBV2@0@Z 000000018004d390 f i libvcruntimed:undname.obj
 0001:0004c3d0       ?getPrimaryDataType@UnDecorator@@CA?AVDName@@AEBV2@@Z 000000018004d3d0 f   libvcruntimed:undname.obj
 0001:0004c9c0       ?getPtrRefDataType@UnDecorator@@CA?AVDName@@AEBV2@H@Z 000000018004d9c0 f   libvcruntimed:undname.obj
 0001:0004cdb0       ?getPtrRefType@UnDecorator@@CA?AVDName@@AEBV2@0W4IndirectionKind@@@Z 000000018004ddb0 f   libvcruntimed:undname.obj
 0001:0004cff0       ?getReferenceType@UnDecorator@@CA?AVDName@@AEBV2@0W4IndirectionKind@@@Z 000000018004dff0 f i libvcruntimed:undname.obj
 0001:0004d030       ?getRestrictionSpec@UnDecorator@@CA?AVDName@@XZ 000000018004e030 f   libvcruntimed:undname.obj
 0001:0004d2c0       ?getReturnType@UnDecorator@@CA?AVDName@@PEAV2@@Z 000000018004e2c0 f   libvcruntimed:undname.obj
 0001:0004d320       ?getScope@UnDecorator@@CA?AVDName@@XZ 000000018004e320 f   libvcruntimed:undname.obj
 0001:0004da70       ?getScopedName@UnDecorator@@CA?AVDName@@XZ 000000018004ea70 f   libvcruntimed:undname.obj
 0001:0004dc70       ?getSignedDimension@UnDecorator@@CA?AVDName@@XZ 000000018004ec70 f   libvcruntimed:undname.obj
 0001:0004dd00       ?getStorageConvention@UnDecorator@@CA?AVDName@@XZ 000000018004ed00 f i libvcruntimed:undname.obj
 0001:0004dd20       ?getString@DName@@QEBAPEADPEAD0@Z 000000018004ed20 f i libvcruntimed:undname.obj
 0001:0004dda0       ?getString@DName@@QEBAPEADPEADH@Z 000000018004eda0 f i libvcruntimed:undname.obj
 0001:0004de60       ?getString@DNameStatusNode@@UEBAPEADPEAD0@Z 000000018004ee60 f i libvcruntimed:undname.obj
 0001:0004deb0       ?getString@charNode@@UEBAPEADPEAD0@Z 000000018004eeb0 f i libvcruntimed:undname.obj
 0001:0004def0       ?getString@pDNameNode@@UEBAPEADPEAD0@Z 000000018004eef0 f i libvcruntimed:undname.obj
 0001:0004df50       ?getString@pairNode@@UEBAPEADPEAD0@Z 000000018004ef50 f i libvcruntimed:undname.obj
 0001:0004e020       ?getString@pcharNode@@UEBAPEADPEAD0@Z 000000018004f020 f i libvcruntimed:undname.obj
 0001:0004e060       ?getStringEncoding@UnDecorator@@CA?AVDName@@W4PrefixKind@@H@Z 000000018004f060 f   libvcruntimed:undname.obj
 0001:0004e1c0       ?getStringHelper@@YAPEADPEADPEBD1H@Z 000000018004f1c0 f i libvcruntimed:undname.obj
 0001:0004e230       ?getSymbolName@UnDecorator@@CA?AVDName@@XZ 000000018004f230 f i libvcruntimed:undname.obj
 0001:0004e2d0       ?getTemplateArgumentList@UnDecorator@@CA?AVDName@@XZ 000000018004f2d0 f   libvcruntimed:undname.obj
 0001:0004e5e0       ?getTemplateName@UnDecorator@@CA?AVDName@@_N@Z 000000018004f5e0 f   libvcruntimed:undname.obj
 0001:0004e820       ?getTemplateNonTypeArgument@UnDecorator@@CA?AVDName@@XZ 000000018004f820 f   libvcruntimed:undname.obj
 0001:0004f060       ?getTemplateTypeArgument@UnDecorator@@CA?AVDName@@XZ 0000000180050060 f   libvcruntimed:undname.obj
 0001:0004f2d0       ?getThisType@UnDecorator@@CA?AVDName@@XZ 00000001800502d0 f i libvcruntimed:undname.obj
 0001:0004f320       ?getThrowTypes@UnDecorator@@CA?AVDName@@XZ 0000000180050320 f   libvcruntimed:undname.obj
 0001:0004f370       ?getTypeEncoding@UnDecorator@@CAHXZ 0000000180050370 f i libvcruntimed:undname.obj
 0001:0004ffa0       ?getUndecoratedName@UnDecorator@@QEAAPEADPEADH@Z 0000000180050fa0 f i libvcruntimed:undname.obj
 0001:00050190       ?getVCallThunkType@UnDecorator@@CA?AVDName@@XZ 0000000180051190 f i libvcruntimed:undname.obj
 0001:00050240       ?getVbTableType@UnDecorator@@CA?AVDName@@AEBV2@@Z 0000000180051240 f i libvcruntimed:undname.obj
 0001:00050270       ?getVdispMapType@UnDecorator@@CA?AVDName@@AEBV2@@Z 0000000180051270 f i libvcruntimed:undname.obj
 0001:00050330       ?getVfTableType@UnDecorator@@CA?AVDName@@AEBV2@@Z 0000000180051330 f i libvcruntimed:undname.obj
 0001:000505d0       ?getZName@UnDecorator@@CA?AVDName@@_N0@Z 00000001800515d0 f   libvcruntimed:undname.obj
 0001:00050a60       ?haveTemplateParameters@UnDecorator@@SAHXZ 0000000180051a60 f i libvcruntimed:undname.obj
 0001:00050a70       ?isArray@DName@@QEBAHXZ    0000000180051a70 f i libvcruntimed:undname.obj
 0001:00050a90       ?isComArray@DName@@QEBAHXZ 0000000180051a90 f i libvcruntimed:undname.obj
 0001:00050ab0       ?isEmpty@DName@@QEBAHXZ    0000000180051ab0 f i libvcruntimed:undname.obj
 0001:00050ae0       ?isFull@Replicator@@QEBAHXZ 0000000180051ae0 f i libvcruntimed:undname.obj
 0001:00050b10       ?isNoTE@DName@@QEBAHXZ     0000000180051b10 f i libvcruntimed:undname.obj
 0001:00050b30       ?isPinPtr@DName@@QEBAHXZ   0000000180051b30 f i libvcruntimed:undname.obj
 0001:00050b50       ?isPtrRef@DName@@QEBAHXZ   0000000180051b50 f i libvcruntimed:undname.obj
 0001:00050b70       ?isUDC@DName@@QEBAHXZ      0000000180051b70 f i libvcruntimed:undname.obj
 0001:00050bc0       ?isUDTThunk@DName@@QEBAHXZ 0000000180051bc0 f i libvcruntimed:undname.obj
 0001:00050c10       ?isVCallThunk@DName@@QEBAHXZ 0000000180051c10 f i libvcruntimed:undname.obj
 0001:00050c30       ?isValid@DName@@QEBAHXZ    0000000180051c30 f i libvcruntimed:undname.obj
 0001:00050c70       ?length@DName@@QEBAHXZ     0000000180051c70 f i libvcruntimed:undname.obj
 0001:00050cc0       ?length@DNameStatusNode@@UEBAHXZ 0000000180051cc0 f i libvcruntimed:undname.obj
 0001:00050cd0       ?length@charNode@@UEBAHXZ  0000000180051cd0 f i libvcruntimed:undname.obj
 0001:00050ce0       ?length@pDNameNode@@UEBAHXZ 0000000180051ce0 f i libvcruntimed:undname.obj
 0001:00050d20       ?length@pairNode@@UEBAHXZ  0000000180051d20 f i libvcruntimed:undname.obj
 0001:00050db0       ?length@pcharNode@@UEBAHXZ 0000000180051db0 f i libvcruntimed:undname.obj
 0001:00050dc0       ?make@DNameStatusNode@@SAPEBV1@W4DNameStatus@@@Z 0000000180051dc0 f i libvcruntimed:undname.obj
 0001:00050e10       ?parseDecoratedName@UnDecorator@@CA?AVDName@@XZ 0000000180051e10 f   libvcruntimed:undname.obj
 0001:00051000       ?raw_length@DNameStatusNode@@UEBAHXZ 0000000180052000 f i libvcruntimed:undname.obj
 0001:00051020       ?raw_length@charNode@@UEBAHXZ 0000000180052020 f i libvcruntimed:undname.obj
 0001:00051040       ?raw_length@pDNameNode@@UEBAHXZ 0000000180052040 f i libvcruntimed:undname.obj
 0001:00051050       ?raw_length@pairNode@@UEBAHXZ 0000000180052050 f i libvcruntimed:undname.obj
 0001:00051060       ?raw_length@pcharNode@@UEBAHXZ 0000000180052060 f i libvcruntimed:undname.obj
 0001:00051080       ?setIsArray@DName@@QEAAXXZ 0000000180052080 f i libvcruntimed:undname.obj
 0001:000510a0       ?setIsComArray@DName@@QEAAXXZ 00000001800520a0 f i libvcruntimed:undname.obj
 0001:000510c0       ?setIsNoTE@DName@@QEAAXXZ  00000001800520c0 f i libvcruntimed:undname.obj
 0001:000510e0       ?setIsPinPtr@DName@@QEAAXXZ 00000001800520e0 f i libvcruntimed:undname.obj
 0001:00051100       ?setIsUDC@DName@@QEAAXXZ   0000000180052100 f i libvcruntimed:undname.obj
 0001:00051130       ?setIsVCallThunk@DName@@QEAAXXZ 0000000180052130 f i libvcruntimed:undname.obj
 0001:00051150       ?setPtrRef@DName@@QEAAAEAV1@XZ 0000000180052150 f i libvcruntimed:undname.obj
 0001:00051170       ?status@DName@@QEBA?AW4DNameStatus@@XZ 0000000180052170 f i libvcruntimed:undname.obj
 0001:000512a0       __unDName                  00000001800522a0 f   libvcruntimed:undname.obj
 0001:00051300       __unDNameEx                0000000180052300 f   libvcruntimed:undname.obj
 0001:000513c0       unDNameGenerateCHPE        00000001800523c0 f   libvcruntimed:undname.obj
 0001:00051470       ??$__crt_interlocked_exchange_pointer@UHINSTANCE__@@PEAU1@@@YAPEAUHINSTANCE__@@PEDSEAU0@QEAU0@@Z 0000000180052470 f i libvcruntimed:winapi_downlevel.obj
 0001:00051490       ??$__crt_interlocked_exchange_pointer@UHINSTANCE__@@PEAX@@YAPEAUHINSTANCE__@@PEDSEAU0@QEAX@Z 0000000180052490 f i libvcruntimed:winapi_downlevel.obj
 0001:000514b0       ??$__crt_interlocked_exchange_pointer@XPEAX@@YAPEAXPEDSEAXQEAX@Z 00000001800524b0 f i libvcruntimed:winapi_downlevel.obj
 0001:000514d0       ??$__crt_interlocked_read_pointer@UHINSTANCE__@@@@YAPEAUHINSTANCE__@@PEDSEAU0@@Z 00000001800524d0 f i libvcruntimed:winapi_downlevel.obj
 0001:000514f0       ??$__crt_interlocked_read_pointer@X@@YAPEAXPEDSEAX@Z 00000001800524f0 f i libvcruntimed:winapi_downlevel.obj
 0001:00051a00       __vcrt_FlsAlloc            0000000180052a00 f   libvcruntimed:winapi_downlevel.obj
 0001:00051a50       __vcrt_FlsFree             0000000180052a50 f   libvcruntimed:winapi_downlevel.obj
 0001:00051aa0       __vcrt_FlsGetValue         0000000180052aa0 f   libvcruntimed:winapi_downlevel.obj
 0001:00051af0       __vcrt_FlsSetValue         0000000180052af0 f   libvcruntimed:winapi_downlevel.obj
 0001:00051b50       __vcrt_InitializeCriticalSectionEx 0000000180052b50 f   libvcruntimed:winapi_downlevel.obj
 0001:00051bd0       _CallSettingFrame          0000000180052bd0 f   libvcruntimed:handlers.obj
 0001:00051c20       _CallSettingFrame_LookupContinuationIndex 0000000180052c20 f   libvcruntimed:handlers.obj
 0001:00051c50       _CallSettingFrame_NotifyContinuationAddr 0000000180052c50 f   libvcruntimed:handlers.obj
 0001:00051c80       _CallSettingFrameEncoded   0000000180052c80 f   libvcruntimed:handlers.obj
 0001:00051cd0       ??$?0AEBV?$stream_output_adapter@D@__crt_stdio_output@@AEB_KAEBQEBDAEBQEAU__crt_locale_pointers@@AEBQEAD@?$format_validation_base@DV?$stream_output_adapter@D@__crt_stdio_output@@@__crt_stdio_output@@IEAA@AEBV?$stream_output_adapter@D@1@AEB_KAEBQEBDAEBQEAU__crt_locale_pointers@@AEBQEAD@Z 0000000180052cd0 f i libucrtd:output.obj
 0001:00051d20       ??$?0AEBV?$stream_output_adapter@D@__crt_stdio_output@@AEB_KAEBQEBDAEBQEAU__crt_locale_pointers@@AEBQEAD@?$positional_parameter_base@DV?$stream_output_adapter@D@__crt_stdio_output@@@__crt_stdio_output@@IEAA@AEBV?$stream_output_adapter@D@1@AEB_KAEBQEBDAEBQEAU__crt_locale_pointers@@AEBQEAD@Z 0000000180052d20 f i libucrtd:output.obj
 0001:00051dc0       ??$?0AEBV?$stream_output_adapter@D@__crt_stdio_output@@AEB_KAEBQEBDAEBQEAU__crt_locale_pointers@@AEBQEAD@?$standard_base@DV?$stream_output_adapter@D@__crt_stdio_output@@@__crt_stdio_output@@IEAA@AEBV?$stream_output_adapter@D@1@AEB_KAEBQEBDAEBQEAU__crt_locale_pointers@@AEBQEAD@Z 0000000180052dc0 f i libucrtd:output.obj
 0001:00051e30       ??$?0AEBV?$stream_output_adapter@_W@__crt_stdio_output@@AEB_KAEBQEB_WAEBQEAU__crt_locale_pointers@@AEBQEAD@?$format_validation_base@_WV?$stream_output_adapter@_W@__crt_stdio_output@@@__crt_stdio_output@@IEAA@AEBV?$stream_output_adapter@_W@1@AEB_KAEBQEB_WAEBQEAU__crt_locale_pointers@@AEBQEAD@Z 0000000180052e30 f i libucrtd:output.obj
 0001:00051e80       ??$?0AEBV?$stream_output_adapter@_W@__crt_stdio_output@@AEB_KAEBQEB_WAEBQEAU__crt_locale_pointers@@AEBQEAD@?$positional_parameter_base@_WV?$stream_output_adapter@_W@__crt_stdio_output@@@__crt_stdio_output@@IEAA@AEBV?$stream_output_adapter@_W@1@AEB_KAEBQEB_WAEBQEAU__crt_locale_pointers@@AEBQEAD@Z 0000000180052e80 f i libucrtd:output.obj
 0001:00051f20       ??$?0AEBV?$stream_output_adapter@_W@__crt_stdio_output@@AEB_KAEBQEB_WAEBQEAU__crt_locale_pointers@@AEBQEAD@?$standard_base@_WV?$stream_output_adapter@_W@__crt_stdio_output@@@__crt_stdio_output@@IEAA@AEBV?$stream_output_adapter@_W@1@AEB_KAEBQEB_WAEBQEAU__crt_locale_pointers@@AEBQEAD@Z 0000000180052f20 f i libucrtd:output.obj
 0001:00051f90       ??$?0AEBV?$string_output_adapter@D@__crt_stdio_output@@AEB_KAEBQEBDAEBQEAU__crt_locale_pointers@@AEBQEAD@?$format_validation_base@DV?$string_output_adapter@D@__crt_stdio_output@@@__crt_stdio_output@@IEAA@AEBV?$string_output_adapter@D@1@AEB_KAEBQEBDAEBQEAU__crt_locale_pointers@@AEBQEAD@Z 0000000180052f90 f i libucrtd:output.obj
 0001:00051fe0       ??$?0AEBV?$string_output_adapter@D@__crt_stdio_output@@AEB_KAEBQEBDAEBQEAU__crt_locale_pointers@@AEBQEAD@?$positional_parameter_base@DV?$string_output_adapter@D@__crt_stdio_output@@@__crt_stdio_output@@IEAA@AEBV?$string_output_adapter@D@1@AEB_KAEBQEBDAEBQEAU__crt_locale_pointers@@AEBQEAD@Z 0000000180052fe0 f i libucrtd:output.obj
 0001:00052080       ??$?0AEBV?$string_output_adapter@D@__crt_stdio_output@@AEB_KAEBQEBDAEBQEAU__crt_locale_pointers@@AEBQEAD@?$standard_base@DV?$string_output_adapter@D@__crt_stdio_output@@@__crt_stdio_output@@IEAA@AEBV?$string_output_adapter@D@1@AEB_KAEBQEBDAEBQEAU__crt_locale_pointers@@AEBQEAD@Z 0000000180053080 f i libucrtd:output.obj
 0001:000520f0       ??$?0AEBV?$string_output_adapter@_W@__crt_stdio_output@@AEB_KAEBQEB_WAEBQEAU__crt_locale_pointers@@AEBQEAD@?$format_validation_base@_WV?$string_output_adapter@_W@__crt_stdio_output@@@__crt_stdio_output@@IEAA@AEBV?$string_output_adapter@_W@1@AEB_KAEBQEB_WAEBQEAU__crt_locale_pointers@@AEBQEAD@Z 00000001800530f0 f i libucrtd:output.obj
 0001:00052140       ??$?0AEBV?$string_output_adapter@_W@__crt_stdio_output@@AEB_KAEBQEB_WAEBQEAU__crt_locale_pointers@@AEBQEAD@?$positional_parameter_base@_WV?$string_output_adapter@_W@__crt_stdio_output@@@__crt_stdio_output@@IEAA@AEBV?$string_output_adapter@_W@1@AEB_KAEBQEB_WAEBQEAU__crt_locale_pointers@@AEBQEAD@Z 0000000180053140 f i libucrtd:output.obj
 0001:000521e0       ??$?0AEBV?$string_output_adapter@_W@__crt_stdio_output@@AEB_KAEBQEB_WAEBQEAU__crt_locale_pointers@@AEBQEAD@?$standard_base@_WV?$string_output_adapter@_W@__crt_stdio_output@@@__crt_stdio_output@@IEAA@AEBV?$string_output_adapter@_W@1@AEB_KAEBQEB_WAEBQEAU__crt_locale_pointers@@AEBQEAD@Z 00000001800531e0 f i libucrtd:output.obj
 0001:00052610       ??$__crt_interlocked_read@J@@YAJPEDJ@Z 0000000180053610 f i libucrtd:output.obj
 0001:000560f0       ??$count@D@formatting_buffer@__crt_stdio_output@@QEBA_KXZ 00000001800570f0 f i libucrtd:output.obj
 0001:00056140       ??$count@_W@formatting_buffer@__crt_stdio_output@@QEBA_KXZ 0000000180057140 f i libucrtd:output.obj
 0001:00056190       ??$data@D@formatting_buffer@__crt_stdio_output@@QEAAPEADXZ 0000000180057190 f i libucrtd:output.obj
 0001:000561e0       ??$data@_W@formatting_buffer@__crt_stdio_output@@QEAAPEA_WXZ 00000001800571e0 f i libucrtd:output.obj
 0001:00056230       ??$ensure_buffer_is_big_enough@D@formatting_buffer@__crt_stdio_output@@QEAA_N_K@Z 0000000180057230 f i libucrtd:output.obj
 0001:00056360       ??$ensure_buffer_is_big_enough@_W@formatting_buffer@__crt_stdio_output@@QEAA_N_K@Z 0000000180057360 f i libucrtd:output.obj
 0001:00056490       ??$extract_argument_from_va_list@C_J@?$positional_parameter_base@DV?$stream_output_adapter@D@__crt_stdio_output@@@__crt_stdio_output@@IEAA_NAEA_J@Z 0000000180057490 f i libucrtd:output.obj
 0001:00056610       ??$extract_argument_from_va_list@C_J@?$positional_parameter_base@DV?$string_output_adapter@D@__crt_stdio_output@@@__crt_stdio_output@@IEAA_NAEA_J@Z 0000000180057610 f i libucrtd:output.obj
 0001:00056790       ??$extract_argument_from_va_list@C_J@?$positional_parameter_base@_WV?$stream_output_adapter@_W@__crt_stdio_output@@@__crt_stdio_output@@IEAA_NAEA_J@Z 0000000180057790 f i libucrtd:output.obj
 0001:00056910       ??$extract_argument_from_va_list@C_J@?$positional_parameter_base@_WV?$string_output_adapter@_W@__crt_stdio_output@@@__crt_stdio_output@@IEAA_NAEA_J@Z 0000000180057910 f i libucrtd:output.obj
 0001:00056a90       ??$extract_argument_from_va_list@C_J@?$standard_base@DV?$stream_output_adapter@D@__crt_stdio_output@@@__crt_stdio_output@@IEAA_NAEA_J@Z 0000000180057a90 f i libucrtd:output.obj
 0001:00056ad0       ??$extract_argument_from_va_list@C_J@?$standard_base@DV?$string_output_adapter@D@__crt_stdio_output@@@__crt_stdio_output@@IEAA_NAEA_J@Z 0000000180057ad0 f i libucrtd:output.obj
 0001:00056b10       ??$extract_argument_from_va_list@C_J@?$standard_base@_WV?$stream_output_adapter@_W@__crt_stdio_output@@@__crt_stdio_output@@IEAA_NAEA_J@Z 0000000180057b10 f i libucrtd:output.obj
 0001:00056b50       ??$extract_argument_from_va_list@C_J@?$standard_base@_WV?$string_output_adapter@_W@__crt_stdio_output@@@__crt_stdio_output@@IEAA_NAEA_J@Z 0000000180057b50 f i libucrtd:output.obj
 0001:00056b90       ??$extract_argument_from_va_list@E_J@?$positional_parameter_base@DV?$stream_output_adapter@D@__crt_stdio_output@@@__crt_stdio_output@@IEAA_NAEA_J@Z 0000000180057b90 f i libucrtd:output.obj
 0001:00056d10       ??$extract_argument_from_va_list@E_J@?$positional_parameter_base@DV?$string_output_adapter@D@__crt_stdio_output@@@__crt_stdio_output@@IEAA_NAEA_J@Z 0000000180057d10 f i libucrtd:output.obj
 0001:00056e90       ??$extract_argument_from_va_list@E_J@?$positional_parameter_base@_WV?$stream_output_adapter@_W@__crt_stdio_output@@@__crt_stdio_output@@IEAA_NAEA_J@Z 0000000180057e90 f i libucrtd:output.obj
 0001:00057010       ??$extract_argument_from_va_list@E_J@?$positional_parameter_base@_WV?$string_output_adapter@_W@__crt_stdio_output@@@__crt_stdio_output@@IEAA_NAEA_J@Z 0000000180058010 f i libucrtd:output.obj
 0001:00057190       ??$extract_argument_from_va_list@E_J@?$standard_base@DV?$stream_output_adapter@D@__crt_stdio_output@@@__crt_stdio_output@@IEAA_NAEA_J@Z 0000000180058190 f i libucrtd:output.obj
 0001:000571d0       ??$extract_argument_from_va_list@E_J@?$standard_base@DV?$string_output_adapter@D@__crt_stdio_output@@@__crt_stdio_output@@IEAA_NAEA_J@Z 00000001800581d0 f i libucrtd:output.obj
 0001:00057210       ??$extract_argument_from_va_list@E_J@?$standard_base@_WV?$stream_output_adapter@_W@__crt_stdio_output@@@__crt_stdio_output@@IEAA_NAEA_J@Z 0000000180058210 f i libucrtd:output.obj
 0001:00057250       ??$extract_argument_from_va_list@E_J@?$standard_base@_WV?$string_output_adapter@_W@__crt_stdio_output@@@__crt_stdio_output@@IEAA_NAEA_J@Z 0000000180058250 f i libucrtd:output.obj
 0001:00057290       ??$extract_argument_from_va_list@F_J@?$positional_parameter_base@DV?$stream_output_adapter@D@__crt_stdio_output@@@__crt_stdio_output@@IEAA_NAEA_J@Z 0000000180058290 f i libucrtd:output.obj
 0001:00057410       ??$extract_argument_from_va_list@F_J@?$positional_parameter_base@DV?$string_output_adapter@D@__crt_stdio_output@@@__crt_stdio_output@@IEAA_NAEA_J@Z 0000000180058410 f i libucrtd:output.obj
 0001:00057590       ??$extract_argument_from_va_list@F_J@?$positional_parameter_base@_WV?$stream_output_adapter@_W@__crt_stdio_output@@@__crt_stdio_output@@IEAA_NAEA_J@Z 0000000180058590 f i libucrtd:output.obj
 0001:00057710       ??$extract_argument_from_va_list@F_J@?$positional_parameter_base@_WV?$string_output_adapter@_W@__crt_stdio_output@@@__crt_stdio_output@@IEAA_NAEA_J@Z 0000000180058710 f i libucrtd:output.obj
 0001:00057890       ??$extract_argument_from_va_list@F_J@?$standard_base@DV?$stream_output_adapter@D@__crt_stdio_output@@@__crt_stdio_output@@IEAA_NAEA_J@Z 0000000180058890 f i libucrtd:output.obj
 0001:000578d0       ??$extract_argument_from_va_list@F_J@?$standard_base@DV?$string_output_adapter@D@__crt_stdio_output@@@__crt_stdio_output@@IEAA_NAEA_J@Z 00000001800588d0 f i libucrtd:output.obj
 0001:00057910       ??$extract_argument_from_va_list@F_J@?$standard_base@_WV?$stream_output_adapter@_W@__crt_stdio_output@@@__crt_stdio_output@@IEAA_NAEA_J@Z 0000000180058910 f i libucrtd:output.obj
 0001:00057950       ??$extract_argument_from_va_list@F_J@?$standard_base@_WV?$string_output_adapter@_W@__crt_stdio_output@@@__crt_stdio_output@@IEAA_NAEA_J@Z 0000000180058950 f i libucrtd:output.obj
 0001:00057990       ??$extract_argument_from_va_list@GD@?$positional_parameter_base@DV?$stream_output_adapter@D@__crt_stdio_output@@@__crt_stdio_output@@IEAA_NAEAD@Z 0000000180058990 f i libucrtd:output.obj
 0001:00057b10       ??$extract_argument_from_va_list@GD@?$positional_parameter_base@DV?$string_output_adapter@D@__crt_stdio_output@@@__crt_stdio_output@@IEAA_NAEAD@Z 0000000180058b10 f i libucrtd:output.obj
 0001:00057c90       ??$extract_argument_from_va_list@GD@?$standard_base@DV?$stream_output_adapter@D@__crt_stdio_output@@@__crt_stdio_output@@IEAA_NAEAD@Z 0000000180058c90 f i libucrtd:output.obj
 0001:00057cc0       ??$extract_argument_from_va_list@GD@?$standard_base@DV?$string_output_adapter@D@__crt_stdio_output@@@__crt_stdio_output@@IEAA_NAEAD@Z 0000000180058cc0 f i libucrtd:output.obj
 0001:00057cf0       ??$extract_argument_from_va_list@G_J@?$positional_parameter_base@DV?$stream_output_adapter@D@__crt_stdio_output@@@__crt_stdio_output@@IEAA_NAEA_J@Z 0000000180058cf0 f i libucrtd:output.obj
 0001:00057e70       ??$extract_argument_from_va_list@G_J@?$positional_parameter_base@DV?$string_output_adapter@D@__crt_stdio_output@@@__crt_stdio_output@@IEAA_NAEA_J@Z 0000000180058e70 f i libucrtd:output.obj
 0001:00057ff0       ??$extract_argument_from_va_list@G_J@?$positional_parameter_base@_WV?$stream_output_adapter@_W@__crt_stdio_output@@@__crt_stdio_output@@IEAA_NAEA_J@Z 0000000180058ff0 f i libucrtd:output.obj
 0001:00058170       ??$extract_argument_from_va_list@G_J@?$positional_parameter_base@_WV?$string_output_adapter@_W@__crt_stdio_output@@@__crt_stdio_output@@IEAA_NAEA_J@Z 0000000180059170 f i libucrtd:output.obj
 0001:000582f0       ??$extract_argument_from_va_list@G_J@?$standard_base@DV?$stream_output_adapter@D@__crt_stdio_output@@@__crt_stdio_output@@IEAA_NAEA_J@Z 00000001800592f0 f i libucrtd:output.obj
 0001:00058330       ??$extract_argument_from_va_list@G_J@?$standard_base@DV?$string_output_adapter@D@__crt_stdio_output@@@__crt_stdio_output@@IEAA_NAEA_J@Z 0000000180059330 f i libucrtd:output.obj
 0001:00058370       ??$extract_argument_from_va_list@G_J@?$standard_base@_WV?$stream_output_adapter@_W@__crt_stdio_output@@@__crt_stdio_output@@IEAA_NAEA_J@Z 0000000180059370 f i libucrtd:output.obj
 0001:000583b0       ??$extract_argument_from_va_list@G_J@?$standard_base@_WV?$string_output_adapter@_W@__crt_stdio_output@@@__crt_stdio_output@@IEAA_NAEA_J@Z 00000001800593b0 f i libucrtd:output.obj
 0001:000583f0       ??$extract_argument_from_va_list@H_J@?$positional_parameter_base@DV?$stream_output_adapter@D@__crt_stdio_output@@@__crt_stdio_output@@IEAA_NAEA_J@Z 00000001800593f0 f i libucrtd:output.obj
 0001:00058570       ??$extract_argument_from_va_list@H_J@?$positional_parameter_base@DV?$string_output_adapter@D@__crt_stdio_output@@@__crt_stdio_output@@IEAA_NAEA_J@Z 0000000180059570 f i libucrtd:output.obj
 0001:000586f0       ??$extract_argument_from_va_list@H_J@?$positional_parameter_base@_WV?$stream_output_adapter@_W@__crt_stdio_output@@@__crt_stdio_output@@IEAA_NAEA_J@Z 00000001800596f0 f i libucrtd:output.obj
 0001:00058870       ??$extract_argument_from_va_list@H_J@?$positional_parameter_base@_WV?$string_output_adapter@_W@__crt_stdio_output@@@__crt_stdio_output@@IEAA_NAEA_J@Z 0000000180059870 f i libucrtd:output.obj
 0001:000589f0       ??$extract_argument_from_va_list@H_J@?$standard_base@DV?$stream_output_adapter@D@__crt_stdio_output@@@__crt_stdio_output@@IEAA_NAEA_J@Z 00000001800599f0 f i libucrtd:output.obj
 0001:00058a20       ??$extract_argument_from_va_list@H_J@?$standard_base@DV?$string_output_adapter@D@__crt_stdio_output@@@__crt_stdio_output@@IEAA_NAEA_J@Z 0000000180059a20 f i libucrtd:output.obj
 0001:00058a50       ??$extract_argument_from_va_list@H_J@?$standard_base@_WV?$stream_output_adapter@_W@__crt_stdio_output@@@__crt_stdio_output@@IEAA_NAEA_J@Z 0000000180059a50 f i libucrtd:output.obj
 0001:00058a80       ??$extract_argument_from_va_list@H_J@?$standard_base@_WV?$string_output_adapter@_W@__crt_stdio_output@@@__crt_stdio_output@@IEAA_NAEA_J@Z 0000000180059a80 f i libucrtd:output.obj
 0001:00058ab0       ??$extract_argument_from_va_list@I_J@?$positional_parameter_base@DV?$stream_output_adapter@D@__crt_stdio_output@@@__crt_stdio_output@@IEAA_NAEA_J@Z 0000000180059ab0 f i libucrtd:output.obj
 0001:00058c30       ??$extract_argument_from_va_list@I_J@?$positional_parameter_base@DV?$string_output_adapter@D@__crt_stdio_output@@@__crt_stdio_output@@IEAA_NAEA_J@Z 0000000180059c30 f i libucrtd:output.obj
 0001:00058db0       ??$extract_argument_from_va_list@I_J@?$positional_parameter_base@_WV?$stream_output_adapter@_W@__crt_stdio_output@@@__crt_stdio_output@@IEAA_NAEA_J@Z 0000000180059db0 f i libucrtd:output.obj
 0001:00058f30       ??$extract_argument_from_va_list@I_J@?$positional_parameter_base@_WV?$string_output_adapter@_W@__crt_stdio_output@@@__crt_stdio_output@@IEAA_NAEA_J@Z 0000000180059f30 f i libucrtd:output.obj
 0001:000590b0       ??$extract_argument_from_va_list@I_J@?$standard_base@DV?$stream_output_adapter@D@__crt_stdio_output@@@__crt_stdio_output@@IEAA_NAEA_J@Z 000000018005a0b0 f i libucrtd:output.obj
 0001:000590e0       ??$extract_argument_from_va_list@I_J@?$standard_base@DV?$string_output_adapter@D@__crt_stdio_output@@@__crt_stdio_output@@IEAA_NAEA_J@Z 000000018005a0e0 f i libucrtd:output.obj
 0001:00059110       ??$extract_argument_from_va_list@I_J@?$standard_base@_WV?$stream_output_adapter@_W@__crt_stdio_output@@@__crt_stdio_output@@IEAA_NAEA_J@Z 000000018005a110 f i libucrtd:output.obj
 0001:00059140       ??$extract_argument_from_va_list@I_J@?$standard_base@_WV?$string_output_adapter@_W@__crt_stdio_output@@@__crt_stdio_output@@IEAA_NAEA_J@Z 000000018005a140 f i libucrtd:output.obj
 0001:00059170       ??$extract_argument_from_va_list@PEADPEAD@?$positional_parameter_base@DV?$stream_output_adapter@D@__crt_stdio_output@@@__crt_stdio_output@@IEAA_NAEAPEAD@Z 000000018005a170 f i libucrtd:output.obj
 0001:000592f0       ??$extract_argument_from_va_list@PEADPEAD@?$positional_parameter_base@DV?$string_output_adapter@D@__crt_stdio_output@@@__crt_stdio_output@@IEAA_NAEAPEAD@Z 000000018005a2f0 f i libucrtd:output.obj
 0001:00059470       ??$extract_argument_from_va_list@PEADPEAD@?$positional_parameter_base@_WV?$stream_output_adapter@_W@__crt_stdio_output@@@__crt_stdio_output@@IEAA_NAEAPEAD@Z 000000018005a470 f i libucrtd:output.obj
 0001:000595f0       ??$extract_argument_from_va_list@PEADPEAD@?$positional_parameter_base@_WV?$string_output_adapter@_W@__crt_stdio_output@@@__crt_stdio_output@@IEAA_NAEAPEAD@Z 000000018005a5f0 f i libucrtd:output.obj
 0001:00059770       ??$extract_argument_from_va_list@PEADPEAD@?$standard_base@DV?$stream_output_adapter@D@__crt_stdio_output@@@__crt_stdio_output@@IEAA_NAEAPEAD@Z 000000018005a770 f i libucrtd:output.obj
 0001:000597a0       ??$extract_argument_from_va_list@PEADPEAD@?$standard_base@DV?$string_output_adapter@D@__crt_stdio_output@@@__crt_stdio_output@@IEAA_NAEAPEAD@Z 000000018005a7a0 f i libucrtd:output.obj
 0001:000597d0       ??$extract_argument_from_va_list@PEADPEAD@?$standard_base@_WV?$stream_output_adapter@_W@__crt_stdio_output@@@__crt_stdio_output@@IEAA_NAEAPEAD@Z 000000018005a7d0 f i libucrtd:output.obj
 0001:00059800       ??$extract_argument_from_va_list@PEADPEAD@?$standard_base@_WV?$string_output_adapter@_W@__crt_stdio_output@@@__crt_stdio_output@@IEAA_NAEAPEAD@Z 000000018005a800 f i libucrtd:output.obj
 0001:0005a070       ??$extract_argument_from_va_list@PEAXPEAX@?$positional_parameter_base@DV?$stream_output_adapter@D@__crt_stdio_output@@@__crt_stdio_output@@IEAA_NAEAPEAX@Z 000000018005b070 f i libucrtd:output.obj
 0001:0005a1f0       ??$extract_argument_from_va_list@PEAXPEAX@?$positional_parameter_base@DV?$string_output_adapter@D@__crt_stdio_output@@@__crt_stdio_output@@IEAA_NAEAPEAX@Z 000000018005b1f0 f i libucrtd:output.obj
 0001:0005a370       ??$extract_argument_from_va_list@PEAXPEAX@?$positional_parameter_base@_WV?$stream_output_adapter@_W@__crt_stdio_output@@@__crt_stdio_output@@IEAA_NAEAPEAX@Z 000000018005b370 f i libucrtd:output.obj
 0001:0005a4f0       ??$extract_argument_from_va_list@PEAXPEAX@?$positional_parameter_base@_WV?$string_output_adapter@_W@__crt_stdio_output@@@__crt_stdio_output@@IEAA_NAEAPEAX@Z 000000018005b4f0 f i libucrtd:output.obj
 0001:0005a670       ??$extract_argument_from_va_list@PEAXPEAX@?$standard_base@DV?$stream_output_adapter@D@__crt_stdio_output@@@__crt_stdio_output@@IEAA_NAEAPEAX@Z 000000018005b670 f i libucrtd:output.obj
 0001:0005a6a0       ??$extract_argument_from_va_list@PEAXPEAX@?$standard_base@DV?$string_output_adapter@D@__crt_stdio_output@@@__crt_stdio_output@@IEAA_NAEAPEAX@Z 000000018005b6a0 f i libucrtd:output.obj
 0001:0005a6d0       ??$extract_argument_from_va_list@PEAXPEAX@?$standard_base@_WV?$stream_output_adapter@_W@__crt_stdio_output@@@__crt_stdio_output@@IEAA_NAEAPEAX@Z 000000018005b6d0 f i libucrtd:output.obj
 0001:0005a700       ??$extract_argument_from_va_list@PEAXPEAX@?$standard_base@_WV?$string_output_adapter@_W@__crt_stdio_output@@@__crt_stdio_output@@IEAA_NAEAPEAX@Z 000000018005b700 f i libucrtd:output.obj
 0001:0005a730       ??$extract_argument_from_va_list@U_CRT_DOUBLE@@U1@@?$positional_parameter_base@DV?$stream_output_adapter@D@__crt_stdio_output@@@__crt_stdio_output@@IEAA_NAEAU_CRT_DOUBLE@@@Z 000000018005b730 f i libucrtd:output.obj
 0001:0005a8d0       ??$extract_argument_from_va_list@U_CRT_DOUBLE@@U1@@?$positional_parameter_base@DV?$string_output_adapter@D@__crt_stdio_output@@@__crt_stdio_output@@IEAA_NAEAU_CRT_DOUBLE@@@Z 000000018005b8d0 f i libucrtd:output.obj
 0001:0005aa70       ??$extract_argument_from_va_list@U_CRT_DOUBLE@@U1@@?$positional_parameter_base@_WV?$stream_output_adapter@_W@__crt_stdio_output@@@__crt_stdio_output@@IEAA_NAEAU_CRT_DOUBLE@@@Z 000000018005ba70 f i libucrtd:output.obj
 0001:0005ac10       ??$extract_argument_from_va_list@U_CRT_DOUBLE@@U1@@?$positional_parameter_base@_WV?$string_output_adapter@_W@__crt_stdio_output@@@__crt_stdio_output@@IEAA_NAEAU_CRT_DOUBLE@@@Z 000000018005bc10 f i libucrtd:output.obj
 0001:0005adb0       ??$extract_argument_from_va_list@U_CRT_DOUBLE@@U1@@?$standard_base@DV?$stream_output_adapter@D@__crt_stdio_output@@@__crt_stdio_output@@IEAA_NAEAU_CRT_DOUBLE@@@Z 000000018005bdb0 f i libucrtd:output.obj
 0001:0005ae00       ??$extract_argument_from_va_list@U_CRT_DOUBLE@@U1@@?$standard_base@DV?$string_output_adapter@D@__crt_stdio_output@@@__crt_stdio_output@@IEAA_NAEAU_CRT_DOUBLE@@@Z 000000018005be00 f i libucrtd:output.obj
 0001:0005ae50       ??$extract_argument_from_va_list@U_CRT_DOUBLE@@U1@@?$standard_base@_WV?$stream_output_adapter@_W@__crt_stdio_output@@@__crt_stdio_output@@IEAA_NAEAU_CRT_DOUBLE@@@Z 000000018005be50 f i libucrtd:output.obj
 0001:0005aea0       ??$extract_argument_from_va_list@U_CRT_DOUBLE@@U1@@?$standard_base@_WV?$string_output_adapter@_W@__crt_stdio_output@@@__crt_stdio_output@@IEAA_NAEAU_CRT_DOUBLE@@@Z 000000018005bea0 f i libucrtd:output.obj
 0001:0005aef0       ??$extract_argument_from_va_list@_J_J@?$positional_parameter_base@DV?$stream_output_adapter@D@__crt_stdio_output@@@__crt_stdio_output@@IEAA_NAEA_J@Z 000000018005bef0 f i libucrtd:output.obj
 0001:0005b070       ??$extract_argument_from_va_list@_J_J@?$positional_parameter_base@DV?$string_output_adapter@D@__crt_stdio_output@@@__crt_stdio_output@@IEAA_NAEA_J@Z 000000018005c070 f i libucrtd:output.obj
 0001:0005b1f0       ??$extract_argument_from_va_list@_J_J@?$positional_parameter_base@_WV?$stream_output_adapter@_W@__crt_stdio_output@@@__crt_stdio_output@@IEAA_NAEA_J@Z 000000018005c1f0 f i libucrtd:output.obj
 0001:0005b370       ??$extract_argument_from_va_list@_J_J@?$positional_parameter_base@_WV?$string_output_adapter@_W@__crt_stdio_output@@@__crt_stdio_output@@IEAA_NAEA_J@Z 000000018005c370 f i libucrtd:output.obj
 0001:0005b4f0       ??$extract_argument_from_va_list@_J_J@?$standard_base@DV?$stream_output_adapter@D@__crt_stdio_output@@@__crt_stdio_output@@IEAA_NAEA_J@Z 000000018005c4f0 f i libucrtd:output.obj
 0001:0005b520       ??$extract_argument_from_va_list@_J_J@?$standard_base@DV?$string_output_adapter@D@__crt_stdio_output@@@__crt_stdio_output@@IEAA_NAEA_J@Z 000000018005c520 f i libucrtd:output.obj
 0001:0005b550       ??$extract_argument_from_va_list@_J_J@?$standard_base@_WV?$stream_output_adapter@_W@__crt_stdio_output@@@__crt_stdio_output@@IEAA_NAEA_J@Z 000000018005c550 f i libucrtd:output.obj
 0001:0005b580       ??$extract_argument_from_va_list@_J_J@?$standard_base@_WV?$string_output_adapter@_W@__crt_stdio_output@@@__crt_stdio_output@@IEAA_NAEA_J@Z 000000018005c580 f i libucrtd:output.obj
 0001:0005b5b0       ??$extract_argument_from_va_list@_K_J@?$positional_parameter_base@DV?$stream_output_adapter@D@__crt_stdio_output@@@__crt_stdio_output@@IEAA_NAEA_J@Z 000000018005c5b0 f i libucrtd:output.obj
 0001:0005b730       ??$extract_argument_from_va_list@_K_J@?$positional_parameter_base@DV?$string_output_adapter@D@__crt_stdio_output@@@__crt_stdio_output@@IEAA_NAEA_J@Z 000000018005c730 f i libucrtd:output.obj
 0001:0005b8b0       ??$extract_argument_from_va_list@_K_J@?$positional_parameter_base@_WV?$stream_output_adapter@_W@__crt_stdio_output@@@__crt_stdio_output@@IEAA_NAEA_J@Z 000000018005c8b0 f i libucrtd:output.obj
 0001:0005ba30       ??$extract_argument_from_va_list@_K_J@?$positional_parameter_base@_WV?$string_output_adapter@_W@__crt_stdio_output@@@__crt_stdio_output@@IEAA_NAEA_J@Z 000000018005ca30 f i libucrtd:output.obj
 0001:0005bbb0       ??$extract_argument_from_va_list@_K_J@?$standard_base@DV?$stream_output_adapter@D@__crt_stdio_output@@@__crt_stdio_output@@IEAA_NAEA_J@Z 000000018005cbb0 f i libucrtd:output.obj
 0001:0005bbe0       ??$extract_argument_from_va_list@_K_J@?$standard_base@DV?$string_output_adapter@D@__crt_stdio_output@@@__crt_stdio_output@@IEAA_NAEA_J@Z 000000018005cbe0 f i libucrtd:output.obj
 0001:0005bc10       ??$extract_argument_from_va_list@_K_J@?$standard_base@_WV?$stream_output_adapter@_W@__crt_stdio_output@@@__crt_stdio_output@@IEAA_NAEA_J@Z 000000018005cc10 f i libucrtd:output.obj
 0001:0005bc40       ??$extract_argument_from_va_list@_K_J@?$standard_base@_WV?$string_output_adapter@_W@__crt_stdio_output@@@__crt_stdio_output@@IEAA_NAEA_J@Z 000000018005cc40 f i libucrtd:output.obj
 0001:0005bc70       ??$extract_argument_from_va_list@_W_W@?$positional_parameter_base@DV?$stream_output_adapter@D@__crt_stdio_output@@@__crt_stdio_output@@IEAA_NAEA_W@Z 000000018005cc70 f i libucrtd:output.obj
 0001:0005bdf0       ??$extract_argument_from_va_list@_W_W@?$positional_parameter_base@DV?$string_output_adapter@D@__crt_stdio_output@@@__crt_stdio_output@@IEAA_NAEA_W@Z 000000018005cdf0 f i libucrtd:output.obj
 0001:0005bf70       ??$extract_argument_from_va_list@_W_W@?$positional_parameter_base@_WV?$stream_output_adapter@_W@__crt_stdio_output@@@__crt_stdio_output@@IEAA_NAEA_W@Z 000000018005cf70 f i libucrtd:output.obj
 0001:0005c0f0       ??$extract_argument_from_va_list@_W_W@?$positional_parameter_base@_WV?$string_output_adapter@_W@__crt_stdio_output@@@__crt_stdio_output@@IEAA_NAEA_W@Z 000000018005d0f0 f i libucrtd:output.obj
 0001:0005c270       ??$extract_argument_from_va_list@_W_W@?$standard_base@DV?$stream_output_adapter@D@__crt_stdio_output@@@__crt_stdio_output@@IEAA_NAEA_W@Z 000000018005d270 f i libucrtd:output.obj
 0001:0005c2a0       ??$extract_argument_from_va_list@_W_W@?$standard_base@DV?$string_output_adapter@D@__crt_stdio_output@@@__crt_stdio_output@@IEAA_NAEA_W@Z 000000018005d2a0 f i libucrtd:output.obj
 0001:0005c2d0       ??$extract_argument_from_va_list@_W_W@?$standard_base@_WV?$stream_output_adapter@_W@__crt_stdio_output@@@__crt_stdio_output@@IEAA_NAEA_W@Z 000000018005d2d0 f i libucrtd:output.obj
 0001:0005c300       ??$extract_argument_from_va_list@_W_W@?$standard_base@_WV?$string_output_adapter@_W@__crt_stdio_output@@@__crt_stdio_output@@IEAA_NAEA_W@Z 000000018005d300 f i libucrtd:output.obj
 0001:0005c330       ??$get_parameter_type@D@?$positional_parameter_base@DV?$stream_output_adapter@D@__crt_stdio_output@@@__crt_stdio_output@@CA?AW4parameter_type@01@PEAD@Z 000000018005d330 f i libucrtd:output.obj
 0001:0005c340       ??$get_parameter_type@D@?$positional_parameter_base@DV?$string_output_adapter@D@__crt_stdio_output@@@__crt_stdio_output@@CA?AW4parameter_type@01@PEAD@Z 000000018005d340 f i libucrtd:output.obj
 0001:0005c350       ??$get_parameter_type@D@?$positional_parameter_base@_WV?$stream_output_adapter@_W@__crt_stdio_output@@@__crt_stdio_output@@CA?AW4parameter_type@01@PEAD@Z 000000018005d350 f i libucrtd:output.obj
 0001:0005c360       ??$get_parameter_type@D@?$positional_parameter_base@_WV?$string_output_adapter@_W@__crt_stdio_output@@@__crt_stdio_output@@CA?AW4parameter_type@01@PEAD@Z 000000018005d360 f i libucrtd:output.obj
 0001:0005c3b0       ??$get_parameter_type@X@?$positional_parameter_base@DV?$stream_output_adapter@D@__crt_stdio_output@@@__crt_stdio_output@@CA?AW4parameter_type@01@PEAX@Z 000000018005d3b0 f i libucrtd:output.obj
 0001:0005c3c0       ??$get_parameter_type@X@?$positional_parameter_base@DV?$string_output_adapter@D@__crt_stdio_output@@@__crt_stdio_output@@CA?AW4parameter_type@01@PEAX@Z 000000018005d3c0 f i libucrtd:output.obj
 0001:0005c3d0       ??$get_parameter_type@X@?$positional_parameter_base@_WV?$stream_output_adapter@_W@__crt_stdio_output@@@__crt_stdio_output@@CA?AW4parameter_type@01@PEAX@Z 000000018005d3d0 f i libucrtd:output.obj
 0001:0005c3e0       ??$get_parameter_type@X@?$positional_parameter_base@_WV?$string_output_adapter@_W@__crt_stdio_output@@@__crt_stdio_output@@CA?AW4parameter_type@01@PEAX@Z 000000018005d3e0 f i libucrtd:output.obj
 0001:0005c3f0       ??$is_character_specifier@D@?$positional_parameter_base@DV?$stream_output_adapter@D@__crt_stdio_output@@@__crt_stdio_output@@CA_ND@Z 000000018005d3f0 f i libucrtd:output.obj
 0001:0005c430       ??$is_character_specifier@D@?$positional_parameter_base@DV?$string_output_adapter@D@__crt_stdio_output@@@__crt_stdio_output@@CA_ND@Z 000000018005d430 f i libucrtd:output.obj
 0001:0005c470       ??$is_character_specifier@_W@?$positional_parameter_base@_WV?$stream_output_adapter@_W@__crt_stdio_output@@@__crt_stdio_output@@CA_N_W@Z 000000018005d470 f i libucrtd:output.obj
 0001:0005c4b0       ??$is_character_specifier@_W@?$positional_parameter_base@_WV?$string_output_adapter@_W@__crt_stdio_output@@@__crt_stdio_output@@CA_N_W@Z 000000018005d4b0 f i libucrtd:output.obj
 0001:0005c4f0       ??$is_integral_specifier@D@?$positional_parameter_base@DV?$stream_output_adapter@D@__crt_stdio_output@@@__crt_stdio_output@@CA_ND@Z 000000018005d4f0 f i libucrtd:output.obj
 0001:0005c560       ??$is_integral_specifier@D@?$positional_parameter_base@DV?$string_output_adapter@D@__crt_stdio_output@@@__crt_stdio_output@@CA_ND@Z 000000018005d560 f i libucrtd:output.obj
 0001:0005c5d0       ??$is_integral_specifier@_W@?$positional_parameter_base@_WV?$stream_output_adapter@_W@__crt_stdio_output@@@__crt_stdio_output@@CA_N_W@Z 000000018005d5d0 f i libucrtd:output.obj
 0001:0005c640       ??$is_integral_specifier@_W@?$positional_parameter_base@_WV?$string_output_adapter@_W@__crt_stdio_output@@@__crt_stdio_output@@CA_N_W@Z 000000018005d640 f i libucrtd:output.obj
 0001:0005c6b0       ??$is_pointer_specifier@D@?$positional_parameter_base@DV?$stream_output_adapter@D@__crt_stdio_output@@@__crt_stdio_output@@CA_ND@Z 000000018005d6b0 f i libucrtd:output.obj
 0001:0005c6e0       ??$is_pointer_specifier@D@?$positional_parameter_base@DV?$string_output_adapter@D@__crt_stdio_output@@@__crt_stdio_output@@CA_ND@Z 000000018005d6e0 f i libucrtd:output.obj
 0001:0005c710       ??$is_pointer_specifier@_W@?$positional_parameter_base@_WV?$stream_output_adapter@_W@__crt_stdio_output@@@__crt_stdio_output@@CA_N_W@Z 000000018005d710 f i libucrtd:output.obj
 0001:0005c740       ??$is_pointer_specifier@_W@?$positional_parameter_base@_WV?$string_output_adapter@_W@__crt_stdio_output@@@__crt_stdio_output@@CA_N_W@Z 000000018005d740 f i libucrtd:output.obj
 0001:0005c770       ??$is_string_specifier@D@?$positional_parameter_base@DV?$stream_output_adapter@D@__crt_stdio_output@@@__crt_stdio_output@@CA_ND@Z 000000018005d770 f i libucrtd:output.obj
 0001:0005c7b0       ??$is_string_specifier@D@?$positional_parameter_base@DV?$string_output_adapter@D@__crt_stdio_output@@@__crt_stdio_output@@CA_ND@Z 000000018005d7b0 f i libucrtd:output.obj
 0001:0005c7f0       ??$is_string_specifier@_W@?$positional_parameter_base@_WV?$stream_output_adapter@_W@__crt_stdio_output@@@__crt_stdio_output@@CA_N_W@Z 000000018005d7f0 f i libucrtd:output.obj
 0001:0005c830       ??$is_string_specifier@_W@?$positional_parameter_base@_WV?$string_output_adapter@_W@__crt_stdio_output@@@__crt_stdio_output@@CA_N_W@Z 000000018005d830 f i libucrtd:output.obj
 0001:0005c870       ??$is_wide_character_specifier@D@__crt_stdio_output@@YA_N_KDW4length_modifier@0@@Z 000000018005d870 f i libucrtd:output.obj
 0001:0005c910       ??$is_wide_character_specifier@_W@__crt_stdio_output@@YA_N_K_WW4length_modifier@0@@Z 000000018005d910 f i libucrtd:output.obj
 0001:0005c9e0       ??$peek_va_arg@C@__crt_stdio_output@@YACPEAD@Z 000000018005d9e0 f i libucrtd:output.obj
 0001:0005ca40       ??$peek_va_arg@E@__crt_stdio_output@@YAEPEAD@Z 000000018005da40 f i libucrtd:output.obj
 0001:0005caa0       ??$peek_va_arg@F@__crt_stdio_output@@YAFPEAD@Z 000000018005daa0 f i libucrtd:output.obj
 0001:0005cb00       ??$peek_va_arg@G@__crt_stdio_output@@YAGPEAD@Z 000000018005db00 f i libucrtd:output.obj
 0001:0005cb60       ??$peek_va_arg@H@__crt_stdio_output@@YAHPEAD@Z 000000018005db60 f i libucrtd:output.obj
 0001:0005cbb0       ??$peek_va_arg@I@__crt_stdio_output@@YAIPEAD@Z 000000018005dbb0 f i libucrtd:output.obj
 0001:0005cc00       ??$peek_va_arg@PEAD@__crt_stdio_output@@YAPEADPEAD@Z 000000018005dc00 f i libucrtd:output.obj
 0001:0005cde0       ??$peek_va_arg@PEAX@__crt_stdio_output@@YAPEAXPEAD@Z 000000018005dde0 f i libucrtd:output.obj
 0001:0005ce40       ??$peek_va_arg@U_CRT_DOUBLE@@@__crt_stdio_output@@YA?AU_CRT_DOUBLE@@PEAD@Z 000000018005de40 f i libucrtd:output.obj
 0001:0005cea0       ??$peek_va_arg@_J@__crt_stdio_output@@YA_JPEAD@Z 000000018005dea0 f i libucrtd:output.obj
 0001:0005cf00       ??$peek_va_arg@_K@__crt_stdio_output@@YA_KPEAD@Z 000000018005df00 f i libucrtd:output.obj
 0001:0005cf60       ??$peek_va_arg@_W@__crt_stdio_output@@YA_WPEAD@Z 000000018005df60 f i libucrtd:output.obj
 0001:0005cfc0       ??$puttc_nolock@AEBDPEAU_iobuf@@@?$__crt_char_traits@D@@SAHAEBD$$QEAPEAU_iobuf@@@Z 000000018005dfc0 f i libucrtd:output.obj
 0001:0005cff0       ??$puttc_nolock@AEB_WPEAU_iobuf@@@?$__crt_char_traits@_W@@SAGAEB_W$$QEAPEAU_iobuf@@@Z 000000018005dff0 f i libucrtd:output.obj
 0001:0005d020       ??$read_va_arg@C@__crt_stdio_output@@YACAEAPEAD@Z 000000018005e020 f i libucrtd:output.obj
 0001:0005d090       ??$read_va_arg@E@__crt_stdio_output@@YAEAEAPEAD@Z 000000018005e090 f i libucrtd:output.obj
 0001:0005d100       ??$read_va_arg@F@__crt_stdio_output@@YAFAEAPEAD@Z 000000018005e100 f i libucrtd:output.obj
 0001:0005d170       ??$read_va_arg@G@__crt_stdio_output@@YAGAEAPEAD@Z 000000018005e170 f i libucrtd:output.obj
 0001:0005d1e0       ??$read_va_arg@H@__crt_stdio_output@@YAHAEAPEAD@Z 000000018005e1e0 f i libucrtd:output.obj
 0001:0005d240       ??$read_va_arg@I@__crt_stdio_output@@YAIAEAPEAD@Z 000000018005e240 f i libucrtd:output.obj
 0001:0005d2a0       ??$read_va_arg@PEAD@__crt_stdio_output@@YAPEADAEAPEAD@Z 000000018005e2a0 f i libucrtd:output.obj
 0001:0005d850       ??$read_va_arg@PEAX@__crt_stdio_output@@YAPEAXAEAPEAD@Z 000000018005e850 f i libucrtd:output.obj
 0001:0005d8c0       ??$read_va_arg@U_CRT_DOUBLE@@@__crt_stdio_output@@YA?AU_CRT_DOUBLE@@AEAPEAD@Z 000000018005e8c0 f i libucrtd:output.obj
 0001:0005d930       ??$read_va_arg@_J@__crt_stdio_output@@YA_JAEAPEAD@Z 000000018005e930 f i libucrtd:output.obj
 0001:0005d9a0       ??$read_va_arg@_K@__crt_stdio_output@@YA_KAEAPEAD@Z 000000018005e9a0 f i libucrtd:output.obj
 0001:0005da10       ??$read_va_arg@_W@__crt_stdio_output@@YA_WAEAPEAD@Z 000000018005ea10 f i libucrtd:output.obj
 0001:0005da80       ??$scratch_count@D@formatting_buffer@__crt_stdio_output@@QEBA_KXZ 000000018005ea80 f i libucrtd:output.obj
 0001:0005daa0       ??$scratch_data@D@formatting_buffer@__crt_stdio_output@@QEAAPEADXZ 000000018005eaa0 f i libucrtd:output.obj
 0001:0005db10       ??$tcstol@AEAPEBDPEAPEADH@?$__crt_char_traits@D@@SAJAEAPEBD$$QEAPEAPEAD$$QEAH@Z 000000018005eb10 f i libucrtd:output.obj
 0001:0005db50       ??$tcstol@AEAPEB_WPEAPEA_WH@?$__crt_char_traits@_W@@SAJAEAPEB_W$$QEAPEAPEA_W$$QEAH@Z 000000018005eb50 f i libucrtd:output.obj
 0001:0005db90       ??$tcstol@PEBDPEAPEADH@?$__crt_char_traits@D@@SAJ$$QEAPEBD$$QEAPEAPEAD$$QEAH@Z 000000018005eb90 f i libucrtd:output.obj
 0001:0005dbd0       ??$tcstol@PEB_WPEAPEA_WH@?$__crt_char_traits@_W@@SAJ$$QEAPEB_W$$QEAPEAPEA_W$$QEAH@Z 000000018005ebd0 f i libucrtd:output.obj
 0001:0005dc10       ??$type_case_integer_parse_into_buffer@I@?$output_processor@DV?$stream_output_adapter@D@__crt_stdio_output@@V?$format_validation_base@DV?$stream_output_adapter@D@__crt_stdio_output@@@2@@__crt_stdio_output@@AEAAXII_N@Z 000000018005ec10 f i libucrtd:output.obj
 0001:0005dd40       ??$type_case_integer_parse_into_buffer@I@?$output_processor@DV?$stream_output_adapter@D@__crt_stdio_output@@V?$positional_parameter_base@DV?$stream_output_adapter@D@__crt_stdio_output@@@2@@__crt_stdio_output@@AEAAXII_N@Z 000000018005ed40 f i libucrtd:output.obj
 0001:0005de70       ??$type_case_integer_parse_into_buffer@I@?$output_processor@DV?$stream_output_adapter@D@__crt_stdio_output@@V?$standard_base@DV?$stream_output_adapter@D@__crt_stdio_output@@@2@@__crt_stdio_output@@AEAAXII_N@Z 000000018005ee70 f i libucrtd:output.obj
 0001:0005dfa0       ??$type_case_integer_parse_into_buffer@I@?$output_processor@DV?$string_output_adapter@D@__crt_stdio_output@@V?$format_validation_base@DV?$string_output_adapter@D@__crt_stdio_output@@@2@@__crt_stdio_output@@AEAAXII_N@Z 000000018005efa0 f i libucrtd:output.obj
 0001:0005e0d0       ??$type_case_integer_parse_into_buffer@I@?$output_processor@DV?$string_output_adapter@D@__crt_stdio_output@@V?$positional_parameter_base@DV?$string_output_adapter@D@__crt_stdio_output@@@2@@__crt_stdio_output@@AEAAXII_N@Z 000000018005f0d0 f i libucrtd:output.obj
 0001:0005e200       ??$type_case_integer_parse_into_buffer@I@?$output_processor@DV?$string_output_adapter@D@__crt_stdio_output@@V?$standard_base@DV?$string_output_adapter@D@__crt_stdio_output@@@2@@__crt_stdio_output@@AEAAXII_N@Z 000000018005f200 f i libucrtd:output.obj
 0001:0005e330       ??$type_case_integer_parse_into_buffer@I@?$output_processor@_WV?$stream_output_adapter@_W@__crt_stdio_output@@V?$format_validation_base@_WV?$stream_output_adapter@_W@__crt_stdio_output@@@2@@__crt_stdio_output@@AEAAXII_N@Z 000000018005f330 f i libucrtd:output.obj
 0001:0005e470       ??$type_case_integer_parse_into_buffer@I@?$output_processor@_WV?$stream_output_adapter@_W@__crt_stdio_output@@V?$positional_parameter_base@_WV?$stream_output_adapter@_W@__crt_stdio_output@@@2@@__crt_stdio_output@@AEAAXII_N@Z 000000018005f470 f i libucrtd:output.obj
 0001:0005e5b0       ??$type_case_integer_parse_into_buffer@I@?$output_processor@_WV?$stream_output_adapter@_W@__crt_stdio_output@@V?$standard_base@_WV?$stream_output_adapter@_W@__crt_stdio_output@@@2@@__crt_stdio_output@@AEAAXII_N@Z 000000018005f5b0 f i libucrtd:output.obj
 0001:0005e6f0       ??$type_case_integer_parse_into_buffer@I@?$output_processor@_WV?$string_output_adapter@_W@__crt_stdio_output@@V?$format_validation_base@_WV?$string_output_adapter@_W@__crt_stdio_output@@@2@@__crt_stdio_output@@AEAAXII_N@Z 000000018005f6f0 f i libucrtd:output.obj
 0001:0005e830       ??$type_case_integer_parse_into_buffer@I@?$output_processor@_WV?$string_output_adapter@_W@__crt_stdio_output@@V?$positional_parameter_base@_WV?$string_output_adapter@_W@__crt_stdio_output@@@2@@__crt_stdio_output@@AEAAXII_N@Z 000000018005f830 f i libucrtd:output.obj
 0001:0005e970       ??$type_case_integer_parse_into_buffer@I@?$output_processor@_WV?$string_output_adapter@_W@__crt_stdio_output@@V?$standard_base@_WV?$string_output_adapter@_W@__crt_stdio_output@@@2@@__crt_stdio_output@@AEAAXII_N@Z 000000018005f970 f i libucrtd:output.obj
 0001:0005eab0       ??$type_case_integer_parse_into_buffer@_K@?$output_processor@DV?$stream_output_adapter@D@__crt_stdio_output@@V?$format_validation_base@DV?$stream_output_adapter@D@__crt_stdio_output@@@2@@__crt_stdio_output@@AEAAX_KI_N@Z 000000018005fab0 f i libucrtd:output.obj
 0001:0005ec00       ??$type_case_integer_parse_into_buffer@_K@?$output_processor@DV?$stream_output_adapter@D@__crt_stdio_output@@V?$positional_parameter_base@DV?$stream_output_adapter@D@__crt_stdio_output@@@2@@__crt_stdio_output@@AEAAX_KI_N@Z 000000018005fc00 f i libucrtd:output.obj
 0001:0005ed50       ??$type_case_integer_parse_into_buffer@_K@?$output_processor@DV?$stream_output_adapter@D@__crt_stdio_output@@V?$standard_base@DV?$stream_output_adapter@D@__crt_stdio_output@@@2@@__crt_stdio_output@@AEAAX_KI_N@Z 000000018005fd50 f i libucrtd:output.obj
 0001:0005eea0       ??$type_case_integer_parse_into_buffer@_K@?$output_processor@DV?$string_output_adapter@D@__crt_stdio_output@@V?$format_validation_base@DV?$string_output_adapter@D@__crt_stdio_output@@@2@@__crt_stdio_output@@AEAAX_KI_N@Z 000000018005fea0 f i libucrtd:output.obj
 0001:0005eff0       ??$type_case_integer_parse_into_buffer@_K@?$output_processor@DV?$string_output_adapter@D@__crt_stdio_output@@V?$positional_parameter_base@DV?$string_output_adapter@D@__crt_stdio_output@@@2@@__crt_stdio_output@@AEAAX_KI_N@Z 000000018005fff0 f i libucrtd:output.obj
 0001:0005f140       ??$type_case_integer_parse_into_buffer@_K@?$output_processor@DV?$string_output_adapter@D@__crt_stdio_output@@V?$standard_base@DV?$string_output_adapter@D@__crt_stdio_output@@@2@@__crt_stdio_output@@AEAAX_KI_N@Z 0000000180060140 f i libucrtd:output.obj
 0001:0005f290       ??$type_case_integer_parse_into_buffer@_K@?$output_processor@_WV?$stream_output_adapter@_W@__crt_stdio_output@@V?$format_validation_base@_WV?$stream_output_adapter@_W@__crt_stdio_output@@@2@@__crt_stdio_output@@AEAAX_KI_N@Z 0000000180060290 f i libucrtd:output.obj
 0001:0005f3f0       ??$type_case_integer_parse_into_buffer@_K@?$output_processor@_WV?$stream_output_adapter@_W@__crt_stdio_output@@V?$positional_parameter_base@_WV?$stream_output_adapter@_W@__crt_stdio_output@@@2@@__crt_stdio_output@@AEAAX_KI_N@Z 00000001800603f0 f i libucrtd:output.obj
 0001:0005f550       ??$type_case_integer_parse_into_buffer@_K@?$output_processor@_WV?$stream_output_adapter@_W@__crt_stdio_output@@V?$standard_base@_WV?$stream_output_adapter@_W@__crt_stdio_output@@@2@@__crt_stdio_output@@AEAAX_KI_N@Z 0000000180060550 f i libucrtd:output.obj
 0001:0005f6b0       ??$type_case_integer_parse_into_buffer@_K@?$output_processor@_WV?$string_output_adapter@_W@__crt_stdio_output@@V?$format_validation_base@_WV?$string_output_adapter@_W@__crt_stdio_output@@@2@@__crt_stdio_output@@AEAAX_KI_N@Z 00000001800606b0 f i libucrtd:output.obj
 0001:0005f810       ??$type_case_integer_parse_into_buffer@_K@?$output_processor@_WV?$string_output_adapter@_W@__crt_stdio_output@@V?$positional_parameter_base@_WV?$string_output_adapter@_W@__crt_stdio_output@@@2@@__crt_stdio_output@@AEAAX_KI_N@Z 0000000180060810 f i libucrtd:output.obj
 0001:0005f970       ??$type_case_integer_parse_into_buffer@_K@?$output_processor@_WV?$string_output_adapter@_W@__crt_stdio_output@@V?$standard_base@_WV?$string_output_adapter@_W@__crt_stdio_output@@@2@@__crt_stdio_output@@AEAAX_KI_N@Z 0000000180060970 f i libucrtd:output.obj
 0001:0005fad0       ??$write_multiple_characters@V?$stream_output_adapter@D@__crt_stdio_output@@D@__crt_stdio_output@@YAXAEBV?$stream_output_adapter@D@0@DHQEAH@Z 0000000180060ad0 f i libucrtd:output.obj
 0001:0005fb30       ??$write_multiple_characters@V?$stream_output_adapter@_W@__crt_stdio_output@@D@__crt_stdio_output@@YAXAEBV?$stream_output_adapter@_W@0@DHQEAH@Z 0000000180060b30 f i libucrtd:output.obj
 0001:0005fb90       ??$write_multiple_characters@V?$string_output_adapter@D@__crt_stdio_output@@D@__crt_stdio_output@@YAXAEBV?$string_output_adapter@D@0@DHQEAH@Z 0000000180060b90 f i libucrtd:output.obj
 0001:0005fbf0       ??$write_multiple_characters@V?$string_output_adapter@_W@__crt_stdio_output@@D@__crt_stdio_output@@YAXAEBV?$string_output_adapter@_W@0@DHQEAH@Z 0000000180060bf0 f i libucrtd:output.obj
 0001:00060010       ??0?$common_data@D@__crt_stdio_output@@IEAA@XZ 0000000180061010 f i libucrtd:output.obj
 0001:000600e0       ??0?$common_data@_W@__crt_stdio_output@@IEAA@XZ 00000001800610e0 f i libucrtd:output.obj
 0001:000601b0       ??0?$output_adapter_data@DV?$stream_output_adapter@D@__crt_stdio_output@@@__crt_stdio_output@@IEAA@AEBV?$stream_output_adapter@D@1@_KQEBDQEAU__crt_locale_pointers@@QEAD@Z 00000001800611b0 f i libucrtd:output.obj
 0001:00060230       ??0?$output_adapter_data@DV?$string_output_adapter@D@__crt_stdio_output@@@__crt_stdio_output@@IEAA@AEBV?$string_output_adapter@D@1@_KQEBDQEAU__crt_locale_pointers@@QEAD@Z 0000000180061230 f i libucrtd:output.obj
 0001:000602b0       ??0?$output_adapter_data@_WV?$stream_output_adapter@_W@__crt_stdio_output@@@__crt_stdio_output@@IEAA@AEBV?$stream_output_adapter@_W@1@_KQEB_WQEAU__crt_locale_pointers@@QEAD@Z 00000001800612b0 f i libucrtd:output.obj
 0001:00060330       ??0?$output_adapter_data@_WV?$string_output_adapter@_W@__crt_stdio_output@@@__crt_stdio_output@@IEAA@AEBV?$string_output_adapter@_W@1@_KQEB_WQEAU__crt_locale_pointers@@QEAD@Z 0000000180061330 f i libucrtd:output.obj
 0001:000603b0       ??0?$output_processor@DV?$stream_output_adapter@D@__crt_stdio_output@@V?$format_validation_base@DV?$stream_output_adapter@D@__crt_stdio_output@@@2@@__crt_stdio_output@@QEAA@AEBV?$stream_output_adapter@D@1@_KQEBDQEAU__crt_locale_pointers@@QEAD@Z 00000001800613b0 f i libucrtd:output.obj
 0001:00060400       ??0?$output_processor@DV?$stream_output_adapter@D@__crt_stdio_output@@V?$positional_parameter_base@DV?$stream_output_adapter@D@__crt_stdio_output@@@2@@__crt_stdio_output@@QEAA@AEBV?$stream_output_adapter@D@1@_KQEBDQEAU__crt_locale_pointers@@QEAD@Z 0000000180061400 f i libucrtd:output.obj
 0001:00060450       ??0?$output_processor@DV?$stream_output_adapter@D@__crt_stdio_output@@V?$standard_base@DV?$stream_output_adapter@D@__crt_stdio_output@@@2@@__crt_stdio_output@@QEAA@AEBV?$stream_output_adapter@D@1@_KQEBDQEAU__crt_locale_pointers@@QEAD@Z 0000000180061450 f i libucrtd:output.obj
 0001:000604a0       ??0?$output_processor@DV?$string_output_adapter@D@__crt_stdio_output@@V?$format_validation_base@DV?$string_output_adapter@D@__crt_stdio_output@@@2@@__crt_stdio_output@@QEAA@AEBV?$string_output_adapter@D@1@_KQEBDQEAU__crt_locale_pointers@@QEAD@Z 00000001800614a0 f i libucrtd:output.obj
 0001:000604f0       ??0?$output_processor@DV?$string_output_adapter@D@__crt_stdio_output@@V?$positional_parameter_base@DV?$string_output_adapter@D@__crt_stdio_output@@@2@@__crt_stdio_output@@QEAA@AEBV?$string_output_adapter@D@1@_KQEBDQEAU__crt_locale_pointers@@QEAD@Z 00000001800614f0 f i libucrtd:output.obj
 0001:00060540       ??0?$output_processor@DV?$string_output_adapter@D@__crt_stdio_output@@V?$standard_base@DV?$string_output_adapter@D@__crt_stdio_output@@@2@@__crt_stdio_output@@QEAA@AEBV?$string_output_adapter@D@1@_KQEBDQEAU__crt_locale_pointers@@QEAD@Z 0000000180061540 f i libucrtd:output.obj
 0001:00060590       ??0?$output_processor@_WV?$stream_output_adapter@_W@__crt_stdio_output@@V?$format_validation_base@_WV?$stream_output_adapter@_W@__crt_stdio_output@@@2@@__crt_stdio_output@@QEAA@AEBV?$stream_output_adapter@_W@1@_KQEB_WQEAU__crt_locale_pointers@@QEAD@Z 0000000180061590 f i libucrtd:output.obj
 0001:000605e0       ??0?$output_processor@_WV?$stream_output_adapter@_W@__crt_stdio_output@@V?$positional_parameter_base@_WV?$stream_output_adapter@_W@__crt_stdio_output@@@2@@__crt_stdio_output@@QEAA@AEBV?$stream_output_adapter@_W@1@_KQEB_WQEAU__crt_locale_pointers@@QEAD@Z 00000001800615e0 f i libucrtd:output.obj
 0001:00060630       ??0?$output_processor@_WV?$stream_output_adapter@_W@__crt_stdio_output@@V?$standard_base@_WV?$stream_output_adapter@_W@__crt_stdio_output@@@2@@__crt_stdio_output@@QEAA@AEBV?$stream_output_adapter@_W@1@_KQEB_WQEAU__crt_locale_pointers@@QEAD@Z 0000000180061630 f i libucrtd:output.obj
 0001:00060680       ??0?$output_processor@_WV?$string_output_adapter@_W@__crt_stdio_output@@V?$format_validation_base@_WV?$string_output_adapter@_W@__crt_stdio_output@@@2@@__crt_stdio_output@@QEAA@AEBV?$string_output_adapter@_W@1@_KQEB_WQEAU__crt_locale_pointers@@QEAD@Z 0000000180061680 f i libucrtd:output.obj
 0001:000606d0       ??0?$output_processor@_WV?$string_output_adapter@_W@__crt_stdio_output@@V?$positional_parameter_base@_WV?$string_output_adapter@_W@__crt_stdio_output@@@2@@__crt_stdio_output@@QEAA@AEBV?$string_output_adapter@_W@1@_KQEB_WQEAU__crt_locale_pointers@@QEAD@Z 00000001800616d0 f i libucrtd:output.obj
 0001:00060720       ??0?$output_processor@_WV?$string_output_adapter@_W@__crt_stdio_output@@V?$standard_base@_WV?$string_output_adapter@_W@__crt_stdio_output@@@2@@__crt_stdio_output@@QEAA@AEBV?$string_output_adapter@_W@1@_KQEB_WQEAU__crt_locale_pointers@@QEAD@Z 0000000180061720 f i libucrtd:output.obj
 0001:00060770       ??0?$stream_output_adapter@D@__crt_stdio_output@@QEAA@QEAU_iobuf@@@Z 0000000180061770 f i libucrtd:output.obj
 0001:000607a0       ??0?$stream_output_adapter@_W@__crt_stdio_output@@QEAA@QEAU_iobuf@@@Z 00000001800617a0 f i libucrtd:output.obj
 0001:000607d0       ??0?$string_output_adapter@D@__crt_stdio_output@@QEAA@QEAU?$string_output_adapter_context@D@1@@Z 00000001800617d0 f i libucrtd:output.obj
 0001:000607f0       ??0?$string_output_adapter@_W@__crt_stdio_output@@QEAA@QEAU?$string_output_adapter_context@_W@1@@Z 00000001800617f0 f i libucrtd:output.obj
 0001:00060810       ??0_LocaleUpdate@@QEAA@QEAU__crt_locale_pointers@@@Z 0000000180061810 f i libucrtd:output.obj
 0001:00060930       ??0__acrt_stdio_temporary_buffering_guard@@QEAA@QEAU_iobuf@@@Z 0000000180061930 f i libucrtd:output.obj
 0001:00060970       ??0__crt_deferred_errno_cache@@QEAA@XZ 0000000180061970 f i libucrtd:output.obj
 0001:00060990       ??0__crt_errno_guard@@QEAA@QEAH@Z 0000000180061990 f i libucrtd:output.obj
 0001:000609d0       ??0__crt_stdio_stream@@QEAA@QEAU_iobuf@@@Z 00000001800619d0 f i libucrtd:output.obj
 0001:000609f0       ??0formatting_buffer@__crt_stdio_output@@QEAA@XZ 00000001800619f0 f i libucrtd:output.obj
 0001:00060a30       ??1?$common_data@D@__crt_stdio_output@@QEAA@XZ 0000000180061a30 f i libucrtd:output.obj
 0001:00060a50       ??1?$common_data@_W@__crt_stdio_output@@QEAA@XZ 0000000180061a50 f i libucrtd:output.obj
 0001:00060a70       ??1?$format_validation_base@DV?$stream_output_adapter@D@__crt_stdio_output@@@__crt_stdio_output@@QEAA@XZ 0000000180061a70 f i libucrtd:output.obj
 0001:00060a90       ??1?$format_validation_base@DV?$string_output_adapter@D@__crt_stdio_output@@@__crt_stdio_output@@QEAA@XZ 0000000180061a90 f i libucrtd:output.obj
 0001:00060ab0       ??1?$format_validation_base@_WV?$stream_output_adapter@_W@__crt_stdio_output@@@__crt_stdio_output@@QEAA@XZ 0000000180061ab0 f i libucrtd:output.obj
 0001:00060ad0       ??1?$format_validation_base@_WV?$string_output_adapter@_W@__crt_stdio_output@@@__crt_stdio_output@@QEAA@XZ 0000000180061ad0 f i libucrtd:output.obj
 0001:00060af0       ??1?$output_adapter_data@DV?$stream_output_adapter@D@__crt_stdio_output@@@__crt_stdio_output@@QEAA@XZ 0000000180061af0 f i libucrtd:output.obj
 0001:00060b10       ??1?$output_adapter_data@DV?$string_output_adapter@D@__crt_stdio_output@@@__crt_stdio_output@@QEAA@XZ 0000000180061b10 f i libucrtd:output.obj
 0001:00060b30       ??1?$output_adapter_data@_WV?$stream_output_adapter@_W@__crt_stdio_output@@@__crt_stdio_output@@QEAA@XZ 0000000180061b30 f i libucrtd:output.obj
 0001:00060b50       ??1?$output_adapter_data@_WV?$string_output_adapter@_W@__crt_stdio_output@@@__crt_stdio_output@@QEAA@XZ 0000000180061b50 f i libucrtd:output.obj
 0001:00060b70       ??1?$output_processor@DV?$stream_output_adapter@D@__crt_stdio_output@@V?$format_validation_base@DV?$stream_output_adapter@D@__crt_stdio_output@@@2@@__crt_stdio_output@@QEAA@XZ 0000000180061b70 f i libucrtd:output.obj
 0001:00060b90       ??1?$output_processor@DV?$stream_output_adapter@D@__crt_stdio_output@@V?$positional_parameter_base@DV?$stream_output_adapter@D@__crt_stdio_output@@@2@@__crt_stdio_output@@QEAA@XZ 0000000180061b90 f i libucrtd:output.obj
 0001:00060bb0       ??1?$output_processor@DV?$stream_output_adapter@D@__crt_stdio_output@@V?$standard_base@DV?$stream_output_adapter@D@__crt_stdio_output@@@2@@__crt_stdio_output@@QEAA@XZ 0000000180061bb0 f i libucrtd:output.obj
 0001:00060bd0       ??1?$output_processor@DV?$string_output_adapter@D@__crt_stdio_output@@V?$format_validation_base@DV?$string_output_adapter@D@__crt_stdio_output@@@2@@__crt_stdio_output@@QEAA@XZ 0000000180061bd0 f i libucrtd:output.obj
 0001:00060bf0       ??1?$output_processor@DV?$string_output_adapter@D@__crt_stdio_output@@V?$positional_parameter_base@DV?$string_output_adapter@D@__crt_stdio_output@@@2@@__crt_stdio_output@@QEAA@XZ 0000000180061bf0 f i libucrtd:output.obj
 0001:00060c10       ??1?$output_processor@DV?$string_output_adapter@D@__crt_stdio_output@@V?$standard_base@DV?$string_output_adapter@D@__crt_stdio_output@@@2@@__crt_stdio_output@@QEAA@XZ 0000000180061c10 f i libucrtd:output.obj
 0001:00060c30       ??1?$output_processor@_WV?$stream_output_adapter@_W@__crt_stdio_output@@V?$format_validation_base@_WV?$stream_output_adapter@_W@__crt_stdio_output@@@2@@__crt_stdio_output@@QEAA@XZ 0000000180061c30 f i libucrtd:output.obj
 0001:00060c50       ??1?$output_processor@_WV?$stream_output_adapter@_W@__crt_stdio_output@@V?$positional_parameter_base@_WV?$stream_output_adapter@_W@__crt_stdio_output@@@2@@__crt_stdio_output@@QEAA@XZ 0000000180061c50 f i libucrtd:output.obj
 0001:00060c70       ??1?$output_processor@_WV?$stream_output_adapter@_W@__crt_stdio_output@@V?$standard_base@_WV?$stream_output_adapter@_W@__crt_stdio_output@@@2@@__crt_stdio_output@@QEAA@XZ 0000000180061c70 f i libucrtd:output.obj
 0001:00060c90       ??1?$output_processor@_WV?$string_output_adapter@_W@__crt_stdio_output@@V?$format_validation_base@_WV?$string_output_adapter@_W@__crt_stdio_output@@@2@@__crt_stdio_output@@QEAA@XZ 0000000180061c90 f i libucrtd:output.obj
 0001:00060cb0       ??1?$output_processor@_WV?$string_output_adapter@_W@__crt_stdio_output@@V?$positional_parameter_base@_WV?$string_output_adapter@_W@__crt_stdio_output@@@2@@__crt_stdio_output@@QEAA@XZ 0000000180061cb0 f i libucrtd:output.obj
 0001:00060cd0       ??1?$output_processor@_WV?$string_output_adapter@_W@__crt_stdio_output@@V?$standard_base@_WV?$string_output_adapter@_W@__crt_stdio_output@@@2@@__crt_stdio_output@@QEAA@XZ 0000000180061cd0 f i libucrtd:output.obj
 0001:00060cf0       ??1?$positional_parameter_base@DV?$stream_output_adapter@D@__crt_stdio_output@@@__crt_stdio_output@@QEAA@XZ 0000000180061cf0 f i libucrtd:output.obj
 0001:00060d10       ??1?$positional_parameter_base@DV?$string_output_adapter@D@__crt_stdio_output@@@__crt_stdio_output@@QEAA@XZ 0000000180061d10 f i libucrtd:output.obj
 0001:00060d30       ??1?$positional_parameter_base@_WV?$stream_output_adapter@_W@__crt_stdio_output@@@__crt_stdio_output@@QEAA@XZ 0000000180061d30 f i libucrtd:output.obj
 0001:00060d50       ??1?$positional_parameter_base@_WV?$string_output_adapter@_W@__crt_stdio_output@@@__crt_stdio_output@@QEAA@XZ 0000000180061d50 f i libucrtd:output.obj
 0001:00060d70       ??1?$standard_base@DV?$stream_output_adapter@D@__crt_stdio_output@@@__crt_stdio_output@@QEAA@XZ 0000000180061d70 f i libucrtd:output.obj
 0001:00060d90       ??1?$standard_base@DV?$string_output_adapter@D@__crt_stdio_output@@@__crt_stdio_output@@QEAA@XZ 0000000180061d90 f i libucrtd:output.obj
 0001:00060db0       ??1?$standard_base@_WV?$stream_output_adapter@_W@__crt_stdio_output@@@__crt_stdio_output@@QEAA@XZ 0000000180061db0 f i libucrtd:output.obj
 0001:00060dd0       ??1?$standard_base@_WV?$string_output_adapter@_W@__crt_stdio_output@@@__crt_stdio_output@@QEAA@XZ 0000000180061dd0 f i libucrtd:output.obj
 0001:00060df0       ??1_LocaleUpdate@@QEAA@XZ  0000000180061df0 f i libucrtd:output.obj
 0001:00060e30       ??1__acrt_stdio_temporary_buffering_guard@@QEAA@XZ 0000000180061e30 f i libucrtd:output.obj
 0001:00060e60       ??1__crt_errno_guard@@QEAA@XZ 0000000180061e60 f i libucrtd:output.obj
 0001:00060e90       ??1formatting_buffer@__crt_stdio_output@@QEAA@XZ 0000000180061e90 f i libucrtd:output.obj
 0001:00060ec0       ??4?$__crt_unique_heap_ptr@DU__crt_internal_free_policy@@@@QEAAAEAV0@$$QEAV0@@Z 0000000180061ec0 f i libucrtd:output.obj
 0001:00060f00       ??C__crt_stdio_stream@@QEBAPEAU__crt_stdio_stream_data@@XZ 0000000180061f00 f i libucrtd:output.obj
 0001:000617b0       ?GetLocaleT@_LocaleUpdate@@QEAAPEAU__crt_locale_pointers@@XZ 00000001800627b0 f i libucrtd:output.obj
 0001:000617c0       ?__crt_interlocked_read_32@@YAHPEDH@Z 00000001800627c0 f i libucrtd:output.obj
 0001:000617e0       ?adjust_hexit@?$output_processor@DV?$stream_output_adapter@D@__crt_stdio_output@@V?$format_validation_base@DV?$stream_output_adapter@D@__crt_stdio_output@@@2@@__crt_stdio_output@@CADH_N@Z 00000001800627e0 f i libucrtd:output.obj
 0001:00061830       ?adjust_hexit@?$output_processor@DV?$stream_output_adapter@D@__crt_stdio_output@@V?$positional_parameter_base@DV?$stream_output_adapter@D@__crt_stdio_output@@@2@@__crt_stdio_output@@CADH_N@Z 0000000180062830 f i libucrtd:output.obj
 0001:00061880       ?adjust_hexit@?$output_processor@DV?$stream_output_adapter@D@__crt_stdio_output@@V?$standard_base@DV?$stream_output_adapter@D@__crt_stdio_output@@@2@@__crt_stdio_output@@CADH_N@Z 0000000180062880 f i libucrtd:output.obj
 0001:000618d0       ?adjust_hexit@?$output_processor@DV?$string_output_adapter@D@__crt_stdio_output@@V?$format_validation_base@DV?$string_output_adapter@D@__crt_stdio_output@@@2@@__crt_stdio_output@@CADH_N@Z 00000001800628d0 f i libucrtd:output.obj
 0001:00061920       ?adjust_hexit@?$output_processor@DV?$string_output_adapter@D@__crt_stdio_output@@V?$positional_parameter_base@DV?$string_output_adapter@D@__crt_stdio_output@@@2@@__crt_stdio_output@@CADH_N@Z 0000000180062920 f i libucrtd:output.obj
 0001:00061970       ?adjust_hexit@?$output_processor@DV?$string_output_adapter@D@__crt_stdio_output@@V?$standard_base@DV?$string_output_adapter@D@__crt_stdio_output@@@2@@__crt_stdio_output@@CADH_N@Z 0000000180062970 f i libucrtd:output.obj
 0001:000619c0       ?adjust_hexit@?$output_processor@_WV?$stream_output_adapter@_W@__crt_stdio_output@@V?$format_validation_base@_WV?$stream_output_adapter@_W@__crt_stdio_output@@@2@@__crt_stdio_output@@CADH_N@Z 00000001800629c0 f i libucrtd:output.obj
 0001:00061a10       ?adjust_hexit@?$output_processor@_WV?$stream_output_adapter@_W@__crt_stdio_output@@V?$positional_parameter_base@_WV?$stream_output_adapter@_W@__crt_stdio_output@@@2@@__crt_stdio_output@@CADH_N@Z 0000000180062a10 f i libucrtd:output.obj
 0001:00061a60       ?adjust_hexit@?$output_processor@_WV?$stream_output_adapter@_W@__crt_stdio_output@@V?$standard_base@_WV?$stream_output_adapter@_W@__crt_stdio_output@@@2@@__crt_stdio_output@@CADH_N@Z 0000000180062a60 f i libucrtd:output.obj
 0001:00061ab0       ?adjust_hexit@?$output_processor@_WV?$string_output_adapter@_W@__crt_stdio_output@@V?$format_validation_base@_WV?$string_output_adapter@_W@__crt_stdio_output@@@2@@__crt_stdio_output@@CADH_N@Z 0000000180062ab0 f i libucrtd:output.obj
 0001:00061b00       ?adjust_hexit@?$output_processor@_WV?$string_output_adapter@_W@__crt_stdio_output@@V?$positional_parameter_base@_WV?$string_output_adapter@_W@__crt_stdio_output@@@2@@__crt_stdio_output@@CADH_N@Z 0000000180062b00 f i libucrtd:output.obj
 0001:00061b50       ?adjust_hexit@?$output_processor@_WV?$string_output_adapter@_W@__crt_stdio_output@@V?$standard_base@_WV?$string_output_adapter@_W@__crt_stdio_output@@@2@@__crt_stdio_output@@CADH_N@Z 0000000180062b50 f i libucrtd:output.obj
 0001:00061ba0       ?advance_to_next_pass@?$positional_parameter_base@DV?$stream_output_adapter@D@__crt_stdio_output@@@__crt_stdio_output@@IEAA_NXZ 0000000180062ba0 f i libucrtd:output.obj
 0001:00061c50       ?advance_to_next_pass@?$positional_parameter_base@DV?$string_output_adapter@D@__crt_stdio_output@@@__crt_stdio_output@@IEAA_NXZ 0000000180062c50 f i libucrtd:output.obj
 0001:00061d00       ?advance_to_next_pass@?$positional_parameter_base@_WV?$stream_output_adapter@_W@__crt_stdio_output@@@__crt_stdio_output@@IEAA_NXZ 0000000180062d00 f i libucrtd:output.obj
 0001:00061db0       ?advance_to_next_pass@?$positional_parameter_base@_WV?$string_output_adapter@_W@__crt_stdio_output@@@__crt_stdio_output@@IEAA_NXZ 0000000180062db0 f i libucrtd:output.obj
 0001:00061e60       ?advance_to_next_pass@?$standard_base@DV?$stream_output_adapter@D@__crt_stdio_output@@@__crt_stdio_output@@IEAA_NXZ 0000000180062e60 f i libucrtd:output.obj
 0001:00061eb0       ?advance_to_next_pass@?$standard_base@DV?$string_output_adapter@D@__crt_stdio_output@@@__crt_stdio_output@@IEAA_NXZ 0000000180062eb0 f i libucrtd:output.obj
 0001:00061f00       ?advance_to_next_pass@?$standard_base@_WV?$stream_output_adapter@_W@__crt_stdio_output@@@__crt_stdio_output@@IEAA_NXZ 0000000180062f00 f i libucrtd:output.obj
 0001:00061f50       ?advance_to_next_pass@?$standard_base@_WV?$string_output_adapter@_W@__crt_stdio_output@@@__crt_stdio_output@@IEAA_NXZ 0000000180062f50 f i libucrtd:output.obj
 0001:00061fa0       ?crop_zeroes@__crt_stdio_output@@YAXPEADQEAU__crt_locale_pointers@@@Z 0000000180062fa0 f i libucrtd:output.obj
 0001:000620e0       ?find_next_state@?$output_processor@DV?$stream_output_adapter@D@__crt_stdio_output@@V?$format_validation_base@DV?$stream_output_adapter@D@__crt_stdio_output@@@2@@__crt_stdio_output@@AEBA?AW4state@2@DW432@@Z 00000001800630e0 f i libucrtd:output.obj
 0001:00062180       ?find_next_state@?$output_processor@DV?$stream_output_adapter@D@__crt_stdio_output@@V?$positional_parameter_base@DV?$stream_output_adapter@D@__crt_stdio_output@@@2@@__crt_stdio_output@@AEBA?AW4state@2@DW432@@Z 0000000180063180 f i libucrtd:output.obj
 0001:00062220       ?find_next_state@?$output_processor@DV?$stream_output_adapter@D@__crt_stdio_output@@V?$standard_base@DV?$stream_output_adapter@D@__crt_stdio_output@@@2@@__crt_stdio_output@@AEBA?AW4state@2@DW432@@Z 0000000180063220 f i libucrtd:output.obj
 0001:000622c0       ?find_next_state@?$output_processor@DV?$string_output_adapter@D@__crt_stdio_output@@V?$format_validation_base@DV?$string_output_adapter@D@__crt_stdio_output@@@2@@__crt_stdio_output@@AEBA?AW4state@2@DW432@@Z 00000001800632c0 f i libucrtd:output.obj
 0001:00062360       ?find_next_state@?$output_processor@DV?$string_output_adapter@D@__crt_stdio_output@@V?$positional_parameter_base@DV?$string_output_adapter@D@__crt_stdio_output@@@2@@__crt_stdio_output@@AEBA?AW4state@2@DW432@@Z 0000000180063360 f i libucrtd:output.obj
 0001:00062400       ?find_next_state@?$output_processor@DV?$string_output_adapter@D@__crt_stdio_output@@V?$standard_base@DV?$string_output_adapter@D@__crt_stdio_output@@@2@@__crt_stdio_output@@AEBA?AW4state@2@DW432@@Z 0000000180063400 f i libucrtd:output.obj
 0001:000624a0       ?find_next_state@?$output_processor@_WV?$stream_output_adapter@_W@__crt_stdio_output@@V?$format_validation_base@_WV?$stream_output_adapter@_W@__crt_stdio_output@@@2@@__crt_stdio_output@@AEBA?AW4state@2@_WW432@@Z 00000001800634a0 f i libucrtd:output.obj
 0001:00062540       ?find_next_state@?$output_processor@_WV?$stream_output_adapter@_W@__crt_stdio_output@@V?$positional_parameter_base@_WV?$stream_output_adapter@_W@__crt_stdio_output@@@2@@__crt_stdio_output@@AEBA?AW4state@2@_WW432@@Z 0000000180063540 f i libucrtd:output.obj
 0001:000625e0       ?find_next_state@?$output_processor@_WV?$stream_output_adapter@_W@__crt_stdio_output@@V?$standard_base@_WV?$stream_output_adapter@_W@__crt_stdio_output@@@2@@__crt_stdio_output@@AEBA?AW4state@2@_WW432@@Z 00000001800635e0 f i libucrtd:output.obj
 0001:00062680       ?find_next_state@?$output_processor@_WV?$string_output_adapter@_W@__crt_stdio_output@@V?$format_validation_base@_WV?$string_output_adapter@_W@__crt_stdio_output@@@2@@__crt_stdio_output@@AEBA?AW4state@2@_WW432@@Z 0000000180063680 f i libucrtd:output.obj
 0001:00062720       ?find_next_state@?$output_processor@_WV?$string_output_adapter@_W@__crt_stdio_output@@V?$positional_parameter_base@_WV?$string_output_adapter@_W@__crt_stdio_output@@@2@@__crt_stdio_output@@AEBA?AW4state@2@_WW432@@Z 0000000180063720 f i libucrtd:output.obj
 0001:000627c0       ?find_next_state@?$output_processor@_WV?$string_output_adapter@_W@__crt_stdio_output@@V?$standard_base@_WV?$string_output_adapter@_W@__crt_stdio_output@@@2@@__crt_stdio_output@@AEBA?AW4state@2@_WW432@@Z 00000001800637c0 f i libucrtd:output.obj
 0001:00062860       ?force_decimal_point@__crt_stdio_output@@YAXPEADQEAU__crt_locale_pointers@@@Z 0000000180063860 f i libucrtd:output.obj
 0001:00062960       ?get@__crt_deferred_errno_cache@@QEAAAEAHXZ 0000000180063960 f i libucrtd:output.obj
 0001:00062990       ?get_flags@__crt_stdio_stream@@QEBAJXZ 0000000180063990 f i libucrtd:output.obj
 0001:000629c0       ?get_parameter_type@?$positional_parameter_base@DV?$stream_output_adapter@D@__crt_stdio_output@@@__crt_stdio_output@@CA?AW4parameter_type@12@F@Z 00000001800639c0 f i libucrtd:output.obj
 0001:000629d0       ?get_parameter_type@?$positional_parameter_base@DV?$stream_output_adapter@D@__crt_stdio_output@@@__crt_stdio_output@@CA?AW4parameter_type@12@G@Z 00000001800639d0 f i libucrtd:output.obj
 0001:000629e0       ?get_parameter_type@?$positional_parameter_base@DV?$stream_output_adapter@D@__crt_stdio_output@@@__crt_stdio_output@@CA?AW4parameter_type@12@H@Z 00000001800639e0 f i libucrtd:output.obj
 0001:000629f0       ?get_parameter_type@?$positional_parameter_base@DV?$stream_output_adapter@D@__crt_stdio_output@@@__crt_stdio_output@@CA?AW4parameter_type@12@I@Z 00000001800639f0 f i libucrtd:output.obj
 0001:00062a00       ?get_parameter_type@?$positional_parameter_base@DV?$stream_output_adapter@D@__crt_stdio_output@@@__crt_stdio_output@@CA?AW4parameter_type@12@U_CRT_DOUBLE@@@Z 0000000180063a00 f i libucrtd:output.obj
 0001:00062a10       ?get_parameter_type@?$positional_parameter_base@DV?$stream_output_adapter@D@__crt_stdio_output@@@__crt_stdio_output@@CA?AW4parameter_type@12@_J@Z 0000000180063a10 f i libucrtd:output.obj
 0001:00062a20       ?get_parameter_type@?$positional_parameter_base@DV?$stream_output_adapter@D@__crt_stdio_output@@@__crt_stdio_output@@CA?AW4parameter_type@12@_K@Z 0000000180063a20 f i libucrtd:output.obj
 0001:00062a30       ?get_parameter_type@?$positional_parameter_base@DV?$stream_output_adapter@D@__crt_stdio_output@@@__crt_stdio_output@@CA?AW4parameter_type@12@_W@Z 0000000180063a30 f i libucrtd:output.obj
 0001:00062a40       ?get_parameter_type@?$positional_parameter_base@DV?$string_output_adapter@D@__crt_stdio_output@@@__crt_stdio_output@@CA?AW4parameter_type@12@F@Z 0000000180063a40 f i libucrtd:output.obj
 0001:00062a50       ?get_parameter_type@?$positional_parameter_base@DV?$string_output_adapter@D@__crt_stdio_output@@@__crt_stdio_output@@CA?AW4parameter_type@12@G@Z 0000000180063a50 f i libucrtd:output.obj
 0001:00062a60       ?get_parameter_type@?$positional_parameter_base@DV?$string_output_adapter@D@__crt_stdio_output@@@__crt_stdio_output@@CA?AW4parameter_type@12@H@Z 0000000180063a60 f i libucrtd:output.obj
 0001:00062a70       ?get_parameter_type@?$positional_parameter_base@DV?$string_output_adapter@D@__crt_stdio_output@@@__crt_stdio_output@@CA?AW4parameter_type@12@I@Z 0000000180063a70 f i libucrtd:output.obj
 0001:00062a80       ?get_parameter_type@?$positional_parameter_base@DV?$string_output_adapter@D@__crt_stdio_output@@@__crt_stdio_output@@CA?AW4parameter_type@12@U_CRT_DOUBLE@@@Z 0000000180063a80 f i libucrtd:output.obj
 0001:00062a90       ?get_parameter_type@?$positional_parameter_base@DV?$string_output_adapter@D@__crt_stdio_output@@@__crt_stdio_output@@CA?AW4parameter_type@12@_J@Z 0000000180063a90 f i libucrtd:output.obj
 0001:00062aa0       ?get_parameter_type@?$positional_parameter_base@DV?$string_output_adapter@D@__crt_stdio_output@@@__crt_stdio_output@@CA?AW4parameter_type@12@_K@Z 0000000180063aa0 f i libucrtd:output.obj
 0001:00062ab0       ?get_parameter_type@?$positional_parameter_base@DV?$string_output_adapter@D@__crt_stdio_output@@@__crt_stdio_output@@CA?AW4parameter_type@12@_W@Z 0000000180063ab0 f i libucrtd:output.obj
 0001:00062ac0       ?get_parameter_type@?$positional_parameter_base@_WV?$stream_output_adapter@_W@__crt_stdio_output@@@__crt_stdio_output@@CA?AW4parameter_type@12@F@Z 0000000180063ac0 f i libucrtd:output.obj
 0001:00062ad0       ?get_parameter_type@?$positional_parameter_base@_WV?$stream_output_adapter@_W@__crt_stdio_output@@@__crt_stdio_output@@CA?AW4parameter_type@12@G@Z 0000000180063ad0 f i libucrtd:output.obj
 0001:00062ae0       ?get_parameter_type@?$positional_parameter_base@_WV?$stream_output_adapter@_W@__crt_stdio_output@@@__crt_stdio_output@@CA?AW4parameter_type@12@H@Z 0000000180063ae0 f i libucrtd:output.obj
 0001:00062af0       ?get_parameter_type@?$positional_parameter_base@_WV?$stream_output_adapter@_W@__crt_stdio_output@@@__crt_stdio_output@@CA?AW4parameter_type@12@I@Z 0000000180063af0 f i libucrtd:output.obj
 0001:00062b00       ?get_parameter_type@?$positional_parameter_base@_WV?$stream_output_adapter@_W@__crt_stdio_output@@@__crt_stdio_output@@CA?AW4parameter_type@12@U_CRT_DOUBLE@@@Z 0000000180063b00 f i libucrtd:output.obj
 0001:00062b10       ?get_parameter_type@?$positional_parameter_base@_WV?$stream_output_adapter@_W@__crt_stdio_output@@@__crt_stdio_output@@CA?AW4parameter_type@12@_J@Z 0000000180063b10 f i libucrtd:output.obj
 0001:00062b20       ?get_parameter_type@?$positional_parameter_base@_WV?$stream_output_adapter@_W@__crt_stdio_output@@@__crt_stdio_output@@CA?AW4parameter_type@12@_K@Z 0000000180063b20 f i libucrtd:output.obj
 0001:00062b30       ?get_parameter_type@?$positional_parameter_base@_WV?$stream_output_adapter@_W@__crt_stdio_output@@@__crt_stdio_output@@CA?AW4parameter_type@12@_W@Z 0000000180063b30 f i libucrtd:output.obj
 0001:00062b40       ?get_parameter_type@?$positional_parameter_base@_WV?$string_output_adapter@_W@__crt_stdio_output@@@__crt_stdio_output@@CA?AW4parameter_type@12@F@Z 0000000180063b40 f i libucrtd:output.obj
 0001:00062b50       ?get_parameter_type@?$positional_parameter_base@_WV?$string_output_adapter@_W@__crt_stdio_output@@@__crt_stdio_output@@CA?AW4parameter_type@12@G@Z 0000000180063b50 f i libucrtd:output.obj
 0001:00062b60       ?get_parameter_type@?$positional_parameter_base@_WV?$string_output_adapter@_W@__crt_stdio_output@@@__crt_stdio_output@@CA?AW4parameter_type@12@H@Z 0000000180063b60 f i libucrtd:output.obj
 0001:00062b70       ?get_parameter_type@?$positional_parameter_base@_WV?$string_output_adapter@_W@__crt_stdio_output@@@__crt_stdio_output@@CA?AW4parameter_type@12@I@Z 0000000180063b70 f i libucrtd:output.obj
 0001:00062b80       ?get_parameter_type@?$positional_parameter_base@_WV?$string_output_adapter@_W@__crt_stdio_output@@@__crt_stdio_output@@CA?AW4parameter_type@12@U_CRT_DOUBLE@@@Z 0000000180063b80 f i libucrtd:output.obj
 0001:00062b90       ?get_parameter_type@?$positional_parameter_base@_WV?$string_output_adapter@_W@__crt_stdio_output@@@__crt_stdio_output@@CA?AW4parameter_type@12@_J@Z 0000000180063b90 f i libucrtd:output.obj
 0001:00062ba0       ?get_parameter_type@?$positional_parameter_base@_WV?$string_output_adapter@_W@__crt_stdio_output@@@__crt_stdio_output@@CA?AW4parameter_type@12@_K@Z 0000000180063ba0 f i libucrtd:output.obj
 0001:00062bb0       ?get_parameter_type@?$positional_parameter_base@_WV?$string_output_adapter@_W@__crt_stdio_output@@@__crt_stdio_output@@CA?AW4parameter_type@12@_W@Z 0000000180063bb0 f i libucrtd:output.obj
 0001:00062bc0       ?has_flag@?$output_processor@DV?$stream_output_adapter@D@__crt_stdio_output@@V?$format_validation_base@DV?$stream_output_adapter@D@__crt_stdio_output@@@2@@__crt_stdio_output@@AEBA_NI@Z 0000000180063bc0 f i libucrtd:output.obj
 0001:00062c00       ?has_flag@?$output_processor@DV?$stream_output_adapter@D@__crt_stdio_output@@V?$positional_parameter_base@DV?$stream_output_adapter@D@__crt_stdio_output@@@2@@__crt_stdio_output@@AEBA_NI@Z 0000000180063c00 f i libucrtd:output.obj
 0001:00062c40       ?has_flag@?$output_processor@DV?$stream_output_adapter@D@__crt_stdio_output@@V?$standard_base@DV?$stream_output_adapter@D@__crt_stdio_output@@@2@@__crt_stdio_output@@AEBA_NI@Z 0000000180063c40 f i libucrtd:output.obj
 0001:00062c80       ?has_flag@?$output_processor@DV?$string_output_adapter@D@__crt_stdio_output@@V?$format_validation_base@DV?$string_output_adapter@D@__crt_stdio_output@@@2@@__crt_stdio_output@@AEBA_NI@Z 0000000180063c80 f i libucrtd:output.obj
 0001:00062cc0       ?has_flag@?$output_processor@DV?$string_output_adapter@D@__crt_stdio_output@@V?$positional_parameter_base@DV?$string_output_adapter@D@__crt_stdio_output@@@2@@__crt_stdio_output@@AEBA_NI@Z 0000000180063cc0 f i libucrtd:output.obj
 0001:00062d00       ?has_flag@?$output_processor@DV?$string_output_adapter@D@__crt_stdio_output@@V?$standard_base@DV?$string_output_adapter@D@__crt_stdio_output@@@2@@__crt_stdio_output@@AEBA_NI@Z 0000000180063d00 f i libucrtd:output.obj
 0001:00062d40       ?has_flag@?$output_processor@_WV?$stream_output_adapter@_W@__crt_stdio_output@@V?$format_validation_base@_WV?$stream_output_adapter@_W@__crt_stdio_output@@@2@@__crt_stdio_output@@AEBA_NI@Z 0000000180063d40 f i libucrtd:output.obj
 0001:00062d80       ?has_flag@?$output_processor@_WV?$stream_output_adapter@_W@__crt_stdio_output@@V?$positional_parameter_base@_WV?$stream_output_adapter@_W@__crt_stdio_output@@@2@@__crt_stdio_output@@AEBA_NI@Z 0000000180063d80 f i libucrtd:output.obj
 0001:00062dc0       ?has_flag@?$output_processor@_WV?$stream_output_adapter@_W@__crt_stdio_output@@V?$standard_base@_WV?$stream_output_adapter@_W@__crt_stdio_output@@@2@@__crt_stdio_output@@AEBA_NI@Z 0000000180063dc0 f i libucrtd:output.obj
 0001:00062e00       ?has_flag@?$output_processor@_WV?$string_output_adapter@_W@__crt_stdio_output@@V?$format_validation_base@_WV?$string_output_adapter@_W@__crt_stdio_output@@@2@@__crt_stdio_output@@AEBA_NI@Z 0000000180063e00 f i libucrtd:output.obj
 0001:00062e40       ?has_flag@?$output_processor@_WV?$string_output_adapter@_W@__crt_stdio_output@@V?$positional_parameter_base@_WV?$string_output_adapter@_W@__crt_stdio_output@@@2@@__crt_stdio_output@@AEBA_NI@Z 0000000180063e40 f i libucrtd:output.obj
 0001:00062e80       ?has_flag@?$output_processor@_WV?$string_output_adapter@_W@__crt_stdio_output@@V?$standard_base@_WV?$string_output_adapter@_W@__crt_stdio_output@@@2@@__crt_stdio_output@@AEBA_NI@Z 0000000180063e80 f i libucrtd:output.obj
 0001:00062ec0       ?is_positional_parameter_reappearance_consistent@?$positional_parameter_base@DV?$stream_output_adapter@D@__crt_stdio_output@@@__crt_stdio_output@@AEAA_NAEBUparameter_data@12@W4parameter_type@12@DW4length_modifier@2@@Z 0000000180063ec0 f i libucrtd:output.obj
 0001:00063120       ?is_positional_parameter_reappearance_consistent@?$positional_parameter_base@DV?$string_output_adapter@D@__crt_stdio_output@@@__crt_stdio_output@@AEAA_NAEBUparameter_data@12@W4parameter_type@12@DW4length_modifier@2@@Z 0000000180064120 f i libucrtd:output.obj
 0001:00063380       ?is_positional_parameter_reappearance_consistent@?$positional_parameter_base@_WV?$stream_output_adapter@_W@__crt_stdio_output@@@__crt_stdio_output@@AEAA_NAEBUparameter_data@12@W4parameter_type@12@_WW4length_modifier@2@@Z 0000000180064380 f i libucrtd:output.obj
 0001:000635e0       ?is_positional_parameter_reappearance_consistent@?$positional_parameter_base@_WV?$string_output_adapter@_W@__crt_stdio_output@@@__crt_stdio_output@@AEAA_NAEBUparameter_data@12@W4parameter_type@12@_WW4length_modifier@2@@Z 00000001800645e0 f i libucrtd:output.obj
 0001:00063840       ?is_string_backed@__crt_stdio_stream@@QEBA_NXZ 0000000180064840 f i libucrtd:output.obj
 0001:00063880       ?narrow_null_string@?$output_processor@DV?$stream_output_adapter@D@__crt_stdio_output@@V?$format_validation_base@DV?$stream_output_adapter@D@__crt_stdio_output@@@2@@__crt_stdio_output@@CAPEADXZ 0000000180064880 f i libucrtd:output.obj
 0001:00063890       ?narrow_null_string@?$output_processor@DV?$stream_output_adapter@D@__crt_stdio_output@@V?$positional_parameter_base@DV?$stream_output_adapter@D@__crt_stdio_output@@@2@@__crt_stdio_output@@CAPEADXZ 0000000180064890 f i libucrtd:output.obj
 0001:000638a0       ?narrow_null_string@?$output_processor@DV?$stream_output_adapter@D@__crt_stdio_output@@V?$standard_base@DV?$stream_output_adapter@D@__crt_stdio_output@@@2@@__crt_stdio_output@@CAPEADXZ 00000001800648a0 f i libucrtd:output.obj
 0001:000638b0       ?narrow_null_string@?$output_processor@DV?$string_output_adapter@D@__crt_stdio_output@@V?$format_validation_base@DV?$string_output_adapter@D@__crt_stdio_output@@@2@@__crt_stdio_output@@CAPEADXZ 00000001800648b0 f i libucrtd:output.obj
 0001:000638c0       ?narrow_null_string@?$output_processor@DV?$string_output_adapter@D@__crt_stdio_output@@V?$positional_parameter_base@DV?$string_output_adapter@D@__crt_stdio_output@@@2@@__crt_stdio_output@@CAPEADXZ 00000001800648c0 f i libucrtd:output.obj
 0001:000638d0       ?narrow_null_string@?$output_processor@DV?$string_output_adapter@D@__crt_stdio_output@@V?$standard_base@DV?$string_output_adapter@D@__crt_stdio_output@@@2@@__crt_stdio_output@@CAPEADXZ 00000001800648d0 f i libucrtd:output.obj
 0001:000638e0       ?narrow_null_string@?$output_processor@_WV?$stream_output_adapter@_W@__crt_stdio_output@@V?$format_validation_base@_WV?$stream_output_adapter@_W@__crt_stdio_output@@@2@@__crt_stdio_output@@CAPEADXZ 00000001800648e0 f i libucrtd:output.obj
 0001:000638f0       ?narrow_null_string@?$output_processor@_WV?$stream_output_adapter@_W@__crt_stdio_output@@V?$positional_parameter_base@_WV?$stream_output_adapter@_W@__crt_stdio_output@@@2@@__crt_stdio_output@@CAPEADXZ 00000001800648f0 f i libucrtd:output.obj
 0001:00063900       ?narrow_null_string@?$output_processor@_WV?$stream_output_adapter@_W@__crt_stdio_output@@V?$standard_base@_WV?$stream_output_adapter@_W@__crt_stdio_output@@@2@@__crt_stdio_output@@CAPEADXZ 0000000180064900 f i libucrtd:output.obj
 0001:00063910       ?narrow_null_string@?$output_processor@_WV?$string_output_adapter@_W@__crt_stdio_output@@V?$format_validation_base@_WV?$string_output_adapter@_W@__crt_stdio_output@@@2@@__crt_stdio_output@@CAPEADXZ 0000000180064910 f i libucrtd:output.obj
 0001:00063920       ?narrow_null_string@?$output_processor@_WV?$string_output_adapter@_W@__crt_stdio_output@@V?$positional_parameter_base@_WV?$string_output_adapter@_W@__crt_stdio_output@@@2@@__crt_stdio_output@@CAPEADXZ 0000000180064920 f i libucrtd:output.obj
 0001:00063930       ?narrow_null_string@?$output_processor@_WV?$string_output_adapter@_W@__crt_stdio_output@@V?$standard_base@_WV?$string_output_adapter@_W@__crt_stdio_output@@@2@@__crt_stdio_output@@CAPEADXZ 0000000180064930 f i libucrtd:output.obj
 0001:00063940       ?parse_int_from_format_string@?$output_processor@DV?$stream_output_adapter@D@__crt_stdio_output@@V?$format_validation_base@DV?$stream_output_adapter@D@__crt_stdio_output@@@2@@__crt_stdio_output@@AEAA_NQEAH@Z 0000000180064940 f i libucrtd:output.obj
 0001:00063a30       ?parse_int_from_format_string@?$output_processor@DV?$stream_output_adapter@D@__crt_stdio_output@@V?$positional_parameter_base@DV?$stream_output_adapter@D@__crt_stdio_output@@@2@@__crt_stdio_output@@AEAA_NQEAH@Z 0000000180064a30 f i libucrtd:output.obj
 0001:00063b20       ?parse_int_from_format_string@?$output_processor@DV?$stream_output_adapter@D@__crt_stdio_output@@V?$standard_base@DV?$stream_output_adapter@D@__crt_stdio_output@@@2@@__crt_stdio_output@@AEAA_NQEAH@Z 0000000180064b20 f i libucrtd:output.obj
 0001:00063c10       ?parse_int_from_format_string@?$output_processor@DV?$string_output_adapter@D@__crt_stdio_output@@V?$format_validation_base@DV?$string_output_adapter@D@__crt_stdio_output@@@2@@__crt_stdio_output@@AEAA_NQEAH@Z 0000000180064c10 f i libucrtd:output.obj
 0001:00063d00       ?parse_int_from_format_string@?$output_processor@DV?$string_output_adapter@D@__crt_stdio_output@@V?$positional_parameter_base@DV?$string_output_adapter@D@__crt_stdio_output@@@2@@__crt_stdio_output@@AEAA_NQEAH@Z 0000000180064d00 f i libucrtd:output.obj
 0001:00063df0       ?parse_int_from_format_string@?$output_processor@DV?$string_output_adapter@D@__crt_stdio_output@@V?$standard_base@DV?$string_output_adapter@D@__crt_stdio_output@@@2@@__crt_stdio_output@@AEAA_NQEAH@Z 0000000180064df0 f i libucrtd:output.obj
 0001:00063ee0       ?parse_int_from_format_string@?$output_processor@_WV?$stream_output_adapter@_W@__crt_stdio_output@@V?$format_validation_base@_WV?$stream_output_adapter@_W@__crt_stdio_output@@@2@@__crt_stdio_output@@AEAA_NQEAH@Z 0000000180064ee0 f i libucrtd:output.obj
 0001:00063fd0       ?parse_int_from_format_string@?$output_processor@_WV?$stream_output_adapter@_W@__crt_stdio_output@@V?$positional_parameter_base@_WV?$stream_output_adapter@_W@__crt_stdio_output@@@2@@__crt_stdio_output@@AEAA_NQEAH@Z 0000000180064fd0 f i libucrtd:output.obj
 0001:000640c0       ?parse_int_from_format_string@?$output_processor@_WV?$stream_output_adapter@_W@__crt_stdio_output@@V?$standard_base@_WV?$stream_output_adapter@_W@__crt_stdio_output@@@2@@__crt_stdio_output@@AEAA_NQEAH@Z 00000001800650c0 f i libucrtd:output.obj
 0001:000641b0       ?parse_int_from_format_string@?$output_processor@_WV?$string_output_adapter@_W@__crt_stdio_output@@V?$format_validation_base@_WV?$string_output_adapter@_W@__crt_stdio_output@@@2@@__crt_stdio_output@@AEAA_NQEAH@Z 00000001800651b0 f i libucrtd:output.obj
 0001:000642a0       ?parse_int_from_format_string@?$output_processor@_WV?$string_output_adapter@_W@__crt_stdio_output@@V?$positional_parameter_base@_WV?$string_output_adapter@_W@__crt_stdio_output@@@2@@__crt_stdio_output@@AEAA_NQEAH@Z 00000001800652a0 f i libucrtd:output.obj
 0001:00064390       ?parse_int_from_format_string@?$output_processor@_WV?$string_output_adapter@_W@__crt_stdio_output@@V?$standard_base@_WV?$string_output_adapter@_W@__crt_stdio_output@@@2@@__crt_stdio_output@@AEAA_NQEAH@Z 0000000180065390 f i libucrtd:output.obj
 0001:00064480       ?process@?$output_processor@DV?$stream_output_adapter@D@__crt_stdio_output@@V?$format_validation_base@DV?$stream_output_adapter@D@__crt_stdio_output@@@2@@__crt_stdio_output@@QEAAHXZ 0000000180065480 f i libucrtd:output.obj
 0001:000647e0       ?process@?$output_processor@DV?$stream_output_adapter@D@__crt_stdio_output@@V?$positional_parameter_base@DV?$stream_output_adapter@D@__crt_stdio_output@@@2@@__crt_stdio_output@@QEAAHXZ 00000001800657e0 f i libucrtd:output.obj
 0001:00064b40       ?process@?$output_processor@DV?$stream_output_adapter@D@__crt_stdio_output@@V?$standard_base@DV?$stream_output_adapter@D@__crt_stdio_output@@@2@@__crt_stdio_output@@QEAAHXZ 0000000180065b40 f i libucrtd:output.obj
 0001:00064ea0       ?process@?$output_processor@DV?$string_output_adapter@D@__crt_stdio_output@@V?$format_validation_base@DV?$string_output_adapter@D@__crt_stdio_output@@@2@@__crt_stdio_output@@QEAAHXZ 0000000180065ea0 f i libucrtd:output.obj
 0001:00065200       ?process@?$output_processor@DV?$string_output_adapter@D@__crt_stdio_output@@V?$positional_parameter_base@DV?$string_output_adapter@D@__crt_stdio_output@@@2@@__crt_stdio_output@@QEAAHXZ 0000000180066200 f i libucrtd:output.obj
 0001:00065560       ?process@?$output_processor@DV?$string_output_adapter@D@__crt_stdio_output@@V?$standard_base@DV?$string_output_adapter@D@__crt_stdio_output@@@2@@__crt_stdio_output@@QEAAHXZ 0000000180066560 f i libucrtd:output.obj
 0001:000658c0       ?process@?$output_processor@_WV?$stream_output_adapter@_W@__crt_stdio_output@@V?$format_validation_base@_WV?$stream_output_adapter@_W@__crt_stdio_output@@@2@@__crt_stdio_output@@QEAAHXZ 00000001800668c0 f i libucrtd:output.obj
 0001:00065c20       ?process@?$output_processor@_WV?$stream_output_adapter@_W@__crt_stdio_output@@V?$positional_parameter_base@_WV?$stream_output_adapter@_W@__crt_stdio_output@@@2@@__crt_stdio_output@@QEAAHXZ 0000000180066c20 f i libucrtd:output.obj
 0001:00065f80       ?process@?$output_processor@_WV?$stream_output_adapter@_W@__crt_stdio_output@@V?$standard_base@_WV?$stream_output_adapter@_W@__crt_stdio_output@@@2@@__crt_stdio_output@@QEAAHXZ 0000000180066f80 f i libucrtd:output.obj
 0001:000662e0       ?process@?$output_processor@_WV?$string_output_adapter@_W@__crt_stdio_output@@V?$format_validation_base@_WV?$string_output_adapter@_W@__crt_stdio_output@@@2@@__crt_stdio_output@@QEAAHXZ 00000001800672e0 f i libucrtd:output.obj
 0001:00066640       ?process@?$output_processor@_WV?$string_output_adapter@_W@__crt_stdio_output@@V?$positional_parameter_base@_WV?$string_output_adapter@_W@__crt_stdio_output@@@2@@__crt_stdio_output@@QEAAHXZ 0000000180067640 f i libucrtd:output.obj
 0001:000669a0       ?process@?$output_processor@_WV?$string_output_adapter@_W@__crt_stdio_output@@V?$standard_base@_WV?$string_output_adapter@_W@__crt_stdio_output@@@2@@__crt_stdio_output@@QEAAHXZ 00000001800679a0 f i libucrtd:output.obj
 0001:00066d00       ?public_stream@__crt_stdio_stream@@QEBAPEAU_iobuf@@XZ 0000000180067d00 f i libucrtd:output.obj
 0001:00066d10       ?set_flag@?$output_processor@DV?$stream_output_adapter@D@__crt_stdio_output@@V?$format_validation_base@DV?$stream_output_adapter@D@__crt_stdio_output@@@2@@__crt_stdio_output@@AEAAXI@Z 0000000180067d10 f i libucrtd:output.obj
 0001:00066d30       ?set_flag@?$output_processor@DV?$stream_output_adapter@D@__crt_stdio_output@@V?$positional_parameter_base@DV?$stream_output_adapter@D@__crt_stdio_output@@@2@@__crt_stdio_output@@AEAAXI@Z 0000000180067d30 f i libucrtd:output.obj
 0001:00066d50       ?set_flag@?$output_processor@DV?$stream_output_adapter@D@__crt_stdio_output@@V?$standard_base@DV?$stream_output_adapter@D@__crt_stdio_output@@@2@@__crt_stdio_output@@AEAAXI@Z 0000000180067d50 f i libucrtd:output.obj
 0001:00066d70       ?set_flag@?$output_processor@DV?$string_output_adapter@D@__crt_stdio_output@@V?$format_validation_base@DV?$string_output_adapter@D@__crt_stdio_output@@@2@@__crt_stdio_output@@AEAAXI@Z 0000000180067d70 f i libucrtd:output.obj
 0001:00066d90       ?set_flag@?$output_processor@DV?$string_output_adapter@D@__crt_stdio_output@@V?$positional_parameter_base@DV?$string_output_adapter@D@__crt_stdio_output@@@2@@__crt_stdio_output@@AEAAXI@Z 0000000180067d90 f i libucrtd:output.obj
 0001:00066db0       ?set_flag@?$output_processor@DV?$string_output_adapter@D@__crt_stdio_output@@V?$standard_base@DV?$string_output_adapter@D@__crt_stdio_output@@@2@@__crt_stdio_output@@AEAAXI@Z 0000000180067db0 f i libucrtd:output.obj
 0001:00066dd0       ?set_flag@?$output_processor@_WV?$stream_output_adapter@_W@__crt_stdio_output@@V?$format_validation_base@_WV?$stream_output_adapter@_W@__crt_stdio_output@@@2@@__crt_stdio_output@@AEAAXI@Z 0000000180067dd0 f i libucrtd:output.obj
 0001:00066df0       ?set_flag@?$output_processor@_WV?$stream_output_adapter@_W@__crt_stdio_output@@V?$positional_parameter_base@_WV?$stream_output_adapter@_W@__crt_stdio_output@@@2@@__crt_stdio_output@@AEAAXI@Z 0000000180067df0 f i libucrtd:output.obj
 0001:00066e10       ?set_flag@?$output_processor@_WV?$stream_output_adapter@_W@__crt_stdio_output@@V?$standard_base@_WV?$stream_output_adapter@_W@__crt_stdio_output@@@2@@__crt_stdio_output@@AEAAXI@Z 0000000180067e10 f i libucrtd:output.obj
 0001:00066e30       ?set_flag@?$output_processor@_WV?$string_output_adapter@_W@__crt_stdio_output@@V?$format_validation_base@_WV?$string_output_adapter@_W@__crt_stdio_output@@@2@@__crt_stdio_output@@AEAAXI@Z 0000000180067e30 f i libucrtd:output.obj
 0001:00066e50       ?set_flag@?$output_processor@_WV?$string_output_adapter@_W@__crt_stdio_output@@V?$positional_parameter_base@_WV?$string_output_adapter@_W@__crt_stdio_output@@@2@@__crt_stdio_output@@AEAAXI@Z 0000000180067e50 f i libucrtd:output.obj
 0001:00066e70       ?set_flag@?$output_processor@_WV?$string_output_adapter@_W@__crt_stdio_output@@V?$standard_base@_WV?$string_output_adapter@_W@__crt_stdio_output@@@2@@__crt_stdio_output@@AEAAXI@Z 0000000180067e70 f i libucrtd:output.obj
 0001:00066e90       ?should_format@?$positional_parameter_base@DV?$stream_output_adapter@D@__crt_stdio_output@@@__crt_stdio_output@@IEAA_NXZ 0000000180067e90 f i libucrtd:output.obj
 0001:00066ed0       ?should_format@?$positional_parameter_base@DV?$string_output_adapter@D@__crt_stdio_output@@@__crt_stdio_output@@IEAA_NXZ 0000000180067ed0 f i libucrtd:output.obj
 0001:00066f10       ?should_format@?$positional_parameter_base@_WV?$stream_output_adapter@_W@__crt_stdio_output@@@__crt_stdio_output@@IEAA_NXZ 0000000180067f10 f i libucrtd:output.obj
 0001:00066f50       ?should_format@?$positional_parameter_base@_WV?$string_output_adapter@_W@__crt_stdio_output@@@__crt_stdio_output@@IEAA_NXZ 0000000180067f50 f i libucrtd:output.obj
 0001:00066f90       ?should_format@?$standard_base@DV?$stream_output_adapter@D@__crt_stdio_output@@@__crt_stdio_output@@IEAA_NXZ 0000000180067f90 f i libucrtd:output.obj
 0001:00066fa0       ?should_format@?$standard_base@DV?$string_output_adapter@D@__crt_stdio_output@@@__crt_stdio_output@@IEAA_NXZ 0000000180067fa0 f i libucrtd:output.obj
 0001:00066fb0       ?should_format@?$standard_base@_WV?$stream_output_adapter@_W@__crt_stdio_output@@@__crt_stdio_output@@IEAA_NXZ 0000000180067fb0 f i libucrtd:output.obj
 0001:00066fc0       ?should_format@?$standard_base@_WV?$string_output_adapter@_W@__crt_stdio_output@@@__crt_stdio_output@@IEAA_NXZ 0000000180067fc0 f i libucrtd:output.obj
 0001:00066fd0       ?should_skip_normal_state_processing@?$positional_parameter_base@DV?$stream_output_adapter@D@__crt_stdio_output@@@__crt_stdio_output@@IEAA_NXZ 0000000180067fd0 f i libucrtd:output.obj
 0001:00067020       ?should_skip_normal_state_processing@?$positional_parameter_base@DV?$string_output_adapter@D@__crt_stdio_output@@@__crt_stdio_output@@IEAA_NXZ 0000000180068020 f i libucrtd:output.obj
 0001:00067070       ?should_skip_normal_state_processing@?$positional_parameter_base@_WV?$stream_output_adapter@_W@__crt_stdio_output@@@__crt_stdio_output@@IEAA_NXZ 0000000180068070 f i libucrtd:output.obj
 0001:000670c0       ?should_skip_normal_state_processing@?$positional_parameter_base@_WV?$string_output_adapter@_W@__crt_stdio_output@@@__crt_stdio_output@@IEAA_NXZ 00000001800680c0 f i libucrtd:output.obj
 0001:00067110       ?should_skip_normal_state_processing@?$standard_base@DV?$stream_output_adapter@D@__crt_stdio_output@@@__crt_stdio_output@@IEAA_NXZ 0000000180068110 f i libucrtd:output.obj
 0001:00067120       ?should_skip_normal_state_processing@?$standard_base@DV?$string_output_adapter@D@__crt_stdio_output@@@__crt_stdio_output@@IEAA_NXZ 0000000180068120 f i libucrtd:output.obj
 0001:00067130       ?should_skip_normal_state_processing@?$standard_base@_WV?$stream_output_adapter@_W@__crt_stdio_output@@@__crt_stdio_output@@IEAA_NXZ 0000000180068130 f i libucrtd:output.obj
 0001:00067140       ?should_skip_normal_state_processing@?$standard_base@_WV?$string_output_adapter@_W@__crt_stdio_output@@@__crt_stdio_output@@IEAA_NXZ 0000000180068140 f i libucrtd:output.obj
 0001:00067150       ?should_skip_type_state_output@?$positional_parameter_base@DV?$stream_output_adapter@D@__crt_stdio_output@@@__crt_stdio_output@@IEBA_NXZ 0000000180068150 f i libucrtd:output.obj
 0001:00067190       ?should_skip_type_state_output@?$positional_parameter_base@DV?$string_output_adapter@D@__crt_stdio_output@@@__crt_stdio_output@@IEBA_NXZ 0000000180068190 f i libucrtd:output.obj
 0001:000671d0       ?should_skip_type_state_output@?$positional_parameter_base@_WV?$stream_output_adapter@_W@__crt_stdio_output@@@__crt_stdio_output@@IEBA_NXZ 00000001800681d0 f i libucrtd:output.obj
 0001:00067210       ?should_skip_type_state_output@?$positional_parameter_base@_WV?$string_output_adapter@_W@__crt_stdio_output@@@__crt_stdio_output@@IEBA_NXZ 0000000180068210 f i libucrtd:output.obj
 0001:00067250       ?should_skip_type_state_output@?$standard_base@DV?$stream_output_adapter@D@__crt_stdio_output@@@__crt_stdio_output@@IEBA_NXZ 0000000180068250 f i libucrtd:output.obj
 0001:00067260       ?should_skip_type_state_output@?$standard_base@DV?$string_output_adapter@D@__crt_stdio_output@@@__crt_stdio_output@@IEBA_NXZ 0000000180068260 f i libucrtd:output.obj
 0001:00067270       ?should_skip_type_state_output@?$standard_base@_WV?$stream_output_adapter@_W@__crt_stdio_output@@@__crt_stdio_output@@IEBA_NXZ 0000000180068270 f i libucrtd:output.obj
 0001:00067280       ?should_skip_type_state_output@?$standard_base@_WV?$string_output_adapter@_W@__crt_stdio_output@@@__crt_stdio_output@@IEBA_NXZ 0000000180068280 f i libucrtd:output.obj
 0001:00067290       ?state_case_dot@?$output_processor@DV?$stream_output_adapter@D@__crt_stdio_output@@V?$format_validation_base@DV?$stream_output_adapter@D@__crt_stdio_output@@@2@@__crt_stdio_output@@AEAA_NXZ 0000000180068290 f i libucrtd:output.obj
 0001:000672b0       ?state_case_dot@?$output_processor@DV?$stream_output_adapter@D@__crt_stdio_output@@V?$positional_parameter_base@DV?$stream_output_adapter@D@__crt_stdio_output@@@2@@__crt_stdio_output@@AEAA_NXZ 00000001800682b0 f i libucrtd:output.obj
 0001:000672d0       ?state_case_dot@?$output_processor@DV?$stream_output_adapter@D@__crt_stdio_output@@V?$standard_base@DV?$stream_output_adapter@D@__crt_stdio_output@@@2@@__crt_stdio_output@@AEAA_NXZ 00000001800682d0 f i libucrtd:output.obj
 0001:000672f0       ?state_case_dot@?$output_processor@DV?$string_output_adapter@D@__crt_stdio_output@@V?$format_validation_base@DV?$string_output_adapter@D@__crt_stdio_output@@@2@@__crt_stdio_output@@AEAA_NXZ 00000001800682f0 f i libucrtd:output.obj
 0001:00067310       ?state_case_dot@?$output_processor@DV?$string_output_adapter@D@__crt_stdio_output@@V?$positional_parameter_base@DV?$string_output_adapter@D@__crt_stdio_output@@@2@@__crt_stdio_output@@AEAA_NXZ 0000000180068310 f i libucrtd:output.obj
 0001:00067330       ?state_case_dot@?$output_processor@DV?$string_output_adapter@D@__crt_stdio_output@@V?$standard_base@DV?$string_output_adapter@D@__crt_stdio_output@@@2@@__crt_stdio_output@@AEAA_NXZ 0000000180068330 f i libucrtd:output.obj
 0001:00067350       ?state_case_dot@?$output_processor@_WV?$stream_output_adapter@_W@__crt_stdio_output@@V?$format_validation_base@_WV?$stream_output_adapter@_W@__crt_stdio_output@@@2@@__crt_stdio_output@@AEAA_NXZ 0000000180068350 f i libucrtd:output.obj
 0001:00067370       ?state_case_dot@?$output_processor@_WV?$stream_output_adapter@_W@__crt_stdio_output@@V?$positional_parameter_base@_WV?$stream_output_adapter@_W@__crt_stdio_output@@@2@@__crt_stdio_output@@AEAA_NXZ 0000000180068370 f i libucrtd:output.obj
 0001:00067390       ?state_case_dot@?$output_processor@_WV?$stream_output_adapter@_W@__crt_stdio_output@@V?$standard_base@_WV?$stream_output_adapter@_W@__crt_stdio_output@@@2@@__crt_stdio_output@@AEAA_NXZ 0000000180068390 f i libucrtd:output.obj
 0001:000673b0       ?state_case_dot@?$output_processor@_WV?$string_output_adapter@_W@__crt_stdio_output@@V?$format_validation_base@_WV?$string_output_adapter@_W@__crt_stdio_output@@@2@@__crt_stdio_output@@AEAA_NXZ 00000001800683b0 f i libucrtd:output.obj
 0001:000673d0       ?state_case_dot@?$output_processor@_WV?$string_output_adapter@_W@__crt_stdio_output@@V?$positional_parameter_base@_WV?$string_output_adapter@_W@__crt_stdio_output@@@2@@__crt_stdio_output@@AEAA_NXZ 00000001800683d0 f i libucrtd:output.obj
 0001:000673f0       ?state_case_dot@?$output_processor@_WV?$string_output_adapter@_W@__crt_stdio_output@@V?$standard_base@_WV?$string_output_adapter@_W@__crt_stdio_output@@@2@@__crt_stdio_output@@AEAA_NXZ 00000001800683f0 f i libucrtd:output.obj
 0001:00067410       ?state_case_flag@?$output_processor@DV?$stream_output_adapter@D@__crt_stdio_output@@V?$format_validation_base@DV?$stream_output_adapter@D@__crt_stdio_output@@@2@@__crt_stdio_output@@AEAA_NXZ 0000000180068410 f i libucrtd:output.obj
 0001:000674b0       ?state_case_flag@?$output_processor@DV?$stream_output_adapter@D@__crt_stdio_output@@V?$positional_parameter_base@DV?$stream_output_adapter@D@__crt_stdio_output@@@2@@__crt_stdio_output@@AEAA_NXZ 00000001800684b0 f i libucrtd:output.obj
 0001:00067550       ?state_case_flag@?$output_processor@DV?$stream_output_adapter@D@__crt_stdio_output@@V?$standard_base@DV?$stream_output_adapter@D@__crt_stdio_output@@@2@@__crt_stdio_output@@AEAA_NXZ 0000000180068550 f i libucrtd:output.obj
 0001:000675f0       ?state_case_flag@?$output_processor@DV?$string_output_adapter@D@__crt_stdio_output@@V?$format_validation_base@DV?$string_output_adapter@D@__crt_stdio_output@@@2@@__crt_stdio_output@@AEAA_NXZ 00000001800685f0 f i libucrtd:output.obj
 0001:00067690       ?state_case_flag@?$output_processor@DV?$string_output_adapter@D@__crt_stdio_output@@V?$positional_parameter_base@DV?$string_output_adapter@D@__crt_stdio_output@@@2@@__crt_stdio_output@@AEAA_NXZ 0000000180068690 f i libucrtd:output.obj
 0001:00067730       ?state_case_flag@?$output_processor@DV?$string_output_adapter@D@__crt_stdio_output@@V?$standard_base@DV?$string_output_adapter@D@__crt_stdio_output@@@2@@__crt_stdio_output@@AEAA_NXZ 0000000180068730 f i libucrtd:output.obj
 0001:000677d0       ?state_case_flag@?$output_processor@_WV?$stream_output_adapter@_W@__crt_stdio_output@@V?$format_validation_base@_WV?$stream_output_adapter@_W@__crt_stdio_output@@@2@@__crt_stdio_output@@AEAA_NXZ 00000001800687d0 f i libucrtd:output.obj
 0001:00067870       ?state_case_flag@?$output_processor@_WV?$stream_output_adapter@_W@__crt_stdio_output@@V?$positional_parameter_base@_WV?$stream_output_adapter@_W@__crt_stdio_output@@@2@@__crt_stdio_output@@AEAA_NXZ 0000000180068870 f i libucrtd:output.obj
 0001:00067910       ?state_case_flag@?$output_processor@_WV?$stream_output_adapter@_W@__crt_stdio_output@@V?$standard_base@_WV?$stream_output_adapter@_W@__crt_stdio_output@@@2@@__crt_stdio_output@@AEAA_NXZ 0000000180068910 f i libucrtd:output.obj
 0001:000679b0       ?state_case_flag@?$output_processor@_WV?$string_output_adapter@_W@__crt_stdio_output@@V?$format_validation_base@_WV?$string_output_adapter@_W@__crt_stdio_output@@@2@@__crt_stdio_output@@AEAA_NXZ 00000001800689b0 f i libucrtd:output.obj
 0001:00067a50       ?state_case_flag@?$output_processor@_WV?$string_output_adapter@_W@__crt_stdio_output@@V?$positional_parameter_base@_WV?$string_output_adapter@_W@__crt_stdio_output@@@2@@__crt_stdio_output@@AEAA_NXZ 0000000180068a50 f i libucrtd:output.obj
 0001:00067af0       ?state_case_flag@?$output_processor@_WV?$string_output_adapter@_W@__crt_stdio_output@@V?$standard_base@_WV?$string_output_adapter@_W@__crt_stdio_output@@@2@@__crt_stdio_output@@AEAA_NXZ 0000000180068af0 f i libucrtd:output.obj
 0001:00067b90       ?state_case_normal@?$output_processor@DV?$stream_output_adapter@D@__crt_stdio_output@@V?$format_validation_base@DV?$stream_output_adapter@D@__crt_stdio_output@@@2@@__crt_stdio_output@@AEAA_NXZ 0000000180068b90 f i libucrtd:output.obj
 0001:00067c70       ?state_case_normal@?$output_processor@DV?$stream_output_adapter@D@__crt_stdio_output@@V?$positional_parameter_base@DV?$stream_output_adapter@D@__crt_stdio_output@@@2@@__crt_stdio_output@@AEAA_NXZ 0000000180068c70 f i libucrtd:output.obj
 0001:00067d50       ?state_case_normal@?$output_processor@DV?$stream_output_adapter@D@__crt_stdio_output@@V?$standard_base@DV?$stream_output_adapter@D@__crt_stdio_output@@@2@@__crt_stdio_output@@AEAA_NXZ 0000000180068d50 f i libucrtd:output.obj
 0001:00067e30       ?state_case_normal@?$output_processor@DV?$string_output_adapter@D@__crt_stdio_output@@V?$format_validation_base@DV?$string_output_adapter@D@__crt_stdio_output@@@2@@__crt_stdio_output@@AEAA_NXZ 0000000180068e30 f i libucrtd:output.obj
 0001:00067f10       ?state_case_normal@?$output_processor@DV?$string_output_adapter@D@__crt_stdio_output@@V?$positional_parameter_base@DV?$string_output_adapter@D@__crt_stdio_output@@@2@@__crt_stdio_output@@AEAA_NXZ 0000000180068f10 f i libucrtd:output.obj
 0001:00067ff0       ?state_case_normal@?$output_processor@DV?$string_output_adapter@D@__crt_stdio_output@@V?$standard_base@DV?$string_output_adapter@D@__crt_stdio_output@@@2@@__crt_stdio_output@@AEAA_NXZ 0000000180068ff0 f i libucrtd:output.obj
 0001:000680d0       ?state_case_normal@?$output_processor@_WV?$stream_output_adapter@_W@__crt_stdio_output@@V?$format_validation_base@_WV?$stream_output_adapter@_W@__crt_stdio_output@@@2@@__crt_stdio_output@@AEAA_NXZ 00000001800690d0 f i libucrtd:output.obj
 0001:000681b0       ?state_case_normal@?$output_processor@_WV?$stream_output_adapter@_W@__crt_stdio_output@@V?$positional_parameter_base@_WV?$stream_output_adapter@_W@__crt_stdio_output@@@2@@__crt_stdio_output@@AEAA_NXZ 00000001800691b0 f i libucrtd:output.obj
 0001:00068290       ?state_case_normal@?$output_processor@_WV?$stream_output_adapter@_W@__crt_stdio_output@@V?$standard_base@_WV?$stream_output_adapter@_W@__crt_stdio_output@@@2@@__crt_stdio_output@@AEAA_NXZ 0000000180069290 f i libucrtd:output.obj
 0001:00068370       ?state_case_normal@?$output_processor@_WV?$string_output_adapter@_W@__crt_stdio_output@@V?$format_validation_base@_WV?$string_output_adapter@_W@__crt_stdio_output@@@2@@__crt_stdio_output@@AEAA_NXZ 0000000180069370 f i libucrtd:output.obj
 0001:00068450       ?state_case_normal@?$output_processor@_WV?$string_output_adapter@_W@__crt_stdio_output@@V?$positional_parameter_base@_WV?$string_output_adapter@_W@__crt_stdio_output@@@2@@__crt_stdio_output@@AEAA_NXZ 0000000180069450 f i libucrtd:output.obj
 0001:00068530       ?state_case_normal@?$output_processor@_WV?$string_output_adapter@_W@__crt_stdio_output@@V?$standard_base@_WV?$string_output_adapter@_W@__crt_stdio_output@@@2@@__crt_stdio_output@@AEAA_NXZ 0000000180069530 f i libucrtd:output.obj
 0001:00068610       ?state_case_normal_common@?$output_processor@DV?$stream_output_adapter@D@__crt_stdio_output@@V?$format_validation_base@DV?$stream_output_adapter@D@__crt_stdio_output@@@2@@__crt_stdio_output@@AEAA_NXZ 0000000180069610 f i libucrtd:output.obj
 0001:00068660       ?state_case_normal_common@?$output_processor@DV?$stream_output_adapter@D@__crt_stdio_output@@V?$positional_parameter_base@DV?$stream_output_adapter@D@__crt_stdio_output@@@2@@__crt_stdio_output@@AEAA_NXZ 0000000180069660 f i libucrtd:output.obj
 0001:000686b0       ?state_case_normal_common@?$output_processor@DV?$stream_output_adapter@D@__crt_stdio_output@@V?$standard_base@DV?$stream_output_adapter@D@__crt_stdio_output@@@2@@__crt_stdio_output@@AEAA_NXZ 00000001800696b0 f i libucrtd:output.obj
 0001:00068700       ?state_case_normal_common@?$output_processor@DV?$string_output_adapter@D@__crt_stdio_output@@V?$format_validation_base@DV?$string_output_adapter@D@__crt_stdio_output@@@2@@__crt_stdio_output@@AEAA_NXZ 0000000180069700 f i libucrtd:output.obj
 0001:00068750       ?state_case_normal_common@?$output_processor@DV?$string_output_adapter@D@__crt_stdio_output@@V?$positional_parameter_base@DV?$string_output_adapter@D@__crt_stdio_output@@@2@@__crt_stdio_output@@AEAA_NXZ 0000000180069750 f i libucrtd:output.obj
 0001:000687a0       ?state_case_normal_common@?$output_processor@DV?$string_output_adapter@D@__crt_stdio_output@@V?$standard_base@DV?$string_output_adapter@D@__crt_stdio_output@@@2@@__crt_stdio_output@@AEAA_NXZ 00000001800697a0 f i libucrtd:output.obj
 0001:000687f0       ?state_case_normal_common@?$output_processor@_WV?$stream_output_adapter@_W@__crt_stdio_output@@V?$format_validation_base@_WV?$stream_output_adapter@_W@__crt_stdio_output@@@2@@__crt_stdio_output@@AEAA_NXZ 00000001800697f0 f i libucrtd:output.obj
 0001:00068840       ?state_case_normal_common@?$output_processor@_WV?$stream_output_adapter@_W@__crt_stdio_output@@V?$positional_parameter_base@_WV?$stream_output_adapter@_W@__crt_stdio_output@@@2@@__crt_stdio_output@@AEAA_NXZ 0000000180069840 f i libucrtd:output.obj
 0001:00068890       ?state_case_normal_common@?$output_processor@_WV?$stream_output_adapter@_W@__crt_stdio_output@@V?$standard_base@_WV?$stream_output_adapter@_W@__crt_stdio_output@@@2@@__crt_stdio_output@@AEAA_NXZ 0000000180069890 f i libucrtd:output.obj
 0001:000688e0       ?state_case_normal_common@?$output_processor@_WV?$string_output_adapter@_W@__crt_stdio_output@@V?$format_validation_base@_WV?$string_output_adapter@_W@__crt_stdio_output@@@2@@__crt_stdio_output@@AEAA_NXZ 00000001800698e0 f i libucrtd:output.obj
 0001:00068930       ?state_case_normal_common@?$output_processor@_WV?$string_output_adapter@_W@__crt_stdio_output@@V?$positional_parameter_base@_WV?$string_output_adapter@_W@__crt_stdio_output@@@2@@__crt_stdio_output@@AEAA_NXZ 0000000180069930 f i libucrtd:output.obj
 0001:00068980       ?state_case_normal_common@?$output_processor@_WV?$string_output_adapter@_W@__crt_stdio_output@@V?$standard_base@_WV?$string_output_adapter@_W@__crt_stdio_output@@@2@@__crt_stdio_output@@AEAA_NXZ 0000000180069980 f i libucrtd:output.obj
 0001:000689d0       ?state_case_normal_tchar@?$output_processor@DV?$stream_output_adapter@D@__crt_stdio_output@@V?$format_validation_base@DV?$stream_output_adapter@D@__crt_stdio_output@@@2@@__crt_stdio_output@@AEAA_ND@Z 00000001800699d0 f i libucrtd:output.obj
 0001:00068b10       ?state_case_normal_tchar@?$output_processor@DV?$stream_output_adapter@D@__crt_stdio_output@@V?$positional_parameter_base@DV?$stream_output_adapter@D@__crt_stdio_output@@@2@@__crt_stdio_output@@AEAA_ND@Z 0000000180069b10 f i libucrtd:output.obj
 0001:00068c50       ?state_case_normal_tchar@?$output_processor@DV?$stream_output_adapter@D@__crt_stdio_output@@V?$standard_base@DV?$stream_output_adapter@D@__crt_stdio_output@@@2@@__crt_stdio_output@@AEAA_ND@Z 0000000180069c50 f i libucrtd:output.obj
 0001:00068d90       ?state_case_normal_tchar@?$output_processor@DV?$string_output_adapter@D@__crt_stdio_output@@V?$format_validation_base@DV?$string_output_adapter@D@__crt_stdio_output@@@2@@__crt_stdio_output@@AEAA_ND@Z 0000000180069d90 f i libucrtd:output.obj
 0001:00068ed0       ?state_case_normal_tchar@?$output_processor@DV?$string_output_adapter@D@__crt_stdio_output@@V?$positional_parameter_base@DV?$string_output_adapter@D@__crt_stdio_output@@@2@@__crt_stdio_output@@AEAA_ND@Z 0000000180069ed0 f i libucrtd:output.obj
 0001:00069010       ?state_case_normal_tchar@?$output_processor@DV?$string_output_adapter@D@__crt_stdio_output@@V?$standard_base@DV?$string_output_adapter@D@__crt_stdio_output@@@2@@__crt_stdio_output@@AEAA_ND@Z 000000018006a010 f i libucrtd:output.obj
 0001:00069150       ?state_case_normal_tchar@?$output_processor@_WV?$stream_output_adapter@_W@__crt_stdio_output@@V?$format_validation_base@_WV?$stream_output_adapter@_W@__crt_stdio_output@@@2@@__crt_stdio_output@@AEAA_N_W@Z 000000018006a150 f i libucrtd:output.obj
 0001:00069170       ?state_case_normal_tchar@?$output_processor@_WV?$stream_output_adapter@_W@__crt_stdio_output@@V?$positional_parameter_base@_WV?$stream_output_adapter@_W@__crt_stdio_output@@@2@@__crt_stdio_output@@AEAA_N_W@Z 000000018006a170 f i libucrtd:output.obj
 0001:00069190       ?state_case_normal_tchar@?$output_processor@_WV?$stream_output_adapter@_W@__crt_stdio_output@@V?$standard_base@_WV?$stream_output_adapter@_W@__crt_stdio_output@@@2@@__crt_stdio_output@@AEAA_N_W@Z 000000018006a190 f i libucrtd:output.obj
 0001:000691b0       ?state_case_normal_tchar@?$output_processor@_WV?$string_output_adapter@_W@__crt_stdio_output@@V?$format_validation_base@_WV?$string_output_adapter@_W@__crt_stdio_output@@@2@@__crt_stdio_output@@AEAA_N_W@Z 000000018006a1b0 f i libucrtd:output.obj
 0001:000691d0       ?state_case_normal_tchar@?$output_processor@_WV?$string_output_adapter@_W@__crt_stdio_output@@V?$positional_parameter_base@_WV?$string_output_adapter@_W@__crt_stdio_output@@@2@@__crt_stdio_output@@AEAA_N_W@Z 000000018006a1d0 f i libucrtd:output.obj
 0001:000691f0       ?state_case_normal_tchar@?$output_processor@_WV?$string_output_adapter@_W@__crt_stdio_output@@V?$standard_base@_WV?$string_output_adapter@_W@__crt_stdio_output@@@2@@__crt_stdio_output@@AEAA_N_W@Z 000000018006a1f0 f i libucrtd:output.obj
 0001:00069210       ?state_case_percent@?$output_processor@DV?$stream_output_adapter@D@__crt_stdio_output@@V?$format_validation_base@DV?$stream_output_adapter@D@__crt_stdio_output@@@2@@__crt_stdio_output@@AEAA_NXZ 000000018006a210 f i libucrtd:output.obj
 0001:00069260       ?state_case_percent@?$output_processor@DV?$stream_output_adapter@D@__crt_stdio_output@@V?$positional_parameter_base@DV?$stream_output_adapter@D@__crt_stdio_output@@@2@@__crt_stdio_output@@AEAA_NXZ 000000018006a260 f i libucrtd:output.obj
 0001:000692b0       ?state_case_percent@?$output_processor@DV?$stream_output_adapter@D@__crt_stdio_output@@V?$standard_base@DV?$stream_output_adapter@D@__crt_stdio_output@@@2@@__crt_stdio_output@@AEAA_NXZ 000000018006a2b0 f i libucrtd:output.obj
 0001:00069300       ?state_case_percent@?$output_processor@DV?$string_output_adapter@D@__crt_stdio_output@@V?$format_validation_base@DV?$string_output_adapter@D@__crt_stdio_output@@@2@@__crt_stdio_output@@AEAA_NXZ 000000018006a300 f i libucrtd:output.obj
 0001:00069350       ?state_case_percent@?$output_processor@DV?$string_output_adapter@D@__crt_stdio_output@@V?$positional_parameter_base@DV?$string_output_adapter@D@__crt_stdio_output@@@2@@__crt_stdio_output@@AEAA_NXZ 000000018006a350 f i libucrtd:output.obj
 0001:000693a0       ?state_case_percent@?$output_processor@DV?$string_output_adapter@D@__crt_stdio_output@@V?$standard_base@DV?$string_output_adapter@D@__crt_stdio_output@@@2@@__crt_stdio_output@@AEAA_NXZ 000000018006a3a0 f i libucrtd:output.obj
 0001:000693f0       ?state_case_percent@?$output_processor@_WV?$stream_output_adapter@_W@__crt_stdio_output@@V?$format_validation_base@_WV?$stream_output_adapter@_W@__crt_stdio_output@@@2@@__crt_stdio_output@@AEAA_NXZ 000000018006a3f0 f i libucrtd:output.obj
 0001:00069440       ?state_case_percent@?$output_processor@_WV?$stream_output_adapter@_W@__crt_stdio_output@@V?$positional_parameter_base@_WV?$stream_output_adapter@_W@__crt_stdio_output@@@2@@__crt_stdio_output@@AEAA_NXZ 000000018006a440 f i libucrtd:output.obj
 0001:00069490       ?state_case_percent@?$output_processor@_WV?$stream_output_adapter@_W@__crt_stdio_output@@V?$standard_base@_WV?$stream_output_adapter@_W@__crt_stdio_output@@@2@@__crt_stdio_output@@AEAA_NXZ 000000018006a490 f i libucrtd:output.obj
 0001:000694e0       ?state_case_percent@?$output_processor@_WV?$string_output_adapter@_W@__crt_stdio_output@@V?$format_validation_base@_WV?$string_output_adapter@_W@__crt_stdio_output@@@2@@__crt_stdio_output@@AEAA_NXZ 000000018006a4e0 f i libucrtd:output.obj
 0001:00069530       ?state_case_percent@?$output_processor@_WV?$string_output_adapter@_W@__crt_stdio_output@@V?$positional_parameter_base@_WV?$string_output_adapter@_W@__crt_stdio_output@@@2@@__crt_stdio_output@@AEAA_NXZ 000000018006a530 f i libucrtd:output.obj
 0001:00069580       ?state_case_percent@?$output_processor@_WV?$string_output_adapter@_W@__crt_stdio_output@@V?$standard_base@_WV?$string_output_adapter@_W@__crt_stdio_output@@@2@@__crt_stdio_output@@AEAA_NXZ 000000018006a580 f i libucrtd:output.obj
 0001:000695d0       ?state_case_precision@?$output_processor@DV?$stream_output_adapter@D@__crt_stdio_output@@V?$format_validation_base@DV?$stream_output_adapter@D@__crt_stdio_output@@@2@@__crt_stdio_output@@AEAA_NXZ 000000018006a5d0 f i libucrtd:output.obj
 0001:00069650       ?state_case_precision@?$output_processor@DV?$stream_output_adapter@D@__crt_stdio_output@@V?$positional_parameter_base@DV?$stream_output_adapter@D@__crt_stdio_output@@@2@@__crt_stdio_output@@AEAA_NXZ 000000018006a650 f i libucrtd:output.obj
 0001:000696d0       ?state_case_precision@?$output_processor@DV?$stream_output_adapter@D@__crt_stdio_output@@V?$standard_base@DV?$stream_output_adapter@D@__crt_stdio_output@@@2@@__crt_stdio_output@@AEAA_NXZ 000000018006a6d0 f i libucrtd:output.obj
 0001:00069750       ?state_case_precision@?$output_processor@DV?$string_output_adapter@D@__crt_stdio_output@@V?$format_validation_base@DV?$string_output_adapter@D@__crt_stdio_output@@@2@@__crt_stdio_output@@AEAA_NXZ 000000018006a750 f i libucrtd:output.obj
 0001:000697d0       ?state_case_precision@?$output_processor@DV?$string_output_adapter@D@__crt_stdio_output@@V?$positional_parameter_base@DV?$string_output_adapter@D@__crt_stdio_output@@@2@@__crt_stdio_output@@AEAA_NXZ 000000018006a7d0 f i libucrtd:output.obj
 0001:00069850       ?state_case_precision@?$output_processor@DV?$string_output_adapter@D@__crt_stdio_output@@V?$standard_base@DV?$string_output_adapter@D@__crt_stdio_output@@@2@@__crt_stdio_output@@AEAA_NXZ 000000018006a850 f i libucrtd:output.obj
 0001:000698d0       ?state_case_precision@?$output_processor@_WV?$stream_output_adapter@_W@__crt_stdio_output@@V?$format_validation_base@_WV?$stream_output_adapter@_W@__crt_stdio_output@@@2@@__crt_stdio_output@@AEAA_NXZ 000000018006a8d0 f i libucrtd:output.obj
 0001:00069950       ?state_case_precision@?$output_processor@_WV?$stream_output_adapter@_W@__crt_stdio_output@@V?$positional_parameter_base@_WV?$stream_output_adapter@_W@__crt_stdio_output@@@2@@__crt_stdio_output@@AEAA_NXZ 000000018006a950 f i libucrtd:output.obj
 0001:000699d0       ?state_case_precision@?$output_processor@_WV?$stream_output_adapter@_W@__crt_stdio_output@@V?$standard_base@_WV?$stream_output_adapter@_W@__crt_stdio_output@@@2@@__crt_stdio_output@@AEAA_NXZ 000000018006a9d0 f i libucrtd:output.obj
 0001:00069a50       ?state_case_precision@?$output_processor@_WV?$string_output_adapter@_W@__crt_stdio_output@@V?$format_validation_base@_WV?$string_output_adapter@_W@__crt_stdio_output@@@2@@__crt_stdio_output@@AEAA_NXZ 000000018006aa50 f i libucrtd:output.obj
 0001:00069ad0       ?state_case_precision@?$output_processor@_WV?$string_output_adapter@_W@__crt_stdio_output@@V?$positional_parameter_base@_WV?$string_output_adapter@_W@__crt_stdio_output@@@2@@__crt_stdio_output@@AEAA_NXZ 000000018006aad0 f i libucrtd:output.obj
 0001:00069b50       ?state_case_precision@?$output_processor@_WV?$string_output_adapter@_W@__crt_stdio_output@@V?$standard_base@_WV?$string_output_adapter@_W@__crt_stdio_output@@@2@@__crt_stdio_output@@AEAA_NXZ 000000018006ab50 f i libucrtd:output.obj
 0001:00069bd0       ?state_case_size@?$output_processor@DV?$stream_output_adapter@D@__crt_stdio_output@@V?$format_validation_base@DV?$stream_output_adapter@D@__crt_stdio_output@@@2@@__crt_stdio_output@@AEAA_NXZ 000000018006abd0 f i libucrtd:output.obj
 0001:0006a050       ?state_case_size@?$output_processor@DV?$stream_output_adapter@D@__crt_stdio_output@@V?$positional_parameter_base@DV?$stream_output_adapter@D@__crt_stdio_output@@@2@@__crt_stdio_output@@AEAA_NXZ 000000018006b050 f i libucrtd:output.obj
 0001:0006a4d0       ?state_case_size@?$output_processor@DV?$stream_output_adapter@D@__crt_stdio_output@@V?$standard_base@DV?$stream_output_adapter@D@__crt_stdio_output@@@2@@__crt_stdio_output@@AEAA_NXZ 000000018006b4d0 f i libucrtd:output.obj
 0001:0006a950       ?state_case_size@?$output_processor@DV?$string_output_adapter@D@__crt_stdio_output@@V?$format_validation_base@DV?$string_output_adapter@D@__crt_stdio_output@@@2@@__crt_stdio_output@@AEAA_NXZ 000000018006b950 f i libucrtd:output.obj
 0001:0006add0       ?state_case_size@?$output_processor@DV?$string_output_adapter@D@__crt_stdio_output@@V?$positional_parameter_base@DV?$string_output_adapter@D@__crt_stdio_output@@@2@@__crt_stdio_output@@AEAA_NXZ 000000018006bdd0 f i libucrtd:output.obj
 0001:0006b250       ?state_case_size@?$output_processor@DV?$string_output_adapter@D@__crt_stdio_output@@V?$standard_base@DV?$string_output_adapter@D@__crt_stdio_output@@@2@@__crt_stdio_output@@AEAA_NXZ 000000018006c250 f i libucrtd:output.obj
 0001:0006b6d0       ?state_case_size@?$output_processor@_WV?$stream_output_adapter@_W@__crt_stdio_output@@V?$format_validation_base@_WV?$stream_output_adapter@_W@__crt_stdio_output@@@2@@__crt_stdio_output@@AEAA_NXZ 000000018006c6d0 f i libucrtd:output.obj
 0001:0006bb50       ?state_case_size@?$output_processor@_WV?$stream_output_adapter@_W@__crt_stdio_output@@V?$positional_parameter_base@_WV?$stream_output_adapter@_W@__crt_stdio_output@@@2@@__crt_stdio_output@@AEAA_NXZ 000000018006cb50 f i libucrtd:output.obj
 0001:0006bfd0       ?state_case_size@?$output_processor@_WV?$stream_output_adapter@_W@__crt_stdio_output@@V?$standard_base@_WV?$stream_output_adapter@_W@__crt_stdio_output@@@2@@__crt_stdio_output@@AEAA_NXZ 000000018006cfd0 f i libucrtd:output.obj
 0001:0006c450       ?state_case_size@?$output_processor@_WV?$string_output_adapter@_W@__crt_stdio_output@@V?$format_validation_base@_WV?$string_output_adapter@_W@__crt_stdio_output@@@2@@__crt_stdio_output@@AEAA_NXZ 000000018006d450 f i libucrtd:output.obj
 0001:0006c8d0       ?state_case_size@?$output_processor@_WV?$string_output_adapter@_W@__crt_stdio_output@@V?$positional_parameter_base@_WV?$string_output_adapter@_W@__crt_stdio_output@@@2@@__crt_stdio_output@@AEAA_NXZ 000000018006d8d0 f i libucrtd:output.obj
 0001:0006cd50       ?state_case_size@?$output_processor@_WV?$string_output_adapter@_W@__crt_stdio_output@@V?$standard_base@_WV?$string_output_adapter@_W@__crt_stdio_output@@@2@@__crt_stdio_output@@AEAA_NXZ 000000018006dd50 f i libucrtd:output.obj
 0001:0006d1d0       ?state_case_type@?$output_processor@DV?$stream_output_adapter@D@__crt_stdio_output@@V?$format_validation_base@DV?$stream_output_adapter@D@__crt_stdio_output@@@2@@__crt_stdio_output@@AEAA_NXZ 000000018006e1d0 f i libucrtd:output.obj
 0001:0006d670       ?state_case_type@?$output_processor@DV?$stream_output_adapter@D@__crt_stdio_output@@V?$positional_parameter_base@DV?$stream_output_adapter@D@__crt_stdio_output@@@2@@__crt_stdio_output@@AEAA_NXZ 000000018006e670 f i libucrtd:output.obj
 0001:0006db10       ?state_case_type@?$output_processor@DV?$stream_output_adapter@D@__crt_stdio_output@@V?$standard_base@DV?$stream_output_adapter@D@__crt_stdio_output@@@2@@__crt_stdio_output@@AEAA_NXZ 000000018006eb10 f i libucrtd:output.obj
 0001:0006dfb0       ?state_case_type@?$output_processor@DV?$string_output_adapter@D@__crt_stdio_output@@V?$format_validation_base@DV?$string_output_adapter@D@__crt_stdio_output@@@2@@__crt_stdio_output@@AEAA_NXZ 000000018006efb0 f i libucrtd:output.obj
 0001:0006e450       ?state_case_type@?$output_processor@DV?$string_output_adapter@D@__crt_stdio_output@@V?$positional_parameter_base@DV?$string_output_adapter@D@__crt_stdio_output@@@2@@__crt_stdio_output@@AEAA_NXZ 000000018006f450 f i libucrtd:output.obj
 0001:0006e8f0       ?state_case_type@?$output_processor@DV?$string_output_adapter@D@__crt_stdio_output@@V?$standard_base@DV?$string_output_adapter@D@__crt_stdio_output@@@2@@__crt_stdio_output@@AEAA_NXZ 000000018006f8f0 f i libucrtd:output.obj
 0001:0006ed90       ?state_case_type@?$output_processor@_WV?$stream_output_adapter@_W@__crt_stdio_output@@V?$format_validation_base@_WV?$stream_output_adapter@_W@__crt_stdio_output@@@2@@__crt_stdio_output@@AEAA_NXZ 000000018006fd90 f i libucrtd:output.obj
 0001:0006f2f0       ?state_case_type@?$output_processor@_WV?$stream_output_adapter@_W@__crt_stdio_output@@V?$positional_parameter_base@_WV?$stream_output_adapter@_W@__crt_stdio_output@@@2@@__crt_stdio_output@@AEAA_NXZ 00000001800702f0 f i libucrtd:output.obj
 0001:0006f850       ?state_case_type@?$output_processor@_WV?$stream_output_adapter@_W@__crt_stdio_output@@V?$standard_base@_WV?$stream_output_adapter@_W@__crt_stdio_output@@@2@@__crt_stdio_output@@AEAA_NXZ 0000000180070850 f i libucrtd:output.obj
 0001:0006fdb0       ?state_case_type@?$output_processor@_WV?$string_output_adapter@_W@__crt_stdio_output@@V?$format_validation_base@_WV?$string_output_adapter@_W@__crt_stdio_output@@@2@@__crt_stdio_output@@AEAA_NXZ 0000000180070db0 f i libucrtd:output.obj
 0001:00070310       ?state_case_type@?$output_processor@_WV?$string_output_adapter@_W@__crt_stdio_output@@V?$positional_parameter_base@_WV?$string_output_adapter@_W@__crt_stdio_output@@@2@@__crt_stdio_output@@AEAA_NXZ 0000000180071310 f i libucrtd:output.obj
 0001:00070870       ?state_case_type@?$output_processor@_WV?$string_output_adapter@_W@__crt_stdio_output@@V?$standard_base@_WV?$string_output_adapter@_W@__crt_stdio_output@@@2@@__crt_stdio_output@@AEAA_NXZ 0000000180071870 f i libucrtd:output.obj
 0001:00070dd0       ?state_case_width@?$output_processor@DV?$stream_output_adapter@D@__crt_stdio_output@@V?$format_validation_base@DV?$stream_output_adapter@D@__crt_stdio_output@@@2@@__crt_stdio_output@@AEAA_NXZ 0000000180071dd0 f i libucrtd:output.obj
 0001:00070e60       ?state_case_width@?$output_processor@DV?$stream_output_adapter@D@__crt_stdio_output@@V?$positional_parameter_base@DV?$stream_output_adapter@D@__crt_stdio_output@@@2@@__crt_stdio_output@@AEAA_NXZ 0000000180071e60 f i libucrtd:output.obj
 0001:00070ef0       ?state_case_width@?$output_processor@DV?$stream_output_adapter@D@__crt_stdio_output@@V?$standard_base@DV?$stream_output_adapter@D@__crt_stdio_output@@@2@@__crt_stdio_output@@AEAA_NXZ 0000000180071ef0 f i libucrtd:output.obj
 0001:00070f80       ?state_case_width@?$output_processor@DV?$string_output_adapter@D@__crt_stdio_output@@V?$format_validation_base@DV?$string_output_adapter@D@__crt_stdio_output@@@2@@__crt_stdio_output@@AEAA_NXZ 0000000180071f80 f i libucrtd:output.obj
 0001:00071010       ?state_case_width@?$output_processor@DV?$string_output_adapter@D@__crt_stdio_output@@V?$positional_parameter_base@DV?$string_output_adapter@D@__crt_stdio_output@@@2@@__crt_stdio_output@@AEAA_NXZ 0000000180072010 f i libucrtd:output.obj
 0001:000710a0       ?state_case_width@?$output_processor@DV?$string_output_adapter@D@__crt_stdio_output@@V?$standard_base@DV?$string_output_adapter@D@__crt_stdio_output@@@2@@__crt_stdio_output@@AEAA_NXZ 00000001800720a0 f i libucrtd:output.obj
 0001:00071130       ?state_case_width@?$output_processor@_WV?$stream_output_adapter@_W@__crt_stdio_output@@V?$format_validation_base@_WV?$stream_output_adapter@_W@__crt_stdio_output@@@2@@__crt_stdio_output@@AEAA_NXZ 0000000180072130 f i libucrtd:output.obj
 0001:000711c0       ?state_case_width@?$output_processor@_WV?$stream_output_adapter@_W@__crt_stdio_output@@V?$positional_parameter_base@_WV?$stream_output_adapter@_W@__crt_stdio_output@@@2@@__crt_stdio_output@@AEAA_NXZ 00000001800721c0 f i libucrtd:output.obj
 0001:00071250       ?state_case_width@?$output_processor@_WV?$stream_output_adapter@_W@__crt_stdio_output@@V?$standard_base@_WV?$stream_output_adapter@_W@__crt_stdio_output@@@2@@__crt_stdio_output@@AEAA_NXZ 0000000180072250 f i libucrtd:output.obj
 0001:000712e0       ?state_case_width@?$output_processor@_WV?$string_output_adapter@_W@__crt_stdio_output@@V?$format_validation_base@_WV?$string_output_adapter@_W@__crt_stdio_output@@@2@@__crt_stdio_output@@AEAA_NXZ 00000001800722e0 f i libucrtd:output.obj
 0001:00071370       ?state_case_width@?$output_processor@_WV?$string_output_adapter@_W@__crt_stdio_output@@V?$positional_parameter_base@_WV?$string_output_adapter@_W@__crt_stdio_output@@@2@@__crt_stdio_output@@AEAA_NXZ 0000000180072370 f i libucrtd:output.obj
 0001:00071400       ?state_case_width@?$output_processor@_WV?$string_output_adapter@_W@__crt_stdio_output@@V?$standard_base@_WV?$string_output_adapter@_W@__crt_stdio_output@@@2@@__crt_stdio_output@@AEAA_NXZ 0000000180072400 f i libucrtd:output.obj
 0001:00071490       ?state_count@?$format_validation_base@DV?$stream_output_adapter@D@__crt_stdio_output@@@__crt_stdio_output@@KAIXZ 0000000180072490 f i libucrtd:output.obj
 0001:000714a0       ?state_count@?$format_validation_base@DV?$string_output_adapter@D@__crt_stdio_output@@@__crt_stdio_output@@KAIXZ 00000001800724a0 f i libucrtd:output.obj
 0001:000714b0       ?state_count@?$format_validation_base@_WV?$stream_output_adapter@_W@__crt_stdio_output@@@__crt_stdio_output@@KAIXZ 00000001800724b0 f i libucrtd:output.obj
 0001:000714c0       ?state_count@?$format_validation_base@_WV?$string_output_adapter@_W@__crt_stdio_output@@@__crt_stdio_output@@KAIXZ 00000001800724c0 f i libucrtd:output.obj
 0001:000714d0       ?state_count@?$standard_base@DV?$stream_output_adapter@D@__crt_stdio_output@@@__crt_stdio_output@@KAIXZ 00000001800724d0 f i libucrtd:output.obj
 0001:000714e0       ?state_count@?$standard_base@DV?$string_output_adapter@D@__crt_stdio_output@@@__crt_stdio_output@@KAIXZ 00000001800724e0 f i libucrtd:output.obj
 0001:000714f0       ?state_count@?$standard_base@_WV?$stream_output_adapter@_W@__crt_stdio_output@@@__crt_stdio_output@@KAIXZ 00000001800724f0 f i libucrtd:output.obj
 0001:00071500       ?state_count@?$standard_base@_WV?$string_output_adapter@_W@__crt_stdio_output@@@__crt_stdio_output@@KAIXZ 0000000180072500 f i libucrtd:output.obj
 0001:00071510       ?state_transition_table@?$format_validation_base@DV?$stream_output_adapter@D@__crt_stdio_output@@@__crt_stdio_output@@KAPEBEXZ 0000000180072510 f i libucrtd:output.obj
 0001:00071520       ?state_transition_table@?$format_validation_base@DV?$string_output_adapter@D@__crt_stdio_output@@@__crt_stdio_output@@KAPEBEXZ 0000000180072520 f i libucrtd:output.obj
 0001:00071530       ?state_transition_table@?$format_validation_base@_WV?$stream_output_adapter@_W@__crt_stdio_output@@@__crt_stdio_output@@KAPEBEXZ 0000000180072530 f i libucrtd:output.obj
 0001:00071540       ?state_transition_table@?$format_validation_base@_WV?$string_output_adapter@_W@__crt_stdio_output@@@__crt_stdio_output@@KAPEBEXZ 0000000180072540 f i libucrtd:output.obj
 0001:00071550       ?state_transition_table@?$standard_base@DV?$stream_output_adapter@D@__crt_stdio_output@@@__crt_stdio_output@@KAPEBEXZ 0000000180072550 f i libucrtd:output.obj
 0001:00071560       ?state_transition_table@?$standard_base@DV?$string_output_adapter@D@__crt_stdio_output@@@__crt_stdio_output@@KAPEBEXZ 0000000180072560 f i libucrtd:output.obj
 0001:00071570       ?state_transition_table@?$standard_base@_WV?$stream_output_adapter@_W@__crt_stdio_output@@@__crt_stdio_output@@KAPEBEXZ 0000000180072570 f i libucrtd:output.obj
 0001:00071580       ?state_transition_table@?$standard_base@_WV?$string_output_adapter@_W@__crt_stdio_output@@@__crt_stdio_output@@KAPEBEXZ 0000000180072580 f i libucrtd:output.obj
 0001:00071590       ?tchar_string@?$common_data@D@__crt_stdio_output@@IEAAAEAPEADD@Z 0000000180072590 f i libucrtd:output.obj
 0001:000715b0       ?tchar_string@?$common_data@D@__crt_stdio_output@@IEAAAEAPEADXZ 00000001800725b0 f i libucrtd:output.obj
 0001:000715d0       ?tchar_string@?$common_data@_W@__crt_stdio_output@@IEAAAEAPEA_WXZ 00000001800725d0 f i libucrtd:output.obj
 0001:000715f0       ?tchar_string@?$common_data@_W@__crt_stdio_output@@IEAAAEAPEA_W_W@Z 00000001800725f0 f i libucrtd:output.obj
 0001:00071610       ?to_integer_size@__crt_stdio_output@@YA_KW4length_modifier@1@@Z 0000000180072610 f i libucrtd:output.obj
 0001:000716c0       ?type_case_X@?$output_processor@DV?$stream_output_adapter@D@__crt_stdio_output@@V?$format_validation_base@DV?$stream_output_adapter@D@__crt_stdio_output@@@2@@__crt_stdio_output@@AEAA_NXZ 00000001800726c0 f i libucrtd:output.obj
 0001:000716e0       ?type_case_X@?$output_processor@DV?$stream_output_adapter@D@__crt_stdio_output@@V?$positional_parameter_base@DV?$stream_output_adapter@D@__crt_stdio_output@@@2@@__crt_stdio_output@@AEAA_NXZ 00000001800726e0 f i libucrtd:output.obj
 0001:00071700       ?type_case_X@?$output_processor@DV?$stream_output_adapter@D@__crt_stdio_output@@V?$standard_base@DV?$stream_output_adapter@D@__crt_stdio_output@@@2@@__crt_stdio_output@@AEAA_NXZ 0000000180072700 f i libucrtd:output.obj
 0001:00071720       ?type_case_X@?$output_processor@DV?$string_output_adapter@D@__crt_stdio_output@@V?$format_validation_base@DV?$string_output_adapter@D@__crt_stdio_output@@@2@@__crt_stdio_output@@AEAA_NXZ 0000000180072720 f i libucrtd:output.obj
 0001:00071740       ?type_case_X@?$output_processor@DV?$string_output_adapter@D@__crt_stdio_output@@V?$positional_parameter_base@DV?$string_output_adapter@D@__crt_stdio_output@@@2@@__crt_stdio_output@@AEAA_NXZ 0000000180072740 f i libucrtd:output.obj
 0001:00071760       ?type_case_X@?$output_processor@DV?$string_output_adapter@D@__crt_stdio_output@@V?$standard_base@DV?$string_output_adapter@D@__crt_stdio_output@@@2@@__crt_stdio_output@@AEAA_NXZ 0000000180072760 f i libucrtd:output.obj
 0001:00071780       ?type_case_X@?$output_processor@_WV?$stream_output_adapter@_W@__crt_stdio_output@@V?$format_validation_base@_WV?$stream_output_adapter@_W@__crt_stdio_output@@@2@@__crt_stdio_output@@AEAA_NXZ 0000000180072780 f i libucrtd:output.obj
 0001:000717a0       ?type_case_X@?$output_processor@_WV?$stream_output_adapter@_W@__crt_stdio_output@@V?$positional_parameter_base@_WV?$stream_output_adapter@_W@__crt_stdio_output@@@2@@__crt_stdio_output@@AEAA_NXZ 00000001800727a0 f i libucrtd:output.obj
 0001:000717c0       ?type_case_X@?$output_processor@_WV?$stream_output_adapter@_W@__crt_stdio_output@@V?$standard_base@_WV?$stream_output_adapter@_W@__crt_stdio_output@@@2@@__crt_stdio_output@@AEAA_NXZ 00000001800727c0 f i libucrtd:output.obj
 0001:000717e0       ?type_case_X@?$output_processor@_WV?$string_output_adapter@_W@__crt_stdio_output@@V?$format_validation_base@_WV?$string_output_adapter@_W@__crt_stdio_output@@@2@@__crt_stdio_output@@AEAA_NXZ 00000001800727e0 f i libucrtd:output.obj
 0001:00071800       ?type_case_X@?$output_processor@_WV?$string_output_adapter@_W@__crt_stdio_output@@V?$positional_parameter_base@_WV?$string_output_adapter@_W@__crt_stdio_output@@@2@@__crt_stdio_output@@AEAA_NXZ 0000000180072800 f i libucrtd:output.obj
 0001:00071820       ?type_case_X@?$output_processor@_WV?$string_output_adapter@_W@__crt_stdio_output@@V?$standard_base@_WV?$string_output_adapter@_W@__crt_stdio_output@@@2@@__crt_stdio_output@@AEAA_NXZ 0000000180072820 f i libucrtd:output.obj
 0001:00071840       ?type_case_Z@?$output_processor@DV?$stream_output_adapter@D@__crt_stdio_output@@V?$format_validation_base@DV?$stream_output_adapter@D@__crt_stdio_output@@@2@@__crt_stdio_output@@AEAA_NXZ 0000000180072840 f i libucrtd:output.obj
 0001:00071960       ?type_case_Z@?$output_processor@DV?$stream_output_adapter@D@__crt_stdio_output@@V?$positional_parameter_base@DV?$stream_output_adapter@D@__crt_stdio_output@@@2@@__crt_stdio_output@@AEAA_NXZ 0000000180072960 f i libucrtd:output.obj
 0001:00071a80       ?type_case_Z@?$output_processor@DV?$stream_output_adapter@D@__crt_stdio_output@@V?$standard_base@DV?$stream_output_adapter@D@__crt_stdio_output@@@2@@__crt_stdio_output@@AEAA_NXZ 0000000180072a80 f i libucrtd:output.obj
 0001:00071ba0       ?type_case_Z@?$output_processor@DV?$string_output_adapter@D@__crt_stdio_output@@V?$format_validation_base@DV?$string_output_adapter@D@__crt_stdio_output@@@2@@__crt_stdio_output@@AEAA_NXZ 0000000180072ba0 f i libucrtd:output.obj
 0001:00071cc0       ?type_case_Z@?$output_processor@DV?$string_output_adapter@D@__crt_stdio_output@@V?$positional_parameter_base@DV?$string_output_adapter@D@__crt_stdio_output@@@2@@__crt_stdio_output@@AEAA_NXZ 0000000180072cc0 f i libucrtd:output.obj
 0001:00071de0       ?type_case_Z@?$output_processor@DV?$string_output_adapter@D@__crt_stdio_output@@V?$standard_base@DV?$string_output_adapter@D@__crt_stdio_output@@@2@@__crt_stdio_output@@AEAA_NXZ 0000000180072de0 f i libucrtd:output.obj
 0001:00071f00       ?type_case_Z@?$output_processor@_WV?$stream_output_adapter@_W@__crt_stdio_output@@V?$format_validation_base@_WV?$stream_output_adapter@_W@__crt_stdio_output@@@2@@__crt_stdio_output@@AEAA_NXZ 0000000180072f00 f i libucrtd:output.obj
 0001:00072020       ?type_case_Z@?$output_processor@_WV?$stream_output_adapter@_W@__crt_stdio_output@@V?$positional_parameter_base@_WV?$stream_output_adapter@_W@__crt_stdio_output@@@2@@__crt_stdio_output@@AEAA_NXZ 0000000180073020 f i libucrtd:output.obj
 0001:00072140       ?type_case_Z@?$output_processor@_WV?$stream_output_adapter@_W@__crt_stdio_output@@V?$standard_base@_WV?$stream_output_adapter@_W@__crt_stdio_output@@@2@@__crt_stdio_output@@AEAA_NXZ 0000000180073140 f i libucrtd:output.obj
 0001:00072260       ?type_case_Z@?$output_processor@_WV?$string_output_adapter@_W@__crt_stdio_output@@V?$format_validation_base@_WV?$string_output_adapter@_W@__crt_stdio_output@@@2@@__crt_stdio_output@@AEAA_NXZ 0000000180073260 f i libucrtd:output.obj
 0001:00072380       ?type_case_Z@?$output_processor@_WV?$string_output_adapter@_W@__crt_stdio_output@@V?$positional_parameter_base@_WV?$string_output_adapter@_W@__crt_stdio_output@@@2@@__crt_stdio_output@@AEAA_NXZ 0000000180073380 f i libucrtd:output.obj
 0001:000724a0       ?type_case_Z@?$output_processor@_WV?$string_output_adapter@_W@__crt_stdio_output@@V?$standard_base@_WV?$string_output_adapter@_W@__crt_stdio_output@@@2@@__crt_stdio_output@@AEAA_NXZ 00000001800734a0 f i libucrtd:output.obj
 0001:000725c0       ?type_case_a@?$output_processor@DV?$stream_output_adapter@D@__crt_stdio_output@@V?$format_validation_base@DV?$stream_output_adapter@D@__crt_stdio_output@@@2@@__crt_stdio_output@@AEAA_NXZ 00000001800735c0 f i libucrtd:output.obj
 0001:00072980       ?type_case_a@?$output_processor@DV?$stream_output_adapter@D@__crt_stdio_output@@V?$positional_parameter_base@DV?$stream_output_adapter@D@__crt_stdio_output@@@2@@__crt_stdio_output@@AEAA_NXZ 0000000180073980 f i libucrtd:output.obj
 0001:00072d40       ?type_case_a@?$output_processor@DV?$stream_output_adapter@D@__crt_stdio_output@@V?$standard_base@DV?$stream_output_adapter@D@__crt_stdio_output@@@2@@__crt_stdio_output@@AEAA_NXZ 0000000180073d40 f i libucrtd:output.obj
 0001:00073100       ?type_case_a@?$output_processor@DV?$string_output_adapter@D@__crt_stdio_output@@V?$format_validation_base@DV?$string_output_adapter@D@__crt_stdio_output@@@2@@__crt_stdio_output@@AEAA_NXZ 0000000180074100 f i libucrtd:output.obj
 0001:000734c0       ?type_case_a@?$output_processor@DV?$string_output_adapter@D@__crt_stdio_output@@V?$positional_parameter_base@DV?$string_output_adapter@D@__crt_stdio_output@@@2@@__crt_stdio_output@@AEAA_NXZ 00000001800744c0 f i libucrtd:output.obj
 0001:00073880       ?type_case_a@?$output_processor@DV?$string_output_adapter@D@__crt_stdio_output@@V?$standard_base@DV?$string_output_adapter@D@__crt_stdio_output@@@2@@__crt_stdio_output@@AEAA_NXZ 0000000180074880 f i libucrtd:output.obj
 0001:00073c40       ?type_case_a@?$output_processor@_WV?$stream_output_adapter@_W@__crt_stdio_output@@V?$format_validation_base@_WV?$stream_output_adapter@_W@__crt_stdio_output@@@2@@__crt_stdio_output@@AEAA_NXZ 0000000180074c40 f i libucrtd:output.obj
 0001:00074010       ?type_case_a@?$output_processor@_WV?$stream_output_adapter@_W@__crt_stdio_output@@V?$positional_parameter_base@_WV?$stream_output_adapter@_W@__crt_stdio_output@@@2@@__crt_stdio_output@@AEAA_NXZ 0000000180075010 f i libucrtd:output.obj
 0001:000743e0       ?type_case_a@?$output_processor@_WV?$stream_output_adapter@_W@__crt_stdio_output@@V?$standard_base@_WV?$stream_output_adapter@_W@__crt_stdio_output@@@2@@__crt_stdio_output@@AEAA_NXZ 00000001800753e0 f i libucrtd:output.obj
 0001:000747b0       ?type_case_a@?$output_processor@_WV?$string_output_adapter@_W@__crt_stdio_output@@V?$format_validation_base@_WV?$string_output_adapter@_W@__crt_stdio_output@@@2@@__crt_stdio_output@@AEAA_NXZ 00000001800757b0 f i libucrtd:output.obj
 0001:00074b80       ?type_case_a@?$output_processor@_WV?$string_output_adapter@_W@__crt_stdio_output@@V?$positional_parameter_base@_WV?$string_output_adapter@_W@__crt_stdio_output@@@2@@__crt_stdio_output@@AEAA_NXZ 0000000180075b80 f i libucrtd:output.obj
 0001:00074f50       ?type_case_a@?$output_processor@_WV?$string_output_adapter@_W@__crt_stdio_output@@V?$standard_base@_WV?$string_output_adapter@_W@__crt_stdio_output@@@2@@__crt_stdio_output@@AEAA_NXZ 0000000180075f50 f i libucrtd:output.obj
 0001:00075320       ?type_case_c@?$output_processor@DV?$stream_output_adapter@D@__crt_stdio_output@@V?$format_validation_base@DV?$stream_output_adapter@D@__crt_stdio_output@@@2@@__crt_stdio_output@@AEAA_NXZ 0000000180076320 f i libucrtd:output.obj
 0001:00075340       ?type_case_c@?$output_processor@DV?$stream_output_adapter@D@__crt_stdio_output@@V?$positional_parameter_base@DV?$stream_output_adapter@D@__crt_stdio_output@@@2@@__crt_stdio_output@@AEAA_NXZ 0000000180076340 f i libucrtd:output.obj
 0001:00075360       ?type_case_c@?$output_processor@DV?$stream_output_adapter@D@__crt_stdio_output@@V?$standard_base@DV?$stream_output_adapter@D@__crt_stdio_output@@@2@@__crt_stdio_output@@AEAA_NXZ 0000000180076360 f i libucrtd:output.obj
 0001:00075380       ?type_case_c@?$output_processor@DV?$string_output_adapter@D@__crt_stdio_output@@V?$format_validation_base@DV?$string_output_adapter@D@__crt_stdio_output@@@2@@__crt_stdio_output@@AEAA_NXZ 0000000180076380 f i libucrtd:output.obj
 0001:000753a0       ?type_case_c@?$output_processor@DV?$string_output_adapter@D@__crt_stdio_output@@V?$positional_parameter_base@DV?$string_output_adapter@D@__crt_stdio_output@@@2@@__crt_stdio_output@@AEAA_NXZ 00000001800763a0 f i libucrtd:output.obj
 0001:000753c0       ?type_case_c@?$output_processor@DV?$string_output_adapter@D@__crt_stdio_output@@V?$standard_base@DV?$string_output_adapter@D@__crt_stdio_output@@@2@@__crt_stdio_output@@AEAA_NXZ 00000001800763c0 f i libucrtd:output.obj
 0001:000753e0       ?type_case_c@?$output_processor@_WV?$stream_output_adapter@_W@__crt_stdio_output@@V?$format_validation_base@_WV?$stream_output_adapter@_W@__crt_stdio_output@@@2@@__crt_stdio_output@@AEAA_NXZ 00000001800763e0 f i libucrtd:output.obj
 0001:00075400       ?type_case_c@?$output_processor@_WV?$stream_output_adapter@_W@__crt_stdio_output@@V?$positional_parameter_base@_WV?$stream_output_adapter@_W@__crt_stdio_output@@@2@@__crt_stdio_output@@AEAA_NXZ 0000000180076400 f i libucrtd:output.obj
 0001:00075420       ?type_case_c@?$output_processor@_WV?$stream_output_adapter@_W@__crt_stdio_output@@V?$standard_base@_WV?$stream_output_adapter@_W@__crt_stdio_output@@@2@@__crt_stdio_output@@AEAA_NXZ 0000000180076420 f i libucrtd:output.obj
 0001:00075440       ?type_case_c@?$output_processor@_WV?$string_output_adapter@_W@__crt_stdio_output@@V?$format_validation_base@_WV?$string_output_adapter@_W@__crt_stdio_output@@@2@@__crt_stdio_output@@AEAA_NXZ 0000000180076440 f i libucrtd:output.obj
 0001:00075460       ?type_case_c@?$output_processor@_WV?$string_output_adapter@_W@__crt_stdio_output@@V?$positional_parameter_base@_WV?$string_output_adapter@_W@__crt_stdio_output@@@2@@__crt_stdio_output@@AEAA_NXZ 0000000180076460 f i libucrtd:output.obj
 0001:00075480       ?type_case_c@?$output_processor@_WV?$string_output_adapter@_W@__crt_stdio_output@@V?$standard_base@_WV?$string_output_adapter@_W@__crt_stdio_output@@@2@@__crt_stdio_output@@AEAA_NXZ 0000000180076480 f i libucrtd:output.obj
 0001:000754a0       ?type_case_c_tchar@?$output_processor@DV?$stream_output_adapter@D@__crt_stdio_output@@V?$format_validation_base@DV?$stream_output_adapter@D@__crt_stdio_output@@@2@@__crt_stdio_output@@AEAA_ND@Z 00000001800764a0 f i libucrtd:output.obj
 0001:000755f0       ?type_case_c_tchar@?$output_processor@DV?$stream_output_adapter@D@__crt_stdio_output@@V?$positional_parameter_base@DV?$stream_output_adapter@D@__crt_stdio_output@@@2@@__crt_stdio_output@@AEAA_ND@Z 00000001800765f0 f i libucrtd:output.obj
 0001:00075740       ?type_case_c_tchar@?$output_processor@DV?$stream_output_adapter@D@__crt_stdio_output@@V?$standard_base@DV?$stream_output_adapter@D@__crt_stdio_output@@@2@@__crt_stdio_output@@AEAA_ND@Z 0000000180076740 f i libucrtd:output.obj
 0001:00075890       ?type_case_c_tchar@?$output_processor@DV?$string_output_adapter@D@__crt_stdio_output@@V?$format_validation_base@DV?$string_output_adapter@D@__crt_stdio_output@@@2@@__crt_stdio_output@@AEAA_ND@Z 0000000180076890 f i libucrtd:output.obj
 0001:000759e0       ?type_case_c_tchar@?$output_processor@DV?$string_output_adapter@D@__crt_stdio_output@@V?$positional_parameter_base@DV?$string_output_adapter@D@__crt_stdio_output@@@2@@__crt_stdio_output@@AEAA_ND@Z 00000001800769e0 f i libucrtd:output.obj
 0001:00075b30       ?type_case_c_tchar@?$output_processor@DV?$string_output_adapter@D@__crt_stdio_output@@V?$standard_base@DV?$string_output_adapter@D@__crt_stdio_output@@@2@@__crt_stdio_output@@AEAA_ND@Z 0000000180076b30 f i libucrtd:output.obj
 0001:00075c80       ?type_case_c_tchar@?$output_processor@_WV?$stream_output_adapter@_W@__crt_stdio_output@@V?$format_validation_base@_WV?$stream_output_adapter@_W@__crt_stdio_output@@@2@@__crt_stdio_output@@AEAA_N_W@Z 0000000180076c80 f i libucrtd:output.obj
 0001:00075db0       ?type_case_c_tchar@?$output_processor@_WV?$stream_output_adapter@_W@__crt_stdio_output@@V?$positional_parameter_base@_WV?$stream_output_adapter@_W@__crt_stdio_output@@@2@@__crt_stdio_output@@AEAA_N_W@Z 0000000180076db0 f i libucrtd:output.obj
 0001:00075ee0       ?type_case_c_tchar@?$output_processor@_WV?$stream_output_adapter@_W@__crt_stdio_output@@V?$standard_base@_WV?$stream_output_adapter@_W@__crt_stdio_output@@@2@@__crt_stdio_output@@AEAA_N_W@Z 0000000180076ee0 f i libucrtd:output.obj
 0001:00076010       ?type_case_c_tchar@?$output_processor@_WV?$string_output_adapter@_W@__crt_stdio_output@@V?$format_validation_base@_WV?$string_output_adapter@_W@__crt_stdio_output@@@2@@__crt_stdio_output@@AEAA_N_W@Z 0000000180077010 f i libucrtd:output.obj
 0001:00076140       ?type_case_c_tchar@?$output_processor@_WV?$string_output_adapter@_W@__crt_stdio_output@@V?$positional_parameter_base@_WV?$string_output_adapter@_W@__crt_stdio_output@@@2@@__crt_stdio_output@@AEAA_N_W@Z 0000000180077140 f i libucrtd:output.obj
 0001:00076270       ?type_case_c_tchar@?$output_processor@_WV?$string_output_adapter@_W@__crt_stdio_output@@V?$standard_base@_WV?$string_output_adapter@_W@__crt_stdio_output@@@2@@__crt_stdio_output@@AEAA_N_W@Z 0000000180077270 f i libucrtd:output.obj
 0001:000763a0       ?type_case_d@?$output_processor@DV?$stream_output_adapter@D@__crt_stdio_output@@V?$format_validation_base@DV?$stream_output_adapter@D@__crt_stdio_output@@@2@@__crt_stdio_output@@AEAA_NXZ 00000001800773a0 f i libucrtd:output.obj
 0001:000763d0       ?type_case_d@?$output_processor@DV?$stream_output_adapter@D@__crt_stdio_output@@V?$positional_parameter_base@DV?$stream_output_adapter@D@__crt_stdio_output@@@2@@__crt_stdio_output@@AEAA_NXZ 00000001800773d0 f i libucrtd:output.obj
 0001:00076400       ?type_case_d@?$output_processor@DV?$stream_output_adapter@D@__crt_stdio_output@@V?$standard_base@DV?$stream_output_adapter@D@__crt_stdio_output@@@2@@__crt_stdio_output@@AEAA_NXZ 0000000180077400 f i libucrtd:output.obj
 0001:00076430       ?type_case_d@?$output_processor@DV?$string_output_adapter@D@__crt_stdio_output@@V?$format_validation_base@DV?$string_output_adapter@D@__crt_stdio_output@@@2@@__crt_stdio_output@@AEAA_NXZ 0000000180077430 f i libucrtd:output.obj
 0001:00076460       ?type_case_d@?$output_processor@DV?$string_output_adapter@D@__crt_stdio_output@@V?$positional_parameter_base@DV?$string_output_adapter@D@__crt_stdio_output@@@2@@__crt_stdio_output@@AEAA_NXZ 0000000180077460 f i libucrtd:output.obj
 0001:00076490       ?type_case_d@?$output_processor@DV?$string_output_adapter@D@__crt_stdio_output@@V?$standard_base@DV?$string_output_adapter@D@__crt_stdio_output@@@2@@__crt_stdio_output@@AEAA_NXZ 0000000180077490 f i libucrtd:output.obj
 0001:000764c0       ?type_case_d@?$output_processor@_WV?$stream_output_adapter@_W@__crt_stdio_output@@V?$format_validation_base@_WV?$stream_output_adapter@_W@__crt_stdio_output@@@2@@__crt_stdio_output@@AEAA_NXZ 00000001800774c0 f i libucrtd:output.obj
 0001:000764f0       ?type_case_d@?$output_processor@_WV?$stream_output_adapter@_W@__crt_stdio_output@@V?$positional_parameter_base@_WV?$stream_output_adapter@_W@__crt_stdio_output@@@2@@__crt_stdio_output@@AEAA_NXZ 00000001800774f0 f i libucrtd:output.obj
 0001:00076520       ?type_case_d@?$output_processor@_WV?$stream_output_adapter@_W@__crt_stdio_output@@V?$standard_base@_WV?$stream_output_adapter@_W@__crt_stdio_output@@@2@@__crt_stdio_output@@AEAA_NXZ 0000000180077520 f i libucrtd:output.obj
 0001:00076550       ?type_case_d@?$output_processor@_WV?$string_output_adapter@_W@__crt_stdio_output@@V?$format_validation_base@_WV?$string_output_adapter@_W@__crt_stdio_output@@@2@@__crt_stdio_output@@AEAA_NXZ 0000000180077550 f i libucrtd:output.obj
 0001:00076580       ?type_case_d@?$output_processor@_WV?$string_output_adapter@_W@__crt_stdio_output@@V?$positional_parameter_base@_WV?$string_output_adapter@_W@__crt_stdio_output@@@2@@__crt_stdio_output@@AEAA_NXZ 0000000180077580 f i libucrtd:output.obj
 0001:000765b0       ?type_case_d@?$output_processor@_WV?$string_output_adapter@_W@__crt_stdio_output@@V?$standard_base@_WV?$string_output_adapter@_W@__crt_stdio_output@@@2@@__crt_stdio_output@@AEAA_NXZ 00000001800775b0 f i libucrtd:output.obj
 0001:000765e0       ?type_case_integer@?$output_processor@DV?$stream_output_adapter@D@__crt_stdio_output@@V?$format_validation_base@DV?$stream_output_adapter@D@__crt_stdio_output@@@2@@__crt_stdio_output@@AEAA_NI_N@Z 00000001800775e0 f i libucrtd:output.obj
 0001:00076a30       ?type_case_integer@?$output_processor@DV?$stream_output_adapter@D@__crt_stdio_output@@V?$positional_parameter_base@DV?$stream_output_adapter@D@__crt_stdio_output@@@2@@__crt_stdio_output@@AEAA_NI_N@Z 0000000180077a30 f i libucrtd:output.obj
 0001:00076e80       ?type_case_integer@?$output_processor@DV?$stream_output_adapter@D@__crt_stdio_output@@V?$standard_base@DV?$stream_output_adapter@D@__crt_stdio_output@@@2@@__crt_stdio_output@@AEAA_NI_N@Z 0000000180077e80 f i libucrtd:output.obj
 0001:000772d0       ?type_case_integer@?$output_processor@DV?$string_output_adapter@D@__crt_stdio_output@@V?$format_validation_base@DV?$string_output_adapter@D@__crt_stdio_output@@@2@@__crt_stdio_output@@AEAA_NI_N@Z 00000001800782d0 f i libucrtd:output.obj
 0001:00077720       ?type_case_integer@?$output_processor@DV?$string_output_adapter@D@__crt_stdio_output@@V?$positional_parameter_base@DV?$string_output_adapter@D@__crt_stdio_output@@@2@@__crt_stdio_output@@AEAA_NI_N@Z 0000000180078720 f i libucrtd:output.obj
 0001:00077b70       ?type_case_integer@?$output_processor@DV?$string_output_adapter@D@__crt_stdio_output@@V?$standard_base@DV?$string_output_adapter@D@__crt_stdio_output@@@2@@__crt_stdio_output@@AEAA_NI_N@Z 0000000180078b70 f i libucrtd:output.obj
 0001:00077fc0       ?type_case_integer@?$output_processor@_WV?$stream_output_adapter@_W@__crt_stdio_output@@V?$format_validation_base@_WV?$stream_output_adapter@_W@__crt_stdio_output@@@2@@__crt_stdio_output@@AEAA_NI_N@Z 0000000180078fc0 f i libucrtd:output.obj
 0001:00078410       ?type_case_integer@?$output_processor@_WV?$stream_output_adapter@_W@__crt_stdio_output@@V?$positional_parameter_base@_WV?$stream_output_adapter@_W@__crt_stdio_output@@@2@@__crt_stdio_output@@AEAA_NI_N@Z 0000000180079410 f i libucrtd:output.obj
 0001:00078860       ?type_case_integer@?$output_processor@_WV?$stream_output_adapter@_W@__crt_stdio_output@@V?$standard_base@_WV?$stream_output_adapter@_W@__crt_stdio_output@@@2@@__crt_stdio_output@@AEAA_NI_N@Z 0000000180079860 f i libucrtd:output.obj
 0001:00078cb0       ?type_case_integer@?$output_processor@_WV?$string_output_adapter@_W@__crt_stdio_output@@V?$format_validation_base@_WV?$string_output_adapter@_W@__crt_stdio_output@@@2@@__crt_stdio_output@@AEAA_NI_N@Z 0000000180079cb0 f i libucrtd:output.obj
 0001:00079100       ?type_case_integer@?$output_processor@_WV?$string_output_adapter@_W@__crt_stdio_output@@V?$positional_parameter_base@_WV?$string_output_adapter@_W@__crt_stdio_output@@@2@@__crt_stdio_output@@AEAA_NI_N@Z 000000018007a100 f i libucrtd:output.obj
 0001:00079550       ?type_case_integer@?$output_processor@_WV?$string_output_adapter@_W@__crt_stdio_output@@V?$standard_base@_WV?$string_output_adapter@_W@__crt_stdio_output@@@2@@__crt_stdio_output@@AEAA_NI_N@Z 000000018007a550 f i libucrtd:output.obj
 0001:000799a0       ?type_case_n@?$output_processor@DV?$stream_output_adapter@D@__crt_stdio_output@@V?$format_validation_base@DV?$stream_output_adapter@D@__crt_stdio_output@@@2@@__crt_stdio_output@@AEAA_NXZ 000000018007a9a0 f i libucrtd:output.obj
 0001:00079be0       ?type_case_n@?$output_processor@DV?$stream_output_adapter@D@__crt_stdio_output@@V?$positional_parameter_base@DV?$stream_output_adapter@D@__crt_stdio_output@@@2@@__crt_stdio_output@@AEAA_NXZ 000000018007abe0 f i libucrtd:output.obj
 0001:00079e20       ?type_case_n@?$output_processor@DV?$stream_output_adapter@D@__crt_stdio_output@@V?$standard_base@DV?$stream_output_adapter@D@__crt_stdio_output@@@2@@__crt_stdio_output@@AEAA_NXZ 000000018007ae20 f i libucrtd:output.obj
 0001:0007a060       ?type_case_n@?$output_processor@DV?$string_output_adapter@D@__crt_stdio_output@@V?$format_validation_base@DV?$string_output_adapter@D@__crt_stdio_output@@@2@@__crt_stdio_output@@AEAA_NXZ 000000018007b060 f i libucrtd:output.obj
 0001:0007a2a0       ?type_case_n@?$output_processor@DV?$string_output_adapter@D@__crt_stdio_output@@V?$positional_parameter_base@DV?$string_output_adapter@D@__crt_stdio_output@@@2@@__crt_stdio_output@@AEAA_NXZ 000000018007b2a0 f i libucrtd:output.obj
 0001:0007a4e0       ?type_case_n@?$output_processor@DV?$string_output_adapter@D@__crt_stdio_output@@V?$standard_base@DV?$string_output_adapter@D@__crt_stdio_output@@@2@@__crt_stdio_output@@AEAA_NXZ 000000018007b4e0 f i libucrtd:output.obj
 0001:0007a720       ?type_case_n@?$output_processor@_WV?$stream_output_adapter@_W@__crt_stdio_output@@V?$format_validation_base@_WV?$stream_output_adapter@_W@__crt_stdio_output@@@2@@__crt_stdio_output@@AEAA_NXZ 000000018007b720 f i libucrtd:output.obj
 0001:0007a960       ?type_case_n@?$output_processor@_WV?$stream_output_adapter@_W@__crt_stdio_output@@V?$positional_parameter_base@_WV?$stream_output_adapter@_W@__crt_stdio_output@@@2@@__crt_stdio_output@@AEAA_NXZ 000000018007b960 f i libucrtd:output.obj
 0001:0007aba0       ?type_case_n@?$output_processor@_WV?$stream_output_adapter@_W@__crt_stdio_output@@V?$standard_base@_WV?$stream_output_adapter@_W@__crt_stdio_output@@@2@@__crt_stdio_output@@AEAA_NXZ 000000018007bba0 f i libucrtd:output.obj
 0001:0007ade0       ?type_case_n@?$output_processor@_WV?$string_output_adapter@_W@__crt_stdio_output@@V?$format_validation_base@_WV?$string_output_adapter@_W@__crt_stdio_output@@@2@@__crt_stdio_output@@AEAA_NXZ 000000018007bde0 f i libucrtd:output.obj
 0001:0007b020       ?type_case_n@?$output_processor@_WV?$string_output_adapter@_W@__crt_stdio_output@@V?$positional_parameter_base@_WV?$string_output_adapter@_W@__crt_stdio_output@@@2@@__crt_stdio_output@@AEAA_NXZ 000000018007c020 f i libucrtd:output.obj
 0001:0007b260       ?type_case_n@?$output_processor@_WV?$string_output_adapter@_W@__crt_stdio_output@@V?$standard_base@_WV?$string_output_adapter@_W@__crt_stdio_output@@@2@@__crt_stdio_output@@AEAA_NXZ 000000018007c260 f i libucrtd:output.obj
 0001:0007b4a0       ?type_case_o@?$output_processor@DV?$stream_output_adapter@D@__crt_stdio_output@@V?$format_validation_base@DV?$stream_output_adapter@D@__crt_stdio_output@@@2@@__crt_stdio_output@@AEAA_NXZ 000000018007c4a0 f i libucrtd:output.obj
 0001:0007b4f0       ?type_case_o@?$output_processor@DV?$stream_output_adapter@D@__crt_stdio_output@@V?$positional_parameter_base@DV?$stream_output_adapter@D@__crt_stdio_output@@@2@@__crt_stdio_output@@AEAA_NXZ 000000018007c4f0 f i libucrtd:output.obj
 0001:0007b540       ?type_case_o@?$output_processor@DV?$stream_output_adapter@D@__crt_stdio_output@@V?$standard_base@DV?$stream_output_adapter@D@__crt_stdio_output@@@2@@__crt_stdio_output@@AEAA_NXZ 000000018007c540 f i libucrtd:output.obj
 0001:0007b590       ?type_case_o@?$output_processor@DV?$string_output_adapter@D@__crt_stdio_output@@V?$format_validation_base@DV?$string_output_adapter@D@__crt_stdio_output@@@2@@__crt_stdio_output@@AEAA_NXZ 000000018007c590 f i libucrtd:output.obj
 0001:0007b5e0       ?type_case_o@?$output_processor@DV?$string_output_adapter@D@__crt_stdio_output@@V?$positional_parameter_base@DV?$string_output_adapter@D@__crt_stdio_output@@@2@@__crt_stdio_output@@AEAA_NXZ 000000018007c5e0 f i libucrtd:output.obj
 0001:0007b630       ?type_case_o@?$output_processor@DV?$string_output_adapter@D@__crt_stdio_output@@V?$standard_base@DV?$string_output_adapter@D@__crt_stdio_output@@@2@@__crt_stdio_output@@AEAA_NXZ 000000018007c630 f i libucrtd:output.obj
 0001:0007b680       ?type_case_o@?$output_processor@_WV?$stream_output_adapter@_W@__crt_stdio_output@@V?$format_validation_base@_WV?$stream_output_adapter@_W@__crt_stdio_output@@@2@@__crt_stdio_output@@AEAA_NXZ 000000018007c680 f i libucrtd:output.obj
 0001:0007b6d0       ?type_case_o@?$output_processor@_WV?$stream_output_adapter@_W@__crt_stdio_output@@V?$positional_parameter_base@_WV?$stream_output_adapter@_W@__crt_stdio_output@@@2@@__crt_stdio_output@@AEAA_NXZ 000000018007c6d0 f i libucrtd:output.obj
 0001:0007b720       ?type_case_o@?$output_processor@_WV?$stream_output_adapter@_W@__crt_stdio_output@@V?$standard_base@_WV?$stream_output_adapter@_W@__crt_stdio_output@@@2@@__crt_stdio_output@@AEAA_NXZ 000000018007c720 f i libucrtd:output.obj
 0001:0007b770       ?type_case_o@?$output_processor@_WV?$string_output_adapter@_W@__crt_stdio_output@@V?$format_validation_base@_WV?$string_output_adapter@_W@__crt_stdio_output@@@2@@__crt_stdio_output@@AEAA_NXZ 000000018007c770 f i libucrtd:output.obj
 0001:0007b7c0       ?type_case_o@?$output_processor@_WV?$string_output_adapter@_W@__crt_stdio_output@@V?$positional_parameter_base@_WV?$string_output_adapter@_W@__crt_stdio_output@@@2@@__crt_stdio_output@@AEAA_NXZ 000000018007c7c0 f i libucrtd:output.obj
 0001:0007b810       ?type_case_o@?$output_processor@_WV?$string_output_adapter@_W@__crt_stdio_output@@V?$standard_base@_WV?$string_output_adapter@_W@__crt_stdio_output@@@2@@__crt_stdio_output@@AEAA_NXZ 000000018007c810 f i libucrtd:output.obj
 0001:0007b860       ?type_case_p@?$output_processor@DV?$stream_output_adapter@D@__crt_stdio_output@@V?$format_validation_base@DV?$stream_output_adapter@D@__crt_stdio_output@@@2@@__crt_stdio_output@@AEAA_NXZ 000000018007c860 f i libucrtd:output.obj
 0001:0007b8a0       ?type_case_p@?$output_processor@DV?$stream_output_adapter@D@__crt_stdio_output@@V?$positional_parameter_base@DV?$stream_output_adapter@D@__crt_stdio_output@@@2@@__crt_stdio_output@@AEAA_NXZ 000000018007c8a0 f i libucrtd:output.obj
 0001:0007b8e0       ?type_case_p@?$output_processor@DV?$stream_output_adapter@D@__crt_stdio_output@@V?$standard_base@DV?$stream_output_adapter@D@__crt_stdio_output@@@2@@__crt_stdio_output@@AEAA_NXZ 000000018007c8e0 f i libucrtd:output.obj
 0001:0007b920       ?type_case_p@?$output_processor@DV?$string_output_adapter@D@__crt_stdio_output@@V?$format_validation_base@DV?$string_output_adapter@D@__crt_stdio_output@@@2@@__crt_stdio_output@@AEAA_NXZ 000000018007c920 f i libucrtd:output.obj
 0001:0007b960       ?type_case_p@?$output_processor@DV?$string_output_adapter@D@__crt_stdio_output@@V?$positional_parameter_base@DV?$string_output_adapter@D@__crt_stdio_output@@@2@@__crt_stdio_output@@AEAA_NXZ 000000018007c960 f i libucrtd:output.obj
 0001:0007b9a0       ?type_case_p@?$output_processor@DV?$string_output_adapter@D@__crt_stdio_output@@V?$standard_base@DV?$string_output_adapter@D@__crt_stdio_output@@@2@@__crt_stdio_output@@AEAA_NXZ 000000018007c9a0 f i libucrtd:output.obj
 0001:0007b9e0       ?type_case_p@?$output_processor@_WV?$stream_output_adapter@_W@__crt_stdio_output@@V?$format_validation_base@_WV?$stream_output_adapter@_W@__crt_stdio_output@@@2@@__crt_stdio_output@@AEAA_NXZ 000000018007c9e0 f i libucrtd:output.obj
 0001:0007ba20       ?type_case_p@?$output_processor@_WV?$stream_output_adapter@_W@__crt_stdio_output@@V?$positional_parameter_base@_WV?$stream_output_adapter@_W@__crt_stdio_output@@@2@@__crt_stdio_output@@AEAA_NXZ 000000018007ca20 f i libucrtd:output.obj
 0001:0007ba60       ?type_case_p@?$output_processor@_WV?$stream_output_adapter@_W@__crt_stdio_output@@V?$standard_base@_WV?$stream_output_adapter@_W@__crt_stdio_output@@@2@@__crt_stdio_output@@AEAA_NXZ 000000018007ca60 f i libucrtd:output.obj
 0001:0007baa0       ?type_case_p@?$output_processor@_WV?$string_output_adapter@_W@__crt_stdio_output@@V?$format_validation_base@_WV?$string_output_adapter@_W@__crt_stdio_output@@@2@@__crt_stdio_output@@AEAA_NXZ 000000018007caa0 f i libucrtd:output.obj
 0001:0007bae0       ?type_case_p@?$output_processor@_WV?$string_output_adapter@_W@__crt_stdio_output@@V?$positional_parameter_base@_WV?$string_output_adapter@_W@__crt_stdio_output@@@2@@__crt_stdio_output@@AEAA_NXZ 000000018007cae0 f i libucrtd:output.obj
 0001:0007bb20       ?type_case_p@?$output_processor@_WV?$string_output_adapter@_W@__crt_stdio_output@@V?$standard_base@_WV?$string_output_adapter@_W@__crt_stdio_output@@@2@@__crt_stdio_output@@AEAA_NXZ 000000018007cb20 f i libucrtd:output.obj
 0001:0007bb60       ?type_case_s@?$output_processor@DV?$stream_output_adapter@D@__crt_stdio_output@@V?$format_validation_base@DV?$stream_output_adapter@D@__crt_stdio_output@@@2@@__crt_stdio_output@@AEAA_NXZ 000000018007cb60 f i libucrtd:output.obj
 0001:0007bc80       ?type_case_s@?$output_processor@DV?$stream_output_adapter@D@__crt_stdio_output@@V?$positional_parameter_base@DV?$stream_output_adapter@D@__crt_stdio_output@@@2@@__crt_stdio_output@@AEAA_NXZ 000000018007cc80 f i libucrtd:output.obj
 0001:0007bda0       ?type_case_s@?$output_processor@DV?$stream_output_adapter@D@__crt_stdio_output@@V?$standard_base@DV?$stream_output_adapter@D@__crt_stdio_output@@@2@@__crt_stdio_output@@AEAA_NXZ 000000018007cda0 f i libucrtd:output.obj
 0001:0007bec0       ?type_case_s@?$output_processor@DV?$string_output_adapter@D@__crt_stdio_output@@V?$format_validation_base@DV?$string_output_adapter@D@__crt_stdio_output@@@2@@__crt_stdio_output@@AEAA_NXZ 000000018007cec0 f i libucrtd:output.obj
 0001:0007bfe0       ?type_case_s@?$output_processor@DV?$string_output_adapter@D@__crt_stdio_output@@V?$positional_parameter_base@DV?$string_output_adapter@D@__crt_stdio_output@@@2@@__crt_stdio_output@@AEAA_NXZ 000000018007cfe0 f i libucrtd:output.obj
 0001:0007c100       ?type_case_s@?$output_processor@DV?$string_output_adapter@D@__crt_stdio_output@@V?$standard_base@DV?$string_output_adapter@D@__crt_stdio_output@@@2@@__crt_stdio_output@@AEAA_NXZ 000000018007d100 f i libucrtd:output.obj
 0001:0007c220       ?type_case_s@?$output_processor@_WV?$stream_output_adapter@_W@__crt_stdio_output@@V?$format_validation_base@_WV?$stream_output_adapter@_W@__crt_stdio_output@@@2@@__crt_stdio_output@@AEAA_NXZ 000000018007d220 f i libucrtd:output.obj
 0001:0007c340       ?type_case_s@?$output_processor@_WV?$stream_output_adapter@_W@__crt_stdio_output@@V?$positional_parameter_base@_WV?$stream_output_adapter@_W@__crt_stdio_output@@@2@@__crt_stdio_output@@AEAA_NXZ 000000018007d340 f i libucrtd:output.obj
 0001:0007c460       ?type_case_s@?$output_processor@_WV?$stream_output_adapter@_W@__crt_stdio_output@@V?$standard_base@_WV?$stream_output_adapter@_W@__crt_stdio_output@@@2@@__crt_stdio_output@@AEAA_NXZ 000000018007d460 f i libucrtd:output.obj
 0001:0007c580       ?type_case_s@?$output_processor@_WV?$string_output_adapter@_W@__crt_stdio_output@@V?$format_validation_base@_WV?$string_output_adapter@_W@__crt_stdio_output@@@2@@__crt_stdio_output@@AEAA_NXZ 000000018007d580 f i libucrtd:output.obj
 0001:0007c6a0       ?type_case_s@?$output_processor@_WV?$string_output_adapter@_W@__crt_stdio_output@@V?$positional_parameter_base@_WV?$string_output_adapter@_W@__crt_stdio_output@@@2@@__crt_stdio_output@@AEAA_NXZ 000000018007d6a0 f i libucrtd:output.obj
 0001:0007c7c0       ?type_case_s@?$output_processor@_WV?$string_output_adapter@_W@__crt_stdio_output@@V?$standard_base@_WV?$string_output_adapter@_W@__crt_stdio_output@@@2@@__crt_stdio_output@@AEAA_NXZ 000000018007d7c0 f i libucrtd:output.obj
 0001:0007c8e0       ?type_case_s_compute_narrow_string_length@?$output_processor@DV?$stream_output_adapter@D@__crt_stdio_output@@V?$format_validation_base@DV?$stream_output_adapter@D@__crt_stdio_output@@@2@@__crt_stdio_output@@AEBAHHD@Z 000000018007d8e0 f i libucrtd:output.obj
 0001:0007c910       ?type_case_s_compute_narrow_string_length@?$output_processor@DV?$stream_output_adapter@D@__crt_stdio_output@@V?$positional_parameter_base@DV?$stream_output_adapter@D@__crt_stdio_output@@@2@@__crt_stdio_output@@AEBAHHD@Z 000000018007d910 f i libucrtd:output.obj
 0001:0007c940       ?type_case_s_compute_narrow_string_length@?$output_processor@DV?$stream_output_adapter@D@__crt_stdio_output@@V?$standard_base@DV?$stream_output_adapter@D@__crt_stdio_output@@@2@@__crt_stdio_output@@AEBAHHD@Z 000000018007d940 f i libucrtd:output.obj
 0001:0007c970       ?type_case_s_compute_narrow_string_length@?$output_processor@DV?$string_output_adapter@D@__crt_stdio_output@@V?$format_validation_base@DV?$string_output_adapter@D@__crt_stdio_output@@@2@@__crt_stdio_output@@AEBAHHD@Z 000000018007d970 f i libucrtd:output.obj
 0001:0007c9a0       ?type_case_s_compute_narrow_string_length@?$output_processor@DV?$string_output_adapter@D@__crt_stdio_output@@V?$positional_parameter_base@DV?$string_output_adapter@D@__crt_stdio_output@@@2@@__crt_stdio_output@@AEBAHHD@Z 000000018007d9a0 f i libucrtd:output.obj
 0001:0007c9d0       ?type_case_s_compute_narrow_string_length@?$output_processor@DV?$string_output_adapter@D@__crt_stdio_output@@V?$standard_base@DV?$string_output_adapter@D@__crt_stdio_output@@@2@@__crt_stdio_output@@AEBAHHD@Z 000000018007d9d0 f i libucrtd:output.obj
 0001:0007ca00       ?type_case_s_compute_narrow_string_length@?$output_processor@_WV?$stream_output_adapter@_W@__crt_stdio_output@@V?$format_validation_base@_WV?$stream_output_adapter@_W@__crt_stdio_output@@@2@@__crt_stdio_output@@AEBAHH_W@Z 000000018007da00 f i libucrtd:output.obj
 0001:0007ca90       ?type_case_s_compute_narrow_string_length@?$output_processor@_WV?$stream_output_adapter@_W@__crt_stdio_output@@V?$positional_parameter_base@_WV?$stream_output_adapter@_W@__crt_stdio_output@@@2@@__crt_stdio_output@@AEBAHH_W@Z 000000018007da90 f i libucrtd:output.obj
 0001:0007cb20       ?type_case_s_compute_narrow_string_length@?$output_processor@_WV?$stream_output_adapter@_W@__crt_stdio_output@@V?$standard_base@_WV?$stream_output_adapter@_W@__crt_stdio_output@@@2@@__crt_stdio_output@@AEBAHH_W@Z 000000018007db20 f i libucrtd:output.obj
 0001:0007cbb0       ?type_case_s_compute_narrow_string_length@?$output_processor@_WV?$string_output_adapter@_W@__crt_stdio_output@@V?$format_validation_base@_WV?$string_output_adapter@_W@__crt_stdio_output@@@2@@__crt_stdio_output@@AEBAHH_W@Z 000000018007dbb0 f i libucrtd:output.obj
 0001:0007cc40       ?type_case_s_compute_narrow_string_length@?$output_processor@_WV?$string_output_adapter@_W@__crt_stdio_output@@V?$positional_parameter_base@_WV?$string_output_adapter@_W@__crt_stdio_output@@@2@@__crt_stdio_output@@AEBAHH_W@Z 000000018007dc40 f i libucrtd:output.obj
 0001:0007ccd0       ?type_case_s_compute_narrow_string_length@?$output_processor@_WV?$string_output_adapter@_W@__crt_stdio_output@@V?$standard_base@_WV?$string_output_adapter@_W@__crt_stdio_output@@@2@@__crt_stdio_output@@AEBAHH_W@Z 000000018007dcd0 f i libucrtd:output.obj
 0001:0007cd60       ?type_case_u@?$output_processor@DV?$stream_output_adapter@D@__crt_stdio_output@@V?$format_validation_base@DV?$stream_output_adapter@D@__crt_stdio_output@@@2@@__crt_stdio_output@@AEAA_NXZ 000000018007dd60 f i libucrtd:output.obj
 0001:0007cd80       ?type_case_u@?$output_processor@DV?$stream_output_adapter@D@__crt_stdio_output@@V?$positional_parameter_base@DV?$stream_output_adapter@D@__crt_stdio_output@@@2@@__crt_stdio_output@@AEAA_NXZ 000000018007dd80 f i libucrtd:output.obj
 0001:0007cda0       ?type_case_u@?$output_processor@DV?$stream_output_adapter@D@__crt_stdio_output@@V?$standard_base@DV?$stream_output_adapter@D@__crt_stdio_output@@@2@@__crt_stdio_output@@AEAA_NXZ 000000018007dda0 f i libucrtd:output.obj
 0001:0007cdc0       ?type_case_u@?$output_processor@DV?$string_output_adapter@D@__crt_stdio_output@@V?$format_validation_base@DV?$string_output_adapter@D@__crt_stdio_output@@@2@@__crt_stdio_output@@AEAA_NXZ 000000018007ddc0 f i libucrtd:output.obj
 0001:0007cde0       ?type_case_u@?$output_processor@DV?$string_output_adapter@D@__crt_stdio_output@@V?$positional_parameter_base@DV?$string_output_adapter@D@__crt_stdio_output@@@2@@__crt_stdio_output@@AEAA_NXZ 000000018007dde0 f i libucrtd:output.obj
 0001:0007ce00       ?type_case_u@?$output_processor@DV?$string_output_adapter@D@__crt_stdio_output@@V?$standard_base@DV?$string_output_adapter@D@__crt_stdio_output@@@2@@__crt_stdio_output@@AEAA_NXZ 000000018007de00 f i libucrtd:output.obj
 0001:0007ce20       ?type_case_u@?$output_processor@_WV?$stream_output_adapter@_W@__crt_stdio_output@@V?$format_validation_base@_WV?$stream_output_adapter@_W@__crt_stdio_output@@@2@@__crt_stdio_output@@AEAA_NXZ 000000018007de20 f i libucrtd:output.obj
 0001:0007ce40       ?type_case_u@?$output_processor@_WV?$stream_output_adapter@_W@__crt_stdio_output@@V?$positional_parameter_base@_WV?$stream_output_adapter@_W@__crt_stdio_output@@@2@@__crt_stdio_output@@AEAA_NXZ 000000018007de40 f i libucrtd:output.obj
 0001:0007ce60       ?type_case_u@?$output_processor@_WV?$stream_output_adapter@_W@__crt_stdio_output@@V?$standard_base@_WV?$stream_output_adapter@_W@__crt_stdio_output@@@2@@__crt_stdio_output@@AEAA_NXZ 000000018007de60 f i libucrtd:output.obj
 0001:0007ce80       ?type_case_u@?$output_processor@_WV?$string_output_adapter@_W@__crt_stdio_output@@V?$format_validation_base@_WV?$string_output_adapter@_W@__crt_stdio_output@@@2@@__crt_stdio_output@@AEAA_NXZ 000000018007de80 f i libucrtd:output.obj
 0001:0007cea0       ?type_case_u@?$output_processor@_WV?$string_output_adapter@_W@__crt_stdio_output@@V?$positional_parameter_base@_WV?$string_output_adapter@_W@__crt_stdio_output@@@2@@__crt_stdio_output@@AEAA_NXZ 000000018007dea0 f i libucrtd:output.obj
 0001:0007cec0       ?type_case_u@?$output_processor@_WV?$string_output_adapter@_W@__crt_stdio_output@@V?$standard_base@_WV?$string_output_adapter@_W@__crt_stdio_output@@@2@@__crt_stdio_output@@AEAA_NXZ 000000018007dec0 f i libucrtd:output.obj
 0001:0007cee0       ?type_case_x@?$output_processor@DV?$stream_output_adapter@D@__crt_stdio_output@@V?$format_validation_base@DV?$stream_output_adapter@D@__crt_stdio_output@@@2@@__crt_stdio_output@@AEAA_NXZ 000000018007dee0 f i libucrtd:output.obj
 0001:0007cf00       ?type_case_x@?$output_processor@DV?$stream_output_adapter@D@__crt_stdio_output@@V?$positional_parameter_base@DV?$stream_output_adapter@D@__crt_stdio_output@@@2@@__crt_stdio_output@@AEAA_NXZ 000000018007df00 f i libucrtd:output.obj
 0001:0007cf20       ?type_case_x@?$output_processor@DV?$stream_output_adapter@D@__crt_stdio_output@@V?$standard_base@DV?$stream_output_adapter@D@__crt_stdio_output@@@2@@__crt_stdio_output@@AEAA_NXZ 000000018007df20 f i libucrtd:output.obj
 0001:0007cf40       ?type_case_x@?$output_processor@DV?$string_output_adapter@D@__crt_stdio_output@@V?$format_validation_base@DV?$string_output_adapter@D@__crt_stdio_output@@@2@@__crt_stdio_output@@AEAA_NXZ 000000018007df40 f i libucrtd:output.obj
 0001:0007cf60       ?type_case_x@?$output_processor@DV?$string_output_adapter@D@__crt_stdio_output@@V?$positional_parameter_base@DV?$string_output_adapter@D@__crt_stdio_output@@@2@@__crt_stdio_output@@AEAA_NXZ 000000018007df60 f i libucrtd:output.obj
 0001:0007cf80       ?type_case_x@?$output_processor@DV?$string_output_adapter@D@__crt_stdio_output@@V?$standard_base@DV?$string_output_adapter@D@__crt_stdio_output@@@2@@__crt_stdio_output@@AEAA_NXZ 000000018007df80 f i libucrtd:output.obj
 0001:0007cfa0       ?type_case_x@?$output_processor@_WV?$stream_output_adapter@_W@__crt_stdio_output@@V?$format_validation_base@_WV?$stream_output_adapter@_W@__crt_stdio_output@@@2@@__crt_stdio_output@@AEAA_NXZ 000000018007dfa0 f i libucrtd:output.obj
 0001:0007cfc0       ?type_case_x@?$output_processor@_WV?$stream_output_adapter@_W@__crt_stdio_output@@V?$positional_parameter_base@_WV?$stream_output_adapter@_W@__crt_stdio_output@@@2@@__crt_stdio_output@@AEAA_NXZ 000000018007dfc0 f i libucrtd:output.obj
 0001:0007cfe0       ?type_case_x@?$output_processor@_WV?$stream_output_adapter@_W@__crt_stdio_output@@V?$standard_base@_WV?$stream_output_adapter@_W@__crt_stdio_output@@@2@@__crt_stdio_output@@AEAA_NXZ 000000018007dfe0 f i libucrtd:output.obj
 0001:0007d000       ?type_case_x@?$output_processor@_WV?$string_output_adapter@_W@__crt_stdio_output@@V?$format_validation_base@_WV?$string_output_adapter@_W@__crt_stdio_output@@@2@@__crt_stdio_output@@AEAA_NXZ 000000018007e000 f i libucrtd:output.obj
 0001:0007d020       ?type_case_x@?$output_processor@_WV?$string_output_adapter@_W@__crt_stdio_output@@V?$positional_parameter_base@_WV?$string_output_adapter@_W@__crt_stdio_output@@@2@@__crt_stdio_output@@AEAA_NXZ 000000018007e020 f i libucrtd:output.obj
 0001:0007d040       ?type_case_x@?$output_processor@_WV?$string_output_adapter@_W@__crt_stdio_output@@V?$standard_base@_WV?$string_output_adapter@_W@__crt_stdio_output@@@2@@__crt_stdio_output@@AEAA_NXZ 000000018007e040 f i libucrtd:output.obj
 0001:0007d060       ?unset_flag@?$output_processor@DV?$stream_output_adapter@D@__crt_stdio_output@@V?$format_validation_base@DV?$stream_output_adapter@D@__crt_stdio_output@@@2@@__crt_stdio_output@@AEAAXI@Z 000000018007e060 f i libucrtd:output.obj
 0001:0007d090       ?unset_flag@?$output_processor@DV?$stream_output_adapter@D@__crt_stdio_output@@V?$positional_parameter_base@DV?$stream_output_adapter@D@__crt_stdio_output@@@2@@__crt_stdio_output@@AEAAXI@Z 000000018007e090 f i libucrtd:output.obj
 0001:0007d0c0       ?unset_flag@?$output_processor@DV?$stream_output_adapter@D@__crt_stdio_output@@V?$standard_base@DV?$stream_output_adapter@D@__crt_stdio_output@@@2@@__crt_stdio_output@@AEAAXI@Z 000000018007e0c0 f i libucrtd:output.obj
 0001:0007d0f0       ?unset_flag@?$output_processor@DV?$string_output_adapter@D@__crt_stdio_output@@V?$format_validation_base@DV?$string_output_adapter@D@__crt_stdio_output@@@2@@__crt_stdio_output@@AEAAXI@Z 000000018007e0f0 f i libucrtd:output.obj
 0001:0007d120       ?unset_flag@?$output_processor@DV?$string_output_adapter@D@__crt_stdio_output@@V?$positional_parameter_base@DV?$string_output_adapter@D@__crt_stdio_output@@@2@@__crt_stdio_output@@AEAAXI@Z 000000018007e120 f i libucrtd:output.obj
 0001:0007d150       ?unset_flag@?$output_processor@DV?$string_output_adapter@D@__crt_stdio_output@@V?$standard_base@DV?$string_output_adapter@D@__crt_stdio_output@@@2@@__crt_stdio_output@@AEAAXI@Z 000000018007e150 f i libucrtd:output.obj
 0001:0007d180       ?unset_flag@?$output_processor@_WV?$stream_output_adapter@_W@__crt_stdio_output@@V?$format_validation_base@_WV?$stream_output_adapter@_W@__crt_stdio_output@@@2@@__crt_stdio_output@@AEAAXI@Z 000000018007e180 f i libucrtd:output.obj
 0001:0007d1b0       ?unset_flag@?$output_processor@_WV?$stream_output_adapter@_W@__crt_stdio_output@@V?$positional_parameter_base@_WV?$stream_output_adapter@_W@__crt_stdio_output@@@2@@__crt_stdio_output@@AEAAXI@Z 000000018007e1b0 f i libucrtd:output.obj
 0001:0007d1e0       ?unset_flag@?$output_processor@_WV?$stream_output_adapter@_W@__crt_stdio_output@@V?$standard_base@_WV?$stream_output_adapter@_W@__crt_stdio_output@@@2@@__crt_stdio_output@@AEAAXI@Z 000000018007e1e0 f i libucrtd:output.obj
 0001:0007d210       ?unset_flag@?$output_processor@_WV?$string_output_adapter@_W@__crt_stdio_output@@V?$format_validation_base@_WV?$string_output_adapter@_W@__crt_stdio_output@@@2@@__crt_stdio_output@@AEAAXI@Z 000000018007e210 f i libucrtd:output.obj
 0001:0007d240       ?unset_flag@?$output_processor@_WV?$string_output_adapter@_W@__crt_stdio_output@@V?$positional_parameter_base@_WV?$string_output_adapter@_W@__crt_stdio_output@@@2@@__crt_stdio_output@@AEAAXI@Z 000000018007e240 f i libucrtd:output.obj
 0001:0007d270       ?unset_flag@?$output_processor@_WV?$string_output_adapter@_W@__crt_stdio_output@@V?$standard_base@_WV?$string_output_adapter@_W@__crt_stdio_output@@@2@@__crt_stdio_output@@AEAAXI@Z 000000018007e270 f i libucrtd:output.obj
 0001:0007d2a0       ?update_field_width@?$positional_parameter_base@DV?$stream_output_adapter@D@__crt_stdio_output@@@__crt_stdio_output@@IEAA_NXZ 000000018007e2a0 f i libucrtd:output.obj
 0001:0007d490       ?update_field_width@?$positional_parameter_base@DV?$string_output_adapter@D@__crt_stdio_output@@@__crt_stdio_output@@IEAA_NXZ 000000018007e490 f i libucrtd:output.obj
 0001:0007d680       ?update_field_width@?$positional_parameter_base@_WV?$stream_output_adapter@_W@__crt_stdio_output@@@__crt_stdio_output@@IEAA_NXZ 000000018007e680 f i libucrtd:output.obj
 0001:0007d870       ?update_field_width@?$positional_parameter_base@_WV?$string_output_adapter@_W@__crt_stdio_output@@@__crt_stdio_output@@IEAA_NXZ 000000018007e870 f i libucrtd:output.obj
 0001:0007da60       ?update_field_width@?$standard_base@DV?$stream_output_adapter@D@__crt_stdio_output@@@__crt_stdio_output@@IEAA_NXZ 000000018007ea60 f i libucrtd:output.obj
 0001:0007da90       ?update_field_width@?$standard_base@DV?$string_output_adapter@D@__crt_stdio_output@@@__crt_stdio_output@@IEAA_NXZ 000000018007ea90 f i libucrtd:output.obj
 0001:0007dac0       ?update_field_width@?$standard_base@_WV?$stream_output_adapter@_W@__crt_stdio_output@@@__crt_stdio_output@@IEAA_NXZ 000000018007eac0 f i libucrtd:output.obj
 0001:0007daf0       ?update_field_width@?$standard_base@_WV?$string_output_adapter@_W@__crt_stdio_output@@@__crt_stdio_output@@IEAA_NXZ 000000018007eaf0 f i libucrtd:output.obj
 0001:0007db20       ?update_precision@?$positional_parameter_base@DV?$stream_output_adapter@D@__crt_stdio_output@@@__crt_stdio_output@@IEAA_NXZ 000000018007eb20 f i libucrtd:output.obj
 0001:0007dd10       ?update_precision@?$positional_parameter_base@DV?$string_output_adapter@D@__crt_stdio_output@@@__crt_stdio_output@@IEAA_NXZ 000000018007ed10 f i libucrtd:output.obj
 0001:0007df00       ?update_precision@?$positional_parameter_base@_WV?$stream_output_adapter@_W@__crt_stdio_output@@@__crt_stdio_output@@IEAA_NXZ 000000018007ef00 f i libucrtd:output.obj
 0001:0007e0f0       ?update_precision@?$positional_parameter_base@_WV?$string_output_adapter@_W@__crt_stdio_output@@@__crt_stdio_output@@IEAA_NXZ 000000018007f0f0 f i libucrtd:output.obj
 0001:0007e2e0       ?update_precision@?$standard_base@DV?$stream_output_adapter@D@__crt_stdio_output@@@__crt_stdio_output@@IEAA_NXZ 000000018007f2e0 f i libucrtd:output.obj
 0001:0007e310       ?update_precision@?$standard_base@DV?$string_output_adapter@D@__crt_stdio_output@@@__crt_stdio_output@@IEAA_NXZ 000000018007f310 f i libucrtd:output.obj
 0001:0007e340       ?update_precision@?$standard_base@_WV?$stream_output_adapter@_W@__crt_stdio_output@@@__crt_stdio_output@@IEAA_NXZ 000000018007f340 f i libucrtd:output.obj
 0001:0007e370       ?update_precision@?$standard_base@_WV?$string_output_adapter@_W@__crt_stdio_output@@@__crt_stdio_output@@IEAA_NXZ 000000018007f370 f i libucrtd:output.obj
 0001:0007e3a0       ?valid@__crt_stdio_stream@@QEBA_NXZ 000000018007f3a0 f i libucrtd:output.obj
 0001:0007e3d0       ?validate@?$stream_output_adapter@D@__crt_stdio_output@@QEBA_NXZ 000000018007f3d0 f i libucrtd:output.obj
 0001:0007e4b0       ?validate@?$stream_output_adapter@_W@__crt_stdio_output@@QEBA_NXZ 000000018007f4b0 f i libucrtd:output.obj
 0001:0007e590       ?validate@?$string_output_adapter@D@__crt_stdio_output@@QEBA_NXZ 000000018007f590 f i libucrtd:output.obj
 0001:0007e650       ?validate@?$string_output_adapter@_W@__crt_stdio_output@@QEBA_NXZ 000000018007f650 f i libucrtd:output.obj
 0001:0007e710       ?validate_and_store_parameter_data@?$positional_parameter_base@DV?$stream_output_adapter@D@__crt_stdio_output@@@__crt_stdio_output@@AEAA_NAEAUparameter_data@12@W4parameter_type@12@DW4length_modifier@2@@Z 000000018007f710 f i libucrtd:output.obj
 0001:0007e830       ?validate_and_store_parameter_data@?$positional_parameter_base@DV?$string_output_adapter@D@__crt_stdio_output@@@__crt_stdio_output@@AEAA_NAEAUparameter_data@12@W4parameter_type@12@DW4length_modifier@2@@Z 000000018007f830 f i libucrtd:output.obj
 0001:0007e950       ?validate_and_store_parameter_data@?$positional_parameter_base@_WV?$stream_output_adapter@_W@__crt_stdio_output@@@__crt_stdio_output@@AEAA_NAEAUparameter_data@12@W4parameter_type@12@_WW4length_modifier@2@@Z 000000018007f950 f i libucrtd:output.obj
 0001:0007ea70       ?validate_and_store_parameter_data@?$positional_parameter_base@_WV?$string_output_adapter@_W@__crt_stdio_output@@@__crt_stdio_output@@AEAA_NAEAUparameter_data@12@W4parameter_type@12@_WW4length_modifier@2@@Z 000000018007fa70 f i libucrtd:output.obj
 0001:0007eb90       ?validate_and_update_state_at_beginning_of_format_character@?$positional_parameter_base@DV?$stream_output_adapter@D@__crt_stdio_output@@@__crt_stdio_output@@IEAA_NXZ 000000018007fb90 f i libucrtd:output.obj
 0001:0007ee70       ?validate_and_update_state_at_beginning_of_format_character@?$positional_parameter_base@DV?$string_output_adapter@D@__crt_stdio_output@@@__crt_stdio_output@@IEAA_NXZ 000000018007fe70 f i libucrtd:output.obj
 0001:0007f150       ?validate_and_update_state_at_beginning_of_format_character@?$positional_parameter_base@_WV?$stream_output_adapter@_W@__crt_stdio_output@@@__crt_stdio_output@@IEAA_NXZ 0000000180080150 f i libucrtd:output.obj
 0001:0007f430       ?validate_and_update_state_at_beginning_of_format_character@?$positional_parameter_base@_WV?$string_output_adapter@_W@__crt_stdio_output@@@__crt_stdio_output@@IEAA_NXZ 0000000180080430 f i libucrtd:output.obj
 0001:0007f710       ?validate_and_update_state_at_beginning_of_format_character@?$standard_base@DV?$stream_output_adapter@D@__crt_stdio_output@@@__crt_stdio_output@@IEAA_NXZ 0000000180080710 f i libucrtd:output.obj
 0001:0007f720       ?validate_and_update_state_at_beginning_of_format_character@?$standard_base@DV?$string_output_adapter@D@__crt_stdio_output@@@__crt_stdio_output@@IEAA_NXZ 0000000180080720 f i libucrtd:output.obj
 0001:0007f730       ?validate_and_update_state_at_beginning_of_format_character@?$standard_base@_WV?$stream_output_adapter@_W@__crt_stdio_output@@@__crt_stdio_output@@IEAA_NXZ 0000000180080730 f i libucrtd:output.obj
 0001:0007f740       ?validate_and_update_state_at_beginning_of_format_character@?$standard_base@_WV?$string_output_adapter@_W@__crt_stdio_output@@@__crt_stdio_output@@IEAA_NXZ 0000000180080740 f i libucrtd:output.obj
 0001:0007f750       ?validate_and_update_state_at_end_of_format_string@?$format_validation_base@DV?$stream_output_adapter@D@__crt_stdio_output@@@__crt_stdio_output@@IEBA_NXZ 0000000180080750 f i libucrtd:output.obj
 0001:0007f810       ?validate_and_update_state_at_end_of_format_string@?$format_validation_base@DV?$string_output_adapter@D@__crt_stdio_output@@@__crt_stdio_output@@IEBA_NXZ 0000000180080810 f i libucrtd:output.obj
 0001:0007f8d0       ?validate_and_update_state_at_end_of_format_string@?$format_validation_base@_WV?$stream_output_adapter@_W@__crt_stdio_output@@@__crt_stdio_output@@IEBA_NXZ 00000001800808d0 f i libucrtd:output.obj
 0001:0007f990       ?validate_and_update_state_at_end_of_format_string@?$format_validation_base@_WV?$string_output_adapter@_W@__crt_stdio_output@@@__crt_stdio_output@@IEBA_NXZ 0000000180080990 f i libucrtd:output.obj
 0001:0007fa50       ?validate_and_update_state_at_end_of_format_string@?$positional_parameter_base@DV?$stream_output_adapter@D@__crt_stdio_output@@@__crt_stdio_output@@IEAA_NXZ 0000000180080a50 f i libucrtd:output.obj
 0001:0007fc40       ?validate_and_update_state_at_end_of_format_string@?$positional_parameter_base@DV?$string_output_adapter@D@__crt_stdio_output@@@__crt_stdio_output@@IEAA_NXZ 0000000180080c40 f i libucrtd:output.obj
 0001:0007fe30       ?validate_and_update_state_at_end_of_format_string@?$positional_parameter_base@_WV?$stream_output_adapter@_W@__crt_stdio_output@@@__crt_stdio_output@@IEAA_NXZ 0000000180080e30 f i libucrtd:output.obj
 0001:00080020       ?validate_and_update_state_at_end_of_format_string@?$positional_parameter_base@_WV?$string_output_adapter@_W@__crt_stdio_output@@@__crt_stdio_output@@IEAA_NXZ 0000000180081020 f i libucrtd:output.obj
 0001:00080210       ?validate_and_update_state_at_end_of_format_string@?$standard_base@DV?$stream_output_adapter@D@__crt_stdio_output@@@__crt_stdio_output@@IEBA_NXZ 0000000180081210 f i libucrtd:output.obj
 0001:00080220       ?validate_and_update_state_at_end_of_format_string@?$standard_base@DV?$string_output_adapter@D@__crt_stdio_output@@@__crt_stdio_output@@IEBA_NXZ 0000000180081220 f i libucrtd:output.obj
 0001:00080230       ?validate_and_update_state_at_end_of_format_string@?$standard_base@_WV?$stream_output_adapter@_W@__crt_stdio_output@@@__crt_stdio_output@@IEBA_NXZ 0000000180081230 f i libucrtd:output.obj
 0001:00080240       ?validate_and_update_state_at_end_of_format_string@?$standard_base@_WV?$string_output_adapter@_W@__crt_stdio_output@@@__crt_stdio_output@@IEBA_NXZ 0000000180081240 f i libucrtd:output.obj
 0001:00080250       ?validate_state_for_type_case_a@?$positional_parameter_base@DV?$stream_output_adapter@D@__crt_stdio_output@@@__crt_stdio_output@@IEAA_NXZ 0000000180081250 f i libucrtd:output.obj
 0001:00080390       ?validate_state_for_type_case_a@?$positional_parameter_base@DV?$string_output_adapter@D@__crt_stdio_output@@@__crt_stdio_output@@IEAA_NXZ 0000000180081390 f i libucrtd:output.obj
 0001:000804d0       ?validate_state_for_type_case_a@?$positional_parameter_base@_WV?$stream_output_adapter@_W@__crt_stdio_output@@@__crt_stdio_output@@IEAA_NXZ 00000001800814d0 f i libucrtd:output.obj
 0001:00080610       ?validate_state_for_type_case_a@?$positional_parameter_base@_WV?$string_output_adapter@_W@__crt_stdio_output@@@__crt_stdio_output@@IEAA_NXZ 0000000180081610 f i libucrtd:output.obj
 0001:00080750       ?validate_state_for_type_case_a@?$standard_base@DV?$stream_output_adapter@D@__crt_stdio_output@@@__crt_stdio_output@@IEBA_NXZ 0000000180081750 f i libucrtd:output.obj
 0001:00080760       ?validate_state_for_type_case_a@?$standard_base@DV?$string_output_adapter@D@__crt_stdio_output@@@__crt_stdio_output@@IEBA_NXZ 0000000180081760 f i libucrtd:output.obj
 0001:00080770       ?validate_state_for_type_case_a@?$standard_base@_WV?$stream_output_adapter@_W@__crt_stdio_output@@@__crt_stdio_output@@IEBA_NXZ 0000000180081770 f i libucrtd:output.obj
 0001:00080780       ?validate_state_for_type_case_a@?$standard_base@_WV?$string_output_adapter@_W@__crt_stdio_output@@@__crt_stdio_output@@IEBA_NXZ 0000000180081780 f i libucrtd:output.obj
 0001:00080790       ?validate_stream_is_ansi_if_required@?$__acrt_stdio_char_traits@D@@SA_NQEAU_iobuf@@@Z 0000000180081790 f i libucrtd:output.obj
 0001:00080920       ?validate_stream_is_ansi_if_required@?$__acrt_stdio_char_traits@_W@@SA_NQEAU_iobuf@@@Z 0000000180081920 f i libucrtd:output.obj
 0001:00080930       ?wide_null_string@?$output_processor@DV?$stream_output_adapter@D@__crt_stdio_output@@V?$format_validation_base@DV?$stream_output_adapter@D@__crt_stdio_output@@@2@@__crt_stdio_output@@CAPEA_WXZ 0000000180081930 f i libucrtd:output.obj
 0001:00080940       ?wide_null_string@?$output_processor@DV?$stream_output_adapter@D@__crt_stdio_output@@V?$positional_parameter_base@DV?$stream_output_adapter@D@__crt_stdio_output@@@2@@__crt_stdio_output@@CAPEA_WXZ 0000000180081940 f i libucrtd:output.obj
 0001:00080950       ?wide_null_string@?$output_processor@DV?$stream_output_adapter@D@__crt_stdio_output@@V?$standard_base@DV?$stream_output_adapter@D@__crt_stdio_output@@@2@@__crt_stdio_output@@CAPEA_WXZ 0000000180081950 f i libucrtd:output.obj
 0001:00080960       ?wide_null_string@?$output_processor@DV?$string_output_adapter@D@__crt_stdio_output@@V?$format_validation_base@DV?$string_output_adapter@D@__crt_stdio_output@@@2@@__crt_stdio_output@@CAPEA_WXZ 0000000180081960 f i libucrtd:output.obj
 0001:00080970       ?wide_null_string@?$output_processor@DV?$string_output_adapter@D@__crt_stdio_output@@V?$positional_parameter_base@DV?$string_output_adapter@D@__crt_stdio_output@@@2@@__crt_stdio_output@@CAPEA_WXZ 0000000180081970 f i libucrtd:output.obj
 0001:00080980       ?wide_null_string@?$output_processor@DV?$string_output_adapter@D@__crt_stdio_output@@V?$standard_base@DV?$string_output_adapter@D@__crt_stdio_output@@@2@@__crt_stdio_output@@CAPEA_WXZ 0000000180081980 f i libucrtd:output.obj
 0001:00080990       ?wide_null_string@?$output_processor@_WV?$stream_output_adapter@_W@__crt_stdio_output@@V?$format_validation_base@_WV?$stream_output_adapter@_W@__crt_stdio_output@@@2@@__crt_stdio_output@@CAPEA_WXZ 0000000180081990 f i libucrtd:output.obj
 0001:000809a0       ?wide_null_string@?$output_processor@_WV?$stream_output_adapter@_W@__crt_stdio_output@@V?$positional_parameter_base@_WV?$stream_output_adapter@_W@__crt_stdio_output@@@2@@__crt_stdio_output@@CAPEA_WXZ 00000001800819a0 f i libucrtd:output.obj
 0001:000809b0       ?wide_null_string@?$output_processor@_WV?$stream_output_adapter@_W@__crt_stdio_output@@V?$standard_base@_WV?$stream_output_adapter@_W@__crt_stdio_output@@@2@@__crt_stdio_output@@CAPEA_WXZ 00000001800819b0 f i libucrtd:output.obj
 0001:000809c0       ?wide_null_string@?$output_processor@_WV?$string_output_adapter@_W@__crt_stdio_output@@V?$format_validation_base@_WV?$string_output_adapter@_W@__crt_stdio_output@@@2@@__crt_stdio_output@@CAPEA_WXZ 00000001800819c0 f i libucrtd:output.obj
 0001:000809d0       ?wide_null_string@?$output_processor@_WV?$string_output_adapter@_W@__crt_stdio_output@@V?$positional_parameter_base@_WV?$string_output_adapter@_W@__crt_stdio_output@@@2@@__crt_stdio_output@@CAPEA_WXZ 00000001800819d0 f i libucrtd:output.obj
 0001:000809e0       ?wide_null_string@?$output_processor@_WV?$string_output_adapter@_W@__crt_stdio_output@@V?$standard_base@_WV?$string_output_adapter@_W@__crt_stdio_output@@@2@@__crt_stdio_output@@CAPEA_WXZ 00000001800819e0 f i libucrtd:output.obj
 0001:000809f0       ?write_character@?$output_adapter_common@DV?$stream_output_adapter@D@__crt_stdio_output@@@__crt_stdio_output@@QEBAXDQEAH@Z 00000001800819f0 f i libucrtd:output.obj
 0001:00080a40       ?write_character@?$output_adapter_common@_WV?$stream_output_adapter@_W@__crt_stdio_output@@@__crt_stdio_output@@QEBAX_WQEAH@Z 0000000180081a40 f i libucrtd:output.obj
 0001:00080a90       ?write_character@?$string_output_adapter@D@__crt_stdio_output@@QEBA_NDQEAH@Z 0000000180081a90 f i libucrtd:output.obj
 0001:00080b50       ?write_character@?$string_output_adapter@_W@__crt_stdio_output@@QEBA_N_WQEAH@Z 0000000180081b50 f i libucrtd:output.obj
 0001:00080c10       ?write_character_without_count_update@?$stream_output_adapter@D@__crt_stdio_output@@QEBA_ND@Z 0000000180081c10 f i libucrtd:output.obj
 0001:00080c90       ?write_character_without_count_update@?$stream_output_adapter@_W@__crt_stdio_output@@QEBA_N_W@Z 0000000180081c90 f i libucrtd:output.obj
 0001:00080d20       ?write_stored_string_tchar@?$output_processor@DV?$stream_output_adapter@D@__crt_stdio_output@@V?$format_validation_base@DV?$stream_output_adapter@D@__crt_stdio_output@@@2@@__crt_stdio_output@@AEAA_ND@Z 0000000180081d20 f i libucrtd:output.obj
 0001:00080ed0       ?write_stored_string_tchar@?$output_processor@DV?$stream_output_adapter@D@__crt_stdio_output@@V?$positional_parameter_base@DV?$stream_output_adapter@D@__crt_stdio_output@@@2@@__crt_stdio_output@@AEAA_ND@Z 0000000180081ed0 f i libucrtd:output.obj
 0001:00081080       ?write_stored_string_tchar@?$output_processor@DV?$stream_output_adapter@D@__crt_stdio_output@@V?$standard_base@DV?$stream_output_adapter@D@__crt_stdio_output@@@2@@__crt_stdio_output@@AEAA_ND@Z 0000000180082080 f i libucrtd:output.obj
 0001:00081230       ?write_stored_string_tchar@?$output_processor@DV?$string_output_adapter@D@__crt_stdio_output@@V?$format_validation_base@DV?$string_output_adapter@D@__crt_stdio_output@@@2@@__crt_stdio_output@@AEAA_ND@Z 0000000180082230 f i libucrtd:output.obj
 0001:000813e0       ?write_stored_string_tchar@?$output_processor@DV?$string_output_adapter@D@__crt_stdio_output@@V?$positional_parameter_base@DV?$string_output_adapter@D@__crt_stdio_output@@@2@@__crt_stdio_output@@AEAA_ND@Z 00000001800823e0 f i libucrtd:output.obj
 0001:00081590       ?write_stored_string_tchar@?$output_processor@DV?$string_output_adapter@D@__crt_stdio_output@@V?$standard_base@DV?$string_output_adapter@D@__crt_stdio_output@@@2@@__crt_stdio_output@@AEAA_ND@Z 0000000180082590 f i libucrtd:output.obj
 0001:00081740       ?write_stored_string_tchar@?$output_processor@_WV?$stream_output_adapter@_W@__crt_stdio_output@@V?$format_validation_base@_WV?$stream_output_adapter@_W@__crt_stdio_output@@@2@@__crt_stdio_output@@AEAA_N_W@Z 0000000180082740 f i libucrtd:output.obj
 0001:00081890       ?write_stored_string_tchar@?$output_processor@_WV?$stream_output_adapter@_W@__crt_stdio_output@@V?$positional_parameter_base@_WV?$stream_output_adapter@_W@__crt_stdio_output@@@2@@__crt_stdio_output@@AEAA_N_W@Z 0000000180082890 f i libucrtd:output.obj
 0001:000819e0       ?write_stored_string_tchar@?$output_processor@_WV?$stream_output_adapter@_W@__crt_stdio_output@@V?$standard_base@_WV?$stream_output_adapter@_W@__crt_stdio_output@@@2@@__crt_stdio_output@@AEAA_N_W@Z 00000001800829e0 f i libucrtd:output.obj
 0001:00081b30       ?write_stored_string_tchar@?$output_processor@_WV?$string_output_adapter@_W@__crt_stdio_output@@V?$format_validation_base@_WV?$string_output_adapter@_W@__crt_stdio_output@@@2@@__crt_stdio_output@@AEAA_N_W@Z 0000000180082b30 f i libucrtd:output.obj
 0001:00081c80       ?write_stored_string_tchar@?$output_processor@_WV?$string_output_adapter@_W@__crt_stdio_output@@V?$positional_parameter_base@_WV?$string_output_adapter@_W@__crt_stdio_output@@@2@@__crt_stdio_output@@AEAA_N_W@Z 0000000180082c80 f i libucrtd:output.obj
 0001:00081dd0       ?write_stored_string_tchar@?$output_processor@_WV?$string_output_adapter@_W@__crt_stdio_output@@V?$standard_base@_WV?$string_output_adapter@_W@__crt_stdio_output@@@2@@__crt_stdio_output@@AEAA_N_W@Z 0000000180082dd0 f i libucrtd:output.obj
 0001:00081f20       ?write_string@?$stream_output_adapter@D@__crt_stdio_output@@QEBAXQEBDHQEAHAEAV__crt_deferred_errno_cache@@@Z 0000000180082f20 f i libucrtd:output.obj
 0001:00081fa0       ?write_string@?$stream_output_adapter@_W@__crt_stdio_output@@QEBAXQEB_WHQEAHAEAV__crt_deferred_errno_cache@@@Z 0000000180082fa0 f i libucrtd:output.obj
 0001:00082020       ?write_string@?$string_output_adapter@D@__crt_stdio_output@@QEBAXQEBDHQEAHAEAV__crt_deferred_errno_cache@@@Z 0000000180083020 f i libucrtd:output.obj
 0001:00082190       ?write_string@?$string_output_adapter@_W@__crt_stdio_output@@QEBAXQEB_WHQEAHAEAV__crt_deferred_errno_cache@@@Z 0000000180083190 f i libucrtd:output.obj
 0001:00082300       ?write_string_impl@?$output_adapter_common@DV?$stream_output_adapter@D@__crt_stdio_output@@@__crt_stdio_output@@IEBAXQEBDHQEAHAEAV__crt_deferred_errno_cache@@@Z 0000000180083300 f i libucrtd:output.obj
 0001:000823e0       ?write_string_impl@?$output_adapter_common@_WV?$stream_output_adapter@_W@__crt_stdio_output@@@__crt_stdio_output@@IEBAXQEB_WHQEAHAEAV__crt_deferred_errno_cache@@@Z 00000001800833e0 f i libucrtd:output.obj
 0001:000824c0       __acrt_isleadbyte_l_noupdate 00000001800834c0 f i libucrtd:output.obj
 0001:000824f0       __acrt_locale_changed      00000001800834f0 f i libucrtd:output.obj
 0001:00082520       __acrt_locale_get_ctype_array_value 0000000180083520 f i libucrtd:output.obj
 0001:00082560       __stdio_common_vfprintf    0000000180083560 f   libucrtd:output.obj
 0001:000825a0       __stdio_common_vfprintf_p  00000001800835a0 f   libucrtd:output.obj
 0001:000825e0       __stdio_common_vfprintf_s  00000001800835e0 f   libucrtd:output.obj
 0001:00082620       __stdio_common_vfwprintf   0000000180083620 f   libucrtd:output.obj
 0001:00082660       __stdio_common_vfwprintf_p 0000000180083660 f   libucrtd:output.obj
 0001:000826a0       __stdio_common_vfwprintf_s 00000001800836a0 f   libucrtd:output.obj
 0001:000826e0       __stdio_common_vsnprintf_s 00000001800836e0 f   libucrtd:output.obj
 0001:00082740       __stdio_common_vsnwprintf_s 0000000180083740 f   libucrtd:output.obj
 0001:000827a0       __stdio_common_vsprintf    00000001800837a0 f   libucrtd:output.obj
 0001:000827f0       __stdio_common_vsprintf_p  00000001800837f0 f   libucrtd:output.obj
 0001:00082840       __stdio_common_vsprintf_s  0000000180083840 f   libucrtd:output.obj
 0001:00082890       __stdio_common_vswprintf   0000000180083890 f   libucrtd:output.obj
 0001:000828e0       __stdio_common_vswprintf_p 00000001800838e0 f   libucrtd:output.obj
 0001:00082930       __stdio_common_vswprintf_s 0000000180083930 f   libucrtd:output.obj
 0001:00082980       _ctype_fast_check_internal 0000000180083980 f i libucrtd:output.obj
 0001:000829b0       _isdigit_fast_internal     00000001800839b0 f i libucrtd:output.obj
 0001:000829e0       _tolower_fast_internal     00000001800839e0 f i libucrtd:output.obj
 0001:00082a10       free                       0000000180083a10 f   libucrtd:free.obj
 0001:00082a40       malloc                     0000000180083a40 f   libucrtd:malloc.obj
 0001:00082a70       ??$?RU?$__crt_report_hook_node@D@@@__crt_internal_free_policy@@QEBAXQEBU?$__crt_report_hook_node@D@@@Z 0000000180083a70 f i libucrtd:dbgrpt.obj
 0001:00082aa0       ??$?RU?$__crt_report_hook_node@_W@@@__crt_internal_free_policy@@QEBAXQEBU?$__crt_report_hook_node@_W@@@Z 0000000180083aa0 f i libucrtd:dbgrpt.obj
 0001:00083ce0       ??$get_module_file_name@AEAPEAUHINSTANCE__@@AEAY0BAF@DK@?$__crt_char_traits@D@@SAKAEAPEAUHINSTANCE__@@AEAY0BAF@D$$QEAK@Z 0000000180084ce0 f i libucrtd:dbgrpt.obj
 0001:00083d20       ??$get_module_file_name@AEAPEAUHINSTANCE__@@AEAY0BAF@_WK@?$__crt_char_traits@_W@@SAKAEAPEAUHINSTANCE__@@AEAY0BAF@_W$$QEAK@Z 0000000180084d20 f i libucrtd:dbgrpt.obj
 0001:00083d60       ??$tcscpy_s@AEAY0BAF@D_KPEBD@?$__crt_char_traits@D@@SAHAEAY0BAF@D$$QEA_K$$QEAPEBD@Z 0000000180084d60 f i libucrtd:dbgrpt.obj
 0001:00083da0       ??$tcscpy_s@AEAY0BAF@_W_KPEB_W@?$__crt_char_traits@_W@@SAHAEAY0BAF@_W$$QEA_K$$QEAPEB_W@Z 0000000180084da0 f i libucrtd:dbgrpt.obj
 0001:00083de0       ??$tcslen@AEAY0BAF@D@?$__crt_char_traits@D@@SA_KAEAY0BAF@D@Z 0000000180084de0 f i libucrtd:dbgrpt.obj
 0001:00083e00       ??$tcslen@AEAY0BAF@_W@?$__crt_char_traits@_W@@SA_KAEAY0BAF@_W@Z 0000000180084e00 f i libucrtd:dbgrpt.obj
 0001:00083e20       ??$tcslen@AEBQEBD@?$__crt_char_traits@D@@SA_KAEBQEBD@Z 0000000180084e20 f i libucrtd:dbgrpt.obj
 0001:00083e40       ??$tcslen@AEBQEB_W@?$__crt_char_traits@_W@@SA_KAEBQEB_W@Z 0000000180084e40 f i libucrtd:dbgrpt.obj
 0001:00083f40       ??0?$__crt_unique_heap_ptr@U?$__crt_report_hook_node@D@@U__crt_internal_free_policy@@@@QEAA@QEAU?$__crt_report_hook_node@D@@@Z 0000000180084f40 f i libucrtd:dbgrpt.obj
 0001:00083f60       ??0?$__crt_unique_heap_ptr@U?$__crt_report_hook_node@_W@@U__crt_internal_free_policy@@@@QEAA@QEAU?$__crt_report_hook_node@_W@@@Z 0000000180084f60 f i libucrtd:dbgrpt.obj
 0001:00083f80       ??1?$__crt_unique_heap_ptr@U?$__crt_report_hook_node@D@@U__crt_internal_free_policy@@@@QEAA@XZ 0000000180084f80 f i libucrtd:dbgrpt.obj
 0001:00083fa0       ??1?$__crt_unique_heap_ptr@U?$__crt_report_hook_node@_W@@U__crt_internal_free_policy@@@@QEAA@XZ 0000000180084fa0 f i libucrtd:dbgrpt.obj
 0001:00083fc0       ??B?$__crt_unique_heap_ptr@U?$__crt_report_hook_node@D@@U__crt_internal_free_policy@@@@QEBA_NXZ 0000000180084fc0 f i libucrtd:dbgrpt.obj
 0001:00083fe0       ??B?$__crt_unique_heap_ptr@U?$__crt_report_hook_node@_W@@U__crt_internal_free_policy@@@@QEBA_NXZ 0000000180084fe0 f i libucrtd:dbgrpt.obj
 0001:000846c0       ?detach@?$__crt_unique_heap_ptr@U?$__crt_report_hook_node@D@@U__crt_internal_free_policy@@@@QEAAPEAU?$__crt_report_hook_node@D@@XZ 00000001800856c0 f i libucrtd:dbgrpt.obj
 0001:000846f0       ?detach@?$__crt_unique_heap_ptr@U?$__crt_report_hook_node@_W@@U__crt_internal_free_policy@@@@QEAAPEAU?$__crt_report_hook_node@_W@@XZ 00000001800856f0 f i libucrtd:dbgrpt.obj
 0001:00084720       ?get@?$__crt_unique_heap_ptr@U?$__crt_report_hook_node@D@@U__crt_internal_free_policy@@@@QEBAPEAU?$__crt_report_hook_node@D@@XZ 0000000180085720 f i libucrtd:dbgrpt.obj
 0001:00084730       ?get@?$__crt_unique_heap_ptr@U?$__crt_report_hook_node@_W@@U__crt_internal_free_policy@@@@QEBAPEAU?$__crt_report_hook_node@_W@@XZ 0000000180085730 f i libucrtd:dbgrpt.obj
 0001:000847a0       ?is_valid@?$__crt_unique_heap_ptr@U?$__crt_report_hook_node@D@@U__crt_internal_free_policy@@@@QEBA_NXZ 00000001800857a0 f i libucrtd:dbgrpt.obj
 0001:000847d0       ?is_valid@?$__crt_unique_heap_ptr@U?$__crt_report_hook_node@_W@@U__crt_internal_free_policy@@@@QEBA_NXZ 00000001800857d0 f i libucrtd:dbgrpt.obj
 0001:00084800       ?release@?$__crt_unique_heap_ptr@U?$__crt_report_hook_node@D@@U__crt_internal_free_policy@@@@QEAAXXZ 0000000180085800 f i libucrtd:dbgrpt.obj
 0001:00084830       ?release@?$__crt_unique_heap_ptr@U?$__crt_report_hook_node@_W@@U__crt_internal_free_policy@@@@QEAAXXZ 0000000180085830 f i libucrtd:dbgrpt.obj
 0001:00084860       _CrtDbgReport              0000000180085860 f   libucrtd:dbgrpt.obj
 0001:000848e0       _CrtDbgReportW             00000001800858e0 f   libucrtd:dbgrpt.obj
 0001:00084960       _CrtSetReportHook2         0000000180085960 f   libucrtd:dbgrpt.obj
 0001:00084980       _CrtSetReportHookW2        0000000180085980 f   libucrtd:dbgrpt.obj
 0001:000849a0       __acrt_MessageWindowA      00000001800859a0 f   libucrtd:dbgrpt.obj
 0001:000849f0       __acrt_MessageWindowW      00000001800859f0 f   libucrtd:dbgrpt.obj
 0001:00084a40       _invoke_watson_if_error    0000000180085a40 f i libucrtd:dbgrpt.obj
 0001:00084a90       _invoke_watson_if_oneof    0000000180085a90 f i libucrtd:dbgrpt.obj
 0001:00084af0       _snwprintf_s               0000000180085af0 f i libucrtd:dbgrpt.obj
 0001:00084b60       _vsnwprintf_s_l            0000000180085b60 f i libucrtd:dbgrpt.obj
 0001:000850c0       wcscpy_s                   00000001800860c0 f   libucrtd:wcscpy_s.obj
 0001:00086450       ??1?$__crt_simd_cleanup_guard@$00@@QEAA@XZ 0000000180087450 f i libucrtd:strnlen.obj
 0001:00086460       ??1?$__crt_simd_cleanup_guard@$0A@@@QEAA@XZ 0000000180087460 f i libucrtd:strnlen.obj
 0001:00086470       ?compare_equals@?$__crt_simd_traits@$00E@@SA?AT__m256i@@T2@0@Z 0000000180087470 f i libucrtd:strnlen.obj
 0001:000864b0       ?compare_equals@?$__crt_simd_traits@$00G@@SA?AT__m256i@@T2@0@Z 00000001800874b0 f i libucrtd:strnlen.obj
 0001:000864f0       ?compare_equals@?$__crt_simd_traits@$0A@E@@SA?AT__m128i@@T2@0@Z 00000001800874f0 f i libucrtd:strnlen.obj
 0001:00086520       ?compare_equals@?$__crt_simd_traits@$0A@G@@SA?AT__m128i@@T2@0@Z 0000000180087520 f i libucrtd:strnlen.obj
 0001:00086550       ?compute_byte_mask@?$__crt_simd_pack_traits@$00@@SAHT__m256i@@@Z 0000000180087550 f i libucrtd:strnlen.obj
 0001:00086570       ?compute_byte_mask@?$__crt_simd_pack_traits@$0A@@@SAHT__m128i@@@Z 0000000180087570 f i libucrtd:strnlen.obj
 0001:00086590       ?get_zero_pack@?$__crt_simd_pack_traits@$00@@SA?AT__m256i@@XZ 0000000180087590 f i libucrtd:strnlen.obj
 0001:000865c0       ?get_zero_pack@?$__crt_simd_pack_traits@$0A@@@SA?AT__m128i@@XZ 00000001800875c0 f i libucrtd:strnlen.obj
 0001:000865e0       strnlen                    00000001800875e0 f   libucrtd:strnlen.obj
 0001:00086610       wcslen                     0000000180087610 f   libucrtd:strnlen.obj
 0001:00086630       wcsnlen                    0000000180087630 f   libucrtd:strnlen.obj
 0001:00086660       ??$__crt_fast_decode_pointer@P6AXPEB_W00I_K@Z@@YAP6AXPEB_W00I_K@ZQ6AX000I1@Z@Z 0000000180087660 f i libucrtd:invalid_parameter.obj
 0001:000866a0       ??$__crt_fast_encode_pointer@P6AXPEB_W00I_K@Z@@YAP6AXPEB_W00I_K@ZQ6AX000I1@Z@Z 00000001800876a0 f i libucrtd:invalid_parameter.obj
 0001:000866e0       ??$initialize_from_array@$$BY00Q6AXPEB_W00I_K@Z@?$dual_state_global@P6AXPEB_W00I_K@Z@__crt_state_management@@QEAAXAEAY00Q6AXPEB_W00I_K@Z@Z 00000001800876e0 f i libucrtd:invalid_parameter.obj
 0001:00086740       ?__crt_rotate_pointer_value@@YA_K_KH@Z 0000000180087740 f i libucrtd:invalid_parameter.obj
 0001:00086800       ?dangerous_get_state_array@?$dual_state_global@P6AXPEB_W00I_K@Z@__crt_state_management@@QEAAPEAP6AXPEB_W00I_K@ZXZ 0000000180087800 f i libucrtd:invalid_parameter.obj
 0001:00086810       ?get_current_state_index@__crt_state_management@@YA_KXZ 0000000180087810 f i libucrtd:invalid_parameter.obj
 0001:00086820       ?value@?$dual_state_global@P6AXPEB_W00I_K@Z@__crt_state_management@@QEAAAEAP6AXPEB_W00I_K@ZXZ 0000000180087820 f i libucrtd:invalid_parameter.obj
 0001:00086840       __acrt_call_reportfault    0000000180087840 f   libucrtd:invalid_parameter.obj
 0001:00086970       __acrt_initialize_invalid_parameter_handler 0000000180087970 f   libucrtd:invalid_parameter.obj
 0001:000869a0       _get_invalid_parameter_handler 00000001800879a0 f   libucrtd:invalid_parameter.obj
 0001:000869c0       _get_thread_local_invalid_parameter_handler 00000001800879c0 f   libucrtd:invalid_parameter.obj
 0001:000869f0       _invalid_parameter         00000001800879f0 f   libucrtd:invalid_parameter.obj
 0001:00086af0       _invalid_parameter_noinfo  0000000180087af0 f   libucrtd:invalid_parameter.obj
 0001:00086b20       _invalid_parameter_noinfo_noreturn 0000000180087b20 f   libucrtd:invalid_parameter.obj
 0001:00086b60       _invoke_watson             0000000180087b60 f   libucrtd:invalid_parameter.obj
 0001:00086bc0       _set_invalid_parameter_handler 0000000180087bc0 f   libucrtd:invalid_parameter.obj
 0001:00086c10       _set_thread_local_invalid_parameter_handler 0000000180087c10 f   libucrtd:invalid_parameter.obj
 0001:00086c50       __acrt_errno_from_os_error 0000000180087c50 f   libucrtd:errno.obj
 0001:00086ce0       __acrt_errno_map_os_error  0000000180087ce0 f   libucrtd:errno.obj
 0001:00086d10       __doserrno                 0000000180087d10 f   libucrtd:errno.obj
 0001:00086d40       _errno                     0000000180087d40 f   libucrtd:errno.obj
 0001:00086d70       _get_doserrno              0000000180087d70 f   libucrtd:errno.obj
 0001:00086e30       _get_errno                 0000000180087e30 f   libucrtd:errno.obj
 0001:00086ef0       _set_doserrno              0000000180087ef0 f   libucrtd:errno.obj
 0001:00086f30       _set_errno                 0000000180087f30 f   libucrtd:errno.obj
 0001:00086f70       calloc                     0000000180087f70 f   libucrtd:calloc.obj
 0001:00086fb0       _recalloc                  0000000180087fb0 f   libucrtd:recalloc.obj
 0001:00087000       _recalloc_base             0000000180088000 f   libucrtd:recalloc.obj
 0001:000870dc       _resetstkoflw              00000001800880dc f   libucrtd:resetstk.obj
 0001:00087890       wcscat_s                   0000000180088890 f   libucrtd:wcscat_s.obj
 0001:00087f60       wcsncpy_s                  0000000180088f60 f   libucrtd:wcsncpy_s.obj
 0001:00087fc0       __acrt_get_locale_data_prefix 0000000180088fc0 f i libucrtd:_ctype.obj
 0001:00087fe0       __isascii                  0000000180088fe0 f i libucrtd:_ctype.obj
 0001:00088010       __iscsym                   0000000180089010 f i libucrtd:_ctype.obj
 0001:00088050       __iscsymf                  0000000180089050 f i libucrtd:_ctype.obj
 0001:00088090       __toascii                  0000000180089090 f i libucrtd:_ctype.obj
 0001:000880a0       _chvalidchk_l              00000001800890a0 f i libucrtd:_ctype.obj
 0001:000880d0       _isalnum_l                 00000001800890d0 f i libucrtd:_ctype.obj
 0001:00088120       _isalpha_l                 0000000180089120 f i libucrtd:_ctype.obj
 0001:00088170       _isblank_l                 0000000180089170 f i libucrtd:_ctype.obj
 0001:000881e0       _ischartype_l              00000001800891e0 f i libucrtd:_ctype.obj
 0001:00088270       _iscntrl_l                 0000000180089270 f i libucrtd:_ctype.obj
 0001:000882c0       _iscsym_l                  00000001800892c0 f i libucrtd:_ctype.obj
 0001:00088310       _iscsymf_l                 0000000180089310 f i libucrtd:_ctype.obj
 0001:00088360       _isdigit_l                 0000000180089360 f i libucrtd:_ctype.obj
 0001:000883b0       _isgraph_l                 00000001800893b0 f i libucrtd:_ctype.obj
 0001:00088400       _islower_l                 0000000180089400 f i libucrtd:_ctype.obj
 0001:00088450       _isprint_l                 0000000180089450 f i libucrtd:_ctype.obj
 0001:000884a0       _ispunct_l                 00000001800894a0 f i libucrtd:_ctype.obj
 0001:000884f0       _isspace_l                 00000001800894f0 f i libucrtd:_ctype.obj
 0001:00088540       _isupper_l                 0000000180089540 f i libucrtd:_ctype.obj
 0001:00088590       _isxdigit_l                0000000180089590 f i libucrtd:_ctype.obj
 0001:000885e0       isalnum                    00000001800895e0 f i libucrtd:_ctype.obj
 0001:00088620       isalpha                    0000000180089620 f i libucrtd:_ctype.obj
 0001:00088660       isblank                    0000000180089660 f i libucrtd:_ctype.obj
 0001:000886c0       iscntrl                    00000001800896c0 f i libucrtd:_ctype.obj
 0001:00088700       isdigit                    0000000180089700 f i libucrtd:_ctype.obj
 0001:00088740       isgraph                    0000000180089740 f i libucrtd:_ctype.obj
 0001:00088780       islower                    0000000180089780 f i libucrtd:_ctype.obj
 0001:000887c0       isprint                    00000001800897c0 f i libucrtd:_ctype.obj
 0001:00088800       ispunct                    0000000180089800 f i libucrtd:_ctype.obj
 0001:00088840       isspace                    0000000180089840 f i libucrtd:_ctype.obj
 0001:00088880       isupper                    0000000180089880 f i libucrtd:_ctype.obj
 0001:000888c0       isxdigit                   00000001800898c0 f i libucrtd:_ctype.obj
 0001:00088900       wcscat                     0000000180089900 f   libucrtd:wcscat.obj
 0001:00088980       wcscpy                     0000000180089980 f   libucrtd:wcscpy.obj
 0001:00089130       ??$open_file@AEBQEBDAEBQEBDAEBHPEAU_iobuf@@@?$__crt_char_traits@D@@SAPEAU_iobuf@@AEBQEBD0AEBH$$QEAPEAU1@@Z 000000018008a130 f i libucrtd:fopen.obj
 0001:00089180       ??$open_file@AEBQEB_WAEBQEB_WAEBHPEAU_iobuf@@@?$__crt_char_traits@_W@@SAPEAU_iobuf@@AEBQEB_W0AEBH$$QEAPEAU1@@Z 000000018008a180 f i libucrtd:fopen.obj
 0001:000891d0       ?unlock@__crt_stdio_stream@@QEBAXXZ 000000018008a1d0 f i libucrtd:fopen.obj
 0001:000891f0       _fsopen                    000000018008a1f0 f   libucrtd:fopen.obj
 0001:00089220       _wfopen                    000000018008a220 f   libucrtd:fopen.obj
 0001:00089250       _wfopen_s                  000000018008a250 f   libucrtd:fopen.obj
 0001:00089280       _wfsopen                   000000018008a280 f   libucrtd:fopen.obj
 0001:000892b0       fopen                      000000018008a2b0 f   libucrtd:fopen.obj
 0001:000892e0       fopen_s                    000000018008a2e0 f   libucrtd:fopen.obj
 0001:00089310       ?is_in_use@__crt_stdio_stream@@QEBA_NXZ 000000018008a310 f i libucrtd:fclose.obj
 0001:00089350       _fclose_nolock             000000018008a350 f   libucrtd:fclose.obj
 0001:000894e0       fclose                     000000018008a4e0 f   libucrtd:fclose.obj
 0001:00089620       _fputc_nolock              000000018008a620 f   libucrtd:fputc.obj
 0001:000896d0       _fputchar                  000000018008a6d0 f   libucrtd:fputc.obj
 0001:00089700       _putc_nolock               000000018008a700 f   libucrtd:fputc.obj
 0001:00089720       fputc                      000000018008a720 f   libucrtd:fputc.obj
 0001:000899c0       putc                       000000018008a9c0 f   libucrtd:fputc.obj
 0001:000899e0       putchar                    000000018008a9e0 f   libucrtd:fputc.obj
 0001:00089a70       _seh_filter_dll            000000018008aa70 f   libucrtd:exception_filter.obj
 0001:00089aa0       _seh_filter_exe            000000018008aaa0 f   libucrtd:exception_filter.obj
 0001:00089d40       ??$?B$$A6AXPEAXK0@Z@__crt_fast_encoded_nullptr_t@@QEBAP6AXPEAXK0@ZXZ 000000018008ad40 f i libucrtd:exit.obj
 0001:00089df0       ??$__crt_fast_decode_pointer@P6AXPEAXK0@Z@@YAP6AXPEAXK0@ZQ6AX0K0@Z@Z 000000018008adf0 f i libucrtd:exit.obj
 0001:00089e30       ??$__crt_fast_encode_pointer@P6AXPEAXK0@Z@@YAP6AXPEAXK0@ZQ6AX0K0@Z@Z 000000018008ae30 f i libucrtd:exit.obj
 0001:00089e70       ??$__crt_get_proc_address@P6AXI@Z@@YAP6AXI@ZQEAUHINSTANCE__@@QEBD@Z 000000018008ae70 f i libucrtd:exit.obj
 0001:00089f30       ??0?$__crt_unique_handle_t@U__crt_hmodule_traits@@@@QEAA@QEAUHINSTANCE__@@@Z 000000018008af30 f i libucrtd:exit.obj
 0001:00089f50       ??1?$__crt_unique_handle_t@U__crt_hmodule_traits@@@@QEAA@XZ 000000018008af50 f i libucrtd:exit.obj
 0001:0008a0b0       ?__acrt_select_exit_lock@@YA?AW4__acrt_lock_id@@XZ 000000018008b0b0 f i libucrtd:exit.obj
 0001:0008a0c0       ?__crt_fast_encode_pointer@@YA?AU__crt_fast_encoded_nullptr_t@@$$T@Z 000000018008b0c0 f i libucrtd:exit.obj
 0001:0008a100       ?close@?$__crt_unique_handle_t@U__crt_hmodule_traits@@@@QEAAXXZ 000000018008b100 f i libucrtd:exit.obj
 0001:0008a140       ?close@__crt_hmodule_traits@@SA_NPEAUHINSTANCE__@@@Z 000000018008b140 f i libucrtd:exit.obj
 0001:0008a250       ?get@?$__crt_unique_handle_t@U__crt_hmodule_traits@@@@QEBAPEAUHINSTANCE__@@XZ 000000018008b250 f i libucrtd:exit.obj
 0001:0008a260       ?get_address_of@?$__crt_unique_handle_t@U__crt_hmodule_traits@@@@QEAAPEAPEAUHINSTANCE__@@XZ 000000018008b260 f i libucrtd:exit.obj
 0001:0008a270       ?get_invalid_value@__crt_hmodule_traits@@SAPEAUHINSTANCE__@@XZ 000000018008b270 f i libucrtd:exit.obj
 0001:0008a430       _Exit                      000000018008b430 f   libucrtd:exit.obj
 0001:0008a450       __acrt_initialize_thread_local_exit_callback 000000018008b450 f   libucrtd:exit.obj
 0001:0008a470       _c_exit                    000000018008b470 f   libucrtd:exit.obj
 0001:0008a490       _cexit                     000000018008b490 f   libucrtd:exit.obj
 0001:0008a4b0       _exit                      000000018008b4b0 f   libucrtd:exit.obj
 0001:0008a4d0       _is_c_termination_complete 000000018008b4d0 f   libucrtd:exit.obj
 0001:0008a4f0       _register_thread_local_exe_atexit_callback 000000018008b4f0 f   libucrtd:exit.obj
 0001:0008a540       exit                       000000018008b540 f   libucrtd:exit.obj
 0001:0008a560       quick_exit                 000000018008b560 f   libucrtd:exit.obj
 0001:0008a580       ??$?RE@__crt_internal_free_policy@@QEBAXQEBE@Z 000000018008b580 f i libucrtd:argv_parsing.obj
 0001:0008a5b0       ??$?RPEAD@__crt_internal_free_policy@@QEBAXQEBQEAD@Z 000000018008b5b0 f i libucrtd:argv_parsing.obj
 0001:0008a5e0       ??$?RPEA_W@__crt_internal_free_policy@@QEBAXQEBQEA_W@Z 000000018008b5e0 f i libucrtd:argv_parsing.obj
 0001:0008ad30       ??$get_module_file_name@$$TAEAY0BAF@DH@?$__crt_char_traits@D@@SAK$$QEA$$TAEAY0BAF@D$$QEAH@Z 000000018008bd30 f i libucrtd:argv_parsing.obj
 0001:0008ad70       ??$get_module_file_name@$$TAEAY0BAF@_WH@?$__crt_char_traits@_W@@SAK$$QEA$$TAEAY0BAF@_W$$QEAH@Z 000000018008bd70 f i libucrtd:argv_parsing.obj
 0001:0008b720       ??$set_program_name@PEAD@?$__crt_char_traits@D@@SAX$$QEAPEAD@Z 000000018008c720 f i libucrtd:argv_parsing.obj
 0001:0008b740       ??$set_program_name@PEA_W@?$__crt_char_traits@_W@@SAX$$QEAPEA_W@Z 000000018008c740 f i libucrtd:argv_parsing.obj
 0001:0008b7a0       ??0?$__crt_unique_heap_ptr@EU__crt_internal_free_policy@@@@QEAA@QEAE@Z 000000018008c7a0 f i libucrtd:argv_parsing.obj
 0001:0008b7c0       ??0?$__crt_unique_heap_ptr@PEADU__crt_internal_free_policy@@@@QEAA@QEAPEAD@Z 000000018008c7c0 f i libucrtd:argv_parsing.obj
 0001:0008b7e0       ??0?$__crt_unique_heap_ptr@PEA_WU__crt_internal_free_policy@@@@QEAA@QEAPEA_W@Z 000000018008c7e0 f i libucrtd:argv_parsing.obj
 0001:0008b800       ??1?$__crt_unique_heap_ptr@EU__crt_internal_free_policy@@@@QEAA@XZ 000000018008c800 f i libucrtd:argv_parsing.obj
 0001:0008b820       ??1?$__crt_unique_heap_ptr@PEADU__crt_internal_free_policy@@@@QEAA@XZ 000000018008c820 f i libucrtd:argv_parsing.obj
 0001:0008b840       ??1?$__crt_unique_heap_ptr@PEA_WU__crt_internal_free_policy@@@@QEAA@XZ 000000018008c840 f i libucrtd:argv_parsing.obj
 0001:0008b860       ??B?$__crt_unique_heap_ptr@EU__crt_internal_free_policy@@@@QEBA_NXZ 000000018008c860 f i libucrtd:argv_parsing.obj
 0001:0008b940       ?detach@?$__crt_unique_heap_ptr@EU__crt_internal_free_policy@@@@QEAAPEAEXZ 000000018008c940 f i libucrtd:argv_parsing.obj
 0001:0008b970       ?detach@?$__crt_unique_heap_ptr@PEADU__crt_internal_free_policy@@@@QEAAPEAPEADXZ 000000018008c970 f i libucrtd:argv_parsing.obj
 0001:0008b9a0       ?detach@?$__crt_unique_heap_ptr@PEA_WU__crt_internal_free_policy@@@@QEAAPEAPEA_WXZ 000000018008c9a0 f i libucrtd:argv_parsing.obj
 0001:0008ba60       ?get@?$__crt_unique_heap_ptr@EU__crt_internal_free_policy@@@@QEBAPEAEXZ 000000018008ca60 f i libucrtd:argv_parsing.obj
 0001:0008ba70       ?get@?$__crt_unique_heap_ptr@PEADU__crt_internal_free_policy@@@@QEBAPEAPEADXZ 000000018008ca70 f i libucrtd:argv_parsing.obj
 0001:0008ba80       ?get@?$__crt_unique_heap_ptr@PEA_WU__crt_internal_free_policy@@@@QEBAPEAPEA_WXZ 000000018008ca80 f i libucrtd:argv_parsing.obj
 0001:0008ba90       ?get_address_of@?$__crt_unique_heap_ptr@PEADU__crt_internal_free_policy@@@@QEAAPEAPEAPEADXZ 000000018008ca90 f i libucrtd:argv_parsing.obj
 0001:0008baa0       ?get_address_of@?$__crt_unique_heap_ptr@PEA_WU__crt_internal_free_policy@@@@QEAAPEAPEAPEA_WXZ 000000018008caa0 f i libucrtd:argv_parsing.obj
 0001:0008baf0       ?is_valid@?$__crt_unique_heap_ptr@EU__crt_internal_free_policy@@@@QEBA_NXZ 000000018008caf0 f i libucrtd:argv_parsing.obj
 0001:0008bb20       ?release@?$__crt_unique_heap_ptr@EU__crt_internal_free_policy@@@@QEAAXXZ 000000018008cb20 f i libucrtd:argv_parsing.obj
 0001:0008bb50       ?release@?$__crt_unique_heap_ptr@PEADU__crt_internal_free_policy@@@@QEAAXXZ 000000018008cb50 f i libucrtd:argv_parsing.obj
 0001:0008bb80       ?release@?$__crt_unique_heap_ptr@PEA_WU__crt_internal_free_policy@@@@QEAAXXZ 000000018008cb80 f i libucrtd:argv_parsing.obj
 0001:0008bc00       __acrt_allocate_buffer_for_argv 000000018008cc00 f   libucrtd:argv_parsing.obj
 0001:0008bd20       _configure_narrow_argv     000000018008cd20 f   libucrtd:argv_parsing.obj
 0001:0008bd40       _configure_wide_argv       000000018008cd40 f   libucrtd:argv_parsing.obj
 0001:0008bd60       _set_pgmptr                000000018008cd60 f i libucrtd:argv_parsing.obj
 0001:0008bd80       _set_wpgmptr               000000018008cd80 f i libucrtd:argv_parsing.obj
 0001:0008bd94       ??$?R_W@__crt_internal_free_policy@@QEBAXQEB_W@Z 000000018008cd94 f i libucrtd:environment_initialization.obj
 0001:0008c36c       ??$get_environment_from_os@$$V@?$__crt_char_traits@D@@SAPEADXZ 000000018008d36c f i libucrtd:environment_initialization.obj
 0001:0008c374       ??$get_environment_from_os@$$V@?$__crt_char_traits@_W@@SAPEA_WXZ 000000018008d374 f i libucrtd:environment_initialization.obj
 0001:0008c544       ??$set_variable_in_environment_nolock@PEADH@?$__crt_char_traits@D@@SAH$$QEAPEAD$$QEAH@Z 000000018008d544 f i libucrtd:environment_initialization.obj
 0001:0008c550       ??$set_variable_in_environment_nolock@PEA_WH@?$__crt_char_traits@_W@@SAH$$QEAPEA_W$$QEAH@Z 000000018008d550 f i libucrtd:environment_initialization.obj
 0001:0008c55c       ??$tcscpy_s@PEADAEB_KAEAPEAD@?$__crt_char_traits@D@@SAH$$QEAPEADAEB_KAEAPEAD@Z 000000018008d55c f i libucrtd:environment_initialization.obj
 0001:0008c56c       ??$tcscpy_s@PEA_WAEB_KAEAPEA_W@?$__crt_char_traits@_W@@SAH$$QEAPEA_WAEB_KAEAPEA_W@Z 000000018008d56c f i libucrtd:environment_initialization.obj
 0001:0008c57c       ??$tcslen@AEAPEAD@?$__crt_char_traits@D@@SA_KAEAPEAD@Z 000000018008d57c f i libucrtd:environment_initialization.obj
 0001:0008c590       ??$tcslen@AEAPEA_W@?$__crt_char_traits@_W@@SA_KAEAPEA_W@Z 000000018008d590 f i libucrtd:environment_initialization.obj
 0001:0008c5a4       ??$uninitialize@A6AXAEAPEAPEAD@Z@?$dual_state_global@PEAPEAD@__crt_state_management@@QEAAXA6AXAEAPEAPEAD@Z@Z 000000018008d5a4 f i libucrtd:environment_initialization.obj
 0001:0008c5e8       ??$uninitialize@A6AXAEAPEAPEA_W@Z@?$dual_state_global@PEAPEA_W@__crt_state_management@@QEAAXA6AXAEAPEAPEA_W@Z@Z 000000018008d5e8 f i libucrtd:environment_initialization.obj
 0001:0008c664       ??0?$__crt_unique_heap_ptr@_WU__crt_internal_free_policy@@@@QEAA@QEA_W@Z 000000018008d664 f i libucrtd:environment_initialization.obj
 0001:0008c66c       ??1?$__crt_unique_heap_ptr@_WU__crt_internal_free_policy@@@@QEAA@XZ 000000018008d66c f i libucrtd:environment_initialization.obj
 0001:0008c68c       ??B?$__crt_unique_heap_ptr@PEADU__crt_internal_free_policy@@@@QEBA_NXZ 000000018008d68c f i libucrtd:environment_initialization.obj
 0001:0008c694       ??B?$__crt_unique_heap_ptr@PEA_WU__crt_internal_free_policy@@@@QEBA_NXZ 000000018008d694 f i libucrtd:environment_initialization.obj
 0001:0008c69c       ??B?$__crt_unique_heap_ptr@_WU__crt_internal_free_policy@@@@QEBA_NXZ 000000018008d69c f i libucrtd:environment_initialization.obj
 0001:0008c6a4       ?__crt_compute_required_transform_buffer_count@@YA_KIQEBD@Z 000000018008d6a4 f i libucrtd:environment_initialization.obj
 0001:0008c6c8       ?__crt_compute_required_transform_buffer_count@@YA_KIQEB_W@Z 000000018008d6c8 f i libucrtd:environment_initialization.obj
 0001:0008c6f8       ?__crt_transform_string@@YA_KIQEBDQEA_W_K@Z 000000018008d6f8 f i libucrtd:environment_initialization.obj
 0001:0008c71c       ?__crt_transform_string@@YA_KIQEB_WQEAD_K@Z 000000018008d71c f i libucrtd:environment_initialization.obj
 0001:0008c74c       ?detach@?$__crt_unique_heap_ptr@DU__crt_internal_free_policy@@@@QEAAPEADXZ 000000018008d74c f i libucrtd:environment_initialization.obj
 0001:0008c754       ?detach@?$__crt_unique_heap_ptr@_WU__crt_internal_free_policy@@@@QEAAPEA_WXZ 000000018008d754 f i libucrtd:environment_initialization.obj
 0001:0008c75c       ?get@?$__crt_unique_heap_ptr@_WU__crt_internal_free_policy@@@@QEBAPEA_WXZ 000000018008d75c f i libucrtd:environment_initialization.obj
 0001:0008c790       ?initialize@?$dual_state_global@PEAPEAD@__crt_state_management@@QEAAXQEAPEAD@Z 000000018008d790 f i libucrtd:environment_initialization.obj
 0001:0008c7b8       ?initialize@?$dual_state_global@PEAPEA_W@__crt_state_management@@QEAAXQEAPEA_W@Z 000000018008d7b8 f i libucrtd:environment_initialization.obj
 0001:0008c7e0       ?is_valid@?$__crt_unique_heap_ptr@PEADU__crt_internal_free_policy@@@@QEBA_NXZ 000000018008d7e0 f i libucrtd:environment_initialization.obj
 0001:0008c7e8       ?is_valid@?$__crt_unique_heap_ptr@PEA_WU__crt_internal_free_policy@@@@QEBA_NXZ 000000018008d7e8 f i libucrtd:environment_initialization.obj
 0001:0008c7f0       ?is_valid@?$__crt_unique_heap_ptr@_WU__crt_internal_free_policy@@@@QEBA_NXZ 000000018008d7f0 f i libucrtd:environment_initialization.obj
 0001:0008c804       ?release@?$__crt_unique_heap_ptr@_WU__crt_internal_free_policy@@@@QEAAXXZ 000000018008d804 f i libucrtd:environment_initialization.obj
 0001:0008c824       ?value@?$dual_state_global@PEAPEAD@__crt_state_management@@QEAAAEAPEAPEADXZ 000000018008d824 f i libucrtd:environment_initialization.obj
 0001:0008c828       ?value@?$dual_state_global@PEAPEA_W@__crt_state_management@@QEAAAEAPEAPEA_WXZ 000000018008d828 f i libucrtd:environment_initialization.obj
 0001:0008c82c       __dcrt_get_or_create_narrow_environment_nolock 000000018008d82c f   libucrtd:environment_initialization.obj
 0001:0008c868       __dcrt_get_or_create_wide_environment_nolock 000000018008d868 f   libucrtd:environment_initialization.obj
 0001:0008c8a4       __dcrt_uninitialize_environments_nolock 000000018008d8a4 f   libucrtd:environment_initialization.obj
 0001:0008c8dc       __p__environ               000000018008d8dc f   libucrtd:environment_initialization.obj
 0001:0008c8e4       __p__wenviron              000000018008d8e4 f   libucrtd:environment_initialization.obj
 0001:0008c8ec       _get_initial_narrow_environment 000000018008d8ec f   libucrtd:environment_initialization.obj
 0001:0008c93c       _get_initial_wide_environment 000000018008d93c f   libucrtd:environment_initialization.obj
 0001:0008c98c       _initialize_narrow_environment 000000018008d98c f   libucrtd:environment_initialization.obj
 0001:0008c994       _initialize_wide_environment 000000018008d994 f   libucrtd:environment_initialization.obj
 0001:0008c9a0       ??$?B$$A6AXXZ@__crt_fast_encoded_nullptr_t@@QEBAP6AXXZXZ 000000018008d9a0 f i libucrtd:onexit.obj
 0001:0008c9c0       ??$?BP6AXXZ@__crt_fast_encoded_nullptr_t@@QEBAPEAP6AXXZXZ 000000018008d9c0 f i libucrtd:onexit.obj
 0001:0008c9e0       ??$?RP6AXXZ@__crt_internal_free_policy@@QEBAXQEBQ6AXXZ@Z 000000018008d9e0 f i libucrtd:onexit.obj
 0001:0008cb50       ??$__crt_fast_decode_pointer@P6AXXZ@@YAP6AXXZQ6AXXZ@Z 000000018008db50 f i libucrtd:onexit.obj
 0001:0008cb90       ??$__crt_fast_decode_pointer@PEAP6AXXZ@@YAPEAP6AXXZQEAP6AXXZ@Z 000000018008db90 f i libucrtd:onexit.obj
 0001:0008cbd0       ??$__crt_fast_encode_pointer@P6AHXZ@@YAP6AHXZQ6AHXZ@Z 000000018008dbd0 f i libucrtd:onexit.obj
 0001:0008cc10       ??$__crt_fast_encode_pointer@P6AXXZ@@YAP6AXXZQ6AXXZ@Z 000000018008dc10 f i libucrtd:onexit.obj
 0001:0008cc50       ??$__crt_fast_encode_pointer@PEAP6AXXZ@@YAPEAP6AXXZQEAP6AXXZ@Z 000000018008dc50 f i libucrtd:onexit.obj
 0001:0008cd60       ??0?$__crt_unique_heap_ptr@P6AXXZU__crt_internal_free_policy@@@@QEAA@QEAP6AXXZ@Z 000000018008dd60 f i libucrtd:onexit.obj
 0001:0008cd80       ??1?$__crt_unique_heap_ptr@P6AXXZU__crt_internal_free_policy@@@@QEAA@XZ 000000018008dd80 f i libucrtd:onexit.obj
 0001:0008cda0       ??1scoped_global_state_reset@__crt_state_management@@QEAA@XZ 000000018008dda0 f i libucrtd:onexit.obj
 0001:0008d370       ?detach@?$__crt_unique_heap_ptr@P6AXXZU__crt_internal_free_policy@@@@QEAAPEAP6AXXZXZ 000000018008e370 f i libucrtd:onexit.obj
 0001:0008d3a0       ?release@?$__crt_unique_heap_ptr@P6AXXZU__crt_internal_free_policy@@@@QEAAXXZ 000000018008e3a0 f i libucrtd:onexit.obj
 0001:0008d3d0       _crt_at_quick_exit         000000018008e3d0 f   libucrtd:onexit.obj
 0001:0008d3f0       _crt_atexit                000000018008e3f0 f   libucrtd:onexit.obj
 0001:0008d410       _execute_onexit_table      000000018008e410 f   libucrtd:onexit.obj
 0001:0008d450       _initialize_onexit_table   000000018008e450 f   libucrtd:onexit.obj
 0001:0008d4d0       _register_onexit_function  000000018008e4d0 f   libucrtd:onexit.obj
 0001:0008d740       ??$?BX@__crt_fast_encoded_nullptr_t@@QEBAPEAXXZ 000000018008e740 f i libucrtd:initialization.obj
 0001:0008d760       ??$__crt_fast_encode_pointer@PEAX@@YAPEAXQEAX@Z 000000018008e760 f i libucrtd:initialization.obj
 0001:0008d850       ?initialize@?$dual_state_global@PEAU__crt_locale_data@@@__crt_state_management@@QEAAXQEAU__crt_locale_data@@@Z 000000018008e850 f i libucrtd:initialization.obj
 0001:0008d8a0       __acrt_initialize          000000018008e8a0 f   libucrtd:initialization.obj
 0001:0008d8d0       __acrt_thread_attach       000000018008e8d0 f   libucrtd:initialization.obj
 0001:0008d8f0       __acrt_thread_detach       000000018008e8f0 f   libucrtd:initialization.obj
 0001:0008d900       __acrt_uninitialize        000000018008e900 f   libucrtd:initialization.obj
 0001:0008d930       __acrt_uninitialize_critical 000000018008e930 f   libucrtd:initialization.obj
 0001:0008f920       _CrtCheckMemory            0000000180090920 f   libucrtd:debug_heap.obj
 0001:0008fab0       _CrtDoForAllClientObjects  0000000180090ab0 f   libucrtd:debug_heap.obj
 0001:0008fbe0       _CrtDumpMemoryLeaks        0000000180090be0 f   libucrtd:debug_heap.obj
 0001:0008fca0       _CrtGetAllocHook           0000000180090ca0 f   libucrtd:debug_heap.obj
 0001:0008fcb0       _CrtGetDumpClient          0000000180090cb0 f   libucrtd:debug_heap.obj
 0001:0008fcc0       _CrtIsMemoryBlock          0000000180090cc0 f   libucrtd:debug_heap.obj
 0001:0008fe00       _CrtIsValidHeapPointer     0000000180090e00 f   libucrtd:debug_heap.obj
 0001:0008fe40       _CrtIsValidPointer         0000000180090e40 f   libucrtd:debug_heap.obj
 0001:0008fe80       _CrtMemCheckpoint          0000000180090e80 f   libucrtd:debug_heap.obj
 0001:00090100       _CrtMemDifference          0000000180091100 f   libucrtd:debug_heap.obj
 0001:00090460       _CrtMemDumpAllObjectsSince 0000000180091460 f   libucrtd:debug_heap.obj
 0001:000904c0       _CrtMemDumpStatistics      00000001800914c0 f   libucrtd:debug_heap.obj
 0001:00090660       _CrtReportBlockType        0000000180091660 f   libucrtd:debug_heap.obj
 0001:00090690       _CrtSetAllocHook           0000000180091690 f   libucrtd:debug_heap.obj
 0001:000906c0       _CrtSetBreakAlloc          00000001800916c0 f   libucrtd:debug_heap.obj
 0001:000906f0       _CrtSetDbgBlockType        00000001800916f0 f   libucrtd:debug_heap.obj
 0001:00090790       _CrtSetDbgFlag             0000000180091790 f   libucrtd:debug_heap.obj
 0001:000908f0       _CrtSetDumpClient          00000001800918f0 f   libucrtd:debug_heap.obj
 0001:00090920       __p__crtBreakAlloc         0000000180091920 f   libucrtd:debug_heap.obj
 0001:00090930       __p__crtDbgFlag            0000000180091930 f   libucrtd:debug_heap.obj
 0001:00090940       _aligned_free_dbg          0000000180091940 f   libucrtd:debug_heap.obj
 0001:00090a30       _aligned_malloc_dbg        0000000180091a30 f   libucrtd:debug_heap.obj
 0001:00090a70       _aligned_msize_dbg         0000000180091a70 f   libucrtd:debug_heap.obj
 0001:00090c40       _aligned_offset_malloc_dbg 0000000180091c40 f   libucrtd:debug_heap.obj
 0001:00090f30       _aligned_offset_realloc_dbg 0000000180091f30 f   libucrtd:debug_heap.obj
 0001:000913e0       _aligned_offset_recalloc_dbg 00000001800923e0 f   libucrtd:debug_heap.obj
 0001:00091500       _aligned_realloc_dbg       0000000180092500 f   libucrtd:debug_heap.obj
 0001:00091550       _aligned_recalloc_dbg      0000000180092550 f   libucrtd:debug_heap.obj
 0001:000915b0       _calloc_dbg                00000001800925b0 f   libucrtd:debug_heap.obj
 0001:00091650       _expand_dbg                0000000180092650 f   libucrtd:debug_heap.obj
 0001:00091780       _free_dbg                  0000000180092780 f   libucrtd:debug_heap.obj
 0001:000917f0       _malloc_dbg                00000001800927f0 f   libucrtd:debug_heap.obj
 0001:00091830       _msize_dbg                 0000000180092830 f   libucrtd:debug_heap.obj
 0001:000919d0       _realloc_dbg               00000001800929d0 f   libucrtd:debug_heap.obj
 0001:00091a40       _recalloc_dbg              0000000180092a40 f   libucrtd:debug_heap.obj
 0001:00091b40       _initterm                  0000000180092b40 f   libucrtd:initterm.obj
 0001:00091ba0       _initterm_e                0000000180092ba0 f   libucrtd:initterm.obj
 0001:000920f0       strcpy_s                   00000001800930f0 f   libucrtd:strcpy_s.obj
 0001:00092790       strcat_s                   0000000180093790 f   libucrtd:strcat_s.obj
 0001:000927c0       ??$?B$$A6AH_K@Z@__crt_fast_encoded_nullptr_t@@QEBAP6AH_K@ZXZ 00000001800937c0 f i libucrtd:new_handler.obj
 0001:000927e0       ??$__crt_fast_decode_pointer@P6AH_K@Z@@YAP6AH_K@ZQ6AH0@Z@Z 00000001800937e0 f i libucrtd:new_handler.obj
 0001:00092820       ??$__crt_fast_encode_pointer@P6AH_K@Z@@YAP6AH_K@ZQ6AH0@Z@Z 0000000180093820 f i libucrtd:new_handler.obj
 0001:00092860       ?_set_new_handler@@YAP6AH_K@ZH@Z 0000000180093860 f   libucrtd:new_handler.obj
 0001:000928d0       ?initialize@?$dual_state_global@P6AH_K@Z@__crt_state_management@@QEAAXQ6AH_K@Z@Z 00000001800938d0 f i libucrtd:new_handler.obj
 0001:00092920       ?value@?$dual_state_global@P6AH_K@Z@__crt_state_management@@QEAAAEAP6AH_K@ZXZ 0000000180093920 f i libucrtd:new_handler.obj
 0001:00092940       __acrt_initialize_new_handler 0000000180093940 f   libucrtd:new_handler.obj
 0001:00092960       _callnewh                  0000000180093960 f   libucrtd:new_handler.obj
 0001:000929b0       _query_new_handler         00000001800939b0 f   libucrtd:new_handler.obj
 0001:000929f0       _set_new_handler           00000001800939f0 f   libucrtd:new_handler.obj
 0001:00092aa0       _get_terminate             0000000180093aa0 f   libucrtd:terminate.obj
 0001:00092ac0       set_terminate              0000000180093ac0 f   libucrtd:terminate.obj
 0001:00092b00       terminate                  0000000180093b00 f   libucrtd:terminate.obj
 0001:00093900       _makepath                  0000000180094900 f   libucrtd:makepath.obj
 0001:00093950       _makepath_s                0000000180094950 f   libucrtd:makepath.obj
 0001:000939a0       _wmakepath                 00000001800949a0 f   libucrtd:makepath.obj
 0001:000939f0       _wmakepath_s               00000001800949f0 f   libucrtd:makepath.obj
 0001:00096020       ??$tcsncpy_s@AEAPEAD_KAEAPEBDAEB_K@?$__crt_char_traits@D@@SAHAEAPEAD$$QEA_KAEAPEBDAEB_K@Z 0000000180097020 f i libucrtd:splitpath.obj
 0001:00096070       ??$tcsncpy_s@AEAPEAD_KAEAPEBDH@?$__crt_char_traits@D@@SAHAEAPEAD$$QEA_KAEAPEBD$$QEAH@Z 0000000180097070 f i libucrtd:splitpath.obj
 0001:000960c0       ??$tcsncpy_s@AEAPEA_W_KAEAPEB_WAEB_K@?$__crt_char_traits@_W@@SAHAEAPEA_W$$QEA_KAEAPEB_WAEB_K@Z 00000001800970c0 f i libucrtd:splitpath.obj
 0001:00096110       ??$tcsncpy_s@AEAPEA_W_KAEAPEB_WH@?$__crt_char_traits@_W@@SAHAEAPEA_W$$QEA_KAEAPEB_W$$QEAH@Z 0000000180097110 f i libucrtd:splitpath.obj
 0001:000963c0       _splitpath                 00000001800973c0 f   libucrtd:splitpath.obj
 0001:00096400       _splitpath_s               0000000180097400 f   libucrtd:splitpath.obj
 0001:000964a0       _wsplitpath                00000001800974a0 f   libucrtd:splitpath.obj
 0001:000964e0       _wsplitpath_s              00000001800974e0 f   libucrtd:splitpath.obj
 0001:00096580       _set_abort_behavior        0000000180097580 f   libucrtd:abort.obj
 0001:000965c0       abort                      00000001800975c0 f   libucrtd:abort.obj
 0001:00096650       strcmp                     0000000180097650 f   libucrtd:strcmp.obj
 0001:000966d0       strlen                     00000001800976d0 f   libucrtd:strlen.obj
 0001:00096780       ??$is_overflow_condition@K@__crt_strtox@@YA_NIK@Z 0000000180097780 f i libucrtd:atox.obj
 0001:000967f0       ??$is_overflow_condition@_K@__crt_strtox@@YA_NI_K@Z 00000001800977f0 f i libucrtd:atox.obj
 0001:00096860       ??$make_c_string_character_source@D$$T@__crt_strtox@@YA?AV?$c_string_character_source@D@0@QEBD$$T@Z 0000000180097860 f i libucrtd:atox.obj
 0001:000968a0       ??$make_c_string_character_source@_W$$T@__crt_strtox@@YA?AV?$c_string_character_source@_W@0@QEB_W$$T@Z 00000001800978a0 f i libucrtd:atox.obj
 0001:000968e0       ??$parse_integer@KV?$c_string_character_source@D@__crt_strtox@@@__crt_strtox@@YAKQEAU__crt_locale_pointers@@V?$c_string_character_source@D@0@H_N@Z 00000001800978e0 f i libucrtd:atox.obj
 0001:00096d70       ??$parse_integer@KV?$c_string_character_source@_W@__crt_strtox@@@__crt_strtox@@YAKQEAU__crt_locale_pointers@@V?$c_string_character_source@_W@0@H_N@Z 0000000180097d70 f i libucrtd:atox.obj
 0001:00097220       ??$parse_integer@_KV?$c_string_character_source@D@__crt_strtox@@@__crt_strtox@@YA_KQEAU__crt_locale_pointers@@V?$c_string_character_source@D@0@H_N@Z 0000000180098220 f i libucrtd:atox.obj
 0001:00097740       ??$parse_integer@_KV?$c_string_character_source@_W@__crt_strtox@@@__crt_strtox@@YA_KQEAU__crt_locale_pointers@@V?$c_string_character_source@_W@0@H_N@Z 0000000180098740 f i libucrtd:atox.obj
 0001:00097c60       ??$parse_integer_from_string@JD$$T@__crt_strtox@@YAJQEBD$$THQEAU__crt_locale_pointers@@@Z 0000000180098c60 f i libucrtd:atox.obj
 0001:00097cb0       ??$parse_integer_from_string@J_W$$T@__crt_strtox@@YAJQEB_W$$THQEAU__crt_locale_pointers@@@Z 0000000180098cb0 f i libucrtd:atox.obj
 0001:00097d00       ??$parse_integer_from_string@_JD$$T@__crt_strtox@@YA_JQEBD$$THQEAU__crt_locale_pointers@@@Z 0000000180098d00 f i libucrtd:atox.obj
 0001:00097d50       ??$parse_integer_from_string@_J_W$$T@__crt_strtox@@YA_JQEB_W$$THQEAU__crt_locale_pointers@@@Z 0000000180098d50 f i libucrtd:atox.obj
 0001:00097da0       ??0?$c_string_character_source@D@__crt_strtox@@QEAA@QEBDQEAPEBD@Z 0000000180098da0 f i libucrtd:atox.obj
 0001:00097df0       ??0?$c_string_character_source@_W@__crt_strtox@@QEAA@QEB_WQEAPEB_W@Z 0000000180098df0 f i libucrtd:atox.obj
 0001:00097e40       ??1?$c_string_character_source@D@__crt_strtox@@QEAA@XZ 0000000180098e40 f i libucrtd:atox.obj
 0001:00097e70       ??1?$c_string_character_source@_W@__crt_strtox@@QEAA@XZ 0000000180098e70 f i libucrtd:atox.obj
 0001:00097ea0       ?get@?$c_string_character_source@D@__crt_strtox@@QEAADXZ 0000000180098ea0 f i libucrtd:atox.obj
 0001:00097ee0       ?get@?$c_string_character_source@_W@__crt_strtox@@QEAA_WXZ 0000000180098ee0 f i libucrtd:atox.obj
 0001:00097f20       ?is_space@__crt_strtox@@YA_NDQEAU__crt_locale_pointers@@@Z 0000000180098f20 f i libucrtd:atox.obj
 0001:00097f70       ?is_space@__crt_strtox@@YA_N_WPEAU__crt_locale_pointers@@@Z 0000000180098f70 f i libucrtd:atox.obj
 0001:00097fb0       ?maximum_signed_value@__crt_strtox@@YAJK@Z 0000000180098fb0 f i libucrtd:atox.obj
 0001:00097fc0       ?maximum_signed_value@__crt_strtox@@YA_J_K@Z 0000000180098fc0 f i libucrtd:atox.obj
 0001:00097fd0       ?minimum_signed_value@__crt_strtox@@YAJK@Z 0000000180098fd0 f i libucrtd:atox.obj
 0001:00097fe0       ?minimum_signed_value@__crt_strtox@@YA_J_K@Z 0000000180098fe0 f i libucrtd:atox.obj
 0001:00097ff0       ?parse_digit@__crt_strtox@@YAID@Z 0000000180098ff0 f i libucrtd:atox.obj
 0001:00098060       ?parse_digit@__crt_strtox@@YAI_W@Z 0000000180099060 f i libucrtd:atox.obj
 0001:000980b0       ?restore_state@?$c_string_character_source@D@__crt_strtox@@QEAA_NQEBD@Z 00000001800990b0 f i libucrtd:atox.obj
 0001:000980d0       ?restore_state@?$c_string_character_source@_W@__crt_strtox@@QEAA_NQEB_W@Z 00000001800990d0 f i libucrtd:atox.obj
 0001:000980f0       ?save_state@?$c_string_character_source@D@__crt_strtox@@QEBAPEBDXZ 00000001800990f0 f i libucrtd:atox.obj
 0001:00098100       ?save_state@?$c_string_character_source@_W@__crt_strtox@@QEBAPEB_WXZ 0000000180099100 f i libucrtd:atox.obj
 0001:00098110       ?unget@?$c_string_character_source@D@__crt_strtox@@QEAAXD@Z 0000000180099110 f i libucrtd:atox.obj
 0001:000981f0       ?unget@?$c_string_character_source@_W@__crt_strtox@@QEAAX_W@Z 00000001800991f0 f i libucrtd:atox.obj
 0001:000982d0       ?validate@?$c_string_character_source@D@__crt_strtox@@QEBA_NXZ 00000001800992d0 f i libucrtd:atox.obj
 0001:00098390       ?validate@?$c_string_character_source@_W@__crt_strtox@@QEBA_NXZ 0000000180099390 f i libucrtd:atox.obj
 0001:00098450       ?wide_character_to_digit@__crt_strtox@@YAH_W@Z 0000000180099450 f i libucrtd:atox.obj
 0001:000987c0       __ascii_iswalpha           00000001800997c0 f i libucrtd:atox.obj
 0001:00098800       __ascii_toupper            0000000180099800 f i libucrtd:atox.obj
 0001:00098820       __ascii_towupper           0000000180099820 f i libucrtd:atox.obj
 0001:00098840       _atoi64                    0000000180099840 f   libucrtd:atox.obj
 0001:00098870       _atoi64_l                  0000000180099870 f   libucrtd:atox.obj
 0001:000988a0       _atoi_l                    00000001800998a0 f   libucrtd:atox.obj
 0001:000988d0       _atol_l                    00000001800998d0 f   libucrtd:atox.obj
 0001:00098900       _atoll_l                   0000000180099900 f   libucrtd:atox.obj
 0001:00098930       _wtoi                      0000000180099930 f   libucrtd:atox.obj
 0001:00098960       _wtoi64                    0000000180099960 f   libucrtd:atox.obj
 0001:00098990       _wtoi64_l                  0000000180099990 f   libucrtd:atox.obj
 0001:000989c0       _wtoi_l                    00000001800999c0 f   libucrtd:atox.obj
 0001:000989f0       _wtol                      00000001800999f0 f   libucrtd:atox.obj
 0001:00098a20       _wtol_l                    0000000180099a20 f   libucrtd:atox.obj
 0001:00098a50       _wtoll                     0000000180099a50 f   libucrtd:atox.obj
 0001:00098a80       _wtoll_l                   0000000180099a80 f   libucrtd:atox.obj
 0001:00098ab0       atoi                       0000000180099ab0 f   libucrtd:atox.obj
 0001:00098ae0       atol                       0000000180099ae0 f   libucrtd:atox.obj
 0001:00098b10       atoll                      0000000180099b10 f   libucrtd:atox.obj
 0001:00098b50       strncmp                    0000000180099b50 f   libucrtd:strncmp.obj
 0001:00098bd0       wcsncmp                    0000000180099bd0 f   libucrtd:wcsncmp.obj
 0001:00098c60       _CrtGetDebugFillThreshold  0000000180099c60 f   libucrtd:debug_fill_threshold.obj
 0001:00098c70       _CrtSetDebugFillThreshold  0000000180099c70 f   libucrtd:debug_fill_threshold.obj
 0001:00098ca0       ??$make_c_string_character_source@DPEAPEAD@__crt_strtox@@YA?AV?$c_string_character_source@D@0@QEBDQEAPEAD@Z 0000000180099ca0 f i libucrtd:strtox.obj
 0001:00098ce0       ??$make_c_string_character_source@_WPEAPEA_W@__crt_strtox@@YA?AV?$c_string_character_source@_W@0@QEB_WQEAPEA_W@Z 0000000180099ce0 f i libucrtd:strtox.obj
 0001:00098d20       ??$parse_integer_from_string@JDPEAPEAD@__crt_strtox@@YAJQEBDQEAPEADHQEAU__crt_locale_pointers@@@Z 0000000180099d20 f i libucrtd:strtox.obj
 0001:00098d70       ??$parse_integer_from_string@J_WPEAPEA_W@__crt_strtox@@YAJQEB_WQEAPEA_WHQEAU__crt_locale_pointers@@@Z 0000000180099d70 f i libucrtd:strtox.obj
 0001:00098dc0       ??$parse_integer_from_string@KDPEAPEAD@__crt_strtox@@YAKQEBDQEAPEADHQEAU__crt_locale_pointers@@@Z 0000000180099dc0 f i libucrtd:strtox.obj
 0001:00098e10       ??$parse_integer_from_string@K_WPEAPEA_W@__crt_strtox@@YAKQEB_WQEAPEA_WHQEAU__crt_locale_pointers@@@Z 0000000180099e10 f i libucrtd:strtox.obj
 0001:00098e60       ??$parse_integer_from_string@_JDPEAPEAD@__crt_strtox@@YA_JQEBDQEAPEADHQEAU__crt_locale_pointers@@@Z 0000000180099e60 f i libucrtd:strtox.obj
 0001:00098eb0       ??$parse_integer_from_string@_J_WPEAPEA_W@__crt_strtox@@YA_JQEB_WQEAPEA_WHQEAU__crt_locale_pointers@@@Z 0000000180099eb0 f i libucrtd:strtox.obj
 0001:00098f00       ??$parse_integer_from_string@_KDPEAPEAD@__crt_strtox@@YA_KQEBDQEAPEADHQEAU__crt_locale_pointers@@@Z 0000000180099f00 f i libucrtd:strtox.obj
 0001:00098f50       ??$parse_integer_from_string@_K_WPEAPEA_W@__crt_strtox@@YA_KQEB_WQEAPEA_WHQEAU__crt_locale_pointers@@@Z 0000000180099f50 f i libucrtd:strtox.obj
 0001:00098fa0       _strtoi64                  0000000180099fa0 f   libucrtd:strtox.obj
 0001:00098fd0       _strtoi64_l                0000000180099fd0 f   libucrtd:strtox.obj
 0001:00099010       _strtoimax_l               000000018009a010 f   libucrtd:strtox.obj
 0001:00099050       _strtol_l                  000000018009a050 f   libucrtd:strtox.obj
 0001:00099090       _strtoll_l                 000000018009a090 f   libucrtd:strtox.obj
 0001:000990d0       _strtoui64                 000000018009a0d0 f   libucrtd:strtox.obj
 0001:00099100       _strtoui64_l               000000018009a100 f   libucrtd:strtox.obj
 0001:00099140       _strtoul_l                 000000018009a140 f   libucrtd:strtox.obj
 0001:00099180       _strtoull_l                000000018009a180 f   libucrtd:strtox.obj
 0001:000991c0       _strtoumax_l               000000018009a1c0 f   libucrtd:strtox.obj
 0001:00099200       _wcstoi64                  000000018009a200 f   libucrtd:strtox.obj
 0001:00099230       _wcstoi64_l                000000018009a230 f   libucrtd:strtox.obj
 0001:00099270       _wcstoimax_l               000000018009a270 f   libucrtd:strtox.obj
 0001:000992b0       _wcstol_l                  000000018009a2b0 f   libucrtd:strtox.obj
 0001:000992f0       _wcstoll_l                 000000018009a2f0 f   libucrtd:strtox.obj
 0001:00099330       _wcstoui64                 000000018009a330 f   libucrtd:strtox.obj
 0001:00099360       _wcstoui64_l               000000018009a360 f   libucrtd:strtox.obj
 0001:000993a0       _wcstoul_l                 000000018009a3a0 f   libucrtd:strtox.obj
 0001:000993e0       _wcstoull_l                000000018009a3e0 f   libucrtd:strtox.obj
 0001:00099420       _wcstoumax_l               000000018009a420 f   libucrtd:strtox.obj
 0001:00099460       strtoimax                  000000018009a460 f   libucrtd:strtox.obj
 0001:00099490       strtol                     000000018009a490 f   libucrtd:strtox.obj
 0001:000994c0       strtoll                    000000018009a4c0 f   libucrtd:strtox.obj
 0001:000994f0       strtoul                    000000018009a4f0 f   libucrtd:strtox.obj
 0001:00099520       strtoull                   000000018009a520 f   libucrtd:strtox.obj
 0001:00099550       strtoumax                  000000018009a550 f   libucrtd:strtox.obj
 0001:00099580       wcstoimax                  000000018009a580 f   libucrtd:strtox.obj
 0001:000995b0       wcstol                     000000018009a5b0 f   libucrtd:strtox.obj
 0001:000995e0       wcstoll                    000000018009a5e0 f   libucrtd:strtox.obj
 0001:00099610       wcstoul                    000000018009a610 f   libucrtd:strtox.obj
 0001:00099640       wcstoull                   000000018009a640 f   libucrtd:strtox.obj
 0001:00099670       wcstoumax                  000000018009a670 f   libucrtd:strtox.obj
 0001:000996a0       _mbtowc_l                  000000018009a6a0 f   libucrtd:mbtowc.obj
 0001:00099b00       mbtowc                     000000018009ab00 f   libucrtd:mbtowc.obj
 0001:00099b30       _wctomb_l                  000000018009ab30 f   libucrtd:wctomb.obj
 0001:00099bf0       _wctomb_s_l                000000018009abf0 f   libucrtd:wctomb.obj
 0001:0009a170       wctomb                     000000018009b170 f   libucrtd:wctomb.obj
 0001:0009a1d0       wctomb_s                   000000018009b1d0 f   libucrtd:wctomb.obj
 0001:0009a220       ??$?RU__acrt_ptd@@@__crt_internal_free_policy@@QEBAXQEBU__acrt_ptd@@@Z 000000018009b220 f i libucrtd:per_thread_data.obj
 0001:0009a620       ??0?$__crt_unique_heap_ptr@U__acrt_ptd@@U__crt_internal_free_policy@@@@QEAA@QEAU__acrt_ptd@@@Z 000000018009b620 f i libucrtd:per_thread_data.obj
 0001:0009a640       ??0__crt_scoped_get_last_error_reset@@QEAA@XZ 000000018009b640 f i libucrtd:per_thread_data.obj
 0001:0009a660       ??1?$__crt_unique_heap_ptr@U__acrt_ptd@@U__crt_internal_free_policy@@@@QEAA@XZ 000000018009b660 f i libucrtd:per_thread_data.obj
 0001:0009a680       ??1__crt_scoped_get_last_error_reset@@QEAA@XZ 000000018009b680 f i libucrtd:per_thread_data.obj
 0001:0009a6a0       ??B?$__crt_unique_heap_ptr@U__acrt_ptd@@U__crt_internal_free_policy@@@@QEBA_NXZ 000000018009b6a0 f i libucrtd:per_thread_data.obj
 0001:0009a9f0       ?dangerous_get_state_array@?$dual_state_global@PEAU__crt_locale_data@@@__crt_state_management@@QEAAPEAPEAU__crt_locale_data@@XZ 000000018009b9f0 f i libucrtd:per_thread_data.obj
 0001:0009abb0       ?detach@?$__crt_unique_heap_ptr@U__acrt_ptd@@U__crt_internal_free_policy@@@@QEAAPEAU__acrt_ptd@@XZ 000000018009bbb0 f i libucrtd:per_thread_data.obj
 0001:0009abe0       ?get@?$__crt_unique_heap_ptr@U__acrt_ptd@@U__crt_internal_free_policy@@@@QEBAPEAU__acrt_ptd@@XZ 000000018009bbe0 f i libucrtd:per_thread_data.obj
 0001:0009abf0       ?get_current_state_index@__crt_state_management@@YA_KAEBV__crt_scoped_get_last_error_reset@@@Z 000000018009bbf0 f i libucrtd:per_thread_data.obj
 0001:0009ada0       ?is_valid@?$__crt_unique_heap_ptr@U__acrt_ptd@@U__crt_internal_free_policy@@@@QEBA_NXZ 000000018009bda0 f i libucrtd:per_thread_data.obj
 0001:0009add0       ?release@?$__crt_unique_heap_ptr@U__acrt_ptd@@U__crt_internal_free_policy@@@@QEAAXXZ 000000018009bdd0 f i libucrtd:per_thread_data.obj
 0001:0009af00       ?value@?$dual_state_global@PEAU__crt_locale_data@@@__crt_state_management@@QEAAAEAPEAU__crt_locale_data@@XZ 000000018009bf00 f i libucrtd:per_thread_data.obj
 0001:0009af20       __acrt_freeptd             000000018009bf20 f   libucrtd:per_thread_data.obj
 0001:0009af60       __acrt_getptd              000000018009bf60 f   libucrtd:per_thread_data.obj
 0001:0009af90       __acrt_getptd_head         000000018009bf90 f   libucrtd:per_thread_data.obj
 0001:0009afc0       __acrt_getptd_noexit       000000018009bfc0 f   libucrtd:per_thread_data.obj
 0001:0009afd0       __acrt_initialize_ptd      000000018009bfd0 f   libucrtd:per_thread_data.obj
 0001:0009b010       __acrt_uninitialize_ptd    000000018009c010 f   libucrtd:per_thread_data.obj
 0001:0009b040       __threadhandle             000000018009c040 f   libucrtd:per_thread_data.obj
 0001:0009b050       __threadid                 000000018009c050 f   libucrtd:per_thread_data.obj
 0001:0009b060       ?value@?$dual_state_global@PEAU__crt_multibyte_data@@@__crt_state_management@@QEAAAEAPEAU__crt_multibyte_data@@XZ 000000018009c060 f i libucrtd:locale_update.obj
 0001:0009b080       __acrt_update_locale_info  000000018009c080 f   libucrtd:locale_update.obj
 0001:0009b0d0       __acrt_update_multibyte_info 000000018009c0d0 f   libucrtd:locale_update.obj
 0001:0009b120       ?__acrt_fp_classify@@YA?AW4__acrt_fp_class@@AEBN@Z 000000018009c120 f i libucrtd:cvt.obj
 0001:0009b220       ?__acrt_fp_is_negative@@YA_NAEBN@Z 000000018009c220 f i libucrtd:cvt.obj
 0001:0009c8d0       ?strrchr@@YAPEADQEADH@Z    000000018009d8d0 f i libucrtd:cvt.obj
 0001:0009c8f0       __acrt_fp_format           000000018009d8f0 f   libucrtd:cvt.obj
 0001:0009cf60       _fputwc_nolock             000000018009df60 f   libucrtd:fputwc.obj
 0001:0009d1d0       _fputwchar                 000000018009e1d0 f   libucrtd:fputwc.obj
 0001:0009d200       _putwc_nolock              000000018009e200 f   libucrtd:fputwc.obj
 0001:0009d230       fputwc                     000000018009e230 f   libucrtd:fputwc.obj
 0001:0009d320       putwc                      000000018009e320 f   libucrtd:fputwc.obj
 0001:0009d350       putwchar                   000000018009e350 f   libucrtd:fputwc.obj
 0001:0009d370       ?lowio_handle@__crt_stdio_stream@@QEBAHXZ 000000018009e370 f i libucrtd:fileno.obj
 0001:0009d3a0       _fileno                    000000018009e3a0 f   libucrtd:fileno.obj
 0001:0009d480       ??$?RPEAU__crt_stdio_stream_data@@@__crt_internal_free_policy@@QEBAXQEBQEAU__crt_stdio_stream_data@@@Z 000000018009e480 f i libucrtd:_file.obj
 0001:0009d4b0       ??0?$__crt_unique_heap_ptr@PEAU__crt_stdio_stream_data@@U__crt_internal_free_policy@@@@QEAA@QEAPEAU__crt_stdio_stream_data@@@Z 000000018009e4b0 f i libucrtd:_file.obj
 0001:0009d4d0       ??1?$__crt_unique_heap_ptr@PEAU__crt_stdio_stream_data@@U__crt_internal_free_policy@@@@QEAA@XZ 000000018009e4d0 f i libucrtd:_file.obj
 0001:0009d4f0       ?detach@?$__crt_unique_heap_ptr@PEAU__crt_stdio_stream_data@@U__crt_internal_free_policy@@@@QEAAPEAPEAU__crt_stdio_stream_data@@XZ 000000018009e4f0 f i libucrtd:_file.obj
 0001:0009d520       ?release@?$__crt_unique_heap_ptr@PEAU__crt_stdio_stream_data@@U__crt_internal_free_policy@@@@QEAAXXZ 000000018009e520 f i libucrtd:_file.obj
 0001:0009d550       __acrt_initialize_stdio    000000018009e550 f   libucrtd:_file.obj
 0001:0009d740       __acrt_iob_func            000000018009e740 f   libucrtd:_file.obj
 0001:0009d760       __acrt_uninitialize_stdio  000000018009e760 f   libucrtd:_file.obj
 0001:0009d7f0       _get_stream_buffer_pointers 000000018009e7f0 f   libucrtd:_file.obj
 0001:0009d920       _lock_file                 000000018009e920 f   libucrtd:_file.obj
 0001:0009d960       _unlock_file               000000018009e960 f   libucrtd:_file.obj
 0001:0009d9a0       _get_printf_count_output   000000018009e9a0 f   libucrtd:printf_count_output.obj
 0001:0009d9d0       _set_printf_count_output   000000018009e9d0 f   libucrtd:printf_count_output.obj
 0001:0009da40       ?has_any_buffer@__crt_stdio_stream@@QEBA_NXZ 000000018009ea40 f i libucrtd:_sftbuf.obj
 0001:0009da60       ?has_any_of@__crt_stdio_stream@@QEBA_NJ@Z 000000018009ea60 f i libucrtd:_sftbuf.obj
 0001:0009daa0       ?has_temporary_buffer@__crt_stdio_stream@@QEBA_NXZ 000000018009eaa0 f i libucrtd:_sftbuf.obj
 0001:0009dac0       ?set_flags@__crt_stdio_stream@@QEBA_NJ@Z 000000018009eac0 f i libucrtd:_sftbuf.obj
 0001:0009db30       ?unset_flags@__crt_stdio_stream@@QEBA_NJ@Z 000000018009eb30 f i libucrtd:_sftbuf.obj
 0001:0009db90       __acrt_stdio_begin_temporary_buffering_nolock 000000018009eb90 f   libucrtd:_sftbuf.obj
 0001:0009ddd0       __acrt_stdio_end_temporary_buffering_nolock 000000018009edd0 f   libucrtd:_sftbuf.obj
 0001:0009de80       ??$?RU__crt_locale_data@@@__crt_internal_free_policy@@QEBAXQEBU__crt_locale_data@@@Z 000000018009ee80 f i libucrtd:wsetlocale.obj
 0001:0009deb0       ??$?RU__crt_locale_pointers@@@__crt_internal_free_policy@@QEBAXQEBU__crt_locale_pointers@@@Z 000000018009eeb0 f i libucrtd:wsetlocale.obj
 0001:0009dee0       ??$?RU__crt_multibyte_data@@@__crt_internal_free_policy@@QEBAXQEBU__crt_multibyte_data@@@Z 000000018009eee0 f i libucrtd:wsetlocale.obj
 0001:0009e440       ??0?$__crt_unique_heap_ptr@U__crt_locale_data@@U__crt_internal_free_policy@@@@QEAA@QEAU__crt_locale_data@@@Z 000000018009f440 f i libucrtd:wsetlocale.obj
 0001:0009e460       ??0?$__crt_unique_heap_ptr@U__crt_locale_pointers@@U__crt_internal_free_policy@@@@QEAA@QEAU__crt_locale_pointers@@@Z 000000018009f460 f i libucrtd:wsetlocale.obj
 0001:0009e480       ??0?$__crt_unique_heap_ptr@U__crt_multibyte_data@@U__crt_internal_free_policy@@@@QEAA@QEAU__crt_multibyte_data@@@Z 000000018009f480 f i libucrtd:wsetlocale.obj
 0001:0009e4a0       ??0_expandlocale_locale_name_cache@@QEAA@QEA_W_KQEAU__crt_qualified_locale_data@@@Z 000000018009f4a0 f i libucrtd:wsetlocale.obj
 0001:0009e550       ??1?$__crt_unique_heap_ptr@U__crt_locale_data@@U__crt_internal_free_policy@@@@QEAA@XZ 000000018009f550 f i libucrtd:wsetlocale.obj
 0001:0009e570       ??1?$__crt_unique_heap_ptr@U__crt_locale_pointers@@U__crt_internal_free_policy@@@@QEAA@XZ 000000018009f570 f i libucrtd:wsetlocale.obj
 0001:0009e590       ??1?$__crt_unique_heap_ptr@U__crt_multibyte_data@@U__crt_internal_free_policy@@@@QEAA@XZ 000000018009f590 f i libucrtd:wsetlocale.obj
 0001:0009e5b0       ??1_expandlocale_locale_name_cache@@QEAA@XZ 000000018009f5b0 f i libucrtd:wsetlocale.obj
 0001:0009e630       ??B?$__crt_unique_heap_ptr@U__crt_locale_data@@U__crt_internal_free_policy@@@@QEBA_NXZ 000000018009f630 f i libucrtd:wsetlocale.obj
 0001:0009e650       ??B?$__crt_unique_heap_ptr@U__crt_locale_pointers@@U__crt_internal_free_policy@@@@QEBA_NXZ 000000018009f650 f i libucrtd:wsetlocale.obj
 0001:0009e670       ??B?$__crt_unique_heap_ptr@U__crt_multibyte_data@@U__crt_internal_free_policy@@@@QEBA_NXZ 000000018009f670 f i libucrtd:wsetlocale.obj
 0001:0009eb20       ?commit_locale_name@_expandlocale_locale_name_cache@@QEAAXQEB_W_K@Z 000000018009fb20 f i libucrtd:wsetlocale.obj
 0001:0009eba0       ?commit_locale_name_cache_already_updated@_expandlocale_locale_name_cache@@QEAAXQEB_W_K@Z 000000018009fba0 f i libucrtd:wsetlocale.obj
 0001:0009ec10       ?detach@?$__crt_unique_heap_ptr@U__crt_locale_data@@U__crt_internal_free_policy@@@@QEAAPEAU__crt_locale_data@@XZ 000000018009fc10 f i libucrtd:wsetlocale.obj
 0001:0009ec40       ?detach@?$__crt_unique_heap_ptr@U__crt_locale_pointers@@U__crt_internal_free_policy@@@@QEAAPEAU__crt_locale_pointers@@XZ 000000018009fc40 f i libucrtd:wsetlocale.obj
 0001:0009ec70       ?detach@?$__crt_unique_heap_ptr@U__crt_multibyte_data@@U__crt_internal_free_policy@@@@QEAAPEAU__crt_multibyte_data@@XZ 000000018009fc70 f i libucrtd:wsetlocale.obj
 0001:0009eca0       ?get@?$__crt_unique_heap_ptr@U__crt_locale_data@@U__crt_internal_free_policy@@@@QEBAPEAU__crt_locale_data@@XZ 000000018009fca0 f i libucrtd:wsetlocale.obj
 0001:0009ecb0       ?get@?$__crt_unique_heap_ptr@U__crt_locale_pointers@@U__crt_internal_free_policy@@@@QEBAPEAU__crt_locale_pointers@@XZ 000000018009fcb0 f i libucrtd:wsetlocale.obj
 0001:0009ecc0       ?get@?$__crt_unique_heap_ptr@U__crt_multibyte_data@@U__crt_internal_free_policy@@@@QEBAPEAU__crt_multibyte_data@@XZ 000000018009fcc0 f i libucrtd:wsetlocale.obj
 0001:0009ecd0       ?is_valid@?$__crt_unique_heap_ptr@U__crt_locale_data@@U__crt_internal_free_policy@@@@QEBA_NXZ 000000018009fcd0 f i libucrtd:wsetlocale.obj
 0001:0009ed00       ?is_valid@?$__crt_unique_heap_ptr@U__crt_locale_pointers@@U__crt_internal_free_policy@@@@QEBA_NXZ 000000018009fd00 f i libucrtd:wsetlocale.obj
 0001:0009ed30       ?is_valid@?$__crt_unique_heap_ptr@U__crt_multibyte_data@@U__crt_internal_free_policy@@@@QEBA_NXZ 000000018009fd30 f i libucrtd:wsetlocale.obj
 0001:0009ed60       ?release@?$__crt_unique_heap_ptr@U__crt_locale_data@@U__crt_internal_free_policy@@@@QEAAXXZ 000000018009fd60 f i libucrtd:wsetlocale.obj
 0001:0009ed90       ?release@?$__crt_unique_heap_ptr@U__crt_locale_pointers@@U__crt_internal_free_policy@@@@QEAAXXZ 000000018009fd90 f i libucrtd:wsetlocale.obj
 0001:0009edc0       ?release@?$__crt_unique_heap_ptr@U__crt_multibyte_data@@U__crt_internal_free_policy@@@@QEAAXXZ 000000018009fdc0 f i libucrtd:wsetlocale.obj
 0001:0009edf0       __acrt_copy_locale_name    000000018009fdf0 f   libucrtd:wsetlocale.obj
 0001:0009eec0       __acrt_set_locale_changed  000000018009fec0 f   libucrtd:wsetlocale.obj
 0001:0009eed0       __acrt_uninitialize_locale 000000018009fed0 f   libucrtd:wsetlocale.obj
 0001:0009ef00       __ascii_tolower            000000018009ff00 f i libucrtd:wsetlocale.obj
 0001:0009ef20       __ascii_towlower           000000018009ff20 f i libucrtd:wsetlocale.obj
 0001:0009ef40       __lc_lctowcs               000000018009ff40 f   libucrtd:wsetlocale.obj
 0001:0009f030       __lc_wcstolc               00000001800a0030 f   libucrtd:wsetlocale.obj
 0001:0009f2f0       _configthreadlocale        00000001800a02f0 f   libucrtd:wsetlocale.obj
 0001:0009f4b0       _create_locale             00000001800a04b0 f   libucrtd:wsetlocale.obj
 0001:0009fbb0       _free_locale               00000001800a0bb0 f   libucrtd:wsetlocale.obj
 0001:0009fca0       _get_current_locale        00000001800a0ca0 f   libucrtd:wsetlocale.obj
 0001:0009fdb0       _wcreate_locale            00000001800a0db0 f   libucrtd:wsetlocale.obj
 0001:000a00a0       _wcscats                   00000001800a10a0 f   libucrtd:wsetlocale.obj
 0001:000a0180       _wsetlocale                00000001800a1180 f   libucrtd:wsetlocale.obj
 0001:000a1da0       __p___mb_cur_max           00000001800a2da0 f   libucrtd:nlsdata.obj
 0001:000a2180       __acrt_initialize_lowio    00000001800a3180 f   libucrtd:ioinit.obj
 0001:000a21d0       __acrt_uninitialize_lowio  00000001800a31d0 f   libucrtd:ioinit.obj
 0001:000a2250       _CrtGetReportHook          00000001800a3250 f   libucrtd:dbgrptt.obj
 0001:000a2260       _CrtSetReportFile          00000001800a3260 f   libucrtd:dbgrptt.obj
 0001:000a23c0       _CrtSetReportHook          00000001800a33c0 f   libucrtd:dbgrptt.obj
 0001:000a23f0       _CrtSetReportMode          00000001800a33f0 f   libucrtd:dbgrptt.obj
 0001:000a25a0       _VCrtDbgReportA            00000001800a35a0 f   libucrtd:dbgrptt.obj
 0001:000a2f80       _VCrtDbgReportW            00000001800a3f80 f   libucrtd:dbgrptt.obj
 0001:000a3b00       _snprintf_s                00000001800a4b00 f i libucrtd:dbgrptt.obj
 0001:000a3b70       _vsnprintf_s               00000001800a4b70 f i libucrtd:dbgrptt.obj
 0001:000a3bc0       _vsnprintf_s_l             00000001800a4bc0 f i libucrtd:dbgrptt.obj
 0001:000a3de0       ??$__acrt_wcs_to_mbs_cp@U__crt_win32_buffer_no_resizing@@@@YAHQEB_WAEAV?$__crt_win32_buffer@DU__crt_win32_buffer_no_resizing@@@@I@Z 00000001800a4de0 f i libucrtd:getmodulefilenamea.obj
 0001:000a3e30       ??0?$__crt_win32_buffer@DU__crt_win32_buffer_no_resizing@@@@QEAA@QEAD_K@Z 00000001800a4e30 f i libucrtd:getmodulefilenamea.obj
 0001:000a3ea0       ??1?$__crt_win32_buffer@DU__crt_win32_buffer_no_resizing@@@@QEAA@XZ 00000001800a4ea0 f i libucrtd:getmodulefilenamea.obj
 0001:000a3f30       ?__acrt_get_utf8_acp_compatibility_codepage@@YAIXZ 00000001800a4f30 f i libucrtd:getmodulefilenamea.obj
 0001:000a3fd0       ?_deallocate@?$__crt_win32_buffer@DU__crt_win32_buffer_no_resizing@@@@AEAAXXZ 00000001800a4fd0 f i libucrtd:getmodulefilenamea.obj
 0001:000a4010       ?allocate@?$__crt_win32_buffer@DU__crt_win32_buffer_no_resizing@@@@QEAAH_K@Z 00000001800a5010 f i libucrtd:getmodulefilenamea.obj
 0001:000a4090       ?allocate@__crt_win32_buffer_no_resizing@@SAHQEAPEAX_KAEBV__crt_win32_buffer_empty_debug_info@@@Z 00000001800a5090 f i libucrtd:getmodulefilenamea.obj
 0001:000a40c0       ?capacity@?$__crt_win32_buffer@DU__crt_win32_buffer_no_resizing@@@@QEBA_KXZ 00000001800a50c0 f i libucrtd:getmodulefilenamea.obj
 0001:000a40d0       ?data@?$__crt_win32_buffer@DU__crt_win32_buffer_no_resizing@@@@QEAAPEADXZ 00000001800a50d0 f i libucrtd:getmodulefilenamea.obj
 0001:000a40e0       ?deallocate@__crt_win32_buffer_no_resizing@@SAXQEAXAEBV__crt_win32_buffer_empty_debug_info@@@Z 00000001800a50e0 f i libucrtd:getmodulefilenamea.obj
 0001:000a40f0       ?debug_info@?$__crt_win32_buffer@DU__crt_win32_buffer_no_resizing@@@@QEBAAEBV__crt_win32_buffer_empty_debug_info@@XZ 00000001800a50f0 f i libucrtd:getmodulefilenamea.obj
 0001:000a4100       ?set_to_nullptr@?$__crt_win32_buffer@DU__crt_win32_buffer_no_resizing@@@@QEAAXXZ 00000001800a5100 f i libucrtd:getmodulefilenamea.obj
 0001:000a4140       ?size@?$__crt_win32_buffer@DU__crt_win32_buffer_no_resizing@@@@QEAAX_K@Z 00000001800a5140 f i libucrtd:getmodulefilenamea.obj
 0001:000a4160       ?size@?$__crt_win32_buffer@DU__crt_win32_buffer_no_resizing@@@@QEBA_KXZ 00000001800a5160 f i libucrtd:getmodulefilenamea.obj
 0001:000a4170       __acrt_GetModuleFileNameA  00000001800a5170 f   libucrtd:getmodulefilenamea.obj
 0001:000a44d0       ??$message_box@$$TAEBQEBDAEBQEBDK@?$__crt_char_traits@D@@SAH$$QEA$$TAEBQEBD1$$QEAK@Z 00000001800a54d0 f i libucrtd:crtmbox.obj
 0001:000a4520       ??$message_box@$$TAEBQEB_WAEBQEB_WK@?$__crt_char_traits@_W@@SAH$$QEA$$TAEBQEB_W1$$QEAK@Z 00000001800a5520 f i libucrtd:crtmbox.obj
 0001:000a4570       ??$message_box@PEAUHWND__@@AEBQEBDAEBQEBDAEBI@?$__crt_char_traits@D@@SAH$$QEAPEAUHWND__@@AEBQEBD1AEBI@Z 00000001800a5570 f i libucrtd:crtmbox.obj
 0001:000a45c0       ??$message_box@PEAUHWND__@@AEBQEB_WAEBQEB_WAEBI@?$__crt_char_traits@_W@@SAH$$QEAPEAUHWND__@@AEBQEB_W1AEBI@Z 00000001800a55c0 f i libucrtd:crtmbox.obj
 0001:000a4610       ??$output_debug_string@AEBQEBD@?$__crt_char_traits@D@@SAXAEBQEBD@Z 00000001800a5610 f i libucrtd:crtmbox.obj
 0001:000a4630       ??$output_debug_string@AEBQEB_W@?$__crt_char_traits@_W@@SAXAEBQEB_W@Z 00000001800a5630 f i libucrtd:crtmbox.obj
 0001:000a4650       __acrt_show_narrow_message_box 00000001800a5650 f   libucrtd:crtmbox.obj
 0001:000a4680       __acrt_show_wide_message_box 00000001800a5680 f   libucrtd:crtmbox.obj
 0001:000a46b0       __acrt_initialize_locks    00000001800a56b0 f   libucrtd:locks.obj
 0001:000a4720       __acrt_lock                00000001800a5720 f   libucrtd:locks.obj
 0001:000a4750       __acrt_uninitialize_locks  00000001800a5750 f   libucrtd:locks.obj
 0001:000a47b0       __acrt_unlock              00000001800a57b0 f   libucrtd:locks.obj
 0001:000a47e0       _lock_locales              00000001800a57e0 f   libucrtd:locks.obj
 0001:000a4800       _unlock_locales            00000001800a5800 f   libucrtd:locks.obj
 0001:000a4820       ??$?B$$A6AXH@Z@__crt_fast_encoded_nullptr_t@@QEBAP6AXH@ZXZ 00000001800a5820 f i libucrtd:signal.obj
 0001:000a48e0       ??$__crt_fast_decode_pointer@P6AXH@Z@@YAP6AXH@ZQ6AXH@Z@Z 00000001800a58e0 f i libucrtd:signal.obj
 0001:000a4920       ??$__crt_fast_encode_pointer@P6AXH@Z@@YAP6AXH@ZQ6AXH@Z@Z 00000001800a5920 f i libucrtd:signal.obj
 0001:000a4ba0       ?initialize@?$dual_state_global@P6AXH@Z@__crt_state_management@@QEAAXQ6AXH@Z@Z 00000001800a5ba0 f i libucrtd:signal.obj
 0001:000a4d20       ?value@?$dual_state_global@P6AXH@Z@__crt_state_management@@QEAAAEAP6AXH@ZXZ 00000001800a5d20 f i libucrtd:signal.obj
 0001:000a4d40       __acrt_get_sigabrt_handler 00000001800a5d40 f   libucrtd:signal.obj
 0001:000a4d70       __acrt_initialize_signal_handlers 00000001800a5d70 f   libucrtd:signal.obj
 0001:000a4dd0       __fpecode                  00000001800a5dd0 f   libucrtd:signal.obj
 0001:000a4df0       __pxcptinfoptrs            00000001800a5df0 f   libucrtd:signal.obj
 0001:000a4e10       raise                      00000001800a5e10 f   libucrtd:signal.obj
 0001:000a52d0       signal                     00000001800a62d0 f   libucrtd:signal.obj
 0001:000a55a0       _msize                     00000001800a65a0 f   libucrtd:msize.obj
 0001:000a55c0       _msize_base                00000001800a65c0 f   libucrtd:msize.obj
 0001:000a5690       _realloc_base              00000001800a6690 f   libucrtd:realloc_base.obj
 0001:000a5760       ??$?B$$A6AHPEA_WK_J@Z@__crt_fast_encoded_nullptr_t@@QEBAP6AHPEA_WK_J@ZXZ 00000001800a6760 f i libucrtd:winapi_thunks.obj
 0001:000a5820       ??$__crt_fast_decode_pointer@P6AHPEA_WK_J@Z@@YAP6AHPEA_WK_J@ZQ6AH0K1@Z@Z 00000001800a6820 f i libucrtd:winapi_thunks.obj
 0001:000a5860       ??$__crt_fast_decode_pointer@PEAX@@YAPEAXQEAX@Z 00000001800a6860 f i libucrtd:winapi_thunks.obj
 0001:000a58a0       ??$__crt_fast_encode_pointer@P6AHPEA_WK_J@Z@@YAP6AHPEA_WK_J@ZQ6AH0K1@Z@Z 00000001800a68a0 f i libucrtd:winapi_thunks.obj
 0001:000a6510       GetCurrentThreadEffectiveToken 00000001800a7510 f i libucrtd:winapi_thunks.obj
 0001:000a6520       __acrt_AppPolicyGetProcessTerminationMethodInternal 00000001800a7520 f   libucrtd:winapi_thunks.obj
 0001:000a6570       __acrt_AppPolicyGetShowDeveloperDiagnosticInternal 00000001800a7570 f   libucrtd:winapi_thunks.obj
 0001:000a65c0       __acrt_AppPolicyGetThreadInitializationTypeInternal 00000001800a75c0 f   libucrtd:winapi_thunks.obj
 0001:000a6610       __acrt_AppPolicyGetWindowingModelInternal 00000001800a7610 f   libucrtd:winapi_thunks.obj
 0001:000a6660       __acrt_AreFileApisANSI     00000001800a7660 f   libucrtd:winapi_thunks.obj
 0001:000a66a0       __acrt_CompareStringEx     00000001800a76a0 f   libucrtd:winapi_thunks.obj
 0001:000a6780       __acrt_EnumSystemLocalesEx 00000001800a7780 f   libucrtd:winapi_thunks.obj
 0001:000a6800       __acrt_FlsAlloc            00000001800a7800 f   libucrtd:winapi_thunks.obj
 0001:000a6850       __acrt_FlsFree             00000001800a7850 f   libucrtd:winapi_thunks.obj
 0001:000a68a0       __acrt_FlsGetValue         00000001800a78a0 f   libucrtd:winapi_thunks.obj
 0001:000a68f0       __acrt_FlsSetValue         00000001800a78f0 f   libucrtd:winapi_thunks.obj
 0001:000a6950       __acrt_GetDateFormatEx     00000001800a7950 f   libucrtd:winapi_thunks.obj
 0001:000a6a10       __acrt_GetEnabledXStateFeatures 00000001800a7a10 f   libucrtd:winapi_thunks.obj
 0001:000a6a50       __acrt_GetLocaleInfoEx     00000001800a7a50 f   libucrtd:winapi_thunks.obj
 0001:000a6ad0       __acrt_GetSystemTimePreciseAsFileTime 00000001800a7ad0 f   libucrtd:winapi_thunks.obj
 0001:000a6b20       __acrt_GetTimeFormatEx     00000001800a7b20 f   libucrtd:winapi_thunks.obj
 0001:000a6bd0       __acrt_GetUserDefaultLocaleName 00000001800a7bd0 f   libucrtd:winapi_thunks.obj
 0001:000a6c30       __acrt_GetXStateFeaturesMask 00000001800a7c30 f   libucrtd:winapi_thunks.obj
 0001:000a6c80       __acrt_InitializeCriticalSectionEx 00000001800a7c80 f   libucrtd:winapi_thunks.obj
 0001:000a6ce0       __acrt_IsValidLocaleName   00000001800a7ce0 f   libucrtd:winapi_thunks.obj
 0001:000a6d40       __acrt_LCIDToLocaleName    00000001800a7d40 f   libucrtd:winapi_thunks.obj
