 OPOSBumpBar

 Timestamp is 600f776b (Tue Jan 26 10:59:07 2021)

 Preferred load address is 0000000180000000

 Start         Length     Name                   Class
 0001:00000000 00001400H .text$di                CODE
 0001:00001400 000d5940H .text$mn                CODE
 0001:000d6d40 00000040H .text$mn$00             CODE
 0001:000d6d80 00001390H .text$x                 CODE
 0001:000d8110 000001b4H .text$yd                CODE
 0002:00000000 000006d8H .idata$5                DATA
 0002:000006d8 00000028H .00cfg                  DATA
 0002:00000700 00000008H .CRT$XCA                DATA
 0002:00000708 00000008H .CRT$XCL                DATA
 0002:00000710 000000d8H .CRT$XCU                DATA
 0002:000007e8 00000008H .CRT$XCZ                DATA
 0002:000007f0 00000008H .CRT$XIA                DATA
 0002:000007f8 00000028H .CRT$XIC                DATA
 0002:00000820 00000008H .CRT$XIZ                DATA
 0002:00000828 00000008H .CRT$XLA                DATA
 0002:00000830 00000008H .CRT$XLZ                DATA
 0002:00000838 00000008H .CRT$XPA                DATA
 0002:00000840 00000010H .CRT$XPX                DATA
 0002:00000850 00000008H .CRT$XPXA               DATA
 0002:00000858 00000008H .CRT$XPZ                DATA
 0002:00000860 00000008H .CRT$XTA                DATA
 0002:00000868 00000008H .CRT$XTZ                DATA
 0002:00000870 00000000H .gehcont$y              DATA
 0002:00000870 00000000H .gfids$y                DATA
 0002:00000870 0003bd10H .rdata                  DATA
 0002:0003c580 00000008H .rdata$CastGuardVftablesA DATA
 0002:0003c588 00000008H .rdata$CastGuardVftablesC DATA
 0002:0003c590 00000028H .rdata$T                DATA
 0002:0003c5b8 0000056cH .rdata$r                DATA
 0002:0003cb24 00000474H .rdata$zzzdbg           DATA
 0002:0003cf98 00000008H .rtc$IAA                DATA
 0002:0003cfa0 00000030H .rtc$IMZ                DATA
 0002:0003cfd0 00000008H .rtc$IZZ                DATA
 0002:0003cfd8 00000008H .rtc$TAA                DATA
 0002:0003cfe0 00000030H .rtc$TMZ                DATA
 0002:0003d010 00000008H .rtc$TZZ                DATA
 0002:0003d018 00000004H .tls                    DATA
 0002:0003d01c 00000004H .tls$                   DATA
 0002:0003d020 00000010H .tls$ZZZ                DATA
 0002:0003d030 00009868H .xdata                  DATA
 0002:00046898 00000150H .xdata$x                DATA
 0002:000469e8 00000008H ATL$__a                 DATA
 0002:000469f0 00000010H ATL$__z                 DATA
 0002:00046a00 000000a8H .edata                  DATA
 0002:00046aa8 00000078H .idata$2                DATA
 0002:00046b20 00000018H .idata$3                DATA
 0002:00046b38 000006d8H .idata$4                DATA
 0002:00047210 00000dbeH .idata$6                DATA
 0003:00000000 00000eb8H .data                   DATA
 0003:00000eb8 00000198H .data$r                 DATA
 0003:00001050 00003e9cH .bss                    DATA
 0004:00000000 0000c228H .pdata                  DATA
 0005:00000000 00000094H _RDATA                  DATA
 0006:00000000 00000220H .rsrc$01                DATA
 0006:00000220 00004300H .rsrc$02                DATA

  Address         Publics by Value              Rva+Base               Lib:Object

 0000:00000000       __guard_iat_table          0000000000000000     <absolute>
 0000:00000000       __volatile_metadata        0000000000000000     <absolute>
 0000:00000000       __arm64x_extra_rfe_table_size 0000000000000000     <absolute>
 0000:00000000       __guard_fids_table         0000000000000000     <absolute>
 0000:00000000       __guard_longjmp_table      0000000000000000     <absolute>
 0000:00000000       ___safe_se_handler_table   0000000000000000     <absolute>
 0000:00000000       __hybrid_code_map          0000000000000000     <absolute>
 0000:00000000       __arm64x_redirection_metadata 0000000000000000     <absolute>
 0000:00000000       __hybrid_code_map_count    0000000000000000     <absolute>
 0000:00000000       __x64_code_ranges_to_entry_points 0000000000000000     <absolute>
 0000:00000000       __arm64x_native_entrypoint 0000000000000000     <absolute>
 0000:00000000       __arm64x_extra_rfe_table   0000000000000000     <absolute>
 0000:00000000       __guard_longjmp_count      0000000000000000     <absolute>
 0000:00000000       ___safe_se_handler_count   0000000000000000     <absolute>
 0000:00000000       __guard_eh_cont_table      0000000000000000     <absolute>
 0000:00000000       __AbsoluteZero             0000000000000000     <absolute>
 0000:00000000       __dynamic_value_reloc_table 0000000000000000     <absolute>
 0000:00000000       __x64_code_ranges_to_entry_points_count 0000000000000000     <absolute>
 0000:00000000       __guard_eh_cont_count      0000000000000000     <absolute>
 0000:00000000       __guard_iat_count          0000000000000000     <absolute>
 0000:00000000       __enclave_config           0000000000000000     <absolute>
 0000:00000000       __guard_fids_count         0000000000000000     <absolute>
 0000:00000000       __hybrid_auxiliary_iat     0000000000000000     <absolute>
 0000:00000000       __arm64x_redirection_metadata_count 0000000000000000     <absolute>
 0000:00000100       __guard_flags              0000000000000100     <absolute>
 0000:00000000       __ImageBase                0000000180000000     <linker-defined>
 0001:00001400       ?_assert@@YAXPEB_W0I@Z     0000000180002400 f   Assert.obj
 0001:00001500       __local_stdio_printf_options 0000000180002500 f i Assert.obj
 0001:00001510       __vswprintf_l              0000000180002510 f i Assert.obj
 0001:00001570       _swprintf                  0000000180002570 f i Assert.obj
 0001:000015f0       _vswprintf_c_l             00000001800025f0 f i Assert.obj
 0001:00001680       _vswprintf_l               0000000180002680 f i Assert.obj
 0001:000016e0       ?cw_memcpy@@YAHPEADPEB_WH@Z 00000001800026e0 f   CWString.obj
 0001:00001770       ?cw_memcpy@@YAHPEA_WPEBDH@Z 0000000180002770 f   CWString.obj
 0001:000017f0       ?cw_memcpy@@YAHPEADPEBDH@Z 00000001800027f0 f   CWString.obj
 0001:00001890       ?cw_memcpy@@YAHPEA_WPEB_WH@Z 0000000180002890 f   CWString.obj
 0001:00001900       ?cw_memset@@YAXPEADDH@Z    0000000180002900 f   CWString.obj
 0001:00001970       ?cw_memset@@YAXPEA_W_WH@Z  0000000180002970 f   CWString.obj
 0001:00001a10       ?cw_strlen@@YAHPEBD@Z      0000000180002a10 f   CWString.obj
 0001:00001a80       ?cw_strlen@@YAHPEB_W@Z     0000000180002a80 f   CWString.obj
 0001:00001af0       ?cw_strcpy@@YAHPEADPEB_W@Z 0000000180002af0 f   CWString.obj
 0001:00001b40       ?cw_strcpy@@YAHPEA_WPEBD@Z 0000000180002b40 f   CWString.obj
 0001:00001b90       ?cw_strcpy@@YAHPEADPEBD@Z  0000000180002b90 f   CWString.obj
 0001:00001be0       ?cw_strcpy@@YAHPEA_WPEB_W@Z 0000000180002be0 f   CWString.obj
 0001:00001c30       ?cw_strcat@@YAHPEADPEB_W@Z 0000000180002c30 f   CWString.obj
 0001:00001c90       ?cw_strcat@@YAHPEA_WPEBD@Z 0000000180002c90 f   CWString.obj
 0001:00001cf0       ?cw_strcat@@YAHPEADPEBD@Z  0000000180002cf0 f   CWString.obj
 0001:00001d50       ?cw_strcat@@YAHPEA_WPEB_W@Z 0000000180002d50 f   CWString.obj
 0001:00001db0       ?cw_dup@@YAXPEBDAEAHAEAPEA_W1@Z 0000000180002db0 f   CWString.obj
 0001:00001ec0       ?cw_dup@@YAXPEB_WAEAHAEAPEAD1@Z 0000000180002ec0 f   CWString.obj
 0001:00001fb0       ?DupChar@_CW@@AEAAXXZ      0000000180002fb0 f   CWString.obj
 0001:00002010       ?DupWide@_CW@@AEAAXXZ      0000000180003010 f   CWString.obj
 0001:00002080       ?GetCharsMbcs@_CW@@QEAAHXZ 0000000180003080 f   CWString.obj
 0001:000020f0       ?GetCharsWide@_CW@@QEAAHXZ 00000001800030f0 f   CWString.obj
 0001:00002160       ?SetVARIANT_BOOL@OposVariant@@QEAAXF@Z 0000000180003160 f   OposVariant.obj
 0001:000021d0       ?SetVARIANT_BOOL_Ptr@OposVariant@@QEAAXPEAFAEAJ@Z 00000001800031d0 f   OposVariant.obj
 0001:00002240       ?GetLONG@OposVariant@@QEAAJXZ 0000000180003240 f   OposVariant.obj
 0001:000022a0       ?ChangeLONG@OposVariant@@QEAAXPEAJAEAJ@Z 00000001800032a0 f   OposVariant.obj
 0001:00002350       ?SetLONG@OposVariant@@QEAAXJ@Z 0000000180003350 f   OposVariant.obj
 0001:000023b0       ?SetLONG_Ptr@OposVariant@@QEAAXPEAJAEAJ@Z 00000001800033b0 f   OposVariant.obj
 0001:00002420       ?ChangeCURRENCY@OposVariant@@QEAAXPEATtagCY@@AEAJ@Z 0000000180003420 f   OposVariant.obj
 0001:000024d0       ?SetCURRENCY@OposVariant@@QEAAXTtagCY@@@Z 00000001800034d0 f   OposVariant.obj
 0001:00002530       ?SetCURRENCY_Ptr@OposVariant@@QEAAXPEATtagCY@@AEAJ@Z 0000000180003530 f   OposVariant.obj
 0001:000025a0       ?ChangeBSTR@OposVariant@@QEAAXPEAPEA_WAEAJ@Z 00000001800035a0 f   OposVariant.obj
 0001:00002650       ?SetBSTR@OposVariant@@QEAAXPEA_WAEAJ@Z 0000000180003650 f   OposVariant.obj
 0001:000026d0       ?SetBSTR_Copy@OposVariant@@QEAAXPEA_WAEAJ@Z 00000001800036d0 f   OposVariant.obj
 0001:00002780       ?SetBSTR_OutPtr@OposVariant@@QEAA_NPEAPEA_WAEAJ@Z 0000000180003780 f   OposVariant.obj
 0001:000027f0       ?SetBSTR_InOutPtr@OposVariant@@QEAA_NPEAPEA_WAEAJ@Z 00000001800037f0 f   OposVariant.obj
 0001:00002870       ?SetVARIANT@OposVariant@@QEAAXAEAUtagVARIANT@@GAEAJ@Z 0000000180003870 f   OposVariant.obj
 0001:00002910       ?SetVARIANT_Ptr@OposVariant@@QEAAXAEAPEAUtagVARIANT@@GAEAJ@Z 0000000180003910 f   OposVariant.obj
 0001:000029c0       ?SetString@OposVariant@@QEAAXPEB_WAEAJ@Z 00000001800039c0 f   OposVariant.obj
 0001:00002a70       ?SetDispatch_Ptr@OposVariant@@QEAAXPEAUIDispatch@@AEAJ@Z 0000000180003a70 f   OposVariant.obj
 0001:00002b00       ??0OposDispParms@@QEAA@PEAVOposVariant@@H@Z 0000000180003b00 f   OposVariant.obj
 0001:00002c10       ??1OposDispParms@@QEAA@XZ  0000000180003c10 f   OposVariant.obj
 0001:00002c60       ??$AtlMultiply@_K@ATL@@YAJPEA_K_K1@Z 0000000180003c60 f i OposVariant.obj
 0001:00002ce0       ??0?$CHeapPtr@_WVCCRTAllocator@ATL@@@ATL@@QEAA@XZ 0000000180003ce0 f i OposVariant.obj
 0001:00002d20       ??0?$CHeapPtrBase@_WVCCRTAllocator@ATL@@@ATL@@IEAA@XZ 0000000180003d20 f i OposVariant.obj
 0001:00002d40       ??0?$CSimpleArray@GV?$CSimpleArrayEqualHelper@G@ATL@@@ATL@@QEAA@XZ 0000000180003d40 f i OposVariant.obj
 0001:00002d80       ??0?$CTraceCategoryEx@$00$0A@@ATL@@QEAA@PEB_W@Z 0000000180003d80 f i OposVariant.obj
 0001:00002dc0       ??0?$CTraceCategoryEx@$01$0A@@ATL@@QEAA@PEB_W@Z 0000000180003dc0 f i OposVariant.obj
 0001:00002e00       ??0?$CTraceCategoryEx@$03$0A@@ATL@@QEAA@PEB_W@Z 0000000180003e00 f i OposVariant.obj
 0001:00002e40       ??0?$CTraceCategoryEx@$07$0A@@ATL@@QEAA@PEB_W@Z 0000000180003e40 f i OposVariant.obj
 0001:00002e80       ??0?$CTraceCategoryEx@$0BA@$0A@@ATL@@QEAA@PEB_W@Z 0000000180003e80 f i OposVariant.obj
 0001:00002ec0       ??0?$CTraceCategoryEx@$0BAA@$0A@@ATL@@QEAA@PEB_W@Z 0000000180003ec0 f i OposVariant.obj
 0001:00002f00       ??0?$CTraceCategoryEx@$0BAAA@$0A@@ATL@@QEAA@PEB_W@Z 0000000180003f00 f i OposVariant.obj
 0001:00002f40       ??0?$CTraceCategoryEx@$0BAAAA@$0A@@ATL@@QEAA@PEB_W@Z 0000000180003f40 f i OposVariant.obj
 0001:00002f80       ??0?$CTraceCategoryEx@$0BAAAAA@$0A@@ATL@@QEAA@PEB_W@Z 0000000180003f80 f i OposVariant.obj
 0001:00002fc0       ??0?$CTraceCategoryEx@$0CA@$0A@@ATL@@QEAA@PEB_W@Z 0000000180003fc0 f i OposVariant.obj
 0001:00003000       ??0?$CTraceCategoryEx@$0CAA@$0A@@ATL@@QEAA@PEB_W@Z 0000000180004000 f i OposVariant.obj
 0001:00003040       ??0?$CTraceCategoryEx@$0CAAA@$0A@@ATL@@QEAA@PEB_W@Z 0000000180004040 f i OposVariant.obj
 0001:00003080       ??0?$CTraceCategoryEx@$0CAAAA@$0A@@ATL@@QEAA@PEB_W@Z 0000000180004080 f i OposVariant.obj
 0001:000030c0       ??0?$CTraceCategoryEx@$0CAAAAA@$0A@@ATL@@QEAA@PEB_W@Z 00000001800040c0 f i OposVariant.obj
 0001:00003100       ??0?$CTraceCategoryEx@$0EA@$0A@@ATL@@QEAA@PEB_W@Z 0000000180004100 f i OposVariant.obj
 0001:00003140       ??0?$CTraceCategoryEx@$0EAA@$0A@@ATL@@QEAA@PEB_W@Z 0000000180004140 f i OposVariant.obj
 0001:00003180       ??0?$CTraceCategoryEx@$0EAAA@$0A@@ATL@@QEAA@PEB_W@Z 0000000180004180 f i OposVariant.obj
 0001:000031c0       ??0?$CTraceCategoryEx@$0EAAAA@$0A@@ATL@@QEAA@PEB_W@Z 00000001800041c0 f i OposVariant.obj
 0001:00003200       ??0?$CTraceCategoryEx@$0EAAAAA@$0A@@ATL@@QEAA@PEB_W@Z 0000000180004200 f i OposVariant.obj
 0001:00003240       ??0?$CTraceCategoryEx@$0IA@$0A@@ATL@@QEAA@PEB_W@Z 0000000180004240 f i OposVariant.obj
 0001:00003280       ??0?$CTraceCategoryEx@$0IAA@$0A@@ATL@@QEAA@PEB_W@Z 0000000180004280 f i OposVariant.obj
 0001:000032c0       ??0?$CTraceCategoryEx@$0IAAA@$0A@@ATL@@QEAA@PEB_W@Z 00000001800042c0 f i OposVariant.obj
 0001:00003300       ??0?$CTraceCategoryEx@$0IAAAA@$0A@@ATL@@QEAA@PEB_W@Z 0000000180004300 f i OposVariant.obj
 0001:00003340       ??0CAtlComModule@ATL@@QEAA@XZ 0000000180004340 f i OposVariant.obj
 0001:00003460       ??0CAtlWinModule@ATL@@QEAA@XZ 0000000180004460 f i OposVariant.obj
 0001:00003510       ??0CComCriticalSection@ATL@@QEAA@XZ 0000000180004510 f i OposVariant.obj
 0001:00003550       ??0CPreserveLastError@ATL@@QEAA@XZ 0000000180004550 f i OposVariant.obj
 0001:00003590       ??0CTraceFileAndLineInfo@ATL@@QEAA@PEBDH@Z 0000000180004590 f i OposVariant.obj
 0001:000035c0       ??0_ATL_COM_MODULE70@ATL@@QEAA@XZ 00000001800045c0 f i OposVariant.obj
 0001:00003600       ??0_ATL_WIN_MODULE70@ATL@@QEAA@XZ 0000000180004600 f i OposVariant.obj
 0001:00003650       ??1?$CHeapPtr@_WVCCRTAllocator@ATL@@@ATL@@QEAA@XZ 0000000180004650 f i OposVariant.obj
 0001:00003680       ??1?$CHeapPtrBase@_WVCCRTAllocator@ATL@@@ATL@@QEAA@XZ 0000000180004680 f i OposVariant.obj
 0001:000036b0       ??1?$CSimpleArray@GV?$CSimpleArrayEqualHelper@G@ATL@@@ATL@@QEAA@XZ 00000001800046b0 f i OposVariant.obj
 0001:000036e0       ??1CAtlComModule@ATL@@QEAA@XZ 00000001800046e0 f i OposVariant.obj
 0001:00003720       ??1CAtlWinModule@ATL@@QEAA@XZ 0000000180004720 f i OposVariant.obj
 0001:00003760       ??1CComBSTR@ATL@@QEAA@XZ   0000000180004760 f i OposVariant.obj
 0001:000037a0       ??1CComCriticalSection@ATL@@QEAA@XZ 00000001800047a0 f i OposVariant.obj
 0001:000037b0       ??1CPreserveLastError@ATL@@QEAA@XZ 00000001800047b0 f i OposVariant.obj
 0001:000037f0       ??1_ATL_COM_MODULE70@ATL@@QEAA@XZ 00000001800047f0 f i OposVariant.obj
 0001:00003830       ??1_ATL_WIN_MODULE70@ATL@@QEAA@XZ 0000000180004830 f i OposVariant.obj
 0001:00003880       ??1stringdispid@CComTypeInfoHolder@ATL@@QEAA@XZ 0000000180004880 f i OposVariant.obj
 0001:000038c0       ??A?$CSimpleArray@GV?$CSimpleArrayEqualHelper@G@ATL@@@ATL@@QEAAAEAGH@Z 00000001800048c0 f i OposVariant.obj
 0001:00003970       ??B?$CHeapPtrBase@_WVCCRTAllocator@ATL@@@ATL@@QEBAPEA_WXZ 0000000180004970 f i OposVariant.obj
 0001:00003980       ??B?$CTraceCategoryEx@$01$0A@@ATL@@QEAAIXZ 0000000180004980 f i OposVariant.obj
 0001:00003990       ??B?$CTraceCategoryEx@$0CA@$0A@@ATL@@QEAAIXZ 0000000180004990 f i OposVariant.obj
 0001:000039a0       ??RCTraceFileAndLineInfo@ATL@@QEBAXHIPEB_WZZ 00000001800049a0 f i OposVariant.obj
 0001:00003a50       ??_Estringdispid@CComTypeInfoHolder@ATL@@QEAAPEAXI@Z 0000000180004a50 f i OposVariant.obj
 0001:00003b00       ??_H@YAXPEAX_K1P6APEAX0@Z@Z 0000000180004b00 f i OposVariant.obj
 0001:00003b90       ??_I@YAXPEAX_K1P6AX0@Z@Z   0000000180004b90 f i OposVariant.obj
 0001:00003c40       ?Allocate@?$CHeapPtr@_WVCCRTAllocator@ATL@@@ATL@@QEAA_N_K@Z 0000000180004c40 f i OposVariant.obj
 0001:00003cc0       ?Allocate@CCRTAllocator@ATL@@SAPEAX_K@Z 0000000180004cc0 f i OposVariant.obj
 0001:00003cf0       ?AllocateBytes@?$CHeapPtrBase@_WVCCRTAllocator@ATL@@@ATL@@QEAA_N_K@Z 0000000180004cf0 f i OposVariant.obj
 0001:00003d90       ?AtlWinModuleInit@ATL@@YAJPEAU_ATL_WIN_MODULE70@1@@Z 0000000180004d90 f i OposVariant.obj
 0001:00003e90       ?AtlWinModuleTerm@ATL@@YAJPEAU_ATL_WIN_MODULE70@1@PEAUHINSTANCE__@@@Z 0000000180004e90 f i OposVariant.obj
 0001:00003f80       ?Clear@OposVariant@@QEAAJXZ 0000000180004f80 f i OposVariant.obj
 0001:00003fc0       ?Free@?$CHeapPtrBase@_WVCCRTAllocator@ATL@@@ATL@@QEAAXXZ 0000000180004fc0 f i OposVariant.obj
 0001:00004000       ?Free@CCRTAllocator@ATL@@SAXPEAX@Z 0000000180005000 f i OposVariant.obj
 0001:00004030       ?GetCategoryName@CTrace@ATL@@CAPEA_WI@Z 0000000180005030 f i OposVariant.obj
 0001:000040b0       ?GetModuleInstance@CAtlBaseModule@ATL@@QEAAPEAUHINSTANCE__@@XZ 00000001800050b0 f i OposVariant.obj
 0001:000040d0       ?GetSize@?$CSimpleArray@GV?$CSimpleArrayEqualHelper@G@ATL@@@ATL@@QEBAHXZ 00000001800050d0 f i OposVariant.obj
 0001:000040e0       ?Init@CComCriticalSection@ATL@@QEAAJXZ 00000001800050e0 f i OposVariant.obj
 0001:00004140       ?RegisterCategory@CTrace@ATL@@SAXPEB_WI@Z 0000000180005140 f i OposVariant.obj
 0001:00004220       ?RemoveAll@?$CSimpleArray@GV?$CSimpleArrayEqualHelper@G@ATL@@@ATL@@QEAAXXZ 0000000180005220 f i OposVariant.obj
 0001:000042b0       ?Term@CAtlComModule@ATL@@QEAAXXZ 00000001800052b0 f i OposVariant.obj
 0001:00004390       ?Term@CAtlWinModule@ATL@@QEAAXXZ 0000000180005390 f i OposVariant.obj
 0001:000043d0       ?Term@CComCriticalSection@ATL@@QEAAJXZ 00000001800053d0 f i OposVariant.obj
 0001:00004410       ?TraceV@CTrace@ATL@@CAXPEBDHIIPEB_W@Z 0000000180005410 f i OposVariant.obj
 0001:000046c0       ?TraceV@CTrace@ATL@@SAXPEBDHIIPEB_WPEAD@Z 00000001800056c0 f i OposVariant.obj
 0001:00004870       ?_AtlInitializeCriticalSectionEx@ATL@@YAHPEAU_RTL_CRITICAL_SECTION@@KK@Z 0000000180005870 f i OposVariant.obj
 0001:000048c0       ?_AtlRaiseException@ATL@@YAXKK@Z 00000001800058c0 f i OposVariant.obj
 0001:00004900       HRESULT_FROM_WIN32         0000000180005900 f i OposVariant.obj
 0001:00004950       _vswprintf_s_l             0000000180005950 f i OposVariant.obj
 0001:000049e0       swprintf_s                 00000001800059e0 f i OposVariant.obj
 0001:00004a70       ?ObjectMain@CComObjectRootBase@ATL@@SAX_N@Z 0000000180005a70 f i BumpBar.obj
 0001:00004a80       ?GetCategoryMap@CComObjectRootBase@ATL@@SAPEBU_ATL_CATMAP_ENTRY@2@XZ 0000000180005a80 f i BumpBar.obj
 0001:00004a90       ?GetObjectDescription@?$CComCoClass@VCOPOSBumpBar@@$1?CLSID_OPOSBumpBar@@3U_GUID@@B@ATL@@SAPEB_WXZ 0000000180005a90 f i BumpBar.obj
 0001:00004aa0       ?UpdateRegistry@COPOSBumpBar@@SAJH@Z 0000000180005aa0 f i BumpBar.obj
 0001:00004ae0       ?CreateInstance@?$CComCreator@V?$CComObjectCached@VCComClassFactory@ATL@@@ATL@@@ATL@@SAJPEAXAEBU_GUID@@PEAPEAX@Z 0000000180005ae0 f i BumpBar.obj
 0001:00004cd0       ?CreateInstance@?$CComCreator2@V?$CComCreator@V?$CComObject@VCOPOSBumpBar@@@ATL@@@ATL@@V?$CComCreator@V?$CComAggObject@VCOPOSBumpBar@@@ATL@@@2@@ATL@@SAJPEAXAEBU_GUID@@PEAPEAX@Z 0000000180005cd0 f i BumpBar.obj
 0001:00004ee0       DllGetClassObject          0000000180005ee0 f   BumpBar.obj
 0001:00004f30       DllCanUnloadNow            0000000180005f30 f   BumpBar.obj
 0001:00004f80       DllRegisterServer          0000000180005f80 f   BumpBar.obj
 0001:00004fc0       DllUnregisterServer        0000000180005fc0 f   BumpBar.obj
 0001:000051c0       DllMain                    00000001800061c0 f   BumpBar.obj
 0001:00005240       ??$?2G@Wrapper@?$CSimpleArray@GV?$CSimpleArrayEqualHelper@G@ATL@@@ATL@@SAPEAX_KPEAG@Z 0000000180006240 f i BumpBar.obj
 0001:00005260       ??$?2PEA_W@?$Wrapper@PEA_W@?$CSimpleMap@PEA_WPEA_WVCExpansionVectorEqualHelper@ATL@@@ATL@@SAPEAX_KPEAPEA_W@Z 0000000180006260 f i BumpBar.obj
 0001:00005280       ??$?4UITypeInfo2@@@?$CComPtr@UITypeInfo@@@ATL@@QEAAPEAUITypeInfo@@AEBV?$CComPtr@UITypeInfo2@@@1@@Z 0000000180006280 f i BumpBar.obj
 0001:000052f0       ??$AtlAdd@_K@ATL@@YAJPEA_K_K1@Z 00000001800062f0 f i BumpBar.obj
 0001:00005360       ??$AtlAddThrow@_K@ATL@@YA_K_K0@Z 0000000180006360 f i BumpBar.obj
 0001:000053d0       ??$AtlModuleRegisterWndClassInfoT@VAtlModuleRegisterWndClassInfoParamW@ATL@@@ATL@@YAGPEAU_ATL_BASE_MODULE70@0@PEAU_ATL_WIN_MODULE70@0@PEAU_ATL_WNDCLASSINFOW@0@PEAP6A_JPEAUHWND__@@I_K_J@ZVAtlModuleRegisterWndClassInfoParamW@0@@Z 00000001800063d0 f i BumpBar.obj
 0001:000059a0       ??$AtlMultiply@H@ATL@@YAJPEAHHH@Z 00000001800069a0 f i BumpBar.obj
 0001:00005a10       ??$AtlMultiply@K@ATL@@YAJPEAKKK@Z 0000000180006a10 f i BumpBar.obj
 0001:00005a80       ??$AtlMultiplyThrow@_K@ATL@@YA_K_K0@Z 0000000180006a80 f i BumpBar.obj
 0001:00005af0       ??$QueryInterface@UIPersistStream@@@IUnknown@@QEAAJPEAPEAUIPersistStream@@@Z 0000000180006af0 f i BumpBar.obj
 0001:00005b40       ??$QueryInterface@UITypeInfo2@@@IUnknown@@QEAAJPEAPEAUITypeInfo2@@@Z 0000000180006b40 f i BumpBar.obj
 0001:00005b90       ??0?$CAtlModuleT@VCComModule@ATL@@@ATL@@QEAA@XZ 0000000180006b90 f i BumpBar.obj
 0001:00005bd0       ??0?$CAtlSafeAllocBufferManager@VCCRTAllocator@ATL@@@_ATL_SAFE_ALLOCA_IMPL@ATL@@QEAA@XZ 0000000180006bd0 f i BumpBar.obj
 0001:00005bf0       ??0?$CAutoVectorPtr@_W@ATL@@QEAA@XZ 0000000180006bf0 f i BumpBar.obj
 0001:00005c10       ??0?$CComAggObject@VCOPOSBumpBar@@@ATL@@QEAA@PEAX@Z 0000000180006c10 f i BumpBar.obj
 0001:00005ca0       ??0?$CComContainedObject@VCOPOSBumpBar@@@ATL@@QEAA@PEAX@Z 0000000180006ca0 f i BumpBar.obj
 0001:00005e40       ??0?$CComCritSecLock@VCComCriticalSection@ATL@@@ATL@@QEAA@AEAVCComCriticalSection@1@_N@Z 0000000180006e40 f i BumpBar.obj
 0001:00005eb0       ??0?$CComEnum@UIEnumConnectionPoints@@$1?_GUID_b196b285_bab4_101a_b69c_00aa00341d07@@3U__s_GUID@@BPEAUIConnectionPoint@@V?$_CopyInterface@UIConnectionPoint@@@ATL@@VCComSingleThreadModel@6@@ATL@@QEAA@XZ 0000000180006eb0 f i BumpBar.obj
 0001:00005f00       ??0?$CComEnum@UIEnumConnections@@$1?_GUID_b196b287_bab4_101a_b69c_00aa00341d07@@3U__s_GUID@@BUtagCONNECTDATA@@V?$_Copy@UtagCONNECTDATA@@@ATL@@VCComSingleThreadModel@6@@ATL@@QEAA@XZ 0000000180006f00 f i BumpBar.obj
 0001:00005f50       ??0?$CComEnumImpl@UIEnumConnectionPoints@@$1?_GUID_b196b285_bab4_101a_b69c_00aa00341d07@@3U__s_GUID@@BPEAUIConnectionPoint@@V?$_CopyInterface@UIConnectionPoint@@@ATL@@@ATL@@QEAA@XZ 0000000180006f50 f i BumpBar.obj
 0001:00005fd0       ??0?$CComEnumImpl@UIEnumConnections@@$1?_GUID_b196b287_bab4_101a_b69c_00aa00341d07@@3U__s_GUID@@BUtagCONNECTDATA@@V?$_Copy@UtagCONNECTDATA@@@ATL@@@ATL@@QEAA@XZ 0000000180006fd0 f i BumpBar.obj
 0001:00006050       ??0?$CComObject@V?$CComEnum@UIEnumConnectionPoints@@$1?_GUID_b196b285_bab4_101a_b69c_00aa00341d07@@3U__s_GUID@@BPEAUIConnectionPoint@@V?$_CopyInterface@UIConnectionPoint@@@ATL@@VCComSingleThreadModel@6@@ATL@@@ATL@@QEAA@PEAX@Z 0000000180007050 f i BumpBar.obj
 0001:000060b0       ??0?$CComObject@V?$CComEnum@UIEnumConnections@@$1?_GUID_b196b287_bab4_101a_b69c_00aa00341d07@@3U__s_GUID@@BUtagCONNECTDATA@@V?$_Copy@UtagCONNECTDATA@@@ATL@@VCComSingleThreadModel@6@@ATL@@@ATL@@QEAA@PEAX@Z 00000001800070b0 f i BumpBar.obj
 0001:00006110       ??0?$CComObject@VCOPOSBumpBar@@@ATL@@QEAA@PEAX@Z 0000000180007110 f i BumpBar.obj
 0001:000062b0       ??0?$CComObjectCached@VCComClassFactory@ATL@@@ATL@@QEAA@PEAX@Z 00000001800072b0 f i BumpBar.obj
 0001:00006300       ??0?$CComObjectRootEx@VCComMultiThreadModel@ATL@@@ATL@@QEAA@XZ 0000000180007300 f i BumpBar.obj
 0001:00006350       ??0?$CComObjectRootEx@VCComSingleThreadModel@ATL@@@ATL@@QEAA@XZ 0000000180007350 f i BumpBar.obj
 0001:00006390       ??0?$CComPtr@UIAdviseSink@@@ATL@@QEAA@PEAUIAdviseSink@@@Z 0000000180007390 f i BumpBar.obj
 0001:000063d0       ??0?$CComPtr@UICatRegister@@@ATL@@QEAA@XZ 00000001800073d0 f i BumpBar.obj
 0001:00006410       ??0?$CComPtr@UIConnectionPoint@@@ATL@@QEAA@XZ 0000000180007410 f i BumpBar.obj
 0001:00006450       ??0?$CComPtr@UIConnectionPointContainer@@@ATL@@QEAA@XZ 0000000180007450 f i BumpBar.obj
 0001:00006490       ??0?$CComPtr@UIDataObject@@@ATL@@QEAA@XZ 0000000180007490 f i BumpBar.obj
 0001:000064d0       ??0?$CComPtr@UIDispatch@@@ATL@@QEAA@XZ 00000001800074d0 f i BumpBar.obj
 0001:00006510       ??0?$CComPtr@UIOleClientSite@@@ATL@@QEAA@PEAUIOleClientSite@@@Z 0000000180007510 f i BumpBar.obj
 0001:00006550       ??0?$CComPtr@UIOleControlSite@@@ATL@@QEAA@XZ 0000000180007550 f i BumpBar.obj
 0001:00006590       ??0?$CComPtr@UIOleInPlaceActiveObject@@@ATL@@QEAA@XZ 0000000180007590 f i BumpBar.obj
 0001:000065d0       ??0?$CComPtr@UIOleInPlaceFrame@@@ATL@@QEAA@XZ 00000001800075d0 f i BumpBar.obj
 0001:00006610       ??0?$CComPtr@UIOleInPlaceObject@@@ATL@@QEAA@XZ 0000000180007610 f i BumpBar.obj
 0001:00006650       ??0?$CComPtr@UIOleInPlaceUIWindow@@@ATL@@QEAA@XZ 0000000180007650 f i BumpBar.obj
 0001:00006690       ??0?$CComPtr@UIOleObject@@@ATL@@QEAA@XZ 0000000180007690 f i BumpBar.obj
 0001:000066d0       ??0?$CComPtr@UIPersistStream@@@ATL@@QEAA@XZ 00000001800076d0 f i BumpBar.obj
 0001:00006710       ??0?$CComPtr@UIPersistStreamInit@@@ATL@@QEAA@XZ 0000000180007710 f i BumpBar.obj
 0001:00006750       ??0?$CComPtr@UIPointerInactive@@@ATL@@QEAA@XZ 0000000180007750 f i BumpBar.obj
 0001:00006790       ??0?$CComPtr@UIProvideClassInfo2@@@ATL@@QEAA@XZ 0000000180007790 f i BumpBar.obj
 0001:000067d0       ??0?$CComPtr@UISpecifyPropertyPages@@@ATL@@QEAA@XZ 00000001800077d0 f i BumpBar.obj
 0001:00006810       ??0?$CComPtr@UIStream@@@ATL@@QEAA@XZ 0000000180007810 f i BumpBar.obj
 0001:00006850       ??0?$CComPtr@UITypeInfo2@@@ATL@@QEAA@XZ 0000000180007850 f i BumpBar.obj
 0001:00006890       ??0?$CComPtr@UITypeInfo@@@ATL@@QEAA@AEBV01@@Z 0000000180007890 f i BumpBar.obj
 0001:000068d0       ??0?$CComPtr@UITypeInfo@@@ATL@@QEAA@XZ 00000001800078d0 f i BumpBar.obj
 0001:00006910       ??0?$CComPtr@UITypeLib@@@ATL@@QEAA@XZ 0000000180007910 f i BumpBar.obj
 0001:00006950       ??0?$CComPtr@UIUnknown@@@ATL@@QEAA@AEBV01@@Z 0000000180007950 f i BumpBar.obj
 0001:00006990       ??0?$CComPtr@UIUnknown@@@ATL@@QEAA@PEAUIUnknown@@@Z 0000000180007990 f i BumpBar.obj
 0001:000069d0       ??0?$CComPtr@UIUnknown@@@ATL@@QEAA@XZ 00000001800079d0 f i BumpBar.obj
 0001:00006a10       ??0?$CComPtr@UIViewObjectEx@@@ATL@@QEAA@XZ 0000000180007a10 f i BumpBar.obj
 0001:00006a50       ??0?$CComPtrBase@UIAdviseSink@@@ATL@@IEAA@PEAUIAdviseSink@@@Z 0000000180007a50 f i BumpBar.obj
 0001:00006ab0       ??0?$CComPtrBase@UICatRegister@@@ATL@@IEAA@XZ 0000000180007ab0 f i BumpBar.obj
 0001:00006ad0       ??0?$CComPtrBase@UIConnectionPoint@@@ATL@@IEAA@XZ 0000000180007ad0 f i BumpBar.obj
 0001:00006af0       ??0?$CComPtrBase@UIConnectionPointContainer@@@ATL@@IEAA@XZ 0000000180007af0 f i BumpBar.obj
 0001:00006b10       ??0?$CComPtrBase@UIDataObject@@@ATL@@IEAA@XZ 0000000180007b10 f i BumpBar.obj
 0001:00006b30       ??0?$CComPtrBase@UIDispatch@@@ATL@@IEAA@XZ 0000000180007b30 f i BumpBar.obj
 0001:00006b50       ??0?$CComPtrBase@UIOleClientSite@@@ATL@@IEAA@PEAUIOleClientSite@@@Z 0000000180007b50 f i BumpBar.obj
 0001:00006bb0       ??0?$CComPtrBase@UIOleControlSite@@@ATL@@IEAA@XZ 0000000180007bb0 f i BumpBar.obj
 0001:00006bd0       ??0?$CComPtrBase@UIOleInPlaceActiveObject@@@ATL@@IEAA@XZ 0000000180007bd0 f i BumpBar.obj
 0001:00006bf0       ??0?$CComPtrBase@UIOleInPlaceFrame@@@ATL@@IEAA@XZ 0000000180007bf0 f i BumpBar.obj
 0001:00006c10       ??0?$CComPtrBase@UIOleInPlaceObject@@@ATL@@IEAA@XZ 0000000180007c10 f i BumpBar.obj
 0001:00006c30       ??0?$CComPtrBase@UIOleInPlaceUIWindow@@@ATL@@IEAA@XZ 0000000180007c30 f i BumpBar.obj
 0001:00006c50       ??0?$CComPtrBase@UIOleObject@@@ATL@@IEAA@XZ 0000000180007c50 f i BumpBar.obj
 0001:00006c70       ??0?$CComPtrBase@UIPersistStream@@@ATL@@IEAA@XZ 0000000180007c70 f i BumpBar.obj
 0001:00006c90       ??0?$CComPtrBase@UIPersistStreamInit@@@ATL@@IEAA@XZ 0000000180007c90 f i BumpBar.obj
 0001:00006cb0       ??0?$CComPtrBase@UIPointerInactive@@@ATL@@IEAA@XZ 0000000180007cb0 f i BumpBar.obj
 0001:00006cd0       ??0?$CComPtrBase@UIProvideClassInfo2@@@ATL@@IEAA@XZ 0000000180007cd0 f i BumpBar.obj
 0001:00006cf0       ??0?$CComPtrBase@UISpecifyPropertyPages@@@ATL@@IEAA@XZ 0000000180007cf0 f i BumpBar.obj
 0001:00006d10       ??0?$CComPtrBase@UIStream@@@ATL@@IEAA@XZ 0000000180007d10 f i BumpBar.obj
 0001:00006d30       ??0?$CComPtrBase@UITypeInfo2@@@ATL@@IEAA@XZ 0000000180007d30 f i BumpBar.obj
 0001:00006d50       ??0?$CComPtrBase@UITypeInfo@@@ATL@@IEAA@PEAUITypeInfo@@@Z 0000000180007d50 f i BumpBar.obj
 0001:00006db0       ??0?$CComPtrBase@UITypeInfo@@@ATL@@IEAA@XZ 0000000180007db0 f i BumpBar.obj
 0001:00006dd0       ??0?$CComPtrBase@UITypeLib@@@ATL@@IEAA@XZ 0000000180007dd0 f i BumpBar.obj
 0001:00006df0       ??0?$CComPtrBase@UIUnknown@@@ATL@@IEAA@PEAUIUnknown@@@Z 0000000180007df0 f i BumpBar.obj
 0001:00006e50       ??0?$CComPtrBase@UIUnknown@@@ATL@@IEAA@XZ 0000000180007e50 f i BumpBar.obj
 0001:00006e70       ??0?$CComPtrBase@UIViewObjectEx@@@ATL@@IEAA@XZ 0000000180007e70 f i BumpBar.obj
 0001:00006e90       ??0?$CComQIPtr@UIOleControlSite@@$1?_GUID_b196b289_bab4_101a_b69c_00aa00341d07@@3U__s_GUID@@B@ATL@@QEAA@PEAUIUnknown@@@Z 0000000180007e90 f i BumpBar.obj
 0001:00006f00       ??0?$CComQIPtr@UIOleObject@@$1?_GUID_00000112_0000_0000_c000_000000000046@@3U__s_GUID@@B@ATL@@QEAA@XZ 0000000180007f00 f i BumpBar.obj
 0001:00006f40       ??0?$CComQIPtr@UISpecifyPropertyPages@@$1?_GUID_b196b28b_bab4_101a_b69c_00aa00341d07@@3U__s_GUID@@B@ATL@@QEAA@XZ 0000000180007f40 f i BumpBar.obj
 0001:00006f80       ??0?$CSimpleMap@PEA_WPEA_WVCExpansionVectorEqualHelper@ATL@@@ATL@@QEAA@XZ 0000000180007f80 f i BumpBar.obj
 0001:00006fc0       ??0?$CTempBuffer@E$0BAA@VCCRTAllocator@ATL@@@ATL@@QEAA@XZ 0000000180007fc0 f i BumpBar.obj
 0001:00006fe0       ??0?$CTempBuffer@_W$0BAA@VCCRTAllocator@ATL@@@ATL@@QEAA@XZ 0000000180007fe0 f i BumpBar.obj
 0001:00007000       ??0?$CTempBuffer@_W$0EAA@VCCRTAllocator@ATL@@@ATL@@QEAA@XZ 0000000180008000 f i BumpBar.obj
 0001:00007020       ??0?$Wrapper@PEA_W@?$CSimpleMap@PEA_WPEA_WVCExpansionVectorEqualHelper@ATL@@@ATL@@QEAA@AEBQEA_W@Z 0000000180008020 f i BumpBar.obj
 0001:00007050       ??0CAtlModule@ATL@@QEAA@XZ 0000000180008050 f i BumpBar.obj
 0001:000071c0       ??0CComAutoDeleteCriticalSection@ATL@@QEAA@XZ 00000001800081c0 f i BumpBar.obj
 0001:00007200       ??0CComBSTR@ATL@@QEAA@XZ   0000000180008200 f i BumpBar.obj
 0001:00007220       ??0CComClassFactory@ATL@@QEAA@XZ 0000000180008220 f i BumpBar.obj
 0001:00007280       ??0CComModule@ATL@@QEAA@XZ 0000000180008280 f i BumpBar.obj
 0001:00007320       ??0CComObjectRootBase@ATL@@QEAA@XZ 0000000180008320 f i BumpBar.obj
 0001:00007340       ??0CComSafeDeleteCriticalSection@ATL@@QEAA@XZ 0000000180008340 f i BumpBar.obj
 0001:00007380       ??0CComVariant@ATL@@QEAA@XZ 0000000180008380 f i BumpBar.obj
 0001:000073d0       ??0CExpansionVector@ATL@@QEAA@XZ 00000001800083d0 f i BumpBar.obj
 0001:00007410       ??0CParseBuffer@CRegParser@ATL@@QEAA@H@Z 0000000180008410 f i BumpBar.obj
 0001:000074a0       ??0CRegKey@ATL@@QEAA@PEAUHKEY__@@@Z 00000001800084a0 f i BumpBar.obj
 0001:000074e0       ??0CRegKey@ATL@@QEAA@PEAVCAtlTransactionManager@1@@Z 00000001800084e0 f i BumpBar.obj
 0001:00007520       ??0CRegObject@ATL@@QEAA@XZ 0000000180008520 f i BumpBar.obj
 0001:00007580       ??0CRegParser@ATL@@QEAA@PEAVCRegObject@1@@Z 0000000180008580 f i BumpBar.obj
 0001:000075b0       ??0IClassFactory@@QEAA@XZ  00000001800085b0 f i BumpBar.obj
 0001:000075f0       ??0IEnumConnectionPoints@@QEAA@XZ 00000001800085f0 f i BumpBar.obj
 0001:00007630       ??0IEnumConnections@@QEAA@XZ 0000000180008630 f i BumpBar.obj
 0001:00007670       ??0IRegistrarBase@@QEAA@XZ 0000000180008670 f i BumpBar.obj
 0001:000076b0       ??0IUnknown@@QEAA@XZ       00000001800086b0 f i BumpBar.obj
 0001:000076c0       ??0ModuleLockHelper@ATL@@QEAA@XZ 00000001800086c0 f i BumpBar.obj
 0001:00007700       ??0OposVariant@@QEAA@XZ    0000000180008700 f i BumpBar.obj
 0001:00007720       ??0Wrapper@?$CSimpleArray@GV?$CSimpleArrayEqualHelper@G@ATL@@@ATL@@QEAA@AEBG@Z 0000000180008720 f i BumpBar.obj
 0001:00007750       ??0_ATL_MODULE70@ATL@@QEAA@XZ 0000000180008750 f i BumpBar.obj
 0001:00007790       ??0_ATL_MSG@ATL@@QEAA@PEAUHWND__@@I_K_JH@Z 0000000180008790 f i BumpBar.obj
 0001:00007820       ??0_U_MENUorID@ATL@@QEAA@I@Z 0000000180008820 f i BumpBar.obj
 0001:00007840       ??0_U_RECT@ATL@@QEAA@AEAUtagRECT@@@Z 0000000180008840 f i BumpBar.obj
 0001:00007860       ??0stringdispid@CComTypeInfoHolder@ATL@@QEAA@XZ 0000000180008860 f i BumpBar.obj
 0001:000078b0       ??1?$CAtlModuleT@VCComModule@ATL@@@ATL@@UEAA@XZ 00000001800088b0 f i BumpBar.obj
 0001:000078e0       ??1?$CAtlSafeAllocBufferManager@VCCRTAllocator@ATL@@@_ATL_SAFE_ALLOCA_IMPL@ATL@@QEAA@XZ 00000001800088e0 f i BumpBar.obj
 0001:00007940       ??1?$CAutoVectorPtr@_W@ATL@@QEAA@XZ 0000000180008940 f i BumpBar.obj
 0001:00007970       ??1?$CComAggObject@VCOPOSBumpBar@@@ATL@@UEAA@XZ 0000000180008970 f i BumpBar.obj
 0001:000079f0       ??1?$CComContainedObject@VCOPOSBumpBar@@@ATL@@UEAA@XZ 00000001800089f0 f i BumpBar.obj
 0001:00007a20       ??1?$CComCritSecLock@VCComCriticalSection@ATL@@@ATL@@QEAA@XZ 0000000180008a20 f i BumpBar.obj
 0001:00007a60       ??1?$CComEnum@UIEnumConnectionPoints@@$1?_GUID_b196b285_bab4_101a_b69c_00aa00341d07@@3U__s_GUID@@BPEAUIConnectionPoint@@V?$_CopyInterface@UIConnectionPoint@@@ATL@@VCComSingleThreadModel@6@@ATL@@UEAA@XZ 0000000180008a60 f i BumpBar.obj
 0001:00007aa0       ??1?$CComEnum@UIEnumConnections@@$1?_GUID_b196b287_bab4_101a_b69c_00aa00341d07@@3U__s_GUID@@BUtagCONNECTDATA@@V?$_Copy@UtagCONNECTDATA@@@ATL@@VCComSingleThreadModel@6@@ATL@@UEAA@XZ 0000000180008aa0 f i BumpBar.obj
 0001:00007ae0       ??1?$CComEnumImpl@UIEnumConnectionPoints@@$1?_GUID_b196b285_bab4_101a_b69c_00aa00341d07@@3U__s_GUID@@BPEAUIConnectionPoint@@V?$_CopyInterface@UIConnectionPoint@@@ATL@@@ATL@@UEAA@XZ 0000000180008ae0 f i BumpBar.obj
 0001:00007b80       ??1?$CComEnumImpl@UIEnumConnections@@$1?_GUID_b196b287_bab4_101a_b69c_00aa00341d07@@3U__s_GUID@@BUtagCONNECTDATA@@V?$_Copy@UtagCONNECTDATA@@@ATL@@@ATL@@UEAA@XZ 0000000180008b80 f i BumpBar.obj
 0001:00007c20       ??1?$CComObject@V?$CComEnum@UIEnumConnectionPoints@@$1?_GUID_b196b285_bab4_101a_b69c_00aa00341d07@@3U__s_GUID@@BPEAUIConnectionPoint@@V?$_CopyInterface@UIConnectionPoint@@@ATL@@VCComSingleThreadModel@6@@ATL@@@ATL@@UEAA@XZ 0000000180008c20 f i BumpBar.obj
 0001:00007c90       ??1?$CComObject@V?$CComEnum@UIEnumConnections@@$1?_GUID_b196b287_bab4_101a_b69c_00aa00341d07@@3U__s_GUID@@BUtagCONNECTDATA@@V?$_Copy@UtagCONNECTDATA@@@ATL@@VCComSingleThreadModel@6@@ATL@@@ATL@@UEAA@XZ 0000000180008c90 f i BumpBar.obj
 0001:00007d00       ??1?$CComObject@VCOPOSBumpBar@@@ATL@@UEAA@XZ 0000000180008d00 f i BumpBar.obj
 0001:00007eb0       ??1?$CComObjectCached@VCComClassFactory@ATL@@@ATL@@UEAA@XZ 0000000180008eb0 f i BumpBar.obj
 0001:00007f10       ??1?$CComObjectRootEx@VCComMultiThreadModel@ATL@@@ATL@@QEAA@XZ 0000000180008f10 f i BumpBar.obj
 0001:00007f50       ??1?$CComObjectRootEx@VCComSingleThreadModel@ATL@@@ATL@@QEAA@XZ 0000000180008f50 f i BumpBar.obj
 0001:00007f80       ??1?$CComPtr@UIAdviseSink@@@ATL@@QEAA@XZ 0000000180008f80 f i BumpBar.obj
 0001:00007fb0       ??1?$CComPtr@UICatRegister@@@ATL@@QEAA@XZ 0000000180008fb0 f i BumpBar.obj
 0001:00007fe0       ??1?$CComPtr@UIConnectionPoint@@@ATL@@QEAA@XZ 0000000180008fe0 f i BumpBar.obj
 0001:00008010       ??1?$CComPtr@UIConnectionPointContainer@@@ATL@@QEAA@XZ 0000000180009010 f i BumpBar.obj
 0001:00008040       ??1?$CComPtr@UIDataObject@@@ATL@@QEAA@XZ 0000000180009040 f i BumpBar.obj
 0001:00008070       ??1?$CComPtr@UIDispatch@@@ATL@@QEAA@XZ 0000000180009070 f i BumpBar.obj
 0001:000080a0       ??1?$CComPtr@UIOleClientSite@@@ATL@@QEAA@XZ 00000001800090a0 f i BumpBar.obj
 0001:000080d0       ??1?$CComPtr@UIOleControlSite@@@ATL@@QEAA@XZ 00000001800090d0 f i BumpBar.obj
 0001:00008100       ??1?$CComPtr@UIOleInPlaceActiveObject@@@ATL@@QEAA@XZ 0000000180009100 f i BumpBar.obj
 0001:00008130       ??1?$CComPtr@UIOleInPlaceFrame@@@ATL@@QEAA@XZ 0000000180009130 f i BumpBar.obj
 0001:00008160       ??1?$CComPtr@UIOleInPlaceObject@@@ATL@@QEAA@XZ 0000000180009160 f i BumpBar.obj
 0001:00008190       ??1?$CComPtr@UIOleInPlaceUIWindow@@@ATL@@QEAA@XZ 0000000180009190 f i BumpBar.obj
 0001:000081c0       ??1?$CComPtr@UIOleObject@@@ATL@@QEAA@XZ 00000001800091c0 f i BumpBar.obj
 0001:000081f0       ??1?$CComPtr@UIPersistStream@@@ATL@@QEAA@XZ 00000001800091f0 f i BumpBar.obj
 0001:00008220       ??1?$CComPtr@UIPersistStreamInit@@@ATL@@QEAA@XZ 0000000180009220 f i BumpBar.obj
 0001:00008250       ??1?$CComPtr@UIPointerInactive@@@ATL@@QEAA@XZ 0000000180009250 f i BumpBar.obj
 0001:00008280       ??1?$CComPtr@UIProvideClassInfo2@@@ATL@@QEAA@XZ 0000000180009280 f i BumpBar.obj
 0001:000082b0       ??1?$CComPtr@UISpecifyPropertyPages@@@ATL@@QEAA@XZ 00000001800092b0 f i BumpBar.obj
 0001:000082e0       ??1?$CComPtr@UIStream@@@ATL@@QEAA@XZ 00000001800092e0 f i BumpBar.obj
 0001:00008310       ??1?$CComPtr@UITypeInfo2@@@ATL@@QEAA@XZ 0000000180009310 f i BumpBar.obj
 0001:00008340       ??1?$CComPtr@UITypeInfo@@@ATL@@QEAA@XZ 0000000180009340 f i BumpBar.obj
 0001:00008370       ??1?$CComPtr@UITypeLib@@@ATL@@QEAA@XZ 0000000180009370 f i BumpBar.obj
 0001:000083a0       ??1?$CComPtr@UIUnknown@@@ATL@@QEAA@XZ 00000001800093a0 f i BumpBar.obj
 0001:000083d0       ??1?$CComPtr@UIViewObjectEx@@@ATL@@QEAA@XZ 00000001800093d0 f i BumpBar.obj
 0001:00008400       ??1?$CComPtrBase@UIAdviseSink@@@ATL@@QEAA@XZ 0000000180009400 f i BumpBar.obj
 0001:00008450       ??1?$CComPtrBase@UICatRegister@@@ATL@@QEAA@XZ 0000000180009450 f i BumpBar.obj
 0001:000084a0       ??1?$CComPtrBase@UIConnectionPoint@@@ATL@@QEAA@XZ 00000001800094a0 f i BumpBar.obj
 0001:000084f0       ??1?$CComPtrBase@UIConnectionPointContainer@@@ATL@@QEAA@XZ 00000001800094f0 f i BumpBar.obj
 0001:00008540       ??1?$CComPtrBase@UIDataObject@@@ATL@@QEAA@XZ 0000000180009540 f i BumpBar.obj
 0001:00008590       ??1?$CComPtrBase@UIDispatch@@@ATL@@QEAA@XZ 0000000180009590 f i BumpBar.obj
 0001:000085e0       ??1?$CComPtrBase@UIOleClientSite@@@ATL@@QEAA@XZ 00000001800095e0 f i BumpBar.obj
 0001:00008630       ??1?$CComPtrBase@UIOleControlSite@@@ATL@@QEAA@XZ 0000000180009630 f i BumpBar.obj
 0001:00008680       ??1?$CComPtrBase@UIOleInPlaceActiveObject@@@ATL@@QEAA@XZ 0000000180009680 f i BumpBar.obj
 0001:000086d0       ??1?$CComPtrBase@UIOleInPlaceFrame@@@ATL@@QEAA@XZ 00000001800096d0 f i BumpBar.obj
 0001:00008720       ??1?$CComPtrBase@UIOleInPlaceObject@@@ATL@@QEAA@XZ 0000000180009720 f i BumpBar.obj
 0001:00008770       ??1?$CComPtrBase@UIOleInPlaceUIWindow@@@ATL@@QEAA@XZ 0000000180009770 f i BumpBar.obj
 0001:000087c0       ??1?$CComPtrBase@UIOleObject@@@ATL@@QEAA@XZ 00000001800097c0 f i BumpBar.obj
 0001:00008810       ??1?$CComPtrBase@UIPersistStream@@@ATL@@QEAA@XZ 0000000180009810 f i BumpBar.obj
 0001:00008860       ??1?$CComPtrBase@UIPersistStreamInit@@@ATL@@QEAA@XZ 0000000180009860 f i BumpBar.obj
 0001:000088b0       ??1?$CComPtrBase@UIPointerInactive@@@ATL@@QEAA@XZ 00000001800098b0 f i BumpBar.obj
 0001:00008900       ??1?$CComPtrBase@UIProvideClassInfo2@@@ATL@@QEAA@XZ 0000000180009900 f i BumpBar.obj
 0001:00008950       ??1?$CComPtrBase@UISpecifyPropertyPages@@@ATL@@QEAA@XZ 0000000180009950 f i BumpBar.obj
 0001:000089a0       ??1?$CComPtrBase@UIStream@@@ATL@@QEAA@XZ 00000001800099a0 f i BumpBar.obj
 0001:000089f0       ??1?$CComPtrBase@UITypeInfo2@@@ATL@@QEAA@XZ 00000001800099f0 f i BumpBar.obj
 0001:00008a40       ??1?$CComPtrBase@UITypeInfo@@@ATL@@QEAA@XZ 0000000180009a40 f i BumpBar.obj
 0001:00008a90       ??1?$CComPtrBase@UITypeLib@@@ATL@@QEAA@XZ 0000000180009a90 f i BumpBar.obj
 0001:00008ae0       ??1?$CComPtrBase@UIUnknown@@@ATL@@QEAA@XZ 0000000180009ae0 f i BumpBar.obj
 0001:00008b30       ??1?$CComPtrBase@UIViewObjectEx@@@ATL@@QEAA@XZ 0000000180009b30 f i BumpBar.obj
 0001:00008b80       ??1?$CComQIPtr@UIOleControlSite@@$1?_GUID_b196b289_bab4_101a_b69c_00aa00341d07@@3U__s_GUID@@B@ATL@@QEAA@XZ 0000000180009b80 f i BumpBar.obj
 0001:00008bb0       ??1?$CComQIPtr@UIOleObject@@$1?_GUID_00000112_0000_0000_c000_000000000046@@3U__s_GUID@@B@ATL@@QEAA@XZ 0000000180009bb0 f i BumpBar.obj
 0001:00008be0       ??1?$CComQIPtr@UISpecifyPropertyPages@@$1?_GUID_b196b28b_bab4_101a_b69c_00aa00341d07@@3U__s_GUID@@B@ATL@@QEAA@XZ 0000000180009be0 f i BumpBar.obj
 0001:00008c10       ??1?$CSimpleMap@PEA_WPEA_WVCExpansionVectorEqualHelper@ATL@@@ATL@@QEAA@XZ 0000000180009c10 f i BumpBar.obj
 0001:00008c40       ??1?$CTempBuffer@E$0BAA@VCCRTAllocator@ATL@@@ATL@@QEAA@XZ 0000000180009c40 f i BumpBar.obj
 0001:00008c90       ??1?$CTempBuffer@_W$0BAA@VCCRTAllocator@ATL@@@ATL@@QEAA@XZ 0000000180009c90 f i BumpBar.obj
 0001:00008ce0       ??1?$CTempBuffer@_W$0EAA@VCCRTAllocator@ATL@@@ATL@@QEAA@XZ 0000000180009ce0 f i BumpBar.obj
 0001:00008d30       ??1CAtlModule@ATL@@UEAA@XZ 0000000180009d30 f i BumpBar.obj
 0001:00008d70       ??1CComAutoDeleteCriticalSection@ATL@@QEAA@XZ 0000000180009d70 f i BumpBar.obj
 0001:00008da0       ??1CComClassFactory@ATL@@UEAA@XZ 0000000180009da0 f i BumpBar.obj
 0001:00008df0       ??1CComModule@ATL@@UEAA@XZ 0000000180009df0 f i BumpBar.obj
 0001:00008e30       ??1CComObjectRootBase@ATL@@QEAA@XZ 0000000180009e30 f i BumpBar.obj
 0001:00008e40       ??1CComSafeDeleteCriticalSection@ATL@@QEAA@XZ 0000000180009e40 f i BumpBar.obj
 0001:00008e90       ??1CComVariant@ATL@@QEAA@XZ 0000000180009e90 f i BumpBar.obj
 0001:00008f10       ??1CExpansionVector@ATL@@QEAA@XZ 0000000180009f10 f i BumpBar.obj
 0001:00008f50       ??1CParseBuffer@CRegParser@ATL@@QEAA@XZ 0000000180009f50 f i BumpBar.obj
 0001:00008f90       ??1CRegKey@ATL@@QEAA@XZ    0000000180009f90 f i BumpBar.obj
 0001:00008fc0       ??1CRegObject@ATL@@UEAA@XZ 0000000180009fc0 f i BumpBar.obj
 0001:00009010       ??1ModuleLockHelper@ATL@@QEAA@XZ 000000018000a010 f i BumpBar.obj
 0001:00009050       ??1OposVariant@@QEAA@XZ    000000018000a050 f i BumpBar.obj
 0001:00009090       ??1_ATL_MODULE70@ATL@@QEAA@XZ 000000018000a090 f i BumpBar.obj
 0001:000090d0       ??4?$CComPtr@UIAdviseSink@@@ATL@@QEAAPEAUIAdviseSink@@PEAU2@@Z 000000018000a0d0 f i BumpBar.obj
 0001:00009140       ??4?$CComPtr@UIOleClientSite@@@ATL@@QEAAPEAUIOleClientSite@@PEAU2@@Z 000000018000a140 f i BumpBar.obj
 0001:000091b0       ??4?$CComPtr@UIUnknown@@@ATL@@QEAAPEAUIUnknown@@PEAU2@@Z 000000018000a1b0 f i BumpBar.obj
 0001:00009220       ??4?$CComQIPtr@UIOleObject@@$1?_GUID_00000112_0000_0000_c000_000000000046@@3U__s_GUID@@B@ATL@@QEAAPEAUIOleObject@@PEAUIUnknown@@@Z 000000018000a220 f i BumpBar.obj
 0001:00009280       ??4?$CComQIPtr@UISpecifyPropertyPages@@$1?_GUID_b196b28b_bab4_101a_b69c_00aa00341d07@@3U__s_GUID@@B@ATL@@QEAAPEAUISpecifyPropertyPages@@PEAUIUnknown@@@Z 000000018000a280 f i BumpBar.obj
 0001:000092e0       ??7?$CComPtrBase@UIOleClientSite@@@ATL@@QEBA_NXZ 000000018000a2e0 f i BumpBar.obj
 0001:00009330       ??7?$CComPtrBase@UIOleInPlaceSiteWindowless@@@ATL@@QEBA_NXZ 000000018000a330 f i BumpBar.obj
 0001:00009380       ??7CComBSTR@ATL@@QEBA_NXZ  000000018000a380 f i BumpBar.obj
 0001:000093d0       ??8?$CComPtrBase@UIConnectionPointContainer@@@ATL@@QEBA_NPEAUIConnectionPointContainer@@@Z 000000018000a3d0 f i BumpBar.obj
 0001:00009420       ??8?$CComPtrBase@UIDataAdviseHolder@@@ATL@@QEBA_NPEAUIDataAdviseHolder@@@Z 000000018000a420 f i BumpBar.obj
 0001:00009470       ??8?$CComPtrBase@UIOleAdviseHolder@@@ATL@@QEBA_NPEAUIOleAdviseHolder@@@Z 000000018000a470 f i BumpBar.obj
 0001:000094c0       ??8?$CComPtrBase@UIOleClientSite@@@ATL@@QEBA_NPEAUIOleClientSite@@@Z 000000018000a4c0 f i BumpBar.obj
 0001:00009510       ??8?$CComPtrBase@UIOleControlSite@@@ATL@@QEBA_NPEAUIOleControlSite@@@Z 000000018000a510 f i BumpBar.obj
 0001:00009560       ??8?$CComPtrBase@UIOleInPlaceObject@@@ATL@@QEBA_NPEAUIOleInPlaceObject@@@Z 000000018000a560 f i BumpBar.obj
 0001:000095b0       ??8?$CComPtrBase@UIOleInPlaceSiteWindowless@@@ATL@@QEBA_NPEAUIOleInPlaceSiteWindowless@@@Z 000000018000a5b0 f i BumpBar.obj
 0001:00009600       ??8?$CComPtrBase@UIOleObject@@@ATL@@QEBA_NPEAUIOleObject@@@Z 000000018000a600 f i BumpBar.obj
 0001:00009650       ??8?$CComPtrBase@UIPersistStream@@@ATL@@QEBA_NPEAUIPersistStream@@@Z 000000018000a650 f i BumpBar.obj
 0001:000096a0       ??8?$CComPtrBase@UIPersistStreamInit@@@ATL@@QEBA_NPEAUIPersistStreamInit@@@Z 000000018000a6a0 f i BumpBar.obj
 0001:000096f0       ??8?$CComPtrBase@UIPointerInactive@@@ATL@@QEBA_NPEAUIPointerInactive@@@Z 000000018000a6f0 f i BumpBar.obj
 0001:00009740       ??8?$CComPtrBase@UIUnknown@@@ATL@@QEBA_NPEAUIUnknown@@@Z 000000018000a740 f i BumpBar.obj
 0001:00009790       ??8?$CComPtrBase@UIViewObjectEx@@@ATL@@QEBA_NPEAUIViewObjectEx@@@Z 000000018000a790 f i BumpBar.obj
 0001:000097e0       ??8CComBSTR@ATL@@QEBA_NH@Z 000000018000a7e0 f i BumpBar.obj
 0001:00009860       ??9?$CComPtrBase@UIConnectionPointContainer@@@ATL@@QEBA_NPEAUIConnectionPointContainer@@@Z 000000018000a860 f i BumpBar.obj
 0001:000098c0       ??9?$CComPtrBase@UIDataAdviseHolder@@@ATL@@QEBA_NPEAUIDataAdviseHolder@@@Z 000000018000a8c0 f i BumpBar.obj
 0001:00009920       ??9?$CComPtrBase@UIOleAdviseHolder@@@ATL@@QEBA_NPEAUIOleAdviseHolder@@@Z 000000018000a920 f i BumpBar.obj
 0001:00009980       ??9?$CComPtrBase@UIOleClientSite@@@ATL@@QEBA_NPEAUIOleClientSite@@@Z 000000018000a980 f i BumpBar.obj
 0001:000099e0       ??9?$CComPtrBase@UIOleControlSite@@@ATL@@QEBA_NPEAUIOleControlSite@@@Z 000000018000a9e0 f i BumpBar.obj
 0001:00009a40       ??9?$CComPtrBase@UIOleInPlaceObject@@@ATL@@QEBA_NPEAUIOleInPlaceObject@@@Z 000000018000aa40 f i BumpBar.obj
 0001:00009aa0       ??9?$CComPtrBase@UIOleInPlaceSiteWindowless@@@ATL@@QEBA_NPEAUIOleInPlaceSiteWindowless@@@Z 000000018000aaa0 f i BumpBar.obj
 0001:00009b00       ??9?$CComPtrBase@UIOleObject@@@ATL@@QEBA_NPEAUIOleObject@@@Z 000000018000ab00 f i BumpBar.obj
 0001:00009b60       ??9?$CComPtrBase@UIPersistStream@@@ATL@@QEBA_NPEAUIPersistStream@@@Z 000000018000ab60 f i BumpBar.obj
 0001:00009bc0       ??9?$CComPtrBase@UIPersistStreamInit@@@ATL@@QEBA_NPEAUIPersistStreamInit@@@Z 000000018000abc0 f i BumpBar.obj
 0001:00009c20       ??9?$CComPtrBase@UIPointerInactive@@@ATL@@QEBA_NPEAUIPointerInactive@@@Z 000000018000ac20 f i BumpBar.obj
 0001:00009c80       ??9?$CComPtrBase@UIUnknown@@@ATL@@QEBA_NPEAUIUnknown@@@Z 000000018000ac80 f i BumpBar.obj
 0001:00009ce0       ??9?$CComPtrBase@UIViewObjectEx@@@ATL@@QEBA_NPEAUIViewObjectEx@@@Z 000000018000ace0 f i BumpBar.obj
 0001:00009d40       ??9CComBSTR@ATL@@QEBA_NH@Z 000000018000ad40 f i BumpBar.obj
 0001:00009da0       ??B?$CComPtrBase@UIAdviseSink@@@ATL@@QEBAPEAUIAdviseSink@@XZ 000000018000ada0 f i BumpBar.obj
 0001:00009db0       ??B?$CComPtrBase@UIDataAdviseHolder@@@ATL@@QEBAPEAUIDataAdviseHolder@@XZ 000000018000adb0 f i BumpBar.obj
 0001:00009dc0       ??B?$CComPtrBase@UIDataObject@@@ATL@@QEBAPEAUIDataObject@@XZ 000000018000adc0 f i BumpBar.obj
 0001:00009dd0       ??B?$CComPtrBase@UIOleAdviseHolder@@@ATL@@QEBAPEAUIOleAdviseHolder@@XZ 000000018000add0 f i BumpBar.obj
 0001:00009de0       ??B?$CComPtrBase@UIOleClientSite@@@ATL@@QEBAPEAUIOleClientSite@@XZ 000000018000ade0 f i BumpBar.obj
 0001:00009df0       ??B?$CComPtrBase@UIOleControlSite@@@ATL@@QEBAPEAUIOleControlSite@@XZ 000000018000adf0 f i BumpBar.obj
 0001:00009e00       ??B?$CComPtrBase@UIOleInPlaceActiveObject@@@ATL@@QEBAPEAUIOleInPlaceActiveObject@@XZ 000000018000ae00 f i BumpBar.obj
 0001:00009e10       ??B?$CComPtrBase@UIOleInPlaceFrame@@@ATL@@QEBAPEAUIOleInPlaceFrame@@XZ 000000018000ae10 f i BumpBar.obj
 0001:00009e20       ??B?$CComPtrBase@UIOleInPlaceSiteWindowless@@@ATL@@QEBAPEAUIOleInPlaceSiteWindowless@@XZ 000000018000ae20 f i BumpBar.obj
 0001:00009e30       ??B?$CComPtrBase@UIOleInPlaceUIWindow@@@ATL@@QEBAPEAUIOleInPlaceUIWindow@@XZ 000000018000ae30 f i BumpBar.obj
 0001:00009e40       ??B?$CComPtrBase@UIOleObject@@@ATL@@QEBAPEAUIOleObject@@XZ 000000018000ae40 f i BumpBar.obj
 0001:00009e50       ??B?$CComPtrBase@UIPersistStream@@@ATL@@QEBAPEAUIPersistStream@@XZ 000000018000ae50 f i BumpBar.obj
 0001:00009e60       ??B?$CComPtrBase@UIProvideClassInfo2@@@ATL@@QEBAPEAUIProvideClassInfo2@@XZ 000000018000ae60 f i BumpBar.obj
 0001:00009e70       ??B?$CComPtrBase@UISpecifyPropertyPages@@@ATL@@QEBAPEAUISpecifyPropertyPages@@XZ 000000018000ae70 f i BumpBar.obj
 0001:00009e80       ??B?$CComPtrBase@UIStream@@@ATL@@QEBAPEAUIStream@@XZ 000000018000ae80 f i BumpBar.obj
 0001:00009e90       ??B?$CComPtrBase@UITypeInfo2@@@ATL@@QEBAPEAUITypeInfo2@@XZ 000000018000ae90 f i BumpBar.obj
 0001:00009ea0       ??B?$CComPtrBase@UITypeInfo@@@ATL@@QEBAPEAUITypeInfo@@XZ 000000018000aea0 f i BumpBar.obj
 0001:00009eb0       ??B?$CComPtrBase@UITypeLib@@@ATL@@QEBAPEAUITypeLib@@XZ 000000018000aeb0 f i BumpBar.obj
 0001:00009ec0       ??B?$CComPtrBase@UIUnknown@@@ATL@@QEBAPEAUIUnknown@@XZ 000000018000aec0 f i BumpBar.obj
 0001:00009ed0       ??B?$CTempBuffer@E$0BAA@VCCRTAllocator@ATL@@@ATL@@QEBAPEAEXZ 000000018000aed0 f i BumpBar.obj
 0001:00009ee0       ??B?$CTempBuffer@_W$0BAA@VCCRTAllocator@ATL@@@ATL@@QEBAPEA_WXZ 000000018000aee0 f i BumpBar.obj
 0001:00009ef0       ??B?$CTempBuffer@_W$0EAA@VCCRTAllocator@ATL@@@ATL@@QEBAPEA_WXZ 000000018000aef0 f i BumpBar.obj
 0001:00009f00       ??B?$CTraceCategoryEx@$00$0A@@ATL@@QEAAIXZ 000000018000af00 f i BumpBar.obj
 0001:00009f10       ??B?$CTraceCategoryEx@$07$0A@@ATL@@QEAAIXZ 000000018000af10 f i BumpBar.obj
 0001:00009f20       ??B?$CTraceCategoryEx@$0CAAA@$0A@@ATL@@QEAAIXZ 000000018000af20 f i BumpBar.obj
 0001:00009f30       ??B?$CTraceCategoryEx@$0EA@$0A@@ATL@@QEAAIXZ 000000018000af30 f i BumpBar.obj
 0001:00009f40       ??B?$CTraceCategoryEx@$0IAA@$0A@@ATL@@QEAAIXZ 000000018000af40 f i BumpBar.obj
 0001:00009f50       ??BCComBSTR@ATL@@QEBAPEA_WXZ 000000018000af50 f i BumpBar.obj
 0001:00009f60       ??BCRegKey@ATL@@QEBAPEAUHKEY__@@XZ 000000018000af60 f i BumpBar.obj
 0001:00009f70       ??C?$CComPtrBase@UIAdviseSink@@@ATL@@QEBAPEAV?$_NoAddRefReleaseOnCComPtr@UIAdviseSink@@@1@XZ 000000018000af70 f i BumpBar.obj
 0001:00009ff0       ??C?$CComPtrBase@UICatRegister@@@ATL@@QEBAPEAV?$_NoAddRefReleaseOnCComPtr@UICatRegister@@@1@XZ 000000018000aff0 f i BumpBar.obj
 0001:0000a070       ??C?$CComPtrBase@UIConnectionPoint@@@ATL@@QEBAPEAV?$_NoAddRefReleaseOnCComPtr@UIConnectionPoint@@@1@XZ 000000018000b070 f i BumpBar.obj
 0001:0000a0f0       ??C?$CComPtrBase@UIConnectionPointContainer@@@ATL@@QEBAPEAV?$_NoAddRefReleaseOnCComPtr@UIConnectionPointContainer@@@1@XZ 000000018000b0f0 f i BumpBar.obj
 0001:0000a170       ??C?$CComPtrBase@UIDataAdviseHolder@@@ATL@@QEBAPEAV?$_NoAddRefReleaseOnCComPtr@UIDataAdviseHolder@@@1@XZ 000000018000b170 f i BumpBar.obj
 0001:0000a1f0       ??C?$CComPtrBase@UIOleAdviseHolder@@@ATL@@QEBAPEAV?$_NoAddRefReleaseOnCComPtr@UIOleAdviseHolder@@@1@XZ 000000018000b1f0 f i BumpBar.obj
 0001:0000a270       ??C?$CComPtrBase@UIOleClientSite@@@ATL@@QEBAPEAV?$_NoAddRefReleaseOnCComPtr@UIOleClientSite@@@1@XZ 000000018000b270 f i BumpBar.obj
 0001:0000a2f0       ??C?$CComPtrBase@UIOleControlSite@@@ATL@@QEBAPEAV?$_NoAddRefReleaseOnCComPtr@UIOleControlSite@@@1@XZ 000000018000b2f0 f i BumpBar.obj
 0001:0000a370       ??C?$CComPtrBase@UIOleInPlaceFrame@@@ATL@@QEBAPEAV?$_NoAddRefReleaseOnCComPtr@UIOleInPlaceFrame@@@1@XZ 000000018000b370 f i BumpBar.obj
 0001:0000a3f0       ??C?$CComPtrBase@UIOleInPlaceObject@@@ATL@@QEBAPEAV?$_NoAddRefReleaseOnCComPtr@UIOleInPlaceObject@@@1@XZ 000000018000b3f0 f i BumpBar.obj
 0001:0000a470       ??C?$CComPtrBase@UIOleInPlaceSiteWindowless@@@ATL@@QEBAPEAV?$_NoAddRefReleaseOnCComPtr@UIOleInPlaceSiteWindowless@@@1@XZ 000000018000b470 f i BumpBar.obj
 0001:0000a4f0       ??C?$CComPtrBase@UIOleInPlaceUIWindow@@@ATL@@QEBAPEAV?$_NoAddRefReleaseOnCComPtr@UIOleInPlaceUIWindow@@@1@XZ 000000018000b4f0 f i BumpBar.obj
 0001:0000a570       ??C?$CComPtrBase@UIOleObject@@@ATL@@QEBAPEAV?$_NoAddRefReleaseOnCComPtr@UIOleObject@@@1@XZ 000000018000b570 f i BumpBar.obj
 0001:0000a5f0       ??C?$CComPtrBase@UIPersistStream@@@ATL@@QEBAPEAV?$_NoAddRefReleaseOnCComPtr@UIPersistStream@@@1@XZ 000000018000b5f0 f i BumpBar.obj
 0001:0000a670       ??C?$CComPtrBase@UIPersistStreamInit@@@ATL@@QEBAPEAV?$_NoAddRefReleaseOnCComPtr@UIPersistStreamInit@@@1@XZ 000000018000b670 f i BumpBar.obj
 0001:0000a6f0       ??C?$CComPtrBase@UIPointerInactive@@@ATL@@QEBAPEAV?$_NoAddRefReleaseOnCComPtr@UIPointerInactive@@@1@XZ 000000018000b6f0 f i BumpBar.obj
 0001:0000a770       ??C?$CComPtrBase@UIProvideClassInfo2@@@ATL@@QEBAPEAV?$_NoAddRefReleaseOnCComPtr@UIProvideClassInfo2@@@1@XZ 000000018000b770 f i BumpBar.obj
 0001:0000a7f0       ??C?$CComPtrBase@UISpecifyPropertyPages@@@ATL@@QEBAPEAV?$_NoAddRefReleaseOnCComPtr@UISpecifyPropertyPages@@@1@XZ 000000018000b7f0 f i BumpBar.obj
 0001:0000a870       ??C?$CComPtrBase@UITypeInfo@@@ATL@@QEBAPEAV?$_NoAddRefReleaseOnCComPtr@UITypeInfo@@@1@XZ 000000018000b870 f i BumpBar.obj
 0001:0000a8f0       ??C?$CComPtrBase@UITypeLib@@@ATL@@QEBAPEAV?$_NoAddRefReleaseOnCComPtr@UITypeLib@@@1@XZ 000000018000b8f0 f i BumpBar.obj
 0001:0000a970       ??C?$CComPtrBase@UIUnknown@@@ATL@@QEBAPEAV?$_NoAddRefReleaseOnCComPtr@UIUnknown@@@1@XZ 000000018000b970 f i BumpBar.obj
 0001:0000a9f0       ??C?$CComPtrBase@UIViewObjectEx@@@ATL@@QEBAPEAV?$_NoAddRefReleaseOnCComPtr@UIViewObjectEx@@@1@XZ 000000018000b9f0 f i BumpBar.obj
 0001:0000aa70       ??I?$CComPtrBase@UICatRegister@@@ATL@@QEAAPEAPEAUICatRegister@@XZ 000000018000ba70 f i BumpBar.obj
 0001:0000aae0       ??I?$CComPtrBase@UIConnectionPoint@@@ATL@@QEAAPEAPEAUIConnectionPoint@@XZ 000000018000bae0 f i BumpBar.obj
 0001:0000ab50       ??I?$CComPtrBase@UIConnectionPointContainer@@@ATL@@QEAAPEAPEAUIConnectionPointContainer@@XZ 000000018000bb50 f i BumpBar.obj
 0001:0000abc0       ??I?$CComPtrBase@UIDataAdviseHolder@@@ATL@@QEAAPEAPEAUIDataAdviseHolder@@XZ 000000018000bbc0 f i BumpBar.obj
 0001:0000ac30       ??I?$CComPtrBase@UIDataObject@@@ATL@@QEAAPEAPEAUIDataObject@@XZ 000000018000bc30 f i BumpBar.obj
 0001:0000aca0       ??I?$CComPtrBase@UIDispatch@@@ATL@@QEAAPEAPEAUIDispatch@@XZ 000000018000bca0 f i BumpBar.obj
 0001:0000ad10       ??I?$CComPtrBase@UIOleAdviseHolder@@@ATL@@QEAAPEAPEAUIOleAdviseHolder@@XZ 000000018000bd10 f i BumpBar.obj
 0001:0000ad80       ??I?$CComPtrBase@UIOleControlSite@@@ATL@@QEAAPEAPEAUIOleControlSite@@XZ 000000018000bd80 f i BumpBar.obj
 0001:0000adf0       ??I?$CComPtrBase@UIOleInPlaceActiveObject@@@ATL@@QEAAPEAPEAUIOleInPlaceActiveObject@@XZ 000000018000bdf0 f i BumpBar.obj
 0001:0000ae60       ??I?$CComPtrBase@UIOleInPlaceFrame@@@ATL@@QEAAPEAPEAUIOleInPlaceFrame@@XZ 000000018000be60 f i BumpBar.obj
 0001:0000aed0       ??I?$CComPtrBase@UIOleInPlaceObject@@@ATL@@QEAAPEAPEAUIOleInPlaceObject@@XZ 000000018000bed0 f i BumpBar.obj
 0001:0000af40       ??I?$CComPtrBase@UIOleInPlaceSiteWindowless@@@ATL@@QEAAPEAPEAUIOleInPlaceSiteWindowless@@XZ 000000018000bf40 f i BumpBar.obj
 0001:0000afb0       ??I?$CComPtrBase@UIOleInPlaceUIWindow@@@ATL@@QEAAPEAPEAUIOleInPlaceUIWindow@@XZ 000000018000bfb0 f i BumpBar.obj
 0001:0000b020       ??I?$CComPtrBase@UIOleObject@@@ATL@@QEAAPEAPEAUIOleObject@@XZ 000000018000c020 f i BumpBar.obj
 0001:0000b090       ??I?$CComPtrBase@UIPersistStream@@@ATL@@QEAAPEAPEAUIPersistStream@@XZ 000000018000c090 f i BumpBar.obj
 0001:0000b100       ??I?$CComPtrBase@UIPointerInactive@@@ATL@@QEAAPEAPEAUIPointerInactive@@XZ 000000018000c100 f i BumpBar.obj
 0001:0000b170       ??I?$CComPtrBase@UIProvideClassInfo2@@@ATL@@QEAAPEAPEAUIProvideClassInfo2@@XZ 000000018000c170 f i BumpBar.obj
 0001:0000b1e0       ??I?$CComPtrBase@UIStream@@@ATL@@QEAAPEAPEAUIStream@@XZ 000000018000c1e0 f i BumpBar.obj
 0001:0000b250       ??I?$CComPtrBase@UITypeInfo2@@@ATL@@QEAAPEAPEAUITypeInfo2@@XZ 000000018000c250 f i BumpBar.obj
 0001:0000b2c0       ??I?$CComPtrBase@UITypeInfo@@@ATL@@QEAAPEAPEAUITypeInfo@@XZ 000000018000c2c0 f i BumpBar.obj
 0001:0000b330       ??I?$CComPtrBase@UITypeLib@@@ATL@@QEAAPEAPEAUITypeLib@@XZ 000000018000c330 f i BumpBar.obj
 0001:0000b3a0       ??I?$CComPtrBase@UIUnknown@@@ATL@@QEAAPEAPEAUIUnknown@@XZ 000000018000c3a0 f i BumpBar.obj
 0001:0000b410       ??I?$CComPtrBase@UIViewObjectEx@@@ATL@@QEAAPEAPEAUIViewObjectEx@@XZ 000000018000c410 f i BumpBar.obj
 0001:0000b480       ??ICComBSTR@ATL@@QEAAPEAPEA_WXZ 000000018000c480 f i BumpBar.obj
 0001:0000b490       ??_E?$CComContainedObject@VCOPOSBumpBar@@@ATL@@W7EAAPEAXI@Z 000000018000c490 f i BumpBar.obj
 0001:0000b49c       ??_E?$CComContainedObject@VCOPOSBumpBar@@@ATL@@WHA@EAAPEAXI@Z 000000018000c49c f i BumpBar.obj
 0001:0000b4a8       ??_E?$CComObject@VCOPOSBumpBar@@@ATL@@W7EAAPEAXI@Z 000000018000c4a8 f i BumpBar.obj
 0001:0000b4b4       ??_E?$CComObject@VCOPOSBumpBar@@@ATL@@WHA@EAAPEAXI@Z 000000018000c4b4 f i BumpBar.obj
 0001:0000b4c0       ??_E?$CComAggObject@VCOPOSBumpBar@@@ATL@@UEAAPEAXI@Z 000000018000c4c0 f i BumpBar.obj
 0001:0000b4c0       ??_G?$CComAggObject@VCOPOSBumpBar@@@ATL@@UEAAPEAXI@Z 000000018000c4c0 f i BumpBar.obj
 0001:0000b520       ??_E?$CComContainedObject@VCOPOSBumpBar@@@ATL@@UEAAPEAXI@Z 000000018000c520 f i BumpBar.obj
 0001:0000b520       ??_G?$CComContainedObject@VCOPOSBumpBar@@@ATL@@UEAAPEAXI@Z 000000018000c520 f i BumpBar.obj
 0001:0000b580       ??_E?$CComObject@V?$CComEnum@UIEnumConnectionPoints@@$1?_GUID_b196b285_bab4_101a_b69c_00aa00341d07@@3U__s_GUID@@BPEAUIConnectionPoint@@V?$_CopyInterface@UIConnectionPoint@@@ATL@@VCComSingleThreadModel@6@@ATL@@@ATL@@UEAAPEAXI@Z 000000018000c580 f i BumpBar.obj
 0001:0000b580       ??_G?$CComObject@V?$CComEnum@UIEnumConnectionPoints@@$1?_GUID_b196b285_bab4_101a_b69c_00aa00341d07@@3U__s_GUID@@BPEAUIConnectionPoint@@V?$_CopyInterface@UIConnectionPoint@@@ATL@@VCComSingleThreadModel@6@@ATL@@@ATL@@UEAAPEAXI@Z 000000018000c580 f i BumpBar.obj
 0001:0000b5e0       ??_G?$CComObject@V?$CComEnum@UIEnumConnections@@$1?_GUID_b196b287_bab4_101a_b69c_00aa00341d07@@3U__s_GUID@@BUtagCONNECTDATA@@V?$_Copy@UtagCONNECTDATA@@@ATL@@VCComSingleThreadModel@6@@ATL@@@ATL@@UEAAPEAXI@Z 000000018000c5e0 f i BumpBar.obj
 0001:0000b5e0       ??_E?$CComObject@V?$CComEnum@UIEnumConnections@@$1?_GUID_b196b287_bab4_101a_b69c_00aa00341d07@@3U__s_GUID@@BUtagCONNECTDATA@@V?$_Copy@UtagCONNECTDATA@@@ATL@@VCComSingleThreadModel@6@@ATL@@@ATL@@UEAAPEAXI@Z 000000018000c5e0 f i BumpBar.obj
 0001:0000b640       ??_G?$CComObject@VCOPOSBumpBar@@@ATL@@UEAAPEAXI@Z 000000018000c640 f i BumpBar.obj
 0001:0000b640       ??_E?$CComObject@VCOPOSBumpBar@@@ATL@@UEAAPEAXI@Z 000000018000c640 f i BumpBar.obj
 0001:0000b6a0       ??_E?$CComObjectCached@VCComClassFactory@ATL@@@ATL@@UEAAPEAXI@Z 000000018000c6a0 f i BumpBar.obj
 0001:0000b6a0       ??_G?$CComObjectCached@VCComClassFactory@ATL@@@ATL@@UEAAPEAXI@Z 000000018000c6a0 f i BumpBar.obj
 0001:0000b700       ??_ECComClassFactory@ATL@@UEAAPEAXI@Z 000000018000c700 f i BumpBar.obj
 0001:0000b700       ??_GCComClassFactory@ATL@@UEAAPEAXI@Z 000000018000c700 f i BumpBar.obj
 0001:0000b760       ??_GCComModule@ATL@@UEAAPEAXI@Z 000000018000c760 f i BumpBar.obj
 0001:0000b760       ??_ECComModule@ATL@@UEAAPEAXI@Z 000000018000c760 f i BumpBar.obj
 0001:0000b7c0       ??_ECRegObject@ATL@@UEAAPEAXI@Z 000000018000c7c0 f i BumpBar.obj
 0001:0000b7c0       ??_GCRegObject@ATL@@UEAAPEAXI@Z 000000018000c7c0 f i BumpBar.obj
 0001:0000b820       ?Add@?$CSimpleArray@GV?$CSimpleArrayEqualHelper@G@ATL@@@ATL@@QEAAHAEBG@Z 000000018000c820 f i BumpBar.obj
 0001:0000b9c0       ?Add@?$CSimpleMap@PEA_WPEA_WVCExpansionVectorEqualHelper@ATL@@@ATL@@QEAAHAEBQEA_W0@Z 000000018000c9c0 f i BumpBar.obj
 0001:0000bab0       ?Add@CComDynamicUnkArray@ATL@@QEAAKPEAUIUnknown@@@Z 000000018000cab0 f i BumpBar.obj
 0001:0000bc90       ?Add@CExpansionVector@ATL@@QEAAHPEB_W0@Z 000000018000cc90 f i BumpBar.obj
 0001:0000bfc0       ?AddChar@CParseBuffer@CRegParser@ATL@@QEAAHPEB_W@Z 000000018000cfc0 f i BumpBar.obj
 0001:0000c010       ?AddCommonRGSReplacements@?$CAtlModuleT@VCComModule@ATL@@@ATL@@UEAAJPEAUIRegistrarBase@@@Z 000000018000d010 f i BumpBar.obj
 0001:0000c070       ?AddCreateWndData@CAtlWinModule@ATL@@QEAAXPEAU_AtlCreateWndData@2@PEAX@Z 000000018000d070 f i BumpBar.obj
 0001:0000c0c0       ?AddRef@?$CComAggObject@VCOPOSBumpBar@@@ATL@@UEAAKXZ 000000018000d0c0 f i BumpBar.obj
 0001:0000c100       ?AddRef@?$CComContainedObject@VCOPOSBumpBar@@@ATL@@UEAAKXZ 000000018000d100 f i BumpBar.obj
 0001:0000c138       ?AddRef@?$CComContainedObject@VCOPOSBumpBar@@@ATL@@WBAA@EAAKXZ 000000018000d138 f i BumpBar.obj
 0001:0000c144       ?AddRef@?$CComContainedObject@VCOPOSBumpBar@@@ATL@@WBAI@EAAKXZ 000000018000d144 f i BumpBar.obj
 0001:0000c150       ?AddRef@?$CComContainedObject@VCOPOSBumpBar@@@ATL@@WBBA@EAAKXZ 000000018000d150 f i BumpBar.obj
 0001:0000c15c       ?AddRef@?$CComContainedObject@VCOPOSBumpBar@@@ATL@@WBBI@EAAKXZ 000000018000d15c f i BumpBar.obj
 0001:0000c168       ?AddRef@?$CComContainedObject@VCOPOSBumpBar@@@ATL@@WBCI@EAAKXZ 000000018000d168 f i BumpBar.obj
 0001:0000c174       ?AddRef@?$CComContainedObject@VCOPOSBumpBar@@@ATL@@WBEA@EAAKXZ 000000018000d174 f i BumpBar.obj
 0001:0000c180       ?AddRef@?$CComContainedObject@VCOPOSBumpBar@@@ATL@@WLI@EAAKXZ 000000018000d180 f i BumpBar.obj
 0001:0000c18c       ?AddRef@?$CComContainedObject@VCOPOSBumpBar@@@ATL@@WMA@EAAKXZ 000000018000d18c f i BumpBar.obj
 0001:0000c198       ?AddRef@?$CComContainedObject@VCOPOSBumpBar@@@ATL@@WMI@EAAKXZ 000000018000d198 f i BumpBar.obj
 0001:0000c1a4       ?AddRef@?$CComContainedObject@VCOPOSBumpBar@@@ATL@@WNA@EAAKXZ 000000018000d1a4 f i BumpBar.obj
 0001:0000c1b0       ?AddRef@?$CComContainedObject@VCOPOSBumpBar@@@ATL@@WNI@EAAKXZ 000000018000d1b0 f i BumpBar.obj
 0001:0000c1bc       ?AddRef@?$CComContainedObject@VCOPOSBumpBar@@@ATL@@WOA@EAAKXZ 000000018000d1bc f i BumpBar.obj
 0001:0000c1c8       ?AddRef@?$CComContainedObject@VCOPOSBumpBar@@@ATL@@WOI@EAAKXZ 000000018000d1c8 f i BumpBar.obj
 0001:0000c1d4       ?AddRef@?$CComContainedObject@VCOPOSBumpBar@@@ATL@@WPA@EAAKXZ 000000018000d1d4 f i BumpBar.obj
 0001:0000c1e0       ?AddRef@?$CComContainedObject@VCOPOSBumpBar@@@ATL@@WPI@EAAKXZ 000000018000d1e0 f i BumpBar.obj
 0001:0000c1f0       ?AddRef@?$CComObject@V?$CComEnum@UIEnumConnectionPoints@@$1?_GUID_b196b285_bab4_101a_b69c_00aa00341d07@@3U__s_GUID@@BPEAUIConnectionPoint@@V?$_CopyInterface@UIConnectionPoint@@@ATL@@VCComSingleThreadModel@6@@ATL@@@ATL@@UEAAKXZ 000000018000d1f0 f i BumpBar.obj
 0001:0000c230       ?AddRef@?$CComObject@V?$CComEnum@UIEnumConnections@@$1?_GUID_b196b287_bab4_101a_b69c_00aa00341d07@@3U__s_GUID@@BUtagCONNECTDATA@@V?$_Copy@UtagCONNECTDATA@@@ATL@@VCComSingleThreadModel@6@@ATL@@@ATL@@UEAAKXZ 000000018000d230 f i BumpBar.obj
 0001:0000c270       ?AddRef@?$CComObject@VCOPOSBumpBar@@@ATL@@UEAAKXZ 000000018000d270 f i BumpBar.obj
 0001:0000c2a8       ?AddRef@?$CComObject@VCOPOSBumpBar@@@ATL@@WBAA@EAAKXZ 000000018000d2a8 f i BumpBar.obj
 0001:0000c2b4       ?AddRef@?$CComObject@VCOPOSBumpBar@@@ATL@@WBAI@EAAKXZ 000000018000d2b4 f i BumpBar.obj
 0001:0000c2c0       ?AddRef@?$CComObject@VCOPOSBumpBar@@@ATL@@WBBA@EAAKXZ 000000018000d2c0 f i BumpBar.obj
 0001:0000c2cc       ?AddRef@?$CComObject@VCOPOSBumpBar@@@ATL@@WBBI@EAAKXZ 000000018000d2cc f i BumpBar.obj
 0001:0000c2d8       ?AddRef@?$CComObject@VCOPOSBumpBar@@@ATL@@WBCI@EAAKXZ 000000018000d2d8 f i BumpBar.obj
 0001:0000c2e4       ?AddRef@?$CComObject@VCOPOSBumpBar@@@ATL@@WBEA@EAAKXZ 000000018000d2e4 f i BumpBar.obj
 0001:0000c2f0       ?AddRef@?$CComObject@VCOPOSBumpBar@@@ATL@@WLI@EAAKXZ 000000018000d2f0 f i BumpBar.obj
 0001:0000c2fc       ?AddRef@?$CComObject@VCOPOSBumpBar@@@ATL@@WMA@EAAKXZ 000000018000d2fc f i BumpBar.obj
 0001:0000c308       ?AddRef@?$CComObject@VCOPOSBumpBar@@@ATL@@WMI@EAAKXZ 000000018000d308 f i BumpBar.obj
 0001:0000c314       ?AddRef@?$CComObject@VCOPOSBumpBar@@@ATL@@WNA@EAAKXZ 000000018000d314 f i BumpBar.obj
 0001:0000c320       ?AddRef@?$CComObject@VCOPOSBumpBar@@@ATL@@WNI@EAAKXZ 000000018000d320 f i BumpBar.obj
 0001:0000c32c       ?AddRef@?$CComObject@VCOPOSBumpBar@@@ATL@@WOA@EAAKXZ 000000018000d32c f i BumpBar.obj
 0001:0000c338       ?AddRef@?$CComObject@VCOPOSBumpBar@@@ATL@@WOI@EAAKXZ 000000018000d338 f i BumpBar.obj
 0001:0000c344       ?AddRef@?$CComObject@VCOPOSBumpBar@@@ATL@@WPA@EAAKXZ 000000018000d344 f i BumpBar.obj
 0001:0000c350       ?AddRef@?$CComObject@VCOPOSBumpBar@@@ATL@@WPI@EAAKXZ 000000018000d350 f i BumpBar.obj
 0001:0000c360       ?AddRef@?$CComObjectCached@VCComClassFactory@ATL@@@ATL@@UEAAKXZ 000000018000d360 f i BumpBar.obj
 0001:0000c3c0       ?AddRef@CRegObject@ATL@@UEAAKXZ 000000018000d3c0 f i BumpBar.obj
 0001:0000c430       ?AddReplacement@CRegObject@ATL@@UEAAJPEB_W0@Z 000000018000d430 f i BumpBar.obj
 0001:0000c560       ?AddString@CParseBuffer@CRegParser@ATL@@QEAAHPEB_W@Z 000000018000d560 f i BumpBar.obj
 0001:0000c650       ?AddTermFunc@CAtlModule@ATL@@QEAAJP6AX_K@Z0@Z 000000018000d650 f i BumpBar.obj
 0001:0000c6c0       ?AddValue@CRegParser@ATL@@IEAAJAEAVCRegKey@2@PEB_WPEA_W@Z 000000018000d6c0 f i BumpBar.obj
 0001:0000cf90       ?Advise@?$CProxy_IOPOSEvents@VCOPOSBumpBar@@@@UEAAJPEAUIUnknown@@PEAK@Z 000000018000df90 f i BumpBar.obj
 0001:0000d000       ?Advise@?$IConnectionPointImpl@VCOPOSBumpBar@@$1?DIID__IOPOSBumpBarEvents@@3U_GUID@@BVCComDynamicUnkArray@ATL@@@ATL@@UEAAJPEAUIUnknown@@PEAK@Z 000000018000e000 f i BumpBar.obj
 0001:0000d200       ?Advise@?$IConnectionPointImpl@VCOPOSBumpBar@@$1?IID_IPropertyNotifySink@@3U_GUID@@BVCComDynamicUnkArray@ATL@@@ATL@@UEAAJPEAUIUnknown@@PEAK@Z 000000018000e200 f i BumpBar.obj
 0001:0000d400       ?Advise@?$IOleObjectImpl@VCOPOSBumpBar@@@ATL@@UEAAJPEAUIAdviseSink@@PEAK@Z 000000018000e400 f i BumpBar.obj
 0001:0000d4c0       ?Allocate@?$CAtlSafeAllocBufferManager@VCCRTAllocator@ATL@@@_ATL_SAFE_ALLOCA_IMPL@ATL@@QEAAPEAX_K@Z 000000018000e4c0 f i BumpBar.obj
 0001:0000d540       ?Allocate@?$CTempBuffer@E$0BAA@VCCRTAllocator@ATL@@@ATL@@QEAAPEAE_K@Z 000000018000e540 f i BumpBar.obj
 0001:0000d590       ?Allocate@?$CTempBuffer@_W$0BAA@VCCRTAllocator@ATL@@@ATL@@QEAAPEA_W_K@Z 000000018000e590 f i BumpBar.obj
 0001:0000d5e0       ?Allocate@?$CTempBuffer@_W$0EAA@VCCRTAllocator@ATL@@@ATL@@QEAAPEA_W_K@Z 000000018000e5e0 f i BumpBar.obj
 0001:0000d630       ?AllocateBytes@?$CTempBuffer@E$0BAA@VCCRTAllocator@ATL@@@ATL@@QEAAPEAE_K@Z 000000018000e630 f i BumpBar.obj
 0001:0000d6e0       ?AllocateBytes@?$CTempBuffer@_W$0BAA@VCCRTAllocator@ATL@@@ATL@@QEAAPEA_W_K@Z 000000018000e6e0 f i BumpBar.obj
 0001:0000d790       ?AllocateBytes@?$CTempBuffer@_W$0EAA@VCCRTAllocator@ATL@@@ATL@@QEAAPEA_W_K@Z 000000018000e790 f i BumpBar.obj
 0001:0000d840       ?AllocateHeap@?$CTempBuffer@E$0BAA@VCCRTAllocator@ATL@@@ATL@@AEAAX_K@Z 000000018000e840 f i BumpBar.obj
 0001:0000d8a0       ?AllocateHeap@?$CTempBuffer@_W$0BAA@VCCRTAllocator@ATL@@@ATL@@AEAAX_K@Z 000000018000e8a0 f i BumpBar.obj
 0001:0000d900       ?AllocateHeap@?$CTempBuffer@_W$0EAA@VCCRTAllocator@ATL@@@ATL@@AEAAX_K@Z 000000018000e900 f i BumpBar.obj
 0001:0000d960       ?Append@CParseBuffer@CRegParser@ATL@@QEAAHPEB_WH@Z 000000018000e960 f i BumpBar.obj
 0001:0000db90       ?AtlCallTermFunc@ATL@@YAXPEAU_ATL_MODULE70@1@@Z 000000018000eb90 f i BumpBar.obj
 0001:0000dc40       ?AtlCoTaskMemCAlloc@ATL@@YAPEAXKK@Z 000000018000ec40 f i BumpBar.obj
 0001:0000dcc0       ?AtlCoTaskMemRecalloc@ATL@@YAPEAXPEAXKK@Z 000000018000ecc0 f i BumpBar.obj
 0001:0000dd40       ?AtlComModuleGetClassObject@ATL@@YAJPEAU_ATL_COM_MODULE70@1@AEBU_GUID@@1PEAPEAX@Z 000000018000ed40 f i BumpBar.obj
 0001:0000e070       ?AtlComModuleRegisterServer@ATL@@YAJPEAU_ATL_COM_MODULE70@1@HPEBU_GUID@@@Z 000000018000f070 f i BumpBar.obj
 0001:0000e270       ?AtlComModuleUnregisterServer@ATL@@YAJPEAU_ATL_COM_MODULE70@1@HPEBU_GUID@@@Z 000000018000f270 f i BumpBar.obj
 0001:0000e3d0       ?AtlComQIPtrAssign2@ATL@@YAXPEAPEAUIUnknown@@PEAU2@AEBU_GUID@@@Z 000000018000f3d0 f i BumpBar.obj
 0001:0000e460       ?AtlCreateTargetDC@ATL@@YAPEAUHDC__@@PEAU2@PEAUtagDVTARGETDEVICE@@@Z 000000018000f460 f i BumpBar.obj
 0001:0000e690       ?AtlCrtErrorCheck@ATL@@YAHH@Z 000000018000f690 f i BumpBar.obj
 0001:0000e710       ?AtlGetPerUserRegistration@ATL@@YAJPEA_N@Z 000000018000f710 f i BumpBar.obj
 0001:0000e740       ?AtlHiMetricToPixel@ATL@@YAXPEBUtagSIZE@@PEAU2@@Z 000000018000f740 f i BumpBar.obj
 0001:0000e940       ?AtlHresultFromLastError@ATL@@YAJXZ 000000018000f940 f i BumpBar.obj
 0001:0000e970       ?AtlHresultFromWin32@ATL@@YAJK@Z 000000018000f970 f i BumpBar.obj
 0001:0000e9a0       ?AtlIPersistStreamInit_Load@ATL@@YAJPEAUIStream@@PEBUATL_PROPMAP_ENTRY@1@PEAXPEAUIUnknown@@@Z 000000018000f9a0 f i BumpBar.obj
 0001:0000f010       ?AtlIPersistStreamInit_Save@ATL@@YAJPEAUIStream@@HPEBUATL_PROPMAP_ENTRY@1@PEAXPEAUIUnknown@@@Z 0000000180010010 f i BumpBar.obj
 0001:0000f5a0       ?AtlInternalOleLoadFromStream@ATL@@YAJPEAUIStream@@AEBU_GUID@@PEAPEAXTClassesAllowedInStream@1@K@Z 00000001800105a0 f i BumpBar.obj
 0001:0000f8e0       ?AtlInternalQueryInterface@ATL@@YAJPEAXPEBU_ATL_INTMAP_ENTRY@1@AEBU_GUID@@PEAPEAX@Z 00000001800108e0 f i BumpBar.obj
 0001:0000fba0       ?AtlLoadTypeLib@ATL@@YAJPEAUHINSTANCE__@@PEB_WPEAPEA_WPEAPEAUITypeLib@@@Z 0000000180010ba0 f i BumpBar.obj
 0001:00010070       ?AtlModuleAddTermFunc@ATL@@YAJPEAU_ATL_MODULE70@1@P6AX_K@Z1@Z 0000000180011070 f i BumpBar.obj
 0001:00010240       ?AtlRegisterClassCategoriesHelper@ATL@@YAJAEBU_GUID@@PEBU_ATL_CATMAP_ENTRY@1@H@Z 0000000180011240 f i BumpBar.obj
 0001:00010a10       ?AtlRegisterTypeLib@ATL@@YAJPEAUHINSTANCE__@@PEB_W@Z 0000000180011a10 f i BumpBar.obj
 0001:00010d70       ?AtlThrowImpl@ATL@@YAXJ@Z  0000000180011d70 f i BumpBar.obj
 0001:00010e50       ?AtlUnRegisterTypeLib@ATL@@YAJPEAUHINSTANCE__@@PEB_W@Z 0000000180011e50 f i BumpBar.obj
 0001:00011080       ?AtlWinModuleAddCreateWndData@ATL@@YAXPEAU_ATL_WIN_MODULE70@1@PEAU_AtlCreateWndData@1@PEAX@Z 0000000180012080 f i BumpBar.obj
 0001:00011270       ?AtlWinModuleExtractCreateWndData@ATL@@YAPEAXPEAU_ATL_WIN_MODULE70@1@@Z 0000000180012270 f i BumpBar.obj
 0001:00011470       ?AtlWinModuleRegisterClassExW@ATL@@YAGPEAU_ATL_WIN_MODULE70@1@PEBUtagWNDCLASSEXW@@@Z 0000000180012470 f i BumpBar.obj
 0001:00011540       ?AtlWinModuleRegisterWndClassInfoW@ATL@@YAGPEAU_ATL_WIN_MODULE70@1@PEAU_ATL_BASE_MODULE70@1@PEAU_ATL_WNDCLASSINFOW@1@PEAP6A_JPEAUHWND__@@I_K_J@Z@Z 0000000180012540 f i BumpBar.obj
 0001:000115b0       ?Attach@?$CAutoVectorPtr@_W@ATL@@QEAAXPEA_W@Z 00000001800125b0 f i BumpBar.obj
 0001:00011640       ?Attach@CComBSTR@ATL@@QEAAXPEA_W@Z 0000000180012640 f i BumpBar.obj
 0001:000116a0       ?Attach@CRegKey@ATL@@QEAAXPEAUHKEY__@@@Z 00000001800126a0 f i BumpBar.obj
 0001:00011740       ?CanForceRemoveKey@CRegParser@ATL@@IEAAHPEB_W@Z 0000000180012740 f i BumpBar.obj
 0001:000117b0       ?ChToByte@CRegParser@ATL@@KAE_W@Z 00000001800127b0 f i BumpBar.obj
 0001:00011910       ?ChangeType@CComVariant@ATL@@QEAAJGPEBUtagVARIANT@@@Z 0000000180012910 f i BumpBar.obj
 0001:00011980       ?Cleanup@CComTypeInfoHolder@ATL@@SAX_K@Z 0000000180012980 f i BumpBar.obj
 0001:00011a70       ?Clear@CComVariant@ATL@@QEAAJXZ 0000000180012a70 f i BumpBar.obj
 0001:00011aa0       ?ClearReplacements@CExpansionVector@ATL@@QEAAJXZ 0000000180012aa0 f i BumpBar.obj
 0001:00011b40       ?ClearReplacements@CRegObject@ATL@@UEAAJXZ 0000000180012b40 f i BumpBar.obj
 0001:00011ba0       ?Clone@?$CComEnumImpl@UIEnumConnectionPoints@@$1?_GUID_b196b285_bab4_101a_b69c_00aa00341d07@@3U__s_GUID@@BPEAUIConnectionPoint@@V?$_CopyInterface@UIConnectionPoint@@@ATL@@@ATL@@UEAAJPEAPEAUIEnumConnectionPoints@@@Z 0000000180012ba0 f i BumpBar.obj
 0001:00011d90       ?Clone@?$CComEnumImpl@UIEnumConnections@@$1?_GUID_b196b287_bab4_101a_b69c_00aa00341d07@@3U__s_GUID@@BUtagCONNECTDATA@@V?$_Copy@UtagCONNECTDATA@@@ATL@@@ATL@@UEAAJPEAPEAUIEnumConnections@@@Z 0000000180012d90 f i BumpBar.obj
 0001:00011f80       ?Close@?$IOleObjectImpl@VCOPOSBumpBar@@@ATL@@UEAAJK@Z 0000000180012f80 f i BumpBar.obj
 0001:00012030       ?Close@CRegKey@ATL@@QEAAJXZ 0000000180013030 f i BumpBar.obj
 0001:000120a0       ?ContextSensitiveHelp@?$IOleInPlaceActiveObjectImpl@VCOPOSBumpBar@@@ATL@@UEAAJH@Z 00000001800130a0 f i BumpBar.obj
 0001:00012120       ?ContextSensitiveHelp@?$IOleInPlaceObjectWindowlessImpl@VCOPOSBumpBar@@@ATL@@UEAAJH@Z 0000000180013120 f i BumpBar.obj
 0001:000121a0       ?ControlQueryInterface@?$CComControl@VCOPOSBumpBar@@V?$CWindowImpl@VCOPOSBumpBar@@VCWindow@ATL@@V?$CWinTraits@$0FGAAAAAA@$0A@@3@@ATL@@@ATL@@UEAAJAEBU_GUID@@PEAPEAX@Z 00000001800131a0 f i BumpBar.obj
 0001:00012230       ?CreateControlWindow@?$CComControl@VCOPOSBumpBar@@V?$CWindowImpl@VCOPOSBumpBar@@VCWindow@ATL@@V?$CWinTraits@$0FGAAAAAA@$0A@@3@@ATL@@@ATL@@UEAAPEAUHWND__@@PEAU3@AEAUtagRECT@@@Z 0000000180013230 f i BumpBar.obj
 0001:00012320       ?CreateInstance@?$CComCreator@V?$CComAggObject@VCOPOSBumpBar@@@ATL@@@ATL@@SAJPEAXAEBU_GUID@@PEAPEAX@Z 0000000180013320 f i BumpBar.obj
 0001:00012500       ?CreateInstance@?$CComCreator@V?$CComObject@VCOPOSBumpBar@@@ATL@@@ATL@@SAJPEAXAEBU_GUID@@PEAPEAX@Z 0000000180013500 f i BumpBar.obj
 0001:00012700       ?CreateInstance@?$CComObject@V?$CComEnum@UIEnumConnectionPoints@@$1?_GUID_b196b285_bab4_101a_b69c_00aa00341d07@@3U__s_GUID@@BPEAUIConnectionPoint@@V?$_CopyInterface@UIConnectionPoint@@@ATL@@VCComSingleThreadModel@6@@ATL@@@ATL@@SAJPEAPEAV12@@Z 0000000180013700 f i BumpBar.obj
 0001:000128c0       ?CreateInstance@?$CComObject@V?$CComEnum@UIEnumConnections@@$1?_GUID_b196b287_bab4_101a_b69c_00aa00341d07@@3U__s_GUID@@BUtagCONNECTDATA@@V?$_Copy@UtagCONNECTDATA@@@ATL@@VCComSingleThreadModel@6@@ATL@@@ATL@@SAJPEAPEAV12@@Z 00000001800138c0 f i BumpBar.obj
 0001:00012a80       ?CreateInstance@CComClassFactory@ATL@@UEAAJPEAUIUnknown@@AEBU_GUID@@PEAPEAX@Z 0000000180013a80 f i BumpBar.obj
 0001:00012ba0       ?DAdvise@?$IDataObjectImpl@VCOPOSBumpBar@@@ATL@@UEAAJPEAUtagFORMATETC@@KPEAUIAdviseSink@@PEAK@Z 0000000180013ba0 f i BumpBar.obj
 0001:00012d00       ?DEVMODEOLE2T_EX@@YAPEAU_devicemodeW@@PEAU1@@Z 0000000180013d00 f i BumpBar.obj
 0001:00012d10       ?DUnadvise@?$IDataObjectImpl@VCOPOSBumpBar@@@ATL@@UEAAJK@Z 0000000180013d10 f i BumpBar.obj
 0001:00012e10       ?Decrement@CComMultiThreadModel@ATL@@SAKPEAJ@Z 0000000180013e10 f i BumpBar.obj
 0001:00012e30       ?Decrement@CComSingleThreadModel@ATL@@SAKPEAJ@Z 0000000180013e30 f i BumpBar.obj
 0001:00012e50       ?DefWindowProcW@?$CWindowImplBaseT@VCWindow@ATL@@V?$CWinTraits@$0FGAAAAAA@$0A@@2@@ATL@@QEAA_JI_K_J@Z 0000000180013e50 f i BumpBar.obj
 0001:00012eb0       ?DefaultReflectionHandler@?$CWindowImplRoot@VCWindow@ATL@@@ATL@@SAHPEAUHWND__@@I_K_JAEA_J@Z 0000000180013eb0 f i BumpBar.obj
 0001:00012fa0       ?DeleteSubKey@CRegKey@ATL@@QEAAJPEB_W@Z 0000000180013fa0 f i BumpBar.obj
 0001:000130d0       ?DeleteValue@CRegKey@ATL@@QEAAJPEB_W@Z 00000001800140d0 f i BumpBar.obj
 0001:00013160       ?Detach@?$CAutoVectorPtr@_W@ATL@@QEAAPEA_WXZ 0000000180014160 f i BumpBar.obj
 0001:000131a0       ?Detach@?$CComPtrBase@UIPersistStream@@@ATL@@QEAAPEAUIPersistStream@@XZ 00000001800141a0 f i BumpBar.obj
 0001:000131e0       ?Detach@?$CComPtrBase@UITypeInfo@@@ATL@@QEAAPEAUITypeInfo@@XZ 00000001800141e0 f i BumpBar.obj
 0001:00013220       ?Detach@?$CComPtrBase@UIUnknown@@@ATL@@QEAAPEAUIUnknown@@XZ 0000000180014220 f i BumpBar.obj
 0001:00013260       ?Detach@CComBSTR@ATL@@QEAAPEA_WXZ 0000000180014260 f i BumpBar.obj
 0001:000132a0       ?Detach@CParseBuffer@CRegParser@ATL@@QEAAPEA_WXZ 00000001800142a0 f i BumpBar.obj
 0001:00013300       ?Detach@CRegKey@ATL@@QEAAPEAUHKEY__@@XZ 0000000180014300 f i BumpBar.obj
 0001:00013360       ?DoEvent@COPOSBumpBar@@IEAAXI_K_J@Z 0000000180014360 f i BumpBar.obj
 0001:000134a0       ?DoVerb@?$IOleObjectImpl@VCOPOSBumpBar@@@ATL@@UEAAJJPEAUtagMSG@@PEAUIOleClientSite@@JPEAUHWND__@@PEBUtagRECT@@@Z 00000001800144a0 f i BumpBar.obj
 0001:000137b0       ?DoVerbDiscardUndo@?$IOleObjectImpl@VCOPOSBumpBar@@@ATL@@QEAAJPEBUtagRECT@@PEAUHWND__@@@Z 00000001800147b0 f i BumpBar.obj
 0001:00013850       ?DoVerbHide@?$IOleObjectImpl@VCOPOSBumpBar@@@ATL@@QEAAJPEBUtagRECT@@PEAUHWND__@@@Z 0000000180014850 f i BumpBar.obj
 0001:00013930       ?DoVerbInPlaceActivate@?$IOleObjectImpl@VCOPOSBumpBar@@@ATL@@QEAAJPEBUtagRECT@@PEAUHWND__@@@Z 0000000180014930 f i BumpBar.obj
 0001:00013a10       ?DoVerbOpen@?$IOleObjectImpl@VCOPOSBumpBar@@@ATL@@QEAAJPEBUtagRECT@@PEAUHWND__@@@Z 0000000180014a10 f i BumpBar.obj
 0001:00013ab0       ?DoVerbPrimary@?$IOleObjectImpl@VCOPOSBumpBar@@@ATL@@QEAAJPEBUtagRECT@@PEAUHWND__@@@Z 0000000180014ab0 f i BumpBar.obj
 0001:00013bf0       ?DoVerbProperties@CComControlBase@ATL@@QEAAJPEBUtagRECT@@PEAUHWND__@@@Z 0000000180014bf0 f i BumpBar.obj
 0001:00013fa0       ?DoVerbShow@?$IOleObjectImpl@VCOPOSBumpBar@@@ATL@@QEAAJPEBUtagRECT@@PEAUHWND__@@@Z 0000000180014fa0 f i BumpBar.obj
 0001:00014060       ?DoVerbUIActivate@?$IOleObjectImpl@VCOPOSBumpBar@@@ATL@@QEAAJPEBUtagRECT@@PEAUHWND__@@@Z 0000000180015060 f i BumpBar.obj
 0001:00014140       ?DoesVerbActivate@CComControlBase@ATL@@QEAAHJ@Z 0000000180015140 f i BumpBar.obj
 0001:000141a0       ?DoesVerbUIActivate@CComControlBase@ATL@@QEAAHJ@Z 00000001800151a0 f i BumpBar.obj
 0001:00014220       ?Draw@?$IViewObjectExImpl@VCOPOSBumpBar@@@ATL@@UEAAJKJPEAXPEAUtagDVTARGETDEVICE@@PEAUHDC__@@2PEBU_RECTL@@3P6AH_K@Z4@Z 0000000180015220 f i BumpBar.obj
 0001:00014340       ?Empty@CComBSTR@ATL@@QEAAXXZ 0000000180015340 f i BumpBar.obj
 0001:00014380       ?EnableModeless@?$IOleInPlaceActiveObjectImpl@VCOPOSBumpBar@@@ATL@@UEAAJH@Z 0000000180015380 f i BumpBar.obj
 0001:000143f0       ?EndOfVar@CRegParser@ATL@@IEAAHXZ 00000001800153f0 f i BumpBar.obj
 0001:00014450       ?EnsureTI@CComTypeInfoHolder@ATL@@QEAAJK@Z 0000000180015450 f i BumpBar.obj
 0001:000144b0       ?EnumAdvise@?$IOleObjectImpl@VCOPOSBumpBar@@@ATL@@UEAAJPEAPEAUIEnumSTATDATA@@@Z 00000001800154b0 f i BumpBar.obj
 0001:00014610       ?EnumConnectionPoints@?$IConnectionPointContainerImpl@VCOPOSBumpBar@@@ATL@@UEAAJPEAPEAUIEnumConnectionPoints@@@Z 0000000180015610 f i BumpBar.obj
 0001:00014b00       ?EnumConnections@?$IConnectionPointImpl@VCOPOSBumpBar@@$1?DIID__IOPOSBumpBarEvents@@3U_GUID@@BVCComDynamicUnkArray@ATL@@@ATL@@UEAAJPEAPEAUIEnumConnections@@@Z 0000000180015b00 f i BumpBar.obj
 0001:00014e50       ?EnumConnections@?$IConnectionPointImpl@VCOPOSBumpBar@@$1?IID_IPropertyNotifySink@@3U_GUID@@BVCComDynamicUnkArray@ATL@@@ATL@@UEAAJPEAPEAUIEnumConnections@@@Z 0000000180015e50 f i BumpBar.obj
 0001:000151a0       ?EnumDAdvise@?$IDataObjectImpl@VCOPOSBumpBar@@@ATL@@UEAAJPEAPEAUIEnumSTATDATA@@@Z 00000001800161a0 f i BumpBar.obj
 0001:000152f0       ?EnumFormatEtc@?$IDataObjectImpl@VCOPOSBumpBar@@@ATL@@UEAAJKPEAPEAUIEnumFORMATETC@@@Z 00000001800162f0 f i BumpBar.obj
 0001:00015380       ?EnumVerbs@?$IOleObjectImpl@VCOPOSBumpBar@@@ATL@@UEAAJPEAPEAUIEnumOLEVERB@@@Z 0000000180016380 f i BumpBar.obj
 0001:00015450       ?EscapeSingleQuote@CAtlModule@ATL@@SAXPEA_W_KPEB_W@Z 0000000180016450 f i BumpBar.obj
 0001:00015550       ?ExtractCreateWndData@CAtlWinModule@ATL@@QEAAPEAXXZ 0000000180016550 f i BumpBar.obj
 0001:00015580       ?FAccessAllowed@?$IObjectSafetyImpl@VCOPOSBumpBar@@$02@ATL@@MEAAHXZ 0000000180016580 f i BumpBar.obj
 0001:00015590       ?FinalConstruct@?$CComAggObject@VCOPOSBumpBar@@@ATL@@QEAAJXZ 0000000180016590 f i BumpBar.obj
 0001:000155e0       ?FinalConstruct@CComObjectRootBase@ATL@@QEAAJXZ 00000001800165e0 f i BumpBar.obj
 0001:000155f0       ?FinalConstruct@CRegObject@ATL@@QEAAJXZ 00000001800165f0 f i BumpBar.obj
 0001:00015630       ?FinalRelease@?$CComAggObject@VCOPOSBumpBar@@@ATL@@QEAAXXZ 0000000180016630 f i BumpBar.obj
 0001:00015680       ?FinalRelease@CComObjectRootBase@ATL@@QEAAXXZ 0000000180016680 f i BumpBar.obj
 0001:00015690       ?FindConnectionPoint@?$IConnectionPointContainerImpl@VCOPOSBumpBar@@@ATL@@UEAAJAEBU_GUID@@PEAPEAUIConnectionPoint@@@Z 0000000180016690 f i BumpBar.obj
 0001:00015800       ?FindKey@?$CSimpleMap@PEA_WPEA_WVCExpansionVectorEqualHelper@ATL@@@ATL@@QEBAHAEBQEA_W@Z 0000000180016800 f i BumpBar.obj
 0001:00015880       ?FireTheEvent@?$CProxy_IOPOSEvents@VCOPOSBumpBar@@@@IEAAXPEAUIUnknown@@PEAVOposVariant@@IAEAJPEB_WJ@Z 0000000180016880 f i BumpBar.obj
 0001:00015a60       ?FireViewChange@CComControlBase@ATL@@QEAAJXZ 0000000180016a60 f i BumpBar.obj
 0001:00015b40       ?Fire_DataEvent@?$CProxy_IOPOSEvents@VCOPOSBumpBar@@@@QEAAXJ@Z 0000000180016b40 f i BumpBar.obj
 0001:00015d30       ?Fire_DirectIOEvent@?$CProxy_IOPOSEvents@VCOPOSBumpBar@@@@QEAAXJPEAJPEAPEA_W@Z 0000000180016d30 f i BumpBar.obj
 0001:00015fc0       ?Fire_ErrorEvent@?$CProxy_IOPOSEvents@VCOPOSBumpBar@@@@QEAAXJJJPEAJ@Z 0000000180016fc0 f i BumpBar.obj
 0001:00016270       ?Fire_OutputCompleteEvent@?$CProxy_IOPOSEvents@VCOPOSBumpBar@@@@QEAAXJ@Z 0000000180017270 f i BumpBar.obj
 0001:00016460       ?Fire_StatusUpdateEvent@?$CProxy_IOPOSEvents@VCOPOSBumpBar@@@@QEAAXJ@Z 0000000180017460 f i BumpBar.obj
 0001:00016650       ?FormatWindowClassName@AtlModuleRegisterWndClassInfoParamW@ATL@@SAXPEA_WKPEAX@Z 0000000180017650 f i BumpBar.obj
 0001:000166a0       ?Free@?$CAutoVectorPtr@_W@ATL@@QEAAXXZ 00000001800176a0 f i BumpBar.obj
 0001:000166f0       ?FreeHeap@?$CTempBuffer@E$0BAA@VCCRTAllocator@ATL@@@ATL@@AEAAXXZ 00000001800176f0 f i BumpBar.obj
 0001:00016730       ?FreeHeap@?$CTempBuffer@_W$0BAA@VCCRTAllocator@ATL@@@ATL@@AEAAXXZ 0000000180017730 f i BumpBar.obj
 0001:00016770       ?FreeHeap@?$CTempBuffer@_W$0EAA@VCCRTAllocator@ATL@@@ATL@@AEAAXXZ 0000000180017770 f i BumpBar.obj
 0001:000167b0       ?Freeze@?$IViewObjectExImpl@VCOPOSBumpBar@@@ATL@@UEAAJKJPEAXPEAK@Z 00000001800177b0 f i BumpBar.obj
 0001:00016840       ?GenerateError@CRegParser@ATL@@IEAAJI@Z 0000000180017840 f i BumpBar.obj
 0001:00016860       ?GetAdvise@?$IViewObjectExImpl@VCOPOSBumpBar@@@ATL@@UEAAJPEAK0PEAPEAUIAdviseSink@@@Z 0000000180017860 f i BumpBar.obj
 0001:000169b0       ?GetAmbientLocaleID@CComControlBase@ATL@@QEAAJAEAK@Z 00000001800179b0 f i BumpBar.obj
 0001:00016a90       ?GetAmbientProperty@CComControlBase@ATL@@QEAAJJAEAUtagVARIANT@@@Z 0000000180017a90 f i BumpBar.obj
 0001:00016b00       ?GetAmbientUserMode@CComControlBase@ATL@@QEAAJAEAH@Z 0000000180017b00 f i BumpBar.obj
 0001:00016c20       ?GetAppId@?$CAtlModuleT@VCComModule@ATL@@@ATL@@SAPEB_WXZ 0000000180017c20 f i BumpBar.obj
 0001:00016c30       ?GetAt@CComDynamicUnkArray@ATL@@QEAAPEAUIUnknown@@H@Z 0000000180017c30 f i BumpBar.obj
 0001:00016ce0       ?GetCanonicalFormatEtc@?$IDataObjectImpl@VCOPOSBumpBar@@@ATL@@UEAAJPEAUtagFORMATETC@@0@Z 0000000180017ce0 f i BumpBar.obj
 0001:00016d70       ?GetClassID@?$IPersistStorageImpl@VCOPOSBumpBar@@@ATL@@UEAAJPEAU_GUID@@@Z 0000000180017d70 f i BumpBar.obj
 0001:00016e10       ?GetClassID@?$IPersistStreamInitImpl@VCOPOSBumpBar@@@ATL@@UEAAJPEAU_GUID@@@Z 0000000180017e10 f i BumpBar.obj
 0001:00016eb0       ?GetClassInfoExW@AtlModuleRegisterWndClassInfoParamW@ATL@@SAHPEAUHINSTANCE__@@PEB_WPEAUtagWNDCLASSEXW@@@Z 0000000180017eb0 f i BumpBar.obj
 0001:00016f00       ?GetClassInfoW@?$IProvideClassInfo2Impl@$1?CLSID_OPOSBumpBar@@3U_GUID@@B$1?DIID__IOPOSBumpBarEvents@@3U2@B$1?LIBID_OposBumpBar_CCO@@3U2@B$00$0A@VCComTypeInfoHolder@ATL@@@ATL@@UEAAJPEAPEAUITypeInfo@@@Z 0000000180017f00 f i BumpBar.obj
 0001:00016f40       ?GetClassObject@CComModule@ATL@@QEAAJAEBU_GUID@@0PEAPEAX@Z 0000000180017f40 f i BumpBar.obj
 0001:000171b0       ?GetClientSite@?$IOleObjectImpl@VCOPOSBumpBar@@@ATL@@UEAAJPEAPEAUIOleClientSite@@@Z 00000001800181b0 f i BumpBar.obj
 0001:00017260       ?GetClipboardData@?$IOleObjectImpl@VCOPOSBumpBar@@@ATL@@UEAAJKPEAPEAUIDataObject@@@Z 0000000180018260 f i BumpBar.obj
 0001:000172f0       ?GetCodeAddress@CDynamicStdCallThunk2@ATL@@QEAAPEAXXZ 00000001800182f0 f i BumpBar.obj
 0001:00017330       ?GetColorSet@?$IViewObjectExImpl@VCOPOSBumpBar@@@ATL@@UEAAJKJPEAXPEAUtagDVTARGETDEVICE@@PEAUHDC__@@PEAPEAUtagLOGPALETTE@@@Z 0000000180018330 f i BumpBar.obj
 0001:000173c0       ?GetConnMap@COPOSBumpBar@@SAPEBU_ATL_CONNMAP_ENTRY@ATL@@PEAH@Z 00000001800183c0 f i BumpBar.obj
 0001:00017520       ?GetConnectionInterface@?$IConnectionPointImpl@VCOPOSBumpBar@@$1?DIID__IOPOSBumpBarEvents@@3U_GUID@@BVCComDynamicUnkArray@ATL@@@ATL@@UEAAJPEAU_GUID@@@Z 0000000180018520 f i BumpBar.obj
 0001:00017560       ?GetConnectionInterface@?$IConnectionPointImpl@VCOPOSBumpBar@@$1?IID_IPropertyNotifySink@@3U_GUID@@BVCComDynamicUnkArray@ATL@@@ATL@@UEAAJPEAU_GUID@@@Z 0000000180018560 f i BumpBar.obj
 0001:000175a0       ?GetConnectionPointContainer@?$IConnectionPointImpl@VCOPOSBumpBar@@$1?DIID__IOPOSBumpBarEvents@@3U_GUID@@BVCComDynamicUnkArray@ATL@@@ATL@@UEAAJPEAPEAUIConnectionPointContainer@@@Z 00000001800185a0 f i BumpBar.obj
 0001:00017620       ?GetConnectionPointContainer@?$IConnectionPointImpl@VCOPOSBumpBar@@$1?IID_IPropertyNotifySink@@3U_GUID@@BVCComDynamicUnkArray@ATL@@@ATL@@UEAAJPEAPEAUIConnectionPointContainer@@@Z 0000000180018620 f i BumpBar.obj
 0001:000176a0       ?GetContentExtent@?$IQuickActivateImpl@VCOPOSBumpBar@@@ATL@@UEAAJPEAUtagSIZE@@@Z 00000001800186a0 f i BumpBar.obj
 0001:00017760       ?GetControlInfo@?$IOleControlImpl@VCOPOSBumpBar@@@ATL@@UEAAJPEAUtagCONTROLINFO@@@Z 0000000180018760 f i BumpBar.obj
 0001:000177f0       ?GetCookie@CComDynamicUnkArray@ATL@@QEAAKPEAPEAUIUnknown@@@Z 00000001800187f0 f i BumpBar.obj
 0001:000178e0       ?GetData@?$IDataObjectImpl@VCOPOSBumpBar@@@ATL@@UEAAJPEAUtagFORMATETC@@PEAUtagSTGMEDIUM@@@Z 00000001800188e0 f i BumpBar.obj
 0001:000179a0       ?GetData@CAtlSafeAllocBufferNode@?$CAtlSafeAllocBufferManager@VCCRTAllocator@ATL@@@_ATL_SAFE_ALLOCA_IMPL@ATL@@QEAAPEAXXZ 00000001800189a0 f i BumpBar.obj
 0001:000179c0       ?GetDataHere@?$IDataObjectImpl@VCOPOSBumpBar@@@ATL@@UEAAJPEAUtagFORMATETC@@PEAUtagSTGMEDIUM@@@Z 00000001800189c0 f i BumpBar.obj
 0001:00017a50       ?GetDropTarget@?$IOleInPlaceObjectWindowlessImpl@VCOPOSBumpBar@@@ATL@@UEAAJPEAPEAUIDropTarget@@@Z 0000000180018a50 f i BumpBar.obj
 0001:00017ae0       ?GetExtent@?$IOleObjectImpl@VCOPOSBumpBar@@@ATL@@UEAAJKPEAUtagSIZE@@@Z 0000000180018ae0 f i BumpBar.obj
 0001:00017bb0       ?GetExtent@?$IViewObjectExImpl@VCOPOSBumpBar@@@ATL@@UEAAJKJPEAUtagDVTARGETDEVICE@@PEAUtagSIZE@@@Z 0000000180018bb0 f i BumpBar.obj
 0001:00017cc0       ?GetGITPtr@CAtlModule@ATL@@UEAAJPEAPEAUIGlobalInterfaceTable@@@Z 0000000180018cc0 f i BumpBar.obj
 0001:00017e00       ?GetGUID@?$IProvideClassInfo2Impl@$1?CLSID_OPOSBumpBar@@3U_GUID@@B$1?DIID__IOPOSBumpBarEvents@@3U2@B$1?LIBID_OposBumpBar_CCO@@3U2@B$00$0A@VCComTypeInfoHolder@ATL@@@ATL@@UEAAJKPEAU_GUID@@@Z 0000000180018e00 f i BumpBar.obj
 0001:00017e80       ?GetIDsOfNames@?$IDispatchImpl@UIOPOSBumpBar@@$1?IID_IOPOSBumpBar@@3U_GUID@@B$1?LIBID_OposBumpBar_CCO@@3U3@B$00$0A@VCComTypeInfoHolder@ATL@@@ATL@@UEAAJAEBU_GUID@@PEAPEA_WIKPEAJ@Z 0000000180018e80 f i BumpBar.obj
 0001:00017ee0       ?GetIDsOfNames@CComTypeInfoHolder@ATL@@QEAAJAEBU_GUID@@PEAPEA_WIKPEAJ@Z 0000000180018ee0 f i BumpBar.obj
 0001:00018100       ?GetInterfaceSafetyOptions@?$IObjectSafetyImpl@VCOPOSBumpBar@@$02@ATL@@UEAAJAEBU_GUID@@PEAK1@Z 0000000180019100 f i BumpBar.obj
 0001:000182a0       ?GetKeyAt@?$CSimpleMap@PEA_WPEA_WVCExpansionVectorEqualHelper@ATL@@@ATL@@QEBAAEAPEA_WH@Z 00000001800192a0 f i BumpBar.obj
 0001:00018350       ?GetLockCount@CAtlModule@ATL@@UEAAJXZ 0000000180019350 f i BumpBar.obj
 0001:00018360       ?GetMiscStatus@?$IOleObjectImpl@VCOPOSBumpBar@@@ATL@@UEAAJKPEAK@Z 0000000180019360 f i BumpBar.obj
 0001:000183f0       ?GetMoniker@?$IOleObjectImpl@VCOPOSBumpBar@@@ATL@@UEAAJKKPEAPEAUIMoniker@@@Z 00000001800193f0 f i BumpBar.obj
 0001:00018480       ?GetNaturalExtent@?$IViewObjectExImpl@VCOPOSBumpBar@@@ATL@@UEAAJKJPEAUtagDVTARGETDEVICE@@PEAUHDC__@@PEAUtagExtentInfo@@PEAUtagSIZE@@@Z 0000000180019480 f i BumpBar.obj
 0001:00018610       ?GetObjectCLSID@?$CComCoClass@VCOPOSBumpBar@@$1?CLSID_OPOSBumpBar@@3U_GUID@@B@ATL@@SAAEBU_GUID@@XZ 0000000180019610 f i BumpBar.obj
 0001:00018620       ?GetPages@?$ISpecifyPropertyPagesImpl@VCOPOSBumpBar@@@ATL@@UEAAJPEAUtagCAUUID@@@Z 0000000180019620 f i BumpBar.obj
 0001:000186b0       ?GetPagesHelper@?$ISpecifyPropertyPagesImpl@VCOPOSBumpBar@@@ATL@@IEAAJPEAUtagCAUUID@@PEBUATL_PROPMAP_ENTRY@2@@Z 00000001800196b0 f i BumpBar.obj
 0001:00018920       ?GetProperty@?$CComPtr@UIDispatch@@@ATL@@QEAAJJPEAUtagVARIANT@@@Z 0000000180019920 f i BumpBar.obj
 0001:00018970       ?GetProperty@?$CComPtr@UIDispatch@@@ATL@@SAJPEAUIDispatch@@JPEAUtagVARIANT@@@Z 0000000180019970 f i BumpBar.obj
 0001:00018b40       ?GetPropertyMap@COPOSBumpBar@@SAPEBUATL_PROPMAP_ENTRY@ATL@@XZ 0000000180019b40 f i BumpBar.obj
 0001:00018b50       ?GetRect@?$IViewObjectExImpl@VCOPOSBumpBar@@@ATL@@UEAAJKPEAU_RECTL@@@Z 0000000180019b50 f i BumpBar.obj
 0001:00018be0       ?GetSize@?$CSimpleMap@PEA_WPEA_WVCExpansionVectorEqualHelper@ATL@@@ATL@@QEBAHXZ 0000000180019be0 f i BumpBar.obj
 0001:00018bf0       ?GetSize@CComDynamicUnkArray@ATL@@QEBAHXZ 0000000180019bf0 f i BumpBar.obj
 0001:00018c00       ?GetSizeMax@?$IPersistStreamInitImpl@VCOPOSBumpBar@@@ATL@@UEAAJPEAT_ULARGE_INTEGER@@@Z 0000000180019c00 f i BumpBar.obj
 0001:00019390       ?GetSizeMax@CComVariant@ATL@@QEBAJPEAT_ULARGE_INTEGER@@@Z 000000018001a390 f i BumpBar.obj
 0001:000197c0       ?GetStreamSize@CComBSTR@ATL@@SAKPEA_W@Z 000000018001a7c0 f i BumpBar.obj
 0001:00019820       ?GetTI@CComTypeInfoHolder@ATL@@QEAAJK@Z 000000018001a820 f i BumpBar.obj
 0001:0001a0f0       ?GetTI@CComTypeInfoHolder@ATL@@QEAAJKPEAPEAUITypeInfo@@@Z 000000018001b0f0 f i BumpBar.obj
 0001:0001a1e0       ?GetTypeInfo@?$IDispatchImpl@UIOPOSBumpBar@@$1?IID_IOPOSBumpBar@@3U_GUID@@B$1?LIBID_OposBumpBar_CCO@@3U3@B$00$0A@VCComTypeInfoHolder@ATL@@@ATL@@UEAAJIKPEAPEAUITypeInfo@@@Z 000000018001b1e0 f i BumpBar.obj
 0001:0001a230       ?GetTypeInfo@CComTypeInfoHolder@ATL@@QEAAJIKPEAPEAUITypeInfo@@@Z 000000018001b230 f i BumpBar.obj
 0001:0001a290       ?GetTypeInfoCount@?$IDispatchImpl@UIOPOSBumpBar@@$1?IID_IOPOSBumpBar@@3U_GUID@@B$1?LIBID_OposBumpBar_CCO@@3U3@B$00$0A@VCComTypeInfoHolder@ATL@@@ATL@@UEAAJPEAI@Z 000000018001b290 f i BumpBar.obj
 0001:0001a2c0       ?GetUnknown@CComDynamicUnkArray@ATL@@QEAAPEAUIUnknown@@K@Z 000000018001b2c0 f i BumpBar.obj
 0001:0001a370       ?GetUnknown@COPOSBumpBar@@QEAAPEAUIUnknown@@XZ 000000018001b370 f i BumpBar.obj
 0001:0001a3a0       ?GetUserClassID@?$IOleObjectImpl@VCOPOSBumpBar@@@ATL@@UEAAJPEAU_GUID@@@Z 000000018001b3a0 f i BumpBar.obj
 0001:0001a480       ?GetUserType@?$IOleObjectImpl@VCOPOSBumpBar@@@ATL@@UEAAJKPEAPEA_W@Z 000000018001b480 f i BumpBar.obj
 0001:0001a510       ?GetValueAt@?$CSimpleMap@PEA_WPEA_WVCExpansionVectorEqualHelper@ATL@@@ATL@@QEBAAEAPEA_WH@Z 000000018001b510 f i BumpBar.obj
 0001:0001a5c0       ?GetViewStatus@?$IViewObjectExImpl@VCOPOSBumpBar@@@ATL@@UEAAJPEAK@Z 000000018001b5c0 f i BumpBar.obj
 0001:0001a6c0       ?GetWNDPROC@CWndProcThunk@ATL@@QEAAP6A_JPEAUHWND__@@I_K_J@ZXZ 000000018001b6c0 f i BumpBar.obj
 0001:0001a700       ?GetWindow@?$IOleInPlaceActiveObjectImpl@VCOPOSBumpBar@@@ATL@@UEAAJPEAPEAUHWND__@@@Z 000000018001b700 f i BumpBar.obj
 0001:0001a800       ?GetWindow@?$IOleInPlaceObjectWindowlessImpl@VCOPOSBumpBar@@@ATL@@UEAAJPEAPEAUHWND__@@@Z 000000018001b800 f i BumpBar.obj
 0001:0001a900       ?GetWindowProc@?$CWindowImplBaseT@VCWindow@ATL@@V?$CWinTraits@$0FGAAAAAA@$0A@@2@@ATL@@UEAAP6A_JPEAUHWND__@@I_K_J@ZXZ 000000018001b900 f i BumpBar.obj
 0001:0001a910       ?GetWndCaption@?$CWindowImpl@VCOPOSBumpBar@@VCWindow@ATL@@V?$CWinTraits@$0FGAAAAAA@$0A@@3@@ATL@@SAPEB_WXZ 000000018001b910 f i BumpBar.obj
 0001:0001a920       ?GetWndClassInfo@?$CWindowImpl@VCOPOSBumpBar@@VCWindow@ATL@@V?$CWinTraits@$0FGAAAAAA@$0A@@3@@ATL@@SAAEAU_ATL_WNDCLASSINFOW@2@XZ 000000018001b920 f i BumpBar.obj
 0001:0001a930       ?GetWndClassName@CWindow@ATL@@SAPEB_WXZ 000000018001b930 f i BumpBar.obj
 0001:0001a940       ?GetWndExStyle@?$CWinTraits@$0FGAAAAAA@$0A@@ATL@@SAKK@Z 000000018001b940 f i BumpBar.obj
 0001:0001a980       ?GetWndExStyle@?$CWindowImplBaseT@VCWindow@ATL@@V?$CWinTraits@$0FGAAAAAA@$0A@@2@@ATL@@SAKK@Z 000000018001b980 f i BumpBar.obj
 0001:0001a9b0       ?GetWndStyle@?$CWinTraits@$0FGAAAAAA@$0A@@ATL@@SAKK@Z 000000018001b9b0 f i BumpBar.obj
 0001:0001a9f0       ?GetWndStyle@?$CWindowImplBaseT@VCWindow@ATL@@V?$CWinTraits@$0FGAAAAAA@$0A@@2@@ATL@@SAKK@Z 000000018001b9f0 f i BumpBar.obj
 0001:0001aa20       ?GetZoomInfo@CComControlBase@ATL@@QEAAXAEAUATL_DRAWINFO@@@Z 000000018001ba20 f i BumpBar.obj
 0001:0001abd0       ?HKeyFromString@CRegParser@ATL@@KAPEAUHKEY__@@PEA_W@Z 000000018001bbd0 f i BumpBar.obj
 0001:0001ac60       ?HandsOffStorage@?$IPersistStorageImpl@VCOPOSBumpBar@@@ATL@@UEAAJXZ 000000018001bc60 f i BumpBar.obj
 0001:0001acd0       ?HasSubKeys@CRegParser@ATL@@IEAAHPEAUHKEY__@@@Z 000000018001bcd0 f i BumpBar.obj
 0001:0001ae40       ?IDataObject_GetData@CComControlBase@ATL@@QEAAJPEAUtagFORMATETC@@PEAUtagSTGMEDIUM@@@Z 000000018001be40 f i BumpBar.obj
 0001:0001b2f0       ?IOleInPlaceObject_InPlaceDeactivate@CComControlBase@ATL@@QEAAJXZ 000000018001c2f0 f i BumpBar.obj
 0001:0001b560       ?IOleInPlaceObject_SetObjectRects@CComControlBase@ATL@@QEAAJPEBUtagRECT@@0@Z 000000018001c560 f i BumpBar.obj
 0001:0001b740       ?IOleInPlaceObject_UIDeactivate@CComControlBase@ATL@@QEAAJXZ 000000018001c740 f i BumpBar.obj
 0001:0001b9b0       ?IOleObject_Advise@CComControlBase@ATL@@QEAAJPEAUIAdviseSink@@PEAK@Z 000000018001c9b0 f i BumpBar.obj
 0001:0001ba60       ?IOleObject_Close@CComControlBase@ATL@@QEAAJK@Z 000000018001ca60 f i BumpBar.obj
 0001:0001bdd0       ?IOleObject_GetClientSite@CComControlBase@ATL@@QEAAJPEAPEAUIOleClientSite@@@Z 000000018001cdd0 f i BumpBar.obj
 0001:0001bea0       ?IOleObject_SetClientSite@CComControlBase@ATL@@QEAAJPEAUIOleClientSite@@@Z 000000018001cea0 f i BumpBar.obj
 0001:0001bfb0       ?IOleObject_SetExtent@CComControlBase@ATL@@QEAAJKPEAUtagSIZE@@@Z 000000018001cfb0 f i BumpBar.obj
 0001:0001c120       ?IPSI_GetIPersistStreamInit@?$IPersistStorageImpl@VCOPOSBumpBar@@@ATL@@AEAAPEAUIPersistStreamInit@@XZ 000000018001d120 f i BumpBar.obj
 0001:0001c1e0       ?IPersistStreamInit_Load@?$IPersistStreamInitImpl@VCOPOSBumpBar@@@ATL@@QEAAJPEAUIStream@@PEBUATL_PROPMAP_ENTRY@2@@Z 000000018001d1e0 f i BumpBar.obj
 0001:0001c280       ?IPersistStreamInit_Save@?$IPersistStreamInitImpl@VCOPOSBumpBar@@@ATL@@QEAAJPEAUIStream@@HPEBUATL_PROPMAP_ENTRY@2@@Z 000000018001d280 f i BumpBar.obj
 0001:0001c340       ?IQuickActivate_QuickActivate@CComControlBase@ATL@@QEAAJPEAUtagQACONTAINER@@PEAUtagQACONTROL@@@Z 000000018001d340 f i BumpBar.obj
 0001:0001cb80       ?IViewObject_Draw@CComControlBase@ATL@@QEAAJKJPEAXPEAUtagDVTARGETDEVICE@@PEAUHDC__@@2PEBU_RECTL@@3@Z 000000018001db80 f i BumpBar.obj
 0001:0001cfd0       ?InPlaceActivate@CComControlBase@ATL@@QEAAJJPEBUtagRECT@@@Z 000000018001dfd0 f i BumpBar.obj
 0001:0001db70       ?InPlaceDeactivate@?$IOleInPlaceObjectWindowlessImpl@VCOPOSBumpBar@@@ATL@@UEAAJXZ 000000018001eb70 f i BumpBar.obj
 0001:0001dc20       ?Increment@CComMultiThreadModel@ATL@@SAKPEAJ@Z 000000018001ec20 f i BumpBar.obj
 0001:0001dc40       ?Increment@CComSingleThreadModel@ATL@@SAKPEAJ@Z 000000018001ec40 f i BumpBar.obj
 0001:0001dc60       ?Init@?$CComEnumImpl@UIEnumConnectionPoints@@$1?_GUID_b196b285_bab4_101a_b69c_00aa00341d07@@3U__s_GUID@@BPEAUIConnectionPoint@@V?$_CopyInterface@UIConnectionPoint@@@ATL@@@ATL@@QEAAJPEAPEAUIConnectionPoint@@0PEAUIUnknown@@W4CComEnumFlags@2@@Z 000000018001ec60 f i BumpBar.obj
 0001:0001df50       ?Init@?$CComEnumImpl@UIEnumConnections@@$1?_GUID_b196b287_bab4_101a_b69c_00aa00341d07@@3U__s_GUID@@BUtagCONNECTDATA@@V?$_Copy@UtagCONNECTDATA@@@ATL@@@ATL@@QEAAJPEAUtagCONNECTDATA@@0PEAUIUnknown@@W4CComEnumFlags@2@@Z 000000018001ef50 f i BumpBar.obj
 0001:0001e240       ?Init@CComFakeCriticalSection@ATL@@QEAAJXZ 000000018001f240 f i BumpBar.obj
 0001:0001e250       ?Init@CComModule@ATL@@QEAAJPEAU_ATL_OBJMAP_ENTRY30@2@PEAUHINSTANCE__@@PEBU_GUID@@@Z 000000018001f250 f i BumpBar.obj
 0001:0001e340       ?Init@CComSafeDeleteCriticalSection@ATL@@QEAAJXZ 000000018001f340 f i BumpBar.obj
 0001:0001e3d0       ?Init@CDynamicStdCallThunk2@ATL@@QEAAH_KPEAX@Z 000000018001f3d0 f i BumpBar.obj
 0001:0001e450       ?Init@CWndProcThunk@ATL@@QEAAHP6A_JPEAUHWND__@@I_K_J@ZPEAX@Z 000000018001f450 f i BumpBar.obj
 0001:0001e4a0       ?InitFromData@?$IOleObjectImpl@VCOPOSBumpBar@@@ATL@@UEAAJPEAUIDataObject@@HK@Z 000000018001f4a0 f i BumpBar.obj
 0001:0001e530       ?InitLibId@?$CAtlModuleT@VCComModule@ATL@@@ATL@@SAXXZ 000000018001f530 f i BumpBar.obj
 0001:0001e540       ?InitNew@?$IPersistStorageImpl@VCOPOSBumpBar@@@ATL@@UEAAJPEAUIStorage@@@Z 000000018001f540 f i BumpBar.obj
 0001:0001e630       ?InitNew@?$IPersistStreamInitImpl@VCOPOSBumpBar@@@ATL@@UEAAJXZ 000000018001f630 f i BumpBar.obj
 0001:0001e6e0       ?InlineIsEqualUnknown@ATL@@YAHAEBU_GUID@@@Z 000000018001f6e0 f i BumpBar.obj
 0001:0001e770       ?InternalAddRef@?$CComObjectRootEx@VCComMultiThreadModel@ATL@@@ATL@@QEAAKXZ 000000018001f770 f i BumpBar.obj
 0001:0001e7f0       ?InternalAddRef@?$CComObjectRootEx@VCComSingleThreadModel@ATL@@@ATL@@QEAAKXZ 000000018001f7f0 f i BumpBar.obj
 0001:0001e870       ?InternalFinalConstructAddRef@CComObjectRootBase@ATL@@QEAAXXZ 000000018001f870 f i BumpBar.obj
 0001:0001e880       ?InternalFinalConstructAddRef@COPOSBumpBar@@QEAAXXZ 000000018001f880 f i BumpBar.obj
 0001:0001e8c0       ?InternalFinalConstructRelease@CComObjectRootBase@ATL@@QEAAXXZ 000000018001f8c0 f i BumpBar.obj
 0001:0001e930       ?InternalFinalConstructRelease@COPOSBumpBar@@QEAAXXZ 000000018001f930 f i BumpBar.obj
 0001:0001e970       ?InternalGetSite@CComControlBase@ATL@@QEAAJAEBU_GUID@@PEAPEAX@Z 000000018001f970 f i BumpBar.obj
 0001:0001ea50       ?InternalQueryInterface@CComObjectRootBase@ATL@@SAJPEAXPEBU_ATL_INTMAP_ENTRY@2@AEBU_GUID@@PEAPEAX@Z 000000018001fa50 f i BumpBar.obj
 0001:0001eb70       ?InternalRelease@?$CComObjectRootEx@VCComMultiThreadModel@ATL@@@ATL@@QEAAKXZ 000000018001fb70 f i BumpBar.obj
 0001:0001ebf0       ?InternalRelease@?$CComObjectRootEx@VCComSingleThreadModel@ATL@@@ATL@@QEAAKXZ 000000018001fbf0 f i BumpBar.obj
 0001:0001ec70       ?InternalSetAtIndex@?$CSimpleArray@GV?$CSimpleArrayEqualHelper@G@ATL@@@ATL@@QEAAXHAEBG@Z 000000018001fc70 f i BumpBar.obj
 0001:0001ecf0       ?InternalSetAtIndex@?$CSimpleMap@PEA_WPEA_WVCExpansionVectorEqualHelper@ATL@@@ATL@@QEAAXHAEBQEA_W0@Z 000000018001fcf0 f i BumpBar.obj
 0001:0001edc0       ?Invoke@?$IDispatchImpl@UIOPOSBumpBar@@$1?IID_IOPOSBumpBar@@3U_GUID@@B$1?LIBID_OposBumpBar_CCO@@3U3@B$00$0A@VCComTypeInfoHolder@ATL@@@ATL@@UEAAJJAEBU_GUID@@KGPEAUtagDISPPARAMS@@PEAUtagVARIANT@@PEAUtagEXCEPINFO@@PEAI@Z 000000018001fdc0 f i BumpBar.obj
 0001:0001ee60       ?Invoke@CComTypeInfoHolder@ATL@@QEAAJPEAUIDispatch@@JAEBU_GUID@@KGPEAUtagDISPPARAMS@@PEAUtagVARIANT@@PEAUtagEXCEPINFO@@PEAI@Z 000000018001fe60 f i BumpBar.obj
 0001:0001ef20       ?IsDirty@?$IPersistStorageImpl@VCOPOSBumpBar@@@ATL@@UEAAJXZ 000000018001ff20 f i BumpBar.obj
 0001:0001f010       ?IsDirty@?$IPersistStreamInitImpl@VCOPOSBumpBar@@@ATL@@UEAAJXZ 0000000180020010 f i BumpBar.obj
 0001:0001f0d0       ?IsEqualKey@CExpansionVectorEqualHelper@ATL@@SA_NQEA_W0@Z 00000001800200d0 f i BumpBar.obj
 0001:0001f120       ?IsEqualObject@?$CComPtrBase@UIOleClientSite@@@ATL@@QEAA_NPEAUIUnknown@@@Z 0000000180020120 f i BumpBar.obj
 0001:0001f270       ?IsEqualObject@?$CComPtrBase@UITypeInfo@@@ATL@@QEAA_NPEAUIUnknown@@@Z 0000000180020270 f i BumpBar.obj
 0001:0001f3c0       ?IsSpace@CRegParser@ATL@@IEAAH_W@Z 00000001800203c0 f i BumpBar.obj
 0001:0001f420       ?IsUpToDate@?$IOleObjectImpl@VCOPOSBumpBar@@@ATL@@UEAAJXZ 0000000180020420 f i BumpBar.obj
 0001:0001f490       ?Length@CComBSTR@ATL@@QEBAIXZ 0000000180020490 f i BumpBar.obj
 0001:0001f4d0       ?Load@?$IPersistStorageImpl@VCOPOSBumpBar@@@ATL@@UEAAJPEAUIStorage@@@Z 00000001800204d0 f i BumpBar.obj
 0001:0001f680       ?Load@?$IPersistStreamInitImpl@VCOPOSBumpBar@@@ATL@@UEAAJPEAUIStream@@@Z 0000000180020680 f i BumpBar.obj
 0001:0001f740       ?LoadCursorW@AtlModuleRegisterWndClassInfoParamW@ATL@@SAPEAUHICON__@@PEAUHINSTANCE__@@PEB_W@Z 0000000180020740 f i BumpBar.obj
 0001:0001f780       ?LoadNameCache@CComTypeInfoHolder@ATL@@QEAAJPEAUITypeInfo@@@Z 0000000180020780 f i BumpBar.obj
 0001:0001fac0       ?Lock@?$CComCritSecLock@VCComCriticalSection@ATL@@@ATL@@QEAAJXZ 0000000180020ac0 f i BumpBar.obj
 0001:0001fbb0       ?Lock@?$CComObjectRootEx@VCComSingleThreadModel@ATL@@@ATL@@QEAAXXZ 0000000180020bb0 f i BumpBar.obj
 0001:0001fbc0       ?Lock@CAtlModule@ATL@@UEAAJXZ 0000000180020bc0 f i BumpBar.obj
 0001:0001fc00       ?Lock@CComCriticalSection@ATL@@QEAAJXZ 0000000180020c00 f i BumpBar.obj
 0001:0001fc40       ?Lock@CComFakeCriticalSection@ATL@@QEAAJXZ 0000000180020c40 f i BumpBar.obj
 0001:0001fc50       ?LockServer@CComClassFactory@ATL@@UEAAJH@Z 0000000180020c50 f i BumpBar.obj
 0001:0001fcb0       ?Lookup@?$CSimpleMap@PEA_WPEA_WVCExpansionVectorEqualHelper@ATL@@@ATL@@QEBAPEA_WAEBQEA_W@Z 0000000180020cb0 f i BumpBar.obj
 0001:0001fd10       ?Next@?$CComEnumImpl@UIEnumConnectionPoints@@$1?_GUID_b196b285_bab4_101a_b69c_00aa00341d07@@3U__s_GUID@@BPEAUIConnectionPoint@@V?$_CopyInterface@UIConnectionPoint@@@ATL@@@ATL@@UEAAJKPEAPEAUIConnectionPoint@@PEAK@Z 0000000180020d10 f i BumpBar.obj
 0001:0001fed0       ?Next@?$CComEnumImpl@UIEnumConnections@@$1?_GUID_b196b287_bab4_101a_b69c_00aa00341d07@@3U__s_GUID@@BUtagCONNECTDATA@@V?$_Copy@UtagCONNECTDATA@@@ATL@@@ATL@@UEAAJKPEAUtagCONNECTDATA@@PEAK@Z 0000000180020ed0 f i BumpBar.obj
 0001:00020090       ?NextToken@CRegParser@ATL@@IEAAJPEA_W@Z 0000000180021090 f i BumpBar.obj
 0001:00020420       ?OLE2CT_EX@@YAPEB_WPEB_WI@Z 0000000180021420 f i BumpBar.obj
 0001:00020440       ?OLE2CT_EX_DEF@@YAPEB_WPEB_W@Z 0000000180021440 f i BumpBar.obj
 0001:00020450       ?OLE2T_EX@@YAPEA_WPEA_WI@Z 0000000180021450 f i BumpBar.obj
 0001:00020470       ?OnAmbientPropertyChange@?$IOleControlImpl@VCOPOSBumpBar@@@ATL@@UEAAJJ@Z 0000000180021470 f i BumpBar.obj
 0001:00020530       ?OnDocWindowActivate@?$IOleInPlaceActiveObjectImpl@VCOPOSBumpBar@@@ATL@@UEAAJH@Z 0000000180021530 f i BumpBar.obj
 0001:000205f0       ?OnDrawAdvanced@CComControlBase@ATL@@UEAAJAEAUATL_DRAWINFO@@@Z 00000001800215f0 f i BumpBar.obj
 0001:00020840       ?OnFinalMessage@?$CWindowImplBaseT@VCWindow@ATL@@V?$CWinTraits@$0FGAAAAAA@$0A@@2@@ATL@@UEAAXPEAUHWND__@@@Z 0000000180021840 f i BumpBar.obj
 0001:00020850       ?OnFrameWindowActivate@?$IOleInPlaceActiveObjectImpl@VCOPOSBumpBar@@@ATL@@UEAAJH@Z 0000000180021850 f i BumpBar.obj
 0001:000208c0       ?OnKillFocus@CComControlBase@ATL@@QEAA_JI_K_JAEAH@Z 00000001800218c0 f i BumpBar.obj
 0001:000209b0       ?OnMnemonic@?$IOleControlImpl@VCOPOSBumpBar@@@ATL@@UEAAJPEAUtagMSG@@@Z 00000001800219b0 f i BumpBar.obj
 0001:00020a40       ?OnMouseActivate@CComControlBase@ATL@@QEAA_JI_K_JAEAH@Z 0000000180021a40 f i BumpBar.obj
 0001:00020be0       ?OnPaint@CComControlBase@ATL@@QEAA_JI_K_JAEAH@Z 0000000180021be0 f i BumpBar.obj
 0001:00020d70       ?OnPostVerbDiscardUndo@?$IOleObjectImpl@VCOPOSBumpBar@@@ATL@@QEAAJXZ 0000000180021d70 f i BumpBar.obj
 0001:00020d80       ?OnPostVerbHide@?$IOleObjectImpl@VCOPOSBumpBar@@@ATL@@QEAAJXZ 0000000180021d80 f i BumpBar.obj
 0001:00020d90       ?OnPostVerbInPlaceActivate@?$IOleObjectImpl@VCOPOSBumpBar@@@ATL@@QEAAJXZ 0000000180021d90 f i BumpBar.obj
 0001:00020da0       ?OnPostVerbOpen@?$IOleObjectImpl@VCOPOSBumpBar@@@ATL@@QEAAJXZ 0000000180021da0 f i BumpBar.obj
 0001:00020db0       ?OnPostVerbShow@?$IOleObjectImpl@VCOPOSBumpBar@@@ATL@@QEAAJXZ 0000000180021db0 f i BumpBar.obj
 0001:00020dc0       ?OnPostVerbUIActivate@?$IOleObjectImpl@VCOPOSBumpBar@@@ATL@@QEAAJXZ 0000000180021dc0 f i BumpBar.obj
 0001:00020dd0       ?OnPreVerbDiscardUndo@?$IOleObjectImpl@VCOPOSBumpBar@@@ATL@@QEAAJXZ 0000000180021dd0 f i BumpBar.obj
 0001:00020de0       ?OnPreVerbHide@?$IOleObjectImpl@VCOPOSBumpBar@@@ATL@@QEAAJXZ 0000000180021de0 f i BumpBar.obj
 0001:00020df0       ?OnPreVerbInPlaceActivate@?$IOleObjectImpl@VCOPOSBumpBar@@@ATL@@QEAAJXZ 0000000180021df0 f i BumpBar.obj
 0001:00020e00       ?OnPreVerbOpen@?$IOleObjectImpl@VCOPOSBumpBar@@@ATL@@QEAAJXZ 0000000180021e00 f i BumpBar.obj
 0001:00020e10       ?OnPreVerbShow@?$IOleObjectImpl@VCOPOSBumpBar@@@ATL@@QEAAJXZ 0000000180021e10 f i BumpBar.obj
 0001:00020e20       ?OnPreVerbUIActivate@?$IOleObjectImpl@VCOPOSBumpBar@@@ATL@@QEAAJXZ 0000000180021e20 f i BumpBar.obj
 0001:00020e30       ?OnSetFocus@CComControlBase@ATL@@QEAA_JI_K_JAEAH@Z 0000000180021e30 f i BumpBar.obj
 0001:00021030       ?OnWindowMessage@?$IOleInPlaceObjectWindowlessImpl@VCOPOSBumpBar@@@ATL@@UEAAJI_K_JPEA_J@Z 0000000180022030 f i BumpBar.obj
 0001:00021250       ?Open@CRegKey@ATL@@QEAAJPEAUHKEY__@@PEB_WK@Z 0000000180022250 f i BumpBar.obj
 0001:000213d0       ?OuterAddRef@CComObjectRootBase@ATL@@QEAAKXZ 00000001800223d0 f i BumpBar.obj
 0001:00021410       ?OuterQueryInterface@CComObjectRootBase@ATL@@QEAAJAEBU_GUID@@PEAPEAX@Z 0000000180022410 f i BumpBar.obj
 0001:00021460       ?OuterRelease@CComObjectRootBase@ATL@@QEAAKXZ 0000000180022460 f i BumpBar.obj
 0001:000214a0       ?PreProcessBuffer@CRegParser@ATL@@QEAAJPEA_WPEAPEA_W@Z 00000001800224a0 f i BumpBar.obj
 0001:00021b80       ?PreTranslateAccelerator@CComControlBase@ATL@@QEAAHPEAUtagMSG@@AEAJ@Z 0000000180022b80 f i BumpBar.obj
 0001:00021ba0       ?ProcessWindowMessage@?$CComControl@VCOPOSBumpBar@@V?$CWindowImpl@VCOPOSBumpBar@@VCWindow@ATL@@V?$CWinTraits@$0FGAAAAAA@$0A@@3@@ATL@@@ATL@@UEAAHPEAUHWND__@@I_K_JAEA_JK@Z 0000000180022ba0 f i BumpBar.obj
 0001:00021e20       ?ProcessWindowMessage@COPOSBumpBar@@UEAAHPEAUHWND__@@I_K_JAEA_JK@Z 0000000180022e20 f i BumpBar.obj
 0001:00021fa0       ?PutProperty@?$CComPtr@UIDispatch@@@ATL@@QEAAJJPEAUtagVARIANT@@@Z 0000000180022fa0 f i BumpBar.obj
 0001:00021ff0       ?PutProperty@?$CComPtr@UIDispatch@@@ATL@@SAJPEAUIDispatch@@JPEAUtagVARIANT@@@Z 0000000180022ff0 f i BumpBar.obj
 0001:00022290       ?QueryGetData@?$IDataObjectImpl@VCOPOSBumpBar@@@ATL@@UEAAJPEAUtagFORMATETC@@@Z 0000000180023290 f i BumpBar.obj
 0001:00022320       ?QueryHitPoint@?$IViewObjectExImpl@VCOPOSBumpBar@@@ATL@@UEAAJKPEBUtagRECT@@UtagPOINT@@JPEAK@Z 0000000180023320 f i BumpBar.obj
 0001:00022490       ?QueryHitRect@?$IViewObjectExImpl@VCOPOSBumpBar@@@ATL@@UEAAJKPEBUtagRECT@@0JPEAK@Z 0000000180023490 f i BumpBar.obj
 0001:00022660       ?QueryInterface@?$CComAggObject@VCOPOSBumpBar@@@ATL@@UEAAJAEBU_GUID@@PEAPEAX@Z 0000000180023660 f i BumpBar.obj
 0001:00022750       ?QueryInterface@?$CComContainedObject@VCOPOSBumpBar@@@ATL@@UEAAJAEBU_GUID@@PEAPEAX@Z 0000000180023750 f i BumpBar.obj
 0001:0002279c       ?QueryInterface@?$CComContainedObject@VCOPOSBumpBar@@@ATL@@WBAA@EAAJAEBU_GUID@@PEAPEAX@Z 000000018002379c f i BumpBar.obj
 0001:000227a8       ?QueryInterface@?$CComContainedObject@VCOPOSBumpBar@@@ATL@@WBAI@EAAJAEBU_GUID@@PEAPEAX@Z 00000001800237a8 f i BumpBar.obj
 0001:000227b4       ?QueryInterface@?$CComContainedObject@VCOPOSBumpBar@@@ATL@@WBBA@EAAJAEBU_GUID@@PEAPEAX@Z 00000001800237b4 f i BumpBar.obj
 0001:000227c0       ?QueryInterface@?$CComContainedObject@VCOPOSBumpBar@@@ATL@@WBBI@EAAJAEBU_GUID@@PEAPEAX@Z 00000001800237c0 f i BumpBar.obj
 0001:000227cc       ?QueryInterface@?$CComContainedObject@VCOPOSBumpBar@@@ATL@@WLI@EAAJAEBU_GUID@@PEAPEAX@Z 00000001800237cc f i BumpBar.obj
 0001:000227d8       ?QueryInterface@?$CComContainedObject@VCOPOSBumpBar@@@ATL@@WMA@EAAJAEBU_GUID@@PEAPEAX@Z 00000001800237d8 f i BumpBar.obj
 0001:000227e4       ?QueryInterface@?$CComContainedObject@VCOPOSBumpBar@@@ATL@@WMI@EAAJAEBU_GUID@@PEAPEAX@Z 00000001800237e4 f i BumpBar.obj
 0001:000227f0       ?QueryInterface@?$CComContainedObject@VCOPOSBumpBar@@@ATL@@WNA@EAAJAEBU_GUID@@PEAPEAX@Z 00000001800237f0 f i BumpBar.obj
 0001:000227fc       ?QueryInterface@?$CComContainedObject@VCOPOSBumpBar@@@ATL@@WNI@EAAJAEBU_GUID@@PEAPEAX@Z 00000001800237fc f i BumpBar.obj
 0001:00022808       ?QueryInterface@?$CComContainedObject@VCOPOSBumpBar@@@ATL@@WOA@EAAJAEBU_GUID@@PEAPEAX@Z 0000000180023808 f i BumpBar.obj
 0001:00022814       ?QueryInterface@?$CComContainedObject@VCOPOSBumpBar@@@ATL@@WOI@EAAJAEBU_GUID@@PEAPEAX@Z 0000000180023814 f i BumpBar.obj
 0001:00022820       ?QueryInterface@?$CComContainedObject@VCOPOSBumpBar@@@ATL@@WPA@EAAJAEBU_GUID@@PEAPEAX@Z 0000000180023820 f i BumpBar.obj
 0001:0002282c       ?QueryInterface@?$CComContainedObject@VCOPOSBumpBar@@@ATL@@WPI@EAAJAEBU_GUID@@PEAPEAX@Z 000000018002382c f i BumpBar.obj
 0001:00022840       ?QueryInterface@?$CComObject@V?$CComEnum@UIEnumConnectionPoints@@$1?_GUID_b196b285_bab4_101a_b69c_00aa00341d07@@3U__s_GUID@@BPEAUIConnectionPoint@@V?$_CopyInterface@UIConnectionPoint@@@ATL@@VCComSingleThreadModel@6@@ATL@@@ATL@@UEAAJAEBU_GUID@@PEAPEAX@Z 0000000180023840 f i BumpBar.obj
 0001:00022890       ?QueryInterface@?$CComObject@V?$CComEnum@UIEnumConnections@@$1?_GUID_b196b287_bab4_101a_b69c_00aa00341d07@@3U__s_GUID@@BUtagCONNECTDATA@@V?$_Copy@UtagCONNECTDATA@@@ATL@@VCComSingleThreadModel@6@@ATL@@@ATL@@UEAAJAEBU_GUID@@PEAPEAX@Z 0000000180023890 f i BumpBar.obj
 0001:000228e0       ?QueryInterface@?$CComObject@VCOPOSBumpBar@@@ATL@@UEAAJAEBU_GUID@@PEAPEAX@Z 00000001800238e0 f i BumpBar.obj
 0001:00022924       ?QueryInterface@?$CComObject@VCOPOSBumpBar@@@ATL@@WBAA@EAAJAEBU_GUID@@PEAPEAX@Z 0000000180023924 f i BumpBar.obj
 0001:00022930       ?QueryInterface@?$CComObject@VCOPOSBumpBar@@@ATL@@WBAI@EAAJAEBU_GUID@@PEAPEAX@Z 0000000180023930 f i BumpBar.obj
 0001:0002293c       ?QueryInterface@?$CComObject@VCOPOSBumpBar@@@ATL@@WBBA@EAAJAEBU_GUID@@PEAPEAX@Z 000000018002393c f i BumpBar.obj
 0001:00022948       ?QueryInterface@?$CComObject@VCOPOSBumpBar@@@ATL@@WBBI@EAAJAEBU_GUID@@PEAPEAX@Z 0000000180023948 f i BumpBar.obj
 0001:00022954       ?QueryInterface@?$CComObject@VCOPOSBumpBar@@@ATL@@WLI@EAAJAEBU_GUID@@PEAPEAX@Z 0000000180023954 f i BumpBar.obj
 0001:00022960       ?QueryInterface@?$CComObject@VCOPOSBumpBar@@@ATL@@WMA@EAAJAEBU_GUID@@PEAPEAX@Z 0000000180023960 f i BumpBar.obj
 0001:0002296c       ?QueryInterface@?$CComObject@VCOPOSBumpBar@@@ATL@@WMI@EAAJAEBU_GUID@@PEAPEAX@Z 000000018002396c f i BumpBar.obj
 0001:00022978       ?QueryInterface@?$CComObject@VCOPOSBumpBar@@@ATL@@WNA@EAAJAEBU_GUID@@PEAPEAX@Z 0000000180023978 f i BumpBar.obj
 0001:00022984       ?QueryInterface@?$CComObject@VCOPOSBumpBar@@@ATL@@WNI@EAAJAEBU_GUID@@PEAPEAX@Z 0000000180023984 f i BumpBar.obj
 0001:00022990       ?QueryInterface@?$CComObject@VCOPOSBumpBar@@@ATL@@WOA@EAAJAEBU_GUID@@PEAPEAX@Z 0000000180023990 f i BumpBar.obj
 0001:0002299c       ?QueryInterface@?$CComObject@VCOPOSBumpBar@@@ATL@@WOI@EAAJAEBU_GUID@@PEAPEAX@Z 000000018002399c f i BumpBar.obj
 0001:000229a8       ?QueryInterface@?$CComObject@VCOPOSBumpBar@@@ATL@@WPA@EAAJAEBU_GUID@@PEAPEAX@Z 00000001800239a8 f i BumpBar.obj
 0001:000229b4       ?QueryInterface@?$CComObject@VCOPOSBumpBar@@@ATL@@WPI@EAAJAEBU_GUID@@PEAPEAX@Z 00000001800239b4 f i BumpBar.obj
 0001:000229c0       ?QueryInterface@?$CComObjectCached@VCComClassFactory@ATL@@@ATL@@UEAAJAEBU_GUID@@PEAPEAX@Z 00000001800239c0 f i BumpBar.obj
 0001:00022a10       ?QueryInterface@CRegObject@ATL@@UEAAJAEBU_GUID@@PEAPEAX@Z 0000000180023a10 f i BumpBar.obj
 0001:00022a90       ?QuickActivate@?$IQuickActivateImpl@VCOPOSBumpBar@@@ATL@@UEAAJPEAUtagQACONTAINER@@PEAUtagQACONTROL@@@Z 0000000180023a90 f i BumpBar.obj
 0001:00022b50       ?ReactivateAndUndo@?$IOleInPlaceObjectWindowlessImpl@VCOPOSBumpBar@@@ATL@@UEAAJXZ 0000000180023b50 f i BumpBar.obj
 0001:00022bd0       ?ReadFromStream@CComBSTR@ATL@@QEAAJPEAUIStream@@@Z 0000000180023bd0 f i BumpBar.obj
 0001:000230b0       ?ReadFromStream@CComVariant@ATL@@QEAAJPEAUIStream@@GTClassesAllowedInStream@2@K@Z 00000001800240b0 f i BumpBar.obj
 0001:000234e0       ?RecurseDeleteKey@CRegKey@ATL@@QEAAJPEB_W@Z 00000001800244e0 f i BumpBar.obj
 0001:00023700       ?RegCreateKeyExW@CAtlTransactionManager@ATL@@QEAAJPEAUHKEY__@@PEB_WKPEA_WKKQEAU_SECURITY_ATTRIBUTES@@PEAPEAU3@PEAK@Z 0000000180024700 f i BumpBar.obj
 0001:000238d0       ?RegDeleteKeyW@CAtlTransactionManager@ATL@@QEAAJPEAUHKEY__@@PEB_W@Z 00000001800248d0 f i BumpBar.obj
 0001:000239e0       ?RegOpenKeyExW@CAtlTransactionManager@ATL@@QEAAJPEAUHKEY__@@PEB_WKKPEAPEAU3@@Z 00000001800249e0 f i BumpBar.obj
 0001:00023b30       ?Register@_ATL_WNDCLASSINFOW@ATL@@QEAAGPEAP6A_JPEAUHWND__@@I_K_J@Z@Z 0000000180024b30 f i BumpBar.obj
 0001:00023b80       ?RegisterBuffer@CRegParser@ATL@@QEAAJPEA_WH@Z 0000000180024b80 f i BumpBar.obj
 0001:00023f70       ?RegisterClassExW@AtlModuleRegisterWndClassInfoParamW@ATL@@SAGPEAU_ATL_WIN_MODULE70@2@PEBUtagWNDCLASSEXW@@@Z 0000000180024f70 f i BumpBar.obj
 0001:00023fb0       ?RegisterFromResource@CRegObject@ATL@@IEAAJPEB_W00H@Z 0000000180024fb0 f i BumpBar.obj
 0001:00024410       ?RegisterServer@?$CAtlModuleT@VCComModule@ATL@@@ATL@@QEAAJHPEBU_GUID@@@Z 0000000180025410 f i BumpBar.obj
 0001:00024490       ?RegisterServer@CAtlComModule@ATL@@QEAAJHPEBU_GUID@@@Z 0000000180025490 f i BumpBar.obj
 0001:000244d0       ?RegisterServer@CComModule@ATL@@QEAAJHPEBU_GUID@@@Z 00000001800254d0 f i BumpBar.obj
 0001:000245d0       ?RegisterSubkeys@CRegParser@ATL@@IEAAJPEA_WPEAUHKEY__@@HH@Z 00000001800255d0 f i BumpBar.obj
 0001:000253b0       ?Release@?$CComAggObject@VCOPOSBumpBar@@@ATL@@UEAAKXZ 00000001800263b0 f i BumpBar.obj
 0001:00025460       ?Release@?$CComContainedObject@VCOPOSBumpBar@@@ATL@@UEAAKXZ 0000000180026460 f i BumpBar.obj
 0001:00025498       ?Release@?$CComContainedObject@VCOPOSBumpBar@@@ATL@@WBAA@EAAKXZ 0000000180026498 f i BumpBar.obj
 0001:000254a4       ?Release@?$CComContainedObject@VCOPOSBumpBar@@@ATL@@WBAI@EAAKXZ 00000001800264a4 f i BumpBar.obj
 0001:000254b0       ?Release@?$CComContainedObject@VCOPOSBumpBar@@@ATL@@WBBA@EAAKXZ 00000001800264b0 f i BumpBar.obj
 0001:000254bc       ?Release@?$CComContainedObject@VCOPOSBumpBar@@@ATL@@WBBI@EAAKXZ 00000001800264bc f i BumpBar.obj
 0001:000254c8       ?Release@?$CComContainedObject@VCOPOSBumpBar@@@ATL@@WBCI@EAAKXZ 00000001800264c8 f i BumpBar.obj
 0001:000254d4       ?Release@?$CComContainedObject@VCOPOSBumpBar@@@ATL@@WBEA@EAAKXZ 00000001800264d4 f i BumpBar.obj
 0001:000254e0       ?Release@?$CComContainedObject@VCOPOSBumpBar@@@ATL@@WLI@EAAKXZ 00000001800264e0 f i BumpBar.obj
 0001:000254ec       ?Release@?$CComContainedObject@VCOPOSBumpBar@@@ATL@@WMA@EAAKXZ 00000001800264ec f i BumpBar.obj
 0001:000254f8       ?Release@?$CComContainedObject@VCOPOSBumpBar@@@ATL@@WMI@EAAKXZ 00000001800264f8 f i BumpBar.obj
 0001:00025504       ?Release@?$CComContainedObject@VCOPOSBumpBar@@@ATL@@WNA@EAAKXZ 0000000180026504 f i BumpBar.obj
 0001:00025510       ?Release@?$CComContainedObject@VCOPOSBumpBar@@@ATL@@WNI@EAAKXZ 0000000180026510 f i BumpBar.obj
 0001:0002551c       ?Release@?$CComContainedObject@VCOPOSBumpBar@@@ATL@@WOA@EAAKXZ 000000018002651c f i BumpBar.obj
 0001:00025528       ?Release@?$CComContainedObject@VCOPOSBumpBar@@@ATL@@WOI@EAAKXZ 0000000180026528 f i BumpBar.obj
 0001:00025534       ?Release@?$CComContainedObject@VCOPOSBumpBar@@@ATL@@WPA@EAAKXZ 0000000180026534 f i BumpBar.obj
 0001:00025540       ?Release@?$CComContainedObject@VCOPOSBumpBar@@@ATL@@WPI@EAAKXZ 0000000180026540 f i BumpBar.obj
 0001:00025550       ?Release@?$CComObject@V?$CComEnum@UIEnumConnectionPoints@@$1?_GUID_b196b285_bab4_101a_b69c_00aa00341d07@@3U__s_GUID@@BPEAUIConnectionPoint@@V?$_CopyInterface@UIConnectionPoint@@@ATL@@VCComSingleThreadModel@6@@ATL@@@ATL@@UEAAKXZ 0000000180026550 f i BumpBar.obj
 0001:00025600       ?Release@?$CComObject@V?$CComEnum@UIEnumConnections@@$1?_GUID_b196b287_bab4_101a_b69c_00aa00341d07@@3U__s_GUID@@BUtagCONNECTDATA@@V?$_Copy@UtagCONNECTDATA@@@ATL@@VCComSingleThreadModel@6@@ATL@@@ATL@@UEAAKXZ 0000000180026600 f i BumpBar.obj
 0001:000256b0       ?Release@?$CComObject@VCOPOSBumpBar@@@ATL@@UEAAKXZ 00000001800266b0 f i BumpBar.obj
 0001:00025768       ?Release@?$CComObject@VCOPOSBumpBar@@@ATL@@WBAA@EAAKXZ 0000000180026768 f i BumpBar.obj
 0001:00025774       ?Release@?$CComObject@VCOPOSBumpBar@@@ATL@@WBAI@EAAKXZ 0000000180026774 f i BumpBar.obj
 0001:00025780       ?Release@?$CComObject@VCOPOSBumpBar@@@ATL@@WBBA@EAAKXZ 0000000180026780 f i BumpBar.obj
 0001:0002578c       ?Release@?$CComObject@VCOPOSBumpBar@@@ATL@@WBBI@EAAKXZ 000000018002678c f i BumpBar.obj
 0001:00025798       ?Release@?$CComObject@VCOPOSBumpBar@@@ATL@@WBCI@EAAKXZ 0000000180026798 f i BumpBar.obj
 0001:000257a4       ?Release@?$CComObject@VCOPOSBumpBar@@@ATL@@WBEA@EAAKXZ 00000001800267a4 f i BumpBar.obj
 0001:000257b0       ?Release@?$CComObject@VCOPOSBumpBar@@@ATL@@WLI@EAAKXZ 00000001800267b0 f i BumpBar.obj
 0001:000257bc       ?Release@?$CComObject@VCOPOSBumpBar@@@ATL@@WMA@EAAKXZ 00000001800267bc f i BumpBar.obj
 0001:000257c8       ?Release@?$CComObject@VCOPOSBumpBar@@@ATL@@WMI@EAAKXZ 00000001800267c8 f i BumpBar.obj
 0001:000257d4       ?Release@?$CComObject@VCOPOSBumpBar@@@ATL@@WNA@EAAKXZ 00000001800267d4 f i BumpBar.obj
 0001:000257e0       ?Release@?$CComObject@VCOPOSBumpBar@@@ATL@@WNI@EAAKXZ 00000001800267e0 f i BumpBar.obj
 0001:000257ec       ?Release@?$CComObject@VCOPOSBumpBar@@@ATL@@WOA@EAAKXZ 00000001800267ec f i BumpBar.obj
 0001:000257f8       ?Release@?$CComObject@VCOPOSBumpBar@@@ATL@@WOI@EAAKXZ 00000001800267f8 f i BumpBar.obj
 0001:00025804       ?Release@?$CComObject@VCOPOSBumpBar@@@ATL@@WPA@EAAKXZ 0000000180026804 f i BumpBar.obj
 0001:00025810       ?Release@?$CComObject@VCOPOSBumpBar@@@ATL@@WPI@EAAKXZ 0000000180026810 f i BumpBar.obj
 0001:00025820       ?Release@?$CComObjectCached@VCComClassFactory@ATL@@@ATL@@UEAAKXZ 0000000180026820 f i BumpBar.obj
 0001:000258c0       ?Release@?$CComPtrBase@UIAdviseSink@@@ATL@@QEAAXXZ 00000001800268c0 f i BumpBar.obj
 0001:00025920       ?Release@?$CComPtrBase@UIDispatch@@@ATL@@QEAAXXZ 0000000180026920 f i BumpBar.obj
 0001:00025980       ?Release@?$CComPtrBase@UIOleInPlaceSiteWindowless@@@ATL@@QEAAXXZ 0000000180026980 f i BumpBar.obj
 0001:000259e0       ?Release@CRegObject@ATL@@UEAAKXZ 00000001800269e0 f i BumpBar.obj
 0001:00025a50       ?Remove@CComDynamicUnkArray@ATL@@QEAAHK@Z 0000000180026a50 f i BumpBar.obj
 0001:00025b30       ?RemoveAll@?$CSimpleMap@PEA_WPEA_WVCExpansionVectorEqualHelper@ATL@@@ATL@@QEAAXXZ 0000000180026b30 f i BumpBar.obj
 0001:00025bd0       ?Reset@?$CComEnumImpl@UIEnumConnectionPoints@@$1?_GUID_b196b285_bab4_101a_b69c_00aa00341d07@@3U__s_GUID@@BPEAUIConnectionPoint@@V?$_CopyInterface@UIConnectionPoint@@@ATL@@@ATL@@UEAAJXZ 0000000180026bd0 f i BumpBar.obj
 0001:00025bf0       ?Reset@?$CComEnumImpl@UIEnumConnections@@$1?_GUID_b196b287_bab4_101a_b69c_00aa00341d07@@3U__s_GUID@@BUtagCONNECTDATA@@V?$_Copy@UtagCONNECTDATA@@@ATL@@@ATL@@UEAAJXZ 0000000180026bf0 f i BumpBar.obj
 0001:00025c10       ?ResizeBorder@?$IOleInPlaceActiveObjectImpl@VCOPOSBumpBar@@@ATL@@UEAAJPEBUtagRECT@@PEAUIOleInPlaceUIWindow@@H@Z 0000000180026c10 f i BumpBar.obj
 0001:00025c90       ?ResourceRegister@CRegObject@ATL@@QEAAJPEB_WI0@Z 0000000180026c90 f i BumpBar.obj
 0001:00025d70       ?ResourceRegisterSz@CRegObject@ATL@@QEAAJPEB_W00@Z 0000000180026d70 f i BumpBar.obj
 0001:00025e90       ?ResourceUnregister@CRegObject@ATL@@QEAAJPEB_WI0@Z 0000000180026e90 f i BumpBar.obj
 0001:00025f70       ?ResourceUnregisterSz@CRegObject@ATL@@QEAAJPEB_W00@Z 0000000180026f70 f i BumpBar.obj
 0001:00026090       ?SOData@COPOSBumpBar@@MEAAJJ@Z 0000000180027090 f i BumpBar.obj
 0001:00026130       ?SODirectIO@COPOSBumpBar@@MEAAJJPEAJPEAPEA_W@Z 0000000180027130 f i BumpBar.obj
 0001:00026370       ?SOError@COPOSBumpBar@@MEAAJJJJPEAJ@Z 0000000180027370 f i BumpBar.obj
 0001:00026480       ?SOOutputComplete@COPOSBumpBar@@MEAAJJ@Z 0000000180027480 f i BumpBar.obj
 0001:00026520       ?SOStatusUpdate@COPOSBumpBar@@MEAAJJ@Z 0000000180027520 f i BumpBar.obj
 0001:000265c0       ?Save@?$IPersistStorageImpl@VCOPOSBumpBar@@@ATL@@UEAAJPEAUIStorage@@H@Z 00000001800275c0 f i BumpBar.obj
 0001:00026780       ?Save@?$IPersistStreamInitImpl@VCOPOSBumpBar@@@ATL@@UEAAJPEAUIStream@@H@Z 0000000180027780 f i BumpBar.obj
 0001:00026840       ?SaveCompleted@?$IPersistStorageImpl@VCOPOSBumpBar@@@ATL@@UEAAJPEAUIStorage@@@Z 0000000180027840 f i BumpBar.obj
 0001:000268b0       ?SendOnDataChange@CComControlBase@ATL@@QEAAJK@Z 00000001800278b0 f i BumpBar.obj
 0001:000269a0       ?SendOnSave@CComControlBase@ATL@@QEAAJXZ 00000001800279a0 f i BumpBar.obj
 0001:00026a10       ?SendOnViewChange@CComControlBase@ATL@@QEAAJKJ@Z 0000000180027a10 f i BumpBar.obj
 0001:00026a90       ?SetAdvise@?$IViewObjectExImpl@VCOPOSBumpBar@@@ATL@@UEAAJKKPEAUIAdviseSink@@@Z 0000000180027a90 f i BumpBar.obj
 0001:00026b50       ?SetClientSite@?$IOleObjectImpl@VCOPOSBumpBar@@@ATL@@UEAAJPEAUIOleClientSite@@@Z 0000000180027b50 f i BumpBar.obj
 0001:00026c00       ?SetColorScheme@?$IOleObjectImpl@VCOPOSBumpBar@@@ATL@@UEAAJPEAUtagLOGPALETTE@@@Z 0000000180027c00 f i BumpBar.obj
 0001:00026c90       ?SetContentExtent@?$IQuickActivateImpl@VCOPOSBumpBar@@@ATL@@UEAAJPEAUtagSIZE@@@Z 0000000180027c90 f i BumpBar.obj
 0001:00026d50       ?SetControlFocus@CComControlBase@ATL@@QEAAHH@Z 0000000180027d50 f i BumpBar.obj
 0001:00026ee0       ?SetDWORDValue@CRegKey@ATL@@QEAAJPEB_WK@Z 0000000180027ee0 f i BumpBar.obj
 0001:00026f90       ?SetData@?$IDataObjectImpl@VCOPOSBumpBar@@@ATL@@UEAAJPEAUtagFORMATETC@@PEAUtagSTGMEDIUM@@H@Z 0000000180027f90 f i BumpBar.obj
 0001:00027020       ?SetExtent@?$IOleObjectImpl@VCOPOSBumpBar@@@ATL@@UEAAJKPEAUtagSIZE@@@Z 0000000180028020 f i BumpBar.obj
 0001:000270e0       ?SetHostNames@?$IOleObjectImpl@VCOPOSBumpBar@@@ATL@@UEAAJPEB_W0@Z 00000001800280e0 f i BumpBar.obj
 0001:00027160       ?SetInterfaceSafetyOptions@?$IObjectSafetyImpl@VCOPOSBumpBar@@$02@ATL@@UEAAJAEBU_GUID@@KK@Z 0000000180028160 f i BumpBar.obj
 0001:00027300       ?SetMoniker@?$IOleObjectImpl@VCOPOSBumpBar@@@ATL@@UEAAJKPEAUIMoniker@@@Z 0000000180028300 f i BumpBar.obj
 0001:00027390       ?SetMultiStringValue@CRegKey@ATL@@QEAAJPEB_W0@Z 0000000180028390 f i BumpBar.obj
 0001:00027500       ?SetObjectRects@?$IOleInPlaceObjectWindowlessImpl@VCOPOSBumpBar@@@ATL@@UEAAJPEBUtagRECT@@0@Z 0000000180028500 f i BumpBar.obj
 0001:000275c0       ?SetStringValue@CRegKey@ATL@@QEAAJPEB_W0K@Z 00000001800285c0 f i BumpBar.obj
 0001:00027740       ?SetVoid@CComClassFactory@ATL@@QEAAXPEAX@Z 0000000180028740 f i BumpBar.obj
 0001:00027760       ?SetVoid@CComObjectRootBase@ATL@@QEAAXPEAX@Z 0000000180028760 f i BumpBar.obj
 0001:00027770       ?ShowWindow@CWindow@ATL@@QEAAHH@Z 0000000180028770 f i BumpBar.obj
 0001:00027800       ?Skip@?$CComEnumImpl@UIEnumConnectionPoints@@$1?_GUID_b196b285_bab4_101a_b69c_00aa00341d07@@3U__s_GUID@@BPEAUIConnectionPoint@@V?$_CopyInterface@UIConnectionPoint@@@ATL@@@ATL@@UEAAJK@Z 0000000180028800 f i BumpBar.obj
 0001:000278a0       ?Skip@?$CComEnumImpl@UIEnumConnections@@$1?_GUID_b196b287_bab4_101a_b69c_00aa00341d07@@3U__s_GUID@@BUtagCONNECTDATA@@V?$_Copy@UtagCONNECTDATA@@@ATL@@@ATL@@UEAAJK@Z 00000001800288a0 f i BumpBar.obj
 0001:00027940       ?SkipAssignment@CRegParser@ATL@@IEAAJPEA_W@Z 0000000180028940 f i BumpBar.obj
 0001:00027a40       ?SkipWhiteSpace@CRegParser@ATL@@IEAAXXZ 0000000180028a40 f i BumpBar.obj
 0001:00027aa0       ?StartWindowProc@?$CWindowImplBaseT@VCWindow@ATL@@V?$CWinTraits@$0FGAAAAAA@$0A@@2@@ATL@@SA_JPEAUHWND__@@I_K_J@Z 0000000180028aa0 f i BumpBar.obj
 0001:00027c10       ?StrChrW@CRegParser@ATL@@KAPEA_WPEA_W_W@Z 0000000180028c10 f i BumpBar.obj
 0001:00027c90       ?StrFromMap@CRegObject@ATL@@QEAAPEB_WPEA_W@Z 0000000180028c90 f i BumpBar.obj
 0001:00027d50       ?Swap@?$CComPtrBase@UIAdviseSink@@@ATL@@IEAAXAEAV12@@Z 0000000180028d50 f i BumpBar.obj
 0001:00027db0       ?Swap@?$CComPtrBase@UIOleClientSite@@@ATL@@IEAAXAEAV12@@Z 0000000180028db0 f i BumpBar.obj
 0001:00027e10       ?Swap@?$CComPtrBase@UIUnknown@@@ATL@@IEAAXAEAV12@@Z 0000000180028e10 f i BumpBar.obj
 0001:00027e70       ?T2COLE_EX@@YAPEB_WPEB_WI@Z 0000000180028e70 f i BumpBar.obj
 0001:00027e90       ?T2OLE_EX@@YAPEA_WPEA_WI@Z 0000000180028e90 f i BumpBar.obj
 0001:00027eb0       ?Term@CAtlModule@ATL@@QEAAXXZ 0000000180028eb0 f i BumpBar.obj
 0001:00027f70       ?Term@CComModule@ATL@@QEAAXXZ 0000000180028f70 f i BumpBar.obj
 0001:00028060       ?TranslateAcceleratorW@?$IOleInPlaceActiveObjectImpl@VCOPOSBumpBar@@@ATL@@UEAAJPEAUtagMSG@@@Z 0000000180029060 f i BumpBar.obj
 0001:000282d0       ?UIDeactivate@?$IOleInPlaceObjectWindowlessImpl@VCOPOSBumpBar@@@ATL@@UEAAJXZ 00000001800292d0 f i BumpBar.obj
 0001:00028380       ?Unadvise@?$CProxy_IOPOSEvents@VCOPOSBumpBar@@@@UEAAJK@Z 0000000180029380 f i BumpBar.obj
 0001:000283d0       ?Unadvise@?$IConnectionPointImpl@VCOPOSBumpBar@@$1?DIID__IOPOSBumpBarEvents@@3U_GUID@@BVCComDynamicUnkArray@ATL@@@ATL@@UEAAJK@Z 00000001800293d0 f i BumpBar.obj
 0001:000284c0       ?Unadvise@?$IConnectionPointImpl@VCOPOSBumpBar@@$1?IID_IPropertyNotifySink@@3U_GUID@@BVCComDynamicUnkArray@ATL@@@ATL@@UEAAJK@Z 00000001800294c0 f i BumpBar.obj
 0001:000285b0       ?Unadvise@?$IOleObjectImpl@VCOPOSBumpBar@@@ATL@@UEAAJK@Z 00000001800295b0 f i BumpBar.obj
 0001:000286a0       ?Unfreeze@?$IViewObjectExImpl@VCOPOSBumpBar@@@ATL@@UEAAJK@Z 00000001800296a0 f i BumpBar.obj
 0001:00028720       ?Unlock@?$CComCritSecLock@VCComCriticalSection@ATL@@@ATL@@QEAAXXZ 0000000180029720 f i BumpBar.obj
 0001:000287b0       ?Unlock@?$CComObjectRootEx@VCComSingleThreadModel@ATL@@@ATL@@QEAAXXZ 00000001800297b0 f i BumpBar.obj
 0001:000287c0       ?Unlock@CAtlModule@ATL@@UEAAJXZ 00000001800297c0 f i BumpBar.obj
 0001:00028800       ?Unlock@CComCriticalSection@ATL@@QEAAJXZ 0000000180029800 f i BumpBar.obj
 0001:00028840       ?Unlock@CComFakeCriticalSection@ATL@@QEAAJXZ 0000000180029840 f i BumpBar.obj
 0001:00028850       ?UnregisterServer@?$CAtlModuleT@VCComModule@ATL@@@ATL@@QEAAJHPEBU_GUID@@@Z 0000000180029850 f i BumpBar.obj
 0001:000288c0       ?UnregisterServer@CAtlComModule@ATL@@QEAAJHPEBU_GUID@@@Z 00000001800298c0 f i BumpBar.obj
 0001:00028900       ?UnregisterServer@CComModule@ATL@@QEAAJHPEBU_GUID@@@Z 0000000180029900 f i BumpBar.obj
 0001:000289f0       ?Update@?$IOleObjectImpl@VCOPOSBumpBar@@@ATL@@UEAAJXZ 00000001800299f0 f i BumpBar.obj
 0001:00028a60       ?UpdateRegistryFromResource@CAtlModule@ATL@@QEAAJIHPEAU_ATL_REGMAP_ENTRY@2@@Z 0000000180029a60 f i BumpBar.obj
 0001:00028f90       ?UpdateRegistryFromResource@CAtlModule@ATL@@QEAAJPEB_WHPEAU_ATL_REGMAP_ENTRY@2@@Z 0000000180029f90 f i BumpBar.obj
 0001:000294e0       ?UpdateRegistryFromResource@CComModule@ATL@@UEAAJIHPEAU_ATL_REGMAP_ENTRY@2@@Z 000000018002a4e0 f i BumpBar.obj
 0001:00029530       ?UpdateRegistryFromResource@CComModule@ATL@@UEAAJPEB_WHPEAU_ATL_REGMAP_ENTRY@2@@Z 000000018002a530 f i BumpBar.obj
 0001:00029580       ?UpdateRegistryFromResourceD@CComModule@ATL@@UEAAJIHPEAU_ATL_REGMAP_ENTRY@2@@Z 000000018002a580 f i BumpBar.obj
 0001:000295a0       ?UpdateRegistryFromResourceD@CComModule@ATL@@UEAAJPEB_WHPEAU_ATL_REGMAP_ENTRY@2@@Z 000000018002a5a0 f i BumpBar.obj
 0001:000295c0       ?VTFromRegType@CRegParser@ATL@@KAHPEB_WAEAG@Z 000000018002a5c0 f i BumpBar.obj
 0001:000296a0       ?WindowProc@?$CWindowImplBaseT@VCWindow@ATL@@V?$CWinTraits@$0FGAAAAAA@$0A@@2@@ATL@@SA_JPEAUHWND__@@I_K_J@Z 000000018002a6a0 f i BumpBar.obj
 0001:00029980       ?WriteToStream@CComBSTR@ATL@@QEAAJPEAUIStream@@@Z 000000018002a980 f i BumpBar.obj
 0001:00029af0       ?WriteToStream@CComVariant@ATL@@QEAAJPEAUIStream@@@Z 000000018002aaf0 f i BumpBar.obj
 0001:00029f00       ?WriteToStream@CComVariant@ATL@@QEAAJPEAUIStream@@G@Z 000000018002af00 f i BumpBar.obj
 0001:00029fe0       ?_AtlFinalConstruct@CComObjectRootBase@ATL@@QEAAJXZ 000000018002afe0 f i BumpBar.obj
 0001:00029ff0       ?_AtlGetConversionACP@ATL@@YAIXZ 000000018002aff0 f i BumpBar.obj
 0001:0002a000       ?_AtlInitialConstruct@?$CComAggObject@VCOPOSBumpBar@@@ATL@@QEAAJXZ 000000018002b000 f i BumpBar.obj
 0001:0002a060       ?_AtlInitialConstruct@?$CComObjectRootEx@VCComMultiThreadModel@ATL@@@ATL@@QEAAJXZ 000000018002b060 f i BumpBar.obj
 0001:0002a0a0       ?_AtlInitialConstruct@?$CComObjectRootEx@VCComSingleThreadModel@ATL@@@ATL@@QEAAJXZ 000000018002b0a0 f i BumpBar.obj
 0001:0002a0b0       ?_AtlVerifyStackAvailable@_ATL_SAFE_ALLOCA_IMPL@ATL@@YA_N_K@Z 000000018002b0b0 f i BumpBar.obj
 0001:0002a210       ?_GetEntries@?$CComEnum@UIEnumConnectionPoints@@$1?_GUID_b196b285_bab4_101a_b69c_00aa00341d07@@3U__s_GUID@@BPEAUIConnectionPoint@@V?$_CopyInterface@UIConnectionPoint@@@ATL@@VCComSingleThreadModel@6@@ATL@@SAPEBU_ATL_INTMAP_ENTRY@2@XZ 000000018002b210 f i BumpBar.obj
 0001:0002a230       ?_GetEntries@?$CComEnum@UIEnumConnections@@$1?_GUID_b196b287_bab4_101a_b69c_00aa00341d07@@3U__s_GUID@@BUtagCONNECTDATA@@V?$_Copy@UtagCONNECTDATA@@@ATL@@VCComSingleThreadModel@6@@ATL@@SAPEBU_ATL_INTMAP_ENTRY@2@XZ 000000018002b230 f i BumpBar.obj
 0001:0002a250       ?_GetEntries@CComClassFactory@ATL@@SAPEBU_ATL_INTMAP_ENTRY@2@XZ 000000018002b250 f i BumpBar.obj
 0001:0002a270       ?_GetEntries@COPOSBumpBar@@SAPEBU_ATL_INTMAP_ENTRY@ATL@@XZ 000000018002b270 f i BumpBar.obj
 0001:0002a290       ?_GetRawUnknown@COPOSBumpBar@@QEAAPEAUIUnknown@@XZ 000000018002b290 f i BumpBar.obj
 0001:0002a320       ?_GetViewStatus@COPOSBumpBar@@QEAAKXZ 000000018002b320 f i BumpBar.obj
 0001:0002a330       ?_InternalQueryInterface@?$CComEnum@UIEnumConnectionPoints@@$1?_GUID_b196b285_bab4_101a_b69c_00aa00341d07@@3U__s_GUID@@BPEAUIConnectionPoint@@V?$_CopyInterface@UIConnectionPoint@@@ATL@@VCComSingleThreadModel@6@@ATL@@QEAAJAEBU_GUID@@PEAPEAX@Z 000000018002b330 f i BumpBar.obj
 0001:0002a380       ?_InternalQueryInterface@?$CComEnum@UIEnumConnections@@$1?_GUID_b196b287_bab4_101a_b69c_00aa00341d07@@3U__s_GUID@@BUtagCONNECTDATA@@V?$_Copy@UtagCONNECTDATA@@@ATL@@VCComSingleThreadModel@6@@ATL@@QEAAJAEBU_GUID@@PEAPEAX@Z 000000018002b380 f i BumpBar.obj
 0001:0002a3d0       ?_InternalQueryInterface@CComClassFactory@ATL@@QEAAJAEBU_GUID@@PEAPEAX@Z 000000018002b3d0 f i BumpBar.obj
 0001:0002a420       ?_InternalQueryInterface@COPOSBumpBar@@QEAAJAEBU_GUID@@PEAPEAX@Z 000000018002b420 f i BumpBar.obj
 0001:0002a470       ?_LocCPQueryInterface@?$IConnectionPointImpl@VCOPOSBumpBar@@$1?DIID__IOPOSBumpBarEvents@@3U_GUID@@BVCComDynamicUnkArray@ATL@@@ATL@@UEAAJAEBU_GUID@@PEAPEAX@Z 000000018002b470 f i BumpBar.obj
 0001:0002a550       ?_LocCPQueryInterface@?$IConnectionPointImpl@VCOPOSBumpBar@@$1?IID_IPropertyNotifySink@@3U_GUID@@BVCComDynamicUnkArray@ATL@@@ATL@@UEAAJAEBU_GUID@@PEAPEAX@Z 000000018002b550 f i BumpBar.obj
 0001:0002a630       ?atlCreate@?$CWindowImpl@VCOPOSBumpBar@@VCWindow@ATL@@V?$CWinTraits@$0FGAAAAAA@$0A@@3@@ATL@@QEAAPEAUHWND__@@PEAU3@V_U_RECT@2@PEB_WKKV_U_MENUorID@2@PEAX@Z 000000018002b630 f i BumpBar.obj
 0001:0002a760       ?atlCreate@?$CWindowImplBaseT@VCWindow@ATL@@V?$CWinTraits@$0FGAAAAAA@$0A@@2@@ATL@@QEAAPEAUHWND__@@PEAU3@V_U_RECT@2@PEB_WKKV_U_MENUorID@2@GPEAX@Z 000000018002b760 f i BumpBar.obj
 0001:0002a9c0       ?atlCreate@CRegKey@ATL@@QEAAJPEAUHKEY__@@PEB_WPEA_WKKPEAU_SECURITY_ATTRIBUTES@@PEAK@Z 000000018002b9c0 f i BumpBar.obj
 0001:0002abb0       ?begin@CComDynamicUnkArray@ATL@@QEAAPEAPEAUIUnknown@@XZ 000000018002bbb0 f i BumpBar.obj
 0001:0002abc0       ?copy@?$_Copy@UtagCONNECTDATA@@@ATL@@SAJPEAUtagCONNECTDATA@@PEBU3@@Z 000000018002bbc0 f i BumpBar.obj
 0001:0002acb0       ?copy@?$_CopyInterface@UIConnectionPoint@@@ATL@@SAJPEAPEAUIConnectionPoint@@PEBQEAU3@@Z 000000018002bcb0 f i BumpBar.obj
 0001:0002ada0       ?destroy@?$_Copy@UtagCONNECTDATA@@@ATL@@SAXPEAUtagCONNECTDATA@@@Z 000000018002bda0 f i BumpBar.obj
 0001:0002adf0       ?destroy@?$_CopyInterface@UIConnectionPoint@@@ATL@@SAXPEAPEAUIConnectionPoint@@@Z 000000018002bdf0 f i BumpBar.obj
 0001:0002ae40       ?end@CComDynamicUnkArray@ATL@@QEAAPEAPEAUIUnknown@@XZ 000000018002be40 f i BumpBar.obj
 0001:0002ae60       ?init@?$_Copy@UtagCONNECTDATA@@@ATL@@SAXPEAUtagCONNECTDATA@@@Z 000000018002be60 f i BumpBar.obj
 0001:0002ae70       ?init@?$_CopyInterface@UIConnectionPoint@@@ATL@@SAXPEAPEAUIConnectionPoint@@@Z 000000018002be70 f i BumpBar.obj
 0001:0002ae80       ?memcpy_s@Checked@ATL@@YAXPEAX_KPEBX1@Z 000000018002be80 f i BumpBar.obj
 0001:0002aee0       ?ocscpy_s@@YA_NPEA_W_KPEB_W@Z 000000018002bee0 f i BumpBar.obj
 0001:0002af60       ?ocslen@@YAHPEB_W@Z        000000018002bf60 f i BumpBar.obj
 0001:0002afa0       ?tcsncpy_s@Checked@ATL@@YAHPEA_W_KPEB_W1@Z 000000018002bfa0 f i BumpBar.obj
 0001:0002b000       ?wcscat_s@Checked@ATL@@YAXPEA_W_KPEB_W@Z 000000018002c000 f i BumpBar.obj
 0001:0002b050       ?wcscpy_s@Checked@ATL@@YAXPEA_W_KPEB_W@Z 000000018002c050 f i BumpBar.obj
 0001:0002b0a0       ?wcsncpy_s@Checked@ATL@@YAHPEA_W_KPEB_W1@Z 000000018002c0a0 f i BumpBar.obj
 0001:0002b100       ?wcsstr@@YAPEA_WPEA_WPEB_W@Z 000000018002c100 f i BumpBar.obj
 0001:0002b140       InlineIsEqualGUID          000000018002c140 f i BumpBar.obj
 0001:0002b210       IsEqualGUID                000000018002c210 f i BumpBar.obj
 0001:0002b270       ??0COPOSBumpBar@@QEAA@XZ   000000018002c270 f   BumpBarImpl.obj
 0001:0002b3f0       ?FinalConstruct@COPOSBumpBar@@QEAAJXZ 000000018002c3f0 f   BumpBarImpl.obj
 0001:0002b4e0       ??1COPOSBumpBar@@UEAA@XZ   000000018002c4e0 f   BumpBarImpl.obj
 0001:0002b5c0       ?WriteTrace@COPOSBumpBar@@QEAAXPEB_WZZ 000000018002c5c0 f   BumpBarImpl.obj
 0001:0002b680       ?WriteTraceString@COPOSBumpBar@@QEAAXPEB_WPEA_W@Z 000000018002c680 f   BumpBarImpl.obj
 0001:0002bac0       ?WriteTraceString@COPOSBumpBar@@QEAAXPEAXHHHPEB_WZZ 000000018002cac0 f   BumpBarImpl.obj
 0001:0002bd50       ?WriteTraceError@COPOSBumpBar@@QEAAXPEB_WK@Z 000000018002cd50 f   BumpBarImpl.obj
 0001:0002be50       ?WriteTraceMethods@COPOSBumpBar@@QEAAXPEAJH@Z 000000018002ce50 f   BumpBarImpl.obj
 0001:0002bee0       ?GetOposProp@COPOSBumpBar@@IEAAJPEBDJPEAJJ@Z 000000018002cee0 f   BumpBarImpl.obj
 0001:0002c200       ?SetOposProp@COPOSBumpBar@@IEAAJPEBDJJJ@Z 000000018002d200 f   BumpBarImpl.obj
 0001:0002c560       ?GetOposProp@COPOSBumpBar@@IEAAJPEBDJPEAFJ@Z 000000018002d560 f   BumpBarImpl.obj
 0001:0002c600       ?SetOposProp@COPOSBumpBar@@IEAAJPEBDJFJ@Z 000000018002d600 f   BumpBarImpl.obj
 0001:0002c680       ?GetOposProp@COPOSBumpBar@@IEAAJPEBDJPEAPEA_WJ@Z 000000018002d680 f   BumpBarImpl.obj
 0001:0002c9a0       ?SetOposProp@COPOSBumpBar@@IEAAJPEBDJPEA_WJ@Z 000000018002d9a0 f   BumpBarImpl.obj
 0001:0002cd80       ?DoInvoke@COPOSBumpBar@@IEAAJPEBDJPEAVOposVariant@@IHPEAJ_N@Z 000000018002dd80 f   BumpBarImpl.obj
 0001:0002d8d0       ?SetCOFreezeEvents@COPOSBumpBar@@IEAAXF@Z 000000018002e8d0 f   BumpBarImpl.obj
 0001:0002da60       ?FreezeEvents@COPOSBumpBar@@MEAAJH@Z 000000018002ea60 f   BumpBarImpl.obj
 0001:0002db90       ?OnDraw@COPOSBumpBar@@MEAAJAEAUATL_DRAWINFO@@@Z 000000018002eb90 f   BumpBarImpl.obj
 0001:0002dd60       ?SOProcessID@COPOSBumpBar@@UEAAJPEAJ@Z 000000018002ed60 f   BumpBarImpl.obj
 0001:0002ddc0       ?get_OpenResult@COPOSBumpBar@@UEAAJPEAJ@Z 000000018002edc0 f   BumpBarImpl.obj
 0001:0002de20       ?get_BinaryConversion@COPOSBumpBar@@UEAAJPEAJ@Z 000000018002ee20 f   BumpBarImpl.obj
 0001:0002de80       ?put_BinaryConversion@COPOSBumpBar@@UEAAJJ@Z 000000018002ee80 f   BumpBarImpl.obj
 0001:0002def0       ?get_CapPowerReporting@COPOSBumpBar@@UEAAJPEAJ@Z 000000018002eef0 f   BumpBarImpl.obj
 0001:0002df50       ?get_CheckHealthText@COPOSBumpBar@@UEAAJPEAPEA_W@Z 000000018002ef50 f   BumpBarImpl.obj
 0001:0002dfb0       ?get_Claimed@COPOSBumpBar@@UEAAJPEAF@Z 000000018002efb0 f   BumpBarImpl.obj
 0001:0002e010       ?get_DataCount@COPOSBumpBar@@UEAAJPEAJ@Z 000000018002f010 f   BumpBarImpl.obj
 0001:0002e070       ?get_DataEventEnabled@COPOSBumpBar@@UEAAJPEAF@Z 000000018002f070 f   BumpBarImpl.obj
 0001:0002e0d0       ?put_DataEventEnabled@COPOSBumpBar@@UEAAJF@Z 000000018002f0d0 f   BumpBarImpl.obj
 0001:0002e130       ?get_DeviceEnabled@COPOSBumpBar@@UEAAJPEAF@Z 000000018002f130 f   BumpBarImpl.obj
 0001:0002e190       ?put_DeviceEnabled@COPOSBumpBar@@UEAAJF@Z 000000018002f190 f   BumpBarImpl.obj
 0001:0002e1f0       ?get_FreezeEvents@COPOSBumpBar@@UEAAJPEAF@Z 000000018002f1f0 f   BumpBarImpl.obj
 0001:0002e250       ?put_FreezeEvents@COPOSBumpBar@@UEAAJF@Z 000000018002f250 f   BumpBarImpl.obj
 0001:0002e330       ?get_OutputID@COPOSBumpBar@@UEAAJPEAJ@Z 000000018002f330 f   BumpBarImpl.obj
 0001:0002e390       ?get_PowerNotify@COPOSBumpBar@@UEAAJPEAJ@Z 000000018002f390 f   BumpBarImpl.obj
 0001:0002e3f0       ?put_PowerNotify@COPOSBumpBar@@UEAAJJ@Z 000000018002f3f0 f   BumpBarImpl.obj
 0001:0002e450       ?get_PowerState@COPOSBumpBar@@UEAAJPEAJ@Z 000000018002f450 f   BumpBarImpl.obj
 0001:0002e4b0       ?get_ResultCode@COPOSBumpBar@@UEAAJPEAJ@Z 000000018002f4b0 f   BumpBarImpl.obj
 0001:0002e580       ?get_ResultCodeExtended@COPOSBumpBar@@UEAAJPEAJ@Z 000000018002f580 f   BumpBarImpl.obj
 0001:0002e5e0       ?get_State@COPOSBumpBar@@UEAAJPEAJ@Z 000000018002f5e0 f   BumpBarImpl.obj
 0001:0002e670       ?get_ControlObjectDescription@COPOSBumpBar@@UEAAJPEAPEA_W@Z 000000018002f670 f   BumpBarImpl.obj
 0001:0002e6f0       ?get_ControlObjectVersion@COPOSBumpBar@@UEAAJPEAJ@Z 000000018002f6f0 f   BumpBarImpl.obj
 0001:0002e750       ?get_ServiceObjectDescription@COPOSBumpBar@@UEAAJPEAPEA_W@Z 000000018002f750 f   BumpBarImpl.obj
 0001:0002e7b0       ?get_ServiceObjectVersion@COPOSBumpBar@@UEAAJPEAJ@Z 000000018002f7b0 f   BumpBarImpl.obj
 0001:0002e810       ?get_DeviceDescription@COPOSBumpBar@@UEAAJPEAPEA_W@Z 000000018002f810 f   BumpBarImpl.obj
 0001:0002e870       ?get_DeviceName@COPOSBumpBar@@UEAAJPEAPEA_W@Z 000000018002f870 f   BumpBarImpl.obj
 0001:0002e8d0       ?CheckHealth@COPOSBumpBar@@UEAAJJPEAJ@Z 000000018002f8d0 f   BumpBarImpl.obj
 0001:0002e990       ?ClaimDevice@COPOSBumpBar@@UEAAJJPEAJ@Z 000000018002f990 f   BumpBarImpl.obj
 0001:0002eab0       ?ClearInput@COPOSBumpBar@@UEAAJPEAJ@Z 000000018002fab0 f   BumpBarImpl.obj
 0001:0002eb20       ?ClearOutput@COPOSBumpBar@@UEAAJPEAJ@Z 000000018002fb20 f   BumpBarImpl.obj
 0001:0002eb90       ?Close@COPOSBumpBar@@UEAAJPEAJ@Z 000000018002fb90 f   BumpBarImpl.obj
 0001:0002eca0       ?DirectIO@COPOSBumpBar@@UEAAJJPEAJPEAPEA_W0@Z 000000018002fca0 f   BumpBarImpl.obj
 0001:0002ee20       ?Open@COPOSBumpBar@@UEAAJPEA_WPEAJ@Z 000000018002fe20 f   BumpBarImpl.obj
 0001:00030300       ?ReleaseDevice@COPOSBumpBar@@UEAAJPEAJ@Z 0000000180031300 f   BumpBarImpl.obj
 0001:000303b0       ?get_AsyncMode@COPOSBumpBar@@UEAAJPEAF@Z 00000001800313b0 f   BumpBarImpl.obj
 0001:00030410       ?put_AsyncMode@COPOSBumpBar@@UEAAJF@Z 0000000180031410 f   BumpBarImpl.obj
 0001:00030470       ?get_AutoToneDuration@COPOSBumpBar@@UEAAJPEAJ@Z 0000000180031470 f   BumpBarImpl.obj
 0001:000304d0       ?put_AutoToneDuration@COPOSBumpBar@@UEAAJJ@Z 00000001800314d0 f   BumpBarImpl.obj
 0001:00030530       ?get_AutoToneFrequency@COPOSBumpBar@@UEAAJPEAJ@Z 0000000180031530 f   BumpBarImpl.obj
 0001:00030590       ?put_AutoToneFrequency@COPOSBumpBar@@UEAAJJ@Z 0000000180031590 f   BumpBarImpl.obj
 0001:000305f0       ?get_BumpBarDataCount@COPOSBumpBar@@UEAAJPEAJ@Z 00000001800315f0 f   BumpBarImpl.obj
 0001:00030650       ?get_CapTone@COPOSBumpBar@@UEAAJPEAF@Z 0000000180031650 f   BumpBarImpl.obj
 0001:000306b0       ?get_CurrentUnitID@COPOSBumpBar@@UEAAJPEAJ@Z 00000001800316b0 f   BumpBarImpl.obj
 0001:00030710       ?put_CurrentUnitID@COPOSBumpBar@@UEAAJJ@Z 0000000180031710 f   BumpBarImpl.obj
 0001:00030770       ?get_ErrorString@COPOSBumpBar@@UEAAJPEAPEA_W@Z 0000000180031770 f   BumpBarImpl.obj
 0001:000307d0       ?get_ErrorUnits@COPOSBumpBar@@UEAAJPEAJ@Z 00000001800317d0 f   BumpBarImpl.obj
 0001:00030830       ?get_EventString@COPOSBumpBar@@UEAAJPEAPEA_W@Z 0000000180031830 f   BumpBarImpl.obj
 0001:00030890       ?get_EventUnitID@COPOSBumpBar@@UEAAJPEAJ@Z 0000000180031890 f   BumpBarImpl.obj
 0001:000308f0       ?get_EventUnits@COPOSBumpBar@@UEAAJPEAJ@Z 00000001800318f0 f   BumpBarImpl.obj
 0001:00030950       ?get_Keys@COPOSBumpBar@@UEAAJPEAJ@Z 0000000180031950 f   BumpBarImpl.obj
 0001:000309b0       ?get_Timeout@COPOSBumpBar@@UEAAJPEAJ@Z 00000001800319b0 f   BumpBarImpl.obj
 0001:00030a10       ?put_Timeout@COPOSBumpBar@@UEAAJJ@Z 0000000180031a10 f   BumpBarImpl.obj
 0001:00030a70       ?get_UnitsOnline@COPOSBumpBar@@UEAAJPEAJ@Z 0000000180031a70 f   BumpBarImpl.obj
 0001:00030ad0       ?BumpBarSound@COPOSBumpBar@@UEAAJJJJJJPEAJ@Z 0000000180031ad0 f   BumpBarImpl.obj
 0001:00030c60       ?SetKeyTranslation@COPOSBumpBar@@UEAAJJJJPEAJ@Z 0000000180031c60 f   BumpBarImpl.obj
 0001:00030dc0       ?get_CapStatisticsReporting@COPOSBumpBar@@UEAAJPEAF@Z 0000000180031dc0 f   BumpBarImpl.obj
 0001:00030e20       ?get_CapUpdateStatistics@COPOSBumpBar@@UEAAJPEAF@Z 0000000180031e20 f   BumpBarImpl.obj
 0001:00030e80       ?ResetStatistics@COPOSBumpBar@@UEAAJPEA_WPEAJ@Z 0000000180031e80 f   BumpBarImpl.obj
 0001:00030f60       ?RetrieveStatistics@COPOSBumpBar@@UEAAJPEAPEA_WPEAJ@Z 0000000180031f60 f   BumpBarImpl.obj
 0001:00031040       ?UpdateStatistics@COPOSBumpBar@@UEAAJPEA_WPEAJ@Z 0000000180032040 f   BumpBarImpl.obj
 0001:00031120       ?get_CapCompareFirmwareVersion@COPOSBumpBar@@UEAAJPEAF@Z 0000000180032120 f   BumpBarImpl.obj
 0001:00031180       ?get_CapUpdateFirmware@COPOSBumpBar@@UEAAJPEAF@Z 0000000180032180 f   BumpBarImpl.obj
 0001:000311e0       ?CompareFirmwareVersion@COPOSBumpBar@@UEAAJPEA_WPEAJ1@Z 00000001800321e0 f   BumpBarImpl.obj
 0001:00031320       ?UpdateFirmware@COPOSBumpBar@@UEAAJPEA_WPEAJ@Z 0000000180032320 f   BumpBarImpl.obj
 0001:00031400       ??0?$CComControl@VCOPOSBumpBar@@V?$CWindowImpl@VCOPOSBumpBar@@VCWindow@ATL@@V?$CWinTraits@$0FGAAAAAA@$0A@@3@@ATL@@@ATL@@QEAA@XZ 0000000180032400 f i BumpBarImpl.obj
 0001:00031450       ??0?$CComPtr@UIAdviseSink@@@ATL@@QEAA@XZ 0000000180032450 f i BumpBarImpl.obj
 0001:00031490       ??0?$CComPtr@UIDataAdviseHolder@@@ATL@@QEAA@XZ 0000000180032490 f i BumpBarImpl.obj
 0001:000314d0       ??0?$CComPtr@UIOleAdviseHolder@@@ATL@@QEAA@XZ 00000001800324d0 f i BumpBarImpl.obj
 0001:00031510       ??0?$CComPtr@UIOleClientSite@@@ATL@@QEAA@XZ 0000000180032510 f i BumpBarImpl.obj
 0001:00031550       ??0?$CComPtr@UIOleInPlaceSiteWindowless@@@ATL@@QEAA@XZ 0000000180032550 f i BumpBarImpl.obj
 0001:00031590       ??0?$CComPtrBase@UIAdviseSink@@@ATL@@IEAA@XZ 0000000180032590 f i BumpBarImpl.obj
 0001:000315b0       ??0?$CComPtrBase@UIDataAdviseHolder@@@ATL@@IEAA@XZ 00000001800325b0 f i BumpBarImpl.obj
 0001:000315d0       ??0?$CComPtrBase@UIOleAdviseHolder@@@ATL@@IEAA@XZ 00000001800325d0 f i BumpBarImpl.obj
 0001:000315f0       ??0?$CComPtrBase@UIOleClientSite@@@ATL@@IEAA@XZ 00000001800325f0 f i BumpBarImpl.obj
 0001:00031610       ??0?$CComPtrBase@UIOleInPlaceSiteWindowless@@@ATL@@IEAA@XZ 0000000180032610 f i BumpBarImpl.obj
 0001:00031630       ??0?$CComQIPtr@UIDispatch@@$1?_GUID_00020400_0000_0000_c000_000000000046@@3U__s_GUID@@B@ATL@@QEAA@XZ 0000000180032630 f i BumpBarImpl.obj
 0001:00031670       ??0?$CProxy_IOPOSEvents@VCOPOSBumpBar@@@@QEAA@PEAVCOPOSBumpBar@@@Z 0000000180032670 f i BumpBarImpl.obj
 0001:00031710       ??0?$CWindowImpl@VCOPOSBumpBar@@VCWindow@ATL@@V?$CWinTraits@$0FGAAAAAA@$0A@@3@@ATL@@QEAA@XZ 0000000180032710 f i BumpBarImpl.obj
 0001:00031750       ??0?$CWindowImplBaseT@VCWindow@ATL@@V?$CWinTraits@$0FGAAAAAA@$0A@@2@@ATL@@QEAA@XZ 0000000180032750 f i BumpBarImpl.obj
 0001:000317a0       ??0?$CWindowImplRoot@VCWindow@ATL@@@ATL@@QEAA@XZ 00000001800327a0 f i BumpBarImpl.obj
 0001:00031810       ??0?$IConnectionPointContainerImpl@VCOPOSBumpBar@@@ATL@@QEAA@XZ 0000000180032810 f i BumpBarImpl.obj
 0001:00031850       ??0?$IConnectionPointImpl@VCOPOSBumpBar@@$1?DIID__IOPOSBumpBarEvents@@3U_GUID@@BVCComDynamicUnkArray@ATL@@@ATL@@QEAA@XZ 0000000180032850 f i BumpBarImpl.obj
 0001:000318a0       ??0?$IConnectionPointImpl@VCOPOSBumpBar@@$1?IID_IPropertyNotifySink@@3U_GUID@@BVCComDynamicUnkArray@ATL@@@ATL@@QEAA@XZ 00000001800328a0 f i BumpBarImpl.obj
 0001:000318f0       ??0?$IDataObjectImpl@VCOPOSBumpBar@@@ATL@@QEAA@XZ 00000001800328f0 f i BumpBarImpl.obj
 0001:00031930       ??0?$IDispatchImpl@UIOPOSBumpBar@@$1?IID_IOPOSBumpBar@@3U_GUID@@B$1?LIBID_OposBumpBar_CCO@@3U3@B$00$0A@VCComTypeInfoHolder@ATL@@@ATL@@QEAA@XZ 0000000180032930 f i BumpBarImpl.obj
 0001:00031970       ??0?$IObjectSafetyImpl@VCOPOSBumpBar@@$02@ATL@@QEAA@XZ 0000000180032970 f i BumpBarImpl.obj
 0001:000319b0       ??0?$IOleControlImpl@VCOPOSBumpBar@@@ATL@@QEAA@XZ 00000001800329b0 f i BumpBarImpl.obj
 0001:000319f0       ??0?$IOleInPlaceActiveObjectImpl@VCOPOSBumpBar@@@ATL@@QEAA@XZ 00000001800329f0 f i BumpBarImpl.obj
 0001:00031a30       ??0?$IOleInPlaceObjectWindowlessImpl@VCOPOSBumpBar@@@ATL@@QEAA@XZ 0000000180032a30 f i BumpBarImpl.obj
 0001:00031a70       ??0?$IOleObjectImpl@VCOPOSBumpBar@@@ATL@@QEAA@XZ 0000000180032a70 f i BumpBarImpl.obj
 0001:00031ab0       ??0?$IPersistStorageImpl@VCOPOSBumpBar@@@ATL@@QEAA@XZ 0000000180032ab0 f i BumpBarImpl.obj
 0001:00031af0       ??0?$IPersistStreamInitImpl@VCOPOSBumpBar@@@ATL@@QEAA@XZ 0000000180032af0 f i BumpBarImpl.obj
 0001:00031b30       ??0?$IPropertyNotifySinkCP@VCOPOSBumpBar@@VCComDynamicUnkArray@ATL@@@ATL@@QEAA@XZ 0000000180032b30 f i BumpBarImpl.obj
 0001:00031b70       ??0?$IProvideClassInfo2Impl@$1?CLSID_OPOSBumpBar@@3U_GUID@@B$1?DIID__IOPOSBumpBarEvents@@3U2@B$1?LIBID_OposBumpBar_CCO@@3U2@B$00$0A@VCComTypeInfoHolder@ATL@@@ATL@@QEAA@XZ 0000000180032b70 f i BumpBarImpl.obj
 0001:00031bb0       ??0?$IQuickActivateImpl@VCOPOSBumpBar@@@ATL@@QEAA@XZ 0000000180032bb0 f i BumpBarImpl.obj
 0001:00031bf0       ??0?$ISpecifyPropertyPagesImpl@VCOPOSBumpBar@@@ATL@@QEAA@XZ 0000000180032bf0 f i BumpBarImpl.obj
 0001:00031c30       ??0?$IViewObjectExImpl@VCOPOSBumpBar@@@ATL@@QEAA@XZ 0000000180032c30 f i BumpBarImpl.obj
 0001:00031c70       ??0?$_ICPLocator@$1?DIID__IOPOSBumpBarEvents@@3U_GUID@@B@ATL@@QEAA@XZ 0000000180032c70 f i BumpBarImpl.obj
 0001:00031c80       ??0?$_ICPLocator@$1?IID_IPropertyNotifySink@@3U_GUID@@B@ATL@@QEAA@XZ 0000000180032c80 f i BumpBarImpl.obj
 0001:00031c90       ??0CComControlBase@ATL@@QEAA@AEAPEAUHWND__@@@Z 0000000180032c90 f i BumpBarImpl.obj
 0001:00031eb0       ??0CComDynamicUnkArray@ATL@@QEAA@XZ 0000000180032eb0 f i BumpBarImpl.obj
 0001:00031ee0       ??0CDynamicStdCallThunk2@ATL@@QEAA@XZ 0000000180032ee0 f i BumpBarImpl.obj
 0001:00031f00       ??0CMessageMap@ATL@@QEAA@XZ 0000000180032f00 f i BumpBarImpl.obj
 0001:00031f10       ??0CWindow@ATL@@QEAA@PEAUHWND__@@@Z 0000000180032f10 f i BumpBarImpl.obj
 0001:00031f30       ??0CWndProcThunk@ATL@@QEAA@XZ 0000000180032f30 f i BumpBarImpl.obj
 0001:00031f70       ??0IConnectionPointContainer@@QEAA@XZ 0000000180032f70 f i BumpBarImpl.obj
 0001:00031fb0       ??0IDataObject@@QEAA@XZ    0000000180032fb0 f i BumpBarImpl.obj
 0001:00031ff0       ??0IDispatch@@QEAA@XZ      0000000180032ff0 f i BumpBarImpl.obj
 0001:00032030       ??0IOPOSBumpBar@@QEAA@XZ   0000000180033030 f i BumpBarImpl.obj
 0001:00032070       ??0IOPOSBumpBar_1_5@@QEAA@XZ 0000000180033070 f i BumpBarImpl.obj
 0001:000320b0       ??0IOPOSBumpBar_1_8@@QEAA@XZ 00000001800330b0 f i BumpBarImpl.obj
 0001:000320f0       ??0IOPOSBumpBar_1_9@@QEAA@XZ 00000001800330f0 f i BumpBarImpl.obj
 0001:00032130       ??0IObjectSafety@@QEAA@XZ  0000000180033130 f i BumpBarImpl.obj
 0001:00032170       ??0IOleControl@@QEAA@XZ    0000000180033170 f i BumpBarImpl.obj
 0001:000321b0       ??0IOleInPlaceActiveObject@@QEAA@XZ 00000001800331b0 f i BumpBarImpl.obj
 0001:000321f0       ??0IOleInPlaceObject@@QEAA@XZ 00000001800331f0 f i BumpBarImpl.obj
 0001:00032230       ??0IOleInPlaceObjectWindowless@@QEAA@XZ 0000000180033230 f i BumpBarImpl.obj
 0001:00032270       ??0IOleObject@@QEAA@XZ     0000000180033270 f i BumpBarImpl.obj
 0001:000322b0       ??0IOleWindow@@QEAA@XZ     00000001800332b0 f i BumpBarImpl.obj
 0001:000322f0       ??0IPersist@@QEAA@XZ       00000001800332f0 f i BumpBarImpl.obj
 0001:00032330       ??0IPersistStorage@@QEAA@XZ 0000000180033330 f i BumpBarImpl.obj
 0001:00032370       ??0IPersistStreamInit@@QEAA@XZ 0000000180033370 f i BumpBarImpl.obj
 0001:000323b0       ??0IProvideClassInfo2@@QEAA@XZ 00000001800333b0 f i BumpBarImpl.obj
 0001:000323f0       ??0IProvideClassInfo@@QEAA@XZ 00000001800333f0 f i BumpBarImpl.obj
 0001:00032430       ??0IQuickActivate@@QEAA@XZ 0000000180033430 f i BumpBarImpl.obj
 0001:00032470       ??0ISpecifyPropertyPages@@QEAA@XZ 0000000180033470 f i BumpBarImpl.obj
 0001:000324b0       ??0IViewObject2@@QEAA@XZ   00000001800334b0 f i BumpBarImpl.obj
 0001:000324f0       ??0IViewObject@@QEAA@XZ    00000001800334f0 f i BumpBarImpl.obj
 0001:00032530       ??0IViewObjectEx@@QEAA@XZ  0000000180033530 f i BumpBarImpl.obj
 0001:00032570       ??0OposVariantResult@@QEAA@XZ 0000000180033570 f i BumpBarImpl.obj
 0001:000325b0       ??0_CW@@QEAA@PEBD@Z        00000001800335b0 f i BumpBarImpl.obj
 0001:00032600       ??0_CW@@QEAA@PEB_W@Z       0000000180033600 f i BumpBarImpl.obj
 0001:00032650       ??0_CWNCC@@QEAA@PEBD@Z     0000000180033650 f i BumpBarImpl.obj
 0001:00032690       ??1?$CComControl@VCOPOSBumpBar@@V?$CWindowImpl@VCOPOSBumpBar@@VCWindow@ATL@@V?$CWinTraits@$0FGAAAAAA@$0A@@3@@ATL@@@ATL@@UEAA@XZ 0000000180033690 f i BumpBarImpl.obj
 0001:000326d0       ??1?$CComPtr@UIDataAdviseHolder@@@ATL@@QEAA@XZ 00000001800336d0 f i BumpBarImpl.obj
 0001:00032700       ??1?$CComPtr@UIOleAdviseHolder@@@ATL@@QEAA@XZ 0000000180033700 f i BumpBarImpl.obj
 0001:00032730       ??1?$CComPtr@UIOleInPlaceSiteWindowless@@@ATL@@QEAA@XZ 0000000180033730 f i BumpBarImpl.obj
 0001:00032760       ??1?$CComPtrBase@UIDataAdviseHolder@@@ATL@@QEAA@XZ 0000000180033760 f i BumpBarImpl.obj
 0001:000327b0       ??1?$CComPtrBase@UIOleAdviseHolder@@@ATL@@QEAA@XZ 00000001800337b0 f i BumpBarImpl.obj
 0001:00032800       ??1?$CComPtrBase@UIOleInPlaceSiteWindowless@@@ATL@@QEAA@XZ 0000000180033800 f i BumpBarImpl.obj
 0001:00032850       ??1?$CComQIPtr@UIDispatch@@$1?_GUID_00020400_0000_0000_c000_000000000046@@3U__s_GUID@@B@ATL@@QEAA@XZ 0000000180033850 f i BumpBarImpl.obj
 0001:00032880       ??1?$CProxy_IOPOSEvents@VCOPOSBumpBar@@@@QEAA@XZ 0000000180033880 f i BumpBarImpl.obj
 0001:000328b0       ??1?$CWindowImpl@VCOPOSBumpBar@@VCWindow@ATL@@V?$CWinTraits@$0FGAAAAAA@$0A@@3@@ATL@@UEAA@XZ 00000001800338b0 f i BumpBarImpl.obj
 0001:000328e0       ??1?$CWindowImplBaseT@VCWindow@ATL@@V?$CWinTraits@$0FGAAAAAA@$0A@@2@@ATL@@UEAA@XZ 00000001800338e0 f i BumpBarImpl.obj
 0001:00032910       ??1?$CWindowImplRoot@VCWindow@ATL@@@ATL@@UEAA@XZ 0000000180033910 f i BumpBarImpl.obj
 0001:000329d0       ??1?$IConnectionPointImpl@VCOPOSBumpBar@@$1?DIID__IOPOSBumpBarEvents@@3U_GUID@@BVCComDynamicUnkArray@ATL@@@ATL@@QEAA@XZ 00000001800339d0 f i BumpBarImpl.obj
 0001:00032a70       ??1?$IConnectionPointImpl@VCOPOSBumpBar@@$1?IID_IPropertyNotifySink@@3U_GUID@@BVCComDynamicUnkArray@ATL@@@ATL@@QEAA@XZ 0000000180033a70 f i BumpBarImpl.obj
 0001:00032b10       ??1?$IPropertyNotifySinkCP@VCOPOSBumpBar@@VCComDynamicUnkArray@ATL@@@ATL@@QEAA@XZ 0000000180033b10 f i BumpBarImpl.obj
 0001:00032b40       ??1CComControlBase@ATL@@UEAA@XZ 0000000180033b40 f i BumpBarImpl.obj
 0001:00032c30       ??1CComDynamicUnkArray@ATL@@QEAA@XZ 0000000180033c30 f i BumpBarImpl.obj
 0001:00032c70       ??1CDynamicStdCallThunk2@ATL@@QEAA@XZ 0000000180033c70 f i BumpBarImpl.obj
 0001:00032cb0       ??1CWndProcThunk@ATL@@QEAA@XZ 0000000180033cb0 f i BumpBarImpl.obj
 0001:00032cf0       ??1OposVariantResult@@QEAA@XZ 0000000180033cf0 f i BumpBarImpl.obj
 0001:00032d30       ??1_CW@@QEAA@XZ            0000000180033d30 f i BumpBarImpl.obj
 0001:00032db0       ??1_CWNCC@@QEAA@XZ         0000000180033db0 f i BumpBarImpl.obj
 0001:00032de0       ??B_CW@@QEAAPEB_WXZ        0000000180033de0 f i BumpBarImpl.obj
 0001:00032e30       ??B_CWNCC@@QEAAPEA_WXZ     0000000180033e30 f i BumpBarImpl.obj
 0001:00032e60       ??_EOposVariant@@QEAAPEAXI@Z 0000000180033e60 f i BumpBarImpl.obj
 0001:00032f10       ?EventClaim@COPOSBumpBar@@IEAAXXZ 0000000180033f10 f i BumpBarImpl.obj
 0001:00032f60       ?EventClose@COPOSBumpBar@@IEAAXXZ 0000000180033f60 f i BumpBarImpl.obj
 0001:00033000       ?EventInit@COPOSBumpBar@@IEAAJXZ 0000000180034000 f i BumpBarImpl.obj
 0001:000332b0       ?EventOpen@COPOSBumpBar@@IEAAXXZ 00000001800342b0 f i BumpBarImpl.obj
 0001:000332f0       ?EventPreCloseRelease@COPOSBumpBar@@IEAAXXZ 00000001800342f0 f i BumpBarImpl.obj
 0001:00033370       ?EventUninit@COPOSBumpBar@@IEAAXXZ 0000000180034370 f i BumpBarImpl.obj
 0001:000334a0       ?EventWindowProc@COPOSBumpBar@@IEAA_JI_K_J@Z 00000001800344a0 f i BumpBarImpl.obj
 0001:000336d0       ?FireEventCleanup@COPOSBumpBar@@IEAAXXZ 00000001800346d0 f i BumpBarImpl.obj
 0001:00033720       ?FireEventSetup@COPOSBumpBar@@IEAA_NXZ 0000000180034720 f i BumpBarImpl.obj
 0001:000337a0       ?GetModuleInstance@CComModule@ATL@@QEAAPEAUHINSTANCE__@@XZ 00000001800347a0 f i BumpBarImpl.obj
 0001:000337b0       ?SetRC@COPOSBumpBar@@IEAAJJ@Z 00000001800347b0 f i BumpBarImpl.obj
 0001:000337d0       ?s_EventWindowProc@COPOSBumpBar@@KA_JPEAUHWND__@@I_K_J@Z 00000001800347d0 f i BumpBarImpl.obj
 0001:00033880       _snwprintf                 0000000180034880 f i BumpBarImpl.obj
 0001:00033910       _vfwprintf_l               0000000180034910 f i BumpBarImpl.obj
 0001:00033970       _vsnwprintf                0000000180034970 f i BumpBarImpl.obj
 0001:000339d0       _vsnwprintf_l              00000001800349d0 f i BumpBarImpl.obj
 0001:00033a60       vfwprintf                  0000000180034a60 f i BumpBarImpl.obj
 0001:00033aa5       DebugBreak                 0000000180034aa5 f   kernel32:KERNEL32.dll
 0001:00033aab       Sleep                      0000000180034aab f   kernel32:KERNEL32.dll
 0001:00033ab1       GetCurrentProcess          0000000180034ab1 f   kernel32:KERNEL32.dll
 0001:00033ab7       TerminateProcess           0000000180034ab7 f   kernel32:KERNEL32.dll
 0001:00033abd       MultiByteToWideChar        0000000180034abd f   kernel32:KERNEL32.dll
 0001:00033ac3       WideCharToMultiByte        0000000180034ac3 f   kernel32:KERNEL32.dll
 0001:00033ac9       DecodePointer              0000000180034ac9 f   kernel32:KERNEL32.dll
 0001:00033acf       RaiseException             0000000180034acf f   kernel32:KERNEL32.dll
 0001:00033ad5       GetLastError               0000000180034ad5 f   kernel32:KERNEL32.dll
 0001:00033adb       SetLastError               0000000180034adb f   kernel32:KERNEL32.dll
 0001:00033ae1       InitializeCriticalSectionEx 0000000180034ae1 f   kernel32:KERNEL32.dll
 0001:00033ae7       DeleteCriticalSection      0000000180034ae7 f   kernel32:KERNEL32.dll
 0001:00033aed       EncodePointer              0000000180034aed f   kernel32:KERNEL32.dll
 0001:00033af3       EnterCriticalSection       0000000180034af3 f   kernel32:KERNEL32.dll
 0001:00033af9       LeaveCriticalSection       0000000180034af9 f   kernel32:KERNEL32.dll
 0001:00033aff       ResetEvent                 0000000180034aff f   kernel32:KERNEL32.dll
 0001:00033b05       ReleaseMutex               0000000180034b05 f   kernel32:KERNEL32.dll
 0001:00033b0b       WaitForSingleObject        0000000180034b0b f   kernel32:KERNEL32.dll
 0001:00033b11       GetCurrentThreadId         0000000180034b11 f   kernel32:KERNEL32.dll
 0001:00033b17       DisableThreadLibraryCalls  0000000180034b17 f   kernel32:KERNEL32.dll
 0001:00033b1d       FreeLibrary                0000000180034b1d f   kernel32:KERNEL32.dll
 0001:00033b23       GetModuleFileNameW         0000000180034b23 f   kernel32:KERNEL32.dll
 0001:00033b29       GetModuleHandleW           0000000180034b29 f   kernel32:KERNEL32.dll
 0001:00033b2f       GetProcAddress             0000000180034b2f f   kernel32:KERNEL32.dll
 0001:00033b35       LoadLibraryExW             0000000180034b35 f   kernel32:KERNEL32.dll
 0001:00033b3b       LoadResource               0000000180034b3b f   kernel32:KERNEL32.dll
 0001:00033b41       SizeofResource             0000000180034b41 f   kernel32:KERNEL32.dll
 0001:00033b47       FindResourceW              0000000180034b47 f   kernel32:KERNEL32.dll
 0001:00033b4d       GlobalAlloc                0000000180034b4d f   kernel32:KERNEL32.dll
 0001:00033b53       GlobalUnlock               0000000180034b53 f   kernel32:KERNEL32.dll
 0001:00033b59       GlobalLock                 0000000180034b59 f   kernel32:KERNEL32.dll
 0001:00033b5f       MulDiv                     0000000180034b5f f   kernel32:KERNEL32.dll
 0001:00033b65       lstrcmpiW                  0000000180034b65 f   kernel32:KERNEL32.dll
 0001:00033b6b       DeleteFileW                0000000180034b6b f   kernel32:KERNEL32.dll
 0001:00033b71       CloseHandle                0000000180034b71 f   kernel32:KERNEL32.dll
 0001:00033b77       SetEvent                   0000000180034b77 f   kernel32:KERNEL32.dll
 0001:00033b7d       CreateMutexW               0000000180034b7d f   kernel32:KERNEL32.dll
 0001:00033b83       CreateEventW               0000000180034b83 f   kernel32:KERNEL32.dll
 0001:00033b89       GetCurrentProcessId        0000000180034b89 f   kernel32:KERNEL32.dll
 0001:00033b8f       LocalFree                  0000000180034b8f f   kernel32:KERNEL32.dll
 0001:00033b95       FormatMessageW             0000000180034b95 f   kernel32:KERNEL32.dll
 0001:00033b9b       GetActiveWindow            0000000180034b9b f   user32:USER32.dll
 0001:00033ba1       MessageBoxW                0000000180034ba1 f   user32:USER32.dll
 0001:00033ba7       UnregisterClassW           0000000180034ba7 f   user32:USER32.dll
 0001:00033bad       PostMessageW               0000000180034bad f   user32:USER32.dll
 0001:00033bb3       DefWindowProcW             0000000180034bb3 f   user32:USER32.dll
 0001:00033bb9       CallWindowProcW            0000000180034bb9 f   user32:USER32.dll
 0001:00033bbf       RegisterClassExW           0000000180034bbf f   user32:USER32.dll
 0001:00033bc5       GetClassInfoExW            0000000180034bc5 f   user32:USER32.dll
 0001:00033bcb       CreateWindowExW            0000000180034bcb f   user32:USER32.dll
 0001:00033bd1       IsWindow                   0000000180034bd1 f   user32:USER32.dll
 0001:00033bd7       IsChild                    0000000180034bd7 f   user32:USER32.dll
 0001:00033bdd       DestroyWindow              0000000180034bdd f   user32:USER32.dll
 0001:00033be3       ShowWindow                 0000000180034be3 f   user32:USER32.dll
 0001:00033be9       SetWindowPos               0000000180034be9 f   user32:USER32.dll
 0001:00033bef       CharNextW                  0000000180034bef f   user32:USER32.dll
 0001:00033bf5       SetFocus                   0000000180034bf5 f   user32:USER32.dll
 0001:00033bfb       GetFocus                   0000000180034bfb f   user32:USER32.dll
 0001:00033c01       GetKeyState                0000000180034c01 f   user32:USER32.dll
 0001:00033c07       GetDC                      0000000180034c07 f   user32:USER32.dll
 0001:00033c0d       ReleaseDC                  0000000180034c0d f   user32:USER32.dll
 0001:00033c13       BeginPaint                 0000000180034c13 f   user32:USER32.dll
 0001:00033c19       EndPaint                   0000000180034c19 f   user32:USER32.dll
 0001:00033c1f       SetWindowRgn               0000000180034c1f f   user32:USER32.dll
 0001:00033c25       InvalidateRect             0000000180034c25 f   user32:USER32.dll
 0001:00033c2b       GetClientRect              0000000180034c2b f   user32:USER32.dll
 0001:00033c31       IntersectRect              0000000180034c31 f   user32:USER32.dll
 0001:00033c37       UnionRect                  0000000180034c37 f   user32:USER32.dll
 0001:00033c3d       OffsetRect                 0000000180034c3d f   user32:USER32.dll
 0001:00033c43       EqualRect                  0000000180034c43 f   user32:USER32.dll
 0001:00033c49       PtInRect                   0000000180034c49 f   user32:USER32.dll
 0001:00033c4f       GetWindowLongPtrW          0000000180034c4f f   user32:USER32.dll
 0001:00033c55       SetWindowLongPtrW          0000000180034c55 f   user32:USER32.dll
 0001:00033c5b       GetParent                  0000000180034c5b f   user32:USER32.dll
 0001:00033c61       LoadCursorW                0000000180034c61 f   user32:USER32.dll
 0001:00033c67       PeekMessageW               0000000180034c67 f   user32:USER32.dll
 0001:00033c6d       RegisterClassW             0000000180034c6d f   user32:USER32.dll
 0001:00033c73       LoadBitmapW                0000000180034c73 f   user32:USER32.dll
 0001:00033c79       CloseMetaFile              0000000180034c79 f   gdi32:GDI32.dll
 0001:00033c7f       CreateDCW                  0000000180034c7f f   gdi32:GDI32.dll
 0001:00033c85       CreateMetaFileW            0000000180034c85 f   gdi32:GDI32.dll
 0001:00033c8b       CreateRectRgnIndirect      0000000180034c8b f   gdi32:GDI32.dll
 0001:00033c91       DeleteDC                   0000000180034c91 f   gdi32:GDI32.dll
 0001:00033c97       DeleteMetaFile             0000000180034c97 f   gdi32:GDI32.dll
 0001:00033c9d       GetDeviceCaps              0000000180034c9d f   gdi32:GDI32.dll
 0001:00033ca3       RestoreDC                  0000000180034ca3 f   gdi32:GDI32.dll
 0001:00033ca9       SaveDC                     0000000180034ca9 f   gdi32:GDI32.dll
 0001:00033caf       SetMapMode                 0000000180034caf f   gdi32:GDI32.dll
 0001:00033cb5       LPtoDP                     0000000180034cb5 f   gdi32:GDI32.dll
 0001:00033cbb       SetViewportOrgEx           0000000180034cbb f   gdi32:GDI32.dll
 0001:00033cc1       SetWindowExtEx             0000000180034cc1 f   gdi32:GDI32.dll
 0001:00033cc7       SetWindowOrgEx             0000000180034cc7 f   gdi32:GDI32.dll
 0001:00033ccd       BitBlt                     0000000180034ccd f   gdi32:GDI32.dll
 0001:00033cd3       CreateCompatibleDC         0000000180034cd3 f   gdi32:GDI32.dll
 0001:00033cd9       DeleteObject               0000000180034cd9 f   gdi32:GDI32.dll
 0001:00033cdf       SelectObject               0000000180034cdf f   gdi32:GDI32.dll
 0001:00033ce5       GetObjectW                 0000000180034ce5 f   gdi32:GDI32.dll
 0001:00033ceb       RegCloseKey                0000000180034ceb f   advapi32:ADVAPI32.dll
 0001:00033cf1       RegCreateKeyExW            0000000180034cf1 f   advapi32:ADVAPI32.dll
 0001:00033cf7       RegDeleteKeyW              0000000180034cf7 f   advapi32:ADVAPI32.dll
 0001:00033cfd       RegDeleteValueW            0000000180034cfd f   advapi32:ADVAPI32.dll
 0001:00033d03       RegEnumKeyExW              0000000180034d03 f   advapi32:ADVAPI32.dll
 0001:00033d09       RegOpenKeyExW              0000000180034d09 f   advapi32:ADVAPI32.dll
 0001:00033d0f       RegQueryInfoKeyW           0000000180034d0f f   advapi32:ADVAPI32.dll
 0001:00033d15       RegSetValueExW             0000000180034d15 f   advapi32:ADVAPI32.dll
 0001:00033d1b       RegQueryValueExW           0000000180034d1b f   advapi32:ADVAPI32.dll
 0001:00033d21       CoCreateInstance           0000000180034d21 f   ole32:ole32.dll
 0001:00033d27       StringFromGUID2            0000000180034d27 f   ole32:ole32.dll
 0001:00033d2d       CoTaskMemAlloc             0000000180034d2d f   ole32:ole32.dll
 0001:00033d33       CoTaskMemRealloc           0000000180034d33 f   ole32:ole32.dll
 0001:00033d39       CoTaskMemFree              0000000180034d39 f   ole32:ole32.dll
 0001:00033d3f       ReadClassStm               0000000180034d3f f   ole32:ole32.dll
 0001:00033d45       WriteClassStm              0000000180034d45 f   ole32:ole32.dll
 0001:00033d4b       CreateDataAdviseHolder     0000000180034d4b f   ole32:ole32.dll
 0001:00033d51       OleSaveToStream            0000000180034d51 f   ole32:ole32.dll
 0001:00033d57       CreateOleAdviseHolder      0000000180034d57 f   ole32:ole32.dll
 0001:00033d5d       OleRegGetUserType          0000000180034d5d f   ole32:ole32.dll
 0001:00033d63       OleRegGetMiscStatus        0000000180034d63 f   ole32:ole32.dll
 0001:00033d69       OleRegEnumVerbs            0000000180034d69 f   ole32:ole32.dll
 0001:00033d6f       CLSIDFromProgID            0000000180034d6f f   ole32:ole32.dll
 0001:00033d75       SysAllocString             0000000180034d75 f   oleaut32:OLEAUT32.dll
 0001:00033d7b       SysAllocStringLen          0000000180034d7b f   oleaut32:OLEAUT32.dll
 0001:00033d81       SysFreeString              0000000180034d81 f   oleaut32:OLEAUT32.dll
 0001:00033d87       SysStringLen               0000000180034d87 f   oleaut32:OLEAUT32.dll
 0001:00033d8d       VariantClear               0000000180034d8d f   oleaut32:OLEAUT32.dll
 0001:00033d93       VariantCopyInd             0000000180034d93 f   oleaut32:OLEAUT32.dll
 0001:00033d99       VariantChangeType          0000000180034d99 f   oleaut32:OLEAUT32.dll
 0001:00033d9f       SysStringByteLen           0000000180034d9f f   oleaut32:OLEAUT32.dll
 0001:00033da5       SysAllocStringByteLen      0000000180034da5 f   oleaut32:OLEAUT32.dll
 0001:00033dab       VariantInit                0000000180034dab f   oleaut32:OLEAUT32.dll
 0001:00033db1       VarUI4FromStr              0000000180034db1 f   oleaut32:OLEAUT32.dll
 0001:00033db7       LoadTypeLib                0000000180034db7 f   oleaut32:OLEAUT32.dll
 0001:00033dbd       LoadRegTypeLib             0000000180034dbd f   oleaut32:OLEAUT32.dll
 0001:00033dc3       RegisterTypeLib            0000000180034dc3 f   oleaut32:OLEAUT32.dll
 0001:00033dc9       UnRegisterTypeLib          0000000180034dc9 f   oleaut32:OLEAUT32.dll
 0001:00033dcf       OleCreatePropertyFrame     0000000180034dcf f   oleaut32:OLEAUT32.dll
 0001:00033de0       _RTC_AllocaHelper          0000000180034de0 f   LIBCMTD:stack.obj
 0001:00033e20       _RTC_CheckStackVars        0000000180034e20 f   LIBCMTD:stack.obj
 0001:00033eb0       _RTC_CheckStackVars2       0000000180034eb0 f   LIBCMTD:stack.obj
 0001:00033fc0       _CRT_RTC_INIT              0000000180034fc0 f   LIBCMTD:init.obj
 0001:00033fd0       _CRT_RTC_INITW             0000000180034fd0 f   LIBCMTD:init.obj
 0001:00033fe0       _RTC_InitBase              0000000180034fe0 f   LIBCMTD:init.obj
 0001:00034020       _RTC_Shutdown              0000000180035020 f   LIBCMTD:init.obj
 0001:00034050       __GSHandlerCheck           0000000180035050 f   LIBCMTD:gshandler.obj
 0001:00034090       __GSHandlerCheckCommon     0000000180035090 f   LIBCMTD:gshandler.obj
 0001:000341a0       __security_check_cookie    00000001800351a0 f   LIBCMTD:amdsecgs.obj
 0001:000341d0       ??_U@YAPEAX_K@Z            00000001800351d0 f   LIBCMTD:new_array.obj
 0001:000341f0       ??3@YAXPEAX_K@Z            00000001800351f0 f   LIBCMTD:delete_scalar_size.obj
 0001:00034210       ??_V@YAXPEAX@Z             0000000180035210 f   LIBCMTD:delete_array.obj
 0001:00034230       ??_V@YAXPEAX_K@Z           0000000180035230 f   LIBCMTD:delete_array_size.obj
 0001:00034250       ?configure_argv@__scrt_narrow_argv_policy@@SAHXZ 0000000180035250 f i LIBCMTD:utility.obj
 0001:00034340       ?initialize_environment@__scrt_narrow_environment_policy@@SAHXZ 0000000180035340 f i LIBCMTD:utility.obj
 0001:000343e0       NtCurrentTeb               00000001800353e0 f i LIBCMTD:utility.obj
 0001:000343f0       __scrt_acquire_startup_lock 00000001800353f0 f   LIBCMTD:utility.obj
 0001:00034460       __scrt_dllmain_after_initialize_c 0000000180035460 f   LIBCMTD:utility.obj
 0001:00034490       __scrt_dllmain_before_initialize_c 0000000180035490 f   LIBCMTD:utility.obj
 0001:000344b0       __scrt_dllmain_crt_thread_attach 00000001800354b0 f   LIBCMTD:utility.obj
 0001:000344e0       __scrt_dllmain_crt_thread_detach 00000001800354e0 f   LIBCMTD:utility.obj
 0001:00034500       __scrt_dllmain_exception_filter 0000000180035500 f   LIBCMTD:utility.obj
 0001:00034570       __scrt_dllmain_uninitialize_c 0000000180035570 f   LIBCMTD:utility.obj
 0001:000345a0       __scrt_dllmain_uninitialize_critical 00000001800355a0 f   LIBCMTD:utility.obj
 0001:000345c0       __scrt_initialize_crt      00000001800355c0 f   LIBCMTD:utility.obj
 0001:00034610       __scrt_initialize_onexit_tables 0000000180035610 f   LIBCMTD:utility.obj
 0001:00034720       __scrt_is_nonwritable_in_current_image 0000000180035720 f   LIBCMTD:utility.obj
 0001:000347b0       __scrt_release_startup_lock 00000001800357b0 f   LIBCMTD:utility.obj
 0001:000347e0       __scrt_uninitialize_crt    00000001800357e0 f   LIBCMTD:utility.obj
 0001:00034820       _onexit                    0000000180035820 f   LIBCMTD:utility.obj
 0001:000348a0       at_quick_exit              00000001800358a0 f   LIBCMTD:utility.obj
 0001:000348f0       atexit                     00000001800358f0 f   LIBCMTD:utility.obj
 0001:00034930       ??3@YAXPEAX@Z              0000000180035930 f   LIBCMTD:delete_scalar.obj
 0001:00034950       __raise_securityfailure    0000000180035950 f   LIBCMTD:gs_report.obj
 0001:00034990       __report_gsfailure         0000000180035990 f   LIBCMTD:gs_report.obj
 0001:00034a70       __report_rangecheckfailure 0000000180035a70 f   LIBCMTD:gs_report.obj
 0001:00034a90       __report_securityfailure   0000000180035a90 f   LIBCMTD:gs_report.obj
 0001:00034b30       __report_securityfailureEx 0000000180035b30 f   LIBCMTD:gs_report.obj
 0001:00034ef0       _Init_thread_abort         0000000180035ef0 f   LIBCMTD:thread_safe_statics.obj
 0001:00034f20       _Init_thread_footer        0000000180035f20 f   LIBCMTD:thread_safe_statics.obj
 0001:00034f80       _Init_thread_header        0000000180035f80 f   LIBCMTD:thread_safe_statics.obj
 0001:00035010       _Init_thread_lock          0000000180036010 f   LIBCMTD:thread_safe_statics.obj
 0001:00035030       _Init_thread_notify        0000000180036030 f   LIBCMTD:thread_safe_statics.obj
 0001:00035090       _Init_thread_unlock        0000000180036090 f   LIBCMTD:thread_safe_statics.obj
 0001:000350b0       _Init_thread_wait          00000001800360b0 f   LIBCMTD:thread_safe_statics.obj
 0001:00035160       ??2@YAPEAX_KAEBUnothrow_t@std@@@Z 0000000180036160 f   LIBCMTD:new_scalar_nothrow.obj
 0001:000351a0       ??_U@YAPEAX_KAEBUnothrow_t@std@@@Z 00000001800361a0 f   LIBCMTD:new_array_nothrow.obj
 0001:000351d0       __GSHandlerCheck_SEH       00000001800361d0 f   LIBCMTD:gshandlerseh.obj
 0001:000352a0       _alloca_probe              00000001800362a0 f   LIBCMTD:chkstk.obj
 0001:000352a0       __chkstk                   00000001800362a0 f   LIBCMTD:chkstk.obj
 0001:00035710       _CRT_INIT                  0000000180036710 f   LIBCMTD:dll_dllmain.obj
 0001:00035740       _DllMainCRTStartup         0000000180036740 f   LIBCMTD:dll_dllmain.obj
 0001:00035810       ?_RTC_AllocaFailure@@YAXPEAXPEAU_RTC_ALLOCA_NODE@@H@Z 0000000180036810 f   LIBCMTD:error.obj
 0001:00035970       ?_RTC_Failure@@YAXPEAXH@Z  0000000180036970 f   LIBCMTD:error.obj
 0001:000359c0       ?_RTC_StackFailure@@YAXPEAXPEBD@Z 00000001800369c0 f   LIBCMTD:error.obj
 0001:00035df0       _RTC_UninitUse             0000000180036df0 f   LIBCMTD:error.obj
 0001:00035ec0       _vsprintf_s_l              0000000180036ec0 f i LIBCMTD:error.obj
 0001:00035f30       sprintf_s                  0000000180036f30 f i LIBCMTD:error.obj
 0001:00035f60       ?_RTC_GetErrorFunc@@YAP6AHHPEBDH00ZZPEBX@Z 0000000180036f60 f   LIBCMTD:userapi.obj
 0001:00035f70       ?_RTC_GetErrorFuncW@@YAP6AHHPEB_WH00ZZPEBX@Z 0000000180036f70 f   LIBCMTD:userapi.obj
 0001:00035f80       _RTC_GetErrDesc            0000000180036f80 f   LIBCMTD:userapi.obj
 0001:00035fa0       _RTC_NumErrors             0000000180036fa0 f   LIBCMTD:userapi.obj
 0001:00035fb0       _RTC_SetErrorFunc          0000000180036fb0 f   LIBCMTD:userapi.obj
 0001:00035fd0       _RTC_SetErrorFuncW         0000000180036fd0 f   LIBCMTD:userapi.obj
 0001:00035ff0       _RTC_SetErrorType          0000000180036ff0 f   LIBCMTD:userapi.obj
 0001:00036010       ??2@YAPEAX_K@Z             0000000180037010 f   LIBCMTD:new_scalar.obj
 0001:00036060       __isa_available_init       0000000180037060 f   LIBCMTD:cpu_disp.obj
 0001:00036400       _get_startup_argv_mode     0000000180037400 f   LIBCMTD:argv_mode.obj
 0001:00036410       __scrt_is_ucrt_dll_in_use  0000000180037410 f   LIBCMTD:ucrt_detection.obj
 0001:00036440       __crt_debugger_hook        0000000180037440 f   LIBCMTD:utility_desktop.obj
 0001:00036450       __scrt_fastfail            0000000180037450 f   LIBCMTD:utility_desktop.obj
 0001:000365f0       __scrt_get_show_window_mode 00000001800375f0 f   LIBCMTD:utility_desktop.obj
 0001:00036650       __scrt_initialize_mta      0000000180037650 f   LIBCMTD:utility_desktop.obj
 0001:00036660       __scrt_initialize_winrt    0000000180037660 f   LIBCMTD:utility_desktop.obj
 0001:00036670       __scrt_is_managed_app      0000000180037670 f   LIBCMTD:utility_desktop.obj
 0001:00036720       __scrt_set_unhandled_exception_filter 0000000180037720 f   LIBCMTD:utility_desktop.obj
 0001:00036740       __scrt_stub_for_initialize_mta 0000000180037740 f   LIBCMTD:utility_desktop.obj
 0001:00036740       __scrt_exe_initialize_mta  0000000180037740 f   LIBCMTD:utility_desktop.obj
 0001:00036750       __scrt_unhandled_exception_filter 0000000180037750 f   LIBCMTD:utility_desktop.obj
 0001:000367f0       _guard_check_icall_nop     00000001800377f0 f i LIBCMTD:guard_support.obj
 0001:00036800       ReadNoFence64              0000000180037800 f i LIBCMTD:guard_support.obj
 0001:00036820       ReadPointerNoFence         0000000180037820 f i LIBCMTD:guard_support.obj
 0001:00036840       __castguard_check_failure_debugbreak 0000000180037840 f i LIBCMTD:guard_support.obj
 0001:00036860       __castguard_check_failure_fastfail 0000000180037860 f i LIBCMTD:guard_support.obj
 0001:00036890       __castguard_check_failure_nop 0000000180037890 f i LIBCMTD:guard_support.obj
 0001:000368a0       __castguard_check_failure_os_handled 00000001800378a0 f i LIBCMTD:guard_support.obj
 0001:00036960       __castguard_slow_path_check_debugbreak 0000000180037960 f i LIBCMTD:guard_support.obj
 0001:000369a0       __castguard_slow_path_check_fastfail 00000001800379a0 f i LIBCMTD:guard_support.obj
 0001:000369f0       __castguard_slow_path_check_nop 00000001800379f0 f i LIBCMTD:guard_support.obj
 0001:00036a00       __castguard_slow_path_check_os_handled 0000000180037a00 f i LIBCMTD:guard_support.obj
 0001:00036ae0       _guard_icall_checks_enforced 0000000180037ae0 f i LIBCMTD:guard_support.obj
 0001:00036b20       _guard_rf_checks_enforced  0000000180037b20 f i LIBCMTD:guard_support.obj
 0001:00036bf0       __security_init_cookie     0000000180037bf0 f   LIBCMTD:gs_support.obj
 0001:00036c70       ?__scrt_initialize_type_info@@YAXXZ 0000000180037c70 f   LIBCMTD:tncleanup.obj
 0001:00036c90       ?__scrt_uninitialize_type_info@@YAXXZ 0000000180037c90 f   LIBCMTD:tncleanup.obj
 0001:00036cb0       __local_stdio_scanf_options 0000000180037cb0 f i LIBCMTD:default_local_stdio_options.obj
 0001:00036cc0       __scrt_initialize_default_local_stdio_options 0000000180037cc0 f   LIBCMTD:default_local_stdio_options.obj
 0001:00036d10       __scrt_get_dyn_tls_init_callback 0000000180037d10 f   LIBCMTD:dyn_tls_init.obj
 0001:00036d20       _RTC_Initialize            0000000180037d20 f   LIBCMTD:initsect.obj
 0001:00036d70       _RTC_Terminate             0000000180037d70 f   LIBCMTD:initsect.obj
 0001:000372d0       ?_RTC_GetSrcLine@@YAHPEAEPEA_WKPEAH1K@Z 00000001800382d0 f   LIBCMTD:pdblkup.obj
 0001:000376a0       ??0bad_alloc@std@@AEAA@QEBD@Z 00000001800386a0 f i LIBCMTD:throw_bad_alloc.obj
 0001:000376e0       ??0bad_alloc@std@@QEAA@AEBV01@@Z 00000001800386e0 f i LIBCMTD:throw_bad_alloc.obj
 0001:00037720       ??0bad_alloc@std@@QEAA@XZ  0000000180038720 f i LIBCMTD:throw_bad_alloc.obj
 0001:00037760       ??0bad_array_new_length@std@@QEAA@AEBV01@@Z 0000000180038760 f i LIBCMTD:throw_bad_alloc.obj
 0001:000377a0       ??0bad_array_new_length@std@@QEAA@XZ 00000001800387a0 f i LIBCMTD:throw_bad_alloc.obj
 0001:000377e0       ??0exception@std@@QEAA@AEBV01@@Z 00000001800387e0 f i LIBCMTD:throw_bad_alloc.obj
 0001:00037840       ??0exception@std@@QEAA@QEBDH@Z 0000000180038840 f i LIBCMTD:throw_bad_alloc.obj
 0001:00037890       ??1bad_alloc@std@@UEAA@XZ  0000000180038890 f i LIBCMTD:throw_bad_alloc.obj
 0001:000378b0       ??1bad_array_new_length@std@@UEAA@XZ 00000001800388b0 f i LIBCMTD:throw_bad_alloc.obj
 0001:000378d0       ??1exception@std@@UEAA@XZ  00000001800388d0 f i LIBCMTD:throw_bad_alloc.obj
 0001:00037900       ??_Gbad_alloc@std@@UEAAPEAXI@Z 0000000180038900 f i LIBCMTD:throw_bad_alloc.obj
 0001:00037900       ??_Ebad_alloc@std@@UEAAPEAXI@Z 0000000180038900 f i LIBCMTD:throw_bad_alloc.obj
 0001:00037940       ??_Gbad_array_new_length@std@@UEAAPEAXI@Z 0000000180038940 f i LIBCMTD:throw_bad_alloc.obj
 0001:00037940       ??_Ebad_array_new_length@std@@UEAAPEAXI@Z 0000000180038940 f i LIBCMTD:throw_bad_alloc.obj
 0001:00037980       ??_Eexception@std@@UEAAPEAXI@Z 0000000180038980 f i LIBCMTD:throw_bad_alloc.obj
 0001:00037980       ??_Gexception@std@@UEAAPEAXI@Z 0000000180038980 f i LIBCMTD:throw_bad_alloc.obj
 0001:000379c0       ?__scrt_throw_std_bad_alloc@@YAXXZ 00000001800389c0 f   LIBCMTD:throw_bad_alloc.obj
 0001:000379f0       ?__scrt_throw_std_bad_array_new_length@@YAXXZ 00000001800389f0 f   LIBCMTD:throw_bad_alloc.obj
 0001:00037a20       ?what@exception@std@@UEBAPEBDXZ 0000000180038a20 f i LIBCMTD:throw_bad_alloc.obj
 0001:00037a60       ??1type_info@@UEAA@XZ      0000000180038a60 f   LIBCMTD:std_type_info_static.obj
 0001:00037a80       ??_Gtype_info@@UEAAPEAXI@Z 0000000180038a80 f i LIBCMTD:std_type_info_static.obj
 0001:00037a80       ??_Etype_info@@UEAAPEAXI@Z 0000000180038a80 f i LIBCMTD:std_type_info_static.obj
 0001:00037abc       ??$?2PEAUHINSTANCE__@@@Wrapper@?$CSimpleArray@PEAUHINSTANCE__@@V?$CSimpleArrayEqualHelper@PEAUHINSTANCE__@@@ATL@@@ATL@@SAPEAX_KPEAPEAUHINSTANCE__@@@Z 0000000180038abc f i atls:atlbase.obj
 0001:00037ac0       ??0?$CSimpleArray@PEAUHINSTANCE__@@V?$CSimpleArrayEqualHelper@PEAUHINSTANCE__@@@ATL@@@ATL@@QEAA@XZ 0000000180038ac0 f i atls:atlbase.obj
 0001:00037ad0       ??0CAtlBaseModule@ATL@@QEAA@XZ 0000000180038ad0 f   atls:atlbase.obj
 0001:00037b78       ??0Wrapper@?$CSimpleArray@PEAUHINSTANCE__@@V?$CSimpleArrayEqualHelper@PEAUHINSTANCE__@@@ATL@@@ATL@@QEAA@AEBQEAUHINSTANCE__@@@Z 0000000180038b78 f i atls:atlbase.obj
 0001:00037b84       ??0_ATL_BASE_MODULE70@ATL@@QEAA@XZ 0000000180038b84 f i atls:atlbase.obj
 0001:00037bb0       ??1?$CSimpleArray@PEAUHINSTANCE__@@V?$CSimpleArrayEqualHelper@PEAUHINSTANCE__@@@ATL@@@ATL@@QEAA@XZ 0000000180038bb0 f i atls:atlbase.obj
 0001:00037bd8       ??1CAtlBaseModule@ATL@@QEAA@XZ 0000000180038bd8 f   atls:atlbase.obj
 0001:00037c0c       ??1_ATL_BASE_MODULE70@ATL@@QEAA@XZ 0000000180038c0c f i atls:atlbase.obj
 0001:00037c38       ??A?$CSimpleArray@PEAUHINSTANCE__@@V?$CSimpleArrayEqualHelper@PEAUHINSTANCE__@@@ATL@@@ATL@@QEAAAEAPEAUHINSTANCE__@@H@Z 0000000180038c38 f i atls:atlbase.obj
 0001:00037c64       ?Add@?$CSimpleArray@PEAUHINSTANCE__@@V?$CSimpleArrayEqualHelper@PEAUHINSTANCE__@@@ATL@@@ATL@@QEAAHAEBQEAUHINSTANCE__@@@Z 0000000180038c64 f i atls:atlbase.obj
 0001:00037d18       ?AddResourceInstance@CAtlBaseModule@ATL@@QEAA_NPEAUHINSTANCE__@@@Z 0000000180038d18 f   atls:atlbase.obj
 0001:00037d60       ?GetHInstanceAt@CAtlBaseModule@ATL@@QEAAPEAUHINSTANCE__@@H@Z 0000000180038d60 f   atls:atlbase.obj
 0001:00037dd8       ?GetSize@?$CSimpleArray@PEAUHINSTANCE__@@V?$CSimpleArrayEqualHelper@PEAUHINSTANCE__@@@ATL@@@ATL@@QEBAHXZ 0000000180038dd8 f i atls:atlbase.obj
 0001:00037ddc       ?InternalSetAtIndex@?$CSimpleArray@PEAUHINSTANCE__@@V?$CSimpleArrayEqualHelper@PEAUHINSTANCE__@@@ATL@@@ATL@@QEAAXHAEBQEAUHINSTANCE__@@@Z 0000000180038ddc f i atls:atlbase.obj
 0001:00037df4       ?RemoveAll@?$CSimpleArray@PEAUHINSTANCE__@@V?$CSimpleArrayEqualHelper@PEAUHINSTANCE__@@@ATL@@@ATL@@QEAAXXZ 0000000180038df4 f i atls:atlbase.obj
 0001:00037e1c       ?RemoveAt@?$CSimpleArray@PEAUHINSTANCE__@@V?$CSimpleArrayEqualHelper@PEAUHINSTANCE__@@@ATL@@@ATL@@QEAAHH@Z 0000000180038e1c f i atls:atlbase.obj
 0001:00037ec0       ?RemoveResourceInstance@CAtlBaseModule@ATL@@QEAA_NPEAUHINSTANCE__@@@Z 0000000180038ec0 f   atls:atlbase.obj
 0001:00037f40       ?memmove_s@Checked@ATL@@YAXPEAX_KPEBX1@Z 0000000180038f40 f i atls:atlbase.obj
 0001:000383e8       ?GetCodeAddress@_stdcallthunk@ATL@@QEAAPEAXXZ 00000001800393e8 f i atls:atlthunk.obj
 0001:00038414       ?Init@_stdcallthunk@ATL@@QEAAH_KPEAX@Z 0000000180039414 f i atls:atlthunk.obj
 0001:00038464       ?__AllocStdCallThunk@@YAPEAXXZ 0000000180039464 f   atls:atlthunk.obj
 0001:0003846c       ?__AllocStdCallThunk@ATL@@YAPEAXXZ 000000018003946c f   atls:atlthunk.obj
 0001:00038474       ?__AllocStdCallThunk_cmn@@YAPEAXXZ 0000000180039474 f   atls:atlthunk.obj
 0001:0003854c       ?__FreeStdCallThunk@@YAXPEAX@Z 000000018003954c f   atls:atlthunk.obj
 0001:0003856c       ?__FreeStdCallThunk@ATL@@YAXPEAX@Z 000000018003956c f   atls:atlthunk.obj
 0001:0003858c       ?__FreeStdCallThunk_cmn@@YAXPEAX@Z 000000018003958c f   atls:atlthunk.obj
 0001:0003862c       AtlThunk_AllocateData      000000018003962c f   atls:atlthunk.obj
 0001:000386a8       AtlThunk_DataToCode        00000001800396a8 f   atls:atlthunk.obj
 0001:000386fc       AtlThunk_FreeData          00000001800396fc f   atls:atlthunk.obj
 0001:0003875c       AtlThunk_InitData          000000018003975c f   atls:atlthunk.obj
 0001:00038820       memset_repmovs             0000000180039820 f   libvcruntimed:memset.obj
 0001:00038840       memset                     0000000180039840 f   libvcruntimed:memset.obj
 0001:000389d0       ??$__crt_interlocked_exchange_pointer@$$A6AXXZP6AXXZ@@YAP6AXXZPEDS6AXXZQ6AXXZ@Z 00000001800399d0 f i libvcruntimed:purevirt.obj
 0001:000389f0       ??$__crt_interlocked_read_pointer@$$A6AXXZ@@YAP6AXXZPEDS6AXXZ@Z 00000001800399f0 f i libvcruntimed:purevirt.obj
 0001:00038a10       ?__crt_interlocked_read_64@@YA_JPED_J@Z 0000000180039a10 f i libvcruntimed:purevirt.obj
 0001:00038a30       _get_purecall_handler      0000000180039a30 f   libvcruntimed:purevirt.obj
 0001:00038a50       _purecall                  0000000180039a50 f   libvcruntimed:purevirt.obj
 0001:00038a90       _set_purecall_handler      0000000180039a90 f   libvcruntimed:purevirt.obj
 0001:00038ac0       memcmp                     0000000180039ac0 f   libvcruntimed:memcmp.obj
 0001:00038ba0       memcpy_repmovs             0000000180039ba0 f   libvcruntimed:memcpy.obj
 0001:00038bc0       memcpy                     0000000180039bc0 f   libvcruntimed:memcpy.obj
 0001:00038bc0       memmove                    0000000180039bc0 f   libvcruntimed:memcpy.obj
 0001:00038fa0       wcsstr                     0000000180039fa0 f   libvcruntimed:wcsstr.obj
 0001:00039600       __vcrt_initialize          000000018003a600 f   libvcruntimed:initialization.obj
 0001:00039640       __vcrt_thread_attach       000000018003a640 f   libvcruntimed:initialization.obj
 0001:00039660       __vcrt_thread_detach       000000018003a660 f   libvcruntimed:initialization.obj
 0001:00039680       __vcrt_uninitialize        000000018003a680 f   libvcruntimed:initialization.obj
 0001:000396a0       __vcrt_uninitialize_critical 000000018003a6a0 f   libvcruntimed:initialization.obj
 0001:000396c0       __C_specific_handler       000000018003a6c0 f   libvcruntimed:riscchandler.obj
 0001:00039b30       ??$?0AEAViterator@TryBlockMap4@FH4@@AEAV012@$0A@@?$pair@Viterator@TryBlockMap4@FH4@@V123@@std@@QEAA@AEAViterator@TryBlockMap4@FH4@@0@Z 000000018003ab30 f i libvcruntimed:risctrnsctrl.obj
 0001:00039b90       ??$?0AEAViterator@TryBlockMap@__FrameHandler3@@AEAV012@$0A@@?$pair@Viterator@TryBlockMap@__FrameHandler3@@V123@@std@@QEAA@AEAViterator@TryBlockMap@__FrameHandler3@@0@Z 000000018003ab90 f i libvcruntimed:risctrnsctrl.obj
 0001:00039d60       ??$_CallSETranslator@V__FrameHandler3@@@@YAHPEAUEHExceptionRecord@@PEA_KPEAU_CONTEXT@@PEAU_xDISPATCHER_CONTEXT@@PEBU_s_FuncInfo@@K1H@Z 000000018003ad60 f i libvcruntimed:risctrnsctrl.obj
 0001:00039df0       ??$_CallSETranslator@V__FrameHandler4@@@@YAHPEAUEHExceptionRecord@@PEA_KPEAU_CONTEXT@@PEAU_xDISPATCHER_CONTEXT@@PEAUFuncInfo4@FH4@@K1H@Z 000000018003adf0 f i libvcruntimed:risctrnsctrl.obj
 0001:00039e80       ??$forward@AEAViterator@TryBlockMap4@FH4@@@std@@YAAEAViterator@TryBlockMap4@FH4@@AEAV123@@Z 000000018003ae80 f i libvcruntimed:risctrnsctrl.obj
 0001:00039e90       ??$forward@AEAViterator@TryBlockMap@__FrameHandler3@@@std@@YAAEAViterator@TryBlockMap@__FrameHandler3@@AEAV123@@Z 000000018003ae90 f i libvcruntimed:risctrnsctrl.obj
 0001:00039ea0       ??0FuncInfo4@FH4@@QEAA@XZ  000000018003aea0 f i libvcruntimed:risctrnsctrl.obj
 0001:00039f10       ??0FuncInfoHeader@FH4@@QEAA@XZ 000000018003af10 f i libvcruntimed:risctrnsctrl.obj
 0001:00039f30       ??0iterator@TryBlockMap4@FH4@@QEAA@AEAV12@I@Z 000000018003af30 f i libvcruntimed:risctrnsctrl.obj
 0001:00039f60       ??0iterator@TryBlockMap@__FrameHandler3@@QEAA@AEAV12@I@Z 000000018003af60 f i libvcruntimed:risctrnsctrl.obj
 0001:00039f90       ??4iterator@TryBlockMap4@FH4@@QEAAAEAV012@AEBV012@@Z 000000018003af90 f i libvcruntimed:risctrnsctrl.obj
 0001:00039fb0       ??9iterator@TryBlockMap4@FH4@@QEBA_NAEBV012@@Z 000000018003afb0 f i libvcruntimed:risctrnsctrl.obj
 0001:00039ff0       ??Diterator@TryBlockMap4@FH4@@QEAA?AUTryBlockMapEntry4@2@XZ 000000018003aff0 f i libvcruntimed:risctrnsctrl.obj
 0001:0003a020       ??Eiterator@TryBlockMap4@FH4@@QEAAAEAV012@XZ 000000018003b020 f i libvcruntimed:risctrnsctrl.obj
 0001:0003a060       ?CatchTryBlock@__FrameHandler3@@SAPEBU_s_TryBlockMapEntry@@PEBU_s_FuncInfo@@H@Z 000000018003b060 f   libvcruntimed:risctrnsctrl.obj
 0001:0003a0f0       ?DecompFuncInfo@FH4@@YA_JPEAEAEAUFuncInfo4@1@_KH@Z 000000018003b0f0 f i libvcruntimed:risctrnsctrl.obj
 0001:0003a130       ?DecompFuncInfo@FH4@@YA_JPEAEAEAUFuncInfo4@1@_KH_N@Z 000000018003b130 f i libvcruntimed:risctrnsctrl.obj
 0001:0003a300       ?DecompTryBlock@TryBlockMap4@FH4@@AEAAXXZ 000000018003b300 f i libvcruntimed:risctrnsctrl.obj
 0001:0003a380       ?ExecutionInCatch@__FrameHandler3@@SA_NPEAU_xDISPATCHER_CONTEXT@@PEBU_s_FuncInfo@@@Z 000000018003b380 f   libvcruntimed:risctrnsctrl.obj
 0001:0003a3d0       ?ExecutionInCatch@__FrameHandler4@@SA_NPEAU_xDISPATCHER_CONTEXT@@PEAUFuncInfo4@FH4@@@Z 000000018003b3d0 f   libvcruntimed:risctrnsctrl.obj
 0001:0003a3f0       ?FrameUnwindToEmptyState@__FrameHandler3@@SAXPEA_KPEAU_xDISPATCHER_CONTEXT@@PEBU_s_FuncInfo@@@Z 000000018003b3f0 f   libvcruntimed:risctrnsctrl.obj
 0001:0003a490       ?FrameUnwindToEmptyState@__FrameHandler4@@SAXPEA_KPEAU_xDISPATCHER_CONTEXT@@PEAUFuncInfo4@FH4@@@Z 000000018003b490 f   libvcruntimed:risctrnsctrl.obj
 0001:0003a4e0       ?GetEstablisherFrame@__FrameHandler3@@SAPEA_KPEA_KPEAU_xDISPATCHER_CONTEXT@@PEBU_s_FuncInfo@@0@Z 000000018003b4e0 f   libvcruntimed:risctrnsctrl.obj
 0001:0003a650       ?GetEstablisherFrame@__FrameHandler4@@SAPEA_KPEA_KPEAU_xDISPATCHER_CONTEXT@@PEAUFuncInfo4@FH4@@0@Z 000000018003b650 f   libvcruntimed:risctrnsctrl.obj
 0001:0003a6c0       ?GetRangeOfTrysToCheck@__FrameHandler3@@SA?AU?$pair@Viterator@TryBlockMap@__FrameHandler3@@V123@@std@@AEAVTryBlockMap@1@HPEAU_xDISPATCHER_CONTEXT@@PEBU_s_FuncInfo@@H@Z 000000018003b6c0 f   libvcruntimed:risctrnsctrl.obj
 0001:0003a900       ?GetRangeOfTrysToCheck@__FrameHandler4@@SA?AU?$pair@Viterator@TryBlockMap4@FH4@@V123@@std@@AEAVTryBlockMap4@FH4@@HPEAU_xDISPATCHER_CONTEXT@@PEAUFuncInfo4@5@H@Z 000000018003b900 f   libvcruntimed:risctrnsctrl.obj
 0001:0003aab0       ?ReadInt@FH4@@YAHPEAPEAE@Z 000000018003bab0 f i libvcruntimed:risctrnsctrl.obj
 0001:0003aaf0       ?ReadUnsigned@FH4@@YAIPEAPEAE@Z 000000018003baf0 f i libvcruntimed:risctrnsctrl.obj
 0001:0003ab80       ?UnwindNestedFrames@__FrameHandler3@@SAXPEA_KPEAUEHExceptionRecord@@PEAU_CONTEXT@@0PEAXPEBU_s_FuncInfo@@HHPEBU_s_HandlerType@@PEAU_xDISPATCHER_CONTEXT@@E@Z 000000018003bb80 f   libvcruntimed:risctrnsctrl.obj
 0001:0003acf0       ?UnwindNestedFrames@__FrameHandler4@@SAXPEA_KPEAUEHExceptionRecord@@PEAU_CONTEXT@@0PEAXPEAUFuncInfo4@FH4@@HHPEAUHandlerType4@5@PEAU_xDISPATCHER_CONTEXT@@E@Z 000000018003bcf0 f   libvcruntimed:risctrnsctrl.obj
 0001:0003aec0       ?begin@TryBlockMap4@FH4@@QEAA?AViterator@12@XZ 000000018003bec0 f i libvcruntimed:risctrnsctrl.obj
 0001:0003aef0       ?end@TryBlockMap4@FH4@@QEAA?AViterator@12@XZ 000000018003bef0 f i libvcruntimed:risctrnsctrl.obj
 0001:0003af20       ?imageRelToByteBuffer@FH4@@YAPEAE_KH@Z 000000018003bf20 f i libvcruntimed:risctrnsctrl.obj
 0001:0003af40       ?incrementToSentinel@iterator@TryBlockMap4@FH4@@QEAAXXZ 000000018003bf40 f i libvcruntimed:risctrnsctrl.obj
 0001:0003af60       ?setBuffer@TryBlockMap4@FH4@@QEAAXViterator@12@@Z 000000018003bf60 f i libvcruntimed:risctrnsctrl.obj
 0001:0003afd0       _CreateFrameInfo           000000018003bfd0 f   libvcruntimed:risctrnsctrl.obj
 0001:0003b040       _FindAndUnlinkFrame        000000018003c040 f   libvcruntimed:risctrnsctrl.obj
 0001:0003b0c0       _GetImageBase              000000018003c0c0 f   libvcruntimed:risctrnsctrl.obj
 0001:0003b0e0       _GetThrowImageBase         000000018003c0e0 f   libvcruntimed:risctrnsctrl.obj
 0001:0003b100       _SetImageBase              000000018003c100 f   libvcruntimed:risctrnsctrl.obj
 0001:0003b120       _SetThrowImageBase         000000018003c120 f   libvcruntimed:risctrnsctrl.obj
 0001:0003b140       __CxxFrameHandler          000000018003c140 f   libvcruntimed:risctrnsctrl.obj
 0001:0003b180       __CxxFrameHandler2         000000018003c180 f   libvcruntimed:risctrnsctrl.obj
 0001:0003b1c0       __CxxFrameHandler3         000000018003c1c0 f   libvcruntimed:risctrnsctrl.obj
 0001:0003b2a0       __CxxFrameHandler4         000000018003c2a0 f   libvcruntimed:risctrnsctrl.obj
 0001:0003b3b0       __C_specific_handler_noexcept 000000018003c3b0 f   libvcruntimed:chandler_noexcept.obj
 0001:0003b440       __DestructExceptionObject  000000018003c440 f   libvcruntimed:ehhelpers.obj
 0001:0003b540       ?_CallMemberFunction0@@YAXQEAX0@Z 000000018003c540 f i libvcruntimed:ehhelpers.obj
 0001:0003b610       ?raw_name@type_info@@QEBAPEBDXZ 000000018003c610 f i libvcruntimed:ehhelpers.obj
 0001:0003b620       _IsExceptionObjectToBeDestroyed 000000018003c620 f   libvcruntimed:ehhelpers.obj
 0001:0003b670       _SetWinRTOutOfMemoryExceptionCallback 000000018003c670 f   libvcruntimed:ehhelpers.obj
 0001:0003b690       __AdjustPointer            000000018003c690 f   libvcruntimed:ehhelpers.obj
 0001:0003b710       __FrameUnwindFilter        000000018003c710 f   libvcruntimed:ehhelpers.obj
 0001:0003b7c0       __GetPlatformExceptionInfo 000000018003c7c0 f   libvcruntimed:ehhelpers.obj
 0001:0003b870       __current_exception        000000018003c870 f   libvcruntimed:ehhelpers.obj
 0001:0003b890       __current_exception_context 000000018003c890 f   libvcruntimed:ehhelpers.obj
 0001:0003b8b0       __processing_throw         000000018003c8b0 f   libvcruntimed:ehhelpers.obj
 0001:0003b8d0       __std_terminate            000000018003c8d0 f   libvcruntimed:ehhelpers.obj
 0001:0003b8e0       _is_exception_typeof       000000018003c8e0 f   libvcruntimed:ehhelpers.obj
 0001:0003ba70       ??$?RD@__crt_internal_free_policy@@QEBAXQEBD@Z 000000018003ca70 f i libvcruntimed:std_type_info.obj
 0001:0003baa0       ??$?RX@__crt_internal_free_policy@@QEBAXQEBX@Z 000000018003caa0 f i libvcruntimed:std_type_info.obj
 0001:0003bad0       ??$__crt_interlocked_compare_exchange_pointer@$$CBDPEAD$$T@@YAPEBDPEDSEBDQEAD$$T@Z 000000018003cad0 f i libvcruntimed:std_type_info.obj
 0001:0003bb10       ??$__crt_interlocked_read_pointer@$$CBD@@YAPEBDPEDSEBD@Z 000000018003cb10 f i libvcruntimed:std_type_info.obj
 0001:0003bb30       ??0?$__crt_unique_heap_ptr@DU__crt_internal_free_policy@@@@QEAA@QEAD@Z 000000018003cb30 f i libvcruntimed:std_type_info.obj
 0001:0003bb50       ??0?$__crt_unique_heap_ptr@XU__crt_internal_free_policy@@@@QEAA@QEAX@Z 000000018003cb50 f i libvcruntimed:std_type_info.obj
 0001:0003bb70       ??1?$__crt_unique_heap_ptr@DU__crt_internal_free_policy@@@@QEAA@XZ 000000018003cb70 f i libvcruntimed:std_type_info.obj
 0001:0003bb90       ??1?$__crt_unique_heap_ptr@XU__crt_internal_free_policy@@@@QEAA@XZ 000000018003cb90 f i libvcruntimed:std_type_info.obj
 0001:0003bbb0       ??B?$__crt_unique_heap_ptr@DU__crt_internal_free_policy@@@@QEBA_NXZ 000000018003cbb0 f i libvcruntimed:std_type_info.obj
 0001:0003bbd0       ??B?$__crt_unique_heap_ptr@XU__crt_internal_free_policy@@@@QEBA_NXZ 000000018003cbd0 f i libvcruntimed:std_type_info.obj
 0001:0003bc70       ?detach@?$__crt_unique_heap_ptr@XU__crt_internal_free_policy@@@@QEAAPEAXXZ 000000018003cc70 f i libvcruntimed:std_type_info.obj
 0001:0003bca0       ?get@?$__crt_unique_heap_ptr@DU__crt_internal_free_policy@@@@QEBAPEADXZ 000000018003cca0 f i libvcruntimed:std_type_info.obj
 0001:0003bcb0       ?get@?$__crt_unique_heap_ptr@XU__crt_internal_free_policy@@@@QEBAPEAXXZ 000000018003ccb0 f i libvcruntimed:std_type_info.obj
 0001:0003bcc0       ?is_valid@?$__crt_unique_heap_ptr@DU__crt_internal_free_policy@@@@QEBA_NXZ 000000018003ccc0 f i libvcruntimed:std_type_info.obj
 0001:0003bcf0       ?is_valid@?$__crt_unique_heap_ptr@XU__crt_internal_free_policy@@@@QEBA_NXZ 000000018003ccf0 f i libvcruntimed:std_type_info.obj
 0001:0003bd20       ?release@?$__crt_unique_heap_ptr@DU__crt_internal_free_policy@@@@QEAAXXZ 000000018003cd20 f i libvcruntimed:std_type_info.obj
 0001:0003bd50       ?release@?$__crt_unique_heap_ptr@XU__crt_internal_free_policy@@@@QEAAXXZ 000000018003cd50 f i libvcruntimed:std_type_info.obj
 0001:0003bd80       __std_type_info_compare    000000018003cd80 f   libvcruntimed:std_type_info.obj
 0001:0003bdc0       __std_type_info_destroy_list 000000018003cdc0 f   libvcruntimed:std_type_info.obj
 0001:0003be20       __std_type_info_hash       000000018003ce20 f   libvcruntimed:std_type_info.obj
 0001:0003bed0       __std_type_info_name       000000018003ced0 f   libvcruntimed:std_type_info.obj
 0001:0003c180       __vcrt_GetModuleFileNameW  000000018003d180 f   libvcruntimed:winapi_thunks.obj
 0001:0003c1b0       __vcrt_GetModuleHandleW    000000018003d1b0 f   libvcruntimed:winapi_thunks.obj
 0001:0003c1d0       __vcrt_LoadLibraryExW      000000018003d1d0 f   libvcruntimed:winapi_thunks.obj
 0001:0003c200       ??$?RD@__crt_public_free_policy@@QEBAXQEBD@Z 000000018003d200 f i libvcruntimed:std_exception.obj
 0001:0003c220       ??0?$__crt_unique_heap_ptr@DU__crt_public_free_policy@@@@QEAA@QEAD@Z 000000018003d220 f i libvcruntimed:std_exception.obj
 0001:0003c240       ??1?$__crt_unique_heap_ptr@DU__crt_public_free_policy@@@@QEAA@XZ 000000018003d240 f i libvcruntimed:std_exception.obj
 0001:0003c260       ??B?$__crt_unique_heap_ptr@DU__crt_public_free_policy@@@@QEBA_NXZ 000000018003d260 f i libvcruntimed:std_exception.obj
 0001:0003c280       ?detach@?$__crt_unique_heap_ptr@DU__crt_public_free_policy@@@@QEAAPEADXZ 000000018003d280 f i libvcruntimed:std_exception.obj
 0001:0003c2b0       ?get@?$__crt_unique_heap_ptr@DU__crt_public_free_policy@@@@QEBAPEADXZ 000000018003d2b0 f i libvcruntimed:std_exception.obj
 0001:0003c2c0       ?is_valid@?$__crt_unique_heap_ptr@DU__crt_public_free_policy@@@@QEBA_NXZ 000000018003d2c0 f i libvcruntimed:std_exception.obj
 0001:0003c2f0       ?release@?$__crt_unique_heap_ptr@DU__crt_public_free_policy@@@@QEAAXXZ 000000018003d2f0 f i libvcruntimed:std_exception.obj
 0001:0003c320       __std_exception_copy       000000018003d320 f   libvcruntimed:std_exception.obj
 0001:0003c460       __std_exception_destroy    000000018003d460 f   libvcruntimed:std_exception.obj
 0001:0003c4a0       _CxxThrowException         000000018003d4a0 f   libvcruntimed:throw.obj
 0001:0003c5d0       ??$?RU__vcrt_ptd@@@__crt_internal_free_policy@@QEBAXQEBU__vcrt_ptd@@@Z 000000018003d5d0 f i libvcruntimed:per_thread_data.obj
 0001:0003c600       ??0?$__crt_unique_heap_ptr@U__vcrt_ptd@@U__crt_internal_free_policy@@@@QEAA@QEAU__vcrt_ptd@@@Z 000000018003d600 f i libvcruntimed:per_thread_data.obj
 0001:0003c640       ??1?$__crt_unique_heap_ptr@U__vcrt_ptd@@U__crt_internal_free_policy@@@@QEAA@XZ 000000018003d640 f i libvcruntimed:per_thread_data.obj
 0001:0003c680       ??B?$__crt_unique_heap_ptr@U__vcrt_ptd@@U__crt_internal_free_policy@@@@QEBA_NXZ 000000018003d680 f i libvcruntimed:per_thread_data.obj
 0001:0003c6a0       ?detach@?$__crt_unique_heap_ptr@U__vcrt_ptd@@U__crt_internal_free_policy@@@@QEAAPEAU__vcrt_ptd@@XZ 000000018003d6a0 f i libvcruntimed:per_thread_data.obj
 0001:0003c6d0       ?get@?$__crt_unique_heap_ptr@U__vcrt_ptd@@U__crt_internal_free_policy@@@@QEBAPEAU__vcrt_ptd@@XZ 000000018003d6d0 f i libvcruntimed:per_thread_data.obj
 0001:0003c6e0       ?is_valid@?$__crt_unique_heap_ptr@U__vcrt_ptd@@U__crt_internal_free_policy@@@@QEBA_NXZ 000000018003d6e0 f i libvcruntimed:per_thread_data.obj
 0001:0003c710       ?release@?$__crt_unique_heap_ptr@U__vcrt_ptd@@U__crt_internal_free_policy@@@@QEAAXXZ 000000018003d710 f i libvcruntimed:per_thread_data.obj
 0001:0003c780       __vcrt_freefls             000000018003d780 f   libvcruntimed:per_thread_data.obj
 0001:0003c7c0       __vcrt_freeptd             000000018003d7c0 f   libvcruntimed:per_thread_data.obj
 0001:0003c820       __vcrt_getptd              000000018003d820 f   libvcruntimed:per_thread_data.obj
 0001:0003c850       __vcrt_getptd_noexit       000000018003d850 f   libvcruntimed:per_thread_data.obj
 0001:0003c9f0       __vcrt_getptd_noinit       000000018003d9f0 f   libvcruntimed:per_thread_data.obj
 0001:0003ca50       __vcrt_initialize_ptd      000000018003da50 f   libvcruntimed:per_thread_data.obj
 0001:0003caa0       __vcrt_uninitialize_ptd    000000018003daa0 f   libvcruntimed:per_thread_data.obj
 0001:0003cad0       __vcrt_initialize_locks    000000018003dad0 f   libvcruntimed:locks.obj
 0001:0003cb40       __vcrt_lock                000000018003db40 f   libvcruntimed:locks.obj
 0001:0003cb70       __vcrt_uninitialize_locks  000000018003db70 f   libvcruntimed:locks.obj
 0001:0003cbd0       __vcrt_unlock              000000018003dbd0 f   libvcruntimed:locks.obj
 0001:0003cc10       _NLG_Notify                000000018003dc10 f   libvcruntimed:notify.obj
 0001:0003cc30       __NLG_Dispatch2            000000018003dc30 f   libvcruntimed:notify.obj
 0001:0003cc40       __NLG_Return2              000000018003dc40 f   libvcruntimed:notify.obj
 0001:0003cc60       __except_validate_context_record 000000018003dc60 f   libvcruntimed:jbcxrval.obj
 0001:0003ccc0       __except_validate_jump_buffer 000000018003dcc0 f   libvcruntimed:jbcxrval.obj
 0001:0003cce0       __except_validate_jump_buffer_common 000000018003dce0 f i libvcruntimed:jbcxrval.obj
 0001:0003cd60       ?GetCurrentState@__FrameHandler3@@SAHPEA_KPEAU_xDISPATCHER_CONTEXT@@PEBU_s_FuncInfo@@@Z 000000018003dd60 f   libvcruntimed:ehstate.obj
 0001:0003cdc0       ?GetUnwindTryBlock@__FrameHandler3@@SAHPEA_KPEAU_xDISPATCHER_CONTEXT@@PEBU_s_FuncInfo@@@Z 000000018003ddc0 f   libvcruntimed:ehstate.obj
 0001:0003ce10       ?SetState@__FrameHandler3@@SAXPEA_KPEBU_s_FuncInfo@@H@Z 000000018003de10 f   libvcruntimed:ehstate.obj
 0001:0003ce40       ?SetUnwindTryBlock@__FrameHandler3@@SAXPEA_KPEAU_xDISPATCHER_CONTEXT@@PEBU_s_FuncInfo@@H@Z 000000018003de40 f   libvcruntimed:ehstate.obj
 0001:0003ceb0       ?StateFromControlPc@__FrameHandler3@@SAHPEBU_s_FuncInfo@@PEAU_xDISPATCHER_CONTEXT@@@Z 000000018003deb0 f   libvcruntimed:ehstate.obj
 0001:0003cef0       ?StateFromControlPc@__FrameHandler4@@SAHPEAUFuncInfo4@FH4@@PEAU_xDISPATCHER_CONTEXT@@@Z 000000018003def0 f   libvcruntimed:ehstate.obj
 0001:0003cf30       ?StateFromIp@__FrameHandler3@@SAHPEBU_s_FuncInfo@@PEAU_xDISPATCHER_CONTEXT@@_K@Z 000000018003df30 f   libvcruntimed:ehstate.obj
 0001:0003d020       ?StateFromIp@__FrameHandler4@@SAHPEAUFuncInfo4@FH4@@PEAU_xDISPATCHER_CONTEXT@@_K@Z 000000018003e020 f   libvcruntimed:ehstate.obj
 0001:0003d110       ?__FuncRelToRealOffset@@YA_KPEAU_xDISPATCHER_CONTEXT@@I@Z 000000018003e110 f i libvcruntimed:ehstate.obj
 0001:0003d140       ?__RVAtoRealOffset@@YA_KPEAU_xDISPATCHER_CONTEXT@@H@Z 000000018003e140 f i libvcruntimed:ehstate.obj
 0001:0003f3c0       ??$TypeMatchHelper@V__FrameHandler3@@@@YAHPEBU_s_HandlerType@@PEBU_s_CatchableType@@PEBU_s_ThrowInfo@@@Z 00000001800403c0 f i libvcruntimed:frame.obj
 0001:0003f5c0       ??$TypeMatchHelper@V__FrameHandler4@@@@YAHPEAUHandlerType4@FH4@@PEBU_s_CatchableType@@PEBU_s_ThrowInfo@@@Z 00000001800405c0 f i libvcruntimed:frame.obj
 0001:0003f7d0       ??$__InternalCxxFrameHandler@V__FrameHandler3@@@@YA?AW4_EXCEPTION_DISPOSITION@@PEAUEHExceptionRecord@@PEA_KPEAU_CONTEXT@@PEAU_xDISPATCHER_CONTEXT@@PEBU_s_FuncInfo@@H1E@Z 00000001800407d0 f i libvcruntimed:frame.obj
 0001:0003fc40       ??$__InternalCxxFrameHandler@V__FrameHandler4@@@@YA?AW4_EXCEPTION_DISPOSITION@@PEAUEHExceptionRecord@@PEA_KPEAU_CONTEXT@@PEAU_xDISPATCHER_CONTEXT@@PEAUFuncInfo4@FH4@@H1E@Z 0000000180040c40 f i libvcruntimed:frame.obj
 0001:000400d0       ??0HandlerMap4@FH4@@QEAA@PEBUTryBlockMapEntry4@1@_KH@Z 00000001800410d0 f i libvcruntimed:frame.obj
 0001:00040190       ??0HandlerMap@__FrameHandler3@@QEAA@PEBU_s_TryBlockMapEntry@@_KI@Z 0000000180041190 f i libvcruntimed:frame.obj
 0001:000401e0       ??0HandlerType4@FH4@@QEAA@XZ 00000001800411e0 f i libvcruntimed:frame.obj
 0001:00040200       ??0TryBlockMap4@FH4@@QEAA@PEBUFuncInfo4@1@_K@Z 0000000180041200 f i libvcruntimed:frame.obj
 0001:00040290       ??0TryBlockMap@__FrameHandler3@@QEAA@PEBU_s_FuncInfo@@_K@Z 0000000180041290 f i libvcruntimed:frame.obj
 0001:000402c0       ??0UWMap4@FH4@@QEAA@PEBUFuncInfo4@1@_K@Z 00000001800412c0 f i libvcruntimed:frame.obj
 0001:00040330       ??0bad_exception@std@@QEAA@AEBV01@@Z 0000000180041330 f i libvcruntimed:frame.obj
 0001:00040370       ??0bad_exception@std@@QEAA@XZ 0000000180041370 f i libvcruntimed:frame.obj
 0001:000403b0       ??0iterator@HandlerMap4@FH4@@QEAA@AEAV12@I@Z 00000001800413b0 f i libvcruntimed:frame.obj
 0001:000403e0       ??0iterator@HandlerMap@__FrameHandler3@@QEAA@AEAV12@I@Z 00000001800413e0 f i libvcruntimed:frame.obj
 0001:00040410       ??0iterator@UWMap4@FH4@@QEAA@AEAV12@PEAE@Z 0000000180041410 f i libvcruntimed:frame.obj
 0001:00040440       ??1bad_exception@std@@UEAA@XZ 0000000180041440 f i libvcruntimed:frame.obj
 0001:00040460       ??4iterator@UWMap4@FH4@@QEAAAEAV012@AEBV012@@Z 0000000180041460 f i libvcruntimed:frame.obj
 0001:000404b0       ??8iterator@HandlerMap4@FH4@@QEBA_NAEBV012@@Z 00000001800414b0 f i libvcruntimed:frame.obj
 0001:000404f0       ??8iterator@HandlerMap@__FrameHandler3@@QEBA_NAEBV012@@Z 00000001800414f0 f i libvcruntimed:frame.obj
 0001:00040530       ??8type_info@@QEBA_NAEBV0@@Z 0000000180041530 f i libvcruntimed:frame.obj
 0001:00040580       ??9iterator@HandlerMap4@FH4@@QEBA_NAEBV012@@Z 0000000180041580 f i libvcruntimed:frame.obj
 0001:000405c0       ??9iterator@HandlerMap@__FrameHandler3@@QEBA_NAEBV012@@Z 00000001800415c0 f i libvcruntimed:frame.obj
 0001:00040600       ??Diterator@HandlerMap4@FH4@@QEAA?AUHandlerType4@2@XZ 0000000180041600 f i libvcruntimed:frame.obj
 0001:00040630       ??Diterator@HandlerMap@__FrameHandler3@@QEAA?BU_s_HandlerType@@XZ 0000000180041630 f i libvcruntimed:frame.obj
 0001:00040670       ??Diterator@TryBlockMap@__FrameHandler3@@QEAA?BU_s_TryBlockMapEntry@@XZ 0000000180041670 f i libvcruntimed:frame.obj
 0001:000406c0       ??Diterator@UWMap4@FH4@@QEAA?AUUnwindMapEntry4@2@XZ 00000001800416c0 f i libvcruntimed:frame.obj
 0001:00040740       ??Eiterator@HandlerMap4@FH4@@QEAAAEAV012@XZ 0000000180041740 f i libvcruntimed:frame.obj
 0001:00040780       ??Eiterator@HandlerMap@__FrameHandler3@@QEAAAEAV012@XZ 0000000180041780 f i libvcruntimed:frame.obj
 0001:000407a0       ??Eiterator@TryBlockMap@__FrameHandler3@@QEAAAEAV012@XZ 00000001800417a0 f i libvcruntimed:frame.obj
 0001:000407c0       ??Eiterator@UWMap4@FH4@@QEAAAEAV012@XZ 00000001800417c0 f i libvcruntimed:frame.obj
 0001:00040800       ??Giterator@UWMap4@FH4@@QEBA_JAEBV012@@Z 0000000180041800 f i libvcruntimed:frame.obj
 0001:00040820       ??Miterator@TryBlockMap4@FH4@@QEBA_NAEBV012@@Z 0000000180041820 f i libvcruntimed:frame.obj
 0001:00040860       ??Miterator@TryBlockMap@__FrameHandler3@@QEBA_NAEBV012@@Z 0000000180041860 f i libvcruntimed:frame.obj
 0001:000408a0       ??Oiterator@UWMap4@FH4@@QEBA_NAEBV012@@Z 00000001800418a0 f i libvcruntimed:frame.obj
 0001:000408e0       ??Piterator@UWMap4@FH4@@QEBA_NAEBV012@@Z 00000001800418e0 f i libvcruntimed:frame.obj
 0001:00040920       ??_Ebad_exception@std@@UEAAPEAXI@Z 0000000180041920 f i libvcruntimed:frame.obj
 0001:00040920       ??_Gbad_exception@std@@UEAAPEAXI@Z 0000000180041920 f i libvcruntimed:frame.obj
 0001:00040960       ?BuildCatchObject@__FrameHandler3@@SAXPEAUEHExceptionRecord@@PEAXPEBU_s_HandlerType@@PEBU_s_CatchableType@@@Z 0000000180041960 f   libvcruntimed:frame.obj
 0001:000409a0       ?BuildCatchObject@__FrameHandler4@@SAXPEAUEHExceptionRecord@@PEAXPEAUHandlerType4@FH4@@PEBU_s_CatchableType@@@Z 00000001800419a0 f   libvcruntimed:frame.obj
 0001:000409e0       ?BuildCatchObjectHelper@__FrameHandler3@@SAHPEAUEHExceptionRecord@@PEAXPEBU_s_HandlerType@@PEBU_s_CatchableType@@@Z 00000001800419e0 f   libvcruntimed:frame.obj
 0001:00040a20       ?BuildCatchObjectHelper@__FrameHandler4@@SAHPEAUEHExceptionRecord@@PEAXPEAUHandlerType4@FH4@@PEBU_s_CatchableType@@@Z 0000000180041a20 f   libvcruntimed:frame.obj
 0001:00040a60       ?CxxCallCatchBlock@__FrameHandler3@@SAPEAXPEAU_EXCEPTION_RECORD@@@Z 0000000180041a60 f   libvcruntimed:frame.obj
 0001:00040cc0       ?CxxCallCatchBlock@__FrameHandler4@@SAPEAXPEAU_EXCEPTION_RECORD@@@Z 0000000180041cc0 f   libvcruntimed:frame.obj
 0001:00040ff0       ?DecompHandler@HandlerMap4@FH4@@AEAAXXZ 0000000180041ff0 f i libvcruntimed:frame.obj
 0001:000413c0       ?FrameUnwindToState@__FrameHandler3@@SAXPEA_KPEAU_xDISPATCHER_CONTEXT@@PEBU_s_FuncInfo@@H@Z 00000001800423c0 f   libvcruntimed:frame.obj
 0001:00041610       ?FrameUnwindToState@__FrameHandler4@@SAXPEA_KPEAU_xDISPATCHER_CONTEXT@@PEAUFuncInfo4@FH4@@H@Z 0000000180042610 f   libvcruntimed:frame.obj
 0001:00041920       ?GetHandlerSearchState@__FrameHandler3@@SAHPEA_KPEAU_xDISPATCHER_CONTEXT@@PEBU_s_FuncInfo@@@Z 0000000180042920 f i libvcruntimed:frame.obj
 0001:000419d0       ?GetHandlerSearchState@__FrameHandler4@@SAHPEA_KPEAU_xDISPATCHER_CONTEXT@@PEAUFuncInfo4@FH4@@@Z 00000001800429d0 f i libvcruntimed:frame.obj
 0001:00041a50       ?GetMaxState@__FrameHandler3@@SAHPEAU_xDISPATCHER_CONTEXT@@PEBU_s_FuncInfo@@@Z 0000000180042a50 f i libvcruntimed:frame.obj
 0001:00041a70       ?GetMaxState@__FrameHandler4@@SAHPEAU_xDISPATCHER_CONTEXT@@PEAUFuncInfo4@FH4@@@Z 0000000180042a70 f i libvcruntimed:frame.obj
 0001:00041ca0       ?ReadEntry@UWMap4@FH4@@AEAAXPEAPEAE@Z 0000000180042ca0 f i libvcruntimed:frame.obj
 0001:00041d50       ?TypeMatch@__FrameHandler3@@SAHPEBU_s_HandlerType@@PEBU_s_CatchableType@@PEBU_s_ThrowInfo@@@Z 0000000180042d50 f   libvcruntimed:frame.obj
 0001:00041d80       ?TypeMatch@__FrameHandler4@@SAHPEAUHandlerType4@FH4@@PEBU_s_CatchableType@@PEBU_s_ThrowInfo@@@Z 0000000180042d80 f   libvcruntimed:frame.obj
 0001:00041db0       ?WalkBack@UWMap4@FH4@@AEAAXPEAPEAE@Z 0000000180042db0 f i libvcruntimed:frame.obj
 0001:00041e00       ?WalkBack@iterator@UWMap4@FH4@@QEAAXXZ 0000000180042e00 f i libvcruntimed:frame.obj
 0001:00041e40       ?WalkForward@UWMap4@FH4@@AEAAXPEAPEAE@Z 0000000180042e40 f i libvcruntimed:frame.obj
 0001:00041e70       ?_CallMemberFunction1@@YAXQEAX00@Z 0000000180042e70 f i libvcruntimed:frame.obj
 0001:00041eb0       ?_CallMemberFunction2@@YAXQEAX00H@Z 0000000180042eb0 f i libvcruntimed:frame.obj
 0001:00041f40       ?begin@HandlerMap4@FH4@@QEAA?AViterator@12@XZ 0000000180042f40 f i libvcruntimed:frame.obj
 0001:00041f70       ?begin@HandlerMap@__FrameHandler3@@QEAA?AViterator@12@XZ 0000000180042f70 f i libvcruntimed:frame.obj
 0001:00041fa0       ?begin@UWMap4@FH4@@QEAA?AViterator@12@XZ 0000000180042fa0 f i libvcruntimed:frame.obj
 0001:00041fd0       ?end@HandlerMap4@FH4@@QEAA?AViterator@12@XZ 0000000180042fd0 f i libvcruntimed:frame.obj
 0001:00042000       ?end@HandlerMap@__FrameHandler3@@QEAA?AViterator@12@XZ 0000000180043000 f i libvcruntimed:frame.obj
 0001:00042030       ?getESTypes@__FrameHandler3@@SAPEBU_s_ESTypeList@@PEBU_s_FuncInfo@@@Z 0000000180043030 f i libvcruntimed:frame.obj
 0001:00042070       ?getESTypes@__FrameHandler4@@SAPEBU_s_ESTypeList@@PEAUFuncInfo4@FH4@@@Z 0000000180043070 f i libvcruntimed:frame.obj
 0001:00042080       ?getLastEntry@HandlerMap4@FH4@@QEAAPEAUHandlerType4@2@XZ 0000000180043080 f i libvcruntimed:frame.obj
 0001:000420c0       ?getLastEntry@HandlerMap@__FrameHandler3@@QEAAPEBU_s_HandlerType@@XZ 00000001800430c0 f i libvcruntimed:frame.obj
 0001:000420e0       ?getMagicNum@__FrameHandler3@@SAIPEBU_s_FuncInfo@@@Z 00000001800430e0 f i libvcruntimed:frame.obj
 0001:00042100       ?getMagicNum@__FrameHandler4@@SAIPEAUFuncInfo4@FH4@@@Z 0000000180043100 f i libvcruntimed:frame.obj
 0001:00042110       ?getNumTryBlocks@TryBlockMap4@FH4@@QEAAIXZ 0000000180043110 f i libvcruntimed:frame.obj
 0001:00042120       ?getNumTryBlocks@TryBlockMap@__FrameHandler3@@QEAAIXZ 0000000180043120 f i libvcruntimed:frame.obj
 0001:00042140       ?getStartStop@UWMap4@FH4@@QEAAXHHAEAViterator@12@0@Z 0000000180043140 f i libvcruntimed:frame.obj
 0001:00042260       ?getStateFromIterators@UWMap4@FH4@@SAHAEBViterator@12@H0H0@Z 0000000180043260 f i libvcruntimed:frame.obj
 0001:000423a0       ?isEHs@__FrameHandler3@@SA_NPEBU_s_FuncInfo@@@Z 00000001800433a0 f i libvcruntimed:frame.obj
 0001:000423e0       ?isEHs@__FrameHandler4@@SA_NPEAUFuncInfo4@FH4@@@Z 00000001800433e0 f i libvcruntimed:frame.obj
 0001:00042400       ?isNoExcept@__FrameHandler3@@SA_NPEBU_s_FuncInfo@@@Z 0000000180043400 f i libvcruntimed:frame.obj
 0001:00042440       ?isNoExcept@__FrameHandler4@@SA_NPEAUFuncInfo4@FH4@@@Z 0000000180043440 f i libvcruntimed:frame.obj
 0001:00042460       ?reset@HandlerType4@FH4@@QEAAXXZ 0000000180043460 f i libvcruntimed:frame.obj
 0001:000424c0       ?resetBuffer@HandlerMap4@FH4@@QEAAXXZ 00000001800434c0 f i libvcruntimed:frame.obj
 0001:000424e0       ?setBuffer@HandlerMap4@FH4@@QEAAXI@Z 00000001800434e0 f i libvcruntimed:frame.obj
 0001:00042540       __BuildCatchObject         0000000180043540 f   libvcruntimed:frame.obj
 0001:00042580       __BuildCatchObjectHelper   0000000180043580 f   libvcruntimed:frame.obj
 0001:000425c0       __TypeMatch                00000001800435c0 f   libvcruntimed:frame.obj
 0001:000425f0       __vcrt_EncodePointer       00000001800435f0 f i libvcruntimed:frame.obj
 0001:00042610       ??$?0$00@DName@@QEAA@PEBDU?$StringLifeSelector@$00@@@Z 0000000180043610 f i libvcruntimed:undname.obj
 0001:00042680       ??$?0$00@pcharNode@@QEAA@PEBDHU?$StringLifeSelector@$00@@@Z 0000000180043680 f i libvcruntimed:undname.obj
 0001:000426e0       ??$?0$01@DName@@QEAA@PEBDU?$StringLifeSelector@$01@@@Z 00000001800436e0 f i libvcruntimed:undname.obj
 0001:00042750       ??$?0$01@pcharNode@@QEAA@PEBDHU?$StringLifeSelector@$01@@@Z 0000000180043750 f i libvcruntimed:undname.obj
 0001:00042800       ??$?0$0A@@DName@@QEAA@PEBDU?$StringLifeSelector@$0A@@@@Z 0000000180043800 f i libvcruntimed:undname.obj
 0001:00042870       ??$?0$0A@@pcharNode@@QEAA@PEBDHU?$StringLifeSelector@$0A@@@@Z 0000000180043870 f i libvcruntimed:undname.obj
 0001:00042920       ??$?0_K$0A@@?$optional@_K@std@@QEAA@$$QEA_K@Z 0000000180043920 f i libvcruntimed:undname.obj
 0001:00042970       ??$?0_K@?$_Optional_construct_base@_K@std@@QEAA@Uin_place_t@1@$$QEA_K@Z 0000000180043970 f i libvcruntimed:undname.obj
 0001:000429a0       ??$?0_K@?$_Optional_destruct_base@_K$00@std@@QEAA@Uin_place_t@1@$$QEA_K@Z 00000001800439a0 f i libvcruntimed:undname.obj
 0001:000429e0       ??$append@VDNameNode@@@DName@@AEAAXPEBVDNameNode@@@Z 00000001800439e0 f i libvcruntimed:undname.obj
 0001:00042a90       ??$append@VDNameStatusNode@@@DName@@AEAAXPEBVDNameStatusNode@@@Z 0000000180043a90 f i libvcruntimed:undname.obj
 0001:00042b40       ??$append@VcharNode@@@DName@@AEAAXPEBVcharNode@@@Z 0000000180043b40 f i libvcruntimed:undname.obj
 0001:00042bf0       ??$append@VpDNameNode@@@DName@@AEAAXPEBVpDNameNode@@@Z 0000000180043bf0 f i libvcruntimed:undname.obj
 0001:00042ca0       ??$append@VpcharNode@@@DName@@AEAAXPEBVpcharNode@@@Z 0000000180043ca0 f i libvcruntimed:undname.obj
 0001:00042d50       ??$doPchar@$00@DName@@AEAAXPEBDH@Z 0000000180043d50 f i libvcruntimed:undname.obj
 0001:00042eb0       ??$doPchar@$01@DName@@AEAAXPEBDH@Z 0000000180043eb0 f i libvcruntimed:undname.obj
 0001:00043010       ??$doPchar@$0A@@DName@@AEAAXPEBDH@Z 0000000180044010 f i libvcruntimed:undname.obj
 0001:00043170       ??$forward@_K@std@@YA$$QEA_KAEA_K@Z 0000000180044170 f i libvcruntimed:undname.obj
 0001:00043180       ??$size@D$04@std@@YA_KAEAY04$$CBD@Z 0000000180044180 f i libvcruntimed:undname.obj
 0001:00043190       ??$size@D$0EB@@std@@YA_KAEAY0EB@$$CBD@Z 0000000180044190 f i libvcruntimed:undname.obj
 0001:000431a0       ??0?$_Optional_construct_base@_K@std@@QEAA@XZ 00000001800441a0 f i libvcruntimed:undname.obj
 0001:000431c0       ??0?$_Optional_destruct_base@_K$00@std@@QEAA@XZ 00000001800441c0 f i libvcruntimed:undname.obj
 0001:000431f0       ??0?$optional@_K@std@@QEAA@XZ 00000001800441f0 f i libvcruntimed:undname.obj
 0001:00043210       ??0Block@_HeapManager@@QEAA@XZ 0000000180044210 f i libvcruntimed:undname.obj
 0001:00043230       ??0DName@@QEAA@AEAPEBDD@Z  0000000180044230 f   libvcruntimed:undname.obj
 0001:00043400       ??0DName@@QEAA@AEBUStringLiteral@@@Z 0000000180044400 f   libvcruntimed:undname.obj
 0001:00043460       ??0DName@@QEAA@AEBV0@@Z    0000000180044460 f i libvcruntimed:undname.obj
 0001:00043490       ??0DName@@QEAA@D@Z         0000000180044490 f   libvcruntimed:undname.obj
 0001:000434d0       ??0DName@@QEAA@PEAV0@@Z    00000001800444d0 f   libvcruntimed:undname.obj
 0001:000435b0       ??0DName@@QEAA@W4DNameStatus@@@Z 00000001800445b0 f   libvcruntimed:undname.obj
 0001:00043660       ??0DName@@QEAA@XZ          0000000180044660 f i libvcruntimed:undname.obj
 0001:00043690       ??0DName@@QEAA@_J@Z        0000000180044690 f   libvcruntimed:undname.obj
 0001:000437a0       ??0DName@@QEAA@_K@Z        00000001800447a0 f   libvcruntimed:undname.obj
 0001:00043870       ??0DNameNode@@IEAA@XZ      0000000180044870 f i libvcruntimed:undname.obj
 0001:00043890       ??0Replicator@@QEAA@XZ     0000000180044890 f i libvcruntimed:undname.obj
 0001:000438d0       ??0UnDecorator@@QEAA@PEBDP6APEADJ@ZK@Z 00000001800448d0 f i libvcruntimed:undname.obj
 0001:00043980       ??0_Nontrivial_dummy_type@std@@QEAA@XZ 0000000180044980 f i libvcruntimed:undname.obj
 0001:00043990       ??0charNode@@QEAA@D@Z      0000000180044990 f i libvcruntimed:undname.obj
 0001:000439d0       ??0pDNameNode@@QEAA@PEAVDName@@@Z 00000001800449d0 f   libvcruntimed:undname.obj
 0001:00043a50       ??0pairNode@@QEAA@PEBVDNameNode@@0@Z 0000000180044a50 f i libvcruntimed:undname.obj
 0001:00043ad0       ??2@YAPEAX_KAEAV_HeapManager@@H@Z 0000000180044ad0 f   libvcruntimed:undname.obj
 0001:00043b30       ??4DName@@QEAAAEAV0@AEBUStringLiteral@@@Z 0000000180044b30 f   libvcruntimed:undname.obj
 0001:00043b80       ??4DName@@QEAAAEAV0@AEBV0@@Z 0000000180044b80 f   libvcruntimed:undname.obj
 0001:00043bb0       ??4DName@@QEAAAEAV0@D@Z    0000000180044bb0 f i libvcruntimed:undname.obj
 0001:00043bf0       ??4DName@@QEAAAEAV0@PEAV0@@Z 0000000180044bf0 f   libvcruntimed:undname.obj
 0001:00043cc0       ??4DName@@QEAAAEAV0@W4DNameStatus@@@Z 0000000180044cc0 f   libvcruntimed:undname.obj
 0001:00043d50       ??AReplicator@@QEBA?AVDName@@H@Z 0000000180044d50 f   libvcruntimed:undname.obj
 0001:00043de0       ??B?$optional@_K@std@@QEBA_NXZ 0000000180044de0 f i libvcruntimed:undname.obj
 0001:00043df0       ??D?$optional@_K@std@@QEGAAAEA_KXZ 0000000180044df0 f i libvcruntimed:undname.obj
 0001:00043e00       ??H@YA?AVDName@@AEBUStringLiteral@@AEBV0@@Z 0000000180044e00 f i libvcruntimed:undname.obj
 0001:00043e50       ??H@YA?AVDName@@DAEBV0@@Z  0000000180044e50 f i libvcruntimed:undname.obj
 0001:00043ea0       ??H@YA?AVDName@@W4DNameStatus@@AEBV0@@Z 0000000180044ea0 f i libvcruntimed:undname.obj
 0001:00043ef0       ??HDName@@QEBA?AV0@AEBUStringLiteral@@@Z 0000000180044ef0 f   libvcruntimed:undname.obj
 0001:00043f40       ??HDName@@QEBA?AV0@AEBV0@@Z 0000000180044f40 f   libvcruntimed:undname.obj
 0001:00043f90       ??HDName@@QEBA?AV0@D@Z     0000000180044f90 f   libvcruntimed:undname.obj
 0001:00043fe0       ??HDName@@QEBA?AV0@PEAV0@@Z 0000000180044fe0 f   libvcruntimed:undname.obj
 0001:00044030       ??HDName@@QEBA?AV0@W4DNameStatus@@@Z 0000000180045030 f   libvcruntimed:undname.obj
 0001:00044080       ??HStringLiteral@@QEBA?AU0@H@Z 0000000180045080 f i libvcruntimed:undname.obj
 0001:000440c0       ??YDName@@QEAAAEAV0@AEBUStringLiteral@@@Z 00000001800450c0 f   libvcruntimed:undname.obj
 0001:00044190       ??YDName@@QEAAAEAV0@AEBV0@@Z 0000000180045190 f   libvcruntimed:undname.obj
 0001:00044250       ??YDName@@QEAAAEAV0@D@Z    0000000180045250 f   libvcruntimed:undname.obj
 0001:000442f0       ??YDName@@QEAAAEAV0@PEAV0@@Z 00000001800452f0 f   libvcruntimed:undname.obj
 0001:000443d0       ??YDName@@QEAAAEAV0@W4DNameStatus@@@Z 00000001800453d0 f   libvcruntimed:undname.obj
 0001:00044440       ??YReplicator@@QEAAAEAV0@AEBVDName@@@Z 0000000180045440 f   libvcruntimed:undname.obj
 0001:00044500       ??_5DName@@QEAAAEAV0@AEBV0@@Z 0000000180045500 f   libvcruntimed:undname.obj
 0001:00044570       ??__K_l@@YA?AUStringLiteral@@PEBD_K@Z 0000000180045570 f i libvcruntimed:undname.obj
 0001:000445c0       ?Constructor@_HeapManager@@QEAAXP6APEAX_K@ZP6AXPEAX@Z@Z 00000001800455c0 f i libvcruntimed:undname.obj
 0001:00044620       ?Destructor@_HeapManager@@QEAAXXZ 0000000180045620 f i libvcruntimed:undname.obj
 0001:000446c0       ?UScore@UnDecorator@@SA?AUStringLiteral@@W4Tokens@@@Z 00000001800456c0 f   libvcruntimed:undname.obj
 0001:00044750       ?composeDeclaration@UnDecorator@@CA?AVDName@@AEBV2@@Z 0000000180045750 f i libvcruntimed:undname.obj
 0001:00046c50       ?dbGetString@DName@@QEBAPEADXZ 0000000180047c50 f   libvcruntimed:undname.obj
 0001:00046c80       ?doAccessSpecifiers@UnDecorator@@SAHXZ 0000000180047c80 f i libvcruntimed:undname.obj
 0001:00046cb0       ?doAllocationLanguage@UnDecorator@@SAHXZ 0000000180047cb0 f i libvcruntimed:undname.obj
 0001:00046ce0       ?doAllocationModel@UnDecorator@@SAHXZ 0000000180047ce0 f i libvcruntimed:undname.obj
 0001:00046d10       ?doEcsu@UnDecorator@@SAHXZ 0000000180047d10 f i libvcruntimed:undname.obj
 0001:00046d40       ?doEllipsis@UnDecorator@@SAHXZ 0000000180047d40 f i libvcruntimed:undname.obj
 0001:00046d70       ?doFunctionReturns@UnDecorator@@SAHXZ 0000000180047d70 f i libvcruntimed:undname.obj
 0001:00046da0       ?doMSKeywords@UnDecorator@@SAHXZ 0000000180047da0 f i libvcruntimed:undname.obj
 0001:00046dd0       ?doMemberTypes@UnDecorator@@SAHXZ 0000000180047dd0 f i libvcruntimed:undname.obj
 0001:00046e00       ?doNameOnly@UnDecorator@@SAHXZ 0000000180047e00 f i libvcruntimed:undname.obj
 0001:00046e10       ?doNoIdentCharCheck@UnDecorator@@SAHXZ 0000000180047e10 f i libvcruntimed:undname.obj
 0001:00046e20       ?doPchar@DName@@AEAAXD@Z   0000000180047e20 f   libvcruntimed:undname.obj
 0001:00046eb0       ?doPtr64@UnDecorator@@SAHXZ 0000000180047eb0 f i libvcruntimed:undname.obj
 0001:00046ee0       ?doRestrictionSpec@UnDecorator@@SAHXZ 0000000180047ee0 f i libvcruntimed:undname.obj
 0001:00046f10       ?doThisTypes@UnDecorator@@SAHXZ 0000000180047f10 f i libvcruntimed:undname.obj
 0001:00046f40       ?doThrowTypes@UnDecorator@@SAHXZ 0000000180047f40 f i libvcruntimed:undname.obj
 0001:00046f70       ?doTypeOnly@UnDecorator@@SAHXZ 0000000180047f70 f i libvcruntimed:undname.obj
 0001:00046f80       ?doUnderScore@UnDecorator@@SAHXZ 0000000180047f80 f i libvcruntimed:undname.obj
 0001:00046fb0       ?getArgumentList@UnDecorator@@CA?AVDName@@XZ 0000000180047fb0 f   libvcruntimed:undname.obj
 0001:00047150       ?getArgumentTypes@UnDecorator@@CA?AVDName@@XZ 0000000180048150 f   libvcruntimed:undname.obj
 0001:000474b0       ?getArrayObject@UnDecorator@@CA?AVDName@@XZ 00000001800484b0 f   libvcruntimed:undname.obj
 0001:000475d0       ?getArrayType@UnDecorator@@CA?AVDName@@AEBV2@@Z 00000001800485d0 f i libvcruntimed:undname.obj
 0001:00047990       ?getBasedType@UnDecorator@@CA?AVDName@@XZ 0000000180048990 f   libvcruntimed:undname.obj
 0001:00047b00       ?getBasicDataType@UnDecorator@@CA?AVDName@@AEBV2@@Z 0000000180048b00 f   libvcruntimed:undname.obj
 0001:000487d0       ?getCHPEName@UnDecorator@@QEAAPEADPEADH@Z 00000001800497d0 f i libvcruntimed:undname.obj
 0001:000489a0       ?getCallIndex@UnDecorator@@CA?AVDName@@XZ 00000001800499a0 f i libvcruntimed:undname.obj
 0001:000489c0       ?getCallingConvention@UnDecorator@@CA?AVDName@@XZ 00000001800499c0 f   libvcruntimed:undname.obj
 0001:00048d60       ?getDataIndirectType@UnDecorator@@CA?AVDName@@AEBV2@W4IndirectionKind@@0H@Z 0000000180049d60 f   libvcruntimed:undname.obj
 0001:00049a00       ?getDataIndirectType@UnDecorator@@CA?AVDName@@XZ 000000018004aa00 f i libvcruntimed:undname.obj
 0001:00049a50       ?getDataType@UnDecorator@@CA?AVDName@@PEAV2@@Z 000000018004aa50 f   libvcruntimed:undname.obj
 0001:00049c30       ?getDecoratedName@UnDecorator@@CA?AVDName@@XZ 000000018004ac30 f   libvcruntimed:undname.obj
 0001:0004a120       ?getDimension@UnDecorator@@CA?AVDName@@_N@Z 000000018004b120 f   libvcruntimed:undname.obj
 0001:0004a430       ?getDispatchTarget@UnDecorator@@CA?AVDName@@XZ 000000018004b430 f   libvcruntimed:undname.obj
 0001:0004a500       ?getDisplacement@UnDecorator@@CA?AVDName@@XZ 000000018004b500 f i libvcruntimed:undname.obj
 0001:0004a520       ?getECSUDataType@UnDecorator@@CA?AVDName@@XZ 000000018004b520 f   libvcruntimed:undname.obj
 0001:0004a8b0       ?getECSUName@UnDecorator@@CA?AVDName@@XZ 000000018004b8b0 f i libvcruntimed:undname.obj
 0001:0004a8d0       ?getEnumType@UnDecorator@@CA?AVDName@@XZ 000000018004b8d0 f i libvcruntimed:undname.obj
 0001:0004ab60       ?getExtendedDataIndirectType@UnDecorator@@CA?AVDName@@AEAW4IndirectionKind@@AEA_NH@Z 000000018004bb60 f   libvcruntimed:undname.obj
 0001:0004ae80       ?getExternalDataType@UnDecorator@@CA?AVDName@@AEBV2@@Z 000000018004be80 f i libvcruntimed:undname.obj
 0001:0004af60       ?getFloatingPoint@UnDecorator@@CA?AVDName@@H@Z 000000018004bf60 f   libvcruntimed:undname.obj
 0001:0004b1d0       ?getFunctionIndirectType@UnDecorator@@CA?AVDName@@AEBV2@@Z 000000018004c1d0 f   libvcruntimed:undname.obj
 0001:0004b800       ?getGuardNumber@UnDecorator@@CA?AVDName@@XZ 000000018004c800 f i libvcruntimed:undname.obj
 0001:0004b820       ?getLastChar@DName@@QEBADXZ 000000018004c820 f i libvcruntimed:undname.obj
 0001:0004b870       ?getLastChar@DNameStatusNode@@UEBADXZ 000000018004c870 f i libvcruntimed:undname.obj
 0001:0004b8b0       ?getLastChar@charNode@@UEBADXZ 000000018004c8b0 f i libvcruntimed:undname.obj
 0001:0004b8c0       ?getLastChar@pDNameNode@@UEBADXZ 000000018004c8c0 f i libvcruntimed:undname.obj
 0001:0004b900       ?getLastChar@pairNode@@UEBADXZ 000000018004c900 f i libvcruntimed:undname.obj
 0001:0004b980       ?getLastChar@pcharNode@@UEBADXZ 000000018004c980 f i libvcruntimed:undname.obj
 0001:0004b9c0       ?getLexicalFrame@UnDecorator@@CA?AVDName@@XZ 000000018004c9c0 f i libvcruntimed:undname.obj
 0001:0004ba10       ?getMemoryWithBuffer@_HeapManager@@QEAAPEAX_K@Z 000000018004ca10 f   libvcruntimed:undname.obj
 0001:0004bb60       ?getMemoryWithoutBuffer@_HeapManager@@QEAAPEAX_K@Z 000000018004cb60 f   libvcruntimed:undname.obj
 0001:0004bbb0       ?getNoexcept@UnDecorator@@CA?AVDName@@XZ 000000018004cbb0 f   libvcruntimed:undname.obj
 0001:0004bc60       ?getNumberOfDimensions@UnDecorator@@CAHXZ 000000018004cc60 f   libvcruntimed:undname.obj
 0001:0004bd80       ?getOperatorName@UnDecorator@@CA?AVDName@@_NPEA_N@Z 000000018004cd80 f i libvcruntimed:undname.obj
 0001:0004cc90       ?getPointerType@UnDecorator@@CA?AVDName@@AEBV2@0@Z 000000018004dc90 f i libvcruntimed:undname.obj
 0001:0004ccd0       ?getPointerTypeArray@UnDecorator@@CA?AVDName@@AEBV2@0@Z 000000018004dcd0 f i libvcruntimed:undname.obj
 0001:0004cd10       ?getPrimaryDataType@UnDecorator@@CA?AVDName@@AEBV2@@Z 000000018004dd10 f   libvcruntimed:undname.obj
 0001:0004d340       ?getPtrRefDataType@UnDecorator@@CA?AVDName@@AEBV2@H@Z 000000018004e340 f   libvcruntimed:undname.obj
 0001:0004d730       ?getPtrRefType@UnDecorator@@CA?AVDName@@AEBV2@0W4IndirectionKind@@@Z 000000018004e730 f   libvcruntimed:undname.obj
 0001:0004d970       ?getReferenceType@UnDecorator@@CA?AVDName@@AEBV2@0W4IndirectionKind@@@Z 000000018004e970 f i libvcruntimed:undname.obj
 0001:0004d9b0       ?getRestrictionSpec@UnDecorator@@CA?AVDName@@XZ 000000018004e9b0 f   libvcruntimed:undname.obj
 0001:0004dc40       ?getReturnType@UnDecorator@@CA?AVDName@@PEAV2@@Z 000000018004ec40 f   libvcruntimed:undname.obj
 0001:0004dca0       ?getScope@UnDecorator@@CA?AVDName@@XZ 000000018004eca0 f   libvcruntimed:undname.obj
 0001:0004e3f0       ?getScopedName@UnDecorator@@CA?AVDName@@XZ 000000018004f3f0 f   libvcruntimed:undname.obj
 0001:0004e5f0       ?getSignedDimension@UnDecorator@@CA?AVDName@@XZ 000000018004f5f0 f   libvcruntimed:undname.obj
 0001:0004e680       ?getStorageConvention@UnDecorator@@CA?AVDName@@XZ 000000018004f680 f i libvcruntimed:undname.obj
 0001:0004e6a0       ?getString@DName@@QEBAPEADPEAD0@Z 000000018004f6a0 f i libvcruntimed:undname.obj
 0001:0004e720       ?getString@DName@@QEBAPEADPEADH@Z 000000018004f720 f i libvcruntimed:undname.obj
 0001:0004e7e0       ?getString@DNameStatusNode@@UEBAPEADPEAD0@Z 000000018004f7e0 f i libvcruntimed:undname.obj
 0001:0004e830       ?getString@charNode@@UEBAPEADPEAD0@Z 000000018004f830 f i libvcruntimed:undname.obj
 0001:0004e870       ?getString@pDNameNode@@UEBAPEADPEAD0@Z 000000018004f870 f i libvcruntimed:undname.obj
 0001:0004e8d0       ?getString@pairNode@@UEBAPEADPEAD0@Z 000000018004f8d0 f i libvcruntimed:undname.obj
 0001:0004e9a0       ?getString@pcharNode@@UEBAPEADPEAD0@Z 000000018004f9a0 f i libvcruntimed:undname.obj
 0001:0004e9e0       ?getStringEncoding@UnDecorator@@CA?AVDName@@W4PrefixKind@@H@Z 000000018004f9e0 f   libvcruntimed:undname.obj
 0001:0004eb40       ?getStringHelper@@YAPEADPEADPEBD1H@Z 000000018004fb40 f i libvcruntimed:undname.obj
 0001:0004ebb0       ?getStringObject@UnDecorator@@CA?AVDName@@XZ 000000018004fbb0 f   libvcruntimed:undname.obj
 0001:0004ec90       ?getSymbolName@UnDecorator@@CA?AVDName@@XZ 000000018004fc90 f i libvcruntimed:undname.obj
 0001:0004ed30       ?getTemplateArgumentList@UnDecorator@@CA?AVDName@@XZ 000000018004fd30 f   libvcruntimed:undname.obj
 0001:0004f070       ?getTemplateName@UnDecorator@@CA?AVDName@@_N@Z 0000000180050070 f   libvcruntimed:undname.obj
 0001:0004f2b0       ?getTemplateNonTypeArgument@UnDecorator@@CA?AVDName@@XZ 00000001800502b0 f   libvcruntimed:undname.obj
 0001:0004f9d0       ?getTemplateTypeArgument@UnDecorator@@CA?AVDName@@XZ 00000001800509d0 f   libvcruntimed:undname.obj
 0001:0004fc40       ?getThisType@UnDecorator@@CA?AVDName@@XZ 0000000180050c40 f i libvcruntimed:undname.obj
 0001:0004fc90       ?getThrowTypes@UnDecorator@@CA?AVDName@@XZ 0000000180050c90 f   libvcruntimed:undname.obj
 0001:0004fce0       ?getTypeEncoding@UnDecorator@@CAHXZ 0000000180050ce0 f i libvcruntimed:undname.obj
 0001:00050910       ?getUndecoratedName@UnDecorator@@QEAAPEADPEADH@Z 0000000180051910 f i libvcruntimed:undname.obj
 0001:00050b00       ?getVCallThunkType@UnDecorator@@CA?AVDName@@XZ 0000000180051b00 f i libvcruntimed:undname.obj
 0001:00050bb0       ?getValue@UnDecorator@@CA?AV?$optional@_K@std@@XZ 0000000180051bb0 f   libvcruntimed:undname.obj
 0001:00050c80       ?getValueObject@UnDecorator@@CA?AVDName@@XZ 0000000180051c80 f   libvcruntimed:undname.obj
 0001:00050e70       ?getVbTableType@UnDecorator@@CA?AVDName@@AEBV2@@Z 0000000180051e70 f i libvcruntimed:undname.obj
 0001:00050ea0       ?getVdispMapType@UnDecorator@@CA?AVDName@@AEBV2@@Z 0000000180051ea0 f i libvcruntimed:undname.obj
 0001:00050f60       ?getVfTableType@UnDecorator@@CA?AVDName@@AEBV2@@Z 0000000180051f60 f i libvcruntimed:undname.obj
 0001:00051200       ?getZName@UnDecorator@@CA?AVDName@@_N0@Z 0000000180052200 f   libvcruntimed:undname.obj
 0001:00051690       ?haveTemplateParameters@UnDecorator@@SAHXZ 0000000180052690 f i libvcruntimed:undname.obj
 0001:000516a0       ?isArray@DName@@QEBAHXZ    00000001800526a0 f i libvcruntimed:undname.obj
 0001:000516c0       ?isComArray@DName@@QEBAHXZ 00000001800526c0 f i libvcruntimed:undname.obj
 0001:000516e0       ?isEmpty@DName@@QEBAHXZ    00000001800526e0 f i libvcruntimed:undname.obj
 0001:00051710       ?isFull@Replicator@@QEBAHXZ 0000000180052710 f i libvcruntimed:undname.obj
 0001:00051740       ?isNoTE@DName@@QEBAHXZ     0000000180052740 f i libvcruntimed:undname.obj
 0001:00051760       ?isPinPtr@DName@@QEBAHXZ   0000000180052760 f i libvcruntimed:undname.obj
 0001:00051780       ?isPtrRef@DName@@QEBAHXZ   0000000180052780 f i libvcruntimed:undname.obj
 0001:000517a0       ?isUDC@DName@@QEBAHXZ      00000001800527a0 f i libvcruntimed:undname.obj
 0001:000517f0       ?isUDTThunk@DName@@QEBAHXZ 00000001800527f0 f i libvcruntimed:undname.obj
 0001:00051840       ?isVCallThunk@DName@@QEBAHXZ 0000000180052840 f i libvcruntimed:undname.obj
 0001:00051860       ?isValid@DName@@QEBAHXZ    0000000180052860 f i libvcruntimed:undname.obj
 0001:000518a0       ?length@DName@@QEBAHXZ     00000001800528a0 f i libvcruntimed:undname.obj
 0001:000518f0       ?length@DNameStatusNode@@UEBAHXZ 00000001800528f0 f i libvcruntimed:undname.obj
 0001:00051900       ?length@charNode@@UEBAHXZ  0000000180052900 f i libvcruntimed:undname.obj
 0001:00051910       ?length@pDNameNode@@UEBAHXZ 0000000180052910 f i libvcruntimed:undname.obj
 0001:00051950       ?length@pairNode@@UEBAHXZ  0000000180052950 f i libvcruntimed:undname.obj
 0001:000519e0       ?length@pcharNode@@UEBAHXZ 00000001800529e0 f i libvcruntimed:undname.obj
 0001:000519f0       ?make@DNameStatusNode@@SAPEBV1@W4DNameStatus@@@Z 00000001800529f0 f i libvcruntimed:undname.obj
 0001:00051a40       ?parseDecoratedName@UnDecorator@@CA?AVDName@@XZ 0000000180052a40 f   libvcruntimed:undname.obj
 0001:00051c30       ?raw_length@DNameStatusNode@@UEBAHXZ 0000000180052c30 f i libvcruntimed:undname.obj
 0001:00051c50       ?raw_length@charNode@@UEBAHXZ 0000000180052c50 f i libvcruntimed:undname.obj
 0001:00051c70       ?raw_length@pDNameNode@@UEBAHXZ 0000000180052c70 f i libvcruntimed:undname.obj
 0001:00051c80       ?raw_length@pairNode@@UEBAHXZ 0000000180052c80 f i libvcruntimed:undname.obj
 0001:00051c90       ?raw_length@pcharNode@@UEBAHXZ 0000000180052c90 f i libvcruntimed:undname.obj
 0001:00051cb0       ?setIsArray@DName@@QEAAXXZ 0000000180052cb0 f i libvcruntimed:undname.obj
 0001:00051cd0       ?setIsComArray@DName@@QEAAXXZ 0000000180052cd0 f i libvcruntimed:undname.obj
 0001:00051cf0       ?setIsNoTE@DName@@QEAAXXZ  0000000180052cf0 f i libvcruntimed:undname.obj
 0001:00051d10       ?setIsPinPtr@DName@@QEAAXXZ 0000000180052d10 f i libvcruntimed:undname.obj
 0001:00051d30       ?setIsUDC@DName@@QEAAXXZ   0000000180052d30 f i libvcruntimed:undname.obj
 0001:00051d60       ?setIsVCallThunk@DName@@QEAAXXZ 0000000180052d60 f i libvcruntimed:undname.obj
 0001:00051d80       ?setPtrRef@DName@@QEAAAEAV1@XZ 0000000180052d80 f i libvcruntimed:undname.obj
 0001:00051da0       ?status@DName@@QEBA?AW4DNameStatus@@XZ 0000000180052da0 f i libvcruntimed:undname.obj
 0001:00051ed0       __unDName                  0000000180052ed0 f   libvcruntimed:undname.obj
 0001:00051f30       __unDNameEx                0000000180052f30 f   libvcruntimed:undname.obj
 0001:00051ff0       unDNameGenerateCHPE        0000000180052ff0 f   libvcruntimed:undname.obj
 0001:000520a0       ??$__crt_interlocked_exchange_pointer@UHINSTANCE__@@PEAU1@@@YAPEAUHINSTANCE__@@PEDSEAU0@QEAU0@@Z 00000001800530a0 f i libvcruntimed:winapi_downlevel.obj
 0001:000520c0       ??$__crt_interlocked_exchange_pointer@UHINSTANCE__@@PEAX@@YAPEAUHINSTANCE__@@PEDSEAU0@QEAX@Z 00000001800530c0 f i libvcruntimed:winapi_downlevel.obj
 0001:000520e0       ??$__crt_interlocked_exchange_pointer@XPEAX@@YAPEAXPEDSEAXQEAX@Z 00000001800530e0 f i libvcruntimed:winapi_downlevel.obj
 0001:00052100       ??$__crt_interlocked_read_pointer@UHINSTANCE__@@@@YAPEAUHINSTANCE__@@PEDSEAU0@@Z 0000000180053100 f i libvcruntimed:winapi_downlevel.obj
 0001:00052120       ??$__crt_interlocked_read_pointer@X@@YAPEAXPEDSEAX@Z 0000000180053120 f i libvcruntimed:winapi_downlevel.obj
 0001:00052630       __vcrt_FlsAlloc            0000000180053630 f   libvcruntimed:winapi_downlevel.obj
 0001:00052680       __vcrt_FlsFree             0000000180053680 f   libvcruntimed:winapi_downlevel.obj
 0001:000526d0       __vcrt_FlsGetValue         00000001800536d0 f   libvcruntimed:winapi_downlevel.obj
 0001:00052720       __vcrt_FlsSetValue         0000000180053720 f   libvcruntimed:winapi_downlevel.obj
 0001:00052780       __vcrt_InitializeCriticalSectionEx 0000000180053780 f   libvcruntimed:winapi_downlevel.obj
 0001:00052800       _CallSettingFrame          0000000180053800 f   libvcruntimed:handlers.obj
 0001:00052850       _CallSettingFrame_LookupContinuationIndex 0000000180053850 f   libvcruntimed:handlers.obj
 0001:00052880       _CallSettingFrame_NotifyContinuationAddr 0000000180053880 f   libvcruntimed:handlers.obj
 0001:000528b0       _CallSettingFrameEncoded   00000001800538b0 f   libvcruntimed:handlers.obj
 0001:00052900       ??$?0AEBV?$stream_output_adapter@D@__crt_stdio_output@@AEB_KAEBQEBDAEBQEAU__crt_locale_pointers@@AEBQEAD@?$format_validation_base@DV?$stream_output_adapter@D@__crt_stdio_output@@@__crt_stdio_output@@IEAA@AEBV?$stream_output_adapter@D@1@AEB_KAEBQEBDAEBQEAU__crt_locale_pointers@@AEBQEAD@Z 0000000180053900 f i libucrtd:output.obj
 0001:00052950       ??$?0AEBV?$stream_output_adapter@D@__crt_stdio_output@@AEB_KAEBQEBDAEBQEAU__crt_locale_pointers@@AEBQEAD@?$positional_parameter_base@DV?$stream_output_adapter@D@__crt_stdio_output@@@__crt_stdio_output@@IEAA@AEBV?$stream_output_adapter@D@1@AEB_KAEBQEBDAEBQEAU__crt_locale_pointers@@AEBQEAD@Z 0000000180053950 f i libucrtd:output.obj
 0001:000529f0       ??$?0AEBV?$stream_output_adapter@D@__crt_stdio_output@@AEB_KAEBQEBDAEBQEAU__crt_locale_pointers@@AEBQEAD@?$standard_base@DV?$stream_output_adapter@D@__crt_stdio_output@@@__crt_stdio_output@@IEAA@AEBV?$stream_output_adapter@D@1@AEB_KAEBQEBDAEBQEAU__crt_locale_pointers@@AEBQEAD@Z 00000001800539f0 f i libucrtd:output.obj
 0001:00052a60       ??$?0AEBV?$stream_output_adapter@_W@__crt_stdio_output@@AEB_KAEBQEB_WAEBQEAU__crt_locale_pointers@@AEBQEAD@?$format_validation_base@_WV?$stream_output_adapter@_W@__crt_stdio_output@@@__crt_stdio_output@@IEAA@AEBV?$stream_output_adapter@_W@1@AEB_KAEBQEB_WAEBQEAU__crt_locale_pointers@@AEBQEAD@Z 0000000180053a60 f i libucrtd:output.obj
 0001:00052ab0       ??$?0AEBV?$stream_output_adapter@_W@__crt_stdio_output@@AEB_KAEBQEB_WAEBQEAU__crt_locale_pointers@@AEBQEAD@?$positional_parameter_base@_WV?$stream_output_adapter@_W@__crt_stdio_output@@@__crt_stdio_output@@IEAA@AEBV?$stream_output_adapter@_W@1@AEB_KAEBQEB_WAEBQEAU__crt_locale_pointers@@AEBQEAD@Z 0000000180053ab0 f i libucrtd:output.obj
 0001:00052b50       ??$?0AEBV?$stream_output_adapter@_W@__crt_stdio_output@@AEB_KAEBQEB_WAEBQEAU__crt_locale_pointers@@AEBQEAD@?$standard_base@_WV?$stream_output_adapter@_W@__crt_stdio_output@@@__crt_stdio_output@@IEAA@AEBV?$stream_output_adapter@_W@1@AEB_KAEBQEB_WAEBQEAU__crt_locale_pointers@@AEBQEAD@Z 0000000180053b50 f i libucrtd:output.obj
 0001:00052bc0       ??$?0AEBV?$string_output_adapter@D@__crt_stdio_output@@AEB_KAEBQEBDAEBQEAU__crt_locale_pointers@@AEBQEAD@?$format_validation_base@DV?$string_output_adapter@D@__crt_stdio_output@@@__crt_stdio_output@@IEAA@AEBV?$string_output_adapter@D@1@AEB_KAEBQEBDAEBQEAU__crt_locale_pointers@@AEBQEAD@Z 0000000180053bc0 f i libucrtd:output.obj
 0001:00052c10       ??$?0AEBV?$string_output_adapter@D@__crt_stdio_output@@AEB_KAEBQEBDAEBQEAU__crt_locale_pointers@@AEBQEAD@?$positional_parameter_base@DV?$string_output_adapter@D@__crt_stdio_output@@@__crt_stdio_output@@IEAA@AEBV?$string_output_adapter@D@1@AEB_KAEBQEBDAEBQEAU__crt_locale_pointers@@AEBQEAD@Z 0000000180053c10 f i libucrtd:output.obj
 0001:00052cb0       ??$?0AEBV?$string_output_adapter@D@__crt_stdio_output@@AEB_KAEBQEBDAEBQEAU__crt_locale_pointers@@AEBQEAD@?$standard_base@DV?$string_output_adapter@D@__crt_stdio_output@@@__crt_stdio_output@@IEAA@AEBV?$string_output_adapter@D@1@AEB_KAEBQEBDAEBQEAU__crt_locale_pointers@@AEBQEAD@Z 0000000180053cb0 f i libucrtd:output.obj
 0001:00052d20       ??$?0AEBV?$string_output_adapter@_W@__crt_stdio_output@@AEB_KAEBQEB_WAEBQEAU__crt_locale_pointers@@AEBQEAD@?$format_validation_base@_WV?$string_output_adapter@_W@__crt_stdio_output@@@__crt_stdio_output@@IEAA@AEBV?$string_output_adapter@_W@1@AEB_KAEBQEB_WAEBQEAU__crt_locale_pointers@@AEBQEAD@Z 0000000180053d20 f i libucrtd:output.obj
 0001:00052d70       ??$?0AEBV?$string_output_adapter@_W@__crt_stdio_output@@AEB_KAEBQEB_WAEBQEAU__crt_locale_pointers@@AEBQEAD@?$positional_parameter_base@_WV?$string_output_adapter@_W@__crt_stdio_output@@@__crt_stdio_output@@IEAA@AEBV?$string_output_adapter@_W@1@AEB_KAEBQEB_WAEBQEAU__crt_locale_pointers@@AEBQEAD@Z 0000000180053d70 f i libucrtd:output.obj
 0001:00052e10       ??$?0AEBV?$string_output_adapter@_W@__crt_stdio_output@@AEB_KAEBQEB_WAEBQEAU__crt_locale_pointers@@AEBQEAD@?$standard_base@_WV?$string_output_adapter@_W@__crt_stdio_output@@@__crt_stdio_output@@IEAA@AEBV?$string_output_adapter@_W@1@AEB_KAEBQEB_WAEBQEAU__crt_locale_pointers@@AEBQEAD@Z 0000000180053e10 f i libucrtd:output.obj
 0001:00053240       ??$__crt_interlocked_read@J@@YAJPEDJ@Z 0000000180054240 f i libucrtd:output.obj
 0001:00056d20       ??$count@D@formatting_buffer@__crt_stdio_output@@QEBA_KXZ 0000000180057d20 f i libucrtd:output.obj
 0001:00056d70       ??$count@_W@formatting_buffer@__crt_stdio_output@@QEBA_KXZ 0000000180057d70 f i libucrtd:output.obj
 0001:00056dc0       ??$data@D@formatting_buffer@__crt_stdio_output@@QEAAPEADXZ 0000000180057dc0 f i libucrtd:output.obj
 0001:00056e10       ??$data@_W@formatting_buffer@__crt_stdio_output@@QEAAPEA_WXZ 0000000180057e10 f i libucrtd:output.obj
 0001:00056e60       ??$ensure_buffer_is_big_enough@D@formatting_buffer@__crt_stdio_output@@QEAA_N_K@Z 0000000180057e60 f i libucrtd:output.obj
 0001:00056f90       ??$ensure_buffer_is_big_enough@_W@formatting_buffer@__crt_stdio_output@@QEAA_N_K@Z 0000000180057f90 f i libucrtd:output.obj
 0001:000570c0       ??$extract_argument_from_va_list@C_J@?$positional_parameter_base@DV?$stream_output_adapter@D@__crt_stdio_output@@@__crt_stdio_output@@IEAA_NAEA_J@Z 00000001800580c0 f i libucrtd:output.obj
 0001:00057240       ??$extract_argument_from_va_list@C_J@?$positional_parameter_base@DV?$string_output_adapter@D@__crt_stdio_output@@@__crt_stdio_output@@IEAA_NAEA_J@Z 0000000180058240 f i libucrtd:output.obj
 0001:000573c0       ??$extract_argument_from_va_list@C_J@?$positional_parameter_base@_WV?$stream_output_adapter@_W@__crt_stdio_output@@@__crt_stdio_output@@IEAA_NAEA_J@Z 00000001800583c0 f i libucrtd:output.obj
 0001:00057540       ??$extract_argument_from_va_list@C_J@?$positional_parameter_base@_WV?$string_output_adapter@_W@__crt_stdio_output@@@__crt_stdio_output@@IEAA_NAEA_J@Z 0000000180058540 f i libucrtd:output.obj
 0001:000576c0       ??$extract_argument_from_va_list@C_J@?$standard_base@DV?$stream_output_adapter@D@__crt_stdio_output@@@__crt_stdio_output@@IEAA_NAEA_J@Z 00000001800586c0 f i libucrtd:output.obj
 0001:00057700       ??$extract_argument_from_va_list@C_J@?$standard_base@DV?$string_output_adapter@D@__crt_stdio_output@@@__crt_stdio_output@@IEAA_NAEA_J@Z 0000000180058700 f i libucrtd:output.obj
 0001:00057740       ??$extract_argument_from_va_list@C_J@?$standard_base@_WV?$stream_output_adapter@_W@__crt_stdio_output@@@__crt_stdio_output@@IEAA_NAEA_J@Z 0000000180058740 f i libucrtd:output.obj
 0001:00057780       ??$extract_argument_from_va_list@C_J@?$standard_base@_WV?$string_output_adapter@_W@__crt_stdio_output@@@__crt_stdio_output@@IEAA_NAEA_J@Z 0000000180058780 f i libucrtd:output.obj
 0001:000577c0       ??$extract_argument_from_va_list@E_J@?$positional_parameter_base@DV?$stream_output_adapter@D@__crt_stdio_output@@@__crt_stdio_output@@IEAA_NAEA_J@Z 00000001800587c0 f i libucrtd:output.obj
 0001:00057940       ??$extract_argument_from_va_list@E_J@?$positional_parameter_base@DV?$string_output_adapter@D@__crt_stdio_output@@@__crt_stdio_output@@IEAA_NAEA_J@Z 0000000180058940 f i libucrtd:output.obj
 0001:00057ac0       ??$extract_argument_from_va_list@E_J@?$positional_parameter_base@_WV?$stream_output_adapter@_W@__crt_stdio_output@@@__crt_stdio_output@@IEAA_NAEA_J@Z 0000000180058ac0 f i libucrtd:output.obj
 0001:00057c40       ??$extract_argument_from_va_list@E_J@?$positional_parameter_base@_WV?$string_output_adapter@_W@__crt_stdio_output@@@__crt_stdio_output@@IEAA_NAEA_J@Z 0000000180058c40 f i libucrtd:output.obj
 0001:00057dc0       ??$extract_argument_from_va_list@E_J@?$standard_base@DV?$stream_output_adapter@D@__crt_stdio_output@@@__crt_stdio_output@@IEAA_NAEA_J@Z 0000000180058dc0 f i libucrtd:output.obj
 0001:00057e00       ??$extract_argument_from_va_list@E_J@?$standard_base@DV?$string_output_adapter@D@__crt_stdio_output@@@__crt_stdio_output@@IEAA_NAEA_J@Z 0000000180058e00 f i libucrtd:output.obj
 0001:00057e40       ??$extract_argument_from_va_list@E_J@?$standard_base@_WV?$stream_output_adapter@_W@__crt_stdio_output@@@__crt_stdio_output@@IEAA_NAEA_J@Z 0000000180058e40 f i libucrtd:output.obj
 0001:00057e80       ??$extract_argument_from_va_list@E_J@?$standard_base@_WV?$string_output_adapter@_W@__crt_stdio_output@@@__crt_stdio_output@@IEAA_NAEA_J@Z 0000000180058e80 f i libucrtd:output.obj
 0001:00057ec0       ??$extract_argument_from_va_list@F_J@?$positional_parameter_base@DV?$stream_output_adapter@D@__crt_stdio_output@@@__crt_stdio_output@@IEAA_NAEA_J@Z 0000000180058ec0 f i libucrtd:output.obj
 0001:00058040       ??$extract_argument_from_va_list@F_J@?$positional_parameter_base@DV?$string_output_adapter@D@__crt_stdio_output@@@__crt_stdio_output@@IEAA_NAEA_J@Z 0000000180059040 f i libucrtd:output.obj
 0001:000581c0       ??$extract_argument_from_va_list@F_J@?$positional_parameter_base@_WV?$stream_output_adapter@_W@__crt_stdio_output@@@__crt_stdio_output@@IEAA_NAEA_J@Z 00000001800591c0 f i libucrtd:output.obj
 0001:00058340       ??$extract_argument_from_va_list@F_J@?$positional_parameter_base@_WV?$string_output_adapter@_W@__crt_stdio_output@@@__crt_stdio_output@@IEAA_NAEA_J@Z 0000000180059340 f i libucrtd:output.obj
 0001:000584c0       ??$extract_argument_from_va_list@F_J@?$standard_base@DV?$stream_output_adapter@D@__crt_stdio_output@@@__crt_stdio_output@@IEAA_NAEA_J@Z 00000001800594c0 f i libucrtd:output.obj
 0001:00058500       ??$extract_argument_from_va_list@F_J@?$standard_base@DV?$string_output_adapter@D@__crt_stdio_output@@@__crt_stdio_output@@IEAA_NAEA_J@Z 0000000180059500 f i libucrtd:output.obj
 0001:00058540       ??$extract_argument_from_va_list@F_J@?$standard_base@_WV?$stream_output_adapter@_W@__crt_stdio_output@@@__crt_stdio_output@@IEAA_NAEA_J@Z 0000000180059540 f i libucrtd:output.obj
 0001:00058580       ??$extract_argument_from_va_list@F_J@?$standard_base@_WV?$string_output_adapter@_W@__crt_stdio_output@@@__crt_stdio_output@@IEAA_NAEA_J@Z 0000000180059580 f i libucrtd:output.obj
 0001:000585c0       ??$extract_argument_from_va_list@GD@?$positional_parameter_base@DV?$stream_output_adapter@D@__crt_stdio_output@@@__crt_stdio_output@@IEAA_NAEAD@Z 00000001800595c0 f i libucrtd:output.obj
 0001:00058740       ??$extract_argument_from_va_list@GD@?$positional_parameter_base@DV?$string_output_adapter@D@__crt_stdio_output@@@__crt_stdio_output@@IEAA_NAEAD@Z 0000000180059740 f i libucrtd:output.obj
 0001:000588c0       ??$extract_argument_from_va_list@GD@?$standard_base@DV?$stream_output_adapter@D@__crt_stdio_output@@@__crt_stdio_output@@IEAA_NAEAD@Z 00000001800598c0 f i libucrtd:output.obj
 0001:000588f0       ??$extract_argument_from_va_list@GD@?$standard_base@DV?$string_output_adapter@D@__crt_stdio_output@@@__crt_stdio_output@@IEAA_NAEAD@Z 00000001800598f0 f i libucrtd:output.obj
 0001:00058920       ??$extract_argument_from_va_list@G_J@?$positional_parameter_base@DV?$stream_output_adapter@D@__crt_stdio_output@@@__crt_stdio_output@@IEAA_NAEA_J@Z 0000000180059920 f i libucrtd:output.obj
 0001:00058aa0       ??$extract_argument_from_va_list@G_J@?$positional_parameter_base@DV?$string_output_adapter@D@__crt_stdio_output@@@__crt_stdio_output@@IEAA_NAEA_J@Z 0000000180059aa0 f i libucrtd:output.obj
 0001:00058c20       ??$extract_argument_from_va_list@G_J@?$positional_parameter_base@_WV?$stream_output_adapter@_W@__crt_stdio_output@@@__crt_stdio_output@@IEAA_NAEA_J@Z 0000000180059c20 f i libucrtd:output.obj
 0001:00058da0       ??$extract_argument_from_va_list@G_J@?$positional_parameter_base@_WV?$string_output_adapter@_W@__crt_stdio_output@@@__crt_stdio_output@@IEAA_NAEA_J@Z 0000000180059da0 f i libucrtd:output.obj
 0001:00058f20       ??$extract_argument_from_va_list@G_J@?$standard_base@DV?$stream_output_adapter@D@__crt_stdio_output@@@__crt_stdio_output@@IEAA_NAEA_J@Z 0000000180059f20 f i libucrtd:output.obj
 0001:00058f60       ??$extract_argument_from_va_list@G_J@?$standard_base@DV?$string_output_adapter@D@__crt_stdio_output@@@__crt_stdio_output@@IEAA_NAEA_J@Z 0000000180059f60 f i libucrtd:output.obj
 0001:00058fa0       ??$extract_argument_from_va_list@G_J@?$standard_base@_WV?$stream_output_adapter@_W@__crt_stdio_output@@@__crt_stdio_output@@IEAA_NAEA_J@Z 0000000180059fa0 f i libucrtd:output.obj
 0001:00058fe0       ??$extract_argument_from_va_list@G_J@?$standard_base@_WV?$string_output_adapter@_W@__crt_stdio_output@@@__crt_stdio_output@@IEAA_NAEA_J@Z 0000000180059fe0 f i libucrtd:output.obj
 0001:00059020       ??$extract_argument_from_va_list@H_J@?$positional_parameter_base@DV?$stream_output_adapter@D@__crt_stdio_output@@@__crt_stdio_output@@IEAA_NAEA_J@Z 000000018005a020 f i libucrtd:output.obj
 0001:000591a0       ??$extract_argument_from_va_list@H_J@?$positional_parameter_base@DV?$string_output_adapter@D@__crt_stdio_output@@@__crt_stdio_output@@IEAA_NAEA_J@Z 000000018005a1a0 f i libucrtd:output.obj
 0001:00059320       ??$extract_argument_from_va_list@H_J@?$positional_parameter_base@_WV?$stream_output_adapter@_W@__crt_stdio_output@@@__crt_stdio_output@@IEAA_NAEA_J@Z 000000018005a320 f i libucrtd:output.obj
 0001:000594a0       ??$extract_argument_from_va_list@H_J@?$positional_parameter_base@_WV?$string_output_adapter@_W@__crt_stdio_output@@@__crt_stdio_output@@IEAA_NAEA_J@Z 000000018005a4a0 f i libucrtd:output.obj
 0001:00059620       ??$extract_argument_from_va_list@H_J@?$standard_base@DV?$stream_output_adapter@D@__crt_stdio_output@@@__crt_stdio_output@@IEAA_NAEA_J@Z 000000018005a620 f i libucrtd:output.obj
 0001:00059650       ??$extract_argument_from_va_list@H_J@?$standard_base@DV?$string_output_adapter@D@__crt_stdio_output@@@__crt_stdio_output@@IEAA_NAEA_J@Z 000000018005a650 f i libucrtd:output.obj
 0001:00059680       ??$extract_argument_from_va_list@H_J@?$standard_base@_WV?$stream_output_adapter@_W@__crt_stdio_output@@@__crt_stdio_output@@IEAA_NAEA_J@Z 000000018005a680 f i libucrtd:output.obj
 0001:000596b0       ??$extract_argument_from_va_list@H_J@?$standard_base@_WV?$string_output_adapter@_W@__crt_stdio_output@@@__crt_stdio_output@@IEAA_NAEA_J@Z 000000018005a6b0 f i libucrtd:output.obj
 0001:000596e0       ??$extract_argument_from_va_list@I_J@?$positional_parameter_base@DV?$stream_output_adapter@D@__crt_stdio_output@@@__crt_stdio_output@@IEAA_NAEA_J@Z 000000018005a6e0 f i libucrtd:output.obj
 0001:00059860       ??$extract_argument_from_va_list@I_J@?$positional_parameter_base@DV?$string_output_adapter@D@__crt_stdio_output@@@__crt_stdio_output@@IEAA_NAEA_J@Z 000000018005a860 f i libucrtd:output.obj
 0001:000599e0       ??$extract_argument_from_va_list@I_J@?$positional_parameter_base@_WV?$stream_output_adapter@_W@__crt_stdio_output@@@__crt_stdio_output@@IEAA_NAEA_J@Z 000000018005a9e0 f i libucrtd:output.obj
 0001:00059b60       ??$extract_argument_from_va_list@I_J@?$positional_parameter_base@_WV?$string_output_adapter@_W@__crt_stdio_output@@@__crt_stdio_output@@IEAA_NAEA_J@Z 000000018005ab60 f i libucrtd:output.obj
 0001:00059ce0       ??$extract_argument_from_va_list@I_J@?$standard_base@DV?$stream_output_adapter@D@__crt_stdio_output@@@__crt_stdio_output@@IEAA_NAEA_J@Z 000000018005ace0 f i libucrtd:output.obj
 0001:00059d10       ??$extract_argument_from_va_list@I_J@?$standard_base@DV?$string_output_adapter@D@__crt_stdio_output@@@__crt_stdio_output@@IEAA_NAEA_J@Z 000000018005ad10 f i libucrtd:output.obj
 0001:00059d40       ??$extract_argument_from_va_list@I_J@?$standard_base@_WV?$stream_output_adapter@_W@__crt_stdio_output@@@__crt_stdio_output@@IEAA_NAEA_J@Z 000000018005ad40 f i libucrtd:output.obj
 0001:00059d70       ??$extract_argument_from_va_list@I_J@?$standard_base@_WV?$string_output_adapter@_W@__crt_stdio_output@@@__crt_stdio_output@@IEAA_NAEA_J@Z 000000018005ad70 f i libucrtd:output.obj
 0001:00059da0       ??$extract_argument_from_va_list@PEADPEAD@?$positional_parameter_base@DV?$stream_output_adapter@D@__crt_stdio_output@@@__crt_stdio_output@@IEAA_NAEAPEAD@Z 000000018005ada0 f i libucrtd:output.obj
 0001:00059f20       ??$extract_argument_from_va_list@PEADPEAD@?$positional_parameter_base@DV?$string_output_adapter@D@__crt_stdio_output@@@__crt_stdio_output@@IEAA_NAEAPEAD@Z 000000018005af20 f i libucrtd:output.obj
 0001:0005a0a0       ??$extract_argument_from_va_list@PEADPEAD@?$positional_parameter_base@_WV?$stream_output_adapter@_W@__crt_stdio_output@@@__crt_stdio_output@@IEAA_NAEAPEAD@Z 000000018005b0a0 f i libucrtd:output.obj
 0001:0005a220       ??$extract_argument_from_va_list@PEADPEAD@?$positional_parameter_base@_WV?$string_output_adapter@_W@__crt_stdio_output@@@__crt_stdio_output@@IEAA_NAEAPEAD@Z 000000018005b220 f i libucrtd:output.obj
 0001:0005a3a0       ??$extract_argument_from_va_list@PEADPEAD@?$standard_base@DV?$stream_output_adapter@D@__crt_stdio_output@@@__crt_stdio_output@@IEAA_NAEAPEAD@Z 000000018005b3a0 f i libucrtd:output.obj
 0001:0005a3d0       ??$extract_argument_from_va_list@PEADPEAD@?$standard_base@DV?$string_output_adapter@D@__crt_stdio_output@@@__crt_stdio_output@@IEAA_NAEAPEAD@Z 000000018005b3d0 f i libucrtd:output.obj
 0001:0005a400       ??$extract_argument_from_va_list@PEADPEAD@?$standard_base@_WV?$stream_output_adapter@_W@__crt_stdio_output@@@__crt_stdio_output@@IEAA_NAEAPEAD@Z 000000018005b400 f i libucrtd:output.obj
 0001:0005a430       ??$extract_argument_from_va_list@PEADPEAD@?$standard_base@_WV?$string_output_adapter@_W@__crt_stdio_output@@@__crt_stdio_output@@IEAA_NAEAPEAD@Z 000000018005b430 f i libucrtd:output.obj
 0001:0005a460       ??$extract_argument_from_va_list@PEAUansi_string@?1??type_case_Z@?$output_processor@DV?$stream_output_adapter@D@__crt_stdio_output@@V?$format_validation_base@DV?$stream_output_adapter@D@__crt_stdio_output@@@2@@__crt_stdio_output@@AEAA_NXZ@PEAU1?1??234@AEAA_NXZ@@?$standard_base@DV?$stream_output_adapter@D@__crt_stdio_output@@@__crt_stdio_output@@IEAA_NAEAPEAUansi_string@?1??type_case_Z@?$output_processor@DV?$stream_output_adapter@D@__crt_stdio_output@@V?$format_validation_base@DV?$stream_output_adapter@D@__crt_stdio_output@@@2@@1@AEAA_NXZ@@Z 000000018005b460 f i libucrtd:output.obj
 0001:0005a490       ??$extract_argument_from_va_list@PEAUansi_string@?1??type_case_Z@?$output_processor@DV?$stream_output_adapter@D@__crt_stdio_output@@V?$positional_parameter_base@DV?$stream_output_adapter@D@__crt_stdio_output@@@2@@__crt_stdio_output@@AEAA_NXZ@PEAU1?1??234@AEAA_NXZ@@?$positional_parameter_base@DV?$stream_output_adapter@D@__crt_stdio_output@@@__crt_stdio_output@@IEAA_NAEAPEAUansi_string@?1??type_case_Z@?$output_processor@DV?$stream_output_adapter@D@__crt_stdio_output@@V?$positional_parameter_base@DV?$stream_output_adapter@D@__crt_stdio_output@@@2@@1@AEAA_NXZ@@Z 000000018005b490 f i libucrtd:output.obj
 0001:0005a610       ??$extract_argument_from_va_list@PEAUansi_string@?1??type_case_Z@?$output_processor@DV?$stream_output_adapter@D@__crt_stdio_output@@V?$positional_parameter_base@DV?$stream_output_adapter@D@__crt_stdio_output@@@2@@__crt_stdio_output@@AEAA_NXZ@PEAU1?1??234@AEAA_NXZ@@?$standard_base@DV?$stream_output_adapter@D@__crt_stdio_output@@@__crt_stdio_output@@IEAA_NAEAPEAUansi_string@?1??type_case_Z@?$output_processor@DV?$stream_output_adapter@D@__crt_stdio_output@@V?$positional_parameter_base@DV?$stream_output_adapter@D@__crt_stdio_output@@@2@@1@AEAA_NXZ@@Z 000000018005b610 f i libucrtd:output.obj
 0001:0005a640       ??$extract_argument_from_va_list@PEAUansi_string@?1??type_case_Z@?$output_processor@DV?$stream_output_adapter@D@__crt_stdio_output@@V?$standard_base@DV?$stream_output_adapter@D@__crt_stdio_output@@@2@@__crt_stdio_output@@AEAA_NXZ@PEAU1?1??234@AEAA_NXZ@@?$standard_base@DV?$stream_output_adapter@D@__crt_stdio_output@@@__crt_stdio_output@@IEAA_NAEAPEAUansi_string@?1??type_case_Z@?$output_processor@DV?$stream_output_adapter@D@__crt_stdio_output@@V?$standard_base@DV?$stream_output_adapter@D@__crt_stdio_output@@@2@@1@AEAA_NXZ@@Z 000000018005b640 f i libucrtd:output.obj
 0001:0005a670       ??$extract_argument_from_va_list@PEAUansi_string@?1??type_case_Z@?$output_processor@DV?$string_output_adapter@D@__crt_stdio_output@@V?$format_validation_base@DV?$string_output_adapter@D@__crt_stdio_output@@@2@@__crt_stdio_output@@AEAA_NXZ@PEAU1?1??234@AEAA_NXZ@@?$standard_base@DV?$string_output_adapter@D@__crt_stdio_output@@@__crt_stdio_output@@IEAA_NAEAPEAUansi_string@?1??type_case_Z@?$output_processor@DV?$string_output_adapter@D@__crt_stdio_output@@V?$format_validation_base@DV?$string_output_adapter@D@__crt_stdio_output@@@2@@1@AEAA_NXZ@@Z 000000018005b670 f i libucrtd:output.obj
 0001:0005a6a0       ??$extract_argument_from_va_list@PEAUansi_string@?1??type_case_Z@?$output_processor@DV?$string_output_adapter@D@__crt_stdio_output@@V?$positional_parameter_base@DV?$string_output_adapter@D@__crt_stdio_output@@@2@@__crt_stdio_output@@AEAA_NXZ@PEAU1?1??234@AEAA_NXZ@@?$positional_parameter_base@DV?$string_output_adapter@D@__crt_stdio_output@@@__crt_stdio_output@@IEAA_NAEAPEAUansi_string@?1??type_case_Z@?$output_processor@DV?$string_output_adapter@D@__crt_stdio_output@@V?$positional_parameter_base@DV?$string_output_adapter@D@__crt_stdio_output@@@2@@1@AEAA_NXZ@@Z 000000018005b6a0 f i libucrtd:output.obj
 0001:0005a820       ??$extract_argument_from_va_list@PEAUansi_string@?1??type_case_Z@?$output_processor@DV?$string_output_adapter@D@__crt_stdio_output@@V?$positional_parameter_base@DV?$string_output_adapter@D@__crt_stdio_output@@@2@@__crt_stdio_output@@AEAA_NXZ@PEAU1?1??234@AEAA_NXZ@@?$standard_base@DV?$string_output_adapter@D@__crt_stdio_output@@@__crt_stdio_output@@IEAA_NAEAPEAUansi_string@?1??type_case_Z@?$output_processor@DV?$string_output_adapter@D@__crt_stdio_output@@V?$positional_parameter_base@DV?$string_output_adapter@D@__crt_stdio_output@@@2@@1@AEAA_NXZ@@Z 000000018005b820 f i libucrtd:output.obj
 0001:0005a850       ??$extract_argument_from_va_list@PEAUansi_string@?1??type_case_Z@?$output_processor@DV?$string_output_adapter@D@__crt_stdio_output@@V?$standard_base@DV?$string_output_adapter@D@__crt_stdio_output@@@2@@__crt_stdio_output@@AEAA_NXZ@PEAU1?1??234@AEAA_NXZ@@?$standard_base@DV?$string_output_adapter@D@__crt_stdio_output@@@__crt_stdio_output@@IEAA_NAEAPEAUansi_string@?1??type_case_Z@?$output_processor@DV?$string_output_adapter@D@__crt_stdio_output@@V?$standard_base@DV?$string_output_adapter@D@__crt_stdio_output@@@2@@1@AEAA_NXZ@@Z 000000018005b850 f i libucrtd:output.obj
 0001:0005a880       ??$extract_argument_from_va_list@PEAUansi_string@?1??type_case_Z@?$output_processor@_WV?$stream_output_adapter@_W@__crt_stdio_output@@V?$format_validation_base@_WV?$stream_output_adapter@_W@__crt_stdio_output@@@2@@__crt_stdio_output@@AEAA_NXZ@PEAU1?1??234@AEAA_NXZ@@?$standard_base@_WV?$stream_output_adapter@_W@__crt_stdio_output@@@__crt_stdio_output@@IEAA_NAEAPEAUansi_string@?1??type_case_Z@?$output_processor@_WV?$stream_output_adapter@_W@__crt_stdio_output@@V?$format_validation_base@_WV?$stream_output_adapter@_W@__crt_stdio_output@@@2@@1@AEAA_NXZ@@Z 000000018005b880 f i libucrtd:output.obj
 0001:0005a8b0       ??$extract_argument_from_va_list@PEAUansi_string@?1??type_case_Z@?$output_processor@_WV?$stream_output_adapter@_W@__crt_stdio_output@@V?$positional_parameter_base@_WV?$stream_output_adapter@_W@__crt_stdio_output@@@2@@__crt_stdio_output@@AEAA_NXZ@PEAU1?1??234@AEAA_NXZ@@?$positional_parameter_base@_WV?$stream_output_adapter@_W@__crt_stdio_output@@@__crt_stdio_output@@IEAA_NAEAPEAUansi_string@?1??type_case_Z@?$output_processor@_WV?$stream_output_adapter@_W@__crt_stdio_output@@V?$positional_parameter_base@_WV?$stream_output_adapter@_W@__crt_stdio_output@@@2@@1@AEAA_NXZ@@Z 000000018005b8b0 f i libucrtd:output.obj
 0001:0005aa30       ??$extract_argument_from_va_list@PEAUansi_string@?1??type_case_Z@?$output_processor@_WV?$stream_output_adapter@_W@__crt_stdio_output@@V?$positional_parameter_base@_WV?$stream_output_adapter@_W@__crt_stdio_output@@@2@@__crt_stdio_output@@AEAA_NXZ@PEAU1?1??234@AEAA_NXZ@@?$standard_base@_WV?$stream_output_adapter@_W@__crt_stdio_output@@@__crt_stdio_output@@IEAA_NAEAPEAUansi_string@?1??type_case_Z@?$output_processor@_WV?$stream_output_adapter@_W@__crt_stdio_output@@V?$positional_parameter_base@_WV?$stream_output_adapter@_W@__crt_stdio_output@@@2@@1@AEAA_NXZ@@Z 000000018005ba30 f i libucrtd:output.obj
 0001:0005aa60       ??$extract_argument_from_va_list@PEAUansi_string@?1??type_case_Z@?$output_processor@_WV?$stream_output_adapter@_W@__crt_stdio_output@@V?$standard_base@_WV?$stream_output_adapter@_W@__crt_stdio_output@@@2@@__crt_stdio_output@@AEAA_NXZ@PEAU1?1??234@AEAA_NXZ@@?$standard_base@_WV?$stream_output_adapter@_W@__crt_stdio_output@@@__crt_stdio_output@@IEAA_NAEAPEAUansi_string@?1??type_case_Z@?$output_processor@_WV?$stream_output_adapter@_W@__crt_stdio_output@@V?$standard_base@_WV?$stream_output_adapter@_W@__crt_stdio_output@@@2@@1@AEAA_NXZ@@Z 000000018005ba60 f i libucrtd:output.obj
 0001:0005aa90       ??$extract_argument_from_va_list@PEAUansi_string@?1??type_case_Z@?$output_processor@_WV?$string_output_adapter@_W@__crt_stdio_output@@V?$format_validation_base@_WV?$string_output_adapter@_W@__crt_stdio_output@@@2@@__crt_stdio_output@@AEAA_NXZ@PEAU1?1??234@AEAA_NXZ@@?$standard_base@_WV?$string_output_adapter@_W@__crt_stdio_output@@@__crt_stdio_output@@IEAA_NAEAPEAUansi_string@?1??type_case_Z@?$output_processor@_WV?$string_output_adapter@_W@__crt_stdio_output@@V?$format_validation_base@_WV?$string_output_adapter@_W@__crt_stdio_output@@@2@@1@AEAA_NXZ@@Z 000000018005ba90 f i libucrtd:output.obj
 0001:0005aac0       ??$extract_argument_from_va_list@PEAUansi_string@?1??type_case_Z@?$output_processor@_WV?$string_output_adapter@_W@__crt_stdio_output@@V?$positional_parameter_base@_WV?$string_output_adapter@_W@__crt_stdio_output@@@2@@__crt_stdio_output@@AEAA_NXZ@PEAU1?1??234@AEAA_NXZ@@?$positional_parameter_base@_WV?$string_output_adapter@_W@__crt_stdio_output@@@__crt_stdio_output@@IEAA_NAEAPEAUansi_string@?1??type_case_Z@?$output_processor@_WV?$string_output_adapter@_W@__crt_stdio_output@@V?$positional_parameter_base@_WV?$string_output_adapter@_W@__crt_stdio_output@@@2@@1@AEAA_NXZ@@Z 000000018005bac0 f i libucrtd:output.obj
 0001:0005ac40       ??$extract_argument_from_va_list@PEAUansi_string@?1??type_case_Z@?$output_processor@_WV?$string_output_adapter@_W@__crt_stdio_output@@V?$positional_parameter_base@_WV?$string_output_adapter@_W@__crt_stdio_output@@@2@@__crt_stdio_output@@AEAA_NXZ@PEAU1?1??234@AEAA_NXZ@@?$standard_base@_WV?$string_output_adapter@_W@__crt_stdio_output@@@__crt_stdio_output@@IEAA_NAEAPEAUansi_string@?1??type_case_Z@?$output_processor@_WV?$string_output_adapter@_W@__crt_stdio_output@@V?$positional_parameter_base@_WV?$string_output_adapter@_W@__crt_stdio_output@@@2@@1@AEAA_NXZ@@Z 000000018005bc40 f i libucrtd:output.obj
 0001:0005ac70       ??$extract_argument_from_va_list@PEAUansi_string@?1??type_case_Z@?$output_processor@_WV?$string_output_adapter@_W@__crt_stdio_output@@V?$standard_base@_WV?$string_output_adapter@_W@__crt_stdio_output@@@2@@__crt_stdio_output@@AEAA_NXZ@PEAU1?1??234@AEAA_NXZ@@?$standard_base@_WV?$string_output_adapter@_W@__crt_stdio_output@@@__crt_stdio_output@@IEAA_NAEAPEAUansi_string@?1??type_case_Z@?$output_processor@_WV?$string_output_adapter@_W@__crt_stdio_output@@V?$standard_base@_WV?$string_output_adapter@_W@__crt_stdio_output@@@2@@1@AEAA_NXZ@@Z 000000018005bc70 f i libucrtd:output.obj
 0001:0005aca0       ??$extract_argument_from_va_list@PEAXPEAX@?$positional_parameter_base@DV?$stream_output_adapter@D@__crt_stdio_output@@@__crt_stdio_output@@IEAA_NAEAPEAX@Z 000000018005bca0 f i libucrtd:output.obj
 0001:0005ae20       ??$extract_argument_from_va_list@PEAXPEAX@?$positional_parameter_base@DV?$string_output_adapter@D@__crt_stdio_output@@@__crt_stdio_output@@IEAA_NAEAPEAX@Z 000000018005be20 f i libucrtd:output.obj
 0001:0005afa0       ??$extract_argument_from_va_list@PEAXPEAX@?$positional_parameter_base@_WV?$stream_output_adapter@_W@__crt_stdio_output@@@__crt_stdio_output@@IEAA_NAEAPEAX@Z 000000018005bfa0 f i libucrtd:output.obj
 0001:0005b120       ??$extract_argument_from_va_list@PEAXPEAX@?$positional_parameter_base@_WV?$string_output_adapter@_W@__crt_stdio_output@@@__crt_stdio_output@@IEAA_NAEAPEAX@Z 000000018005c120 f i libucrtd:output.obj
 0001:0005b2a0       ??$extract_argument_from_va_list@PEAXPEAX@?$standard_base@DV?$stream_output_adapter@D@__crt_stdio_output@@@__crt_stdio_output@@IEAA_NAEAPEAX@Z 000000018005c2a0 f i libucrtd:output.obj
 0001:0005b2d0       ??$extract_argument_from_va_list@PEAXPEAX@?$standard_base@DV?$string_output_adapter@D@__crt_stdio_output@@@__crt_stdio_output@@IEAA_NAEAPEAX@Z 000000018005c2d0 f i libucrtd:output.obj
 0001:0005b300       ??$extract_argument_from_va_list@PEAXPEAX@?$standard_base@_WV?$stream_output_adapter@_W@__crt_stdio_output@@@__crt_stdio_output@@IEAA_NAEAPEAX@Z 000000018005c300 f i libucrtd:output.obj
 0001:0005b330       ??$extract_argument_from_va_list@PEAXPEAX@?$standard_base@_WV?$string_output_adapter@_W@__crt_stdio_output@@@__crt_stdio_output@@IEAA_NAEAPEAX@Z 000000018005c330 f i libucrtd:output.obj
 0001:0005b360       ??$extract_argument_from_va_list@U_CRT_DOUBLE@@U1@@?$positional_parameter_base@DV?$stream_output_adapter@D@__crt_stdio_output@@@__crt_stdio_output@@IEAA_NAEAU_CRT_DOUBLE@@@Z 000000018005c360 f i libucrtd:output.obj
 0001:0005b500       ??$extract_argument_from_va_list@U_CRT_DOUBLE@@U1@@?$positional_parameter_base@DV?$string_output_adapter@D@__crt_stdio_output@@@__crt_stdio_output@@IEAA_NAEAU_CRT_DOUBLE@@@Z 000000018005c500 f i libucrtd:output.obj
 0001:0005b6a0       ??$extract_argument_from_va_list@U_CRT_DOUBLE@@U1@@?$positional_parameter_base@_WV?$stream_output_adapter@_W@__crt_stdio_output@@@__crt_stdio_output@@IEAA_NAEAU_CRT_DOUBLE@@@Z 000000018005c6a0 f i libucrtd:output.obj
 0001:0005b840       ??$extract_argument_from_va_list@U_CRT_DOUBLE@@U1@@?$positional_parameter_base@_WV?$string_output_adapter@_W@__crt_stdio_output@@@__crt_stdio_output@@IEAA_NAEAU_CRT_DOUBLE@@@Z 000000018005c840 f i libucrtd:output.obj
 0001:0005b9e0       ??$extract_argument_from_va_list@U_CRT_DOUBLE@@U1@@?$standard_base@DV?$stream_output_adapter@D@__crt_stdio_output@@@__crt_stdio_output@@IEAA_NAEAU_CRT_DOUBLE@@@Z 000000018005c9e0 f i libucrtd:output.obj
 0001:0005ba30       ??$extract_argument_from_va_list@U_CRT_DOUBLE@@U1@@?$standard_base@DV?$string_output_adapter@D@__crt_stdio_output@@@__crt_stdio_output@@IEAA_NAEAU_CRT_DOUBLE@@@Z 000000018005ca30 f i libucrtd:output.obj
 0001:0005ba80       ??$extract_argument_from_va_list@U_CRT_DOUBLE@@U1@@?$standard_base@_WV?$stream_output_adapter@_W@__crt_stdio_output@@@__crt_stdio_output@@IEAA_NAEAU_CRT_DOUBLE@@@Z 000000018005ca80 f i libucrtd:output.obj
 0001:0005bad0       ??$extract_argument_from_va_list@U_CRT_DOUBLE@@U1@@?$standard_base@_WV?$string_output_adapter@_W@__crt_stdio_output@@@__crt_stdio_output@@IEAA_NAEAU_CRT_DOUBLE@@@Z 000000018005cad0 f i libucrtd:output.obj
 0001:0005bb20       ??$extract_argument_from_va_list@_J_J@?$positional_parameter_base@DV?$stream_output_adapter@D@__crt_stdio_output@@@__crt_stdio_output@@IEAA_NAEA_J@Z 000000018005cb20 f i libucrtd:output.obj
 0001:0005bca0       ??$extract_argument_from_va_list@_J_J@?$positional_parameter_base@DV?$string_output_adapter@D@__crt_stdio_output@@@__crt_stdio_output@@IEAA_NAEA_J@Z 000000018005cca0 f i libucrtd:output.obj
 0001:0005be20       ??$extract_argument_from_va_list@_J_J@?$positional_parameter_base@_WV?$stream_output_adapter@_W@__crt_stdio_output@@@__crt_stdio_output@@IEAA_NAEA_J@Z 000000018005ce20 f i libucrtd:output.obj
 0001:0005bfa0       ??$extract_argument_from_va_list@_J_J@?$positional_parameter_base@_WV?$string_output_adapter@_W@__crt_stdio_output@@@__crt_stdio_output@@IEAA_NAEA_J@Z 000000018005cfa0 f i libucrtd:output.obj
 0001:0005c120       ??$extract_argument_from_va_list@_J_J@?$standard_base@DV?$stream_output_adapter@D@__crt_stdio_output@@@__crt_stdio_output@@IEAA_NAEA_J@Z 000000018005d120 f i libucrtd:output.obj
 0001:0005c150       ??$extract_argument_from_va_list@_J_J@?$standard_base@DV?$string_output_adapter@D@__crt_stdio_output@@@__crt_stdio_output@@IEAA_NAEA_J@Z 000000018005d150 f i libucrtd:output.obj
 0001:0005c180       ??$extract_argument_from_va_list@_J_J@?$standard_base@_WV?$stream_output_adapter@_W@__crt_stdio_output@@@__crt_stdio_output@@IEAA_NAEA_J@Z 000000018005d180 f i libucrtd:output.obj
 0001:0005c1b0       ??$extract_argument_from_va_list@_J_J@?$standard_base@_WV?$string_output_adapter@_W@__crt_stdio_output@@@__crt_stdio_output@@IEAA_NAEA_J@Z 000000018005d1b0 f i libucrtd:output.obj
 0001:0005c1e0       ??$extract_argument_from_va_list@_K_J@?$positional_parameter_base@DV?$stream_output_adapter@D@__crt_stdio_output@@@__crt_stdio_output@@IEAA_NAEA_J@Z 000000018005d1e0 f i libucrtd:output.obj
 0001:0005c360       ??$extract_argument_from_va_list@_K_J@?$positional_parameter_base@DV?$string_output_adapter@D@__crt_stdio_output@@@__crt_stdio_output@@IEAA_NAEA_J@Z 000000018005d360 f i libucrtd:output.obj
 0001:0005c4e0       ??$extract_argument_from_va_list@_K_J@?$positional_parameter_base@_WV?$stream_output_adapter@_W@__crt_stdio_output@@@__crt_stdio_output@@IEAA_NAEA_J@Z 000000018005d4e0 f i libucrtd:output.obj
 0001:0005c660       ??$extract_argument_from_va_list@_K_J@?$positional_parameter_base@_WV?$string_output_adapter@_W@__crt_stdio_output@@@__crt_stdio_output@@IEAA_NAEA_J@Z 000000018005d660 f i libucrtd:output.obj
 0001:0005c7e0       ??$extract_argument_from_va_list@_K_J@?$standard_base@DV?$stream_output_adapter@D@__crt_stdio_output@@@__crt_stdio_output@@IEAA_NAEA_J@Z 000000018005d7e0 f i libucrtd:output.obj
 0001:0005c810       ??$extract_argument_from_va_list@_K_J@?$standard_base@DV?$string_output_adapter@D@__crt_stdio_output@@@__crt_stdio_output@@IEAA_NAEA_J@Z 000000018005d810 f i libucrtd:output.obj
 0001:0005c840       ??$extract_argument_from_va_list@_K_J@?$standard_base@_WV?$stream_output_adapter@_W@__crt_stdio_output@@@__crt_stdio_output@@IEAA_NAEA_J@Z 000000018005d840 f i libucrtd:output.obj
 0001:0005c870       ??$extract_argument_from_va_list@_K_J@?$standard_base@_WV?$string_output_adapter@_W@__crt_stdio_output@@@__crt_stdio_output@@IEAA_NAEA_J@Z 000000018005d870 f i libucrtd:output.obj
 0001:0005c8a0       ??$extract_argument_from_va_list@_W_W@?$positional_parameter_base@DV?$stream_output_adapter@D@__crt_stdio_output@@@__crt_stdio_output@@IEAA_NAEA_W@Z 000000018005d8a0 f i libucrtd:output.obj
 0001:0005ca20       ??$extract_argument_from_va_list@_W_W@?$positional_parameter_base@DV?$string_output_adapter@D@__crt_stdio_output@@@__crt_stdio_output@@IEAA_NAEA_W@Z 000000018005da20 f i libucrtd:output.obj
 0001:0005cba0       ??$extract_argument_from_va_list@_W_W@?$positional_parameter_base@_WV?$stream_output_adapter@_W@__crt_stdio_output@@@__crt_stdio_output@@IEAA_NAEA_W@Z 000000018005dba0 f i libucrtd:output.obj
 0001:0005cd20       ??$extract_argument_from_va_list@_W_W@?$positional_parameter_base@_WV?$string_output_adapter@_W@__crt_stdio_output@@@__crt_stdio_output@@IEAA_NAEA_W@Z 000000018005dd20 f i libucrtd:output.obj
 0001:0005cea0       ??$extract_argument_from_va_list@_W_W@?$standard_base@DV?$stream_output_adapter@D@__crt_stdio_output@@@__crt_stdio_output@@IEAA_NAEA_W@Z 000000018005dea0 f i libucrtd:output.obj
 0001:0005ced0       ??$extract_argument_from_va_list@_W_W@?$standard_base@DV?$string_output_adapter@D@__crt_stdio_output@@@__crt_stdio_output@@IEAA_NAEA_W@Z 000000018005ded0 f i libucrtd:output.obj
 0001:0005cf00       ??$extract_argument_from_va_list@_W_W@?$standard_base@_WV?$stream_output_adapter@_W@__crt_stdio_output@@@__crt_stdio_output@@IEAA_NAEA_W@Z 000000018005df00 f i libucrtd:output.obj
 0001:0005cf30       ??$extract_argument_from_va_list@_W_W@?$standard_base@_WV?$string_output_adapter@_W@__crt_stdio_output@@@__crt_stdio_output@@IEAA_NAEA_W@Z 000000018005df30 f i libucrtd:output.obj
 0001:0005cf60       ??$get_parameter_type@D@?$positional_parameter_base@DV?$stream_output_adapter@D@__crt_stdio_output@@@__crt_stdio_output@@CA?AW4parameter_type@01@PEAD@Z 000000018005df60 f i libucrtd:output.obj
 0001:0005cf70       ??$get_parameter_type@D@?$positional_parameter_base@DV?$string_output_adapter@D@__crt_stdio_output@@@__crt_stdio_output@@CA?AW4parameter_type@01@PEAD@Z 000000018005df70 f i libucrtd:output.obj
 0001:0005cf80       ??$get_parameter_type@D@?$positional_parameter_base@_WV?$stream_output_adapter@_W@__crt_stdio_output@@@__crt_stdio_output@@CA?AW4parameter_type@01@PEAD@Z 000000018005df80 f i libucrtd:output.obj
 0001:0005cf90       ??$get_parameter_type@D@?$positional_parameter_base@_WV?$string_output_adapter@_W@__crt_stdio_output@@@__crt_stdio_output@@CA?AW4parameter_type@01@PEAD@Z 000000018005df90 f i libucrtd:output.obj
 0001:0005cfa0       ??$get_parameter_type@Uansi_string@?1??type_case_Z@?$output_processor@DV?$stream_output_adapter@D@__crt_stdio_output@@V?$positional_parameter_base@DV?$stream_output_adapter@D@__crt_stdio_output@@@2@@__crt_stdio_output@@AEAA_NXZ@@?$positional_parameter_base@DV?$stream_output_adapter@D@__crt_stdio_output@@@__crt_stdio_output@@CA?AW4parameter_type@01@PEAUansi_string@?1??type_case_Z@?$output_processor@DV?$stream_output_adapter@D@__crt_stdio_output@@V?$positional_parameter_base@DV?$stream_output_adapter@D@__crt_stdio_output@@@2@@1@AEAA_NXZ@@Z 000000018005dfa0 f i libucrtd:output.obj
 0001:0005cfb0       ??$get_parameter_type@Uansi_string@?1??type_case_Z@?$output_processor@DV?$string_output_adapter@D@__crt_stdio_output@@V?$positional_parameter_base@DV?$string_output_adapter@D@__crt_stdio_output@@@2@@__crt_stdio_output@@AEAA_NXZ@@?$positional_parameter_base@DV?$string_output_adapter@D@__crt_stdio_output@@@__crt_stdio_output@@CA?AW4parameter_type@01@PEAUansi_string@?1??type_case_Z@?$output_processor@DV?$string_output_adapter@D@__crt_stdio_output@@V?$positional_parameter_base@DV?$string_output_adapter@D@__crt_stdio_output@@@2@@1@AEAA_NXZ@@Z 000000018005dfb0 f i libucrtd:output.obj
 0001:0005cfc0       ??$get_parameter_type@Uansi_string@?1??type_case_Z@?$output_processor@_WV?$stream_output_adapter@_W@__crt_stdio_output@@V?$positional_parameter_base@_WV?$stream_output_adapter@_W@__crt_stdio_output@@@2@@__crt_stdio_output@@AEAA_NXZ@@?$positional_parameter_base@_WV?$stream_output_adapter@_W@__crt_stdio_output@@@__crt_stdio_output@@CA?AW4parameter_type@01@PEAUansi_string@?1??type_case_Z@?$output_processor@_WV?$stream_output_adapter@_W@__crt_stdio_output@@V?$positional_parameter_base@_WV?$stream_output_adapter@_W@__crt_stdio_output@@@2@@1@AEAA_NXZ@@Z 000000018005dfc0 f i libucrtd:output.obj
 0001:0005cfd0       ??$get_parameter_type@Uansi_string@?1??type_case_Z@?$output_processor@_WV?$string_output_adapter@_W@__crt_stdio_output@@V?$positional_parameter_base@_WV?$string_output_adapter@_W@__crt_stdio_output@@@2@@__crt_stdio_output@@AEAA_NXZ@@?$positional_parameter_base@_WV?$string_output_adapter@_W@__crt_stdio_output@@@__crt_stdio_output@@CA?AW4parameter_type@01@PEAUansi_string@?1??type_case_Z@?$output_processor@_WV?$string_output_adapter@_W@__crt_stdio_output@@V?$positional_parameter_base@_WV?$string_output_adapter@_W@__crt_stdio_output@@@2@@1@AEAA_NXZ@@Z 000000018005dfd0 f i libucrtd:output.obj
 0001:0005cfe0       ??$get_parameter_type@X@?$positional_parameter_base@DV?$stream_output_adapter@D@__crt_stdio_output@@@__crt_stdio_output@@CA?AW4parameter_type@01@PEAX@Z 000000018005dfe0 f i libucrtd:output.obj
 0001:0005cff0       ??$get_parameter_type@X@?$positional_parameter_base@DV?$string_output_adapter@D@__crt_stdio_output@@@__crt_stdio_output@@CA?AW4parameter_type@01@PEAX@Z 000000018005dff0 f i libucrtd:output.obj
 0001:0005d000       ??$get_parameter_type@X@?$positional_parameter_base@_WV?$stream_output_adapter@_W@__crt_stdio_output@@@__crt_stdio_output@@CA?AW4parameter_type@01@PEAX@Z 000000018005e000 f i libucrtd:output.obj
 0001:0005d010       ??$get_parameter_type@X@?$positional_parameter_base@_WV?$string_output_adapter@_W@__crt_stdio_output@@@__crt_stdio_output@@CA?AW4parameter_type@01@PEAX@Z 000000018005e010 f i libucrtd:output.obj
 0001:0005d020       ??$is_character_specifier@D@?$positional_parameter_base@DV?$stream_output_adapter@D@__crt_stdio_output@@@__crt_stdio_output@@CA_ND@Z 000000018005e020 f i libucrtd:output.obj
 0001:0005d060       ??$is_character_specifier@D@?$positional_parameter_base@DV?$string_output_adapter@D@__crt_stdio_output@@@__crt_stdio_output@@CA_ND@Z 000000018005e060 f i libucrtd:output.obj
 0001:0005d0a0       ??$is_character_specifier@_W@?$positional_parameter_base@_WV?$stream_output_adapter@_W@__crt_stdio_output@@@__crt_stdio_output@@CA_N_W@Z 000000018005e0a0 f i libucrtd:output.obj
 0001:0005d0e0       ??$is_character_specifier@_W@?$positional_parameter_base@_WV?$string_output_adapter@_W@__crt_stdio_output@@@__crt_stdio_output@@CA_N_W@Z 000000018005e0e0 f i libucrtd:output.obj
 0001:0005d120       ??$is_integral_specifier@D@?$positional_parameter_base@DV?$stream_output_adapter@D@__crt_stdio_output@@@__crt_stdio_output@@CA_ND@Z 000000018005e120 f i libucrtd:output.obj
 0001:0005d190       ??$is_integral_specifier@D@?$positional_parameter_base@DV?$string_output_adapter@D@__crt_stdio_output@@@__crt_stdio_output@@CA_ND@Z 000000018005e190 f i libucrtd:output.obj
 0001:0005d200       ??$is_integral_specifier@_W@?$positional_parameter_base@_WV?$stream_output_adapter@_W@__crt_stdio_output@@@__crt_stdio_output@@CA_N_W@Z 000000018005e200 f i libucrtd:output.obj
 0001:0005d270       ??$is_integral_specifier@_W@?$positional_parameter_base@_WV?$string_output_adapter@_W@__crt_stdio_output@@@__crt_stdio_output@@CA_N_W@Z 000000018005e270 f i libucrtd:output.obj
 0001:0005d2e0       ??$is_pointer_specifier@D@?$positional_parameter_base@DV?$stream_output_adapter@D@__crt_stdio_output@@@__crt_stdio_output@@CA_ND@Z 000000018005e2e0 f i libucrtd:output.obj
 0001:0005d310       ??$is_pointer_specifier@D@?$positional_parameter_base@DV?$string_output_adapter@D@__crt_stdio_output@@@__crt_stdio_output@@CA_ND@Z 000000018005e310 f i libucrtd:output.obj
 0001:0005d340       ??$is_pointer_specifier@_W@?$positional_parameter_base@_WV?$stream_output_adapter@_W@__crt_stdio_output@@@__crt_stdio_output@@CA_N_W@Z 000000018005e340 f i libucrtd:output.obj
 0001:0005d370       ??$is_pointer_specifier@_W@?$positional_parameter_base@_WV?$string_output_adapter@_W@__crt_stdio_output@@@__crt_stdio_output@@CA_N_W@Z 000000018005e370 f i libucrtd:output.obj
 0001:0005d3a0       ??$is_string_specifier@D@?$positional_parameter_base@DV?$stream_output_adapter@D@__crt_stdio_output@@@__crt_stdio_output@@CA_ND@Z 000000018005e3a0 f i libucrtd:output.obj
 0001:0005d3e0       ??$is_string_specifier@D@?$positional_parameter_base@DV?$string_output_adapter@D@__crt_stdio_output@@@__crt_stdio_output@@CA_ND@Z 000000018005e3e0 f i libucrtd:output.obj
 0001:0005d420       ??$is_string_specifier@_W@?$positional_parameter_base@_WV?$stream_output_adapter@_W@__crt_stdio_output@@@__crt_stdio_output@@CA_N_W@Z 000000018005e420 f i libucrtd:output.obj
 0001:0005d460       ??$is_string_specifier@_W@?$positional_parameter_base@_WV?$string_output_adapter@_W@__crt_stdio_output@@@__crt_stdio_output@@CA_N_W@Z 000000018005e460 f i libucrtd:output.obj
 0001:0005d4a0       ??$is_wide_character_specifier@D@__crt_stdio_output@@YA_N_KDW4length_modifier@0@@Z 000000018005e4a0 f i libucrtd:output.obj
 0001:0005d540       ??$is_wide_character_specifier@_W@__crt_stdio_output@@YA_N_K_WW4length_modifier@0@@Z 000000018005e540 f i libucrtd:output.obj
 0001:0005d610       ??$peek_va_arg@C@__crt_stdio_output@@YACPEAD@Z 000000018005e610 f i libucrtd:output.obj
 0001:0005d670       ??$peek_va_arg@E@__crt_stdio_output@@YAEPEAD@Z 000000018005e670 f i libucrtd:output.obj
 0001:0005d6d0       ??$peek_va_arg@F@__crt_stdio_output@@YAFPEAD@Z 000000018005e6d0 f i libucrtd:output.obj
 0001:0005d730       ??$peek_va_arg@G@__crt_stdio_output@@YAGPEAD@Z 000000018005e730 f i libucrtd:output.obj
 0001:0005d790       ??$peek_va_arg@H@__crt_stdio_output@@YAHPEAD@Z 000000018005e790 f i libucrtd:output.obj
 0001:0005d7e0       ??$peek_va_arg@I@__crt_stdio_output@@YAIPEAD@Z 000000018005e7e0 f i libucrtd:output.obj
 0001:0005d830       ??$peek_va_arg@PEAD@__crt_stdio_output@@YAPEADPEAD@Z 000000018005e830 f i libucrtd:output.obj
 0001:0005d890       ??$peek_va_arg@PEAUansi_string@?1??type_case_Z@?$output_processor@DV?$stream_output_adapter@D@__crt_stdio_output@@V?$positional_parameter_base@DV?$stream_output_adapter@D@__crt_stdio_output@@@2@@__crt_stdio_output@@AEAA_NXZ@@__crt_stdio_output@@YAPEAUansi_string@?1??type_case_Z@?$output_processor@DV?$stream_output_adapter@D@__crt_stdio_output@@V?$positional_parameter_base@DV?$stream_output_adapter@D@__crt_stdio_output@@@2@@0@AEAA_NXZ@PEAD@Z 000000018005e890 f i libucrtd:output.obj
 0001:0005d8f0       ??$peek_va_arg@PEAUansi_string@?1??type_case_Z@?$output_processor@DV?$string_output_adapter@D@__crt_stdio_output@@V?$positional_parameter_base@DV?$string_output_adapter@D@__crt_stdio_output@@@2@@__crt_stdio_output@@AEAA_NXZ@@__crt_stdio_output@@YAPEAUansi_string@?1??type_case_Z@?$output_processor@DV?$string_output_adapter@D@__crt_stdio_output@@V?$positional_parameter_base@DV?$string_output_adapter@D@__crt_stdio_output@@@2@@0@AEAA_NXZ@PEAD@Z 000000018005e8f0 f i libucrtd:output.obj
 0001:0005d950       ??$peek_va_arg@PEAUansi_string@?1??type_case_Z@?$output_processor@_WV?$stream_output_adapter@_W@__crt_stdio_output@@V?$positional_parameter_base@_WV?$stream_output_adapter@_W@__crt_stdio_output@@@2@@__crt_stdio_output@@AEAA_NXZ@@__crt_stdio_output@@YAPEAUansi_string@?1??type_case_Z@?$output_processor@_WV?$stream_output_adapter@_W@__crt_stdio_output@@V?$positional_parameter_base@_WV?$stream_output_adapter@_W@__crt_stdio_output@@@2@@0@AEAA_NXZ@PEAD@Z 000000018005e950 f i libucrtd:output.obj
 0001:0005d9b0       ??$peek_va_arg@PEAUansi_string@?1??type_case_Z@?$output_processor@_WV?$string_output_adapter@_W@__crt_stdio_output@@V?$positional_parameter_base@_WV?$string_output_adapter@_W@__crt_stdio_output@@@2@@__crt_stdio_output@@AEAA_NXZ@@__crt_stdio_output@@YAPEAUansi_string@?1??type_case_Z@?$output_processor@_WV?$string_output_adapter@_W@__crt_stdio_output@@V?$positional_parameter_base@_WV?$string_output_adapter@_W@__crt_stdio_output@@@2@@0@AEAA_NXZ@PEAD@Z 000000018005e9b0 f i libucrtd:output.obj
 0001:0005da10       ??$peek_va_arg@PEAX@__crt_stdio_output@@YAPEAXPEAD@Z 000000018005ea10 f i libucrtd:output.obj
 0001:0005da70       ??$peek_va_arg@U_CRT_DOUBLE@@@__crt_stdio_output@@YA?AU_CRT_DOUBLE@@PEAD@Z 000000018005ea70 f i libucrtd:output.obj
 0001:0005dad0       ??$peek_va_arg@_J@__crt_stdio_output@@YA_JPEAD@Z 000000018005ead0 f i libucrtd:output.obj
 0001:0005db30       ??$peek_va_arg@_K@__crt_stdio_output@@YA_KPEAD@Z 000000018005eb30 f i libucrtd:output.obj
 0001:0005db90       ??$peek_va_arg@_W@__crt_stdio_output@@YA_WPEAD@Z 000000018005eb90 f i libucrtd:output.obj
 0001:0005dbf0       ??$puttc_nolock@AEBDPEAU_iobuf@@@?$__crt_char_traits@D@@SAHAEBD$$QEAPEAU_iobuf@@@Z 000000018005ebf0 f i libucrtd:output.obj
 0001:0005dc20       ??$puttc_nolock@AEB_WPEAU_iobuf@@@?$__crt_char_traits@_W@@SAGAEB_W$$QEAPEAU_iobuf@@@Z 000000018005ec20 f i libucrtd:output.obj
 0001:0005dc50       ??$read_va_arg@C@__crt_stdio_output@@YACAEAPEAD@Z 000000018005ec50 f i libucrtd:output.obj
 0001:0005dcc0       ??$read_va_arg@E@__crt_stdio_output@@YAEAEAPEAD@Z 000000018005ecc0 f i libucrtd:output.obj
 0001:0005dd30       ??$read_va_arg@F@__crt_stdio_output@@YAFAEAPEAD@Z 000000018005ed30 f i libucrtd:output.obj
 0001:0005dda0       ??$read_va_arg@G@__crt_stdio_output@@YAGAEAPEAD@Z 000000018005eda0 f i libucrtd:output.obj
 0001:0005de10       ??$read_va_arg@H@__crt_stdio_output@@YAHAEAPEAD@Z 000000018005ee10 f i libucrtd:output.obj
 0001:0005de70       ??$read_va_arg@I@__crt_stdio_output@@YAIAEAPEAD@Z 000000018005ee70 f i libucrtd:output.obj
 0001:0005ded0       ??$read_va_arg@PEAD@__crt_stdio_output@@YAPEADAEAPEAD@Z 000000018005eed0 f i libucrtd:output.obj
 0001:0005df40       ??$read_va_arg@PEAUansi_string@?1??type_case_Z@?$output_processor@DV?$stream_output_adapter@D@__crt_stdio_output@@V?$format_validation_base@DV?$stream_output_adapter@D@__crt_stdio_output@@@2@@__crt_stdio_output@@AEAA_NXZ@@__crt_stdio_output@@YAPEAUansi_string@?1??type_case_Z@?$output_processor@DV?$stream_output_adapter@D@__crt_stdio_output@@V?$format_validation_base@DV?$stream_output_adapter@D@__crt_stdio_output@@@2@@0@AEAA_NXZ@AEAPEAD@Z 000000018005ef40 f i libucrtd:output.obj
 0001:0005dfb0       ??$read_va_arg@PEAUansi_string@?1??type_case_Z@?$output_processor@DV?$stream_output_adapter@D@__crt_stdio_output@@V?$positional_parameter_base@DV?$stream_output_adapter@D@__crt_stdio_output@@@2@@__crt_stdio_output@@AEAA_NXZ@@__crt_stdio_output@@YAPEAUansi_string@?1??type_case_Z@?$output_processor@DV?$stream_output_adapter@D@__crt_stdio_output@@V?$positional_parameter_base@DV?$stream_output_adapter@D@__crt_stdio_output@@@2@@0@AEAA_NXZ@AEAPEAD@Z 000000018005efb0 f i libucrtd:output.obj
 0001:0005e020       ??$read_va_arg@PEAUansi_string@?1??type_case_Z@?$output_processor@DV?$stream_output_adapter@D@__crt_stdio_output@@V?$standard_base@DV?$stream_output_adapter@D@__crt_stdio_output@@@2@@__crt_stdio_output@@AEAA_NXZ@@__crt_stdio_output@@YAPEAUansi_string@?1??type_case_Z@?$output_processor@DV?$stream_output_adapter@D@__crt_stdio_output@@V?$standard_base@DV?$stream_output_adapter@D@__crt_stdio_output@@@2@@0@AEAA_NXZ@AEAPEAD@Z 000000018005f020 f i libucrtd:output.obj
 0001:0005e090       ??$read_va_arg@PEAUansi_string@?1??type_case_Z@?$output_processor@DV?$string_output_adapter@D@__crt_stdio_output@@V?$format_validation_base@DV?$string_output_adapter@D@__crt_stdio_output@@@2@@__crt_stdio_output@@AEAA_NXZ@@__crt_stdio_output@@YAPEAUansi_string@?1??type_case_Z@?$output_processor@DV?$string_output_adapter@D@__crt_stdio_output@@V?$format_validation_base@DV?$string_output_adapter@D@__crt_stdio_output@@@2@@0@AEAA_NXZ@AEAPEAD@Z 000000018005f090 f i libucrtd:output.obj
 0001:0005e100       ??$read_va_arg@PEAUansi_string@?1??type_case_Z@?$output_processor@DV?$string_output_adapter@D@__crt_stdio_output@@V?$positional_parameter_base@DV?$string_output_adapter@D@__crt_stdio_output@@@2@@__crt_stdio_output@@AEAA_NXZ@@__crt_stdio_output@@YAPEAUansi_string@?1??type_case_Z@?$output_processor@DV?$string_output_adapter@D@__crt_stdio_output@@V?$positional_parameter_base@DV?$string_output_adapter@D@__crt_stdio_output@@@2@@0@AEAA_NXZ@AEAPEAD@Z 000000018005f100 f i libucrtd:output.obj
 0001:0005e170       ??$read_va_arg@PEAUansi_string@?1??type_case_Z@?$output_processor@DV?$string_output_adapter@D@__crt_stdio_output@@V?$standard_base@DV?$string_output_adapter@D@__crt_stdio_output@@@2@@__crt_stdio_output@@AEAA_NXZ@@__crt_stdio_output@@YAPEAUansi_string@?1??type_case_Z@?$output_processor@DV?$string_output_adapter@D@__crt_stdio_output@@V?$standard_base@DV?$string_output_adapter@D@__crt_stdio_output@@@2@@0@AEAA_NXZ@AEAPEAD@Z 000000018005f170 f i libucrtd:output.obj
 0001:0005e1e0       ??$read_va_arg@PEAUansi_string@?1??type_case_Z@?$output_processor@_WV?$stream_output_adapter@_W@__crt_stdio_output@@V?$format_validation_base@_WV?$stream_output_adapter@_W@__crt_stdio_output@@@2@@__crt_stdio_output@@AEAA_NXZ@@__crt_stdio_output@@YAPEAUansi_string@?1??type_case_Z@?$output_processor@_WV?$stream_output_adapter@_W@__crt_stdio_output@@V?$format_validation_base@_WV?$stream_output_adapter@_W@__crt_stdio_output@@@2@@0@AEAA_NXZ@AEAPEAD@Z 000000018005f1e0 f i libucrtd:output.obj
 0001:0005e250       ??$read_va_arg@PEAUansi_string@?1??type_case_Z@?$output_processor@_WV?$stream_output_adapter@_W@__crt_stdio_output@@V?$positional_parameter_base@_WV?$stream_output_adapter@_W@__crt_stdio_output@@@2@@__crt_stdio_output@@AEAA_NXZ@@__crt_stdio_output@@YAPEAUansi_string@?1??type_case_Z@?$output_processor@_WV?$stream_output_adapter@_W@__crt_stdio_output@@V?$positional_parameter_base@_WV?$stream_output_adapter@_W@__crt_stdio_output@@@2@@0@AEAA_NXZ@AEAPEAD@Z 000000018005f250 f i libucrtd:output.obj
 0001:0005e2c0       ??$read_va_arg@PEAUansi_string@?1??type_case_Z@?$output_processor@_WV?$stream_output_adapter@_W@__crt_stdio_output@@V?$standard_base@_WV?$stream_output_adapter@_W@__crt_stdio_output@@@2@@__crt_stdio_output@@AEAA_NXZ@@__crt_stdio_output@@YAPEAUansi_string@?1??type_case_Z@?$output_processor@_WV?$stream_output_adapter@_W@__crt_stdio_output@@V?$standard_base@_WV?$stream_output_adapter@_W@__crt_stdio_output@@@2@@0@AEAA_NXZ@AEAPEAD@Z 000000018005f2c0 f i libucrtd:output.obj
 0001:0005e330       ??$read_va_arg@PEAUansi_string@?1??type_case_Z@?$output_processor@_WV?$string_output_adapter@_W@__crt_stdio_output@@V?$format_validation_base@_WV?$string_output_adapter@_W@__crt_stdio_output@@@2@@__crt_stdio_output@@AEAA_NXZ@@__crt_stdio_output@@YAPEAUansi_string@?1??type_case_Z@?$output_processor@_WV?$string_output_adapter@_W@__crt_stdio_output@@V?$format_validation_base@_WV?$string_output_adapter@_W@__crt_stdio_output@@@2@@0@AEAA_NXZ@AEAPEAD@Z 000000018005f330 f i libucrtd:output.obj
 0001:0005e3a0       ??$read_va_arg@PEAUansi_string@?1??type_case_Z@?$output_processor@_WV?$string_output_adapter@_W@__crt_stdio_output@@V?$positional_parameter_base@_WV?$string_output_adapter@_W@__crt_stdio_output@@@2@@__crt_stdio_output@@AEAA_NXZ@@__crt_stdio_output@@YAPEAUansi_string@?1??type_case_Z@?$output_processor@_WV?$string_output_adapter@_W@__crt_stdio_output@@V?$positional_parameter_base@_WV?$string_output_adapter@_W@__crt_stdio_output@@@2@@0@AEAA_NXZ@AEAPEAD@Z 000000018005f3a0 f i libucrtd:output.obj
 0001:0005e410       ??$read_va_arg@PEAUansi_string@?1??type_case_Z@?$output_processor@_WV?$string_output_adapter@_W@__crt_stdio_output@@V?$standard_base@_WV?$string_output_adapter@_W@__crt_stdio_output@@@2@@__crt_stdio_output@@AEAA_NXZ@@__crt_stdio_output@@YAPEAUansi_string@?1??type_case_Z@?$output_processor@_WV?$string_output_adapter@_W@__crt_stdio_output@@V?$standard_base@_WV?$string_output_adapter@_W@__crt_stdio_output@@@2@@0@AEAA_NXZ@AEAPEAD@Z 000000018005f410 f i libucrtd:output.obj
 0001:0005e480       ??$read_va_arg@PEAX@__crt_stdio_output@@YAPEAXAEAPEAD@Z 000000018005f480 f i libucrtd:output.obj
 0001:0005e4f0       ??$read_va_arg@U_CRT_DOUBLE@@@__crt_stdio_output@@YA?AU_CRT_DOUBLE@@AEAPEAD@Z 000000018005f4f0 f i libucrtd:output.obj
 0001:0005e560       ??$read_va_arg@_J@__crt_stdio_output@@YA_JAEAPEAD@Z 000000018005f560 f i libucrtd:output.obj
 0001:0005e5d0       ??$read_va_arg@_K@__crt_stdio_output@@YA_KAEAPEAD@Z 000000018005f5d0 f i libucrtd:output.obj
 0001:0005e640       ??$read_va_arg@_W@__crt_stdio_output@@YA_WAEAPEAD@Z 000000018005f640 f i libucrtd:output.obj
 0001:0005e6b0       ??$scratch_count@D@formatting_buffer@__crt_stdio_output@@QEBA_KXZ 000000018005f6b0 f i libucrtd:output.obj
 0001:0005e6d0       ??$scratch_data@D@formatting_buffer@__crt_stdio_output@@QEAAPEADXZ 000000018005f6d0 f i libucrtd:output.obj
 0001:0005e740       ??$tcstol@AEAPEBDPEAPEADH@?$__crt_char_traits@D@@SAJAEAPEBD$$QEAPEAPEAD$$QEAH@Z 000000018005f740 f i libucrtd:output.obj
 0001:0005e780       ??$tcstol@AEAPEB_WPEAPEA_WH@?$__crt_char_traits@_W@@SAJAEAPEB_W$$QEAPEAPEA_W$$QEAH@Z 000000018005f780 f i libucrtd:output.obj
 0001:0005e7c0       ??$tcstol@PEBDPEAPEADH@?$__crt_char_traits@D@@SAJ$$QEAPEBD$$QEAPEAPEAD$$QEAH@Z 000000018005f7c0 f i libucrtd:output.obj
 0001:0005e800       ??$tcstol@PEB_WPEAPEA_WH@?$__crt_char_traits@_W@@SAJ$$QEAPEB_W$$QEAPEAPEA_W$$QEAH@Z 000000018005f800 f i libucrtd:output.obj
 0001:0005e840       ??$type_case_integer_parse_into_buffer@I@?$output_processor@DV?$stream_output_adapter@D@__crt_stdio_output@@V?$format_validation_base@DV?$stream_output_adapter@D@__crt_stdio_output@@@2@@__crt_stdio_output@@AEAAXII_N@Z 000000018005f840 f i libucrtd:output.obj
 0001:0005e970       ??$type_case_integer_parse_into_buffer@I@?$output_processor@DV?$stream_output_adapter@D@__crt_stdio_output@@V?$positional_parameter_base@DV?$stream_output_adapter@D@__crt_stdio_output@@@2@@__crt_stdio_output@@AEAAXII_N@Z 000000018005f970 f i libucrtd:output.obj
 0001:0005eaa0       ??$type_case_integer_parse_into_buffer@I@?$output_processor@DV?$stream_output_adapter@D@__crt_stdio_output@@V?$standard_base@DV?$stream_output_adapter@D@__crt_stdio_output@@@2@@__crt_stdio_output@@AEAAXII_N@Z 000000018005faa0 f i libucrtd:output.obj
 0001:0005ebd0       ??$type_case_integer_parse_into_buffer@I@?$output_processor@DV?$string_output_adapter@D@__crt_stdio_output@@V?$format_validation_base@DV?$string_output_adapter@D@__crt_stdio_output@@@2@@__crt_stdio_output@@AEAAXII_N@Z 000000018005fbd0 f i libucrtd:output.obj
 0001:0005ed00       ??$type_case_integer_parse_into_buffer@I@?$output_processor@DV?$string_output_adapter@D@__crt_stdio_output@@V?$positional_parameter_base@DV?$string_output_adapter@D@__crt_stdio_output@@@2@@__crt_stdio_output@@AEAAXII_N@Z 000000018005fd00 f i libucrtd:output.obj
 0001:0005ee30       ??$type_case_integer_parse_into_buffer@I@?$output_processor@DV?$string_output_adapter@D@__crt_stdio_output@@V?$standard_base@DV?$string_output_adapter@D@__crt_stdio_output@@@2@@__crt_stdio_output@@AEAAXII_N@Z 000000018005fe30 f i libucrtd:output.obj
 0001:0005ef60       ??$type_case_integer_parse_into_buffer@I@?$output_processor@_WV?$stream_output_adapter@_W@__crt_stdio_output@@V?$format_validation_base@_WV?$stream_output_adapter@_W@__crt_stdio_output@@@2@@__crt_stdio_output@@AEAAXII_N@Z 000000018005ff60 f i libucrtd:output.obj
 0001:0005f0a0       ??$type_case_integer_parse_into_buffer@I@?$output_processor@_WV?$stream_output_adapter@_W@__crt_stdio_output@@V?$positional_parameter_base@_WV?$stream_output_adapter@_W@__crt_stdio_output@@@2@@__crt_stdio_output@@AEAAXII_N@Z 00000001800600a0 f i libucrtd:output.obj
 0001:0005f1e0       ??$type_case_integer_parse_into_buffer@I@?$output_processor@_WV?$stream_output_adapter@_W@__crt_stdio_output@@V?$standard_base@_WV?$stream_output_adapter@_W@__crt_stdio_output@@@2@@__crt_stdio_output@@AEAAXII_N@Z 00000001800601e0 f i libucrtd:output.obj
 0001:0005f320       ??$type_case_integer_parse_into_buffer@I@?$output_processor@_WV?$string_output_adapter@_W@__crt_stdio_output@@V?$format_validation_base@_WV?$string_output_adapter@_W@__crt_stdio_output@@@2@@__crt_stdio_output@@AEAAXII_N@Z 0000000180060320 f i libucrtd:output.obj
 0001:0005f460       ??$type_case_integer_parse_into_buffer@I@?$output_processor@_WV?$string_output_adapter@_W@__crt_stdio_output@@V?$positional_parameter_base@_WV?$string_output_adapter@_W@__crt_stdio_output@@@2@@__crt_stdio_output@@AEAAXII_N@Z 0000000180060460 f i libucrtd:output.obj
 0001:0005f5a0       ??$type_case_integer_parse_into_buffer@I@?$output_processor@_WV?$string_output_adapter@_W@__crt_stdio_output@@V?$standard_base@_WV?$string_output_adapter@_W@__crt_stdio_output@@@2@@__crt_stdio_output@@AEAAXII_N@Z 00000001800605a0 f i libucrtd:output.obj
 0001:0005f6e0       ??$type_case_integer_parse_into_buffer@_K@?$output_processor@DV?$stream_output_adapter@D@__crt_stdio_output@@V?$format_validation_base@DV?$stream_output_adapter@D@__crt_stdio_output@@@2@@__crt_stdio_output@@AEAAX_KI_N@Z 00000001800606e0 f i libucrtd:output.obj
 0001:0005f830       ??$type_case_integer_parse_into_buffer@_K@?$output_processor@DV?$stream_output_adapter@D@__crt_stdio_output@@V?$positional_parameter_base@DV?$stream_output_adapter@D@__crt_stdio_output@@@2@@__crt_stdio_output@@AEAAX_KI_N@Z 0000000180060830 f i libucrtd:output.obj
 0001:0005f980       ??$type_case_integer_parse_into_buffer@_K@?$output_processor@DV?$stream_output_adapter@D@__crt_stdio_output@@V?$standard_base@DV?$stream_output_adapter@D@__crt_stdio_output@@@2@@__crt_stdio_output@@AEAAX_KI_N@Z 0000000180060980 f i libucrtd:output.obj
 0001:0005fad0       ??$type_case_integer_parse_into_buffer@_K@?$output_processor@DV?$string_output_adapter@D@__crt_stdio_output@@V?$format_validation_base@DV?$string_output_adapter@D@__crt_stdio_output@@@2@@__crt_stdio_output@@AEAAX_KI_N@Z 0000000180060ad0 f i libucrtd:output.obj
 0001:0005fc20       ??$type_case_integer_parse_into_buffer@_K@?$output_processor@DV?$string_output_adapter@D@__crt_stdio_output@@V?$positional_parameter_base@DV?$string_output_adapter@D@__crt_stdio_output@@@2@@__crt_stdio_output@@AEAAX_KI_N@Z 0000000180060c20 f i libucrtd:output.obj
 0001:0005fd70       ??$type_case_integer_parse_into_buffer@_K@?$output_processor@DV?$string_output_adapter@D@__crt_stdio_output@@V?$standard_base@DV?$string_output_adapter@D@__crt_stdio_output@@@2@@__crt_stdio_output@@AEAAX_KI_N@Z 0000000180060d70 f i libucrtd:output.obj
 0001:0005fec0       ??$type_case_integer_parse_into_buffer@_K@?$output_processor@_WV?$stream_output_adapter@_W@__crt_stdio_output@@V?$format_validation_base@_WV?$stream_output_adapter@_W@__crt_stdio_output@@@2@@__crt_stdio_output@@AEAAX_KI_N@Z 0000000180060ec0 f i libucrtd:output.obj
 0001:00060020       ??$type_case_integer_parse_into_buffer@_K@?$output_processor@_WV?$stream_output_adapter@_W@__crt_stdio_output@@V?$positional_parameter_base@_WV?$stream_output_adapter@_W@__crt_stdio_output@@@2@@__crt_stdio_output@@AEAAX_KI_N@Z 0000000180061020 f i libucrtd:output.obj
 0001:00060180       ??$type_case_integer_parse_into_buffer@_K@?$output_processor@_WV?$stream_output_adapter@_W@__crt_stdio_output@@V?$standard_base@_WV?$stream_output_adapter@_W@__crt_stdio_output@@@2@@__crt_stdio_output@@AEAAX_KI_N@Z 0000000180061180 f i libucrtd:output.obj
 0001:000602e0       ??$type_case_integer_parse_into_buffer@_K@?$output_processor@_WV?$string_output_adapter@_W@__crt_stdio_output@@V?$format_validation_base@_WV?$string_output_adapter@_W@__crt_stdio_output@@@2@@__crt_stdio_output@@AEAAX_KI_N@Z 00000001800612e0 f i libucrtd:output.obj
 0001:00060440       ??$type_case_integer_parse_into_buffer@_K@?$output_processor@_WV?$string_output_adapter@_W@__crt_stdio_output@@V?$positional_parameter_base@_WV?$string_output_adapter@_W@__crt_stdio_output@@@2@@__crt_stdio_output@@AEAAX_KI_N@Z 0000000180061440 f i libucrtd:output.obj
 0001:000605a0       ??$type_case_integer_parse_into_buffer@_K@?$output_processor@_WV?$string_output_adapter@_W@__crt_stdio_output@@V?$standard_base@_WV?$string_output_adapter@_W@__crt_stdio_output@@@2@@__crt_stdio_output@@AEAAX_KI_N@Z 00000001800615a0 f i libucrtd:output.obj
 0001:00060700       ??$write_multiple_characters@V?$stream_output_adapter@D@__crt_stdio_output@@D@__crt_stdio_output@@YAXAEBV?$stream_output_adapter@D@0@DHQEAH@Z 0000000180061700 f i libucrtd:output.obj
 0001:00060760       ??$write_multiple_characters@V?$stream_output_adapter@_W@__crt_stdio_output@@D@__crt_stdio_output@@YAXAEBV?$stream_output_adapter@_W@0@DHQEAH@Z 0000000180061760 f i libucrtd:output.obj
 0001:000607c0       ??$write_multiple_characters@V?$string_output_adapter@D@__crt_stdio_output@@D@__crt_stdio_output@@YAXAEBV?$string_output_adapter@D@0@DHQEAH@Z 00000001800617c0 f i libucrtd:output.obj
 0001:00060820       ??$write_multiple_characters@V?$string_output_adapter@_W@__crt_stdio_output@@D@__crt_stdio_output@@YAXAEBV?$string_output_adapter@_W@0@DHQEAH@Z 0000000180061820 f i libucrtd:output.obj
 0001:00060c40       ??0?$common_data@D@__crt_stdio_output@@IEAA@XZ 0000000180061c40 f i libucrtd:output.obj
 0001:00060d10       ??0?$common_data@_W@__crt_stdio_output@@IEAA@XZ 0000000180061d10 f i libucrtd:output.obj
 0001:00060de0       ??0?$output_adapter_data@DV?$stream_output_adapter@D@__crt_stdio_output@@@__crt_stdio_output@@IEAA@AEBV?$stream_output_adapter@D@1@_KQEBDQEAU__crt_locale_pointers@@QEAD@Z 0000000180061de0 f i libucrtd:output.obj
 0001:00060e60       ??0?$output_adapter_data@DV?$string_output_adapter@D@__crt_stdio_output@@@__crt_stdio_output@@IEAA@AEBV?$string_output_adapter@D@1@_KQEBDQEAU__crt_locale_pointers@@QEAD@Z 0000000180061e60 f i libucrtd:output.obj
 0001:00060ee0       ??0?$output_adapter_data@_WV?$stream_output_adapter@_W@__crt_stdio_output@@@__crt_stdio_output@@IEAA@AEBV?$stream_output_adapter@_W@1@_KQEB_WQEAU__crt_locale_pointers@@QEAD@Z 0000000180061ee0 f i libucrtd:output.obj
 0001:00060f60       ??0?$output_adapter_data@_WV?$string_output_adapter@_W@__crt_stdio_output@@@__crt_stdio_output@@IEAA@AEBV?$string_output_adapter@_W@1@_KQEB_WQEAU__crt_locale_pointers@@QEAD@Z 0000000180061f60 f i libucrtd:output.obj
 0001:00060fe0       ??0?$output_processor@DV?$stream_output_adapter@D@__crt_stdio_output@@V?$format_validation_base@DV?$stream_output_adapter@D@__crt_stdio_output@@@2@@__crt_stdio_output@@QEAA@AEBV?$stream_output_adapter@D@1@_KQEBDQEAU__crt_locale_pointers@@QEAD@Z 0000000180061fe0 f i libucrtd:output.obj
 0001:00061030       ??0?$output_processor@DV?$stream_output_adapter@D@__crt_stdio_output@@V?$positional_parameter_base@DV?$stream_output_adapter@D@__crt_stdio_output@@@2@@__crt_stdio_output@@QEAA@AEBV?$stream_output_adapter@D@1@_KQEBDQEAU__crt_locale_pointers@@QEAD@Z 0000000180062030 f i libucrtd:output.obj
 0001:00061080       ??0?$output_processor@DV?$stream_output_adapter@D@__crt_stdio_output@@V?$standard_base@DV?$stream_output_adapter@D@__crt_stdio_output@@@2@@__crt_stdio_output@@QEAA@AEBV?$stream_output_adapter@D@1@_KQEBDQEAU__crt_locale_pointers@@QEAD@Z 0000000180062080 f i libucrtd:output.obj
 0001:000610d0       ??0?$output_processor@DV?$string_output_adapter@D@__crt_stdio_output@@V?$format_validation_base@DV?$string_output_adapter@D@__crt_stdio_output@@@2@@__crt_stdio_output@@QEAA@AEBV?$string_output_adapter@D@1@_KQEBDQEAU__crt_locale_pointers@@QEAD@Z 00000001800620d0 f i libucrtd:output.obj
 0001:00061120       ??0?$output_processor@DV?$string_output_adapter@D@__crt_stdio_output@@V?$positional_parameter_base@DV?$string_output_adapter@D@__crt_stdio_output@@@2@@__crt_stdio_output@@QEAA@AEBV?$string_output_adapter@D@1@_KQEBDQEAU__crt_locale_pointers@@QEAD@Z 0000000180062120 f i libucrtd:output.obj
 0001:00061170       ??0?$output_processor@DV?$string_output_adapter@D@__crt_stdio_output@@V?$standard_base@DV?$string_output_adapter@D@__crt_stdio_output@@@2@@__crt_stdio_output@@QEAA@AEBV?$string_output_adapter@D@1@_KQEBDQEAU__crt_locale_pointers@@QEAD@Z 0000000180062170 f i libucrtd:output.obj
 0001:000611c0       ??0?$output_processor@_WV?$stream_output_adapter@_W@__crt_stdio_output@@V?$format_validation_base@_WV?$stream_output_adapter@_W@__crt_stdio_output@@@2@@__crt_stdio_output@@QEAA@AEBV?$stream_output_adapter@_W@1@_KQEB_WQEAU__crt_locale_pointers@@QEAD@Z 00000001800621c0 f i libucrtd:output.obj
 0001:00061210       ??0?$output_processor@_WV?$stream_output_adapter@_W@__crt_stdio_output@@V?$positional_parameter_base@_WV?$stream_output_adapter@_W@__crt_stdio_output@@@2@@__crt_stdio_output@@QEAA@AEBV?$stream_output_adapter@_W@1@_KQEB_WQEAU__crt_locale_pointers@@QEAD@Z 0000000180062210 f i libucrtd:output.obj
 0001:00061260       ??0?$output_processor@_WV?$stream_output_adapter@_W@__crt_stdio_output@@V?$standard_base@_WV?$stream_output_adapter@_W@__crt_stdio_output@@@2@@__crt_stdio_output@@QEAA@AEBV?$stream_output_adapter@_W@1@_KQEB_WQEAU__crt_locale_pointers@@QEAD@Z 0000000180062260 f i libucrtd:output.obj
 0001:000612b0       ??0?$output_processor@_WV?$string_output_adapter@_W@__crt_stdio_output@@V?$format_validation_base@_WV?$string_output_adapter@_W@__crt_stdio_output@@@2@@__crt_stdio_output@@QEAA@AEBV?$string_output_adapter@_W@1@_KQEB_WQEAU__crt_locale_pointers@@QEAD@Z 00000001800622b0 f i libucrtd:output.obj
 0001:00061300       ??0?$output_processor@_WV?$string_output_adapter@_W@__crt_stdio_output@@V?$positional_parameter_base@_WV?$string_output_adapter@_W@__crt_stdio_output@@@2@@__crt_stdio_output@@QEAA@AEBV?$string_output_adapter@_W@1@_KQEB_WQEAU__crt_locale_pointers@@QEAD@Z 0000000180062300 f i libucrtd:output.obj
 0001:00061350       ??0?$output_processor@_WV?$string_output_adapter@_W@__crt_stdio_output@@V?$standard_base@_WV?$string_output_adapter@_W@__crt_stdio_output@@@2@@__crt_stdio_output@@QEAA@AEBV?$string_output_adapter@_W@1@_KQEB_WQEAU__crt_locale_pointers@@QEAD@Z 0000000180062350 f i libucrtd:output.obj
 0001:000613a0       ??0?$stream_output_adapter@D@__crt_stdio_output@@QEAA@QEAU_iobuf@@@Z 00000001800623a0 f i libucrtd:output.obj
 0001:000613d0       ??0?$stream_output_adapter@_W@__crt_stdio_output@@QEAA@QEAU_iobuf@@@Z 00000001800623d0 f i libucrtd:output.obj
 0001:00061400       ??0?$string_output_adapter@D@__crt_stdio_output@@QEAA@QEAU?$string_output_adapter_context@D@1@@Z 0000000180062400 f i libucrtd:output.obj
 0001:00061420       ??0?$string_output_adapter@_W@__crt_stdio_output@@QEAA@QEAU?$string_output_adapter_context@_W@1@@Z 0000000180062420 f i libucrtd:output.obj
 0001:00061440       ??0_LocaleUpdate@@QEAA@QEAU__crt_locale_pointers@@@Z 0000000180062440 f i libucrtd:output.obj
 0001:00061560       ??0__acrt_stdio_temporary_buffering_guard@@QEAA@QEAU_iobuf@@@Z 0000000180062560 f i libucrtd:output.obj
 0001:000615a0       ??0__crt_deferred_errno_cache@@QEAA@XZ 00000001800625a0 f i libucrtd:output.obj
 0001:000615c0       ??0__crt_errno_guard@@QEAA@QEAH@Z 00000001800625c0 f i libucrtd:output.obj
 0001:00061600       ??0__crt_stdio_stream@@QEAA@QEAU_iobuf@@@Z 0000000180062600 f i libucrtd:output.obj
 0001:00061620       ??0formatting_buffer@__crt_stdio_output@@QEAA@XZ 0000000180062620 f i libucrtd:output.obj
 0001:00061660       ??1?$common_data@D@__crt_stdio_output@@QEAA@XZ 0000000180062660 f i libucrtd:output.obj
 0001:00061680       ??1?$common_data@_W@__crt_stdio_output@@QEAA@XZ 0000000180062680 f i libucrtd:output.obj
 0001:000616a0       ??1?$format_validation_base@DV?$stream_output_adapter@D@__crt_stdio_output@@@__crt_stdio_output@@QEAA@XZ 00000001800626a0 f i libucrtd:output.obj
 0001:000616c0       ??1?$format_validation_base@DV?$string_output_adapter@D@__crt_stdio_output@@@__crt_stdio_output@@QEAA@XZ 00000001800626c0 f i libucrtd:output.obj
 0001:000616e0       ??1?$format_validation_base@_WV?$stream_output_adapter@_W@__crt_stdio_output@@@__crt_stdio_output@@QEAA@XZ 00000001800626e0 f i libucrtd:output.obj
 0001:00061700       ??1?$format_validation_base@_WV?$string_output_adapter@_W@__crt_stdio_output@@@__crt_stdio_output@@QEAA@XZ 0000000180062700 f i libucrtd:output.obj
 0001:00061720       ??1?$output_adapter_data@DV?$stream_output_adapter@D@__crt_stdio_output@@@__crt_stdio_output@@QEAA@XZ 0000000180062720 f i libucrtd:output.obj
 0001:00061740       ??1?$output_adapter_data@DV?$string_output_adapter@D@__crt_stdio_output@@@__crt_stdio_output@@QEAA@XZ 0000000180062740 f i libucrtd:output.obj
 0001:00061760       ??1?$output_adapter_data@_WV?$stream_output_adapter@_W@__crt_stdio_output@@@__crt_stdio_output@@QEAA@XZ 0000000180062760 f i libucrtd:output.obj
 0001:00061780       ??1?$output_adapter_data@_WV?$string_output_adapter@_W@__crt_stdio_output@@@__crt_stdio_output@@QEAA@XZ 0000000180062780 f i libucrtd:output.obj
 0001:000617a0       ??1?$output_processor@DV?$stream_output_adapter@D@__crt_stdio_output@@V?$format_validation_base@DV?$stream_output_adapter@D@__crt_stdio_output@@@2@@__crt_stdio_output@@QEAA@XZ 00000001800627a0 f i libucrtd:output.obj
 0001:000617c0       ??1?$output_processor@DV?$stream_output_adapter@D@__crt_stdio_output@@V?$positional_parameter_base@DV?$stream_output_adapter@D@__crt_stdio_output@@@2@@__crt_stdio_output@@QEAA@XZ 00000001800627c0 f i libucrtd:output.obj
 0001:000617e0       ??1?$output_processor@DV?$stream_output_adapter@D@__crt_stdio_output@@V?$standard_base@DV?$stream_output_adapter@D@__crt_stdio_output@@@2@@__crt_stdio_output@@QEAA@XZ 00000001800627e0 f i libucrtd:output.obj
 0001:00061800       ??1?$output_processor@DV?$string_output_adapter@D@__crt_stdio_output@@V?$format_validation_base@DV?$string_output_adapter@D@__crt_stdio_output@@@2@@__crt_stdio_output@@QEAA@XZ 0000000180062800 f i libucrtd:output.obj
 0001:00061820       ??1?$output_processor@DV?$string_output_adapter@D@__crt_stdio_output@@V?$positional_parameter_base@DV?$string_output_adapter@D@__crt_stdio_output@@@2@@__crt_stdio_output@@QEAA@XZ 0000000180062820 f i libucrtd:output.obj
 0001:00061840       ??1?$output_processor@DV?$string_output_adapter@D@__crt_stdio_output@@V?$standard_base@DV?$string_output_adapter@D@__crt_stdio_output@@@2@@__crt_stdio_output@@QEAA@XZ 0000000180062840 f i libucrtd:output.obj
 0001:00061860       ??1?$output_processor@_WV?$stream_output_adapter@_W@__crt_stdio_output@@V?$format_validation_base@_WV?$stream_output_adapter@_W@__crt_stdio_output@@@2@@__crt_stdio_output@@QEAA@XZ 0000000180062860 f i libucrtd:output.obj
 0001:00061880       ??1?$output_processor@_WV?$stream_output_adapter@_W@__crt_stdio_output@@V?$positional_parameter_base@_WV?$stream_output_adapter@_W@__crt_stdio_output@@@2@@__crt_stdio_output@@QEAA@XZ 0000000180062880 f i libucrtd:output.obj
 0001:000618a0       ??1?$output_processor@_WV?$stream_output_adapter@_W@__crt_stdio_output@@V?$standard_base@_WV?$stream_output_adapter@_W@__crt_stdio_output@@@2@@__crt_stdio_output@@QEAA@XZ 00000001800628a0 f i libucrtd:output.obj
 0001:000618c0       ??1?$output_processor@_WV?$string_output_adapter@_W@__crt_stdio_output@@V?$format_validation_base@_WV?$string_output_adapter@_W@__crt_stdio_output@@@2@@__crt_stdio_output@@QEAA@XZ 00000001800628c0 f i libucrtd:output.obj
 0001:000618e0       ??1?$output_processor@_WV?$string_output_adapter@_W@__crt_stdio_output@@V?$positional_parameter_base@_WV?$string_output_adapter@_W@__crt_stdio_output@@@2@@__crt_stdio_output@@QEAA@XZ 00000001800628e0 f i libucrtd:output.obj
 0001:00061900       ??1?$output_processor@_WV?$string_output_adapter@_W@__crt_stdio_output@@V?$standard_base@_WV?$string_output_adapter@_W@__crt_stdio_output@@@2@@__crt_stdio_output@@QEAA@XZ 0000000180062900 f i libucrtd:output.obj
 0001:00061920       ??1?$positional_parameter_base@DV?$stream_output_adapter@D@__crt_stdio_output@@@__crt_stdio_output@@QEAA@XZ 0000000180062920 f i libucrtd:output.obj
 0001:00061940       ??1?$positional_parameter_base@DV?$string_output_adapter@D@__crt_stdio_output@@@__crt_stdio_output@@QEAA@XZ 0000000180062940 f i libucrtd:output.obj
 0001:00061960       ??1?$positional_parameter_base@_WV?$stream_output_adapter@_W@__crt_stdio_output@@@__crt_stdio_output@@QEAA@XZ 0000000180062960 f i libucrtd:output.obj
 0001:00061980       ??1?$positional_parameter_base@_WV?$string_output_adapter@_W@__crt_stdio_output@@@__crt_stdio_output@@QEAA@XZ 0000000180062980 f i libucrtd:output.obj
 0001:000619a0       ??1?$standard_base@DV?$stream_output_adapter@D@__crt_stdio_output@@@__crt_stdio_output@@QEAA@XZ 00000001800629a0 f i libucrtd:output.obj
 0001:000619c0       ??1?$standard_base@DV?$string_output_adapter@D@__crt_stdio_output@@@__crt_stdio_output@@QEAA@XZ 00000001800629c0 f i libucrtd:output.obj
 0001:000619e0       ??1?$standard_base@_WV?$stream_output_adapter@_W@__crt_stdio_output@@@__crt_stdio_output@@QEAA@XZ 00000001800629e0 f i libucrtd:output.obj
 0001:00061a00       ??1?$standard_base@_WV?$string_output_adapter@_W@__crt_stdio_output@@@__crt_stdio_output@@QEAA@XZ 0000000180062a00 f i libucrtd:output.obj
 0001:00061a20       ??1_LocaleUpdate@@QEAA@XZ  0000000180062a20 f i libucrtd:output.obj
 0001:00061a50       ??1__acrt_stdio_temporary_buffering_guard@@QEAA@XZ 0000000180062a50 f i libucrtd:output.obj
 0001:00061a80       ??1__crt_errno_guard@@QEAA@XZ 0000000180062a80 f i libucrtd:output.obj
 0001:00061ab0       ??1formatting_buffer@__crt_stdio_output@@QEAA@XZ 0000000180062ab0 f i libucrtd:output.obj
 0001:00061ae0       ??4?$__crt_unique_heap_ptr@DU__crt_internal_free_policy@@@@QEAAAEAV0@$$QEAV0@@Z 0000000180062ae0 f i libucrtd:output.obj
 0001:00061b20       ??A?$spectre_mitigated_lookup_table@Ustate_transition_pair@__crt_stdio_output@@$0IA@@__crt_stdio_output@@QEBAAEBUstate_transition_pair@1@_K@Z 0000000180062b20 f i libucrtd:output.obj
 0001:00061b40       ??C__crt_stdio_stream@@QEBAPEAU__crt_stdio_stream_data@@XZ 0000000180062b40 f i libucrtd:output.obj
 0001:000623f0       ?GetLocaleT@_LocaleUpdate@@QEAAPEAU__crt_locale_pointers@@XZ 00000001800633f0 f i libucrtd:output.obj
 0001:00062400       ?__crt_interlocked_read_32@@YAHPEDH@Z 0000000180063400 f i libucrtd:output.obj
 0001:00062420       ?adjust_hexit@?$output_processor@DV?$stream_output_adapter@D@__crt_stdio_output@@V?$format_validation_base@DV?$stream_output_adapter@D@__crt_stdio_output@@@2@@__crt_stdio_output@@CADH_N@Z 0000000180063420 f i libucrtd:output.obj
 0001:00062470       ?adjust_hexit@?$output_processor@DV?$stream_output_adapter@D@__crt_stdio_output@@V?$positional_parameter_base@DV?$stream_output_adapter@D@__crt_stdio_output@@@2@@__crt_stdio_output@@CADH_N@Z 0000000180063470 f i libucrtd:output.obj
 0001:000624c0       ?adjust_hexit@?$output_processor@DV?$stream_output_adapter@D@__crt_stdio_output@@V?$standard_base@DV?$stream_output_adapter@D@__crt_stdio_output@@@2@@__crt_stdio_output@@CADH_N@Z 00000001800634c0 f i libucrtd:output.obj
 0001:00062510       ?adjust_hexit@?$output_processor@DV?$string_output_adapter@D@__crt_stdio_output@@V?$format_validation_base@DV?$string_output_adapter@D@__crt_stdio_output@@@2@@__crt_stdio_output@@CADH_N@Z 0000000180063510 f i libucrtd:output.obj
 0001:00062560       ?adjust_hexit@?$output_processor@DV?$string_output_adapter@D@__crt_stdio_output@@V?$positional_parameter_base@DV?$string_output_adapter@D@__crt_stdio_output@@@2@@__crt_stdio_output@@CADH_N@Z 0000000180063560 f i libucrtd:output.obj
 0001:000625b0       ?adjust_hexit@?$output_processor@DV?$string_output_adapter@D@__crt_stdio_output@@V?$standard_base@DV?$string_output_adapter@D@__crt_stdio_output@@@2@@__crt_stdio_output@@CADH_N@Z 00000001800635b0 f i libucrtd:output.obj
 0001:00062600       ?adjust_hexit@?$output_processor@_WV?$stream_output_adapter@_W@__crt_stdio_output@@V?$format_validation_base@_WV?$stream_output_adapter@_W@__crt_stdio_output@@@2@@__crt_stdio_output@@CADH_N@Z 0000000180063600 f i libucrtd:output.obj
 0001:00062650       ?adjust_hexit@?$output_processor@_WV?$stream_output_adapter@_W@__crt_stdio_output@@V?$positional_parameter_base@_WV?$stream_output_adapter@_W@__crt_stdio_output@@@2@@__crt_stdio_output@@CADH_N@Z 0000000180063650 f i libucrtd:output.obj
 0001:000626a0       ?adjust_hexit@?$output_processor@_WV?$stream_output_adapter@_W@__crt_stdio_output@@V?$standard_base@_WV?$stream_output_adapter@_W@__crt_stdio_output@@@2@@__crt_stdio_output@@CADH_N@Z 00000001800636a0 f i libucrtd:output.obj
 0001:000626f0       ?adjust_hexit@?$output_processor@_WV?$string_output_adapter@_W@__crt_stdio_output@@V?$format_validation_base@_WV?$string_output_adapter@_W@__crt_stdio_output@@@2@@__crt_stdio_output@@CADH_N@Z 00000001800636f0 f i libucrtd:output.obj
 0001:00062740       ?adjust_hexit@?$output_processor@_WV?$string_output_adapter@_W@__crt_stdio_output@@V?$positional_parameter_base@_WV?$string_output_adapter@_W@__crt_stdio_output@@@2@@__crt_stdio_output@@CADH_N@Z 0000000180063740 f i libucrtd:output.obj
 0001:00062790       ?adjust_hexit@?$output_processor@_WV?$string_output_adapter@_W@__crt_stdio_output@@V?$standard_base@_WV?$string_output_adapter@_W@__crt_stdio_output@@@2@@__crt_stdio_output@@CADH_N@Z 0000000180063790 f i libucrtd:output.obj
 0001:000627e0       ?advance_to_next_pass@?$positional_parameter_base@DV?$stream_output_adapter@D@__crt_stdio_output@@@__crt_stdio_output@@IEAA_NXZ 00000001800637e0 f i libucrtd:output.obj
 0001:00062890       ?advance_to_next_pass@?$positional_parameter_base@DV?$string_output_adapter@D@__crt_stdio_output@@@__crt_stdio_output@@IEAA_NXZ 0000000180063890 f i libucrtd:output.obj
 0001:00062940       ?advance_to_next_pass@?$positional_parameter_base@_WV?$stream_output_adapter@_W@__crt_stdio_output@@@__crt_stdio_output@@IEAA_NXZ 0000000180063940 f i libucrtd:output.obj
 0001:000629f0       ?advance_to_next_pass@?$positional_parameter_base@_WV?$string_output_adapter@_W@__crt_stdio_output@@@__crt_stdio_output@@IEAA_NXZ 00000001800639f0 f i libucrtd:output.obj
 0001:00062aa0       ?advance_to_next_pass@?$standard_base@DV?$stream_output_adapter@D@__crt_stdio_output@@@__crt_stdio_output@@IEAA_NXZ 0000000180063aa0 f i libucrtd:output.obj
 0001:00062af0       ?advance_to_next_pass@?$standard_base@DV?$string_output_adapter@D@__crt_stdio_output@@@__crt_stdio_output@@IEAA_NXZ 0000000180063af0 f i libucrtd:output.obj
 0001:00062b40       ?advance_to_next_pass@?$standard_base@_WV?$stream_output_adapter@_W@__crt_stdio_output@@@__crt_stdio_output@@IEAA_NXZ 0000000180063b40 f i libucrtd:output.obj
 0001:00062b90       ?advance_to_next_pass@?$standard_base@_WV?$string_output_adapter@_W@__crt_stdio_output@@@__crt_stdio_output@@IEAA_NXZ 0000000180063b90 f i libucrtd:output.obj
 0001:00062be0       ?crop_zeroes@__crt_stdio_output@@YAXPEADQEAU__crt_locale_pointers@@@Z 0000000180063be0 f i libucrtd:output.obj
 0001:00062d20       ?find_next_state@?$output_processor@DV?$stream_output_adapter@D@__crt_stdio_output@@V?$format_validation_base@DV?$stream_output_adapter@D@__crt_stdio_output@@@2@@__crt_stdio_output@@AEBA?AW4state@2@DW432@@Z 0000000180063d20 f i libucrtd:output.obj
 0001:00062db0       ?find_next_state@?$output_processor@DV?$stream_output_adapter@D@__crt_stdio_output@@V?$positional_parameter_base@DV?$stream_output_adapter@D@__crt_stdio_output@@@2@@__crt_stdio_output@@AEBA?AW4state@2@DW432@@Z 0000000180063db0 f i libucrtd:output.obj
 0001:00062e40       ?find_next_state@?$output_processor@DV?$stream_output_adapter@D@__crt_stdio_output@@V?$standard_base@DV?$stream_output_adapter@D@__crt_stdio_output@@@2@@__crt_stdio_output@@AEBA?AW4state@2@DW432@@Z 0000000180063e40 f i libucrtd:output.obj
 0001:00062ed0       ?find_next_state@?$output_processor@DV?$string_output_adapter@D@__crt_stdio_output@@V?$format_validation_base@DV?$string_output_adapter@D@__crt_stdio_output@@@2@@__crt_stdio_output@@AEBA?AW4state@2@DW432@@Z 0000000180063ed0 f i libucrtd:output.obj
 0001:00062f60       ?find_next_state@?$output_processor@DV?$string_output_adapter@D@__crt_stdio_output@@V?$positional_parameter_base@DV?$string_output_adapter@D@__crt_stdio_output@@@2@@__crt_stdio_output@@AEBA?AW4state@2@DW432@@Z 0000000180063f60 f i libucrtd:output.obj
 0001:00062ff0       ?find_next_state@?$output_processor@DV?$string_output_adapter@D@__crt_stdio_output@@V?$standard_base@DV?$string_output_adapter@D@__crt_stdio_output@@@2@@__crt_stdio_output@@AEBA?AW4state@2@DW432@@Z 0000000180063ff0 f i libucrtd:output.obj
 0001:00063080       ?find_next_state@?$output_processor@_WV?$stream_output_adapter@_W@__crt_stdio_output@@V?$format_validation_base@_WV?$stream_output_adapter@_W@__crt_stdio_output@@@2@@__crt_stdio_output@@AEBA?AW4state@2@_WW432@@Z 0000000180064080 f i libucrtd:output.obj
 0001:00063110       ?find_next_state@?$output_processor@_WV?$stream_output_adapter@_W@__crt_stdio_output@@V?$positional_parameter_base@_WV?$stream_output_adapter@_W@__crt_stdio_output@@@2@@__crt_stdio_output@@AEBA?AW4state@2@_WW432@@Z 0000000180064110 f i libucrtd:output.obj
 0001:000631a0       ?find_next_state@?$output_processor@_WV?$stream_output_adapter@_W@__crt_stdio_output@@V?$standard_base@_WV?$stream_output_adapter@_W@__crt_stdio_output@@@2@@__crt_stdio_output@@AEBA?AW4state@2@_WW432@@Z 00000001800641a0 f i libucrtd:output.obj
 0001:00063230       ?find_next_state@?$output_processor@_WV?$string_output_adapter@_W@__crt_stdio_output@@V?$format_validation_base@_WV?$string_output_adapter@_W@__crt_stdio_output@@@2@@__crt_stdio_output@@AEBA?AW4state@2@_WW432@@Z 0000000180064230 f i libucrtd:output.obj
 0001:000632c0       ?find_next_state@?$output_processor@_WV?$string_output_adapter@_W@__crt_stdio_output@@V?$positional_parameter_base@_WV?$string_output_adapter@_W@__crt_stdio_output@@@2@@__crt_stdio_output@@AEBA?AW4state@2@_WW432@@Z 00000001800642c0 f i libucrtd:output.obj
 0001:00063350       ?find_next_state@?$output_processor@_WV?$string_output_adapter@_W@__crt_stdio_output@@V?$standard_base@_WV?$string_output_adapter@_W@__crt_stdio_output@@@2@@__crt_stdio_output@@AEBA?AW4state@2@_WW432@@Z 0000000180064350 f i libucrtd:output.obj
 0001:000633e0       ?force_decimal_point@__crt_stdio_output@@YAXPEADQEAU__crt_locale_pointers@@@Z 00000001800643e0 f i libucrtd:output.obj
 0001:000634e0       ?get@__crt_deferred_errno_cache@@QEAAAEAHXZ 00000001800644e0 f i libucrtd:output.obj
 0001:00063510       ?get_flags@__crt_stdio_stream@@QEBAJXZ 0000000180064510 f i libucrtd:output.obj
 0001:00063540       ?get_parameter_type@?$positional_parameter_base@DV?$stream_output_adapter@D@__crt_stdio_output@@@__crt_stdio_output@@CA?AW4parameter_type@12@F@Z 0000000180064540 f i libucrtd:output.obj
 0001:00063550       ?get_parameter_type@?$positional_parameter_base@DV?$stream_output_adapter@D@__crt_stdio_output@@@__crt_stdio_output@@CA?AW4parameter_type@12@G@Z 0000000180064550 f i libucrtd:output.obj
 0001:00063560       ?get_parameter_type@?$positional_parameter_base@DV?$stream_output_adapter@D@__crt_stdio_output@@@__crt_stdio_output@@CA?AW4parameter_type@12@H@Z 0000000180064560 f i libucrtd:output.obj
 0001:00063570       ?get_parameter_type@?$positional_parameter_base@DV?$stream_output_adapter@D@__crt_stdio_output@@@__crt_stdio_output@@CA?AW4parameter_type@12@I@Z 0000000180064570 f i libucrtd:output.obj
 0001:00063580       ?get_parameter_type@?$positional_parameter_base@DV?$stream_output_adapter@D@__crt_stdio_output@@@__crt_stdio_output@@CA?AW4parameter_type@12@U_CRT_DOUBLE@@@Z 0000000180064580 f i libucrtd:output.obj
 0001:00063590       ?get_parameter_type@?$positional_parameter_base@DV?$stream_output_adapter@D@__crt_stdio_output@@@__crt_stdio_output@@CA?AW4parameter_type@12@_J@Z 0000000180064590 f i libucrtd:output.obj
 0001:000635a0       ?get_parameter_type@?$positional_parameter_base@DV?$stream_output_adapter@D@__crt_stdio_output@@@__crt_stdio_output@@CA?AW4parameter_type@12@_K@Z 00000001800645a0 f i libucrtd:output.obj
 0001:000635b0       ?get_parameter_type@?$positional_parameter_base@DV?$stream_output_adapter@D@__crt_stdio_output@@@__crt_stdio_output@@CA?AW4parameter_type@12@_W@Z 00000001800645b0 f i libucrtd:output.obj
 0001:000635c0       ?get_parameter_type@?$positional_parameter_base@DV?$string_output_adapter@D@__crt_stdio_output@@@__crt_stdio_output@@CA?AW4parameter_type@12@F@Z 00000001800645c0 f i libucrtd:output.obj
 0001:000635d0       ?get_parameter_type@?$positional_parameter_base@DV?$string_output_adapter@D@__crt_stdio_output@@@__crt_stdio_output@@CA?AW4parameter_type@12@G@Z 00000001800645d0 f i libucrtd:output.obj
 0001:000635e0       ?get_parameter_type@?$positional_parameter_base@DV?$string_output_adapter@D@__crt_stdio_output@@@__crt_stdio_output@@CA?AW4parameter_type@12@H@Z 00000001800645e0 f i libucrtd:output.obj
 0001:000635f0       ?get_parameter_type@?$positional_parameter_base@DV?$string_output_adapter@D@__crt_stdio_output@@@__crt_stdio_output@@CA?AW4parameter_type@12@I@Z 00000001800645f0 f i libucrtd:output.obj
 0001:00063600       ?get_parameter_type@?$positional_parameter_base@DV?$string_output_adapter@D@__crt_stdio_output@@@__crt_stdio_output@@CA?AW4parameter_type@12@U_CRT_DOUBLE@@@Z 0000000180064600 f i libucrtd:output.obj
 0001:00063610       ?get_parameter_type@?$positional_parameter_base@DV?$string_output_adapter@D@__crt_stdio_output@@@__crt_stdio_output@@CA?AW4parameter_type@12@_J@Z 0000000180064610 f i libucrtd:output.obj
 0001:00063620       ?get_parameter_type@?$positional_parameter_base@DV?$string_output_adapter@D@__crt_stdio_output@@@__crt_stdio_output@@CA?AW4parameter_type@12@_K@Z 0000000180064620 f i libucrtd:output.obj
 0001:00063630       ?get_parameter_type@?$positional_parameter_base@DV?$string_output_adapter@D@__crt_stdio_output@@@__crt_stdio_output@@CA?AW4parameter_type@12@_W@Z 0000000180064630 f i libucrtd:output.obj
 0001:00063640       ?get_parameter_type@?$positional_parameter_base@_WV?$stream_output_adapter@_W@__crt_stdio_output@@@__crt_stdio_output@@CA?AW4parameter_type@12@F@Z 0000000180064640 f i libucrtd:output.obj
 0001:00063650       ?get_parameter_type@?$positional_parameter_base@_WV?$stream_output_adapter@_W@__crt_stdio_output@@@__crt_stdio_output@@CA?AW4parameter_type@12@G@Z 0000000180064650 f i libucrtd:output.obj
 0001:00063660       ?get_parameter_type@?$positional_parameter_base@_WV?$stream_output_adapter@_W@__crt_stdio_output@@@__crt_stdio_output@@CA?AW4parameter_type@12@H@Z 0000000180064660 f i libucrtd:output.obj
 0001:00063670       ?get_parameter_type@?$positional_parameter_base@_WV?$stream_output_adapter@_W@__crt_stdio_output@@@__crt_stdio_output@@CA?AW4parameter_type@12@I@Z 0000000180064670 f i libucrtd:output.obj
 0001:00063680       ?get_parameter_type@?$positional_parameter_base@_WV?$stream_output_adapter@_W@__crt_stdio_output@@@__crt_stdio_output@@CA?AW4parameter_type@12@U_CRT_DOUBLE@@@Z 0000000180064680 f i libucrtd:output.obj
 0001:00063690       ?get_parameter_type@?$positional_parameter_base@_WV?$stream_output_adapter@_W@__crt_stdio_output@@@__crt_stdio_output@@CA?AW4parameter_type@12@_J@Z 0000000180064690 f i libucrtd:output.obj
 0001:000636a0       ?get_parameter_type@?$positional_parameter_base@_WV?$stream_output_adapter@_W@__crt_stdio_output@@@__crt_stdio_output@@CA?AW4parameter_type@12@_K@Z 00000001800646a0 f i libucrtd:output.obj
 0001:000636b0       ?get_parameter_type@?$positional_parameter_base@_WV?$stream_output_adapter@_W@__crt_stdio_output@@@__crt_stdio_output@@CA?AW4parameter_type@12@_W@Z 00000001800646b0 f i libucrtd:output.obj
 0001:000636c0       ?get_parameter_type@?$positional_parameter_base@_WV?$string_output_adapter@_W@__crt_stdio_output@@@__crt_stdio_output@@CA?AW4parameter_type@12@F@Z 00000001800646c0 f i libucrtd:output.obj
 0001:000636d0       ?get_parameter_type@?$positional_parameter_base@_WV?$string_output_adapter@_W@__crt_stdio_output@@@__crt_stdio_output@@CA?AW4parameter_type@12@G@Z 00000001800646d0 f i libucrtd:output.obj
 0001:000636e0       ?get_parameter_type@?$positional_parameter_base@_WV?$string_output_adapter@_W@__crt_stdio_output@@@__crt_stdio_output@@CA?AW4parameter_type@12@H@Z 00000001800646e0 f i libucrtd:output.obj
 0001:000636f0       ?get_parameter_type@?$positional_parameter_base@_WV?$string_output_adapter@_W@__crt_stdio_output@@@__crt_stdio_output@@CA?AW4parameter_type@12@I@Z 00000001800646f0 f i libucrtd:output.obj
 0001:00063700       ?get_parameter_type@?$positional_parameter_base@_WV?$string_output_adapter@_W@__crt_stdio_output@@@__crt_stdio_output@@CA?AW4parameter_type@12@U_CRT_DOUBLE@@@Z 0000000180064700 f i libucrtd:output.obj
 0001:00063710       ?get_parameter_type@?$positional_parameter_base@_WV?$string_output_adapter@_W@__crt_stdio_output@@@__crt_stdio_output@@CA?AW4parameter_type@12@_J@Z 0000000180064710 f i libucrtd:output.obj
 0001:00063720       ?get_parameter_type@?$positional_parameter_base@_WV?$string_output_adapter@_W@__crt_stdio_output@@@__crt_stdio_output@@CA?AW4parameter_type@12@_K@Z 0000000180064720 f i libucrtd:output.obj
 0001:00063730       ?get_parameter_type@?$positional_parameter_base@_WV?$string_output_adapter@_W@__crt_stdio_output@@@__crt_stdio_output@@CA?AW4parameter_type@12@_W@Z 0000000180064730 f i libucrtd:output.obj
 0001:00063740       ?has_flag@?$output_processor@DV?$stream_output_adapter@D@__crt_stdio_output@@V?$format_validation_base@DV?$stream_output_adapter@D@__crt_stdio_output@@@2@@__crt_stdio_output@@AEBA_NI@Z 0000000180064740 f i libucrtd:output.obj
 0001:00063780       ?has_flag@?$output_processor@DV?$stream_output_adapter@D@__crt_stdio_output@@V?$positional_parameter_base@DV?$stream_output_adapter@D@__crt_stdio_output@@@2@@__crt_stdio_output@@AEBA_NI@Z 0000000180064780 f i libucrtd:output.obj
 0001:000637c0       ?has_flag@?$output_processor@DV?$stream_output_adapter@D@__crt_stdio_output@@V?$standard_base@DV?$stream_output_adapter@D@__crt_stdio_output@@@2@@__crt_stdio_output@@AEBA_NI@Z 00000001800647c0 f i libucrtd:output.obj
 0001:00063800       ?has_flag@?$output_processor@DV?$string_output_adapter@D@__crt_stdio_output@@V?$format_validation_base@DV?$string_output_adapter@D@__crt_stdio_output@@@2@@__crt_stdio_output@@AEBA_NI@Z 0000000180064800 f i libucrtd:output.obj
 0001:00063840       ?has_flag@?$output_processor@DV?$string_output_adapter@D@__crt_stdio_output@@V?$positional_parameter_base@DV?$string_output_adapter@D@__crt_stdio_output@@@2@@__crt_stdio_output@@AEBA_NI@Z 0000000180064840 f i libucrtd:output.obj
 0001:00063880       ?has_flag@?$output_processor@DV?$string_output_adapter@D@__crt_stdio_output@@V?$standard_base@DV?$string_output_adapter@D@__crt_stdio_output@@@2@@__crt_stdio_output@@AEBA_NI@Z 0000000180064880 f i libucrtd:output.obj
 0001:000638c0       ?has_flag@?$output_processor@_WV?$stream_output_adapter@_W@__crt_stdio_output@@V?$format_validation_base@_WV?$stream_output_adapter@_W@__crt_stdio_output@@@2@@__crt_stdio_output@@AEBA_NI@Z 00000001800648c0 f i libucrtd:output.obj
 0001:00063900       ?has_flag@?$output_processor@_WV?$stream_output_adapter@_W@__crt_stdio_output@@V?$positional_parameter_base@_WV?$stream_output_adapter@_W@__crt_stdio_output@@@2@@__crt_stdio_output@@AEBA_NI@Z 0000000180064900 f i libucrtd:output.obj
 0001:00063940       ?has_flag@?$output_processor@_WV?$stream_output_adapter@_W@__crt_stdio_output@@V?$standard_base@_WV?$stream_output_adapter@_W@__crt_stdio_output@@@2@@__crt_stdio_output@@AEBA_NI@Z 0000000180064940 f i libucrtd:output.obj
 0001:00063980       ?has_flag@?$output_processor@_WV?$string_output_adapter@_W@__crt_stdio_output@@V?$format_validation_base@_WV?$string_output_adapter@_W@__crt_stdio_output@@@2@@__crt_stdio_output@@AEBA_NI@Z 0000000180064980 f i libucrtd:output.obj
 0001:000639c0       ?has_flag@?$output_processor@_WV?$string_output_adapter@_W@__crt_stdio_output@@V?$positional_parameter_base@_WV?$string_output_adapter@_W@__crt_stdio_output@@@2@@__crt_stdio_output@@AEBA_NI@Z 00000001800649c0 f i libucrtd:output.obj
 0001:00063a00       ?has_flag@?$output_processor@_WV?$string_output_adapter@_W@__crt_stdio_output@@V?$standard_base@_WV?$string_output_adapter@_W@__crt_stdio_output@@@2@@__crt_stdio_output@@AEBA_NI@Z 0000000180064a00 f i libucrtd:output.obj
 0001:00063a40       ?is_positional_parameter_reappearance_consistent@?$positional_parameter_base@DV?$stream_output_adapter@D@__crt_stdio_output@@@__crt_stdio_output@@AEAA_NAEBUparameter_data@12@W4parameter_type@12@DW4length_modifier@2@@Z 0000000180064a40 f i libucrtd:output.obj
 0001:00063ca0       ?is_positional_parameter_reappearance_consistent@?$positional_parameter_base@DV?$string_output_adapter@D@__crt_stdio_output@@@__crt_stdio_output@@AEAA_NAEBUparameter_data@12@W4parameter_type@12@DW4length_modifier@2@@Z 0000000180064ca0 f i libucrtd:output.obj
 0001:00063f00       ?is_positional_parameter_reappearance_consistent@?$positional_parameter_base@_WV?$stream_output_adapter@_W@__crt_stdio_output@@@__crt_stdio_output@@AEAA_NAEBUparameter_data@12@W4parameter_type@12@_WW4length_modifier@2@@Z 0000000180064f00 f i libucrtd:output.obj
 0001:00064160       ?is_positional_parameter_reappearance_consistent@?$positional_parameter_base@_WV?$string_output_adapter@_W@__crt_stdio_output@@@__crt_stdio_output@@AEAA_NAEBUparameter_data@12@W4parameter_type@12@_WW4length_modifier@2@@Z 0000000180065160 f i libucrtd:output.obj
 0001:000643c0       ?is_string_backed@__crt_stdio_stream@@QEBA_NXZ 00000001800653c0 f i libucrtd:output.obj
 0001:00064400       ?narrow_null_string@?$output_processor@DV?$stream_output_adapter@D@__crt_stdio_output@@V?$format_validation_base@DV?$stream_output_adapter@D@__crt_stdio_output@@@2@@__crt_stdio_output@@CAPEADXZ 0000000180065400 f i libucrtd:output.obj
 0001:00064410       ?narrow_null_string@?$output_processor@DV?$stream_output_adapter@D@__crt_stdio_output@@V?$positional_parameter_base@DV?$stream_output_adapter@D@__crt_stdio_output@@@2@@__crt_stdio_output@@CAPEADXZ 0000000180065410 f i libucrtd:output.obj
 0001:00064420       ?narrow_null_string@?$output_processor@DV?$stream_output_adapter@D@__crt_stdio_output@@V?$standard_base@DV?$stream_output_adapter@D@__crt_stdio_output@@@2@@__crt_stdio_output@@CAPEADXZ 0000000180065420 f i libucrtd:output.obj
 0001:00064430       ?narrow_null_string@?$output_processor@DV?$string_output_adapter@D@__crt_stdio_output@@V?$format_validation_base@DV?$string_output_adapter@D@__crt_stdio_output@@@2@@__crt_stdio_output@@CAPEADXZ 0000000180065430 f i libucrtd:output.obj
 0001:00064440       ?narrow_null_string@?$output_processor@DV?$string_output_adapter@D@__crt_stdio_output@@V?$positional_parameter_base@DV?$string_output_adapter@D@__crt_stdio_output@@@2@@__crt_stdio_output@@CAPEADXZ 0000000180065440 f i libucrtd:output.obj
 0001:00064450       ?narrow_null_string@?$output_processor@DV?$string_output_adapter@D@__crt_stdio_output@@V?$standard_base@DV?$string_output_adapter@D@__crt_stdio_output@@@2@@__crt_stdio_output@@CAPEADXZ 0000000180065450 f i libucrtd:output.obj
 0001:00064460       ?narrow_null_string@?$output_processor@_WV?$stream_output_adapter@_W@__crt_stdio_output@@V?$format_validation_base@_WV?$stream_output_adapter@_W@__crt_stdio_output@@@2@@__crt_stdio_output@@CAPEADXZ 0000000180065460 f i libucrtd:output.obj
 0001:00064470       ?narrow_null_string@?$output_processor@_WV?$stream_output_adapter@_W@__crt_stdio_output@@V?$positional_parameter_base@_WV?$stream_output_adapter@_W@__crt_stdio_output@@@2@@__crt_stdio_output@@CAPEADXZ 0000000180065470 f i libucrtd:output.obj
 0001:00064480       ?narrow_null_string@?$output_processor@_WV?$stream_output_adapter@_W@__crt_stdio_output@@V?$standard_base@_WV?$stream_output_adapter@_W@__crt_stdio_output@@@2@@__crt_stdio_output@@CAPEADXZ 0000000180065480 f i libucrtd:output.obj
 0001:00064490       ?narrow_null_string@?$output_processor@_WV?$string_output_adapter@_W@__crt_stdio_output@@V?$format_validation_base@_WV?$string_output_adapter@_W@__crt_stdio_output@@@2@@__crt_stdio_output@@CAPEADXZ 0000000180065490 f i libucrtd:output.obj
 0001:000644a0       ?narrow_null_string@?$output_processor@_WV?$string_output_adapter@_W@__crt_stdio_output@@V?$positional_parameter_base@_WV?$string_output_adapter@_W@__crt_stdio_output@@@2@@__crt_stdio_output@@CAPEADXZ 00000001800654a0 f i libucrtd:output.obj
 0001:000644b0       ?narrow_null_string@?$output_processor@_WV?$string_output_adapter@_W@__crt_stdio_output@@V?$standard_base@_WV?$string_output_adapter@_W@__crt_stdio_output@@@2@@__crt_stdio_output@@CAPEADXZ 00000001800654b0 f i libucrtd:output.obj
 0001:000644c0       ?parse_int_from_format_string@?$output_processor@DV?$stream_output_adapter@D@__crt_stdio_output@@V?$format_validation_base@DV?$stream_output_adapter@D@__crt_stdio_output@@@2@@__crt_stdio_output@@AEAA_NQEAH@Z 00000001800654c0 f i libucrtd:output.obj
 0001:000645b0       ?parse_int_from_format_string@?$output_processor@DV?$stream_output_adapter@D@__crt_stdio_output@@V?$positional_parameter_base@DV?$stream_output_adapter@D@__crt_stdio_output@@@2@@__crt_stdio_output@@AEAA_NQEAH@Z 00000001800655b0 f i libucrtd:output.obj
 0001:000646a0       ?parse_int_from_format_string@?$output_processor@DV?$stream_output_adapter@D@__crt_stdio_output@@V?$standard_base@DV?$stream_output_adapter@D@__crt_stdio_output@@@2@@__crt_stdio_output@@AEAA_NQEAH@Z 00000001800656a0 f i libucrtd:output.obj
 0001:00064790       ?parse_int_from_format_string@?$output_processor@DV?$string_output_adapter@D@__crt_stdio_output@@V?$format_validation_base@DV?$string_output_adapter@D@__crt_stdio_output@@@2@@__crt_stdio_output@@AEAA_NQEAH@Z 0000000180065790 f i libucrtd:output.obj
 0001:00064880       ?parse_int_from_format_string@?$output_processor@DV?$string_output_adapter@D@__crt_stdio_output@@V?$positional_parameter_base@DV?$string_output_adapter@D@__crt_stdio_output@@@2@@__crt_stdio_output@@AEAA_NQEAH@Z 0000000180065880 f i libucrtd:output.obj
 0001:00064970       ?parse_int_from_format_string@?$output_processor@DV?$string_output_adapter@D@__crt_stdio_output@@V?$standard_base@DV?$string_output_adapter@D@__crt_stdio_output@@@2@@__crt_stdio_output@@AEAA_NQEAH@Z 0000000180065970 f i libucrtd:output.obj
 0001:00064a60       ?parse_int_from_format_string@?$output_processor@_WV?$stream_output_adapter@_W@__crt_stdio_output@@V?$format_validation_base@_WV?$stream_output_adapter@_W@__crt_stdio_output@@@2@@__crt_stdio_output@@AEAA_NQEAH@Z 0000000180065a60 f i libucrtd:output.obj
 0001:00064b50       ?parse_int_from_format_string@?$output_processor@_WV?$stream_output_adapter@_W@__crt_stdio_output@@V?$positional_parameter_base@_WV?$stream_output_adapter@_W@__crt_stdio_output@@@2@@__crt_stdio_output@@AEAA_NQEAH@Z 0000000180065b50 f i libucrtd:output.obj
 0001:00064c40       ?parse_int_from_format_string@?$output_processor@_WV?$stream_output_adapter@_W@__crt_stdio_output@@V?$standard_base@_WV?$stream_output_adapter@_W@__crt_stdio_output@@@2@@__crt_stdio_output@@AEAA_NQEAH@Z 0000000180065c40 f i libucrtd:output.obj
 0001:00064d30       ?parse_int_from_format_string@?$output_processor@_WV?$string_output_adapter@_W@__crt_stdio_output@@V?$format_validation_base@_WV?$string_output_adapter@_W@__crt_stdio_output@@@2@@__crt_stdio_output@@AEAA_NQEAH@Z 0000000180065d30 f i libucrtd:output.obj
 0001:00064e20       ?parse_int_from_format_string@?$output_processor@_WV?$string_output_adapter@_W@__crt_stdio_output@@V?$positional_parameter_base@_WV?$string_output_adapter@_W@__crt_stdio_output@@@2@@__crt_stdio_output@@AEAA_NQEAH@Z 0000000180065e20 f i libucrtd:output.obj
 0001:00064f10       ?parse_int_from_format_string@?$output_processor@_WV?$string_output_adapter@_W@__crt_stdio_output@@V?$standard_base@_WV?$string_output_adapter@_W@__crt_stdio_output@@@2@@__crt_stdio_output@@AEAA_NQEAH@Z 0000000180065f10 f i libucrtd:output.obj
 0001:00065000       ?process@?$output_processor@DV?$stream_output_adapter@D@__crt_stdio_output@@V?$format_validation_base@DV?$stream_output_adapter@D@__crt_stdio_output@@@2@@__crt_stdio_output@@QEAAHXZ 0000000180066000 f i libucrtd:output.obj
 0001:00065360       ?process@?$output_processor@DV?$stream_output_adapter@D@__crt_stdio_output@@V?$positional_parameter_base@DV?$stream_output_adapter@D@__crt_stdio_output@@@2@@__crt_stdio_output@@QEAAHXZ 0000000180066360 f i libucrtd:output.obj
 0001:000656c0       ?process@?$output_processor@DV?$stream_output_adapter@D@__crt_stdio_output@@V?$standard_base@DV?$stream_output_adapter@D@__crt_stdio_output@@@2@@__crt_stdio_output@@QEAAHXZ 00000001800666c0 f i libucrtd:output.obj
 0001:00065a20       ?process@?$output_processor@DV?$string_output_adapter@D@__crt_stdio_output@@V?$format_validation_base@DV?$string_output_adapter@D@__crt_stdio_output@@@2@@__crt_stdio_output@@QEAAHXZ 0000000180066a20 f i libucrtd:output.obj
 0001:00065d80       ?process@?$output_processor@DV?$string_output_adapter@D@__crt_stdio_output@@V?$positional_parameter_base@DV?$string_output_adapter@D@__crt_stdio_output@@@2@@__crt_stdio_output@@QEAAHXZ 0000000180066d80 f i libucrtd:output.obj
 0001:000660e0       ?process@?$output_processor@DV?$string_output_adapter@D@__crt_stdio_output@@V?$standard_base@DV?$string_output_adapter@D@__crt_stdio_output@@@2@@__crt_stdio_output@@QEAAHXZ 00000001800670e0 f i libucrtd:output.obj
 0001:00066440       ?process@?$output_processor@_WV?$stream_output_adapter@_W@__crt_stdio_output@@V?$format_validation_base@_WV?$stream_output_adapter@_W@__crt_stdio_output@@@2@@__crt_stdio_output@@QEAAHXZ 0000000180067440 f i libucrtd:output.obj
 0001:000667a0       ?process@?$output_processor@_WV?$stream_output_adapter@_W@__crt_stdio_output@@V?$positional_parameter_base@_WV?$stream_output_adapter@_W@__crt_stdio_output@@@2@@__crt_stdio_output@@QEAAHXZ 00000001800677a0 f i libucrtd:output.obj
 0001:00066b00       ?process@?$output_processor@_WV?$stream_output_adapter@_W@__crt_stdio_output@@V?$standard_base@_WV?$stream_output_adapter@_W@__crt_stdio_output@@@2@@__crt_stdio_output@@QEAAHXZ 0000000180067b00 f i libucrtd:output.obj
 0001:00066e60       ?process@?$output_processor@_WV?$string_output_adapter@_W@__crt_stdio_output@@V?$format_validation_base@_WV?$string_output_adapter@_W@__crt_stdio_output@@@2@@__crt_stdio_output@@QEAAHXZ 0000000180067e60 f i libucrtd:output.obj
 0001:000671c0       ?process@?$output_processor@_WV?$string_output_adapter@_W@__crt_stdio_output@@V?$positional_parameter_base@_WV?$string_output_adapter@_W@__crt_stdio_output@@@2@@__crt_stdio_output@@QEAAHXZ 00000001800681c0 f i libucrtd:output.obj
 0001:00067520       ?process@?$output_processor@_WV?$string_output_adapter@_W@__crt_stdio_output@@V?$standard_base@_WV?$string_output_adapter@_W@__crt_stdio_output@@@2@@__crt_stdio_output@@QEAAHXZ 0000000180068520 f i libucrtd:output.obj
 0001:00067880       ?public_stream@__crt_stdio_stream@@QEBAPEAU_iobuf@@XZ 0000000180068880 f i libucrtd:output.obj
 0001:00067890       ?set_flag@?$output_processor@DV?$stream_output_adapter@D@__crt_stdio_output@@V?$format_validation_base@DV?$stream_output_adapter@D@__crt_stdio_output@@@2@@__crt_stdio_output@@AEAAXI@Z 0000000180068890 f i libucrtd:output.obj
 0001:000678b0       ?set_flag@?$output_processor@DV?$stream_output_adapter@D@__crt_stdio_output@@V?$positional_parameter_base@DV?$stream_output_adapter@D@__crt_stdio_output@@@2@@__crt_stdio_output@@AEAAXI@Z 00000001800688b0 f i libucrtd:output.obj
 0001:000678d0       ?set_flag@?$output_processor@DV?$stream_output_adapter@D@__crt_stdio_output@@V?$standard_base@DV?$stream_output_adapter@D@__crt_stdio_output@@@2@@__crt_stdio_output@@AEAAXI@Z 00000001800688d0 f i libucrtd:output.obj
 0001:000678f0       ?set_flag@?$output_processor@DV?$string_output_adapter@D@__crt_stdio_output@@V?$format_validation_base@DV?$string_output_adapter@D@__crt_stdio_output@@@2@@__crt_stdio_output@@AEAAXI@Z 00000001800688f0 f i libucrtd:output.obj
 0001:00067910       ?set_flag@?$output_processor@DV?$string_output_adapter@D@__crt_stdio_output@@V?$positional_parameter_base@DV?$string_output_adapter@D@__crt_stdio_output@@@2@@__crt_stdio_output@@AEAAXI@Z 0000000180068910 f i libucrtd:output.obj
 0001:00067930       ?set_flag@?$output_processor@DV?$string_output_adapter@D@__crt_stdio_output@@V?$standard_base@DV?$string_output_adapter@D@__crt_stdio_output@@@2@@__crt_stdio_output@@AEAAXI@Z 0000000180068930 f i libucrtd:output.obj
 0001:00067950       ?set_flag@?$output_processor@_WV?$stream_output_adapter@_W@__crt_stdio_output@@V?$format_validation_base@_WV?$stream_output_adapter@_W@__crt_stdio_output@@@2@@__crt_stdio_output@@AEAAXI@Z 0000000180068950 f i libucrtd:output.obj
 0001:00067970       ?set_flag@?$output_processor@_WV?$stream_output_adapter@_W@__crt_stdio_output@@V?$positional_parameter_base@_WV?$stream_output_adapter@_W@__crt_stdio_output@@@2@@__crt_stdio_output@@AEAAXI@Z 0000000180068970 f i libucrtd:output.obj
 0001:00067990       ?set_flag@?$output_processor@_WV?$stream_output_adapter@_W@__crt_stdio_output@@V?$standard_base@_WV?$stream_output_adapter@_W@__crt_stdio_output@@@2@@__crt_stdio_output@@AEAAXI@Z 0000000180068990 f i libucrtd:output.obj
 0001:000679b0       ?set_flag@?$output_processor@_WV?$string_output_adapter@_W@__crt_stdio_output@@V?$format_validation_base@_WV?$string_output_adapter@_W@__crt_stdio_output@@@2@@__crt_stdio_output@@AEAAXI@Z 00000001800689b0 f i libucrtd:output.obj
 0001:000679d0       ?set_flag@?$output_processor@_WV?$string_output_adapter@_W@__crt_stdio_output@@V?$positional_parameter_base@_WV?$string_output_adapter@_W@__crt_stdio_output@@@2@@__crt_stdio_output@@AEAAXI@Z 00000001800689d0 f i libucrtd:output.obj
 0001:000679f0       ?set_flag@?$output_processor@_WV?$string_output_adapter@_W@__crt_stdio_output@@V?$standard_base@_WV?$string_output_adapter@_W@__crt_stdio_output@@@2@@__crt_stdio_output@@AEAAXI@Z 00000001800689f0 f i libucrtd:output.obj
 0001:00067a10       ?should_format@?$positional_parameter_base@DV?$stream_output_adapter@D@__crt_stdio_output@@@__crt_stdio_output@@IEAA_NXZ 0000000180068a10 f i libucrtd:output.obj
 0001:00067a50       ?should_format@?$positional_parameter_base@DV?$string_output_adapter@D@__crt_stdio_output@@@__crt_stdio_output@@IEAA_NXZ 0000000180068a50 f i libucrtd:output.obj
 0001:00067a90       ?should_format@?$positional_parameter_base@_WV?$stream_output_adapter@_W@__crt_stdio_output@@@__crt_stdio_output@@IEAA_NXZ 0000000180068a90 f i libucrtd:output.obj
 0001:00067ad0       ?should_format@?$positional_parameter_base@_WV?$string_output_adapter@_W@__crt_stdio_output@@@__crt_stdio_output@@IEAA_NXZ 0000000180068ad0 f i libucrtd:output.obj
 0001:00067b10       ?should_format@?$standard_base@DV?$stream_output_adapter@D@__crt_stdio_output@@@__crt_stdio_output@@IEAA_NXZ 0000000180068b10 f i libucrtd:output.obj
 0001:00067b20       ?should_format@?$standard_base@DV?$string_output_adapter@D@__crt_stdio_output@@@__crt_stdio_output@@IEAA_NXZ 0000000180068b20 f i libucrtd:output.obj
 0001:00067b30       ?should_format@?$standard_base@_WV?$stream_output_adapter@_W@__crt_stdio_output@@@__crt_stdio_output@@IEAA_NXZ 0000000180068b30 f i libucrtd:output.obj
 0001:00067b40       ?should_format@?$standard_base@_WV?$string_output_adapter@_W@__crt_stdio_output@@@__crt_stdio_output@@IEAA_NXZ 0000000180068b40 f i libucrtd:output.obj
 0001:00067b50       ?should_skip_normal_state_processing@?$positional_parameter_base@DV?$stream_output_adapter@D@__crt_stdio_output@@@__crt_stdio_output@@IEAA_NXZ 0000000180068b50 f i libucrtd:output.obj
 0001:00067ba0       ?should_skip_normal_state_processing@?$positional_parameter_base@DV?$string_output_adapter@D@__crt_stdio_output@@@__crt_stdio_output@@IEAA_NXZ 0000000180068ba0 f i libucrtd:output.obj
 0001:00067bf0       ?should_skip_normal_state_processing@?$positional_parameter_base@_WV?$stream_output_adapter@_W@__crt_stdio_output@@@__crt_stdio_output@@IEAA_NXZ 0000000180068bf0 f i libucrtd:output.obj
 0001:00067c40       ?should_skip_normal_state_processing@?$positional_parameter_base@_WV?$string_output_adapter@_W@__crt_stdio_output@@@__crt_stdio_output@@IEAA_NXZ 0000000180068c40 f i libucrtd:output.obj
 0001:00067c90       ?should_skip_normal_state_processing@?$standard_base@DV?$stream_output_adapter@D@__crt_stdio_output@@@__crt_stdio_output@@IEAA_NXZ 0000000180068c90 f i libucrtd:output.obj
 0001:00067ca0       ?should_skip_normal_state_processing@?$standard_base@DV?$string_output_adapter@D@__crt_stdio_output@@@__crt_stdio_output@@IEAA_NXZ 0000000180068ca0 f i libucrtd:output.obj
 0001:00067cb0       ?should_skip_normal_state_processing@?$standard_base@_WV?$stream_output_adapter@_W@__crt_stdio_output@@@__crt_stdio_output@@IEAA_NXZ 0000000180068cb0 f i libucrtd:output.obj
 0001:00067cc0       ?should_skip_normal_state_processing@?$standard_base@_WV?$string_output_adapter@_W@__crt_stdio_output@@@__crt_stdio_output@@IEAA_NXZ 0000000180068cc0 f i libucrtd:output.obj
 0001:00067cd0       ?should_skip_type_state_output@?$positional_parameter_base@DV?$stream_output_adapter@D@__crt_stdio_output@@@__crt_stdio_output@@IEBA_NXZ 0000000180068cd0 f i libucrtd:output.obj
 0001:00067d10       ?should_skip_type_state_output@?$positional_parameter_base@DV?$string_output_adapter@D@__crt_stdio_output@@@__crt_stdio_output@@IEBA_NXZ 0000000180068d10 f i libucrtd:output.obj
 0001:00067d50       ?should_skip_type_state_output@?$positional_parameter_base@_WV?$stream_output_adapter@_W@__crt_stdio_output@@@__crt_stdio_output@@IEBA_NXZ 0000000180068d50 f i libucrtd:output.obj
 0001:00067d90       ?should_skip_type_state_output@?$positional_parameter_base@_WV?$string_output_adapter@_W@__crt_stdio_output@@@__crt_stdio_output@@IEBA_NXZ 0000000180068d90 f i libucrtd:output.obj
 0001:00067dd0       ?should_skip_type_state_output@?$standard_base@DV?$stream_output_adapter@D@__crt_stdio_output@@@__crt_stdio_output@@IEBA_NXZ 0000000180068dd0 f i libucrtd:output.obj
 0001:00067de0       ?should_skip_type_state_output@?$standard_base@DV?$string_output_adapter@D@__crt_stdio_output@@@__crt_stdio_output@@IEBA_NXZ 0000000180068de0 f i libucrtd:output.obj
 0001:00067df0       ?should_skip_type_state_output@?$standard_base@_WV?$stream_output_adapter@_W@__crt_stdio_output@@@__crt_stdio_output@@IEBA_NXZ 0000000180068df0 f i libucrtd:output.obj
 0001:00067e00       ?should_skip_type_state_output@?$standard_base@_WV?$string_output_adapter@_W@__crt_stdio_output@@@__crt_stdio_output@@IEBA_NXZ 0000000180068e00 f i libucrtd:output.obj
 0001:00067e10       ?state_case_dot@?$output_processor@DV?$stream_output_adapter@D@__crt_stdio_output@@V?$format_validation_base@DV?$stream_output_adapter@D@__crt_stdio_output@@@2@@__crt_stdio_output@@AEAA_NXZ 0000000180068e10 f i libucrtd:output.obj
 0001:00067e30       ?state_case_dot@?$output_processor@DV?$stream_output_adapter@D@__crt_stdio_output@@V?$positional_parameter_base@DV?$stream_output_adapter@D@__crt_stdio_output@@@2@@__crt_stdio_output@@AEAA_NXZ 0000000180068e30 f i libucrtd:output.obj
 0001:00067e50       ?state_case_dot@?$output_processor@DV?$stream_output_adapter@D@__crt_stdio_output@@V?$standard_base@DV?$stream_output_adapter@D@__crt_stdio_output@@@2@@__crt_stdio_output@@AEAA_NXZ 0000000180068e50 f i libucrtd:output.obj
 0001:00067e70       ?state_case_dot@?$output_processor@DV?$string_output_adapter@D@__crt_stdio_output@@V?$format_validation_base@DV?$string_output_adapter@D@__crt_stdio_output@@@2@@__crt_stdio_output@@AEAA_NXZ 0000000180068e70 f i libucrtd:output.obj
 0001:00067e90       ?state_case_dot@?$output_processor@DV?$string_output_adapter@D@__crt_stdio_output@@V?$positional_parameter_base@DV?$string_output_adapter@D@__crt_stdio_output@@@2@@__crt_stdio_output@@AEAA_NXZ 0000000180068e90 f i libucrtd:output.obj
 0001:00067eb0       ?state_case_dot@?$output_processor@DV?$string_output_adapter@D@__crt_stdio_output@@V?$standard_base@DV?$string_output_adapter@D@__crt_stdio_output@@@2@@__crt_stdio_output@@AEAA_NXZ 0000000180068eb0 f i libucrtd:output.obj
 0001:00067ed0       ?state_case_dot@?$output_processor@_WV?$stream_output_adapter@_W@__crt_stdio_output@@V?$format_validation_base@_WV?$stream_output_adapter@_W@__crt_stdio_output@@@2@@__crt_stdio_output@@AEAA_NXZ 0000000180068ed0 f i libucrtd:output.obj
 0001:00067ef0       ?state_case_dot@?$output_processor@_WV?$stream_output_adapter@_W@__crt_stdio_output@@V?$positional_parameter_base@_WV?$stream_output_adapter@_W@__crt_stdio_output@@@2@@__crt_stdio_output@@AEAA_NXZ 0000000180068ef0 f i libucrtd:output.obj
 0001:00067f10       ?state_case_dot@?$output_processor@_WV?$stream_output_adapter@_W@__crt_stdio_output@@V?$standard_base@_WV?$stream_output_adapter@_W@__crt_stdio_output@@@2@@__crt_stdio_output@@AEAA_NXZ 0000000180068f10 f i libucrtd:output.obj
 0001:00067f30       ?state_case_dot@?$output_processor@_WV?$string_output_adapter@_W@__crt_stdio_output@@V?$format_validation_base@_WV?$string_output_adapter@_W@__crt_stdio_output@@@2@@__crt_stdio_output@@AEAA_NXZ 0000000180068f30 f i libucrtd:output.obj
 0001:00067f50       ?state_case_dot@?$output_processor@_WV?$string_output_adapter@_W@__crt_stdio_output@@V?$positional_parameter_base@_WV?$string_output_adapter@_W@__crt_stdio_output@@@2@@__crt_stdio_output@@AEAA_NXZ 0000000180068f50 f i libucrtd:output.obj
 0001:00067f70       ?state_case_dot@?$output_processor@_WV?$string_output_adapter@_W@__crt_stdio_output@@V?$standard_base@_WV?$string_output_adapter@_W@__crt_stdio_output@@@2@@__crt_stdio_output@@AEAA_NXZ 0000000180068f70 f i libucrtd:output.obj
 0001:00067f90       ?state_case_flag@?$output_processor@DV?$stream_output_adapter@D@__crt_stdio_output@@V?$format_validation_base@DV?$stream_output_adapter@D@__crt_stdio_output@@@2@@__crt_stdio_output@@AEAA_NXZ 0000000180068f90 f i libucrtd:output.obj
 0001:00068030       ?state_case_flag@?$output_processor@DV?$stream_output_adapter@D@__crt_stdio_output@@V?$positional_parameter_base@DV?$stream_output_adapter@D@__crt_stdio_output@@@2@@__crt_stdio_output@@AEAA_NXZ 0000000180069030 f i libucrtd:output.obj
 0001:000680d0       ?state_case_flag@?$output_processor@DV?$stream_output_adapter@D@__crt_stdio_output@@V?$standard_base@DV?$stream_output_adapter@D@__crt_stdio_output@@@2@@__crt_stdio_output@@AEAA_NXZ 00000001800690d0 f i libucrtd:output.obj
 0001:00068170       ?state_case_flag@?$output_processor@DV?$string_output_adapter@D@__crt_stdio_output@@V?$format_validation_base@DV?$string_output_adapter@D@__crt_stdio_output@@@2@@__crt_stdio_output@@AEAA_NXZ 0000000180069170 f i libucrtd:output.obj
 0001:00068210       ?state_case_flag@?$output_processor@DV?$string_output_adapter@D@__crt_stdio_output@@V?$positional_parameter_base@DV?$string_output_adapter@D@__crt_stdio_output@@@2@@__crt_stdio_output@@AEAA_NXZ 0000000180069210 f i libucrtd:output.obj
 0001:000682b0       ?state_case_flag@?$output_processor@DV?$string_output_adapter@D@__crt_stdio_output@@V?$standard_base@DV?$string_output_adapter@D@__crt_stdio_output@@@2@@__crt_stdio_output@@AEAA_NXZ 00000001800692b0 f i libucrtd:output.obj
 0001:00068350       ?state_case_flag@?$output_processor@_WV?$stream_output_adapter@_W@__crt_stdio_output@@V?$format_validation_base@_WV?$stream_output_adapter@_W@__crt_stdio_output@@@2@@__crt_stdio_output@@AEAA_NXZ 0000000180069350 f i libucrtd:output.obj
 0001:000683f0       ?state_case_flag@?$output_processor@_WV?$stream_output_adapter@_W@__crt_stdio_output@@V?$positional_parameter_base@_WV?$stream_output_adapter@_W@__crt_stdio_output@@@2@@__crt_stdio_output@@AEAA_NXZ 00000001800693f0 f i libucrtd:output.obj
 0001:00068490       ?state_case_flag@?$output_processor@_WV?$stream_output_adapter@_W@__crt_stdio_output@@V?$standard_base@_WV?$stream_output_adapter@_W@__crt_stdio_output@@@2@@__crt_stdio_output@@AEAA_NXZ 0000000180069490 f i libucrtd:output.obj
 0001:00068530       ?state_case_flag@?$output_processor@_WV?$string_output_adapter@_W@__crt_stdio_output@@V?$format_validation_base@_WV?$string_output_adapter@_W@__crt_stdio_output@@@2@@__crt_stdio_output@@AEAA_NXZ 0000000180069530 f i libucrtd:output.obj
 0001:000685d0       ?state_case_flag@?$output_processor@_WV?$string_output_adapter@_W@__crt_stdio_output@@V?$positional_parameter_base@_WV?$string_output_adapter@_W@__crt_stdio_output@@@2@@__crt_stdio_output@@AEAA_NXZ 00000001800695d0 f i libucrtd:output.obj
 0001:00068670       ?state_case_flag@?$output_processor@_WV?$string_output_adapter@_W@__crt_stdio_output@@V?$standard_base@_WV?$string_output_adapter@_W@__crt_stdio_output@@@2@@__crt_stdio_output@@AEAA_NXZ 0000000180069670 f i libucrtd:output.obj
 0001:00068710       ?state_case_normal@?$output_processor@DV?$stream_output_adapter@D@__crt_stdio_output@@V?$format_validation_base@DV?$stream_output_adapter@D@__crt_stdio_output@@@2@@__crt_stdio_output@@AEAA_NXZ 0000000180069710 f i libucrtd:output.obj
 0001:000687f0       ?state_case_normal@?$output_processor@DV?$stream_output_adapter@D@__crt_stdio_output@@V?$positional_parameter_base@DV?$stream_output_adapter@D@__crt_stdio_output@@@2@@__crt_stdio_output@@AEAA_NXZ 00000001800697f0 f i libucrtd:output.obj
 0001:000688d0       ?state_case_normal@?$output_processor@DV?$stream_output_adapter@D@__crt_stdio_output@@V?$standard_base@DV?$stream_output_adapter@D@__crt_stdio_output@@@2@@__crt_stdio_output@@AEAA_NXZ 00000001800698d0 f i libucrtd:output.obj
 0001:000689b0       ?state_case_normal@?$output_processor@DV?$string_output_adapter@D@__crt_stdio_output@@V?$format_validation_base@DV?$string_output_adapter@D@__crt_stdio_output@@@2@@__crt_stdio_output@@AEAA_NXZ 00000001800699b0 f i libucrtd:output.obj
 0001:00068a90       ?state_case_normal@?$output_processor@DV?$string_output_adapter@D@__crt_stdio_output@@V?$positional_parameter_base@DV?$string_output_adapter@D@__crt_stdio_output@@@2@@__crt_stdio_output@@AEAA_NXZ 0000000180069a90 f i libucrtd:output.obj
 0001:00068b70       ?state_case_normal@?$output_processor@DV?$string_output_adapter@D@__crt_stdio_output@@V?$standard_base@DV?$string_output_adapter@D@__crt_stdio_output@@@2@@__crt_stdio_output@@AEAA_NXZ 0000000180069b70 f i libucrtd:output.obj
 0001:00068c50       ?state_case_normal@?$output_processor@_WV?$stream_output_adapter@_W@__crt_stdio_output@@V?$format_validation_base@_WV?$stream_output_adapter@_W@__crt_stdio_output@@@2@@__crt_stdio_output@@AEAA_NXZ 0000000180069c50 f i libucrtd:output.obj
 0001:00068d30       ?state_case_normal@?$output_processor@_WV?$stream_output_adapter@_W@__crt_stdio_output@@V?$positional_parameter_base@_WV?$stream_output_adapter@_W@__crt_stdio_output@@@2@@__crt_stdio_output@@AEAA_NXZ 0000000180069d30 f i libucrtd:output.obj
 0001:00068e10       ?state_case_normal@?$output_processor@_WV?$stream_output_adapter@_W@__crt_stdio_output@@V?$standard_base@_WV?$stream_output_adapter@_W@__crt_stdio_output@@@2@@__crt_stdio_output@@AEAA_NXZ 0000000180069e10 f i libucrtd:output.obj
 0001:00068ef0       ?state_case_normal@?$output_processor@_WV?$string_output_adapter@_W@__crt_stdio_output@@V?$format_validation_base@_WV?$string_output_adapter@_W@__crt_stdio_output@@@2@@__crt_stdio_output@@AEAA_NXZ 0000000180069ef0 f i libucrtd:output.obj
 0001:00068fd0       ?state_case_normal@?$output_processor@_WV?$string_output_adapter@_W@__crt_stdio_output@@V?$positional_parameter_base@_WV?$string_output_adapter@_W@__crt_stdio_output@@@2@@__crt_stdio_output@@AEAA_NXZ 0000000180069fd0 f i libucrtd:output.obj
 0001:000690b0       ?state_case_normal@?$output_processor@_WV?$string_output_adapter@_W@__crt_stdio_output@@V?$standard_base@_WV?$string_output_adapter@_W@__crt_stdio_output@@@2@@__crt_stdio_output@@AEAA_NXZ 000000018006a0b0 f i libucrtd:output.obj
 0001:00069190       ?state_case_normal_common@?$output_processor@DV?$stream_output_adapter@D@__crt_stdio_output@@V?$format_validation_base@DV?$stream_output_adapter@D@__crt_stdio_output@@@2@@__crt_stdio_output@@AEAA_NXZ 000000018006a190 f i libucrtd:output.obj
 0001:000691e0       ?state_case_normal_common@?$output_processor@DV?$stream_output_adapter@D@__crt_stdio_output@@V?$positional_parameter_base@DV?$stream_output_adapter@D@__crt_stdio_output@@@2@@__crt_stdio_output@@AEAA_NXZ 000000018006a1e0 f i libucrtd:output.obj
 0001:00069230       ?state_case_normal_common@?$output_processor@DV?$stream_output_adapter@D@__crt_stdio_output@@V?$standard_base@DV?$stream_output_adapter@D@__crt_stdio_output@@@2@@__crt_stdio_output@@AEAA_NXZ 000000018006a230 f i libucrtd:output.obj
 0001:00069280       ?state_case_normal_common@?$output_processor@DV?$string_output_adapter@D@__crt_stdio_output@@V?$format_validation_base@DV?$string_output_adapter@D@__crt_stdio_output@@@2@@__crt_stdio_output@@AEAA_NXZ 000000018006a280 f i libucrtd:output.obj
 0001:000692d0       ?state_case_normal_common@?$output_processor@DV?$string_output_adapter@D@__crt_stdio_output@@V?$positional_parameter_base@DV?$string_output_adapter@D@__crt_stdio_output@@@2@@__crt_stdio_output@@AEAA_NXZ 000000018006a2d0 f i libucrtd:output.obj
 0001:00069320       ?state_case_normal_common@?$output_processor@DV?$string_output_adapter@D@__crt_stdio_output@@V?$standard_base@DV?$string_output_adapter@D@__crt_stdio_output@@@2@@__crt_stdio_output@@AEAA_NXZ 000000018006a320 f i libucrtd:output.obj
 0001:00069370       ?state_case_normal_common@?$output_processor@_WV?$stream_output_adapter@_W@__crt_stdio_output@@V?$format_validation_base@_WV?$stream_output_adapter@_W@__crt_stdio_output@@@2@@__crt_stdio_output@@AEAA_NXZ 000000018006a370 f i libucrtd:output.obj
 0001:000693c0       ?state_case_normal_common@?$output_processor@_WV?$stream_output_adapter@_W@__crt_stdio_output@@V?$positional_parameter_base@_WV?$stream_output_adapter@_W@__crt_stdio_output@@@2@@__crt_stdio_output@@AEAA_NXZ 000000018006a3c0 f i libucrtd:output.obj
 0001:00069410       ?state_case_normal_common@?$output_processor@_WV?$stream_output_adapter@_W@__crt_stdio_output@@V?$standard_base@_WV?$stream_output_adapter@_W@__crt_stdio_output@@@2@@__crt_stdio_output@@AEAA_NXZ 000000018006a410 f i libucrtd:output.obj
 0001:00069460       ?state_case_normal_common@?$output_processor@_WV?$string_output_adapter@_W@__crt_stdio_output@@V?$format_validation_base@_WV?$string_output_adapter@_W@__crt_stdio_output@@@2@@__crt_stdio_output@@AEAA_NXZ 000000018006a460 f i libucrtd:output.obj
 0001:000694b0       ?state_case_normal_common@?$output_processor@_WV?$string_output_adapter@_W@__crt_stdio_output@@V?$positional_parameter_base@_WV?$string_output_adapter@_W@__crt_stdio_output@@@2@@__crt_stdio_output@@AEAA_NXZ 000000018006a4b0 f i libucrtd:output.obj
 0001:00069500       ?state_case_normal_common@?$output_processor@_WV?$string_output_adapter@_W@__crt_stdio_output@@V?$standard_base@_WV?$string_output_adapter@_W@__crt_stdio_output@@@2@@__crt_stdio_output@@AEAA_NXZ 000000018006a500 f i libucrtd:output.obj
 0001:00069550       ?state_case_normal_tchar@?$output_processor@DV?$stream_output_adapter@D@__crt_stdio_output@@V?$format_validation_base@DV?$stream_output_adapter@D@__crt_stdio_output@@@2@@__crt_stdio_output@@AEAA_ND@Z 000000018006a550 f i libucrtd:output.obj
 0001:00069690       ?state_case_normal_tchar@?$output_processor@DV?$stream_output_adapter@D@__crt_stdio_output@@V?$positional_parameter_base@DV?$stream_output_adapter@D@__crt_stdio_output@@@2@@__crt_stdio_output@@AEAA_ND@Z 000000018006a690 f i libucrtd:output.obj
 0001:000697d0       ?state_case_normal_tchar@?$output_processor@DV?$stream_output_adapter@D@__crt_stdio_output@@V?$standard_base@DV?$stream_output_adapter@D@__crt_stdio_output@@@2@@__crt_stdio_output@@AEAA_ND@Z 000000018006a7d0 f i libucrtd:output.obj
 0001:00069910       ?state_case_normal_tchar@?$output_processor@DV?$string_output_adapter@D@__crt_stdio_output@@V?$format_validation_base@DV?$string_output_adapter@D@__crt_stdio_output@@@2@@__crt_stdio_output@@AEAA_ND@Z 000000018006a910 f i libucrtd:output.obj
 0001:00069a50       ?state_case_normal_tchar@?$output_processor@DV?$string_output_adapter@D@__crt_stdio_output@@V?$positional_parameter_base@DV?$string_output_adapter@D@__crt_stdio_output@@@2@@__crt_stdio_output@@AEAA_ND@Z 000000018006aa50 f i libucrtd:output.obj
 0001:00069b90       ?state_case_normal_tchar@?$output_processor@DV?$string_output_adapter@D@__crt_stdio_output@@V?$standard_base@DV?$string_output_adapter@D@__crt_stdio_output@@@2@@__crt_stdio_output@@AEAA_ND@Z 000000018006ab90 f i libucrtd:output.obj
 0001:00069cd0       ?state_case_normal_tchar@?$output_processor@_WV?$stream_output_adapter@_W@__crt_stdio_output@@V?$format_validation_base@_WV?$stream_output_adapter@_W@__crt_stdio_output@@@2@@__crt_stdio_output@@AEAA_N_W@Z 000000018006acd0 f i libucrtd:output.obj
 0001:00069cf0       ?state_case_normal_tchar@?$output_processor@_WV?$stream_output_adapter@_W@__crt_stdio_output@@V?$positional_parameter_base@_WV?$stream_output_adapter@_W@__crt_stdio_output@@@2@@__crt_stdio_output@@AEAA_N_W@Z 000000018006acf0 f i libucrtd:output.obj
 0001:00069d10       ?state_case_normal_tchar@?$output_processor@_WV?$stream_output_adapter@_W@__crt_stdio_output@@V?$standard_base@_WV?$stream_output_adapter@_W@__crt_stdio_output@@@2@@__crt_stdio_output@@AEAA_N_W@Z 000000018006ad10 f i libucrtd:output.obj
 0001:00069d30       ?state_case_normal_tchar@?$output_processor@_WV?$string_output_adapter@_W@__crt_stdio_output@@V?$format_validation_base@_WV?$string_output_adapter@_W@__crt_stdio_output@@@2@@__crt_stdio_output@@AEAA_N_W@Z 000000018006ad30 f i libucrtd:output.obj
 0001:00069d50       ?state_case_normal_tchar@?$output_processor@_WV?$string_output_adapter@_W@__crt_stdio_output@@V?$positional_parameter_base@_WV?$string_output_adapter@_W@__crt_stdio_output@@@2@@__crt_stdio_output@@AEAA_N_W@Z 000000018006ad50 f i libucrtd:output.obj
 0001:00069d70       ?state_case_normal_tchar@?$output_processor@_WV?$string_output_adapter@_W@__crt_stdio_output@@V?$standard_base@_WV?$string_output_adapter@_W@__crt_stdio_output@@@2@@__crt_stdio_output@@AEAA_N_W@Z 000000018006ad70 f i libucrtd:output.obj
 0001:00069d90       ?state_case_percent@?$output_processor@DV?$stream_output_adapter@D@__crt_stdio_output@@V?$format_validation_base@DV?$stream_output_adapter@D@__crt_stdio_output@@@2@@__crt_stdio_output@@AEAA_NXZ 000000018006ad90 f i libucrtd:output.obj
 0001:00069de0       ?state_case_percent@?$output_processor@DV?$stream_output_adapter@D@__crt_stdio_output@@V?$positional_parameter_base@DV?$stream_output_adapter@D@__crt_stdio_output@@@2@@__crt_stdio_output@@AEAA_NXZ 000000018006ade0 f i libucrtd:output.obj
 0001:00069e30       ?state_case_percent@?$output_processor@DV?$stream_output_adapter@D@__crt_stdio_output@@V?$standard_base@DV?$stream_output_adapter@D@__crt_stdio_output@@@2@@__crt_stdio_output@@AEAA_NXZ 000000018006ae30 f i libucrtd:output.obj
 0001:00069e80       ?state_case_percent@?$output_processor@DV?$string_output_adapter@D@__crt_stdio_output@@V?$format_validation_base@DV?$string_output_adapter@D@__crt_stdio_output@@@2@@__crt_stdio_output@@AEAA_NXZ 000000018006ae80 f i libucrtd:output.obj
 0001:00069ed0       ?state_case_percent@?$output_processor@DV?$string_output_adapter@D@__crt_stdio_output@@V?$positional_parameter_base@DV?$string_output_adapter@D@__crt_stdio_output@@@2@@__crt_stdio_output@@AEAA_NXZ 000000018006aed0 f i libucrtd:output.obj
 0001:00069f20       ?state_case_percent@?$output_processor@DV?$string_output_adapter@D@__crt_stdio_output@@V?$standard_base@DV?$string_output_adapter@D@__crt_stdio_output@@@2@@__crt_stdio_output@@AEAA_NXZ 000000018006af20 f i libucrtd:output.obj
 0001:00069f70       ?state_case_percent@?$output_processor@_WV?$stream_output_adapter@_W@__crt_stdio_output@@V?$format_validation_base@_WV?$stream_output_adapter@_W@__crt_stdio_output@@@2@@__crt_stdio_output@@AEAA_NXZ 000000018006af70 f i libucrtd:output.obj
 0001:00069fc0       ?state_case_percent@?$output_processor@_WV?$stream_output_adapter@_W@__crt_stdio_output@@V?$positional_parameter_base@_WV?$stream_output_adapter@_W@__crt_stdio_output@@@2@@__crt_stdio_output@@AEAA_NXZ 000000018006afc0 f i libucrtd:output.obj
 0001:0006a010       ?state_case_percent@?$output_processor@_WV?$stream_output_adapter@_W@__crt_stdio_output@@V?$standard_base@_WV?$stream_output_adapter@_W@__crt_stdio_output@@@2@@__crt_stdio_output@@AEAA_NXZ 000000018006b010 f i libucrtd:output.obj
 0001:0006a060       ?state_case_percent@?$output_processor@_WV?$string_output_adapter@_W@__crt_stdio_output@@V?$format_validation_base@_WV?$string_output_adapter@_W@__crt_stdio_output@@@2@@__crt_stdio_output@@AEAA_NXZ 000000018006b060 f i libucrtd:output.obj
 0001:0006a0b0       ?state_case_percent@?$output_processor@_WV?$string_output_adapter@_W@__crt_stdio_output@@V?$positional_parameter_base@_WV?$string_output_adapter@_W@__crt_stdio_output@@@2@@__crt_stdio_output@@AEAA_NXZ 000000018006b0b0 f i libucrtd:output.obj
 0001:0006a100       ?state_case_percent@?$output_processor@_WV?$string_output_adapter@_W@__crt_stdio_output@@V?$standard_base@_WV?$string_output_adapter@_W@__crt_stdio_output@@@2@@__crt_stdio_output@@AEAA_NXZ 000000018006b100 f i libucrtd:output.obj
 0001:0006a150       ?state_case_precision@?$output_processor@DV?$stream_output_adapter@D@__crt_stdio_output@@V?$format_validation_base@DV?$stream_output_adapter@D@__crt_stdio_output@@@2@@__crt_stdio_output@@AEAA_NXZ 000000018006b150 f i libucrtd:output.obj
 0001:0006a1d0       ?state_case_precision@?$output_processor@DV?$stream_output_adapter@D@__crt_stdio_output@@V?$positional_parameter_base@DV?$stream_output_adapter@D@__crt_stdio_output@@@2@@__crt_stdio_output@@AEAA_NXZ 000000018006b1d0 f i libucrtd:output.obj
 0001:0006a250       ?state_case_precision@?$output_processor@DV?$stream_output_adapter@D@__crt_stdio_output@@V?$standard_base@DV?$stream_output_adapter@D@__crt_stdio_output@@@2@@__crt_stdio_output@@AEAA_NXZ 000000018006b250 f i libucrtd:output.obj
 0001:0006a2d0       ?state_case_precision@?$output_processor@DV?$string_output_adapter@D@__crt_stdio_output@@V?$format_validation_base@DV?$string_output_adapter@D@__crt_stdio_output@@@2@@__crt_stdio_output@@AEAA_NXZ 000000018006b2d0 f i libucrtd:output.obj
 0001:0006a350       ?state_case_precision@?$output_processor@DV?$string_output_adapter@D@__crt_stdio_output@@V?$positional_parameter_base@DV?$string_output_adapter@D@__crt_stdio_output@@@2@@__crt_stdio_output@@AEAA_NXZ 000000018006b350 f i libucrtd:output.obj
 0001:0006a3d0       ?state_case_precision@?$output_processor@DV?$string_output_adapter@D@__crt_stdio_output@@V?$standard_base@DV?$string_output_adapter@D@__crt_stdio_output@@@2@@__crt_stdio_output@@AEAA_NXZ 000000018006b3d0 f i libucrtd:output.obj
 0001:0006a450       ?state_case_precision@?$output_processor@_WV?$stream_output_adapter@_W@__crt_stdio_output@@V?$format_validation_base@_WV?$stream_output_adapter@_W@__crt_stdio_output@@@2@@__crt_stdio_output@@AEAA_NXZ 000000018006b450 f i libucrtd:output.obj
 0001:0006a4d0       ?state_case_precision@?$output_processor@_WV?$stream_output_adapter@_W@__crt_stdio_output@@V?$positional_parameter_base@_WV?$stream_output_adapter@_W@__crt_stdio_output@@@2@@__crt_stdio_output@@AEAA_NXZ 000000018006b4d0 f i libucrtd:output.obj
 0001:0006a550       ?state_case_precision@?$output_processor@_WV?$stream_output_adapter@_W@__crt_stdio_output@@V?$standard_base@_WV?$stream_output_adapter@_W@__crt_stdio_output@@@2@@__crt_stdio_output@@AEAA_NXZ 000000018006b550 f i libucrtd:output.obj
 0001:0006a5d0       ?state_case_precision@?$output_processor@_WV?$string_output_adapter@_W@__crt_stdio_output@@V?$format_validation_base@_WV?$string_output_adapter@_W@__crt_stdio_output@@@2@@__crt_stdio_output@@AEAA_NXZ 000000018006b5d0 f i libucrtd:output.obj
 0001:0006a650       ?state_case_precision@?$output_processor@_WV?$string_output_adapter@_W@__crt_stdio_output@@V?$positional_parameter_base@_WV?$string_output_adapter@_W@__crt_stdio_output@@@2@@__crt_stdio_output@@AEAA_NXZ 000000018006b650 f i libucrtd:output.obj
 0001:0006a6d0       ?state_case_precision@?$output_processor@_WV?$string_output_adapter@_W@__crt_stdio_output@@V?$standard_base@_WV?$string_output_adapter@_W@__crt_stdio_output@@@2@@__crt_stdio_output@@AEAA_NXZ 000000018006b6d0 f i libucrtd:output.obj
 0001:0006a750       ?state_case_size@?$output_processor@DV?$stream_output_adapter@D@__crt_stdio_output@@V?$format_validation_base@DV?$stream_output_adapter@D@__crt_stdio_output@@@2@@__crt_stdio_output@@AEAA_NXZ 000000018006b750 f i libucrtd:output.obj
 0001:0006abd0       ?state_case_size@?$output_processor@DV?$stream_output_adapter@D@__crt_stdio_output@@V?$positional_parameter_base@DV?$stream_output_adapter@D@__crt_stdio_output@@@2@@__crt_stdio_output@@AEAA_NXZ 000000018006bbd0 f i libucrtd:output.obj
 0001:0006b050       ?state_case_size@?$output_processor@DV?$stream_output_adapter@D@__crt_stdio_output@@V?$standard_base@DV?$stream_output_adapter@D@__crt_stdio_output@@@2@@__crt_stdio_output@@AEAA_NXZ 000000018006c050 f i libucrtd:output.obj
 0001:0006b4d0       ?state_case_size@?$output_processor@DV?$string_output_adapter@D@__crt_stdio_output@@V?$format_validation_base@DV?$string_output_adapter@D@__crt_stdio_output@@@2@@__crt_stdio_output@@AEAA_NXZ 000000018006c4d0 f i libucrtd:output.obj
 0001:0006b950       ?state_case_size@?$output_processor@DV?$string_output_adapter@D@__crt_stdio_output@@V?$positional_parameter_base@DV?$string_output_adapter@D@__crt_stdio_output@@@2@@__crt_stdio_output@@AEAA_NXZ 000000018006c950 f i libucrtd:output.obj
 0001:0006bdd0       ?state_case_size@?$output_processor@DV?$string_output_adapter@D@__crt_stdio_output@@V?$standard_base@DV?$string_output_adapter@D@__crt_stdio_output@@@2@@__crt_stdio_output@@AEAA_NXZ 000000018006cdd0 f i libucrtd:output.obj
 0001:0006c250       ?state_case_size@?$output_processor@_WV?$stream_output_adapter@_W@__crt_stdio_output@@V?$format_validation_base@_WV?$stream_output_adapter@_W@__crt_stdio_output@@@2@@__crt_stdio_output@@AEAA_NXZ 000000018006d250 f i libucrtd:output.obj
 0001:0006c6d0       ?state_case_size@?$output_processor@_WV?$stream_output_adapter@_W@__crt_stdio_output@@V?$positional_parameter_base@_WV?$stream_output_adapter@_W@__crt_stdio_output@@@2@@__crt_stdio_output@@AEAA_NXZ 000000018006d6d0 f i libucrtd:output.obj
 0001:0006cb50       ?state_case_size@?$output_processor@_WV?$stream_output_adapter@_W@__crt_stdio_output@@V?$standard_base@_WV?$stream_output_adapter@_W@__crt_stdio_output@@@2@@__crt_stdio_output@@AEAA_NXZ 000000018006db50 f i libucrtd:output.obj
 0001:0006cfd0       ?state_case_size@?$output_processor@_WV?$string_output_adapter@_W@__crt_stdio_output@@V?$format_validation_base@_WV?$string_output_adapter@_W@__crt_stdio_output@@@2@@__crt_stdio_output@@AEAA_NXZ 000000018006dfd0 f i libucrtd:output.obj
 0001:0006d450       ?state_case_size@?$output_processor@_WV?$string_output_adapter@_W@__crt_stdio_output@@V?$positional_parameter_base@_WV?$string_output_adapter@_W@__crt_stdio_output@@@2@@__crt_stdio_output@@AEAA_NXZ 000000018006e450 f i libucrtd:output.obj
 0001:0006d8d0       ?state_case_size@?$output_processor@_WV?$string_output_adapter@_W@__crt_stdio_output@@V?$standard_base@_WV?$string_output_adapter@_W@__crt_stdio_output@@@2@@__crt_stdio_output@@AEAA_NXZ 000000018006e8d0 f i libucrtd:output.obj
 0001:0006dd50       ?state_case_type@?$output_processor@DV?$stream_output_adapter@D@__crt_stdio_output@@V?$format_validation_base@DV?$stream_output_adapter@D@__crt_stdio_output@@@2@@__crt_stdio_output@@AEAA_NXZ 000000018006ed50 f i libucrtd:output.obj
 0001:0006e1f0       ?state_case_type@?$output_processor@DV?$stream_output_adapter@D@__crt_stdio_output@@V?$positional_parameter_base@DV?$stream_output_adapter@D@__crt_stdio_output@@@2@@__crt_stdio_output@@AEAA_NXZ 000000018006f1f0 f i libucrtd:output.obj
 0001:0006e690       ?state_case_type@?$output_processor@DV?$stream_output_adapter@D@__crt_stdio_output@@V?$standard_base@DV?$stream_output_adapter@D@__crt_stdio_output@@@2@@__crt_stdio_output@@AEAA_NXZ 000000018006f690 f i libucrtd:output.obj
 0001:0006eb30       ?state_case_type@?$output_processor@DV?$string_output_adapter@D@__crt_stdio_output@@V?$format_validation_base@DV?$string_output_adapter@D@__crt_stdio_output@@@2@@__crt_stdio_output@@AEAA_NXZ 000000018006fb30 f i libucrtd:output.obj
 0001:0006efd0       ?state_case_type@?$output_processor@DV?$string_output_adapter@D@__crt_stdio_output@@V?$positional_parameter_base@DV?$string_output_adapter@D@__crt_stdio_output@@@2@@__crt_stdio_output@@AEAA_NXZ 000000018006ffd0 f i libucrtd:output.obj
 0001:0006f470       ?state_case_type@?$output_processor@DV?$string_output_adapter@D@__crt_stdio_output@@V?$standard_base@DV?$string_output_adapter@D@__crt_stdio_output@@@2@@__crt_stdio_output@@AEAA_NXZ 0000000180070470 f i libucrtd:output.obj
 0001:0006f910       ?state_case_type@?$output_processor@_WV?$stream_output_adapter@_W@__crt_stdio_output@@V?$format_validation_base@_WV?$stream_output_adapter@_W@__crt_stdio_output@@@2@@__crt_stdio_output@@AEAA_NXZ 0000000180070910 f i libucrtd:output.obj
 0001:0006fe70       ?state_case_type@?$output_processor@_WV?$stream_output_adapter@_W@__crt_stdio_output@@V?$positional_parameter_base@_WV?$stream_output_adapter@_W@__crt_stdio_output@@@2@@__crt_stdio_output@@AEAA_NXZ 0000000180070e70 f i libucrtd:output.obj
 0001:000703d0       ?state_case_type@?$output_processor@_WV?$stream_output_adapter@_W@__crt_stdio_output@@V?$standard_base@_WV?$stream_output_adapter@_W@__crt_stdio_output@@@2@@__crt_stdio_output@@AEAA_NXZ 00000001800713d0 f i libucrtd:output.obj
 0001:00070930       ?state_case_type@?$output_processor@_WV?$string_output_adapter@_W@__crt_stdio_output@@V?$format_validation_base@_WV?$string_output_adapter@_W@__crt_stdio_output@@@2@@__crt_stdio_output@@AEAA_NXZ 0000000180071930 f i libucrtd:output.obj
 0001:00070e90       ?state_case_type@?$output_processor@_WV?$string_output_adapter@_W@__crt_stdio_output@@V?$positional_parameter_base@_WV?$string_output_adapter@_W@__crt_stdio_output@@@2@@__crt_stdio_output@@AEAA_NXZ 0000000180071e90 f i libucrtd:output.obj
 0001:000713f0       ?state_case_type@?$output_processor@_WV?$string_output_adapter@_W@__crt_stdio_output@@V?$standard_base@_WV?$string_output_adapter@_W@__crt_stdio_output@@@2@@__crt_stdio_output@@AEAA_NXZ 00000001800723f0 f i libucrtd:output.obj
 0001:00071950       ?state_case_width@?$output_processor@DV?$stream_output_adapter@D@__crt_stdio_output@@V?$format_validation_base@DV?$stream_output_adapter@D@__crt_stdio_output@@@2@@__crt_stdio_output@@AEAA_NXZ 0000000180072950 f i libucrtd:output.obj
 0001:000719e0       ?state_case_width@?$output_processor@DV?$stream_output_adapter@D@__crt_stdio_output@@V?$positional_parameter_base@DV?$stream_output_adapter@D@__crt_stdio_output@@@2@@__crt_stdio_output@@AEAA_NXZ 00000001800729e0 f i libucrtd:output.obj
 0001:00071a70       ?state_case_width@?$output_processor@DV?$stream_output_adapter@D@__crt_stdio_output@@V?$standard_base@DV?$stream_output_adapter@D@__crt_stdio_output@@@2@@__crt_stdio_output@@AEAA_NXZ 0000000180072a70 f i libucrtd:output.obj
 0001:00071b00       ?state_case_width@?$output_processor@DV?$string_output_adapter@D@__crt_stdio_output@@V?$format_validation_base@DV?$string_output_adapter@D@__crt_stdio_output@@@2@@__crt_stdio_output@@AEAA_NXZ 0000000180072b00 f i libucrtd:output.obj
 0001:00071b90       ?state_case_width@?$output_processor@DV?$string_output_adapter@D@__crt_stdio_output@@V?$positional_parameter_base@DV?$string_output_adapter@D@__crt_stdio_output@@@2@@__crt_stdio_output@@AEAA_NXZ 0000000180072b90 f i libucrtd:output.obj
 0001:00071c20       ?state_case_width@?$output_processor@DV?$string_output_adapter@D@__crt_stdio_output@@V?$standard_base@DV?$string_output_adapter@D@__crt_stdio_output@@@2@@__crt_stdio_output@@AEAA_NXZ 0000000180072c20 f i libucrtd:output.obj
 0001:00071cb0       ?state_case_width@?$output_processor@_WV?$stream_output_adapter@_W@__crt_stdio_output@@V?$format_validation_base@_WV?$stream_output_adapter@_W@__crt_stdio_output@@@2@@__crt_stdio_output@@AEAA_NXZ 0000000180072cb0 f i libucrtd:output.obj
 0001:00071d40       ?state_case_width@?$output_processor@_WV?$stream_output_adapter@_W@__crt_stdio_output@@V?$positional_parameter_base@_WV?$stream_output_adapter@_W@__crt_stdio_output@@@2@@__crt_stdio_output@@AEAA_NXZ 0000000180072d40 f i libucrtd:output.obj
 0001:00071dd0       ?state_case_width@?$output_processor@_WV?$stream_output_adapter@_W@__crt_stdio_output@@V?$standard_base@_WV?$stream_output_adapter@_W@__crt_stdio_output@@@2@@__crt_stdio_output@@AEAA_NXZ 0000000180072dd0 f i libucrtd:output.obj
 0001:00071e60       ?state_case_width@?$output_processor@_WV?$string_output_adapter@_W@__crt_stdio_output@@V?$format_validation_base@_WV?$string_output_adapter@_W@__crt_stdio_output@@@2@@__crt_stdio_output@@AEAA_NXZ 0000000180072e60 f i libucrtd:output.obj
 0001:00071ef0       ?state_case_width@?$output_processor@_WV?$string_output_adapter@_W@__crt_stdio_output@@V?$positional_parameter_base@_WV?$string_output_adapter@_W@__crt_stdio_output@@@2@@__crt_stdio_output@@AEAA_NXZ 0000000180072ef0 f i libucrtd:output.obj
 0001:00071f80       ?state_case_width@?$output_processor@_WV?$string_output_adapter@_W@__crt_stdio_output@@V?$standard_base@_WV?$string_output_adapter@_W@__crt_stdio_output@@@2@@__crt_stdio_output@@AEAA_NXZ 0000000180072f80 f i libucrtd:output.obj
 0001:00072010       ?state_count@?$format_validation_base@DV?$stream_output_adapter@D@__crt_stdio_output@@@__crt_stdio_output@@KAIXZ 0000000180073010 f i libucrtd:output.obj
 0001:00072020       ?state_count@?$format_validation_base@DV?$string_output_adapter@D@__crt_stdio_output@@@__crt_stdio_output@@KAIXZ 0000000180073020 f i libucrtd:output.obj
 0001:00072030       ?state_count@?$format_validation_base@_WV?$stream_output_adapter@_W@__crt_stdio_output@@@__crt_stdio_output@@KAIXZ 0000000180073030 f i libucrtd:output.obj
 0001:00072040       ?state_count@?$format_validation_base@_WV?$string_output_adapter@_W@__crt_stdio_output@@@__crt_stdio_output@@KAIXZ 0000000180073040 f i libucrtd:output.obj
 0001:00072050       ?state_count@?$standard_base@DV?$stream_output_adapter@D@__crt_stdio_output@@@__crt_stdio_output@@KAIXZ 0000000180073050 f i libucrtd:output.obj
 0001:00072060       ?state_count@?$standard_base@DV?$string_output_adapter@D@__crt_stdio_output@@@__crt_stdio_output@@KAIXZ 0000000180073060 f i libucrtd:output.obj
 0001:00072070       ?state_count@?$standard_base@_WV?$stream_output_adapter@_W@__crt_stdio_output@@@__crt_stdio_output@@KAIXZ 0000000180073070 f i libucrtd:output.obj
 0001:00072080       ?state_count@?$standard_base@_WV?$string_output_adapter@_W@__crt_stdio_output@@@__crt_stdio_output@@KAIXZ 0000000180073080 f i libucrtd:output.obj
 0001:00072090       ?state_transition_table@?$format_validation_base@DV?$stream_output_adapter@D@__crt_stdio_output@@@__crt_stdio_output@@KAAEBV?$spectre_mitigated_lookup_table@Ustate_transition_pair@__crt_stdio_output@@$0IA@@2@XZ 0000000180073090 f i libucrtd:output.obj
 0001:000720a0       ?state_transition_table@?$format_validation_base@DV?$string_output_adapter@D@__crt_stdio_output@@@__crt_stdio_output@@KAAEBV?$spectre_mitigated_lookup_table@Ustate_transition_pair@__crt_stdio_output@@$0IA@@2@XZ 00000001800730a0 f i libucrtd:output.obj
 0001:000720b0       ?state_transition_table@?$format_validation_base@_WV?$stream_output_adapter@_W@__crt_stdio_output@@@__crt_stdio_output@@KAAEBV?$spectre_mitigated_lookup_table@Ustate_transition_pair@__crt_stdio_output@@$0IA@@2@XZ 00000001800730b0 f i libucrtd:output.obj
 0001:000720c0       ?state_transition_table@?$format_validation_base@_WV?$string_output_adapter@_W@__crt_stdio_output@@@__crt_stdio_output@@KAAEBV?$spectre_mitigated_lookup_table@Ustate_transition_pair@__crt_stdio_output@@$0IA@@2@XZ 00000001800730c0 f i libucrtd:output.obj
 0001:000720d0       ?state_transition_table@?$standard_base@DV?$stream_output_adapter@D@__crt_stdio_output@@@__crt_stdio_output@@KAAEBV?$spectre_mitigated_lookup_table@Ustate_transition_pair@__crt_stdio_output@@$0IA@@2@XZ 00000001800730d0 f i libucrtd:output.obj
 0001:000720e0       ?state_transition_table@?$standard_base@DV?$string_output_adapter@D@__crt_stdio_output@@@__crt_stdio_output@@KAAEBV?$spectre_mitigated_lookup_table@Ustate_transition_pair@__crt_stdio_output@@$0IA@@2@XZ 00000001800730e0 f i libucrtd:output.obj
 0001:000720f0       ?state_transition_table@?$standard_base@_WV?$stream_output_adapter@_W@__crt_stdio_output@@@__crt_stdio_output@@KAAEBV?$spectre_mitigated_lookup_table@Ustate_transition_pair@__crt_stdio_output@@$0IA@@2@XZ 00000001800730f0 f i libucrtd:output.obj
 0001:00072100       ?state_transition_table@?$standard_base@_WV?$string_output_adapter@_W@__crt_stdio_output@@@__crt_stdio_output@@KAAEBV?$spectre_mitigated_lookup_table@Ustate_transition_pair@__crt_stdio_output@@$0IA@@2@XZ 0000000180073100 f i libucrtd:output.obj
 0001:00072110       ?tchar_string@?$common_data@D@__crt_stdio_output@@IEAAAEAPEADD@Z 0000000180073110 f i libucrtd:output.obj
 0001:00072130       ?tchar_string@?$common_data@D@__crt_stdio_output@@IEAAAEAPEADXZ 0000000180073130 f i libucrtd:output.obj
 0001:00072150       ?tchar_string@?$common_data@_W@__crt_stdio_output@@IEAAAEAPEA_WXZ 0000000180073150 f i libucrtd:output.obj
 0001:00072170       ?tchar_string@?$common_data@_W@__crt_stdio_output@@IEAAAEAPEA_W_W@Z 0000000180073170 f i libucrtd:output.obj
 0001:00072190       ?to_integer_size@__crt_stdio_output@@YA_KW4length_modifier@1@@Z 0000000180073190 f i libucrtd:output.obj
 0001:00072240       ?type_case_X@?$output_processor@DV?$stream_output_adapter@D@__crt_stdio_output@@V?$format_validation_base@DV?$stream_output_adapter@D@__crt_stdio_output@@@2@@__crt_stdio_output@@AEAA_NXZ 0000000180073240 f i libucrtd:output.obj
 0001:00072260       ?type_case_X@?$output_processor@DV?$stream_output_adapter@D@__crt_stdio_output@@V?$positional_parameter_base@DV?$stream_output_adapter@D@__crt_stdio_output@@@2@@__crt_stdio_output@@AEAA_NXZ 0000000180073260 f i libucrtd:output.obj
 0001:00072280       ?type_case_X@?$output_processor@DV?$stream_output_adapter@D@__crt_stdio_output@@V?$standard_base@DV?$stream_output_adapter@D@__crt_stdio_output@@@2@@__crt_stdio_output@@AEAA_NXZ 0000000180073280 f i libucrtd:output.obj
 0001:000722a0       ?type_case_X@?$output_processor@DV?$string_output_adapter@D@__crt_stdio_output@@V?$format_validation_base@DV?$string_output_adapter@D@__crt_stdio_output@@@2@@__crt_stdio_output@@AEAA_NXZ 00000001800732a0 f i libucrtd:output.obj
 0001:000722c0       ?type_case_X@?$output_processor@DV?$string_output_adapter@D@__crt_stdio_output@@V?$positional_parameter_base@DV?$string_output_adapter@D@__crt_stdio_output@@@2@@__crt_stdio_output@@AEAA_NXZ 00000001800732c0 f i libucrtd:output.obj
 0001:000722e0       ?type_case_X@?$output_processor@DV?$string_output_adapter@D@__crt_stdio_output@@V?$standard_base@DV?$string_output_adapter@D@__crt_stdio_output@@@2@@__crt_stdio_output@@AEAA_NXZ 00000001800732e0 f i libucrtd:output.obj
 0001:00072300       ?type_case_X@?$output_processor@_WV?$stream_output_adapter@_W@__crt_stdio_output@@V?$format_validation_base@_WV?$stream_output_adapter@_W@__crt_stdio_output@@@2@@__crt_stdio_output@@AEAA_NXZ 0000000180073300 f i libucrtd:output.obj
 0001:00072320       ?type_case_X@?$output_processor@_WV?$stream_output_adapter@_W@__crt_stdio_output@@V?$positional_parameter_base@_WV?$stream_output_adapter@_W@__crt_stdio_output@@@2@@__crt_stdio_output@@AEAA_NXZ 0000000180073320 f i libucrtd:output.obj
 0001:00072340       ?type_case_X@?$output_processor@_WV?$stream_output_adapter@_W@__crt_stdio_output@@V?$standard_base@_WV?$stream_output_adapter@_W@__crt_stdio_output@@@2@@__crt_stdio_output@@AEAA_NXZ 0000000180073340 f i libucrtd:output.obj
 0001:00072360       ?type_case_X@?$output_processor@_WV?$string_output_adapter@_W@__crt_stdio_output@@V?$format_validation_base@_WV?$string_output_adapter@_W@__crt_stdio_output@@@2@@__crt_stdio_output@@AEAA_NXZ 0000000180073360 f i libucrtd:output.obj
 0001:00072380       ?type_case_X@?$output_processor@_WV?$string_output_adapter@_W@__crt_stdio_output@@V?$positional_parameter_base@_WV?$string_output_adapter@_W@__crt_stdio_output@@@2@@__crt_stdio_output@@AEAA_NXZ 0000000180073380 f i libucrtd:output.obj
 0001:000723a0       ?type_case_X@?$output_processor@_WV?$string_output_adapter@_W@__crt_stdio_output@@V?$standard_base@_WV?$string_output_adapter@_W@__crt_stdio_output@@@2@@__crt_stdio_output@@AEAA_NXZ 00000001800733a0 f i libucrtd:output.obj
 0001:000723c0       ?type_case_Z@?$output_processor@DV?$stream_output_adapter@D@__crt_stdio_output@@V?$format_validation_base@DV?$stream_output_adapter@D@__crt_stdio_output@@@2@@__crt_stdio_output@@AEAA_NXZ 00000001800733c0 f i libucrtd:output.obj
 0001:000724e0       ?type_case_Z@?$output_processor@DV?$stream_output_adapter@D@__crt_stdio_output@@V?$positional_parameter_base@DV?$stream_output_adapter@D@__crt_stdio_output@@@2@@__crt_stdio_output@@AEAA_NXZ 00000001800734e0 f i libucrtd:output.obj
 0001:00072600       ?type_case_Z@?$output_processor@DV?$stream_output_adapter@D@__crt_stdio_output@@V?$standard_base@DV?$stream_output_adapter@D@__crt_stdio_output@@@2@@__crt_stdio_output@@AEAA_NXZ 0000000180073600 f i libucrtd:output.obj
 0001:00072720       ?type_case_Z@?$output_processor@DV?$string_output_adapter@D@__crt_stdio_output@@V?$format_validation_base@DV?$string_output_adapter@D@__crt_stdio_output@@@2@@__crt_stdio_output@@AEAA_NXZ 0000000180073720 f i libucrtd:output.obj
 0001:00072840       ?type_case_Z@?$output_processor@DV?$string_output_adapter@D@__crt_stdio_output@@V?$positional_parameter_base@DV?$string_output_adapter@D@__crt_stdio_output@@@2@@__crt_stdio_output@@AEAA_NXZ 0000000180073840 f i libucrtd:output.obj
 0001:00072960       ?type_case_Z@?$output_processor@DV?$string_output_adapter@D@__crt_stdio_output@@V?$standard_base@DV?$string_output_adapter@D@__crt_stdio_output@@@2@@__crt_stdio_output@@AEAA_NXZ 0000000180073960 f i libucrtd:output.obj
 0001:00072a80       ?type_case_Z@?$output_processor@_WV?$stream_output_adapter@_W@__crt_stdio_output@@V?$format_validation_base@_WV?$stream_output_adapter@_W@__crt_stdio_output@@@2@@__crt_stdio_output@@AEAA_NXZ 0000000180073a80 f i libucrtd:output.obj
 0001:00072ba0       ?type_case_Z@?$output_processor@_WV?$stream_output_adapter@_W@__crt_stdio_output@@V?$positional_parameter_base@_WV?$stream_output_adapter@_W@__crt_stdio_output@@@2@@__crt_stdio_output@@AEAA_NXZ 0000000180073ba0 f i libucrtd:output.obj
 0001:00072cc0       ?type_case_Z@?$output_processor@_WV?$stream_output_adapter@_W@__crt_stdio_output@@V?$standard_base@_WV?$stream_output_adapter@_W@__crt_stdio_output@@@2@@__crt_stdio_output@@AEAA_NXZ 0000000180073cc0 f i libucrtd:output.obj
 0001:00072de0       ?type_case_Z@?$output_processor@_WV?$string_output_adapter@_W@__crt_stdio_output@@V?$format_validation_base@_WV?$string_output_adapter@_W@__crt_stdio_output@@@2@@__crt_stdio_output@@AEAA_NXZ 0000000180073de0 f i libucrtd:output.obj
 0001:00072f00       ?type_case_Z@?$output_processor@_WV?$string_output_adapter@_W@__crt_stdio_output@@V?$positional_parameter_base@_WV?$string_output_adapter@_W@__crt_stdio_output@@@2@@__crt_stdio_output@@AEAA_NXZ 0000000180073f00 f i libucrtd:output.obj
 0001:00073020       ?type_case_Z@?$output_processor@_WV?$string_output_adapter@_W@__crt_stdio_output@@V?$standard_base@_WV?$string_output_adapter@_W@__crt_stdio_output@@@2@@__crt_stdio_output@@AEAA_NXZ 0000000180074020 f i libucrtd:output.obj
 0001:00073140       ?type_case_a@?$output_processor@DV?$stream_output_adapter@D@__crt_stdio_output@@V?$format_validation_base@DV?$stream_output_adapter@D@__crt_stdio_output@@@2@@__crt_stdio_output@@AEAA_NXZ 0000000180074140 f i libucrtd:output.obj
 0001:00073510       ?type_case_a@?$output_processor@DV?$stream_output_adapter@D@__crt_stdio_output@@V?$positional_parameter_base@DV?$stream_output_adapter@D@__crt_stdio_output@@@2@@__crt_stdio_output@@AEAA_NXZ 0000000180074510 f i libucrtd:output.obj
 0001:000738e0       ?type_case_a@?$output_processor@DV?$stream_output_adapter@D@__crt_stdio_output@@V?$standard_base@DV?$stream_output_adapter@D@__crt_stdio_output@@@2@@__crt_stdio_output@@AEAA_NXZ 00000001800748e0 f i libucrtd:output.obj
 0001:00073cb0       ?type_case_a@?$output_processor@DV?$string_output_adapter@D@__crt_stdio_output@@V?$format_validation_base@DV?$string_output_adapter@D@__crt_stdio_output@@@2@@__crt_stdio_output@@AEAA_NXZ 0000000180074cb0 f i libucrtd:output.obj
 0001:00074080       ?type_case_a@?$output_processor@DV?$string_output_adapter@D@__crt_stdio_output@@V?$positional_parameter_base@DV?$string_output_adapter@D@__crt_stdio_output@@@2@@__crt_stdio_output@@AEAA_NXZ 0000000180075080 f i libucrtd:output.obj
 0001:00074450       ?type_case_a@?$output_processor@DV?$string_output_adapter@D@__crt_stdio_output@@V?$standard_base@DV?$string_output_adapter@D@__crt_stdio_output@@@2@@__crt_stdio_output@@AEAA_NXZ 0000000180075450 f i libucrtd:output.obj
 0001:00074820       ?type_case_a@?$output_processor@_WV?$stream_output_adapter@_W@__crt_stdio_output@@V?$format_validation_base@_WV?$stream_output_adapter@_W@__crt_stdio_output@@@2@@__crt_stdio_output@@AEAA_NXZ 0000000180075820 f i libucrtd:output.obj
 0001:00074bf0       ?type_case_a@?$output_processor@_WV?$stream_output_adapter@_W@__crt_stdio_output@@V?$positional_parameter_base@_WV?$stream_output_adapter@_W@__crt_stdio_output@@@2@@__crt_stdio_output@@AEAA_NXZ 0000000180075bf0 f i libucrtd:output.obj
 0001:00074fc0       ?type_case_a@?$output_processor@_WV?$stream_output_adapter@_W@__crt_stdio_output@@V?$standard_base@_WV?$stream_output_adapter@_W@__crt_stdio_output@@@2@@__crt_stdio_output@@AEAA_NXZ 0000000180075fc0 f i libucrtd:output.obj
 0001:00075390       ?type_case_a@?$output_processor@_WV?$string_output_adapter@_W@__crt_stdio_output@@V?$format_validation_base@_WV?$string_output_adapter@_W@__crt_stdio_output@@@2@@__crt_stdio_output@@AEAA_NXZ 0000000180076390 f i libucrtd:output.obj
 0001:00075760       ?type_case_a@?$output_processor@_WV?$string_output_adapter@_W@__crt_stdio_output@@V?$positional_parameter_base@_WV?$string_output_adapter@_W@__crt_stdio_output@@@2@@__crt_stdio_output@@AEAA_NXZ 0000000180076760 f i libucrtd:output.obj
 0001:00075b30       ?type_case_a@?$output_processor@_WV?$string_output_adapter@_W@__crt_stdio_output@@V?$standard_base@_WV?$string_output_adapter@_W@__crt_stdio_output@@@2@@__crt_stdio_output@@AEAA_NXZ 0000000180076b30 f i libucrtd:output.obj
 0001:00075f00       ?type_case_c@?$output_processor@DV?$stream_output_adapter@D@__crt_stdio_output@@V?$format_validation_base@DV?$stream_output_adapter@D@__crt_stdio_output@@@2@@__crt_stdio_output@@AEAA_NXZ 0000000180076f00 f i libucrtd:output.obj
 0001:00075f20       ?type_case_c@?$output_processor@DV?$stream_output_adapter@D@__crt_stdio_output@@V?$positional_parameter_base@DV?$stream_output_adapter@D@__crt_stdio_output@@@2@@__crt_stdio_output@@AEAA_NXZ 0000000180076f20 f i libucrtd:output.obj
 0001:00075f40       ?type_case_c@?$output_processor@DV?$stream_output_adapter@D@__crt_stdio_output@@V?$standard_base@DV?$stream_output_adapter@D@__crt_stdio_output@@@2@@__crt_stdio_output@@AEAA_NXZ 0000000180076f40 f i libucrtd:output.obj
 0001:00075f60       ?type_case_c@?$output_processor@DV?$string_output_adapter@D@__crt_stdio_output@@V?$format_validation_base@DV?$string_output_adapter@D@__crt_stdio_output@@@2@@__crt_stdio_output@@AEAA_NXZ 0000000180076f60 f i libucrtd:output.obj
 0001:00075f80       ?type_case_c@?$output_processor@DV?$string_output_adapter@D@__crt_stdio_output@@V?$positional_parameter_base@DV?$string_output_adapter@D@__crt_stdio_output@@@2@@__crt_stdio_output@@AEAA_NXZ 0000000180076f80 f i libucrtd:output.obj
 0001:00075fa0       ?type_case_c@?$output_processor@DV?$string_output_adapter@D@__crt_stdio_output@@V?$standard_base@DV?$string_output_adapter@D@__crt_stdio_output@@@2@@__crt_stdio_output@@AEAA_NXZ 0000000180076fa0 f i libucrtd:output.obj
 0001:00075fc0       ?type_case_c@?$output_processor@_WV?$stream_output_adapter@_W@__crt_stdio_output@@V?$format_validation_base@_WV?$stream_output_adapter@_W@__crt_stdio_output@@@2@@__crt_stdio_output@@AEAA_NXZ 0000000180076fc0 f i libucrtd:output.obj
 0001:00075fe0       ?type_case_c@?$output_processor@_WV?$stream_output_adapter@_W@__crt_stdio_output@@V?$positional_parameter_base@_WV?$stream_output_adapter@_W@__crt_stdio_output@@@2@@__crt_stdio_output@@AEAA_NXZ 0000000180076fe0 f i libucrtd:output.obj
 0001:00076000       ?type_case_c@?$output_processor@_WV?$stream_output_adapter@_W@__crt_stdio_output@@V?$standard_base@_WV?$stream_output_adapter@_W@__crt_stdio_output@@@2@@__crt_stdio_output@@AEAA_NXZ 0000000180077000 f i libucrtd:output.obj
 0001:00076020       ?type_case_c@?$output_processor@_WV?$string_output_adapter@_W@__crt_stdio_output@@V?$format_validation_base@_WV?$string_output_adapter@_W@__crt_stdio_output@@@2@@__crt_stdio_output@@AEAA_NXZ 0000000180077020 f i libucrtd:output.obj
 0001:00076040       ?type_case_c@?$output_processor@_WV?$string_output_adapter@_W@__crt_stdio_output@@V?$positional_parameter_base@_WV?$string_output_adapter@_W@__crt_stdio_output@@@2@@__crt_stdio_output@@AEAA_NXZ 0000000180077040 f i libucrtd:output.obj
 0001:00076060       ?type_case_c@?$output_processor@_WV?$string_output_adapter@_W@__crt_stdio_output@@V?$standard_base@_WV?$string_output_adapter@_W@__crt_stdio_output@@@2@@__crt_stdio_output@@AEAA_NXZ 0000000180077060 f i libucrtd:output.obj
 0001:00076080       ?type_case_c_tchar@?$output_processor@DV?$stream_output_adapter@D@__crt_stdio_output@@V?$format_validation_base@DV?$stream_output_adapter@D@__crt_stdio_output@@@2@@__crt_stdio_output@@AEAA_ND@Z 0000000180077080 f i libucrtd:output.obj
 0001:000761e0       ?type_case_c_tchar@?$output_processor@DV?$stream_output_adapter@D@__crt_stdio_output@@V?$positional_parameter_base@DV?$stream_output_adapter@D@__crt_stdio_output@@@2@@__crt_stdio_output@@AEAA_ND@Z 00000001800771e0 f i libucrtd:output.obj
 0001:00076340       ?type_case_c_tchar@?$output_processor@DV?$stream_output_adapter@D@__crt_stdio_output@@V?$standard_base@DV?$stream_output_adapter@D@__crt_stdio_output@@@2@@__crt_stdio_output@@AEAA_ND@Z 0000000180077340 f i libucrtd:output.obj
 0001:000764a0       ?type_case_c_tchar@?$output_processor@DV?$string_output_adapter@D@__crt_stdio_output@@V?$format_validation_base@DV?$string_output_adapter@D@__crt_stdio_output@@@2@@__crt_stdio_output@@AEAA_ND@Z 00000001800774a0 f i libucrtd:output.obj
 0001:00076600       ?type_case_c_tchar@?$output_processor@DV?$string_output_adapter@D@__crt_stdio_output@@V?$positional_parameter_base@DV?$string_output_adapter@D@__crt_stdio_output@@@2@@__crt_stdio_output@@AEAA_ND@Z 0000000180077600 f i libucrtd:output.obj
 0001:00076760       ?type_case_c_tchar@?$output_processor@DV?$string_output_adapter@D@__crt_stdio_output@@V?$standard_base@DV?$string_output_adapter@D@__crt_stdio_output@@@2@@__crt_stdio_output@@AEAA_ND@Z 0000000180077760 f i libucrtd:output.obj
 0001:000768c0       ?type_case_c_tchar@?$output_processor@_WV?$stream_output_adapter@_W@__crt_stdio_output@@V?$format_validation_base@_WV?$stream_output_adapter@_W@__crt_stdio_output@@@2@@__crt_stdio_output@@AEAA_N_W@Z 00000001800778c0 f i libucrtd:output.obj
 0001:000769f0       ?type_case_c_tchar@?$output_processor@_WV?$stream_output_adapter@_W@__crt_stdio_output@@V?$positional_parameter_base@_WV?$stream_output_adapter@_W@__crt_stdio_output@@@2@@__crt_stdio_output@@AEAA_N_W@Z 00000001800779f0 f i libucrtd:output.obj
 0001:00076b20       ?type_case_c_tchar@?$output_processor@_WV?$stream_output_adapter@_W@__crt_stdio_output@@V?$standard_base@_WV?$stream_output_adapter@_W@__crt_stdio_output@@@2@@__crt_stdio_output@@AEAA_N_W@Z 0000000180077b20 f i libucrtd:output.obj
 0001:00076c50       ?type_case_c_tchar@?$output_processor@_WV?$string_output_adapter@_W@__crt_stdio_output@@V?$format_validation_base@_WV?$string_output_adapter@_W@__crt_stdio_output@@@2@@__crt_stdio_output@@AEAA_N_W@Z 0000000180077c50 f i libucrtd:output.obj
 0001:00076d80       ?type_case_c_tchar@?$output_processor@_WV?$string_output_adapter@_W@__crt_stdio_output@@V?$positional_parameter_base@_WV?$string_output_adapter@_W@__crt_stdio_output@@@2@@__crt_stdio_output@@AEAA_N_W@Z 0000000180077d80 f i libucrtd:output.obj
 0001:00076eb0       ?type_case_c_tchar@?$output_processor@_WV?$string_output_adapter@_W@__crt_stdio_output@@V?$standard_base@_WV?$string_output_adapter@_W@__crt_stdio_output@@@2@@__crt_stdio_output@@AEAA_N_W@Z 0000000180077eb0 f i libucrtd:output.obj
 0001:00076fe0       ?type_case_d@?$output_processor@DV?$stream_output_adapter@D@__crt_stdio_output@@V?$format_validation_base@DV?$stream_output_adapter@D@__crt_stdio_output@@@2@@__crt_stdio_output@@AEAA_NXZ 0000000180077fe0 f i libucrtd:output.obj
 0001:00077010       ?type_case_d@?$output_processor@DV?$stream_output_adapter@D@__crt_stdio_output@@V?$positional_parameter_base@DV?$stream_output_adapter@D@__crt_stdio_output@@@2@@__crt_stdio_output@@AEAA_NXZ 0000000180078010 f i libucrtd:output.obj
 0001:00077040       ?type_case_d@?$output_processor@DV?$stream_output_adapter@D@__crt_stdio_output@@V?$standard_base@DV?$stream_output_adapter@D@__crt_stdio_output@@@2@@__crt_stdio_output@@AEAA_NXZ 0000000180078040 f i libucrtd:output.obj
 0001:00077070       ?type_case_d@?$output_processor@DV?$string_output_adapter@D@__crt_stdio_output@@V?$format_validation_base@DV?$string_output_adapter@D@__crt_stdio_output@@@2@@__crt_stdio_output@@AEAA_NXZ 0000000180078070 f i libucrtd:output.obj
 0001:000770a0       ?type_case_d@?$output_processor@DV?$string_output_adapter@D@__crt_stdio_output@@V?$positional_parameter_base@DV?$string_output_adapter@D@__crt_stdio_output@@@2@@__crt_stdio_output@@AEAA_NXZ 00000001800780a0 f i libucrtd:output.obj
 0001:000770d0       ?type_case_d@?$output_processor@DV?$string_output_adapter@D@__crt_stdio_output@@V?$standard_base@DV?$string_output_adapter@D@__crt_stdio_output@@@2@@__crt_stdio_output@@AEAA_NXZ 00000001800780d0 f i libucrtd:output.obj
 0001:00077100       ?type_case_d@?$output_processor@_WV?$stream_output_adapter@_W@__crt_stdio_output@@V?$format_validation_base@_WV?$stream_output_adapter@_W@__crt_stdio_output@@@2@@__crt_stdio_output@@AEAA_NXZ 0000000180078100 f i libucrtd:output.obj
 0001:00077130       ?type_case_d@?$output_processor@_WV?$stream_output_adapter@_W@__crt_stdio_output@@V?$positional_parameter_base@_WV?$stream_output_adapter@_W@__crt_stdio_output@@@2@@__crt_stdio_output@@AEAA_NXZ 0000000180078130 f i libucrtd:output.obj
 0001:00077160       ?type_case_d@?$output_processor@_WV?$stream_output_adapter@_W@__crt_stdio_output@@V?$standard_base@_WV?$stream_output_adapter@_W@__crt_stdio_output@@@2@@__crt_stdio_output@@AEAA_NXZ 0000000180078160 f i libucrtd:output.obj
 0001:00077190       ?type_case_d@?$output_processor@_WV?$string_output_adapter@_W@__crt_stdio_output@@V?$format_validation_base@_WV?$string_output_adapter@_W@__crt_stdio_output@@@2@@__crt_stdio_output@@AEAA_NXZ 0000000180078190 f i libucrtd:output.obj
 0001:000771c0       ?type_case_d@?$output_processor@_WV?$string_output_adapter@_W@__crt_stdio_output@@V?$positional_parameter_base@_WV?$string_output_adapter@_W@__crt_stdio_output@@@2@@__crt_stdio_output@@AEAA_NXZ 00000001800781c0 f i libucrtd:output.obj
 0001:000771f0       ?type_case_d@?$output_processor@_WV?$string_output_adapter@_W@__crt_stdio_output@@V?$standard_base@_WV?$string_output_adapter@_W@__crt_stdio_output@@@2@@__crt_stdio_output@@AEAA_NXZ 00000001800781f0 f i libucrtd:output.obj
 0001:00077220       ?type_case_integer@?$output_processor@DV?$stream_output_adapter@D@__crt_stdio_output@@V?$format_validation_base@DV?$stream_output_adapter@D@__crt_stdio_output@@@2@@__crt_stdio_output@@AEAA_NI_N@Z 0000000180078220 f i libucrtd:output.obj
 0001:00077670       ?type_case_integer@?$output_processor@DV?$stream_output_adapter@D@__crt_stdio_output@@V?$positional_parameter_base@DV?$stream_output_adapter@D@__crt_stdio_output@@@2@@__crt_stdio_output@@AEAA_NI_N@Z 0000000180078670 f i libucrtd:output.obj
 0001:00077ac0       ?type_case_integer@?$output_processor@DV?$stream_output_adapter@D@__crt_stdio_output@@V?$standard_base@DV?$stream_output_adapter@D@__crt_stdio_output@@@2@@__crt_stdio_output@@AEAA_NI_N@Z 0000000180078ac0 f i libucrtd:output.obj
 0001:00077f10       ?type_case_integer@?$output_processor@DV?$string_output_adapter@D@__crt_stdio_output@@V?$format_validation_base@DV?$string_output_adapter@D@__crt_stdio_output@@@2@@__crt_stdio_output@@AEAA_NI_N@Z 0000000180078f10 f i libucrtd:output.obj
 0001:00078360       ?type_case_integer@?$output_processor@DV?$string_output_adapter@D@__crt_stdio_output@@V?$positional_parameter_base@DV?$string_output_adapter@D@__crt_stdio_output@@@2@@__crt_stdio_output@@AEAA_NI_N@Z 0000000180079360 f i libucrtd:output.obj
 0001:000787b0       ?type_case_integer@?$output_processor@DV?$string_output_adapter@D@__crt_stdio_output@@V?$standard_base@DV?$string_output_adapter@D@__crt_stdio_output@@@2@@__crt_stdio_output@@AEAA_NI_N@Z 00000001800797b0 f i libucrtd:output.obj
 0001:00078c00       ?type_case_integer@?$output_processor@_WV?$stream_output_adapter@_W@__crt_stdio_output@@V?$format_validation_base@_WV?$stream_output_adapter@_W@__crt_stdio_output@@@2@@__crt_stdio_output@@AEAA_NI_N@Z 0000000180079c00 f i libucrtd:output.obj
 0001:00079050       ?type_case_integer@?$output_processor@_WV?$stream_output_adapter@_W@__crt_stdio_output@@V?$positional_parameter_base@_WV?$stream_output_adapter@_W@__crt_stdio_output@@@2@@__crt_stdio_output@@AEAA_NI_N@Z 000000018007a050 f i libucrtd:output.obj
 0001:000794a0       ?type_case_integer@?$output_processor@_WV?$stream_output_adapter@_W@__crt_stdio_output@@V?$standard_base@_WV?$stream_output_adapter@_W@__crt_stdio_output@@@2@@__crt_stdio_output@@AEAA_NI_N@Z 000000018007a4a0 f i libucrtd:output.obj
 0001:000798f0       ?type_case_integer@?$output_processor@_WV?$string_output_adapter@_W@__crt_stdio_output@@V?$format_validation_base@_WV?$string_output_adapter@_W@__crt_stdio_output@@@2@@__crt_stdio_output@@AEAA_NI_N@Z 000000018007a8f0 f i libucrtd:output.obj
 0001:00079d40       ?type_case_integer@?$output_processor@_WV?$string_output_adapter@_W@__crt_stdio_output@@V?$positional_parameter_base@_WV?$string_output_adapter@_W@__crt_stdio_output@@@2@@__crt_stdio_output@@AEAA_NI_N@Z 000000018007ad40 f i libucrtd:output.obj
 0001:0007a190       ?type_case_integer@?$output_processor@_WV?$string_output_adapter@_W@__crt_stdio_output@@V?$standard_base@_WV?$string_output_adapter@_W@__crt_stdio_output@@@2@@__crt_stdio_output@@AEAA_NI_N@Z 000000018007b190 f i libucrtd:output.obj
 0001:0007a5e0       ?type_case_n@?$output_processor@DV?$stream_output_adapter@D@__crt_stdio_output@@V?$format_validation_base@DV?$stream_output_adapter@D@__crt_stdio_output@@@2@@__crt_stdio_output@@AEAA_NXZ 000000018007b5e0 f i libucrtd:output.obj
 0001:0007a820       ?type_case_n@?$output_processor@DV?$stream_output_adapter@D@__crt_stdio_output@@V?$positional_parameter_base@DV?$stream_output_adapter@D@__crt_stdio_output@@@2@@__crt_stdio_output@@AEAA_NXZ 000000018007b820 f i libucrtd:output.obj
 0001:0007aa60       ?type_case_n@?$output_processor@DV?$stream_output_adapter@D@__crt_stdio_output@@V?$standard_base@DV?$stream_output_adapter@D@__crt_stdio_output@@@2@@__crt_stdio_output@@AEAA_NXZ 000000018007ba60 f i libucrtd:output.obj
 0001:0007aca0       ?type_case_n@?$output_processor@DV?$string_output_adapter@D@__crt_stdio_output@@V?$format_validation_base@DV?$string_output_adapter@D@__crt_stdio_output@@@2@@__crt_stdio_output@@AEAA_NXZ 000000018007bca0 f i libucrtd:output.obj
 0001:0007aee0       ?type_case_n@?$output_processor@DV?$string_output_adapter@D@__crt_stdio_output@@V?$positional_parameter_base@DV?$string_output_adapter@D@__crt_stdio_output@@@2@@__crt_stdio_output@@AEAA_NXZ 000000018007bee0 f i libucrtd:output.obj
 0001:0007b120       ?type_case_n@?$output_processor@DV?$string_output_adapter@D@__crt_stdio_output@@V?$standard_base@DV?$string_output_adapter@D@__crt_stdio_output@@@2@@__crt_stdio_output@@AEAA_NXZ 000000018007c120 f i libucrtd:output.obj
 0001:0007b360       ?type_case_n@?$output_processor@_WV?$stream_output_adapter@_W@__crt_stdio_output@@V?$format_validation_base@_WV?$stream_output_adapter@_W@__crt_stdio_output@@@2@@__crt_stdio_output@@AEAA_NXZ 000000018007c360 f i libucrtd:output.obj
 0001:0007b5a0       ?type_case_n@?$output_processor@_WV?$stream_output_adapter@_W@__crt_stdio_output@@V?$positional_parameter_base@_WV?$stream_output_adapter@_W@__crt_stdio_output@@@2@@__crt_stdio_output@@AEAA_NXZ 000000018007c5a0 f i libucrtd:output.obj
 0001:0007b7e0       ?type_case_n@?$output_processor@_WV?$stream_output_adapter@_W@__crt_stdio_output@@V?$standard_base@_WV?$stream_output_adapter@_W@__crt_stdio_output@@@2@@__crt_stdio_output@@AEAA_NXZ 000000018007c7e0 f i libucrtd:output.obj
 0001:0007ba20       ?type_case_n@?$output_processor@_WV?$string_output_adapter@_W@__crt_stdio_output@@V?$format_validation_base@_WV?$string_output_adapter@_W@__crt_stdio_output@@@2@@__crt_stdio_output@@AEAA_NXZ 000000018007ca20 f i libucrtd:output.obj
 0001:0007bc60       ?type_case_n@?$output_processor@_WV?$string_output_adapter@_W@__crt_stdio_output@@V?$positional_parameter_base@_WV?$string_output_adapter@_W@__crt_stdio_output@@@2@@__crt_stdio_output@@AEAA_NXZ 000000018007cc60 f i libucrtd:output.obj
 0001:0007bea0       ?type_case_n@?$output_processor@_WV?$string_output_adapter@_W@__crt_stdio_output@@V?$standard_base@_WV?$string_output_adapter@_W@__crt_stdio_output@@@2@@__crt_stdio_output@@AEAA_NXZ 000000018007cea0 f i libucrtd:output.obj
 0001:0007c0e0       ?type_case_o@?$output_processor@DV?$stream_output_adapter@D@__crt_stdio_output@@V?$format_validation_base@DV?$stream_output_adapter@D@__crt_stdio_output@@@2@@__crt_stdio_output@@AEAA_NXZ 000000018007d0e0 f i libucrtd:output.obj
 0001:0007c130       ?type_case_o@?$output_processor@DV?$stream_output_adapter@D@__crt_stdio_output@@V?$positional_parameter_base@DV?$stream_output_adapter@D@__crt_stdio_output@@@2@@__crt_stdio_output@@AEAA_NXZ 000000018007d130 f i libucrtd:output.obj
 0001:0007c180       ?type_case_o@?$output_processor@DV?$stream_output_adapter@D@__crt_stdio_output@@V?$standard_base@DV?$stream_output_adapter@D@__crt_stdio_output@@@2@@__crt_stdio_output@@AEAA_NXZ 000000018007d180 f i libucrtd:output.obj
 0001:0007c1d0       ?type_case_o@?$output_processor@DV?$string_output_adapter@D@__crt_stdio_output@@V?$format_validation_base@DV?$string_output_adapter@D@__crt_stdio_output@@@2@@__crt_stdio_output@@AEAA_NXZ 000000018007d1d0 f i libucrtd:output.obj
 0001:0007c220       ?type_case_o@?$output_processor@DV?$string_output_adapter@D@__crt_stdio_output@@V?$positional_parameter_base@DV?$string_output_adapter@D@__crt_stdio_output@@@2@@__crt_stdio_output@@AEAA_NXZ 000000018007d220 f i libucrtd:output.obj
 0001:0007c270       ?type_case_o@?$output_processor@DV?$string_output_adapter@D@__crt_stdio_output@@V?$standard_base@DV?$string_output_adapter@D@__crt_stdio_output@@@2@@__crt_stdio_output@@AEAA_NXZ 000000018007d270 f i libucrtd:output.obj
 0001:0007c2c0       ?type_case_o@?$output_processor@_WV?$stream_output_adapter@_W@__crt_stdio_output@@V?$format_validation_base@_WV?$stream_output_adapter@_W@__crt_stdio_output@@@2@@__crt_stdio_output@@AEAA_NXZ 000000018007d2c0 f i libucrtd:output.obj
 0001:0007c310       ?type_case_o@?$output_processor@_WV?$stream_output_adapter@_W@__crt_stdio_output@@V?$positional_parameter_base@_WV?$stream_output_adapter@_W@__crt_stdio_output@@@2@@__crt_stdio_output@@AEAA_NXZ 000000018007d310 f i libucrtd:output.obj
 0001:0007c360       ?type_case_o@?$output_processor@_WV?$stream_output_adapter@_W@__crt_stdio_output@@V?$standard_base@_WV?$stream_output_adapter@_W@__crt_stdio_output@@@2@@__crt_stdio_output@@AEAA_NXZ 000000018007d360 f i libucrtd:output.obj
 0001:0007c3b0       ?type_case_o@?$output_processor@_WV?$string_output_adapter@_W@__crt_stdio_output@@V?$format_validation_base@_WV?$string_output_adapter@_W@__crt_stdio_output@@@2@@__crt_stdio_output@@AEAA_NXZ 000000018007d3b0 f i libucrtd:output.obj
 0001:0007c400       ?type_case_o@?$output_processor@_WV?$string_output_adapter@_W@__crt_stdio_output@@V?$positional_parameter_base@_WV?$string_output_adapter@_W@__crt_stdio_output@@@2@@__crt_stdio_output@@AEAA_NXZ 000000018007d400 f i libucrtd:output.obj
 0001:0007c450       ?type_case_o@?$output_processor@_WV?$string_output_adapter@_W@__crt_stdio_output@@V?$standard_base@_WV?$string_output_adapter@_W@__crt_stdio_output@@@2@@__crt_stdio_output@@AEAA_NXZ 000000018007d450 f i libucrtd:output.obj
 0001:0007c4a0       ?type_case_p@?$output_processor@DV?$stream_output_adapter@D@__crt_stdio_output@@V?$format_validation_base@DV?$stream_output_adapter@D@__crt_stdio_output@@@2@@__crt_stdio_output@@AEAA_NXZ 000000018007d4a0 f i libucrtd:output.obj
 0001:0007c4e0       ?type_case_p@?$output_processor@DV?$stream_output_adapter@D@__crt_stdio_output@@V?$positional_parameter_base@DV?$stream_output_adapter@D@__crt_stdio_output@@@2@@__crt_stdio_output@@AEAA_NXZ 000000018007d4e0 f i libucrtd:output.obj
 0001:0007c520       ?type_case_p@?$output_processor@DV?$stream_output_adapter@D@__crt_stdio_output@@V?$standard_base@DV?$stream_output_adapter@D@__crt_stdio_output@@@2@@__crt_stdio_output@@AEAA_NXZ 000000018007d520 f i libucrtd:output.obj
 0001:0007c560       ?type_case_p@?$output_processor@DV?$string_output_adapter@D@__crt_stdio_output@@V?$format_validation_base@DV?$string_output_adapter@D@__crt_stdio_output@@@2@@__crt_stdio_output@@AEAA_NXZ 000000018007d560 f i libucrtd:output.obj
 0001:0007c5a0       ?type_case_p@?$output_processor@DV?$string_output_adapter@D@__crt_stdio_output@@V?$positional_parameter_base@DV?$string_output_adapter@D@__crt_stdio_output@@@2@@__crt_stdio_output@@AEAA_NXZ 000000018007d5a0 f i libucrtd:output.obj
 0001:0007c5e0       ?type_case_p@?$output_processor@DV?$string_output_adapter@D@__crt_stdio_output@@V?$standard_base@DV?$string_output_adapter@D@__crt_stdio_output@@@2@@__crt_stdio_output@@AEAA_NXZ 000000018007d5e0 f i libucrtd:output.obj
 0001:0007c620       ?type_case_p@?$output_processor@_WV?$stream_output_adapter@_W@__crt_stdio_output@@V?$format_validation_base@_WV?$stream_output_adapter@_W@__crt_stdio_output@@@2@@__crt_stdio_output@@AEAA_NXZ 000000018007d620 f i libucrtd:output.obj
 0001:0007c660       ?type_case_p@?$output_processor@_WV?$stream_output_adapter@_W@__crt_stdio_output@@V?$positional_parameter_base@_WV?$stream_output_adapter@_W@__crt_stdio_output@@@2@@__crt_stdio_output@@AEAA_NXZ 000000018007d660 f i libucrtd:output.obj
 0001:0007c6a0       ?type_case_p@?$output_processor@_WV?$stream_output_adapter@_W@__crt_stdio_output@@V?$standard_base@_WV?$stream_output_adapter@_W@__crt_stdio_output@@@2@@__crt_stdio_output@@AEAA_NXZ 000000018007d6a0 f i libucrtd:output.obj
 0001:0007c6e0       ?type_case_p@?$output_processor@_WV?$string_output_adapter@_W@__crt_stdio_output@@V?$format_validation_base@_WV?$string_output_adapter@_W@__crt_stdio_output@@@2@@__crt_stdio_output@@AEAA_NXZ 000000018007d6e0 f i libucrtd:output.obj
 0001:0007c720       ?type_case_p@?$output_processor@_WV?$string_output_adapter@_W@__crt_stdio_output@@V?$positional_parameter_base@_WV?$string_output_adapter@_W@__crt_stdio_output@@@2@@__crt_stdio_output@@AEAA_NXZ 000000018007d720 f i libucrtd:output.obj
 0001:0007c760       ?type_case_p@?$output_processor@_WV?$string_output_adapter@_W@__crt_stdio_output@@V?$standard_base@_WV?$string_output_adapter@_W@__crt_stdio_output@@@2@@__crt_stdio_output@@AEAA_NXZ 000000018007d760 f i libucrtd:output.obj
 0001:0007c7a0       ?type_case_s@?$output_processor@DV?$stream_output_adapter@D@__crt_stdio_output@@V?$format_validation_base@DV?$stream_output_adapter@D@__crt_stdio_output@@@2@@__crt_stdio_output@@AEAA_NXZ 000000018007d7a0 f i libucrtd:output.obj
 0001:0007c8c0       ?type_case_s@?$output_processor@DV?$stream_output_adapter@D@__crt_stdio_output@@V?$positional_parameter_base@DV?$stream_output_adapter@D@__crt_stdio_output@@@2@@__crt_stdio_output@@AEAA_NXZ 000000018007d8c0 f i libucrtd:output.obj
 0001:0007c9e0       ?type_case_s@?$output_processor@DV?$stream_output_adapter@D@__crt_stdio_output@@V?$standard_base@DV?$stream_output_adapter@D@__crt_stdio_output@@@2@@__crt_stdio_output@@AEAA_NXZ 000000018007d9e0 f i libucrtd:output.obj
 0001:0007cb00       ?type_case_s@?$output_processor@DV?$string_output_adapter@D@__crt_stdio_output@@V?$format_validation_base@DV?$string_output_adapter@D@__crt_stdio_output@@@2@@__crt_stdio_output@@AEAA_NXZ 000000018007db00 f i libucrtd:output.obj
 0001:0007cc20       ?type_case_s@?$output_processor@DV?$string_output_adapter@D@__crt_stdio_output@@V?$positional_parameter_base@DV?$string_output_adapter@D@__crt_stdio_output@@@2@@__crt_stdio_output@@AEAA_NXZ 000000018007dc20 f i libucrtd:output.obj
 0001:0007cd40       ?type_case_s@?$output_processor@DV?$string_output_adapter@D@__crt_stdio_output@@V?$standard_base@DV?$string_output_adapter@D@__crt_stdio_output@@@2@@__crt_stdio_output@@AEAA_NXZ 000000018007dd40 f i libucrtd:output.obj
 0001:0007ce60       ?type_case_s@?$output_processor@_WV?$stream_output_adapter@_W@__crt_stdio_output@@V?$format_validation_base@_WV?$stream_output_adapter@_W@__crt_stdio_output@@@2@@__crt_stdio_output@@AEAA_NXZ 000000018007de60 f i libucrtd:output.obj
 0001:0007cf80       ?type_case_s@?$output_processor@_WV?$stream_output_adapter@_W@__crt_stdio_output@@V?$positional_parameter_base@_WV?$stream_output_adapter@_W@__crt_stdio_output@@@2@@__crt_stdio_output@@AEAA_NXZ 000000018007df80 f i libucrtd:output.obj
 0001:0007d0a0       ?type_case_s@?$output_processor@_WV?$stream_output_adapter@_W@__crt_stdio_output@@V?$standard_base@_WV?$stream_output_adapter@_W@__crt_stdio_output@@@2@@__crt_stdio_output@@AEAA_NXZ 000000018007e0a0 f i libucrtd:output.obj
 0001:0007d1c0       ?type_case_s@?$output_processor@_WV?$string_output_adapter@_W@__crt_stdio_output@@V?$format_validation_base@_WV?$string_output_adapter@_W@__crt_stdio_output@@@2@@__crt_stdio_output@@AEAA_NXZ 000000018007e1c0 f i libucrtd:output.obj
 0001:0007d2e0       ?type_case_s@?$output_processor@_WV?$string_output_adapter@_W@__crt_stdio_output@@V?$positional_parameter_base@_WV?$string_output_adapter@_W@__crt_stdio_output@@@2@@__crt_stdio_output@@AEAA_NXZ 000000018007e2e0 f i libucrtd:output.obj
 0001:0007d400       ?type_case_s@?$output_processor@_WV?$string_output_adapter@_W@__crt_stdio_output@@V?$standard_base@_WV?$string_output_adapter@_W@__crt_stdio_output@@@2@@__crt_stdio_output@@AEAA_NXZ 000000018007e400 f i libucrtd:output.obj
 0001:0007d520       ?type_case_s_compute_narrow_string_length@?$output_processor@DV?$stream_output_adapter@D@__crt_stdio_output@@V?$format_validation_base@DV?$stream_output_adapter@D@__crt_stdio_output@@@2@@__crt_stdio_output@@AEBAHHD@Z 000000018007e520 f i libucrtd:output.obj
 0001:0007d550       ?type_case_s_compute_narrow_string_length@?$output_processor@DV?$stream_output_adapter@D@__crt_stdio_output@@V?$positional_parameter_base@DV?$stream_output_adapter@D@__crt_stdio_output@@@2@@__crt_stdio_output@@AEBAHHD@Z 000000018007e550 f i libucrtd:output.obj
 0001:0007d580       ?type_case_s_compute_narrow_string_length@?$output_processor@DV?$stream_output_adapter@D@__crt_stdio_output@@V?$standard_base@DV?$stream_output_adapter@D@__crt_stdio_output@@@2@@__crt_stdio_output@@AEBAHHD@Z 000000018007e580 f i libucrtd:output.obj
 0001:0007d5b0       ?type_case_s_compute_narrow_string_length@?$output_processor@DV?$string_output_adapter@D@__crt_stdio_output@@V?$format_validation_base@DV?$string_output_adapter@D@__crt_stdio_output@@@2@@__crt_stdio_output@@AEBAHHD@Z 000000018007e5b0 f i libucrtd:output.obj
 0001:0007d5e0       ?type_case_s_compute_narrow_string_length@?$output_processor@DV?$string_output_adapter@D@__crt_stdio_output@@V?$positional_parameter_base@DV?$string_output_adapter@D@__crt_stdio_output@@@2@@__crt_stdio_output@@AEBAHHD@Z 000000018007e5e0 f i libucrtd:output.obj
 0001:0007d610       ?type_case_s_compute_narrow_string_length@?$output_processor@DV?$string_output_adapter@D@__crt_stdio_output@@V?$standard_base@DV?$string_output_adapter@D@__crt_stdio_output@@@2@@__crt_stdio_output@@AEBAHHD@Z 000000018007e610 f i libucrtd:output.obj
 0001:0007d640       ?type_case_s_compute_narrow_string_length@?$output_processor@_WV?$stream_output_adapter@_W@__crt_stdio_output@@V?$format_validation_base@_WV?$stream_output_adapter@_W@__crt_stdio_output@@@2@@__crt_stdio_output@@AEBAHH_W@Z 000000018007e640 f i libucrtd:output.obj
 0001:0007d6d0       ?type_case_s_compute_narrow_string_length@?$output_processor@_WV?$stream_output_adapter@_W@__crt_stdio_output@@V?$positional_parameter_base@_WV?$stream_output_adapter@_W@__crt_stdio_output@@@2@@__crt_stdio_output@@AEBAHH_W@Z 000000018007e6d0 f i libucrtd:output.obj
 0001:0007d760       ?type_case_s_compute_narrow_string_length@?$output_processor@_WV?$stream_output_adapter@_W@__crt_stdio_output@@V?$standard_base@_WV?$stream_output_adapter@_W@__crt_stdio_output@@@2@@__crt_stdio_output@@AEBAHH_W@Z 000000018007e760 f i libucrtd:output.obj
 0001:0007d7f0       ?type_case_s_compute_narrow_string_length@?$output_processor@_WV?$string_output_adapter@_W@__crt_stdio_output@@V?$format_validation_base@_WV?$string_output_adapter@_W@__crt_stdio_output@@@2@@__crt_stdio_output@@AEBAHH_W@Z 000000018007e7f0 f i libucrtd:output.obj
 0001:0007d880       ?type_case_s_compute_narrow_string_length@?$output_processor@_WV?$string_output_adapter@_W@__crt_stdio_output@@V?$positional_parameter_base@_WV?$string_output_adapter@_W@__crt_stdio_output@@@2@@__crt_stdio_output@@AEBAHH_W@Z 000000018007e880 f i libucrtd:output.obj
 0001:0007d910       ?type_case_s_compute_narrow_string_length@?$output_processor@_WV?$string_output_adapter@_W@__crt_stdio_output@@V?$standard_base@_WV?$string_output_adapter@_W@__crt_stdio_output@@@2@@__crt_stdio_output@@AEBAHH_W@Z 000000018007e910 f i libucrtd:output.obj
 0001:0007d9a0       ?type_case_u@?$output_processor@DV?$stream_output_adapter@D@__crt_stdio_output@@V?$format_validation_base@DV?$stream_output_adapter@D@__crt_stdio_output@@@2@@__crt_stdio_output@@AEAA_NXZ 000000018007e9a0 f i libucrtd:output.obj
 0001:0007d9c0       ?type_case_u@?$output_processor@DV?$stream_output_adapter@D@__crt_stdio_output@@V?$positional_parameter_base@DV?$stream_output_adapter@D@__crt_stdio_output@@@2@@__crt_stdio_output@@AEAA_NXZ 000000018007e9c0 f i libucrtd:output.obj
 0001:0007d9e0       ?type_case_u@?$output_processor@DV?$stream_output_adapter@D@__crt_stdio_output@@V?$standard_base@DV?$stream_output_adapter@D@__crt_stdio_output@@@2@@__crt_stdio_output@@AEAA_NXZ 000000018007e9e0 f i libucrtd:output.obj
 0001:0007da00       ?type_case_u@?$output_processor@DV?$string_output_adapter@D@__crt_stdio_output@@V?$format_validation_base@DV?$string_output_adapter@D@__crt_stdio_output@@@2@@__crt_stdio_output@@AEAA_NXZ 000000018007ea00 f i libucrtd:output.obj
 0001:0007da20       ?type_case_u@?$output_processor@DV?$string_output_adapter@D@__crt_stdio_output@@V?$positional_parameter_base@DV?$string_output_adapter@D@__crt_stdio_output@@@2@@__crt_stdio_output@@AEAA_NXZ 000000018007ea20 f i libucrtd:output.obj
 0001:0007da40       ?type_case_u@?$output_processor@DV?$string_output_adapter@D@__crt_stdio_output@@V?$standard_base@DV?$string_output_adapter@D@__crt_stdio_output@@@2@@__crt_stdio_output@@AEAA_NXZ 000000018007ea40 f i libucrtd:output.obj
 0001:0007da60       ?type_case_u@?$output_processor@_WV?$stream_output_adapter@_W@__crt_stdio_output@@V?$format_validation_base@_WV?$stream_output_adapter@_W@__crt_stdio_output@@@2@@__crt_stdio_output@@AEAA_NXZ 000000018007ea60 f i libucrtd:output.obj
 0001:0007da80       ?type_case_u@?$output_processor@_WV?$stream_output_adapter@_W@__crt_stdio_output@@V?$positional_parameter_base@_WV?$stream_output_adapter@_W@__crt_stdio_output@@@2@@__crt_stdio_output@@AEAA_NXZ 000000018007ea80 f i libucrtd:output.obj
 0001:0007daa0       ?type_case_u@?$output_processor@_WV?$stream_output_adapter@_W@__crt_stdio_output@@V?$standard_base@_WV?$stream_output_adapter@_W@__crt_stdio_output@@@2@@__crt_stdio_output@@AEAA_NXZ 000000018007eaa0 f i libucrtd:output.obj
 0001:0007dac0       ?type_case_u@?$output_processor@_WV?$string_output_adapter@_W@__crt_stdio_output@@V?$format_validation_base@_WV?$string_output_adapter@_W@__crt_stdio_output@@@2@@__crt_stdio_output@@AEAA_NXZ 000000018007eac0 f i libucrtd:output.obj
 0001:0007dae0       ?type_case_u@?$output_processor@_WV?$string_output_adapter@_W@__crt_stdio_output@@V?$positional_parameter_base@_WV?$string_output_adapter@_W@__crt_stdio_output@@@2@@__crt_stdio_output@@AEAA_NXZ 000000018007eae0 f i libucrtd:output.obj
 0001:0007db00       ?type_case_u@?$output_processor@_WV?$string_output_adapter@_W@__crt_stdio_output@@V?$standard_base@_WV?$string_output_adapter@_W@__crt_stdio_output@@@2@@__crt_stdio_output@@AEAA_NXZ 000000018007eb00 f i libucrtd:output.obj
 0001:0007db20       ?type_case_x@?$output_processor@DV?$stream_output_adapter@D@__crt_stdio_output@@V?$format_validation_base@DV?$stream_output_adapter@D@__crt_stdio_output@@@2@@__crt_stdio_output@@AEAA_NXZ 000000018007eb20 f i libucrtd:output.obj
 0001:0007db40       ?type_case_x@?$output_processor@DV?$stream_output_adapter@D@__crt_stdio_output@@V?$positional_parameter_base@DV?$stream_output_adapter@D@__crt_stdio_output@@@2@@__crt_stdio_output@@AEAA_NXZ 000000018007eb40 f i libucrtd:output.obj
 0001:0007db60       ?type_case_x@?$output_processor@DV?$stream_output_adapter@D@__crt_stdio_output@@V?$standard_base@DV?$stream_output_adapter@D@__crt_stdio_output@@@2@@__crt_stdio_output@@AEAA_NXZ 000000018007eb60 f i libucrtd:output.obj
 0001:0007db80       ?type_case_x@?$output_processor@DV?$string_output_adapter@D@__crt_stdio_output@@V?$format_validation_base@DV?$string_output_adapter@D@__crt_stdio_output@@@2@@__crt_stdio_output@@AEAA_NXZ 000000018007eb80 f i libucrtd:output.obj
 0001:0007dba0       ?type_case_x@?$output_processor@DV?$string_output_adapter@D@__crt_stdio_output@@V?$positional_parameter_base@DV?$string_output_adapter@D@__crt_stdio_output@@@2@@__crt_stdio_output@@AEAA_NXZ 000000018007eba0 f i libucrtd:output.obj
 0001:0007dbc0       ?type_case_x@?$output_processor@DV?$string_output_adapter@D@__crt_stdio_output@@V?$standard_base@DV?$string_output_adapter@D@__crt_stdio_output@@@2@@__crt_stdio_output@@AEAA_NXZ 000000018007ebc0 f i libucrtd:output.obj
 0001:0007dbe0       ?type_case_x@?$output_processor@_WV?$stream_output_adapter@_W@__crt_stdio_output@@V?$format_validation_base@_WV?$stream_output_adapter@_W@__crt_stdio_output@@@2@@__crt_stdio_output@@AEAA_NXZ 000000018007ebe0 f i libucrtd:output.obj
 0001:0007dc00       ?type_case_x@?$output_processor@_WV?$stream_output_adapter@_W@__crt_stdio_output@@V?$positional_parameter_base@_WV?$stream_output_adapter@_W@__crt_stdio_output@@@2@@__crt_stdio_output@@AEAA_NXZ 000000018007ec00 f i libucrtd:output.obj
 0001:0007dc20       ?type_case_x@?$output_processor@_WV?$stream_output_adapter@_W@__crt_stdio_output@@V?$standard_base@_WV?$stream_output_adapter@_W@__crt_stdio_output@@@2@@__crt_stdio_output@@AEAA_NXZ 000000018007ec20 f i libucrtd:output.obj
 0001:0007dc40       ?type_case_x@?$output_processor@_WV?$string_output_adapter@_W@__crt_stdio_output@@V?$format_validation_base@_WV?$string_output_adapter@_W@__crt_stdio_output@@@2@@__crt_stdio_output@@AEAA_NXZ 000000018007ec40 f i libucrtd:output.obj
 0001:0007dc60       ?type_case_x@?$output_processor@_WV?$string_output_adapter@_W@__crt_stdio_output@@V?$positional_parameter_base@_WV?$string_output_adapter@_W@__crt_stdio_output@@@2@@__crt_stdio_output@@AEAA_NXZ 000000018007ec60 f i libucrtd:output.obj
 0001:0007dc80       ?type_case_x@?$output_processor@_WV?$string_output_adapter@_W@__crt_stdio_output@@V?$standard_base@_WV?$string_output_adapter@_W@__crt_stdio_output@@@2@@__crt_stdio_output@@AEAA_NXZ 000000018007ec80 f i libucrtd:output.obj
 0001:0007dca0       ?unset_flag@?$output_processor@DV?$stream_output_adapter@D@__crt_stdio_output@@V?$format_validation_base@DV?$stream_output_adapter@D@__crt_stdio_output@@@2@@__crt_stdio_output@@AEAAXI@Z 000000018007eca0 f i libucrtd:output.obj
 0001:0007dcd0       ?unset_flag@?$output_processor@DV?$stream_output_adapter@D@__crt_stdio_output@@V?$positional_parameter_base@DV?$stream_output_adapter@D@__crt_stdio_output@@@2@@__crt_stdio_output@@AEAAXI@Z 000000018007ecd0 f i libucrtd:output.obj
 0001:0007dd00       ?unset_flag@?$output_processor@DV?$stream_output_adapter@D@__crt_stdio_output@@V?$standard_base@DV?$stream_output_adapter@D@__crt_stdio_output@@@2@@__crt_stdio_output@@AEAAXI@Z 000000018007ed00 f i libucrtd:output.obj
 0001:0007dd30       ?unset_flag@?$output_processor@DV?$string_output_adapter@D@__crt_stdio_output@@V?$format_validation_base@DV?$string_output_adapter@D@__crt_stdio_output@@@2@@__crt_stdio_output@@AEAAXI@Z 000000018007ed30 f i libucrtd:output.obj
 0001:0007dd60       ?unset_flag@?$output_processor@DV?$string_output_adapter@D@__crt_stdio_output@@V?$positional_parameter_base@DV?$string_output_adapter@D@__crt_stdio_output@@@2@@__crt_stdio_output@@AEAAXI@Z 000000018007ed60 f i libucrtd:output.obj
 0001:0007dd90       ?unset_flag@?$output_processor@DV?$string_output_adapter@D@__crt_stdio_output@@V?$standard_base@DV?$string_output_adapter@D@__crt_stdio_output@@@2@@__crt_stdio_output@@AEAAXI@Z 000000018007ed90 f i libucrtd:output.obj
 0001:0007ddc0       ?unset_flag@?$output_processor@_WV?$stream_output_adapter@_W@__crt_stdio_output@@V?$format_validation_base@_WV?$stream_output_adapter@_W@__crt_stdio_output@@@2@@__crt_stdio_output@@AEAAXI@Z 000000018007edc0 f i libucrtd:output.obj
 0001:0007ddf0       ?unset_flag@?$output_processor@_WV?$stream_output_adapter@_W@__crt_stdio_output@@V?$positional_parameter_base@_WV?$stream_output_adapter@_W@__crt_stdio_output@@@2@@__crt_stdio_output@@AEAAXI@Z 000000018007edf0 f i libucrtd:output.obj
 0001:0007de20       ?unset_flag@?$output_processor@_WV?$stream_output_adapter@_W@__crt_stdio_output@@V?$standard_base@_WV?$stream_output_adapter@_W@__crt_stdio_output@@@2@@__crt_stdio_output@@AEAAXI@Z 000000018007ee20 f i libucrtd:output.obj
 0001:0007de50       ?unset_flag@?$output_processor@_WV?$string_output_adapter@_W@__crt_stdio_output@@V?$format_validation_base@_WV?$string_output_adapter@_W@__crt_stdio_output@@@2@@__crt_stdio_output@@AEAAXI@Z 000000018007ee50 f i libucrtd:output.obj
 0001:0007de80       ?unset_flag@?$output_processor@_WV?$string_output_adapter@_W@__crt_stdio_output@@V?$positional_parameter_base@_WV?$string_output_adapter@_W@__crt_stdio_output@@@2@@__crt_stdio_output@@AEAAXI@Z 000000018007ee80 f i libucrtd:output.obj
 0001:0007deb0       ?unset_flag@?$output_processor@_WV?$string_output_adapter@_W@__crt_stdio_output@@V?$standard_base@_WV?$string_output_adapter@_W@__crt_stdio_output@@@2@@__crt_stdio_output@@AEAAXI@Z 000000018007eeb0 f i libucrtd:output.obj
 0001:0007dee0       ?update_field_width@?$positional_parameter_base@DV?$stream_output_adapter@D@__crt_stdio_output@@@__crt_stdio_output@@IEAA_NXZ 000000018007eee0 f i libucrtd:output.obj
 0001:0007e0d0       ?update_field_width@?$positional_parameter_base@DV?$string_output_adapter@D@__crt_stdio_output@@@__crt_stdio_output@@IEAA_NXZ 000000018007f0d0 f i libucrtd:output.obj
 0001:0007e2c0       ?update_field_width@?$positional_parameter_base@_WV?$stream_output_adapter@_W@__crt_stdio_output@@@__crt_stdio_output@@IEAA_NXZ 000000018007f2c0 f i libucrtd:output.obj
 0001:0007e4b0       ?update_field_width@?$positional_parameter_base@_WV?$string_output_adapter@_W@__crt_stdio_output@@@__crt_stdio_output@@IEAA_NXZ 000000018007f4b0 f i libucrtd:output.obj
 0001:0007e6a0       ?update_field_width@?$standard_base@DV?$stream_output_adapter@D@__crt_stdio_output@@@__crt_stdio_output@@IEAA_NXZ 000000018007f6a0 f i libucrtd:output.obj
 0001:0007e6d0       ?update_field_width@?$standard_base@DV?$string_output_adapter@D@__crt_stdio_output@@@__crt_stdio_output@@IEAA_NXZ 000000018007f6d0 f i libucrtd:output.obj
 0001:0007e700       ?update_field_width@?$standard_base@_WV?$stream_output_adapter@_W@__crt_stdio_output@@@__crt_stdio_output@@IEAA_NXZ 000000018007f700 f i libucrtd:output.obj
 0001:0007e730       ?update_field_width@?$standard_base@_WV?$string_output_adapter@_W@__crt_stdio_output@@@__crt_stdio_output@@IEAA_NXZ 000000018007f730 f i libucrtd:output.obj
 0001:0007e760       ?update_precision@?$positional_parameter_base@DV?$stream_output_adapter@D@__crt_stdio_output@@@__crt_stdio_output@@IEAA_NXZ 000000018007f760 f i libucrtd:output.obj
 0001:0007e950       ?update_precision@?$positional_parameter_base@DV?$string_output_adapter@D@__crt_stdio_output@@@__crt_stdio_output@@IEAA_NXZ 000000018007f950 f i libucrtd:output.obj
 0001:0007eb40       ?update_precision@?$positional_parameter_base@_WV?$stream_output_adapter@_W@__crt_stdio_output@@@__crt_stdio_output@@IEAA_NXZ 000000018007fb40 f i libucrtd:output.obj
 0001:0007ed30       ?update_precision@?$positional_parameter_base@_WV?$string_output_adapter@_W@__crt_stdio_output@@@__crt_stdio_output@@IEAA_NXZ 000000018007fd30 f i libucrtd:output.obj
 0001:0007ef20       ?update_precision@?$standard_base@DV?$stream_output_adapter@D@__crt_stdio_output@@@__crt_stdio_output@@IEAA_NXZ 000000018007ff20 f i libucrtd:output.obj
 0001:0007ef50       ?update_precision@?$standard_base@DV?$string_output_adapter@D@__crt_stdio_output@@@__crt_stdio_output@@IEAA_NXZ 000000018007ff50 f i libucrtd:output.obj
 0001:0007ef80       ?update_precision@?$standard_base@_WV?$stream_output_adapter@_W@__crt_stdio_output@@@__crt_stdio_output@@IEAA_NXZ 000000018007ff80 f i libucrtd:output.obj
 0001:0007efb0       ?update_precision@?$standard_base@_WV?$string_output_adapter@_W@__crt_stdio_output@@@__crt_stdio_output@@IEAA_NXZ 000000018007ffb0 f i libucrtd:output.obj
 0001:0007efe0       ?valid@__crt_stdio_stream@@QEBA_NXZ 000000018007ffe0 f i libucrtd:output.obj
 0001:0007f010       ?validate@?$stream_output_adapter@D@__crt_stdio_output@@QEBA_NXZ 0000000180080010 f i libucrtd:output.obj
 0001:0007f0f0       ?validate@?$stream_output_adapter@_W@__crt_stdio_output@@QEBA_NXZ 00000001800800f0 f i libucrtd:output.obj
 0001:0007f1d0       ?validate@?$string_output_adapter@D@__crt_stdio_output@@QEBA_NXZ 00000001800801d0 f i libucrtd:output.obj
 0001:0007f290       ?validate@?$string_output_adapter@_W@__crt_stdio_output@@QEBA_NXZ 0000000180080290 f i libucrtd:output.obj
 0001:0007f350       ?validate_and_store_parameter_data@?$positional_parameter_base@DV?$stream_output_adapter@D@__crt_stdio_output@@@__crt_stdio_output@@AEAA_NAEAUparameter_data@12@W4parameter_type@12@DW4length_modifier@2@@Z 0000000180080350 f i libucrtd:output.obj
 0001:0007f470       ?validate_and_store_parameter_data@?$positional_parameter_base@DV?$string_output_adapter@D@__crt_stdio_output@@@__crt_stdio_output@@AEAA_NAEAUparameter_data@12@W4parameter_type@12@DW4length_modifier@2@@Z 0000000180080470 f i libucrtd:output.obj
 0001:0007f590       ?validate_and_store_parameter_data@?$positional_parameter_base@_WV?$stream_output_adapter@_W@__crt_stdio_output@@@__crt_stdio_output@@AEAA_NAEAUparameter_data@12@W4parameter_type@12@_WW4length_modifier@2@@Z 0000000180080590 f i libucrtd:output.obj
 0001:0007f6b0       ?validate_and_store_parameter_data@?$positional_parameter_base@_WV?$string_output_adapter@_W@__crt_stdio_output@@@__crt_stdio_output@@AEAA_NAEAUparameter_data@12@W4parameter_type@12@_WW4length_modifier@2@@Z 00000001800806b0 f i libucrtd:output.obj
 0001:0007f7d0       ?validate_and_update_state_at_beginning_of_format_character@?$positional_parameter_base@DV?$stream_output_adapter@D@__crt_stdio_output@@@__crt_stdio_output@@IEAA_NXZ 00000001800807d0 f i libucrtd:output.obj
 0001:0007fab0       ?validate_and_update_state_at_beginning_of_format_character@?$positional_parameter_base@DV?$string_output_adapter@D@__crt_stdio_output@@@__crt_stdio_output@@IEAA_NXZ 0000000180080ab0 f i libucrtd:output.obj
 0001:0007fd90       ?validate_and_update_state_at_beginning_of_format_character@?$positional_parameter_base@_WV?$stream_output_adapter@_W@__crt_stdio_output@@@__crt_stdio_output@@IEAA_NXZ 0000000180080d90 f i libucrtd:output.obj
 0001:00080070       ?validate_and_update_state_at_beginning_of_format_character@?$positional_parameter_base@_WV?$string_output_adapter@_W@__crt_stdio_output@@@__crt_stdio_output@@IEAA_NXZ 0000000180081070 f i libucrtd:output.obj
 0001:00080350       ?validate_and_update_state_at_beginning_of_format_character@?$standard_base@DV?$stream_output_adapter@D@__crt_stdio_output@@@__crt_stdio_output@@IEAA_NXZ 0000000180081350 f i libucrtd:output.obj
 0001:00080360       ?validate_and_update_state_at_beginning_of_format_character@?$standard_base@DV?$string_output_adapter@D@__crt_stdio_output@@@__crt_stdio_output@@IEAA_NXZ 0000000180081360 f i libucrtd:output.obj
 0001:00080370       ?validate_and_update_state_at_beginning_of_format_character@?$standard_base@_WV?$stream_output_adapter@_W@__crt_stdio_output@@@__crt_stdio_output@@IEAA_NXZ 0000000180081370 f i libucrtd:output.obj
 0001:00080380       ?validate_and_update_state_at_beginning_of_format_character@?$standard_base@_WV?$string_output_adapter@_W@__crt_stdio_output@@@__crt_stdio_output@@IEAA_NXZ 0000000180081380 f i libucrtd:output.obj
 0001:00080390       ?validate_and_update_state_at_end_of_format_string@?$format_validation_base@DV?$stream_output_adapter@D@__crt_stdio_output@@@__crt_stdio_output@@IEBA_NXZ 0000000180081390 f i libucrtd:output.obj
 0001:00080450       ?validate_and_update_state_at_end_of_format_string@?$format_validation_base@DV?$string_output_adapter@D@__crt_stdio_output@@@__crt_stdio_output@@IEBA_NXZ 0000000180081450 f i libucrtd:output.obj
 0001:00080510       ?validate_and_update_state_at_end_of_format_string@?$format_validation_base@_WV?$stream_output_adapter@_W@__crt_stdio_output@@@__crt_stdio_output@@IEBA_NXZ 0000000180081510 f i libucrtd:output.obj
 0001:000805d0       ?validate_and_update_state_at_end_of_format_string@?$format_validation_base@_WV?$string_output_adapter@_W@__crt_stdio_output@@@__crt_stdio_output@@IEBA_NXZ 00000001800815d0 f i libucrtd:output.obj
 0001:00080690       ?validate_and_update_state_at_end_of_format_string@?$positional_parameter_base@DV?$stream_output_adapter@D@__crt_stdio_output@@@__crt_stdio_output@@IEAA_NXZ 0000000180081690 f i libucrtd:output.obj
 0001:00080880       ?validate_and_update_state_at_end_of_format_string@?$positional_parameter_base@DV?$string_output_adapter@D@__crt_stdio_output@@@__crt_stdio_output@@IEAA_NXZ 0000000180081880 f i libucrtd:output.obj
 0001:00080a70       ?validate_and_update_state_at_end_of_format_string@?$positional_parameter_base@_WV?$stream_output_adapter@_W@__crt_stdio_output@@@__crt_stdio_output@@IEAA_NXZ 0000000180081a70 f i libucrtd:output.obj
 0001:00080c60       ?validate_and_update_state_at_end_of_format_string@?$positional_parameter_base@_WV?$string_output_adapter@_W@__crt_stdio_output@@@__crt_stdio_output@@IEAA_NXZ 0000000180081c60 f i libucrtd:output.obj
 0001:00080e50       ?validate_and_update_state_at_end_of_format_string@?$standard_base@DV?$stream_output_adapter@D@__crt_stdio_output@@@__crt_stdio_output@@IEBA_NXZ 0000000180081e50 f i libucrtd:output.obj
 0001:00080e60       ?validate_and_update_state_at_end_of_format_string@?$standard_base@DV?$string_output_adapter@D@__crt_stdio_output@@@__crt_stdio_output@@IEBA_NXZ 0000000180081e60 f i libucrtd:output.obj
 0001:00080e70       ?validate_and_update_state_at_end_of_format_string@?$standard_base@_WV?$stream_output_adapter@_W@__crt_stdio_output@@@__crt_stdio_output@@IEBA_NXZ 0000000180081e70 f i libucrtd:output.obj
 0001:00080e80       ?validate_and_update_state_at_end_of_format_string@?$standard_base@_WV?$string_output_adapter@_W@__crt_stdio_output@@@__crt_stdio_output@@IEBA_NXZ 0000000180081e80 f i libucrtd:output.obj
 0001:00080e90       ?validate_state_for_type_case_a@?$positional_parameter_base@DV?$stream_output_adapter@D@__crt_stdio_output@@@__crt_stdio_output@@IEAA_NXZ 0000000180081e90 f i libucrtd:output.obj
 0001:00080fd0       ?validate_state_for_type_case_a@?$positional_parameter_base@DV?$string_output_adapter@D@__crt_stdio_output@@@__crt_stdio_output@@IEAA_NXZ 0000000180081fd0 f i libucrtd:output.obj
 0001:00081110       ?validate_state_for_type_case_a@?$positional_parameter_base@_WV?$stream_output_adapter@_W@__crt_stdio_output@@@__crt_stdio_output@@IEAA_NXZ 0000000180082110 f i libucrtd:output.obj
 0001:00081250       ?validate_state_for_type_case_a@?$positional_parameter_base@_WV?$string_output_adapter@_W@__crt_stdio_output@@@__crt_stdio_output@@IEAA_NXZ 0000000180082250 f i libucrtd:output.obj
 0001:00081390       ?validate_state_for_type_case_a@?$standard_base@DV?$stream_output_adapter@D@__crt_stdio_output@@@__crt_stdio_output@@IEBA_NXZ 0000000180082390 f i libucrtd:output.obj
 0001:000813a0       ?validate_state_for_type_case_a@?$standard_base@DV?$string_output_adapter@D@__crt_stdio_output@@@__crt_stdio_output@@IEBA_NXZ 00000001800823a0 f i libucrtd:output.obj
 0001:000813b0       ?validate_state_for_type_case_a@?$standard_base@_WV?$stream_output_adapter@_W@__crt_stdio_output@@@__crt_stdio_output@@IEBA_NXZ 00000001800823b0 f i libucrtd:output.obj
 0001:000813c0       ?validate_state_for_type_case_a@?$standard_base@_WV?$string_output_adapter@_W@__crt_stdio_output@@@__crt_stdio_output@@IEBA_NXZ 00000001800823c0 f i libucrtd:output.obj
 0001:000813d0       ?validate_stream_is_ansi_if_required@?$__acrt_stdio_char_traits@D@@SA_NQEAU_iobuf@@@Z 00000001800823d0 f i libucrtd:output.obj
 0001:00081560       ?validate_stream_is_ansi_if_required@?$__acrt_stdio_char_traits@_W@@SA_NQEAU_iobuf@@@Z 0000000180082560 f i libucrtd:output.obj
 0001:00081570       ?wide_null_string@?$output_processor@DV?$stream_output_adapter@D@__crt_stdio_output@@V?$format_validation_base@DV?$stream_output_adapter@D@__crt_stdio_output@@@2@@__crt_stdio_output@@CAPEA_WXZ 0000000180082570 f i libucrtd:output.obj
 0001:00081580       ?wide_null_string@?$output_processor@DV?$stream_output_adapter@D@__crt_stdio_output@@V?$positional_parameter_base@DV?$stream_output_adapter@D@__crt_stdio_output@@@2@@__crt_stdio_output@@CAPEA_WXZ 0000000180082580 f i libucrtd:output.obj
 0001:00081590       ?wide_null_string@?$output_processor@DV?$stream_output_adapter@D@__crt_stdio_output@@V?$standard_base@DV?$stream_output_adapter@D@__crt_stdio_output@@@2@@__crt_stdio_output@@CAPEA_WXZ 0000000180082590 f i libucrtd:output.obj
 0001:000815a0       ?wide_null_string@?$output_processor@DV?$string_output_adapter@D@__crt_stdio_output@@V?$format_validation_base@DV?$string_output_adapter@D@__crt_stdio_output@@@2@@__crt_stdio_output@@CAPEA_WXZ 00000001800825a0 f i libucrtd:output.obj
 0001:000815b0       ?wide_null_string@?$output_processor@DV?$string_output_adapter@D@__crt_stdio_output@@V?$positional_parameter_base@DV?$string_output_adapter@D@__crt_stdio_output@@@2@@__crt_stdio_output@@CAPEA_WXZ 00000001800825b0 f i libucrtd:output.obj
 0001:000815c0       ?wide_null_string@?$output_processor@DV?$string_output_adapter@D@__crt_stdio_output@@V?$standard_base@DV?$string_output_adapter@D@__crt_stdio_output@@@2@@__crt_stdio_output@@CAPEA_WXZ 00000001800825c0 f i libucrtd:output.obj
 0001:000815d0       ?wide_null_string@?$output_processor@_WV?$stream_output_adapter@_W@__crt_stdio_output@@V?$format_validation_base@_WV?$stream_output_adapter@_W@__crt_stdio_output@@@2@@__crt_stdio_output@@CAPEA_WXZ 00000001800825d0 f i libucrtd:output.obj
 0001:000815e0       ?wide_null_string@?$output_processor@_WV?$stream_output_adapter@_W@__crt_stdio_output@@V?$positional_parameter_base@_WV?$stream_output_adapter@_W@__crt_stdio_output@@@2@@__crt_stdio_output@@CAPEA_WXZ 00000001800825e0 f i libucrtd:output.obj
 0001:000815f0       ?wide_null_string@?$output_processor@_WV?$stream_output_adapter@_W@__crt_stdio_output@@V?$standard_base@_WV?$stream_output_adapter@_W@__crt_stdio_output@@@2@@__crt_stdio_output@@CAPEA_WXZ 00000001800825f0 f i libucrtd:output.obj
 0001:00081600       ?wide_null_string@?$output_processor@_WV?$string_output_adapter@_W@__crt_stdio_output@@V?$format_validation_base@_WV?$string_output_adapter@_W@__crt_stdio_output@@@2@@__crt_stdio_output@@CAPEA_WXZ 0000000180082600 f i libucrtd:output.obj
 0001:00081610       ?wide_null_string@?$output_processor@_WV?$string_output_adapter@_W@__crt_stdio_output@@V?$positional_parameter_base@_WV?$string_output_adapter@_W@__crt_stdio_output@@@2@@__crt_stdio_output@@CAPEA_WXZ 0000000180082610 f i libucrtd:output.obj
 0001:00081620       ?wide_null_string@?$output_processor@_WV?$string_output_adapter@_W@__crt_stdio_output@@V?$standard_base@_WV?$string_output_adapter@_W@__crt_stdio_output@@@2@@__crt_stdio_output@@CAPEA_WXZ 0000000180082620 f i libucrtd:output.obj
 0001:00081630       ?write_character@?$output_adapter_common@DV?$stream_output_adapter@D@__crt_stdio_output@@@__crt_stdio_output@@QEBAXDQEAH@Z 0000000180082630 f i libucrtd:output.obj
 0001:00081680       ?write_character@?$output_adapter_common@_WV?$stream_output_adapter@_W@__crt_stdio_output@@@__crt_stdio_output@@QEBAX_WQEAH@Z 0000000180082680 f i libucrtd:output.obj
 0001:000816d0       ?write_character@?$string_output_adapter@D@__crt_stdio_output@@QEBA_NDQEAH@Z 00000001800826d0 f i libucrtd:output.obj
 0001:00081790       ?write_character@?$string_output_adapter@_W@__crt_stdio_output@@QEBA_N_WQEAH@Z 0000000180082790 f i libucrtd:output.obj
 0001:00081850       ?write_character_without_count_update@?$stream_output_adapter@D@__crt_stdio_output@@QEBA_ND@Z 0000000180082850 f i libucrtd:output.obj
 0001:000818d0       ?write_character_without_count_update@?$stream_output_adapter@_W@__crt_stdio_output@@QEBA_N_W@Z 00000001800828d0 f i libucrtd:output.obj
 0001:00081960       ?write_stored_string_tchar@?$output_processor@DV?$stream_output_adapter@D@__crt_stdio_output@@V?$format_validation_base@DV?$stream_output_adapter@D@__crt_stdio_output@@@2@@__crt_stdio_output@@AEAA_ND@Z 0000000180082960 f i libucrtd:output.obj
 0001:00081b20       ?write_stored_string_tchar@?$output_processor@DV?$stream_output_adapter@D@__crt_stdio_output@@V?$positional_parameter_base@DV?$stream_output_adapter@D@__crt_stdio_output@@@2@@__crt_stdio_output@@AEAA_ND@Z 0000000180082b20 f i libucrtd:output.obj
 0001:00081ce0       ?write_stored_string_tchar@?$output_processor@DV?$stream_output_adapter@D@__crt_stdio_output@@V?$standard_base@DV?$stream_output_adapter@D@__crt_stdio_output@@@2@@__crt_stdio_output@@AEAA_ND@Z 0000000180082ce0 f i libucrtd:output.obj
 0001:00081ea0       ?write_stored_string_tchar@?$output_processor@DV?$string_output_adapter@D@__crt_stdio_output@@V?$format_validation_base@DV?$string_output_adapter@D@__crt_stdio_output@@@2@@__crt_stdio_output@@AEAA_ND@Z 0000000180082ea0 f i libucrtd:output.obj
 0001:00082060       ?write_stored_string_tchar@?$output_processor@DV?$string_output_adapter@D@__crt_stdio_output@@V?$positional_parameter_base@DV?$string_output_adapter@D@__crt_stdio_output@@@2@@__crt_stdio_output@@AEAA_ND@Z 0000000180083060 f i libucrtd:output.obj
 0001:00082220       ?write_stored_string_tchar@?$output_processor@DV?$string_output_adapter@D@__crt_stdio_output@@V?$standard_base@DV?$string_output_adapter@D@__crt_stdio_output@@@2@@__crt_stdio_output@@AEAA_ND@Z 0000000180083220 f i libucrtd:output.obj
 0001:000823e0       ?write_stored_string_tchar@?$output_processor@_WV?$stream_output_adapter@_W@__crt_stdio_output@@V?$format_validation_base@_WV?$stream_output_adapter@_W@__crt_stdio_output@@@2@@__crt_stdio_output@@AEAA_N_W@Z 00000001800833e0 f i libucrtd:output.obj
 0001:00082530       ?write_stored_string_tchar@?$output_processor@_WV?$stream_output_adapter@_W@__crt_stdio_output@@V?$positional_parameter_base@_WV?$stream_output_adapter@_W@__crt_stdio_output@@@2@@__crt_stdio_output@@AEAA_N_W@Z 0000000180083530 f i libucrtd:output.obj
 0001:00082680       ?write_stored_string_tchar@?$output_processor@_WV?$stream_output_adapter@_W@__crt_stdio_output@@V?$standard_base@_WV?$stream_output_adapter@_W@__crt_stdio_output@@@2@@__crt_stdio_output@@AEAA_N_W@Z 0000000180083680 f i libucrtd:output.obj
 0001:000827d0       ?write_stored_string_tchar@?$output_processor@_WV?$string_output_adapter@_W@__crt_stdio_output@@V?$format_validation_base@_WV?$string_output_adapter@_W@__crt_stdio_output@@@2@@__crt_stdio_output@@AEAA_N_W@Z 00000001800837d0 f i libucrtd:output.obj
 0001:00082920       ?write_stored_string_tchar@?$output_processor@_WV?$string_output_adapter@_W@__crt_stdio_output@@V?$positional_parameter_base@_WV?$string_output_adapter@_W@__crt_stdio_output@@@2@@__crt_stdio_output@@AEAA_N_W@Z 0000000180083920 f i libucrtd:output.obj
 0001:00082a70       ?write_stored_string_tchar@?$output_processor@_WV?$string_output_adapter@_W@__crt_stdio_output@@V?$standard_base@_WV?$string_output_adapter@_W@__crt_stdio_output@@@2@@__crt_stdio_output@@AEAA_N_W@Z 0000000180083a70 f i libucrtd:output.obj
 0001:00082bc0       ?write_string@?$stream_output_adapter@D@__crt_stdio_output@@QEBAXQEBDHQEAHAEAV__crt_deferred_errno_cache@@@Z 0000000180083bc0 f i libucrtd:output.obj
 0001:00082c40       ?write_string@?$stream_output_adapter@_W@__crt_stdio_output@@QEBAXQEB_WHQEAHAEAV__crt_deferred_errno_cache@@@Z 0000000180083c40 f i libucrtd:output.obj
 0001:00082cc0       ?write_string@?$string_output_adapter@D@__crt_stdio_output@@QEBAXQEBDHQEAHAEAV__crt_deferred_errno_cache@@@Z 0000000180083cc0 f i libucrtd:output.obj
 0001:00082e30       ?write_string@?$string_output_adapter@_W@__crt_stdio_output@@QEBAXQEB_WHQEAHAEAV__crt_deferred_errno_cache@@@Z 0000000180083e30 f i libucrtd:output.obj
 0001:00082fa0       ?write_string_impl@?$output_adapter_common@DV?$stream_output_adapter@D@__crt_stdio_output@@@__crt_stdio_output@@IEBAXQEBDHQEAHAEAV__crt_deferred_errno_cache@@@Z 0000000180083fa0 f i libucrtd:output.obj
 0001:00083080       ?write_string_impl@?$output_adapter_common@_WV?$stream_output_adapter@_W@__crt_stdio_output@@@__crt_stdio_output@@IEBAXQEB_WHQEAHAEAV__crt_deferred_errno_cache@@@Z 0000000180084080 f i libucrtd:output.obj
 0001:00083160       __acrt_disable_global_locale_sync 0000000180084160 f i libucrtd:output.obj
 0001:00083190       __acrt_enable_global_locale_sync 0000000180084190 f i libucrtd:output.obj
 0001:000831c0       __acrt_isleadbyte_l_noupdate 00000001800841c0 f i libucrtd:output.obj
 0001:000831f0       __acrt_locale_changed      00000001800841f0 f i libucrtd:output.obj
 0001:00083220       __acrt_locale_get_ctype_array_value 0000000180084220 f i libucrtd:output.obj
 0001:00083260       __stdio_common_vfprintf    0000000180084260 f   libucrtd:output.obj
 0001:000832a0       __stdio_common_vfprintf_p  00000001800842a0 f   libucrtd:output.obj
 0001:000832e0       __stdio_common_vfprintf_s  00000001800842e0 f   libucrtd:output.obj
 0001:00083320       __stdio_common_vfwprintf   0000000180084320 f   libucrtd:output.obj
 0001:00083360       __stdio_common_vfwprintf_p 0000000180084360 f   libucrtd:output.obj
 0001:000833a0       __stdio_common_vfwprintf_s 00000001800843a0 f   libucrtd:output.obj
 0001:000833e0       __stdio_common_vsnprintf_s 00000001800843e0 f   libucrtd:output.obj
 0001:00083440       __stdio_common_vsnwprintf_s 0000000180084440 f   libucrtd:output.obj
 0001:000834a0       __stdio_common_vsprintf    00000001800844a0 f   libucrtd:output.obj
 0001:000834f0       __stdio_common_vsprintf_p  00000001800844f0 f   libucrtd:output.obj
 0001:00083540       __stdio_common_vsprintf_s  0000000180084540 f   libucrtd:output.obj
 0001:00083590       __stdio_common_vswprintf   0000000180084590 f   libucrtd:output.obj
 0001:000835e0       __stdio_common_vswprintf_p 00000001800845e0 f   libucrtd:output.obj
 0001:00083630       __stdio_common_vswprintf_s 0000000180084630 f   libucrtd:output.obj
 0001:00083680       _ctype_fast_check_internal 0000000180084680 f i libucrtd:output.obj
 0001:000836b0       _isdigit_fast_internal     00000001800846b0 f i libucrtd:output.obj
 0001:000836e0       _tolower_fast_internal     00000001800846e0 f i libucrtd:output.obj
 0001:00083710       free                       0000000180084710 f   libucrtd:free.obj
 0001:00083740       malloc                     0000000180084740 f   libucrtd:malloc.obj
 0001:00083770       ??$?RU?$__crt_report_hook_node@D@@@__crt_internal_free_policy@@QEBAXQEBU?$__crt_report_hook_node@D@@@Z 0000000180084770 f i libucrtd:dbgrpt.obj
 0001:000837a0       ??$?RU?$__crt_report_hook_node@_W@@@__crt_internal_free_policy@@QEBAXQEBU?$__crt_report_hook_node@_W@@@Z 00000001800847a0 f i libucrtd:dbgrpt.obj
 0001:000849e0       ??$get_module_file_name@AEAPEAUHINSTANCE__@@AEAY0BAF@DK@?$__crt_char_traits@D@@SAKAEAPEAUHINSTANCE__@@AEAY0BAF@D$$QEAK@Z 00000001800859e0 f i libucrtd:dbgrpt.obj
 0001:00084a20       ??$get_module_file_name@AEAPEAUHINSTANCE__@@AEAY0BAF@_WK@?$__crt_char_traits@_W@@SAKAEAPEAUHINSTANCE__@@AEAY0BAF@_W$$QEAK@Z 0000000180085a20 f i libucrtd:dbgrpt.obj
 0001:00084a60       ??$tcscpy_s@AEAY0BAF@D_KPEBD@?$__crt_char_traits@D@@SAHAEAY0BAF@D$$QEA_K$$QEAPEBD@Z 0000000180085a60 f i libucrtd:dbgrpt.obj
 0001:00084aa0       ??$tcscpy_s@AEAY0BAF@_W_KPEB_W@?$__crt_char_traits@_W@@SAHAEAY0BAF@_W$$QEA_K$$QEAPEB_W@Z 0000000180085aa0 f i libucrtd:dbgrpt.obj
 0001:00084ae0       ??$tcslen@AEAY0BAF@D@?$__crt_char_traits@D@@SA_KAEAY0BAF@D@Z 0000000180085ae0 f i libucrtd:dbgrpt.obj
 0001:00084b00       ??$tcslen@AEAY0BAF@_W@?$__crt_char_traits@_W@@SA_KAEAY0BAF@_W@Z 0000000180085b00 f i libucrtd:dbgrpt.obj
 0001:00084b20       ??$tcslen@AEBQEBD@?$__crt_char_traits@D@@SA_KAEBQEBD@Z 0000000180085b20 f i libucrtd:dbgrpt.obj
 0001:00084b40       ??$tcslen@AEBQEB_W@?$__crt_char_traits@_W@@SA_KAEBQEB_W@Z 0000000180085b40 f i libucrtd:dbgrpt.obj
 0001:00084c40       ??0?$__crt_unique_heap_ptr@U?$__crt_report_hook_node@D@@U__crt_internal_free_policy@@@@QEAA@QEAU?$__crt_report_hook_node@D@@@Z 0000000180085c40 f i libucrtd:dbgrpt.obj
 0001:00084c60       ??0?$__crt_unique_heap_ptr@U?$__crt_report_hook_node@_W@@U__crt_internal_free_policy@@@@QEAA@QEAU?$__crt_report_hook_node@_W@@@Z 0000000180085c60 f i libucrtd:dbgrpt.obj
 0001:00084c80       ??1?$__crt_unique_heap_ptr@U?$__crt_report_hook_node@D@@U__crt_internal_free_policy@@@@QEAA@XZ 0000000180085c80 f i libucrtd:dbgrpt.obj
 0001:00084ca0       ??1?$__crt_unique_heap_ptr@U?$__crt_report_hook_node@_W@@U__crt_internal_free_policy@@@@QEAA@XZ 0000000180085ca0 f i libucrtd:dbgrpt.obj
 0001:00084cc0       ??B?$__crt_unique_heap_ptr@U?$__crt_report_hook_node@D@@U__crt_internal_free_policy@@@@QEBA_NXZ 0000000180085cc0 f i libucrtd:dbgrpt.obj
 0001:00084ce0       ??B?$__crt_unique_heap_ptr@U?$__crt_report_hook_node@_W@@U__crt_internal_free_policy@@@@QEBA_NXZ 0000000180085ce0 f i libucrtd:dbgrpt.obj
 0001:000853c0       ?detach@?$__crt_unique_heap_ptr@U?$__crt_report_hook_node@D@@U__crt_internal_free_policy@@@@QEAAPEAU?$__crt_report_hook_node@D@@XZ 00000001800863c0 f i libucrtd:dbgrpt.obj
 0001:000853f0       ?detach@?$__crt_unique_heap_ptr@U?$__crt_report_hook_node@_W@@U__crt_internal_free_policy@@@@QEAAPEAU?$__crt_report_hook_node@_W@@XZ 00000001800863f0 f i libucrtd:dbgrpt.obj
 0001:00085420       ?get@?$__crt_unique_heap_ptr@U?$__crt_report_hook_node@D@@U__crt_internal_free_policy@@@@QEBAPEAU?$__crt_report_hook_node@D@@XZ 0000000180086420 f i libucrtd:dbgrpt.obj
 0001:00085430       ?get@?$__crt_unique_heap_ptr@U?$__crt_report_hook_node@_W@@U__crt_internal_free_policy@@@@QEBAPEAU?$__crt_report_hook_node@_W@@XZ 0000000180086430 f i libucrtd:dbgrpt.obj
 0001:000854a0       ?is_valid@?$__crt_unique_heap_ptr@U?$__crt_report_hook_node@D@@U__crt_internal_free_policy@@@@QEBA_NXZ 00000001800864a0 f i libucrtd:dbgrpt.obj
 0001:000854d0       ?is_valid@?$__crt_unique_heap_ptr@U?$__crt_report_hook_node@_W@@U__crt_internal_free_policy@@@@QEBA_NXZ 00000001800864d0 f i libucrtd:dbgrpt.obj
 0001:00085500       ?release@?$__crt_unique_heap_ptr@U?$__crt_report_hook_node@D@@U__crt_internal_free_policy@@@@QEAAXXZ 0000000180086500 f i libucrtd:dbgrpt.obj
 0001:00085530       ?release@?$__crt_unique_heap_ptr@U?$__crt_report_hook_node@_W@@U__crt_internal_free_policy@@@@QEAAXXZ 0000000180086530 f i libucrtd:dbgrpt.obj
 0001:00085560       _CrtDbgReport              0000000180086560 f   libucrtd:dbgrpt.obj
 0001:000855e0       _CrtDbgReportW             00000001800865e0 f   libucrtd:dbgrpt.obj
 0001:00085660       _CrtSetReportHook2         0000000180086660 f   libucrtd:dbgrpt.obj
 0001:00085680       _CrtSetReportHookW2        0000000180086680 f   libucrtd:dbgrpt.obj
 0001:000856a0       __acrt_MessageWindowA      00000001800866a0 f   libucrtd:dbgrpt.obj
 0001:000856f0       __acrt_MessageWindowW      00000001800866f0 f   libucrtd:dbgrpt.obj
 0001:00085740       _invoke_watson_if_error    0000000180086740 f i libucrtd:dbgrpt.obj
 0001:00085790       _invoke_watson_if_oneof    0000000180086790 f i libucrtd:dbgrpt.obj
 0001:000857f0       _snwprintf_s               00000001800867f0 f i libucrtd:dbgrpt.obj
 0001:00085860       _vsnwprintf_s_l            0000000180086860 f i libucrtd:dbgrpt.obj
 0001:00085dc0       wcscpy_s                   0000000180086dc0 f   libucrtd:wcscpy_s.obj
 0001:00087150       ??1?$__crt_simd_cleanup_guard@$00@@QEAA@XZ 0000000180088150 f i libucrtd:strnlen.obj
 0001:00087160       ??1?$__crt_simd_cleanup_guard@$0A@@@QEAA@XZ 0000000180088160 f i libucrtd:strnlen.obj
 0001:00087170       ?compare_equals@?$__crt_simd_traits@$00E@@SA?AT__m256i@@T2@0@Z 0000000180088170 f i libucrtd:strnlen.obj
 0001:000871b0       ?compare_equals@?$__crt_simd_traits@$00G@@SA?AT__m256i@@T2@0@Z 00000001800881b0 f i libucrtd:strnlen.obj
 0001:000871f0       ?compare_equals@?$__crt_simd_traits@$0A@E@@SA?AT__m128i@@T2@0@Z 00000001800881f0 f i libucrtd:strnlen.obj
 0001:00087220       ?compare_equals@?$__crt_simd_traits@$0A@G@@SA?AT__m128i@@T2@0@Z 0000000180088220 f i libucrtd:strnlen.obj
 0001:00087250       ?compute_byte_mask@?$__crt_simd_pack_traits@$00@@SAHT__m256i@@@Z 0000000180088250 f i libucrtd:strnlen.obj
 0001:00087270       ?compute_byte_mask@?$__crt_simd_pack_traits@$0A@@@SAHT__m128i@@@Z 0000000180088270 f i libucrtd:strnlen.obj
 0001:00087290       ?get_zero_pack@?$__crt_simd_pack_traits@$00@@SA?AT__m256i@@XZ 0000000180088290 f i libucrtd:strnlen.obj
 0001:000872c0       ?get_zero_pack@?$__crt_simd_pack_traits@$0A@@@SA?AT__m128i@@XZ 00000001800882c0 f i libucrtd:strnlen.obj
 0001:000872e0       strnlen                    00000001800882e0 f   libucrtd:strnlen.obj
 0001:00087310       wcslen                     0000000180088310 f   libucrtd:strnlen.obj
 0001:00087330       wcsnlen                    0000000180088330 f   libucrtd:strnlen.obj
 0001:00087360       ??$__crt_fast_decode_pointer@P6AXPEB_W00I_K@Z@@YAP6AXPEB_W00I_K@ZQ6AX000I1@Z@Z 0000000180088360 f i libucrtd:invalid_parameter.obj
 0001:000873a0       ??$__crt_fast_encode_pointer@P6AXPEB_W00I_K@Z@@YAP6AXPEB_W00I_K@ZQ6AX000I1@Z@Z 00000001800883a0 f i libucrtd:invalid_parameter.obj
 0001:000873e0       ??$initialize_from_array@$$BY00Q6AXPEB_W00I_K@Z@?$dual_state_global@P6AXPEB_W00I_K@Z@__crt_state_management@@QEAAXAEAY00Q6AXPEB_W00I_K@Z@Z 00000001800883e0 f i libucrtd:invalid_parameter.obj
 0001:00087440       ?__crt_rotate_pointer_value@@YA_K_KH@Z 0000000180088440 f i libucrtd:invalid_parameter.obj
 0001:00087500       ?dangerous_get_state_array@?$dual_state_global@P6AXPEB_W00I_K@Z@__crt_state_management@@QEAAPEAP6AXPEB_W00I_K@ZXZ 0000000180088500 f i libucrtd:invalid_parameter.obj
 0001:00087510       ?get_current_state_index@__crt_state_management@@YA_KXZ 0000000180088510 f i libucrtd:invalid_parameter.obj
 0001:00087520       ?value@?$dual_state_global@P6AXPEB_W00I_K@Z@__crt_state_management@@QEAAAEAP6AXPEB_W00I_K@ZXZ 0000000180088520 f i libucrtd:invalid_parameter.obj
 0001:00087540       __acrt_call_reportfault    0000000180088540 f   libucrtd:invalid_parameter.obj
 0001:00087670       __acrt_initialize_invalid_parameter_handler 0000000180088670 f   libucrtd:invalid_parameter.obj
 0001:000876a0       _get_invalid_parameter_handler 00000001800886a0 f   libucrtd:invalid_parameter.obj
 0001:000876c0       _get_thread_local_invalid_parameter_handler 00000001800886c0 f   libucrtd:invalid_parameter.obj
 0001:000876f0       _invalid_parameter         00000001800886f0 f   libucrtd:invalid_parameter.obj
 0001:000877f0       _invalid_parameter_noinfo  00000001800887f0 f   libucrtd:invalid_parameter.obj
 0001:00087820       _invalid_parameter_noinfo_noreturn 0000000180088820 f   libucrtd:invalid_parameter.obj
 0001:00087860       _invoke_watson             0000000180088860 f   libucrtd:invalid_parameter.obj
 0001:000878c0       _set_invalid_parameter_handler 00000001800888c0 f   libucrtd:invalid_parameter.obj
 0001:00087910       _set_thread_local_invalid_parameter_handler 0000000180088910 f   libucrtd:invalid_parameter.obj
 0001:00087950       __acrt_errno_from_os_error 0000000180088950 f   libucrtd:errno.obj
 0001:000879e0       __acrt_errno_map_os_error  00000001800889e0 f   libucrtd:errno.obj
 0001:00087a10       __doserrno                 0000000180088a10 f   libucrtd:errno.obj
 0001:00087a40       _errno                     0000000180088a40 f   libucrtd:errno.obj
 0001:00087a70       _get_doserrno              0000000180088a70 f   libucrtd:errno.obj
 0001:00087b30       _get_errno                 0000000180088b30 f   libucrtd:errno.obj
 0001:00087bf0       _set_doserrno              0000000180088bf0 f   libucrtd:errno.obj
 0001:00087c30       _set_errno                 0000000180088c30 f   libucrtd:errno.obj
 0001:00087c70       calloc                     0000000180088c70 f   libucrtd:calloc.obj
 0001:00087cb0       _recalloc                  0000000180088cb0 f   libucrtd:recalloc.obj
 0001:00087d00       _recalloc_base             0000000180088d00 f   libucrtd:recalloc.obj
 0001:00087ddc       _resetstkoflw              0000000180088ddc f   libucrtd:resetstk.obj
 0001:00088590       wcscat_s                   0000000180089590 f   libucrtd:wcscat_s.obj
 0001:00088c60       wcsncpy_s                  0000000180089c60 f   libucrtd:wcsncpy_s.obj
 0001:00088de0       __isascii                  0000000180089de0 f   libucrtd:_ctype.obj
 0001:00088e10       __iscsym                   0000000180089e10 f   libucrtd:_ctype.obj
 0001:00088e50       __iscsymf                  0000000180089e50 f   libucrtd:_ctype.obj
 0001:00088e90       __toascii                  0000000180089e90 f   libucrtd:_ctype.obj
 0001:00088ea0       _isalnum_l                 0000000180089ea0 f   libucrtd:_ctype.obj
 0001:00088ed0       _isalpha_l                 0000000180089ed0 f   libucrtd:_ctype.obj
 0001:00088f00       _isblank_l                 0000000180089f00 f   libucrtd:_ctype.obj
 0001:00088f30       _iscntrl_l                 0000000180089f30 f   libucrtd:_ctype.obj
 0001:00088f60       _iscsym_l                  0000000180089f60 f   libucrtd:_ctype.obj
 0001:00088fb0       _iscsymf_l                 0000000180089fb0 f   libucrtd:_ctype.obj
 0001:00089000       _isdigit_l                 000000018008a000 f   libucrtd:_ctype.obj
 0001:00089030       _isgraph_l                 000000018008a030 f   libucrtd:_ctype.obj
 0001:00089060       _islower_l                 000000018008a060 f   libucrtd:_ctype.obj
 0001:00089090       _isprint_l                 000000018008a090 f   libucrtd:_ctype.obj
 0001:000890c0       _ispunct_l                 000000018008a0c0 f   libucrtd:_ctype.obj
 0001:000890f0       _isspace_l                 000000018008a0f0 f   libucrtd:_ctype.obj
 0001:00089120       _isupper_l                 000000018008a120 f   libucrtd:_ctype.obj
 0001:00089150       _isxdigit_l                000000018008a150 f   libucrtd:_ctype.obj
 0001:00089180       isalnum                    000000018008a180 f   libucrtd:_ctype.obj
 0001:000891a0       isalpha                    000000018008a1a0 f   libucrtd:_ctype.obj
 0001:000891c0       isblank                    000000018008a1c0 f   libucrtd:_ctype.obj
 0001:000891f0       iscntrl                    000000018008a1f0 f   libucrtd:_ctype.obj
 0001:00089210       isdigit                    000000018008a210 f   libucrtd:_ctype.obj
 0001:00089230       isgraph                    000000018008a230 f   libucrtd:_ctype.obj
 0001:00089250       islower                    000000018008a250 f   libucrtd:_ctype.obj
 0001:00089270       isprint                    000000018008a270 f   libucrtd:_ctype.obj
 0001:00089290       ispunct                    000000018008a290 f   libucrtd:_ctype.obj
 0001:000892b0       isspace                    000000018008a2b0 f   libucrtd:_ctype.obj
 0001:000892d0       isupper                    000000018008a2d0 f   libucrtd:_ctype.obj
 0001:000892f0       isxdigit                   000000018008a2f0 f   libucrtd:_ctype.obj
 0001:00089310       wcscat                     000000018008a310 f   libucrtd:wcscat.obj
 0001:00089390       wcscpy                     000000018008a390 f   libucrtd:wcscpy.obj
 0001:00089b40       ??$open_file@AEBQEBDAEBQEBDAEBHPEAU_iobuf@@@?$__crt_char_traits@D@@SAPEAU_iobuf@@AEBQEBD0AEBH$$QEAPEAU1@@Z 000000018008ab40 f i libucrtd:fopen.obj
 0001:00089b90       ??$open_file@AEBQEB_WAEBQEB_WAEBHPEAU_iobuf@@@?$__crt_char_traits@_W@@SAPEAU_iobuf@@AEBQEB_W0AEBH$$QEAPEAU1@@Z 000000018008ab90 f i libucrtd:fopen.obj
 0001:00089be0       ?unlock@__crt_stdio_stream@@QEBAXXZ 000000018008abe0 f i libucrtd:fopen.obj
 0001:00089c00       _fsopen                    000000018008ac00 f   libucrtd:fopen.obj
 0001:00089c30       _wfopen                    000000018008ac30 f   libucrtd:fopen.obj
 0001:00089c60       _wfopen_s                  000000018008ac60 f   libucrtd:fopen.obj
 0001:00089c90       _wfsopen                   000000018008ac90 f   libucrtd:fopen.obj
 0001:00089cc0       fopen                      000000018008acc0 f   libucrtd:fopen.obj
 0001:00089cf0       fopen_s                    000000018008acf0 f   libucrtd:fopen.obj
 0001:00089d20       ?is_in_use@__crt_stdio_stream@@QEBA_NXZ 000000018008ad20 f i libucrtd:fclose.obj
 0001:00089d60       _fclose_nolock             000000018008ad60 f   libucrtd:fclose.obj
 0001:00089ef0       fclose                     000000018008aef0 f   libucrtd:fclose.obj
 0001:0008a030       _fputc_nolock              000000018008b030 f   libucrtd:fputc.obj
 0001:0008a0e0       _fputchar                  000000018008b0e0 f   libucrtd:fputc.obj
 0001:0008a110       _putc_nolock               000000018008b110 f   libucrtd:fputc.obj
 0001:0008a130       fputc                      000000018008b130 f   libucrtd:fputc.obj
 0001:0008a3d0       putc                       000000018008b3d0 f   libucrtd:fputc.obj
 0001:0008a3f0       putchar                    000000018008b3f0 f   libucrtd:fputc.obj
 0001:0008a480       _seh_filter_dll            000000018008b480 f   libucrtd:exception_filter.obj
 0001:0008a4b0       _seh_filter_exe            000000018008b4b0 f   libucrtd:exception_filter.obj
 0001:0008a750       ??$?B$$A6AXPEAXK0@Z@__crt_fast_encoded_nullptr_t@@QEBAP6AXPEAXK0@ZXZ 000000018008b750 f i libucrtd:exit.obj
 0001:0008a800       ??$__crt_fast_decode_pointer@P6AXPEAXK0@Z@@YAP6AXPEAXK0@ZQ6AX0K0@Z@Z 000000018008b800 f i libucrtd:exit.obj
 0001:0008a840       ??$__crt_fast_encode_pointer@P6AXPEAXK0@Z@@YAP6AXPEAXK0@ZQ6AX0K0@Z@Z 000000018008b840 f i libucrtd:exit.obj
 0001:0008a880       ??$__crt_get_proc_address@P6AXI@Z@@YAP6AXI@ZQEAUHINSTANCE__@@QEBD@Z 000000018008b880 f i libucrtd:exit.obj
 0001:0008a940       ??0?$__crt_unique_handle_t@U__crt_hmodule_traits@@@@QEAA@QEAUHINSTANCE__@@@Z 000000018008b940 f i libucrtd:exit.obj
 0001:0008a960       ??1?$__crt_unique_handle_t@U__crt_hmodule_traits@@@@QEAA@XZ 000000018008b960 f i libucrtd:exit.obj
 0001:0008aac0       ?__acrt_select_exit_lock@@YA?AW4__acrt_lock_id@@XZ 000000018008bac0 f i libucrtd:exit.obj
 0001:0008aad0       ?__crt_fast_encode_pointer@@YA?AU__crt_fast_encoded_nullptr_t@@$$T@Z 000000018008bad0 f i libucrtd:exit.obj
 0001:0008ab10       ?close@?$__crt_unique_handle_t@U__crt_hmodule_traits@@@@QEAAXXZ 000000018008bb10 f i libucrtd:exit.obj
 0001:0008ab50       ?close@__crt_hmodule_traits@@SA_NPEAUHINSTANCE__@@@Z 000000018008bb50 f i libucrtd:exit.obj
 0001:0008ac60       ?get@?$__crt_unique_handle_t@U__crt_hmodule_traits@@@@QEBAPEAUHINSTANCE__@@XZ 000000018008bc60 f i libucrtd:exit.obj
 0001:0008ac70       ?get_address_of@?$__crt_unique_handle_t@U__crt_hmodule_traits@@@@QEAAPEAPEAUHINSTANCE__@@XZ 000000018008bc70 f i libucrtd:exit.obj
 0001:0008ac80       ?get_invalid_value@__crt_hmodule_traits@@SAPEAUHINSTANCE__@@XZ 000000018008bc80 f i libucrtd:exit.obj
 0001:0008ae40       _Exit                      000000018008be40 f   libucrtd:exit.obj
 0001:0008ae60       __acrt_initialize_thread_local_exit_callback 000000018008be60 f   libucrtd:exit.obj
 0001:0008ae80       _c_exit                    000000018008be80 f   libucrtd:exit.obj
 0001:0008aea0       _cexit                     000000018008bea0 f   libucrtd:exit.obj
 0001:0008aec0       _exit                      000000018008bec0 f   libucrtd:exit.obj
 0001:0008aee0       _is_c_termination_complete 000000018008bee0 f   libucrtd:exit.obj
 0001:0008af00       _register_thread_local_exe_atexit_callback 000000018008bf00 f   libucrtd:exit.obj
 0001:0008af50       exit                       000000018008bf50 f   libucrtd:exit.obj
 0001:0008af70       quick_exit                 000000018008bf70 f   libucrtd:exit.obj
 0001:0008af90       ??$?RE@__crt_internal_free_policy@@QEBAXQEBE@Z 000000018008bf90 f i libucrtd:argv_parsing.obj
 0001:0008afc0       ??$?RPEAD@__crt_internal_free_policy@@QEBAXQEBQEAD@Z 000000018008bfc0 f i libucrtd:argv_parsing.obj
 0001:0008aff0       ??$?RPEA_W@__crt_internal_free_policy@@QEBAXQEBQEA_W@Z 000000018008bff0 f i libucrtd:argv_parsing.obj
 0001:0008b740       ??$get_module_file_name@$$TAEAY0BAF@DH@?$__crt_char_traits@D@@SAK$$QEA$$TAEAY0BAF@D$$QEAH@Z 000000018008c740 f i libucrtd:argv_parsing.obj
 0001:0008b780       ??$get_module_file_name@$$TAEAY0BAF@_WH@?$__crt_char_traits@_W@@SAK$$QEA$$TAEAY0BAF@_W$$QEAH@Z 000000018008c780 f i libucrtd:argv_parsing.obj
 0001:0008c130       ??$set_program_name@PEAD@?$__crt_char_traits@D@@SAX$$QEAPEAD@Z 000000018008d130 f i libucrtd:argv_parsing.obj
 0001:0008c150       ??$set_program_name@PEA_W@?$__crt_char_traits@_W@@SAX$$QEAPEA_W@Z 000000018008d150 f i libucrtd:argv_parsing.obj
 0001:0008c1b0       ??0?$__crt_unique_heap_ptr@EU__crt_internal_free_policy@@@@QEAA@QEAE@Z 000000018008d1b0 f i libucrtd:argv_parsing.obj
 0001:0008c1d0       ??0?$__crt_unique_heap_ptr@PEADU__crt_internal_free_policy@@@@QEAA@QEAPEAD@Z 000000018008d1d0 f i libucrtd:argv_parsing.obj
 0001:0008c1f0       ??0?$__crt_unique_heap_ptr@PEA_WU__crt_internal_free_policy@@@@QEAA@QEAPEA_W@Z 000000018008d1f0 f i libucrtd:argv_parsing.obj
 0001:0008c210       ??1?$__crt_unique_heap_ptr@EU__crt_internal_free_policy@@@@QEAA@XZ 000000018008d210 f i libucrtd:argv_parsing.obj
 0001:0008c230       ??1?$__crt_unique_heap_ptr@PEADU__crt_internal_free_policy@@@@QEAA@XZ 000000018008d230 f i libucrtd:argv_parsing.obj
 0001:0008c250       ??1?$__crt_unique_heap_ptr@PEA_WU__crt_internal_free_policy@@@@QEAA@XZ 000000018008d250 f i libucrtd:argv_parsing.obj
 0001:0008c270       ??B?$__crt_unique_heap_ptr@EU__crt_internal_free_policy@@@@QEBA_NXZ 000000018008d270 f i libucrtd:argv_parsing.obj
 0001:0008c350       ?detach@?$__crt_unique_heap_ptr@EU__crt_internal_free_policy@@@@QEAAPEAEXZ 000000018008d350 f i libucrtd:argv_parsing.obj
 0001:0008c380       ?detach@?$__crt_unique_heap_ptr@PEADU__crt_internal_free_policy@@@@QEAAPEAPEADXZ 000000018008d380 f i libucrtd:argv_parsing.obj
 0001:0008c3b0       ?detach@?$__crt_unique_heap_ptr@PEA_WU__crt_internal_free_policy@@@@QEAAPEAPEA_WXZ 000000018008d3b0 f i libucrtd:argv_parsing.obj
 0001:0008c470       ?get@?$__crt_unique_heap_ptr@EU__crt_internal_free_policy@@@@QEBAPEAEXZ 000000018008d470 f i libucrtd:argv_parsing.obj
 0001:0008c480       ?get@?$__crt_unique_heap_ptr@PEADU__crt_internal_free_policy@@@@QEBAPEAPEADXZ 000000018008d480 f i libucrtd:argv_parsing.obj
 0001:0008c490       ?get@?$__crt_unique_heap_ptr@PEA_WU__crt_internal_free_policy@@@@QEBAPEAPEA_WXZ 000000018008d490 f i libucrtd:argv_parsing.obj
 0001:0008c4a0       ?get_address_of@?$__crt_unique_heap_ptr@PEADU__crt_internal_free_policy@@@@QEAAPEAPEAPEADXZ 000000018008d4a0 f i libucrtd:argv_parsing.obj
 0001:0008c4b0       ?get_address_of@?$__crt_unique_heap_ptr@PEA_WU__crt_internal_free_policy@@@@QEAAPEAPEAPEA_WXZ 000000018008d4b0 f i libucrtd:argv_parsing.obj
 0001:0008c500       ?is_valid@?$__crt_unique_heap_ptr@EU__crt_internal_free_policy@@@@QEBA_NXZ 000000018008d500 f i libucrtd:argv_parsing.obj
 0001:0008c530       ?release@?$__crt_unique_heap_ptr@EU__crt_internal_free_policy@@@@QEAAXXZ 000000018008d530 f i libucrtd:argv_parsing.obj
 0001:0008c560       ?release@?$__crt_unique_heap_ptr@PEADU__crt_internal_free_policy@@@@QEAAXXZ 000000018008d560 f i libucrtd:argv_parsing.obj
 0001:0008c590       ?release@?$__crt_unique_heap_ptr@PEA_WU__crt_internal_free_policy@@@@QEAAXXZ 000000018008d590 f i libucrtd:argv_parsing.obj
 0001:0008c610       __acrt_allocate_buffer_for_argv 000000018008d610 f   libucrtd:argv_parsing.obj
 0001:0008c730       _configure_narrow_argv     000000018008d730 f   libucrtd:argv_parsing.obj
 0001:0008c750       _configure_wide_argv       000000018008d750 f   libucrtd:argv_parsing.obj
 0001:0008c770       _set_pgmptr                000000018008d770 f i libucrtd:argv_parsing.obj
 0001:0008c790       _set_wpgmptr               000000018008d790 f i libucrtd:argv_parsing.obj
 0001:0008c7a4       ??$?R_W@__crt_internal_free_policy@@QEBAXQEB_W@Z 000000018008d7a4 f i libucrtd:environment_initialization.obj
 0001:0008cd7c       ??$get_environment_from_os@$$V@?$__crt_char_traits@D@@SAPEADXZ 000000018008dd7c f i libucrtd:environment_initialization.obj
 0001:0008cd84       ??$get_environment_from_os@$$V@?$__crt_char_traits@_W@@SAPEA_WXZ 000000018008dd84 f i libucrtd:environment_initialization.obj
 0001:0008cf54       ??$set_variable_in_environment_nolock@PEADH@?$__crt_char_traits@D@@SAH$$QEAPEAD$$QEAH@Z 000000018008df54 f i libucrtd:environment_initialization.obj
 0001:0008cf60       ??$set_variable_in_environment_nolock@PEA_WH@?$__crt_char_traits@_W@@SAH$$QEAPEA_W$$QEAH@Z 000000018008df60 f i libucrtd:environment_initialization.obj
 0001:0008cf6c       ??$tcscpy_s@PEADAEB_KAEAPEAD@?$__crt_char_traits@D@@SAH$$QEAPEADAEB_KAEAPEAD@Z 000000018008df6c f i libucrtd:environment_initialization.obj
 0001:0008cf7c       ??$tcscpy_s@PEA_WAEB_KAEAPEA_W@?$__crt_char_traits@_W@@SAH$$QEAPEA_WAEB_KAEAPEA_W@Z 000000018008df7c f i libucrtd:environment_initialization.obj
 0001:0008cf8c       ??$tcslen@AEAPEAD@?$__crt_char_traits@D@@SA_KAEAPEAD@Z 000000018008df8c f i libucrtd:environment_initialization.obj
 0001:0008cfa0       ??$tcslen@AEAPEA_W@?$__crt_char_traits@_W@@SA_KAEAPEA_W@Z 000000018008dfa0 f i libucrtd:environment_initialization.obj
 0001:0008cfb4       ??$uninitialize@A6AXAEAPEAPEAD@Z@?$dual_state_global@PEAPEAD@__crt_state_management@@QEAAXA6AXAEAPEAPEAD@Z@Z 000000018008dfb4 f i libucrtd:environment_initialization.obj
 0001:0008cff8       ??$uninitialize@A6AXAEAPEAPEA_W@Z@?$dual_state_global@PEAPEA_W@__crt_state_management@@QEAAXA6AXAEAPEAPEA_W@Z@Z 000000018008dff8 f i libucrtd:environment_initialization.obj
 0001:0008d074       ??0?$__crt_unique_heap_ptr@_WU__crt_internal_free_policy@@@@QEAA@QEA_W@Z 000000018008e074 f i libucrtd:environment_initialization.obj
 0001:0008d07c       ??1?$__crt_unique_heap_ptr@_WU__crt_internal_free_policy@@@@QEAA@XZ 000000018008e07c f i libucrtd:environment_initialization.obj
 0001:0008d09c       ??B?$__crt_unique_heap_ptr@PEADU__crt_internal_free_policy@@@@QEBA_NXZ 000000018008e09c f i libucrtd:environment_initialization.obj
 0001:0008d0a4       ??B?$__crt_unique_heap_ptr@PEA_WU__crt_internal_free_policy@@@@QEBA_NXZ 000000018008e0a4 f i libucrtd:environment_initialization.obj
 0001:0008d0ac       ??B?$__crt_unique_heap_ptr@_WU__crt_internal_free_policy@@@@QEBA_NXZ 000000018008e0ac f i libucrtd:environment_initialization.obj
 0001:0008d0b4       ?__crt_compute_required_transform_buffer_count@@YA_KIQEBD@Z 000000018008e0b4 f i libucrtd:environment_initialization.obj
 0001:0008d0d8       ?__crt_compute_required_transform_buffer_count@@YA_KIQEB_W@Z 000000018008e0d8 f i libucrtd:environment_initialization.obj
 0001:0008d108       ?__crt_transform_string@@YA_KIQEBDQEA_W_K@Z 000000018008e108 f i libucrtd:environment_initialization.obj
 0001:0008d12c       ?__crt_transform_string@@YA_KIQEB_WQEAD_K@Z 000000018008e12c f i libucrtd:environment_initialization.obj
 0001:0008d15c       ?detach@?$__crt_unique_heap_ptr@DU__crt_internal_free_policy@@@@QEAAPEADXZ 000000018008e15c f i libucrtd:environment_initialization.obj
 0001:0008d164       ?detach@?$__crt_unique_heap_ptr@_WU__crt_internal_free_policy@@@@QEAAPEA_WXZ 000000018008e164 f i libucrtd:environment_initialization.obj
 0001:0008d16c       ?get@?$__crt_unique_heap_ptr@_WU__crt_internal_free_policy@@@@QEBAPEA_WXZ 000000018008e16c f i libucrtd:environment_initialization.obj
 0001:0008d1a0       ?initialize@?$dual_state_global@PEAPEAD@__crt_state_management@@QEAAXQEAPEAD@Z 000000018008e1a0 f i libucrtd:environment_initialization.obj
 0001:0008d1c8       ?initialize@?$dual_state_global@PEAPEA_W@__crt_state_management@@QEAAXQEAPEA_W@Z 000000018008e1c8 f i libucrtd:environment_initialization.obj
 0001:0008d1f0       ?is_valid@?$__crt_unique_heap_ptr@PEADU__crt_internal_free_policy@@@@QEBA_NXZ 000000018008e1f0 f i libucrtd:environment_initialization.obj
 0001:0008d1f8       ?is_valid@?$__crt_unique_heap_ptr@PEA_WU__crt_internal_free_policy@@@@QEBA_NXZ 000000018008e1f8 f i libucrtd:environment_initialization.obj
 0001:0008d200       ?is_valid@?$__crt_unique_heap_ptr@_WU__crt_internal_free_policy@@@@QEBA_NXZ 000000018008e200 f i libucrtd:environment_initialization.obj
 0001:0008d214       ?release@?$__crt_unique_heap_ptr@_WU__crt_internal_free_policy@@@@QEAAXXZ 000000018008e214 f i libucrtd:environment_initialization.obj
 0001:0008d234       ?value@?$dual_state_global@PEAPEAD@__crt_state_management@@QEAAAEAPEAPEADXZ 000000018008e234 f i libucrtd:environment_initialization.obj
 0001:0008d238       ?value@?$dual_state_global@PEAPEA_W@__crt_state_management@@QEAAAEAPEAPEA_WXZ 000000018008e238 f i libucrtd:environment_initialization.obj
 0001:0008d23c       __dcrt_get_or_create_narrow_environment_nolock 000000018008e23c f   libucrtd:environment_initialization.obj
 0001:0008d278       __dcrt_get_or_create_wide_environment_nolock 000000018008e278 f   libucrtd:environment_initialization.obj
 0001:0008d2b4       __dcrt_uninitialize_environments_nolock 000000018008e2b4 f   libucrtd:environment_initialization.obj
 0001:0008d2ec       __p__environ               000000018008e2ec f   libucrtd:environment_initialization.obj
 0001:0008d2f4       __p__wenviron              000000018008e2f4 f   libucrtd:environment_initialization.obj
 0001:0008d2fc       _get_initial_narrow_environment 000000018008e2fc f   libucrtd:environment_initialization.obj
 0001:0008d34c       _get_initial_wide_environment 000000018008e34c f   libucrtd:environment_initialization.obj
 0001:0008d39c       _initialize_narrow_environment 000000018008e39c f   libucrtd:environment_initialization.obj
 0001:0008d3a4       _initialize_wide_environment 000000018008e3a4 f   libucrtd:environment_initialization.obj
 0001:0008d3b0       ??$?B$$A6AXXZ@__crt_fast_encoded_nullptr_t@@QEBAP6AXXZXZ 000000018008e3b0 f i libucrtd:onexit.obj
 0001:0008d3d0       ??$?BP6AXXZ@__crt_fast_encoded_nullptr_t@@QEBAPEAP6AXXZXZ 000000018008e3d0 f i libucrtd:onexit.obj
 0001:0008d3f0       ??$?RP6AXXZ@__crt_internal_free_policy@@QEBAXQEBQ6AXXZ@Z 000000018008e3f0 f i libucrtd:onexit.obj
 0001:0008d560       ??$__crt_fast_decode_pointer@P6AXXZ@@YAP6AXXZQ6AXXZ@Z 000000018008e560 f i libucrtd:onexit.obj
 0001:0008d5a0       ??$__crt_fast_decode_pointer@PEAP6AXXZ@@YAPEAP6AXXZQEAP6AXXZ@Z 000000018008e5a0 f i libucrtd:onexit.obj
 0001:0008d5e0       ??$__crt_fast_encode_pointer@P6AHXZ@@YAP6AHXZQ6AHXZ@Z 000000018008e5e0 f i libucrtd:onexit.obj
 0001:0008d620       ??$__crt_fast_encode_pointer@P6AXXZ@@YAP6AXXZQ6AXXZ@Z 000000018008e620 f i libucrtd:onexit.obj
 0001:0008d660       ??$__crt_fast_encode_pointer@PEAP6AXXZ@@YAPEAP6AXXZQEAP6AXXZ@Z 000000018008e660 f i libucrtd:onexit.obj
 0001:0008d770       ??0?$__crt_unique_heap_ptr@P6AXXZU__crt_internal_free_policy@@@@QEAA@QEAP6AXXZ@Z 000000018008e770 f i libucrtd:onexit.obj
 0001:0008d790       ??1?$__crt_unique_heap_ptr@P6AXXZU__crt_internal_free_policy@@@@QEAA@XZ 000000018008e790 f i libucrtd:onexit.obj
 0001:0008d7b0       ??1scoped_global_state_reset@__crt_state_management@@QEAA@XZ 000000018008e7b0 f i libucrtd:onexit.obj
 0001:0008dd80       ?detach@?$__crt_unique_heap_ptr@P6AXXZU__crt_internal_free_policy@@@@QEAAPEAP6AXXZXZ 000000018008ed80 f i libucrtd:onexit.obj
 0001:0008ddb0       ?release@?$__crt_unique_heap_ptr@P6AXXZU__crt_internal_free_policy@@@@QEAAXXZ 000000018008edb0 f i libucrtd:onexit.obj
 0001:0008dde0       _crt_at_quick_exit         000000018008ede0 f   libucrtd:onexit.obj
 0001:0008de00       _crt_atexit                000000018008ee00 f   libucrtd:onexit.obj
 0001:0008de20       _execute_onexit_table      000000018008ee20 f   libucrtd:onexit.obj
 0001:0008de60       _initialize_onexit_table   000000018008ee60 f   libucrtd:onexit.obj
 0001:0008dee0       _register_onexit_function  000000018008eee0 f   libucrtd:onexit.obj
 0001:0008e150       ??$?BX@__crt_fast_encoded_nullptr_t@@QEBAPEAXXZ 000000018008f150 f i libucrtd:initialization.obj
 0001:0008e170       ??$__crt_fast_encode_pointer@PEAX@@YAPEAXQEAX@Z 000000018008f170 f i libucrtd:initialization.obj
 0001:0008e260       ?initialize@?$dual_state_global@PEAU__crt_locale_data@@@__crt_state_management@@QEAAXQEAU__crt_locale_data@@@Z 000000018008f260 f i libucrtd:initialization.obj
 0001:0008e2b0       __acrt_initialize          000000018008f2b0 f   libucrtd:initialization.obj
 0001:0008e2e0       __acrt_thread_attach       000000018008f2e0 f   libucrtd:initialization.obj
 0001:0008e300       __acrt_thread_detach       000000018008f300 f   libucrtd:initialization.obj
 0001:0008e310       __acrt_uninitialize        000000018008f310 f   libucrtd:initialization.obj
 0001:0008e340       __acrt_uninitialize_critical 000000018008f340 f   libucrtd:initialization.obj
 0001:00090330       _CrtCheckMemory            0000000180091330 f   libucrtd:debug_heap.obj
 0001:000904c0       _CrtDoForAllClientObjects  00000001800914c0 f   libucrtd:debug_heap.obj
 0001:000905f0       _CrtDumpMemoryLeaks        00000001800915f0 f   libucrtd:debug_heap.obj
 0001:000906b0       _CrtGetAllocHook           00000001800916b0 f   libucrtd:debug_heap.obj
 0001:000906c0       _CrtGetDumpClient          00000001800916c0 f   libucrtd:debug_heap.obj
 0001:000906d0       _CrtIsMemoryBlock          00000001800916d0 f   libucrtd:debug_heap.obj
 0001:00090810       _CrtIsValidHeapPointer     0000000180091810 f   libucrtd:debug_heap.obj
 0001:00090850       _CrtIsValidPointer         0000000180091850 f   libucrtd:debug_heap.obj
 0001:00090890       _CrtMemCheckpoint          0000000180091890 f   libucrtd:debug_heap.obj
 0001:00090b10       _CrtMemDifference          0000000180091b10 f   libucrtd:debug_heap.obj
 0001:00090e70       _CrtMemDumpAllObjectsSince 0000000180091e70 f   libucrtd:debug_heap.obj
 0001:00090ed0       _CrtMemDumpStatistics      0000000180091ed0 f   libucrtd:debug_heap.obj
 0001:00091070       _CrtReportBlockType        0000000180092070 f   libucrtd:debug_heap.obj
 0001:000910a0       _CrtSetAllocHook           00000001800920a0 f   libucrtd:debug_heap.obj
 0001:000910d0       _CrtSetBreakAlloc          00000001800920d0 f   libucrtd:debug_heap.obj
 0001:00091100       _CrtSetDbgBlockType        0000000180092100 f   libucrtd:debug_heap.obj
 0001:000911a0       _CrtSetDbgFlag             00000001800921a0 f   libucrtd:debug_heap.obj
 0001:00091300       _CrtSetDumpClient          0000000180092300 f   libucrtd:debug_heap.obj
 0001:00091330       __acrt_get_locale_data_prefix 0000000180092330 f i libucrtd:debug_heap.obj
 0001:00091350       __p__crtBreakAlloc         0000000180092350 f   libucrtd:debug_heap.obj
 0001:00091360       __p__crtDbgFlag            0000000180092360 f   libucrtd:debug_heap.obj
 0001:00091370       _aligned_free_dbg          0000000180092370 f   libucrtd:debug_heap.obj
 0001:00091460       _aligned_malloc_dbg        0000000180092460 f   libucrtd:debug_heap.obj
 0001:000914a0       _aligned_msize_dbg         00000001800924a0 f   libucrtd:debug_heap.obj
 0001:00091670       _aligned_offset_malloc_dbg 0000000180092670 f   libucrtd:debug_heap.obj
 0001:00091960       _aligned_offset_realloc_dbg 0000000180092960 f   libucrtd:debug_heap.obj
 0001:00091e10       _aligned_offset_recalloc_dbg 0000000180092e10 f   libucrtd:debug_heap.obj
 0001:00091f30       _aligned_realloc_dbg       0000000180092f30 f   libucrtd:debug_heap.obj
 0001:00091f80       _aligned_recalloc_dbg      0000000180092f80 f   libucrtd:debug_heap.obj
 0001:00091fe0       _calloc_dbg                0000000180092fe0 f   libucrtd:debug_heap.obj
 0001:00092080       _chvalidchk_l              0000000180093080 f i libucrtd:debug_heap.obj
 0001:000920b0       _expand_dbg                00000001800930b0 f   libucrtd:debug_heap.obj
 0001:000921e0       _free_dbg                  00000001800931e0 f   libucrtd:debug_heap.obj
 0001:00092250       _ischartype_l              0000000180093250 f i libucrtd:debug_heap.obj
 0001:000922e0       _malloc_dbg                00000001800932e0 f   libucrtd:debug_heap.obj
 0001:00092320       _msize_dbg                 0000000180093320 f   libucrtd:debug_heap.obj
 0001:000924c0       _realloc_dbg               00000001800934c0 f   libucrtd:debug_heap.obj
 0001:00092530       _recalloc_dbg              0000000180093530 f   libucrtd:debug_heap.obj
 0001:00092630       _initterm                  0000000180093630 f   libucrtd:initterm.obj
 0001:00092690       _initterm_e                0000000180093690 f   libucrtd:initterm.obj
 0001:00092be0       strcpy_s                   0000000180093be0 f   libucrtd:strcpy_s.obj
 0001:00093280       strcat_s                   0000000180094280 f   libucrtd:strcat_s.obj
 0001:000932b0       ??$?B$$A6AH_K@Z@__crt_fast_encoded_nullptr_t@@QEBAP6AH_K@ZXZ 00000001800942b0 f i libucrtd:new_handler.obj
 0001:000932d0       ??$__crt_fast_decode_pointer@P6AH_K@Z@@YAP6AH_K@ZQ6AH0@Z@Z 00000001800942d0 f i libucrtd:new_handler.obj
 0001:00093310       ??$__crt_fast_encode_pointer@P6AH_K@Z@@YAP6AH_K@ZQ6AH0@Z@Z 0000000180094310 f i libucrtd:new_handler.obj
 0001:00093350       ?_set_new_handler@@YAP6AH_K@ZH@Z 0000000180094350 f   libucrtd:new_handler.obj
 0001:000933c0       ?initialize@?$dual_state_global@P6AH_K@Z@__crt_state_management@@QEAAXQ6AH_K@Z@Z 00000001800943c0 f i libucrtd:new_handler.obj
 0001:00093410       ?value@?$dual_state_global@P6AH_K@Z@__crt_state_management@@QEAAAEAP6AH_K@ZXZ 0000000180094410 f i libucrtd:new_handler.obj
 0001:00093430       __acrt_initialize_new_handler 0000000180094430 f   libucrtd:new_handler.obj
 0001:00093450       _callnewh                  0000000180094450 f   libucrtd:new_handler.obj
 0001:000934a0       _query_new_handler         00000001800944a0 f   libucrtd:new_handler.obj
 0001:000934e0       _set_new_handler           00000001800944e0 f   libucrtd:new_handler.obj
 0001:00093590       _get_terminate             0000000180094590 f   libucrtd:terminate.obj
 0001:000935b0       set_terminate              00000001800945b0 f   libucrtd:terminate.obj
 0001:000935f0       terminate                  00000001800945f0 f   libucrtd:terminate.obj
 0001:000943f0       _makepath                  00000001800953f0 f   libucrtd:makepath.obj
 0001:00094440       _makepath_s                0000000180095440 f   libucrtd:makepath.obj
 0001:00094490       _wmakepath                 0000000180095490 f   libucrtd:makepath.obj
 0001:000944e0       _wmakepath_s               00000001800954e0 f   libucrtd:makepath.obj
 0001:00096b10       ??$tcsncpy_s@AEAPEAD_KAEAPEBDAEB_K@?$__crt_char_traits@D@@SAHAEAPEAD$$QEA_KAEAPEBDAEB_K@Z 0000000180097b10 f i libucrtd:splitpath.obj
 0001:00096b60       ??$tcsncpy_s@AEAPEAD_KAEAPEBDH@?$__crt_char_traits@D@@SAHAEAPEAD$$QEA_KAEAPEBD$$QEAH@Z 0000000180097b60 f i libucrtd:splitpath.obj
 0001:00096bb0       ??$tcsncpy_s@AEAPEA_W_KAEAPEB_WAEB_K@?$__crt_char_traits@_W@@SAHAEAPEA_W$$QEA_KAEAPEB_WAEB_K@Z 0000000180097bb0 f i libucrtd:splitpath.obj
 0001:00096c00       ??$tcsncpy_s@AEAPEA_W_KAEAPEB_WH@?$__crt_char_traits@_W@@SAHAEAPEA_W$$QEA_KAEAPEB_W$$QEAH@Z 0000000180097c00 f i libucrtd:splitpath.obj
 0001:00096eb0       _splitpath                 0000000180097eb0 f   libucrtd:splitpath.obj
 0001:00096ef0       _splitpath_s               0000000180097ef0 f   libucrtd:splitpath.obj
 0001:00096f90       _wsplitpath                0000000180097f90 f   libucrtd:splitpath.obj
 0001:00096fd0       _wsplitpath_s              0000000180097fd0 f   libucrtd:splitpath.obj
 0001:00097070       _set_abort_behavior        0000000180098070 f   libucrtd:abort.obj
 0001:000970b0       abort                      00000001800980b0 f   libucrtd:abort.obj
 0001:00097140       strcmp                     0000000180098140 f   libucrtd:strcmp.obj
 0001:000971c0       strlen                     00000001800981c0 f   libucrtd:strlen.obj
 0001:00097270       ??$is_overflow_condition@K@__crt_strtox@@YA_NIK@Z 0000000180098270 f i libucrtd:atox.obj
 0001:000972e0       ??$is_overflow_condition@_K@__crt_strtox@@YA_NI_K@Z 00000001800982e0 f i libucrtd:atox.obj
 0001:00097350       ??$make_c_string_character_source@D$$T@__crt_strtox@@YA?AV?$c_string_character_source@D@0@QEBD$$T@Z 0000000180098350 f i libucrtd:atox.obj
 0001:00097390       ??$make_c_string_character_source@_W$$T@__crt_strtox@@YA?AV?$c_string_character_source@_W@0@QEB_W$$T@Z 0000000180098390 f i libucrtd:atox.obj
 0001:000973d0       ??$parse_integer@KV?$c_string_character_source@D@__crt_strtox@@@__crt_strtox@@YAKQEAU__crt_locale_pointers@@V?$c_string_character_source@D@0@H_N@Z 00000001800983d0 f i libucrtd:atox.obj
 0001:00097860       ??$parse_integer@KV?$c_string_character_source@_W@__crt_strtox@@@__crt_strtox@@YAKQEAU__crt_locale_pointers@@V?$c_string_character_source@_W@0@H_N@Z 0000000180098860 f i libucrtd:atox.obj
 0001:00097d10       ??$parse_integer@_KV?$c_string_character_source@D@__crt_strtox@@@__crt_strtox@@YA_KQEAU__crt_locale_pointers@@V?$c_string_character_source@D@0@H_N@Z 0000000180098d10 f i libucrtd:atox.obj
 0001:00098230       ??$parse_integer@_KV?$c_string_character_source@_W@__crt_strtox@@@__crt_strtox@@YA_KQEAU__crt_locale_pointers@@V?$c_string_character_source@_W@0@H_N@Z 0000000180099230 f i libucrtd:atox.obj
 0001:00098750       ??$parse_integer_from_string@JD$$T@__crt_strtox@@YAJQEBD$$THQEAU__crt_locale_pointers@@@Z 0000000180099750 f i libucrtd:atox.obj
 0001:000987a0       ??$parse_integer_from_string@J_W$$T@__crt_strtox@@YAJQEB_W$$THQEAU__crt_locale_pointers@@@Z 00000001800997a0 f i libucrtd:atox.obj
 0001:000987f0       ??$parse_integer_from_string@_JD$$T@__crt_strtox@@YA_JQEBD$$THQEAU__crt_locale_pointers@@@Z 00000001800997f0 f i libucrtd:atox.obj
 0001:00098840       ??$parse_integer_from_string@_J_W$$T@__crt_strtox@@YA_JQEB_W$$THQEAU__crt_locale_pointers@@@Z 0000000180099840 f i libucrtd:atox.obj
 0001:00098890       ??0?$c_string_character_source@D@__crt_strtox@@QEAA@QEBDQEAPEBD@Z 0000000180099890 f i libucrtd:atox.obj
 0001:000988e0       ??0?$c_string_character_source@_W@__crt_strtox@@QEAA@QEB_WQEAPEB_W@Z 00000001800998e0 f i libucrtd:atox.obj
 0001:00098930       ??1?$c_string_character_source@D@__crt_strtox@@QEAA@XZ 0000000180099930 f i libucrtd:atox.obj
 0001:00098960       ??1?$c_string_character_source@_W@__crt_strtox@@QEAA@XZ 0000000180099960 f i libucrtd:atox.obj
 0001:00098990       ?get@?$c_string_character_source@D@__crt_strtox@@QEAADXZ 0000000180099990 f i libucrtd:atox.obj
 0001:000989d0       ?get@?$c_string_character_source@_W@__crt_strtox@@QEAA_WXZ 00000001800999d0 f i libucrtd:atox.obj
 0001:00098a10       ?is_space@__crt_strtox@@YA_NDQEAU__crt_locale_pointers@@@Z 0000000180099a10 f i libucrtd:atox.obj
 0001:00098a60       ?is_space@__crt_strtox@@YA_N_WPEAU__crt_locale_pointers@@@Z 0000000180099a60 f i libucrtd:atox.obj
 0001:00098aa0       ?maximum_signed_value@__crt_strtox@@YAJK@Z 0000000180099aa0 f i libucrtd:atox.obj
 0001:00098ab0       ?maximum_signed_value@__crt_strtox@@YA_J_K@Z 0000000180099ab0 f i libucrtd:atox.obj
 0001:00098ac0       ?minimum_signed_value@__crt_strtox@@YAJK@Z 0000000180099ac0 f i libucrtd:atox.obj
 0001:00098ad0       ?minimum_signed_value@__crt_strtox@@YA_J_K@Z 0000000180099ad0 f i libucrtd:atox.obj
 0001:00098ae0       ?parse_digit@__crt_strtox@@YAID@Z 0000000180099ae0 f i libucrtd:atox.obj
 0001:00098b50       ?parse_digit@__crt_strtox@@YAI_W@Z 0000000180099b50 f i libucrtd:atox.obj
 0001:00098ba0       ?restore_state@?$c_string_character_source@D@__crt_strtox@@QEAA_NQEBD@Z 0000000180099ba0 f i libucrtd:atox.obj
 0001:00098bc0       ?restore_state@?$c_string_character_source@_W@__crt_strtox@@QEAA_NQEB_W@Z 0000000180099bc0 f i libucrtd:atox.obj
 0001:00098be0       ?save_state@?$c_string_character_source@D@__crt_strtox@@QEBAPEBDXZ 0000000180099be0 f i libucrtd:atox.obj
 0001:00098bf0       ?save_state@?$c_string_character_source@_W@__crt_strtox@@QEBAPEB_WXZ 0000000180099bf0 f i libucrtd:atox.obj
 0001:00098c00       ?unget@?$c_string_character_source@D@__crt_strtox@@QEAAXD@Z 0000000180099c00 f i libucrtd:atox.obj
 0001:00098ce0       ?unget@?$c_string_character_source@_W@__crt_strtox@@QEAAX_W@Z 0000000180099ce0 f i libucrtd:atox.obj
 0001:00098dc0       ?validate@?$c_string_character_source@D@__crt_strtox@@QEBA_NXZ 0000000180099dc0 f i libucrtd:atox.obj
 0001:00098e80       ?validate@?$c_string_character_source@_W@__crt_strtox@@QEBA_NXZ 0000000180099e80 f i libucrtd:atox.obj
 0001:00098f40       ?wide_character_to_digit@__crt_strtox@@YAH_W@Z 0000000180099f40 f i libucrtd:atox.obj
 0001:000992b0       __ascii_iswalpha           000000018009a2b0 f i libucrtd:atox.obj
 0001:000992f0       __ascii_toupper            000000018009a2f0 f i libucrtd:atox.obj
 0001:00099310       __ascii_towupper           000000018009a310 f i libucrtd:atox.obj
 0001:00099330       _atoi64                    000000018009a330 f   libucrtd:atox.obj
 0001:00099360       _atoi64_l                  000000018009a360 f   libucrtd:atox.obj
 0001:00099390       _atoi_l                    000000018009a390 f   libucrtd:atox.obj
 0001:000993c0       _atol_l                    000000018009a3c0 f   libucrtd:atox.obj
 0001:000993f0       _atoll_l                   000000018009a3f0 f   libucrtd:atox.obj
 0001:00099420       _wtoi                      000000018009a420 f   libucrtd:atox.obj
 0001:00099450       _wtoi64                    000000018009a450 f   libucrtd:atox.obj
 0001:00099480       _wtoi64_l                  000000018009a480 f   libucrtd:atox.obj
 0001:000994b0       _wtoi_l                    000000018009a4b0 f   libucrtd:atox.obj
 0001:000994e0       _wtol                      000000018009a4e0 f   libucrtd:atox.obj
 0001:00099510       _wtol_l                    000000018009a510 f   libucrtd:atox.obj
 0001:00099540       _wtoll                     000000018009a540 f   libucrtd:atox.obj
 0001:00099570       _wtoll_l                   000000018009a570 f   libucrtd:atox.obj
 0001:000995a0       atoi                       000000018009a5a0 f   libucrtd:atox.obj
 0001:000995d0       atol                       000000018009a5d0 f   libucrtd:atox.obj
 0001:00099600       atoll                      000000018009a600 f   libucrtd:atox.obj
 0001:00099640       strncmp                    000000018009a640 f   libucrtd:strncmp.obj
 0001:000996c0       wcsncmp                    000000018009a6c0 f   libucrtd:wcsncmp.obj
 0001:00099750       _CrtGetDebugFillThreshold  000000018009a750 f   libucrtd:debug_fill_threshold.obj
 0001:00099760       _CrtSetDebugFillThreshold  000000018009a760 f   libucrtd:debug_fill_threshold.obj
 0001:00099790       ??$make_c_string_character_source@DPEAPEAD@__crt_strtox@@YA?AV?$c_string_character_source@D@0@QEBDQEAPEAD@Z 000000018009a790 f i libucrtd:strtox.obj
 0001:000997d0       ??$make_c_string_character_source@_WPEAPEA_W@__crt_strtox@@YA?AV?$c_string_character_source@_W@0@QEB_WQEAPEA_W@Z 000000018009a7d0 f i libucrtd:strtox.obj
 0001:00099810       ??$parse_integer_from_string@JDPEAPEAD@__crt_strtox@@YAJQEBDQEAPEADHQEAU__crt_locale_pointers@@@Z 000000018009a810 f i libucrtd:strtox.obj
 0001:00099860       ??$parse_integer_from_string@J_WPEAPEA_W@__crt_strtox@@YAJQEB_WQEAPEA_WHQEAU__crt_locale_pointers@@@Z 000000018009a860 f i libucrtd:strtox.obj
 0001:000998b0       ??$parse_integer_from_string@KDPEAPEAD@__crt_strtox@@YAKQEBDQEAPEADHQEAU__crt_locale_pointers@@@Z 000000018009a8b0 f i libucrtd:strtox.obj
 0001:00099900       ??$parse_integer_from_string@K_WPEAPEA_W@__crt_strtox@@YAKQEB_WQEAPEA_WHQEAU__crt_locale_pointers@@@Z 000000018009a900 f i libucrtd:strtox.obj
 0001:00099950       ??$parse_integer_from_string@_JDPEAPEAD@__crt_strtox@@YA_JQEBDQEAPEADHQEAU__crt_locale_pointers@@@Z 000000018009a950 f i libucrtd:strtox.obj
 0001:000999a0       ??$parse_integer_from_string@_J_WPEAPEA_W@__crt_strtox@@YA_JQEB_WQEAPEA_WHQEAU__crt_locale_pointers@@@Z 000000018009a9a0 f i libucrtd:strtox.obj
 0001:000999f0       ??$parse_integer_from_string@_KDPEAPEAD@__crt_strtox@@YA_KQEBDQEAPEADHQEAU__crt_locale_pointers@@@Z 000000018009a9f0 f i libucrtd:strtox.obj
 0001:00099a40       ??$parse_integer_from_string@_K_WPEAPEA_W@__crt_strtox@@YA_KQEB_WQEAPEA_WHQEAU__crt_locale_pointers@@@Z 000000018009aa40 f i libucrtd:strtox.obj
 0001:00099a90       _strtoi64                  000000018009aa90 f   libucrtd:strtox.obj
 0001:00099ac0       _strtoi64_l                000000018009aac0 f   libucrtd:strtox.obj
 0001:00099b00       _strtoimax_l               000000018009ab00 f   libucrtd:strtox.obj
 0001:00099b40       _strtol_l                  000000018009ab40 f   libucrtd:strtox.obj
 0001:00099b80       _strtoll_l                 000000018009ab80 f   libucrtd:strtox.obj
 0001:00099bc0       _strtoui64                 000000018009abc0 f   libucrtd:strtox.obj
 0001:00099bf0       _strtoui64_l               000000018009abf0 f   libucrtd:strtox.obj
 0001:00099c30       _strtoul_l                 000000018009ac30 f   libucrtd:strtox.obj
 0001:00099c70       _strtoull_l                000000018009ac70 f   libucrtd:strtox.obj
 0001:00099cb0       _strtoumax_l               000000018009acb0 f   libucrtd:strtox.obj
 0001:00099cf0       _wcstoi64                  000000018009acf0 f   libucrtd:strtox.obj
 0001:00099d20       _wcstoi64_l                000000018009ad20 f   libucrtd:strtox.obj
 0001:00099d60       _wcstoimax_l               000000018009ad60 f   libucrtd:strtox.obj
 0001:00099da0       _wcstol_l                  000000018009ada0 f   libucrtd:strtox.obj
 0001:00099de0       _wcstoll_l                 000000018009ade0 f   libucrtd:strtox.obj
 0001:00099e20       _wcstoui64                 000000018009ae20 f   libucrtd:strtox.obj
 0001:00099e50       _wcstoui64_l               000000018009ae50 f   libucrtd:strtox.obj
 0001:00099e90       _wcstoul_l                 000000018009ae90 f   libucrtd:strtox.obj
 0001:00099ed0       _wcstoull_l                000000018009aed0 f   libucrtd:strtox.obj
 0001:00099f10       _wcstoumax_l               000000018009af10 f   libucrtd:strtox.obj
 0001:00099f50       strtoimax                  000000018009af50 f   libucrtd:strtox.obj
 0001:00099f80       strtol                     000000018009af80 f   libucrtd:strtox.obj
 0001:00099fb0       strtoll                    000000018009afb0 f   libucrtd:strtox.obj
 0001:00099fe0       strtoul                    000000018009afe0 f   libucrtd:strtox.obj
 0001:0009a010       strtoull                   000000018009b010 f   libucrtd:strtox.obj
 0001:0009a040       strtoumax                  000000018009b040 f   libucrtd:strtox.obj
 0001:0009a070       wcstoimax                  000000018009b070 f   libucrtd:strtox.obj
 0001:0009a0a0       wcstol                     000000018009b0a0 f   libucrtd:strtox.obj
 0001:0009a0d0       wcstoll                    000000018009b0d0 f   libucrtd:strtox.obj
 0001:0009a100       wcstoul                    000000018009b100 f   libucrtd:strtox.obj
 0001:0009a130       wcstoull                   000000018009b130 f   libucrtd:strtox.obj
 0001:0009a160       wcstoumax                  000000018009b160 f   libucrtd:strtox.obj
 0001:0009a190       _mbtowc_l                  000000018009b190 f   libucrtd:mbtowc.obj
 0001:0009a5f0       mbtowc                     000000018009b5f0 f   libucrtd:mbtowc.obj
 0001:0009a620       _wctomb_l                  000000018009b620 f   libucrtd:wctomb.obj
 0001:0009a6e0       _wctomb_s_l                000000018009b6e0 f   libucrtd:wctomb.obj
 0001:0009ac60       wctomb                     000000018009bc60 f   libucrtd:wctomb.obj
 0001:0009acc0       wctomb_s                   000000018009bcc0 f   libucrtd:wctomb.obj
 0001:0009ad10       ??$?RU__acrt_ptd@@@__crt_internal_free_policy@@QEBAXQEBU__acrt_ptd@@@Z 000000018009bd10 f i libucrtd:per_thread_data.obj
 0001:0009b110       ??0?$__crt_unique_heap_ptr@U__acrt_ptd@@U__crt_internal_free_policy@@@@QEAA@QEAU__acrt_ptd@@@Z 000000018009c110 f i libucrtd:per_thread_data.obj
 0001:0009b130       ??0__crt_scoped_get_last_error_reset@@QEAA@XZ 000000018009c130 f i libucrtd:per_thread_data.obj
 0001:0009b150       ??1?$__crt_unique_heap_ptr@U__acrt_ptd@@U__crt_internal_free_policy@@@@QEAA@XZ 000000018009c150 f i libucrtd:per_thread_data.obj
 0001:0009b170       ??1__crt_scoped_get_last_error_reset@@QEAA@XZ 000000018009c170 f i libucrtd:per_thread_data.obj
 0001:0009b190       ??B?$__crt_unique_heap_ptr@U__acrt_ptd@@U__crt_internal_free_policy@@@@QEBA_NXZ 000000018009c190 f i libucrtd:per_thread_data.obj
 0001:0009b4e0       ?dangerous_get_state_array@?$dual_state_global@PEAU__crt_locale_data@@@__crt_state_management@@QEAAPEAPEAU__crt_locale_data@@XZ 000000018009c4e0 f i libucrtd:per_thread_data.obj
 0001:0009b6a0       ?detach@?$__crt_unique_heap_ptr@U__acrt_ptd@@U__crt_internal_free_policy@@@@QEAAPEAU__acrt_ptd@@XZ 000000018009c6a0 f i libucrtd:per_thread_data.obj
 0001:0009b6d0       ?get@?$__crt_unique_heap_ptr@U__acrt_ptd@@U__crt_internal_free_policy@@@@QEBAPEAU__acrt_ptd@@XZ 000000018009c6d0 f i libucrtd:per_thread_data.obj
 0001:0009b6e0       ?get_current_state_index@__crt_state_management@@YA_KAEBV__crt_scoped_get_last_error_reset@@@Z 000000018009c6e0 f i libucrtd:per_thread_data.obj
 0001:0009b890       ?is_valid@?$__crt_unique_heap_ptr@U__acrt_ptd@@U__crt_internal_free_policy@@@@QEBA_NXZ 000000018009c890 f i libucrtd:per_thread_data.obj
 0001:0009b8c0       ?release@?$__crt_unique_heap_ptr@U__acrt_ptd@@U__crt_internal_free_policy@@@@QEAAXXZ 000000018009c8c0 f i libucrtd:per_thread_data.obj
 0001:0009b9f0       ?value@?$dual_state_global@PEAU__crt_locale_data@@@__crt_state_management@@QEAAAEAPEAU__crt_locale_data@@XZ 000000018009c9f0 f i libucrtd:per_thread_data.obj
 0001:0009ba10       __acrt_freeptd             000000018009ca10 f   libucrtd:per_thread_data.obj
 0001:0009ba50       __acrt_getptd              000000018009ca50 f   libucrtd:per_thread_data.obj
 0001:0009ba80       __acrt_getptd_head         000000018009ca80 f   libucrtd:per_thread_data.obj
 0001:0009bab0       __acrt_getptd_noexit       000000018009cab0 f   libucrtd:per_thread_data.obj
 0001:0009bac0       __acrt_initialize_ptd      000000018009cac0 f   libucrtd:per_thread_data.obj
 0001:0009bb00       __acrt_uninitialize_ptd    000000018009cb00 f   libucrtd:per_thread_data.obj
 0001:0009bb30       __threadhandle             000000018009cb30 f   libucrtd:per_thread_data.obj
 0001:0009bb40       __threadid                 000000018009cb40 f   libucrtd:per_thread_data.obj
 0001:0009bb50       ?value@?$dual_state_global@PEAU__crt_multibyte_data@@@__crt_state_management@@QEAAAEAPEAU__crt_multibyte_data@@XZ 000000018009cb50 f i libucrtd:locale_update.obj
 0001:0009bb70       __acrt_should_sync_with_global_locale 000000018009cb70 f i libucrtd:locale_update.obj
 0001:0009bbb0       __acrt_update_locale_info  000000018009cbb0 f   libucrtd:locale_update.obj
 0001:0009bc00       __acrt_update_multibyte_info 000000018009cc00 f   libucrtd:locale_update.obj
 0001:0009bc50       ?__acrt_fp_classify@@YA?AW4__acrt_fp_class@@AEBN@Z 000000018009cc50 f i libucrtd:cvt.obj
 0001:0009bd50       ?__acrt_fp_is_negative@@YA_NAEBN@Z 000000018009cd50 f i libucrtd:cvt.obj
 0001:0009d710       ?strrchr@@YAPEADQEADH@Z    000000018009e710 f i libucrtd:cvt.obj
 0001:0009d730       __acrt_fp_format           000000018009e730 f   libucrtd:cvt.obj
 0001:0009dde0       _fputwc_nolock             000000018009ede0 f   libucrtd:fputwc.obj
 0001:0009e050       _fputwchar                 000000018009f050 f   libucrtd:fputwc.obj
 0001:0009e080       _putwc_nolock              000000018009f080 f   libucrtd:fputwc.obj
 0001:0009e0b0       fputwc                     000000018009f0b0 f   libucrtd:fputwc.obj
 0001:0009e1a0       putwc                      000000018009f1a0 f   libucrtd:fputwc.obj
 0001:0009e1d0       putwchar                   000000018009f1d0 f   libucrtd:fputwc.obj
 0001:0009e1f0       ?lowio_handle@__crt_stdio_stream@@QEBAHXZ 000000018009f1f0 f i libucrtd:fileno.obj
 0001:0009e220       _fileno                    000000018009f220 f   libucrtd:fileno.obj
 0001:0009e300       ??$?RPEAU__crt_stdio_stream_data@@@__crt_internal_free_policy@@QEBAXQEBQEAU__crt_stdio_stream_data@@@Z 000000018009f300 f i libucrtd:_file.obj
 0001:0009e330       ??0?$__crt_unique_heap_ptr@PEAU__crt_stdio_stream_data@@U__crt_internal_free_policy@@@@QEAA@QEAPEAU__crt_stdio_stream_data@@@Z 000000018009f330 f i libucrtd:_file.obj
 0001:0009e350       ??1?$__crt_unique_heap_ptr@PEAU__crt_stdio_stream_data@@U__crt_internal_free_policy@@@@QEAA@XZ 000000018009f350 f i libucrtd:_file.obj
