 OPOSMotionSensor

 Timestamp is 5d429ed3 (Thu Aug  1 17:12:03 2019)

 Preferred load address is 0000000180000000

 Start         Length     Name                   Class
 0001:00000000 00001400H .text$di                CODE
 0001:00001400 000d1170H .text$mn                CODE
 0001:000d2570 00000020H .text$mn$00             CODE
 0001:000d2590 00001360H .text$x                 CODE
 0001:000d38f0 000001b4H .text$yd                CODE
 0002:00000000 000006d8H .idata$5                DATA
 0002:000006d8 00000010H .00cfg                  DATA
 0002:000006e8 00000008H .CRT$XCA                DATA
 0002:000006f0 00000008H .CRT$XCL                DATA
 0002:000006f8 000000d8H .CRT$XCU                DATA
 0002:000007d0 00000008H .CRT$XCZ                DATA
 0002:000007d8 00000008H .CRT$XIA                DATA
 0002:000007e0 00000020H .CRT$XIC                DATA
 0002:00000800 00000008H .CRT$XIZ                DATA
 0002:00000808 00000008H .CRT$XLA                DATA
 0002:00000810 00000008H .CRT$XLZ                DATA
 0002:00000818 00000008H .CRT$XPA                DATA
 0002:00000820 00000010H .CRT$XPX                DATA
 0002:00000830 00000008H .CRT$XPXA               DATA
 0002:00000838 00000008H .CRT$XPZ                DATA
 0002:00000840 00000008H .CRT$XTA                DATA
 0002:00000848 00000008H .CRT$XTZ                DATA
 0002:00000850 00000000H .gfids$y                DATA
 0002:00000850 0003a748H .rdata                  DATA
 0002:0003af98 00000028H .rdata$T                DATA
 0002:0003afc0 0000056cH .rdata$r                DATA
 0002:0003b52c 00000434H .rdata$zzzdbg           DATA
 0002:0003b960 00000008H .rtc$IAA                DATA
 0002:0003b968 00000030H .rtc$IMZ                DATA
 0002:0003b998 00000008H .rtc$IZZ                DATA
 0002:0003b9a0 00000008H .rtc$TAA                DATA
 0002:0003b9a8 00000030H .rtc$TMZ                DATA
 0002:0003b9d8 00000008H .rtc$TZZ                DATA
 0002:0003b9e0 00000004H .tls                    DATA
 0002:0003b9e4 00000004H .tls$                   DATA
 0002:0003b9e8 00000008H .tls$ZZZ                DATA
 0002:0003b9f0 000095d8H .xdata                  DATA
 0002:00044fc8 00000150H .xdata$x                DATA
 0002:00045118 00000008H ATL$__a                 DATA
 0002:00045120 00000010H ATL$__z                 DATA
 0002:00045130 000000b0H .edata                  DATA
 0002:000451e0 00000078H .idata$2                DATA
 0002:00045258 00000018H .idata$3                DATA
 0002:00045270 000006d8H .idata$4                DATA
 0002:00045948 00000db8H .idata$6                DATA
 0003:00000000 00000e88H .data                   DATA
 0003:00000e88 00000198H .data$r                 DATA
 0003:00001020 00003e9cH .bss                    DATA
 0004:00000000 0000be8cH .pdata                  DATA
 0005:00000000 00000094H _RDATA                  DATA
 0006:00000000 00000220H .rsrc$01                DATA
 0006:00000220 000036b8H .rsrc$02                DATA

  Address         Publics by Value              Rva+Base               Lib:Object

 0000:00000000       __hybrid_code_map_count    0000000000000000     <absolute>
 0000:00000000       __volatile_metadata        0000000000000000     <absolute>
 0000:00000000       __AbsoluteZero             0000000000000000     <absolute>
 0000:00000000       __hybrid_auxiliary_iat     0000000000000000     <absolute>
 0000:00000000       __hybrid_code_map          0000000000000000     <absolute>
 0000:00000000       ___safe_se_handler_count   0000000000000000     <absolute>
 0000:00000000       __guard_iat_count          0000000000000000     <absolute>
 0000:00000000       __guard_fids_count         0000000000000000     <absolute>
 0000:00000000       __enclave_config           0000000000000000     <absolute>
 0000:00000000       ___safe_se_handler_table   0000000000000000     <absolute>
 0000:00000000       __guard_longjmp_table      0000000000000000     <absolute>
 0000:00000000       __guard_iat_table          0000000000000000     <absolute>
 0000:00000000       __guard_longjmp_count      0000000000000000     <absolute>
 0000:00000000       __dynamic_value_reloc_table 0000000000000000     <absolute>
 0000:00000000       __guard_fids_table         0000000000000000     <absolute>
 0000:00000100       __guard_flags              0000000000000100     <absolute>
 0000:00000000       __ImageBase                0000000180000000     <linker-defined>
 0001:00001400       ?_assert@@YAXPEB_W0I@Z     0000000180002400 f   Assert.obj
 0001:00001500       __local_stdio_printf_options 0000000180002500 f i Assert.obj
 0001:00001510       __vswprintf_l              0000000180002510 f i Assert.obj
 0001:00001570       _swprintf                  0000000180002570 f i Assert.obj
 0001:000015f0       _vswprintf_c_l             00000001800025f0 f i Assert.obj
 0001:00001680       _vswprintf_l               0000000180002680 f i Assert.obj
 0001:000016e0       ?cw_memcpy@@YAHPEADPEB_WH@Z 00000001800026e0 f   CWString.obj
 0001:00001770       ?cw_memcpy@@YAHPEA_WPEBDH@Z 0000000180002770 f   CWString.obj
 0001:000017f0       ?cw_memcpy@@YAHPEADPEBDH@Z 00000001800027f0 f   CWString.obj
 0001:00001890       ?cw_memcpy@@YAHPEA_WPEB_WH@Z 0000000180002890 f   CWString.obj
 0001:00001900       ?cw_memset@@YAXPEADDH@Z    0000000180002900 f   CWString.obj
 0001:00001970       ?cw_memset@@YAXPEA_W_WH@Z  0000000180002970 f   CWString.obj
 0001:00001a10       ?cw_strlen@@YAHPEBD@Z      0000000180002a10 f   CWString.obj
 0001:00001a80       ?cw_strlen@@YAHPEB_W@Z     0000000180002a80 f   CWString.obj
 0001:00001af0       ?cw_strcpy@@YAHPEADPEB_W@Z 0000000180002af0 f   CWString.obj
 0001:00001b40       ?cw_strcpy@@YAHPEA_WPEBD@Z 0000000180002b40 f   CWString.obj
 0001:00001b90       ?cw_strcpy@@YAHPEADPEBD@Z  0000000180002b90 f   CWString.obj
 0001:00001be0       ?cw_strcpy@@YAHPEA_WPEB_W@Z 0000000180002be0 f   CWString.obj
 0001:00001c30       ?cw_strcat@@YAHPEADPEB_W@Z 0000000180002c30 f   CWString.obj
 0001:00001c90       ?cw_strcat@@YAHPEA_WPEBD@Z 0000000180002c90 f   CWString.obj
 0001:00001cf0       ?cw_strcat@@YAHPEADPEBD@Z  0000000180002cf0 f   CWString.obj
 0001:00001d50       ?cw_strcat@@YAHPEA_WPEB_W@Z 0000000180002d50 f   CWString.obj
 0001:00001db0       ?cw_dup@@YAXPEBDAEAHAEAPEA_W1@Z 0000000180002db0 f   CWString.obj
 0001:00001ec0       ?cw_dup@@YAXPEB_WAEAHAEAPEAD1@Z 0000000180002ec0 f   CWString.obj
 0001:00001fb0       ?DupChar@_CW@@AEAAXXZ      0000000180002fb0 f   CWString.obj
 0001:00002010       ?DupWide@_CW@@AEAAXXZ      0000000180003010 f   CWString.obj
 0001:00002080       ?GetCharsMbcs@_CW@@QEAAHXZ 0000000180003080 f   CWString.obj
 0001:000020f0       ?GetCharsWide@_CW@@QEAAHXZ 00000001800030f0 f   CWString.obj
 0001:00002160       ?SetVARIANT_BOOL@OposVariant@@QEAAXF@Z 0000000180003160 f   OposVariant.obj
 0001:000021d0       ?SetVARIANT_BOOL_Ptr@OposVariant@@QEAAXPEAFAEAJ@Z 00000001800031d0 f   OposVariant.obj
 0001:00002240       ?GetLONG@OposVariant@@QEAAJXZ 0000000180003240 f   OposVariant.obj
 0001:000022a0       ?ChangeLONG@OposVariant@@QEAAXPEAJAEAJ@Z 00000001800032a0 f   OposVariant.obj
 0001:00002350       ?SetLONG@OposVariant@@QEAAXJ@Z 0000000180003350 f   OposVariant.obj
 0001:000023b0       ?SetLONG_Ptr@OposVariant@@QEAAXPEAJAEAJ@Z 00000001800033b0 f   OposVariant.obj
 0001:00002420       ?ChangeCURRENCY@OposVariant@@QEAAXPEATtagCY@@AEAJ@Z 0000000180003420 f   OposVariant.obj
 0001:000024d0       ?SetCURRENCY@OposVariant@@QEAAXTtagCY@@@Z 00000001800034d0 f   OposVariant.obj
 0001:00002530       ?SetCURRENCY_Ptr@OposVariant@@QEAAXPEATtagCY@@AEAJ@Z 0000000180003530 f   OposVariant.obj
 0001:000025a0       ?ChangeBSTR@OposVariant@@QEAAXPEAPEA_WAEAJ@Z 00000001800035a0 f   OposVariant.obj
 0001:00002650       ?SetBSTR@OposVariant@@QEAAXPEA_WAEAJ@Z 0000000180003650 f   OposVariant.obj
 0001:000026d0       ?SetBSTR_Copy@OposVariant@@QEAAXPEA_WAEAJ@Z 00000001800036d0 f   OposVariant.obj
 0001:00002780       ?SetBSTR_OutPtr@OposVariant@@QEAA_NPEAPEA_WAEAJ@Z 0000000180003780 f   OposVariant.obj
 0001:000027f0       ?SetBSTR_InOutPtr@OposVariant@@QEAA_NPEAPEA_WAEAJ@Z 00000001800037f0 f   OposVariant.obj
 0001:00002870       ?SetVARIANT@OposVariant@@QEAAXAEAUtagVARIANT@@GAEAJ@Z 0000000180003870 f   OposVariant.obj
 0001:00002910       ?SetVARIANT_Ptr@OposVariant@@QEAAXAEAPEAUtagVARIANT@@GAEAJ@Z 0000000180003910 f   OposVariant.obj
 0001:000029c0       ?SetString@OposVariant@@QEAAXPEB_WAEAJ@Z 00000001800039c0 f   OposVariant.obj
 0001:00002a70       ?SetDispatch_Ptr@OposVariant@@QEAAXPEAUIDispatch@@AEAJ@Z 0000000180003a70 f   OposVariant.obj
 0001:00002b00       ??0OposDispParms@@QEAA@PEAVOposVariant@@H@Z 0000000180003b00 f   OposVariant.obj
 0001:00002c10       ??1OposDispParms@@QEAA@XZ  0000000180003c10 f   OposVariant.obj
 0001:00002c60       ??$AtlMultiply@_K@ATL@@YAJPEA_K_K1@Z 0000000180003c60 f i OposVariant.obj
 0001:00002ce0       ??0?$CHeapPtr@_WVCCRTAllocator@ATL@@@ATL@@QEAA@XZ 0000000180003ce0 f i OposVariant.obj
 0001:00002d20       ??0?$CHeapPtrBase@_WVCCRTAllocator@ATL@@@ATL@@IEAA@XZ 0000000180003d20 f i OposVariant.obj
 0001:00002d40       ??0?$CSimpleArray@GV?$CSimpleArrayEqualHelper@G@ATL@@@ATL@@QEAA@XZ 0000000180003d40 f i OposVariant.obj
 0001:00002d80       ??0?$CTraceCategoryEx@$00$0A@@ATL@@QEAA@PEB_W@Z 0000000180003d80 f i OposVariant.obj
 0001:00002dc0       ??0?$CTraceCategoryEx@$01$0A@@ATL@@QEAA@PEB_W@Z 0000000180003dc0 f i OposVariant.obj
 0001:00002e00       ??0?$CTraceCategoryEx@$03$0A@@ATL@@QEAA@PEB_W@Z 0000000180003e00 f i OposVariant.obj
 0001:00002e40       ??0?$CTraceCategoryEx@$07$0A@@ATL@@QEAA@PEB_W@Z 0000000180003e40 f i OposVariant.obj
 0001:00002e80       ??0?$CTraceCategoryEx@$0BA@$0A@@ATL@@QEAA@PEB_W@Z 0000000180003e80 f i OposVariant.obj
 0001:00002ec0       ??0?$CTraceCategoryEx@$0BAA@$0A@@ATL@@QEAA@PEB_W@Z 0000000180003ec0 f i OposVariant.obj
 0001:00002f00       ??0?$CTraceCategoryEx@$0BAAA@$0A@@ATL@@QEAA@PEB_W@Z 0000000180003f00 f i OposVariant.obj
 0001:00002f40       ??0?$CTraceCategoryEx@$0BAAAA@$0A@@ATL@@QEAA@PEB_W@Z 0000000180003f40 f i OposVariant.obj
 0001:00002f80       ??0?$CTraceCategoryEx@$0BAAAAA@$0A@@ATL@@QEAA@PEB_W@Z 0000000180003f80 f i OposVariant.obj
 0001:00002fc0       ??0?$CTraceCategoryEx@$0CA@$0A@@ATL@@QEAA@PEB_W@Z 0000000180003fc0 f i OposVariant.obj
 0001:00003000       ??0?$CTraceCategoryEx@$0CAA@$0A@@ATL@@QEAA@PEB_W@Z 0000000180004000 f i OposVariant.obj
 0001:00003040       ??0?$CTraceCategoryEx@$0CAAA@$0A@@ATL@@QEAA@PEB_W@Z 0000000180004040 f i OposVariant.obj
 0001:00003080       ??0?$CTraceCategoryEx@$0CAAAA@$0A@@ATL@@QEAA@PEB_W@Z 0000000180004080 f i OposVariant.obj
 0001:000030c0       ??0?$CTraceCategoryEx@$0CAAAAA@$0A@@ATL@@QEAA@PEB_W@Z 00000001800040c0 f i OposVariant.obj
 0001:00003100       ??0?$CTraceCategoryEx@$0EA@$0A@@ATL@@QEAA@PEB_W@Z 0000000180004100 f i OposVariant.obj
 0001:00003140       ??0?$CTraceCategoryEx@$0EAA@$0A@@ATL@@QEAA@PEB_W@Z 0000000180004140 f i OposVariant.obj
 0001:00003180       ??0?$CTraceCategoryEx@$0EAAA@$0A@@ATL@@QEAA@PEB_W@Z 0000000180004180 f i OposVariant.obj
 0001:000031c0       ??0?$CTraceCategoryEx@$0EAAAA@$0A@@ATL@@QEAA@PEB_W@Z 00000001800041c0 f i OposVariant.obj
 0001:00003200       ??0?$CTraceCategoryEx@$0EAAAAA@$0A@@ATL@@QEAA@PEB_W@Z 0000000180004200 f i OposVariant.obj
 0001:00003240       ??0?$CTraceCategoryEx@$0IA@$0A@@ATL@@QEAA@PEB_W@Z 0000000180004240 f i OposVariant.obj
 0001:00003280       ??0?$CTraceCategoryEx@$0IAA@$0A@@ATL@@QEAA@PEB_W@Z 0000000180004280 f i OposVariant.obj
 0001:000032c0       ??0?$CTraceCategoryEx@$0IAAA@$0A@@ATL@@QEAA@PEB_W@Z 00000001800042c0 f i OposVariant.obj
 0001:00003300       ??0?$CTraceCategoryEx@$0IAAAA@$0A@@ATL@@QEAA@PEB_W@Z 0000000180004300 f i OposVariant.obj
 0001:00003340       ??0CAtlComModule@ATL@@QEAA@XZ 0000000180004340 f i OposVariant.obj
 0001:00003460       ??0CAtlWinModule@ATL@@QEAA@XZ 0000000180004460 f i OposVariant.obj
 0001:00003510       ??0CComCriticalSection@ATL@@QEAA@XZ 0000000180004510 f i OposVariant.obj
 0001:00003550       ??0CPreserveLastError@ATL@@QEAA@XZ 0000000180004550 f i OposVariant.obj
 0001:00003590       ??0CTraceFileAndLineInfo@ATL@@QEAA@PEBDH@Z 0000000180004590 f i OposVariant.obj
 0001:000035c0       ??0_ATL_COM_MODULE70@ATL@@QEAA@XZ 00000001800045c0 f i OposVariant.obj
 0001:00003600       ??0_ATL_WIN_MODULE70@ATL@@QEAA@XZ 0000000180004600 f i OposVariant.obj
 0001:00003650       ??1?$CHeapPtr@_WVCCRTAllocator@ATL@@@ATL@@QEAA@XZ 0000000180004650 f i OposVariant.obj
 0001:00003680       ??1?$CHeapPtrBase@_WVCCRTAllocator@ATL@@@ATL@@QEAA@XZ 0000000180004680 f i OposVariant.obj
 0001:000036b0       ??1?$CSimpleArray@GV?$CSimpleArrayEqualHelper@G@ATL@@@ATL@@QEAA@XZ 00000001800046b0 f i OposVariant.obj
 0001:000036e0       ??1CAtlComModule@ATL@@QEAA@XZ 00000001800046e0 f i OposVariant.obj
 0001:00003720       ??1CAtlWinModule@ATL@@QEAA@XZ 0000000180004720 f i OposVariant.obj
 0001:00003760       ??1CComBSTR@ATL@@QEAA@XZ   0000000180004760 f i OposVariant.obj
 0001:000037a0       ??1CComCriticalSection@ATL@@QEAA@XZ 00000001800047a0 f i OposVariant.obj
 0001:000037b0       ??1CPreserveLastError@ATL@@QEAA@XZ 00000001800047b0 f i OposVariant.obj
 0001:000037f0       ??1_ATL_COM_MODULE70@ATL@@QEAA@XZ 00000001800047f0 f i OposVariant.obj
 0001:00003830       ??1_ATL_WIN_MODULE70@ATL@@QEAA@XZ 0000000180004830 f i OposVariant.obj
 0001:00003880       ??1stringdispid@CComTypeInfoHolder@ATL@@QEAA@XZ 0000000180004880 f i OposVariant.obj
 0001:000038c0       ??A?$CSimpleArray@GV?$CSimpleArrayEqualHelper@G@ATL@@@ATL@@QEAAAEAGH@Z 00000001800048c0 f i OposVariant.obj
 0001:00003970       ??B?$CHeapPtrBase@_WVCCRTAllocator@ATL@@@ATL@@QEBAPEA_WXZ 0000000180004970 f i OposVariant.obj
 0001:00003980       ??B?$CTraceCategoryEx@$01$0A@@ATL@@QEAAIXZ 0000000180004980 f i OposVariant.obj
 0001:00003990       ??B?$CTraceCategoryEx@$0CA@$0A@@ATL@@QEAAIXZ 0000000180004990 f i OposVariant.obj
 0001:000039a0       ??RCTraceFileAndLineInfo@ATL@@QEBAXHIPEB_WZZ 00000001800049a0 f i OposVariant.obj
 0001:00003a50       ??_Estringdispid@CComTypeInfoHolder@ATL@@QEAAPEAXI@Z 0000000180004a50 f i OposVariant.obj
 0001:00003b00       ??_H@YAXPEAX_K1P6APEAX0@Z@Z 0000000180004b00 f i OposVariant.obj
 0001:00003b90       ??_I@YAXPEAX_K1P6AX0@Z@Z   0000000180004b90 f i OposVariant.obj
 0001:00003c40       ?Allocate@?$CHeapPtr@_WVCCRTAllocator@ATL@@@ATL@@QEAA_N_K@Z 0000000180004c40 f i OposVariant.obj
 0001:00003cc0       ?Allocate@CCRTAllocator@ATL@@SAPEAX_K@Z 0000000180004cc0 f i OposVariant.obj
 0001:00003cf0       ?AllocateBytes@?$CHeapPtrBase@_WVCCRTAllocator@ATL@@@ATL@@QEAA_N_K@Z 0000000180004cf0 f i OposVariant.obj
 0001:00003d90       ?AtlWinModuleInit@ATL@@YAJPEAU_ATL_WIN_MODULE70@1@@Z 0000000180004d90 f i OposVariant.obj
 0001:00003e90       ?AtlWinModuleTerm@ATL@@YAJPEAU_ATL_WIN_MODULE70@1@PEAUHINSTANCE__@@@Z 0000000180004e90 f i OposVariant.obj
 0001:00003f80       ?Clear@OposVariant@@QEAAJXZ 0000000180004f80 f i OposVariant.obj
 0001:00003fc0       ?Free@?$CHeapPtrBase@_WVCCRTAllocator@ATL@@@ATL@@QEAAXXZ 0000000180004fc0 f i OposVariant.obj
 0001:00004000       ?Free@CCRTAllocator@ATL@@SAXPEAX@Z 0000000180005000 f i OposVariant.obj
 0001:00004030       ?GetCategoryName@CTrace@ATL@@CAPEA_WI@Z 0000000180005030 f i OposVariant.obj
 0001:000040b0       ?GetModuleInstance@CAtlBaseModule@ATL@@QEAAPEAUHINSTANCE__@@XZ 00000001800050b0 f i OposVariant.obj
 0001:000040d0       ?GetSize@?$CSimpleArray@GV?$CSimpleArrayEqualHelper@G@ATL@@@ATL@@QEBAHXZ 00000001800050d0 f i OposVariant.obj
 0001:000040e0       ?Init@CComCriticalSection@ATL@@QEAAJXZ 00000001800050e0 f i OposVariant.obj
 0001:00004140       ?RegisterCategory@CTrace@ATL@@SAXPEB_WI@Z 0000000180005140 f i OposVariant.obj
 0001:00004220       ?RemoveAll@?$CSimpleArray@GV?$CSimpleArrayEqualHelper@G@ATL@@@ATL@@QEAAXXZ 0000000180005220 f i OposVariant.obj
 0001:000042b0       ?Term@CAtlComModule@ATL@@QEAAXXZ 00000001800052b0 f i OposVariant.obj
 0001:00004390       ?Term@CAtlWinModule@ATL@@QEAAXXZ 0000000180005390 f i OposVariant.obj
 0001:000043d0       ?Term@CComCriticalSection@ATL@@QEAAJXZ 00000001800053d0 f i OposVariant.obj
 0001:00004410       ?TraceV@CTrace@ATL@@CAXPEBDHIIPEB_W@Z 0000000180005410 f i OposVariant.obj
 0001:000046c0       ?TraceV@CTrace@ATL@@SAXPEBDHIIPEB_WPEAD@Z 00000001800056c0 f i OposVariant.obj
 0001:00004870       ?_AtlInitializeCriticalSectionEx@ATL@@YAHPEAU_RTL_CRITICAL_SECTION@@KK@Z 0000000180005870 f i OposVariant.obj
 0001:000048c0       ?_AtlRaiseException@ATL@@YAXKK@Z 00000001800058c0 f i OposVariant.obj
 0001:00004900       HRESULT_FROM_WIN32         0000000180005900 f i OposVariant.obj
 0001:00004950       _vswprintf_s_l             0000000180005950 f i OposVariant.obj
 0001:000049e0       swprintf_s                 00000001800059e0 f i OposVariant.obj
 0001:00004a70       ?GetObjectDescription@?$CComCoClass@VCOPOSMotionSensor@@$1?CLSID_OPOSMotionSensor@@3U_GUID@@B@ATL@@SAPEB_WXZ 0000000180005a70 f i MotionSensor.obj
 0001:00004a80       ?UpdateRegistry@COPOSMotionSensor@@SAJH@Z 0000000180005a80 f i MotionSensor.obj
 0001:00004ac0       ?CreateInstance@?$CComCreator@V?$CComObjectCached@VCComClassFactory@ATL@@@ATL@@@ATL@@SAJPEAXAEBU_GUID@@PEAPEAX@Z 0000000180005ac0 f i MotionSensor.obj
 0001:00004cb0       ?CreateInstance@?$CComCreator2@V?$CComCreator@V?$CComObject@VCOPOSMotionSensor@@@ATL@@@ATL@@V?$CComCreator@V?$CComAggObject@VCOPOSMotionSensor@@@ATL@@@2@@ATL@@SAJPEAXAEBU_GUID@@PEAPEAX@Z 0000000180005cb0 f i MotionSensor.obj
 0001:00004d60       ?ObjectMain@CComObjectRootBase@ATL@@SAX_N@Z 0000000180005d60 f i MotionSensor.obj
 0001:00004d70       ?GetCategoryMap@CComObjectRootBase@ATL@@SAPEBU_ATL_CATMAP_ENTRY@2@XZ 0000000180005d70 f i MotionSensor.obj
 0001:00004ee0       DllGetClassObject          0000000180005ee0 f   MotionSensor.obj
 0001:00004f30       DllCanUnloadNow            0000000180005f30 f   MotionSensor.obj
 0001:00004f80       DllRegisterServer          0000000180005f80 f   MotionSensor.obj
 0001:00004fc0       DllUnregisterServer        0000000180005fc0 f   MotionSensor.obj
 0001:000051c0       DllMain                    00000001800061c0 f   MotionSensor.obj
 0001:00005240       ??$?2G@Wrapper@?$CSimpleArray@GV?$CSimpleArrayEqualHelper@G@ATL@@@ATL@@SAPEAX_KPEAG@Z 0000000180006240 f i MotionSensor.obj
 0001:00005260       ??$?2PEA_W@?$Wrapper@PEA_W@?$CSimpleMap@PEA_WPEA_WVCExpansionVectorEqualHelper@ATL@@@ATL@@SAPEAX_KPEAPEA_W@Z 0000000180006260 f i MotionSensor.obj
 0001:00005280       ??$?4UITypeInfo2@@@?$CComPtr@UITypeInfo@@@ATL@@QEAAPEAUITypeInfo@@AEBV?$CComPtr@UITypeInfo2@@@1@@Z 0000000180006280 f i MotionSensor.obj
 0001:000052f0       ??$AtlAdd@_K@ATL@@YAJPEA_K_K1@Z 00000001800062f0 f i MotionSensor.obj
 0001:00005360       ??$AtlAddThrow@_K@ATL@@YA_K_K0@Z 0000000180006360 f i MotionSensor.obj
 0001:000053d0       ??$AtlModuleRegisterWndClassInfoT@VAtlModuleRegisterWndClassInfoParamW@ATL@@@ATL@@YAGPEAU_ATL_BASE_MODULE70@0@PEAU_ATL_WIN_MODULE70@0@PEAU_ATL_WNDCLASSINFOW@0@PEAP6A_JPEAUHWND__@@I_K_J@ZVAtlModuleRegisterWndClassInfoParamW@0@@Z 00000001800063d0 f i MotionSensor.obj
 0001:000059a0       ??$AtlMultiply@H@ATL@@YAJPEAHHH@Z 00000001800069a0 f i MotionSensor.obj
 0001:00005a10       ??$AtlMultiply@K@ATL@@YAJPEAKKK@Z 0000000180006a10 f i MotionSensor.obj
 0001:00005a80       ??$AtlMultiplyThrow@_K@ATL@@YA_K_K0@Z 0000000180006a80 f i MotionSensor.obj
 0001:00005af0       ??$QueryInterface@UIPersistStream@@@IUnknown@@QEAAJPEAPEAUIPersistStream@@@Z 0000000180006af0 f i MotionSensor.obj
 0001:00005b40       ??$QueryInterface@UITypeInfo2@@@IUnknown@@QEAAJPEAPEAUITypeInfo2@@@Z 0000000180006b40 f i MotionSensor.obj
 0001:00005b90       ??0?$CAtlModuleT@VCComModule@ATL@@@ATL@@QEAA@XZ 0000000180006b90 f i MotionSensor.obj
 0001:00005bd0       ??0?$CAtlSafeAllocBufferManager@VCCRTAllocator@ATL@@@_ATL_SAFE_ALLOCA_IMPL@ATL@@QEAA@XZ 0000000180006bd0 f i MotionSensor.obj
 0001:00005bf0       ??0?$CAutoVectorPtr@_W@ATL@@QEAA@XZ 0000000180006bf0 f i MotionSensor.obj
 0001:00005c10       ??0?$CComAggObject@VCOPOSMotionSensor@@@ATL@@QEAA@PEAX@Z 0000000180006c10 f i MotionSensor.obj
 0001:00005ca0       ??0?$CComContainedObject@VCOPOSMotionSensor@@@ATL@@QEAA@PEAX@Z 0000000180006ca0 f i MotionSensor.obj
 0001:00005e40       ??0?$CComCritSecLock@VCComCriticalSection@ATL@@@ATL@@QEAA@AEAVCComCriticalSection@1@_N@Z 0000000180006e40 f i MotionSensor.obj
 0001:00005eb0       ??0?$CComEnum@UIEnumConnectionPoints@@$1?_GUID_b196b285_bab4_101a_b69c_00aa00341d07@@3U__s_GUID@@BPEAUIConnectionPoint@@V?$_CopyInterface@UIConnectionPoint@@@ATL@@VCComSingleThreadModel@6@@ATL@@QEAA@XZ 0000000180006eb0 f i MotionSensor.obj
 0001:00005f00       ??0?$CComEnum@UIEnumConnections@@$1?_GUID_b196b287_bab4_101a_b69c_00aa00341d07@@3U__s_GUID@@BUtagCONNECTDATA@@V?$_Copy@UtagCONNECTDATA@@@ATL@@VCComSingleThreadModel@6@@ATL@@QEAA@XZ 0000000180006f00 f i MotionSensor.obj
 0001:00005f50       ??0?$CComEnumImpl@UIEnumConnectionPoints@@$1?_GUID_b196b285_bab4_101a_b69c_00aa00341d07@@3U__s_GUID@@BPEAUIConnectionPoint@@V?$_CopyInterface@UIConnectionPoint@@@ATL@@@ATL@@QEAA@XZ 0000000180006f50 f i MotionSensor.obj
 0001:00005fd0       ??0?$CComEnumImpl@UIEnumConnections@@$1?_GUID_b196b287_bab4_101a_b69c_00aa00341d07@@3U__s_GUID@@BUtagCONNECTDATA@@V?$_Copy@UtagCONNECTDATA@@@ATL@@@ATL@@QEAA@XZ 0000000180006fd0 f i MotionSensor.obj
 0001:00006050       ??0?$CComObject@V?$CComEnum@UIEnumConnectionPoints@@$1?_GUID_b196b285_bab4_101a_b69c_00aa00341d07@@3U__s_GUID@@BPEAUIConnectionPoint@@V?$_CopyInterface@UIConnectionPoint@@@ATL@@VCComSingleThreadModel@6@@ATL@@@ATL@@QEAA@PEAX@Z 0000000180007050 f i MotionSensor.obj
 0001:000060b0       ??0?$CComObject@V?$CComEnum@UIEnumConnections@@$1?_GUID_b196b287_bab4_101a_b69c_00aa00341d07@@3U__s_GUID@@BUtagCONNECTDATA@@V?$_Copy@UtagCONNECTDATA@@@ATL@@VCComSingleThreadModel@6@@ATL@@@ATL@@QEAA@PEAX@Z 00000001800070b0 f i MotionSensor.obj
 0001:00006110       ??0?$CComObject@VCOPOSMotionSensor@@@ATL@@QEAA@PEAX@Z 0000000180007110 f i MotionSensor.obj
 0001:000062b0       ??0?$CComObjectCached@VCComClassFactory@ATL@@@ATL@@QEAA@PEAX@Z 00000001800072b0 f i MotionSensor.obj
 0001:00006300       ??0?$CComObjectRootEx@VCComMultiThreadModel@ATL@@@ATL@@QEAA@XZ 0000000180007300 f i MotionSensor.obj
 0001:00006350       ??0?$CComObjectRootEx@VCComSingleThreadModel@ATL@@@ATL@@QEAA@XZ 0000000180007350 f i MotionSensor.obj
 0001:00006390       ??0?$CComPtr@UIAdviseSink@@@ATL@@QEAA@PEAUIAdviseSink@@@Z 0000000180007390 f i MotionSensor.obj
 0001:000063d0       ??0?$CComPtr@UICatRegister@@@ATL@@QEAA@XZ 00000001800073d0 f i MotionSensor.obj
 0001:00006410       ??0?$CComPtr@UIConnectionPoint@@@ATL@@QEAA@XZ 0000000180007410 f i MotionSensor.obj
 0001:00006450       ??0?$CComPtr@UIConnectionPointContainer@@@ATL@@QEAA@XZ 0000000180007450 f i MotionSensor.obj
 0001:00006490       ??0?$CComPtr@UIDataObject@@@ATL@@QEAA@XZ 0000000180007490 f i MotionSensor.obj
 0001:000064d0       ??0?$CComPtr@UIDispatch@@@ATL@@QEAA@XZ 00000001800074d0 f i MotionSensor.obj
 0001:00006510       ??0?$CComPtr@UIOleClientSite@@@ATL@@QEAA@PEAUIOleClientSite@@@Z 0000000180007510 f i MotionSensor.obj
 0001:00006550       ??0?$CComPtr@UIOleControlSite@@@ATL@@QEAA@XZ 0000000180007550 f i MotionSensor.obj
 0001:00006590       ??0?$CComPtr@UIOleInPlaceActiveObject@@@ATL@@QEAA@XZ 0000000180007590 f i MotionSensor.obj
 0001:000065d0       ??0?$CComPtr@UIOleInPlaceFrame@@@ATL@@QEAA@XZ 00000001800075d0 f i MotionSensor.obj
 0001:00006610       ??0?$CComPtr@UIOleInPlaceObject@@@ATL@@QEAA@XZ 0000000180007610 f i MotionSensor.obj
 0001:00006650       ??0?$CComPtr@UIOleInPlaceUIWindow@@@ATL@@QEAA@XZ 0000000180007650 f i MotionSensor.obj
 0001:00006690       ??0?$CComPtr@UIOleObject@@@ATL@@QEAA@XZ 0000000180007690 f i MotionSensor.obj
 0001:000066d0       ??0?$CComPtr@UIPersistStream@@@ATL@@QEAA@XZ 00000001800076d0 f i MotionSensor.obj
 0001:00006710       ??0?$CComPtr@UIPersistStreamInit@@@ATL@@QEAA@XZ 0000000180007710 f i MotionSensor.obj
 0001:00006750       ??0?$CComPtr@UIPointerInactive@@@ATL@@QEAA@XZ 0000000180007750 f i MotionSensor.obj
 0001:00006790       ??0?$CComPtr@UIProvideClassInfo2@@@ATL@@QEAA@XZ 0000000180007790 f i MotionSensor.obj
 0001:000067d0       ??0?$CComPtr@UISpecifyPropertyPages@@@ATL@@QEAA@XZ 00000001800077d0 f i MotionSensor.obj
 0001:00006810       ??0?$CComPtr@UIStream@@@ATL@@QEAA@XZ 0000000180007810 f i MotionSensor.obj
 0001:00006850       ??0?$CComPtr@UITypeInfo2@@@ATL@@QEAA@XZ 0000000180007850 f i MotionSensor.obj
 0001:00006890       ??0?$CComPtr@UITypeInfo@@@ATL@@QEAA@AEBV01@@Z 0000000180007890 f i MotionSensor.obj
 0001:000068d0       ??0?$CComPtr@UITypeInfo@@@ATL@@QEAA@XZ 00000001800078d0 f i MotionSensor.obj
 0001:00006910       ??0?$CComPtr@UITypeLib@@@ATL@@QEAA@XZ 0000000180007910 f i MotionSensor.obj
 0001:00006950       ??0?$CComPtr@UIUnknown@@@ATL@@QEAA@AEBV01@@Z 0000000180007950 f i MotionSensor.obj
 0001:00006990       ??0?$CComPtr@UIUnknown@@@ATL@@QEAA@PEAUIUnknown@@@Z 0000000180007990 f i MotionSensor.obj
 0001:000069d0       ??0?$CComPtr@UIUnknown@@@ATL@@QEAA@XZ 00000001800079d0 f i MotionSensor.obj
 0001:00006a10       ??0?$CComPtr@UIViewObjectEx@@@ATL@@QEAA@XZ 0000000180007a10 f i MotionSensor.obj
 0001:00006a50       ??0?$CComPtrBase@UIAdviseSink@@@ATL@@IEAA@PEAUIAdviseSink@@@Z 0000000180007a50 f i MotionSensor.obj
 0001:00006ab0       ??0?$CComPtrBase@UICatRegister@@@ATL@@IEAA@XZ 0000000180007ab0 f i MotionSensor.obj
 0001:00006ad0       ??0?$CComPtrBase@UIConnectionPoint@@@ATL@@IEAA@XZ 0000000180007ad0 f i MotionSensor.obj
 0001:00006af0       ??0?$CComPtrBase@UIConnectionPointContainer@@@ATL@@IEAA@XZ 0000000180007af0 f i MotionSensor.obj
 0001:00006b10       ??0?$CComPtrBase@UIDataObject@@@ATL@@IEAA@XZ 0000000180007b10 f i MotionSensor.obj
 0001:00006b30       ??0?$CComPtrBase@UIDispatch@@@ATL@@IEAA@XZ 0000000180007b30 f i MotionSensor.obj
 0001:00006b50       ??0?$CComPtrBase@UIOleClientSite@@@ATL@@IEAA@PEAUIOleClientSite@@@Z 0000000180007b50 f i MotionSensor.obj
 0001:00006bb0       ??0?$CComPtrBase@UIOleControlSite@@@ATL@@IEAA@XZ 0000000180007bb0 f i MotionSensor.obj
 0001:00006bd0       ??0?$CComPtrBase@UIOleInPlaceActiveObject@@@ATL@@IEAA@XZ 0000000180007bd0 f i MotionSensor.obj
 0001:00006bf0       ??0?$CComPtrBase@UIOleInPlaceFrame@@@ATL@@IEAA@XZ 0000000180007bf0 f i MotionSensor.obj
 0001:00006c10       ??0?$CComPtrBase@UIOleInPlaceObject@@@ATL@@IEAA@XZ 0000000180007c10 f i MotionSensor.obj
 0001:00006c30       ??0?$CComPtrBase@UIOleInPlaceUIWindow@@@ATL@@IEAA@XZ 0000000180007c30 f i MotionSensor.obj
 0001:00006c50       ??0?$CComPtrBase@UIOleObject@@@ATL@@IEAA@XZ 0000000180007c50 f i MotionSensor.obj
 0001:00006c70       ??0?$CComPtrBase@UIPersistStream@@@ATL@@IEAA@XZ 0000000180007c70 f i MotionSensor.obj
 0001:00006c90       ??0?$CComPtrBase@UIPersistStreamInit@@@ATL@@IEAA@XZ 0000000180007c90 f i MotionSensor.obj
 0001:00006cb0       ??0?$CComPtrBase@UIPointerInactive@@@ATL@@IEAA@XZ 0000000180007cb0 f i MotionSensor.obj
 0001:00006cd0       ??0?$CComPtrBase@UIProvideClassInfo2@@@ATL@@IEAA@XZ 0000000180007cd0 f i MotionSensor.obj
 0001:00006cf0       ??0?$CComPtrBase@UISpecifyPropertyPages@@@ATL@@IEAA@XZ 0000000180007cf0 f i MotionSensor.obj
 0001:00006d10       ??0?$CComPtrBase@UIStream@@@ATL@@IEAA@XZ 0000000180007d10 f i MotionSensor.obj
 0001:00006d30       ??0?$CComPtrBase@UITypeInfo2@@@ATL@@IEAA@XZ 0000000180007d30 f i MotionSensor.obj
 0001:00006d50       ??0?$CComPtrBase@UITypeInfo@@@ATL@@IEAA@PEAUITypeInfo@@@Z 0000000180007d50 f i MotionSensor.obj
 0001:00006db0       ??0?$CComPtrBase@UITypeInfo@@@ATL@@IEAA@XZ 0000000180007db0 f i MotionSensor.obj
 0001:00006dd0       ??0?$CComPtrBase@UITypeLib@@@ATL@@IEAA@XZ 0000000180007dd0 f i MotionSensor.obj
 0001:00006df0       ??0?$CComPtrBase@UIUnknown@@@ATL@@IEAA@PEAUIUnknown@@@Z 0000000180007df0 f i MotionSensor.obj
 0001:00006e50       ??0?$CComPtrBase@UIUnknown@@@ATL@@IEAA@XZ 0000000180007e50 f i MotionSensor.obj
 0001:00006e70       ??0?$CComPtrBase@UIViewObjectEx@@@ATL@@IEAA@XZ 0000000180007e70 f i MotionSensor.obj
 0001:00006e90       ??0?$CComQIPtr@UIOleControlSite@@$1?_GUID_b196b289_bab4_101a_b69c_00aa00341d07@@3U__s_GUID@@B@ATL@@QEAA@PEAUIUnknown@@@Z 0000000180007e90 f i MotionSensor.obj
 0001:00006f00       ??0?$CComQIPtr@UIOleObject@@$1?_GUID_00000112_0000_0000_c000_000000000046@@3U__s_GUID@@B@ATL@@QEAA@XZ 0000000180007f00 f i MotionSensor.obj
 0001:00006f40       ??0?$CComQIPtr@UISpecifyPropertyPages@@$1?_GUID_b196b28b_bab4_101a_b69c_00aa00341d07@@3U__s_GUID@@B@ATL@@QEAA@XZ 0000000180007f40 f i MotionSensor.obj
 0001:00006f80       ??0?$CSimpleMap@PEA_WPEA_WVCExpansionVectorEqualHelper@ATL@@@ATL@@QEAA@XZ 0000000180007f80 f i MotionSensor.obj
 0001:00006fc0       ??0?$CTempBuffer@E$0BAA@VCCRTAllocator@ATL@@@ATL@@QEAA@XZ 0000000180007fc0 f i MotionSensor.obj
 0001:00006fe0       ??0?$CTempBuffer@_W$0BAA@VCCRTAllocator@ATL@@@ATL@@QEAA@XZ 0000000180007fe0 f i MotionSensor.obj
 0001:00007000       ??0?$CTempBuffer@_W$0EAA@VCCRTAllocator@ATL@@@ATL@@QEAA@XZ 0000000180008000 f i MotionSensor.obj
 0001:00007020       ??0?$Wrapper@PEA_W@?$CSimpleMap@PEA_WPEA_WVCExpansionVectorEqualHelper@ATL@@@ATL@@QEAA@AEBQEA_W@Z 0000000180008020 f i MotionSensor.obj
 0001:00007050       ??0CAtlModule@ATL@@QEAA@XZ 0000000180008050 f i MotionSensor.obj
 0001:000071c0       ??0CComAutoDeleteCriticalSection@ATL@@QEAA@XZ 00000001800081c0 f i MotionSensor.obj
 0001:00007200       ??0CComBSTR@ATL@@QEAA@XZ   0000000180008200 f i MotionSensor.obj
 0001:00007220       ??0CComClassFactory@ATL@@QEAA@XZ 0000000180008220 f i MotionSensor.obj
 0001:00007280       ??0CComModule@ATL@@QEAA@XZ 0000000180008280 f i MotionSensor.obj
 0001:00007320       ??0CComObjectRootBase@ATL@@QEAA@XZ 0000000180008320 f i MotionSensor.obj
 0001:00007340       ??0CComSafeDeleteCriticalSection@ATL@@QEAA@XZ 0000000180008340 f i MotionSensor.obj
 0001:00007380       ??0CComVariant@ATL@@QEAA@XZ 0000000180008380 f i MotionSensor.obj
 0001:000073d0       ??0CExpansionVector@ATL@@QEAA@XZ 00000001800083d0 f i MotionSensor.obj
 0001:00007410       ??0CParseBuffer@CRegParser@ATL@@QEAA@H@Z 0000000180008410 f i MotionSensor.obj
 0001:000074a0       ??0CRegKey@ATL@@QEAA@PEAUHKEY__@@@Z 00000001800084a0 f i MotionSensor.obj
 0001:000074e0       ??0CRegKey@ATL@@QEAA@PEAVCAtlTransactionManager@1@@Z 00000001800084e0 f i MotionSensor.obj
 0001:00007520       ??0CRegObject@ATL@@QEAA@XZ 0000000180008520 f i MotionSensor.obj
 0001:00007580       ??0CRegParser@ATL@@QEAA@PEAVCRegObject@1@@Z 0000000180008580 f i MotionSensor.obj
 0001:000075b0       ??0IClassFactory@@QEAA@XZ  00000001800085b0 f i MotionSensor.obj
 0001:000075f0       ??0IEnumConnectionPoints@@QEAA@XZ 00000001800085f0 f i MotionSensor.obj
 0001:00007630       ??0IEnumConnections@@QEAA@XZ 0000000180008630 f i MotionSensor.obj
 0001:00007670       ??0IRegistrarBase@@QEAA@XZ 0000000180008670 f i MotionSensor.obj
 0001:000076b0       ??0IUnknown@@QEAA@XZ       00000001800086b0 f i MotionSensor.obj
 0001:000076c0       ??0ModuleLockHelper@ATL@@QEAA@XZ 00000001800086c0 f i MotionSensor.obj
 0001:00007700       ??0OposVariant@@QEAA@XZ    0000000180008700 f i MotionSensor.obj
 0001:00007720       ??0Wrapper@?$CSimpleArray@GV?$CSimpleArrayEqualHelper@G@ATL@@@ATL@@QEAA@AEBG@Z 0000000180008720 f i MotionSensor.obj
 0001:00007750       ??0_ATL_MODULE70@ATL@@QEAA@XZ 0000000180008750 f i MotionSensor.obj
 0001:00007790       ??0_ATL_MSG@ATL@@QEAA@PEAUHWND__@@I_K_JH@Z 0000000180008790 f i MotionSensor.obj
 0001:00007820       ??0_U_MENUorID@ATL@@QEAA@I@Z 0000000180008820 f i MotionSensor.obj
 0001:00007840       ??0_U_RECT@ATL@@QEAA@AEAUtagRECT@@@Z 0000000180008840 f i MotionSensor.obj
 0001:00007860       ??0stringdispid@CComTypeInfoHolder@ATL@@QEAA@XZ 0000000180008860 f i MotionSensor.obj
 0001:000078b0       ??1?$CAtlModuleT@VCComModule@ATL@@@ATL@@UEAA@XZ 00000001800088b0 f i MotionSensor.obj
 0001:000078e0       ??1?$CAtlSafeAllocBufferManager@VCCRTAllocator@ATL@@@_ATL_SAFE_ALLOCA_IMPL@ATL@@QEAA@XZ 00000001800088e0 f i MotionSensor.obj
 0001:00007940       ??1?$CAutoVectorPtr@_W@ATL@@QEAA@XZ 0000000180008940 f i MotionSensor.obj
 0001:00007970       ??1?$CComAggObject@VCOPOSMotionSensor@@@ATL@@UEAA@XZ 0000000180008970 f i MotionSensor.obj
 0001:000079f0       ??1?$CComContainedObject@VCOPOSMotionSensor@@@ATL@@UEAA@XZ 00000001800089f0 f i MotionSensor.obj
 0001:00007a20       ??1?$CComCritSecLock@VCComCriticalSection@ATL@@@ATL@@QEAA@XZ 0000000180008a20 f i MotionSensor.obj
 0001:00007a60       ??1?$CComEnum@UIEnumConnectionPoints@@$1?_GUID_b196b285_bab4_101a_b69c_00aa00341d07@@3U__s_GUID@@BPEAUIConnectionPoint@@V?$_CopyInterface@UIConnectionPoint@@@ATL@@VCComSingleThreadModel@6@@ATL@@UEAA@XZ 0000000180008a60 f i MotionSensor.obj
 0001:00007aa0       ??1?$CComEnum@UIEnumConnections@@$1?_GUID_b196b287_bab4_101a_b69c_00aa00341d07@@3U__s_GUID@@BUtagCONNECTDATA@@V?$_Copy@UtagCONNECTDATA@@@ATL@@VCComSingleThreadModel@6@@ATL@@UEAA@XZ 0000000180008aa0 f i MotionSensor.obj
 0001:00007ae0       ??1?$CComEnumImpl@UIEnumConnectionPoints@@$1?_GUID_b196b285_bab4_101a_b69c_00aa00341d07@@3U__s_GUID@@BPEAUIConnectionPoint@@V?$_CopyInterface@UIConnectionPoint@@@ATL@@@ATL@@UEAA@XZ 0000000180008ae0 f i MotionSensor.obj
 0001:00007b80       ??1?$CComEnumImpl@UIEnumConnections@@$1?_GUID_b196b287_bab4_101a_b69c_00aa00341d07@@3U__s_GUID@@BUtagCONNECTDATA@@V?$_Copy@UtagCONNECTDATA@@@ATL@@@ATL@@UEAA@XZ 0000000180008b80 f i MotionSensor.obj
 0001:00007c20       ??1?$CComObject@V?$CComEnum@UIEnumConnectionPoints@@$1?_GUID_b196b285_bab4_101a_b69c_00aa00341d07@@3U__s_GUID@@BPEAUIConnectionPoint@@V?$_CopyInterface@UIConnectionPoint@@@ATL@@VCComSingleThreadModel@6@@ATL@@@ATL@@UEAA@XZ 0000000180008c20 f i MotionSensor.obj
 0001:00007c90       ??1?$CComObject@V?$CComEnum@UIEnumConnections@@$1?_GUID_b196b287_bab4_101a_b69c_00aa00341d07@@3U__s_GUID@@BUtagCONNECTDATA@@V?$_Copy@UtagCONNECTDATA@@@ATL@@VCComSingleThreadModel@6@@ATL@@@ATL@@UEAA@XZ 0000000180008c90 f i MotionSensor.obj
 0001:00007d00       ??1?$CComObject@VCOPOSMotionSensor@@@ATL@@UEAA@XZ 0000000180008d00 f i MotionSensor.obj
 0001:00007eb0       ??1?$CComObjectCached@VCComClassFactory@ATL@@@ATL@@UEAA@XZ 0000000180008eb0 f i MotionSensor.obj
 0001:00007f10       ??1?$CComObjectRootEx@VCComMultiThreadModel@ATL@@@ATL@@QEAA@XZ 0000000180008f10 f i MotionSensor.obj
 0001:00007f50       ??1?$CComObjectRootEx@VCComSingleThreadModel@ATL@@@ATL@@QEAA@XZ 0000000180008f50 f i MotionSensor.obj
 0001:00007f80       ??1?$CComPtr@UIAdviseSink@@@ATL@@QEAA@XZ 0000000180008f80 f i MotionSensor.obj
 0001:00007fb0       ??1?$CComPtr@UICatRegister@@@ATL@@QEAA@XZ 0000000180008fb0 f i MotionSensor.obj
 0001:00007fe0       ??1?$CComPtr@UIConnectionPoint@@@ATL@@QEAA@XZ 0000000180008fe0 f i MotionSensor.obj
 0001:00008010       ??1?$CComPtr@UIConnectionPointContainer@@@ATL@@QEAA@XZ 0000000180009010 f i MotionSensor.obj
 0001:00008040       ??1?$CComPtr@UIDataObject@@@ATL@@QEAA@XZ 0000000180009040 f i MotionSensor.obj
 0001:00008070       ??1?$CComPtr@UIDispatch@@@ATL@@QEAA@XZ 0000000180009070 f i MotionSensor.obj
 0001:000080a0       ??1?$CComPtr@UIOleClientSite@@@ATL@@QEAA@XZ 00000001800090a0 f i MotionSensor.obj
 0001:000080d0       ??1?$CComPtr@UIOleControlSite@@@ATL@@QEAA@XZ 00000001800090d0 f i MotionSensor.obj
 0001:00008100       ??1?$CComPtr@UIOleInPlaceActiveObject@@@ATL@@QEAA@XZ 0000000180009100 f i MotionSensor.obj
 0001:00008130       ??1?$CComPtr@UIOleInPlaceFrame@@@ATL@@QEAA@XZ 0000000180009130 f i MotionSensor.obj
 0001:00008160       ??1?$CComPtr@UIOleInPlaceObject@@@ATL@@QEAA@XZ 0000000180009160 f i MotionSensor.obj
 0001:00008190       ??1?$CComPtr@UIOleInPlaceUIWindow@@@ATL@@QEAA@XZ 0000000180009190 f i MotionSensor.obj
 0001:000081c0       ??1?$CComPtr@UIOleObject@@@ATL@@QEAA@XZ 00000001800091c0 f i MotionSensor.obj
 0001:000081f0       ??1?$CComPtr@UIPersistStream@@@ATL@@QEAA@XZ 00000001800091f0 f i MotionSensor.obj
 0001:00008220       ??1?$CComPtr@UIPersistStreamInit@@@ATL@@QEAA@XZ 0000000180009220 f i MotionSensor.obj
 0001:00008250       ??1?$CComPtr@UIPointerInactive@@@ATL@@QEAA@XZ 0000000180009250 f i MotionSensor.obj
 0001:00008280       ??1?$CComPtr@UIProvideClassInfo2@@@ATL@@QEAA@XZ 0000000180009280 f i MotionSensor.obj
 0001:000082b0       ??1?$CComPtr@UISpecifyPropertyPages@@@ATL@@QEAA@XZ 00000001800092b0 f i MotionSensor.obj
 0001:000082e0       ??1?$CComPtr@UIStream@@@ATL@@QEAA@XZ 00000001800092e0 f i MotionSensor.obj
 0001:00008310       ??1?$CComPtr@UITypeInfo2@@@ATL@@QEAA@XZ 0000000180009310 f i MotionSensor.obj
 0001:00008340       ??1?$CComPtr@UITypeInfo@@@ATL@@QEAA@XZ 0000000180009340 f i MotionSensor.obj
 0001:00008370       ??1?$CComPtr@UITypeLib@@@ATL@@QEAA@XZ 0000000180009370 f i MotionSensor.obj
 0001:000083a0       ??1?$CComPtr@UIUnknown@@@ATL@@QEAA@XZ 00000001800093a0 f i MotionSensor.obj
 0001:000083d0       ??1?$CComPtr@UIViewObjectEx@@@ATL@@QEAA@XZ 00000001800093d0 f i MotionSensor.obj
 0001:00008400       ??1?$CComPtrBase@UIAdviseSink@@@ATL@@QEAA@XZ 0000000180009400 f i MotionSensor.obj
 0001:00008450       ??1?$CComPtrBase@UICatRegister@@@ATL@@QEAA@XZ 0000000180009450 f i MotionSensor.obj
 0001:000084a0       ??1?$CComPtrBase@UIConnectionPoint@@@ATL@@QEAA@XZ 00000001800094a0 f i MotionSensor.obj
 0001:000084f0       ??1?$CComPtrBase@UIConnectionPointContainer@@@ATL@@QEAA@XZ 00000001800094f0 f i MotionSensor.obj
 0001:00008540       ??1?$CComPtrBase@UIDataObject@@@ATL@@QEAA@XZ 0000000180009540 f i MotionSensor.obj
 0001:00008590       ??1?$CComPtrBase@UIDispatch@@@ATL@@QEAA@XZ 0000000180009590 f i MotionSensor.obj
 0001:000085e0       ??1?$CComPtrBase@UIOleClientSite@@@ATL@@QEAA@XZ 00000001800095e0 f i MotionSensor.obj
 0001:00008630       ??1?$CComPtrBase@UIOleControlSite@@@ATL@@QEAA@XZ 0000000180009630 f i MotionSensor.obj
 0001:00008680       ??1?$CComPtrBase@UIOleInPlaceActiveObject@@@ATL@@QEAA@XZ 0000000180009680 f i MotionSensor.obj
 0001:000086d0       ??1?$CComPtrBase@UIOleInPlaceFrame@@@ATL@@QEAA@XZ 00000001800096d0 f i MotionSensor.obj
 0001:00008720       ??1?$CComPtrBase@UIOleInPlaceObject@@@ATL@@QEAA@XZ 0000000180009720 f i MotionSensor.obj
 0001:00008770       ??1?$CComPtrBase@UIOleInPlaceUIWindow@@@ATL@@QEAA@XZ 0000000180009770 f i MotionSensor.obj
 0001:000087c0       ??1?$CComPtrBase@UIOleObject@@@ATL@@QEAA@XZ 00000001800097c0 f i MotionSensor.obj
 0001:00008810       ??1?$CComPtrBase@UIPersistStream@@@ATL@@QEAA@XZ 0000000180009810 f i MotionSensor.obj
 0001:00008860       ??1?$CComPtrBase@UIPersistStreamInit@@@ATL@@QEAA@XZ 0000000180009860 f i MotionSensor.obj
 0001:000088b0       ??1?$CComPtrBase@UIPointerInactive@@@ATL@@QEAA@XZ 00000001800098b0 f i MotionSensor.obj
 0001:00008900       ??1?$CComPtrBase@UIProvideClassInfo2@@@ATL@@QEAA@XZ 0000000180009900 f i MotionSensor.obj
 0001:00008950       ??1?$CComPtrBase@UISpecifyPropertyPages@@@ATL@@QEAA@XZ 0000000180009950 f i MotionSensor.obj
 0001:000089a0       ??1?$CComPtrBase@UIStream@@@ATL@@QEAA@XZ 00000001800099a0 f i MotionSensor.obj
 0001:000089f0       ??1?$CComPtrBase@UITypeInfo2@@@ATL@@QEAA@XZ 00000001800099f0 f i MotionSensor.obj
 0001:00008a40       ??1?$CComPtrBase@UITypeInfo@@@ATL@@QEAA@XZ 0000000180009a40 f i MotionSensor.obj
 0001:00008a90       ??1?$CComPtrBase@UITypeLib@@@ATL@@QEAA@XZ 0000000180009a90 f i MotionSensor.obj
 0001:00008ae0       ??1?$CComPtrBase@UIUnknown@@@ATL@@QEAA@XZ 0000000180009ae0 f i MotionSensor.obj
 0001:00008b30       ??1?$CComPtrBase@UIViewObjectEx@@@ATL@@QEAA@XZ 0000000180009b30 f i MotionSensor.obj
 0001:00008b80       ??1?$CComQIPtr@UIOleControlSite@@$1?_GUID_b196b289_bab4_101a_b69c_00aa00341d07@@3U__s_GUID@@B@ATL@@QEAA@XZ 0000000180009b80 f i MotionSensor.obj
 0001:00008bb0       ??1?$CComQIPtr@UIOleObject@@$1?_GUID_00000112_0000_0000_c000_000000000046@@3U__s_GUID@@B@ATL@@QEAA@XZ 0000000180009bb0 f i MotionSensor.obj
 0001:00008be0       ??1?$CComQIPtr@UISpecifyPropertyPages@@$1?_GUID_b196b28b_bab4_101a_b69c_00aa00341d07@@3U__s_GUID@@B@ATL@@QEAA@XZ 0000000180009be0 f i MotionSensor.obj
 0001:00008c10       ??1?$CSimpleMap@PEA_WPEA_WVCExpansionVectorEqualHelper@ATL@@@ATL@@QEAA@XZ 0000000180009c10 f i MotionSensor.obj
 0001:00008c40       ??1?$CTempBuffer@E$0BAA@VCCRTAllocator@ATL@@@ATL@@QEAA@XZ 0000000180009c40 f i MotionSensor.obj
 0001:00008c90       ??1?$CTempBuffer@_W$0BAA@VCCRTAllocator@ATL@@@ATL@@QEAA@XZ 0000000180009c90 f i MotionSensor.obj
 0001:00008ce0       ??1?$CTempBuffer@_W$0EAA@VCCRTAllocator@ATL@@@ATL@@QEAA@XZ 0000000180009ce0 f i MotionSensor.obj
 0001:00008d30       ??1CAtlModule@ATL@@UEAA@XZ 0000000180009d30 f i MotionSensor.obj
 0001:00008d70       ??1CComAutoDeleteCriticalSection@ATL@@QEAA@XZ 0000000180009d70 f i MotionSensor.obj
 0001:00008da0       ??1CComClassFactory@ATL@@UEAA@XZ 0000000180009da0 f i MotionSensor.obj
 0001:00008df0       ??1CComModule@ATL@@UEAA@XZ 0000000180009df0 f i MotionSensor.obj
 0001:00008e30       ??1CComObjectRootBase@ATL@@QEAA@XZ 0000000180009e30 f i MotionSensor.obj
 0001:00008e40       ??1CComSafeDeleteCriticalSection@ATL@@QEAA@XZ 0000000180009e40 f i MotionSensor.obj
 0001:00008e90       ??1CComVariant@ATL@@QEAA@XZ 0000000180009e90 f i MotionSensor.obj
 0001:00008f10       ??1CExpansionVector@ATL@@QEAA@XZ 0000000180009f10 f i MotionSensor.obj
 0001:00008f50       ??1CParseBuffer@CRegParser@ATL@@QEAA@XZ 0000000180009f50 f i MotionSensor.obj
 0001:00008f90       ??1CRegKey@ATL@@QEAA@XZ    0000000180009f90 f i MotionSensor.obj
 0001:00008fc0       ??1CRegObject@ATL@@UEAA@XZ 0000000180009fc0 f i MotionSensor.obj
 0001:00009010       ??1ModuleLockHelper@ATL@@QEAA@XZ 000000018000a010 f i MotionSensor.obj
 0001:00009050       ??1OposVariant@@QEAA@XZ    000000018000a050 f i MotionSensor.obj
 0001:00009090       ??1_ATL_MODULE70@ATL@@QEAA@XZ 000000018000a090 f i MotionSensor.obj
 0001:000090d0       ??4?$CComPtr@UIAdviseSink@@@ATL@@QEAAPEAUIAdviseSink@@PEAU2@@Z 000000018000a0d0 f i MotionSensor.obj
 0001:00009140       ??4?$CComPtr@UIOleClientSite@@@ATL@@QEAAPEAUIOleClientSite@@PEAU2@@Z 000000018000a140 f i MotionSensor.obj
 0001:000091b0       ??4?$CComPtr@UIUnknown@@@ATL@@QEAAPEAUIUnknown@@PEAU2@@Z 000000018000a1b0 f i MotionSensor.obj
 0001:00009220       ??4?$CComQIPtr@UIOleObject@@$1?_GUID_00000112_0000_0000_c000_000000000046@@3U__s_GUID@@B@ATL@@QEAAPEAUIOleObject@@PEAUIUnknown@@@Z 000000018000a220 f i MotionSensor.obj
 0001:00009280       ??4?$CComQIPtr@UISpecifyPropertyPages@@$1?_GUID_b196b28b_bab4_101a_b69c_00aa00341d07@@3U__s_GUID@@B@ATL@@QEAAPEAUISpecifyPropertyPages@@PEAUIUnknown@@@Z 000000018000a280 f i MotionSensor.obj
 0001:000092e0       ??7?$CComPtrBase@UIOleClientSite@@@ATL@@QEBA_NXZ 000000018000a2e0 f i MotionSensor.obj
 0001:00009330       ??7?$CComPtrBase@UIOleInPlaceSiteWindowless@@@ATL@@QEBA_NXZ 000000018000a330 f i MotionSensor.obj
 0001:00009380       ??7CComBSTR@ATL@@QEBA_NXZ  000000018000a380 f i MotionSensor.obj
 0001:000093d0       ??8?$CComPtrBase@UIAdviseSink@@@ATL@@QEBA_NPEAUIAdviseSink@@@Z 000000018000a3d0 f i MotionSensor.obj
 0001:00009420       ??8?$CComPtrBase@UIConnectionPointContainer@@@ATL@@QEBA_NPEAUIConnectionPointContainer@@@Z 000000018000a420 f i MotionSensor.obj
 0001:00009470       ??8?$CComPtrBase@UIDataAdviseHolder@@@ATL@@QEBA_NPEAUIDataAdviseHolder@@@Z 000000018000a470 f i MotionSensor.obj
 0001:000094c0       ??8?$CComPtrBase@UIOleAdviseHolder@@@ATL@@QEBA_NPEAUIOleAdviseHolder@@@Z 000000018000a4c0 f i MotionSensor.obj
 0001:00009510       ??8?$CComPtrBase@UIOleClientSite@@@ATL@@QEBA_NPEAUIOleClientSite@@@Z 000000018000a510 f i MotionSensor.obj
 0001:00009560       ??8?$CComPtrBase@UIOleControlSite@@@ATL@@QEBA_NPEAUIOleControlSite@@@Z 000000018000a560 f i MotionSensor.obj
 0001:000095b0       ??8?$CComPtrBase@UIOleInPlaceObject@@@ATL@@QEBA_NPEAUIOleInPlaceObject@@@Z 000000018000a5b0 f i MotionSensor.obj
 0001:00009600       ??8?$CComPtrBase@UIOleInPlaceSiteWindowless@@@ATL@@QEBA_NPEAUIOleInPlaceSiteWindowless@@@Z 000000018000a600 f i MotionSensor.obj
 0001:00009650       ??8?$CComPtrBase@UIOleObject@@@ATL@@QEBA_NPEAUIOleObject@@@Z 000000018000a650 f i MotionSensor.obj
 0001:000096a0       ??8?$CComPtrBase@UIPersistStream@@@ATL@@QEBA_NPEAUIPersistStream@@@Z 000000018000a6a0 f i MotionSensor.obj
 0001:000096f0       ??8?$CComPtrBase@UIPersistStreamInit@@@ATL@@QEBA_NPEAUIPersistStreamInit@@@Z 000000018000a6f0 f i MotionSensor.obj
 0001:00009740       ??8?$CComPtrBase@UIPointerInactive@@@ATL@@QEBA_NPEAUIPointerInactive@@@Z 000000018000a740 f i MotionSensor.obj
 0001:00009790       ??8?$CComPtrBase@UIUnknown@@@ATL@@QEBA_NPEAUIUnknown@@@Z 000000018000a790 f i MotionSensor.obj
 0001:000097e0       ??8?$CComPtrBase@UIViewObjectEx@@@ATL@@QEBA_NPEAUIViewObjectEx@@@Z 000000018000a7e0 f i MotionSensor.obj
 0001:00009830       ??8CComBSTR@ATL@@QEBA_NH@Z 000000018000a830 f i MotionSensor.obj
 0001:000098b0       ??9?$CComPtrBase@UIAdviseSink@@@ATL@@QEBA_NPEAUIAdviseSink@@@Z 000000018000a8b0 f i MotionSensor.obj
 0001:00009910       ??9?$CComPtrBase@UIConnectionPointContainer@@@ATL@@QEBA_NPEAUIConnectionPointContainer@@@Z 000000018000a910 f i MotionSensor.obj
 0001:00009970       ??9?$CComPtrBase@UIDataAdviseHolder@@@ATL@@QEBA_NPEAUIDataAdviseHolder@@@Z 000000018000a970 f i MotionSensor.obj
 0001:000099d0       ??9?$CComPtrBase@UIOleAdviseHolder@@@ATL@@QEBA_NPEAUIOleAdviseHolder@@@Z 000000018000a9d0 f i MotionSensor.obj
 0001:00009a30       ??9?$CComPtrBase@UIOleClientSite@@@ATL@@QEBA_NPEAUIOleClientSite@@@Z 000000018000aa30 f i MotionSensor.obj
 0001:00009a90       ??9?$CComPtrBase@UIOleControlSite@@@ATL@@QEBA_NPEAUIOleControlSite@@@Z 000000018000aa90 f i MotionSensor.obj
 0001:00009af0       ??9?$CComPtrBase@UIOleInPlaceObject@@@ATL@@QEBA_NPEAUIOleInPlaceObject@@@Z 000000018000aaf0 f i MotionSensor.obj
 0001:00009b50       ??9?$CComPtrBase@UIOleInPlaceSiteWindowless@@@ATL@@QEBA_NPEAUIOleInPlaceSiteWindowless@@@Z 000000018000ab50 f i MotionSensor.obj
 0001:00009bb0       ??9?$CComPtrBase@UIOleObject@@@ATL@@QEBA_NPEAUIOleObject@@@Z 000000018000abb0 f i MotionSensor.obj
 0001:00009c10       ??9?$CComPtrBase@UIPersistStream@@@ATL@@QEBA_NPEAUIPersistStream@@@Z 000000018000ac10 f i MotionSensor.obj
 0001:00009c70       ??9?$CComPtrBase@UIPersistStreamInit@@@ATL@@QEBA_NPEAUIPersistStreamInit@@@Z 000000018000ac70 f i MotionSensor.obj
 0001:00009cd0       ??9?$CComPtrBase@UIPointerInactive@@@ATL@@QEBA_NPEAUIPointerInactive@@@Z 000000018000acd0 f i MotionSensor.obj
 0001:00009d30       ??9?$CComPtrBase@UIUnknown@@@ATL@@QEBA_NPEAUIUnknown@@@Z 000000018000ad30 f i MotionSensor.obj
 0001:00009d90       ??9?$CComPtrBase@UIViewObjectEx@@@ATL@@QEBA_NPEAUIViewObjectEx@@@Z 000000018000ad90 f i MotionSensor.obj
 0001:00009df0       ??9CComBSTR@ATL@@QEBA_NH@Z 000000018000adf0 f i MotionSensor.obj
 0001:00009e50       ??B?$CComPtrBase@UIAdviseSink@@@ATL@@QEBAPEAUIAdviseSink@@XZ 000000018000ae50 f i MotionSensor.obj
 0001:00009e60       ??B?$CComPtrBase@UIDataAdviseHolder@@@ATL@@QEBAPEAUIDataAdviseHolder@@XZ 000000018000ae60 f i MotionSensor.obj
 0001:00009e70       ??B?$CComPtrBase@UIDataObject@@@ATL@@QEBAPEAUIDataObject@@XZ 000000018000ae70 f i MotionSensor.obj
 0001:00009e80       ??B?$CComPtrBase@UIOleAdviseHolder@@@ATL@@QEBAPEAUIOleAdviseHolder@@XZ 000000018000ae80 f i MotionSensor.obj
 0001:00009e90       ??B?$CComPtrBase@UIOleClientSite@@@ATL@@QEBAPEAUIOleClientSite@@XZ 000000018000ae90 f i MotionSensor.obj
 0001:00009ea0       ??B?$CComPtrBase@UIOleControlSite@@@ATL@@QEBAPEAUIOleControlSite@@XZ 000000018000aea0 f i MotionSensor.obj
 0001:00009eb0       ??B?$CComPtrBase@UIOleInPlaceActiveObject@@@ATL@@QEBAPEAUIOleInPlaceActiveObject@@XZ 000000018000aeb0 f i MotionSensor.obj
 0001:00009ec0       ??B?$CComPtrBase@UIOleInPlaceFrame@@@ATL@@QEBAPEAUIOleInPlaceFrame@@XZ 000000018000aec0 f i MotionSensor.obj
 0001:00009ed0       ??B?$CComPtrBase@UIOleInPlaceSiteWindowless@@@ATL@@QEBAPEAUIOleInPlaceSiteWindowless@@XZ 000000018000aed0 f i MotionSensor.obj
 0001:00009ee0       ??B?$CComPtrBase@UIOleInPlaceUIWindow@@@ATL@@QEBAPEAUIOleInPlaceUIWindow@@XZ 000000018000aee0 f i MotionSensor.obj
 0001:00009ef0       ??B?$CComPtrBase@UIOleObject@@@ATL@@QEBAPEAUIOleObject@@XZ 000000018000aef0 f i MotionSensor.obj
 0001:00009f00       ??B?$CComPtrBase@UIPersistStream@@@ATL@@QEBAPEAUIPersistStream@@XZ 000000018000af00 f i MotionSensor.obj
 0001:00009f10       ??B?$CComPtrBase@UIProvideClassInfo2@@@ATL@@QEBAPEAUIProvideClassInfo2@@XZ 000000018000af10 f i MotionSensor.obj
 0001:00009f20       ??B?$CComPtrBase@UISpecifyPropertyPages@@@ATL@@QEBAPEAUISpecifyPropertyPages@@XZ 000000018000af20 f i MotionSensor.obj
 0001:00009f30       ??B?$CComPtrBase@UIStream@@@ATL@@QEBAPEAUIStream@@XZ 000000018000af30 f i MotionSensor.obj
 0001:00009f40       ??B?$CComPtrBase@UITypeInfo2@@@ATL@@QEBAPEAUITypeInfo2@@XZ 000000018000af40 f i MotionSensor.obj
 0001:00009f50       ??B?$CComPtrBase@UITypeInfo@@@ATL@@QEBAPEAUITypeInfo@@XZ 000000018000af50 f i MotionSensor.obj
 0001:00009f60       ??B?$CComPtrBase@UITypeLib@@@ATL@@QEBAPEAUITypeLib@@XZ 000000018000af60 f i MotionSensor.obj
 0001:00009f70       ??B?$CComPtrBase@UIUnknown@@@ATL@@QEBAPEAUIUnknown@@XZ 000000018000af70 f i MotionSensor.obj
 0001:00009f80       ??B?$CTempBuffer@E$0BAA@VCCRTAllocator@ATL@@@ATL@@QEBAPEAEXZ 000000018000af80 f i MotionSensor.obj
 0001:00009f90       ??B?$CTempBuffer@_W$0BAA@VCCRTAllocator@ATL@@@ATL@@QEBAPEA_WXZ 000000018000af90 f i MotionSensor.obj
 0001:00009fa0       ??B?$CTempBuffer@_W$0EAA@VCCRTAllocator@ATL@@@ATL@@QEBAPEA_WXZ 000000018000afa0 f i MotionSensor.obj
 0001:00009fb0       ??B?$CTraceCategoryEx@$00$0A@@ATL@@QEAAIXZ 000000018000afb0 f i MotionSensor.obj
 0001:00009fc0       ??B?$CTraceCategoryEx@$07$0A@@ATL@@QEAAIXZ 000000018000afc0 f i MotionSensor.obj
 0001:00009fd0       ??B?$CTraceCategoryEx@$0CAAA@$0A@@ATL@@QEAAIXZ 000000018000afd0 f i MotionSensor.obj
 0001:00009fe0       ??B?$CTraceCategoryEx@$0EA@$0A@@ATL@@QEAAIXZ 000000018000afe0 f i MotionSensor.obj
 0001:00009ff0       ??B?$CTraceCategoryEx@$0IAA@$0A@@ATL@@QEAAIXZ 000000018000aff0 f i MotionSensor.obj
 0001:0000a000       ??BCComBSTR@ATL@@QEBAPEA_WXZ 000000018000b000 f i MotionSensor.obj
 0001:0000a010       ??BCRegKey@ATL@@QEBAPEAUHKEY__@@XZ 000000018000b010 f i MotionSensor.obj
 0001:0000a020       ??C?$CComPtrBase@UIAdviseSink@@@ATL@@QEBAPEAV?$_NoAddRefReleaseOnCComPtr@UIAdviseSink@@@1@XZ 000000018000b020 f i MotionSensor.obj
 0001:0000a0a0       ??C?$CComPtrBase@UICatRegister@@@ATL@@QEBAPEAV?$_NoAddRefReleaseOnCComPtr@UICatRegister@@@1@XZ 000000018000b0a0 f i MotionSensor.obj
 0001:0000a120       ??C?$CComPtrBase@UIConnectionPoint@@@ATL@@QEBAPEAV?$_NoAddRefReleaseOnCComPtr@UIConnectionPoint@@@1@XZ 000000018000b120 f i MotionSensor.obj
 0001:0000a1a0       ??C?$CComPtrBase@UIConnectionPointContainer@@@ATL@@QEBAPEAV?$_NoAddRefReleaseOnCComPtr@UIConnectionPointContainer@@@1@XZ 000000018000b1a0 f i MotionSensor.obj
 0001:0000a220       ??C?$CComPtrBase@UIDataAdviseHolder@@@ATL@@QEBAPEAV?$_NoAddRefReleaseOnCComPtr@UIDataAdviseHolder@@@1@XZ 000000018000b220 f i MotionSensor.obj
 0001:0000a2a0       ??C?$CComPtrBase@UIOleAdviseHolder@@@ATL@@QEBAPEAV?$_NoAddRefReleaseOnCComPtr@UIOleAdviseHolder@@@1@XZ 000000018000b2a0 f i MotionSensor.obj
 0001:0000a320       ??C?$CComPtrBase@UIOleClientSite@@@ATL@@QEBAPEAV?$_NoAddRefReleaseOnCComPtr@UIOleClientSite@@@1@XZ 000000018000b320 f i MotionSensor.obj
 0001:0000a3a0       ??C?$CComPtrBase@UIOleControlSite@@@ATL@@QEBAPEAV?$_NoAddRefReleaseOnCComPtr@UIOleControlSite@@@1@XZ 000000018000b3a0 f i MotionSensor.obj
 0001:0000a420       ??C?$CComPtrBase@UIOleInPlaceFrame@@@ATL@@QEBAPEAV?$_NoAddRefReleaseOnCComPtr@UIOleInPlaceFrame@@@1@XZ 000000018000b420 f i MotionSensor.obj
 0001:0000a4a0       ??C?$CComPtrBase@UIOleInPlaceObject@@@ATL@@QEBAPEAV?$_NoAddRefReleaseOnCComPtr@UIOleInPlaceObject@@@1@XZ 000000018000b4a0 f i MotionSensor.obj
 0001:0000a520       ??C?$CComPtrBase@UIOleInPlaceSiteWindowless@@@ATL@@QEBAPEAV?$_NoAddRefReleaseOnCComPtr@UIOleInPlaceSiteWindowless@@@1@XZ 000000018000b520 f i MotionSensor.obj
 0001:0000a5a0       ??C?$CComPtrBase@UIOleInPlaceUIWindow@@@ATL@@QEBAPEAV?$_NoAddRefReleaseOnCComPtr@UIOleInPlaceUIWindow@@@1@XZ 000000018000b5a0 f i MotionSensor.obj
 0001:0000a620       ??C?$CComPtrBase@UIOleObject@@@ATL@@QEBAPEAV?$_NoAddRefReleaseOnCComPtr@UIOleObject@@@1@XZ 000000018000b620 f i MotionSensor.obj
 0001:0000a6a0       ??C?$CComPtrBase@UIPersistStream@@@ATL@@QEBAPEAV?$_NoAddRefReleaseOnCComPtr@UIPersistStream@@@1@XZ 000000018000b6a0 f i MotionSensor.obj
 0001:0000a720       ??C?$CComPtrBase@UIPersistStreamInit@@@ATL@@QEBAPEAV?$_NoAddRefReleaseOnCComPtr@UIPersistStreamInit@@@1@XZ 000000018000b720 f i MotionSensor.obj
 0001:0000a7a0       ??C?$CComPtrBase@UIPointerInactive@@@ATL@@QEBAPEAV?$_NoAddRefReleaseOnCComPtr@UIPointerInactive@@@1@XZ 000000018000b7a0 f i MotionSensor.obj
 0001:0000a820       ??C?$CComPtrBase@UIProvideClassInfo2@@@ATL@@QEBAPEAV?$_NoAddRefReleaseOnCComPtr@UIProvideClassInfo2@@@1@XZ 000000018000b820 f i MotionSensor.obj
 0001:0000a8a0       ??C?$CComPtrBase@UISpecifyPropertyPages@@@ATL@@QEBAPEAV?$_NoAddRefReleaseOnCComPtr@UISpecifyPropertyPages@@@1@XZ 000000018000b8a0 f i MotionSensor.obj
 0001:0000a920       ??C?$CComPtrBase@UITypeInfo@@@ATL@@QEBAPEAV?$_NoAddRefReleaseOnCComPtr@UITypeInfo@@@1@XZ 000000018000b920 f i MotionSensor.obj
 0001:0000a9a0       ??C?$CComPtrBase@UITypeLib@@@ATL@@QEBAPEAV?$_NoAddRefReleaseOnCComPtr@UITypeLib@@@1@XZ 000000018000b9a0 f i MotionSensor.obj
 0001:0000aa20       ??C?$CComPtrBase@UIUnknown@@@ATL@@QEBAPEAV?$_NoAddRefReleaseOnCComPtr@UIUnknown@@@1@XZ 000000018000ba20 f i MotionSensor.obj
 0001:0000aaa0       ??C?$CComPtrBase@UIViewObjectEx@@@ATL@@QEBAPEAV?$_NoAddRefReleaseOnCComPtr@UIViewObjectEx@@@1@XZ 000000018000baa0 f i MotionSensor.obj
 0001:0000ab20       ??I?$CComPtrBase@UICatRegister@@@ATL@@QEAAPEAPEAUICatRegister@@XZ 000000018000bb20 f i MotionSensor.obj
 0001:0000ab90       ??I?$CComPtrBase@UIConnectionPoint@@@ATL@@QEAAPEAPEAUIConnectionPoint@@XZ 000000018000bb90 f i MotionSensor.obj
 0001:0000ac00       ??I?$CComPtrBase@UIConnectionPointContainer@@@ATL@@QEAAPEAPEAUIConnectionPointContainer@@XZ 000000018000bc00 f i MotionSensor.obj
 0001:0000ac70       ??I?$CComPtrBase@UIDataAdviseHolder@@@ATL@@QEAAPEAPEAUIDataAdviseHolder@@XZ 000000018000bc70 f i MotionSensor.obj
 0001:0000ace0       ??I?$CComPtrBase@UIDataObject@@@ATL@@QEAAPEAPEAUIDataObject@@XZ 000000018000bce0 f i MotionSensor.obj
 0001:0000ad50       ??I?$CComPtrBase@UIDispatch@@@ATL@@QEAAPEAPEAUIDispatch@@XZ 000000018000bd50 f i MotionSensor.obj
 0001:0000adc0       ??I?$CComPtrBase@UIOleAdviseHolder@@@ATL@@QEAAPEAPEAUIOleAdviseHolder@@XZ 000000018000bdc0 f i MotionSensor.obj
 0001:0000ae30       ??I?$CComPtrBase@UIOleControlSite@@@ATL@@QEAAPEAPEAUIOleControlSite@@XZ 000000018000be30 f i MotionSensor.obj
 0001:0000aea0       ??I?$CComPtrBase@UIOleInPlaceActiveObject@@@ATL@@QEAAPEAPEAUIOleInPlaceActiveObject@@XZ 000000018000bea0 f i MotionSensor.obj
 0001:0000af10       ??I?$CComPtrBase@UIOleInPlaceFrame@@@ATL@@QEAAPEAPEAUIOleInPlaceFrame@@XZ 000000018000bf10 f i MotionSensor.obj
 0001:0000af80       ??I?$CComPtrBase@UIOleInPlaceObject@@@ATL@@QEAAPEAPEAUIOleInPlaceObject@@XZ 000000018000bf80 f i MotionSensor.obj
 0001:0000aff0       ??I?$CComPtrBase@UIOleInPlaceSiteWindowless@@@ATL@@QEAAPEAPEAUIOleInPlaceSiteWindowless@@XZ 000000018000bff0 f i MotionSensor.obj
 0001:0000b060       ??I?$CComPtrBase@UIOleInPlaceUIWindow@@@ATL@@QEAAPEAPEAUIOleInPlaceUIWindow@@XZ 000000018000c060 f i MotionSensor.obj
 0001:0000b0d0       ??I?$CComPtrBase@UIOleObject@@@ATL@@QEAAPEAPEAUIOleObject@@XZ 000000018000c0d0 f i MotionSensor.obj
 0001:0000b140       ??I?$CComPtrBase@UIPersistStream@@@ATL@@QEAAPEAPEAUIPersistStream@@XZ 000000018000c140 f i MotionSensor.obj
 0001:0000b1b0       ??I?$CComPtrBase@UIPointerInactive@@@ATL@@QEAAPEAPEAUIPointerInactive@@XZ 000000018000c1b0 f i MotionSensor.obj
 0001:0000b220       ??I?$CComPtrBase@UIProvideClassInfo2@@@ATL@@QEAAPEAPEAUIProvideClassInfo2@@XZ 000000018000c220 f i MotionSensor.obj
 0001:0000b290       ??I?$CComPtrBase@UIStream@@@ATL@@QEAAPEAPEAUIStream@@XZ 000000018000c290 f i MotionSensor.obj
 0001:0000b300       ??I?$CComPtrBase@UITypeInfo2@@@ATL@@QEAAPEAPEAUITypeInfo2@@XZ 000000018000c300 f i MotionSensor.obj
 0001:0000b370       ??I?$CComPtrBase@UITypeInfo@@@ATL@@QEAAPEAPEAUITypeInfo@@XZ 000000018000c370 f i MotionSensor.obj
 0001:0000b3e0       ??I?$CComPtrBase@UITypeLib@@@ATL@@QEAAPEAPEAUITypeLib@@XZ 000000018000c3e0 f i MotionSensor.obj
 0001:0000b450       ??I?$CComPtrBase@UIUnknown@@@ATL@@QEAAPEAPEAUIUnknown@@XZ 000000018000c450 f i MotionSensor.obj
 0001:0000b4c0       ??I?$CComPtrBase@UIViewObjectEx@@@ATL@@QEAAPEAPEAUIViewObjectEx@@XZ 000000018000c4c0 f i MotionSensor.obj
 0001:0000b530       ??ICComBSTR@ATL@@QEAAPEAPEA_WXZ 000000018000c530 f i MotionSensor.obj
 0001:0000b540       ??_E?$CComContainedObject@VCOPOSMotionSensor@@@ATL@@W7EAAPEAXI@Z 000000018000c540 f i MotionSensor.obj
 0001:0000b54c       ??_E?$CComContainedObject@VCOPOSMotionSensor@@@ATL@@WHA@EAAPEAXI@Z 000000018000c54c f i MotionSensor.obj
 0001:0000b558       ??_E?$CComObject@VCOPOSMotionSensor@@@ATL@@W7EAAPEAXI@Z 000000018000c558 f i MotionSensor.obj
 0001:0000b564       ??_E?$CComObject@VCOPOSMotionSensor@@@ATL@@WHA@EAAPEAXI@Z 000000018000c564 f i MotionSensor.obj
 0001:0000b570       ??_G?$CComAggObject@VCOPOSMotionSensor@@@ATL@@UEAAPEAXI@Z 000000018000c570 f i MotionSensor.obj
 0001:0000b570       ??_E?$CComAggObject@VCOPOSMotionSensor@@@ATL@@UEAAPEAXI@Z 000000018000c570 f i MotionSensor.obj
 0001:0000b5d0       ??_G?$CComContainedObject@VCOPOSMotionSensor@@@ATL@@UEAAPEAXI@Z 000000018000c5d0 f i MotionSensor.obj
 0001:0000b5d0       ??_E?$CComContainedObject@VCOPOSMotionSensor@@@ATL@@UEAAPEAXI@Z 000000018000c5d0 f i MotionSensor.obj
 0001:0000b630       ??_G?$CComObject@V?$CComEnum@UIEnumConnectionPoints@@$1?_GUID_b196b285_bab4_101a_b69c_00aa00341d07@@3U__s_GUID@@BPEAUIConnectionPoint@@V?$_CopyInterface@UIConnectionPoint@@@ATL@@VCComSingleThreadModel@6@@ATL@@@ATL@@UEAAPEAXI@Z 000000018000c630 f i MotionSensor.obj
 0001:0000b630       ??_E?$CComObject@V?$CComEnum@UIEnumConnectionPoints@@$1?_GUID_b196b285_bab4_101a_b69c_00aa00341d07@@3U__s_GUID@@BPEAUIConnectionPoint@@V?$_CopyInterface@UIConnectionPoint@@@ATL@@VCComSingleThreadModel@6@@ATL@@@ATL@@UEAAPEAXI@Z 000000018000c630 f i MotionSensor.obj
 0001:0000b690       ??_E?$CComObject@V?$CComEnum@UIEnumConnections@@$1?_GUID_b196b287_bab4_101a_b69c_00aa00341d07@@3U__s_GUID@@BUtagCONNECTDATA@@V?$_Copy@UtagCONNECTDATA@@@ATL@@VCComSingleThreadModel@6@@ATL@@@ATL@@UEAAPEAXI@Z 000000018000c690 f i MotionSensor.obj
 0001:0000b690       ??_G?$CComObject@V?$CComEnum@UIEnumConnections@@$1?_GUID_b196b287_bab4_101a_b69c_00aa00341d07@@3U__s_GUID@@BUtagCONNECTDATA@@V?$_Copy@UtagCONNECTDATA@@@ATL@@VCComSingleThreadModel@6@@ATL@@@ATL@@UEAAPEAXI@Z 000000018000c690 f i MotionSensor.obj
 0001:0000b6f0       ??_E?$CComObject@VCOPOSMotionSensor@@@ATL@@UEAAPEAXI@Z 000000018000c6f0 f i MotionSensor.obj
 0001:0000b6f0       ??_G?$CComObject@VCOPOSMotionSensor@@@ATL@@UEAAPEAXI@Z 000000018000c6f0 f i MotionSensor.obj
 0001:0000b750       ??_G?$CComObjectCached@VCComClassFactory@ATL@@@ATL@@UEAAPEAXI@Z 000000018000c750 f i MotionSensor.obj
 0001:0000b750       ??_E?$CComObjectCached@VCComClassFactory@ATL@@@ATL@@UEAAPEAXI@Z 000000018000c750 f i MotionSensor.obj
 0001:0000b7b0       ??_GCComClassFactory@ATL@@UEAAPEAXI@Z 000000018000c7b0 f i MotionSensor.obj
 0001:0000b7b0       ??_ECComClassFactory@ATL@@UEAAPEAXI@Z 000000018000c7b0 f i MotionSensor.obj
 0001:0000b810       ??_GCComModule@ATL@@UEAAPEAXI@Z 000000018000c810 f i MotionSensor.obj
 0001:0000b810       ??_ECComModule@ATL@@UEAAPEAXI@Z 000000018000c810 f i MotionSensor.obj
 0001:0000b870       ??_GCRegObject@ATL@@UEAAPEAXI@Z 000000018000c870 f i MotionSensor.obj
 0001:0000b870       ??_ECRegObject@ATL@@UEAAPEAXI@Z 000000018000c870 f i MotionSensor.obj
 0001:0000b8d0       ?Add@?$CSimpleArray@GV?$CSimpleArrayEqualHelper@G@ATL@@@ATL@@QEAAHAEBG@Z 000000018000c8d0 f i MotionSensor.obj
 0001:0000ba70       ?Add@?$CSimpleMap@PEA_WPEA_WVCExpansionVectorEqualHelper@ATL@@@ATL@@QEAAHAEBQEA_W0@Z 000000018000ca70 f i MotionSensor.obj
 0001:0000bb60       ?Add@CComDynamicUnkArray@ATL@@QEAAKPEAUIUnknown@@@Z 000000018000cb60 f i MotionSensor.obj
 0001:0000bd40       ?Add@CExpansionVector@ATL@@QEAAHPEB_W0@Z 000000018000cd40 f i MotionSensor.obj
 0001:0000c070       ?AddChar@CParseBuffer@CRegParser@ATL@@QEAAHPEB_W@Z 000000018000d070 f i MotionSensor.obj
 0001:0000c0c0       ?AddCommonRGSReplacements@?$CAtlModuleT@VCComModule@ATL@@@ATL@@UEAAJPEAUIRegistrarBase@@@Z 000000018000d0c0 f i MotionSensor.obj
 0001:0000c120       ?AddCreateWndData@CAtlWinModule@ATL@@QEAAXPEAU_AtlCreateWndData@2@PEAX@Z 000000018000d120 f i MotionSensor.obj
 0001:0000c170       ?AddRef@?$CComAggObject@VCOPOSMotionSensor@@@ATL@@UEAAKXZ 000000018000d170 f i MotionSensor.obj
 0001:0000c1b0       ?AddRef@?$CComContainedObject@VCOPOSMotionSensor@@@ATL@@UEAAKXZ 000000018000d1b0 f i MotionSensor.obj
 0001:0000c1e8       ?AddRef@?$CComContainedObject@VCOPOSMotionSensor@@@ATL@@WBAA@EAAKXZ 000000018000d1e8 f i MotionSensor.obj
 0001:0000c1f4       ?AddRef@?$CComContainedObject@VCOPOSMotionSensor@@@ATL@@WBAI@EAAKXZ 000000018000d1f4 f i MotionSensor.obj
 0001:0000c200       ?AddRef@?$CComContainedObject@VCOPOSMotionSensor@@@ATL@@WBBA@EAAKXZ 000000018000d200 f i MotionSensor.obj
 0001:0000c20c       ?AddRef@?$CComContainedObject@VCOPOSMotionSensor@@@ATL@@WBBI@EAAKXZ 000000018000d20c f i MotionSensor.obj
 0001:0000c218       ?AddRef@?$CComContainedObject@VCOPOSMotionSensor@@@ATL@@WBCI@EAAKXZ 000000018000d218 f i MotionSensor.obj
 0001:0000c224       ?AddRef@?$CComContainedObject@VCOPOSMotionSensor@@@ATL@@WBEA@EAAKXZ 000000018000d224 f i MotionSensor.obj
 0001:0000c230       ?AddRef@?$CComContainedObject@VCOPOSMotionSensor@@@ATL@@WLI@EAAKXZ 000000018000d230 f i MotionSensor.obj
 0001:0000c23c       ?AddRef@?$CComContainedObject@VCOPOSMotionSensor@@@ATL@@WMA@EAAKXZ 000000018000d23c f i MotionSensor.obj
 0001:0000c248       ?AddRef@?$CComContainedObject@VCOPOSMotionSensor@@@ATL@@WMI@EAAKXZ 000000018000d248 f i MotionSensor.obj
 0001:0000c254       ?AddRef@?$CComContainedObject@VCOPOSMotionSensor@@@ATL@@WNA@EAAKXZ 000000018000d254 f i MotionSensor.obj
 0001:0000c260       ?AddRef@?$CComContainedObject@VCOPOSMotionSensor@@@ATL@@WNI@EAAKXZ 000000018000d260 f i MotionSensor.obj
 0001:0000c26c       ?AddRef@?$CComContainedObject@VCOPOSMotionSensor@@@ATL@@WOA@EAAKXZ 000000018000d26c f i MotionSensor.obj
 0001:0000c278       ?AddRef@?$CComContainedObject@VCOPOSMotionSensor@@@ATL@@WOI@EAAKXZ 000000018000d278 f i MotionSensor.obj
 0001:0000c284       ?AddRef@?$CComContainedObject@VCOPOSMotionSensor@@@ATL@@WPA@EAAKXZ 000000018000d284 f i MotionSensor.obj
 0001:0000c290       ?AddRef@?$CComContainedObject@VCOPOSMotionSensor@@@ATL@@WPI@EAAKXZ 000000018000d290 f i MotionSensor.obj
 0001:0000c2a0       ?AddRef@?$CComObject@V?$CComEnum@UIEnumConnectionPoints@@$1?_GUID_b196b285_bab4_101a_b69c_00aa00341d07@@3U__s_GUID@@BPEAUIConnectionPoint@@V?$_CopyInterface@UIConnectionPoint@@@ATL@@VCComSingleThreadModel@6@@ATL@@@ATL@@UEAAKXZ 000000018000d2a0 f i MotionSensor.obj
 0001:0000c2e0       ?AddRef@?$CComObject@V?$CComEnum@UIEnumConnections@@$1?_GUID_b196b287_bab4_101a_b69c_00aa00341d07@@3U__s_GUID@@BUtagCONNECTDATA@@V?$_Copy@UtagCONNECTDATA@@@ATL@@VCComSingleThreadModel@6@@ATL@@@ATL@@UEAAKXZ 000000018000d2e0 f i MotionSensor.obj
 0001:0000c320       ?AddRef@?$CComObject@VCOPOSMotionSensor@@@ATL@@UEAAKXZ 000000018000d320 f i MotionSensor.obj
 0001:0000c358       ?AddRef@?$CComObject@VCOPOSMotionSensor@@@ATL@@WBAA@EAAKXZ 000000018000d358 f i MotionSensor.obj
 0001:0000c364       ?AddRef@?$CComObject@VCOPOSMotionSensor@@@ATL@@WBAI@EAAKXZ 000000018000d364 f i MotionSensor.obj
 0001:0000c370       ?AddRef@?$CComObject@VCOPOSMotionSensor@@@ATL@@WBBA@EAAKXZ 000000018000d370 f i MotionSensor.obj
 0001:0000c37c       ?AddRef@?$CComObject@VCOPOSMotionSensor@@@ATL@@WBBI@EAAKXZ 000000018000d37c f i MotionSensor.obj
 0001:0000c388       ?AddRef@?$CComObject@VCOPOSMotionSensor@@@ATL@@WBCI@EAAKXZ 000000018000d388 f i MotionSensor.obj
 0001:0000c394       ?AddRef@?$CComObject@VCOPOSMotionSensor@@@ATL@@WBEA@EAAKXZ 000000018000d394 f i MotionSensor.obj
 0001:0000c3a0       ?AddRef@?$CComObject@VCOPOSMotionSensor@@@ATL@@WLI@EAAKXZ 000000018000d3a0 f i MotionSensor.obj
 0001:0000c3ac       ?AddRef@?$CComObject@VCOPOSMotionSensor@@@ATL@@WMA@EAAKXZ 000000018000d3ac f i MotionSensor.obj
 0001:0000c3b8       ?AddRef@?$CComObject@VCOPOSMotionSensor@@@ATL@@WMI@EAAKXZ 000000018000d3b8 f i MotionSensor.obj
 0001:0000c3c4       ?AddRef@?$CComObject@VCOPOSMotionSensor@@@ATL@@WNA@EAAKXZ 000000018000d3c4 f i MotionSensor.obj
 0001:0000c3d0       ?AddRef@?$CComObject@VCOPOSMotionSensor@@@ATL@@WNI@EAAKXZ 000000018000d3d0 f i MotionSensor.obj
 0001:0000c3dc       ?AddRef@?$CComObject@VCOPOSMotionSensor@@@ATL@@WOA@EAAKXZ 000000018000d3dc f i MotionSensor.obj
 0001:0000c3e8       ?AddRef@?$CComObject@VCOPOSMotionSensor@@@ATL@@WOI@EAAKXZ 000000018000d3e8 f i MotionSensor.obj
 0001:0000c3f4       ?AddRef@?$CComObject@VCOPOSMotionSensor@@@ATL@@WPA@EAAKXZ 000000018000d3f4 f i MotionSensor.obj
 0001:0000c400       ?AddRef@?$CComObject@VCOPOSMotionSensor@@@ATL@@WPI@EAAKXZ 000000018000d400 f i MotionSensor.obj
 0001:0000c410       ?AddRef@?$CComObjectCached@VCComClassFactory@ATL@@@ATL@@UEAAKXZ 000000018000d410 f i MotionSensor.obj
 0001:0000c470       ?AddRef@CRegObject@ATL@@UEAAKXZ 000000018000d470 f i MotionSensor.obj
 0001:0000c4e0       ?AddReplacement@CRegObject@ATL@@UEAAJPEB_W0@Z 000000018000d4e0 f i MotionSensor.obj
 0001:0000c610       ?AddString@CParseBuffer@CRegParser@ATL@@QEAAHPEB_W@Z 000000018000d610 f i MotionSensor.obj
 0001:0000c700       ?AddTermFunc@CAtlModule@ATL@@QEAAJP6AX_K@Z0@Z 000000018000d700 f i MotionSensor.obj
 0001:0000c770       ?AddValue@CRegParser@ATL@@IEAAJAEAVCRegKey@2@PEB_WPEA_W@Z 000000018000d770 f i MotionSensor.obj
 0001:0000d040       ?Advise@?$CProxy_IOPOSEvents@VCOPOSMotionSensor@@@@UEAAJPEAUIUnknown@@PEAK@Z 000000018000e040 f i MotionSensor.obj
 0001:0000d0b0       ?Advise@?$IConnectionPointImpl@VCOPOSMotionSensor@@$1?DIID__IOPOSMotionSensorEvents@@3U_GUID@@BVCComDynamicUnkArray@ATL@@@ATL@@UEAAJPEAUIUnknown@@PEAK@Z 000000018000e0b0 f i MotionSensor.obj
 0001:0000d2b0       ?Advise@?$IConnectionPointImpl@VCOPOSMotionSensor@@$1?IID_IPropertyNotifySink@@3U_GUID@@BVCComDynamicUnkArray@ATL@@@ATL@@UEAAJPEAUIUnknown@@PEAK@Z 000000018000e2b0 f i MotionSensor.obj
 0001:0000d4b0       ?Advise@?$IOleObjectImpl@VCOPOSMotionSensor@@@ATL@@UEAAJPEAUIAdviseSink@@PEAK@Z 000000018000e4b0 f i MotionSensor.obj
 0001:0000d570       ?Allocate@?$CAtlSafeAllocBufferManager@VCCRTAllocator@ATL@@@_ATL_SAFE_ALLOCA_IMPL@ATL@@QEAAPEAX_K@Z 000000018000e570 f i MotionSensor.obj
 0001:0000d5f0       ?Allocate@?$CTempBuffer@E$0BAA@VCCRTAllocator@ATL@@@ATL@@QEAAPEAE_K@Z 000000018000e5f0 f i MotionSensor.obj
 0001:0000d640       ?Allocate@?$CTempBuffer@_W$0BAA@VCCRTAllocator@ATL@@@ATL@@QEAAPEA_W_K@Z 000000018000e640 f i MotionSensor.obj
 0001:0000d690       ?Allocate@?$CTempBuffer@_W$0EAA@VCCRTAllocator@ATL@@@ATL@@QEAAPEA_W_K@Z 000000018000e690 f i MotionSensor.obj
 0001:0000d6e0       ?AllocateBytes@?$CTempBuffer@E$0BAA@VCCRTAllocator@ATL@@@ATL@@QEAAPEAE_K@Z 000000018000e6e0 f i MotionSensor.obj
 0001:0000d790       ?AllocateBytes@?$CTempBuffer@_W$0BAA@VCCRTAllocator@ATL@@@ATL@@QEAAPEA_W_K@Z 000000018000e790 f i MotionSensor.obj
 0001:0000d840       ?AllocateBytes@?$CTempBuffer@_W$0EAA@VCCRTAllocator@ATL@@@ATL@@QEAAPEA_W_K@Z 000000018000e840 f i MotionSensor.obj
 0001:0000d8f0       ?AllocateHeap@?$CTempBuffer@E$0BAA@VCCRTAllocator@ATL@@@ATL@@AEAAX_K@Z 000000018000e8f0 f i MotionSensor.obj
 0001:0000d950       ?AllocateHeap@?$CTempBuffer@_W$0BAA@VCCRTAllocator@ATL@@@ATL@@AEAAX_K@Z 000000018000e950 f i MotionSensor.obj
 0001:0000d9b0       ?AllocateHeap@?$CTempBuffer@_W$0EAA@VCCRTAllocator@ATL@@@ATL@@AEAAX_K@Z 000000018000e9b0 f i MotionSensor.obj
 0001:0000da10       ?Append@CParseBuffer@CRegParser@ATL@@QEAAHPEB_WH@Z 000000018000ea10 f i MotionSensor.obj
 0001:0000dc40       ?AtlCallTermFunc@ATL@@YAXPEAU_ATL_MODULE70@1@@Z 000000018000ec40 f i MotionSensor.obj
 0001:0000dcf0       ?AtlCoTaskMemCAlloc@ATL@@YAPEAXKK@Z 000000018000ecf0 f i MotionSensor.obj
 0001:0000dd70       ?AtlCoTaskMemRecalloc@ATL@@YAPEAXPEAXKK@Z 000000018000ed70 f i MotionSensor.obj
 0001:0000ddf0       ?AtlComModuleGetClassObject@ATL@@YAJPEAU_ATL_COM_MODULE70@1@AEBU_GUID@@1PEAPEAX@Z 000000018000edf0 f i MotionSensor.obj
 0001:0000e120       ?AtlComModuleRegisterServer@ATL@@YAJPEAU_ATL_COM_MODULE70@1@HPEBU_GUID@@@Z 000000018000f120 f i MotionSensor.obj
 0001:0000e320       ?AtlComModuleUnregisterServer@ATL@@YAJPEAU_ATL_COM_MODULE70@1@HPEBU_GUID@@@Z 000000018000f320 f i MotionSensor.obj
 0001:0000e480       ?AtlComQIPtrAssign2@ATL@@YAXPEAPEAUIUnknown@@PEAU2@AEBU_GUID@@@Z 000000018000f480 f i MotionSensor.obj
 0001:0000e510       ?AtlCreateTargetDC@ATL@@YAPEAUHDC__@@PEAU2@PEAUtagDVTARGETDEVICE@@@Z 000000018000f510 f i MotionSensor.obj
 0001:0000e740       ?AtlCrtErrorCheck@ATL@@YAHH@Z 000000018000f740 f i MotionSensor.obj
 0001:0000e7c0       ?AtlGetPerUserRegistration@ATL@@YAJPEA_N@Z 000000018000f7c0 f i MotionSensor.obj
 0001:0000e7f0       ?AtlHiMetricToPixel@ATL@@YAXPEBUtagSIZE@@PEAU2@@Z 000000018000f7f0 f i MotionSensor.obj
 0001:0000e9f0       ?AtlHresultFromLastError@ATL@@YAJXZ 000000018000f9f0 f i MotionSensor.obj
 0001:0000ea20       ?AtlHresultFromWin32@ATL@@YAJK@Z 000000018000fa20 f i MotionSensor.obj
 0001:0000ea50       ?AtlIPersistStreamInit_Load@ATL@@YAJPEAUIStream@@PEBUATL_PROPMAP_ENTRY@1@PEAXPEAUIUnknown@@@Z 000000018000fa50 f i MotionSensor.obj
 0001:0000f0c0       ?AtlIPersistStreamInit_Save@ATL@@YAJPEAUIStream@@HPEBUATL_PROPMAP_ENTRY@1@PEAXPEAUIUnknown@@@Z 00000001800100c0 f i MotionSensor.obj
 0001:0000f650       ?AtlInternalOleLoadFromStream@ATL@@YAJPEAUIStream@@AEBU_GUID@@PEAPEAXTClassesAllowedInStream@1@K@Z 0000000180010650 f i MotionSensor.obj
 0001:0000f990       ?AtlInternalQueryInterface@ATL@@YAJPEAXPEBU_ATL_INTMAP_ENTRY@1@AEBU_GUID@@PEAPEAX@Z 0000000180010990 f i MotionSensor.obj
 0001:0000fc50       ?AtlLoadTypeLib@ATL@@YAJPEAUHINSTANCE__@@PEB_WPEAPEA_WPEAPEAUITypeLib@@@Z 0000000180010c50 f i MotionSensor.obj
 0001:00010120       ?AtlModuleAddTermFunc@ATL@@YAJPEAU_ATL_MODULE70@1@P6AX_K@Z1@Z 0000000180011120 f i MotionSensor.obj
 0001:000102f0       ?AtlRegisterClassCategoriesHelper@ATL@@YAJAEBU_GUID@@PEBU_ATL_CATMAP_ENTRY@1@H@Z 00000001800112f0 f i MotionSensor.obj
 0001:00010ac0       ?AtlRegisterTypeLib@ATL@@YAJPEAUHINSTANCE__@@PEB_W@Z 0000000180011ac0 f i MotionSensor.obj
 0001:00010e20       ?AtlThrowImpl@ATL@@YAXJ@Z  0000000180011e20 f i MotionSensor.obj
 0001:00010f00       ?AtlUnRegisterTypeLib@ATL@@YAJPEAUHINSTANCE__@@PEB_W@Z 0000000180011f00 f i MotionSensor.obj
 0001:00011130       ?AtlWinModuleAddCreateWndData@ATL@@YAXPEAU_ATL_WIN_MODULE70@1@PEAU_AtlCreateWndData@1@PEAX@Z 0000000180012130 f i MotionSensor.obj
 0001:00011320       ?AtlWinModuleExtractCreateWndData@ATL@@YAPEAXPEAU_ATL_WIN_MODULE70@1@@Z 0000000180012320 f i MotionSensor.obj
 0001:00011520       ?AtlWinModuleRegisterClassExW@ATL@@YAGPEAU_ATL_WIN_MODULE70@1@PEBUtagWNDCLASSEXW@@@Z 0000000180012520 f i MotionSensor.obj
 0001:000115f0       ?AtlWinModuleRegisterWndClassInfoW@ATL@@YAGPEAU_ATL_WIN_MODULE70@1@PEAU_ATL_BASE_MODULE70@1@PEAU_ATL_WNDCLASSINFOW@1@PEAP6A_JPEAUHWND__@@I_K_J@Z@Z 00000001800125f0 f i MotionSensor.obj
 0001:00011660       ?Attach@?$CAutoVectorPtr@_W@ATL@@QEAAXPEA_W@Z 0000000180012660 f i MotionSensor.obj
 0001:000116f0       ?Attach@CComBSTR@ATL@@QEAAXPEA_W@Z 00000001800126f0 f i MotionSensor.obj
 0001:00011750       ?Attach@CRegKey@ATL@@QEAAXPEAUHKEY__@@@Z 0000000180012750 f i MotionSensor.obj
 0001:000117f0       ?CanForceRemoveKey@CRegParser@ATL@@IEAAHPEB_W@Z 00000001800127f0 f i MotionSensor.obj
 0001:00011860       ?ChToByte@CRegParser@ATL@@KAE_W@Z 0000000180012860 f i MotionSensor.obj
 0001:000119c0       ?ChangeType@CComVariant@ATL@@QEAAJGPEBUtagVARIANT@@@Z 00000001800129c0 f i MotionSensor.obj
 0001:00011a30       ?Cleanup@CComTypeInfoHolder@ATL@@SAX_K@Z 0000000180012a30 f i MotionSensor.obj
 0001:00011b20       ?Clear@CComVariant@ATL@@QEAAJXZ 0000000180012b20 f i MotionSensor.obj
 0001:00011b50       ?ClearReplacements@CExpansionVector@ATL@@QEAAJXZ 0000000180012b50 f i MotionSensor.obj
 0001:00011bf0       ?ClearReplacements@CRegObject@ATL@@UEAAJXZ 0000000180012bf0 f i MotionSensor.obj
 0001:00011c50       ?Clone@?$CComEnumImpl@UIEnumConnectionPoints@@$1?_GUID_b196b285_bab4_101a_b69c_00aa00341d07@@3U__s_GUID@@BPEAUIConnectionPoint@@V?$_CopyInterface@UIConnectionPoint@@@ATL@@@ATL@@UEAAJPEAPEAUIEnumConnectionPoints@@@Z 0000000180012c50 f i MotionSensor.obj
 0001:00011e40       ?Clone@?$CComEnumImpl@UIEnumConnections@@$1?_GUID_b196b287_bab4_101a_b69c_00aa00341d07@@3U__s_GUID@@BUtagCONNECTDATA@@V?$_Copy@UtagCONNECTDATA@@@ATL@@@ATL@@UEAAJPEAPEAUIEnumConnections@@@Z 0000000180012e40 f i MotionSensor.obj
 0001:00012030       ?Close@?$IOleObjectImpl@VCOPOSMotionSensor@@@ATL@@UEAAJK@Z 0000000180013030 f i MotionSensor.obj
 0001:000120e0       ?Close@CRegKey@ATL@@QEAAJXZ 00000001800130e0 f i MotionSensor.obj
 0001:00012150       ?ContextSensitiveHelp@?$IOleInPlaceActiveObjectImpl@VCOPOSMotionSensor@@@ATL@@UEAAJH@Z 0000000180013150 f i MotionSensor.obj
 0001:000121d0       ?ContextSensitiveHelp@?$IOleInPlaceObjectWindowlessImpl@VCOPOSMotionSensor@@@ATL@@UEAAJH@Z 00000001800131d0 f i MotionSensor.obj
 0001:00012250       ?ControlQueryInterface@?$CComControl@VCOPOSMotionSensor@@V?$CWindowImpl@VCOPOSMotionSensor@@VCWindow@ATL@@V?$CWinTraits@$0FGAAAAAA@$0A@@3@@ATL@@@ATL@@UEAAJAEBU_GUID@@PEAPEAX@Z 0000000180013250 f i MotionSensor.obj
 0001:000122e0       ?CreateControlWindow@?$CComControl@VCOPOSMotionSensor@@V?$CWindowImpl@VCOPOSMotionSensor@@VCWindow@ATL@@V?$CWinTraits@$0FGAAAAAA@$0A@@3@@ATL@@@ATL@@UEAAPEAUHWND__@@PEAU3@AEAUtagRECT@@@Z 00000001800132e0 f i MotionSensor.obj
 0001:000123d0       ?CreateInstance@?$CComCreator@V?$CComAggObject@VCOPOSMotionSensor@@@ATL@@@ATL@@SAJPEAXAEBU_GUID@@PEAPEAX@Z 00000001800133d0 f i MotionSensor.obj
 0001:000125b0       ?CreateInstance@?$CComCreator@V?$CComObject@VCOPOSMotionSensor@@@ATL@@@ATL@@SAJPEAXAEBU_GUID@@PEAPEAX@Z 00000001800135b0 f i MotionSensor.obj
 0001:000127b0       ?CreateInstance@?$CComObject@V?$CComEnum@UIEnumConnectionPoints@@$1?_GUID_b196b285_bab4_101a_b69c_00aa00341d07@@3U__s_GUID@@BPEAUIConnectionPoint@@V?$_CopyInterface@UIConnectionPoint@@@ATL@@VCComSingleThreadModel@6@@ATL@@@ATL@@SAJPEAPEAV12@@Z 00000001800137b0 f i MotionSensor.obj
 0001:00012970       ?CreateInstance@?$CComObject@V?$CComEnum@UIEnumConnections@@$1?_GUID_b196b287_bab4_101a_b69c_00aa00341d07@@3U__s_GUID@@BUtagCONNECTDATA@@V?$_Copy@UtagCONNECTDATA@@@ATL@@VCComSingleThreadModel@6@@ATL@@@ATL@@SAJPEAPEAV12@@Z 0000000180013970 f i MotionSensor.obj
 0001:00012b30       ?CreateInstance@CComClassFactory@ATL@@UEAAJPEAUIUnknown@@AEBU_GUID@@PEAPEAX@Z 0000000180013b30 f i MotionSensor.obj
 0001:00012c50       ?DAdvise@?$IDataObjectImpl@VCOPOSMotionSensor@@@ATL@@UEAAJPEAUtagFORMATETC@@KPEAUIAdviseSink@@PEAK@Z 0000000180013c50 f i MotionSensor.obj
 0001:00012db0       ?DEVMODEOLE2T_EX@@YAPEAU_devicemodeW@@PEAU1@@Z 0000000180013db0 f i MotionSensor.obj
 0001:00012dc0       ?DUnadvise@?$IDataObjectImpl@VCOPOSMotionSensor@@@ATL@@UEAAJK@Z 0000000180013dc0 f i MotionSensor.obj
 0001:00012ec0       ?Decrement@CComMultiThreadModel@ATL@@SAKPEAJ@Z 0000000180013ec0 f i MotionSensor.obj
 0001:00012ee0       ?Decrement@CComSingleThreadModel@ATL@@SAKPEAJ@Z 0000000180013ee0 f i MotionSensor.obj
 0001:00012f00       ?DefWindowProcW@?$CWindowImplBaseT@VCWindow@ATL@@V?$CWinTraits@$0FGAAAAAA@$0A@@2@@ATL@@QEAA_JI_K_J@Z 0000000180013f00 f i MotionSensor.obj
 0001:00012f60       ?DefaultReflectionHandler@?$CWindowImplRoot@VCWindow@ATL@@@ATL@@SAHPEAUHWND__@@I_K_JAEA_J@Z 0000000180013f60 f i MotionSensor.obj
 0001:00013050       ?DeleteSubKey@CRegKey@ATL@@QEAAJPEB_W@Z 0000000180014050 f i MotionSensor.obj
 0001:00013180       ?DeleteValue@CRegKey@ATL@@QEAAJPEB_W@Z 0000000180014180 f i MotionSensor.obj
 0001:00013210       ?Detach@?$CAutoVectorPtr@_W@ATL@@QEAAPEA_WXZ 0000000180014210 f i MotionSensor.obj
 0001:00013250       ?Detach@?$CComPtrBase@UIPersistStream@@@ATL@@QEAAPEAUIPersistStream@@XZ 0000000180014250 f i MotionSensor.obj
 0001:00013290       ?Detach@?$CComPtrBase@UITypeInfo@@@ATL@@QEAAPEAUITypeInfo@@XZ 0000000180014290 f i MotionSensor.obj
 0001:000132d0       ?Detach@?$CComPtrBase@UIUnknown@@@ATL@@QEAAPEAUIUnknown@@XZ 00000001800142d0 f i MotionSensor.obj
 0001:00013310       ?Detach@CComBSTR@ATL@@QEAAPEA_WXZ 0000000180014310 f i MotionSensor.obj
 0001:00013350       ?Detach@CParseBuffer@CRegParser@ATL@@QEAAPEA_WXZ 0000000180014350 f i MotionSensor.obj
 0001:000133b0       ?Detach@CRegKey@ATL@@QEAAPEAUHKEY__@@XZ 00000001800143b0 f i MotionSensor.obj
 0001:00013410       ?DoEvent@COPOSMotionSensor@@IEAAXI_K_J@Z 0000000180014410 f i MotionSensor.obj
 0001:00013550       ?DoVerb@?$IOleObjectImpl@VCOPOSMotionSensor@@@ATL@@UEAAJJPEAUtagMSG@@PEAUIOleClientSite@@JPEAUHWND__@@PEBUtagRECT@@@Z 0000000180014550 f i MotionSensor.obj
 0001:00013860       ?DoVerbDiscardUndo@?$IOleObjectImpl@VCOPOSMotionSensor@@@ATL@@QEAAJPEBUtagRECT@@PEAUHWND__@@@Z 0000000180014860 f i MotionSensor.obj
 0001:00013900       ?DoVerbHide@?$IOleObjectImpl@VCOPOSMotionSensor@@@ATL@@QEAAJPEBUtagRECT@@PEAUHWND__@@@Z 0000000180014900 f i MotionSensor.obj
 0001:000139e0       ?DoVerbInPlaceActivate@?$IOleObjectImpl@VCOPOSMotionSensor@@@ATL@@QEAAJPEBUtagRECT@@PEAUHWND__@@@Z 00000001800149e0 f i MotionSensor.obj
 0001:00013ac0       ?DoVerbOpen@?$IOleObjectImpl@VCOPOSMotionSensor@@@ATL@@QEAAJPEBUtagRECT@@PEAUHWND__@@@Z 0000000180014ac0 f i MotionSensor.obj
 0001:00013b60       ?DoVerbPrimary@?$IOleObjectImpl@VCOPOSMotionSensor@@@ATL@@QEAAJPEBUtagRECT@@PEAUHWND__@@@Z 0000000180014b60 f i MotionSensor.obj
 0001:00013ca0       ?DoVerbProperties@CComControlBase@ATL@@QEAAJPEBUtagRECT@@PEAUHWND__@@@Z 0000000180014ca0 f i MotionSensor.obj
 0001:00014050       ?DoVerbShow@?$IOleObjectImpl@VCOPOSMotionSensor@@@ATL@@QEAAJPEBUtagRECT@@PEAUHWND__@@@Z 0000000180015050 f i MotionSensor.obj
 0001:00014110       ?DoVerbUIActivate@?$IOleObjectImpl@VCOPOSMotionSensor@@@ATL@@QEAAJPEBUtagRECT@@PEAUHWND__@@@Z 0000000180015110 f i MotionSensor.obj
 0001:000141f0       ?DoesVerbActivate@CComControlBase@ATL@@QEAAHJ@Z 00000001800151f0 f i MotionSensor.obj
 0001:00014250       ?DoesVerbUIActivate@CComControlBase@ATL@@QEAAHJ@Z 0000000180015250 f i MotionSensor.obj
 0001:000142d0       ?Draw@?$IViewObjectExImpl@VCOPOSMotionSensor@@@ATL@@UEAAJKJPEAXPEAUtagDVTARGETDEVICE@@PEAUHDC__@@2PEBU_RECTL@@3P6AH_K@Z4@Z 00000001800152d0 f i MotionSensor.obj
 0001:000143f0       ?Empty@CComBSTR@ATL@@QEAAXXZ 00000001800153f0 f i MotionSensor.obj
 0001:00014430       ?EnableModeless@?$IOleInPlaceActiveObjectImpl@VCOPOSMotionSensor@@@ATL@@UEAAJH@Z 0000000180015430 f i MotionSensor.obj
 0001:000144a0       ?EndOfVar@CRegParser@ATL@@IEAAHXZ 00000001800154a0 f i MotionSensor.obj
 0001:00014500       ?EnsureTI@CComTypeInfoHolder@ATL@@QEAAJK@Z 0000000180015500 f i MotionSensor.obj
 0001:00014560       ?EnumAdvise@?$IOleObjectImpl@VCOPOSMotionSensor@@@ATL@@UEAAJPEAPEAUIEnumSTATDATA@@@Z 0000000180015560 f i MotionSensor.obj
 0001:000146c0       ?EnumConnectionPoints@?$IConnectionPointContainerImpl@VCOPOSMotionSensor@@@ATL@@UEAAJPEAPEAUIEnumConnectionPoints@@@Z 00000001800156c0 f i MotionSensor.obj
 0001:00014bb0       ?EnumConnections@?$IConnectionPointImpl@VCOPOSMotionSensor@@$1?DIID__IOPOSMotionSensorEvents@@3U_GUID@@BVCComDynamicUnkArray@ATL@@@ATL@@UEAAJPEAPEAUIEnumConnections@@@Z 0000000180015bb0 f i MotionSensor.obj
 0001:00014f00       ?EnumConnections@?$IConnectionPointImpl@VCOPOSMotionSensor@@$1?IID_IPropertyNotifySink@@3U_GUID@@BVCComDynamicUnkArray@ATL@@@ATL@@UEAAJPEAPEAUIEnumConnections@@@Z 0000000180015f00 f i MotionSensor.obj
 0001:00015250       ?EnumDAdvise@?$IDataObjectImpl@VCOPOSMotionSensor@@@ATL@@UEAAJPEAPEAUIEnumSTATDATA@@@Z 0000000180016250 f i MotionSensor.obj
 0001:000153a0       ?EnumFormatEtc@?$IDataObjectImpl@VCOPOSMotionSensor@@@ATL@@UEAAJKPEAPEAUIEnumFORMATETC@@@Z 00000001800163a0 f i MotionSensor.obj
 0001:00015430       ?EnumVerbs@?$IOleObjectImpl@VCOPOSMotionSensor@@@ATL@@UEAAJPEAPEAUIEnumOLEVERB@@@Z 0000000180016430 f i MotionSensor.obj
 0001:00015500       ?EscapeSingleQuote@CAtlModule@ATL@@SAXPEA_W_KPEB_W@Z 0000000180016500 f i MotionSensor.obj
 0001:00015600       ?ExtractCreateWndData@CAtlWinModule@ATL@@QEAAPEAXXZ 0000000180016600 f i MotionSensor.obj
 0001:00015630       ?FAccessAllowed@?$IObjectSafetyImpl@VCOPOSMotionSensor@@$02@ATL@@MEAAHXZ 0000000180016630 f i MotionSensor.obj
 0001:00015640       ?FinalConstruct@?$CComAggObject@VCOPOSMotionSensor@@@ATL@@QEAAJXZ 0000000180016640 f i MotionSensor.obj
 0001:00015690       ?FinalConstruct@CComObjectRootBase@ATL@@QEAAJXZ 0000000180016690 f i MotionSensor.obj
 0001:000156a0       ?FinalConstruct@CRegObject@ATL@@QEAAJXZ 00000001800166a0 f i MotionSensor.obj
 0001:000156e0       ?FinalRelease@?$CComAggObject@VCOPOSMotionSensor@@@ATL@@QEAAXXZ 00000001800166e0 f i MotionSensor.obj
 0001:00015730       ?FinalRelease@CComObjectRootBase@ATL@@QEAAXXZ 0000000180016730 f i MotionSensor.obj
 0001:00015740       ?FindConnectionPoint@?$IConnectionPointContainerImpl@VCOPOSMotionSensor@@@ATL@@UEAAJAEBU_GUID@@PEAPEAUIConnectionPoint@@@Z 0000000180016740 f i MotionSensor.obj
 0001:000158b0       ?FindKey@?$CSimpleMap@PEA_WPEA_WVCExpansionVectorEqualHelper@ATL@@@ATL@@QEBAHAEBQEA_W@Z 00000001800168b0 f i MotionSensor.obj
 0001:00015930       ?FireTheEvent@?$CProxy_IOPOSEvents@VCOPOSMotionSensor@@@@IEAAXPEAUIUnknown@@PEAVOposVariant@@IAEAJPEB_WJ@Z 0000000180016930 f i MotionSensor.obj
 0001:00015b10       ?FireViewChange@CComControlBase@ATL@@QEAAJXZ 0000000180016b10 f i MotionSensor.obj
 0001:00015bf0       ?Fire_DirectIOEvent@?$CProxy_IOPOSEvents@VCOPOSMotionSensor@@@@QEAAXJPEAJPEAPEA_W@Z 0000000180016bf0 f i MotionSensor.obj
 0001:00015e80       ?Fire_StatusUpdateEvent@?$CProxy_IOPOSEvents@VCOPOSMotionSensor@@@@QEAAXJ@Z 0000000180016e80 f i MotionSensor.obj
 0001:00016070       ?FormatWindowClassName@AtlModuleRegisterWndClassInfoParamW@ATL@@SAXPEA_WKPEAX@Z 0000000180017070 f i MotionSensor.obj
 0001:000160c0       ?Free@?$CAutoVectorPtr@_W@ATL@@QEAAXXZ 00000001800170c0 f i MotionSensor.obj
 0001:00016110       ?FreeHeap@?$CTempBuffer@E$0BAA@VCCRTAllocator@ATL@@@ATL@@AEAAXXZ 0000000180017110 f i MotionSensor.obj
 0001:00016150       ?FreeHeap@?$CTempBuffer@_W$0BAA@VCCRTAllocator@ATL@@@ATL@@AEAAXXZ 0000000180017150 f i MotionSensor.obj
 0001:00016190       ?FreeHeap@?$CTempBuffer@_W$0EAA@VCCRTAllocator@ATL@@@ATL@@AEAAXXZ 0000000180017190 f i MotionSensor.obj
 0001:000161d0       ?Freeze@?$IViewObjectExImpl@VCOPOSMotionSensor@@@ATL@@UEAAJKJPEAXPEAK@Z 00000001800171d0 f i MotionSensor.obj
 0001:00016260       ?GenerateError@CRegParser@ATL@@IEAAJI@Z 0000000180017260 f i MotionSensor.obj
 0001:00016280       ?GetAdvise@?$IViewObjectExImpl@VCOPOSMotionSensor@@@ATL@@UEAAJPEAK0PEAPEAUIAdviseSink@@@Z 0000000180017280 f i MotionSensor.obj
 0001:000163d0       ?GetAmbientLocaleID@CComControlBase@ATL@@QEAAJAEAK@Z 00000001800173d0 f i MotionSensor.obj
 0001:000164b0       ?GetAmbientProperty@CComControlBase@ATL@@QEAAJJAEAUtagVARIANT@@@Z 00000001800174b0 f i MotionSensor.obj
 0001:00016520       ?GetAmbientUserMode@CComControlBase@ATL@@QEAAJAEAH@Z 0000000180017520 f i MotionSensor.obj
 0001:00016640       ?GetAppId@?$CAtlModuleT@VCComModule@ATL@@@ATL@@SAPEB_WXZ 0000000180017640 f i MotionSensor.obj
 0001:00016650       ?GetAt@CComDynamicUnkArray@ATL@@QEAAPEAUIUnknown@@H@Z 0000000180017650 f i MotionSensor.obj
 0001:00016700       ?GetCanonicalFormatEtc@?$IDataObjectImpl@VCOPOSMotionSensor@@@ATL@@UEAAJPEAUtagFORMATETC@@0@Z 0000000180017700 f i MotionSensor.obj
 0001:00016790       ?GetClassID@?$IPersistStorageImpl@VCOPOSMotionSensor@@@ATL@@UEAAJPEAU_GUID@@@Z 0000000180017790 f i MotionSensor.obj
 0001:00016830       ?GetClassID@?$IPersistStreamInitImpl@VCOPOSMotionSensor@@@ATL@@UEAAJPEAU_GUID@@@Z 0000000180017830 f i MotionSensor.obj
 0001:000168d0       ?GetClassInfoExW@AtlModuleRegisterWndClassInfoParamW@ATL@@SAHPEAUHINSTANCE__@@PEB_WPEAUtagWNDCLASSEXW@@@Z 00000001800178d0 f i MotionSensor.obj
 0001:00016920       ?GetClassInfoW@?$IProvideClassInfo2Impl@$1?CLSID_OPOSMotionSensor@@3U_GUID@@B$1?DIID__IOPOSMotionSensorEvents@@3U2@B$1?LIBID_OposMotionSensor_CCO@@3U2@B$00$0A@VCComTypeInfoHolder@ATL@@@ATL@@UEAAJPEAPEAUITypeInfo@@@Z 0000000180017920 f i MotionSensor.obj
 0001:00016960       ?GetClassObject@CComModule@ATL@@QEAAJAEBU_GUID@@0PEAPEAX@Z 0000000180017960 f i MotionSensor.obj
 0001:00016bd0       ?GetClientSite@?$IOleObjectImpl@VCOPOSMotionSensor@@@ATL@@UEAAJPEAPEAUIOleClientSite@@@Z 0000000180017bd0 f i MotionSensor.obj
 0001:00016c80       ?GetClipboardData@?$IOleObjectImpl@VCOPOSMotionSensor@@@ATL@@UEAAJKPEAPEAUIDataObject@@@Z 0000000180017c80 f i MotionSensor.obj
 0001:00016d10       ?GetCodeAddress@CDynamicStdCallThunk2@ATL@@QEAAPEAXXZ 0000000180017d10 f i MotionSensor.obj
 0001:00016d50       ?GetColorSet@?$IViewObjectExImpl@VCOPOSMotionSensor@@@ATL@@UEAAJKJPEAXPEAUtagDVTARGETDEVICE@@PEAUHDC__@@PEAPEAUtagLOGPALETTE@@@Z 0000000180017d50 f i MotionSensor.obj
 0001:00016de0       ?GetConnMap@COPOSMotionSensor@@SAPEBU_ATL_CONNMAP_ENTRY@ATL@@PEAH@Z 0000000180017de0 f i MotionSensor.obj
 0001:00016f40       ?GetConnectionInterface@?$IConnectionPointImpl@VCOPOSMotionSensor@@$1?DIID__IOPOSMotionSensorEvents@@3U_GUID@@BVCComDynamicUnkArray@ATL@@@ATL@@UEAAJPEAU_GUID@@@Z 0000000180017f40 f i MotionSensor.obj
 0001:00016f80       ?GetConnectionInterface@?$IConnectionPointImpl@VCOPOSMotionSensor@@$1?IID_IPropertyNotifySink@@3U_GUID@@BVCComDynamicUnkArray@ATL@@@ATL@@UEAAJPEAU_GUID@@@Z 0000000180017f80 f i MotionSensor.obj
 0001:00016fc0       ?GetConnectionPointContainer@?$IConnectionPointImpl@VCOPOSMotionSensor@@$1?DIID__IOPOSMotionSensorEvents@@3U_GUID@@BVCComDynamicUnkArray@ATL@@@ATL@@UEAAJPEAPEAUIConnectionPointContainer@@@Z 0000000180017fc0 f i MotionSensor.obj
 0001:00017040       ?GetConnectionPointContainer@?$IConnectionPointImpl@VCOPOSMotionSensor@@$1?IID_IPropertyNotifySink@@3U_GUID@@BVCComDynamicUnkArray@ATL@@@ATL@@UEAAJPEAPEAUIConnectionPointContainer@@@Z 0000000180018040 f i MotionSensor.obj
 0001:000170c0       ?GetContentExtent@?$IQuickActivateImpl@VCOPOSMotionSensor@@@ATL@@UEAAJPEAUtagSIZE@@@Z 00000001800180c0 f i MotionSensor.obj
 0001:00017180       ?GetControlInfo@?$IOleControlImpl@VCOPOSMotionSensor@@@ATL@@UEAAJPEAUtagCONTROLINFO@@@Z 0000000180018180 f i MotionSensor.obj
 0001:00017210       ?GetCookie@CComDynamicUnkArray@ATL@@QEAAKPEAPEAUIUnknown@@@Z 0000000180018210 f i MotionSensor.obj
 0001:00017300       ?GetData@?$IDataObjectImpl@VCOPOSMotionSensor@@@ATL@@UEAAJPEAUtagFORMATETC@@PEAUtagSTGMEDIUM@@@Z 0000000180018300 f i MotionSensor.obj
 0001:000173c0       ?GetData@CAtlSafeAllocBufferNode@?$CAtlSafeAllocBufferManager@VCCRTAllocator@ATL@@@_ATL_SAFE_ALLOCA_IMPL@ATL@@QEAAPEAXXZ 00000001800183c0 f i MotionSensor.obj
 0001:000173e0       ?GetDataHere@?$IDataObjectImpl@VCOPOSMotionSensor@@@ATL@@UEAAJPEAUtagFORMATETC@@PEAUtagSTGMEDIUM@@@Z 00000001800183e0 f i MotionSensor.obj
 0001:00017470       ?GetDropTarget@?$IOleInPlaceObjectWindowlessImpl@VCOPOSMotionSensor@@@ATL@@UEAAJPEAPEAUIDropTarget@@@Z 0000000180018470 f i MotionSensor.obj
 0001:00017500       ?GetExtent@?$IOleObjectImpl@VCOPOSMotionSensor@@@ATL@@UEAAJKPEAUtagSIZE@@@Z 0000000180018500 f i MotionSensor.obj
 0001:000175d0       ?GetExtent@?$IViewObjectExImpl@VCOPOSMotionSensor@@@ATL@@UEAAJKJPEAUtagDVTARGETDEVICE@@PEAUtagSIZE@@@Z 00000001800185d0 f i MotionSensor.obj
 0001:000176e0       ?GetGITPtr@CAtlModule@ATL@@UEAAJPEAPEAUIGlobalInterfaceTable@@@Z 00000001800186e0 f i MotionSensor.obj
 0001:00017820       ?GetGUID@?$IProvideClassInfo2Impl@$1?CLSID_OPOSMotionSensor@@3U_GUID@@B$1?DIID__IOPOSMotionSensorEvents@@3U2@B$1?LIBID_OposMotionSensor_CCO@@3U2@B$00$0A@VCComTypeInfoHolder@ATL@@@ATL@@UEAAJKPEAU_GUID@@@Z 0000000180018820 f i MotionSensor.obj
 0001:000178a0       ?GetIDsOfNames@?$IDispatchImpl@UIOPOSMotionSensor@@$1?IID_IOPOSMotionSensor@@3U_GUID@@B$1?LIBID_OposMotionSensor_CCO@@3U3@B$00$0A@VCComTypeInfoHolder@ATL@@@ATL@@UEAAJAEBU_GUID@@PEAPEA_WIKPEAJ@Z 00000001800188a0 f i MotionSensor.obj
 0001:00017900       ?GetIDsOfNames@CComTypeInfoHolder@ATL@@QEAAJAEBU_GUID@@PEAPEA_WIKPEAJ@Z 0000000180018900 f i MotionSensor.obj
 0001:00017b20       ?GetInterfaceSafetyOptions@?$IObjectSafetyImpl@VCOPOSMotionSensor@@$02@ATL@@UEAAJAEBU_GUID@@PEAK1@Z 0000000180018b20 f i MotionSensor.obj
 0001:00017cc0       ?GetKeyAt@?$CSimpleMap@PEA_WPEA_WVCExpansionVectorEqualHelper@ATL@@@ATL@@QEBAAEAPEA_WH@Z 0000000180018cc0 f i MotionSensor.obj
 0001:00017d70       ?GetLockCount@CAtlModule@ATL@@UEAAJXZ 0000000180018d70 f i MotionSensor.obj
 0001:00017d80       ?GetMiscStatus@?$IOleObjectImpl@VCOPOSMotionSensor@@@ATL@@UEAAJKPEAK@Z 0000000180018d80 f i MotionSensor.obj
 0001:00017e10       ?GetMoniker@?$IOleObjectImpl@VCOPOSMotionSensor@@@ATL@@UEAAJKKPEAPEAUIMoniker@@@Z 0000000180018e10 f i MotionSensor.obj
 0001:00017ea0       ?GetNaturalExtent@?$IViewObjectExImpl@VCOPOSMotionSensor@@@ATL@@UEAAJKJPEAUtagDVTARGETDEVICE@@PEAUHDC__@@PEAUtagExtentInfo@@PEAUtagSIZE@@@Z 0000000180018ea0 f i MotionSensor.obj
 0001:00018030       ?GetObjectCLSID@?$CComCoClass@VCOPOSMotionSensor@@$1?CLSID_OPOSMotionSensor@@3U_GUID@@B@ATL@@SAAEBU_GUID@@XZ 0000000180019030 f i MotionSensor.obj
 0001:00018040       ?GetPages@?$ISpecifyPropertyPagesImpl@VCOPOSMotionSensor@@@ATL@@UEAAJPEAUtagCAUUID@@@Z 0000000180019040 f i MotionSensor.obj
 0001:000180d0       ?GetPagesHelper@?$ISpecifyPropertyPagesImpl@VCOPOSMotionSensor@@@ATL@@IEAAJPEAUtagCAUUID@@PEBUATL_PROPMAP_ENTRY@2@@Z 00000001800190d0 f i MotionSensor.obj
 0001:00018340       ?GetProperty@?$CComPtr@UIDispatch@@@ATL@@QEAAJJPEAUtagVARIANT@@@Z 0000000180019340 f i MotionSensor.obj
 0001:00018390       ?GetProperty@?$CComPtr@UIDispatch@@@ATL@@SAJPEAUIDispatch@@JPEAUtagVARIANT@@@Z 0000000180019390 f i MotionSensor.obj
 0001:00018560       ?GetPropertyMap@COPOSMotionSensor@@SAPEBUATL_PROPMAP_ENTRY@ATL@@XZ 0000000180019560 f i MotionSensor.obj
 0001:00018570       ?GetRect@?$IViewObjectExImpl@VCOPOSMotionSensor@@@ATL@@UEAAJKPEAU_RECTL@@@Z 0000000180019570 f i MotionSensor.obj
 0001:00018600       ?GetSize@?$CSimpleMap@PEA_WPEA_WVCExpansionVectorEqualHelper@ATL@@@ATL@@QEBAHXZ 0000000180019600 f i MotionSensor.obj
 0001:00018610       ?GetSize@CComDynamicUnkArray@ATL@@QEBAHXZ 0000000180019610 f i MotionSensor.obj
 0001:00018620       ?GetSizeMax@?$IPersistStreamInitImpl@VCOPOSMotionSensor@@@ATL@@UEAAJPEAT_ULARGE_INTEGER@@@Z 0000000180019620 f i MotionSensor.obj
 0001:00018db0       ?GetSizeMax@CComVariant@ATL@@QEBAJPEAT_ULARGE_INTEGER@@@Z 0000000180019db0 f i MotionSensor.obj
 0001:000191e0       ?GetStreamSize@CComBSTR@ATL@@SAKPEA_W@Z 000000018001a1e0 f i MotionSensor.obj
 0001:00019240       ?GetTI@CComTypeInfoHolder@ATL@@QEAAJK@Z 000000018001a240 f i MotionSensor.obj
 0001:00019b10       ?GetTI@CComTypeInfoHolder@ATL@@QEAAJKPEAPEAUITypeInfo@@@Z 000000018001ab10 f i MotionSensor.obj
 0001:00019c00       ?GetTypeInfo@?$IDispatchImpl@UIOPOSMotionSensor@@$1?IID_IOPOSMotionSensor@@3U_GUID@@B$1?LIBID_OposMotionSensor_CCO@@3U3@B$00$0A@VCComTypeInfoHolder@ATL@@@ATL@@UEAAJIKPEAPEAUITypeInfo@@@Z 000000018001ac00 f i MotionSensor.obj
 0001:00019c50       ?GetTypeInfo@CComTypeInfoHolder@ATL@@QEAAJIKPEAPEAUITypeInfo@@@Z 000000018001ac50 f i MotionSensor.obj
 0001:00019cb0       ?GetTypeInfoCount@?$IDispatchImpl@UIOPOSMotionSensor@@$1?IID_IOPOSMotionSensor@@3U_GUID@@B$1?LIBID_OposMotionSensor_CCO@@3U3@B$00$0A@VCComTypeInfoHolder@ATL@@@ATL@@UEAAJPEAI@Z 000000018001acb0 f i MotionSensor.obj
 0001:00019ce0       ?GetUnknown@CComDynamicUnkArray@ATL@@QEAAPEAUIUnknown@@K@Z 000000018001ace0 f i MotionSensor.obj
 0001:00019d90       ?GetUnknown@COPOSMotionSensor@@QEAAPEAUIUnknown@@XZ 000000018001ad90 f i MotionSensor.obj
 0001:00019dc0       ?GetUserClassID@?$IOleObjectImpl@VCOPOSMotionSensor@@@ATL@@UEAAJPEAU_GUID@@@Z 000000018001adc0 f i MotionSensor.obj
 0001:00019ea0       ?GetUserType@?$IOleObjectImpl@VCOPOSMotionSensor@@@ATL@@UEAAJKPEAPEA_W@Z 000000018001aea0 f i MotionSensor.obj
 0001:00019f30       ?GetValueAt@?$CSimpleMap@PEA_WPEA_WVCExpansionVectorEqualHelper@ATL@@@ATL@@QEBAAEAPEA_WH@Z 000000018001af30 f i MotionSensor.obj
 0001:00019fe0       ?GetViewStatus@?$IViewObjectExImpl@VCOPOSMotionSensor@@@ATL@@UEAAJPEAK@Z 000000018001afe0 f i MotionSensor.obj
 0001:0001a0e0       ?GetWNDPROC@CWndProcThunk@ATL@@QEAAP6A_JPEAUHWND__@@I_K_J@ZXZ 000000018001b0e0 f i MotionSensor.obj
 0001:0001a120       ?GetWindow@?$IOleInPlaceActiveObjectImpl@VCOPOSMotionSensor@@@ATL@@UEAAJPEAPEAUHWND__@@@Z 000000018001b120 f i MotionSensor.obj
 0001:0001a220       ?GetWindow@?$IOleInPlaceObjectWindowlessImpl@VCOPOSMotionSensor@@@ATL@@UEAAJPEAPEAUHWND__@@@Z 000000018001b220 f i MotionSensor.obj
 0001:0001a320       ?GetWindowProc@?$CWindowImplBaseT@VCWindow@ATL@@V?$CWinTraits@$0FGAAAAAA@$0A@@2@@ATL@@UEAAP6A_JPEAUHWND__@@I_K_J@ZXZ 000000018001b320 f i MotionSensor.obj
 0001:0001a330       ?GetWndCaption@?$CWindowImpl@VCOPOSMotionSensor@@VCWindow@ATL@@V?$CWinTraits@$0FGAAAAAA@$0A@@3@@ATL@@SAPEB_WXZ 000000018001b330 f i MotionSensor.obj
 0001:0001a340       ?GetWndClassInfo@?$CWindowImpl@VCOPOSMotionSensor@@VCWindow@ATL@@V?$CWinTraits@$0FGAAAAAA@$0A@@3@@ATL@@SAAEAU_ATL_WNDCLASSINFOW@2@XZ 000000018001b340 f i MotionSensor.obj
 0001:0001a350       ?GetWndClassName@CWindow@ATL@@SAPEB_WXZ 000000018001b350 f i MotionSensor.obj
 0001:0001a360       ?GetWndExStyle@?$CWinTraits@$0FGAAAAAA@$0A@@ATL@@SAKK@Z 000000018001b360 f i MotionSensor.obj
 0001:0001a3a0       ?GetWndExStyle@?$CWindowImplBaseT@VCWindow@ATL@@V?$CWinTraits@$0FGAAAAAA@$0A@@2@@ATL@@SAKK@Z 000000018001b3a0 f i MotionSensor.obj
 0001:0001a3d0       ?GetWndStyle@?$CWinTraits@$0FGAAAAAA@$0A@@ATL@@SAKK@Z 000000018001b3d0 f i MotionSensor.obj
 0001:0001a410       ?GetWndStyle@?$CWindowImplBaseT@VCWindow@ATL@@V?$CWinTraits@$0FGAAAAAA@$0A@@2@@ATL@@SAKK@Z 000000018001b410 f i MotionSensor.obj
 0001:0001a440       ?GetZoomInfo@CComControlBase@ATL@@QEAAXAEAUATL_DRAWINFO@@@Z 000000018001b440 f i MotionSensor.obj
 0001:0001a5f0       ?HKeyFromString@CRegParser@ATL@@KAPEAUHKEY__@@PEA_W@Z 000000018001b5f0 f i MotionSensor.obj
 0001:0001a680       ?HandsOffStorage@?$IPersistStorageImpl@VCOPOSMotionSensor@@@ATL@@UEAAJXZ 000000018001b680 f i MotionSensor.obj
 0001:0001a6f0       ?HasSubKeys@CRegParser@ATL@@IEAAHPEAUHKEY__@@@Z 000000018001b6f0 f i MotionSensor.obj
 0001:0001a860       ?IDataObject_GetData@CComControlBase@ATL@@QEAAJPEAUtagFORMATETC@@PEAUtagSTGMEDIUM@@@Z 000000018001b860 f i MotionSensor.obj
 0001:0001ad10       ?IOleInPlaceObject_InPlaceDeactivate@CComControlBase@ATL@@QEAAJXZ 000000018001bd10 f i MotionSensor.obj
 0001:0001af80       ?IOleInPlaceObject_SetObjectRects@CComControlBase@ATL@@QEAAJPEBUtagRECT@@0@Z 000000018001bf80 f i MotionSensor.obj
 0001:0001b160       ?IOleInPlaceObject_UIDeactivate@CComControlBase@ATL@@QEAAJXZ 000000018001c160 f i MotionSensor.obj
 0001:0001b3d0       ?IOleObject_Advise@CComControlBase@ATL@@QEAAJPEAUIAdviseSink@@PEAK@Z 000000018001c3d0 f i MotionSensor.obj
 0001:0001b480       ?IOleObject_Close@CComControlBase@ATL@@QEAAJK@Z 000000018001c480 f i MotionSensor.obj
 0001:0001b7f0       ?IOleObject_GetClientSite@CComControlBase@ATL@@QEAAJPEAPEAUIOleClientSite@@@Z 000000018001c7f0 f i MotionSensor.obj
 0001:0001b8c0       ?IOleObject_SetClientSite@CComControlBase@ATL@@QEAAJPEAUIOleClientSite@@@Z 000000018001c8c0 f i MotionSensor.obj
 0001:0001b9d0       ?IOleObject_SetExtent@CComControlBase@ATL@@QEAAJKPEAUtagSIZE@@@Z 000000018001c9d0 f i MotionSensor.obj
 0001:0001bb40       ?IPSI_GetIPersistStreamInit@?$IPersistStorageImpl@VCOPOSMotionSensor@@@ATL@@AEAAPEAUIPersistStreamInit@@XZ 000000018001cb40 f i MotionSensor.obj
 0001:0001bc00       ?IPersistStreamInit_Load@?$IPersistStreamInitImpl@VCOPOSMotionSensor@@@ATL@@QEAAJPEAUIStream@@PEBUATL_PROPMAP_ENTRY@2@@Z 000000018001cc00 f i MotionSensor.obj
 0001:0001bca0       ?IPersistStreamInit_Save@?$IPersistStreamInitImpl@VCOPOSMotionSensor@@@ATL@@QEAAJPEAUIStream@@HPEBUATL_PROPMAP_ENTRY@2@@Z 000000018001cca0 f i MotionSensor.obj
 0001:0001bd60       ?IQuickActivate_QuickActivate@CComControlBase@ATL@@QEAAJPEAUtagQACONTAINER@@PEAUtagQACONTROL@@@Z 000000018001cd60 f i MotionSensor.obj
 0001:0001c5a0       ?IViewObject_Draw@CComControlBase@ATL@@QEAAJKJPEAXPEAUtagDVTARGETDEVICE@@PEAUHDC__@@2PEBU_RECTL@@3@Z 000000018001d5a0 f i MotionSensor.obj
 0001:0001c9f0       ?InPlaceActivate@CComControlBase@ATL@@QEAAJJPEBUtagRECT@@@Z 000000018001d9f0 f i MotionSensor.obj
 0001:0001d590       ?InPlaceDeactivate@?$IOleInPlaceObjectWindowlessImpl@VCOPOSMotionSensor@@@ATL@@UEAAJXZ 000000018001e590 f i MotionSensor.obj
 0001:0001d640       ?Increment@CComMultiThreadModel@ATL@@SAKPEAJ@Z 000000018001e640 f i MotionSensor.obj
 0001:0001d660       ?Increment@CComSingleThreadModel@ATL@@SAKPEAJ@Z 000000018001e660 f i MotionSensor.obj
 0001:0001d680       ?Init@?$CComEnumImpl@UIEnumConnectionPoints@@$1?_GUID_b196b285_bab4_101a_b69c_00aa00341d07@@3U__s_GUID@@BPEAUIConnectionPoint@@V?$_CopyInterface@UIConnectionPoint@@@ATL@@@ATL@@QEAAJPEAPEAUIConnectionPoint@@0PEAUIUnknown@@W4CComEnumFlags@2@@Z 000000018001e680 f i MotionSensor.obj
 0001:0001d970       ?Init@?$CComEnumImpl@UIEnumConnections@@$1?_GUID_b196b287_bab4_101a_b69c_00aa00341d07@@3U__s_GUID@@BUtagCONNECTDATA@@V?$_Copy@UtagCONNECTDATA@@@ATL@@@ATL@@QEAAJPEAUtagCONNECTDATA@@0PEAUIUnknown@@W4CComEnumFlags@2@@Z 000000018001e970 f i MotionSensor.obj
 0001:0001dc60       ?Init@CComFakeCriticalSection@ATL@@QEAAJXZ 000000018001ec60 f i MotionSensor.obj
 0001:0001dc70       ?Init@CComModule@ATL@@QEAAJPEAU_ATL_OBJMAP_ENTRY30@2@PEAUHINSTANCE__@@PEBU_GUID@@@Z 000000018001ec70 f i MotionSensor.obj
 0001:0001dd60       ?Init@CComSafeDeleteCriticalSection@ATL@@QEAAJXZ 000000018001ed60 f i MotionSensor.obj
 0001:0001ddf0       ?Init@CDynamicStdCallThunk2@ATL@@QEAAH_KPEAX@Z 000000018001edf0 f i MotionSensor.obj
 0001:0001de70       ?Init@CWndProcThunk@ATL@@QEAAHP6A_JPEAUHWND__@@I_K_J@ZPEAX@Z 000000018001ee70 f i MotionSensor.obj
 0001:0001dec0       ?InitFromData@?$IOleObjectImpl@VCOPOSMotionSensor@@@ATL@@UEAAJPEAUIDataObject@@HK@Z 000000018001eec0 f i MotionSensor.obj
 0001:0001df50       ?InitLibId@?$CAtlModuleT@VCComModule@ATL@@@ATL@@SAXXZ 000000018001ef50 f i MotionSensor.obj
 0001:0001df60       ?InitNew@?$IPersistStorageImpl@VCOPOSMotionSensor@@@ATL@@UEAAJPEAUIStorage@@@Z 000000018001ef60 f i MotionSensor.obj
 0001:0001e050       ?InitNew@?$IPersistStreamInitImpl@VCOPOSMotionSensor@@@ATL@@UEAAJXZ 000000018001f050 f i MotionSensor.obj
 0001:0001e100       ?InlineIsEqualUnknown@ATL@@YAHAEBU_GUID@@@Z 000000018001f100 f i MotionSensor.obj
 0001:0001e190       ?InternalAddRef@?$CComObjectRootEx@VCComMultiThreadModel@ATL@@@ATL@@QEAAKXZ 000000018001f190 f i MotionSensor.obj
 0001:0001e210       ?InternalAddRef@?$CComObjectRootEx@VCComSingleThreadModel@ATL@@@ATL@@QEAAKXZ 000000018001f210 f i MotionSensor.obj
 0001:0001e290       ?InternalFinalConstructAddRef@CComObjectRootBase@ATL@@QEAAXXZ 000000018001f290 f i MotionSensor.obj
 0001:0001e2a0       ?InternalFinalConstructAddRef@COPOSMotionSensor@@QEAAXXZ 000000018001f2a0 f i MotionSensor.obj
 0001:0001e2e0       ?InternalFinalConstructRelease@CComObjectRootBase@ATL@@QEAAXXZ 000000018001f2e0 f i MotionSensor.obj
 0001:0001e350       ?InternalFinalConstructRelease@COPOSMotionSensor@@QEAAXXZ 000000018001f350 f i MotionSensor.obj
 0001:0001e390       ?InternalGetSite@CComControlBase@ATL@@QEAAJAEBU_GUID@@PEAPEAX@Z 000000018001f390 f i MotionSensor.obj
 0001:0001e470       ?InternalQueryInterface@CComObjectRootBase@ATL@@SAJPEAXPEBU_ATL_INTMAP_ENTRY@2@AEBU_GUID@@PEAPEAX@Z 000000018001f470 f i MotionSensor.obj
 0001:0001e590       ?InternalRelease@?$CComObjectRootEx@VCComMultiThreadModel@ATL@@@ATL@@QEAAKXZ 000000018001f590 f i MotionSensor.obj
 0001:0001e610       ?InternalRelease@?$CComObjectRootEx@VCComSingleThreadModel@ATL@@@ATL@@QEAAKXZ 000000018001f610 f i MotionSensor.obj
 0001:0001e690       ?InternalSetAtIndex@?$CSimpleArray@GV?$CSimpleArrayEqualHelper@G@ATL@@@ATL@@QEAAXHAEBG@Z 000000018001f690 f i MotionSensor.obj
 0001:0001e710       ?InternalSetAtIndex@?$CSimpleMap@PEA_WPEA_WVCExpansionVectorEqualHelper@ATL@@@ATL@@QEAAXHAEBQEA_W0@Z 000000018001f710 f i MotionSensor.obj
 0001:0001e7e0       ?Invoke@?$IDispatchImpl@UIOPOSMotionSensor@@$1?IID_IOPOSMotionSensor@@3U_GUID@@B$1?LIBID_OposMotionSensor_CCO@@3U3@B$00$0A@VCComTypeInfoHolder@ATL@@@ATL@@UEAAJJAEBU_GUID@@KGPEAUtagDISPPARAMS@@PEAUtagVARIANT@@PEAUtagEXCEPINFO@@PEAI@Z 000000018001f7e0 f i MotionSensor.obj
 0001:0001e880       ?Invoke@CComTypeInfoHolder@ATL@@QEAAJPEAUIDispatch@@JAEBU_GUID@@KGPEAUtagDISPPARAMS@@PEAUtagVARIANT@@PEAUtagEXCEPINFO@@PEAI@Z 000000018001f880 f i MotionSensor.obj
 0001:0001e940       ?IsDirty@?$IPersistStorageImpl@VCOPOSMotionSensor@@@ATL@@UEAAJXZ 000000018001f940 f i MotionSensor.obj
 0001:0001ea30       ?IsDirty@?$IPersistStreamInitImpl@VCOPOSMotionSensor@@@ATL@@UEAAJXZ 000000018001fa30 f i MotionSensor.obj
 0001:0001eaf0       ?IsEqualKey@CExpansionVectorEqualHelper@ATL@@SA_NQEA_W0@Z 000000018001faf0 f i MotionSensor.obj
 0001:0001eb40       ?IsEqualObject@?$CComPtrBase@UIOleClientSite@@@ATL@@QEAA_NPEAUIUnknown@@@Z 000000018001fb40 f i MotionSensor.obj
 0001:0001ec90       ?IsEqualObject@?$CComPtrBase@UITypeInfo@@@ATL@@QEAA_NPEAUIUnknown@@@Z 000000018001fc90 f i MotionSensor.obj
 0001:0001ede0       ?IsSpace@CRegParser@ATL@@IEAAH_W@Z 000000018001fde0 f i MotionSensor.obj
 0001:0001ee40       ?IsUpToDate@?$IOleObjectImpl@VCOPOSMotionSensor@@@ATL@@UEAAJXZ 000000018001fe40 f i MotionSensor.obj
 0001:0001eeb0       ?Length@CComBSTR@ATL@@QEBAIXZ 000000018001feb0 f i MotionSensor.obj
 0001:0001eef0       ?Load@?$IPersistStorageImpl@VCOPOSMotionSensor@@@ATL@@UEAAJPEAUIStorage@@@Z 000000018001fef0 f i MotionSensor.obj
 0001:0001f0a0       ?Load@?$IPersistStreamInitImpl@VCOPOSMotionSensor@@@ATL@@UEAAJPEAUIStream@@@Z 00000001800200a0 f i MotionSensor.obj
 0001:0001f160       ?LoadCursorW@AtlModuleRegisterWndClassInfoParamW@ATL@@SAPEAUHICON__@@PEAUHINSTANCE__@@PEB_W@Z 0000000180020160 f i MotionSensor.obj
 0001:0001f1a0       ?LoadNameCache@CComTypeInfoHolder@ATL@@QEAAJPEAUITypeInfo@@@Z 00000001800201a0 f i MotionSensor.obj
 0001:0001f4e0       ?Lock@?$CComCritSecLock@VCComCriticalSection@ATL@@@ATL@@QEAAJXZ 00000001800204e0 f i MotionSensor.obj
 0001:0001f5d0       ?Lock@?$CComObjectRootEx@VCComSingleThreadModel@ATL@@@ATL@@QEAAXXZ 00000001800205d0 f i MotionSensor.obj
 0001:0001f5e0       ?Lock@CAtlModule@ATL@@UEAAJXZ 00000001800205e0 f i MotionSensor.obj
 0001:0001f620       ?Lock@CComCriticalSection@ATL@@QEAAJXZ 0000000180020620 f i MotionSensor.obj
 0001:0001f660       ?Lock@CComFakeCriticalSection@ATL@@QEAAJXZ 0000000180020660 f i MotionSensor.obj
 0001:0001f670       ?LockServer@CComClassFactory@ATL@@UEAAJH@Z 0000000180020670 f i MotionSensor.obj
 0001:0001f6d0       ?Lookup@?$CSimpleMap@PEA_WPEA_WVCExpansionVectorEqualHelper@ATL@@@ATL@@QEBAPEA_WAEBQEA_W@Z 00000001800206d0 f i MotionSensor.obj
 0001:0001f730       ?Next@?$CComEnumImpl@UIEnumConnectionPoints@@$1?_GUID_b196b285_bab4_101a_b69c_00aa00341d07@@3U__s_GUID@@BPEAUIConnectionPoint@@V?$_CopyInterface@UIConnectionPoint@@@ATL@@@ATL@@UEAAJKPEAPEAUIConnectionPoint@@PEAK@Z 0000000180020730 f i MotionSensor.obj
 0001:0001f8f0       ?Next@?$CComEnumImpl@UIEnumConnections@@$1?_GUID_b196b287_bab4_101a_b69c_00aa00341d07@@3U__s_GUID@@BUtagCONNECTDATA@@V?$_Copy@UtagCONNECTDATA@@@ATL@@@ATL@@UEAAJKPEAUtagCONNECTDATA@@PEAK@Z 00000001800208f0 f i MotionSensor.obj
 0001:0001fab0       ?NextToken@CRegParser@ATL@@IEAAJPEA_W@Z 0000000180020ab0 f i MotionSensor.obj
 0001:0001fe40       ?OLE2CT_EX@@YAPEB_WPEB_WI@Z 0000000180020e40 f i MotionSensor.obj
 0001:0001fe60       ?OLE2CT_EX_DEF@@YAPEB_WPEB_W@Z 0000000180020e60 f i MotionSensor.obj
 0001:0001fe70       ?OLE2T_EX@@YAPEA_WPEA_WI@Z 0000000180020e70 f i MotionSensor.obj
 0001:0001fe90       ?OnAmbientPropertyChange@?$IOleControlImpl@VCOPOSMotionSensor@@@ATL@@UEAAJJ@Z 0000000180020e90 f i MotionSensor.obj
 0001:0001ff50       ?OnDocWindowActivate@?$IOleInPlaceActiveObjectImpl@VCOPOSMotionSensor@@@ATL@@UEAAJH@Z 0000000180020f50 f i MotionSensor.obj
 0001:00020010       ?OnDrawAdvanced@CComControlBase@ATL@@UEAAJAEAUATL_DRAWINFO@@@Z 0000000180021010 f i MotionSensor.obj
 0001:00020260       ?OnFinalMessage@?$CWindowImplBaseT@VCWindow@ATL@@V?$CWinTraits@$0FGAAAAAA@$0A@@2@@ATL@@UEAAXPEAUHWND__@@@Z 0000000180021260 f i MotionSensor.obj
 0001:00020270       ?OnFrameWindowActivate@?$IOleInPlaceActiveObjectImpl@VCOPOSMotionSensor@@@ATL@@UEAAJH@Z 0000000180021270 f i MotionSensor.obj
 0001:000202e0       ?OnKillFocus@CComControlBase@ATL@@QEAA_JI_K_JAEAH@Z 00000001800212e0 f i MotionSensor.obj
 0001:000203d0       ?OnMnemonic@?$IOleControlImpl@VCOPOSMotionSensor@@@ATL@@UEAAJPEAUtagMSG@@@Z 00000001800213d0 f i MotionSensor.obj
 0001:00020460       ?OnMouseActivate@CComControlBase@ATL@@QEAA_JI_K_JAEAH@Z 0000000180021460 f i MotionSensor.obj
 0001:00020600       ?OnPaint@CComControlBase@ATL@@QEAA_JI_K_JAEAH@Z 0000000180021600 f i MotionSensor.obj
 0001:00020790       ?OnPostVerbDiscardUndo@?$IOleObjectImpl@VCOPOSMotionSensor@@@ATL@@QEAAJXZ 0000000180021790 f i MotionSensor.obj
 0001:000207a0       ?OnPostVerbHide@?$IOleObjectImpl@VCOPOSMotionSensor@@@ATL@@QEAAJXZ 00000001800217a0 f i MotionSensor.obj
 0001:000207b0       ?OnPostVerbInPlaceActivate@?$IOleObjectImpl@VCOPOSMotionSensor@@@ATL@@QEAAJXZ 00000001800217b0 f i MotionSensor.obj
 0001:000207c0       ?OnPostVerbOpen@?$IOleObjectImpl@VCOPOSMotionSensor@@@ATL@@QEAAJXZ 00000001800217c0 f i MotionSensor.obj
 0001:000207d0       ?OnPostVerbShow@?$IOleObjectImpl@VCOPOSMotionSensor@@@ATL@@QEAAJXZ 00000001800217d0 f i MotionSensor.obj
 0001:000207e0       ?OnPostVerbUIActivate@?$IOleObjectImpl@VCOPOSMotionSensor@@@ATL@@QEAAJXZ 00000001800217e0 f i MotionSensor.obj
 0001:000207f0       ?OnPreVerbDiscardUndo@?$IOleObjectImpl@VCOPOSMotionSensor@@@ATL@@QEAAJXZ 00000001800217f0 f i MotionSensor.obj
 0001:00020800       ?OnPreVerbHide@?$IOleObjectImpl@VCOPOSMotionSensor@@@ATL@@QEAAJXZ 0000000180021800 f i MotionSensor.obj
 0001:00020810       ?OnPreVerbInPlaceActivate@?$IOleObjectImpl@VCOPOSMotionSensor@@@ATL@@QEAAJXZ 0000000180021810 f i MotionSensor.obj
 0001:00020820       ?OnPreVerbOpen@?$IOleObjectImpl@VCOPOSMotionSensor@@@ATL@@QEAAJXZ 0000000180021820 f i MotionSensor.obj
 0001:00020830       ?OnPreVerbShow@?$IOleObjectImpl@VCOPOSMotionSensor@@@ATL@@QEAAJXZ 0000000180021830 f i MotionSensor.obj
 0001:00020840       ?OnPreVerbUIActivate@?$IOleObjectImpl@VCOPOSMotionSensor@@@ATL@@QEAAJXZ 0000000180021840 f i MotionSensor.obj
 0001:00020850       ?OnSetFocus@CComControlBase@ATL@@QEAA_JI_K_JAEAH@Z 0000000180021850 f i MotionSensor.obj
 0001:00020a50       ?OnWindowMessage@?$IOleInPlaceObjectWindowlessImpl@VCOPOSMotionSensor@@@ATL@@UEAAJI_K_JPEA_J@Z 0000000180021a50 f i MotionSensor.obj
 0001:00020c70       ?Open@CRegKey@ATL@@QEAAJPEAUHKEY__@@PEB_WK@Z 0000000180021c70 f i MotionSensor.obj
 0001:00020df0       ?OuterAddRef@CComObjectRootBase@ATL@@QEAAKXZ 0000000180021df0 f i MotionSensor.obj
 0001:00020e30       ?OuterQueryInterface@CComObjectRootBase@ATL@@QEAAJAEBU_GUID@@PEAPEAX@Z 0000000180021e30 f i MotionSensor.obj
 0001:00020e80       ?OuterRelease@CComObjectRootBase@ATL@@QEAAKXZ 0000000180021e80 f i MotionSensor.obj
 0001:00020ec0       ?PreProcessBuffer@CRegParser@ATL@@QEAAJPEA_WPEAPEA_W@Z 0000000180021ec0 f i MotionSensor.obj
 0001:000215a0       ?PreTranslateAccelerator@CComControlBase@ATL@@QEAAHPEAUtagMSG@@AEAJ@Z 00000001800225a0 f i MotionSensor.obj
 0001:000215c0       ?ProcessWindowMessage@?$CComControl@VCOPOSMotionSensor@@V?$CWindowImpl@VCOPOSMotionSensor@@VCWindow@ATL@@V?$CWinTraits@$0FGAAAAAA@$0A@@3@@ATL@@@ATL@@UEAAHPEAUHWND__@@I_K_JAEA_JK@Z 00000001800225c0 f i MotionSensor.obj
 0001:00021840       ?ProcessWindowMessage@COPOSMotionSensor@@UEAAHPEAUHWND__@@I_K_JAEA_JK@Z 0000000180022840 f i MotionSensor.obj
 0001:000219c0       ?PutProperty@?$CComPtr@UIDispatch@@@ATL@@QEAAJJPEAUtagVARIANT@@@Z 00000001800229c0 f i MotionSensor.obj
 0001:00021a10       ?PutProperty@?$CComPtr@UIDispatch@@@ATL@@SAJPEAUIDispatch@@JPEAUtagVARIANT@@@Z 0000000180022a10 f i MotionSensor.obj
 0001:00021cb0       ?QueryGetData@?$IDataObjectImpl@VCOPOSMotionSensor@@@ATL@@UEAAJPEAUtagFORMATETC@@@Z 0000000180022cb0 f i MotionSensor.obj
 0001:00021d40       ?QueryHitPoint@?$IViewObjectExImpl@VCOPOSMotionSensor@@@ATL@@UEAAJKPEBUtagRECT@@UtagPOINT@@JPEAK@Z 0000000180022d40 f i MotionSensor.obj
 0001:00021eb0       ?QueryHitRect@?$IViewObjectExImpl@VCOPOSMotionSensor@@@ATL@@UEAAJKPEBUtagRECT@@0JPEAK@Z 0000000180022eb0 f i MotionSensor.obj
 0001:00022080       ?QueryInterface@?$CComAggObject@VCOPOSMotionSensor@@@ATL@@UEAAJAEBU_GUID@@PEAPEAX@Z 0000000180023080 f i MotionSensor.obj
 0001:00022170       ?QueryInterface@?$CComContainedObject@VCOPOSMotionSensor@@@ATL@@UEAAJAEBU_GUID@@PEAPEAX@Z 0000000180023170 f i MotionSensor.obj
 0001:000221bc       ?QueryInterface@?$CComContainedObject@VCOPOSMotionSensor@@@ATL@@WBAA@EAAJAEBU_GUID@@PEAPEAX@Z 00000001800231bc f i MotionSensor.obj
 0001:000221c8       ?QueryInterface@?$CComContainedObject@VCOPOSMotionSensor@@@ATL@@WBAI@EAAJAEBU_GUID@@PEAPEAX@Z 00000001800231c8 f i MotionSensor.obj
 0001:000221d4       ?QueryInterface@?$CComContainedObject@VCOPOSMotionSensor@@@ATL@@WBBA@EAAJAEBU_GUID@@PEAPEAX@Z 00000001800231d4 f i MotionSensor.obj
 0001:000221e0       ?QueryInterface@?$CComContainedObject@VCOPOSMotionSensor@@@ATL@@WBBI@EAAJAEBU_GUID@@PEAPEAX@Z 00000001800231e0 f i MotionSensor.obj
 0001:000221ec       ?QueryInterface@?$CComContainedObject@VCOPOSMotionSensor@@@ATL@@WLI@EAAJAEBU_GUID@@PEAPEAX@Z 00000001800231ec f i MotionSensor.obj
 0001:000221f8       ?QueryInterface@?$CComContainedObject@VCOPOSMotionSensor@@@ATL@@WMA@EAAJAEBU_GUID@@PEAPEAX@Z 00000001800231f8 f i MotionSensor.obj
 0001:00022204       ?QueryInterface@?$CComContainedObject@VCOPOSMotionSensor@@@ATL@@WMI@EAAJAEBU_GUID@@PEAPEAX@Z 0000000180023204 f i MotionSensor.obj
 0001:00022210       ?QueryInterface@?$CComContainedObject@VCOPOSMotionSensor@@@ATL@@WNA@EAAJAEBU_GUID@@PEAPEAX@Z 0000000180023210 f i MotionSensor.obj
 0001:0002221c       ?QueryInterface@?$CComContainedObject@VCOPOSMotionSensor@@@ATL@@WNI@EAAJAEBU_GUID@@PEAPEAX@Z 000000018002321c f i MotionSensor.obj
 0001:00022228       ?QueryInterface@?$CComContainedObject@VCOPOSMotionSensor@@@ATL@@WOA@EAAJAEBU_GUID@@PEAPEAX@Z 0000000180023228 f i MotionSensor.obj
 0001:00022234       ?QueryInterface@?$CComContainedObject@VCOPOSMotionSensor@@@ATL@@WOI@EAAJAEBU_GUID@@PEAPEAX@Z 0000000180023234 f i MotionSensor.obj
 0001:00022240       ?QueryInterface@?$CComContainedObject@VCOPOSMotionSensor@@@ATL@@WPA@EAAJAEBU_GUID@@PEAPEAX@Z 0000000180023240 f i MotionSensor.obj
 0001:0002224c       ?QueryInterface@?$CComContainedObject@VCOPOSMotionSensor@@@ATL@@WPI@EAAJAEBU_GUID@@PEAPEAX@Z 000000018002324c f i MotionSensor.obj
 0001:00022260       ?QueryInterface@?$CComObject@V?$CComEnum@UIEnumConnectionPoints@@$1?_GUID_b196b285_bab4_101a_b69c_00aa00341d07@@3U__s_GUID@@BPEAUIConnectionPoint@@V?$_CopyInterface@UIConnectionPoint@@@ATL@@VCComSingleThreadModel@6@@ATL@@@ATL@@UEAAJAEBU_GUID@@PEAPEAX@Z 0000000180023260 f i MotionSensor.obj
 0001:000222b0       ?QueryInterface@?$CComObject@V?$CComEnum@UIEnumConnections@@$1?_GUID_b196b287_bab4_101a_b69c_00aa00341d07@@3U__s_GUID@@BUtagCONNECTDATA@@V?$_Copy@UtagCONNECTDATA@@@ATL@@VCComSingleThreadModel@6@@ATL@@@ATL@@UEAAJAEBU_GUID@@PEAPEAX@Z 00000001800232b0 f i MotionSensor.obj
 0001:00022300       ?QueryInterface@?$CComObject@VCOPOSMotionSensor@@@ATL@@UEAAJAEBU_GUID@@PEAPEAX@Z 0000000180023300 f i MotionSensor.obj
 0001:00022344       ?QueryInterface@?$CComObject@VCOPOSMotionSensor@@@ATL@@WBAA@EAAJAEBU_GUID@@PEAPEAX@Z 0000000180023344 f i MotionSensor.obj
 0001:00022350       ?QueryInterface@?$CComObject@VCOPOSMotionSensor@@@ATL@@WBAI@EAAJAEBU_GUID@@PEAPEAX@Z 0000000180023350 f i MotionSensor.obj
 0001:0002235c       ?QueryInterface@?$CComObject@VCOPOSMotionSensor@@@ATL@@WBBA@EAAJAEBU_GUID@@PEAPEAX@Z 000000018002335c f i MotionSensor.obj
 0001:00022368       ?QueryInterface@?$CComObject@VCOPOSMotionSensor@@@ATL@@WBBI@EAAJAEBU_GUID@@PEAPEAX@Z 0000000180023368 f i MotionSensor.obj
 0001:00022374       ?QueryInterface@?$CComObject@VCOPOSMotionSensor@@@ATL@@WLI@EAAJAEBU_GUID@@PEAPEAX@Z 0000000180023374 f i MotionSensor.obj
 0001:00022380       ?QueryInterface@?$CComObject@VCOPOSMotionSensor@@@ATL@@WMA@EAAJAEBU_GUID@@PEAPEAX@Z 0000000180023380 f i MotionSensor.obj
 0001:0002238c       ?QueryInterface@?$CComObject@VCOPOSMotionSensor@@@ATL@@WMI@EAAJAEBU_GUID@@PEAPEAX@Z 000000018002338c f i MotionSensor.obj
 0001:00022398       ?QueryInterface@?$CComObject@VCOPOSMotionSensor@@@ATL@@WNA@EAAJAEBU_GUID@@PEAPEAX@Z 0000000180023398 f i MotionSensor.obj
 0001:000223a4       ?QueryInterface@?$CComObject@VCOPOSMotionSensor@@@ATL@@WNI@EAAJAEBU_GUID@@PEAPEAX@Z 00000001800233a4 f i MotionSensor.obj
 0001:000223b0       ?QueryInterface@?$CComObject@VCOPOSMotionSensor@@@ATL@@WOA@EAAJAEBU_GUID@@PEAPEAX@Z 00000001800233b0 f i MotionSensor.obj
 0001:000223bc       ?QueryInterface@?$CComObject@VCOPOSMotionSensor@@@ATL@@WOI@EAAJAEBU_GUID@@PEAPEAX@Z 00000001800233bc f i MotionSensor.obj
 0001:000223c8       ?QueryInterface@?$CComObject@VCOPOSMotionSensor@@@ATL@@WPA@EAAJAEBU_GUID@@PEAPEAX@Z 00000001800233c8 f i MotionSensor.obj
 0001:000223d4       ?QueryInterface@?$CComObject@VCOPOSMotionSensor@@@ATL@@WPI@EAAJAEBU_GUID@@PEAPEAX@Z 00000001800233d4 f i MotionSensor.obj
 0001:000223e0       ?QueryInterface@?$CComObjectCached@VCComClassFactory@ATL@@@ATL@@UEAAJAEBU_GUID@@PEAPEAX@Z 00000001800233e0 f i MotionSensor.obj
 0001:00022430       ?QueryInterface@CRegObject@ATL@@UEAAJAEBU_GUID@@PEAPEAX@Z 0000000180023430 f i MotionSensor.obj
 0001:000224b0       ?QuickActivate@?$IQuickActivateImpl@VCOPOSMotionSensor@@@ATL@@UEAAJPEAUtagQACONTAINER@@PEAUtagQACONTROL@@@Z 00000001800234b0 f i MotionSensor.obj
 0001:00022570       ?ReactivateAndUndo@?$IOleInPlaceObjectWindowlessImpl@VCOPOSMotionSensor@@@ATL@@UEAAJXZ 0000000180023570 f i MotionSensor.obj
 0001:000225f0       ?ReadFromStream@CComBSTR@ATL@@QEAAJPEAUIStream@@@Z 00000001800235f0 f i MotionSensor.obj
 0001:00022ad0       ?ReadFromStream@CComVariant@ATL@@QEAAJPEAUIStream@@GTClassesAllowedInStream@2@K@Z 0000000180023ad0 f i MotionSensor.obj
 0001:00022f00       ?RecurseDeleteKey@CRegKey@ATL@@QEAAJPEB_W@Z 0000000180023f00 f i MotionSensor.obj
 0001:00023120       ?RegCreateKeyExW@CAtlTransactionManager@ATL@@QEAAJPEAUHKEY__@@PEB_WKPEA_WKKQEAU_SECURITY_ATTRIBUTES@@PEAPEAU3@PEAK@Z 0000000180024120 f i MotionSensor.obj
 0001:000232f0       ?RegDeleteKeyW@CAtlTransactionManager@ATL@@QEAAJPEAUHKEY__@@PEB_W@Z 00000001800242f0 f i MotionSensor.obj
 0001:00023400       ?RegOpenKeyExW@CAtlTransactionManager@ATL@@QEAAJPEAUHKEY__@@PEB_WKKPEAPEAU3@@Z 0000000180024400 f i MotionSensor.obj
 0001:00023550       ?Register@_ATL_WNDCLASSINFOW@ATL@@QEAAGPEAP6A_JPEAUHWND__@@I_K_J@Z@Z 0000000180024550 f i MotionSensor.obj
 0001:000235a0       ?RegisterBuffer@CRegParser@ATL@@QEAAJPEA_WH@Z 00000001800245a0 f i MotionSensor.obj
 0001:00023990       ?RegisterClassExW@AtlModuleRegisterWndClassInfoParamW@ATL@@SAGPEAU_ATL_WIN_MODULE70@2@PEBUtagWNDCLASSEXW@@@Z 0000000180024990 f i MotionSensor.obj
 0001:000239d0       ?RegisterFromResource@CRegObject@ATL@@IEAAJPEB_W00H@Z 00000001800249d0 f i MotionSensor.obj
 0001:00023e30       ?RegisterServer@?$CAtlModuleT@VCComModule@ATL@@@ATL@@QEAAJHPEBU_GUID@@@Z 0000000180024e30 f i MotionSensor.obj
 0001:00023eb0       ?RegisterServer@CAtlComModule@ATL@@QEAAJHPEBU_GUID@@@Z 0000000180024eb0 f i MotionSensor.obj
 0001:00023ef0       ?RegisterServer@CComModule@ATL@@QEAAJHPEBU_GUID@@@Z 0000000180024ef0 f i MotionSensor.obj
 0001:00023ff0       ?RegisterSubkeys@CRegParser@ATL@@IEAAJPEA_WPEAUHKEY__@@HH@Z 0000000180024ff0 f i MotionSensor.obj
 0001:00024dd0       ?Release@?$CComAggObject@VCOPOSMotionSensor@@@ATL@@UEAAKXZ 0000000180025dd0 f i MotionSensor.obj
 0001:00024e80       ?Release@?$CComContainedObject@VCOPOSMotionSensor@@@ATL@@UEAAKXZ 0000000180025e80 f i MotionSensor.obj
 0001:00024eb8       ?Release@?$CComContainedObject@VCOPOSMotionSensor@@@ATL@@WBAA@EAAKXZ 0000000180025eb8 f i MotionSensor.obj
 0001:00024ec4       ?Release@?$CComContainedObject@VCOPOSMotionSensor@@@ATL@@WBAI@EAAKXZ 0000000180025ec4 f i MotionSensor.obj
 0001:00024ed0       ?Release@?$CComContainedObject@VCOPOSMotionSensor@@@ATL@@WBBA@EAAKXZ 0000000180025ed0 f i MotionSensor.obj
 0001:00024edc       ?Release@?$CComContainedObject@VCOPOSMotionSensor@@@ATL@@WBBI@EAAKXZ 0000000180025edc f i MotionSensor.obj
 0001:00024ee8       ?Release@?$CComContainedObject@VCOPOSMotionSensor@@@ATL@@WBCI@EAAKXZ 0000000180025ee8 f i MotionSensor.obj
 0001:00024ef4       ?Release@?$CComContainedObject@VCOPOSMotionSensor@@@ATL@@WBEA@EAAKXZ 0000000180025ef4 f i MotionSensor.obj
 0001:00024f00       ?Release@?$CComContainedObject@VCOPOSMotionSensor@@@ATL@@WLI@EAAKXZ 0000000180025f00 f i MotionSensor.obj
 0001:00024f0c       ?Release@?$CComContainedObject@VCOPOSMotionSensor@@@ATL@@WMA@EAAKXZ 0000000180025f0c f i MotionSensor.obj
 0001:00024f18       ?Release@?$CComContainedObject@VCOPOSMotionSensor@@@ATL@@WMI@EAAKXZ 0000000180025f18 f i MotionSensor.obj
 0001:00024f24       ?Release@?$CComContainedObject@VCOPOSMotionSensor@@@ATL@@WNA@EAAKXZ 0000000180025f24 f i MotionSensor.obj
 0001:00024f30       ?Release@?$CComContainedObject@VCOPOSMotionSensor@@@ATL@@WNI@EAAKXZ 0000000180025f30 f i MotionSensor.obj
 0001:00024f3c       ?Release@?$CComContainedObject@VCOPOSMotionSensor@@@ATL@@WOA@EAAKXZ 0000000180025f3c f i MotionSensor.obj
 0001:00024f48       ?Release@?$CComContainedObject@VCOPOSMotionSensor@@@ATL@@WOI@EAAKXZ 0000000180025f48 f i MotionSensor.obj
 0001:00024f54       ?Release@?$CComContainedObject@VCOPOSMotionSensor@@@ATL@@WPA@EAAKXZ 0000000180025f54 f i MotionSensor.obj
 0001:00024f60       ?Release@?$CComContainedObject@VCOPOSMotionSensor@@@ATL@@WPI@EAAKXZ 0000000180025f60 f i MotionSensor.obj
 0001:00024f70       ?Release@?$CComObject@V?$CComEnum@UIEnumConnectionPoints@@$1?_GUID_b196b285_bab4_101a_b69c_00aa00341d07@@3U__s_GUID@@BPEAUIConnectionPoint@@V?$_CopyInterface@UIConnectionPoint@@@ATL@@VCComSingleThreadModel@6@@ATL@@@ATL@@UEAAKXZ 0000000180025f70 f i MotionSensor.obj
 0001:00025020       ?Release@?$CComObject@V?$CComEnum@UIEnumConnections@@$1?_GUID_b196b287_bab4_101a_b69c_00aa00341d07@@3U__s_GUID@@BUtagCONNECTDATA@@V?$_Copy@UtagCONNECTDATA@@@ATL@@VCComSingleThreadModel@6@@ATL@@@ATL@@UEAAKXZ 0000000180026020 f i MotionSensor.obj
 0001:000250d0       ?Release@?$CComObject@VCOPOSMotionSensor@@@ATL@@UEAAKXZ 00000001800260d0 f i MotionSensor.obj
 0001:00025188       ?Release@?$CComObject@VCOPOSMotionSensor@@@ATL@@WBAA@EAAKXZ 0000000180026188 f i MotionSensor.obj
 0001:00025194       ?Release@?$CComObject@VCOPOSMotionSensor@@@ATL@@WBAI@EAAKXZ 0000000180026194 f i MotionSensor.obj
 0001:000251a0       ?Release@?$CComObject@VCOPOSMotionSensor@@@ATL@@WBBA@EAAKXZ 00000001800261a0 f i MotionSensor.obj
 0001:000251ac       ?Release@?$CComObject@VCOPOSMotionSensor@@@ATL@@WBBI@EAAKXZ 00000001800261ac f i MotionSensor.obj
 0001:000251b8       ?Release@?$CComObject@VCOPOSMotionSensor@@@ATL@@WBCI@EAAKXZ 00000001800261b8 f i MotionSensor.obj
 0001:000251c4       ?Release@?$CComObject@VCOPOSMotionSensor@@@ATL@@WBEA@EAAKXZ 00000001800261c4 f i MotionSensor.obj
 0001:000251d0       ?Release@?$CComObject@VCOPOSMotionSensor@@@ATL@@WLI@EAAKXZ 00000001800261d0 f i MotionSensor.obj
 0001:000251dc       ?Release@?$CComObject@VCOPOSMotionSensor@@@ATL@@WMA@EAAKXZ 00000001800261dc f i MotionSensor.obj
 0001:000251e8       ?Release@?$CComObject@VCOPOSMotionSensor@@@ATL@@WMI@EAAKXZ 00000001800261e8 f i MotionSensor.obj
 0001:000251f4       ?Release@?$CComObject@VCOPOSMotionSensor@@@ATL@@WNA@EAAKXZ 00000001800261f4 f i MotionSensor.obj
 0001:00025200       ?Release@?$CComObject@VCOPOSMotionSensor@@@ATL@@WNI@EAAKXZ 0000000180026200 f i MotionSensor.obj
 0001:0002520c       ?Release@?$CComObject@VCOPOSMotionSensor@@@ATL@@WOA@EAAKXZ 000000018002620c f i MotionSensor.obj
 0001:00025218       ?Release@?$CComObject@VCOPOSMotionSensor@@@ATL@@WOI@EAAKXZ 0000000180026218 f i MotionSensor.obj
 0001:00025224       ?Release@?$CComObject@VCOPOSMotionSensor@@@ATL@@WPA@EAAKXZ 0000000180026224 f i MotionSensor.obj
 0001:00025230       ?Release@?$CComObject@VCOPOSMotionSensor@@@ATL@@WPI@EAAKXZ 0000000180026230 f i MotionSensor.obj
 0001:00025240       ?Release@?$CComObjectCached@VCComClassFactory@ATL@@@ATL@@UEAAKXZ 0000000180026240 f i MotionSensor.obj
 0001:000252e0       ?Release@?$CComPtrBase@UIAdviseSink@@@ATL@@QEAAXXZ 00000001800262e0 f i MotionSensor.obj
 0001:00025340       ?Release@?$CComPtrBase@UIDispatch@@@ATL@@QEAAXXZ 0000000180026340 f i MotionSensor.obj
 0001:000253a0       ?Release@?$CComPtrBase@UIOleInPlaceSiteWindowless@@@ATL@@QEAAXXZ 00000001800263a0 f i MotionSensor.obj
 0001:00025400       ?Release@CRegObject@ATL@@UEAAKXZ 0000000180026400 f i MotionSensor.obj
 0001:00025470       ?Remove@CComDynamicUnkArray@ATL@@QEAAHK@Z 0000000180026470 f i MotionSensor.obj
 0001:00025550       ?RemoveAll@?$CSimpleMap@PEA_WPEA_WVCExpansionVectorEqualHelper@ATL@@@ATL@@QEAAXXZ 0000000180026550 f i MotionSensor.obj
 0001:000255f0       ?Reset@?$CComEnumImpl@UIEnumConnectionPoints@@$1?_GUID_b196b285_bab4_101a_b69c_00aa00341d07@@3U__s_GUID@@BPEAUIConnectionPoint@@V?$_CopyInterface@UIConnectionPoint@@@ATL@@@ATL@@UEAAJXZ 00000001800265f0 f i MotionSensor.obj
 0001:00025610       ?Reset@?$CComEnumImpl@UIEnumConnections@@$1?_GUID_b196b287_bab4_101a_b69c_00aa00341d07@@3U__s_GUID@@BUtagCONNECTDATA@@V?$_Copy@UtagCONNECTDATA@@@ATL@@@ATL@@UEAAJXZ 0000000180026610 f i MotionSensor.obj
 0001:00025630       ?ResizeBorder@?$IOleInPlaceActiveObjectImpl@VCOPOSMotionSensor@@@ATL@@UEAAJPEBUtagRECT@@PEAUIOleInPlaceUIWindow@@H@Z 0000000180026630 f i MotionSensor.obj
 0001:000256b0       ?ResourceRegister@CRegObject@ATL@@QEAAJPEB_WI0@Z 00000001800266b0 f i MotionSensor.obj
 0001:00025790       ?ResourceRegisterSz@CRegObject@ATL@@QEAAJPEB_W00@Z 0000000180026790 f i MotionSensor.obj
 0001:000258b0       ?ResourceUnregister@CRegObject@ATL@@QEAAJPEB_WI0@Z 00000001800268b0 f i MotionSensor.obj
 0001:00025990       ?ResourceUnregisterSz@CRegObject@ATL@@QEAAJPEB_W00@Z 0000000180026990 f i MotionSensor.obj
 0001:00025ab0       ?SODataDummy@COPOSMotionSensor@@MEAAJJ@Z 0000000180026ab0 f i MotionSensor.obj
 0001:00025ad0       ?SODirectIO@COPOSMotionSensor@@MEAAJJPEAJPEAPEA_W@Z 0000000180026ad0 f i MotionSensor.obj
 0001:00025d10       ?SOErrorDummy@COPOSMotionSensor@@MEAAJJJJPEAJ@Z 0000000180026d10 f i MotionSensor.obj
 0001:00025d30       ?SOOutputCompleteDummy@COPOSMotionSensor@@MEAAJJ@Z 0000000180026d30 f i MotionSensor.obj
 0001:00025d50       ?SOStatusUpdate@COPOSMotionSensor@@MEAAJJ@Z 0000000180026d50 f i MotionSensor.obj
 0001:00025df0       ?Save@?$IPersistStorageImpl@VCOPOSMotionSensor@@@ATL@@UEAAJPEAUIStorage@@H@Z 0000000180026df0 f i MotionSensor.obj
 0001:00025fb0       ?Save@?$IPersistStreamInitImpl@VCOPOSMotionSensor@@@ATL@@UEAAJPEAUIStream@@H@Z 0000000180026fb0 f i MotionSensor.obj
 0001:00026070       ?SaveCompleted@?$IPersistStorageImpl@VCOPOSMotionSensor@@@ATL@@UEAAJPEAUIStorage@@@Z 0000000180027070 f i MotionSensor.obj
 0001:000260e0       ?SendOnDataChange@CComControlBase@ATL@@QEAAJK@Z 00000001800270e0 f i MotionSensor.obj
 0001:000261d0       ?SendOnSave@CComControlBase@ATL@@QEAAJXZ 00000001800271d0 f i MotionSensor.obj
 0001:00026240       ?SendOnViewChange@CComControlBase@ATL@@QEAAJKJ@Z 0000000180027240 f i MotionSensor.obj
 0001:000262c0       ?SetAdvise@?$IViewObjectExImpl@VCOPOSMotionSensor@@@ATL@@UEAAJKKPEAUIAdviseSink@@@Z 00000001800272c0 f i MotionSensor.obj
 0001:00026380       ?SetClientSite@?$IOleObjectImpl@VCOPOSMotionSensor@@@ATL@@UEAAJPEAUIOleClientSite@@@Z 0000000180027380 f i MotionSensor.obj
 0001:00026430       ?SetColorScheme@?$IOleObjectImpl@VCOPOSMotionSensor@@@ATL@@UEAAJPEAUtagLOGPALETTE@@@Z 0000000180027430 f i MotionSensor.obj
 0001:000264c0       ?SetContentExtent@?$IQuickActivateImpl@VCOPOSMotionSensor@@@ATL@@UEAAJPEAUtagSIZE@@@Z 00000001800274c0 f i MotionSensor.obj
 0001:00026580       ?SetControlFocus@CComControlBase@ATL@@QEAAHH@Z 0000000180027580 f i MotionSensor.obj
 0001:00026710       ?SetDWORDValue@CRegKey@ATL@@QEAAJPEB_WK@Z 0000000180027710 f i MotionSensor.obj
 0001:000267c0       ?SetData@?$IDataObjectImpl@VCOPOSMotionSensor@@@ATL@@UEAAJPEAUtagFORMATETC@@PEAUtagSTGMEDIUM@@H@Z 00000001800277c0 f i MotionSensor.obj
 0001:00026850       ?SetExtent@?$IOleObjectImpl@VCOPOSMotionSensor@@@ATL@@UEAAJKPEAUtagSIZE@@@Z 0000000180027850 f i MotionSensor.obj
 0001:00026910       ?SetHostNames@?$IOleObjectImpl@VCOPOSMotionSensor@@@ATL@@UEAAJPEB_W0@Z 0000000180027910 f i MotionSensor.obj
 0001:00026990       ?SetInterfaceSafetyOptions@?$IObjectSafetyImpl@VCOPOSMotionSensor@@$02@ATL@@UEAAJAEBU_GUID@@KK@Z 0000000180027990 f i MotionSensor.obj
 0001:00026b30       ?SetMoniker@?$IOleObjectImpl@VCOPOSMotionSensor@@@ATL@@UEAAJKPEAUIMoniker@@@Z 0000000180027b30 f i MotionSensor.obj
 0001:00026bc0       ?SetMultiStringValue@CRegKey@ATL@@QEAAJPEB_W0@Z 0000000180027bc0 f i MotionSensor.obj
 0001:00026d30       ?SetObjectRects@?$IOleInPlaceObjectWindowlessImpl@VCOPOSMotionSensor@@@ATL@@UEAAJPEBUtagRECT@@0@Z 0000000180027d30 f i MotionSensor.obj
 0001:00026df0       ?SetStringValue@CRegKey@ATL@@QEAAJPEB_W0K@Z 0000000180027df0 f i MotionSensor.obj
 0001:00026f70       ?SetVoid@CComClassFactory@ATL@@QEAAXPEAX@Z 0000000180027f70 f i MotionSensor.obj
 0001:00026f90       ?SetVoid@CComObjectRootBase@ATL@@QEAAXPEAX@Z 0000000180027f90 f i MotionSensor.obj
 0001:00026fa0       ?ShowWindow@CWindow@ATL@@QEAAHH@Z 0000000180027fa0 f i MotionSensor.obj
 0001:00027030       ?Skip@?$CComEnumImpl@UIEnumConnectionPoints@@$1?_GUID_b196b285_bab4_101a_b69c_00aa00341d07@@3U__s_GUID@@BPEAUIConnectionPoint@@V?$_CopyInterface@UIConnectionPoint@@@ATL@@@ATL@@UEAAJK@Z 0000000180028030 f i MotionSensor.obj
 0001:000270d0       ?Skip@?$CComEnumImpl@UIEnumConnections@@$1?_GUID_b196b287_bab4_101a_b69c_00aa00341d07@@3U__s_GUID@@BUtagCONNECTDATA@@V?$_Copy@UtagCONNECTDATA@@@ATL@@@ATL@@UEAAJK@Z 00000001800280d0 f i MotionSensor.obj
 0001:00027170       ?SkipAssignment@CRegParser@ATL@@IEAAJPEA_W@Z 0000000180028170 f i MotionSensor.obj
 0001:00027270       ?SkipWhiteSpace@CRegParser@ATL@@IEAAXXZ 0000000180028270 f i MotionSensor.obj
 0001:000272d0       ?StartWindowProc@?$CWindowImplBaseT@VCWindow@ATL@@V?$CWinTraits@$0FGAAAAAA@$0A@@2@@ATL@@SA_JPEAUHWND__@@I_K_J@Z 00000001800282d0 f i MotionSensor.obj
 0001:00027440       ?StrChrW@CRegParser@ATL@@KAPEA_WPEA_W_W@Z 0000000180028440 f i MotionSensor.obj
 0001:000274c0       ?StrFromMap@CRegObject@ATL@@QEAAPEB_WPEA_W@Z 00000001800284c0 f i MotionSensor.obj
 0001:00027580       ?Swap@?$CComPtrBase@UIAdviseSink@@@ATL@@IEAAXAEAV12@@Z 0000000180028580 f i MotionSensor.obj
 0001:000275e0       ?Swap@?$CComPtrBase@UIOleClientSite@@@ATL@@IEAAXAEAV12@@Z 00000001800285e0 f i MotionSensor.obj
 0001:00027640       ?Swap@?$CComPtrBase@UIUnknown@@@ATL@@IEAAXAEAV12@@Z 0000000180028640 f i MotionSensor.obj
 0001:000276a0       ?T2COLE_EX@@YAPEB_WPEB_WI@Z 00000001800286a0 f i MotionSensor.obj
 0001:000276c0       ?T2OLE_EX@@YAPEA_WPEA_WI@Z 00000001800286c0 f i MotionSensor.obj
 0001:000276e0       ?Term@CAtlModule@ATL@@QEAAXXZ 00000001800286e0 f i MotionSensor.obj
 0001:000277a0       ?Term@CComModule@ATL@@QEAAXXZ 00000001800287a0 f i MotionSensor.obj
 0001:00027890       ?TranslateAcceleratorW@?$IOleInPlaceActiveObjectImpl@VCOPOSMotionSensor@@@ATL@@UEAAJPEAUtagMSG@@@Z 0000000180028890 f i MotionSensor.obj
 0001:00027b00       ?UIDeactivate@?$IOleInPlaceObjectWindowlessImpl@VCOPOSMotionSensor@@@ATL@@UEAAJXZ 0000000180028b00 f i MotionSensor.obj
 0001:00027bb0       ?Unadvise@?$CProxy_IOPOSEvents@VCOPOSMotionSensor@@@@UEAAJK@Z 0000000180028bb0 f i MotionSensor.obj
 0001:00027c00       ?Unadvise@?$IConnectionPointImpl@VCOPOSMotionSensor@@$1?DIID__IOPOSMotionSensorEvents@@3U_GUID@@BVCComDynamicUnkArray@ATL@@@ATL@@UEAAJK@Z 0000000180028c00 f i MotionSensor.obj
 0001:00027cf0       ?Unadvise@?$IConnectionPointImpl@VCOPOSMotionSensor@@$1?IID_IPropertyNotifySink@@3U_GUID@@BVCComDynamicUnkArray@ATL@@@ATL@@UEAAJK@Z 0000000180028cf0 f i MotionSensor.obj
 0001:00027de0       ?Unadvise@?$IOleObjectImpl@VCOPOSMotionSensor@@@ATL@@UEAAJK@Z 0000000180028de0 f i MotionSensor.obj
 0001:00027ed0       ?Unfreeze@?$IViewObjectExImpl@VCOPOSMotionSensor@@@ATL@@UEAAJK@Z 0000000180028ed0 f i MotionSensor.obj
 0001:00027f50       ?Unlock@?$CComCritSecLock@VCComCriticalSection@ATL@@@ATL@@QEAAXXZ 0000000180028f50 f i MotionSensor.obj
 0001:00027fe0       ?Unlock@?$CComObjectRootEx@VCComSingleThreadModel@ATL@@@ATL@@QEAAXXZ 0000000180028fe0 f i MotionSensor.obj
 0001:00027ff0       ?Unlock@CAtlModule@ATL@@UEAAJXZ 0000000180028ff0 f i MotionSensor.obj
 0001:00028030       ?Unlock@CComCriticalSection@ATL@@QEAAJXZ 0000000180029030 f i MotionSensor.obj
 0001:00028070       ?Unlock@CComFakeCriticalSection@ATL@@QEAAJXZ 0000000180029070 f i MotionSensor.obj
 0001:00028080       ?UnregisterServer@?$CAtlModuleT@VCComModule@ATL@@@ATL@@QEAAJHPEBU_GUID@@@Z 0000000180029080 f i MotionSensor.obj
 0001:000280f0       ?UnregisterServer@CAtlComModule@ATL@@QEAAJHPEBU_GUID@@@Z 00000001800290f0 f i MotionSensor.obj
 0001:00028130       ?UnregisterServer@CComModule@ATL@@QEAAJHPEBU_GUID@@@Z 0000000180029130 f i MotionSensor.obj
 0001:00028220       ?Update@?$IOleObjectImpl@VCOPOSMotionSensor@@@ATL@@UEAAJXZ 0000000180029220 f i MotionSensor.obj
 0001:00028290       ?UpdateRegistryFromResource@CAtlModule@ATL@@QEAAJIHPEAU_ATL_REGMAP_ENTRY@2@@Z 0000000180029290 f i MotionSensor.obj
 0001:000287c0       ?UpdateRegistryFromResource@CAtlModule@ATL@@QEAAJPEB_WHPEAU_ATL_REGMAP_ENTRY@2@@Z 00000001800297c0 f i MotionSensor.obj
 0001:00028d10       ?UpdateRegistryFromResource@CComModule@ATL@@UEAAJIHPEAU_ATL_REGMAP_ENTRY@2@@Z 0000000180029d10 f i MotionSensor.obj
 0001:00028d60       ?UpdateRegistryFromResource@CComModule@ATL@@UEAAJPEB_WHPEAU_ATL_REGMAP_ENTRY@2@@Z 0000000180029d60 f i MotionSensor.obj
 0001:00028db0       ?UpdateRegistryFromResourceD@CComModule@ATL@@UEAAJIHPEAU_ATL_REGMAP_ENTRY@2@@Z 0000000180029db0 f i MotionSensor.obj
 0001:00028dd0       ?UpdateRegistryFromResourceD@CComModule@ATL@@UEAAJPEB_WHPEAU_ATL_REGMAP_ENTRY@2@@Z 0000000180029dd0 f i MotionSensor.obj
 0001:00028df0       ?VTFromRegType@CRegParser@ATL@@KAHPEB_WAEAG@Z 0000000180029df0 f i MotionSensor.obj
 0001:00028ed0       ?WindowProc@?$CWindowImplBaseT@VCWindow@ATL@@V?$CWinTraits@$0FGAAAAAA@$0A@@2@@ATL@@SA_JPEAUHWND__@@I_K_J@Z 0000000180029ed0 f i MotionSensor.obj
 0001:000291b0       ?WriteToStream@CComBSTR@ATL@@QEAAJPEAUIStream@@@Z 000000018002a1b0 f i MotionSensor.obj
 0001:00029320       ?WriteToStream@CComVariant@ATL@@QEAAJPEAUIStream@@@Z 000000018002a320 f i MotionSensor.obj
 0001:00029730       ?WriteToStream@CComVariant@ATL@@QEAAJPEAUIStream@@G@Z 000000018002a730 f i MotionSensor.obj
 0001:00029810       ?_AtlFinalConstruct@CComObjectRootBase@ATL@@QEAAJXZ 000000018002a810 f i MotionSensor.obj
 0001:00029820       ?_AtlGetConversionACP@ATL@@YAIXZ 000000018002a820 f i MotionSensor.obj
 0001:00029830       ?_AtlInitialConstruct@?$CComAggObject@VCOPOSMotionSensor@@@ATL@@QEAAJXZ 000000018002a830 f i MotionSensor.obj
 0001:00029890       ?_AtlInitialConstruct@?$CComObjectRootEx@VCComMultiThreadModel@ATL@@@ATL@@QEAAJXZ 000000018002a890 f i MotionSensor.obj
 0001:000298d0       ?_AtlInitialConstruct@?$CComObjectRootEx@VCComSingleThreadModel@ATL@@@ATL@@QEAAJXZ 000000018002a8d0 f i MotionSensor.obj
 0001:000298e0       ?_AtlVerifyStackAvailable@_ATL_SAFE_ALLOCA_IMPL@ATL@@YA_N_K@Z 000000018002a8e0 f i MotionSensor.obj
 0001:00029a40       ?_GetEntries@?$CComEnum@UIEnumConnectionPoints@@$1?_GUID_b196b285_bab4_101a_b69c_00aa00341d07@@3U__s_GUID@@BPEAUIConnectionPoint@@V?$_CopyInterface@UIConnectionPoint@@@ATL@@VCComSingleThreadModel@6@@ATL@@SAPEBU_ATL_INTMAP_ENTRY@2@XZ 000000018002aa40 f i MotionSensor.obj
 0001:00029a60       ?_GetEntries@?$CComEnum@UIEnumConnections@@$1?_GUID_b196b287_bab4_101a_b69c_00aa00341d07@@3U__s_GUID@@BUtagCONNECTDATA@@V?$_Copy@UtagCONNECTDATA@@@ATL@@VCComSingleThreadModel@6@@ATL@@SAPEBU_ATL_INTMAP_ENTRY@2@XZ 000000018002aa60 f i MotionSensor.obj
 0001:00029a80       ?_GetEntries@CComClassFactory@ATL@@SAPEBU_ATL_INTMAP_ENTRY@2@XZ 000000018002aa80 f i MotionSensor.obj
 0001:00029aa0       ?_GetEntries@COPOSMotionSensor@@SAPEBU_ATL_INTMAP_ENTRY@ATL@@XZ 000000018002aaa0 f i MotionSensor.obj
 0001:00029ac0       ?_GetRawUnknown@COPOSMotionSensor@@QEAAPEAUIUnknown@@XZ 000000018002aac0 f i MotionSensor.obj
 0001:00029b50       ?_GetViewStatus@COPOSMotionSensor@@QEAAKXZ 000000018002ab50 f i MotionSensor.obj
 0001:00029b60       ?_InternalQueryInterface@?$CComEnum@UIEnumConnectionPoints@@$1?_GUID_b196b285_bab4_101a_b69c_00aa00341d07@@3U__s_GUID@@BPEAUIConnectionPoint@@V?$_CopyInterface@UIConnectionPoint@@@ATL@@VCComSingleThreadModel@6@@ATL@@QEAAJAEBU_GUID@@PEAPEAX@Z 000000018002ab60 f i MotionSensor.obj
 0001:00029bb0       ?_InternalQueryInterface@?$CComEnum@UIEnumConnections@@$1?_GUID_b196b287_bab4_101a_b69c_00aa00341d07@@3U__s_GUID@@BUtagCONNECTDATA@@V?$_Copy@UtagCONNECTDATA@@@ATL@@VCComSingleThreadModel@6@@ATL@@QEAAJAEBU_GUID@@PEAPEAX@Z 000000018002abb0 f i MotionSensor.obj
 0001:00029c00       ?_InternalQueryInterface@CComClassFactory@ATL@@QEAAJAEBU_GUID@@PEAPEAX@Z 000000018002ac00 f i MotionSensor.obj
 0001:00029c50       ?_InternalQueryInterface@COPOSMotionSensor@@QEAAJAEBU_GUID@@PEAPEAX@Z 000000018002ac50 f i MotionSensor.obj
 0001:00029ca0       ?_LocCPQueryInterface@?$IConnectionPointImpl@VCOPOSMotionSensor@@$1?DIID__IOPOSMotionSensorEvents@@3U_GUID@@BVCComDynamicUnkArray@ATL@@@ATL@@UEAAJAEBU_GUID@@PEAPEAX@Z 000000018002aca0 f i MotionSensor.obj
 0001:00029d80       ?_LocCPQueryInterface@?$IConnectionPointImpl@VCOPOSMotionSensor@@$1?IID_IPropertyNotifySink@@3U_GUID@@BVCComDynamicUnkArray@ATL@@@ATL@@UEAAJAEBU_GUID@@PEAPEAX@Z 000000018002ad80 f i MotionSensor.obj
 0001:00029e60       ?atlCreate@?$CWindowImpl@VCOPOSMotionSensor@@VCWindow@ATL@@V?$CWinTraits@$0FGAAAAAA@$0A@@3@@ATL@@QEAAPEAUHWND__@@PEAU3@V_U_RECT@2@PEB_WKKV_U_MENUorID@2@PEAX@Z 000000018002ae60 f i MotionSensor.obj
 0001:00029f90       ?atlCreate@?$CWindowImplBaseT@VCWindow@ATL@@V?$CWinTraits@$0FGAAAAAA@$0A@@2@@ATL@@QEAAPEAUHWND__@@PEAU3@V_U_RECT@2@PEB_WKKV_U_MENUorID@2@GPEAX@Z 000000018002af90 f i MotionSensor.obj
 0001:0002a1f0       ?atlCreate@CRegKey@ATL@@QEAAJPEAUHKEY__@@PEB_WPEA_WKKPEAU_SECURITY_ATTRIBUTES@@PEAK@Z 000000018002b1f0 f i MotionSensor.obj
 0001:0002a3e0       ?begin@CComDynamicUnkArray@ATL@@QEAAPEAPEAUIUnknown@@XZ 000000018002b3e0 f i MotionSensor.obj
 0001:0002a3f0       ?copy@?$_Copy@UtagCONNECTDATA@@@ATL@@SAJPEAUtagCONNECTDATA@@PEBU3@@Z 000000018002b3f0 f i MotionSensor.obj
 0001:0002a4e0       ?copy@?$_CopyInterface@UIConnectionPoint@@@ATL@@SAJPEAPEAUIConnectionPoint@@PEBQEAU3@@Z 000000018002b4e0 f i MotionSensor.obj
 0001:0002a5d0       ?destroy@?$_Copy@UtagCONNECTDATA@@@ATL@@SAXPEAUtagCONNECTDATA@@@Z 000000018002b5d0 f i MotionSensor.obj
 0001:0002a620       ?destroy@?$_CopyInterface@UIConnectionPoint@@@ATL@@SAXPEAPEAUIConnectionPoint@@@Z 000000018002b620 f i MotionSensor.obj
 0001:0002a670       ?end@CComDynamicUnkArray@ATL@@QEAAPEAPEAUIUnknown@@XZ 000000018002b670 f i MotionSensor.obj
 0001:0002a690       ?init@?$_Copy@UtagCONNECTDATA@@@ATL@@SAXPEAUtagCONNECTDATA@@@Z 000000018002b690 f i MotionSensor.obj
 0001:0002a6a0       ?init@?$_CopyInterface@UIConnectionPoint@@@ATL@@SAXPEAPEAUIConnectionPoint@@@Z 000000018002b6a0 f i MotionSensor.obj
 0001:0002a6b0       ?memcpy_s@Checked@ATL@@YAXPEAX_KPEBX1@Z 000000018002b6b0 f i MotionSensor.obj
 0001:0002a710       ?ocscpy_s@@YA_NPEA_W_KPEB_W@Z 000000018002b710 f i MotionSensor.obj
 0001:0002a790       ?ocslen@@YAHPEB_W@Z        000000018002b790 f i MotionSensor.obj
 0001:0002a7d0       ?tcsncpy_s@Checked@ATL@@YAHPEA_W_KPEB_W1@Z 000000018002b7d0 f i MotionSensor.obj
 0001:0002a830       ?wcscat_s@Checked@ATL@@YAXPEA_W_KPEB_W@Z 000000018002b830 f i MotionSensor.obj
 0001:0002a880       ?wcscpy_s@Checked@ATL@@YAXPEA_W_KPEB_W@Z 000000018002b880 f i MotionSensor.obj
 0001:0002a8d0       ?wcsncpy_s@Checked@ATL@@YAHPEA_W_KPEB_W1@Z 000000018002b8d0 f i MotionSensor.obj
 0001:0002a930       ?wcsstr@@YAPEA_WPEA_WPEB_W@Z 000000018002b930 f i MotionSensor.obj
 0001:0002a970       InlineIsEqualGUID          000000018002b970 f i MotionSensor.obj
 0001:0002aa40       IsEqualGUID                000000018002ba40 f i MotionSensor.obj
 0001:0002aaa0       ??0COPOSMotionSensor@@QEAA@XZ 000000018002baa0 f   MotionSensorImpl.obj
 0001:0002ac20       ?FinalConstruct@COPOSMotionSensor@@QEAAJXZ 000000018002bc20 f   MotionSensorImpl.obj
 0001:0002ad10       ??1COPOSMotionSensor@@UEAA@XZ 000000018002bd10 f   MotionSensorImpl.obj
 0001:0002adf0       ?WriteTrace@COPOSMotionSensor@@QEAAXPEB_WZZ 000000018002bdf0 f   MotionSensorImpl.obj
 0001:0002aeb0       ?WriteTraceString@COPOSMotionSensor@@QEAAXPEB_WPEA_W@Z 000000018002beb0 f   MotionSensorImpl.obj
 0001:0002b2f0       ?WriteTraceString@COPOSMotionSensor@@QEAAXPEAXHHHPEB_WZZ 000000018002c2f0 f   MotionSensorImpl.obj
 0001:0002b580       ?WriteTraceError@COPOSMotionSensor@@QEAAXPEB_WK@Z 000000018002c580 f   MotionSensorImpl.obj
 0001:0002b680       ?WriteTraceMethods@COPOSMotionSensor@@QEAAXPEAJH@Z 000000018002c680 f   MotionSensorImpl.obj
 0001:0002b710       ?GetOposProp@COPOSMotionSensor@@IEAAJPEBDJPEAJJ@Z 000000018002c710 f   MotionSensorImpl.obj
 0001:0002ba30       ?SetOposProp@COPOSMotionSensor@@IEAAJPEBDJJJ@Z 000000018002ca30 f   MotionSensorImpl.obj
 0001:0002bd90       ?GetOposProp@COPOSMotionSensor@@IEAAJPEBDJPEAFJ@Z 000000018002cd90 f   MotionSensorImpl.obj
 0001:0002be30       ?SetOposProp@COPOSMotionSensor@@IEAAJPEBDJFJ@Z 000000018002ce30 f   MotionSensorImpl.obj
 0001:0002beb0       ?GetOposProp@COPOSMotionSensor@@IEAAJPEBDJPEAPEA_WJ@Z 000000018002ceb0 f   MotionSensorImpl.obj
 0001:0002c1d0       ?SetOposProp@COPOSMotionSensor@@IEAAJPEBDJPEA_WJ@Z 000000018002d1d0 f   MotionSensorImpl.obj
 0001:0002c5b0       ?DoInvoke@COPOSMotionSensor@@IEAAJPEBDJPEAVOposVariant@@IHPEAJ_N@Z 000000018002d5b0 f   MotionSensorImpl.obj
 0001:0002d100       ?SetCOFreezeEvents@COPOSMotionSensor@@IEAAXF@Z 000000018002e100 f   MotionSensorImpl.obj
 0001:0002d290       ?FreezeEvents@COPOSMotionSensor@@MEAAJH@Z 000000018002e290 f   MotionSensorImpl.obj
 0001:0002d3c0       ?OnDraw@COPOSMotionSensor@@MEAAJAEAUATL_DRAWINFO@@@Z 000000018002e3c0 f   MotionSensorImpl.obj
 0001:0002d590       ?SOProcessID@COPOSMotionSensor@@UEAAJPEAJ@Z 000000018002e590 f   MotionSensorImpl.obj
 0001:0002d5f0       ?get_OpenResult@COPOSMotionSensor@@UEAAJPEAJ@Z 000000018002e5f0 f   MotionSensorImpl.obj
 0001:0002d650       ?get_BinaryConversion@COPOSMotionSensor@@UEAAJPEAJ@Z 000000018002e650 f   MotionSensorImpl.obj
 0001:0002d6b0       ?put_BinaryConversion@COPOSMotionSensor@@UEAAJJ@Z 000000018002e6b0 f   MotionSensorImpl.obj
 0001:0002d720       ?get_CapPowerReporting@COPOSMotionSensor@@UEAAJPEAJ@Z 000000018002e720 f   MotionSensorImpl.obj
 0001:0002d780       ?get_CheckHealthText@COPOSMotionSensor@@UEAAJPEAPEA_W@Z 000000018002e780 f   MotionSensorImpl.obj
 0001:0002d7e0       ?get_Claimed@COPOSMotionSensor@@UEAAJPEAF@Z 000000018002e7e0 f   MotionSensorImpl.obj
 0001:0002d840       ?get_DeviceEnabled@COPOSMotionSensor@@UEAAJPEAF@Z 000000018002e840 f   MotionSensorImpl.obj
 0001:0002d8a0       ?put_DeviceEnabled@COPOSMotionSensor@@UEAAJF@Z 000000018002e8a0 f   MotionSensorImpl.obj
 0001:0002d900       ?get_FreezeEvents@COPOSMotionSensor@@UEAAJPEAF@Z 000000018002e900 f   MotionSensorImpl.obj
 0001:0002d960       ?put_FreezeEvents@COPOSMotionSensor@@UEAAJF@Z 000000018002e960 f   MotionSensorImpl.obj
 0001:0002da40       ?get_PowerNotify@COPOSMotionSensor@@UEAAJPEAJ@Z 000000018002ea40 f   MotionSensorImpl.obj
 0001:0002daa0       ?put_PowerNotify@COPOSMotionSensor@@UEAAJJ@Z 000000018002eaa0 f   MotionSensorImpl.obj
 0001:0002db00       ?get_PowerState@COPOSMotionSensor@@UEAAJPEAJ@Z 000000018002eb00 f   MotionSensorImpl.obj
 0001:0002db60       ?get_ResultCode@COPOSMotionSensor@@UEAAJPEAJ@Z 000000018002eb60 f   MotionSensorImpl.obj
 0001:0002dc30       ?get_ResultCodeExtended@COPOSMotionSensor@@UEAAJPEAJ@Z 000000018002ec30 f   MotionSensorImpl.obj
 0001:0002dc90       ?get_State@COPOSMotionSensor@@UEAAJPEAJ@Z 000000018002ec90 f   MotionSensorImpl.obj
 0001:0002dd20       ?get_ControlObjectDescription@COPOSMotionSensor@@UEAAJPEAPEA_W@Z 000000018002ed20 f   MotionSensorImpl.obj
 0001:0002dda0       ?get_ControlObjectVersion@COPOSMotionSensor@@UEAAJPEAJ@Z 000000018002eda0 f   MotionSensorImpl.obj
 0001:0002de00       ?get_ServiceObjectDescription@COPOSMotionSensor@@UEAAJPEAPEA_W@Z 000000018002ee00 f   MotionSensorImpl.obj
 0001:0002de60       ?get_ServiceObjectVersion@COPOSMotionSensor@@UEAAJPEAJ@Z 000000018002ee60 f   MotionSensorImpl.obj
 0001:0002dec0       ?get_DeviceDescription@COPOSMotionSensor@@UEAAJPEAPEA_W@Z 000000018002eec0 f   MotionSensorImpl.obj
 0001:0002df20       ?get_DeviceName@COPOSMotionSensor@@UEAAJPEAPEA_W@Z 000000018002ef20 f   MotionSensorImpl.obj
 0001:0002df80       ?CheckHealth@COPOSMotionSensor@@UEAAJJPEAJ@Z 000000018002ef80 f   MotionSensorImpl.obj
 0001:0002e040       ?ClaimDevice@COPOSMotionSensor@@UEAAJJPEAJ@Z 000000018002f040 f   MotionSensorImpl.obj
 0001:0002e150       ?Close@COPOSMotionSensor@@UEAAJPEAJ@Z 000000018002f150 f   MotionSensorImpl.obj
 0001:0002e260       ?DirectIO@COPOSMotionSensor@@UEAAJJPEAJPEAPEA_W0@Z 000000018002f260 f   MotionSensorImpl.obj
 0001:0002e3e0       ?Open@COPOSMotionSensor@@UEAAJPEA_WPEAJ@Z 000000018002f3e0 f   MotionSensorImpl.obj
 0001:0002f8c0       ?ReleaseDevice@COPOSMotionSensor@@UEAAJPEAJ@Z 00000001800308c0 f   MotionSensorImpl.obj
 0001:0002f970       ?get_Timeout@COPOSMotionSensor@@UEAAJPEAJ@Z 0000000180030970 f   MotionSensorImpl.obj
 0001:0002f9d0       ?put_Timeout@COPOSMotionSensor@@UEAAJJ@Z 00000001800309d0 f   MotionSensorImpl.obj
 0001:0002fa30       ?get_Motion@COPOSMotionSensor@@UEAAJPEAF@Z 0000000180030a30 f   MotionSensorImpl.obj
 0001:0002fa90       ?WaitForMotion@COPOSMotionSensor@@UEAAJJPEAJ@Z 0000000180030a90 f   MotionSensorImpl.obj
 0001:0002fb50       ?get_CapStatisticsReporting@COPOSMotionSensor@@UEAAJPEAF@Z 0000000180030b50 f   MotionSensorImpl.obj
 0001:0002fbb0       ?get_CapUpdateStatistics@COPOSMotionSensor@@UEAAJPEAF@Z 0000000180030bb0 f   MotionSensorImpl.obj
 0001:0002fc10       ?ResetStatistics@COPOSMotionSensor@@UEAAJPEA_WPEAJ@Z 0000000180030c10 f   MotionSensorImpl.obj
 0001:0002fcf0       ?RetrieveStatistics@COPOSMotionSensor@@UEAAJPEAPEA_WPEAJ@Z 0000000180030cf0 f   MotionSensorImpl.obj
 0001:0002fdd0       ?UpdateStatistics@COPOSMotionSensor@@UEAAJPEA_WPEAJ@Z 0000000180030dd0 f   MotionSensorImpl.obj
 0001:0002feb0       ?get_CapCompareFirmwareVersion@COPOSMotionSensor@@UEAAJPEAF@Z 0000000180030eb0 f   MotionSensorImpl.obj
 0001:0002ff10       ?get_CapUpdateFirmware@COPOSMotionSensor@@UEAAJPEAF@Z 0000000180030f10 f   MotionSensorImpl.obj
 0001:0002ff70       ?CompareFirmwareVersion@COPOSMotionSensor@@UEAAJPEA_WPEAJ1@Z 0000000180030f70 f   MotionSensorImpl.obj
 0001:000300b0       ?UpdateFirmware@COPOSMotionSensor@@UEAAJPEA_WPEAJ@Z 00000001800310b0 f   MotionSensorImpl.obj
 0001:00030190       ??0?$CComControl@VCOPOSMotionSensor@@V?$CWindowImpl@VCOPOSMotionSensor@@VCWindow@ATL@@V?$CWinTraits@$0FGAAAAAA@$0A@@3@@ATL@@@ATL@@QEAA@XZ 0000000180031190 f i MotionSensorImpl.obj
 0001:000301e0       ??0?$CComPtr@UIAdviseSink@@@ATL@@QEAA@XZ 00000001800311e0 f i MotionSensorImpl.obj
 0001:00030220       ??0?$CComPtr@UIDataAdviseHolder@@@ATL@@QEAA@XZ 0000000180031220 f i MotionSensorImpl.obj
 0001:00030260       ??0?$CComPtr@UIOleAdviseHolder@@@ATL@@QEAA@XZ 0000000180031260 f i MotionSensorImpl.obj
 0001:000302a0       ??0?$CComPtr@UIOleClientSite@@@ATL@@QEAA@XZ 00000001800312a0 f i MotionSensorImpl.obj
 0001:000302e0       ??0?$CComPtr@UIOleInPlaceSiteWindowless@@@ATL@@QEAA@XZ 00000001800312e0 f i MotionSensorImpl.obj
 0001:00030320       ??0?$CComPtrBase@UIAdviseSink@@@ATL@@IEAA@XZ 0000000180031320 f i MotionSensorImpl.obj
 0001:00030340       ??0?$CComPtrBase@UIDataAdviseHolder@@@ATL@@IEAA@XZ 0000000180031340 f i MotionSensorImpl.obj
 0001:00030360       ??0?$CComPtrBase@UIOleAdviseHolder@@@ATL@@IEAA@XZ 0000000180031360 f i MotionSensorImpl.obj
 0001:00030380       ??0?$CComPtrBase@UIOleClientSite@@@ATL@@IEAA@XZ 0000000180031380 f i MotionSensorImpl.obj
 0001:000303a0       ??0?$CComPtrBase@UIOleInPlaceSiteWindowless@@@ATL@@IEAA@XZ 00000001800313a0 f i MotionSensorImpl.obj
 0001:000303c0       ??0?$CComQIPtr@UIDispatch@@$1?_GUID_00020400_0000_0000_c000_000000000046@@3U__s_GUID@@B@ATL@@QEAA@XZ 00000001800313c0 f i MotionSensorImpl.obj
 0001:00030400       ??0?$CProxy_IOPOSEvents@VCOPOSMotionSensor@@@@QEAA@PEAVCOPOSMotionSensor@@@Z 0000000180031400 f i MotionSensorImpl.obj
 0001:00030470       ??0?$CWindowImpl@VCOPOSMotionSensor@@VCWindow@ATL@@V?$CWinTraits@$0FGAAAAAA@$0A@@3@@ATL@@QEAA@XZ 0000000180031470 f i MotionSensorImpl.obj
 0001:000304b0       ??0?$CWindowImplBaseT@VCWindow@ATL@@V?$CWinTraits@$0FGAAAAAA@$0A@@2@@ATL@@QEAA@XZ 00000001800314b0 f i MotionSensorImpl.obj
 0001:00030500       ??0?$CWindowImplRoot@VCWindow@ATL@@@ATL@@QEAA@XZ 0000000180031500 f i MotionSensorImpl.obj
 0001:00030570       ??0?$IConnectionPointContainerImpl@VCOPOSMotionSensor@@@ATL@@QEAA@XZ 0000000180031570 f i MotionSensorImpl.obj
 0001:000305b0       ??0?$IConnectionPointImpl@VCOPOSMotionSensor@@$1?DIID__IOPOSMotionSensorEvents@@3U_GUID@@BVCComDynamicUnkArray@ATL@@@ATL@@QEAA@XZ 00000001800315b0 f i MotionSensorImpl.obj
 0001:00030600       ??0?$IConnectionPointImpl@VCOPOSMotionSensor@@$1?IID_IPropertyNotifySink@@3U_GUID@@BVCComDynamicUnkArray@ATL@@@ATL@@QEAA@XZ 0000000180031600 f i MotionSensorImpl.obj
 0001:00030650       ??0?$IDataObjectImpl@VCOPOSMotionSensor@@@ATL@@QEAA@XZ 0000000180031650 f i MotionSensorImpl.obj
 0001:00030690       ??0?$IDispatchImpl@UIOPOSMotionSensor@@$1?IID_IOPOSMotionSensor@@3U_GUID@@B$1?LIBID_OposMotionSensor_CCO@@3U3@B$00$0A@VCComTypeInfoHolder@ATL@@@ATL@@QEAA@XZ 0000000180031690 f i MotionSensorImpl.obj
 0001:000306d0       ??0?$IObjectSafetyImpl@VCOPOSMotionSensor@@$02@ATL@@QEAA@XZ 00000001800316d0 f i MotionSensorImpl.obj
 0001:00030710       ??0?$IOleControlImpl@VCOPOSMotionSensor@@@ATL@@QEAA@XZ 0000000180031710 f i MotionSensorImpl.obj
 0001:00030750       ??0?$IOleInPlaceActiveObjectImpl@VCOPOSMotionSensor@@@ATL@@QEAA@XZ 0000000180031750 f i MotionSensorImpl.obj
 0001:00030790       ??0?$IOleInPlaceObjectWindowlessImpl@VCOPOSMotionSensor@@@ATL@@QEAA@XZ 0000000180031790 f i MotionSensorImpl.obj
 0001:000307d0       ??0?$IOleObjectImpl@VCOPOSMotionSensor@@@ATL@@QEAA@XZ 00000001800317d0 f i MotionSensorImpl.obj
 0001:00030810       ??0?$IPersistStorageImpl@VCOPOSMotionSensor@@@ATL@@QEAA@XZ 0000000180031810 f i MotionSensorImpl.obj
 0001:00030850       ??0?$IPersistStreamInitImpl@VCOPOSMotionSensor@@@ATL@@QEAA@XZ 0000000180031850 f i MotionSensorImpl.obj
 0001:00030890       ??0?$IPropertyNotifySinkCP@VCOPOSMotionSensor@@VCComDynamicUnkArray@ATL@@@ATL@@QEAA@XZ 0000000180031890 f i MotionSensorImpl.obj
 0001:000308d0       ??0?$IProvideClassInfo2Impl@$1?CLSID_OPOSMotionSensor@@3U_GUID@@B$1?DIID__IOPOSMotionSensorEvents@@3U2@B$1?LIBID_OposMotionSensor_CCO@@3U2@B$00$0A@VCComTypeInfoHolder@ATL@@@ATL@@QEAA@XZ 00000001800318d0 f i MotionSensorImpl.obj
 0001:00030910       ??0?$IQuickActivateImpl@VCOPOSMotionSensor@@@ATL@@QEAA@XZ 0000000180031910 f i MotionSensorImpl.obj
 0001:00030950       ??0?$ISpecifyPropertyPagesImpl@VCOPOSMotionSensor@@@ATL@@QEAA@XZ 0000000180031950 f i MotionSensorImpl.obj
 0001:00030990       ??0?$IViewObjectExImpl@VCOPOSMotionSensor@@@ATL@@QEAA@XZ 0000000180031990 f i MotionSensorImpl.obj
 0001:000309d0       ??0?$_ICPLocator@$1?DIID__IOPOSMotionSensorEvents@@3U_GUID@@B@ATL@@QEAA@XZ 00000001800319d0 f i MotionSensorImpl.obj
 0001:000309e0       ??0?$_ICPLocator@$1?IID_IPropertyNotifySink@@3U_GUID@@B@ATL@@QEAA@XZ 00000001800319e0 f i MotionSensorImpl.obj
 0001:000309f0       ??0CComControlBase@ATL@@QEAA@AEAPEAUHWND__@@@Z 00000001800319f0 f i MotionSensorImpl.obj
 0001:00030c10       ??0CComDynamicUnkArray@ATL@@QEAA@XZ 0000000180031c10 f i MotionSensorImpl.obj
 0001:00030c40       ??0CDynamicStdCallThunk2@ATL@@QEAA@XZ 0000000180031c40 f i MotionSensorImpl.obj
 0001:00030c60       ??0CMessageMap@ATL@@QEAA@XZ 0000000180031c60 f i MotionSensorImpl.obj
 0001:00030c70       ??0CWindow@ATL@@QEAA@PEAUHWND__@@@Z 0000000180031c70 f i MotionSensorImpl.obj
 0001:00030c90       ??0CWndProcThunk@ATL@@QEAA@XZ 0000000180031c90 f i MotionSensorImpl.obj
 0001:00030cd0       ??0IConnectionPointContainer@@QEAA@XZ 0000000180031cd0 f i MotionSensorImpl.obj
 0001:00030d10       ??0IDataObject@@QEAA@XZ    0000000180031d10 f i MotionSensorImpl.obj
 0001:00030d50       ??0IDispatch@@QEAA@XZ      0000000180031d50 f i MotionSensorImpl.obj
 0001:00030d90       ??0IOPOSMotionSensor@@QEAA@XZ 0000000180031d90 f i MotionSensorImpl.obj
 0001:00030dd0       ??0IOPOSMotionSensor_1_7@@QEAA@XZ 0000000180031dd0 f i MotionSensorImpl.obj
 0001:00030e10       ??0IOPOSMotionSensor_1_8@@QEAA@XZ 0000000180031e10 f i MotionSensorImpl.obj
 0001:00030e50       ??0IOPOSMotionSensor_1_9@@QEAA@XZ 0000000180031e50 f i MotionSensorImpl.obj
 0001:00030e90       ??0IObjectSafety@@QEAA@XZ  0000000180031e90 f i MotionSensorImpl.obj
 0001:00030ed0       ??0IOleControl@@QEAA@XZ    0000000180031ed0 f i MotionSensorImpl.obj
 0001:00030f10       ??0IOleInPlaceActiveObject@@QEAA@XZ 0000000180031f10 f i MotionSensorImpl.obj
 0001:00030f50       ??0IOleInPlaceObject@@QEAA@XZ 0000000180031f50 f i MotionSensorImpl.obj
 0001:00030f90       ??0IOleInPlaceObjectWindowless@@QEAA@XZ 0000000180031f90 f i MotionSensorImpl.obj
 0001:00030fd0       ??0IOleObject@@QEAA@XZ     0000000180031fd0 f i MotionSensorImpl.obj
 0001:00031010       ??0IOleWindow@@QEAA@XZ     0000000180032010 f i MotionSensorImpl.obj
 0001:00031050       ??0IPersist@@QEAA@XZ       0000000180032050 f i MotionSensorImpl.obj
 0001:00031090       ??0IPersistStorage@@QEAA@XZ 0000000180032090 f i MotionSensorImpl.obj
 0001:000310d0       ??0IPersistStreamInit@@QEAA@XZ 00000001800320d0 f i MotionSensorImpl.obj
 0001:00031110       ??0IProvideClassInfo2@@QEAA@XZ 0000000180032110 f i MotionSensorImpl.obj
 0001:00031150       ??0IProvideClassInfo@@QEAA@XZ 0000000180032150 f i MotionSensorImpl.obj
 0001:00031190       ??0IQuickActivate@@QEAA@XZ 0000000180032190 f i MotionSensorImpl.obj
 0001:000311d0       ??0ISpecifyPropertyPages@@QEAA@XZ 00000001800321d0 f i MotionSensorImpl.obj
 0001:00031210       ??0IViewObject2@@QEAA@XZ   0000000180032210 f i MotionSensorImpl.obj
 0001:00031250       ??0IViewObject@@QEAA@XZ    0000000180032250 f i MotionSensorImpl.obj
 0001:00031290       ??0IViewObjectEx@@QEAA@XZ  0000000180032290 f i MotionSensorImpl.obj
 0001:000312d0       ??0OposVariantResult@@QEAA@XZ 00000001800322d0 f i MotionSensorImpl.obj
 0001:00031310       ??0_CW@@QEAA@PEBD@Z        0000000180032310 f i MotionSensorImpl.obj
 0001:00031360       ??0_CW@@QEAA@PEB_W@Z       0000000180032360 f i MotionSensorImpl.obj
 0001:000313b0       ??0_CWNCC@@QEAA@PEBD@Z     00000001800323b0 f i MotionSensorImpl.obj
 0001:000313f0       ??1?$CComControl@VCOPOSMotionSensor@@V?$CWindowImpl@VCOPOSMotionSensor@@VCWindow@ATL@@V?$CWinTraits@$0FGAAAAAA@$0A@@3@@ATL@@@ATL@@UEAA@XZ 00000001800323f0 f i MotionSensorImpl.obj
 0001:00031430       ??1?$CComPtr@UIDataAdviseHolder@@@ATL@@QEAA@XZ 0000000180032430 f i MotionSensorImpl.obj
 0001:00031460       ??1?$CComPtr@UIOleAdviseHolder@@@ATL@@QEAA@XZ 0000000180032460 f i MotionSensorImpl.obj
 0001:00031490       ??1?$CComPtr@UIOleInPlaceSiteWindowless@@@ATL@@QEAA@XZ 0000000180032490 f i MotionSensorImpl.obj
 0001:000314c0       ??1?$CComPtrBase@UIDataAdviseHolder@@@ATL@@QEAA@XZ 00000001800324c0 f i MotionSensorImpl.obj
 0001:00031510       ??1?$CComPtrBase@UIOleAdviseHolder@@@ATL@@QEAA@XZ 0000000180032510 f i MotionSensorImpl.obj
 0001:00031560       ??1?$CComPtrBase@UIOleInPlaceSiteWindowless@@@ATL@@QEAA@XZ 0000000180032560 f i MotionSensorImpl.obj
 0001:000315b0       ??1?$CComQIPtr@UIDispatch@@$1?_GUID_00020400_0000_0000_c000_000000000046@@3U__s_GUID@@B@ATL@@QEAA@XZ 00000001800325b0 f i MotionSensorImpl.obj
 0001:000315e0       ??1?$CProxy_IOPOSEvents@VCOPOSMotionSensor@@@@QEAA@XZ 00000001800325e0 f i MotionSensorImpl.obj
 0001:00031610       ??1?$CWindowImpl@VCOPOSMotionSensor@@VCWindow@ATL@@V?$CWinTraits@$0FGAAAAAA@$0A@@3@@ATL@@UEAA@XZ 0000000180032610 f i MotionSensorImpl.obj
 0001:00031640       ??1?$CWindowImplBaseT@VCWindow@ATL@@V?$CWinTraits@$0FGAAAAAA@$0A@@2@@ATL@@UEAA@XZ 0000000180032640 f i MotionSensorImpl.obj
 0001:00031670       ??1?$CWindowImplRoot@VCWindow@ATL@@@ATL@@UEAA@XZ 0000000180032670 f i MotionSensorImpl.obj
 0001:00031730       ??1?$IConnectionPointImpl@VCOPOSMotionSensor@@$1?DIID__IOPOSMotionSensorEvents@@3U_GUID@@BVCComDynamicUnkArray@ATL@@@ATL@@QEAA@XZ 0000000180032730 f i MotionSensorImpl.obj
 0001:000317d0       ??1?$IConnectionPointImpl@VCOPOSMotionSensor@@$1?IID_IPropertyNotifySink@@3U_GUID@@BVCComDynamicUnkArray@ATL@@@ATL@@QEAA@XZ 00000001800327d0 f i MotionSensorImpl.obj
 0001:00031870       ??1?$IPropertyNotifySinkCP@VCOPOSMotionSensor@@VCComDynamicUnkArray@ATL@@@ATL@@QEAA@XZ 0000000180032870 f i MotionSensorImpl.obj
 0001:000318a0       ??1CComControlBase@ATL@@UEAA@XZ 00000001800328a0 f i MotionSensorImpl.obj
 0001:00031990       ??1CComDynamicUnkArray@ATL@@QEAA@XZ 0000000180032990 f i MotionSensorImpl.obj
 0001:000319d0       ??1CDynamicStdCallThunk2@ATL@@QEAA@XZ 00000001800329d0 f i MotionSensorImpl.obj
 0001:00031a10       ??1CWndProcThunk@ATL@@QEAA@XZ 0000000180032a10 f i MotionSensorImpl.obj
 0001:00031a50       ??1OposVariantResult@@QEAA@XZ 0000000180032a50 f i MotionSensorImpl.obj
 0001:00031a90       ??1_CW@@QEAA@XZ            0000000180032a90 f i MotionSensorImpl.obj
 0001:00031b10       ??1_CWNCC@@QEAA@XZ         0000000180032b10 f i MotionSensorImpl.obj
 0001:00031b40       ??B_CW@@QEAAPEB_WXZ        0000000180032b40 f i MotionSensorImpl.obj
 0001:00031b90       ??B_CWNCC@@QEAAPEA_WXZ     0000000180032b90 f i MotionSensorImpl.obj
 0001:00031bc0       ??_EOposVariant@@QEAAPEAXI@Z 0000000180032bc0 f i MotionSensorImpl.obj
 0001:00031c70       ?EventClose@COPOSMotionSensor@@IEAAXXZ 0000000180032c70 f i MotionSensorImpl.obj
 0001:00031d10       ?EventInit@COPOSMotionSensor@@IEAAJXZ 0000000180032d10 f i MotionSensorImpl.obj
 0001:00031fc0       ?EventOpen@COPOSMotionSensor@@IEAAXXZ 0000000180032fc0 f i MotionSensorImpl.obj
 0001:00032000       ?EventPreClose@COPOSMotionSensor@@IEAAXXZ 0000000180033000 f i MotionSensorImpl.obj
 0001:00032080       ?EventUninit@COPOSMotionSensor@@IEAAXXZ 0000000180033080 f i MotionSensorImpl.obj
 0001:000321b0       ?EventWindowProc@COPOSMotionSensor@@IEAA_JI_K_J@Z 00000001800331b0 f i MotionSensorImpl.obj
 0001:000322b0       ?FireEventCleanup@COPOSMotionSensor@@IEAAXXZ 00000001800332b0 f i MotionSensorImpl.obj
 0001:00032300       ?FireEventSetup@COPOSMotionSensor@@IEAA_NXZ 0000000180033300 f i MotionSensorImpl.obj
 0001:00032380       ?GetModuleInstance@CComModule@ATL@@QEAAPEAUHINSTANCE__@@XZ 0000000180033380 f i MotionSensorImpl.obj
 0001:00032390       ?SetRC@COPOSMotionSensor@@IEAAJJ@Z 0000000180033390 f i MotionSensorImpl.obj
 0001:000323b0       ?s_EventWindowProc@COPOSMotionSensor@@KA_JPEAUHWND__@@I_K_J@Z 00000001800333b0 f i MotionSensorImpl.obj
 0001:00032460       _snwprintf                 0000000180033460 f i MotionSensorImpl.obj
 0001:000324f0       _vfwprintf_l               00000001800334f0 f i MotionSensorImpl.obj
 0001:00032550       _vsnwprintf                0000000180033550 f i MotionSensorImpl.obj
 0001:000325b0       _vsnwprintf_l              00000001800335b0 f i MotionSensorImpl.obj
 0001:00032640       vfwprintf                  0000000180033640 f i MotionSensorImpl.obj
 0001:00032685       DebugBreak                 0000000180033685 f   kernel32:KERNEL32.dll
 0001:0003268b       Sleep                      000000018003368b f   kernel32:KERNEL32.dll
 0001:00032691       GetCurrentProcess          0000000180033691 f   kernel32:KERNEL32.dll
 0001:00032697       TerminateProcess           0000000180033697 f   kernel32:KERNEL32.dll
 0001:0003269d       MultiByteToWideChar        000000018003369d f   kernel32:KERNEL32.dll
 0001:000326a3       WideCharToMultiByte        00000001800336a3 f   kernel32:KERNEL32.dll
 0001:000326a9       DecodePointer              00000001800336a9 f   kernel32:KERNEL32.dll
 0001:000326af       RaiseException             00000001800336af f   kernel32:KERNEL32.dll
 0001:000326b5       GetLastError               00000001800336b5 f   kernel32:KERNEL32.dll
 0001:000326bb       SetLastError               00000001800336bb f   kernel32:KERNEL32.dll
 0001:000326c1       InitializeCriticalSectionEx 00000001800336c1 f   kernel32:KERNEL32.dll
 0001:000326c7       DeleteCriticalSection      00000001800336c7 f   kernel32:KERNEL32.dll
 0001:000326cd       EncodePointer              00000001800336cd f   kernel32:KERNEL32.dll
 0001:000326d3       EnterCriticalSection       00000001800336d3 f   kernel32:KERNEL32.dll
 0001:000326d9       LeaveCriticalSection       00000001800336d9 f   kernel32:KERNEL32.dll
 0001:000326df       ResetEvent                 00000001800336df f   kernel32:KERNEL32.dll
 0001:000326e5       ReleaseMutex               00000001800336e5 f   kernel32:KERNEL32.dll
 0001:000326eb       WaitForSingleObject        00000001800336eb f   kernel32:KERNEL32.dll
 0001:000326f1       GetCurrentThreadId         00000001800336f1 f   kernel32:KERNEL32.dll
 0001:000326f7       DisableThreadLibraryCalls  00000001800336f7 f   kernel32:KERNEL32.dll
 0001:000326fd       FreeLibrary                00000001800336fd f   kernel32:KERNEL32.dll
 0001:00032703       GetModuleFileNameW         0000000180033703 f   kernel32:KERNEL32.dll
 0001:00032709       GetModuleHandleW           0000000180033709 f   kernel32:KERNEL32.dll
 0001:0003270f       GetProcAddress             000000018003370f f   kernel32:KERNEL32.dll
 0001:00032715       LoadLibraryExW             0000000180033715 f   kernel32:KERNEL32.dll
 0001:0003271b       LoadResource               000000018003371b f   kernel32:KERNEL32.dll
 0001:00032721       SizeofResource             0000000180033721 f   kernel32:KERNEL32.dll
 0001:00032727       FindResourceW              0000000180033727 f   kernel32:KERNEL32.dll
 0001:0003272d       GlobalAlloc                000000018003372d f   kernel32:KERNEL32.dll
 0001:00032733       GlobalUnlock               0000000180033733 f   kernel32:KERNEL32.dll
 0001:00032739       GlobalLock                 0000000180033739 f   kernel32:KERNEL32.dll
 0001:0003273f       MulDiv                     000000018003373f f   kernel32:KERNEL32.dll
 0001:00032745       lstrcmpiW                  0000000180033745 f   kernel32:KERNEL32.dll
 0001:0003274b       DeleteFileW                000000018003374b f   kernel32:KERNEL32.dll
 0001:00032751       CloseHandle                0000000180033751 f   kernel32:KERNEL32.dll
 0001:00032757       SetEvent                   0000000180033757 f   kernel32:KERNEL32.dll
 0001:0003275d       CreateMutexW               000000018003375d f   kernel32:KERNEL32.dll
 0001:00032763       CreateEventW               0000000180033763 f   kernel32:KERNEL32.dll
 0001:00032769       GetCurrentProcessId        0000000180033769 f   kernel32:KERNEL32.dll
 0001:0003276f       LocalFree                  000000018003376f f   kernel32:KERNEL32.dll
 0001:00032775       FormatMessageW             0000000180033775 f   kernel32:KERNEL32.dll
 0001:0003277b       GetActiveWindow            000000018003377b f   user32:USER32.dll
 0001:00032781       MessageBoxW                0000000180033781 f   user32:USER32.dll
 0001:00032787       UnregisterClassW           0000000180033787 f   user32:USER32.dll
 0001:0003278d       PostMessageW               000000018003378d f   user32:USER32.dll
 0001:00032793       DefWindowProcW             0000000180033793 f   user32:USER32.dll
 0001:00032799       CallWindowProcW            0000000180033799 f   user32:USER32.dll
 0001:0003279f       RegisterClassExW           000000018003379f f   user32:USER32.dll
 0001:000327a5       GetClassInfoExW            00000001800337a5 f   user32:USER32.dll
 0001:000327ab       CreateWindowExW            00000001800337ab f   user32:USER32.dll
 0001:000327b1       IsWindow                   00000001800337b1 f   user32:USER32.dll
 0001:000327b7       IsChild                    00000001800337b7 f   user32:USER32.dll
 0001:000327bd       DestroyWindow              00000001800337bd f   user32:USER32.dll
 0001:000327c3       ShowWindow                 00000001800337c3 f   user32:USER32.dll
 0001:000327c9       SetWindowPos               00000001800337c9 f   user32:USER32.dll
 0001:000327cf       CharNextW                  00000001800337cf f   user32:USER32.dll
 0001:000327d5       SetFocus                   00000001800337d5 f   user32:USER32.dll
 0001:000327db       GetFocus                   00000001800337db f   user32:USER32.dll
 0001:000327e1       GetKeyState                00000001800337e1 f   user32:USER32.dll
 0001:000327e7       GetDC                      00000001800337e7 f   user32:USER32.dll
 0001:000327ed       ReleaseDC                  00000001800337ed f   user32:USER32.dll
 0001:000327f3       BeginPaint                 00000001800337f3 f   user32:USER32.dll
 0001:000327f9       EndPaint                   00000001800337f9 f   user32:USER32.dll
 0001:000327ff       SetWindowRgn               00000001800337ff f   user32:USER32.dll
 0001:00032805       InvalidateRect             0000000180033805 f   user32:USER32.dll
 0001:0003280b       GetClientRect              000000018003380b f   user32:USER32.dll
 0001:00032811       IntersectRect              0000000180033811 f   user32:USER32.dll
 0001:00032817       UnionRect                  0000000180033817 f   user32:USER32.dll
 0001:0003281d       OffsetRect                 000000018003381d f   user32:USER32.dll
 0001:00032823       EqualRect                  0000000180033823 f   user32:USER32.dll
 0001:00032829       PtInRect                   0000000180033829 f   user32:USER32.dll
 0001:0003282f       GetWindowLongPtrW          000000018003382f f   user32:USER32.dll
 0001:00032835       SetWindowLongPtrW          0000000180033835 f   user32:USER32.dll
 0001:0003283b       GetParent                  000000018003383b f   user32:USER32.dll
 0001:00032841       LoadCursorW                0000000180033841 f   user32:USER32.dll
 0001:00032847       PeekMessageW               0000000180033847 f   user32:USER32.dll
 0001:0003284d       RegisterClassW             000000018003384d f   user32:USER32.dll
 0001:00032853       LoadBitmapW                0000000180033853 f   user32:USER32.dll
 0001:00032859       CloseMetaFile              0000000180033859 f   gdi32:GDI32.dll
 0001:0003285f       CreateDCW                  000000018003385f f   gdi32:GDI32.dll
 0001:00032865       CreateMetaFileW            0000000180033865 f   gdi32:GDI32.dll
 0001:0003286b       CreateRectRgnIndirect      000000018003386b f   gdi32:GDI32.dll
 0001:00032871       DeleteDC                   0000000180033871 f   gdi32:GDI32.dll
 0001:00032877       DeleteMetaFile             0000000180033877 f   gdi32:GDI32.dll
 0001:0003287d       GetDeviceCaps              000000018003387d f   gdi32:GDI32.dll
 0001:00032883       RestoreDC                  0000000180033883 f   gdi32:GDI32.dll
 0001:00032889       SaveDC                     0000000180033889 f   gdi32:GDI32.dll
 0001:0003288f       SetMapMode                 000000018003388f f   gdi32:GDI32.dll
 0001:00032895       LPtoDP                     0000000180033895 f   gdi32:GDI32.dll
 0001:0003289b       SetViewportOrgEx           000000018003389b f   gdi32:GDI32.dll
 0001:000328a1       SetWindowExtEx             00000001800338a1 f   gdi32:GDI32.dll
 0001:000328a7       SetWindowOrgEx             00000001800338a7 f   gdi32:GDI32.dll
 0001:000328ad       BitBlt                     00000001800338ad f   gdi32:GDI32.dll
 0001:000328b3       CreateCompatibleDC         00000001800338b3 f   gdi32:GDI32.dll
 0001:000328b9       DeleteObject               00000001800338b9 f   gdi32:GDI32.dll
 0001:000328bf       SelectObject               00000001800338bf f   gdi32:GDI32.dll
 0001:000328c5       GetObjectW                 00000001800338c5 f   gdi32:GDI32.dll
 0001:000328cb       RegCloseKey                00000001800338cb f   advapi32:ADVAPI32.dll
 0001:000328d1       RegCreateKeyExW            00000001800338d1 f   advapi32:ADVAPI32.dll
 0001:000328d7       RegDeleteKeyW              00000001800338d7 f   advapi32:ADVAPI32.dll
 0001:000328dd       RegDeleteValueW            00000001800338dd f   advapi32:ADVAPI32.dll
 0001:000328e3       RegEnumKeyExW              00000001800338e3 f   advapi32:ADVAPI32.dll
 0001:000328e9       RegOpenKeyExW              00000001800338e9 f   advapi32:ADVAPI32.dll
 0001:000328ef       RegQueryInfoKeyW           00000001800338ef f   advapi32:ADVAPI32.dll
 0001:000328f5       RegSetValueExW             00000001800338f5 f   advapi32:ADVAPI32.dll
 0001:000328fb       RegQueryValueExW           00000001800338fb f   advapi32:ADVAPI32.dll
 0001:00032901       CoCreateInstance           0000000180033901 f   ole32:ole32.dll
 0001:00032907       StringFromGUID2            0000000180033907 f   ole32:ole32.dll
 0001:0003290d       CoTaskMemAlloc             000000018003390d f   ole32:ole32.dll
 0001:00032913       CoTaskMemRealloc           0000000180033913 f   ole32:ole32.dll
 0001:00032919       CoTaskMemFree              0000000180033919 f   ole32:ole32.dll
 0001:0003291f       ReadClassStm               000000018003391f f   ole32:ole32.dll
 0001:00032925       WriteClassStm              0000000180033925 f   ole32:ole32.dll
 0001:0003292b       CreateDataAdviseHolder     000000018003392b f   ole32:ole32.dll
 0001:00032931       OleSaveToStream            0000000180033931 f   ole32:ole32.dll
 0001:00032937       CreateOleAdviseHolder      0000000180033937 f   ole32:ole32.dll
 0001:0003293d       OleRegGetUserType          000000018003393d f   ole32:ole32.dll
 0001:00032943       OleRegGetMiscStatus        0000000180033943 f   ole32:ole32.dll
 0001:00032949       OleRegEnumVerbs            0000000180033949 f   ole32:ole32.dll
 0001:0003294f       CLSIDFromProgID            000000018003394f f   ole32:ole32.dll
 0001:00032955       SysAllocString             0000000180033955 f   oleaut32:OLEAUT32.dll
 0001:0003295b       SysAllocStringLen          000000018003395b f   oleaut32:OLEAUT32.dll
 0001:00032961       SysFreeString              0000000180033961 f   oleaut32:OLEAUT32.dll
 0001:00032967       SysStringLen               0000000180033967 f   oleaut32:OLEAUT32.dll
 0001:0003296d       VariantClear               000000018003396d f   oleaut32:OLEAUT32.dll
 0001:00032973       VariantCopyInd             0000000180033973 f   oleaut32:OLEAUT32.dll
 0001:00032979       VariantChangeType          0000000180033979 f   oleaut32:OLEAUT32.dll
 0001:0003297f       SysStringByteLen           000000018003397f f   oleaut32:OLEAUT32.dll
 0001:00032985       SysAllocStringByteLen      0000000180033985 f   oleaut32:OLEAUT32.dll
 0001:0003298b       VariantInit                000000018003398b f   oleaut32:OLEAUT32.dll
 0001:00032991       VarUI4FromStr              0000000180033991 f   oleaut32:OLEAUT32.dll
 0001:00032997       LoadTypeLib                0000000180033997 f   oleaut32:OLEAUT32.dll
 0001:0003299d       LoadRegTypeLib             000000018003399d f   oleaut32:OLEAUT32.dll
 0001:000329a3       RegisterTypeLib            00000001800339a3 f   oleaut32:OLEAUT32.dll
 0001:000329a9       UnRegisterTypeLib          00000001800339a9 f   oleaut32:OLEAUT32.dll
 0001:000329af       OleCreatePropertyFrame     00000001800339af f   oleaut32:OLEAUT32.dll
 0001:000329c0       _RTC_AllocaHelper          00000001800339c0 f   LIBCMTD:stack.obj
 0001:00032a00       _RTC_CheckStackVars        0000000180033a00 f   LIBCMTD:stack.obj
 0001:00032a90       _RTC_CheckStackVars2       0000000180033a90 f   LIBCMTD:stack.obj
 0001:00032ba0       _CRT_RTC_INIT              0000000180033ba0 f   LIBCMTD:init.obj
 0001:00032bb0       _CRT_RTC_INITW             0000000180033bb0 f   LIBCMTD:init.obj
 0001:00032bc0       _RTC_InitBase              0000000180033bc0 f   LIBCMTD:init.obj
 0001:00032c00       _RTC_Shutdown              0000000180033c00 f   LIBCMTD:init.obj
 0001:00032c30       __GSHandlerCheck           0000000180033c30 f   LIBCMTD:gshandler.obj
 0001:00032c70       __GSHandlerCheckCommon     0000000180033c70 f   LIBCMTD:gshandler.obj
 0001:00032d80       __security_check_cookie    0000000180033d80 f   LIBCMTD:amdsecgs.obj
 0001:00032db0       ??_U@YAPEAX_K@Z            0000000180033db0 f   LIBCMTD:new_array.obj
 0001:00032dd0       ??3@YAXPEAX_K@Z            0000000180033dd0 f   LIBCMTD:delete_scalar_size.obj
 0001:00032df0       ??_V@YAXPEAX@Z             0000000180033df0 f   LIBCMTD:delete_array.obj
 0001:00032e10       ??_V@YAXPEAX_K@Z           0000000180033e10 f   LIBCMTD:delete_array_size.obj
 0001:00032e30       ?configure_argv@__scrt_narrow_argv_policy@@SAHXZ 0000000180033e30 f i LIBCMTD:utility.obj
 0001:00032f20       ?initialize_environment@__scrt_narrow_environment_policy@@SAHXZ 0000000180033f20 f i LIBCMTD:utility.obj
 0001:00032fc0       NtCurrentTeb               0000000180033fc0 f i LIBCMTD:utility.obj
 0001:00032fd0       __scrt_acquire_startup_lock 0000000180033fd0 f   LIBCMTD:utility.obj
 0001:00033040       __scrt_dllmain_after_initialize_c 0000000180034040 f   LIBCMTD:utility.obj
 0001:00033070       __scrt_dllmain_before_initialize_c 0000000180034070 f   LIBCMTD:utility.obj
 0001:00033090       __scrt_dllmain_crt_thread_attach 0000000180034090 f   LIBCMTD:utility.obj
 0001:000330c0       __scrt_dllmain_crt_thread_detach 00000001800340c0 f   LIBCMTD:utility.obj
 0001:000330e0       __scrt_dllmain_exception_filter 00000001800340e0 f   LIBCMTD:utility.obj
 0001:00033150       __scrt_dllmain_uninitialize_c 0000000180034150 f   LIBCMTD:utility.obj
 0001:00033180       __scrt_dllmain_uninitialize_critical 0000000180034180 f   LIBCMTD:utility.obj
 0001:000331a0       __scrt_initialize_crt      00000001800341a0 f   LIBCMTD:utility.obj
 0001:000331f0       __scrt_initialize_onexit_tables 00000001800341f0 f   LIBCMTD:utility.obj
 0001:00033300       __scrt_is_nonwritable_in_current_image 0000000180034300 f   LIBCMTD:utility.obj
 0001:00033390       __scrt_release_startup_lock 0000000180034390 f   LIBCMTD:utility.obj
 0001:000333c0       __scrt_uninitialize_crt    00000001800343c0 f   LIBCMTD:utility.obj
 0001:00033400       _onexit                    0000000180034400 f   LIBCMTD:utility.obj
 0001:00033480       at_quick_exit              0000000180034480 f   LIBCMTD:utility.obj
 0001:000334d0       atexit                     00000001800344d0 f   LIBCMTD:utility.obj
 0001:00033510       ??3@YAXPEAX@Z              0000000180034510 f   LIBCMTD:delete_scalar.obj
 0001:00033530       __raise_securityfailure    0000000180034530 f   LIBCMTD:gs_report.obj
 0001:00033570       __report_gsfailure         0000000180034570 f   LIBCMTD:gs_report.obj
 0001:00033650       __report_rangecheckfailure 0000000180034650 f   LIBCMTD:gs_report.obj
 0001:00033670       __report_securityfailure   0000000180034670 f   LIBCMTD:gs_report.obj
 0001:00033710       __report_securityfailureEx 0000000180034710 f   LIBCMTD:gs_report.obj
 0001:00033ad0       _Init_thread_abort         0000000180034ad0 f   LIBCMTD:thread_safe_statics.obj
 0001:00033b00       _Init_thread_footer        0000000180034b00 f   LIBCMTD:thread_safe_statics.obj
 0001:00033b60       _Init_thread_header        0000000180034b60 f   LIBCMTD:thread_safe_statics.obj
 0001:00033bf0       _Init_thread_lock          0000000180034bf0 f   LIBCMTD:thread_safe_statics.obj
 0001:00033c10       _Init_thread_notify        0000000180034c10 f   LIBCMTD:thread_safe_statics.obj
 0001:00033c70       _Init_thread_unlock        0000000180034c70 f   LIBCMTD:thread_safe_statics.obj
 0001:00033c90       _Init_thread_wait          0000000180034c90 f   LIBCMTD:thread_safe_statics.obj
 0001:00033d40       ??2@YAPEAX_KAEBUnothrow_t@std@@@Z 0000000180034d40 f   LIBCMTD:new_scalar_nothrow.obj
 0001:00033d80       ??_U@YAPEAX_KAEBUnothrow_t@std@@@Z 0000000180034d80 f   LIBCMTD:new_array_nothrow.obj
 0001:00033db0       __GSHandlerCheck_SEH       0000000180034db0 f   LIBCMTD:gshandlerseh.obj
 0001:00033e80       _alloca_probe              0000000180034e80 f   LIBCMTD:chkstk.obj
 0001:00033e80       __chkstk                   0000000180034e80 f   LIBCMTD:chkstk.obj
 0001:000342e0       _CRT_INIT                  00000001800352e0 f   LIBCMTD:dll_dllmain.obj
 0001:00034310       _DllMainCRTStartup         0000000180035310 f   LIBCMTD:dll_dllmain.obj
 0001:000343e0       ?_RTC_AllocaFailure@@YAXPEAXPEAU_RTC_ALLOCA_NODE@@H@Z 00000001800353e0 f   LIBCMTD:error.obj
 0001:00034540       ?_RTC_Failure@@YAXPEAXH@Z  0000000180035540 f   LIBCMTD:error.obj
 0001:00034590       ?_RTC_StackFailure@@YAXPEAXPEBD@Z 0000000180035590 f   LIBCMTD:error.obj
 0001:000349c0       _RTC_UninitUse             00000001800359c0 f   LIBCMTD:error.obj
 0001:00034a90       _vsprintf_s_l              0000000180035a90 f i LIBCMTD:error.obj
 0001:00034b00       sprintf_s                  0000000180035b00 f i LIBCMTD:error.obj
 0001:00034b30       ?_RTC_GetErrorFunc@@YAP6AHHPEBDH00ZZPEBX@Z 0000000180035b30 f   LIBCMTD:userapi.obj
 0001:00034b40       ?_RTC_GetErrorFuncW@@YAP6AHHPEB_WH00ZZPEBX@Z 0000000180035b40 f   LIBCMTD:userapi.obj
 0001:00034b50       _RTC_GetErrDesc            0000000180035b50 f   LIBCMTD:userapi.obj
 0001:00034b70       _RTC_NumErrors             0000000180035b70 f   LIBCMTD:userapi.obj
 0001:00034b80       _RTC_SetErrorFunc          0000000180035b80 f   LIBCMTD:userapi.obj
 0001:00034ba0       _RTC_SetErrorFuncW         0000000180035ba0 f   LIBCMTD:userapi.obj
 0001:00034bc0       _RTC_SetErrorType          0000000180035bc0 f   LIBCMTD:userapi.obj
 0001:00034be0       ??2@YAPEAX_K@Z             0000000180035be0 f   LIBCMTD:new_scalar.obj
 0001:00034c30       __isa_available_init       0000000180035c30 f   LIBCMTD:cpu_disp.obj
 0001:00034f80       _get_startup_argv_mode     0000000180035f80 f   LIBCMTD:argv_mode.obj
 0001:00034f90       __scrt_is_ucrt_dll_in_use  0000000180035f90 f   LIBCMTD:ucrt_detection.obj
 0001:00034fc0       __crt_debugger_hook        0000000180035fc0 f   LIBCMTD:utility_desktop.obj
 0001:00034fd0       __scrt_fastfail            0000000180035fd0 f   LIBCMTD:utility_desktop.obj
 0001:00035170       __scrt_get_show_window_mode 0000000180036170 f   LIBCMTD:utility_desktop.obj
 0001:000351d0       __scrt_initialize_mta      00000001800361d0 f   LIBCMTD:utility_desktop.obj
 0001:000351e0       __scrt_initialize_winrt    00000001800361e0 f   LIBCMTD:utility_desktop.obj
 0001:000351f0       __scrt_is_managed_app      00000001800361f0 f   LIBCMTD:utility_desktop.obj
 0001:000352a0       __scrt_set_unhandled_exception_filter 00000001800362a0 f   LIBCMTD:utility_desktop.obj
 0001:000352c0       __scrt_exe_initialize_mta  00000001800362c0 f   LIBCMTD:utility_desktop.obj
 0001:000352c0       __scrt_stub_for_initialize_mta 00000001800362c0 f   LIBCMTD:utility_desktop.obj
 0001:000352d0       __scrt_unhandled_exception_filter 00000001800362d0 f   LIBCMTD:utility_desktop.obj
 0001:00035350       _guard_check_icall_nop     0000000180036350 f i LIBCMTD:guard_support.obj
 0001:00035360       ReadNoFence64              0000000180036360 f i LIBCMTD:guard_support.obj
 0001:00035380       ReadPointerNoFence         0000000180036380 f i LIBCMTD:guard_support.obj
 0001:000353a0       _guard_icall_checks_enforced 00000001800363a0 f i LIBCMTD:guard_support.obj
 0001:000353e0       _guard_rf_checks_enforced  00000001800363e0 f i LIBCMTD:guard_support.obj
 0001:000354b0       __security_init_cookie     00000001800364b0 f   LIBCMTD:gs_support.obj
 0001:00035530       ?__scrt_initialize_type_info@@YAXXZ 0000000180036530 f   LIBCMTD:tncleanup.obj
 0001:00035550       ?__scrt_uninitialize_type_info@@YAXXZ 0000000180036550 f   LIBCMTD:tncleanup.obj
 0001:00035570       __local_stdio_scanf_options 0000000180036570 f i LIBCMTD:default_local_stdio_options.obj
 0001:00035580       __scrt_initialize_default_local_stdio_options 0000000180036580 f   LIBCMTD:default_local_stdio_options.obj
 0001:000355d0       __scrt_get_dyn_tls_init_callback 00000001800365d0 f   LIBCMTD:dyn_tls_init.obj
 0001:000355e0       _RTC_Initialize            00000001800365e0 f   LIBCMTD:initsect.obj
 0001:00035630       _RTC_Terminate             0000000180036630 f   LIBCMTD:initsect.obj
 0001:00035b90       ?_RTC_GetSrcLine@@YAHPEAEPEA_WKPEAH1K@Z 0000000180036b90 f   LIBCMTD:pdblkup.obj
 0001:00035f60       ??0bad_alloc@std@@AEAA@QEBD@Z 0000000180036f60 f i LIBCMTD:throw_bad_alloc.obj
 0001:00035fa0       ??0bad_alloc@std@@QEAA@AEBV01@@Z 0000000180036fa0 f i LIBCMTD:throw_bad_alloc.obj
 0001:00035fe0       ??0bad_alloc@std@@QEAA@XZ  0000000180036fe0 f i LIBCMTD:throw_bad_alloc.obj
 0001:00036020       ??0bad_array_new_length@std@@QEAA@AEBV01@@Z 0000000180037020 f i LIBCMTD:throw_bad_alloc.obj
 0001:00036060       ??0bad_array_new_length@std@@QEAA@XZ 0000000180037060 f i LIBCMTD:throw_bad_alloc.obj
 0001:000360a0       ??0exception@std@@QEAA@AEBV01@@Z 00000001800370a0 f i LIBCMTD:throw_bad_alloc.obj
 0001:00036100       ??0exception@std@@QEAA@QEBDH@Z 0000000180037100 f i LIBCMTD:throw_bad_alloc.obj
 0001:00036150       ??1bad_alloc@std@@UEAA@XZ  0000000180037150 f i LIBCMTD:throw_bad_alloc.obj
 0001:00036170       ??1bad_array_new_length@std@@UEAA@XZ 0000000180037170 f i LIBCMTD:throw_bad_alloc.obj
 0001:00036190       ??1exception@std@@UEAA@XZ  0000000180037190 f i LIBCMTD:throw_bad_alloc.obj
 0001:000361c0       ??_Ebad_alloc@std@@UEAAPEAXI@Z 00000001800371c0 f i LIBCMTD:throw_bad_alloc.obj
 0001:000361c0       ??_Gbad_alloc@std@@UEAAPEAXI@Z 00000001800371c0 f i LIBCMTD:throw_bad_alloc.obj
 0001:00036200       ??_Ebad_array_new_length@std@@UEAAPEAXI@Z 0000000180037200 f i LIBCMTD:throw_bad_alloc.obj
 0001:00036200       ??_Gbad_array_new_length@std@@UEAAPEAXI@Z 0000000180037200 f i LIBCMTD:throw_bad_alloc.obj
 0001:00036240       ??_Gexception@std@@UEAAPEAXI@Z 0000000180037240 f i LIBCMTD:throw_bad_alloc.obj
 0001:00036240       ??_Eexception@std@@UEAAPEAXI@Z 0000000180037240 f i LIBCMTD:throw_bad_alloc.obj
 0001:00036280       ?__scrt_throw_std_bad_alloc@@YAXXZ 0000000180037280 f   LIBCMTD:throw_bad_alloc.obj
 0001:000362b0       ?__scrt_throw_std_bad_array_new_length@@YAXXZ 00000001800372b0 f   LIBCMTD:throw_bad_alloc.obj
 0001:000362e0       ?what@exception@std@@UEBAPEBDXZ 00000001800372e0 f i LIBCMTD:throw_bad_alloc.obj
 0001:00036320       ??1type_info@@UEAA@XZ      0000000180037320 f   LIBCMTD:std_type_info_static.obj
 0001:00036340       ??_Etype_info@@UEAAPEAXI@Z 0000000180037340 f i LIBCMTD:std_type_info_static.obj
 0001:00036340       ??_Gtype_info@@UEAAPEAXI@Z 0000000180037340 f i LIBCMTD:std_type_info_static.obj
 0001:0003637c       ??$?2PEAUHINSTANCE__@@@Wrapper@?$CSimpleArray@PEAUHINSTANCE__@@V?$CSimpleArrayEqualHelper@PEAUHINSTANCE__@@@ATL@@@ATL@@SAPEAX_KPEAPEAUHINSTANCE__@@@Z 000000018003737c f i atls:atlbase.obj
 0001:00036380       ??0?$CSimpleArray@PEAUHINSTANCE__@@V?$CSimpleArrayEqualHelper@PEAUHINSTANCE__@@@ATL@@@ATL@@QEAA@XZ 0000000180037380 f i atls:atlbase.obj
 0001:00036390       ??0CAtlBaseModule@ATL@@QEAA@XZ 0000000180037390 f   atls:atlbase.obj
 0001:00036438       ??0Wrapper@?$CSimpleArray@PEAUHINSTANCE__@@V?$CSimpleArrayEqualHelper@PEAUHINSTANCE__@@@ATL@@@ATL@@QEAA@AEBQEAUHINSTANCE__@@@Z 0000000180037438 f i atls:atlbase.obj
 0001:00036444       ??0_ATL_BASE_MODULE70@ATL@@QEAA@XZ 0000000180037444 f i atls:atlbase.obj
 0001:00036470       ??1?$CSimpleArray@PEAUHINSTANCE__@@V?$CSimpleArrayEqualHelper@PEAUHINSTANCE__@@@ATL@@@ATL@@QEAA@XZ 0000000180037470 f i atls:atlbase.obj
 0001:00036498       ??1CAtlBaseModule@ATL@@QEAA@XZ 0000000180037498 f   atls:atlbase.obj
 0001:000364cc       ??1_ATL_BASE_MODULE70@ATL@@QEAA@XZ 00000001800374cc f i atls:atlbase.obj
 0001:000364f8       ??A?$CSimpleArray@PEAUHINSTANCE__@@V?$CSimpleArrayEqualHelper@PEAUHINSTANCE__@@@ATL@@@ATL@@QEAAAEAPEAUHINSTANCE__@@H@Z 00000001800374f8 f i atls:atlbase.obj
 0001:00036524       ?Add@?$CSimpleArray@PEAUHINSTANCE__@@V?$CSimpleArrayEqualHelper@PEAUHINSTANCE__@@@ATL@@@ATL@@QEAAHAEBQEAUHINSTANCE__@@@Z 0000000180037524 f i atls:atlbase.obj
 0001:000365d8       ?AddResourceInstance@CAtlBaseModule@ATL@@QEAA_NPEAUHINSTANCE__@@@Z 00000001800375d8 f   atls:atlbase.obj
 0001:00036620       ?GetHInstanceAt@CAtlBaseModule@ATL@@QEAAPEAUHINSTANCE__@@H@Z 0000000180037620 f   atls:atlbase.obj
 0001:00036698       ?GetSize@?$CSimpleArray@PEAUHINSTANCE__@@V?$CSimpleArrayEqualHelper@PEAUHINSTANCE__@@@ATL@@@ATL@@QEBAHXZ 0000000180037698 f i atls:atlbase.obj
 0001:0003669c       ?InternalSetAtIndex@?$CSimpleArray@PEAUHINSTANCE__@@V?$CSimpleArrayEqualHelper@PEAUHINSTANCE__@@@ATL@@@ATL@@QEAAXHAEBQEAUHINSTANCE__@@@Z 000000018003769c f i atls:atlbase.obj
 0001:000366b4       ?RemoveAll@?$CSimpleArray@PEAUHINSTANCE__@@V?$CSimpleArrayEqualHelper@PEAUHINSTANCE__@@@ATL@@@ATL@@QEAAXXZ 00000001800376b4 f i atls:atlbase.obj
 0001:000366dc       ?RemoveAt@?$CSimpleArray@PEAUHINSTANCE__@@V?$CSimpleArrayEqualHelper@PEAUHINSTANCE__@@@ATL@@@ATL@@QEAAHH@Z 00000001800376dc f i atls:atlbase.obj
 0001:00036780       ?RemoveResourceInstance@CAtlBaseModule@ATL@@QEAA_NPEAUHINSTANCE__@@@Z 0000000180037780 f   atls:atlbase.obj
 0001:00036800       ?memmove_s@Checked@ATL@@YAXPEAX_KPEBX1@Z 0000000180037800 f i atls:atlbase.obj
 0001:00036ca8       ?GetCodeAddress@_stdcallthunk@ATL@@QEAAPEAXXZ 0000000180037ca8 f i atls:atlthunk.obj
 0001:00036cd4       ?Init@_stdcallthunk@ATL@@QEAAH_KPEAX@Z 0000000180037cd4 f i atls:atlthunk.obj
 0001:00036d24       ?__AllocStdCallThunk@@YAPEAXXZ 0000000180037d24 f   atls:atlthunk.obj
 0001:00036d2c       ?__AllocStdCallThunk@ATL@@YAPEAXXZ 0000000180037d2c f   atls:atlthunk.obj
 0001:00036d34       ?__AllocStdCallThunk_cmn@@YAPEAXXZ 0000000180037d34 f   atls:atlthunk.obj
 0001:00036e0c       ?__FreeStdCallThunk@@YAXPEAX@Z 0000000180037e0c f   atls:atlthunk.obj
 0001:00036e2c       ?__FreeStdCallThunk@ATL@@YAXPEAX@Z 0000000180037e2c f   atls:atlthunk.obj
 0001:00036e4c       ?__FreeStdCallThunk_cmn@@YAXPEAX@Z 0000000180037e4c f   atls:atlthunk.obj
 0001:00036eec       AtlThunk_AllocateData      0000000180037eec f   atls:atlthunk.obj
 0001:00036f68       AtlThunk_DataToCode        0000000180037f68 f   atls:atlthunk.obj
 0001:00036fbc       AtlThunk_FreeData          0000000180037fbc f   atls:atlthunk.obj
 0001:0003701c       AtlThunk_InitData          000000018003801c f   atls:atlthunk.obj
 0001:000370e0       memset_repmovs             00000001800380e0 f   libvcruntimed:memset.obj
 0001:00037100       memset                     0000000180038100 f   libvcruntimed:memset.obj
 0001:00037290       ??$__crt_interlocked_exchange_pointer@$$A6AXXZP6AXXZ@@YAP6AXXZPEDS6AXXZQ6AXXZ@Z 0000000180038290 f i libvcruntimed:purevirt.obj
 0001:000372b0       ??$__crt_interlocked_read_pointer@$$A6AXXZ@@YAP6AXXZPEDS6AXXZ@Z 00000001800382b0 f i libvcruntimed:purevirt.obj
 0001:000372d0       ?__crt_interlocked_read_64@@YA_JPED_J@Z 00000001800382d0 f i libvcruntimed:purevirt.obj
 0001:000372f0       _get_purecall_handler      00000001800382f0 f   libvcruntimed:purevirt.obj
 0001:00037310       _purecall                  0000000180038310 f   libvcruntimed:purevirt.obj
 0001:00037350       _set_purecall_handler      0000000180038350 f   libvcruntimed:purevirt.obj
 0001:00037380       memcmp                     0000000180038380 f   libvcruntimed:memcmp.obj
 0001:00037460       memcpy_repmovs             0000000180038460 f   libvcruntimed:memcpy.obj
 0001:00037480       memcpy                     0000000180038480 f   libvcruntimed:memcpy.obj
 0001:00037480       memmove                    0000000180038480 f   libvcruntimed:memcpy.obj
 0001:00037860       wcsstr                     0000000180038860 f   libvcruntimed:wcsstr.obj
 0001:00037ec0       __vcrt_initialize          0000000180038ec0 f   libvcruntimed:initialization.obj
 0001:00037f00       __vcrt_thread_attach       0000000180038f00 f   libvcruntimed:initialization.obj
 0001:00037f20       __vcrt_thread_detach       0000000180038f20 f   libvcruntimed:initialization.obj
 0001:00037f40       __vcrt_uninitialize        0000000180038f40 f   libvcruntimed:initialization.obj
 0001:00037f60       __vcrt_uninitialize_critical 0000000180038f60 f   libvcruntimed:initialization.obj
 0001:00037f80       __C_specific_handler       0000000180038f80 f   libvcruntimed:riscchandler.obj
 0001:000383f0       ??$?0AEAViterator@TryBlockMap4@FH4@@AEAV012@$0A@@?$pair@Viterator@TryBlockMap4@FH4@@V123@@std@@QEAA@AEAViterator@TryBlockMap4@FH4@@0@Z 00000001800393f0 f i libvcruntimed:risctrnsctrl.obj
 0001:00038450       ??$?0AEAViterator@TryBlockMap@__FrameHandler3@@AEAV012@$0A@@?$pair@Viterator@TryBlockMap@__FrameHandler3@@V123@@std@@QEAA@AEAViterator@TryBlockMap@__FrameHandler3@@0@Z 0000000180039450 f i libvcruntimed:risctrnsctrl.obj
 0001:00038610       ??$_CallSETranslator@V__FrameHandler3@@@@YAHPEAUEHExceptionRecord@@PEA_KPEAU_CONTEXT@@PEAU_xDISPATCHER_CONTEXT@@PEBU_s_FuncInfo@@K1@Z 0000000180039610 f i libvcruntimed:risctrnsctrl.obj
 0001:000386a0       ??$_CallSETranslator@V__FrameHandler4@@@@YAHPEAUEHExceptionRecord@@PEA_KPEAU_CONTEXT@@PEAU_xDISPATCHER_CONTEXT@@PEAUFuncInfo4@FH4@@K1@Z 00000001800396a0 f i libvcruntimed:risctrnsctrl.obj
 0001:00038730       ??$forward@AEAViterator@TryBlockMap4@FH4@@@std@@YAAEAViterator@TryBlockMap4@FH4@@AEAV123@@Z 0000000180039730 f i libvcruntimed:risctrnsctrl.obj
 0001:00038740       ??$forward@AEAViterator@TryBlockMap@__FrameHandler3@@@std@@YAAEAViterator@TryBlockMap@__FrameHandler3@@AEAV123@@Z 0000000180039740 f i libvcruntimed:risctrnsctrl.obj
 0001:00038750       ??0FuncInfo4@FH4@@QEAA@XZ  0000000180039750 f i libvcruntimed:risctrnsctrl.obj
 0001:000387c0       ??0FuncInfoHeader@FH4@@QEAA@XZ 00000001800397c0 f i libvcruntimed:risctrnsctrl.obj
 0001:000387e0       ??0iterator@TryBlockMap4@FH4@@QEAA@AEAV12@I@Z 00000001800397e0 f i libvcruntimed:risctrnsctrl.obj
 0001:00038810       ??0iterator@TryBlockMap@__FrameHandler3@@QEAA@AEAV12@I@Z 0000000180039810 f i libvcruntimed:risctrnsctrl.obj
 0001:00038840       ??4iterator@TryBlockMap4@FH4@@QEAAAEAV012@AEBV012@@Z 0000000180039840 f i libvcruntimed:risctrnsctrl.obj
 0001:00038860       ??9iterator@TryBlockMap4@FH4@@QEBA_NAEBV012@@Z 0000000180039860 f i libvcruntimed:risctrnsctrl.obj
 0001:000388a0       ??Diterator@TryBlockMap4@FH4@@QEAA?AUTryBlockMapEntry4@2@XZ 00000001800398a0 f i libvcruntimed:risctrnsctrl.obj
 0001:000388d0       ??Eiterator@TryBlockMap4@FH4@@QEAAAEAV012@XZ 00000001800398d0 f i libvcruntimed:risctrnsctrl.obj
 0001:00038910       ?CatchTryBlock@__FrameHandler3@@SAPEBU_s_TryBlockMapEntry@@PEBU_s_FuncInfo@@H@Z 0000000180039910 f   libvcruntimed:risctrnsctrl.obj
 0001:000389a0       ?DecompFuncInfo@FH4@@YA_JPEAEAEAUFuncInfo4@1@_KH@Z 00000001800399a0 f i libvcruntimed:risctrnsctrl.obj
 0001:000389e0       ?DecompFuncInfo@FH4@@YA_JPEAEAEAUFuncInfo4@1@_KH_N@Z 00000001800399e0 f i libvcruntimed:risctrnsctrl.obj
 0001:00038bb0       ?DecompTryBlock@TryBlockMap4@FH4@@AEAAXXZ 0000000180039bb0 f i libvcruntimed:risctrnsctrl.obj
 0001:00038c30       ?ExecutionInCatch@__FrameHandler3@@SA_NPEAU_xDISPATCHER_CONTEXT@@PEBU_s_FuncInfo@@@Z 0000000180039c30 f   libvcruntimed:risctrnsctrl.obj
 0001:00038c80       ?ExecutionInCatch@__FrameHandler4@@SA_NPEAU_xDISPATCHER_CONTEXT@@PEAUFuncInfo4@FH4@@@Z 0000000180039c80 f   libvcruntimed:risctrnsctrl.obj
 0001:00038ca0       ?FrameUnwindToEmptyState@__FrameHandler3@@SAXPEA_KPEAU_xDISPATCHER_CONTEXT@@PEBU_s_FuncInfo@@@Z 0000000180039ca0 f   libvcruntimed:risctrnsctrl.obj
 0001:00038d40       ?FrameUnwindToEmptyState@__FrameHandler4@@SAXPEA_KPEAU_xDISPATCHER_CONTEXT@@PEAUFuncInfo4@FH4@@@Z 0000000180039d40 f   libvcruntimed:risctrnsctrl.obj
 0001:00038d90       ?GetEstablisherFrame@__FrameHandler3@@SAPEA_KPEA_KPEAU_xDISPATCHER_CONTEXT@@PEBU_s_FuncInfo@@0@Z 0000000180039d90 f   libvcruntimed:risctrnsctrl.obj
 0001:00038f00       ?GetEstablisherFrame@__FrameHandler4@@SAPEA_KPEA_KPEAU_xDISPATCHER_CONTEXT@@PEAUFuncInfo4@FH4@@0@Z 0000000180039f00 f   libvcruntimed:risctrnsctrl.obj
 0001:00038f70       ?GetRangeOfTrysToCheck@__FrameHandler3@@SA?AU?$pair@Viterator@TryBlockMap@__FrameHandler3@@V123@@std@@AEAVTryBlockMap@1@HPEAU_xDISPATCHER_CONTEXT@@PEBU_s_FuncInfo@@H@Z 0000000180039f70 f   libvcruntimed:risctrnsctrl.obj
 0001:000391b0       ?GetRangeOfTrysToCheck@__FrameHandler4@@SA?AU?$pair@Viterator@TryBlockMap4@FH4@@V123@@std@@AEAVTryBlockMap4@FH4@@HPEAU_xDISPATCHER_CONTEXT@@PEAUFuncInfo4@5@H@Z 000000018003a1b0 f   libvcruntimed:risctrnsctrl.obj
 0001:00039360       ?ReadInt@FH4@@YAHPEAPEAE@Z 000000018003a360 f i libvcruntimed:risctrnsctrl.obj
 0001:000393a0       ?ReadUnsigned@FH4@@YAIPEAPEAE@Z 000000018003a3a0 f i libvcruntimed:risctrnsctrl.obj
 0001:00039430       ?UnwindNestedFrames@__FrameHandler3@@SAXPEA_KPEAUEHExceptionRecord@@PEAU_CONTEXT@@0PEAXPEBU_s_FuncInfo@@HHPEBU_s_HandlerType@@PEAU_xDISPATCHER_CONTEXT@@E@Z 000000018003a430 f   libvcruntimed:risctrnsctrl.obj
 0001:000395a0       ?UnwindNestedFrames@__FrameHandler4@@SAXPEA_KPEAUEHExceptionRecord@@PEAU_CONTEXT@@0PEAXPEAUFuncInfo4@FH4@@HHPEAUHandlerType4@5@PEAU_xDISPATCHER_CONTEXT@@E@Z 000000018003a5a0 f   libvcruntimed:risctrnsctrl.obj
 0001:00039770       ?begin@TryBlockMap4@FH4@@QEAA?AViterator@12@XZ 000000018003a770 f i libvcruntimed:risctrnsctrl.obj
 0001:000397a0       ?end@TryBlockMap4@FH4@@QEAA?AViterator@12@XZ 000000018003a7a0 f i libvcruntimed:risctrnsctrl.obj
 0001:000397d0       ?imageRelToByteBuffer@FH4@@YAPEAE_KH@Z 000000018003a7d0 f i libvcruntimed:risctrnsctrl.obj
 0001:000397f0       ?incrementToSentinel@iterator@TryBlockMap4@FH4@@QEAAXXZ 000000018003a7f0 f i libvcruntimed:risctrnsctrl.obj
 0001:00039810       ?setBuffer@TryBlockMap4@FH4@@QEAAXViterator@12@@Z 000000018003a810 f i libvcruntimed:risctrnsctrl.obj
 0001:00039880       _CreateFrameInfo           000000018003a880 f   libvcruntimed:risctrnsctrl.obj
 0001:000398f0       _FindAndUnlinkFrame        000000018003a8f0 f   libvcruntimed:risctrnsctrl.obj
 0001:00039980       _GetImageBase              000000018003a980 f   libvcruntimed:risctrnsctrl.obj
 0001:000399a0       _GetThrowImageBase         000000018003a9a0 f   libvcruntimed:risctrnsctrl.obj
 0001:000399c0       _SetImageBase              000000018003a9c0 f   libvcruntimed:risctrnsctrl.obj
 0001:000399e0       _SetThrowImageBase         000000018003a9e0 f   libvcruntimed:risctrnsctrl.obj
 0001:00039a00       __CxxFrameHandler          000000018003aa00 f   libvcruntimed:risctrnsctrl.obj
 0001:00039a40       __CxxFrameHandler2         000000018003aa40 f   libvcruntimed:risctrnsctrl.obj
 0001:00039a80       __CxxFrameHandler3         000000018003aa80 f   libvcruntimed:risctrnsctrl.obj
 0001:00039b60       __CxxFrameHandler4         000000018003ab60 f   libvcruntimed:risctrnsctrl.obj
 0001:00039c70       __C_specific_handler_noexcept 000000018003ac70 f   libvcruntimed:chandler_noexcept.obj
 0001:00039ce0       ?<lambda_invoker_cdecl>@_Closure_wrapper_b75ec0ea_1@@CAPEAX_K@Z 000000018003ace0 f i libvcruntimed:std_type_info.obj
 0001:00039d00       ?<lambda_invoker_cdecl>@_Closure_wrapper_b75ec0ea_2@@CAXQEAX@Z 000000018003ad00 f i libvcruntimed:std_type_info.obj
 0001:00039d20       ??$?RD@__crt_internal_free_policy@@QEBAXQEBD@Z 000000018003ad20 f i libvcruntimed:std_type_info.obj
 0001:00039d50       ??$?RX@__crt_internal_free_policy@@QEBAXQEBX@Z 000000018003ad50 f i libvcruntimed:std_type_info.obj
 0001:00039d80       ??$__crt_interlocked_compare_exchange_pointer@$$CBDPEAD$$T@@YAPEBDPEDSEBDQEAD$$T@Z 000000018003ad80 f i libvcruntimed:std_type_info.obj
 0001:00039dc0       ??$__crt_interlocked_read_pointer@$$CBD@@YAPEBDPEDSEBD@Z 000000018003adc0 f i libvcruntimed:std_type_info.obj
 0001:00039de0       ??0?$__crt_unique_heap_ptr@DU__crt_internal_free_policy@@@@QEAA@QEAD@Z 000000018003ade0 f i libvcruntimed:std_type_info.obj
 0001:00039e00       ??0?$__crt_unique_heap_ptr@XU__crt_internal_free_policy@@@@QEAA@QEAX@Z 000000018003ae00 f i libvcruntimed:std_type_info.obj
 0001:00039e20       ??1?$__crt_unique_heap_ptr@DU__crt_internal_free_policy@@@@QEAA@XZ 000000018003ae20 f i libvcruntimed:std_type_info.obj
 0001:00039e40       ??1?$__crt_unique_heap_ptr@XU__crt_internal_free_policy@@@@QEAA@XZ 000000018003ae40 f i libvcruntimed:std_type_info.obj
 0001:00039e60       ??B?$__crt_unique_heap_ptr@DU__crt_internal_free_policy@@@@QEBA_NXZ 000000018003ae60 f i libvcruntimed:std_type_info.obj
 0001:00039e80       ??B?$__crt_unique_heap_ptr@XU__crt_internal_free_policy@@@@QEBA_NXZ 000000018003ae80 f i libvcruntimed:std_type_info.obj
 0001:00039ea0       ??B_Closure_wrapper_b75ec0ea_1@@QEBAP6APEAX_K@ZXZ 000000018003aea0 f i libvcruntimed:std_type_info.obj
 0001:00039eb0       ??B_Closure_wrapper_b75ec0ea_2@@QEBAP6AXQEAX@ZXZ 000000018003aeb0 f i libvcruntimed:std_type_info.obj
 0001:00039f20       ?detach@?$__crt_unique_heap_ptr@XU__crt_internal_free_policy@@@@QEAAPEAXXZ 000000018003af20 f i libvcruntimed:std_type_info.obj
 0001:00039f50       ?get@?$__crt_unique_heap_ptr@DU__crt_internal_free_policy@@@@QEBAPEADXZ 000000018003af50 f i libvcruntimed:std_type_info.obj
 0001:00039f60       ?get@?$__crt_unique_heap_ptr@XU__crt_internal_free_policy@@@@QEBAPEAXXZ 000000018003af60 f i libvcruntimed:std_type_info.obj
 0001:00039f70       ?is_valid@?$__crt_unique_heap_ptr@DU__crt_internal_free_policy@@@@QEBA_NXZ 000000018003af70 f i libvcruntimed:std_type_info.obj
 0001:00039fa0       ?is_valid@?$__crt_unique_heap_ptr@XU__crt_internal_free_policy@@@@QEBA_NXZ 000000018003afa0 f i libvcruntimed:std_type_info.obj
 0001:00039fd0       ?release@?$__crt_unique_heap_ptr@DU__crt_internal_free_policy@@@@QEAAXXZ 000000018003afd0 f i libvcruntimed:std_type_info.obj
 0001:0003a000       ?release@?$__crt_unique_heap_ptr@XU__crt_internal_free_policy@@@@QEAAXXZ 000000018003b000 f i libvcruntimed:std_type_info.obj
 0001:0003a030       __std_type_info_compare    000000018003b030 f   libvcruntimed:std_type_info.obj
 0001:0003a070       __std_type_info_destroy_list 000000018003b070 f   libvcruntimed:std_type_info.obj
 0001:0003a0d0       __std_type_info_hash       000000018003b0d0 f   libvcruntimed:std_type_info.obj
 0001:0003a180       __std_type_info_name       000000018003b180 f   libvcruntimed:std_type_info.obj
 0001:0003a430       __vcrt_GetModuleFileNameW  000000018003b430 f   libvcruntimed:winapi_thunks.obj
 0001:0003a460       __vcrt_GetModuleHandleW    000000018003b460 f   libvcruntimed:winapi_thunks.obj
 0001:0003a480       __vcrt_LoadLibraryExW      000000018003b480 f   libvcruntimed:winapi_thunks.obj
 0001:0003a4b0       ??$?RD@__crt_public_free_policy@@QEBAXQEBD@Z 000000018003b4b0 f i libvcruntimed:std_exception.obj
 0001:0003a4d0       ??0?$__crt_unique_heap_ptr@DU__crt_public_free_policy@@@@QEAA@QEAD@Z 000000018003b4d0 f i libvcruntimed:std_exception.obj
 0001:0003a4f0       ??1?$__crt_unique_heap_ptr@DU__crt_public_free_policy@@@@QEAA@XZ 000000018003b4f0 f i libvcruntimed:std_exception.obj
 0001:0003a510       ??B?$__crt_unique_heap_ptr@DU__crt_public_free_policy@@@@QEBA_NXZ 000000018003b510 f i libvcruntimed:std_exception.obj
 0001:0003a530       ?detach@?$__crt_unique_heap_ptr@DU__crt_public_free_policy@@@@QEAAPEADXZ 000000018003b530 f i libvcruntimed:std_exception.obj
 0001:0003a560       ?get@?$__crt_unique_heap_ptr@DU__crt_public_free_policy@@@@QEBAPEADXZ 000000018003b560 f i libvcruntimed:std_exception.obj
 0001:0003a570       ?is_valid@?$__crt_unique_heap_ptr@DU__crt_public_free_policy@@@@QEBA_NXZ 000000018003b570 f i libvcruntimed:std_exception.obj
 0001:0003a5a0       ?release@?$__crt_unique_heap_ptr@DU__crt_public_free_policy@@@@QEAAXXZ 000000018003b5a0 f i libvcruntimed:std_exception.obj
 0001:0003a5d0       __std_exception_copy       000000018003b5d0 f   libvcruntimed:std_exception.obj
 0001:0003a710       __std_exception_destroy    000000018003b710 f   libvcruntimed:std_exception.obj
 0001:0003a750       _CxxThrowException         000000018003b750 f   libvcruntimed:throw.obj
 0001:0003a8a0       ??$?RU__vcrt_ptd@@@__crt_internal_free_policy@@QEBAXQEBU__vcrt_ptd@@@Z 000000018003b8a0 f i libvcruntimed:per_thread_data.obj
 0001:0003a8d0       ??0?$__crt_unique_heap_ptr@U__vcrt_ptd@@U__crt_internal_free_policy@@@@QEAA@QEAU__vcrt_ptd@@@Z 000000018003b8d0 f i libvcruntimed:per_thread_data.obj
 0001:0003a910       ??1?$__crt_unique_heap_ptr@U__vcrt_ptd@@U__crt_internal_free_policy@@@@QEAA@XZ 000000018003b910 f i libvcruntimed:per_thread_data.obj
 0001:0003a950       ??B?$__crt_unique_heap_ptr@U__vcrt_ptd@@U__crt_internal_free_policy@@@@QEBA_NXZ 000000018003b950 f i libvcruntimed:per_thread_data.obj
 0001:0003a970       ?detach@?$__crt_unique_heap_ptr@U__vcrt_ptd@@U__crt_internal_free_policy@@@@QEAAPEAU__vcrt_ptd@@XZ 000000018003b970 f i libvcruntimed:per_thread_data.obj
 0001:0003a9a0       ?get@?$__crt_unique_heap_ptr@U__vcrt_ptd@@U__crt_internal_free_policy@@@@QEBAPEAU__vcrt_ptd@@XZ 000000018003b9a0 f i libvcruntimed:per_thread_data.obj
 0001:0003a9b0       ?is_valid@?$__crt_unique_heap_ptr@U__vcrt_ptd@@U__crt_internal_free_policy@@@@QEBA_NXZ 000000018003b9b0 f i libvcruntimed:per_thread_data.obj
 0001:0003a9e0       ?release@?$__crt_unique_heap_ptr@U__vcrt_ptd@@U__crt_internal_free_policy@@@@QEAAXXZ 000000018003b9e0 f i libvcruntimed:per_thread_data.obj
 0001:0003aa50       __vcrt_freefls             000000018003ba50 f   libvcruntimed:per_thread_data.obj
 0001:0003aa90       __vcrt_freeptd             000000018003ba90 f   libvcruntimed:per_thread_data.obj
 0001:0003aaf0       __vcrt_getptd              000000018003baf0 f   libvcruntimed:per_thread_data.obj
 0001:0003ab20       __vcrt_getptd_noexit       000000018003bb20 f   libvcruntimed:per_thread_data.obj
 0001:0003acc0       __vcrt_getptd_noinit       000000018003bcc0 f   libvcruntimed:per_thread_data.obj
 0001:0003ad20       __vcrt_initialize_ptd      000000018003bd20 f   libvcruntimed:per_thread_data.obj
 0001:0003ad70       __vcrt_uninitialize_ptd    000000018003bd70 f   libvcruntimed:per_thread_data.obj
 0001:0003ada0       __vcrt_initialize_locks    000000018003bda0 f   libvcruntimed:locks.obj
 0001:0003ae10       __vcrt_lock                000000018003be10 f   libvcruntimed:locks.obj
 0001:0003ae40       __vcrt_uninitialize_locks  000000018003be40 f   libvcruntimed:locks.obj
 0001:0003aea0       __vcrt_unlock              000000018003bea0 f   libvcruntimed:locks.obj
 0001:0003aee0       _NLG_Notify                000000018003bee0 f   libvcruntimed:notify.obj
 0001:0003af00       __NLG_Dispatch2            000000018003bf00 f   libvcruntimed:notify.obj
 0001:0003af10       __NLG_Return2              000000018003bf10 f   libvcruntimed:notify.obj
 0001:0003af30       __except_validate_context_record 000000018003bf30 f   libvcruntimed:jbcxrval.obj
 0001:0003af90       __except_validate_jump_buffer 000000018003bf90 f   libvcruntimed:jbcxrval.obj
 0001:0003afb0       __except_validate_jump_buffer_common 000000018003bfb0 f i libvcruntimed:jbcxrval.obj
 0001:0003b030       __DestructExceptionObject  000000018003c030 f   libvcruntimed:ehhelpers.obj
 0001:0003b130       ?_CallMemberFunction0@@YAXQEAX0@Z 000000018003c130 f i libvcruntimed:ehhelpers.obj
 0001:0003b160       ?raw_name@type_info@@QEBAPEBDXZ 000000018003c160 f i libvcruntimed:ehhelpers.obj
 0001:0003b170       _IsExceptionObjectToBeDestroyed 000000018003c170 f   libvcruntimed:ehhelpers.obj
 0001:0003b1c0       _SetWinRTOutOfMemoryExceptionCallback 000000018003c1c0 f   libvcruntimed:ehhelpers.obj
 0001:0003b1e0       __AdjustPointer            000000018003c1e0 f   libvcruntimed:ehhelpers.obj
 0001:0003b260       __FrameUnwindFilter        000000018003c260 f   libvcruntimed:ehhelpers.obj
 0001:0003b2f0       __GetPlatformExceptionInfo 000000018003c2f0 f   libvcruntimed:ehhelpers.obj
 0001:0003b3a0       __current_exception        000000018003c3a0 f   libvcruntimed:ehhelpers.obj
 0001:0003b3c0       __current_exception_context 000000018003c3c0 f   libvcruntimed:ehhelpers.obj
 0001:0003b3e0       __processing_throw         000000018003c3e0 f   libvcruntimed:ehhelpers.obj
 0001:0003b400       __std_terminate            000000018003c400 f   libvcruntimed:ehhelpers.obj
 0001:0003b410       _is_exception_typeof       000000018003c410 f   libvcruntimed:ehhelpers.obj
 0001:0003b560       ?GetCurrentState@__FrameHandler3@@SAHPEA_KPEAU_xDISPATCHER_CONTEXT@@PEBU_s_FuncInfo@@@Z 000000018003c560 f   libvcruntimed:ehstate.obj
 0001:0003b5c0       ?GetUnwindTryBlock@__FrameHandler3@@SAHPEA_KPEAU_xDISPATCHER_CONTEXT@@PEBU_s_FuncInfo@@@Z 000000018003c5c0 f   libvcruntimed:ehstate.obj
 0001:0003b610       ?SetState@__FrameHandler3@@SAXPEA_KPEBU_s_FuncInfo@@H@Z 000000018003c610 f   libvcruntimed:ehstate.obj
 0001:0003b640       ?SetUnwindTryBlock@__FrameHandler3@@SAXPEA_KPEAU_xDISPATCHER_CONTEXT@@PEBU_s_FuncInfo@@H@Z 000000018003c640 f   libvcruntimed:ehstate.obj
 0001:0003b6b0       ?StateFromControlPc@__FrameHandler3@@SAHPEBU_s_FuncInfo@@PEAU_xDISPATCHER_CONTEXT@@@Z 000000018003c6b0 f   libvcruntimed:ehstate.obj
 0001:0003b6f0       ?StateFromControlPc@__FrameHandler4@@SAHPEAUFuncInfo4@FH4@@PEAU_xDISPATCHER_CONTEXT@@@Z 000000018003c6f0 f   libvcruntimed:ehstate.obj
 0001:0003b730       ?StateFromIp@__FrameHandler3@@SAHPEBU_s_FuncInfo@@PEAU_xDISPATCHER_CONTEXT@@_K@Z 000000018003c730 f   libvcruntimed:ehstate.obj
 0001:0003b820       ?StateFromIp@__FrameHandler4@@SAHPEAUFuncInfo4@FH4@@PEAU_xDISPATCHER_CONTEXT@@_K@Z 000000018003c820 f   libvcruntimed:ehstate.obj
 0001:0003b910       ?__FuncRelToRealOffset@@YA_KPEAU_xDISPATCHER_CONTEXT@@I@Z 000000018003c910 f i libvcruntimed:ehstate.obj
 0001:0003b940       ?__RVAtoRealOffset@@YA_KPEAU_xDISPATCHER_CONTEXT@@H@Z 000000018003c940 f i libvcruntimed:ehstate.obj
 0001:0003dcd0       ??$TypeMatchHelper@V__FrameHandler3@@@@YAHPEBU_s_HandlerType@@PEBU_s_CatchableType@@PEBU_s_ThrowInfo@@@Z 000000018003ecd0 f i libvcruntimed:frame.obj
 0001:0003ded0       ??$TypeMatchHelper@V__FrameHandler4@@@@YAHPEAUHandlerType4@FH4@@PEBU_s_CatchableType@@PEBU_s_ThrowInfo@@@Z 000000018003eed0 f i libvcruntimed:frame.obj
 0001:0003e0e0       ??$__InternalCxxFrameHandler@V__FrameHandler3@@@@YA?AW4_EXCEPTION_DISPOSITION@@PEAUEHExceptionRecord@@PEA_KPEAU_CONTEXT@@PEAU_xDISPATCHER_CONTEXT@@PEBU_s_FuncInfo@@H1E@Z 000000018003f0e0 f i libvcruntimed:frame.obj
 0001:0003e580       ??$__InternalCxxFrameHandler@V__FrameHandler4@@@@YA?AW4_EXCEPTION_DISPOSITION@@PEAUEHExceptionRecord@@PEA_KPEAU_CONTEXT@@PEAU_xDISPATCHER_CONTEXT@@PEAUFuncInfo4@FH4@@H1E@Z 000000018003f580 f i libvcruntimed:frame.obj
 0001:0003ea40       ??0HandlerMap4@FH4@@QEAA@PEBUTryBlockMapEntry4@1@_KH@Z 000000018003fa40 f i libvcruntimed:frame.obj
 0001:0003eb00       ??0HandlerMap@__FrameHandler3@@QEAA@PEBU_s_TryBlockMapEntry@@_KI@Z 000000018003fb00 f i libvcruntimed:frame.obj
 0001:0003eb50       ??0HandlerType4@FH4@@QEAA@XZ 000000018003fb50 f i libvcruntimed:frame.obj
 0001:0003eb70       ??0TryBlockMap4@FH4@@QEAA@PEBUFuncInfo4@1@_K@Z 000000018003fb70 f i libvcruntimed:frame.obj
 0001:0003ec00       ??0TryBlockMap@__FrameHandler3@@QEAA@PEBU_s_FuncInfo@@_K@Z 000000018003fc00 f i libvcruntimed:frame.obj
 0001:0003ec30       ??0UWMap4@FH4@@QEAA@PEBUFuncInfo4@1@_K@Z 000000018003fc30 f i libvcruntimed:frame.obj
 0001:0003eca0       ??0bad_exception@std@@QEAA@AEBV01@@Z 000000018003fca0 f i libvcruntimed:frame.obj
 0001:0003ece0       ??0bad_exception@std@@QEAA@XZ 000000018003fce0 f i libvcruntimed:frame.obj
 0001:0003ed20       ??0iterator@HandlerMap4@FH4@@QEAA@AEAV12@I@Z 000000018003fd20 f i libvcruntimed:frame.obj
 0001:0003ed50       ??0iterator@HandlerMap@__FrameHandler3@@QEAA@AEAV12@I@Z 000000018003fd50 f i libvcruntimed:frame.obj
 0001:0003ed80       ??0iterator@UWMap4@FH4@@QEAA@AEAV12@PEAE@Z 000000018003fd80 f i libvcruntimed:frame.obj
 0001:0003edb0       ??1bad_exception@std@@UEAA@XZ 000000018003fdb0 f i libvcruntimed:frame.obj
 0001:0003edd0       ??4iterator@UWMap4@FH4@@QEAAAEAV012@AEBV012@@Z 000000018003fdd0 f i libvcruntimed:frame.obj
 0001:0003ee20       ??8iterator@HandlerMap4@FH4@@QEBA_NAEBV012@@Z 000000018003fe20 f i libvcruntimed:frame.obj
 0001:0003ee60       ??8iterator@HandlerMap@__FrameHandler3@@QEBA_NAEBV012@@Z 000000018003fe60 f i libvcruntimed:frame.obj
 0001:0003eea0       ??8type_info@@QEBA_NAEBV0@@Z 000000018003fea0 f i libvcruntimed:frame.obj
 0001:0003eef0       ??9iterator@HandlerMap4@FH4@@QEBA_NAEBV012@@Z 000000018003fef0 f i libvcruntimed:frame.obj
 0001:0003ef30       ??9iterator@HandlerMap@__FrameHandler3@@QEBA_NAEBV012@@Z 000000018003ff30 f i libvcruntimed:frame.obj
 0001:0003ef70       ??Diterator@HandlerMap4@FH4@@QEAA?AUHandlerType4@2@XZ 000000018003ff70 f i libvcruntimed:frame.obj
 0001:0003efa0       ??Diterator@HandlerMap@__FrameHandler3@@QEAA?BU_s_HandlerType@@XZ 000000018003ffa0 f i libvcruntimed:frame.obj
 0001:0003efe0       ??Diterator@TryBlockMap@__FrameHandler3@@QEAA?BU_s_TryBlockMapEntry@@XZ 000000018003ffe0 f i libvcruntimed:frame.obj
 0001:0003f030       ??Diterator@UWMap4@FH4@@QEAA?AUUnwindMapEntry4@2@XZ 0000000180040030 f i libvcruntimed:frame.obj
 0001:0003f0b0       ??Eiterator@HandlerMap4@FH4@@QEAAAEAV012@XZ 00000001800400b0 f i libvcruntimed:frame.obj
 0001:0003f0f0       ??Eiterator@HandlerMap@__FrameHandler3@@QEAAAEAV012@XZ 00000001800400f0 f i libvcruntimed:frame.obj
 0001:0003f110       ??Eiterator@TryBlockMap@__FrameHandler3@@QEAAAEAV012@XZ 0000000180040110 f i libvcruntimed:frame.obj
 0001:0003f130       ??Eiterator@UWMap4@FH4@@QEAAAEAV012@XZ 0000000180040130 f i libvcruntimed:frame.obj
 0001:0003f170       ??Giterator@UWMap4@FH4@@QEBA_JAEBV012@@Z 0000000180040170 f i libvcruntimed:frame.obj
 0001:0003f190       ??Miterator@TryBlockMap4@FH4@@QEBA_NAEBV012@@Z 0000000180040190 f i libvcruntimed:frame.obj
 0001:0003f1d0       ??Miterator@TryBlockMap@__FrameHandler3@@QEBA_NAEBV012@@Z 00000001800401d0 f i libvcruntimed:frame.obj
 0001:0003f210       ??Oiterator@UWMap4@FH4@@QEBA_NAEBV012@@Z 0000000180040210 f i libvcruntimed:frame.obj
 0001:0003f250       ??Piterator@UWMap4@FH4@@QEBA_NAEBV012@@Z 0000000180040250 f i libvcruntimed:frame.obj
 0001:0003f290       ??_Ebad_exception@std@@UEAAPEAXI@Z 0000000180040290 f i libvcruntimed:frame.obj
 0001:0003f290       ??_Gbad_exception@std@@UEAAPEAXI@Z 0000000180040290 f i libvcruntimed:frame.obj
 0001:0003f2d0       ?BuildCatchObject@__FrameHandler3@@SAXPEAUEHExceptionRecord@@PEAXPEBU_s_HandlerType@@PEBU_s_CatchableType@@@Z 00000001800402d0 f   libvcruntimed:frame.obj
 0001:0003f310       ?BuildCatchObject@__FrameHandler4@@SAXPEAUEHExceptionRecord@@PEAXPEAUHandlerType4@FH4@@PEBU_s_CatchableType@@@Z 0000000180040310 f   libvcruntimed:frame.obj
 0001:0003f350       ?BuildCatchObjectHelper@__FrameHandler3@@SAHPEAUEHExceptionRecord@@PEAXPEBU_s_HandlerType@@PEBU_s_CatchableType@@@Z 0000000180040350 f   libvcruntimed:frame.obj
 0001:0003f390       ?BuildCatchObjectHelper@__FrameHandler4@@SAHPEAUEHExceptionRecord@@PEAXPEAUHandlerType4@FH4@@PEBU_s_CatchableType@@@Z 0000000180040390 f   libvcruntimed:frame.obj
 0001:0003f3d0       ?CxxCallCatchBlock@__FrameHandler3@@SAPEAXPEAU_EXCEPTION_RECORD@@@Z 00000001800403d0 f   libvcruntimed:frame.obj
 0001:0003f630       ?CxxCallCatchBlock@__FrameHandler4@@SAPEAXPEAU_EXCEPTION_RECORD@@@Z 0000000180040630 f   libvcruntimed:frame.obj
 0001:0003f960       ?DecompHandler@HandlerMap4@FH4@@AEAAXXZ 0000000180040960 f i libvcruntimed:frame.obj
 0001:0003fd30       ?FrameUnwindToState@__FrameHandler3@@SAXPEA_KPEAU_xDISPATCHER_CONTEXT@@PEBU_s_FuncInfo@@H@Z 0000000180040d30 f   libvcruntimed:frame.obj
 0001:0003ff80       ?FrameUnwindToState@__FrameHandler4@@SAXPEA_KPEAU_xDISPATCHER_CONTEXT@@PEAUFuncInfo4@FH4@@H@Z 0000000180040f80 f   libvcruntimed:frame.obj
 0001:000402d0       ?GetHandlerSearchState@__FrameHandler3@@SAHPEA_KPEAU_xDISPATCHER_CONTEXT@@PEBU_s_FuncInfo@@@Z 00000001800412d0 f i libvcruntimed:frame.obj
 0001:00040380       ?GetHandlerSearchState@__FrameHandler4@@SAHPEA_KPEAU_xDISPATCHER_CONTEXT@@PEAUFuncInfo4@FH4@@@Z 0000000180041380 f i libvcruntimed:frame.obj
 0001:00040400       ?GetMaxState@__FrameHandler3@@SAHPEAU_xDISPATCHER_CONTEXT@@PEBU_s_FuncInfo@@@Z 0000000180041400 f i libvcruntimed:frame.obj
 0001:00040420       ?GetMaxState@__FrameHandler4@@SAHPEAU_xDISPATCHER_CONTEXT@@PEAUFuncInfo4@FH4@@@Z 0000000180041420 f i libvcruntimed:frame.obj
 0001:00040660       ?ReadEntry@UWMap4@FH4@@AEAAXPEAPEAE@Z 0000000180041660 f i libvcruntimed:frame.obj
 0001:00040710       ?TypeMatch@__FrameHandler3@@SAHPEBU_s_HandlerType@@PEBU_s_CatchableType@@PEBU_s_ThrowInfo@@@Z 0000000180041710 f   libvcruntimed:frame.obj
 0001:00040740       ?TypeMatch@__FrameHandler4@@SAHPEAUHandlerType4@FH4@@PEBU_s_CatchableType@@PEBU_s_ThrowInfo@@@Z 0000000180041740 f   libvcruntimed:frame.obj
 0001:00040770       ?WalkBack@UWMap4@FH4@@AEAAXPEAPEAE@Z 0000000180041770 f i libvcruntimed:frame.obj
 0001:000407c0       ?WalkBack@iterator@UWMap4@FH4@@QEAAXXZ 00000001800417c0 f i libvcruntimed:frame.obj
 0001:00040800       ?WalkForward@UWMap4@FH4@@AEAAXPEAPEAE@Z 0000000180041800 f i libvcruntimed:frame.obj
 0001:00040830       ?_CallMemberFunction1@@YAXQEAX00@Z 0000000180041830 f i libvcruntimed:frame.obj
 0001:00040870       ?_CallMemberFunction2@@YAXQEAX00H@Z 0000000180041870 f i libvcruntimed:frame.obj
 0001:000408c0       ?_ValidateExecute@@YA_NP6A_JXZ@Z 00000001800418c0 f i libvcruntimed:frame.obj
 0001:000408e0       ?_ValidateRead@@YA_NPEBXI@Z 00000001800418e0 f i libvcruntimed:frame.obj
 0001:00040900       ?_ValidateWrite@@YA_NPEAXI@Z 0000000180041900 f i libvcruntimed:frame.obj
 0001:00040960       ?begin@HandlerMap4@FH4@@QEAA?AViterator@12@XZ 0000000180041960 f i libvcruntimed:frame.obj
 0001:00040990       ?begin@HandlerMap@__FrameHandler3@@QEAA?AViterator@12@XZ 0000000180041990 f i libvcruntimed:frame.obj
 0001:000409c0       ?begin@UWMap4@FH4@@QEAA?AViterator@12@XZ 00000001800419c0 f i libvcruntimed:frame.obj
 0001:000409f0       ?end@HandlerMap4@FH4@@QEAA?AViterator@12@XZ 00000001800419f0 f i libvcruntimed:frame.obj
 0001:00040a20       ?end@HandlerMap@__FrameHandler3@@QEAA?AViterator@12@XZ 0000000180041a20 f i libvcruntimed:frame.obj
 0001:00040a50       ?getESTypes@__FrameHandler3@@SAPEBU_s_ESTypeList@@PEBU_s_FuncInfo@@@Z 0000000180041a50 f i libvcruntimed:frame.obj
 0001:00040a90       ?getESTypes@__FrameHandler4@@SAPEBU_s_ESTypeList@@PEAUFuncInfo4@FH4@@@Z 0000000180041a90 f i libvcruntimed:frame.obj
 0001:00040aa0       ?getLastEntry@HandlerMap4@FH4@@QEAAPEAUHandlerType4@2@XZ 0000000180041aa0 f i libvcruntimed:frame.obj
 0001:00040ae0       ?getLastEntry@HandlerMap@__FrameHandler3@@QEAAPEBU_s_HandlerType@@XZ 0000000180041ae0 f i libvcruntimed:frame.obj
 0001:00040b00       ?getMagicNum@__FrameHandler3@@SAIPEBU_s_FuncInfo@@@Z 0000000180041b00 f i libvcruntimed:frame.obj
 0001:00040b20       ?getMagicNum@__FrameHandler4@@SAIPEAUFuncInfo4@FH4@@@Z 0000000180041b20 f i libvcruntimed:frame.obj
 0001:00040b30       ?getNumTryBlocks@TryBlockMap4@FH4@@QEAAIXZ 0000000180041b30 f i libvcruntimed:frame.obj
 0001:00040b40       ?getNumTryBlocks@TryBlockMap@__FrameHandler3@@QEAAIXZ 0000000180041b40 f i libvcruntimed:frame.obj
 0001:00040b60       ?getStartStop@UWMap4@FH4@@QEAAXHHAEAViterator@12@0@Z 0000000180041b60 f i libvcruntimed:frame.obj
 0001:00040c80       ?getStateFromIterators@UWMap4@FH4@@SAHAEBViterator@12@H0H0@Z 0000000180041c80 f i libvcruntimed:frame.obj
 0001:00040dc0       ?isEHs@__FrameHandler3@@SA_NPEBU_s_FuncInfo@@@Z 0000000180041dc0 f i libvcruntimed:frame.obj
 0001:00040e00       ?isEHs@__FrameHandler4@@SA_NPEAUFuncInfo4@FH4@@@Z 0000000180041e00 f i libvcruntimed:frame.obj
 0001:00040e20       ?isNoExcept@__FrameHandler3@@SA_NPEBU_s_FuncInfo@@@Z 0000000180041e20 f i libvcruntimed:frame.obj
 0001:00040e60       ?isNoExcept@__FrameHandler4@@SA_NPEAUFuncInfo4@FH4@@@Z 0000000180041e60 f i libvcruntimed:frame.obj
 0001:00040e80       ?reset@HandlerType4@FH4@@QEAAXXZ 0000000180041e80 f i libvcruntimed:frame.obj
 0001:00040ee0       ?resetBuffer@HandlerMap4@FH4@@QEAAXXZ 0000000180041ee0 f i libvcruntimed:frame.obj
 0001:00040f00       ?setBuffer@HandlerMap4@FH4@@QEAAXI@Z 0000000180041f00 f i libvcruntimed:frame.obj
 0001:00040f60       __BuildCatchObject         0000000180041f60 f   libvcruntimed:frame.obj
 0001:00040fa0       __BuildCatchObjectHelper   0000000180041fa0 f   libvcruntimed:frame.obj
 0001:00040fe0       __TypeMatch                0000000180041fe0 f   libvcruntimed:frame.obj
 0001:00041010       __vcrt_EncodePointer       0000000180042010 f i libvcruntimed:frame.obj
 0001:00041030       ??0Block@_HeapManager@@QEAA@XZ 0000000180042030 f i libvcruntimed:undname.obj
 0001:00041050       ??0DName@@QEAA@AEAPEBDD@Z  0000000180042050 f   libvcruntimed:undname.obj
 0001:00041300       ??0DName@@QEAA@AEBV0@@Z    0000000180042300 f i libvcruntimed:undname.obj
 0001:00041330       ??0DName@@QEAA@D@Z         0000000180042330 f   libvcruntimed:undname.obj
 0001:00041380       ??0DName@@QEAA@PEAV0@@Z    0000000180042380 f   libvcruntimed:undname.obj
 0001:00041460       ??0DName@@QEAA@PEBD@Z      0000000180042460 f   libvcruntimed:undname.obj
 0001:000414d0       ??0DName@@QEAA@W4DNameStatus@@@Z 00000001800424d0 f   libvcruntimed:undname.obj
 0001:00041580       ??0DName@@QEAA@XZ          0000000180042580 f i libvcruntimed:undname.obj
 0001:000415b0       ??0DName@@QEAA@_J@Z        00000001800425b0 f   libvcruntimed:undname.obj
 0001:000416c0       ??0DName@@QEAA@_K@Z        00000001800426c0 f   libvcruntimed:undname.obj
 0001:00041790       ??0DNameNode@@IEAA@XZ      0000000180042790 f i libvcruntimed:undname.obj
 0001:000417b0       ??0Replicator@@QEAA@XZ     00000001800427b0 f i libvcruntimed:undname.obj
 0001:000417f0       ??0UnDecorator@@QEAA@PEBDP6APEADJ@ZK@Z 00000001800427f0 f i libvcruntimed:undname.obj
 0001:000418a0       ??0charNode@@QEAA@D@Z      00000001800428a0 f i libvcruntimed:undname.obj
 0001:000418e0       ??0pDNameNode@@QEAA@PEAVDName@@@Z 00000001800428e0 f   libvcruntimed:undname.obj
 0001:00041960       ??0pairNode@@QEAA@PEBVDNameNode@@0@Z 0000000180042960 f i libvcruntimed:undname.obj
 0001:000419c0       ??0pcharNode@@QEAA@PEBDH@Z 00000001800429c0 f   libvcruntimed:undname.obj
 0001:00041ab0       ??2@YAPEAX_KAEAV_HeapManager@@H@Z 0000000180042ab0 f i libvcruntimed:undname.obj
 0001:00041ae0       ??4DName@@QEAAAEAV0@AEBV0@@Z 0000000180042ae0 f   libvcruntimed:undname.obj
 0001:00041b10       ??4DName@@QEAAAEAV0@D@Z    0000000180042b10 f i libvcruntimed:undname.obj
 0001:00041b60       ??4DName@@QEAAAEAV0@PEAV0@@Z 0000000180042b60 f   libvcruntimed:undname.obj
 0001:00041c30       ??4DName@@QEAAAEAV0@PEBD@Z 0000000180042c30 f   libvcruntimed:undname.obj
 0001:00041c80       ??4DName@@QEAAAEAV0@W4DNameStatus@@@Z 0000000180042c80 f   libvcruntimed:undname.obj
 0001:00041d10       ??AReplicator@@QEBA?AVDName@@H@Z 0000000180042d10 f   libvcruntimed:undname.obj
 0001:00041da0       ??H@YA?AVDName@@DAEBV0@@Z  0000000180042da0 f i libvcruntimed:undname.obj
 0001:00041df0       ??H@YA?AVDName@@PEBDAEBV0@@Z 0000000180042df0 f i libvcruntimed:undname.obj
 0001:00041e40       ??H@YA?AVDName@@W4DNameStatus@@AEBV0@@Z 0000000180042e40 f i libvcruntimed:undname.obj
 0001:00041e90       ??HDName@@QEBA?AV0@AEBV0@@Z 0000000180042e90 f   libvcruntimed:undname.obj
 0001:00041ee0       ??HDName@@QEBA?AV0@D@Z     0000000180042ee0 f   libvcruntimed:undname.obj
 0001:00041f30       ??HDName@@QEBA?AV0@PEAV0@@Z 0000000180042f30 f   libvcruntimed:undname.obj
 0001:00041f80       ??HDName@@QEBA?AV0@PEBD@Z  0000000180042f80 f   libvcruntimed:undname.obj
 0001:00041fd0       ??HDName@@QEBA?AV0@W4DNameStatus@@@Z 0000000180042fd0 f   libvcruntimed:undname.obj
 0001:00042020       ??YDName@@QEAAAEAV0@AEBV0@@Z 0000000180043020 f   libvcruntimed:undname.obj
 0001:000420a0       ??YDName@@QEAAAEAV0@D@Z    00000001800430a0 f   libvcruntimed:undname.obj
 0001:00042140       ??YDName@@QEAAAEAV0@PEAV0@@Z 0000000180043140 f   libvcruntimed:undname.obj
 0001:00042220       ??YDName@@QEAAAEAV0@PEBD@Z 0000000180043220 f   libvcruntimed:undname.obj
 0001:000422f0       ??YDName@@QEAAAEAV0@W4DNameStatus@@@Z 00000001800432f0 f   libvcruntimed:undname.obj
 0001:00042360       ??YReplicator@@QEAAAEAV0@AEBVDName@@@Z 0000000180043360 f   libvcruntimed:undname.obj
 0001:00042420       ??_5DName@@QEAAAEAV0@AEBV0@@Z 0000000180043420 f   libvcruntimed:undname.obj
 0001:00042490       ?Constructor@_HeapManager@@QEAAXP6APEAX_K@ZP6AXPEAX@Z@Z 0000000180043490 f i libvcruntimed:undname.obj
 0001:000424f0       ?Destructor@_HeapManager@@QEAAXXZ 00000001800434f0 f i libvcruntimed:undname.obj
 0001:00042570       ?UScore@UnDecorator@@SAPEBDW4Tokens@@@Z 0000000180043570 f   libvcruntimed:undname.obj
 0001:000425b0       ?append@DName@@AEAAXPEBVDNameNode@@@Z 00000001800435b0 f   libvcruntimed:undname.obj
 0001:00042660       ?composeDeclaration@UnDecorator@@CA?AVDName@@AEBV2@@Z 0000000180043660 f i libvcruntimed:undname.obj
 0001:00044830       ?dbGetString@DName@@QEBAPEADXZ 0000000180045830 f   libvcruntimed:undname.obj
 0001:00044860       ?doAccessSpecifiers@UnDecorator@@SAHXZ 0000000180045860 f i libvcruntimed:undname.obj
 0001:00044890       ?doAllocationLanguage@UnDecorator@@SAHXZ 0000000180045890 f i libvcruntimed:undname.obj
 0001:000448c0       ?doAllocationModel@UnDecorator@@SAHXZ 00000001800458c0 f i libvcruntimed:undname.obj
 0001:000448f0       ?doEcsu@UnDecorator@@SAHXZ 00000001800458f0 f i libvcruntimed:undname.obj
 0001:00044920       ?doEllipsis@UnDecorator@@SAHXZ 0000000180045920 f i libvcruntimed:undname.obj
 0001:00044950       ?doFunctionReturns@UnDecorator@@SAHXZ 0000000180045950 f i libvcruntimed:undname.obj
 0001:00044980       ?doMSKeywords@UnDecorator@@SAHXZ 0000000180045980 f i libvcruntimed:undname.obj
 0001:000449b0       ?doMemberTypes@UnDecorator@@SAHXZ 00000001800459b0 f i libvcruntimed:undname.obj
 0001:000449e0       ?doNameOnly@UnDecorator@@SAHXZ 00000001800459e0 f i libvcruntimed:undname.obj
 0001:000449f0       ?doNoIdentCharCheck@UnDecorator@@SAHXZ 00000001800459f0 f i libvcruntimed:undname.obj
 0001:00044a00       ?doPchar@DName@@AEAAXPEBDH@Z 0000000180045a00 f   libvcruntimed:undname.obj
 0001:00044b90       ?doPtr64@UnDecorator@@SAHXZ 0000000180045b90 f i libvcruntimed:undname.obj
 0001:00044bc0       ?doRestrictionSpec@UnDecorator@@SAHXZ 0000000180045bc0 f i libvcruntimed:undname.obj
 0001:00044bf0       ?doThisTypes@UnDecorator@@SAHXZ 0000000180045bf0 f i libvcruntimed:undname.obj
 0001:00044c20       ?doThrowTypes@UnDecorator@@SAHXZ 0000000180045c20 f i libvcruntimed:undname.obj
 0001:00044c50       ?doTypeOnly@UnDecorator@@SAHXZ 0000000180045c50 f i libvcruntimed:undname.obj
 0001:00044c60       ?doUnderScore@UnDecorator@@SAHXZ 0000000180045c60 f i libvcruntimed:undname.obj
 0001:00044c90       ?getArgumentList@UnDecorator@@CA?AVDName@@XZ 0000000180045c90 f   libvcruntimed:undname.obj
 0001:00044e30       ?getArgumentTypes@UnDecorator@@CA?AVDName@@XZ 0000000180045e30 f   libvcruntimed:undname.obj
 0001:00044fe0       ?getArrayType@UnDecorator@@CA?AVDName@@AEBV2@@Z 0000000180045fe0 f i libvcruntimed:undname.obj
 0001:00045340       ?getBasedType@UnDecorator@@CA?AVDName@@XZ 0000000180046340 f   libvcruntimed:undname.obj
 0001:00045430       ?getBasicDataType@UnDecorator@@CA?AVDName@@AEBV2@@Z 0000000180046430 f   libvcruntimed:undname.obj
 0001:00045ba0       ?getCHPEName@UnDecorator@@QEAAPEADPEADH@Z 0000000180046ba0 f i libvcruntimed:undname.obj
 0001:00045d70       ?getCallIndex@UnDecorator@@CA?AVDName@@XZ 0000000180046d70 f i libvcruntimed:undname.obj
 0001:00045d90       ?getCallingConvention@UnDecorator@@CA?AVDName@@XZ 0000000180046d90 f   libvcruntimed:undname.obj
 0001:00045fd0       ?getDataIndirectType@UnDecorator@@CA?AVDName@@AEBV2@PEBD0H@Z 0000000180046fd0 f   libvcruntimed:undname.obj
 0001:00046aa0       ?getDataIndirectType@UnDecorator@@CA?AVDName@@XZ 0000000180047aa0 f i libvcruntimed:undname.obj
 0001:00046b10       ?getDataType@UnDecorator@@CA?AVDName@@PEAV2@@Z 0000000180047b10 f   libvcruntimed:undname.obj
 0001:00046ca0       ?getDecoratedName@UnDecorator@@CA?AVDName@@XZ 0000000180047ca0 f   libvcruntimed:undname.obj
 0001:00047140       ?getDimension@UnDecorator@@CA?AVDName@@_N@Z 0000000180048140 f   libvcruntimed:undname.obj
 0001:000474a0       ?getDispatchTarget@UnDecorator@@CA?AVDName@@XZ 00000001800484a0 f   libvcruntimed:undname.obj
 0001:00047570       ?getDisplacement@UnDecorator@@CA?AVDName@@XZ 0000000180048570 f i libvcruntimed:undname.obj
 0001:00047590       ?getECSUDataType@UnDecorator@@CA?AVDName@@XZ 0000000180048590 f   libvcruntimed:undname.obj
 0001:000477d0       ?getECSUName@UnDecorator@@CA?AVDName@@XZ 00000001800487d0 f i libvcruntimed:undname.obj
 0001:000477f0       ?getEnumType@UnDecorator@@CA?AVDName@@XZ 00000001800487f0 f i libvcruntimed:undname.obj
 0001:00047970       ?getExtendedDataIndirectType@UnDecorator@@CA?AVDName@@AEAPEBDAEA_NH@Z 0000000180048970 f   libvcruntimed:undname.obj
 0001:00047c90       ?getExternalDataType@UnDecorator@@CA?AVDName@@AEBV2@@Z 0000000180048c90 f i libvcruntimed:undname.obj
 0001:00047d70       ?getFunctionIndirectType@UnDecorator@@CA?AVDName@@AEBV2@@Z 0000000180048d70 f   libvcruntimed:undname.obj
 0001:00048370       ?getGuardNumber@UnDecorator@@CA?AVDName@@XZ 0000000180049370 f i libvcruntimed:undname.obj
 0001:00048390       ?getLastChar@DName@@QEBADXZ 0000000180049390 f i libvcruntimed:undname.obj
 0001:000483e0       ?getLastChar@DNameStatusNode@@UEBADXZ 00000001800493e0 f i libvcruntimed:undname.obj
 0001:00048420       ?getLastChar@charNode@@UEBADXZ 0000000180049420 f i libvcruntimed:undname.obj
 0001:00048430       ?getLastChar@pDNameNode@@UEBADXZ 0000000180049430 f i libvcruntimed:undname.obj
 0001:00048470       ?getLastChar@pairNode@@UEBADXZ 0000000180049470 f i libvcruntimed:undname.obj
 0001:000484f0       ?getLastChar@pcharNode@@UEBADXZ 00000001800494f0 f i libvcruntimed:undname.obj
 0001:00048530       ?getLexicalFrame@UnDecorator@@CA?AVDName@@XZ 0000000180049530 f i libvcruntimed:undname.obj
 0001:00048580       ?getMemory@_HeapManager@@QEAAPEAX_KH@Z 0000000180049580 f   libvcruntimed:undname.obj
 0001:00048700       ?getNoexcept@UnDecorator@@CA?AVDName@@XZ 0000000180049700 f   libvcruntimed:undname.obj
 0001:00048790       ?getNumberOfDimensions@UnDecorator@@CAHXZ 0000000180049790 f   libvcruntimed:undname.obj
 0001:000488b0       ?getOperatorName@UnDecorator@@CA?AVDName@@_NPEA_N@Z 00000001800498b0 f i libvcruntimed:undname.obj
 0001:00049690       ?getPointerType@UnDecorator@@CA?AVDName@@AEBV2@0@Z 000000018004a690 f i libvcruntimed:undname.obj
 0001:000496e0       ?getPointerTypeArray@UnDecorator@@CA?AVDName@@AEBV2@0@Z 000000018004a6e0 f i libvcruntimed:undname.obj
 0001:00049730       ?getPrimaryDataType@UnDecorator@@CA?AVDName@@AEBV2@@Z 000000018004a730 f   libvcruntimed:undname.obj
 0001:00049c20       ?getPtrRefDataType@UnDecorator@@CA?AVDName@@AEBV2@H@Z 000000018004ac20 f   libvcruntimed:undname.obj
 0001:00049eb0       ?getPtrRefType@UnDecorator@@CA?AVDName@@AEBV2@0PEBD@Z 000000018004aeb0 f   libvcruntimed:undname.obj
 0001:0004a0c0       ?getReferenceType@UnDecorator@@CA?AVDName@@AEBV2@0PEBD@Z 000000018004b0c0 f i libvcruntimed:undname.obj
 0001:0004a100       ?getRestrictionSpec@UnDecorator@@CA?AVDName@@XZ 000000018004b100 f   libvcruntimed:undname.obj
 0001:0004a2d0       ?getReturnType@UnDecorator@@CA?AVDName@@PEAV2@@Z 000000018004b2d0 f   libvcruntimed:undname.obj
 0001:0004a330       ?getScope@UnDecorator@@CA?AVDName@@XZ 000000018004b330 f   libvcruntimed:undname.obj
 0001:0004a9b0       ?getScopedName@UnDecorator@@CA?AVDName@@XZ 000000018004b9b0 f   libvcruntimed:undname.obj
 0001:0004ab40       ?getSignedDimension@UnDecorator@@CA?AVDName@@XZ 000000018004bb40 f   libvcruntimed:undname.obj
 0001:0004abd0       ?getStorageConvention@UnDecorator@@CA?AVDName@@XZ 000000018004bbd0 f i libvcruntimed:undname.obj
 0001:0004abf0       ?getString@DName@@QEBAPEADPEAD0@Z 000000018004bbf0 f i libvcruntimed:undname.obj
 0001:0004ac70       ?getString@DName@@QEBAPEADPEADH@Z 000000018004bc70 f i libvcruntimed:undname.obj
 0001:0004ad30       ?getString@DNameStatusNode@@UEBAPEADPEAD0@Z 000000018004bd30 f i libvcruntimed:undname.obj
 0001:0004ad80       ?getString@charNode@@UEBAPEADPEAD0@Z 000000018004bd80 f i libvcruntimed:undname.obj
 0001:0004adc0       ?getString@pDNameNode@@UEBAPEADPEAD0@Z 000000018004bdc0 f i libvcruntimed:undname.obj
 0001:0004ae20       ?getString@pairNode@@UEBAPEADPEAD0@Z 000000018004be20 f i libvcruntimed:undname.obj
 0001:0004aef0       ?getString@pcharNode@@UEBAPEADPEAD0@Z 000000018004bef0 f i libvcruntimed:undname.obj
 0001:0004af30       ?getStringEncoding@UnDecorator@@CA?AVDName@@PEBDH@Z 000000018004bf30 f   libvcruntimed:undname.obj
 0001:0004b070       ?getStringHelper@@YAPEADPEADPEBD1H@Z 000000018004c070 f i libvcruntimed:undname.obj
 0001:0004b0e0       ?getSymbolName@UnDecorator@@CA?AVDName@@XZ 000000018004c0e0 f i libvcruntimed:undname.obj
 0001:0004b180       ?getTemplateArgumentList@UnDecorator@@CA?AVDName@@XZ 000000018004c180 f   libvcruntimed:undname.obj
 0001:0004b460       ?getTemplateName@UnDecorator@@CA?AVDName@@_N@Z 000000018004c460 f   libvcruntimed:undname.obj
 0001:0004b6a0       ?getTemplateNonTypeArgument@UnDecorator@@CA?AVDName@@XZ 000000018004c6a0 f   libvcruntimed:undname.obj
 0001:0004bdd0       ?getTemplateTypeArgument@UnDecorator@@CA?AVDName@@XZ 000000018004cdd0 f   libvcruntimed:undname.obj
 0001:0004bfa0       ?getThisType@UnDecorator@@CA?AVDName@@XZ 000000018004cfa0 f i libvcruntimed:undname.obj
 0001:0004c010       ?getThrowTypes@UnDecorator@@CA?AVDName@@XZ 000000018004d010 f   libvcruntimed:undname.obj
 0001:0004c060       ?getTypeEncoding@UnDecorator@@CAHXZ 000000018004d060 f i libvcruntimed:undname.obj
 0001:0004cc60       ?getUndecoratedName@UnDecorator@@QEAAPEADPEADH@Z 000000018004dc60 f i libvcruntimed:undname.obj
 0001:0004ce20       ?getVCallThunkType@UnDecorator@@CA?AVDName@@XZ 000000018004de20 f i libvcruntimed:undname.obj
 0001:0004cea0       ?getVbTableType@UnDecorator@@CA?AVDName@@AEBV2@@Z 000000018004dea0 f i libvcruntimed:undname.obj
 0001:0004ced0       ?getVdispMapType@UnDecorator@@CA?AVDName@@AEBV2@@Z 000000018004ded0 f i libvcruntimed:undname.obj
 0001:0004cf60       ?getVfTableType@UnDecorator@@CA?AVDName@@AEBV2@@Z 000000018004df60 f i libvcruntimed:undname.obj
 0001:0004d1a0       ?getZName@UnDecorator@@CA?AVDName@@_N0@Z 000000018004e1a0 f   libvcruntimed:undname.obj
 0001:0004d560       ?haveTemplateParameters@UnDecorator@@SAHXZ 000000018004e560 f i libvcruntimed:undname.obj
 0001:0004d570       ?isArray@DName@@QEBAHXZ    000000018004e570 f i libvcruntimed:undname.obj
 0001:0004d590       ?isComArray@DName@@QEBAHXZ 000000018004e590 f i libvcruntimed:undname.obj
 0001:0004d5b0       ?isEmpty@DName@@QEBAHXZ    000000018004e5b0 f i libvcruntimed:undname.obj
 0001:0004d5e0       ?isFull@Replicator@@QEBAHXZ 000000018004e5e0 f i libvcruntimed:undname.obj
 0001:0004d610       ?isNoTE@DName@@QEBAHXZ     000000018004e610 f i libvcruntimed:undname.obj
 0001:0004d630       ?isPinPtr@DName@@QEBAHXZ   000000018004e630 f i libvcruntimed:undname.obj
 0001:0004d650       ?isPtrRef@DName@@QEBAHXZ   000000018004e650 f i libvcruntimed:undname.obj
 0001:0004d670       ?isUDC@DName@@QEBAHXZ      000000018004e670 f i libvcruntimed:undname.obj
 0001:0004d6c0       ?isUDTThunk@DName@@QEBAHXZ 000000018004e6c0 f i libvcruntimed:undname.obj
 0001:0004d710       ?isVCallThunk@DName@@QEBAHXZ 000000018004e710 f i libvcruntimed:undname.obj
 0001:0004d730       ?isValid@DName@@QEBAHXZ    000000018004e730 f i libvcruntimed:undname.obj
 0001:0004d770       ?length@DName@@QEBAHXZ     000000018004e770 f i libvcruntimed:undname.obj
 0001:0004d7c0       ?length@DNameStatusNode@@UEBAHXZ 000000018004e7c0 f i libvcruntimed:undname.obj
 0001:0004d7d0       ?length@charNode@@UEBAHXZ  000000018004e7d0 f i libvcruntimed:undname.obj
 0001:0004d7e0       ?length@pDNameNode@@UEBAHXZ 000000018004e7e0 f i libvcruntimed:undname.obj
 0001:0004d820       ?length@pairNode@@UEBAHXZ  000000018004e820 f i libvcruntimed:undname.obj
 0001:0004d8b0       ?length@pcharNode@@UEBAHXZ 000000018004e8b0 f i libvcruntimed:undname.obj
 0001:0004d8c0       ?make@DNameStatusNode@@SAPEBV1@W4DNameStatus@@@Z 000000018004e8c0 f i libvcruntimed:undname.obj
 0001:0004d910       ?parseDecoratedName@UnDecorator@@CA?AVDName@@XZ 000000018004e910 f   libvcruntimed:undname.obj
 0001:0004dad0       ?setIsArray@DName@@QEAAXXZ 000000018004ead0 f i libvcruntimed:undname.obj
 0001:0004daf0       ?setIsComArray@DName@@QEAAXXZ 000000018004eaf0 f i libvcruntimed:undname.obj
 0001:0004db10       ?setIsNoTE@DName@@QEAAXXZ  000000018004eb10 f i libvcruntimed:undname.obj
 0001:0004db30       ?setIsPinPtr@DName@@QEAAXXZ 000000018004eb30 f i libvcruntimed:undname.obj
 0001:0004db50       ?setIsUDC@DName@@QEAAXXZ   000000018004eb50 f i libvcruntimed:undname.obj
 0001:0004db80       ?setIsVCallThunk@DName@@QEAAXXZ 000000018004eb80 f i libvcruntimed:undname.obj
 0001:0004dba0       ?setPtrRef@DName@@QEAAAEAV1@XZ 000000018004eba0 f i libvcruntimed:undname.obj
 0001:0004dbc0       ?status@DName@@QEBA?AW4DNameStatus@@XZ 000000018004ebc0 f i libvcruntimed:undname.obj
 0001:0004dcf0       __unDName                  000000018004ecf0 f   libvcruntimed:undname.obj
 0001:0004dd50       __unDNameEx                000000018004ed50 f   libvcruntimed:undname.obj
 0001:0004de10       unDNameGenerateCHPE        000000018004ee10 f   libvcruntimed:undname.obj
 0001:0004dec0       ??$__crt_interlocked_exchange_pointer@UHINSTANCE__@@PEAU1@@@YAPEAUHINSTANCE__@@PEDSEAU0@QEAU0@@Z 000000018004eec0 f i libvcruntimed:winapi_downlevel.obj
 0001:0004dee0       ??$__crt_interlocked_exchange_pointer@UHINSTANCE__@@PEAX@@YAPEAUHINSTANCE__@@PEDSEAU0@QEAX@Z 000000018004eee0 f i libvcruntimed:winapi_downlevel.obj
 0001:0004df00       ??$__crt_interlocked_exchange_pointer@XPEAX@@YAPEAXPEDSEAXQEAX@Z 000000018004ef00 f i libvcruntimed:winapi_downlevel.obj
 0001:0004df20       ??$__crt_interlocked_read_pointer@UHINSTANCE__@@@@YAPEAUHINSTANCE__@@PEDSEAU0@@Z 000000018004ef20 f i libvcruntimed:winapi_downlevel.obj
 0001:0004df40       ??$__crt_interlocked_read_pointer@X@@YAPEAXPEDSEAX@Z 000000018004ef40 f i libvcruntimed:winapi_downlevel.obj
 0001:0004e450       __vcrt_FlsAlloc            000000018004f450 f   libvcruntimed:winapi_downlevel.obj
 0001:0004e4a0       __vcrt_FlsFree             000000018004f4a0 f   libvcruntimed:winapi_downlevel.obj
 0001:0004e4f0       __vcrt_FlsGetValue         000000018004f4f0 f   libvcruntimed:winapi_downlevel.obj
 0001:0004e540       __vcrt_FlsSetValue         000000018004f540 f   libvcruntimed:winapi_downlevel.obj
 0001:0004e5a0       __vcrt_InitializeCriticalSectionEx 000000018004f5a0 f   libvcruntimed:winapi_downlevel.obj
 0001:0004e620       _CallSettingFrame          000000018004f620 f   libvcruntimed:handlers.obj
 0001:0004e670       _CallSettingFrame_LookupContinuationIndex 000000018004f670 f   libvcruntimed:handlers.obj
 0001:0004e6a0       _CallSettingFrame_NotifyContinuationAddr 000000018004f6a0 f   libvcruntimed:handlers.obj
 0001:0004e6d0       _CallSettingFrameEncoded   000000018004f6d0 f   libvcruntimed:handlers.obj
 0001:0004e720       ??$?0AEBV?$stream_output_adapter@D@__crt_stdio_output@@AEB_KAEBQEBDAEBQEAU__crt_locale_pointers@@AEBQEAD@?$format_validation_base@DV?$stream_output_adapter@D@__crt_stdio_output@@@__crt_stdio_output@@IEAA@AEBV?$stream_output_adapter@D@1@AEB_KAEBQEBDAEBQEAU__crt_locale_pointers@@AEBQEAD@Z 000000018004f720 f i libucrtd:output.obj
 0001:0004e770       ??$?0AEBV?$stream_output_adapter@D@__crt_stdio_output@@AEB_KAEBQEBDAEBQEAU__crt_locale_pointers@@AEBQEAD@?$positional_parameter_base@DV?$stream_output_adapter@D@__crt_stdio_output@@@__crt_stdio_output@@IEAA@AEBV?$stream_output_adapter@D@1@AEB_KAEBQEBDAEBQEAU__crt_locale_pointers@@AEBQEAD@Z 000000018004f770 f i libucrtd:output.obj
 0001:0004e810       ??$?0AEBV?$stream_output_adapter@D@__crt_stdio_output@@AEB_KAEBQEBDAEBQEAU__crt_locale_pointers@@AEBQEAD@?$standard_base@DV?$stream_output_adapter@D@__crt_stdio_output@@@__crt_stdio_output@@IEAA@AEBV?$stream_output_adapter@D@1@AEB_KAEBQEBDAEBQEAU__crt_locale_pointers@@AEBQEAD@Z 000000018004f810 f i libucrtd:output.obj
 0001:0004e880       ??$?0AEBV?$stream_output_adapter@_W@__crt_stdio_output@@AEB_KAEBQEB_WAEBQEAU__crt_locale_pointers@@AEBQEAD@?$format_validation_base@_WV?$stream_output_adapter@_W@__crt_stdio_output@@@__crt_stdio_output@@IEAA@AEBV?$stream_output_adapter@_W@1@AEB_KAEBQEB_WAEBQEAU__crt_locale_pointers@@AEBQEAD@Z 000000018004f880 f i libucrtd:output.obj
 0001:0004e8d0       ??$?0AEBV?$stream_output_adapter@_W@__crt_stdio_output@@AEB_KAEBQEB_WAEBQEAU__crt_locale_pointers@@AEBQEAD@?$positional_parameter_base@_WV?$stream_output_adapter@_W@__crt_stdio_output@@@__crt_stdio_output@@IEAA@AEBV?$stream_output_adapter@_W@1@AEB_KAEBQEB_WAEBQEAU__crt_locale_pointers@@AEBQEAD@Z 000000018004f8d0 f i libucrtd:output.obj
 0001:0004e970       ??$?0AEBV?$stream_output_adapter@_W@__crt_stdio_output@@AEB_KAEBQEB_WAEBQEAU__crt_locale_pointers@@AEBQEAD@?$standard_base@_WV?$stream_output_adapter@_W@__crt_stdio_output@@@__crt_stdio_output@@IEAA@AEBV?$stream_output_adapter@_W@1@AEB_KAEBQEB_WAEBQEAU__crt_locale_pointers@@AEBQEAD@Z 000000018004f970 f i libucrtd:output.obj
 0001:0004e9e0       ??$?0AEBV?$string_output_adapter@D@__crt_stdio_output@@AEB_KAEBQEBDAEBQEAU__crt_locale_pointers@@AEBQEAD@?$format_validation_base@DV?$string_output_adapter@D@__crt_stdio_output@@@__crt_stdio_output@@IEAA@AEBV?$string_output_adapter@D@1@AEB_KAEBQEBDAEBQEAU__crt_locale_pointers@@AEBQEAD@Z 000000018004f9e0 f i libucrtd:output.obj
 0001:0004ea30       ??$?0AEBV?$string_output_adapter@D@__crt_stdio_output@@AEB_KAEBQEBDAEBQEAU__crt_locale_pointers@@AEBQEAD@?$positional_parameter_base@DV?$string_output_adapter@D@__crt_stdio_output@@@__crt_stdio_output@@IEAA@AEBV?$string_output_adapter@D@1@AEB_KAEBQEBDAEBQEAU__crt_locale_pointers@@AEBQEAD@Z 000000018004fa30 f i libucrtd:output.obj
 0001:0004ead0       ??$?0AEBV?$string_output_adapter@D@__crt_stdio_output@@AEB_KAEBQEBDAEBQEAU__crt_locale_pointers@@AEBQEAD@?$standard_base@DV?$string_output_adapter@D@__crt_stdio_output@@@__crt_stdio_output@@IEAA@AEBV?$string_output_adapter@D@1@AEB_KAEBQEBDAEBQEAU__crt_locale_pointers@@AEBQEAD@Z 000000018004fad0 f i libucrtd:output.obj
 0001:0004eb40       ??$?0AEBV?$string_output_adapter@_W@__crt_stdio_output@@AEB_KAEBQEB_WAEBQEAU__crt_locale_pointers@@AEBQEAD@?$format_validation_base@_WV?$string_output_adapter@_W@__crt_stdio_output@@@__crt_stdio_output@@IEAA@AEBV?$string_output_adapter@_W@1@AEB_KAEBQEB_WAEBQEAU__crt_locale_pointers@@AEBQEAD@Z 000000018004fb40 f i libucrtd:output.obj
 0001:0004eb90       ??$?0AEBV?$string_output_adapter@_W@__crt_stdio_output@@AEB_KAEBQEB_WAEBQEAU__crt_locale_pointers@@AEBQEAD@?$positional_parameter_base@_WV?$string_output_adapter@_W@__crt_stdio_output@@@__crt_stdio_output@@IEAA@AEBV?$string_output_adapter@_W@1@AEB_KAEBQEB_WAEBQEAU__crt_locale_pointers@@AEBQEAD@Z 000000018004fb90 f i libucrtd:output.obj
 0001:0004ec30       ??$?0AEBV?$string_output_adapter@_W@__crt_stdio_output@@AEB_KAEBQEB_WAEBQEAU__crt_locale_pointers@@AEBQEAD@?$standard_base@_WV?$string_output_adapter@_W@__crt_stdio_output@@@__crt_stdio_output@@IEAA@AEBV?$string_output_adapter@_W@1@AEB_KAEBQEB_WAEBQEAU__crt_locale_pointers@@AEBQEAD@Z 000000018004fc30 f i libucrtd:output.obj
 0001:0004f060       ??$__crt_interlocked_read@J@@YAJPEDJ@Z 0000000180050060 f i libucrtd:output.obj
 0001:00052b40       ??$count@D@formatting_buffer@__crt_stdio_output@@QEBA_KXZ 0000000180053b40 f i libucrtd:output.obj
 0001:00052b90       ??$count@_W@formatting_buffer@__crt_stdio_output@@QEBA_KXZ 0000000180053b90 f i libucrtd:output.obj
 0001:00052be0       ??$data@D@formatting_buffer@__crt_stdio_output@@QEAAPEADXZ 0000000180053be0 f i libucrtd:output.obj
 0001:00052c30       ??$data@_W@formatting_buffer@__crt_stdio_output@@QEAAPEA_WXZ 0000000180053c30 f i libucrtd:output.obj
 0001:00052c80       ??$ensure_buffer_is_big_enough@D@formatting_buffer@__crt_stdio_output@@QEAA_N_K@Z 0000000180053c80 f i libucrtd:output.obj
 0001:00052db0       ??$ensure_buffer_is_big_enough@_W@formatting_buffer@__crt_stdio_output@@QEAA_N_K@Z 0000000180053db0 f i libucrtd:output.obj
 0001:00052ee0       ??$extract_argument_from_va_list@C_J@?$positional_parameter_base@DV?$stream_output_adapter@D@__crt_stdio_output@@@__crt_stdio_output@@IEAA_NAEA_J@Z 0000000180053ee0 f i libucrtd:output.obj
 0001:00053060       ??$extract_argument_from_va_list@C_J@?$positional_parameter_base@DV?$string_output_adapter@D@__crt_stdio_output@@@__crt_stdio_output@@IEAA_NAEA_J@Z 0000000180054060 f i libucrtd:output.obj
 0001:000531e0       ??$extract_argument_from_va_list@C_J@?$positional_parameter_base@_WV?$stream_output_adapter@_W@__crt_stdio_output@@@__crt_stdio_output@@IEAA_NAEA_J@Z 00000001800541e0 f i libucrtd:output.obj
 0001:00053360       ??$extract_argument_from_va_list@C_J@?$positional_parameter_base@_WV?$string_output_adapter@_W@__crt_stdio_output@@@__crt_stdio_output@@IEAA_NAEA_J@Z 0000000180054360 f i libucrtd:output.obj
 0001:000534e0       ??$extract_argument_from_va_list@C_J@?$standard_base@DV?$stream_output_adapter@D@__crt_stdio_output@@@__crt_stdio_output@@IEAA_NAEA_J@Z 00000001800544e0 f i libucrtd:output.obj
 0001:00053520       ??$extract_argument_from_va_list@C_J@?$standard_base@DV?$string_output_adapter@D@__crt_stdio_output@@@__crt_stdio_output@@IEAA_NAEA_J@Z 0000000180054520 f i libucrtd:output.obj
 0001:00053560       ??$extract_argument_from_va_list@C_J@?$standard_base@_WV?$stream_output_adapter@_W@__crt_stdio_output@@@__crt_stdio_output@@IEAA_NAEA_J@Z 0000000180054560 f i libucrtd:output.obj
 0001:000535a0       ??$extract_argument_from_va_list@C_J@?$standard_base@_WV?$string_output_adapter@_W@__crt_stdio_output@@@__crt_stdio_output@@IEAA_NAEA_J@Z 00000001800545a0 f i libucrtd:output.obj
 0001:000535e0       ??$extract_argument_from_va_list@E_J@?$positional_parameter_base@DV?$stream_output_adapter@D@__crt_stdio_output@@@__crt_stdio_output@@IEAA_NAEA_J@Z 00000001800545e0 f i libucrtd:output.obj
 0001:00053760       ??$extract_argument_from_va_list@E_J@?$positional_parameter_base@DV?$string_output_adapter@D@__crt_stdio_output@@@__crt_stdio_output@@IEAA_NAEA_J@Z 0000000180054760 f i libucrtd:output.obj
 0001:000538e0       ??$extract_argument_from_va_list@E_J@?$positional_parameter_base@_WV?$stream_output_adapter@_W@__crt_stdio_output@@@__crt_stdio_output@@IEAA_NAEA_J@Z 00000001800548e0 f i libucrtd:output.obj
 0001:00053a60       ??$extract_argument_from_va_list@E_J@?$positional_parameter_base@_WV?$string_output_adapter@_W@__crt_stdio_output@@@__crt_stdio_output@@IEAA_NAEA_J@Z 0000000180054a60 f i libucrtd:output.obj
 0001:00053be0       ??$extract_argument_from_va_list@E_J@?$standard_base@DV?$stream_output_adapter@D@__crt_stdio_output@@@__crt_stdio_output@@IEAA_NAEA_J@Z 0000000180054be0 f i libucrtd:output.obj
 0001:00053c20       ??$extract_argument_from_va_list@E_J@?$standard_base@DV?$string_output_adapter@D@__crt_stdio_output@@@__crt_stdio_output@@IEAA_NAEA_J@Z 0000000180054c20 f i libucrtd:output.obj
 0001:00053c60       ??$extract_argument_from_va_list@E_J@?$standard_base@_WV?$stream_output_adapter@_W@__crt_stdio_output@@@__crt_stdio_output@@IEAA_NAEA_J@Z 0000000180054c60 f i libucrtd:output.obj
 0001:00053ca0       ??$extract_argument_from_va_list@E_J@?$standard_base@_WV?$string_output_adapter@_W@__crt_stdio_output@@@__crt_stdio_output@@IEAA_NAEA_J@Z 0000000180054ca0 f i libucrtd:output.obj
 0001:00053ce0       ??$extract_argument_from_va_list@F_J@?$positional_parameter_base@DV?$stream_output_adapter@D@__crt_stdio_output@@@__crt_stdio_output@@IEAA_NAEA_J@Z 0000000180054ce0 f i libucrtd:output.obj
 0001:00053e60       ??$extract_argument_from_va_list@F_J@?$positional_parameter_base@DV?$string_output_adapter@D@__crt_stdio_output@@@__crt_stdio_output@@IEAA_NAEA_J@Z 0000000180054e60 f i libucrtd:output.obj
 0001:00053fe0       ??$extract_argument_from_va_list@F_J@?$positional_parameter_base@_WV?$stream_output_adapter@_W@__crt_stdio_output@@@__crt_stdio_output@@IEAA_NAEA_J@Z 0000000180054fe0 f i libucrtd:output.obj
 0001:00054160       ??$extract_argument_from_va_list@F_J@?$positional_parameter_base@_WV?$string_output_adapter@_W@__crt_stdio_output@@@__crt_stdio_output@@IEAA_NAEA_J@Z 0000000180055160 f i libucrtd:output.obj
 0001:000542e0       ??$extract_argument_from_va_list@F_J@?$standard_base@DV?$stream_output_adapter@D@__crt_stdio_output@@@__crt_stdio_output@@IEAA_NAEA_J@Z 00000001800552e0 f i libucrtd:output.obj
 0001:00054320       ??$extract_argument_from_va_list@F_J@?$standard_base@DV?$string_output_adapter@D@__crt_stdio_output@@@__crt_stdio_output@@IEAA_NAEA_J@Z 0000000180055320 f i libucrtd:output.obj
 0001:00054360       ??$extract_argument_from_va_list@F_J@?$standard_base@_WV?$stream_output_adapter@_W@__crt_stdio_output@@@__crt_stdio_output@@IEAA_NAEA_J@Z 0000000180055360 f i libucrtd:output.obj
 0001:000543a0       ??$extract_argument_from_va_list@F_J@?$standard_base@_WV?$string_output_adapter@_W@__crt_stdio_output@@@__crt_stdio_output@@IEAA_NAEA_J@Z 00000001800553a0 f i libucrtd:output.obj
 0001:000543e0       ??$extract_argument_from_va_list@GD@?$positional_parameter_base@DV?$stream_output_adapter@D@__crt_stdio_output@@@__crt_stdio_output@@IEAA_NAEAD@Z 00000001800553e0 f i libucrtd:output.obj
 0001:00054560       ??$extract_argument_from_va_list@GD@?$positional_parameter_base@DV?$string_output_adapter@D@__crt_stdio_output@@@__crt_stdio_output@@IEAA_NAEAD@Z 0000000180055560 f i libucrtd:output.obj
 0001:000546e0       ??$extract_argument_from_va_list@GD@?$standard_base@DV?$stream_output_adapter@D@__crt_stdio_output@@@__crt_stdio_output@@IEAA_NAEAD@Z 00000001800556e0 f i libucrtd:output.obj
 0001:00054710       ??$extract_argument_from_va_list@GD@?$standard_base@DV?$string_output_adapter@D@__crt_stdio_output@@@__crt_stdio_output@@IEAA_NAEAD@Z 0000000180055710 f i libucrtd:output.obj
 0001:00054740       ??$extract_argument_from_va_list@G_J@?$positional_parameter_base@DV?$stream_output_adapter@D@__crt_stdio_output@@@__crt_stdio_output@@IEAA_NAEA_J@Z 0000000180055740 f i libucrtd:output.obj
 0001:000548c0       ??$extract_argument_from_va_list@G_J@?$positional_parameter_base@DV?$string_output_adapter@D@__crt_stdio_output@@@__crt_stdio_output@@IEAA_NAEA_J@Z 00000001800558c0 f i libucrtd:output.obj
 0001:00054a40       ??$extract_argument_from_va_list@G_J@?$positional_parameter_base@_WV?$stream_output_adapter@_W@__crt_stdio_output@@@__crt_stdio_output@@IEAA_NAEA_J@Z 0000000180055a40 f i libucrtd:output.obj
 0001:00054bc0       ??$extract_argument_from_va_list@G_J@?$positional_parameter_base@_WV?$string_output_adapter@_W@__crt_stdio_output@@@__crt_stdio_output@@IEAA_NAEA_J@Z 0000000180055bc0 f i libucrtd:output.obj
 0001:00054d40       ??$extract_argument_from_va_list@G_J@?$standard_base@DV?$stream_output_adapter@D@__crt_stdio_output@@@__crt_stdio_output@@IEAA_NAEA_J@Z 0000000180055d40 f i libucrtd:output.obj
 0001:00054d80       ??$extract_argument_from_va_list@G_J@?$standard_base@DV?$string_output_adapter@D@__crt_stdio_output@@@__crt_stdio_output@@IEAA_NAEA_J@Z 0000000180055d80 f i libucrtd:output.obj
 0001:00054dc0       ??$extract_argument_from_va_list@G_J@?$standard_base@_WV?$stream_output_adapter@_W@__crt_stdio_output@@@__crt_stdio_output@@IEAA_NAEA_J@Z 0000000180055dc0 f i libucrtd:output.obj
 0001:00054e00       ??$extract_argument_from_va_list@G_J@?$standard_base@_WV?$string_output_adapter@_W@__crt_stdio_output@@@__crt_stdio_output@@IEAA_NAEA_J@Z 0000000180055e00 f i libucrtd:output.obj
 0001:00054e40       ??$extract_argument_from_va_list@H_J@?$positional_parameter_base@DV?$stream_output_adapter@D@__crt_stdio_output@@@__crt_stdio_output@@IEAA_NAEA_J@Z 0000000180055e40 f i libucrtd:output.obj
 0001:00054fc0       ??$extract_argument_from_va_list@H_J@?$positional_parameter_base@DV?$string_output_adapter@D@__crt_stdio_output@@@__crt_stdio_output@@IEAA_NAEA_J@Z 0000000180055fc0 f i libucrtd:output.obj
 0001:00055140       ??$extract_argument_from_va_list@H_J@?$positional_parameter_base@_WV?$stream_output_adapter@_W@__crt_stdio_output@@@__crt_stdio_output@@IEAA_NAEA_J@Z 0000000180056140 f i libucrtd:output.obj
 0001:000552c0       ??$extract_argument_from_va_list@H_J@?$positional_parameter_base@_WV?$string_output_adapter@_W@__crt_stdio_output@@@__crt_stdio_output@@IEAA_NAEA_J@Z 00000001800562c0 f i libucrtd:output.obj
 0001:00055440       ??$extract_argument_from_va_list@H_J@?$standard_base@DV?$stream_output_adapter@D@__crt_stdio_output@@@__crt_stdio_output@@IEAA_NAEA_J@Z 0000000180056440 f i libucrtd:output.obj
 0001:00055470       ??$extract_argument_from_va_list@H_J@?$standard_base@DV?$string_output_adapter@D@__crt_stdio_output@@@__crt_stdio_output@@IEAA_NAEA_J@Z 0000000180056470 f i libucrtd:output.obj
 0001:000554a0       ??$extract_argument_from_va_list@H_J@?$standard_base@_WV?$stream_output_adapter@_W@__crt_stdio_output@@@__crt_stdio_output@@IEAA_NAEA_J@Z 00000001800564a0 f i libucrtd:output.obj
 0001:000554d0       ??$extract_argument_from_va_list@H_J@?$standard_base@_WV?$string_output_adapter@_W@__crt_stdio_output@@@__crt_stdio_output@@IEAA_NAEA_J@Z 00000001800564d0 f i libucrtd:output.obj
 0001:00055500       ??$extract_argument_from_va_list@I_J@?$positional_parameter_base@DV?$stream_output_adapter@D@__crt_stdio_output@@@__crt_stdio_output@@IEAA_NAEA_J@Z 0000000180056500 f i libucrtd:output.obj
 0001:00055680       ??$extract_argument_from_va_list@I_J@?$positional_parameter_base@DV?$string_output_adapter@D@__crt_stdio_output@@@__crt_stdio_output@@IEAA_NAEA_J@Z 0000000180056680 f i libucrtd:output.obj
 0001:00055800       ??$extract_argument_from_va_list@I_J@?$positional_parameter_base@_WV?$stream_output_adapter@_W@__crt_stdio_output@@@__crt_stdio_output@@IEAA_NAEA_J@Z 0000000180056800 f i libucrtd:output.obj
 0001:00055980       ??$extract_argument_from_va_list@I_J@?$positional_parameter_base@_WV?$string_output_adapter@_W@__crt_stdio_output@@@__crt_stdio_output@@IEAA_NAEA_J@Z 0000000180056980 f i libucrtd:output.obj
 0001:00055b00       ??$extract_argument_from_va_list@I_J@?$standard_base@DV?$stream_output_adapter@D@__crt_stdio_output@@@__crt_stdio_output@@IEAA_NAEA_J@Z 0000000180056b00 f i libucrtd:output.obj
 0001:00055b30       ??$extract_argument_from_va_list@I_J@?$standard_base@DV?$string_output_adapter@D@__crt_stdio_output@@@__crt_stdio_output@@IEAA_NAEA_J@Z 0000000180056b30 f i libucrtd:output.obj
 0001:00055b60       ??$extract_argument_from_va_list@I_J@?$standard_base@_WV?$stream_output_adapter@_W@__crt_stdio_output@@@__crt_stdio_output@@IEAA_NAEA_J@Z 0000000180056b60 f i libucrtd:output.obj
 0001:00055b90       ??$extract_argument_from_va_list@I_J@?$standard_base@_WV?$string_output_adapter@_W@__crt_stdio_output@@@__crt_stdio_output@@IEAA_NAEA_J@Z 0000000180056b90 f i libucrtd:output.obj
 0001:00055bc0       ??$extract_argument_from_va_list@PEADPEAD@?$positional_parameter_base@DV?$stream_output_adapter@D@__crt_stdio_output@@@__crt_stdio_output@@IEAA_NAEAPEAD@Z 0000000180056bc0 f i libucrtd:output.obj
 0001:00055d40       ??$extract_argument_from_va_list@PEADPEAD@?$positional_parameter_base@DV?$string_output_adapter@D@__crt_stdio_output@@@__crt_stdio_output@@IEAA_NAEAPEAD@Z 0000000180056d40 f i libucrtd:output.obj
 0001:00055ec0       ??$extract_argument_from_va_list@PEADPEAD@?$positional_parameter_base@_WV?$stream_output_adapter@_W@__crt_stdio_output@@@__crt_stdio_output@@IEAA_NAEAPEAD@Z 0000000180056ec0 f i libucrtd:output.obj
 0001:00056040       ??$extract_argument_from_va_list@PEADPEAD@?$positional_parameter_base@_WV?$string_output_adapter@_W@__crt_stdio_output@@@__crt_stdio_output@@IEAA_NAEAPEAD@Z 0000000180057040 f i libucrtd:output.obj
 0001:000561c0       ??$extract_argument_from_va_list@PEADPEAD@?$standard_base@DV?$stream_output_adapter@D@__crt_stdio_output@@@__crt_stdio_output@@IEAA_NAEAPEAD@Z 00000001800571c0 f i libucrtd:output.obj
 0001:000561f0       ??$extract_argument_from_va_list@PEADPEAD@?$standard_base@DV?$string_output_adapter@D@__crt_stdio_output@@@__crt_stdio_output@@IEAA_NAEAPEAD@Z 00000001800571f0 f i libucrtd:output.obj
 0001:00056220       ??$extract_argument_from_va_list@PEADPEAD@?$standard_base@_WV?$stream_output_adapter@_W@__crt_stdio_output@@@__crt_stdio_output@@IEAA_NAEAPEAD@Z 0000000180057220 f i libucrtd:output.obj
 0001:00056250       ??$extract_argument_from_va_list@PEADPEAD@?$standard_base@_WV?$string_output_adapter@_W@__crt_stdio_output@@@__crt_stdio_output@@IEAA_NAEAPEAD@Z 0000000180057250 f i libucrtd:output.obj
 0001:00056ac0       ??$extract_argument_from_va_list@PEAXPEAX@?$positional_parameter_base@DV?$stream_output_adapter@D@__crt_stdio_output@@@__crt_stdio_output@@IEAA_NAEAPEAX@Z 0000000180057ac0 f i libucrtd:output.obj
 0001:00056c40       ??$extract_argument_from_va_list@PEAXPEAX@?$positional_parameter_base@DV?$string_output_adapter@D@__crt_stdio_output@@@__crt_stdio_output@@IEAA_NAEAPEAX@Z 0000000180057c40 f i libucrtd:output.obj
 0001:00056dc0       ??$extract_argument_from_va_list@PEAXPEAX@?$positional_parameter_base@_WV?$stream_output_adapter@_W@__crt_stdio_output@@@__crt_stdio_output@@IEAA_NAEAPEAX@Z 0000000180057dc0 f i libucrtd:output.obj
 0001:00056f40       ??$extract_argument_from_va_list@PEAXPEAX@?$positional_parameter_base@_WV?$string_output_adapter@_W@__crt_stdio_output@@@__crt_stdio_output@@IEAA_NAEAPEAX@Z 0000000180057f40 f i libucrtd:output.obj
 0001:000570c0       ??$extract_argument_from_va_list@PEAXPEAX@?$standard_base@DV?$stream_output_adapter@D@__crt_stdio_output@@@__crt_stdio_output@@IEAA_NAEAPEAX@Z 00000001800580c0 f i libucrtd:output.obj
 0001:000570f0       ??$extract_argument_from_va_list@PEAXPEAX@?$standard_base@DV?$string_output_adapter@D@__crt_stdio_output@@@__crt_stdio_output@@IEAA_NAEAPEAX@Z 00000001800580f0 f i libucrtd:output.obj
 0001:00057120       ??$extract_argument_from_va_list@PEAXPEAX@?$standard_base@_WV?$stream_output_adapter@_W@__crt_stdio_output@@@__crt_stdio_output@@IEAA_NAEAPEAX@Z 0000000180058120 f i libucrtd:output.obj
 0001:00057150       ??$extract_argument_from_va_list@PEAXPEAX@?$standard_base@_WV?$string_output_adapter@_W@__crt_stdio_output@@@__crt_stdio_output@@IEAA_NAEAPEAX@Z 0000000180058150 f i libucrtd:output.obj
 0001:00057180       ??$extract_argument_from_va_list@U_CRT_DOUBLE@@U1@@?$positional_parameter_base@DV?$stream_output_adapter@D@__crt_stdio_output@@@__crt_stdio_output@@IEAA_NAEAU_CRT_DOUBLE@@@Z 0000000180058180 f i libucrtd:output.obj
 0001:00057320       ??$extract_argument_from_va_list@U_CRT_DOUBLE@@U1@@?$positional_parameter_base@DV?$string_output_adapter@D@__crt_stdio_output@@@__crt_stdio_output@@IEAA_NAEAU_CRT_DOUBLE@@@Z 0000000180058320 f i libucrtd:output.obj
 0001:000574c0       ??$extract_argument_from_va_list@U_CRT_DOUBLE@@U1@@?$positional_parameter_base@_WV?$stream_output_adapter@_W@__crt_stdio_output@@@__crt_stdio_output@@IEAA_NAEAU_CRT_DOUBLE@@@Z 00000001800584c0 f i libucrtd:output.obj
 0001:00057660       ??$extract_argument_from_va_list@U_CRT_DOUBLE@@U1@@?$positional_parameter_base@_WV?$string_output_adapter@_W@__crt_stdio_output@@@__crt_stdio_output@@IEAA_NAEAU_CRT_DOUBLE@@@Z 0000000180058660 f i libucrtd:output.obj
 0001:00057800       ??$extract_argument_from_va_list@U_CRT_DOUBLE@@U1@@?$standard_base@DV?$stream_output_adapter@D@__crt_stdio_output@@@__crt_stdio_output@@IEAA_NAEAU_CRT_DOUBLE@@@Z 0000000180058800 f i libucrtd:output.obj
 0001:00057850       ??$extract_argument_from_va_list@U_CRT_DOUBLE@@U1@@?$standard_base@DV?$string_output_adapter@D@__crt_stdio_output@@@__crt_stdio_output@@IEAA_NAEAU_CRT_DOUBLE@@@Z 0000000180058850 f i libucrtd:output.obj
 0001:000578a0       ??$extract_argument_from_va_list@U_CRT_DOUBLE@@U1@@?$standard_base@_WV?$stream_output_adapter@_W@__crt_stdio_output@@@__crt_stdio_output@@IEAA_NAEAU_CRT_DOUBLE@@@Z 00000001800588a0 f i libucrtd:output.obj
 0001:000578f0       ??$extract_argument_from_va_list@U_CRT_DOUBLE@@U1@@?$standard_base@_WV?$string_output_adapter@_W@__crt_stdio_output@@@__crt_stdio_output@@IEAA_NAEAU_CRT_DOUBLE@@@Z 00000001800588f0 f i libucrtd:output.obj
 0001:00057940       ??$extract_argument_from_va_list@_J_J@?$positional_parameter_base@DV?$stream_output_adapter@D@__crt_stdio_output@@@__crt_stdio_output@@IEAA_NAEA_J@Z 0000000180058940 f i libucrtd:output.obj
 0001:00057ac0       ??$extract_argument_from_va_list@_J_J@?$positional_parameter_base@DV?$string_output_adapter@D@__crt_stdio_output@@@__crt_stdio_output@@IEAA_NAEA_J@Z 0000000180058ac0 f i libucrtd:output.obj
 0001:00057c40       ??$extract_argument_from_va_list@_J_J@?$positional_parameter_base@_WV?$stream_output_adapter@_W@__crt_stdio_output@@@__crt_stdio_output@@IEAA_NAEA_J@Z 0000000180058c40 f i libucrtd:output.obj
 0001:00057dc0       ??$extract_argument_from_va_list@_J_J@?$positional_parameter_base@_WV?$string_output_adapter@_W@__crt_stdio_output@@@__crt_stdio_output@@IEAA_NAEA_J@Z 0000000180058dc0 f i libucrtd:output.obj
 0001:00057f40       ??$extract_argument_from_va_list@_J_J@?$standard_base@DV?$stream_output_adapter@D@__crt_stdio_output@@@__crt_stdio_output@@IEAA_NAEA_J@Z 0000000180058f40 f i libucrtd:output.obj
 0001:00057f70       ??$extract_argument_from_va_list@_J_J@?$standard_base@DV?$string_output_adapter@D@__crt_stdio_output@@@__crt_stdio_output@@IEAA_NAEA_J@Z 0000000180058f70 f i libucrtd:output.obj
 0001:00057fa0       ??$extract_argument_from_va_list@_J_J@?$standard_base@_WV?$stream_output_adapter@_W@__crt_stdio_output@@@__crt_stdio_output@@IEAA_NAEA_J@Z 0000000180058fa0 f i libucrtd:output.obj
 0001:00057fd0       ??$extract_argument_from_va_list@_J_J@?$standard_base@_WV?$string_output_adapter@_W@__crt_stdio_output@@@__crt_stdio_output@@IEAA_NAEA_J@Z 0000000180058fd0 f i libucrtd:output.obj
 0001:00058000       ??$extract_argument_from_va_list@_K_J@?$positional_parameter_base@DV?$stream_output_adapter@D@__crt_stdio_output@@@__crt_stdio_output@@IEAA_NAEA_J@Z 0000000180059000 f i libucrtd:output.obj
 0001:00058180       ??$extract_argument_from_va_list@_K_J@?$positional_parameter_base@DV?$string_output_adapter@D@__crt_stdio_output@@@__crt_stdio_output@@IEAA_NAEA_J@Z 0000000180059180 f i libucrtd:output.obj
 0001:00058300       ??$extract_argument_from_va_list@_K_J@?$positional_parameter_base@_WV?$stream_output_adapter@_W@__crt_stdio_output@@@__crt_stdio_output@@IEAA_NAEA_J@Z 0000000180059300 f i libucrtd:output.obj
 0001:00058480       ??$extract_argument_from_va_list@_K_J@?$positional_parameter_base@_WV?$string_output_adapter@_W@__crt_stdio_output@@@__crt_stdio_output@@IEAA_NAEA_J@Z 0000000180059480 f i libucrtd:output.obj
 0001:00058600       ??$extract_argument_from_va_list@_K_J@?$standard_base@DV?$stream_output_adapter@D@__crt_stdio_output@@@__crt_stdio_output@@IEAA_NAEA_J@Z 0000000180059600 f i libucrtd:output.obj
 0001:00058630       ??$extract_argument_from_va_list@_K_J@?$standard_base@DV?$string_output_adapter@D@__crt_stdio_output@@@__crt_stdio_output@@IEAA_NAEA_J@Z 0000000180059630 f i libucrtd:output.obj
 0001:00058660       ??$extract_argument_from_va_list@_K_J@?$standard_base@_WV?$stream_output_adapter@_W@__crt_stdio_output@@@__crt_stdio_output@@IEAA_NAEA_J@Z 0000000180059660 f i libucrtd:output.obj
 0001:00058690       ??$extract_argument_from_va_list@_K_J@?$standard_base@_WV?$string_output_adapter@_W@__crt_stdio_output@@@__crt_stdio_output@@IEAA_NAEA_J@Z 0000000180059690 f i libucrtd:output.obj
 0001:000586c0       ??$extract_argument_from_va_list@_W_W@?$positional_parameter_base@DV?$stream_output_adapter@D@__crt_stdio_output@@@__crt_stdio_output@@IEAA_NAEA_W@Z 00000001800596c0 f i libucrtd:output.obj
 0001:00058840       ??$extract_argument_from_va_list@_W_W@?$positional_parameter_base@DV?$string_output_adapter@D@__crt_stdio_output@@@__crt_stdio_output@@IEAA_NAEA_W@Z 0000000180059840 f i libucrtd:output.obj
 0001:000589c0       ??$extract_argument_from_va_list@_W_W@?$positional_parameter_base@_WV?$stream_output_adapter@_W@__crt_stdio_output@@@__crt_stdio_output@@IEAA_NAEA_W@Z 00000001800599c0 f i libucrtd:output.obj
 0001:00058b40       ??$extract_argument_from_va_list@_W_W@?$positional_parameter_base@_WV?$string_output_adapter@_W@__crt_stdio_output@@@__crt_stdio_output@@IEAA_NAEA_W@Z 0000000180059b40 f i libucrtd:output.obj
 0001:00058cc0       ??$extract_argument_from_va_list@_W_W@?$standard_base@DV?$stream_output_adapter@D@__crt_stdio_output@@@__crt_stdio_output@@IEAA_NAEA_W@Z 0000000180059cc0 f i libucrtd:output.obj
 0001:00058cf0       ??$extract_argument_from_va_list@_W_W@?$standard_base@DV?$string_output_adapter@D@__crt_stdio_output@@@__crt_stdio_output@@IEAA_NAEA_W@Z 0000000180059cf0 f i libucrtd:output.obj
 0001:00058d20       ??$extract_argument_from_va_list@_W_W@?$standard_base@_WV?$stream_output_adapter@_W@__crt_stdio_output@@@__crt_stdio_output@@IEAA_NAEA_W@Z 0000000180059d20 f i libucrtd:output.obj
 0001:00058d50       ??$extract_argument_from_va_list@_W_W@?$standard_base@_WV?$string_output_adapter@_W@__crt_stdio_output@@@__crt_stdio_output@@IEAA_NAEA_W@Z 0000000180059d50 f i libucrtd:output.obj
 0001:00058d80       ??$get_parameter_type@D@?$positional_parameter_base@DV?$stream_output_adapter@D@__crt_stdio_output@@@__crt_stdio_output@@CA?AW4parameter_type@01@PEAD@Z 0000000180059d80 f i libucrtd:output.obj
 0001:00058d90       ??$get_parameter_type@D@?$positional_parameter_base@DV?$string_output_adapter@D@__crt_stdio_output@@@__crt_stdio_output@@CA?AW4parameter_type@01@PEAD@Z 0000000180059d90 f i libucrtd:output.obj
 0001:00058da0       ??$get_parameter_type@D@?$positional_parameter_base@_WV?$stream_output_adapter@_W@__crt_stdio_output@@@__crt_stdio_output@@CA?AW4parameter_type@01@PEAD@Z 0000000180059da0 f i libucrtd:output.obj
 0001:00058db0       ??$get_parameter_type@D@?$positional_parameter_base@_WV?$string_output_adapter@_W@__crt_stdio_output@@@__crt_stdio_output@@CA?AW4parameter_type@01@PEAD@Z 0000000180059db0 f i libucrtd:output.obj
 0001:00058e00       ??$get_parameter_type@X@?$positional_parameter_base@DV?$stream_output_adapter@D@__crt_stdio_output@@@__crt_stdio_output@@CA?AW4parameter_type@01@PEAX@Z 0000000180059e00 f i libucrtd:output.obj
 0001:00058e10       ??$get_parameter_type@X@?$positional_parameter_base@DV?$string_output_adapter@D@__crt_stdio_output@@@__crt_stdio_output@@CA?AW4parameter_type@01@PEAX@Z 0000000180059e10 f i libucrtd:output.obj
 0001:00058e20       ??$get_parameter_type@X@?$positional_parameter_base@_WV?$stream_output_adapter@_W@__crt_stdio_output@@@__crt_stdio_output@@CA?AW4parameter_type@01@PEAX@Z 0000000180059e20 f i libucrtd:output.obj
 0001:00058e30       ??$get_parameter_type@X@?$positional_parameter_base@_WV?$string_output_adapter@_W@__crt_stdio_output@@@__crt_stdio_output@@CA?AW4parameter_type@01@PEAX@Z 0000000180059e30 f i libucrtd:output.obj
 0001:00058e40       ??$is_character_specifier@D@?$positional_parameter_base@DV?$stream_output_adapter@D@__crt_stdio_output@@@__crt_stdio_output@@CA_ND@Z 0000000180059e40 f i libucrtd:output.obj
 0001:00058e80       ??$is_character_specifier@D@?$positional_parameter_base@DV?$string_output_adapter@D@__crt_stdio_output@@@__crt_stdio_output@@CA_ND@Z 0000000180059e80 f i libucrtd:output.obj
 0001:00058ec0       ??$is_character_specifier@_W@?$positional_parameter_base@_WV?$stream_output_adapter@_W@__crt_stdio_output@@@__crt_stdio_output@@CA_N_W@Z 0000000180059ec0 f i libucrtd:output.obj
 0001:00058f00       ??$is_character_specifier@_W@?$positional_parameter_base@_WV?$string_output_adapter@_W@__crt_stdio_output@@@__crt_stdio_output@@CA_N_W@Z 0000000180059f00 f i libucrtd:output.obj
 0001:00058f40       ??$is_integral_specifier@D@?$positional_parameter_base@DV?$stream_output_adapter@D@__crt_stdio_output@@@__crt_stdio_output@@CA_ND@Z 0000000180059f40 f i libucrtd:output.obj
 0001:00058fb0       ??$is_integral_specifier@D@?$positional_parameter_base@DV?$string_output_adapter@D@__crt_stdio_output@@@__crt_stdio_output@@CA_ND@Z 0000000180059fb0 f i libucrtd:output.obj
 0001:00059020       ??$is_integral_specifier@_W@?$positional_parameter_base@_WV?$stream_output_adapter@_W@__crt_stdio_output@@@__crt_stdio_output@@CA_N_W@Z 000000018005a020 f i libucrtd:output.obj
 0001:00059090       ??$is_integral_specifier@_W@?$positional_parameter_base@_WV?$string_output_adapter@_W@__crt_stdio_output@@@__crt_stdio_output@@CA_N_W@Z 000000018005a090 f i libucrtd:output.obj
 0001:00059100       ??$is_pointer_specifier@D@?$positional_parameter_base@DV?$stream_output_adapter@D@__crt_stdio_output@@@__crt_stdio_output@@CA_ND@Z 000000018005a100 f i libucrtd:output.obj
 0001:00059130       ??$is_pointer_specifier@D@?$positional_parameter_base@DV?$string_output_adapter@D@__crt_stdio_output@@@__crt_stdio_output@@CA_ND@Z 000000018005a130 f i libucrtd:output.obj
 0001:00059160       ??$is_pointer_specifier@_W@?$positional_parameter_base@_WV?$stream_output_adapter@_W@__crt_stdio_output@@@__crt_stdio_output@@CA_N_W@Z 000000018005a160 f i libucrtd:output.obj
 0001:00059190       ??$is_pointer_specifier@_W@?$positional_parameter_base@_WV?$string_output_adapter@_W@__crt_stdio_output@@@__crt_stdio_output@@CA_N_W@Z 000000018005a190 f i libucrtd:output.obj
 0001:000591c0       ??$is_string_specifier@D@?$positional_parameter_base@DV?$stream_output_adapter@D@__crt_stdio_output@@@__crt_stdio_output@@CA_ND@Z 000000018005a1c0 f i libucrtd:output.obj
 0001:00059200       ??$is_string_specifier@D@?$positional_parameter_base@DV?$string_output_adapter@D@__crt_stdio_output@@@__crt_stdio_output@@CA_ND@Z 000000018005a200 f i libucrtd:output.obj
 0001:00059240       ??$is_string_specifier@_W@?$positional_parameter_base@_WV?$stream_output_adapter@_W@__crt_stdio_output@@@__crt_stdio_output@@CA_N_W@Z 000000018005a240 f i libucrtd:output.obj
 0001:00059280       ??$is_string_specifier@_W@?$positional_parameter_base@_WV?$string_output_adapter@_W@__crt_stdio_output@@@__crt_stdio_output@@CA_N_W@Z 000000018005a280 f i libucrtd:output.obj
 0001:000592c0       ??$is_wide_character_specifier@D@__crt_stdio_output@@YA_N_KDW4length_modifier@0@@Z 000000018005a2c0 f i libucrtd:output.obj
 0001:00059360       ??$is_wide_character_specifier@_W@__crt_stdio_output@@YA_N_K_WW4length_modifier@0@@Z 000000018005a360 f i libucrtd:output.obj
 0001:00059430       ??$peek_va_arg@C@__crt_stdio_output@@YACPEAD@Z 000000018005a430 f i libucrtd:output.obj
 0001:00059490       ??$peek_va_arg@E@__crt_stdio_output@@YAEPEAD@Z 000000018005a490 f i libucrtd:output.obj
 0001:000594f0       ??$peek_va_arg@F@__crt_stdio_output@@YAFPEAD@Z 000000018005a4f0 f i libucrtd:output.obj
 0001:00059550       ??$peek_va_arg@G@__crt_stdio_output@@YAGPEAD@Z 000000018005a550 f i libucrtd:output.obj
 0001:000595b0       ??$peek_va_arg@H@__crt_stdio_output@@YAHPEAD@Z 000000018005a5b0 f i libucrtd:output.obj
 0001:00059600       ??$peek_va_arg@I@__crt_stdio_output@@YAIPEAD@Z 000000018005a600 f i libucrtd:output.obj
 0001:00059650       ??$peek_va_arg@PEAD@__crt_stdio_output@@YAPEADPEAD@Z 000000018005a650 f i libucrtd:output.obj
 0001:00059830       ??$peek_va_arg@PEAX@__crt_stdio_output@@YAPEAXPEAD@Z 000000018005a830 f i libucrtd:output.obj
 0001:00059890       ??$peek_va_arg@U_CRT_DOUBLE@@@__crt_stdio_output@@YA?AU_CRT_DOUBLE@@PEAD@Z 000000018005a890 f i libucrtd:output.obj
 0001:000598f0       ??$peek_va_arg@_J@__crt_stdio_output@@YA_JPEAD@Z 000000018005a8f0 f i libucrtd:output.obj
 0001:00059950       ??$peek_va_arg@_K@__crt_stdio_output@@YA_KPEAD@Z 000000018005a950 f i libucrtd:output.obj
 0001:000599b0       ??$peek_va_arg@_W@__crt_stdio_output@@YA_WPEAD@Z 000000018005a9b0 f i libucrtd:output.obj
 0001:00059a10       ??$puttc_nolock@AEBDPEAU_iobuf@@@?$__crt_char_traits@D@@SAHAEBD$$QEAPEAU_iobuf@@@Z 000000018005aa10 f i libucrtd:output.obj
 0001:00059a40       ??$puttc_nolock@AEB_WPEAU_iobuf@@@?$__crt_char_traits@_W@@SAGAEB_W$$QEAPEAU_iobuf@@@Z 000000018005aa40 f i libucrtd:output.obj
 0001:00059a70       ??$read_va_arg@C@__crt_stdio_output@@YACAEAPEAD@Z 000000018005aa70 f i libucrtd:output.obj
 0001:00059ae0       ??$read_va_arg@E@__crt_stdio_output@@YAEAEAPEAD@Z 000000018005aae0 f i libucrtd:output.obj
 0001:00059b50       ??$read_va_arg@F@__crt_stdio_output@@YAFAEAPEAD@Z 000000018005ab50 f i libucrtd:output.obj
 0001:00059bc0       ??$read_va_arg@G@__crt_stdio_output@@YAGAEAPEAD@Z 000000018005abc0 f i libucrtd:output.obj
 0001:00059c30       ??$read_va_arg@H@__crt_stdio_output@@YAHAEAPEAD@Z 000000018005ac30 f i libucrtd:output.obj
 0001:00059c90       ??$read_va_arg@I@__crt_stdio_output@@YAIAEAPEAD@Z 000000018005ac90 f i libucrtd:output.obj
 0001:00059cf0       ??$read_va_arg@PEAD@__crt_stdio_output@@YAPEADAEAPEAD@Z 000000018005acf0 f i libucrtd:output.obj
 0001:0005a2a0       ??$read_va_arg@PEAX@__crt_stdio_output@@YAPEAXAEAPEAD@Z 000000018005b2a0 f i libucrtd:output.obj
 0001:0005a310       ??$read_va_arg@U_CRT_DOUBLE@@@__crt_stdio_output@@YA?AU_CRT_DOUBLE@@AEAPEAD@Z 000000018005b310 f i libucrtd:output.obj
 0001:0005a380       ??$read_va_arg@_J@__crt_stdio_output@@YA_JAEAPEAD@Z 000000018005b380 f i libucrtd:output.obj
 0001:0005a3f0       ??$read_va_arg@_K@__crt_stdio_output@@YA_KAEAPEAD@Z 000000018005b3f0 f i libucrtd:output.obj
 0001:0005a460       ??$read_va_arg@_W@__crt_stdio_output@@YA_WAEAPEAD@Z 000000018005b460 f i libucrtd:output.obj
 0001:0005a4d0       ??$scratch_count@D@formatting_buffer@__crt_stdio_output@@QEBA_KXZ 000000018005b4d0 f i libucrtd:output.obj
 0001:0005a4f0       ??$scratch_data@D@formatting_buffer@__crt_stdio_output@@QEAAPEADXZ 000000018005b4f0 f i libucrtd:output.obj
 0001:0005a560       ??$tcstol@AEAPEBDPEAPEADH@?$__crt_char_traits@D@@SAJAEAPEBD$$QEAPEAPEAD$$QEAH@Z 000000018005b560 f i libucrtd:output.obj
 0001:0005a5a0       ??$tcstol@AEAPEB_WPEAPEA_WH@?$__crt_char_traits@_W@@SAJAEAPEB_W$$QEAPEAPEA_W$$QEAH@Z 000000018005b5a0 f i libucrtd:output.obj
 0001:0005a5e0       ??$tcstol@PEBDPEAPEADH@?$__crt_char_traits@D@@SAJ$$QEAPEBD$$QEAPEAPEAD$$QEAH@Z 000000018005b5e0 f i libucrtd:output.obj
 0001:0005a620       ??$tcstol@PEB_WPEAPEA_WH@?$__crt_char_traits@_W@@SAJ$$QEAPEB_W$$QEAPEAPEA_W$$QEAH@Z 000000018005b620 f i libucrtd:output.obj
 0001:0005a660       ??$type_case_integer_parse_into_buffer@I@?$output_processor@DV?$stream_output_adapter@D@__crt_stdio_output@@V?$format_validation_base@DV?$stream_output_adapter@D@__crt_stdio_output@@@2@@__crt_stdio_output@@AEAAXII_N@Z 000000018005b660 f i libucrtd:output.obj
 0001:0005a790       ??$type_case_integer_parse_into_buffer@I@?$output_processor@DV?$stream_output_adapter@D@__crt_stdio_output@@V?$positional_parameter_base@DV?$stream_output_adapter@D@__crt_stdio_output@@@2@@__crt_stdio_output@@AEAAXII_N@Z 000000018005b790 f i libucrtd:output.obj
 0001:0005a8c0       ??$type_case_integer_parse_into_buffer@I@?$output_processor@DV?$stream_output_adapter@D@__crt_stdio_output@@V?$standard_base@DV?$stream_output_adapter@D@__crt_stdio_output@@@2@@__crt_stdio_output@@AEAAXII_N@Z 000000018005b8c0 f i libucrtd:output.obj
 0001:0005a9f0       ??$type_case_integer_parse_into_buffer@I@?$output_processor@DV?$string_output_adapter@D@__crt_stdio_output@@V?$format_validation_base@DV?$string_output_adapter@D@__crt_stdio_output@@@2@@__crt_stdio_output@@AEAAXII_N@Z 000000018005b9f0 f i libucrtd:output.obj
 0001:0005ab20       ??$type_case_integer_parse_into_buffer@I@?$output_processor@DV?$string_output_adapter@D@__crt_stdio_output@@V?$positional_parameter_base@DV?$string_output_adapter@D@__crt_stdio_output@@@2@@__crt_stdio_output@@AEAAXII_N@Z 000000018005bb20 f i libucrtd:output.obj
 0001:0005ac50       ??$type_case_integer_parse_into_buffer@I@?$output_processor@DV?$string_output_adapter@D@__crt_stdio_output@@V?$standard_base@DV?$string_output_adapter@D@__crt_stdio_output@@@2@@__crt_stdio_output@@AEAAXII_N@Z 000000018005bc50 f i libucrtd:output.obj
 0001:0005ad80       ??$type_case_integer_parse_into_buffer@I@?$output_processor@_WV?$stream_output_adapter@_W@__crt_stdio_output@@V?$format_validation_base@_WV?$stream_output_adapter@_W@__crt_stdio_output@@@2@@__crt_stdio_output@@AEAAXII_N@Z 000000018005bd80 f i libucrtd:output.obj
 0001:0005aec0       ??$type_case_integer_parse_into_buffer@I@?$output_processor@_WV?$stream_output_adapter@_W@__crt_stdio_output@@V?$positional_parameter_base@_WV?$stream_output_adapter@_W@__crt_stdio_output@@@2@@__crt_stdio_output@@AEAAXII_N@Z 000000018005bec0 f i libucrtd:output.obj
 0001:0005b000       ??$type_case_integer_parse_into_buffer@I@?$output_processor@_WV?$stream_output_adapter@_W@__crt_stdio_output@@V?$standard_base@_WV?$stream_output_adapter@_W@__crt_stdio_output@@@2@@__crt_stdio_output@@AEAAXII_N@Z 000000018005c000 f i libucrtd:output.obj
 0001:0005b140       ??$type_case_integer_parse_into_buffer@I@?$output_processor@_WV?$string_output_adapter@_W@__crt_stdio_output@@V?$format_validation_base@_WV?$string_output_adapter@_W@__crt_stdio_output@@@2@@__crt_stdio_output@@AEAAXII_N@Z 000000018005c140 f i libucrtd:output.obj
 0001:0005b280       ??$type_case_integer_parse_into_buffer@I@?$output_processor@_WV?$string_output_adapter@_W@__crt_stdio_output@@V?$positional_parameter_base@_WV?$string_output_adapter@_W@__crt_stdio_output@@@2@@__crt_stdio_output@@AEAAXII_N@Z 000000018005c280 f i libucrtd:output.obj
 0001:0005b3c0       ??$type_case_integer_parse_into_buffer@I@?$output_processor@_WV?$string_output_adapter@_W@__crt_stdio_output@@V?$standard_base@_WV?$string_output_adapter@_W@__crt_stdio_output@@@2@@__crt_stdio_output@@AEAAXII_N@Z 000000018005c3c0 f i libucrtd:output.obj
 0001:0005b500       ??$type_case_integer_parse_into_buffer@_K@?$output_processor@DV?$stream_output_adapter@D@__crt_stdio_output@@V?$format_validation_base@DV?$stream_output_adapter@D@__crt_stdio_output@@@2@@__crt_stdio_output@@AEAAX_KI_N@Z 000000018005c500 f i libucrtd:output.obj
 0001:0005b650       ??$type_case_integer_parse_into_buffer@_K@?$output_processor@DV?$stream_output_adapter@D@__crt_stdio_output@@V?$positional_parameter_base@DV?$stream_output_adapter@D@__crt_stdio_output@@@2@@__crt_stdio_output@@AEAAX_KI_N@Z 000000018005c650 f i libucrtd:output.obj
 0001:0005b7a0       ??$type_case_integer_parse_into_buffer@_K@?$output_processor@DV?$stream_output_adapter@D@__crt_stdio_output@@V?$standard_base@DV?$stream_output_adapter@D@__crt_stdio_output@@@2@@__crt_stdio_output@@AEAAX_KI_N@Z 000000018005c7a0 f i libucrtd:output.obj
 0001:0005b8f0       ??$type_case_integer_parse_into_buffer@_K@?$output_processor@DV?$string_output_adapter@D@__crt_stdio_output@@V?$format_validation_base@DV?$string_output_adapter@D@__crt_stdio_output@@@2@@__crt_stdio_output@@AEAAX_KI_N@Z 000000018005c8f0 f i libucrtd:output.obj
 0001:0005ba40       ??$type_case_integer_parse_into_buffer@_K@?$output_processor@DV?$string_output_adapter@D@__crt_stdio_output@@V?$positional_parameter_base@DV?$string_output_adapter@D@__crt_stdio_output@@@2@@__crt_stdio_output@@AEAAX_KI_N@Z 000000018005ca40 f i libucrtd:output.obj
 0001:0005bb90       ??$type_case_integer_parse_into_buffer@_K@?$output_processor@DV?$string_output_adapter@D@__crt_stdio_output@@V?$standard_base@DV?$string_output_adapter@D@__crt_stdio_output@@@2@@__crt_stdio_output@@AEAAX_KI_N@Z 000000018005cb90 f i libucrtd:output.obj
 0001:0005bce0       ??$type_case_integer_parse_into_buffer@_K@?$output_processor@_WV?$stream_output_adapter@_W@__crt_stdio_output@@V?$format_validation_base@_WV?$stream_output_adapter@_W@__crt_stdio_output@@@2@@__crt_stdio_output@@AEAAX_KI_N@Z 000000018005cce0 f i libucrtd:output.obj
 0001:0005be40       ??$type_case_integer_parse_into_buffer@_K@?$output_processor@_WV?$stream_output_adapter@_W@__crt_stdio_output@@V?$positional_parameter_base@_WV?$stream_output_adapter@_W@__crt_stdio_output@@@2@@__crt_stdio_output@@AEAAX_KI_N@Z 000000018005ce40 f i libucrtd:output.obj
 0001:0005bfa0       ??$type_case_integer_parse_into_buffer@_K@?$output_processor@_WV?$stream_output_adapter@_W@__crt_stdio_output@@V?$standard_base@_WV?$stream_output_adapter@_W@__crt_stdio_output@@@2@@__crt_stdio_output@@AEAAX_KI_N@Z 000000018005cfa0 f i libucrtd:output.obj
 0001:0005c100       ??$type_case_integer_parse_into_buffer@_K@?$output_processor@_WV?$string_output_adapter@_W@__crt_stdio_output@@V?$format_validation_base@_WV?$string_output_adapter@_W@__crt_stdio_output@@@2@@__crt_stdio_output@@AEAAX_KI_N@Z 000000018005d100 f i libucrtd:output.obj
 0001:0005c260       ??$type_case_integer_parse_into_buffer@_K@?$output_processor@_WV?$string_output_adapter@_W@__crt_stdio_output@@V?$positional_parameter_base@_WV?$string_output_adapter@_W@__crt_stdio_output@@@2@@__crt_stdio_output@@AEAAX_KI_N@Z 000000018005d260 f i libucrtd:output.obj
 0001:0005c3c0       ??$type_case_integer_parse_into_buffer@_K@?$output_processor@_WV?$string_output_adapter@_W@__crt_stdio_output@@V?$standard_base@_WV?$string_output_adapter@_W@__crt_stdio_output@@@2@@__crt_stdio_output@@AEAAX_KI_N@Z 000000018005d3c0 f i libucrtd:output.obj
 0001:0005c520       ??$write_multiple_characters@V?$stream_output_adapter@D@__crt_stdio_output@@D@__crt_stdio_output@@YAXAEBV?$stream_output_adapter@D@0@DHQEAH@Z 000000018005d520 f i libucrtd:output.obj
 0001:0005c580       ??$write_multiple_characters@V?$stream_output_adapter@_W@__crt_stdio_output@@D@__crt_stdio_output@@YAXAEBV?$stream_output_adapter@_W@0@DHQEAH@Z 000000018005d580 f i libucrtd:output.obj
 0001:0005c5e0       ??$write_multiple_characters@V?$string_output_adapter@D@__crt_stdio_output@@D@__crt_stdio_output@@YAXAEBV?$string_output_adapter@D@0@DHQEAH@Z 000000018005d5e0 f i libucrtd:output.obj
 0001:0005c640       ??$write_multiple_characters@V?$string_output_adapter@_W@__crt_stdio_output@@D@__crt_stdio_output@@YAXAEBV?$string_output_adapter@_W@0@DHQEAH@Z 000000018005d640 f i libucrtd:output.obj
 0001:0005ca60       ??0?$common_data@D@__crt_stdio_output@@IEAA@XZ 000000018005da60 f i libucrtd:output.obj
 0001:0005cb30       ??0?$common_data@_W@__crt_stdio_output@@IEAA@XZ 000000018005db30 f i libucrtd:output.obj
 0001:0005cc00       ??0?$output_adapter_data@DV?$stream_output_adapter@D@__crt_stdio_output@@@__crt_stdio_output@@IEAA@AEBV?$stream_output_adapter@D@1@_KQEBDQEAU__crt_locale_pointers@@QEAD@Z 000000018005dc00 f i libucrtd:output.obj
 0001:0005cc80       ??0?$output_adapter_data@DV?$string_output_adapter@D@__crt_stdio_output@@@__crt_stdio_output@@IEAA@AEBV?$string_output_adapter@D@1@_KQEBDQEAU__crt_locale_pointers@@QEAD@Z 000000018005dc80 f i libucrtd:output.obj
 0001:0005cd00       ??0?$output_adapter_data@_WV?$stream_output_adapter@_W@__crt_stdio_output@@@__crt_stdio_output@@IEAA@AEBV?$stream_output_adapter@_W@1@_KQEB_WQEAU__crt_locale_pointers@@QEAD@Z 000000018005dd00 f i libucrtd:output.obj
 0001:0005cd80       ??0?$output_adapter_data@_WV?$string_output_adapter@_W@__crt_stdio_output@@@__crt_stdio_output@@IEAA@AEBV?$string_output_adapter@_W@1@_KQEB_WQEAU__crt_locale_pointers@@QEAD@Z 000000018005dd80 f i libucrtd:output.obj
 0001:0005ce00       ??0?$output_processor@DV?$stream_output_adapter@D@__crt_stdio_output@@V?$format_validation_base@DV?$stream_output_adapter@D@__crt_stdio_output@@@2@@__crt_stdio_output@@QEAA@AEBV?$stream_output_adapter@D@1@_KQEBDQEAU__crt_locale_pointers@@QEAD@Z 000000018005de00 f i libucrtd:output.obj
 0001:0005ce50       ??0?$output_processor@DV?$stream_output_adapter@D@__crt_stdio_output@@V?$positional_parameter_base@DV?$stream_output_adapter@D@__crt_stdio_output@@@2@@__crt_stdio_output@@QEAA@AEBV?$stream_output_adapter@D@1@_KQEBDQEAU__crt_locale_pointers@@QEAD@Z 000000018005de50 f i libucrtd:output.obj
 0001:0005cea0       ??0?$output_processor@DV?$stream_output_adapter@D@__crt_stdio_output@@V?$standard_base@DV?$stream_output_adapter@D@__crt_stdio_output@@@2@@__crt_stdio_output@@QEAA@AEBV?$stream_output_adapter@D@1@_KQEBDQEAU__crt_locale_pointers@@QEAD@Z 000000018005dea0 f i libucrtd:output.obj
 0001:0005cef0       ??0?$output_processor@DV?$string_output_adapter@D@__crt_stdio_output@@V?$format_validation_base@DV?$string_output_adapter@D@__crt_stdio_output@@@2@@__crt_stdio_output@@QEAA@AEBV?$string_output_adapter@D@1@_KQEBDQEAU__crt_locale_pointers@@QEAD@Z 000000018005def0 f i libucrtd:output.obj
 0001:0005cf40       ??0?$output_processor@DV?$string_output_adapter@D@__crt_stdio_output@@V?$positional_parameter_base@DV?$string_output_adapter@D@__crt_stdio_output@@@2@@__crt_stdio_output@@QEAA@AEBV?$string_output_adapter@D@1@_KQEBDQEAU__crt_locale_pointers@@QEAD@Z 000000018005df40 f i libucrtd:output.obj
 0001:0005cf90       ??0?$output_processor@DV?$string_output_adapter@D@__crt_stdio_output@@V?$standard_base@DV?$string_output_adapter@D@__crt_stdio_output@@@2@@__crt_stdio_output@@QEAA@AEBV?$string_output_adapter@D@1@_KQEBDQEAU__crt_locale_pointers@@QEAD@Z 000000018005df90 f i libucrtd:output.obj
 0001:0005cfe0       ??0?$output_processor@_WV?$stream_output_adapter@_W@__crt_stdio_output@@V?$format_validation_base@_WV?$stream_output_adapter@_W@__crt_stdio_output@@@2@@__crt_stdio_output@@QEAA@AEBV?$stream_output_adapter@_W@1@_KQEB_WQEAU__crt_locale_pointers@@QEAD@Z 000000018005dfe0 f i libucrtd:output.obj
 0001:0005d030       ??0?$output_processor@_WV?$stream_output_adapter@_W@__crt_stdio_output@@V?$positional_parameter_base@_WV?$stream_output_adapter@_W@__crt_stdio_output@@@2@@__crt_stdio_output@@QEAA@AEBV?$stream_output_adapter@_W@1@_KQEB_WQEAU__crt_locale_pointers@@QEAD@Z 000000018005e030 f i libucrtd:output.obj
 0001:0005d080       ??0?$output_processor@_WV?$stream_output_adapter@_W@__crt_stdio_output@@V?$standard_base@_WV?$stream_output_adapter@_W@__crt_stdio_output@@@2@@__crt_stdio_output@@QEAA@AEBV?$stream_output_adapter@_W@1@_KQEB_WQEAU__crt_locale_pointers@@QEAD@Z 000000018005e080 f i libucrtd:output.obj
 0001:0005d0d0       ??0?$output_processor@_WV?$string_output_adapter@_W@__crt_stdio_output@@V?$format_validation_base@_WV?$string_output_adapter@_W@__crt_stdio_output@@@2@@__crt_stdio_output@@QEAA@AEBV?$string_output_adapter@_W@1@_KQEB_WQEAU__crt_locale_pointers@@QEAD@Z 000000018005e0d0 f i libucrtd:output.obj
 0001:0005d120       ??0?$output_processor@_WV?$string_output_adapter@_W@__crt_stdio_output@@V?$positional_parameter_base@_WV?$string_output_adapter@_W@__crt_stdio_output@@@2@@__crt_stdio_output@@QEAA@AEBV?$string_output_adapter@_W@1@_KQEB_WQEAU__crt_locale_pointers@@QEAD@Z 000000018005e120 f i libucrtd:output.obj
 0001:0005d170       ??0?$output_processor@_WV?$string_output_adapter@_W@__crt_stdio_output@@V?$standard_base@_WV?$string_output_adapter@_W@__crt_stdio_output@@@2@@__crt_stdio_output@@QEAA@AEBV?$string_output_adapter@_W@1@_KQEB_WQEAU__crt_locale_pointers@@QEAD@Z 000000018005e170 f i libucrtd:output.obj
 0001:0005d1c0       ??0?$stream_output_adapter@D@__crt_stdio_output@@QEAA@QEAU_iobuf@@@Z 000000018005e1c0 f i libucrtd:output.obj
 0001:0005d1f0       ??0?$stream_output_adapter@_W@__crt_stdio_output@@QEAA@QEAU_iobuf@@@Z 000000018005e1f0 f i libucrtd:output.obj
 0001:0005d220       ??0?$string_output_adapter@D@__crt_stdio_output@@QEAA@QEAU?$string_output_adapter_context@D@1@@Z 000000018005e220 f i libucrtd:output.obj
 0001:0005d240       ??0?$string_output_adapter@_W@__crt_stdio_output@@QEAA@QEAU?$string_output_adapter_context@_W@1@@Z 000000018005e240 f i libucrtd:output.obj
 0001:0005d260       ??0_LocaleUpdate@@QEAA@QEAU__crt_locale_pointers@@@Z 000000018005e260 f i libucrtd:output.obj
 0001:0005d380       ??0__acrt_stdio_temporary_buffering_guard@@QEAA@QEAU_iobuf@@@Z 000000018005e380 f i libucrtd:output.obj
 0001:0005d3c0       ??0__crt_deferred_errno_cache@@QEAA@XZ 000000018005e3c0 f i libucrtd:output.obj
 0001:0005d3e0       ??0__crt_errno_guard@@QEAA@QEAH@Z 000000018005e3e0 f i libucrtd:output.obj
 0001:0005d420       ??0__crt_stdio_stream@@QEAA@QEAU_iobuf@@@Z 000000018005e420 f i libucrtd:output.obj
 0001:0005d440       ??0formatting_buffer@__crt_stdio_output@@QEAA@XZ 000000018005e440 f i libucrtd:output.obj
 0001:0005d480       ??1?$common_data@D@__crt_stdio_output@@QEAA@XZ 000000018005e480 f i libucrtd:output.obj
 0001:0005d4a0       ??1?$common_data@_W@__crt_stdio_output@@QEAA@XZ 000000018005e4a0 f i libucrtd:output.obj
 0001:0005d4c0       ??1?$format_validation_base@DV?$stream_output_adapter@D@__crt_stdio_output@@@__crt_stdio_output@@QEAA@XZ 000000018005e4c0 f i libucrtd:output.obj
 0001:0005d4e0       ??1?$format_validation_base@DV?$string_output_adapter@D@__crt_stdio_output@@@__crt_stdio_output@@QEAA@XZ 000000018005e4e0 f i libucrtd:output.obj
 0001:0005d500       ??1?$format_validation_base@_WV?$stream_output_adapter@_W@__crt_stdio_output@@@__crt_stdio_output@@QEAA@XZ 000000018005e500 f i libucrtd:output.obj
 0001:0005d520       ??1?$format_validation_base@_WV?$string_output_adapter@_W@__crt_stdio_output@@@__crt_stdio_output@@QEAA@XZ 000000018005e520 f i libucrtd:output.obj
 0001:0005d540       ??1?$output_adapter_data@DV?$stream_output_adapter@D@__crt_stdio_output@@@__crt_stdio_output@@QEAA@XZ 000000018005e540 f i libucrtd:output.obj
 0001:0005d560       ??1?$output_adapter_data@DV?$string_output_adapter@D@__crt_stdio_output@@@__crt_stdio_output@@QEAA@XZ 000000018005e560 f i libucrtd:output.obj
 0001:0005d580       ??1?$output_adapter_data@_WV?$stream_output_adapter@_W@__crt_stdio_output@@@__crt_stdio_output@@QEAA@XZ 000000018005e580 f i libucrtd:output.obj
 0001:0005d5a0       ??1?$output_adapter_data@_WV?$string_output_adapter@_W@__crt_stdio_output@@@__crt_stdio_output@@QEAA@XZ 000000018005e5a0 f i libucrtd:output.obj
 0001:0005d5c0       ??1?$output_processor@DV?$stream_output_adapter@D@__crt_stdio_output@@V?$format_validation_base@DV?$stream_output_adapter@D@__crt_stdio_output@@@2@@__crt_stdio_output@@QEAA@XZ 000000018005e5c0 f i libucrtd:output.obj
 0001:0005d5e0       ??1?$output_processor@DV?$stream_output_adapter@D@__crt_stdio_output@@V?$positional_parameter_base@DV?$stream_output_adapter@D@__crt_stdio_output@@@2@@__crt_stdio_output@@QEAA@XZ 000000018005e5e0 f i libucrtd:output.obj
 0001:0005d600       ??1?$output_processor@DV?$stream_output_adapter@D@__crt_stdio_output@@V?$standard_base@DV?$stream_output_adapter@D@__crt_stdio_output@@@2@@__crt_stdio_output@@QEAA@XZ 000000018005e600 f i libucrtd:output.obj
 0001:0005d620       ??1?$output_processor@DV?$string_output_adapter@D@__crt_stdio_output@@V?$format_validation_base@DV?$string_output_adapter@D@__crt_stdio_output@@@2@@__crt_stdio_output@@QEAA@XZ 000000018005e620 f i libucrtd:output.obj
 0001:0005d640       ??1?$output_processor@DV?$string_output_adapter@D@__crt_stdio_output@@V?$positional_parameter_base@DV?$string_output_adapter@D@__crt_stdio_output@@@2@@__crt_stdio_output@@QEAA@XZ 000000018005e640 f i libucrtd:output.obj
 0001:0005d660       ??1?$output_processor@DV?$string_output_adapter@D@__crt_stdio_output@@V?$standard_base@DV?$string_output_adapter@D@__crt_stdio_output@@@2@@__crt_stdio_output@@QEAA@XZ 000000018005e660 f i libucrtd:output.obj
 0001:0005d680       ??1?$output_processor@_WV?$stream_output_adapter@_W@__crt_stdio_output@@V?$format_validation_base@_WV?$stream_output_adapter@_W@__crt_stdio_output@@@2@@__crt_stdio_output@@QEAA@XZ 000000018005e680 f i libucrtd:output.obj
 0001:0005d6a0       ??1?$output_processor@_WV?$stream_output_adapter@_W@__crt_stdio_output@@V?$positional_parameter_base@_WV?$stream_output_adapter@_W@__crt_stdio_output@@@2@@__crt_stdio_output@@QEAA@XZ 000000018005e6a0 f i libucrtd:output.obj
 0001:0005d6c0       ??1?$output_processor@_WV?$stream_output_adapter@_W@__crt_stdio_output@@V?$standard_base@_WV?$stream_output_adapter@_W@__crt_stdio_output@@@2@@__crt_stdio_output@@QEAA@XZ 000000018005e6c0 f i libucrtd:output.obj
 0001:0005d6e0       ??1?$output_processor@_WV?$string_output_adapter@_W@__crt_stdio_output@@V?$format_validation_base@_WV?$string_output_adapter@_W@__crt_stdio_output@@@2@@__crt_stdio_output@@QEAA@XZ 000000018005e6e0 f i libucrtd:output.obj
 0001:0005d700       ??1?$output_processor@_WV?$string_output_adapter@_W@__crt_stdio_output@@V?$positional_parameter_base@_WV?$string_output_adapter@_W@__crt_stdio_output@@@2@@__crt_stdio_output@@QEAA@XZ 000000018005e700 f i libucrtd:output.obj
 0001:0005d720       ??1?$output_processor@_WV?$string_output_adapter@_W@__crt_stdio_output@@V?$standard_base@_WV?$string_output_adapter@_W@__crt_stdio_output@@@2@@__crt_stdio_output@@QEAA@XZ 000000018005e720 f i libucrtd:output.obj
 0001:0005d740       ??1?$positional_parameter_base@DV?$stream_output_adapter@D@__crt_stdio_output@@@__crt_stdio_output@@QEAA@XZ 000000018005e740 f i libucrtd:output.obj
 0001:0005d760       ??1?$positional_parameter_base@DV?$string_output_adapter@D@__crt_stdio_output@@@__crt_stdio_output@@QEAA@XZ 000000018005e760 f i libucrtd:output.obj
 0001:0005d780       ??1?$positional_parameter_base@_WV?$stream_output_adapter@_W@__crt_stdio_output@@@__crt_stdio_output@@QEAA@XZ 000000018005e780 f i libucrtd:output.obj
 0001:0005d7a0       ??1?$positional_parameter_base@_WV?$string_output_adapter@_W@__crt_stdio_output@@@__crt_stdio_output@@QEAA@XZ 000000018005e7a0 f i libucrtd:output.obj
 0001:0005d7c0       ??1?$standard_base@DV?$stream_output_adapter@D@__crt_stdio_output@@@__crt_stdio_output@@QEAA@XZ 000000018005e7c0 f i libucrtd:output.obj
 0001:0005d7e0       ??1?$standard_base@DV?$string_output_adapter@D@__crt_stdio_output@@@__crt_stdio_output@@QEAA@XZ 000000018005e7e0 f i libucrtd:output.obj
 0001:0005d800       ??1?$standard_base@_WV?$stream_output_adapter@_W@__crt_stdio_output@@@__crt_stdio_output@@QEAA@XZ 000000018005e800 f i libucrtd:output.obj
 0001:0005d820       ??1?$standard_base@_WV?$string_output_adapter@_W@__crt_stdio_output@@@__crt_stdio_output@@QEAA@XZ 000000018005e820 f i libucrtd:output.obj
 0001:0005d840       ??1_LocaleUpdate@@QEAA@XZ  000000018005e840 f i libucrtd:output.obj
 0001:0005d880       ??1__acrt_stdio_temporary_buffering_guard@@QEAA@XZ 000000018005e880 f i libucrtd:output.obj
 0001:0005d8b0       ??1__crt_errno_guard@@QEAA@XZ 000000018005e8b0 f i libucrtd:output.obj
 0001:0005d8e0       ??1formatting_buffer@__crt_stdio_output@@QEAA@XZ 000000018005e8e0 f i libucrtd:output.obj
 0001:0005d910       ??4?$__crt_unique_heap_ptr@DU__crt_internal_free_policy@@@@QEAAAEAV0@$$QEAV0@@Z 000000018005e910 f i libucrtd:output.obj
 0001:0005d950       ??C__crt_stdio_stream@@QEBAPEAU__crt_stdio_stream_data@@XZ 000000018005e950 f i libucrtd:output.obj
 0001:0005e200       ?GetLocaleT@_LocaleUpdate@@QEAAPEAU__crt_locale_pointers@@XZ 000000018005f200 f i libucrtd:output.obj
 0001:0005e210       ?__crt_interlocked_read_32@@YAHPEDH@Z 000000018005f210 f i libucrtd:output.obj
 0001:0005e230       ?adjust_hexit@?$output_processor@DV?$stream_output_adapter@D@__crt_stdio_output@@V?$format_validation_base@DV?$stream_output_adapter@D@__crt_stdio_output@@@2@@__crt_stdio_output@@CADH_N@Z 000000018005f230 f i libucrtd:output.obj
 0001:0005e280       ?adjust_hexit@?$output_processor@DV?$stream_output_adapter@D@__crt_stdio_output@@V?$positional_parameter_base@DV?$stream_output_adapter@D@__crt_stdio_output@@@2@@__crt_stdio_output@@CADH_N@Z 000000018005f280 f i libucrtd:output.obj
 0001:0005e2d0       ?adjust_hexit@?$output_processor@DV?$stream_output_adapter@D@__crt_stdio_output@@V?$standard_base@DV?$stream_output_adapter@D@__crt_stdio_output@@@2@@__crt_stdio_output@@CADH_N@Z 000000018005f2d0 f i libucrtd:output.obj
 0001:0005e320       ?adjust_hexit@?$output_processor@DV?$string_output_adapter@D@__crt_stdio_output@@V?$format_validation_base@DV?$string_output_adapter@D@__crt_stdio_output@@@2@@__crt_stdio_output@@CADH_N@Z 000000018005f320 f i libucrtd:output.obj
 0001:0005e370       ?adjust_hexit@?$output_processor@DV?$string_output_adapter@D@__crt_stdio_output@@V?$positional_parameter_base@DV?$string_output_adapter@D@__crt_stdio_output@@@2@@__crt_stdio_output@@CADH_N@Z 000000018005f370 f i libucrtd:output.obj
 0001:0005e3c0       ?adjust_hexit@?$output_processor@DV?$string_output_adapter@D@__crt_stdio_output@@V?$standard_base@DV?$string_output_adapter@D@__crt_stdio_output@@@2@@__crt_stdio_output@@CADH_N@Z 000000018005f3c0 f i libucrtd:output.obj
 0001:0005e410       ?adjust_hexit@?$output_processor@_WV?$stream_output_adapter@_W@__crt_stdio_output@@V?$format_validation_base@_WV?$stream_output_adapter@_W@__crt_stdio_output@@@2@@__crt_stdio_output@@CADH_N@Z 000000018005f410 f i libucrtd:output.obj
 0001:0005e460       ?adjust_hexit@?$output_processor@_WV?$stream_output_adapter@_W@__crt_stdio_output@@V?$positional_parameter_base@_WV?$stream_output_adapter@_W@__crt_stdio_output@@@2@@__crt_stdio_output@@CADH_N@Z 000000018005f460 f i libucrtd:output.obj
 0001:0005e4b0       ?adjust_hexit@?$output_processor@_WV?$stream_output_adapter@_W@__crt_stdio_output@@V?$standard_base@_WV?$stream_output_adapter@_W@__crt_stdio_output@@@2@@__crt_stdio_output@@CADH_N@Z 000000018005f4b0 f i libucrtd:output.obj
 0001:0005e500       ?adjust_hexit@?$output_processor@_WV?$string_output_adapter@_W@__crt_stdio_output@@V?$format_validation_base@_WV?$string_output_adapter@_W@__crt_stdio_output@@@2@@__crt_stdio_output@@CADH_N@Z 000000018005f500 f i libucrtd:output.obj
 0001:0005e550       ?adjust_hexit@?$output_processor@_WV?$string_output_adapter@_W@__crt_stdio_output@@V?$positional_parameter_base@_WV?$string_output_adapter@_W@__crt_stdio_output@@@2@@__crt_stdio_output@@CADH_N@Z 000000018005f550 f i libucrtd:output.obj
 0001:0005e5a0       ?adjust_hexit@?$output_processor@_WV?$string_output_adapter@_W@__crt_stdio_output@@V?$standard_base@_WV?$string_output_adapter@_W@__crt_stdio_output@@@2@@__crt_stdio_output@@CADH_N@Z 000000018005f5a0 f i libucrtd:output.obj
 0001:0005e5f0       ?advance_to_next_pass@?$positional_parameter_base@DV?$stream_output_adapter@D@__crt_stdio_output@@@__crt_stdio_output@@IEAA_NXZ 000000018005f5f0 f i libucrtd:output.obj
 0001:0005e6a0       ?advance_to_next_pass@?$positional_parameter_base@DV?$string_output_adapter@D@__crt_stdio_output@@@__crt_stdio_output@@IEAA_NXZ 000000018005f6a0 f i libucrtd:output.obj
 0001:0005e750       ?advance_to_next_pass@?$positional_parameter_base@_WV?$stream_output_adapter@_W@__crt_stdio_output@@@__crt_stdio_output@@IEAA_NXZ 000000018005f750 f i libucrtd:output.obj
 0001:0005e800       ?advance_to_next_pass@?$positional_parameter_base@_WV?$string_output_adapter@_W@__crt_stdio_output@@@__crt_stdio_output@@IEAA_NXZ 000000018005f800 f i libucrtd:output.obj
 0001:0005e8b0       ?advance_to_next_pass@?$standard_base@DV?$stream_output_adapter@D@__crt_stdio_output@@@__crt_stdio_output@@IEAA_NXZ 000000018005f8b0 f i libucrtd:output.obj
 0001:0005e900       ?advance_to_next_pass@?$standard_base@DV?$string_output_adapter@D@__crt_stdio_output@@@__crt_stdio_output@@IEAA_NXZ 000000018005f900 f i libucrtd:output.obj
 0001:0005e950       ?advance_to_next_pass@?$standard_base@_WV?$stream_output_adapter@_W@__crt_stdio_output@@@__crt_stdio_output@@IEAA_NXZ 000000018005f950 f i libucrtd:output.obj
 0001:0005e9a0       ?advance_to_next_pass@?$standard_base@_WV?$string_output_adapter@_W@__crt_stdio_output@@@__crt_stdio_output@@IEAA_NXZ 000000018005f9a0 f i libucrtd:output.obj
 0001:0005e9f0       ?crop_zeroes@__crt_stdio_output@@YAXPEADQEAU__crt_locale_pointers@@@Z 000000018005f9f0 f i libucrtd:output.obj
 0001:0005eb30       ?find_next_state@?$output_processor@DV?$stream_output_adapter@D@__crt_stdio_output@@V?$format_validation_base@DV?$stream_output_adapter@D@__crt_stdio_output@@@2@@__crt_stdio_output@@AEBA?AW4state@2@DW432@@Z 000000018005fb30 f i libucrtd:output.obj
 0001:0005ebd0       ?find_next_state@?$output_processor@DV?$stream_output_adapter@D@__crt_stdio_output@@V?$positional_parameter_base@DV?$stream_output_adapter@D@__crt_stdio_output@@@2@@__crt_stdio_output@@AEBA?AW4state@2@DW432@@Z 000000018005fbd0 f i libucrtd:output.obj
 0001:0005ec70       ?find_next_state@?$output_processor@DV?$stream_output_adapter@D@__crt_stdio_output@@V?$standard_base@DV?$stream_output_adapter@D@__crt_stdio_output@@@2@@__crt_stdio_output@@AEBA?AW4state@2@DW432@@Z 000000018005fc70 f i libucrtd:output.obj
 0001:0005ed10       ?find_next_state@?$output_processor@DV?$string_output_adapter@D@__crt_stdio_output@@V?$format_validation_base@DV?$string_output_adapter@D@__crt_stdio_output@@@2@@__crt_stdio_output@@AEBA?AW4state@2@DW432@@Z 000000018005fd10 f i libucrtd:output.obj
 0001:0005edb0       ?find_next_state@?$output_processor@DV?$string_output_adapter@D@__crt_stdio_output@@V?$positional_parameter_base@DV?$string_output_adapter@D@__crt_stdio_output@@@2@@__crt_stdio_output@@AEBA?AW4state@2@DW432@@Z 000000018005fdb0 f i libucrtd:output.obj
 0001:0005ee50       ?find_next_state@?$output_processor@DV?$string_output_adapter@D@__crt_stdio_output@@V?$standard_base@DV?$string_output_adapter@D@__crt_stdio_output@@@2@@__crt_stdio_output@@AEBA?AW4state@2@DW432@@Z 000000018005fe50 f i libucrtd:output.obj
 0001:0005eef0       ?find_next_state@?$output_processor@_WV?$stream_output_adapter@_W@__crt_stdio_output@@V?$format_validation_base@_WV?$stream_output_adapter@_W@__crt_stdio_output@@@2@@__crt_stdio_output@@AEBA?AW4state@2@_WW432@@Z 000000018005fef0 f i libucrtd:output.obj
 0001:0005ef90       ?find_next_state@?$output_processor@_WV?$stream_output_adapter@_W@__crt_stdio_output@@V?$positional_parameter_base@_WV?$stream_output_adapter@_W@__crt_stdio_output@@@2@@__crt_stdio_output@@AEBA?AW4state@2@_WW432@@Z 000000018005ff90 f i libucrtd:output.obj
 0001:0005f030       ?find_next_state@?$output_processor@_WV?$stream_output_adapter@_W@__crt_stdio_output@@V?$standard_base@_WV?$stream_output_adapter@_W@__crt_stdio_output@@@2@@__crt_stdio_output@@AEBA?AW4state@2@_WW432@@Z 0000000180060030 f i libucrtd:output.obj
 0001:0005f0d0       ?find_next_state@?$output_processor@_WV?$string_output_adapter@_W@__crt_stdio_output@@V?$format_validation_base@_WV?$string_output_adapter@_W@__crt_stdio_output@@@2@@__crt_stdio_output@@AEBA?AW4state@2@_WW432@@Z 00000001800600d0 f i libucrtd:output.obj
 0001:0005f170       ?find_next_state@?$output_processor@_WV?$string_output_adapter@_W@__crt_stdio_output@@V?$positional_parameter_base@_WV?$string_output_adapter@_W@__crt_stdio_output@@@2@@__crt_stdio_output@@AEBA?AW4state@2@_WW432@@Z 0000000180060170 f i libucrtd:output.obj
 0001:0005f210       ?find_next_state@?$output_processor@_WV?$string_output_adapter@_W@__crt_stdio_output@@V?$standard_base@_WV?$string_output_adapter@_W@__crt_stdio_output@@@2@@__crt_stdio_output@@AEBA?AW4state@2@_WW432@@Z 0000000180060210 f i libucrtd:output.obj
 0001:0005f2b0       ?force_decimal_point@__crt_stdio_output@@YAXPEADQEAU__crt_locale_pointers@@@Z 00000001800602b0 f i libucrtd:output.obj
 0001:0005f3b0       ?get@__crt_deferred_errno_cache@@QEAAAEAHXZ 00000001800603b0 f i libucrtd:output.obj
 0001:0005f3e0       ?get_flags@__crt_stdio_stream@@QEBAJXZ 00000001800603e0 f i libucrtd:output.obj
 0001:0005f410       ?get_parameter_type@?$positional_parameter_base@DV?$stream_output_adapter@D@__crt_stdio_output@@@__crt_stdio_output@@CA?AW4parameter_type@12@F@Z 0000000180060410 f i libucrtd:output.obj
 0001:0005f420       ?get_parameter_type@?$positional_parameter_base@DV?$stream_output_adapter@D@__crt_stdio_output@@@__crt_stdio_output@@CA?AW4parameter_type@12@G@Z 0000000180060420 f i libucrtd:output.obj
 0001:0005f430       ?get_parameter_type@?$positional_parameter_base@DV?$stream_output_adapter@D@__crt_stdio_output@@@__crt_stdio_output@@CA?AW4parameter_type@12@H@Z 0000000180060430 f i libucrtd:output.obj
 0001:0005f440       ?get_parameter_type@?$positional_parameter_base@DV?$stream_output_adapter@D@__crt_stdio_output@@@__crt_stdio_output@@CA?AW4parameter_type@12@I@Z 0000000180060440 f i libucrtd:output.obj
 0001:0005f450       ?get_parameter_type@?$positional_parameter_base@DV?$stream_output_adapter@D@__crt_stdio_output@@@__crt_stdio_output@@CA?AW4parameter_type@12@U_CRT_DOUBLE@@@Z 0000000180060450 f i libucrtd:output.obj
 0001:0005f460       ?get_parameter_type@?$positional_parameter_base@DV?$stream_output_adapter@D@__crt_stdio_output@@@__crt_stdio_output@@CA?AW4parameter_type@12@_J@Z 0000000180060460 f i libucrtd:output.obj
 0001:0005f470       ?get_parameter_type@?$positional_parameter_base@DV?$stream_output_adapter@D@__crt_stdio_output@@@__crt_stdio_output@@CA?AW4parameter_type@12@_K@Z 0000000180060470 f i libucrtd:output.obj
 0001:0005f480       ?get_parameter_type@?$positional_parameter_base@DV?$stream_output_adapter@D@__crt_stdio_output@@@__crt_stdio_output@@CA?AW4parameter_type@12@_W@Z 0000000180060480 f i libucrtd:output.obj
 0001:0005f490       ?get_parameter_type@?$positional_parameter_base@DV?$string_output_adapter@D@__crt_stdio_output@@@__crt_stdio_output@@CA?AW4parameter_type@12@F@Z 0000000180060490 f i libucrtd:output.obj
 0001:0005f4a0       ?get_parameter_type@?$positional_parameter_base@DV?$string_output_adapter@D@__crt_stdio_output@@@__crt_stdio_output@@CA?AW4parameter_type@12@G@Z 00000001800604a0 f i libucrtd:output.obj
 0001:0005f4b0       ?get_parameter_type@?$positional_parameter_base@DV?$string_output_adapter@D@__crt_stdio_output@@@__crt_stdio_output@@CA?AW4parameter_type@12@H@Z 00000001800604b0 f i libucrtd:output.obj
 0001:0005f4c0       ?get_parameter_type@?$positional_parameter_base@DV?$string_output_adapter@D@__crt_stdio_output@@@__crt_stdio_output@@CA?AW4parameter_type@12@I@Z 00000001800604c0 f i libucrtd:output.obj
 0001:0005f4d0       ?get_parameter_type@?$positional_parameter_base@DV?$string_output_adapter@D@__crt_stdio_output@@@__crt_stdio_output@@CA?AW4parameter_type@12@U_CRT_DOUBLE@@@Z 00000001800604d0 f i libucrtd:output.obj
 0001:0005f4e0       ?get_parameter_type@?$positional_parameter_base@DV?$string_output_adapter@D@__crt_stdio_output@@@__crt_stdio_output@@CA?AW4parameter_type@12@_J@Z 00000001800604e0 f i libucrtd:output.obj
 0001:0005f4f0       ?get_parameter_type@?$positional_parameter_base@DV?$string_output_adapter@D@__crt_stdio_output@@@__crt_stdio_output@@CA?AW4parameter_type@12@_K@Z 00000001800604f0 f i libucrtd:output.obj
 0001:0005f500       ?get_parameter_type@?$positional_parameter_base@DV?$string_output_adapter@D@__crt_stdio_output@@@__crt_stdio_output@@CA?AW4parameter_type@12@_W@Z 0000000180060500 f i libucrtd:output.obj
 0001:0005f510       ?get_parameter_type@?$positional_parameter_base@_WV?$stream_output_adapter@_W@__crt_stdio_output@@@__crt_stdio_output@@CA?AW4parameter_type@12@F@Z 0000000180060510 f i libucrtd:output.obj
 0001:0005f520       ?get_parameter_type@?$positional_parameter_base@_WV?$stream_output_adapter@_W@__crt_stdio_output@@@__crt_stdio_output@@CA?AW4parameter_type@12@G@Z 0000000180060520 f i libucrtd:output.obj
 0001:0005f530       ?get_parameter_type@?$positional_parameter_base@_WV?$stream_output_adapter@_W@__crt_stdio_output@@@__crt_stdio_output@@CA?AW4parameter_type@12@H@Z 0000000180060530 f i libucrtd:output.obj
 0001:0005f540       ?get_parameter_type@?$positional_parameter_base@_WV?$stream_output_adapter@_W@__crt_stdio_output@@@__crt_stdio_output@@CA?AW4parameter_type@12@I@Z 0000000180060540 f i libucrtd:output.obj
 0001:0005f550       ?get_parameter_type@?$positional_parameter_base@_WV?$stream_output_adapter@_W@__crt_stdio_output@@@__crt_stdio_output@@CA?AW4parameter_type@12@U_CRT_DOUBLE@@@Z 0000000180060550 f i libucrtd:output.obj
 0001:0005f560       ?get_parameter_type@?$positional_parameter_base@_WV?$stream_output_adapter@_W@__crt_stdio_output@@@__crt_stdio_output@@CA?AW4parameter_type@12@_J@Z 0000000180060560 f i libucrtd:output.obj
 0001:0005f570       ?get_parameter_type@?$positional_parameter_base@_WV?$stream_output_adapter@_W@__crt_stdio_output@@@__crt_stdio_output@@CA?AW4parameter_type@12@_K@Z 0000000180060570 f i libucrtd:output.obj
 0001:0005f580       ?get_parameter_type@?$positional_parameter_base@_WV?$stream_output_adapter@_W@__crt_stdio_output@@@__crt_stdio_output@@CA?AW4parameter_type@12@_W@Z 0000000180060580 f i libucrtd:output.obj
 0001:0005f590       ?get_parameter_type@?$positional_parameter_base@_WV?$string_output_adapter@_W@__crt_stdio_output@@@__crt_stdio_output@@CA?AW4parameter_type@12@F@Z 0000000180060590 f i libucrtd:output.obj
 0001:0005f5a0       ?get_parameter_type@?$positional_parameter_base@_WV?$string_output_adapter@_W@__crt_stdio_output@@@__crt_stdio_output@@CA?AW4parameter_type@12@G@Z 00000001800605a0 f i libucrtd:output.obj
 0001:0005f5b0       ?get_parameter_type@?$positional_parameter_base@_WV?$string_output_adapter@_W@__crt_stdio_output@@@__crt_stdio_output@@CA?AW4parameter_type@12@H@Z 00000001800605b0 f i libucrtd:output.obj
 0001:0005f5c0       ?get_parameter_type@?$positional_parameter_base@_WV?$string_output_adapter@_W@__crt_stdio_output@@@__crt_stdio_output@@CA?AW4parameter_type@12@I@Z 00000001800605c0 f i libucrtd:output.obj
 0001:0005f5d0       ?get_parameter_type@?$positional_parameter_base@_WV?$string_output_adapter@_W@__crt_stdio_output@@@__crt_stdio_output@@CA?AW4parameter_type@12@U_CRT_DOUBLE@@@Z 00000001800605d0 f i libucrtd:output.obj
 0001:0005f5e0       ?get_parameter_type@?$positional_parameter_base@_WV?$string_output_adapter@_W@__crt_stdio_output@@@__crt_stdio_output@@CA?AW4parameter_type@12@_J@Z 00000001800605e0 f i libucrtd:output.obj
 0001:0005f5f0       ?get_parameter_type@?$positional_parameter_base@_WV?$string_output_adapter@_W@__crt_stdio_output@@@__crt_stdio_output@@CA?AW4parameter_type@12@_K@Z 00000001800605f0 f i libucrtd:output.obj
 0001:0005f600       ?get_parameter_type@?$positional_parameter_base@_WV?$string_output_adapter@_W@__crt_stdio_output@@@__crt_stdio_output@@CA?AW4parameter_type@12@_W@Z 0000000180060600 f i libucrtd:output.obj
 0001:0005f610       ?has_flag@?$output_processor@DV?$stream_output_adapter@D@__crt_stdio_output@@V?$format_validation_base@DV?$stream_output_adapter@D@__crt_stdio_output@@@2@@__crt_stdio_output@@AEBA_NI@Z 0000000180060610 f i libucrtd:output.obj
 0001:0005f650       ?has_flag@?$output_processor@DV?$stream_output_adapter@D@__crt_stdio_output@@V?$positional_parameter_base@DV?$stream_output_adapter@D@__crt_stdio_output@@@2@@__crt_stdio_output@@AEBA_NI@Z 0000000180060650 f i libucrtd:output.obj
 0001:0005f690       ?has_flag@?$output_processor@DV?$stream_output_adapter@D@__crt_stdio_output@@V?$standard_base@DV?$stream_output_adapter@D@__crt_stdio_output@@@2@@__crt_stdio_output@@AEBA_NI@Z 0000000180060690 f i libucrtd:output.obj
 0001:0005f6d0       ?has_flag@?$output_processor@DV?$string_output_adapter@D@__crt_stdio_output@@V?$format_validation_base@DV?$string_output_adapter@D@__crt_stdio_output@@@2@@__crt_stdio_output@@AEBA_NI@Z 00000001800606d0 f i libucrtd:output.obj
 0001:0005f710       ?has_flag@?$output_processor@DV?$string_output_adapter@D@__crt_stdio_output@@V?$positional_parameter_base@DV?$string_output_adapter@D@__crt_stdio_output@@@2@@__crt_stdio_output@@AEBA_NI@Z 0000000180060710 f i libucrtd:output.obj
 0001:0005f750       ?has_flag@?$output_processor@DV?$string_output_adapter@D@__crt_stdio_output@@V?$standard_base@DV?$string_output_adapter@D@__crt_stdio_output@@@2@@__crt_stdio_output@@AEBA_NI@Z 0000000180060750 f i libucrtd:output.obj
 0001:0005f790       ?has_flag@?$output_processor@_WV?$stream_output_adapter@_W@__crt_stdio_output@@V?$format_validation_base@_WV?$stream_output_adapter@_W@__crt_stdio_output@@@2@@__crt_stdio_output@@AEBA_NI@Z 0000000180060790 f i libucrtd:output.obj
 0001:0005f7d0       ?has_flag@?$output_processor@_WV?$stream_output_adapter@_W@__crt_stdio_output@@V?$positional_parameter_base@_WV?$stream_output_adapter@_W@__crt_stdio_output@@@2@@__crt_stdio_output@@AEBA_NI@Z 00000001800607d0 f i libucrtd:output.obj
 0001:0005f810       ?has_flag@?$output_processor@_WV?$stream_output_adapter@_W@__crt_stdio_output@@V?$standard_base@_WV?$stream_output_adapter@_W@__crt_stdio_output@@@2@@__crt_stdio_output@@AEBA_NI@Z 0000000180060810 f i libucrtd:output.obj
 0001:0005f850       ?has_flag@?$output_processor@_WV?$string_output_adapter@_W@__crt_stdio_output@@V?$format_validation_base@_WV?$string_output_adapter@_W@__crt_stdio_output@@@2@@__crt_stdio_output@@AEBA_NI@Z 0000000180060850 f i libucrtd:output.obj
 0001:0005f890       ?has_flag@?$output_processor@_WV?$string_output_adapter@_W@__crt_stdio_output@@V?$positional_parameter_base@_WV?$string_output_adapter@_W@__crt_stdio_output@@@2@@__crt_stdio_output@@AEBA_NI@Z 0000000180060890 f i libucrtd:output.obj
 0001:0005f8d0       ?has_flag@?$output_processor@_WV?$string_output_adapter@_W@__crt_stdio_output@@V?$standard_base@_WV?$string_output_adapter@_W@__crt_stdio_output@@@2@@__crt_stdio_output@@AEBA_NI@Z 00000001800608d0 f i libucrtd:output.obj
 0001:0005f910       ?is_positional_parameter_reappearance_consistent@?$positional_parameter_base@DV?$stream_output_adapter@D@__crt_stdio_output@@@__crt_stdio_output@@AEAA_NAEBUparameter_data@12@W4parameter_type@12@DW4length_modifier@2@@Z 0000000180060910 f i libucrtd:output.obj
 0001:0005fb70       ?is_positional_parameter_reappearance_consistent@?$positional_parameter_base@DV?$string_output_adapter@D@__crt_stdio_output@@@__crt_stdio_output@@AEAA_NAEBUparameter_data@12@W4parameter_type@12@DW4length_modifier@2@@Z 0000000180060b70 f i libucrtd:output.obj
 0001:0005fdd0       ?is_positional_parameter_reappearance_consistent@?$positional_parameter_base@_WV?$stream_output_adapter@_W@__crt_stdio_output@@@__crt_stdio_output@@AEAA_NAEBUparameter_data@12@W4parameter_type@12@_WW4length_modifier@2@@Z 0000000180060dd0 f i libucrtd:output.obj
 0001:00060030       ?is_positional_parameter_reappearance_consistent@?$positional_parameter_base@_WV?$string_output_adapter@_W@__crt_stdio_output@@@__crt_stdio_output@@AEAA_NAEBUparameter_data@12@W4parameter_type@12@_WW4length_modifier@2@@Z 0000000180061030 f i libucrtd:output.obj
 0001:00060290       ?is_string_backed@__crt_stdio_stream@@QEBA_NXZ 0000000180061290 f i libucrtd:output.obj
 0001:000602d0       ?narrow_null_string@?$output_processor@DV?$stream_output_adapter@D@__crt_stdio_output@@V?$format_validation_base@DV?$stream_output_adapter@D@__crt_stdio_output@@@2@@__crt_stdio_output@@CAPEADXZ 00000001800612d0 f i libucrtd:output.obj
 0001:000602e0       ?narrow_null_string@?$output_processor@DV?$stream_output_adapter@D@__crt_stdio_output@@V?$positional_parameter_base@DV?$stream_output_adapter@D@__crt_stdio_output@@@2@@__crt_stdio_output@@CAPEADXZ 00000001800612e0 f i libucrtd:output.obj
 0001:000602f0       ?narrow_null_string@?$output_processor@DV?$stream_output_adapter@D@__crt_stdio_output@@V?$standard_base@DV?$stream_output_adapter@D@__crt_stdio_output@@@2@@__crt_stdio_output@@CAPEADXZ 00000001800612f0 f i libucrtd:output.obj
 0001:00060300       ?narrow_null_string@?$output_processor@DV?$string_output_adapter@D@__crt_stdio_output@@V?$format_validation_base@DV?$string_output_adapter@D@__crt_stdio_output@@@2@@__crt_stdio_output@@CAPEADXZ 0000000180061300 f i libucrtd:output.obj
 0001:00060310       ?narrow_null_string@?$output_processor@DV?$string_output_adapter@D@__crt_stdio_output@@V?$positional_parameter_base@DV?$string_output_adapter@D@__crt_stdio_output@@@2@@__crt_stdio_output@@CAPEADXZ 0000000180061310 f i libucrtd:output.obj
 0001:00060320       ?narrow_null_string@?$output_processor@DV?$string_output_adapter@D@__crt_stdio_output@@V?$standard_base@DV?$string_output_adapter@D@__crt_stdio_output@@@2@@__crt_stdio_output@@CAPEADXZ 0000000180061320 f i libucrtd:output.obj
 0001:00060330       ?narrow_null_string@?$output_processor@_WV?$stream_output_adapter@_W@__crt_stdio_output@@V?$format_validation_base@_WV?$stream_output_adapter@_W@__crt_stdio_output@@@2@@__crt_stdio_output@@CAPEADXZ 0000000180061330 f i libucrtd:output.obj
 0001:00060340       ?narrow_null_string@?$output_processor@_WV?$stream_output_adapter@_W@__crt_stdio_output@@V?$positional_parameter_base@_WV?$stream_output_adapter@_W@__crt_stdio_output@@@2@@__crt_stdio_output@@CAPEADXZ 0000000180061340 f i libucrtd:output.obj
 0001:00060350       ?narrow_null_string@?$output_processor@_WV?$stream_output_adapter@_W@__crt_stdio_output@@V?$standard_base@_WV?$stream_output_adapter@_W@__crt_stdio_output@@@2@@__crt_stdio_output@@CAPEADXZ 0000000180061350 f i libucrtd:output.obj
 0001:00060360       ?narrow_null_string@?$output_processor@_WV?$string_output_adapter@_W@__crt_stdio_output@@V?$format_validation_base@_WV?$string_output_adapter@_W@__crt_stdio_output@@@2@@__crt_stdio_output@@CAPEADXZ 0000000180061360 f i libucrtd:output.obj
 0001:00060370       ?narrow_null_string@?$output_processor@_WV?$string_output_adapter@_W@__crt_stdio_output@@V?$positional_parameter_base@_WV?$string_output_adapter@_W@__crt_stdio_output@@@2@@__crt_stdio_output@@CAPEADXZ 0000000180061370 f i libucrtd:output.obj
 0001:00060380       ?narrow_null_string@?$output_processor@_WV?$string_output_adapter@_W@__crt_stdio_output@@V?$standard_base@_WV?$string_output_adapter@_W@__crt_stdio_output@@@2@@__crt_stdio_output@@CAPEADXZ 0000000180061380 f i libucrtd:output.obj
 0001:00060390       ?parse_int_from_format_string@?$output_processor@DV?$stream_output_adapter@D@__crt_stdio_output@@V?$format_validation_base@DV?$stream_output_adapter@D@__crt_stdio_output@@@2@@__crt_stdio_output@@AEAA_NQEAH@Z 0000000180061390 f i libucrtd:output.obj
 0001:00060480       ?parse_int_from_format_string@?$output_processor@DV?$stream_output_adapter@D@__crt_stdio_output@@V?$positional_parameter_base@DV?$stream_output_adapter@D@__crt_stdio_output@@@2@@__crt_stdio_output@@AEAA_NQEAH@Z 0000000180061480 f i libucrtd:output.obj
 0001:00060570       ?parse_int_from_format_string@?$output_processor@DV?$stream_output_adapter@D@__crt_stdio_output@@V?$standard_base@DV?$stream_output_adapter@D@__crt_stdio_output@@@2@@__crt_stdio_output@@AEAA_NQEAH@Z 0000000180061570 f i libucrtd:output.obj
 0001:00060660       ?parse_int_from_format_string@?$output_processor@DV?$string_output_adapter@D@__crt_stdio_output@@V?$format_validation_base@DV?$string_output_adapter@D@__crt_stdio_output@@@2@@__crt_stdio_output@@AEAA_NQEAH@Z 0000000180061660 f i libucrtd:output.obj
 0001:00060750       ?parse_int_from_format_string@?$output_processor@DV?$string_output_adapter@D@__crt_stdio_output@@V?$positional_parameter_base@DV?$string_output_adapter@D@__crt_stdio_output@@@2@@__crt_stdio_output@@AEAA_NQEAH@Z 0000000180061750 f i libucrtd:output.obj
 0001:00060840       ?parse_int_from_format_string@?$output_processor@DV?$string_output_adapter@D@__crt_stdio_output@@V?$standard_base@DV?$string_output_adapter@D@__crt_stdio_output@@@2@@__crt_stdio_output@@AEAA_NQEAH@Z 0000000180061840 f i libucrtd:output.obj
 0001:00060930       ?parse_int_from_format_string@?$output_processor@_WV?$stream_output_adapter@_W@__crt_stdio_output@@V?$format_validation_base@_WV?$stream_output_adapter@_W@__crt_stdio_output@@@2@@__crt_stdio_output@@AEAA_NQEAH@Z 0000000180061930 f i libucrtd:output.obj
 0001:00060a20       ?parse_int_from_format_string@?$output_processor@_WV?$stream_output_adapter@_W@__crt_stdio_output@@V?$positional_parameter_base@_WV?$stream_output_adapter@_W@__crt_stdio_output@@@2@@__crt_stdio_output@@AEAA_NQEAH@Z 0000000180061a20 f i libucrtd:output.obj
 0001:00060b10       ?parse_int_from_format_string@?$output_processor@_WV?$stream_output_adapter@_W@__crt_stdio_output@@V?$standard_base@_WV?$stream_output_adapter@_W@__crt_stdio_output@@@2@@__crt_stdio_output@@AEAA_NQEAH@Z 0000000180061b10 f i libucrtd:output.obj
 0001:00060c00       ?parse_int_from_format_string@?$output_processor@_WV?$string_output_adapter@_W@__crt_stdio_output@@V?$format_validation_base@_WV?$string_output_adapter@_W@__crt_stdio_output@@@2@@__crt_stdio_output@@AEAA_NQEAH@Z 0000000180061c00 f i libucrtd:output.obj
 0001:00060cf0       ?parse_int_from_format_string@?$output_processor@_WV?$string_output_adapter@_W@__crt_stdio_output@@V?$positional_parameter_base@_WV?$string_output_adapter@_W@__crt_stdio_output@@@2@@__crt_stdio_output@@AEAA_NQEAH@Z 0000000180061cf0 f i libucrtd:output.obj
 0001:00060de0       ?parse_int_from_format_string@?$output_processor@_WV?$string_output_adapter@_W@__crt_stdio_output@@V?$standard_base@_WV?$string_output_adapter@_W@__crt_stdio_output@@@2@@__crt_stdio_output@@AEAA_NQEAH@Z 0000000180061de0 f i libucrtd:output.obj
 0001:00060ed0       ?process@?$output_processor@DV?$stream_output_adapter@D@__crt_stdio_output@@V?$format_validation_base@DV?$stream_output_adapter@D@__crt_stdio_output@@@2@@__crt_stdio_output@@QEAAHXZ 0000000180061ed0 f i libucrtd:output.obj
 0001:00061230       ?process@?$output_processor@DV?$stream_output_adapter@D@__crt_stdio_output@@V?$positional_parameter_base@DV?$stream_output_adapter@D@__crt_stdio_output@@@2@@__crt_stdio_output@@QEAAHXZ 0000000180062230 f i libucrtd:output.obj
 0001:00061590       ?process@?$output_processor@DV?$stream_output_adapter@D@__crt_stdio_output@@V?$standard_base@DV?$stream_output_adapter@D@__crt_stdio_output@@@2@@__crt_stdio_output@@QEAAHXZ 0000000180062590 f i libucrtd:output.obj
 0001:000618f0       ?process@?$output_processor@DV?$string_output_adapter@D@__crt_stdio_output@@V?$format_validation_base@DV?$string_output_adapter@D@__crt_stdio_output@@@2@@__crt_stdio_output@@QEAAHXZ 00000001800628f0 f i libucrtd:output.obj
 0001:00061c50       ?process@?$output_processor@DV?$string_output_adapter@D@__crt_stdio_output@@V?$positional_parameter_base@DV?$string_output_adapter@D@__crt_stdio_output@@@2@@__crt_stdio_output@@QEAAHXZ 0000000180062c50 f i libucrtd:output.obj
 0001:00061fb0       ?process@?$output_processor@DV?$string_output_adapter@D@__crt_stdio_output@@V?$standard_base@DV?$string_output_adapter@D@__crt_stdio_output@@@2@@__crt_stdio_output@@QEAAHXZ 0000000180062fb0 f i libucrtd:output.obj
 0001:00062310       ?process@?$output_processor@_WV?$stream_output_adapter@_W@__crt_stdio_output@@V?$format_validation_base@_WV?$stream_output_adapter@_W@__crt_stdio_output@@@2@@__crt_stdio_output@@QEAAHXZ 0000000180063310 f i libucrtd:output.obj
 0001:00062670       ?process@?$output_processor@_WV?$stream_output_adapter@_W@__crt_stdio_output@@V?$positional_parameter_base@_WV?$stream_output_adapter@_W@__crt_stdio_output@@@2@@__crt_stdio_output@@QEAAHXZ 0000000180063670 f i libucrtd:output.obj
 0001:000629d0       ?process@?$output_processor@_WV?$stream_output_adapter@_W@__crt_stdio_output@@V?$standard_base@_WV?$stream_output_adapter@_W@__crt_stdio_output@@@2@@__crt_stdio_output@@QEAAHXZ 00000001800639d0 f i libucrtd:output.obj
 0001:00062d30       ?process@?$output_processor@_WV?$string_output_adapter@_W@__crt_stdio_output@@V?$format_validation_base@_WV?$string_output_adapter@_W@__crt_stdio_output@@@2@@__crt_stdio_output@@QEAAHXZ 0000000180063d30 f i libucrtd:output.obj
 0001:00063090       ?process@?$output_processor@_WV?$string_output_adapter@_W@__crt_stdio_output@@V?$positional_parameter_base@_WV?$string_output_adapter@_W@__crt_stdio_output@@@2@@__crt_stdio_output@@QEAAHXZ 0000000180064090 f i libucrtd:output.obj
 0001:000633f0       ?process@?$output_processor@_WV?$string_output_adapter@_W@__crt_stdio_output@@V?$standard_base@_WV?$string_output_adapter@_W@__crt_stdio_output@@@2@@__crt_stdio_output@@QEAAHXZ 00000001800643f0 f i libucrtd:output.obj
 0001:00063750       ?public_stream@__crt_stdio_stream@@QEBAPEAU_iobuf@@XZ 0000000180064750 f i libucrtd:output.obj
 0001:00063760       ?set_flag@?$output_processor@DV?$stream_output_adapter@D@__crt_stdio_output@@V?$format_validation_base@DV?$stream_output_adapter@D@__crt_stdio_output@@@2@@__crt_stdio_output@@AEAAXI@Z 0000000180064760 f i libucrtd:output.obj
 0001:00063780       ?set_flag@?$output_processor@DV?$stream_output_adapter@D@__crt_stdio_output@@V?$positional_parameter_base@DV?$stream_output_adapter@D@__crt_stdio_output@@@2@@__crt_stdio_output@@AEAAXI@Z 0000000180064780 f i libucrtd:output.obj
 0001:000637a0       ?set_flag@?$output_processor@DV?$stream_output_adapter@D@__crt_stdio_output@@V?$standard_base@DV?$stream_output_adapter@D@__crt_stdio_output@@@2@@__crt_stdio_output@@AEAAXI@Z 00000001800647a0 f i libucrtd:output.obj
 0001:000637c0       ?set_flag@?$output_processor@DV?$string_output_adapter@D@__crt_stdio_output@@V?$format_validation_base@DV?$string_output_adapter@D@__crt_stdio_output@@@2@@__crt_stdio_output@@AEAAXI@Z 00000001800647c0 f i libucrtd:output.obj
 0001:000637e0       ?set_flag@?$output_processor@DV?$string_output_adapter@D@__crt_stdio_output@@V?$positional_parameter_base@DV?$string_output_adapter@D@__crt_stdio_output@@@2@@__crt_stdio_output@@AEAAXI@Z 00000001800647e0 f i libucrtd:output.obj
 0001:00063800       ?set_flag@?$output_processor@DV?$string_output_adapter@D@__crt_stdio_output@@V?$standard_base@DV?$string_output_adapter@D@__crt_stdio_output@@@2@@__crt_stdio_output@@AEAAXI@Z 0000000180064800 f i libucrtd:output.obj
 0001:00063820       ?set_flag@?$output_processor@_WV?$stream_output_adapter@_W@__crt_stdio_output@@V?$format_validation_base@_WV?$stream_output_adapter@_W@__crt_stdio_output@@@2@@__crt_stdio_output@@AEAAXI@Z 0000000180064820 f i libucrtd:output.obj
 0001:00063840       ?set_flag@?$output_processor@_WV?$stream_output_adapter@_W@__crt_stdio_output@@V?$positional_parameter_base@_WV?$stream_output_adapter@_W@__crt_stdio_output@@@2@@__crt_stdio_output@@AEAAXI@Z 0000000180064840 f i libucrtd:output.obj
 0001:00063860       ?set_flag@?$output_processor@_WV?$stream_output_adapter@_W@__crt_stdio_output@@V?$standard_base@_WV?$stream_output_adapter@_W@__crt_stdio_output@@@2@@__crt_stdio_output@@AEAAXI@Z 0000000180064860 f i libucrtd:output.obj
 0001:00063880       ?set_flag@?$output_processor@_WV?$string_output_adapter@_W@__crt_stdio_output@@V?$format_validation_base@_WV?$string_output_adapter@_W@__crt_stdio_output@@@2@@__crt_stdio_output@@AEAAXI@Z 0000000180064880 f i libucrtd:output.obj
 0001:000638a0       ?set_flag@?$output_processor@_WV?$string_output_adapter@_W@__crt_stdio_output@@V?$positional_parameter_base@_WV?$string_output_adapter@_W@__crt_stdio_output@@@2@@__crt_stdio_output@@AEAAXI@Z 00000001800648a0 f i libucrtd:output.obj
 0001:000638c0       ?set_flag@?$output_processor@_WV?$string_output_adapter@_W@__crt_stdio_output@@V?$standard_base@_WV?$string_output_adapter@_W@__crt_stdio_output@@@2@@__crt_stdio_output@@AEAAXI@Z 00000001800648c0 f i libucrtd:output.obj
 0001:000638e0       ?should_format@?$positional_parameter_base@DV?$stream_output_adapter@D@__crt_stdio_output@@@__crt_stdio_output@@IEAA_NXZ 00000001800648e0 f i libucrtd:output.obj
 0001:00063920       ?should_format@?$positional_parameter_base@DV?$string_output_adapter@D@__crt_stdio_output@@@__crt_stdio_output@@IEAA_NXZ 0000000180064920 f i libucrtd:output.obj
 0001:00063960       ?should_format@?$positional_parameter_base@_WV?$stream_output_adapter@_W@__crt_stdio_output@@@__crt_stdio_output@@IEAA_NXZ 0000000180064960 f i libucrtd:output.obj
 0001:000639a0       ?should_format@?$positional_parameter_base@_WV?$string_output_adapter@_W@__crt_stdio_output@@@__crt_stdio_output@@IEAA_NXZ 00000001800649a0 f i libucrtd:output.obj
 0001:000639e0       ?should_format@?$standard_base@DV?$stream_output_adapter@D@__crt_stdio_output@@@__crt_stdio_output@@IEAA_NXZ 00000001800649e0 f i libucrtd:output.obj
 0001:000639f0       ?should_format@?$standard_base@DV?$string_output_adapter@D@__crt_stdio_output@@@__crt_stdio_output@@IEAA_NXZ 00000001800649f0 f i libucrtd:output.obj
 0001:00063a00       ?should_format@?$standard_base@_WV?$stream_output_adapter@_W@__crt_stdio_output@@@__crt_stdio_output@@IEAA_NXZ 0000000180064a00 f i libucrtd:output.obj
 0001:00063a10       ?should_format@?$standard_base@_WV?$string_output_adapter@_W@__crt_stdio_output@@@__crt_stdio_output@@IEAA_NXZ 0000000180064a10 f i libucrtd:output.obj
 0001:00063a20       ?should_skip_normal_state_processing@?$positional_parameter_base@DV?$stream_output_adapter@D@__crt_stdio_output@@@__crt_stdio_output@@IEAA_NXZ 0000000180064a20 f i libucrtd:output.obj
 0001:00063a70       ?should_skip_normal_state_processing@?$positional_parameter_base@DV?$string_output_adapter@D@__crt_stdio_output@@@__crt_stdio_output@@IEAA_NXZ 0000000180064a70 f i libucrtd:output.obj
 0001:00063ac0       ?should_skip_normal_state_processing@?$positional_parameter_base@_WV?$stream_output_adapter@_W@__crt_stdio_output@@@__crt_stdio_output@@IEAA_NXZ 0000000180064ac0 f i libucrtd:output.obj
 0001:00063b10       ?should_skip_normal_state_processing@?$positional_parameter_base@_WV?$string_output_adapter@_W@__crt_stdio_output@@@__crt_stdio_output@@IEAA_NXZ 0000000180064b10 f i libucrtd:output.obj
 0001:00063b60       ?should_skip_normal_state_processing@?$standard_base@DV?$stream_output_adapter@D@__crt_stdio_output@@@__crt_stdio_output@@IEAA_NXZ 0000000180064b60 f i libucrtd:output.obj
 0001:00063b70       ?should_skip_normal_state_processing@?$standard_base@DV?$string_output_adapter@D@__crt_stdio_output@@@__crt_stdio_output@@IEAA_NXZ 0000000180064b70 f i libucrtd:output.obj
 0001:00063b80       ?should_skip_normal_state_processing@?$standard_base@_WV?$stream_output_adapter@_W@__crt_stdio_output@@@__crt_stdio_output@@IEAA_NXZ 0000000180064b80 f i libucrtd:output.obj
 0001:00063b90       ?should_skip_normal_state_processing@?$standard_base@_WV?$string_output_adapter@_W@__crt_stdio_output@@@__crt_stdio_output@@IEAA_NXZ 0000000180064b90 f i libucrtd:output.obj
 0001:00063ba0       ?should_skip_type_state_output@?$positional_parameter_base@DV?$stream_output_adapter@D@__crt_stdio_output@@@__crt_stdio_output@@IEBA_NXZ 0000000180064ba0 f i libucrtd:output.obj
 0001:00063be0       ?should_skip_type_state_output@?$positional_parameter_base@DV?$string_output_adapter@D@__crt_stdio_output@@@__crt_stdio_output@@IEBA_NXZ 0000000180064be0 f i libucrtd:output.obj
 0001:00063c20       ?should_skip_type_state_output@?$positional_parameter_base@_WV?$stream_output_adapter@_W@__crt_stdio_output@@@__crt_stdio_output@@IEBA_NXZ 0000000180064c20 f i libucrtd:output.obj
 0001:00063c60       ?should_skip_type_state_output@?$positional_parameter_base@_WV?$string_output_adapter@_W@__crt_stdio_output@@@__crt_stdio_output@@IEBA_NXZ 0000000180064c60 f i libucrtd:output.obj
 0001:00063ca0       ?should_skip_type_state_output@?$standard_base@DV?$stream_output_adapter@D@__crt_stdio_output@@@__crt_stdio_output@@IEBA_NXZ 0000000180064ca0 f i libucrtd:output.obj
 0001:00063cb0       ?should_skip_type_state_output@?$standard_base@DV?$string_output_adapter@D@__crt_stdio_output@@@__crt_stdio_output@@IEBA_NXZ 0000000180064cb0 f i libucrtd:output.obj
 0001:00063cc0       ?should_skip_type_state_output@?$standard_base@_WV?$stream_output_adapter@_W@__crt_stdio_output@@@__crt_stdio_output@@IEBA_NXZ 0000000180064cc0 f i libucrtd:output.obj
 0001:00063cd0       ?should_skip_type_state_output@?$standard_base@_WV?$string_output_adapter@_W@__crt_stdio_output@@@__crt_stdio_output@@IEBA_NXZ 0000000180064cd0 f i libucrtd:output.obj
 0001:00063ce0       ?state_case_dot@?$output_processor@DV?$stream_output_adapter@D@__crt_stdio_output@@V?$format_validation_base@DV?$stream_output_adapter@D@__crt_stdio_output@@@2@@__crt_stdio_output@@AEAA_NXZ 0000000180064ce0 f i libucrtd:output.obj
 0001:00063d00       ?state_case_dot@?$output_processor@DV?$stream_output_adapter@D@__crt_stdio_output@@V?$positional_parameter_base@DV?$stream_output_adapter@D@__crt_stdio_output@@@2@@__crt_stdio_output@@AEAA_NXZ 0000000180064d00 f i libucrtd:output.obj
 0001:00063d20       ?state_case_dot@?$output_processor@DV?$stream_output_adapter@D@__crt_stdio_output@@V?$standard_base@DV?$stream_output_adapter@D@__crt_stdio_output@@@2@@__crt_stdio_output@@AEAA_NXZ 0000000180064d20 f i libucrtd:output.obj
 0001:00063d40       ?state_case_dot@?$output_processor@DV?$string_output_adapter@D@__crt_stdio_output@@V?$format_validation_base@DV?$string_output_adapter@D@__crt_stdio_output@@@2@@__crt_stdio_output@@AEAA_NXZ 0000000180064d40 f i libucrtd:output.obj
 0001:00063d60       ?state_case_dot@?$output_processor@DV?$string_output_adapter@D@__crt_stdio_output@@V?$positional_parameter_base@DV?$string_output_adapter@D@__crt_stdio_output@@@2@@__crt_stdio_output@@AEAA_NXZ 0000000180064d60 f i libucrtd:output.obj
 0001:00063d80       ?state_case_dot@?$output_processor@DV?$string_output_adapter@D@__crt_stdio_output@@V?$standard_base@DV?$string_output_adapter@D@__crt_stdio_output@@@2@@__crt_stdio_output@@AEAA_NXZ 0000000180064d80 f i libucrtd:output.obj
 0001:00063da0       ?state_case_dot@?$output_processor@_WV?$stream_output_adapter@_W@__crt_stdio_output@@V?$format_validation_base@_WV?$stream_output_adapter@_W@__crt_stdio_output@@@2@@__crt_stdio_output@@AEAA_NXZ 0000000180064da0 f i libucrtd:output.obj
 0001:00063dc0       ?state_case_dot@?$output_processor@_WV?$stream_output_adapter@_W@__crt_stdio_output@@V?$positional_parameter_base@_WV?$stream_output_adapter@_W@__crt_stdio_output@@@2@@__crt_stdio_output@@AEAA_NXZ 0000000180064dc0 f i libucrtd:output.obj
 0001:00063de0       ?state_case_dot@?$output_processor@_WV?$stream_output_adapter@_W@__crt_stdio_output@@V?$standard_base@_WV?$stream_output_adapter@_W@__crt_stdio_output@@@2@@__crt_stdio_output@@AEAA_NXZ 0000000180064de0 f i libucrtd:output.obj
 0001:00063e00       ?state_case_dot@?$output_processor@_WV?$string_output_adapter@_W@__crt_stdio_output@@V?$format_validation_base@_WV?$string_output_adapter@_W@__crt_stdio_output@@@2@@__crt_stdio_output@@AEAA_NXZ 0000000180064e00 f i libucrtd:output.obj
 0001:00063e20       ?state_case_dot@?$output_processor@_WV?$string_output_adapter@_W@__crt_stdio_output@@V?$positional_parameter_base@_WV?$string_output_adapter@_W@__crt_stdio_output@@@2@@__crt_stdio_output@@AEAA_NXZ 0000000180064e20 f i libucrtd:output.obj
 0001:00063e40       ?state_case_dot@?$output_processor@_WV?$string_output_adapter@_W@__crt_stdio_output@@V?$standard_base@_WV?$string_output_adapter@_W@__crt_stdio_output@@@2@@__crt_stdio_output@@AEAA_NXZ 0000000180064e40 f i libucrtd:output.obj
 0001:00063e60       ?state_case_flag@?$output_processor@DV?$stream_output_adapter@D@__crt_stdio_output@@V?$format_validation_base@DV?$stream_output_adapter@D@__crt_stdio_output@@@2@@__crt_stdio_output@@AEAA_NXZ 0000000180064e60 f i libucrtd:output.obj
 0001:00063f00       ?state_case_flag@?$output_processor@DV?$stream_output_adapter@D@__crt_stdio_output@@V?$positional_parameter_base@DV?$stream_output_adapter@D@__crt_stdio_output@@@2@@__crt_stdio_output@@AEAA_NXZ 0000000180064f00 f i libucrtd:output.obj
 0001:00063fa0       ?state_case_flag@?$output_processor@DV?$stream_output_adapter@D@__crt_stdio_output@@V?$standard_base@DV?$stream_output_adapter@D@__crt_stdio_output@@@2@@__crt_stdio_output@@AEAA_NXZ 0000000180064fa0 f i libucrtd:output.obj
 0001:00064040       ?state_case_flag@?$output_processor@DV?$string_output_adapter@D@__crt_stdio_output@@V?$format_validation_base@DV?$string_output_adapter@D@__crt_stdio_output@@@2@@__crt_stdio_output@@AEAA_NXZ 0000000180065040 f i libucrtd:output.obj
 0001:000640e0       ?state_case_flag@?$output_processor@DV?$string_output_adapter@D@__crt_stdio_output@@V?$positional_parameter_base@DV?$string_output_adapter@D@__crt_stdio_output@@@2@@__crt_stdio_output@@AEAA_NXZ 00000001800650e0 f i libucrtd:output.obj
 0001:00064180       ?state_case_flag@?$output_processor@DV?$string_output_adapter@D@__crt_stdio_output@@V?$standard_base@DV?$string_output_adapter@D@__crt_stdio_output@@@2@@__crt_stdio_output@@AEAA_NXZ 0000000180065180 f i libucrtd:output.obj
 0001:00064220       ?state_case_flag@?$output_processor@_WV?$stream_output_adapter@_W@__crt_stdio_output@@V?$format_validation_base@_WV?$stream_output_adapter@_W@__crt_stdio_output@@@2@@__crt_stdio_output@@AEAA_NXZ 0000000180065220 f i libucrtd:output.obj
 0001:000642c0       ?state_case_flag@?$output_processor@_WV?$stream_output_adapter@_W@__crt_stdio_output@@V?$positional_parameter_base@_WV?$stream_output_adapter@_W@__crt_stdio_output@@@2@@__crt_stdio_output@@AEAA_NXZ 00000001800652c0 f i libucrtd:output.obj
 0001:00064360       ?state_case_flag@?$output_processor@_WV?$stream_output_adapter@_W@__crt_stdio_output@@V?$standard_base@_WV?$stream_output_adapter@_W@__crt_stdio_output@@@2@@__crt_stdio_output@@AEAA_NXZ 0000000180065360 f i libucrtd:output.obj
 0001:00064400       ?state_case_flag@?$output_processor@_WV?$string_output_adapter@_W@__crt_stdio_output@@V?$format_validation_base@_WV?$string_output_adapter@_W@__crt_stdio_output@@@2@@__crt_stdio_output@@AEAA_NXZ 0000000180065400 f i libucrtd:output.obj
 0001:000644a0       ?state_case_flag@?$output_processor@_WV?$string_output_adapter@_W@__crt_stdio_output@@V?$positional_parameter_base@_WV?$string_output_adapter@_W@__crt_stdio_output@@@2@@__crt_stdio_output@@AEAA_NXZ 00000001800654a0 f i libucrtd:output.obj
 0001:00064540       ?state_case_flag@?$output_processor@_WV?$string_output_adapter@_W@__crt_stdio_output@@V?$standard_base@_WV?$string_output_adapter@_W@__crt_stdio_output@@@2@@__crt_stdio_output@@AEAA_NXZ 0000000180065540 f i libucrtd:output.obj
 0001:000645e0       ?state_case_normal@?$output_processor@DV?$stream_output_adapter@D@__crt_stdio_output@@V?$format_validation_base@DV?$stream_output_adapter@D@__crt_stdio_output@@@2@@__crt_stdio_output@@AEAA_NXZ 00000001800655e0 f i libucrtd:output.obj
 0001:000646c0       ?state_case_normal@?$output_processor@DV?$stream_output_adapter@D@__crt_stdio_output@@V?$positional_parameter_base@DV?$stream_output_adapter@D@__crt_stdio_output@@@2@@__crt_stdio_output@@AEAA_NXZ 00000001800656c0 f i libucrtd:output.obj
 0001:000647a0       ?state_case_normal@?$output_processor@DV?$stream_output_adapter@D@__crt_stdio_output@@V?$standard_base@DV?$stream_output_adapter@D@__crt_stdio_output@@@2@@__crt_stdio_output@@AEAA_NXZ 00000001800657a0 f i libucrtd:output.obj
 0001:00064880       ?state_case_normal@?$output_processor@DV?$string_output_adapter@D@__crt_stdio_output@@V?$format_validation_base@DV?$string_output_adapter@D@__crt_stdio_output@@@2@@__crt_stdio_output@@AEAA_NXZ 0000000180065880 f i libucrtd:output.obj
 0001:00064960       ?state_case_normal@?$output_processor@DV?$string_output_adapter@D@__crt_stdio_output@@V?$positional_parameter_base@DV?$string_output_adapter@D@__crt_stdio_output@@@2@@__crt_stdio_output@@AEAA_NXZ 0000000180065960 f i libucrtd:output.obj
 0001:00064a40       ?state_case_normal@?$output_processor@DV?$string_output_adapter@D@__crt_stdio_output@@V?$standard_base@DV?$string_output_adapter@D@__crt_stdio_output@@@2@@__crt_stdio_output@@AEAA_NXZ 0000000180065a40 f i libucrtd:output.obj
 0001:00064b20       ?state_case_normal@?$output_processor@_WV?$stream_output_adapter@_W@__crt_stdio_output@@V?$format_validation_base@_WV?$stream_output_adapter@_W@__crt_stdio_output@@@2@@__crt_stdio_output@@AEAA_NXZ 0000000180065b20 f i libucrtd:output.obj
 0001:00064c00       ?state_case_normal@?$output_processor@_WV?$stream_output_adapter@_W@__crt_stdio_output@@V?$positional_parameter_base@_WV?$stream_output_adapter@_W@__crt_stdio_output@@@2@@__crt_stdio_output@@AEAA_NXZ 0000000180065c00 f i libucrtd:output.obj
 0001:00064ce0       ?state_case_normal@?$output_processor@_WV?$stream_output_adapter@_W@__crt_stdio_output@@V?$standard_base@_WV?$stream_output_adapter@_W@__crt_stdio_output@@@2@@__crt_stdio_output@@AEAA_NXZ 0000000180065ce0 f i libucrtd:output.obj
 0001:00064dc0       ?state_case_normal@?$output_processor@_WV?$string_output_adapter@_W@__crt_stdio_output@@V?$format_validation_base@_WV?$string_output_adapter@_W@__crt_stdio_output@@@2@@__crt_stdio_output@@AEAA_NXZ 0000000180065dc0 f i libucrtd:output.obj
 0001:00064ea0       ?state_case_normal@?$output_processor@_WV?$string_output_adapter@_W@__crt_stdio_output@@V?$positional_parameter_base@_WV?$string_output_adapter@_W@__crt_stdio_output@@@2@@__crt_stdio_output@@AEAA_NXZ 0000000180065ea0 f i libucrtd:output.obj
 0001:00064f80       ?state_case_normal@?$output_processor@_WV?$string_output_adapter@_W@__crt_stdio_output@@V?$standard_base@_WV?$string_output_adapter@_W@__crt_stdio_output@@@2@@__crt_stdio_output@@AEAA_NXZ 0000000180065f80 f i libucrtd:output.obj
 0001:00065060       ?state_case_normal_common@?$output_processor@DV?$stream_output_adapter@D@__crt_stdio_output@@V?$format_validation_base@DV?$stream_output_adapter@D@__crt_stdio_output@@@2@@__crt_stdio_output@@AEAA_NXZ 0000000180066060 f i libucrtd:output.obj
 0001:000650b0       ?state_case_normal_common@?$output_processor@DV?$stream_output_adapter@D@__crt_stdio_output@@V?$positional_parameter_base@DV?$stream_output_adapter@D@__crt_stdio_output@@@2@@__crt_stdio_output@@AEAA_NXZ 00000001800660b0 f i libucrtd:output.obj
 0001:00065100       ?state_case_normal_common@?$output_processor@DV?$stream_output_adapter@D@__crt_stdio_output@@V?$standard_base@DV?$stream_output_adapter@D@__crt_stdio_output@@@2@@__crt_stdio_output@@AEAA_NXZ 0000000180066100 f i libucrtd:output.obj
 0001:00065150       ?state_case_normal_common@?$output_processor@DV?$string_output_adapter@D@__crt_stdio_output@@V?$format_validation_base@DV?$string_output_adapter@D@__crt_stdio_output@@@2@@__crt_stdio_output@@AEAA_NXZ 0000000180066150 f i libucrtd:output.obj
 0001:000651a0       ?state_case_normal_common@?$output_processor@DV?$string_output_adapter@D@__crt_stdio_output@@V?$positional_parameter_base@DV?$string_output_adapter@D@__crt_stdio_output@@@2@@__crt_stdio_output@@AEAA_NXZ 00000001800661a0 f i libucrtd:output.obj
 0001:000651f0       ?state_case_normal_common@?$output_processor@DV?$string_output_adapter@D@__crt_stdio_output@@V?$standard_base@DV?$string_output_adapter@D@__crt_stdio_output@@@2@@__crt_stdio_output@@AEAA_NXZ 00000001800661f0 f i libucrtd:output.obj
 0001:00065240       ?state_case_normal_common@?$output_processor@_WV?$stream_output_adapter@_W@__crt_stdio_output@@V?$format_validation_base@_WV?$stream_output_adapter@_W@__crt_stdio_output@@@2@@__crt_stdio_output@@AEAA_NXZ 0000000180066240 f i libucrtd:output.obj
 0001:00065290       ?state_case_normal_common@?$output_processor@_WV?$stream_output_adapter@_W@__crt_stdio_output@@V?$positional_parameter_base@_WV?$stream_output_adapter@_W@__crt_stdio_output@@@2@@__crt_stdio_output@@AEAA_NXZ 0000000180066290 f i libucrtd:output.obj
 0001:000652e0       ?state_case_normal_common@?$output_processor@_WV?$stream_output_adapter@_W@__crt_stdio_output@@V?$standard_base@_WV?$stream_output_adapter@_W@__crt_stdio_output@@@2@@__crt_stdio_output@@AEAA_NXZ 00000001800662e0 f i libucrtd:output.obj
 0001:00065330       ?state_case_normal_common@?$output_processor@_WV?$string_output_adapter@_W@__crt_stdio_output@@V?$format_validation_base@_WV?$string_output_adapter@_W@__crt_stdio_output@@@2@@__crt_stdio_output@@AEAA_NXZ 0000000180066330 f i libucrtd:output.obj
 0001:00065380       ?state_case_normal_common@?$output_processor@_WV?$string_output_adapter@_W@__crt_stdio_output@@V?$positional_parameter_base@_WV?$string_output_adapter@_W@__crt_stdio_output@@@2@@__crt_stdio_output@@AEAA_NXZ 0000000180066380 f i libucrtd:output.obj
 0001:000653d0       ?state_case_normal_common@?$output_processor@_WV?$string_output_adapter@_W@__crt_stdio_output@@V?$standard_base@_WV?$string_output_adapter@_W@__crt_stdio_output@@@2@@__crt_stdio_output@@AEAA_NXZ 00000001800663d0 f i libucrtd:output.obj
 0001:00065420       ?state_case_normal_tchar@?$output_processor@DV?$stream_output_adapter@D@__crt_stdio_output@@V?$format_validation_base@DV?$stream_output_adapter@D@__crt_stdio_output@@@2@@__crt_stdio_output@@AEAA_ND@Z 0000000180066420 f i libucrtd:output.obj
 0001:00065560       ?state_case_normal_tchar@?$output_processor@DV?$stream_output_adapter@D@__crt_stdio_output@@V?$positional_parameter_base@DV?$stream_output_adapter@D@__crt_stdio_output@@@2@@__crt_stdio_output@@AEAA_ND@Z 0000000180066560 f i libucrtd:output.obj
 0001:000656a0       ?state_case_normal_tchar@?$output_processor@DV?$stream_output_adapter@D@__crt_stdio_output@@V?$standard_base@DV?$stream_output_adapter@D@__crt_stdio_output@@@2@@__crt_stdio_output@@AEAA_ND@Z 00000001800666a0 f i libucrtd:output.obj
 0001:000657e0       ?state_case_normal_tchar@?$output_processor@DV?$string_output_adapter@D@__crt_stdio_output@@V?$format_validation_base@DV?$string_output_adapter@D@__crt_stdio_output@@@2@@__crt_stdio_output@@AEAA_ND@Z 00000001800667e0 f i libucrtd:output.obj
 0001:00065920       ?state_case_normal_tchar@?$output_processor@DV?$string_output_adapter@D@__crt_stdio_output@@V?$positional_parameter_base@DV?$string_output_adapter@D@__crt_stdio_output@@@2@@__crt_stdio_output@@AEAA_ND@Z 0000000180066920 f i libucrtd:output.obj
 0001:00065a60       ?state_case_normal_tchar@?$output_processor@DV?$string_output_adapter@D@__crt_stdio_output@@V?$standard_base@DV?$string_output_adapter@D@__crt_stdio_output@@@2@@__crt_stdio_output@@AEAA_ND@Z 0000000180066a60 f i libucrtd:output.obj
 0001:00065ba0       ?state_case_normal_tchar@?$output_processor@_WV?$stream_output_adapter@_W@__crt_stdio_output@@V?$format_validation_base@_WV?$stream_output_adapter@_W@__crt_stdio_output@@@2@@__crt_stdio_output@@AEAA_N_W@Z 0000000180066ba0 f i libucrtd:output.obj
 0001:00065bc0       ?state_case_normal_tchar@?$output_processor@_WV?$stream_output_adapter@_W@__crt_stdio_output@@V?$positional_parameter_base@_WV?$stream_output_adapter@_W@__crt_stdio_output@@@2@@__crt_stdio_output@@AEAA_N_W@Z 0000000180066bc0 f i libucrtd:output.obj
 0001:00065be0       ?state_case_normal_tchar@?$output_processor@_WV?$stream_output_adapter@_W@__crt_stdio_output@@V?$standard_base@_WV?$stream_output_adapter@_W@__crt_stdio_output@@@2@@__crt_stdio_output@@AEAA_N_W@Z 0000000180066be0 f i libucrtd:output.obj
 0001:00065c00       ?state_case_normal_tchar@?$output_processor@_WV?$string_output_adapter@_W@__crt_stdio_output@@V?$format_validation_base@_WV?$string_output_adapter@_W@__crt_stdio_output@@@2@@__crt_stdio_output@@AEAA_N_W@Z 0000000180066c00 f i libucrtd:output.obj
 0001:00065c20       ?state_case_normal_tchar@?$output_processor@_WV?$string_output_adapter@_W@__crt_stdio_output@@V?$positional_parameter_base@_WV?$string_output_adapter@_W@__crt_stdio_output@@@2@@__crt_stdio_output@@AEAA_N_W@Z 0000000180066c20 f i libucrtd:output.obj
 0001:00065c40       ?state_case_normal_tchar@?$output_processor@_WV?$string_output_adapter@_W@__crt_stdio_output@@V?$standard_base@_WV?$string_output_adapter@_W@__crt_stdio_output@@@2@@__crt_stdio_output@@AEAA_N_W@Z 0000000180066c40 f i libucrtd:output.obj
 0001:00065c60       ?state_case_percent@?$output_processor@DV?$stream_output_adapter@D@__crt_stdio_output@@V?$format_validation_base@DV?$stream_output_adapter@D@__crt_stdio_output@@@2@@__crt_stdio_output@@AEAA_NXZ 0000000180066c60 f i libucrtd:output.obj
 0001:00065cb0       ?state_case_percent@?$output_processor@DV?$stream_output_adapter@D@__crt_stdio_output@@V?$positional_parameter_base@DV?$stream_output_adapter@D@__crt_stdio_output@@@2@@__crt_stdio_output@@AEAA_NXZ 0000000180066cb0 f i libucrtd:output.obj
 0001:00065d00       ?state_case_percent@?$output_processor@DV?$stream_output_adapter@D@__crt_stdio_output@@V?$standard_base@DV?$stream_output_adapter@D@__crt_stdio_output@@@2@@__crt_stdio_output@@AEAA_NXZ 0000000180066d00 f i libucrtd:output.obj
 0001:00065d50       ?state_case_percent@?$output_processor@DV?$string_output_adapter@D@__crt_stdio_output@@V?$format_validation_base@DV?$string_output_adapter@D@__crt_stdio_output@@@2@@__crt_stdio_output@@AEAA_NXZ 0000000180066d50 f i libucrtd:output.obj
 0001:00065da0       ?state_case_percent@?$output_processor@DV?$string_output_adapter@D@__crt_stdio_output@@V?$positional_parameter_base@DV?$string_output_adapter@D@__crt_stdio_output@@@2@@__crt_stdio_output@@AEAA_NXZ 0000000180066da0 f i libucrtd:output.obj
 0001:00065df0       ?state_case_percent@?$output_processor@DV?$string_output_adapter@D@__crt_stdio_output@@V?$standard_base@DV?$string_output_adapter@D@__crt_stdio_output@@@2@@__crt_stdio_output@@AEAA_NXZ 0000000180066df0 f i libucrtd:output.obj
 0001:00065e40       ?state_case_percent@?$output_processor@_WV?$stream_output_adapter@_W@__crt_stdio_output@@V?$format_validation_base@_WV?$stream_output_adapter@_W@__crt_stdio_output@@@2@@__crt_stdio_output@@AEAA_NXZ 0000000180066e40 f i libucrtd:output.obj
 0001:00065e90       ?state_case_percent@?$output_processor@_WV?$stream_output_adapter@_W@__crt_stdio_output@@V?$positional_parameter_base@_WV?$stream_output_adapter@_W@__crt_stdio_output@@@2@@__crt_stdio_output@@AEAA_NXZ 0000000180066e90 f i libucrtd:output.obj
 0001:00065ee0       ?state_case_percent@?$output_processor@_WV?$stream_output_adapter@_W@__crt_stdio_output@@V?$standard_base@_WV?$stream_output_adapter@_W@__crt_stdio_output@@@2@@__crt_stdio_output@@AEAA_NXZ 0000000180066ee0 f i libucrtd:output.obj
 0001:00065f30       ?state_case_percent@?$output_processor@_WV?$string_output_adapter@_W@__crt_stdio_output@@V?$format_validation_base@_WV?$string_output_adapter@_W@__crt_stdio_output@@@2@@__crt_stdio_output@@AEAA_NXZ 0000000180066f30 f i libucrtd:output.obj
 0001:00065f80       ?state_case_percent@?$output_processor@_WV?$string_output_adapter@_W@__crt_stdio_output@@V?$positional_parameter_base@_WV?$string_output_adapter@_W@__crt_stdio_output@@@2@@__crt_stdio_output@@AEAA_NXZ 0000000180066f80 f i libucrtd:output.obj
 0001:00065fd0       ?state_case_percent@?$output_processor@_WV?$string_output_adapter@_W@__crt_stdio_output@@V?$standard_base@_WV?$string_output_adapter@_W@__crt_stdio_output@@@2@@__crt_stdio_output@@AEAA_NXZ 0000000180066fd0 f i libucrtd:output.obj
 0001:00066020       ?state_case_precision@?$output_processor@DV?$stream_output_adapter@D@__crt_stdio_output@@V?$format_validation_base@DV?$stream_output_adapter@D@__crt_stdio_output@@@2@@__crt_stdio_output@@AEAA_NXZ 0000000180067020 f i libucrtd:output.obj
 0001:000660a0       ?state_case_precision@?$output_processor@DV?$stream_output_adapter@D@__crt_stdio_output@@V?$positional_parameter_base@DV?$stream_output_adapter@D@__crt_stdio_output@@@2@@__crt_stdio_output@@AEAA_NXZ 00000001800670a0 f i libucrtd:output.obj
 0001:00066120       ?state_case_precision@?$output_processor@DV?$stream_output_adapter@D@__crt_stdio_output@@V?$standard_base@DV?$stream_output_adapter@D@__crt_stdio_output@@@2@@__crt_stdio_output@@AEAA_NXZ 0000000180067120 f i libucrtd:output.obj
 0001:000661a0       ?state_case_precision@?$output_processor@DV?$string_output_adapter@D@__crt_stdio_output@@V?$format_validation_base@DV?$string_output_adapter@D@__crt_stdio_output@@@2@@__crt_stdio_output@@AEAA_NXZ 00000001800671a0 f i libucrtd:output.obj
 0001:00066220       ?state_case_precision@?$output_processor@DV?$string_output_adapter@D@__crt_stdio_output@@V?$positional_parameter_base@DV?$string_output_adapter@D@__crt_stdio_output@@@2@@__crt_stdio_output@@AEAA_NXZ 0000000180067220 f i libucrtd:output.obj
 0001:000662a0       ?state_case_precision@?$output_processor@DV?$string_output_adapter@D@__crt_stdio_output@@V?$standard_base@DV?$string_output_adapter@D@__crt_stdio_output@@@2@@__crt_stdio_output@@AEAA_NXZ 00000001800672a0 f i libucrtd:output.obj
 0001:00066320       ?state_case_precision@?$output_processor@_WV?$stream_output_adapter@_W@__crt_stdio_output@@V?$format_validation_base@_WV?$stream_output_adapter@_W@__crt_stdio_output@@@2@@__crt_stdio_output@@AEAA_NXZ 0000000180067320 f i libucrtd:output.obj
 0001:000663a0       ?state_case_precision@?$output_processor@_WV?$stream_output_adapter@_W@__crt_stdio_output@@V?$positional_parameter_base@_WV?$stream_output_adapter@_W@__crt_stdio_output@@@2@@__crt_stdio_output@@AEAA_NXZ 00000001800673a0 f i libucrtd:output.obj
 0001:00066420       ?state_case_precision@?$output_processor@_WV?$stream_output_adapter@_W@__crt_stdio_output@@V?$standard_base@_WV?$stream_output_adapter@_W@__crt_stdio_output@@@2@@__crt_stdio_output@@AEAA_NXZ 0000000180067420 f i libucrtd:output.obj
 0001:000664a0       ?state_case_precision@?$output_processor@_WV?$string_output_adapter@_W@__crt_stdio_output@@V?$format_validation_base@_WV?$string_output_adapter@_W@__crt_stdio_output@@@2@@__crt_stdio_output@@AEAA_NXZ 00000001800674a0 f i libucrtd:output.obj
 0001:00066520       ?state_case_precision@?$output_processor@_WV?$string_output_adapter@_W@__crt_stdio_output@@V?$positional_parameter_base@_WV?$string_output_adapter@_W@__crt_stdio_output@@@2@@__crt_stdio_output@@AEAA_NXZ 0000000180067520 f i libucrtd:output.obj
 0001:000665a0       ?state_case_precision@?$output_processor@_WV?$string_output_adapter@_W@__crt_stdio_output@@V?$standard_base@_WV?$string_output_adapter@_W@__crt_stdio_output@@@2@@__crt_stdio_output@@AEAA_NXZ 00000001800675a0 f i libucrtd:output.obj
 0001:00066620       ?state_case_size@?$output_processor@DV?$stream_output_adapter@D@__crt_stdio_output@@V?$format_validation_base@DV?$stream_output_adapter@D@__crt_stdio_output@@@2@@__crt_stdio_output@@AEAA_NXZ 0000000180067620 f i libucrtd:output.obj
 0001:00066aa0       ?state_case_size@?$output_processor@DV?$stream_output_adapter@D@__crt_stdio_output@@V?$positional_parameter_base@DV?$stream_output_adapter@D@__crt_stdio_output@@@2@@__crt_stdio_output@@AEAA_NXZ 0000000180067aa0 f i libucrtd:output.obj
 0001:00066f20       ?state_case_size@?$output_processor@DV?$stream_output_adapter@D@__crt_stdio_output@@V?$standard_base@DV?$stream_output_adapter@D@__crt_stdio_output@@@2@@__crt_stdio_output@@AEAA_NXZ 0000000180067f20 f i libucrtd:output.obj
 0001:000673a0       ?state_case_size@?$output_processor@DV?$string_output_adapter@D@__crt_stdio_output@@V?$format_validation_base@DV?$string_output_adapter@D@__crt_stdio_output@@@2@@__crt_stdio_output@@AEAA_NXZ 00000001800683a0 f i libucrtd:output.obj
 0001:00067820       ?state_case_size@?$output_processor@DV?$string_output_adapter@D@__crt_stdio_output@@V?$positional_parameter_base@DV?$string_output_adapter@D@__crt_stdio_output@@@2@@__crt_stdio_output@@AEAA_NXZ 0000000180068820 f i libucrtd:output.obj
 0001:00067ca0       ?state_case_size@?$output_processor@DV?$string_output_adapter@D@__crt_stdio_output@@V?$standard_base@DV?$string_output_adapter@D@__crt_stdio_output@@@2@@__crt_stdio_output@@AEAA_NXZ 0000000180068ca0 f i libucrtd:output.obj
 0001:00068120       ?state_case_size@?$output_processor@_WV?$stream_output_adapter@_W@__crt_stdio_output@@V?$format_validation_base@_WV?$stream_output_adapter@_W@__crt_stdio_output@@@2@@__crt_stdio_output@@AEAA_NXZ 0000000180069120 f i libucrtd:output.obj
 0001:000685a0       ?state_case_size@?$output_processor@_WV?$stream_output_adapter@_W@__crt_stdio_output@@V?$positional_parameter_base@_WV?$stream_output_adapter@_W@__crt_stdio_output@@@2@@__crt_stdio_output@@AEAA_NXZ 00000001800695a0 f i libucrtd:output.obj
 0001:00068a20       ?state_case_size@?$output_processor@_WV?$stream_output_adapter@_W@__crt_stdio_output@@V?$standard_base@_WV?$stream_output_adapter@_W@__crt_stdio_output@@@2@@__crt_stdio_output@@AEAA_NXZ 0000000180069a20 f i libucrtd:output.obj
 0001:00068ea0       ?state_case_size@?$output_processor@_WV?$string_output_adapter@_W@__crt_stdio_output@@V?$format_validation_base@_WV?$string_output_adapter@_W@__crt_stdio_output@@@2@@__crt_stdio_output@@AEAA_NXZ 0000000180069ea0 f i libucrtd:output.obj
 0001:00069320       ?state_case_size@?$output_processor@_WV?$string_output_adapter@_W@__crt_stdio_output@@V?$positional_parameter_base@_WV?$string_output_adapter@_W@__crt_stdio_output@@@2@@__crt_stdio_output@@AEAA_NXZ 000000018006a320 f i libucrtd:output.obj
 0001:000697a0       ?state_case_size@?$output_processor@_WV?$string_output_adapter@_W@__crt_stdio_output@@V?$standard_base@_WV?$string_output_adapter@_W@__crt_stdio_output@@@2@@__crt_stdio_output@@AEAA_NXZ 000000018006a7a0 f i libucrtd:output.obj
 0001:00069c20       ?state_case_type@?$output_processor@DV?$stream_output_adapter@D@__crt_stdio_output@@V?$format_validation_base@DV?$stream_output_adapter@D@__crt_stdio_output@@@2@@__crt_stdio_output@@AEAA_NXZ 000000018006ac20 f i libucrtd:output.obj
 0001:0006a0c0       ?state_case_type@?$output_processor@DV?$stream_output_adapter@D@__crt_stdio_output@@V?$positional_parameter_base@DV?$stream_output_adapter@D@__crt_stdio_output@@@2@@__crt_stdio_output@@AEAA_NXZ 000000018006b0c0 f i libucrtd:output.obj
 0001:0006a560       ?state_case_type@?$output_processor@DV?$stream_output_adapter@D@__crt_stdio_output@@V?$standard_base@DV?$stream_output_adapter@D@__crt_stdio_output@@@2@@__crt_stdio_output@@AEAA_NXZ 000000018006b560 f i libucrtd:output.obj
 0001:0006aa00       ?state_case_type@?$output_processor@DV?$string_output_adapter@D@__crt_stdio_output@@V?$format_validation_base@DV?$string_output_adapter@D@__crt_stdio_output@@@2@@__crt_stdio_output@@AEAA_NXZ 000000018006ba00 f i libucrtd:output.obj
 0001:0006aea0       ?state_case_type@?$output_processor@DV?$string_output_adapter@D@__crt_stdio_output@@V?$positional_parameter_base@DV?$string_output_adapter@D@__crt_stdio_output@@@2@@__crt_stdio_output@@AEAA_NXZ 000000018006bea0 f i libucrtd:output.obj
 0001:0006b340       ?state_case_type@?$output_processor@DV?$string_output_adapter@D@__crt_stdio_output@@V?$standard_base@DV?$string_output_adapter@D@__crt_stdio_output@@@2@@__crt_stdio_output@@AEAA_NXZ 000000018006c340 f i libucrtd:output.obj
 0001:0006b7e0       ?state_case_type@?$output_processor@_WV?$stream_output_adapter@_W@__crt_stdio_output@@V?$format_validation_base@_WV?$stream_output_adapter@_W@__crt_stdio_output@@@2@@__crt_stdio_output@@AEAA_NXZ 000000018006c7e0 f i libucrtd:output.obj
 0001:0006bd40       ?state_case_type@?$output_processor@_WV?$stream_output_adapter@_W@__crt_stdio_output@@V?$positional_parameter_base@_WV?$stream_output_adapter@_W@__crt_stdio_output@@@2@@__crt_stdio_output@@AEAA_NXZ 000000018006cd40 f i libucrtd:output.obj
 0001:0006c2a0       ?state_case_type@?$output_processor@_WV?$stream_output_adapter@_W@__crt_stdio_output@@V?$standard_base@_WV?$stream_output_adapter@_W@__crt_stdio_output@@@2@@__crt_stdio_output@@AEAA_NXZ 000000018006d2a0 f i libucrtd:output.obj
 0001:0006c800       ?state_case_type@?$output_processor@_WV?$string_output_adapter@_W@__crt_stdio_output@@V?$format_validation_base@_WV?$string_output_adapter@_W@__crt_stdio_output@@@2@@__crt_stdio_output@@AEAA_NXZ 000000018006d800 f i libucrtd:output.obj
 0001:0006cd60       ?state_case_type@?$output_processor@_WV?$string_output_adapter@_W@__crt_stdio_output@@V?$positional_parameter_base@_WV?$string_output_adapter@_W@__crt_stdio_output@@@2@@__crt_stdio_output@@AEAA_NXZ 000000018006dd60 f i libucrtd:output.obj
 0001:0006d2c0       ?state_case_type@?$output_processor@_WV?$string_output_adapter@_W@__crt_stdio_output@@V?$standard_base@_WV?$string_output_adapter@_W@__crt_stdio_output@@@2@@__crt_stdio_output@@AEAA_NXZ 000000018006e2c0 f i libucrtd:output.obj
 0001:0006d820       ?state_case_width@?$output_processor@DV?$stream_output_adapter@D@__crt_stdio_output@@V?$format_validation_base@DV?$stream_output_adapter@D@__crt_stdio_output@@@2@@__crt_stdio_output@@AEAA_NXZ 000000018006e820 f i libucrtd:output.obj
 0001:0006d8b0       ?state_case_width@?$output_processor@DV?$stream_output_adapter@D@__crt_stdio_output@@V?$positional_parameter_base@DV?$stream_output_adapter@D@__crt_stdio_output@@@2@@__crt_stdio_output@@AEAA_NXZ 000000018006e8b0 f i libucrtd:output.obj
 0001:0006d940       ?state_case_width@?$output_processor@DV?$stream_output_adapter@D@__crt_stdio_output@@V?$standard_base@DV?$stream_output_adapter@D@__crt_stdio_output@@@2@@__crt_stdio_output@@AEAA_NXZ 000000018006e940 f i libucrtd:output.obj
 0001:0006d9d0       ?state_case_width@?$output_processor@DV?$string_output_adapter@D@__crt_stdio_output@@V?$format_validation_base@DV?$string_output_adapter@D@__crt_stdio_output@@@2@@__crt_stdio_output@@AEAA_NXZ 000000018006e9d0 f i libucrtd:output.obj
 0001:0006da60       ?state_case_width@?$output_processor@DV?$string_output_adapter@D@__crt_stdio_output@@V?$positional_parameter_base@DV?$string_output_adapter@D@__crt_stdio_output@@@2@@__crt_stdio_output@@AEAA_NXZ 000000018006ea60 f i libucrtd:output.obj
 0001:0006daf0       ?state_case_width@?$output_processor@DV?$string_output_adapter@D@__crt_stdio_output@@V?$standard_base@DV?$string_output_adapter@D@__crt_stdio_output@@@2@@__crt_stdio_output@@AEAA_NXZ 000000018006eaf0 f i libucrtd:output.obj
 0001:0006db80       ?state_case_width@?$output_processor@_WV?$stream_output_adapter@_W@__crt_stdio_output@@V?$format_validation_base@_WV?$stream_output_adapter@_W@__crt_stdio_output@@@2@@__crt_stdio_output@@AEAA_NXZ 000000018006eb80 f i libucrtd:output.obj
 0001:0006dc10       ?state_case_width@?$output_processor@_WV?$stream_output_adapter@_W@__crt_stdio_output@@V?$positional_parameter_base@_WV?$stream_output_adapter@_W@__crt_stdio_output@@@2@@__crt_stdio_output@@AEAA_NXZ 000000018006ec10 f i libucrtd:output.obj
 0001:0006dca0       ?state_case_width@?$output_processor@_WV?$stream_output_adapter@_W@__crt_stdio_output@@V?$standard_base@_WV?$stream_output_adapter@_W@__crt_stdio_output@@@2@@__crt_stdio_output@@AEAA_NXZ 000000018006eca0 f i libucrtd:output.obj
 0001:0006dd30       ?state_case_width@?$output_processor@_WV?$string_output_adapter@_W@__crt_stdio_output@@V?$format_validation_base@_WV?$string_output_adapter@_W@__crt_stdio_output@@@2@@__crt_stdio_output@@AEAA_NXZ 000000018006ed30 f i libucrtd:output.obj
 0001:0006ddc0       ?state_case_width@?$output_processor@_WV?$string_output_adapter@_W@__crt_stdio_output@@V?$positional_parameter_base@_WV?$string_output_adapter@_W@__crt_stdio_output@@@2@@__crt_stdio_output@@AEAA_NXZ 000000018006edc0 f i libucrtd:output.obj
 0001:0006de50       ?state_case_width@?$output_processor@_WV?$string_output_adapter@_W@__crt_stdio_output@@V?$standard_base@_WV?$string_output_adapter@_W@__crt_stdio_output@@@2@@__crt_stdio_output@@AEAA_NXZ 000000018006ee50 f i libucrtd:output.obj
 0001:0006dee0       ?state_count@?$format_validation_base@DV?$stream_output_adapter@D@__crt_stdio_output@@@__crt_stdio_output@@KAIXZ 000000018006eee0 f i libucrtd:output.obj
 0001:0006def0       ?state_count@?$format_validation_base@DV?$string_output_adapter@D@__crt_stdio_output@@@__crt_stdio_output@@KAIXZ 000000018006eef0 f i libucrtd:output.obj
 0001:0006df00       ?state_count@?$format_validation_base@_WV?$stream_output_adapter@_W@__crt_stdio_output@@@__crt_stdio_output@@KAIXZ 000000018006ef00 f i libucrtd:output.obj
 0001:0006df10       ?state_count@?$format_validation_base@_WV?$string_output_adapter@_W@__crt_stdio_output@@@__crt_stdio_output@@KAIXZ 000000018006ef10 f i libucrtd:output.obj
 0001:0006df20       ?state_count@?$standard_base@DV?$stream_output_adapter@D@__crt_stdio_output@@@__crt_stdio_output@@KAIXZ 000000018006ef20 f i libucrtd:output.obj
 0001:0006df30       ?state_count@?$standard_base@DV?$string_output_adapter@D@__crt_stdio_output@@@__crt_stdio_output@@KAIXZ 000000018006ef30 f i libucrtd:output.obj
 0001:0006df40       ?state_count@?$standard_base@_WV?$stream_output_adapter@_W@__crt_stdio_output@@@__crt_stdio_output@@KAIXZ 000000018006ef40 f i libucrtd:output.obj
 0001:0006df50       ?state_count@?$standard_base@_WV?$string_output_adapter@_W@__crt_stdio_output@@@__crt_stdio_output@@KAIXZ 000000018006ef50 f i libucrtd:output.obj
 0001:0006df60       ?state_transition_table@?$format_validation_base@DV?$stream_output_adapter@D@__crt_stdio_output@@@__crt_stdio_output@@KAPEBEXZ 000000018006ef60 f i libucrtd:output.obj
 0001:0006df70       ?state_transition_table@?$format_validation_base@DV?$string_output_adapter@D@__crt_stdio_output@@@__crt_stdio_output@@KAPEBEXZ 000000018006ef70 f i libucrtd:output.obj
 0001:0006df80       ?state_transition_table@?$format_validation_base@_WV?$stream_output_adapter@_W@__crt_stdio_output@@@__crt_stdio_output@@KAPEBEXZ 000000018006ef80 f i libucrtd:output.obj
 0001:0006df90       ?state_transition_table@?$format_validation_base@_WV?$string_output_adapter@_W@__crt_stdio_output@@@__crt_stdio_output@@KAPEBEXZ 000000018006ef90 f i libucrtd:output.obj
 0001:0006dfa0       ?state_transition_table@?$standard_base@DV?$stream_output_adapter@D@__crt_stdio_output@@@__crt_stdio_output@@KAPEBEXZ 000000018006efa0 f i libucrtd:output.obj
 0001:0006dfb0       ?state_transition_table@?$standard_base@DV?$string_output_adapter@D@__crt_stdio_output@@@__crt_stdio_output@@KAPEBEXZ 000000018006efb0 f i libucrtd:output.obj
 0001:0006dfc0       ?state_transition_table@?$standard_base@_WV?$stream_output_adapter@_W@__crt_stdio_output@@@__crt_stdio_output@@KAPEBEXZ 000000018006efc0 f i libucrtd:output.obj
 0001:0006dfd0       ?state_transition_table@?$standard_base@_WV?$string_output_adapter@_W@__crt_stdio_output@@@__crt_stdio_output@@KAPEBEXZ 000000018006efd0 f i libucrtd:output.obj
 0001:0006dfe0       ?tchar_string@?$common_data@D@__crt_stdio_output@@IEAAAEAPEADD@Z 000000018006efe0 f i libucrtd:output.obj
 0001:0006e000       ?tchar_string@?$common_data@D@__crt_stdio_output@@IEAAAEAPEADXZ 000000018006f000 f i libucrtd:output.obj
 0001:0006e020       ?tchar_string@?$common_data@_W@__crt_stdio_output@@IEAAAEAPEA_WXZ 000000018006f020 f i libucrtd:output.obj
 0001:0006e040       ?tchar_string@?$common_data@_W@__crt_stdio_output@@IEAAAEAPEA_W_W@Z 000000018006f040 f i libucrtd:output.obj
 0001:0006e060       ?to_integer_size@__crt_stdio_output@@YA_KW4length_modifier@1@@Z 000000018006f060 f i libucrtd:output.obj
 0001:0006e110       ?type_case_X@?$output_processor@DV?$stream_output_adapter@D@__crt_stdio_output@@V?$format_validation_base@DV?$stream_output_adapter@D@__crt_stdio_output@@@2@@__crt_stdio_output@@AEAA_NXZ 000000018006f110 f i libucrtd:output.obj
 0001:0006e130       ?type_case_X@?$output_processor@DV?$stream_output_adapter@D@__crt_stdio_output@@V?$positional_parameter_base@DV?$stream_output_adapter@D@__crt_stdio_output@@@2@@__crt_stdio_output@@AEAA_NXZ 000000018006f130 f i libucrtd:output.obj
 0001:0006e150       ?type_case_X@?$output_processor@DV?$stream_output_adapter@D@__crt_stdio_output@@V?$standard_base@DV?$stream_output_adapter@D@__crt_stdio_output@@@2@@__crt_stdio_output@@AEAA_NXZ 000000018006f150 f i libucrtd:output.obj
 0001:0006e170       ?type_case_X@?$output_processor@DV?$string_output_adapter@D@__crt_stdio_output@@V?$format_validation_base@DV?$string_output_adapter@D@__crt_stdio_output@@@2@@__crt_stdio_output@@AEAA_NXZ 000000018006f170 f i libucrtd:output.obj
 0001:0006e190       ?type_case_X@?$output_processor@DV?$string_output_adapter@D@__crt_stdio_output@@V?$positional_parameter_base@DV?$string_output_adapter@D@__crt_stdio_output@@@2@@__crt_stdio_output@@AEAA_NXZ 000000018006f190 f i libucrtd:output.obj
 0001:0006e1b0       ?type_case_X@?$output_processor@DV?$string_output_adapter@D@__crt_stdio_output@@V?$standard_base@DV?$string_output_adapter@D@__crt_stdio_output@@@2@@__crt_stdio_output@@AEAA_NXZ 000000018006f1b0 f i libucrtd:output.obj
 0001:0006e1d0       ?type_case_X@?$output_processor@_WV?$stream_output_adapter@_W@__crt_stdio_output@@V?$format_validation_base@_WV?$stream_output_adapter@_W@__crt_stdio_output@@@2@@__crt_stdio_output@@AEAA_NXZ 000000018006f1d0 f i libucrtd:output.obj
 0001:0006e1f0       ?type_case_X@?$output_processor@_WV?$stream_output_adapter@_W@__crt_stdio_output@@V?$positional_parameter_base@_WV?$stream_output_adapter@_W@__crt_stdio_output@@@2@@__crt_stdio_output@@AEAA_NXZ 000000018006f1f0 f i libucrtd:output.obj
 0001:0006e210       ?type_case_X@?$output_processor@_WV?$stream_output_adapter@_W@__crt_stdio_output@@V?$standard_base@_WV?$stream_output_adapter@_W@__crt_stdio_output@@@2@@__crt_stdio_output@@AEAA_NXZ 000000018006f210 f i libucrtd:output.obj
 0001:0006e230       ?type_case_X@?$output_processor@_WV?$string_output_adapter@_W@__crt_stdio_output@@V?$format_validation_base@_WV?$string_output_adapter@_W@__crt_stdio_output@@@2@@__crt_stdio_output@@AEAA_NXZ 000000018006f230 f i libucrtd:output.obj
 0001:0006e250       ?type_case_X@?$output_processor@_WV?$string_output_adapter@_W@__crt_stdio_output@@V?$positional_parameter_base@_WV?$string_output_adapter@_W@__crt_stdio_output@@@2@@__crt_stdio_output@@AEAA_NXZ 000000018006f250 f i libucrtd:output.obj
 0001:0006e270       ?type_case_X@?$output_processor@_WV?$string_output_adapter@_W@__crt_stdio_output@@V?$standard_base@_WV?$string_output_adapter@_W@__crt_stdio_output@@@2@@__crt_stdio_output@@AEAA_NXZ 000000018006f270 f i libucrtd:output.obj
 0001:0006e290       ?type_case_Z@?$output_processor@DV?$stream_output_adapter@D@__crt_stdio_output@@V?$format_validation_base@DV?$stream_output_adapter@D@__crt_stdio_output@@@2@@__crt_stdio_output@@AEAA_NXZ 000000018006f290 f i libucrtd:output.obj
 0001:0006e3b0       ?type_case_Z@?$output_processor@DV?$stream_output_adapter@D@__crt_stdio_output@@V?$positional_parameter_base@DV?$stream_output_adapter@D@__crt_stdio_output@@@2@@__crt_stdio_output@@AEAA_NXZ 000000018006f3b0 f i libucrtd:output.obj
 0001:0006e4d0       ?type_case_Z@?$output_processor@DV?$stream_output_adapter@D@__crt_stdio_output@@V?$standard_base@DV?$stream_output_adapter@D@__crt_stdio_output@@@2@@__crt_stdio_output@@AEAA_NXZ 000000018006f4d0 f i libucrtd:output.obj
 0001:0006e5f0       ?type_case_Z@?$output_processor@DV?$string_output_adapter@D@__crt_stdio_output@@V?$format_validation_base@DV?$string_output_adapter@D@__crt_stdio_output@@@2@@__crt_stdio_output@@AEAA_NXZ 000000018006f5f0 f i libucrtd:output.obj
 0001:0006e710       ?type_case_Z@?$output_processor@DV?$string_output_adapter@D@__crt_stdio_output@@V?$positional_parameter_base@DV?$string_output_adapter@D@__crt_stdio_output@@@2@@__crt_stdio_output@@AEAA_NXZ 000000018006f710 f i libucrtd:output.obj
 0001:0006e830       ?type_case_Z@?$output_processor@DV?$string_output_adapter@D@__crt_stdio_output@@V?$standard_base@DV?$string_output_adapter@D@__crt_stdio_output@@@2@@__crt_stdio_output@@AEAA_NXZ 000000018006f830 f i libucrtd:output.obj
 0001:0006e950       ?type_case_Z@?$output_processor@_WV?$stream_output_adapter@_W@__crt_stdio_output@@V?$format_validation_base@_WV?$stream_output_adapter@_W@__crt_stdio_output@@@2@@__crt_stdio_output@@AEAA_NXZ 000000018006f950 f i libucrtd:output.obj
 0001:0006ea70       ?type_case_Z@?$output_processor@_WV?$stream_output_adapter@_W@__crt_stdio_output@@V?$positional_parameter_base@_WV?$stream_output_adapter@_W@__crt_stdio_output@@@2@@__crt_stdio_output@@AEAA_NXZ 000000018006fa70 f i libucrtd:output.obj
 0001:0006eb90       ?type_case_Z@?$output_processor@_WV?$stream_output_adapter@_W@__crt_stdio_output@@V?$standard_base@_WV?$stream_output_adapter@_W@__crt_stdio_output@@@2@@__crt_stdio_output@@AEAA_NXZ 000000018006fb90 f i libucrtd:output.obj
 0001:0006ecb0       ?type_case_Z@?$output_processor@_WV?$string_output_adapter@_W@__crt_stdio_output@@V?$format_validation_base@_WV?$string_output_adapter@_W@__crt_stdio_output@@@2@@__crt_stdio_output@@AEAA_NXZ 000000018006fcb0 f i libucrtd:output.obj
 0001:0006edd0       ?type_case_Z@?$output_processor@_WV?$string_output_adapter@_W@__crt_stdio_output@@V?$positional_parameter_base@_WV?$string_output_adapter@_W@__crt_stdio_output@@@2@@__crt_stdio_output@@AEAA_NXZ 000000018006fdd0 f i libucrtd:output.obj
 0001:0006eef0       ?type_case_Z@?$output_processor@_WV?$string_output_adapter@_W@__crt_stdio_output@@V?$standard_base@_WV?$string_output_adapter@_W@__crt_stdio_output@@@2@@__crt_stdio_output@@AEAA_NXZ 000000018006fef0 f i libucrtd:output.obj
 0001:0006f010       ?type_case_a@?$output_processor@DV?$stream_output_adapter@D@__crt_stdio_output@@V?$format_validation_base@DV?$stream_output_adapter@D@__crt_stdio_output@@@2@@__crt_stdio_output@@AEAA_NXZ 0000000180070010 f i libucrtd:output.obj
 0001:0006f3d0       ?type_case_a@?$output_processor@DV?$stream_output_adapter@D@__crt_stdio_output@@V?$positional_parameter_base@DV?$stream_output_adapter@D@__crt_stdio_output@@@2@@__crt_stdio_output@@AEAA_NXZ 00000001800703d0 f i libucrtd:output.obj
 0001:0006f790       ?type_case_a@?$output_processor@DV?$stream_output_adapter@D@__crt_stdio_output@@V?$standard_base@DV?$stream_output_adapter@D@__crt_stdio_output@@@2@@__crt_stdio_output@@AEAA_NXZ 0000000180070790 f i libucrtd:output.obj
 0001:0006fb50       ?type_case_a@?$output_processor@DV?$string_output_adapter@D@__crt_stdio_output@@V?$format_validation_base@DV?$string_output_adapter@D@__crt_stdio_output@@@2@@__crt_stdio_output@@AEAA_NXZ 0000000180070b50 f i libucrtd:output.obj
 0001:0006ff10       ?type_case_a@?$output_processor@DV?$string_output_adapter@D@__crt_stdio_output@@V?$positional_parameter_base@DV?$string_output_adapter@D@__crt_stdio_output@@@2@@__crt_stdio_output@@AEAA_NXZ 0000000180070f10 f i libucrtd:output.obj
 0001:000702d0       ?type_case_a@?$output_processor@DV?$string_output_adapter@D@__crt_stdio_output@@V?$standard_base@DV?$string_output_adapter@D@__crt_stdio_output@@@2@@__crt_stdio_output@@AEAA_NXZ 00000001800712d0 f i libucrtd:output.obj
 0001:00070690       ?type_case_a@?$output_processor@_WV?$stream_output_adapter@_W@__crt_stdio_output@@V?$format_validation_base@_WV?$stream_output_adapter@_W@__crt_stdio_output@@@2@@__crt_stdio_output@@AEAA_NXZ 0000000180071690 f i libucrtd:output.obj
 0001:00070a60       ?type_case_a@?$output_processor@_WV?$stream_output_adapter@_W@__crt_stdio_output@@V?$positional_parameter_base@_WV?$stream_output_adapter@_W@__crt_stdio_output@@@2@@__crt_stdio_output@@AEAA_NXZ 0000000180071a60 f i libucrtd:output.obj
 0001:00070e30       ?type_case_a@?$output_processor@_WV?$stream_output_adapter@_W@__crt_stdio_output@@V?$standard_base@_WV?$stream_output_adapter@_W@__crt_stdio_output@@@2@@__crt_stdio_output@@AEAA_NXZ 0000000180071e30 f i libucrtd:output.obj
 0001:00071200       ?type_case_a@?$output_processor@_WV?$string_output_adapter@_W@__crt_stdio_output@@V?$format_validation_base@_WV?$string_output_adapter@_W@__crt_stdio_output@@@2@@__crt_stdio_output@@AEAA_NXZ 0000000180072200 f i libucrtd:output.obj
 0001:000715d0       ?type_case_a@?$output_processor@_WV?$string_output_adapter@_W@__crt_stdio_output@@V?$positional_parameter_base@_WV?$string_output_adapter@_W@__crt_stdio_output@@@2@@__crt_stdio_output@@AEAA_NXZ 00000001800725d0 f i libucrtd:output.obj
 0001:000719a0       ?type_case_a@?$output_processor@_WV?$string_output_adapter@_W@__crt_stdio_output@@V?$standard_base@_WV?$string_output_adapter@_W@__crt_stdio_output@@@2@@__crt_stdio_output@@AEAA_NXZ 00000001800729a0 f i libucrtd:output.obj
 0001:00071d70       ?type_case_c@?$output_processor@DV?$stream_output_adapter@D@__crt_stdio_output@@V?$format_validation_base@DV?$stream_output_adapter@D@__crt_stdio_output@@@2@@__crt_stdio_output@@AEAA_NXZ 0000000180072d70 f i libucrtd:output.obj
 0001:00071d90       ?type_case_c@?$output_processor@DV?$stream_output_adapter@D@__crt_stdio_output@@V?$positional_parameter_base@DV?$stream_output_adapter@D@__crt_stdio_output@@@2@@__crt_stdio_output@@AEAA_NXZ 0000000180072d90 f i libucrtd:output.obj
 0001:00071db0       ?type_case_c@?$output_processor@DV?$stream_output_adapter@D@__crt_stdio_output@@V?$standard_base@DV?$stream_output_adapter@D@__crt_stdio_output@@@2@@__crt_stdio_output@@AEAA_NXZ 0000000180072db0 f i libucrtd:output.obj
 0001:00071dd0       ?type_case_c@?$output_processor@DV?$string_output_adapter@D@__crt_stdio_output@@V?$format_validation_base@DV?$string_output_adapter@D@__crt_stdio_output@@@2@@__crt_stdio_output@@AEAA_NXZ 0000000180072dd0 f i libucrtd:output.obj
 0001:00071df0       ?type_case_c@?$output_processor@DV?$string_output_adapter@D@__crt_stdio_output@@V?$positional_parameter_base@DV?$string_output_adapter@D@__crt_stdio_output@@@2@@__crt_stdio_output@@AEAA_NXZ 0000000180072df0 f i libucrtd:output.obj
 0001:00071e10       ?type_case_c@?$output_processor@DV?$string_output_adapter@D@__crt_stdio_output@@V?$standard_base@DV?$string_output_adapter@D@__crt_stdio_output@@@2@@__crt_stdio_output@@AEAA_NXZ 0000000180072e10 f i libucrtd:output.obj
 0001:00071e30       ?type_case_c@?$output_processor@_WV?$stream_output_adapter@_W@__crt_stdio_output@@V?$format_validation_base@_WV?$stream_output_adapter@_W@__crt_stdio_output@@@2@@__crt_stdio_output@@AEAA_NXZ 0000000180072e30 f i libucrtd:output.obj
 0001:00071e50       ?type_case_c@?$output_processor@_WV?$stream_output_adapter@_W@__crt_stdio_output@@V?$positional_parameter_base@_WV?$stream_output_adapter@_W@__crt_stdio_output@@@2@@__crt_stdio_output@@AEAA_NXZ 0000000180072e50 f i libucrtd:output.obj
 0001:00071e70       ?type_case_c@?$output_processor@_WV?$stream_output_adapter@_W@__crt_stdio_output@@V?$standard_base@_WV?$stream_output_adapter@_W@__crt_stdio_output@@@2@@__crt_stdio_output@@AEAA_NXZ 0000000180072e70 f i libucrtd:output.obj
 0001:00071e90       ?type_case_c@?$output_processor@_WV?$string_output_adapter@_W@__crt_stdio_output@@V?$format_validation_base@_WV?$string_output_adapter@_W@__crt_stdio_output@@@2@@__crt_stdio_output@@AEAA_NXZ 0000000180072e90 f i libucrtd:output.obj
 0001:00071eb0       ?type_case_c@?$output_processor@_WV?$string_output_adapter@_W@__crt_stdio_output@@V?$positional_parameter_base@_WV?$string_output_adapter@_W@__crt_stdio_output@@@2@@__crt_stdio_output@@AEAA_NXZ 0000000180072eb0 f i libucrtd:output.obj
 0001:00071ed0       ?type_case_c@?$output_processor@_WV?$string_output_adapter@_W@__crt_stdio_output@@V?$standard_base@_WV?$string_output_adapter@_W@__crt_stdio_output@@@2@@__crt_stdio_output@@AEAA_NXZ 0000000180072ed0 f i libucrtd:output.obj
 0001:00071ef0       ?type_case_c_tchar@?$output_processor@DV?$stream_output_adapter@D@__crt_stdio_output@@V?$format_validation_base@DV?$stream_output_adapter@D@__crt_stdio_output@@@2@@__crt_stdio_output@@AEAA_ND@Z 0000000180072ef0 f i libucrtd:output.obj
 0001:00072040       ?type_case_c_tchar@?$output_processor@DV?$stream_output_adapter@D@__crt_stdio_output@@V?$positional_parameter_base@DV?$stream_output_adapter@D@__crt_stdio_output@@@2@@__crt_stdio_output@@AEAA_ND@Z 0000000180073040 f i libucrtd:output.obj
 0001:00072190       ?type_case_c_tchar@?$output_processor@DV?$stream_output_adapter@D@__crt_stdio_output@@V?$standard_base@DV?$stream_output_adapter@D@__crt_stdio_output@@@2@@__crt_stdio_output@@AEAA_ND@Z 0000000180073190 f i libucrtd:output.obj
 0001:000722e0       ?type_case_c_tchar@?$output_processor@DV?$string_output_adapter@D@__crt_stdio_output@@V?$format_validation_base@DV?$string_output_adapter@D@__crt_stdio_output@@@2@@__crt_stdio_output@@AEAA_ND@Z 00000001800732e0 f i libucrtd:output.obj
 0001:00072430       ?type_case_c_tchar@?$output_processor@DV?$string_output_adapter@D@__crt_stdio_output@@V?$positional_parameter_base@DV?$string_output_adapter@D@__crt_stdio_output@@@2@@__crt_stdio_output@@AEAA_ND@Z 0000000180073430 f i libucrtd:output.obj
 0001:00072580       ?type_case_c_tchar@?$output_processor@DV?$string_output_adapter@D@__crt_stdio_output@@V?$standard_base@DV?$string_output_adapter@D@__crt_stdio_output@@@2@@__crt_stdio_output@@AEAA_ND@Z 0000000180073580 f i libucrtd:output.obj
 0001:000726d0       ?type_case_c_tchar@?$output_processor@_WV?$stream_output_adapter@_W@__crt_stdio_output@@V?$format_validation_base@_WV?$stream_output_adapter@_W@__crt_stdio_output@@@2@@__crt_stdio_output@@AEAA_N_W@Z 00000001800736d0 f i libucrtd:output.obj
 0001:00072800       ?type_case_c_tchar@?$output_processor@_WV?$stream_output_adapter@_W@__crt_stdio_output@@V?$positional_parameter_base@_WV?$stream_output_adapter@_W@__crt_stdio_output@@@2@@__crt_stdio_output@@AEAA_N_W@Z 0000000180073800 f i libucrtd:output.obj
 0001:00072930       ?type_case_c_tchar@?$output_processor@_WV?$stream_output_adapter@_W@__crt_stdio_output@@V?$standard_base@_WV?$stream_output_adapter@_W@__crt_stdio_output@@@2@@__crt_stdio_output@@AEAA_N_W@Z 0000000180073930 f i libucrtd:output.obj
 0001:00072a60       ?type_case_c_tchar@?$output_processor@_WV?$string_output_adapter@_W@__crt_stdio_output@@V?$format_validation_base@_WV?$string_output_adapter@_W@__crt_stdio_output@@@2@@__crt_stdio_output@@AEAA_N_W@Z 0000000180073a60 f i libucrtd:output.obj
 0001:00072b90       ?type_case_c_tchar@?$output_processor@_WV?$string_output_adapter@_W@__crt_stdio_output@@V?$positional_parameter_base@_WV?$string_output_adapter@_W@__crt_stdio_output@@@2@@__crt_stdio_output@@AEAA_N_W@Z 0000000180073b90 f i libucrtd:output.obj
 0001:00072cc0       ?type_case_c_tchar@?$output_processor@_WV?$string_output_adapter@_W@__crt_stdio_output@@V?$standard_base@_WV?$string_output_adapter@_W@__crt_stdio_output@@@2@@__crt_stdio_output@@AEAA_N_W@Z 0000000180073cc0 f i libucrtd:output.obj
 0001:00072df0       ?type_case_d@?$output_processor@DV?$stream_output_adapter@D@__crt_stdio_output@@V?$format_validation_base@DV?$stream_output_adapter@D@__crt_stdio_output@@@2@@__crt_stdio_output@@AEAA_NXZ 0000000180073df0 f i libucrtd:output.obj
 0001:00072e20       ?type_case_d@?$output_processor@DV?$stream_output_adapter@D@__crt_stdio_output@@V?$positional_parameter_base@DV?$stream_output_adapter@D@__crt_stdio_output@@@2@@__crt_stdio_output@@AEAA_NXZ 0000000180073e20 f i libucrtd:output.obj
 0001:00072e50       ?type_case_d@?$output_processor@DV?$stream_output_adapter@D@__crt_stdio_output@@V?$standard_base@DV?$stream_output_adapter@D@__crt_stdio_output@@@2@@__crt_stdio_output@@AEAA_NXZ 0000000180073e50 f i libucrtd:output.obj
 0001:00072e80       ?type_case_d@?$output_processor@DV?$string_output_adapter@D@__crt_stdio_output@@V?$format_validation_base@DV?$string_output_adapter@D@__crt_stdio_output@@@2@@__crt_stdio_output@@AEAA_NXZ 0000000180073e80 f i libucrtd:output.obj
 0001:00072eb0       ?type_case_d@?$output_processor@DV?$string_output_adapter@D@__crt_stdio_output@@V?$positional_parameter_base@DV?$string_output_adapter@D@__crt_stdio_output@@@2@@__crt_stdio_output@@AEAA_NXZ 0000000180073eb0 f i libucrtd:output.obj
 0001:00072ee0       ?type_case_d@?$output_processor@DV?$string_output_adapter@D@__crt_stdio_output@@V?$standard_base@DV?$string_output_adapter@D@__crt_stdio_output@@@2@@__crt_stdio_output@@AEAA_NXZ 0000000180073ee0 f i libucrtd:output.obj
 0001:00072f10       ?type_case_d@?$output_processor@_WV?$stream_output_adapter@_W@__crt_stdio_output@@V?$format_validation_base@_WV?$stream_output_adapter@_W@__crt_stdio_output@@@2@@__crt_stdio_output@@AEAA_NXZ 0000000180073f10 f i libucrtd:output.obj
 0001:00072f40       ?type_case_d@?$output_processor@_WV?$stream_output_adapter@_W@__crt_stdio_output@@V?$positional_parameter_base@_WV?$stream_output_adapter@_W@__crt_stdio_output@@@2@@__crt_stdio_output@@AEAA_NXZ 0000000180073f40 f i libucrtd:output.obj
 0001:00072f70       ?type_case_d@?$output_processor@_WV?$stream_output_adapter@_W@__crt_stdio_output@@V?$standard_base@_WV?$stream_output_adapter@_W@__crt_stdio_output@@@2@@__crt_stdio_output@@AEAA_NXZ 0000000180073f70 f i libucrtd:output.obj
 0001:00072fa0       ?type_case_d@?$output_processor@_WV?$string_output_adapter@_W@__crt_stdio_output@@V?$format_validation_base@_WV?$string_output_adapter@_W@__crt_stdio_output@@@2@@__crt_stdio_output@@AEAA_NXZ 0000000180073fa0 f i libucrtd:output.obj
 0001:00072fd0       ?type_case_d@?$output_processor@_WV?$string_output_adapter@_W@__crt_stdio_output@@V?$positional_parameter_base@_WV?$string_output_adapter@_W@__crt_stdio_output@@@2@@__crt_stdio_output@@AEAA_NXZ 0000000180073fd0 f i libucrtd:output.obj
 0001:00073000       ?type_case_d@?$output_processor@_WV?$string_output_adapter@_W@__crt_stdio_output@@V?$standard_base@_WV?$string_output_adapter@_W@__crt_stdio_output@@@2@@__crt_stdio_output@@AEAA_NXZ 0000000180074000 f i libucrtd:output.obj
 0001:00073030       ?type_case_integer@?$output_processor@DV?$stream_output_adapter@D@__crt_stdio_output@@V?$format_validation_base@DV?$stream_output_adapter@D@__crt_stdio_output@@@2@@__crt_stdio_output@@AEAA_NI_N@Z 0000000180074030 f i libucrtd:output.obj
 0001:00073480       ?type_case_integer@?$output_processor@DV?$stream_output_adapter@D@__crt_stdio_output@@V?$positional_parameter_base@DV?$stream_output_adapter@D@__crt_stdio_output@@@2@@__crt_stdio_output@@AEAA_NI_N@Z 0000000180074480 f i libucrtd:output.obj
 0001:000738d0       ?type_case_integer@?$output_processor@DV?$stream_output_adapter@D@__crt_stdio_output@@V?$standard_base@DV?$stream_output_adapter@D@__crt_stdio_output@@@2@@__crt_stdio_output@@AEAA_NI_N@Z 00000001800748d0 f i libucrtd:output.obj
 0001:00073d20       ?type_case_integer@?$output_processor@DV?$string_output_adapter@D@__crt_stdio_output@@V?$format_validation_base@DV?$string_output_adapter@D@__crt_stdio_output@@@2@@__crt_stdio_output@@AEAA_NI_N@Z 0000000180074d20 f i libucrtd:output.obj
 0001:00074170       ?type_case_integer@?$output_processor@DV?$string_output_adapter@D@__crt_stdio_output@@V?$positional_parameter_base@DV?$string_output_adapter@D@__crt_stdio_output@@@2@@__crt_stdio_output@@AEAA_NI_N@Z 0000000180075170 f i libucrtd:output.obj
 0001:000745c0       ?type_case_integer@?$output_processor@DV?$string_output_adapter@D@__crt_stdio_output@@V?$standard_base@DV?$string_output_adapter@D@__crt_stdio_output@@@2@@__crt_stdio_output@@AEAA_NI_N@Z 00000001800755c0 f i libucrtd:output.obj
 0001:00074a10       ?type_case_integer@?$output_processor@_WV?$stream_output_adapter@_W@__crt_stdio_output@@V?$format_validation_base@_WV?$stream_output_adapter@_W@__crt_stdio_output@@@2@@__crt_stdio_output@@AEAA_NI_N@Z 0000000180075a10 f i libucrtd:output.obj
 0001:00074e60       ?type_case_integer@?$output_processor@_WV?$stream_output_adapter@_W@__crt_stdio_output@@V?$positional_parameter_base@_WV?$stream_output_adapter@_W@__crt_stdio_output@@@2@@__crt_stdio_output@@AEAA_NI_N@Z 0000000180075e60 f i libucrtd:output.obj
 0001:000752b0       ?type_case_integer@?$output_processor@_WV?$stream_output_adapter@_W@__crt_stdio_output@@V?$standard_base@_WV?$stream_output_adapter@_W@__crt_stdio_output@@@2@@__crt_stdio_output@@AEAA_NI_N@Z 00000001800762b0 f i libucrtd:output.obj
 0001:00075700       ?type_case_integer@?$output_processor@_WV?$string_output_adapter@_W@__crt_stdio_output@@V?$format_validation_base@_WV?$string_output_adapter@_W@__crt_stdio_output@@@2@@__crt_stdio_output@@AEAA_NI_N@Z 0000000180076700 f i libucrtd:output.obj
 0001:00075b50       ?type_case_integer@?$output_processor@_WV?$string_output_adapter@_W@__crt_stdio_output@@V?$positional_parameter_base@_WV?$string_output_adapter@_W@__crt_stdio_output@@@2@@__crt_stdio_output@@AEAA_NI_N@Z 0000000180076b50 f i libucrtd:output.obj
 0001:00075fa0       ?type_case_integer@?$output_processor@_WV?$string_output_adapter@_W@__crt_stdio_output@@V?$standard_base@_WV?$string_output_adapter@_W@__crt_stdio_output@@@2@@__crt_stdio_output@@AEAA_NI_N@Z 0000000180076fa0 f i libucrtd:output.obj
 0001:000763f0       ?type_case_n@?$output_processor@DV?$stream_output_adapter@D@__crt_stdio_output@@V?$format_validation_base@DV?$stream_output_adapter@D@__crt_stdio_output@@@2@@__crt_stdio_output@@AEAA_NXZ 00000001800773f0 f i libucrtd:output.obj
 0001:00076630       ?type_case_n@?$output_processor@DV?$stream_output_adapter@D@__crt_stdio_output@@V?$positional_parameter_base@DV?$stream_output_adapter@D@__crt_stdio_output@@@2@@__crt_stdio_output@@AEAA_NXZ 0000000180077630 f i libucrtd:output.obj
 0001:00076870       ?type_case_n@?$output_processor@DV?$stream_output_adapter@D@__crt_stdio_output@@V?$standard_base@DV?$stream_output_adapter@D@__crt_stdio_output@@@2@@__crt_stdio_output@@AEAA_NXZ 0000000180077870 f i libucrtd:output.obj
 0001:00076ab0       ?type_case_n@?$output_processor@DV?$string_output_adapter@D@__crt_stdio_output@@V?$format_validation_base@DV?$string_output_adapter@D@__crt_stdio_output@@@2@@__crt_stdio_output@@AEAA_NXZ 0000000180077ab0 f i libucrtd:output.obj
 0001:00076cf0       ?type_case_n@?$output_processor@DV?$string_output_adapter@D@__crt_stdio_output@@V?$positional_parameter_base@DV?$string_output_adapter@D@__crt_stdio_output@@@2@@__crt_stdio_output@@AEAA_NXZ 0000000180077cf0 f i libucrtd:output.obj
 0001:00076f30       ?type_case_n@?$output_processor@DV?$string_output_adapter@D@__crt_stdio_output@@V?$standard_base@DV?$string_output_adapter@D@__crt_stdio_output@@@2@@__crt_stdio_output@@AEAA_NXZ 0000000180077f30 f i libucrtd:output.obj
 0001:00077170       ?type_case_n@?$output_processor@_WV?$stream_output_adapter@_W@__crt_stdio_output@@V?$format_validation_base@_WV?$stream_output_adapter@_W@__crt_stdio_output@@@2@@__crt_stdio_output@@AEAA_NXZ 0000000180078170 f i libucrtd:output.obj
 0001:000773b0       ?type_case_n@?$output_processor@_WV?$stream_output_adapter@_W@__crt_stdio_output@@V?$positional_parameter_base@_WV?$stream_output_adapter@_W@__crt_stdio_output@@@2@@__crt_stdio_output@@AEAA_NXZ 00000001800783b0 f i libucrtd:output.obj
 0001:000775f0       ?type_case_n@?$output_processor@_WV?$stream_output_adapter@_W@__crt_stdio_output@@V?$standard_base@_WV?$stream_output_adapter@_W@__crt_stdio_output@@@2@@__crt_stdio_output@@AEAA_NXZ 00000001800785f0 f i libucrtd:output.obj
 0001:00077830       ?type_case_n@?$output_processor@_WV?$string_output_adapter@_W@__crt_stdio_output@@V?$format_validation_base@_WV?$string_output_adapter@_W@__crt_stdio_output@@@2@@__crt_stdio_output@@AEAA_NXZ 0000000180078830 f i libucrtd:output.obj
 0001:00077a70       ?type_case_n@?$output_processor@_WV?$string_output_adapter@_W@__crt_stdio_output@@V?$positional_parameter_base@_WV?$string_output_adapter@_W@__crt_stdio_output@@@2@@__crt_stdio_output@@AEAA_NXZ 0000000180078a70 f i libucrtd:output.obj
 0001:00077cb0       ?type_case_n@?$output_processor@_WV?$string_output_adapter@_W@__crt_stdio_output@@V?$standard_base@_WV?$string_output_adapter@_W@__crt_stdio_output@@@2@@__crt_stdio_output@@AEAA_NXZ 0000000180078cb0 f i libucrtd:output.obj
 0001:00077ef0       ?type_case_o@?$output_processor@DV?$stream_output_adapter@D@__crt_stdio_output@@V?$format_validation_base@DV?$stream_output_adapter@D@__crt_stdio_output@@@2@@__crt_stdio_output@@AEAA_NXZ 0000000180078ef0 f i libucrtd:output.obj
 0001:00077f40       ?type_case_o@?$output_processor@DV?$stream_output_adapter@D@__crt_stdio_output@@V?$positional_parameter_base@DV?$stream_output_adapter@D@__crt_stdio_output@@@2@@__crt_stdio_output@@AEAA_NXZ 0000000180078f40 f i libucrtd:output.obj
 0001:00077f90       ?type_case_o@?$output_processor@DV?$stream_output_adapter@D@__crt_stdio_output@@V?$standard_base@DV?$stream_output_adapter@D@__crt_stdio_output@@@2@@__crt_stdio_output@@AEAA_NXZ 0000000180078f90 f i libucrtd:output.obj
 0001:00077fe0       ?type_case_o@?$output_processor@DV?$string_output_adapter@D@__crt_stdio_output@@V?$format_validation_base@DV?$string_output_adapter@D@__crt_stdio_output@@@2@@__crt_stdio_output@@AEAA_NXZ 0000000180078fe0 f i libucrtd:output.obj
 0001:00078030       ?type_case_o@?$output_processor@DV?$string_output_adapter@D@__crt_stdio_output@@V?$positional_parameter_base@DV?$string_output_adapter@D@__crt_stdio_output@@@2@@__crt_stdio_output@@AEAA_NXZ 0000000180079030 f i libucrtd:output.obj
 0001:00078080       ?type_case_o@?$output_processor@DV?$string_output_adapter@D@__crt_stdio_output@@V?$standard_base@DV?$string_output_adapter@D@__crt_stdio_output@@@2@@__crt_stdio_output@@AEAA_NXZ 0000000180079080 f i libucrtd:output.obj
 0001:000780d0       ?type_case_o@?$output_processor@_WV?$stream_output_adapter@_W@__crt_stdio_output@@V?$format_validation_base@_WV?$stream_output_adapter@_W@__crt_stdio_output@@@2@@__crt_stdio_output@@AEAA_NXZ 00000001800790d0 f i libucrtd:output.obj
 0001:00078120       ?type_case_o@?$output_processor@_WV?$stream_output_adapter@_W@__crt_stdio_output@@V?$positional_parameter_base@_WV?$stream_output_adapter@_W@__crt_stdio_output@@@2@@__crt_stdio_output@@AEAA_NXZ 0000000180079120 f i libucrtd:output.obj
 0001:00078170       ?type_case_o@?$output_processor@_WV?$stream_output_adapter@_W@__crt_stdio_output@@V?$standard_base@_WV?$stream_output_adapter@_W@__crt_stdio_output@@@2@@__crt_stdio_output@@AEAA_NXZ 0000000180079170 f i libucrtd:output.obj
 0001:000781c0       ?type_case_o@?$output_processor@_WV?$string_output_adapter@_W@__crt_stdio_output@@V?$format_validation_base@_WV?$string_output_adapter@_W@__crt_stdio_output@@@2@@__crt_stdio_output@@AEAA_NXZ 00000001800791c0 f i libucrtd:output.obj
 0001:00078210       ?type_case_o@?$output_processor@_WV?$string_output_adapter@_W@__crt_stdio_output@@V?$positional_parameter_base@_WV?$string_output_adapter@_W@__crt_stdio_output@@@2@@__crt_stdio_output@@AEAA_NXZ 0000000180079210 f i libucrtd:output.obj
 0001:00078260       ?type_case_o@?$output_processor@_WV?$string_output_adapter@_W@__crt_stdio_output@@V?$standard_base@_WV?$string_output_adapter@_W@__crt_stdio_output@@@2@@__crt_stdio_output@@AEAA_NXZ 0000000180079260 f i libucrtd:output.obj
 0001:000782b0       ?type_case_p@?$output_processor@DV?$stream_output_adapter@D@__crt_stdio_output@@V?$format_validation_base@DV?$stream_output_adapter@D@__crt_stdio_output@@@2@@__crt_stdio_output@@AEAA_NXZ 00000001800792b0 f i libucrtd:output.obj
 0001:000782f0       ?type_case_p@?$output_processor@DV?$stream_output_adapter@D@__crt_stdio_output@@V?$positional_parameter_base@DV?$stream_output_adapter@D@__crt_stdio_output@@@2@@__crt_stdio_output@@AEAA_NXZ 00000001800792f0 f i libucrtd:output.obj
 0001:00078330       ?type_case_p@?$output_processor@DV?$stream_output_adapter@D@__crt_stdio_output@@V?$standard_base@DV?$stream_output_adapter@D@__crt_stdio_output@@@2@@__crt_stdio_output@@AEAA_NXZ 0000000180079330 f i libucrtd:output.obj
 0001:00078370       ?type_case_p@?$output_processor@DV?$string_output_adapter@D@__crt_stdio_output@@V?$format_validation_base@DV?$string_output_adapter@D@__crt_stdio_output@@@2@@__crt_stdio_output@@AEAA_NXZ 0000000180079370 f i libucrtd:output.obj
 0001:000783b0       ?type_case_p@?$output_processor@DV?$string_output_adapter@D@__crt_stdio_output@@V?$positional_parameter_base@DV?$string_output_adapter@D@__crt_stdio_output@@@2@@__crt_stdio_output@@AEAA_NXZ 00000001800793b0 f i libucrtd:output.obj
 0001:000783f0       ?type_case_p@?$output_processor@DV?$string_output_adapter@D@__crt_stdio_output@@V?$standard_base@DV?$string_output_adapter@D@__crt_stdio_output@@@2@@__crt_stdio_output@@AEAA_NXZ 00000001800793f0 f i libucrtd:output.obj
 0001:00078430       ?type_case_p@?$output_processor@_WV?$stream_output_adapter@_W@__crt_stdio_output@@V?$format_validation_base@_WV?$stream_output_adapter@_W@__crt_stdio_output@@@2@@__crt_stdio_output@@AEAA_NXZ 0000000180079430 f i libucrtd:output.obj
 0001:00078470       ?type_case_p@?$output_processor@_WV?$stream_output_adapter@_W@__crt_stdio_output@@V?$positional_parameter_base@_WV?$stream_output_adapter@_W@__crt_stdio_output@@@2@@__crt_stdio_output@@AEAA_NXZ 0000000180079470 f i libucrtd:output.obj
 0001:000784b0       ?type_case_p@?$output_processor@_WV?$stream_output_adapter@_W@__crt_stdio_output@@V?$standard_base@_WV?$stream_output_adapter@_W@__crt_stdio_output@@@2@@__crt_stdio_output@@AEAA_NXZ 00000001800794b0 f i libucrtd:output.obj
 0001:000784f0       ?type_case_p@?$output_processor@_WV?$string_output_adapter@_W@__crt_stdio_output@@V?$format_validation_base@_WV?$string_output_adapter@_W@__crt_stdio_output@@@2@@__crt_stdio_output@@AEAA_NXZ 00000001800794f0 f i libucrtd:output.obj
 0001:00078530       ?type_case_p@?$output_processor@_WV?$string_output_adapter@_W@__crt_stdio_output@@V?$positional_parameter_base@_WV?$string_output_adapter@_W@__crt_stdio_output@@@2@@__crt_stdio_output@@AEAA_NXZ 0000000180079530 f i libucrtd:output.obj
 0001:00078570       ?type_case_p@?$output_processor@_WV?$string_output_adapter@_W@__crt_stdio_output@@V?$standard_base@_WV?$string_output_adapter@_W@__crt_stdio_output@@@2@@__crt_stdio_output@@AEAA_NXZ 0000000180079570 f i libucrtd:output.obj
 0001:000785b0       ?type_case_s@?$output_processor@DV?$stream_output_adapter@D@__crt_stdio_output@@V?$format_validation_base@DV?$stream_output_adapter@D@__crt_stdio_output@@@2@@__crt_stdio_output@@AEAA_NXZ 00000001800795b0 f i libucrtd:output.obj
 0001:000786d0       ?type_case_s@?$output_processor@DV?$stream_output_adapter@D@__crt_stdio_output@@V?$positional_parameter_base@DV?$stream_output_adapter@D@__crt_stdio_output@@@2@@__crt_stdio_output@@AEAA_NXZ 00000001800796d0 f i libucrtd:output.obj
 0001:000787f0       ?type_case_s@?$output_processor@DV?$stream_output_adapter@D@__crt_stdio_output@@V?$standard_base@DV?$stream_output_adapter@D@__crt_stdio_output@@@2@@__crt_stdio_output@@AEAA_NXZ 00000001800797f0 f i libucrtd:output.obj
 0001:00078910       ?type_case_s@?$output_processor@DV?$string_output_adapter@D@__crt_stdio_output@@V?$format_validation_base@DV?$string_output_adapter@D@__crt_stdio_output@@@2@@__crt_stdio_output@@AEAA_NXZ 0000000180079910 f i libucrtd:output.obj
 0001:00078a30       ?type_case_s@?$output_processor@DV?$string_output_adapter@D@__crt_stdio_output@@V?$positional_parameter_base@DV?$string_output_adapter@D@__crt_stdio_output@@@2@@__crt_stdio_output@@AEAA_NXZ 0000000180079a30 f i libucrtd:output.obj
 0001:00078b50       ?type_case_s@?$output_processor@DV?$string_output_adapter@D@__crt_stdio_output@@V?$standard_base@DV?$string_output_adapter@D@__crt_stdio_output@@@2@@__crt_stdio_output@@AEAA_NXZ 0000000180079b50 f i libucrtd:output.obj
 0001:00078c70       ?type_case_s@?$output_processor@_WV?$stream_output_adapter@_W@__crt_stdio_output@@V?$format_validation_base@_WV?$stream_output_adapter@_W@__crt_stdio_output@@@2@@__crt_stdio_output@@AEAA_NXZ 0000000180079c70 f i libucrtd:output.obj
 0001:00078d90       ?type_case_s@?$output_processor@_WV?$stream_output_adapter@_W@__crt_stdio_output@@V?$positional_parameter_base@_WV?$stream_output_adapter@_W@__crt_stdio_output@@@2@@__crt_stdio_output@@AEAA_NXZ 0000000180079d90 f i libucrtd:output.obj
 0001:00078eb0       ?type_case_s@?$output_processor@_WV?$stream_output_adapter@_W@__crt_stdio_output@@V?$standard_base@_WV?$stream_output_adapter@_W@__crt_stdio_output@@@2@@__crt_stdio_output@@AEAA_NXZ 0000000180079eb0 f i libucrtd:output.obj
 0001:00078fd0       ?type_case_s@?$output_processor@_WV?$string_output_adapter@_W@__crt_stdio_output@@V?$format_validation_base@_WV?$string_output_adapter@_W@__crt_stdio_output@@@2@@__crt_stdio_output@@AEAA_NXZ 0000000180079fd0 f i libucrtd:output.obj
 0001:000790f0       ?type_case_s@?$output_processor@_WV?$string_output_adapter@_W@__crt_stdio_output@@V?$positional_parameter_base@_WV?$string_output_adapter@_W@__crt_stdio_output@@@2@@__crt_stdio_output@@AEAA_NXZ 000000018007a0f0 f i libucrtd:output.obj
 0001:00079210       ?type_case_s@?$output_processor@_WV?$string_output_adapter@_W@__crt_stdio_output@@V?$standard_base@_WV?$string_output_adapter@_W@__crt_stdio_output@@@2@@__crt_stdio_output@@AEAA_NXZ 000000018007a210 f i libucrtd:output.obj
 0001:00079330       ?type_case_s_compute_narrow_string_length@?$output_processor@DV?$stream_output_adapter@D@__crt_stdio_output@@V?$format_validation_base@DV?$stream_output_adapter@D@__crt_stdio_output@@@2@@__crt_stdio_output@@AEBAHHD@Z 000000018007a330 f i libucrtd:output.obj
 0001:00079360       ?type_case_s_compute_narrow_string_length@?$output_processor@DV?$stream_output_adapter@D@__crt_stdio_output@@V?$positional_parameter_base@DV?$stream_output_adapter@D@__crt_stdio_output@@@2@@__crt_stdio_output@@AEBAHHD@Z 000000018007a360 f i libucrtd:output.obj
 0001:00079390       ?type_case_s_compute_narrow_string_length@?$output_processor@DV?$stream_output_adapter@D@__crt_stdio_output@@V?$standard_base@DV?$stream_output_adapter@D@__crt_stdio_output@@@2@@__crt_stdio_output@@AEBAHHD@Z 000000018007a390 f i libucrtd:output.obj
 0001:000793c0       ?type_case_s_compute_narrow_string_length@?$output_processor@DV?$string_output_adapter@D@__crt_stdio_output@@V?$format_validation_base@DV?$string_output_adapter@D@__crt_stdio_output@@@2@@__crt_stdio_output@@AEBAHHD@Z 000000018007a3c0 f i libucrtd:output.obj
 0001:000793f0       ?type_case_s_compute_narrow_string_length@?$output_processor@DV?$string_output_adapter@D@__crt_stdio_output@@V?$positional_parameter_base@DV?$string_output_adapter@D@__crt_stdio_output@@@2@@__crt_stdio_output@@AEBAHHD@Z 000000018007a3f0 f i libucrtd:output.obj
 0001:00079420       ?type_case_s_compute_narrow_string_length@?$output_processor@DV?$string_output_adapter@D@__crt_stdio_output@@V?$standard_base@DV?$string_output_adapter@D@__crt_stdio_output@@@2@@__crt_stdio_output@@AEBAHHD@Z 000000018007a420 f i libucrtd:output.obj
 0001:00079450       ?type_case_s_compute_narrow_string_length@?$output_processor@_WV?$stream_output_adapter@_W@__crt_stdio_output@@V?$format_validation_base@_WV?$stream_output_adapter@_W@__crt_stdio_output@@@2@@__crt_stdio_output@@AEBAHH_W@Z 000000018007a450 f i libucrtd:output.obj
 0001:000794e0       ?type_case_s_compute_narrow_string_length@?$output_processor@_WV?$stream_output_adapter@_W@__crt_stdio_output@@V?$positional_parameter_base@_WV?$stream_output_adapter@_W@__crt_stdio_output@@@2@@__crt_stdio_output@@AEBAHH_W@Z 000000018007a4e0 f i libucrtd:output.obj
 0001:00079570       ?type_case_s_compute_narrow_string_length@?$output_processor@_WV?$stream_output_adapter@_W@__crt_stdio_output@@V?$standard_base@_WV?$stream_output_adapter@_W@__crt_stdio_output@@@2@@__crt_stdio_output@@AEBAHH_W@Z 000000018007a570 f i libucrtd:output.obj
 0001:00079600       ?type_case_s_compute_narrow_string_length@?$output_processor@_WV?$string_output_adapter@_W@__crt_stdio_output@@V?$format_validation_base@_WV?$string_output_adapter@_W@__crt_stdio_output@@@2@@__crt_stdio_output@@AEBAHH_W@Z 000000018007a600 f i libucrtd:output.obj
 0001:00079690       ?type_case_s_compute_narrow_string_length@?$output_processor@_WV?$string_output_adapter@_W@__crt_stdio_output@@V?$positional_parameter_base@_WV?$string_output_adapter@_W@__crt_stdio_output@@@2@@__crt_stdio_output@@AEBAHH_W@Z 000000018007a690 f i libucrtd:output.obj
 0001:00079720       ?type_case_s_compute_narrow_string_length@?$output_processor@_WV?$string_output_adapter@_W@__crt_stdio_output@@V?$standard_base@_WV?$string_output_adapter@_W@__crt_stdio_output@@@2@@__crt_stdio_output@@AEBAHH_W@Z 000000018007a720 f i libucrtd:output.obj
 0001:000797b0       ?type_case_u@?$output_processor@DV?$stream_output_adapter@D@__crt_stdio_output@@V?$format_validation_base@DV?$stream_output_adapter@D@__crt_stdio_output@@@2@@__crt_stdio_output@@AEAA_NXZ 000000018007a7b0 f i libucrtd:output.obj
 0001:000797d0       ?type_case_u@?$output_processor@DV?$stream_output_adapter@D@__crt_stdio_output@@V?$positional_parameter_base@DV?$stream_output_adapter@D@__crt_stdio_output@@@2@@__crt_stdio_output@@AEAA_NXZ 000000018007a7d0 f i libucrtd:output.obj
 0001:000797f0       ?type_case_u@?$output_processor@DV?$stream_output_adapter@D@__crt_stdio_output@@V?$standard_base@DV?$stream_output_adapter@D@__crt_stdio_output@@@2@@__crt_stdio_output@@AEAA_NXZ 000000018007a7f0 f i libucrtd:output.obj
 0001:00079810       ?type_case_u@?$output_processor@DV?$string_output_adapter@D@__crt_stdio_output@@V?$format_validation_base@DV?$string_output_adapter@D@__crt_stdio_output@@@2@@__crt_stdio_output@@AEAA_NXZ 000000018007a810 f i libucrtd:output.obj
 0001:00079830       ?type_case_u@?$output_processor@DV?$string_output_adapter@D@__crt_stdio_output@@V?$positional_parameter_base@DV?$string_output_adapter@D@__crt_stdio_output@@@2@@__crt_stdio_output@@AEAA_NXZ 000000018007a830 f i libucrtd:output.obj
 0001:00079850       ?type_case_u@?$output_processor@DV?$string_output_adapter@D@__crt_stdio_output@@V?$standard_base@DV?$string_output_adapter@D@__crt_stdio_output@@@2@@__crt_stdio_output@@AEAA_NXZ 000000018007a850 f i libucrtd:output.obj
 0001:00079870       ?type_case_u@?$output_processor@_WV?$stream_output_adapter@_W@__crt_stdio_output@@V?$format_validation_base@_WV?$stream_output_adapter@_W@__crt_stdio_output@@@2@@__crt_stdio_output@@AEAA_NXZ 000000018007a870 f i libucrtd:output.obj
 0001:00079890       ?type_case_u@?$output_processor@_WV?$stream_output_adapter@_W@__crt_stdio_output@@V?$positional_parameter_base@_WV?$stream_output_adapter@_W@__crt_stdio_output@@@2@@__crt_stdio_output@@AEAA_NXZ 000000018007a890 f i libucrtd:output.obj
 0001:000798b0       ?type_case_u@?$output_processor@_WV?$stream_output_adapter@_W@__crt_stdio_output@@V?$standard_base@_WV?$stream_output_adapter@_W@__crt_stdio_output@@@2@@__crt_stdio_output@@AEAA_NXZ 000000018007a8b0 f i libucrtd:output.obj
 0001:000798d0       ?type_case_u@?$output_processor@_WV?$string_output_adapter@_W@__crt_stdio_output@@V?$format_validation_base@_WV?$string_output_adapter@_W@__crt_stdio_output@@@2@@__crt_stdio_output@@AEAA_NXZ 000000018007a8d0 f i libucrtd:output.obj
 0001:000798f0       ?type_case_u@?$output_processor@_WV?$string_output_adapter@_W@__crt_stdio_output@@V?$positional_parameter_base@_WV?$string_output_adapter@_W@__crt_stdio_output@@@2@@__crt_stdio_output@@AEAA_NXZ 000000018007a8f0 f i libucrtd:output.obj
 0001:00079910       ?type_case_u@?$output_processor@_WV?$string_output_adapter@_W@__crt_stdio_output@@V?$standard_base@_WV?$string_output_adapter@_W@__crt_stdio_output@@@2@@__crt_stdio_output@@AEAA_NXZ 000000018007a910 f i libucrtd:output.obj
 0001:00079930       ?type_case_x@?$output_processor@DV?$stream_output_adapter@D@__crt_stdio_output@@V?$format_validation_base@DV?$stream_output_adapter@D@__crt_stdio_output@@@2@@__crt_stdio_output@@AEAA_NXZ 000000018007a930 f i libucrtd:output.obj
 0001:00079950       ?type_case_x@?$output_processor@DV?$stream_output_adapter@D@__crt_stdio_output@@V?$positional_parameter_base@DV?$stream_output_adapter@D@__crt_stdio_output@@@2@@__crt_stdio_output@@AEAA_NXZ 000000018007a950 f i libucrtd:output.obj
 0001:00079970       ?type_case_x@?$output_processor@DV?$stream_output_adapter@D@__crt_stdio_output@@V?$standard_base@DV?$stream_output_adapter@D@__crt_stdio_output@@@2@@__crt_stdio_output@@AEAA_NXZ 000000018007a970 f i libucrtd:output.obj
 0001:00079990       ?type_case_x@?$output_processor@DV?$string_output_adapter@D@__crt_stdio_output@@V?$format_validation_base@DV?$string_output_adapter@D@__crt_stdio_output@@@2@@__crt_stdio_output@@AEAA_NXZ 000000018007a990 f i libucrtd:output.obj
 0001:000799b0       ?type_case_x@?$output_processor@DV?$string_output_adapter@D@__crt_stdio_output@@V?$positional_parameter_base@DV?$string_output_adapter@D@__crt_stdio_output@@@2@@__crt_stdio_output@@AEAA_NXZ 000000018007a9b0 f i libucrtd:output.obj
 0001:000799d0       ?type_case_x@?$output_processor@DV?$string_output_adapter@D@__crt_stdio_output@@V?$standard_base@DV?$string_output_adapter@D@__crt_stdio_output@@@2@@__crt_stdio_output@@AEAA_NXZ 000000018007a9d0 f i libucrtd:output.obj
 0001:000799f0       ?type_case_x@?$output_processor@_WV?$stream_output_adapter@_W@__crt_stdio_output@@V?$format_validation_base@_WV?$stream_output_adapter@_W@__crt_stdio_output@@@2@@__crt_stdio_output@@AEAA_NXZ 000000018007a9f0 f i libucrtd:output.obj
 0001:00079a10       ?type_case_x@?$output_processor@_WV?$stream_output_adapter@_W@__crt_stdio_output@@V?$positional_parameter_base@_WV?$stream_output_adapter@_W@__crt_stdio_output@@@2@@__crt_stdio_output@@AEAA_NXZ 000000018007aa10 f i libucrtd:output.obj
 0001:00079a30       ?type_case_x@?$output_processor@_WV?$stream_output_adapter@_W@__crt_stdio_output@@V?$standard_base@_WV?$stream_output_adapter@_W@__crt_stdio_output@@@2@@__crt_stdio_output@@AEAA_NXZ 000000018007aa30 f i libucrtd:output.obj
 0001:00079a50       ?type_case_x@?$output_processor@_WV?$string_output_adapter@_W@__crt_stdio_output@@V?$format_validation_base@_WV?$string_output_adapter@_W@__crt_stdio_output@@@2@@__crt_stdio_output@@AEAA_NXZ 000000018007aa50 f i libucrtd:output.obj
 0001:00079a70       ?type_case_x@?$output_processor@_WV?$string_output_adapter@_W@__crt_stdio_output@@V?$positional_parameter_base@_WV?$string_output_adapter@_W@__crt_stdio_output@@@2@@__crt_stdio_output@@AEAA_NXZ 000000018007aa70 f i libucrtd:output.obj
 0001:00079a90       ?type_case_x@?$output_processor@_WV?$string_output_adapter@_W@__crt_stdio_output@@V?$standard_base@_WV?$string_output_adapter@_W@__crt_stdio_output@@@2@@__crt_stdio_output@@AEAA_NXZ 000000018007aa90 f i libucrtd:output.obj
 0001:00079ab0       ?unset_flag@?$output_processor@DV?$stream_output_adapter@D@__crt_stdio_output@@V?$format_validation_base@DV?$stream_output_adapter@D@__crt_stdio_output@@@2@@__crt_stdio_output@@AEAAXI@Z 000000018007aab0 f i libucrtd:output.obj
 0001:00079ae0       ?unset_flag@?$output_processor@DV?$stream_output_adapter@D@__crt_stdio_output@@V?$positional_parameter_base@DV?$stream_output_adapter@D@__crt_stdio_output@@@2@@__crt_stdio_output@@AEAAXI@Z 000000018007aae0 f i libucrtd:output.obj
 0001:00079b10       ?unset_flag@?$output_processor@DV?$stream_output_adapter@D@__crt_stdio_output@@V?$standard_base@DV?$stream_output_adapter@D@__crt_stdio_output@@@2@@__crt_stdio_output@@AEAAXI@Z 000000018007ab10 f i libucrtd:output.obj
 0001:00079b40       ?unset_flag@?$output_processor@DV?$string_output_adapter@D@__crt_stdio_output@@V?$format_validation_base@DV?$string_output_adapter@D@__crt_stdio_output@@@2@@__crt_stdio_output@@AEAAXI@Z 000000018007ab40 f i libucrtd:output.obj
 0001:00079b70       ?unset_flag@?$output_processor@DV?$string_output_adapter@D@__crt_stdio_output@@V?$positional_parameter_base@DV?$string_output_adapter@D@__crt_stdio_output@@@2@@__crt_stdio_output@@AEAAXI@Z 000000018007ab70 f i libucrtd:output.obj
 0001:00079ba0       ?unset_flag@?$output_processor@DV?$string_output_adapter@D@__crt_stdio_output@@V?$standard_base@DV?$string_output_adapter@D@__crt_stdio_output@@@2@@__crt_stdio_output@@AEAAXI@Z 000000018007aba0 f i libucrtd:output.obj
 0001:00079bd0       ?unset_flag@?$output_processor@_WV?$stream_output_adapter@_W@__crt_stdio_output@@V?$format_validation_base@_WV?$stream_output_adapter@_W@__crt_stdio_output@@@2@@__crt_stdio_output@@AEAAXI@Z 000000018007abd0 f i libucrtd:output.obj
 0001:00079c00       ?unset_flag@?$output_processor@_WV?$stream_output_adapter@_W@__crt_stdio_output@@V?$positional_parameter_base@_WV?$stream_output_adapter@_W@__crt_stdio_output@@@2@@__crt_stdio_output@@AEAAXI@Z 000000018007ac00 f i libucrtd:output.obj
 0001:00079c30       ?unset_flag@?$output_processor@_WV?$stream_output_adapter@_W@__crt_stdio_output@@V?$standard_base@_WV?$stream_output_adapter@_W@__crt_stdio_output@@@2@@__crt_stdio_output@@AEAAXI@Z 000000018007ac30 f i libucrtd:output.obj
 0001:00079c60       ?unset_flag@?$output_processor@_WV?$string_output_adapter@_W@__crt_stdio_output@@V?$format_validation_base@_WV?$string_output_adapter@_W@__crt_stdio_output@@@2@@__crt_stdio_output@@AEAAXI@Z 000000018007ac60 f i libucrtd:output.obj
 0001:00079c90       ?unset_flag@?$output_processor@_WV?$string_output_adapter@_W@__crt_stdio_output@@V?$positional_parameter_base@_WV?$string_output_adapter@_W@__crt_stdio_output@@@2@@__crt_stdio_output@@AEAAXI@Z 000000018007ac90 f i libucrtd:output.obj
 0001:00079cc0       ?unset_flag@?$output_processor@_WV?$string_output_adapter@_W@__crt_stdio_output@@V?$standard_base@_WV?$string_output_adapter@_W@__crt_stdio_output@@@2@@__crt_stdio_output@@AEAAXI@Z 000000018007acc0 f i libucrtd:output.obj
 0001:00079cf0       ?update_field_width@?$positional_parameter_base@DV?$stream_output_adapter@D@__crt_stdio_output@@@__crt_stdio_output@@IEAA_NXZ 000000018007acf0 f i libucrtd:output.obj
 0001:00079ee0       ?update_field_width@?$positional_parameter_base@DV?$string_output_adapter@D@__crt_stdio_output@@@__crt_stdio_output@@IEAA_NXZ 000000018007aee0 f i libucrtd:output.obj
 0001:0007a0d0       ?update_field_width@?$positional_parameter_base@_WV?$stream_output_adapter@_W@__crt_stdio_output@@@__crt_stdio_output@@IEAA_NXZ 000000018007b0d0 f i libucrtd:output.obj
 0001:0007a2c0       ?update_field_width@?$positional_parameter_base@_WV?$string_output_adapter@_W@__crt_stdio_output@@@__crt_stdio_output@@IEAA_NXZ 000000018007b2c0 f i libucrtd:output.obj
 0001:0007a4b0       ?update_field_width@?$standard_base@DV?$stream_output_adapter@D@__crt_stdio_output@@@__crt_stdio_output@@IEAA_NXZ 000000018007b4b0 f i libucrtd:output.obj
 0001:0007a4e0       ?update_field_width@?$standard_base@DV?$string_output_adapter@D@__crt_stdio_output@@@__crt_stdio_output@@IEAA_NXZ 000000018007b4e0 f i libucrtd:output.obj
 0001:0007a510       ?update_field_width@?$standard_base@_WV?$stream_output_adapter@_W@__crt_stdio_output@@@__crt_stdio_output@@IEAA_NXZ 000000018007b510 f i libucrtd:output.obj
 0001:0007a540       ?update_field_width@?$standard_base@_WV?$string_output_adapter@_W@__crt_stdio_output@@@__crt_stdio_output@@IEAA_NXZ 000000018007b540 f i libucrtd:output.obj
 0001:0007a570       ?update_precision@?$positional_parameter_base@DV?$stream_output_adapter@D@__crt_stdio_output@@@__crt_stdio_output@@IEAA_NXZ 000000018007b570 f i libucrtd:output.obj
 0001:0007a760       ?update_precision@?$positional_parameter_base@DV?$string_output_adapter@D@__crt_stdio_output@@@__crt_stdio_output@@IEAA_NXZ 000000018007b760 f i libucrtd:output.obj
 0001:0007a950       ?update_precision@?$positional_parameter_base@_WV?$stream_output_adapter@_W@__crt_stdio_output@@@__crt_stdio_output@@IEAA_NXZ 000000018007b950 f i libucrtd:output.obj
 0001:0007ab40       ?update_precision@?$positional_parameter_base@_WV?$string_output_adapter@_W@__crt_stdio_output@@@__crt_stdio_output@@IEAA_NXZ 000000018007bb40 f i libucrtd:output.obj
 0001:0007ad30       ?update_precision@?$standard_base@DV?$stream_output_adapter@D@__crt_stdio_output@@@__crt_stdio_output@@IEAA_NXZ 000000018007bd30 f i libucrtd:output.obj
 0001:0007ad60       ?update_precision@?$standard_base@DV?$string_output_adapter@D@__crt_stdio_output@@@__crt_stdio_output@@IEAA_NXZ 000000018007bd60 f i libucrtd:output.obj
 0001:0007ad90       ?update_precision@?$standard_base@_WV?$stream_output_adapter@_W@__crt_stdio_output@@@__crt_stdio_output@@IEAA_NXZ 000000018007bd90 f i libucrtd:output.obj
 0001:0007adc0       ?update_precision@?$standard_base@_WV?$string_output_adapter@_W@__crt_stdio_output@@@__crt_stdio_output@@IEAA_NXZ 000000018007bdc0 f i libucrtd:output.obj
 0001:0007adf0       ?valid@__crt_stdio_stream@@QEBA_NXZ 000000018007bdf0 f i libucrtd:output.obj
 0001:0007ae20       ?validate@?$stream_output_adapter@D@__crt_stdio_output@@QEBA_NXZ 000000018007be20 f i libucrtd:output.obj
 0001:0007af00       ?validate@?$stream_output_adapter@_W@__crt_stdio_output@@QEBA_NXZ 000000018007bf00 f i libucrtd:output.obj
 0001:0007afe0       ?validate@?$string_output_adapter@D@__crt_stdio_output@@QEBA_NXZ 000000018007bfe0 f i libucrtd:output.obj
 0001:0007b0a0       ?validate@?$string_output_adapter@_W@__crt_stdio_output@@QEBA_NXZ 000000018007c0a0 f i libucrtd:output.obj
 0001:0007b160       ?validate_and_store_parameter_data@?$positional_parameter_base@DV?$stream_output_adapter@D@__crt_stdio_output@@@__crt_stdio_output@@AEAA_NAEAUparameter_data@12@W4parameter_type@12@DW4length_modifier@2@@Z 000000018007c160 f i libucrtd:output.obj
 0001:0007b280       ?validate_and_store_parameter_data@?$positional_parameter_base@DV?$string_output_adapter@D@__crt_stdio_output@@@__crt_stdio_output@@AEAA_NAEAUparameter_data@12@W4parameter_type@12@DW4length_modifier@2@@Z 000000018007c280 f i libucrtd:output.obj
 0001:0007b3a0       ?validate_and_store_parameter_data@?$positional_parameter_base@_WV?$stream_output_adapter@_W@__crt_stdio_output@@@__crt_stdio_output@@AEAA_NAEAUparameter_data@12@W4parameter_type@12@_WW4length_modifier@2@@Z 000000018007c3a0 f i libucrtd:output.obj
 0001:0007b4c0       ?validate_and_store_parameter_data@?$positional_parameter_base@_WV?$string_output_adapter@_W@__crt_stdio_output@@@__crt_stdio_output@@AEAA_NAEAUparameter_data@12@W4parameter_type@12@_WW4length_modifier@2@@Z 000000018007c4c0 f i libucrtd:output.obj
 0001:0007b5e0       ?validate_and_update_state_at_beginning_of_format_character@?$positional_parameter_base@DV?$stream_output_adapter@D@__crt_stdio_output@@@__crt_stdio_output@@IEAA_NXZ 000000018007c5e0 f i libucrtd:output.obj
 0001:0007b8c0       ?validate_and_update_state_at_beginning_of_format_character@?$positional_parameter_base@DV?$string_output_adapter@D@__crt_stdio_output@@@__crt_stdio_output@@IEAA_NXZ 000000018007c8c0 f i libucrtd:output.obj
 0001:0007bba0       ?validate_and_update_state_at_beginning_of_format_character@?$positional_parameter_base@_WV?$stream_output_adapter@_W@__crt_stdio_output@@@__crt_stdio_output@@IEAA_NXZ 000000018007cba0 f i libucrtd:output.obj
 0001:0007be80       ?validate_and_update_state_at_beginning_of_format_character@?$positional_parameter_base@_WV?$string_output_adapter@_W@__crt_stdio_output@@@__crt_stdio_output@@IEAA_NXZ 000000018007ce80 f i libucrtd:output.obj
 0001:0007c160       ?validate_and_update_state_at_beginning_of_format_character@?$standard_base@DV?$stream_output_adapter@D@__crt_stdio_output@@@__crt_stdio_output@@IEAA_NXZ 000000018007d160 f i libucrtd:output.obj
 0001:0007c170       ?validate_and_update_state_at_beginning_of_format_character@?$standard_base@DV?$string_output_adapter@D@__crt_stdio_output@@@__crt_stdio_output@@IEAA_NXZ 000000018007d170 f i libucrtd:output.obj
 0001:0007c180       ?validate_and_update_state_at_beginning_of_format_character@?$standard_base@_WV?$stream_output_adapter@_W@__crt_stdio_output@@@__crt_stdio_output@@IEAA_NXZ 000000018007d180 f i libucrtd:output.obj
 0001:0007c190       ?validate_and_update_state_at_beginning_of_format_character@?$standard_base@_WV?$string_output_adapter@_W@__crt_stdio_output@@@__crt_stdio_output@@IEAA_NXZ 000000018007d190 f i libucrtd:output.obj
 0001:0007c1a0       ?validate_and_update_state_at_end_of_format_string@?$format_validation_base@DV?$stream_output_adapter@D@__crt_stdio_output@@@__crt_stdio_output@@IEBA_NXZ 000000018007d1a0 f i libucrtd:output.obj
 0001:0007c260       ?validate_and_update_state_at_end_of_format_string@?$format_validation_base@DV?$string_output_adapter@D@__crt_stdio_output@@@__crt_stdio_output@@IEBA_NXZ 000000018007d260 f i libucrtd:output.obj
 0001:0007c320       ?validate_and_update_state_at_end_of_format_string@?$format_validation_base@_WV?$stream_output_adapter@_W@__crt_stdio_output@@@__crt_stdio_output@@IEBA_NXZ 000000018007d320 f i libucrtd:output.obj
 0001:0007c3e0       ?validate_and_update_state_at_end_of_format_string@?$format_validation_base@_WV?$string_output_adapter@_W@__crt_stdio_output@@@__crt_stdio_output@@IEBA_NXZ 000000018007d3e0 f i libucrtd:output.obj
 0001:0007c4a0       ?validate_and_update_state_at_end_of_format_string@?$positional_parameter_base@DV?$stream_output_adapter@D@__crt_stdio_output@@@__crt_stdio_output@@IEAA_NXZ 000000018007d4a0 f i libucrtd:output.obj
 0001:0007c690       ?validate_and_update_state_at_end_of_format_string@?$positional_parameter_base@DV?$string_output_adapter@D@__crt_stdio_output@@@__crt_stdio_output@@IEAA_NXZ 000000018007d690 f i libucrtd:output.obj
 0001:0007c880       ?validate_and_update_state_at_end_of_format_string@?$positional_parameter_base@_WV?$stream_output_adapter@_W@__crt_stdio_output@@@__crt_stdio_output@@IEAA_NXZ 000000018007d880 f i libucrtd:output.obj
 0001:0007ca70       ?validate_and_update_state_at_end_of_format_string@?$positional_parameter_base@_WV?$string_output_adapter@_W@__crt_stdio_output@@@__crt_stdio_output@@IEAA_NXZ 000000018007da70 f i libucrtd:output.obj
 0001:0007cc60       ?validate_and_update_state_at_end_of_format_string@?$standard_base@DV?$stream_output_adapter@D@__crt_stdio_output@@@__crt_stdio_output@@IEBA_NXZ 000000018007dc60 f i libucrtd:output.obj
 0001:0007cc70       ?validate_and_update_state_at_end_of_format_string@?$standard_base@DV?$string_output_adapter@D@__crt_stdio_output@@@__crt_stdio_output@@IEBA_NXZ 000000018007dc70 f i libucrtd:output.obj
 0001:0007cc80       ?validate_and_update_state_at_end_of_format_string@?$standard_base@_WV?$stream_output_adapter@_W@__crt_stdio_output@@@__crt_stdio_output@@IEBA_NXZ 000000018007dc80 f i libucrtd:output.obj
 0001:0007cc90       ?validate_and_update_state_at_end_of_format_string@?$standard_base@_WV?$string_output_adapter@_W@__crt_stdio_output@@@__crt_stdio_output@@IEBA_NXZ 000000018007dc90 f i libucrtd:output.obj
 0001:0007cca0       ?validate_state_for_type_case_a@?$positional_parameter_base@DV?$stream_output_adapter@D@__crt_stdio_output@@@__crt_stdio_output@@IEAA_NXZ 000000018007dca0 f i libucrtd:output.obj
 0001:0007cde0       ?validate_state_for_type_case_a@?$positional_parameter_base@DV?$string_output_adapter@D@__crt_stdio_output@@@__crt_stdio_output@@IEAA_NXZ 000000018007dde0 f i libucrtd:output.obj
 0001:0007cf20       ?validate_state_for_type_case_a@?$positional_parameter_base@_WV?$stream_output_adapter@_W@__crt_stdio_output@@@__crt_stdio_output@@IEAA_NXZ 000000018007df20 f i libucrtd:output.obj
 0001:0007d060       ?validate_state_for_type_case_a@?$positional_parameter_base@_WV?$string_output_adapter@_W@__crt_stdio_output@@@__crt_stdio_output@@IEAA_NXZ 000000018007e060 f i libucrtd:output.obj
 0001:0007d1a0       ?validate_state_for_type_case_a@?$standard_base@DV?$stream_output_adapter@D@__crt_stdio_output@@@__crt_stdio_output@@IEBA_NXZ 000000018007e1a0 f i libucrtd:output.obj
 0001:0007d1b0       ?validate_state_for_type_case_a@?$standard_base@DV?$string_output_adapter@D@__crt_stdio_output@@@__crt_stdio_output@@IEBA_NXZ 000000018007e1b0 f i libucrtd:output.obj
 0001:0007d1c0       ?validate_state_for_type_case_a@?$standard_base@_WV?$stream_output_adapter@_W@__crt_stdio_output@@@__crt_stdio_output@@IEBA_NXZ 000000018007e1c0 f i libucrtd:output.obj
 0001:0007d1d0       ?validate_state_for_type_case_a@?$standard_base@_WV?$string_output_adapter@_W@__crt_stdio_output@@@__crt_stdio_output@@IEBA_NXZ 000000018007e1d0 f i libucrtd:output.obj
 0001:0007d1e0       ?validate_stream_is_ansi_if_required@?$__acrt_stdio_char_traits@D@@SA_NQEAU_iobuf@@@Z 000000018007e1e0 f i libucrtd:output.obj
 0001:0007d370       ?validate_stream_is_ansi_if_required@?$__acrt_stdio_char_traits@_W@@SA_NQEAU_iobuf@@@Z 000000018007e370 f i libucrtd:output.obj
 0001:0007d380       ?wide_null_string@?$output_processor@DV?$stream_output_adapter@D@__crt_stdio_output@@V?$format_validation_base@DV?$stream_output_adapter@D@__crt_stdio_output@@@2@@__crt_stdio_output@@CAPEA_WXZ 000000018007e380 f i libucrtd:output.obj
 0001:0007d390       ?wide_null_string@?$output_processor@DV?$stream_output_adapter@D@__crt_stdio_output@@V?$positional_parameter_base@DV?$stream_output_adapter@D@__crt_stdio_output@@@2@@__crt_stdio_output@@CAPEA_WXZ 000000018007e390 f i libucrtd:output.obj
 0001:0007d3a0       ?wide_null_string@?$output_processor@DV?$stream_output_adapter@D@__crt_stdio_output@@V?$standard_base@DV?$stream_output_adapter@D@__crt_stdio_output@@@2@@__crt_stdio_output@@CAPEA_WXZ 000000018007e3a0 f i libucrtd:output.obj
 0001:0007d3b0       ?wide_null_string@?$output_processor@DV?$string_output_adapter@D@__crt_stdio_output@@V?$format_validation_base@DV?$string_output_adapter@D@__crt_stdio_output@@@2@@__crt_stdio_output@@CAPEA_WXZ 000000018007e3b0 f i libucrtd:output.obj
 0001:0007d3c0       ?wide_null_string@?$output_processor@DV?$string_output_adapter@D@__crt_stdio_output@@V?$positional_parameter_base@DV?$string_output_adapter@D@__crt_stdio_output@@@2@@__crt_stdio_output@@CAPEA_WXZ 000000018007e3c0 f i libucrtd:output.obj
 0001:0007d3d0       ?wide_null_string@?$output_processor@DV?$string_output_adapter@D@__crt_stdio_output@@V?$standard_base@DV?$string_output_adapter@D@__crt_stdio_output@@@2@@__crt_stdio_output@@CAPEA_WXZ 000000018007e3d0 f i libucrtd:output.obj
 0001:0007d3e0       ?wide_null_string@?$output_processor@_WV?$stream_output_adapter@_W@__crt_stdio_output@@V?$format_validation_base@_WV?$stream_output_adapter@_W@__crt_stdio_output@@@2@@__crt_stdio_output@@CAPEA_WXZ 000000018007e3e0 f i libucrtd:output.obj
 0001:0007d3f0       ?wide_null_string@?$output_processor@_WV?$stream_output_adapter@_W@__crt_stdio_output@@V?$positional_parameter_base@_WV?$stream_output_adapter@_W@__crt_stdio_output@@@2@@__crt_stdio_output@@CAPEA_WXZ 000000018007e3f0 f i libucrtd:output.obj
 0001:0007d400       ?wide_null_string@?$output_processor@_WV?$stream_output_adapter@_W@__crt_stdio_output@@V?$standard_base@_WV?$stream_output_adapter@_W@__crt_stdio_output@@@2@@__crt_stdio_output@@CAPEA_WXZ 000000018007e400 f i libucrtd:output.obj
 0001:0007d410       ?wide_null_string@?$output_processor@_WV?$string_output_adapter@_W@__crt_stdio_output@@V?$format_validation_base@_WV?$string_output_adapter@_W@__crt_stdio_output@@@2@@__crt_stdio_output@@CAPEA_WXZ 000000018007e410 f i libucrtd:output.obj
 0001:0007d420       ?wide_null_string@?$output_processor@_WV?$string_output_adapter@_W@__crt_stdio_output@@V?$positional_parameter_base@_WV?$string_output_adapter@_W@__crt_stdio_output@@@2@@__crt_stdio_output@@CAPEA_WXZ 000000018007e420 f i libucrtd:output.obj
 0001:0007d430       ?wide_null_string@?$output_processor@_WV?$string_output_adapter@_W@__crt_stdio_output@@V?$standard_base@_WV?$string_output_adapter@_W@__crt_stdio_output@@@2@@__crt_stdio_output@@CAPEA_WXZ 000000018007e430 f i libucrtd:output.obj
 0001:0007d440       ?write_character@?$output_adapter_common@DV?$stream_output_adapter@D@__crt_stdio_output@@@__crt_stdio_output@@QEBAXDQEAH@Z 000000018007e440 f i libucrtd:output.obj
 0001:0007d490       ?write_character@?$output_adapter_common@_WV?$stream_output_adapter@_W@__crt_stdio_output@@@__crt_stdio_output@@QEBAX_WQEAH@Z 000000018007e490 f i libucrtd:output.obj
 0001:0007d4e0       ?write_character@?$string_output_adapter@D@__crt_stdio_output@@QEBA_NDQEAH@Z 000000018007e4e0 f i libucrtd:output.obj
 0001:0007d5a0       ?write_character@?$string_output_adapter@_W@__crt_stdio_output@@QEBA_N_WQEAH@Z 000000018007e5a0 f i libucrtd:output.obj
 0001:0007d660       ?write_character_without_count_update@?$stream_output_adapter@D@__crt_stdio_output@@QEBA_ND@Z 000000018007e660 f i libucrtd:output.obj
 0001:0007d6e0       ?write_character_without_count_update@?$stream_output_adapter@_W@__crt_stdio_output@@QEBA_N_W@Z 000000018007e6e0 f i libucrtd:output.obj
 0001:0007d770       ?write_stored_string_tchar@?$output_processor@DV?$stream_output_adapter@D@__crt_stdio_output@@V?$format_validation_base@DV?$stream_output_adapter@D@__crt_stdio_output@@@2@@__crt_stdio_output@@AEAA_ND@Z 000000018007e770 f i libucrtd:output.obj
 0001:0007d920       ?write_stored_string_tchar@?$output_processor@DV?$stream_output_adapter@D@__crt_stdio_output@@V?$positional_parameter_base@DV?$stream_output_adapter@D@__crt_stdio_output@@@2@@__crt_stdio_output@@AEAA_ND@Z 000000018007e920 f i libucrtd:output.obj
 0001:0007dad0       ?write_stored_string_tchar@?$output_processor@DV?$stream_output_adapter@D@__crt_stdio_output@@V?$standard_base@DV?$stream_output_adapter@D@__crt_stdio_output@@@2@@__crt_stdio_output@@AEAA_ND@Z 000000018007ead0 f i libucrtd:output.obj
 0001:0007dc80       ?write_stored_string_tchar@?$output_processor@DV?$string_output_adapter@D@__crt_stdio_output@@V?$format_validation_base@DV?$string_output_adapter@D@__crt_stdio_output@@@2@@__crt_stdio_output@@AEAA_ND@Z 000000018007ec80 f i libucrtd:output.obj
 0001:0007de30       ?write_stored_string_tchar@?$output_processor@DV?$string_output_adapter@D@__crt_stdio_output@@V?$positional_parameter_base@DV?$string_output_adapter@D@__crt_stdio_output@@@2@@__crt_stdio_output@@AEAA_ND@Z 000000018007ee30 f i libucrtd:output.obj
 0001:0007dfe0       ?write_stored_string_tchar@?$output_processor@DV?$string_output_adapter@D@__crt_stdio_output@@V?$standard_base@DV?$string_output_adapter@D@__crt_stdio_output@@@2@@__crt_stdio_output@@AEAA_ND@Z 000000018007efe0 f i libucrtd:output.obj
 0001:0007e190       ?write_stored_string_tchar@?$output_processor@_WV?$stream_output_adapter@_W@__crt_stdio_output@@V?$format_validation_base@_WV?$stream_output_adapter@_W@__crt_stdio_output@@@2@@__crt_stdio_output@@AEAA_N_W@Z 000000018007f190 f i libucrtd:output.obj
 0001:0007e2e0       ?write_stored_string_tchar@?$output_processor@_WV?$stream_output_adapter@_W@__crt_stdio_output@@V?$positional_parameter_base@_WV?$stream_output_adapter@_W@__crt_stdio_output@@@2@@__crt_stdio_output@@AEAA_N_W@Z 000000018007f2e0 f i libucrtd:output.obj
 0001:0007e430       ?write_stored_string_tchar@?$output_processor@_WV?$stream_output_adapter@_W@__crt_stdio_output@@V?$standard_base@_WV?$stream_output_adapter@_W@__crt_stdio_output@@@2@@__crt_stdio_output@@AEAA_N_W@Z 000000018007f430 f i libucrtd:output.obj
 0001:0007e580       ?write_stored_string_tchar@?$output_processor@_WV?$string_output_adapter@_W@__crt_stdio_output@@V?$format_validation_base@_WV?$string_output_adapter@_W@__crt_stdio_output@@@2@@__crt_stdio_output@@AEAA_N_W@Z 000000018007f580 f i libucrtd:output.obj
 0001:0007e6d0       ?write_stored_string_tchar@?$output_processor@_WV?$string_output_adapter@_W@__crt_stdio_output@@V?$positional_parameter_base@_WV?$string_output_adapter@_W@__crt_stdio_output@@@2@@__crt_stdio_output@@AEAA_N_W@Z 000000018007f6d0 f i libucrtd:output.obj
 0001:0007e820       ?write_stored_string_tchar@?$output_processor@_WV?$string_output_adapter@_W@__crt_stdio_output@@V?$standard_base@_WV?$string_output_adapter@_W@__crt_stdio_output@@@2@@__crt_stdio_output@@AEAA_N_W@Z 000000018007f820 f i libucrtd:output.obj
 0001:0007e970       ?write_string@?$stream_output_adapter@D@__crt_stdio_output@@QEBAXQEBDHQEAHAEAV__crt_deferred_errno_cache@@@Z 000000018007f970 f i libucrtd:output.obj
 0001:0007e9f0       ?write_string@?$stream_output_adapter@_W@__crt_stdio_output@@QEBAXQEB_WHQEAHAEAV__crt_deferred_errno_cache@@@Z 000000018007f9f0 f i libucrtd:output.obj
 0001:0007ea70       ?write_string@?$string_output_adapter@D@__crt_stdio_output@@QEBAXQEBDHQEAHAEAV__crt_deferred_errno_cache@@@Z 000000018007fa70 f i libucrtd:output.obj
 0001:0007ebe0       ?write_string@?$string_output_adapter@_W@__crt_stdio_output@@QEBAXQEB_WHQEAHAEAV__crt_deferred_errno_cache@@@Z 000000018007fbe0 f i libucrtd:output.obj
 0001:0007ed50       ?write_string_impl@?$output_adapter_common@DV?$stream_output_adapter@D@__crt_stdio_output@@@__crt_stdio_output@@IEBAXQEBDHQEAHAEAV__crt_deferred_errno_cache@@@Z 000000018007fd50 f i libucrtd:output.obj
 0001:0007ee30       ?write_string_impl@?$output_adapter_common@_WV?$stream_output_adapter@_W@__crt_stdio_output@@@__crt_stdio_output@@IEBAXQEB_WHQEAHAEAV__crt_deferred_errno_cache@@@Z 000000018007fe30 f i libucrtd:output.obj
 0001:0007ef10       __acrt_isleadbyte_l_noupdate 000000018007ff10 f i libucrtd:output.obj
 0001:0007ef40       __acrt_locale_changed      000000018007ff40 f i libucrtd:output.obj
 0001:0007ef70       __acrt_locale_get_ctype_array_value 000000018007ff70 f i libucrtd:output.obj
 0001:0007efb0       __stdio_common_vfprintf    000000018007ffb0 f   libucrtd:output.obj
 0001:0007eff0       __stdio_common_vfprintf_p  000000018007fff0 f   libucrtd:output.obj
 0001:0007f030       __stdio_common_vfprintf_s  0000000180080030 f   libucrtd:output.obj
 0001:0007f070       __stdio_common_vfwprintf   0000000180080070 f   libucrtd:output.obj
 0001:0007f0b0       __stdio_common_vfwprintf_p 00000001800800b0 f   libucrtd:output.obj
 0001:0007f0f0       __stdio_common_vfwprintf_s 00000001800800f0 f   libucrtd:output.obj
 0001:0007f130       __stdio_common_vsnprintf_s 0000000180080130 f   libucrtd:output.obj
 0001:0007f190       __stdio_common_vsnwprintf_s 0000000180080190 f   libucrtd:output.obj
 0001:0007f1f0       __stdio_common_vsprintf    00000001800801f0 f   libucrtd:output.obj
 0001:0007f240       __stdio_common_vsprintf_p  0000000180080240 f   libucrtd:output.obj
 0001:0007f290       __stdio_common_vsprintf_s  0000000180080290 f   libucrtd:output.obj
 0001:0007f2e0       __stdio_common_vswprintf   00000001800802e0 f   libucrtd:output.obj
 0001:0007f330       __stdio_common_vswprintf_p 0000000180080330 f   libucrtd:output.obj
 0001:0007f380       __stdio_common_vswprintf_s 0000000180080380 f   libucrtd:output.obj
 0001:0007f3d0       _ctype_fast_check_internal 00000001800803d0 f i libucrtd:output.obj
 0001:0007f400       _isdigit_fast_internal     0000000180080400 f i libucrtd:output.obj
 0001:0007f430       _tolower_fast_internal     0000000180080430 f i libucrtd:output.obj
 0001:0007f460       free                       0000000180080460 f   libucrtd:free.obj
 0001:0007f490       malloc                     0000000180080490 f   libucrtd:malloc.obj
 0001:0007f4c0       ??$?RU?$__crt_report_hook_node@D@@@__crt_internal_free_policy@@QEBAXQEBU?$__crt_report_hook_node@D@@@Z 00000001800804c0 f i libucrtd:dbgrpt.obj
 0001:0007f4f0       ??$?RU?$__crt_report_hook_node@_W@@@__crt_internal_free_policy@@QEBAXQEBU?$__crt_report_hook_node@_W@@@Z 00000001800804f0 f i libucrtd:dbgrpt.obj
 0001:00080730       ??$get_module_file_name@AEAPEAUHINSTANCE__@@AEAY0BAF@DK@?$__crt_char_traits@D@@SAKAEAPEAUHINSTANCE__@@AEAY0BAF@D$$QEAK@Z 0000000180081730 f i libucrtd:dbgrpt.obj
 0001:00080770       ??$get_module_file_name@AEAPEAUHINSTANCE__@@AEAY0BAF@_WK@?$__crt_char_traits@_W@@SAKAEAPEAUHINSTANCE__@@AEAY0BAF@_W$$QEAK@Z 0000000180081770 f i libucrtd:dbgrpt.obj
 0001:000807b0       ??$tcscpy_s@AEAY0BAF@D_KPEBD@?$__crt_char_traits@D@@SAHAEAY0BAF@D$$QEA_K$$QEAPEBD@Z 00000001800817b0 f i libucrtd:dbgrpt.obj
 0001:000807f0       ??$tcscpy_s@AEAY0BAF@_W_KPEB_W@?$__crt_char_traits@_W@@SAHAEAY0BAF@_W$$QEA_K$$QEAPEB_W@Z 00000001800817f0 f i libucrtd:dbgrpt.obj
 0001:00080830       ??$tcslen@AEAY0BAF@D@?$__crt_char_traits@D@@SA_KAEAY0BAF@D@Z 0000000180081830 f i libucrtd:dbgrpt.obj
 0001:00080850       ??$tcslen@AEAY0BAF@_W@?$__crt_char_traits@_W@@SA_KAEAY0BAF@_W@Z 0000000180081850 f i libucrtd:dbgrpt.obj
 0001:00080870       ??$tcslen@AEBQEBD@?$__crt_char_traits@D@@SA_KAEBQEBD@Z 0000000180081870 f i libucrtd:dbgrpt.obj
 0001:00080890       ??$tcslen@AEBQEB_W@?$__crt_char_traits@_W@@SA_KAEBQEB_W@Z 0000000180081890 f i libucrtd:dbgrpt.obj
 0001:00080990       ??0?$__crt_unique_heap_ptr@U?$__crt_report_hook_node@D@@U__crt_internal_free_policy@@@@QEAA@QEAU?$__crt_report_hook_node@D@@@Z 0000000180081990 f i libucrtd:dbgrpt.obj
 0001:000809b0       ??0?$__crt_unique_heap_ptr@U?$__crt_report_hook_node@_W@@U__crt_internal_free_policy@@@@QEAA@QEAU?$__crt_report_hook_node@_W@@@Z 00000001800819b0 f i libucrtd:dbgrpt.obj
 0001:000809d0       ??1?$__crt_unique_heap_ptr@U?$__crt_report_hook_node@D@@U__crt_internal_free_policy@@@@QEAA@XZ 00000001800819d0 f i libucrtd:dbgrpt.obj
 0001:000809f0       ??1?$__crt_unique_heap_ptr@U?$__crt_report_hook_node@_W@@U__crt_internal_free_policy@@@@QEAA@XZ 00000001800819f0 f i libucrtd:dbgrpt.obj
 0001:00080a10       ??B?$__crt_unique_heap_ptr@U?$__crt_report_hook_node@D@@U__crt_internal_free_policy@@@@QEBA_NXZ 0000000180081a10 f i libucrtd:dbgrpt.obj
 0001:00080a30       ??B?$__crt_unique_heap_ptr@U?$__crt_report_hook_node@_W@@U__crt_internal_free_policy@@@@QEBA_NXZ 0000000180081a30 f i libucrtd:dbgrpt.obj
 0001:00081110       ?detach@?$__crt_unique_heap_ptr@U?$__crt_report_hook_node@D@@U__crt_internal_free_policy@@@@QEAAPEAU?$__crt_report_hook_node@D@@XZ 0000000180082110 f i libucrtd:dbgrpt.obj
 0001:00081140       ?detach@?$__crt_unique_heap_ptr@U?$__crt_report_hook_node@_W@@U__crt_internal_free_policy@@@@QEAAPEAU?$__crt_report_hook_node@_W@@XZ 0000000180082140 f i libucrtd:dbgrpt.obj
 0001:00081170       ?get@?$__crt_unique_heap_ptr@U?$__crt_report_hook_node@D@@U__crt_internal_free_policy@@@@QEBAPEAU?$__crt_report_hook_node@D@@XZ 0000000180082170 f i libucrtd:dbgrpt.obj
 0001:00081180       ?get@?$__crt_unique_heap_ptr@U?$__crt_report_hook_node@_W@@U__crt_internal_free_policy@@@@QEBAPEAU?$__crt_report_hook_node@_W@@XZ 0000000180082180 f i libucrtd:dbgrpt.obj
 0001:000811f0       ?is_valid@?$__crt_unique_heap_ptr@U?$__crt_report_hook_node@D@@U__crt_internal_free_policy@@@@QEBA_NXZ 00000001800821f0 f i libucrtd:dbgrpt.obj
 0001:00081220       ?is_valid@?$__crt_unique_heap_ptr@U?$__crt_report_hook_node@_W@@U__crt_internal_free_policy@@@@QEBA_NXZ 0000000180082220 f i libucrtd:dbgrpt.obj
 0001:00081250       ?release@?$__crt_unique_heap_ptr@U?$__crt_report_hook_node@D@@U__crt_internal_free_policy@@@@QEAAXXZ 0000000180082250 f i libucrtd:dbgrpt.obj
 0001:00081280       ?release@?$__crt_unique_heap_ptr@U?$__crt_report_hook_node@_W@@U__crt_internal_free_policy@@@@QEAAXXZ 0000000180082280 f i libucrtd:dbgrpt.obj
 0001:000812b0       _CrtDbgReport              00000001800822b0 f   libucrtd:dbgrpt.obj
 0001:00081330       _CrtDbgReportW             0000000180082330 f   libucrtd:dbgrpt.obj
 0001:000813b0       _CrtSetReportHook2         00000001800823b0 f   libucrtd:dbgrpt.obj
 0001:000813d0       _CrtSetReportHookW2        00000001800823d0 f   libucrtd:dbgrpt.obj
 0001:000813f0       __acrt_MessageWindowA      00000001800823f0 f   libucrtd:dbgrpt.obj
 0001:00081440       __acrt_MessageWindowW      0000000180082440 f   libucrtd:dbgrpt.obj
 0001:00081490       _invoke_watson_if_error    0000000180082490 f i libucrtd:dbgrpt.obj
 0001:000814e0       _invoke_watson_if_oneof    00000001800824e0 f i libucrtd:dbgrpt.obj
 0001:00081540       _snwprintf_s               0000000180082540 f i libucrtd:dbgrpt.obj
 0001:000815b0       _vsnwprintf_s_l            00000001800825b0 f i libucrtd:dbgrpt.obj
 0001:00081b10       wcscpy_s                   0000000180082b10 f   libucrtd:wcscpy_s.obj
 0001:00082ea0       ??1?$__crt_simd_cleanup_guard@$00@@QEAA@XZ 0000000180083ea0 f i libucrtd:strnlen.obj
 0001:00082eb0       ??1?$__crt_simd_cleanup_guard@$0A@@@QEAA@XZ 0000000180083eb0 f i libucrtd:strnlen.obj
 0001:00082ec0       ?compare_equals@?$__crt_simd_traits@$00E@@SA?AT__m256i@@T2@0@Z 0000000180083ec0 f i libucrtd:strnlen.obj
 0001:00082f00       ?compare_equals@?$__crt_simd_traits@$00G@@SA?AT__m256i@@T2@0@Z 0000000180083f00 f i libucrtd:strnlen.obj
 0001:00082f40       ?compare_equals@?$__crt_simd_traits@$0A@E@@SA?AT__m128i@@T2@0@Z 0000000180083f40 f i libucrtd:strnlen.obj
 0001:00082f70       ?compare_equals@?$__crt_simd_traits@$0A@G@@SA?AT__m128i@@T2@0@Z 0000000180083f70 f i libucrtd:strnlen.obj
 0001:00082fa0       ?compute_byte_mask@?$__crt_simd_pack_traits@$00@@SAHT__m256i@@@Z 0000000180083fa0 f i libucrtd:strnlen.obj
 0001:00082fc0       ?compute_byte_mask@?$__crt_simd_pack_traits@$0A@@@SAHT__m128i@@@Z 0000000180083fc0 f i libucrtd:strnlen.obj
 0001:00082fe0       ?get_zero_pack@?$__crt_simd_pack_traits@$00@@SA?AT__m256i@@XZ 0000000180083fe0 f i libucrtd:strnlen.obj
 0001:00083010       ?get_zero_pack@?$__crt_simd_pack_traits@$0A@@@SA?AT__m128i@@XZ 0000000180084010 f i libucrtd:strnlen.obj
 0001:00083030       strnlen                    0000000180084030 f   libucrtd:strnlen.obj
 0001:00083060       wcslen                     0000000180084060 f   libucrtd:strnlen.obj
 0001:00083080       wcsnlen                    0000000180084080 f   libucrtd:strnlen.obj
 0001:000830b0       ??$__crt_fast_decode_pointer@P6AXPEB_W00I_K@Z@@YAP6AXPEB_W00I_K@ZQ6AX000I1@Z@Z 00000001800840b0 f i libucrtd:invalid_parameter.obj
 0001:000830f0       ??$__crt_fast_encode_pointer@P6AXPEB_W00I_K@Z@@YAP6AXPEB_W00I_K@ZQ6AX000I1@Z@Z 00000001800840f0 f i libucrtd:invalid_parameter.obj
 0001:00083130       ??$initialize_from_array@$$BY00Q6AXPEB_W00I_K@Z@?$dual_state_global@P6AXPEB_W00I_K@Z@__crt_state_management@@QEAAXAEAY00Q6AXPEB_W00I_K@Z@Z 0000000180084130 f i libucrtd:invalid_parameter.obj
 0001:00083190       ?__crt_rotate_pointer_value@@YA_K_KH@Z 0000000180084190 f i libucrtd:invalid_parameter.obj
 0001:00083250       ?dangerous_get_state_array@?$dual_state_global@P6AXPEB_W00I_K@Z@__crt_state_management@@QEAAPEAP6AXPEB_W00I_K@ZXZ 0000000180084250 f i libucrtd:invalid_parameter.obj
 0001:00083260       ?get_current_state_index@__crt_state_management@@YA_KXZ 0000000180084260 f i libucrtd:invalid_parameter.obj
 0001:00083270       ?value@?$dual_state_global@P6AXPEB_W00I_K@Z@__crt_state_management@@QEAAAEAP6AXPEB_W00I_K@ZXZ 0000000180084270 f i libucrtd:invalid_parameter.obj
 0001:00083290       __acrt_call_reportfault    0000000180084290 f   libucrtd:invalid_parameter.obj
 0001:000833c0       __acrt_initialize_invalid_parameter_handler 00000001800843c0 f   libucrtd:invalid_parameter.obj
 0001:000833f0       _get_invalid_parameter_handler 00000001800843f0 f   libucrtd:invalid_parameter.obj
 0001:00083410       _get_thread_local_invalid_parameter_handler 0000000180084410 f   libucrtd:invalid_parameter.obj
 0001:00083440       _invalid_parameter         0000000180084440 f   libucrtd:invalid_parameter.obj
 0001:00083540       _invalid_parameter_noinfo  0000000180084540 f   libucrtd:invalid_parameter.obj
 0001:00083570       _invalid_parameter_noinfo_noreturn 0000000180084570 f   libucrtd:invalid_parameter.obj
 0001:000835b0       _invoke_watson             00000001800845b0 f   libucrtd:invalid_parameter.obj
 0001:00083610       _set_invalid_parameter_handler 0000000180084610 f   libucrtd:invalid_parameter.obj
 0001:00083660       _set_thread_local_invalid_parameter_handler 0000000180084660 f   libucrtd:invalid_parameter.obj
 0001:000836a0       __acrt_errno_from_os_error 00000001800846a0 f   libucrtd:errno.obj
 0001:00083730       __acrt_errno_map_os_error  0000000180084730 f   libucrtd:errno.obj
 0001:00083760       __doserrno                 0000000180084760 f   libucrtd:errno.obj
 0001:00083790       _errno                     0000000180084790 f   libucrtd:errno.obj
 0001:000837c0       _get_doserrno              00000001800847c0 f   libucrtd:errno.obj
 0001:00083880       _get_errno                 0000000180084880 f   libucrtd:errno.obj
 0001:00083940       _set_doserrno              0000000180084940 f   libucrtd:errno.obj
 0001:00083980       _set_errno                 0000000180084980 f   libucrtd:errno.obj
 0001:000839c0       calloc                     00000001800849c0 f   libucrtd:calloc.obj
 0001:00083a00       _recalloc                  0000000180084a00 f   libucrtd:recalloc.obj
 0001:00083a50       _recalloc_base             0000000180084a50 f   libucrtd:recalloc.obj
 0001:00083b2c       _resetstkoflw              0000000180084b2c f   libucrtd:resetstk.obj
 0001:000842e0       wcscat_s                   00000001800852e0 f   libucrtd:wcscat_s.obj
 0001:000849b0       wcsncpy_s                  00000001800859b0 f   libucrtd:wcsncpy_s.obj
 0001:00084a10       __acrt_get_locale_data_prefix 0000000180085a10 f i libucrtd:_ctype.obj
 0001:00084a30       __isascii                  0000000180085a30 f i libucrtd:_ctype.obj
 0001:00084a60       __iscsym                   0000000180085a60 f i libucrtd:_ctype.obj
 0001:00084aa0       __iscsymf                  0000000180085aa0 f i libucrtd:_ctype.obj
 0001:00084ae0       __toascii                  0000000180085ae0 f i libucrtd:_ctype.obj
 0001:00084af0       _chvalidchk_l              0000000180085af0 f i libucrtd:_ctype.obj
 0001:00084b20       _isalnum_l                 0000000180085b20 f i libucrtd:_ctype.obj
 0001:00084b70       _isalpha_l                 0000000180085b70 f i libucrtd:_ctype.obj
 0001:00084bc0       _isblank_l                 0000000180085bc0 f i libucrtd:_ctype.obj
 0001:00084c30       _ischartype_l              0000000180085c30 f i libucrtd:_ctype.obj
 0001:00084cc0       _iscntrl_l                 0000000180085cc0 f i libucrtd:_ctype.obj
 0001:00084d10       _iscsym_l                  0000000180085d10 f i libucrtd:_ctype.obj
 0001:00084d60       _iscsymf_l                 0000000180085d60 f i libucrtd:_ctype.obj
 0001:00084db0       _isdigit_l                 0000000180085db0 f i libucrtd:_ctype.obj
 0001:00084e00       _isgraph_l                 0000000180085e00 f i libucrtd:_ctype.obj
 0001:00084e50       _islower_l                 0000000180085e50 f i libucrtd:_ctype.obj
 0001:00084ea0       _isprint_l                 0000000180085ea0 f i libucrtd:_ctype.obj
 0001:00084ef0       _ispunct_l                 0000000180085ef0 f i libucrtd:_ctype.obj
 0001:00084f40       _isspace_l                 0000000180085f40 f i libucrtd:_ctype.obj
 0001:00084f90       _isupper_l                 0000000180085f90 f i libucrtd:_ctype.obj
 0001:00084fe0       _isxdigit_l                0000000180085fe0 f i libucrtd:_ctype.obj
 0001:00085030       isalnum                    0000000180086030 f i libucrtd:_ctype.obj
 0001:00085070       isalpha                    0000000180086070 f i libucrtd:_ctype.obj
 0001:000850b0       isblank                    00000001800860b0 f i libucrtd:_ctype.obj
 0001:00085110       iscntrl                    0000000180086110 f i libucrtd:_ctype.obj
 0001:00085150       isdigit                    0000000180086150 f i libucrtd:_ctype.obj
 0001:00085190       isgraph                    0000000180086190 f i libucrtd:_ctype.obj
 0001:000851d0       islower                    00000001800861d0 f i libucrtd:_ctype.obj
 0001:00085210       isprint                    0000000180086210 f i libucrtd:_ctype.obj
 0001:00085250       ispunct                    0000000180086250 f i libucrtd:_ctype.obj
 0001:00085290       isspace                    0000000180086290 f i libucrtd:_ctype.obj
 0001:000852d0       isupper                    00000001800862d0 f i libucrtd:_ctype.obj
 0001:00085310       isxdigit                   0000000180086310 f i libucrtd:_ctype.obj
 0001:00085350       wcscat                     0000000180086350 f   libucrtd:wcscat.obj
 0001:000853d0       wcscpy                     00000001800863d0 f   libucrtd:wcscpy.obj
 0001:00085b80       ??$open_file@AEBQEBDAEBQEBDAEBHPEAU_iobuf@@@?$__crt_char_traits@D@@SAPEAU_iobuf@@AEBQEBD0AEBH$$QEAPEAU1@@Z 0000000180086b80 f i libucrtd:fopen.obj
 0001:00085bd0       ??$open_file@AEBQEB_WAEBQEB_WAEBHPEAU_iobuf@@@?$__crt_char_traits@_W@@SAPEAU_iobuf@@AEBQEB_W0AEBH$$QEAPEAU1@@Z 0000000180086bd0 f i libucrtd:fopen.obj
 0001:00085c20       ?unlock@__crt_stdio_stream@@QEBAXXZ 0000000180086c20 f i libucrtd:fopen.obj
 0001:00085c40       _fsopen                    0000000180086c40 f   libucrtd:fopen.obj
 0001:00085c70       _wfopen                    0000000180086c70 f   libucrtd:fopen.obj
 0001:00085ca0       _wfopen_s                  0000000180086ca0 f   libucrtd:fopen.obj
 0001:00085cd0       _wfsopen                   0000000180086cd0 f   libucrtd:fopen.obj
 0001:00085d00       fopen                      0000000180086d00 f   libucrtd:fopen.obj
 0001:00085d30       fopen_s                    0000000180086d30 f   libucrtd:fopen.obj
 0001:00085d60       ?is_in_use@__crt_stdio_stream@@QEBA_NXZ 0000000180086d60 f i libucrtd:fclose.obj
 0001:00085da0       _fclose_nolock             0000000180086da0 f   libucrtd:fclose.obj
 0001:00085f30       fclose                     0000000180086f30 f   libucrtd:fclose.obj
 0001:00086070       _fputc_nolock              0000000180087070 f   libucrtd:fputc.obj
 0001:00086120       _fputchar                  0000000180087120 f   libucrtd:fputc.obj
 0001:00086150       _putc_nolock               0000000180087150 f   libucrtd:fputc.obj
 0001:00086170       fputc                      0000000180087170 f   libucrtd:fputc.obj
 0001:00086410       putc                       0000000180087410 f   libucrtd:fputc.obj
 0001:00086430       putchar                    0000000180087430 f   libucrtd:fputc.obj
 0001:000864c0       _seh_filter_dll            00000001800874c0 f   libucrtd:exception_filter.obj
 0001:000864f0       _seh_filter_exe            00000001800874f0 f   libucrtd:exception_filter.obj
 0001:00086790       ??$?B$$A6AXPEAXK0@Z@__crt_fast_encoded_nullptr_t@@QEBAP6AXPEAXK0@ZXZ 0000000180087790 f i libucrtd:exit.obj
 0001:00086840       ??$__crt_fast_decode_pointer@P6AXPEAXK0@Z@@YAP6AXPEAXK0@ZQ6AX0K0@Z@Z 0000000180087840 f i libucrtd:exit.obj
 0001:00086880       ??$__crt_fast_encode_pointer@P6AXPEAXK0@Z@@YAP6AXPEAXK0@ZQ6AX0K0@Z@Z 0000000180087880 f i libucrtd:exit.obj
 0001:000868c0       ??$__crt_get_proc_address@P6AXI@Z@@YAP6AXI@ZQEAUHINSTANCE__@@QEBD@Z 00000001800878c0 f i libucrtd:exit.obj
 0001:00086980       ??0?$__crt_unique_handle_t@U__crt_hmodule_traits@@@@QEAA@QEAUHINSTANCE__@@@Z 0000000180087980 f i libucrtd:exit.obj
 0001:000869a0       ??1?$__crt_unique_handle_t@U__crt_hmodule_traits@@@@QEAA@XZ 00000001800879a0 f i libucrtd:exit.obj
 0001:00086b00       ?__acrt_select_exit_lock@@YA?AW4__acrt_lock_id@@XZ 0000000180087b00 f i libucrtd:exit.obj
 0001:00086b10       ?__crt_fast_encode_pointer@@YA?AU__crt_fast_encoded_nullptr_t@@$$T@Z 0000000180087b10 f i libucrtd:exit.obj
 0001:00086b50       ?close@?$__crt_unique_handle_t@U__crt_hmodule_traits@@@@QEAAXXZ 0000000180087b50 f i libucrtd:exit.obj
 0001:00086b90       ?close@__crt_hmodule_traits@@SA_NPEAUHINSTANCE__@@@Z 0000000180087b90 f i libucrtd:exit.obj
 0001:00086ca0       ?get@?$__crt_unique_handle_t@U__crt_hmodule_traits@@@@QEBAPEAUHINSTANCE__@@XZ 0000000180087ca0 f i libucrtd:exit.obj
 0001:00086cb0       ?get_address_of@?$__crt_unique_handle_t@U__crt_hmodule_traits@@@@QEAAPEAPEAUHINSTANCE__@@XZ 0000000180087cb0 f i libucrtd:exit.obj
 0001:00086cc0       ?get_invalid_value@__crt_hmodule_traits@@SAPEAUHINSTANCE__@@XZ 0000000180087cc0 f i libucrtd:exit.obj
 0001:00086e80       _Exit                      0000000180087e80 f   libucrtd:exit.obj
 0001:00086ea0       __acrt_initialize_thread_local_exit_callback 0000000180087ea0 f   libucrtd:exit.obj
 0001:00086ec0       _c_exit                    0000000180087ec0 f   libucrtd:exit.obj
 0001:00086ee0       _cexit                     0000000180087ee0 f   libucrtd:exit.obj
 0001:00086f00       _exit                      0000000180087f00 f   libucrtd:exit.obj
 0001:00086f20       _is_c_termination_complete 0000000180087f20 f   libucrtd:exit.obj
 0001:00086f40       _register_thread_local_exe_atexit_callback 0000000180087f40 f   libucrtd:exit.obj
 0001:00086f90       exit                       0000000180087f90 f   libucrtd:exit.obj
 0001:00086fb0       quick_exit                 0000000180087fb0 f   libucrtd:exit.obj
 0001:00086fd0       ??$?RE@__crt_internal_free_policy@@QEBAXQEBE@Z 0000000180087fd0 f i libucrtd:argv_parsing.obj
 0001:00087000       ??$?RPEAD@__crt_internal_free_policy@@QEBAXQEBQEAD@Z 0000000180088000 f i libucrtd:argv_parsing.obj
 0001:00087030       ??$?RPEA_W@__crt_internal_free_policy@@QEBAXQEBQEA_W@Z 0000000180088030 f i libucrtd:argv_parsing.obj
 0001:00087780       ??$get_module_file_name@$$TAEAY0BAF@DH@?$__crt_char_traits@D@@SAK$$QEA$$TAEAY0BAF@D$$QEAH@Z 0000000180088780 f i libucrtd:argv_parsing.obj
 0001:000877c0       ??$get_module_file_name@$$TAEAY0BAF@_WH@?$__crt_char_traits@_W@@SAK$$QEA$$TAEAY0BAF@_W$$QEAH@Z 00000001800887c0 f i libucrtd:argv_parsing.obj
 0001:00088170       ??$set_program_name@PEAD@?$__crt_char_traits@D@@SAX$$QEAPEAD@Z 0000000180089170 f i libucrtd:argv_parsing.obj
 0001:00088190       ??$set_program_name@PEA_W@?$__crt_char_traits@_W@@SAX$$QEAPEA_W@Z 0000000180089190 f i libucrtd:argv_parsing.obj
 0001:000881f0       ??0?$__crt_unique_heap_ptr@EU__crt_internal_free_policy@@@@QEAA@QEAE@Z 00000001800891f0 f i libucrtd:argv_parsing.obj
 0001:00088210       ??0?$__crt_unique_heap_ptr@PEADU__crt_internal_free_policy@@@@QEAA@QEAPEAD@Z 0000000180089210 f i libucrtd:argv_parsing.obj
 0001:00088230       ??0?$__crt_unique_heap_ptr@PEA_WU__crt_internal_free_policy@@@@QEAA@QEAPEA_W@Z 0000000180089230 f i libucrtd:argv_parsing.obj
 0001:00088250       ??1?$__crt_unique_heap_ptr@EU__crt_internal_free_policy@@@@QEAA@XZ 0000000180089250 f i libucrtd:argv_parsing.obj
 0001:00088270       ??1?$__crt_unique_heap_ptr@PEADU__crt_internal_free_policy@@@@QEAA@XZ 0000000180089270 f i libucrtd:argv_parsing.obj
 0001:00088290       ??1?$__crt_unique_heap_ptr@PEA_WU__crt_internal_free_policy@@@@QEAA@XZ 0000000180089290 f i libucrtd:argv_parsing.obj
 0001:000882b0       ??B?$__crt_unique_heap_ptr@EU__crt_internal_free_policy@@@@QEBA_NXZ 00000001800892b0 f i libucrtd:argv_parsing.obj
 0001:00088390       ?detach@?$__crt_unique_heap_ptr@EU__crt_internal_free_policy@@@@QEAAPEAEXZ 0000000180089390 f i libucrtd:argv_parsing.obj
 0001:000883c0       ?detach@?$__crt_unique_heap_ptr@PEADU__crt_internal_free_policy@@@@QEAAPEAPEADXZ 00000001800893c0 f i libucrtd:argv_parsing.obj
 0001:000883f0       ?detach@?$__crt_unique_heap_ptr@PEA_WU__crt_internal_free_policy@@@@QEAAPEAPEA_WXZ 00000001800893f0 f i libucrtd:argv_parsing.obj
 0001:000884b0       ?get@?$__crt_unique_heap_ptr@EU__crt_internal_free_policy@@@@QEBAPEAEXZ 00000001800894b0 f i libucrtd:argv_parsing.obj
 0001:000884c0       ?get@?$__crt_unique_heap_ptr@PEADU__crt_internal_free_policy@@@@QEBAPEAPEADXZ 00000001800894c0 f i libucrtd:argv_parsing.obj
 0001:000884d0       ?get@?$__crt_unique_heap_ptr@PEA_WU__crt_internal_free_policy@@@@QEBAPEAPEA_WXZ 00000001800894d0 f i libucrtd:argv_parsing.obj
 0001:000884e0       ?get_address_of@?$__crt_unique_heap_ptr@PEADU__crt_internal_free_policy@@@@QEAAPEAPEAPEADXZ 00000001800894e0 f i libucrtd:argv_parsing.obj
 0001:000884f0       ?get_address_of@?$__crt_unique_heap_ptr@PEA_WU__crt_internal_free_policy@@@@QEAAPEAPEAPEA_WXZ 00000001800894f0 f i libucrtd:argv_parsing.obj
 0001:00088540       ?is_valid@?$__crt_unique_heap_ptr@EU__crt_internal_free_policy@@@@QEBA_NXZ 0000000180089540 f i libucrtd:argv_parsing.obj
 0001:00088570       ?release@?$__crt_unique_heap_ptr@EU__crt_internal_free_policy@@@@QEAAXXZ 0000000180089570 f i libucrtd:argv_parsing.obj
 0001:000885a0       ?release@?$__crt_unique_heap_ptr@PEADU__crt_internal_free_policy@@@@QEAAXXZ 00000001800895a0 f i libucrtd:argv_parsing.obj
 0001:000885d0       ?release@?$__crt_unique_heap_ptr@PEA_WU__crt_internal_free_policy@@@@QEAAXXZ 00000001800895d0 f i libucrtd:argv_parsing.obj
 0001:00088650       __acrt_allocate_buffer_for_argv 0000000180089650 f   libucrtd:argv_parsing.obj
 0001:00088770       _configure_narrow_argv     0000000180089770 f   libucrtd:argv_parsing.obj
 0001:00088790       _configure_wide_argv       0000000180089790 f   libucrtd:argv_parsing.obj
 0001:000887b0       _set_pgmptr                00000001800897b0 f i libucrtd:argv_parsing.obj
 0001:000887d0       _set_wpgmptr               00000001800897d0 f i libucrtd:argv_parsing.obj
 0001:000887e4       ??$?R_W@__crt_internal_free_policy@@QEBAXQEB_W@Z 00000001800897e4 f i libucrtd:environment_initialization.obj
 0001:00088dbc       ??$get_environment_from_os@$$V@?$__crt_char_traits@D@@SAPEADXZ 0000000180089dbc f i libucrtd:environment_initialization.obj
 0001:00088dc4       ??$get_environment_from_os@$$V@?$__crt_char_traits@_W@@SAPEA_WXZ 0000000180089dc4 f i libucrtd:environment_initialization.obj
 0001:00088f94       ??$set_variable_in_environment_nolock@PEADH@?$__crt_char_traits@D@@SAH$$QEAPEAD$$QEAH@Z 0000000180089f94 f i libucrtd:environment_initialization.obj
 0001:00088fa0       ??$set_variable_in_environment_nolock@PEA_WH@?$__crt_char_traits@_W@@SAH$$QEAPEA_W$$QEAH@Z 0000000180089fa0 f i libucrtd:environment_initialization.obj
 0001:00088fac       ??$tcscpy_s@PEADAEB_KAEAPEAD@?$__crt_char_traits@D@@SAH$$QEAPEADAEB_KAEAPEAD@Z 0000000180089fac f i libucrtd:environment_initialization.obj
 0001:00088fbc       ??$tcscpy_s@PEA_WAEB_KAEAPEA_W@?$__crt_char_traits@_W@@SAH$$QEAPEA_WAEB_KAEAPEA_W@Z 0000000180089fbc f i libucrtd:environment_initialization.obj
 0001:00088fcc       ??$tcslen@AEAPEAD@?$__crt_char_traits@D@@SA_KAEAPEAD@Z 0000000180089fcc f i libucrtd:environment_initialization.obj
 0001:00088fe0       ??$tcslen@AEAPEA_W@?$__crt_char_traits@_W@@SA_KAEAPEA_W@Z 0000000180089fe0 f i libucrtd:environment_initialization.obj
 0001:00088ff4       ??$uninitialize@A6AXAEAPEAPEAD@Z@?$dual_state_global@PEAPEAD@__crt_state_management@@QEAAXA6AXAEAPEAPEAD@Z@Z 0000000180089ff4 f i libucrtd:environment_initialization.obj
 0001:00089038       ??$uninitialize@A6AXAEAPEAPEA_W@Z@?$dual_state_global@PEAPEA_W@__crt_state_management@@QEAAXA6AXAEAPEAPEA_W@Z@Z 000000018008a038 f i libucrtd:environment_initialization.obj
 0001:000890b4       ??0?$__crt_unique_heap_ptr@_WU__crt_internal_free_policy@@@@QEAA@QEA_W@Z 000000018008a0b4 f i libucrtd:environment_initialization.obj
 0001:000890bc       ??1?$__crt_unique_heap_ptr@_WU__crt_internal_free_policy@@@@QEAA@XZ 000000018008a0bc f i libucrtd:environment_initialization.obj
 0001:000890dc       ??B?$__crt_unique_heap_ptr@PEADU__crt_internal_free_policy@@@@QEBA_NXZ 000000018008a0dc f i libucrtd:environment_initialization.obj
 0001:000890e4       ??B?$__crt_unique_heap_ptr@PEA_WU__crt_internal_free_policy@@@@QEBA_NXZ 000000018008a0e4 f i libucrtd:environment_initialization.obj
 0001:000890ec       ??B?$__crt_unique_heap_ptr@_WU__crt_internal_free_policy@@@@QEBA_NXZ 000000018008a0ec f i libucrtd:environment_initialization.obj
 0001:000890f4       ?__crt_compute_required_transform_buffer_count@@YA_KIQEBD@Z 000000018008a0f4 f i libucrtd:environment_initialization.obj
 0001:00089118       ?__crt_compute_required_transform_buffer_count@@YA_KIQEB_W@Z 000000018008a118 f i libucrtd:environment_initialization.obj
 0001:00089148       ?__crt_transform_string@@YA_KIQEBDQEA_W_K@Z 000000018008a148 f i libucrtd:environment_initialization.obj
 0001:0008916c       ?__crt_transform_string@@YA_KIQEB_WQEAD_K@Z 000000018008a16c f i libucrtd:environment_initialization.obj
 0001:0008919c       ?detach@?$__crt_unique_heap_ptr@DU__crt_internal_free_policy@@@@QEAAPEADXZ 000000018008a19c f i libucrtd:environment_initialization.obj
 0001:000891a4       ?detach@?$__crt_unique_heap_ptr@_WU__crt_internal_free_policy@@@@QEAAPEA_WXZ 000000018008a1a4 f i libucrtd:environment_initialization.obj
 0001:000891ac       ?get@?$__crt_unique_heap_ptr@_WU__crt_internal_free_policy@@@@QEBAPEA_WXZ 000000018008a1ac f i libucrtd:environment_initialization.obj
 0001:000891e0       ?initialize@?$dual_state_global@PEAPEAD@__crt_state_management@@QEAAXQEAPEAD@Z 000000018008a1e0 f i libucrtd:environment_initialization.obj
 0001:00089208       ?initialize@?$dual_state_global@PEAPEA_W@__crt_state_management@@QEAAXQEAPEA_W@Z 000000018008a208 f i libucrtd:environment_initialization.obj
 0001:00089230       ?is_valid@?$__crt_unique_heap_ptr@PEADU__crt_internal_free_policy@@@@QEBA_NXZ 000000018008a230 f i libucrtd:environment_initialization.obj
 0001:00089238       ?is_valid@?$__crt_unique_heap_ptr@PEA_WU__crt_internal_free_policy@@@@QEBA_NXZ 000000018008a238 f i libucrtd:environment_initialization.obj
 0001:00089240       ?is_valid@?$__crt_unique_heap_ptr@_WU__crt_internal_free_policy@@@@QEBA_NXZ 000000018008a240 f i libucrtd:environment_initialization.obj
 0001:00089254       ?release@?$__crt_unique_heap_ptr@_WU__crt_internal_free_policy@@@@QEAAXXZ 000000018008a254 f i libucrtd:environment_initialization.obj
 0001:00089274       ?value@?$dual_state_global@PEAPEAD@__crt_state_management@@QEAAAEAPEAPEADXZ 000000018008a274 f i libucrtd:environment_initialization.obj
 0001:00089278       ?value@?$dual_state_global@PEAPEA_W@__crt_state_management@@QEAAAEAPEAPEA_WXZ 000000018008a278 f i libucrtd:environment_initialization.obj
 0001:0008927c       __dcrt_get_or_create_narrow_environment_nolock 000000018008a27c f   libucrtd:environment_initialization.obj
 0001:000892b8       __dcrt_get_or_create_wide_environment_nolock 000000018008a2b8 f   libucrtd:environment_initialization.obj
 0001:000892f4       __dcrt_uninitialize_environments_nolock 000000018008a2f4 f   libucrtd:environment_initialization.obj
 0001:0008932c       __p__environ               000000018008a32c f   libucrtd:environment_initialization.obj
 0001:00089334       __p__wenviron              000000018008a334 f   libucrtd:environment_initialization.obj
 0001:0008933c       _get_initial_narrow_environment 000000018008a33c f   libucrtd:environment_initialization.obj
 0001:0008938c       _get_initial_wide_environment 000000018008a38c f   libucrtd:environment_initialization.obj
 0001:000893dc       _initialize_narrow_environment 000000018008a3dc f   libucrtd:environment_initialization.obj
 0001:000893e4       _initialize_wide_environment 000000018008a3e4 f   libucrtd:environment_initialization.obj
 0001:000893f0       ??$?B$$A6AXXZ@__crt_fast_encoded_nullptr_t@@QEBAP6AXXZXZ 000000018008a3f0 f i libucrtd:onexit.obj
 0001:00089410       ??$?BP6AXXZ@__crt_fast_encoded_nullptr_t@@QEBAPEAP6AXXZXZ 000000018008a410 f i libucrtd:onexit.obj
 0001:00089430       ??$?RP6AXXZ@__crt_internal_free_policy@@QEBAXQEBQ6AXXZ@Z 000000018008a430 f i libucrtd:onexit.obj
 0001:000895a0       ??$__crt_fast_decode_pointer@P6AXXZ@@YAP6AXXZQ6AXXZ@Z 000000018008a5a0 f i libucrtd:onexit.obj
 0001:000895e0       ??$__crt_fast_decode_pointer@PEAP6AXXZ@@YAPEAP6AXXZQEAP6AXXZ@Z 000000018008a5e0 f i libucrtd:onexit.obj
 0001:00089620       ??$__crt_fast_encode_pointer@P6AHXZ@@YAP6AHXZQ6AHXZ@Z 000000018008a620 f i libucrtd:onexit.obj
 0001:00089660       ??$__crt_fast_encode_pointer@P6AXXZ@@YAP6AXXZQ6AXXZ@Z 000000018008a660 f i libucrtd:onexit.obj
 0001:000896a0       ??$__crt_fast_encode_pointer@PEAP6AXXZ@@YAPEAP6AXXZQEAP6AXXZ@Z 000000018008a6a0 f i libucrtd:onexit.obj
 0001:000897b0       ??0?$__crt_unique_heap_ptr@P6AXXZU__crt_internal_free_policy@@@@QEAA@QEAP6AXXZ@Z 000000018008a7b0 f i libucrtd:onexit.obj
 0001:000897d0       ??1?$__crt_unique_heap_ptr@P6AXXZU__crt_internal_free_policy@@@@QEAA@XZ 000000018008a7d0 f i libucrtd:onexit.obj
 0001:000897f0       ??1scoped_global_state_reset@__crt_state_management@@QEAA@XZ 000000018008a7f0 f i libucrtd:onexit.obj
 0001:00089dc0       ?detach@?$__crt_unique_heap_ptr@P6AXXZU__crt_internal_free_policy@@@@QEAAPEAP6AXXZXZ 000000018008adc0 f i libucrtd:onexit.obj
 0001:00089df0       ?release@?$__crt_unique_heap_ptr@P6AXXZU__crt_internal_free_policy@@@@QEAAXXZ 000000018008adf0 f i libucrtd:onexit.obj
 0001:00089e20       _crt_at_quick_exit         000000018008ae20 f   libucrtd:onexit.obj
 0001:00089e40       _crt_atexit                000000018008ae40 f   libucrtd:onexit.obj
 0001:00089e60       _execute_onexit_table      000000018008ae60 f   libucrtd:onexit.obj
 0001:00089ea0       _initialize_onexit_table   000000018008aea0 f   libucrtd:onexit.obj
 0001:00089f20       _register_onexit_function  000000018008af20 f   libucrtd:onexit.obj
 0001:0008a190       ??$?BX@__crt_fast_encoded_nullptr_t@@QEBAPEAXXZ 000000018008b190 f i libucrtd:initialization.obj
 0001:0008a1b0       ??$__crt_fast_encode_pointer@PEAX@@YAPEAXQEAX@Z 000000018008b1b0 f i libucrtd:initialization.obj
 0001:0008a2a0       ?initialize@?$dual_state_global@PEAU__crt_locale_data@@@__crt_state_management@@QEAAXQEAU__crt_locale_data@@@Z 000000018008b2a0 f i libucrtd:initialization.obj
 0001:0008a2f0       __acrt_initialize          000000018008b2f0 f   libucrtd:initialization.obj
 0001:0008a320       __acrt_thread_attach       000000018008b320 f   libucrtd:initialization.obj
 0001:0008a340       __acrt_thread_detach       000000018008b340 f   libucrtd:initialization.obj
 0001:0008a350       __acrt_uninitialize        000000018008b350 f   libucrtd:initialization.obj
 0001:0008a380       __acrt_uninitialize_critical 000000018008b380 f   libucrtd:initialization.obj
 0001:0008c370       _CrtCheckMemory            000000018008d370 f   libucrtd:debug_heap.obj
 0001:0008c500       _CrtDoForAllClientObjects  000000018008d500 f   libucrtd:debug_heap.obj
 0001:0008c630       _CrtDumpMemoryLeaks        000000018008d630 f   libucrtd:debug_heap.obj
 0001:0008c6f0       _CrtGetAllocHook           000000018008d6f0 f   libucrtd:debug_heap.obj
 0001:0008c700       _CrtGetDumpClient          000000018008d700 f   libucrtd:debug_heap.obj
 0001:0008c710       _CrtIsMemoryBlock          000000018008d710 f   libucrtd:debug_heap.obj
 0001:0008c850       _CrtIsValidHeapPointer     000000018008d850 f   libucrtd:debug_heap.obj
 0001:0008c890       _CrtIsValidPointer         000000018008d890 f   libucrtd:debug_heap.obj
 0001:0008c8d0       _CrtMemCheckpoint          000000018008d8d0 f   libucrtd:debug_heap.obj
 0001:0008cb50       _CrtMemDifference          000000018008db50 f   libucrtd:debug_heap.obj
 0001:0008ceb0       _CrtMemDumpAllObjectsSince 000000018008deb0 f   libucrtd:debug_heap.obj
 0001:0008cf10       _CrtMemDumpStatistics      000000018008df10 f   libucrtd:debug_heap.obj
 0001:0008d0b0       _CrtReportBlockType        000000018008e0b0 f   libucrtd:debug_heap.obj
 0001:0008d0e0       _CrtSetAllocHook           000000018008e0e0 f   libucrtd:debug_heap.obj
 0001:0008d110       _CrtSetBreakAlloc          000000018008e110 f   libucrtd:debug_heap.obj
 0001:0008d140       _CrtSetDbgBlockType        000000018008e140 f   libucrtd:debug_heap.obj
 0001:0008d1e0       _CrtSetDbgFlag             000000018008e1e0 f   libucrtd:debug_heap.obj
 0001:0008d340       _CrtSetDumpClient          000000018008e340 f   libucrtd:debug_heap.obj
 0001:0008d370       __p__crtBreakAlloc         000000018008e370 f   libucrtd:debug_heap.obj
 0001:0008d380       __p__crtDbgFlag            000000018008e380 f   libucrtd:debug_heap.obj
 0001:0008d390       _aligned_free_dbg          000000018008e390 f   libucrtd:debug_heap.obj
 0001:0008d480       _aligned_malloc_dbg        000000018008e480 f   libucrtd:debug_heap.obj
 0001:0008d4c0       _aligned_msize_dbg         000000018008e4c0 f   libucrtd:debug_heap.obj
 0001:0008d690       _aligned_offset_malloc_dbg 000000018008e690 f   libucrtd:debug_heap.obj
 0001:0008d980       _aligned_offset_realloc_dbg 000000018008e980 f   libucrtd:debug_heap.obj
 0001:0008de30       _aligned_offset_recalloc_dbg 000000018008ee30 f   libucrtd:debug_heap.obj
 0001:0008df50       _aligned_realloc_dbg       000000018008ef50 f   libucrtd:debug_heap.obj
 0001:0008dfa0       _aligned_recalloc_dbg      000000018008efa0 f   libucrtd:debug_heap.obj
 0001:0008e000       _calloc_dbg                000000018008f000 f   libucrtd:debug_heap.obj
 0001:0008e0a0       _expand_dbg                000000018008f0a0 f   libucrtd:debug_heap.obj
 0001:0008e1d0       _free_dbg                  000000018008f1d0 f   libucrtd:debug_heap.obj
 0001:0008e240       _malloc_dbg                000000018008f240 f   libucrtd:debug_heap.obj
 0001:0008e280       _msize_dbg                 000000018008f280 f   libucrtd:debug_heap.obj
 0001:0008e420       _realloc_dbg               000000018008f420 f   libucrtd:debug_heap.obj
 0001:0008e490       _recalloc_dbg              000000018008f490 f   libucrtd:debug_heap.obj
 0001:0008e590       _initterm                  000000018008f590 f   libucrtd:initterm.obj
 0001:0008e5f0       _initterm_e                000000018008f5f0 f   libucrtd:initterm.obj
 0001:0008eb40       strcpy_s                   000000018008fb40 f   libucrtd:strcpy_s.obj
 0001:0008f1e0       strcat_s                   00000001800901e0 f   libucrtd:strcat_s.obj
 0001:0008f210       ??$?B$$A6AH_K@Z@__crt_fast_encoded_nullptr_t@@QEBAP6AH_K@ZXZ 0000000180090210 f i libucrtd:new_handler.obj
 0001:0008f230       ??$__crt_fast_decode_pointer@P6AH_K@Z@@YAP6AH_K@ZQ6AH0@Z@Z 0000000180090230 f i libucrtd:new_handler.obj
 0001:0008f270       ??$__crt_fast_encode_pointer@P6AH_K@Z@@YAP6AH_K@ZQ6AH0@Z@Z 0000000180090270 f i libucrtd:new_handler.obj
 0001:0008f2b0       ?_set_new_handler@@YAP6AH_K@ZH@Z 00000001800902b0 f   libucrtd:new_handler.obj
 0001:0008f320       ?initialize@?$dual_state_global@P6AH_K@Z@__crt_state_management@@QEAAXQ6AH_K@Z@Z 0000000180090320 f i libucrtd:new_handler.obj
 0001:0008f370       ?value@?$dual_state_global@P6AH_K@Z@__crt_state_management@@QEAAAEAP6AH_K@ZXZ 0000000180090370 f i libucrtd:new_handler.obj
 0001:0008f390       __acrt_initialize_new_handler 0000000180090390 f   libucrtd:new_handler.obj
 0001:0008f3b0       _callnewh                  00000001800903b0 f   libucrtd:new_handler.obj
 0001:0008f400       _query_new_handler         0000000180090400 f   libucrtd:new_handler.obj
 0001:0008f440       _set_new_handler           0000000180090440 f   libucrtd:new_handler.obj
 0001:0008f4f0       _get_terminate             00000001800904f0 f   libucrtd:terminate.obj
 0001:0008f510       set_terminate              0000000180090510 f   libucrtd:terminate.obj
 0001:0008f550       terminate                  0000000180090550 f   libucrtd:terminate.obj
 0001:00090350       _makepath                  0000000180091350 f   libucrtd:makepath.obj
 0001:000903a0       _makepath_s                00000001800913a0 f   libucrtd:makepath.obj
 0001:000903f0       _wmakepath                 00000001800913f0 f   libucrtd:makepath.obj
 0001:00090440       _wmakepath_s               0000000180091440 f   libucrtd:makepath.obj
 0001:00092a70       ??$tcsncpy_s@AEAPEAD_KAEAPEBDAEB_K@?$__crt_char_traits@D@@SAHAEAPEAD$$QEA_KAEAPEBDAEB_K@Z 0000000180093a70 f i libucrtd:splitpath.obj
 0001:00092ac0       ??$tcsncpy_s@AEAPEAD_KAEAPEBDH@?$__crt_char_traits@D@@SAHAEAPEAD$$QEA_KAEAPEBD$$QEAH@Z 0000000180093ac0 f i libucrtd:splitpath.obj
 0001:00092b10       ??$tcsncpy_s@AEAPEA_W_KAEAPEB_WAEB_K@?$__crt_char_traits@_W@@SAHAEAPEA_W$$QEA_KAEAPEB_WAEB_K@Z 0000000180093b10 f i libucrtd:splitpath.obj
 0001:00092b60       ??$tcsncpy_s@AEAPEA_W_KAEAPEB_WH@?$__crt_char_traits@_W@@SAHAEAPEA_W$$QEA_KAEAPEB_W$$QEAH@Z 0000000180093b60 f i libucrtd:splitpath.obj
 0001:00092e10       _splitpath                 0000000180093e10 f   libucrtd:splitpath.obj
 0001:00092e50       _splitpath_s               0000000180093e50 f   libucrtd:splitpath.obj
 0001:00092ef0       _wsplitpath                0000000180093ef0 f   libucrtd:splitpath.obj
 0001:00092f30       _wsplitpath_s              0000000180093f30 f   libucrtd:splitpath.obj
 0001:00092fd0       _set_abort_behavior        0000000180093fd0 f   libucrtd:abort.obj
 0001:00093010       abort                      0000000180094010 f   libucrtd:abort.obj
 0001:000930a0       strcmp                     00000001800940a0 f   libucrtd:strcmp.obj
 0001:00093120       strlen                     0000000180094120 f   libucrtd:strlen.obj
 0001:000931d0       ??$is_overflow_condition@K@__crt_strtox@@YA_NIK@Z 00000001800941d0 f i libucrtd:atox.obj
 0001:00093240       ??$is_overflow_condition@_K@__crt_strtox@@YA_NI_K@Z 0000000180094240 f i libucrtd:atox.obj
 0001:000932b0       ??$make_c_string_character_source@D$$T@__crt_strtox@@YA?AV?$c_string_character_source@D@0@QEBD$$T@Z 00000001800942b0 f i libucrtd:atox.obj
 0001:000932f0       ??$make_c_string_character_source@_W$$T@__crt_strtox@@YA?AV?$c_string_character_source@_W@0@QEB_W$$T@Z 00000001800942f0 f i libucrtd:atox.obj
 0001:00093330       ??$parse_integer@KV?$c_string_character_source@D@__crt_strtox@@@__crt_strtox@@YAKQEAU__crt_locale_pointers@@V?$c_string_character_source@D@0@H_N@Z 0000000180094330 f i libucrtd:atox.obj
 0001:000937c0       ??$parse_integer@KV?$c_string_character_source@_W@__crt_strtox@@@__crt_strtox@@YAKQEAU__crt_locale_pointers@@V?$c_string_character_source@_W@0@H_N@Z 00000001800947c0 f i libucrtd:atox.obj
 0001:00093c70       ??$parse_integer@_KV?$c_string_character_source@D@__crt_strtox@@@__crt_strtox@@YA_KQEAU__crt_locale_pointers@@V?$c_string_character_source@D@0@H_N@Z 0000000180094c70 f i libucrtd:atox.obj
 0001:00094190       ??$parse_integer@_KV?$c_string_character_source@_W@__crt_strtox@@@__crt_strtox@@YA_KQEAU__crt_locale_pointers@@V?$c_string_character_source@_W@0@H_N@Z 0000000180095190 f i libucrtd:atox.obj
 0001:000946b0       ??$parse_integer_from_string@JD$$T@__crt_strtox@@YAJQEBD$$THQEAU__crt_locale_pointers@@@Z 00000001800956b0 f i libucrtd:atox.obj
 0001:00094700       ??$parse_integer_from_string@J_W$$T@__crt_strtox@@YAJQEB_W$$THQEAU__crt_locale_pointers@@@Z 0000000180095700 f i libucrtd:atox.obj
 0001:00094750       ??$parse_integer_from_string@_JD$$T@__crt_strtox@@YA_JQEBD$$THQEAU__crt_locale_pointers@@@Z 0000000180095750 f i libucrtd:atox.obj
 0001:000947a0       ??$parse_integer_from_string@_J_W$$T@__crt_strtox@@YA_JQEB_W$$THQEAU__crt_locale_pointers@@@Z 00000001800957a0 f i libucrtd:atox.obj
 0001:000947f0       ??0?$c_string_character_source@D@__crt_strtox@@QEAA@QEBDQEAPEBD@Z 00000001800957f0 f i libucrtd:atox.obj
 0001:00094840       ??0?$c_string_character_source@_W@__crt_strtox@@QEAA@QEB_WQEAPEB_W@Z 0000000180095840 f i libucrtd:atox.obj
 0001:00094890       ??1?$c_string_character_source@D@__crt_strtox@@QEAA@XZ 0000000180095890 f i libucrtd:atox.obj
 0001:000948c0       ??1?$c_string_character_source@_W@__crt_strtox@@QEAA@XZ 00000001800958c0 f i libucrtd:atox.obj
 0001:000948f0       ?get@?$c_string_character_source@D@__crt_strtox@@QEAADXZ 00000001800958f0 f i libucrtd:atox.obj
 0001:00094930       ?get@?$c_string_character_source@_W@__crt_strtox@@QEAA_WXZ 0000000180095930 f i libucrtd:atox.obj
 0001:00094970       ?is_space@__crt_strtox@@YA_NDQEAU__crt_locale_pointers@@@Z 0000000180095970 f i libucrtd:atox.obj
 0001:000949c0       ?is_space@__crt_strtox@@YA_N_WPEAU__crt_locale_pointers@@@Z 00000001800959c0 f i libucrtd:atox.obj
 0001:00094a00       ?maximum_signed_value@__crt_strtox@@YAJK@Z 0000000180095a00 f i libucrtd:atox.obj
 0001:00094a10       ?maximum_signed_value@__crt_strtox@@YA_J_K@Z 0000000180095a10 f i libucrtd:atox.obj
 0001:00094a20       ?minimum_signed_value@__crt_strtox@@YAJK@Z 0000000180095a20 f i libucrtd:atox.obj
 0001:00094a30       ?minimum_signed_value@__crt_strtox@@YA_J_K@Z 0000000180095a30 f i libucrtd:atox.obj
 0001:00094a40       ?parse_digit@__crt_strtox@@YAID@Z 0000000180095a40 f i libucrtd:atox.obj
 0001:00094ab0       ?parse_digit@__crt_strtox@@YAI_W@Z 0000000180095ab0 f i libucrtd:atox.obj
 0001:00094b00       ?restore_state@?$c_string_character_source@D@__crt_strtox@@QEAA_NQEBD@Z 0000000180095b00 f i libucrtd:atox.obj
 0001:00094b20       ?restore_state@?$c_string_character_source@_W@__crt_strtox@@QEAA_NQEB_W@Z 0000000180095b20 f i libucrtd:atox.obj
 0001:00094b40       ?save_state@?$c_string_character_source@D@__crt_strtox@@QEBAPEBDXZ 0000000180095b40 f i libucrtd:atox.obj
 0001:00094b50       ?save_state@?$c_string_character_source@_W@__crt_strtox@@QEBAPEB_WXZ 0000000180095b50 f i libucrtd:atox.obj
 0001:00094b60       ?unget@?$c_string_character_source@D@__crt_strtox@@QEAAXD@Z 0000000180095b60 f i libucrtd:atox.obj
 0001:00094c40       ?unget@?$c_string_character_source@_W@__crt_strtox@@QEAAX_W@Z 0000000180095c40 f i libucrtd:atox.obj
 0001:00094d20       ?validate@?$c_string_character_source@D@__crt_strtox@@QEBA_NXZ 0000000180095d20 f i libucrtd:atox.obj
 0001:00094de0       ?validate@?$c_string_character_source@_W@__crt_strtox@@QEBA_NXZ 0000000180095de0 f i libucrtd:atox.obj
 0001:00094ea0       ?wide_character_to_digit@__crt_strtox@@YAH_W@Z 0000000180095ea0 f i libucrtd:atox.obj
 0001:00095210       __ascii_iswalpha           0000000180096210 f i libucrtd:atox.obj
 0001:00095250       __ascii_toupper            0000000180096250 f i libucrtd:atox.obj
 0001:00095270       __ascii_towupper           0000000180096270 f i libucrtd:atox.obj
 0001:00095290       _atoi64                    0000000180096290 f   libucrtd:atox.obj
 0001:000952c0       _atoi64_l                  00000001800962c0 f   libucrtd:atox.obj
 0001:000952f0       _atoi_l                    00000001800962f0 f   libucrtd:atox.obj
 0001:00095320       _atol_l                    0000000180096320 f   libucrtd:atox.obj
 0001:00095350       _atoll_l                   0000000180096350 f   libucrtd:atox.obj
 0001:00095380       _wtoi                      0000000180096380 f   libucrtd:atox.obj
 0001:000953b0       _wtoi64                    00000001800963b0 f   libucrtd:atox.obj
 0001:000953e0       _wtoi64_l                  00000001800963e0 f   libucrtd:atox.obj
 0001:00095410       _wtoi_l                    0000000180096410 f   libucrtd:atox.obj
 0001:00095440       _wtol                      0000000180096440 f   libucrtd:atox.obj
 0001:00095470       _wtol_l                    0000000180096470 f   libucrtd:atox.obj
 0001:000954a0       _wtoll                     00000001800964a0 f   libucrtd:atox.obj
 0001:000954d0       _wtoll_l                   00000001800964d0 f   libucrtd:atox.obj
 0001:00095500       atoi                       0000000180096500 f   libucrtd:atox.obj
 0001:00095530       atol                       0000000180096530 f   libucrtd:atox.obj
 0001:00095560       atoll                      0000000180096560 f   libucrtd:atox.obj
 0001:000955a0       strncmp                    00000001800965a0 f   libucrtd:strncmp.obj
 0001:00095620       wcsncmp                    0000000180096620 f   libucrtd:wcsncmp.obj
 0001:000956b0       _CrtGetDebugFillThreshold  00000001800966b0 f   libucrtd:debug_fill_threshold.obj
 0001:000956c0       _CrtSetDebugFillThreshold  00000001800966c0 f   libucrtd:debug_fill_threshold.obj
 0001:000956f0       ??$make_c_string_character_source@DPEAPEAD@__crt_strtox@@YA?AV?$c_string_character_source@D@0@QEBDQEAPEAD@Z 00000001800966f0 f i libucrtd:strtox.obj
 0001:00095730       ??$make_c_string_character_source@_WPEAPEA_W@__crt_strtox@@YA?AV?$c_string_character_source@_W@0@QEB_WQEAPEA_W@Z 0000000180096730 f i libucrtd:strtox.obj
 0001:00095770       ??$parse_integer_from_string@JDPEAPEAD@__crt_strtox@@YAJQEBDQEAPEADHQEAU__crt_locale_pointers@@@Z 0000000180096770 f i libucrtd:strtox.obj
 0001:000957c0       ??$parse_integer_from_string@J_WPEAPEA_W@__crt_strtox@@YAJQEB_WQEAPEA_WHQEAU__crt_locale_pointers@@@Z 00000001800967c0 f i libucrtd:strtox.obj
 0001:00095810       ??$parse_integer_from_string@KDPEAPEAD@__crt_strtox@@YAKQEBDQEAPEADHQEAU__crt_locale_pointers@@@Z 0000000180096810 f i libucrtd:strtox.obj
 0001:00095860       ??$parse_integer_from_string@K_WPEAPEA_W@__crt_strtox@@YAKQEB_WQEAPEA_WHQEAU__crt_locale_pointers@@@Z 0000000180096860 f i libucrtd:strtox.obj
 0001:000958b0       ??$parse_integer_from_string@_JDPEAPEAD@__crt_strtox@@YA_JQEBDQEAPEADHQEAU__crt_locale_pointers@@@Z 00000001800968b0 f i libucrtd:strtox.obj
 0001:00095900       ??$parse_integer_from_string@_J_WPEAPEA_W@__crt_strtox@@YA_JQEB_WQEAPEA_WHQEAU__crt_locale_pointers@@@Z 0000000180096900 f i libucrtd:strtox.obj
 0001:00095950       ??$parse_integer_from_string@_KDPEAPEAD@__crt_strtox@@YA_KQEBDQEAPEADHQEAU__crt_locale_pointers@@@Z 0000000180096950 f i libucrtd:strtox.obj
 0001:000959a0       ??$parse_integer_from_string@_K_WPEAPEA_W@__crt_strtox@@YA_KQEB_WQEAPEA_WHQEAU__crt_locale_pointers@@@Z 00000001800969a0 f i libucrtd:strtox.obj
 0001:000959f0       _strtoi64                  00000001800969f0 f   libucrtd:strtox.obj
 0001:00095a20       _strtoi64_l                0000000180096a20 f   libucrtd:strtox.obj
 0001:00095a60       _strtoimax_l               0000000180096a60 f   libucrtd:strtox.obj
 0001:00095aa0       _strtol_l                  0000000180096aa0 f   libucrtd:strtox.obj
 0001:00095ae0       _strtoll_l                 0000000180096ae0 f   libucrtd:strtox.obj
 0001:00095b20       _strtoui64                 0000000180096b20 f   libucrtd:strtox.obj
 0001:00095b50       _strtoui64_l               0000000180096b50 f   libucrtd:strtox.obj
 0001:00095b90       _strtoul_l                 0000000180096b90 f   libucrtd:strtox.obj
 0001:00095bd0       _strtoull_l                0000000180096bd0 f   libucrtd:strtox.obj
 0001:00095c10       _strtoumax_l               0000000180096c10 f   libucrtd:strtox.obj
 0001:00095c50       _wcstoi64                  0000000180096c50 f   libucrtd:strtox.obj
 0001:00095c80       _wcstoi64_l                0000000180096c80 f   libucrtd:strtox.obj
 0001:00095cc0       _wcstoimax_l               0000000180096cc0 f   libucrtd:strtox.obj
 0001:00095d00       _wcstol_l                  0000000180096d00 f   libucrtd:strtox.obj
 0001:00095d40       _wcstoll_l                 0000000180096d40 f   libucrtd:strtox.obj
 0001:00095d80       _wcstoui64                 0000000180096d80 f   libucrtd:strtox.obj
 0001:00095db0       _wcstoui64_l               0000000180096db0 f   libucrtd:strtox.obj
 0001:00095df0       _wcstoul_l                 0000000180096df0 f   libucrtd:strtox.obj
 0001:00095e30       _wcstoull_l                0000000180096e30 f   libucrtd:strtox.obj
 0001:00095e70       _wcstoumax_l               0000000180096e70 f   libucrtd:strtox.obj
 0001:00095eb0       strtoimax                  0000000180096eb0 f   libucrtd:strtox.obj
 0001:00095ee0       strtol                     0000000180096ee0 f   libucrtd:strtox.obj
 0001:00095f10       strtoll                    0000000180096f10 f   libucrtd:strtox.obj
 0001:00095f40       strtoul                    0000000180096f40 f   libucrtd:strtox.obj
 0001:00095f70       strtoull                   0000000180096f70 f   libucrtd:strtox.obj
 0001:00095fa0       strtoumax                  0000000180096fa0 f   libucrtd:strtox.obj
 0001:00095fd0       wcstoimax                  0000000180096fd0 f   libucrtd:strtox.obj
 0001:00096000       wcstol                     0000000180097000 f   libucrtd:strtox.obj
 0001:00096030       wcstoll                    0000000180097030 f   libucrtd:strtox.obj
 0001:00096060       wcstoul                    0000000180097060 f   libucrtd:strtox.obj
 0001:00096090       wcstoull                   0000000180097090 f   libucrtd:strtox.obj
 0001:000960c0       wcstoumax                  00000001800970c0 f   libucrtd:strtox.obj
 0001:000960f0       _mbtowc_l                  00000001800970f0 f   libucrtd:mbtowc.obj
 0001:00096550       mbtowc                     0000000180097550 f   libucrtd:mbtowc.obj
 0001:00096580       _wctomb_l                  0000000180097580 f   libucrtd:wctomb.obj
 0001:00096640       _wctomb_s_l                0000000180097640 f   libucrtd:wctomb.obj
 0001:00096bc0       wctomb                     0000000180097bc0 f   libucrtd:wctomb.obj
 0001:00096c20       wctomb_s                   0000000180097c20 f   libucrtd:wctomb.obj
 0001:00096c70       ??$?RU__acrt_ptd@@@__crt_internal_free_policy@@QEBAXQEBU__acrt_ptd@@@Z 0000000180097c70 f i libucrtd:per_thread_data.obj
 0001:00097070       ??0?$__crt_unique_heap_ptr@U__acrt_ptd@@U__crt_internal_free_policy@@@@QEAA@QEAU__acrt_ptd@@@Z 0000000180098070 f i libucrtd:per_thread_data.obj
 0001:00097090       ??0__crt_scoped_get_last_error_reset@@QEAA@XZ 0000000180098090 f i libucrtd:per_thread_data.obj
 0001:000970b0       ??1?$__crt_unique_heap_ptr@U__acrt_ptd@@U__crt_internal_free_policy@@@@QEAA@XZ 00000001800980b0 f i libucrtd:per_thread_data.obj
 0001:000970d0       ??1__crt_scoped_get_last_error_reset@@QEAA@XZ 00000001800980d0 f i libucrtd:per_thread_data.obj
 0001:000970f0       ??B?$__crt_unique_heap_ptr@U__acrt_ptd@@U__crt_internal_free_policy@@@@QEBA_NXZ 00000001800980f0 f i libucrtd:per_thread_data.obj
 0001:00097440       ?dangerous_get_state_array@?$dual_state_global@PEAU__crt_locale_data@@@__crt_state_management@@QEAAPEAPEAU__crt_locale_data@@XZ 0000000180098440 f i libucrtd:per_thread_data.obj
 0001:00097600       ?detach@?$__crt_unique_heap_ptr@U__acrt_ptd@@U__crt_internal_free_policy@@@@QEAAPEAU__acrt_ptd@@XZ 0000000180098600 f i libucrtd:per_thread_data.obj
 0001:00097630       ?get@?$__crt_unique_heap_ptr@U__acrt_ptd@@U__crt_internal_free_policy@@@@QEBAPEAU__acrt_ptd@@XZ 0000000180098630 f i libucrtd:per_thread_data.obj
 0001:00097640       ?get_current_state_index@__crt_state_management@@YA_KAEBV__crt_scoped_get_last_error_reset@@@Z 0000000180098640 f i libucrtd:per_thread_data.obj
 0001:000977f0       ?is_valid@?$__crt_unique_heap_ptr@U__acrt_ptd@@U__crt_internal_free_policy@@@@QEBA_NXZ 00000001800987f0 f i libucrtd:per_thread_data.obj
 0001:00097820       ?release@?$__crt_unique_heap_ptr@U__acrt_ptd@@U__crt_internal_free_policy@@@@QEAAXXZ 0000000180098820 f i libucrtd:per_thread_data.obj
 0001:00097950       ?value@?$dual_state_global@PEAU__crt_locale_data@@@__crt_state_management@@QEAAAEAPEAU__crt_locale_data@@XZ 0000000180098950 f i libucrtd:per_thread_data.obj
 0001:00097970       __acrt_freeptd             0000000180098970 f   libucrtd:per_thread_data.obj
 0001:000979b0       __acrt_getptd              00000001800989b0 f   libucrtd:per_thread_data.obj
 0001:000979e0       __acrt_getptd_head         00000001800989e0 f   libucrtd:per_thread_data.obj
 0001:00097a10       __acrt_getptd_noexit       0000000180098a10 f   libucrtd:per_thread_data.obj
 0001:00097a20       __acrt_initialize_ptd      0000000180098a20 f   libucrtd:per_thread_data.obj
 0001:00097a60       __acrt_uninitialize_ptd    0000000180098a60 f   libucrtd:per_thread_data.obj
 0001:00097a90       __threadhandle             0000000180098a90 f   libucrtd:per_thread_data.obj
 0001:00097aa0       __threadid                 0000000180098aa0 f   libucrtd:per_thread_data.obj
 0001:00097ab0       ?value@?$dual_state_global@PEAU__crt_multibyte_data@@@__crt_state_management@@QEAAAEAPEAU__crt_multibyte_data@@XZ 0000000180098ab0 f i libucrtd:locale_update.obj
 0001:00097ad0       __acrt_update_locale_info  0000000180098ad0 f   libucrtd:locale_update.obj
 0001:00097b20       __acrt_update_multibyte_info 0000000180098b20 f   libucrtd:locale_update.obj
 0001:00097b70       ?__acrt_fp_classify@@YA?AW4__acrt_fp_class@@AEBN@Z 0000000180098b70 f i libucrtd:cvt.obj
 0001:00097c70       ?__acrt_fp_is_negative@@YA_NAEBN@Z 0000000180098c70 f i libucrtd:cvt.obj
 0001:00099320       ?strrchr@@YAPEADQEADH@Z    000000018009a320 f i libucrtd:cvt.obj
 0001:00099340       __acrt_fp_format           000000018009a340 f   libucrtd:cvt.obj
 0001:000999b0       _fputwc_nolock             000000018009a9b0 f   libucrtd:fputwc.obj
 0001:00099c20       _fputwchar                 000000018009ac20 f   libucrtd:fputwc.obj
 0001:00099c50       _putwc_nolock              000000018009ac50 f   libucrtd:fputwc.obj
 0001:00099c80       fputwc                     000000018009ac80 f   libucrtd:fputwc.obj
 0001:00099d70       putwc                      000000018009ad70 f   libucrtd:fputwc.obj
 0001:00099da0       putwchar                   000000018009ada0 f   libucrtd:fputwc.obj
 0001:00099dc0       ?lowio_handle@__crt_stdio_stream@@QEBAHXZ 000000018009adc0 f i libucrtd:fileno.obj
 0001:00099df0       _fileno                    000000018009adf0 f   libucrtd:fileno.obj
 0001:00099ed0       ??$?RPEAU__crt_stdio_stream_data@@@__crt_internal_free_policy@@QEBAXQEBQEAU__crt_stdio_stream_data@@@Z 000000018009aed0 f i libucrtd:_file.obj
 0001:00099f00       ??0?$__crt_unique_heap_ptr@PEAU__crt_stdio_stream_data@@U__crt_internal_free_policy@@@@QEAA@QEAPEAU__crt_stdio_stream_data@@@Z 000000018009af00 f i libucrtd:_file.obj
 0001:00099f20       ??1?$__crt_unique_heap_ptr@PEAU__crt_stdio_stream_data@@U__crt_internal_free_policy@@@@QEAA@XZ 000000018009af20 f i libucrtd:_file.obj
 0001:00099f40       ?detach@?$__crt_unique_heap_ptr@PEAU__crt_stdio_stream_data@@U__crt_internal_free_policy@@@@QEAAPEAPEAU__crt_stdio_stream_data@@XZ 000000018009af40 f i libucrtd:_file.obj
 0001:00099f70       ?release@?$__crt_unique_heap_ptr@PEAU__crt_stdio_stream_data@@U__crt_internal_free_policy@@@@QEAAXXZ 000000018009af70 f i libucrtd:_file.obj
 0001:00099fa0       __acrt_initialize_stdio    000000018009afa0 f   libucrtd:_file.obj
 0001:0009a190       __acrt_iob_func            000000018009b190 f   libucrtd:_file.obj
 0001:0009a1b0       __acrt_uninitialize_stdio  000000018009b1b0 f   libucrtd:_file.obj
 0001:0009a240       _get_stream_buffer_pointers 000000018009b240 f   libucrtd:_file.obj
 0001:0009a370       _lock_file                 000000018009b370 f   libucrtd:_file.obj
 0001:0009a3b0       _unlock_file               000000018009b3b0 f   libucrtd:_file.obj
 0001:0009a3f0       _get_printf_count_output   000000018009b3f0 f   libucrtd:printf_count_output.obj
 0001:0009a420       _set_printf_count_output   000000018009b420 f   libucrtd:printf_count_output.obj
 0001:0009a490       ?has_any_buffer@__crt_stdio_stream@@QEBA_NXZ 000000018009b490 f i libucrtd:_sftbuf.obj
 0001:0009a4b0       ?has_any_of@__crt_stdio_stream@@QEBA_NJ@Z 000000018009b4b0 f i libucrtd:_sftbuf.obj
 0001:0009a4f0       ?has_temporary_buffer@__crt_stdio_stream@@QEBA_NXZ 000000018009b4f0 f i libucrtd:_sftbuf.obj
 0001:0009a510       ?set_flags@__crt_stdio_stream@@QEBA_NJ@Z 000000018009b510 f i libucrtd:_sftbuf.obj
 0001:0009a580       ?unset_flags@__crt_stdio_stream@@QEBA_NJ@Z 000000018009b580 f i libucrtd:_sftbuf.obj
 0001:0009a5e0       __acrt_stdio_begin_temporary_buffering_nolock 000000018009b5e0 f   libucrtd:_sftbuf.obj
 0001:0009a820       __acrt_stdio_end_temporary_buffering_nolock 000000018009b820 f   libucrtd:_sftbuf.obj
 0001:0009a8d0       ??$?RU__crt_locale_data@@@__crt_internal_free_policy@@QEBAXQEBU__crt_locale_data@@@Z 000000018009b8d0 f i libucrtd:wsetlocale.obj
 0001:0009a900       ??$?RU__crt_locale_pointers@@@__crt_internal_free_policy@@QEBAXQEBU__crt_locale_pointers@@@Z 000000018009b900 f i libucrtd:wsetlocale.obj
 0001:0009a930       ??$?RU__crt_multibyte_data@@@__crt_internal_free_policy@@QEBAXQEBU__crt_multibyte_data@@@Z 000000018009b930 f i libucrtd:wsetlocale.obj
 0001:0009ae90       ??0?$__crt_unique_heap_ptr@U__crt_locale_data@@U__crt_internal_free_policy@@@@QEAA@QEAU__crt_locale_data@@@Z 000000018009be90 f i libucrtd:wsetlocale.obj
 0001:0009aeb0       ??0?$__crt_unique_heap_ptr@U__crt_locale_pointers@@U__crt_internal_free_policy@@@@QEAA@QEAU__crt_locale_pointers@@@Z 000000018009beb0 f i libucrtd:wsetlocale.obj
 0001:0009aed0       ??0?$__crt_unique_heap_ptr@U__crt_multibyte_data@@U__crt_internal_free_policy@@@@QEAA@QEAU__crt_multibyte_data@@@Z 000000018009bed0 f i libucrtd:wsetlocale.obj
 0001:0009aef0       ??0_expandlocale_locale_name_cache@@QEAA@QEA_W_KQEAU__crt_qualified_locale_data@@@Z 000000018009bef0 f i libucrtd:wsetlocale.obj
 0001:0009afa0       ??1?$__crt_unique_heap_ptr@U__crt_locale_data@@U__crt_internal_free_policy@@@@QEAA@XZ 000000018009bfa0 f i libucrtd:wsetlocale.obj
 0001:0009afc0       ??1?$__crt_unique_heap_ptr@U__crt_locale_pointers@@U__crt_internal_free_policy@@@@QEAA@XZ 000000018009bfc0 f i libucrtd:wsetlocale.obj
 0001:0009afe0       ??1?$__crt_unique_heap_ptr@U__crt_multibyte_data@@U__crt_internal_free_policy@@@@QEAA@XZ 000000018009bfe0 f i libucrtd:wsetlocale.obj
 0001:0009b000       ??1_expandlocale_locale_name_cache@@QEAA@XZ 000000018009c000 f i libucrtd:wsetlocale.obj
 0001:0009b080       ??B?$__crt_unique_heap_ptr@U__crt_locale_data@@U__crt_internal_free_policy@@@@QEBA_NXZ 000000018009c080 f i libucrtd:wsetlocale.obj
 0001:0009b0a0       ??B?$__crt_unique_heap_ptr@U__crt_locale_pointers@@U__crt_internal_free_policy@@@@QEBA_NXZ 000000018009c0a0 f i libucrtd:wsetlocale.obj
 0001:0009b0c0       ??B?$__crt_unique_heap_ptr@U__crt_multibyte_data@@U__crt_internal_free_policy@@@@QEBA_NXZ 000000018009c0c0 f i libucrtd:wsetlocale.obj
 0001:0009b570       ?commit_locale_name@_expandlocale_locale_name_cache@@QEAAXQEB_W_K@Z 000000018009c570 f i libucrtd:wsetlocale.obj
 0001:0009b5f0       ?commit_locale_name_cache_already_updated@_expandlocale_locale_name_cache@@QEAAXQEB_W_K@Z 000000018009c5f0 f i libucrtd:wsetlocale.obj
 0001:0009b660       ?detach@?$__crt_unique_heap_ptr@U__crt_locale_data@@U__crt_internal_free_policy@@@@QEAAPEAU__crt_locale_data@@XZ 000000018009c660 f i libucrtd:wsetlocale.obj
 0001:0009b690       ?detach@?$__crt_unique_heap_ptr@U__crt_locale_pointers@@U__crt_internal_free_policy@@@@QEAAPEAU__crt_locale_pointers@@XZ 000000018009c690 f i libucrtd:wsetlocale.obj
 0001:0009b6c0       ?detach@?$__crt_unique_heap_ptr@U__crt_multibyte_data@@U__crt_internal_free_policy@@@@QEAAPEAU__crt_multibyte_data@@XZ 000000018009c6c0 f i libucrtd:wsetlocale.obj
 0001:0009b6f0       ?get@?$__crt_unique_heap_ptr@U__crt_locale_data@@U__crt_internal_free_policy@@@@QEBAPEAU__crt_locale_data@@XZ 000000018009c6f0 f i libucrtd:wsetlocale.obj
 0001:0009b700       ?get@?$__crt_unique_heap_ptr@U__crt_locale_pointers@@U__crt_internal_free_policy@@@@QEBAPEAU__crt_locale_pointers@@XZ 000000018009c700 f i libucrtd:wsetlocale.obj
 0001:0009b710       ?get@?$__crt_unique_heap_ptr@U__crt_multibyte_data@@U__crt_internal_free_policy@@@@QEBAPEAU__crt_multibyte_data@@XZ 000000018009c710 f i libucrtd:wsetlocale.obj
 0001:0009b720       ?is_valid@?$__crt_unique_heap_ptr@U__crt_locale_data@@U__crt_internal_free_policy@@@@QEBA_NXZ 000000018009c720 f i libucrtd:wsetlocale.obj
 0001:0009b750       ?is_valid@?$__crt_unique_heap_ptr@U__crt_locale_pointers@@U__crt_internal_free_policy@@@@QEBA_NXZ 000000018009c750 f i libucrtd:wsetlocale.obj
 0001:0009b780       ?is_valid@?$__crt_unique_heap_ptr@U__crt_multibyte_data@@U__crt_internal_free_policy@@@@QEBA_NXZ 000000018009c780 f i libucrtd:wsetlocale.obj
 0001:0009b7b0       ?release@?$__crt_unique_heap_ptr@U__crt_locale_data@@U__crt_internal_free_policy@@@@QEAAXXZ 000000018009c7b0 f i libucrtd:wsetlocale.obj
 0001:0009b7e0       ?release@?$__crt_unique_heap_ptr@U__crt_locale_pointers@@U__crt_internal_free_policy@@@@QEAAXXZ 000000018009c7e0 f i libucrtd:wsetlocale.obj
 0001:0009b810       ?release@?$__crt_unique_heap_ptr@U__crt_multibyte_data@@U__crt_internal_free_policy@@@@QEAAXXZ 000000018009c810 f i libucrtd:wsetlocale.obj
 0001:0009b840       __acrt_copy_locale_name    000000018009c840 f   libucrtd:wsetlocale.obj
 0001:0009b910       __acrt_set_locale_changed  000000018009c910 f   libucrtd:wsetlocale.obj
 0001:0009b920       __acrt_uninitialize_locale 000000018009c920 f   libucrtd:wsetlocale.obj
 0001:0009b950       __ascii_tolower            000000018009c950 f i libucrtd:wsetlocale.obj
 0001:0009b970       __ascii_towlower           000000018009c970 f i libucrtd:wsetlocale.obj
 0001:0009b990       __lc_lctowcs               000000018009c990 f   libucrtd:wsetlocale.obj
 0001:0009ba80       __lc_wcstolc               000000018009ca80 f   libucrtd:wsetlocale.obj
 0001:0009bd40       _configthreadlocale        000000018009cd40 f   libucrtd:wsetlocale.obj
 0001:0009bf00       _create_locale             000000018009cf00 f   libucrtd:wsetlocale.obj
 0001:0009c600       _free_locale               000000018009d600 f   libucrtd:wsetlocale.obj
 0001:0009c6f0       _get_current_locale        000000018009d6f0 f   libucrtd:wsetlocale.obj
 0001:0009c800       _wcreate_locale            000000018009d800 f   libucrtd:wsetlocale.obj
 0001:0009caf0       _wcscats                   000000018009daf0 f   libucrtd:wsetlocale.obj
 0001:0009cbd0       _wsetlocale                000000018009dbd0 f   libucrtd:wsetlocale.obj
 0001:0009e7f0       __p___mb_cur_max           000000018009f7f0 f   libucrtd:nlsdata.obj
 0001:0009ebd0       __acrt_initialize_lowio    000000018009fbd0 f   libucrtd:ioinit.obj
 0001:0009ec20       __acrt_uninitialize_lowio  000000018009fc20 f   libucrtd:ioinit.obj
 0001:0009eca0       _CrtGetReportHook          000000018009fca0 f   libucrtd:dbgrptt.obj
 0001:0009ecb0       _CrtSetReportFile          000000018009fcb0 f   libucrtd:dbgrptt.obj
 0001:0009ee10       _CrtSetReportHook          000000018009fe10 f   libucrtd:dbgrptt.obj
 0001:0009ee40       _CrtSetReportMode          000000018009fe40 f   libucrtd:dbgrptt.obj
 0001:0009eff0       _VCrtDbgReportA            000000018009fff0 f   libucrtd:dbgrptt.obj
 0001:0009f9d0       _VCrtDbgReportW            00000001800a09d0 f   libucrtd:dbgrptt.obj
 0001:000a0550       _snprintf_s                00000001800a1550 f i libucrtd:dbgrptt.obj
 0001:000a05c0       _vsnprintf_s               00000001800a15c0 f i libucrtd:dbgrptt.obj
 0001:000a0610       _vsnprintf_s_l             00000001800a1610 f i libucrtd:dbgrptt.obj
 0001:000a0830       ??$__acrt_wcs_to_mbs_cp@U__crt_win32_buffer_no_resizing@@@@YAHQEB_WAEAV?$__crt_win32_buffer@DU__crt_win32_buffer_no_resizing@@@@I@Z 00000001800a1830 f i libucrtd:getmodulefilenamea.obj
 0001:000a0880       ??0?$__crt_win32_buffer@DU__crt_win32_buffer_no_resizing@@@@QEAA@QEAD_K@Z 00000001800a1880 f i libucrtd:getmodulefilenamea.obj
 0001:000a08f0       ??1?$__crt_win32_buffer@DU__crt_win32_buffer_no_resizing@@@@QEAA@XZ 00000001800a18f0 f i libucrtd:getmodulefilenamea.obj
 0001:000a0980       ?__acrt_get_utf8_acp_compatibility_codepage@@YAIXZ 00000001800a1980 f i libucrtd:getmodulefilenamea.obj
 0001:000a0a20       ?_deallocate@?$__crt_win32_buffer@DU__crt_win32_buffer_no_resizing@@@@AEAAXXZ 00000001800a1a20 f i libucrtd:getmodulefilenamea.obj
 0001:000a0a60       ?allocate@?$__crt_win32_buffer@DU__crt_win32_buffer_no_resizing@@@@QEAAH_K@Z 00000001800a1a60 f i libucrtd:getmodulefilenamea.obj
 0001:000a0ae0       ?allocate@__crt_win32_buffer_no_resizing@@SAHQEAPEAX_KAEBV__crt_win32_buffer_empty_debug_info@@@Z 00000001800a1ae0 f i libucrtd:getmodulefilenamea.obj
 0001:000a0b10       ?capacity@?$__crt_win32_buffer@DU__crt_win32_buffer_no_resizing@@@@QEBA_KXZ 00000001800a1b10 f i libucrtd:getmodulefilenamea.obj
 0001:000a0b20       ?data@?$__crt_win32_buffer@DU__crt_win32_buffer_no_resizing@@@@QEAAPEADXZ 00000001800a1b20 f i libucrtd:getmodulefilenamea.obj
 0001:000a0b30       ?deallocate@__crt_win32_buffer_no_resizing@@SAXQEAXAEBV__crt_win32_buffer_empty_debug_info@@@Z 00000001800a1b30 f i libucrtd:getmodulefilenamea.obj
 0001:000a0b40       ?debug_info@?$__crt_win32_buffer@DU__crt_win32_buffer_no_resizing@@@@QEBAAEBV__crt_win32_buffer_empty_debug_info@@XZ 00000001800a1b40 f i libucrtd:getmodulefilenamea.obj
 0001:000a0b50       ?set_to_nullptr@?$__crt_win32_buffer@DU__crt_win32_buffer_no_resizing@@@@QEAAXXZ 00000001800a1b50 f i libucrtd:getmodulefilenamea.obj
 0001:000a0b90       ?size@?$__crt_win32_buffer@DU__crt_win32_buffer_no_resizing@@@@QEAAX_K@Z 00000001800a1b90 f i libucrtd:getmodulefilenamea.obj
 0001:000a0bb0       ?size@?$__crt_win32_buffer@DU__crt_win32_buffer_no_resizing@@@@QEBA_KXZ 00000001800a1bb0 f i libucrtd:getmodulefilenamea.obj
 0001:000a0bc0       __acrt_GetModuleFileNameA  00000001800a1bc0 f   libucrtd:getmodulefilenamea.obj
 0001:000a0f20       ??$message_box@$$TAEBQEBDAEBQEBDK@?$__crt_char_traits@D@@SAH$$QEA$$TAEBQEBD1$$QEAK@Z 00000001800a1f20 f i libucrtd:crtmbox.obj
 0001:000a0f70       ??$message_box@$$TAEBQEB_WAEBQEB_WK@?$__crt_char_traits@_W@@SAH$$QEA$$TAEBQEB_W1$$QEAK@Z 00000001800a1f70 f i libucrtd:crtmbox.obj
 0001:000a0fc0       ??$message_box@PEAUHWND__@@AEBQEBDAEBQEBDAEBI@?$__crt_char_traits@D@@SAH$$QEAPEAUHWND__@@AEBQEBD1AEBI@Z 00000001800a1fc0 f i libucrtd:crtmbox.obj
 0001:000a1010       ??$message_box@PEAUHWND__@@AEBQEB_WAEBQEB_WAEBI@?$__crt_char_traits@_W@@SAH$$QEAPEAUHWND__@@AEBQEB_W1AEBI@Z 00000001800a2010 f i libucrtd:crtmbox.obj
 0001:000a1060       ??$output_debug_string@AEBQEBD@?$__crt_char_traits@D@@SAXAEBQEBD@Z 00000001800a2060 f i libucrtd:crtmbox.obj
 0001:000a1080       ??$output_debug_string@AEBQEB_W@?$__crt_char_traits@_W@@SAXAEBQEB_W@Z 00000001800a2080 f i libucrtd:crtmbox.obj
 0001:000a10a0       __acrt_show_narrow_message_box 00000001800a20a0 f   libucrtd:crtmbox.obj
 0001:000a10d0       __acrt_show_wide_message_box 00000001800a20d0 f   libucrtd:crtmbox.obj
 0001:000a1100       __acrt_initialize_locks    00000001800a2100 f   libucrtd:locks.obj
 0001:000a1170       __acrt_lock                00000001800a2170 f   libucrtd:locks.obj
 0001:000a11a0       __acrt_uninitialize_locks  00000001800a21a0 f   libucrtd:locks.obj
 0001:000a1200       __acrt_unlock              00000001800a2200 f   libucrtd:locks.obj
 0001:000a1230       _lock_locales              00000001800a2230 f   libucrtd:locks.obj
 0001:000a1250       _unlock_locales            00000001800a2250 f   libucrtd:locks.obj
 0001:000a1270       ??$?B$$A6AXH@Z@__crt_fast_encoded_nullptr_t@@QEBAP6AXH@ZXZ 00000001800a2270 f i libucrtd:signal.obj
 0001:000a1330       ??$__crt_fast_decode_pointer@P6AXH@Z@@YAP6AXH@ZQ6AXH@Z@Z 00000001800a2330 f i libucrtd:signal.obj
 0001:000a1370       ??$__crt_fast_encode_pointer@P6AXH@Z@@YAP6AXH@ZQ6AXH@Z@Z 00000001800a2370 f i libucrtd:signal.obj
 0001:000a15f0       ?initialize@?$dual_state_global@P6AXH@Z@__crt_state_management@@QEAAXQ6AXH@Z@Z 00000001800a25f0 f i libucrtd:signal.obj
 0001:000a1770       ?value@?$dual_state_global@P6AXH@Z@__crt_state_management@@QEAAAEAP6AXH@ZXZ 00000001800a2770 f i libucrtd:signal.obj
 0001:000a1790       __acrt_get_sigabrt_handler 00000001800a2790 f   libucrtd:signal.obj
 0001:000a17c0       __acrt_initialize_signal_handlers 00000001800a27c0 f   libucrtd:signal.obj
 0001:000a1820       __fpecode                  00000001800a2820 f   libucrtd:signal.obj
 0001:000a1840       __pxcptinfoptrs            00000001800a2840 f   libucrtd:signal.obj
 0001:000a1860       raise                      00000001800a2860 f   libucrtd:signal.obj
 0001:000a1d20       signal                     00000001800a2d20 f   libucrtd:signal.obj
 0001:000a1ff0       _msize                     00000001800a2ff0 f   libucrtd:msize.obj
 0001:000a2010       _msize_base                00000001800a3010 f   libucrtd:msize.obj
 0001:000a20e0       _realloc_base              00000001800a30e0 f   libucrtd:realloc_base.obj
 0001:000a21b0       ??$?B$$A6AHPEA_WK_J@Z@__crt_fast_encoded_nullptr_t@@QEBAP6AHPEA_WK_J@ZXZ 00000001800a31b0 f i libucrtd:winapi_thunks.obj
 0001:000a2270       ??$__crt_fast_decode_pointer@P6AHPEA_WK_J@Z@@YAP6AHPEA_WK_J@ZQ6AH0K1@Z@Z 00000001800a3270 f i libucrtd:winapi_thunks.obj
 0001:000a22b0       ??$__crt_fast_decode_pointer@PEAX@@YAPEAXQEAX@Z 00000001800a32b0 f i libucrtd:winapi_thunks.obj
 0001:000a22f0       ??$__crt_fast_encode_pointer@P6AHPEA_WK_J@Z@@YAP6AHPEA_WK_J@ZQ6AH0K1@Z@Z 00000001800a32f0 f i libucrtd:winapi_thunks.obj
 0001:000a2f60       GetCurrentThreadEffectiveToken 00000001800a3f60 f i libucrtd:winapi_thunks.obj
 0001:000a2f70       __acrt_AppPolicyGetProcessTerminationMethodInternal 00000001800a3f70 f   libucrtd:winapi_thunks.obj
 0001:000a2fc0       __acrt_AppPolicyGetShowDeveloperDiagnosticInternal 00000001800a3fc0 f   libucrtd:winapi_thunks.obj
 0001:000a3010       __acrt_AppPolicyGetThreadInitializationTypeInternal 00000001800a4010 f   libucrtd:winapi_thunks.obj
 0001:000a3060       __acrt_AppPolicyGetWindowingModelInternal 00000001800a4060 f   libucrtd:winapi_thunks.obj
 0001:000a30b0       __acrt_AreFileApisANSI     00000001800a40b0 f   libucrtd:winapi_thunks.obj
 0001:000a30f0       __acrt_CompareStringEx     00000001800a40f0 f   libucrtd:winapi_thunks.obj
 0001:000a31d0       __acrt_EnumSystemLocalesEx 00000001800a41d0 f   libucrtd:winapi_thunks.obj
 0001:000a3250       __acrt_FlsAlloc            00000001800a4250 f   libucrtd:winapi_thunks.obj
 0001:000a32a0       __acrt_FlsFree             00000001800a42a0 f   libucrtd:winapi_thunks.obj
 0001:000a32f0       __acrt_FlsGetValue         00000001800a42f0 f   libucrtd:winapi_thunks.obj
 0001:000a3340       __acrt_FlsSetValue         00000001800a4340 f   libucrtd:winapi_thunks.obj
 0001:000a33a0       __acrt_GetDateFormatEx     00000001800a43a0 f   libucrtd:winapi_thunks.obj
 0001:000a3460       __acrt_GetEnabledXStateFeatures 00000001800a4460 f   libucrtd:winapi_thunks.obj
 0001:000a34a0       __acrt_GetLocaleInfoEx     00000001800a44a0 f   libucrtd:winapi_thunks.obj
 0001:000a3520       __acrt_GetSystemTimePreciseAsFileTime 00000001800a4520 f   libucrtd:winapi_thunks.obj
 0001:000a3570       __acrt_GetTimeFormatEx     00000001800a4570 f   libucrtd:winapi_thunks.obj
 0001:000a3620       __acrt_GetUserDefaultLocaleName 00000001800a4620 f   libucrtd:winapi_thunks.obj
 0001:000a3680       __acrt_GetXStateFeaturesMask 00000001800a4680 f   libucrtd:winapi_thunks.obj
 0001:000a36d0       __acrt_InitializeCriticalSectionEx 00000001800a46d0 f   libucrtd:winapi_thunks.obj
 0001:000a3730       __acrt_IsValidLocaleName   00000001800a4730 f   libucrtd:winapi_thunks.obj
 0001:000a3790       __acrt_LCIDToLocaleName    00000001800a4790 f   libucrtd:winapi_thunks.obj
 0001:000a3800       __acrt_LCMapStringEx       00000001800a4800 f   libucrtd:winapi_thunks.obj
 0001:000a38e0       __acrt_LocaleNameToLCID    00000001800a48e0 f   libucrtd:winapi_thunks.obj
 0001:000a3930       __acrt_LocateXStateFeature 00000001800a4930 f   libucrtd:winapi_thunks.obj
 0001:000a3990       __acrt_MessageBoxA         00000001800a4990 f   libucrtd:winapi_thunks.obj
 0001:000a39f0       __acrt_MessageBoxW         00000001800a49f0 f   libucrtd:winapi_thunks.obj
 0001:000a3a50       __acrt_RoInitialize        00000001800a4a50 f   libucrtd:winapi_thunks.obj
 0001:000a3a90       __acrt_RoUninitialize      00000001800a4a90 f   libucrtd:winapi_thunks.obj
 0001:000a3ac0       __acrt_RtlGenRandom        00000001800a4ac0 f   libucrtd:winapi_thunks.obj
 0001:000a3b10       __acrt_SetThreadStackGuarantee 00000001800a4b10 f   libucrtd:winapi_thunks.obj
 0001:000a3b50       __acrt_can_show_message_box 00000001800a4b50 f   libucrtd:winapi_thunks.obj
 0001:000a3b90       __acrt_can_use_vista_locale_apis 00000001800a4b90 f   libucrtd:winapi_thunks.obj
 0001:000a3bc0       __acrt_can_use_xstate_apis 00000001800a4bc0 f   libucrtd:winapi_thunks.obj
 0001:000a3bf0       __acrt_eagerly_load_locale_apis 00000001800a4bf0 f   libucrtd:winapi_thunks.obj
 0001:000a3c30       __acrt_get_parent_window   00000001800a4c30 f   libucrtd:winapi_thunks.obj
 0001:000a3cb0       __acrt_initialize_winapi_thunks 00000001800a4cb0 f   libucrtd:winapi_thunks.obj
 0001:000a3d30       __acrt_is_interactive      00000001800a4d30 f   libucrtd:winapi_thunks.obj
 0001:000a3e10       __acrt_uninitialize_winapi_thunks 00000001800a4e10 f   libucrtd:winapi_thunks.obj
 0001:000a3eb0       _chvalidator               00000001800a4eb0 f   libucrtd:isctype.obj
 0001:000a3f20       _chvalidator_l             00000001800a4f20 f   libucrtd:isctype.obj
 0001:000a3fd0       _isctype                   00000001800a4fd0 f   libucrtd:isctype.obj
 0001:000a4020       _isctype_l                 00000001800a5020 f   libucrtd:isctype.obj
 0001:000a4250       _isleadbyte_fast_internal  00000001800a5250 f i libucrtd:isctype.obj
 0001:000a4280       ??$?RU__crt_stdio_stream_data@@@__crt_internal_free_policy@@QEBAXQEBU__crt_stdio_stream_data@@@Z 00000001800a5280 f i libucrtd:stream.obj
 0001:000a42b0       ??0?$__crt_unique_heap_ptr@U__crt_stdio_stream_data@@U__crt_internal_free_policy@@@@QEAA@QEAU__crt_stdio_stream_data@@@Z 00000001800a52b0 f i libucrtd:stream.obj
 0001:000a42d0       ??0__crt_stdio_stream@@QEAA@QEAU__crt_stdio_stream_data@@@Z 00000001800a52d0 f i libucrtd:stream.obj
 0001:000a42f0       ??0__crt_stdio_stream@@QEAA@XZ 00000001800a52f0 f i libucrtd:stream.obj
 0001:000a4310       ??1?$__crt_unique_heap_ptr@U__crt_stdio_stream_data@@U__crt_internal_free_policy@@@@QEAA@XZ 00000001800a5310 f i libucrtd:stream.obj
 0001:000a4330       ?__acrt_stdio_allocate_stream@@YA?AV__crt_stdio_stream@@XZ 00000001800a5330 f   libucrtd:stream.obj
 0001:000a43f0       ?__acrt_stdio_free_stream@@YAXV__crt_stdio_stream@@@Z 00000001800a53f0 f   libucrtd:stream.obj
 0001:000a4490       ?deallocate@__crt_stdio_stream@@QEAAXXZ 00000001800a5490 f i libucrtd:stream.obj
 0001:000a44b0       ?detach@?$__crt_unique_heap_ptr@U__crt_stdio_stream_data@@U__crt_internal_free_policy@@@@QEAAPEAU__crt_stdio_stream_data@@XZ 00000001800a54b0 f i libucrtd:stream.obj
 0001:000a4690       ?lock@__crt_stdio_stream@@QEBAXXZ 00000001800a5690 f i libucrtd:stream.obj
 0001:000a46b0       ?release@?$__crt_unique_heap_ptr@U__crt_stdio_stream_data@@U__crt_internal_free_policy@@@@QEAAXXZ 00000001800a56b0 f i libucrtd:stream.obj
 0001:000a46e0       ?try_allocate@__crt_stdio_stream@@QEAA_NXZ 00000001800a56e0 f i libucrtd:stream.obj
 0001:000a4750       ??$__acrt_stdio_parse_mode@D@@YA?AU__acrt_stdio_stream_mode@@QEBD@Z 00000001800a5750 f i libucrtd:openfile.obj
 0001:000a5260       ??$__acrt_stdio_parse_mode@_W@@YA?AU__acrt_stdio_stream_mode@@QEB_W@Z 00000001800a6260 f i libucrtd:openfile.obj
 0001:000a6200       ??$tcsncmp@AEAPEBDAEAY02$$CBD_K@?$__crt_char_traits@D@@SAHAEAPEBDAEAY02$$CBD$$QEA_K@Z 00000001800a7200 f i libucrtd:openfile.obj
 0001:000a6240       ??$tcsncmp@AEAPEB_WAEAY02$$CB_W_K@?$__crt_char_traits@_W@@SAHAEAPEB_WAEAY02$$CB_W$$QEA_K@Z 00000001800a7240 f i libucrtd:openfile.obj
 0001:000a6280       ??$tcsnicmp@AEAPEBDAEAY04$$CBD_K@?$__crt_char_traits@D@@SAHAEAPEBDAEAY04$$CBD$$QEA_K@Z 00000001800a7280 f i libucrtd:openfile.obj
 0001:000a62c0       ??$tcsnicmp@AEAPEBDAEAY06$$CBD_K@?$__crt_char_traits@D@@SAHAEAPEBDAEAY06$$CBD$$QEA_K@Z 00000001800a72c0 f i libucrtd:openfile.obj
 0001:000a6300       ??$tcsnicmp@AEAPEBDAEAY07$$CBD_K@?$__crt_char_traits@D@@SAHAEAPEBDAEAY07$$CBD$$QEA_K@Z 00000001800a7300 f i libucrtd:openfile.obj
 0001:000a6340       ??$tcsnicmp@AEAPEB_WAEAY04$$CB_W_K@?$__crt_char_traits@_W@@SAHAEAPEB_WAEAY04$$CB_W$$QEA_K@Z 00000001800a7340 f i libucrtd:openfile.obj
 0001:000a6380       ??$tcsnicmp@AEAPEB_WAEAY06$$CB_W_K@?$__crt_char_traits@_W@@SAHAEAPEB_WAEAY06$$CB_W$$QEA_K@Z 00000001800a7380 f i libucrtd:openfile.obj
 0001:000a63c0       ??$tcsnicmp@AEAPEB_WAEAY07$$CB_W_K@?$__crt_char_traits@_W@@SAHAEAPEB_WAEAY07$$CB_W$$QEA_K@Z 00000001800a73c0 f i libucrtd:openfile.obj
