 Opos_Internals

 Timestamp is 600f7b18 (Tue Jan 26 11:14:48 2021)

 Preferred load address is 0000000180000000

 Start         Length     Name                   Class
 0001:00000000 00000a00H .text$di                CODE
 0001:00000a00 000a8340H .text$mn                CODE
 0001:000a8d40 00000040H .text$mn$00             CODE
 0001:000a8d80 00001050H .text$x                 CODE
 0001:000a9dd0 000000f4H .text$yd                CODE
 0002:00000000 000003d0H .idata$5                DATA
 0002:000003d0 00000028H .00cfg                  DATA
 0002:000003f8 00000008H .CRT$XCA                DATA
 0002:00000400 00000008H .CRT$XCL                DATA
 0002:00000408 000000d0H .CRT$XCU                DATA
 0002:000004d8 00000008H .CRT$XCZ                DATA
 0002:000004e0 00000008H .CRT$XIA                DATA
 0002:000004e8 00000018H .CRT$XIC                DATA
 0002:00000500 00000008H .CRT$XIZ                DATA
 0002:00000508 00000008H .CRT$XPA                DATA
 0002:00000510 00000010H .CRT$XPX                DATA
 0002:00000520 00000008H .CRT$XPXA               DATA
 0002:00000528 00000008H .CRT$XPZ                DATA
 0002:00000530 00000008H .CRT$XTA                DATA
 0002:00000538 00000008H .CRT$XTZ                DATA
 0002:00000540 00000000H .gehcont$y              DATA
 0002:00000540 00000000H .gfids$y                DATA
 0002:00000540 0002a240H .rdata                  DATA
 0002:0002a780 00000008H .rdata$CastGuardVftablesA DATA
 0002:0002a788 00000008H .rdata$CastGuardVftablesC DATA
 0002:0002a790 0000056cH .rdata$r                DATA
 0002:0002acfc 0000040cH .rdata$zzzdbg           DATA
 0002:0002b108 00000008H .rtc$IAA                DATA
 0002:0002b110 00000010H .rtc$IMZ                DATA
 0002:0002b120 00000008H .rtc$IZZ                DATA
 0002:0002b128 00000008H .rtc$TAA                DATA
 0002:0002b130 00000010H .rtc$TMZ                DATA
 0002:0002b140 00000010H .rtc$TZZ                DATA
 0002:0002b150 00007428H .xdata                  DATA
 0002:00032578 00000150H .xdata$x                DATA
 0002:000326c8 00000008H ATL$__a                 DATA
 0002:000326d0 00000010H ATL$__z                 DATA
 0002:000326e0 000000acH .edata                  DATA
 0002:0003278c 00000064H .idata$2                DATA
 0002:000327f0 00000018H .idata$3                DATA
 0002:00032808 000003d0H .idata$4                DATA
 0002:00032bd8 00000846H .idata$6                DATA
 0003:00000000 00000ae0H .data                   DATA
 0003:00000ae0 000001a0H .data$r                 DATA
 0003:00000c80 00003e3cH .bss                    DATA
 0004:00000000 000090fcH .pdata                  DATA
 0005:00000000 00000094H _RDATA                  DATA
 0006:00000000 00000140H .rsrc$01                DATA
 0006:00000140 000166f8H .rsrc$02                DATA

  Address         Publics by Value              Rva+Base               Lib:Object

 0000:00000000       __arm64x_extra_rfe_table   0000000000000000     <absolute>
 0000:00000000       __arm64x_native_entrypoint 0000000000000000     <absolute>
 0000:00000000       __hybrid_code_map_count    0000000000000000     <absolute>
 0000:00000000       __guard_iat_table          0000000000000000     <absolute>
 0000:00000000       __dynamic_value_reloc_table 0000000000000000     <absolute>
 0000:00000000       __hybrid_code_map          0000000000000000     <absolute>
 0000:00000000       __guard_iat_count          0000000000000000     <absolute>
 0000:00000000       __enclave_config           0000000000000000     <absolute>
 0000:00000000       __AbsoluteZero             0000000000000000     <absolute>
 0000:00000000       __guard_longjmp_table      0000000000000000     <absolute>
 0000:00000000       ___safe_se_handler_table   0000000000000000     <absolute>
 0000:00000000       __guard_fids_count         0000000000000000     <absolute>
 0000:00000000       __x64_code_ranges_to_entry_points_count 0000000000000000     <absolute>
 0000:00000000       __guard_eh_cont_count      0000000000000000     <absolute>
 0000:00000000       __volatile_metadata        0000000000000000     <absolute>
 0000:00000000       ___safe_se_handler_count   0000000000000000     <absolute>
 0000:00000000       __guard_fids_table         0000000000000000     <absolute>
 0000:00000000       __arm64x_extra_rfe_table_size 0000000000000000     <absolute>
 0000:00000000       __hybrid_auxiliary_iat     0000000000000000     <absolute>
 0000:00000000       __x64_code_ranges_to_entry_points 0000000000000000     <absolute>
 0000:00000000       __arm64x_redirection_metadata 0000000000000000     <absolute>
 0000:00000000       __guard_longjmp_count      0000000000000000     <absolute>
 0000:00000000       __guard_eh_cont_table      0000000000000000     <absolute>
 0000:00000000       __arm64x_redirection_metadata_count 0000000000000000     <absolute>
 0000:00000100       __guard_flags              0000000000000100     <absolute>
 0000:00000000       __ImageBase                0000000180000000     <linker-defined>
 0001:00000a00       ??$AtlMultiply@_K@ATL@@YAJPEA_K_K1@Z 0000000180001a00 f i StdAfx.obj
 0001:00000a80       ??0?$CHeapPtr@_WVCCRTAllocator@ATL@@@ATL@@QEAA@XZ 0000000180001a80 f i StdAfx.obj
 0001:00000ac0       ??0?$CHeapPtrBase@_WVCCRTAllocator@ATL@@@ATL@@IEAA@XZ 0000000180001ac0 f i StdAfx.obj
 0001:00000ae0       ??0?$CSimpleArray@GV?$CSimpleArrayEqualHelper@G@ATL@@@ATL@@QEAA@XZ 0000000180001ae0 f i StdAfx.obj
 0001:00000b20       ??0?$CTraceCategoryEx@$00$0A@@ATL@@QEAA@PEB_W@Z 0000000180001b20 f i StdAfx.obj
 0001:00000b60       ??0?$CTraceCategoryEx@$01$0A@@ATL@@QEAA@PEB_W@Z 0000000180001b60 f i StdAfx.obj
 0001:00000ba0       ??0?$CTraceCategoryEx@$03$0A@@ATL@@QEAA@PEB_W@Z 0000000180001ba0 f i StdAfx.obj
 0001:00000be0       ??0?$CTraceCategoryEx@$07$0A@@ATL@@QEAA@PEB_W@Z 0000000180001be0 f i StdAfx.obj
 0001:00000c20       ??0?$CTraceCategoryEx@$0BA@$0A@@ATL@@QEAA@PEB_W@Z 0000000180001c20 f i StdAfx.obj
 0001:00000c60       ??0?$CTraceCategoryEx@$0BAA@$0A@@ATL@@QEAA@PEB_W@Z 0000000180001c60 f i StdAfx.obj
 0001:00000ca0       ??0?$CTraceCategoryEx@$0BAAA@$0A@@ATL@@QEAA@PEB_W@Z 0000000180001ca0 f i StdAfx.obj
 0001:00000ce0       ??0?$CTraceCategoryEx@$0BAAAA@$0A@@ATL@@QEAA@PEB_W@Z 0000000180001ce0 f i StdAfx.obj
 0001:00000d20       ??0?$CTraceCategoryEx@$0BAAAAA@$0A@@ATL@@QEAA@PEB_W@Z 0000000180001d20 f i StdAfx.obj
 0001:00000d60       ??0?$CTraceCategoryEx@$0CA@$0A@@ATL@@QEAA@PEB_W@Z 0000000180001d60 f i StdAfx.obj
 0001:00000da0       ??0?$CTraceCategoryEx@$0CAA@$0A@@ATL@@QEAA@PEB_W@Z 0000000180001da0 f i StdAfx.obj
 0001:00000de0       ??0?$CTraceCategoryEx@$0CAAA@$0A@@ATL@@QEAA@PEB_W@Z 0000000180001de0 f i StdAfx.obj
 0001:00000e20       ??0?$CTraceCategoryEx@$0CAAAA@$0A@@ATL@@QEAA@PEB_W@Z 0000000180001e20 f i StdAfx.obj
 0001:00000e60       ??0?$CTraceCategoryEx@$0CAAAAA@$0A@@ATL@@QEAA@PEB_W@Z 0000000180001e60 f i StdAfx.obj
 0001:00000ea0       ??0?$CTraceCategoryEx@$0EA@$0A@@ATL@@QEAA@PEB_W@Z 0000000180001ea0 f i StdAfx.obj
 0001:00000ee0       ??0?$CTraceCategoryEx@$0EAA@$0A@@ATL@@QEAA@PEB_W@Z 0000000180001ee0 f i StdAfx.obj
 0001:00000f20       ??0?$CTraceCategoryEx@$0EAAA@$0A@@ATL@@QEAA@PEB_W@Z 0000000180001f20 f i StdAfx.obj
 0001:00000f60       ??0?$CTraceCategoryEx@$0EAAAA@$0A@@ATL@@QEAA@PEB_W@Z 0000000180001f60 f i StdAfx.obj
 0001:00000fa0       ??0?$CTraceCategoryEx@$0EAAAAA@$0A@@ATL@@QEAA@PEB_W@Z 0000000180001fa0 f i StdAfx.obj
 0001:00000fe0       ??0?$CTraceCategoryEx@$0IA@$0A@@ATL@@QEAA@PEB_W@Z 0000000180001fe0 f i StdAfx.obj
 0001:00001020       ??0?$CTraceCategoryEx@$0IAA@$0A@@ATL@@QEAA@PEB_W@Z 0000000180002020 f i StdAfx.obj
 0001:00001060       ??0?$CTraceCategoryEx@$0IAAA@$0A@@ATL@@QEAA@PEB_W@Z 0000000180002060 f i StdAfx.obj
 0001:000010a0       ??0?$CTraceCategoryEx@$0IAAAA@$0A@@ATL@@QEAA@PEB_W@Z 00000001800020a0 f i StdAfx.obj
 0001:000010e0       ??0CAtlComModule@ATL@@QEAA@XZ 00000001800020e0 f i StdAfx.obj
 0001:00001200       ??0CAtlWinModule@ATL@@QEAA@XZ 0000000180002200 f i StdAfx.obj
 0001:000012b0       ??0CComCriticalSection@ATL@@QEAA@XZ 00000001800022b0 f i StdAfx.obj
 0001:000012f0       ??0CPreserveLastError@ATL@@QEAA@XZ 00000001800022f0 f i StdAfx.obj
 0001:00001330       ??0CTraceFileAndLineInfo@ATL@@QEAA@PEBDH@Z 0000000180002330 f i StdAfx.obj
 0001:00001360       ??0_ATL_COM_MODULE70@ATL@@QEAA@XZ 0000000180002360 f i StdAfx.obj
 0001:000013a0       ??0_ATL_WIN_MODULE70@ATL@@QEAA@XZ 00000001800023a0 f i StdAfx.obj
 0001:000013f0       ??1?$CHeapPtr@_WVCCRTAllocator@ATL@@@ATL@@QEAA@XZ 00000001800023f0 f i StdAfx.obj
 0001:00001420       ??1?$CHeapPtrBase@_WVCCRTAllocator@ATL@@@ATL@@QEAA@XZ 0000000180002420 f i StdAfx.obj
 0001:00001450       ??1?$CSimpleArray@GV?$CSimpleArrayEqualHelper@G@ATL@@@ATL@@QEAA@XZ 0000000180002450 f i StdAfx.obj
 0001:00001480       ??1CAtlComModule@ATL@@QEAA@XZ 0000000180002480 f i StdAfx.obj
 0001:000014c0       ??1CAtlWinModule@ATL@@QEAA@XZ 00000001800024c0 f i StdAfx.obj
 0001:00001500       ??1CComBSTR@ATL@@QEAA@XZ   0000000180002500 f i StdAfx.obj
 0001:00001540       ??1CComCriticalSection@ATL@@QEAA@XZ 0000000180002540 f i StdAfx.obj
 0001:00001550       ??1CPreserveLastError@ATL@@QEAA@XZ 0000000180002550 f i StdAfx.obj
 0001:00001590       ??1_ATL_COM_MODULE70@ATL@@QEAA@XZ 0000000180002590 f i StdAfx.obj
 0001:000015d0       ??1_ATL_WIN_MODULE70@ATL@@QEAA@XZ 00000001800025d0 f i StdAfx.obj
 0001:00001620       ??1stringdispid@CComTypeInfoHolder@ATL@@QEAA@XZ 0000000180002620 f i StdAfx.obj
 0001:00001660       ??A?$CSimpleArray@GV?$CSimpleArrayEqualHelper@G@ATL@@@ATL@@QEAAAEAGH@Z 0000000180002660 f i StdAfx.obj
 0001:00001710       ??B?$CHeapPtrBase@_WVCCRTAllocator@ATL@@@ATL@@QEBAPEA_WXZ 0000000180002710 f i StdAfx.obj
 0001:00001720       ??B?$CTraceCategoryEx@$01$0A@@ATL@@QEAAIXZ 0000000180002720 f i StdAfx.obj
 0001:00001730       ??B?$CTraceCategoryEx@$0CA@$0A@@ATL@@QEAAIXZ 0000000180002730 f i StdAfx.obj
 0001:00001740       ??RCTraceFileAndLineInfo@ATL@@QEBAXHIPEB_WZZ 0000000180002740 f i StdAfx.obj
 0001:000017f0       ??_Estringdispid@CComTypeInfoHolder@ATL@@QEAAPEAXI@Z 00000001800027f0 f i StdAfx.obj
 0001:000018a0       ??_H@YAXPEAX_K1P6APEAX0@Z@Z 00000001800028a0 f i StdAfx.obj
 0001:00001930       ??_I@YAXPEAX_K1P6AX0@Z@Z   0000000180002930 f i StdAfx.obj
 0001:000019e0       ?Allocate@?$CHeapPtr@_WVCCRTAllocator@ATL@@@ATL@@QEAA_N_K@Z 00000001800029e0 f i StdAfx.obj
 0001:00001a60       ?Allocate@CCRTAllocator@ATL@@SAPEAX_K@Z 0000000180002a60 f i StdAfx.obj
 0001:00001a90       ?AllocateBytes@?$CHeapPtrBase@_WVCCRTAllocator@ATL@@@ATL@@QEAA_N_K@Z 0000000180002a90 f i StdAfx.obj
 0001:00001b30       ?AtlWinModuleInit@ATL@@YAJPEAU_ATL_WIN_MODULE70@1@@Z 0000000180002b30 f i StdAfx.obj
 0001:00001c30       ?AtlWinModuleTerm@ATL@@YAJPEAU_ATL_WIN_MODULE70@1@PEAUHINSTANCE__@@@Z 0000000180002c30 f i StdAfx.obj
 0001:00001d20       ?Free@?$CHeapPtrBase@_WVCCRTAllocator@ATL@@@ATL@@QEAAXXZ 0000000180002d20 f i StdAfx.obj
 0001:00001d60       ?Free@CCRTAllocator@ATL@@SAXPEAX@Z 0000000180002d60 f i StdAfx.obj
 0001:00001d90       ?GetCategoryName@CTrace@ATL@@CAPEA_WI@Z 0000000180002d90 f i StdAfx.obj
 0001:00001e10       ?GetModuleInstance@CAtlBaseModule@ATL@@QEAAPEAUHINSTANCE__@@XZ 0000000180002e10 f i StdAfx.obj
 0001:00001e30       ?GetSize@?$CSimpleArray@GV?$CSimpleArrayEqualHelper@G@ATL@@@ATL@@QEBAHXZ 0000000180002e30 f i StdAfx.obj
 0001:00001e40       ?Init@CComCriticalSection@ATL@@QEAAJXZ 0000000180002e40 f i StdAfx.obj
 0001:00001ea0       ?RegisterCategory@CTrace@ATL@@SAXPEB_WI@Z 0000000180002ea0 f i StdAfx.obj
 0001:00001f80       ?RemoveAll@?$CSimpleArray@GV?$CSimpleArrayEqualHelper@G@ATL@@@ATL@@QEAAXXZ 0000000180002f80 f i StdAfx.obj
 0001:00002010       ?Term@CAtlComModule@ATL@@QEAAXXZ 0000000180003010 f i StdAfx.obj
 0001:000020f0       ?Term@CAtlWinModule@ATL@@QEAAXXZ 00000001800030f0 f i StdAfx.obj
 0001:00002130       ?Term@CComCriticalSection@ATL@@QEAAJXZ 0000000180003130 f i StdAfx.obj
 0001:00002170       ?TraceV@CTrace@ATL@@CAXPEBDHIIPEB_W@Z 0000000180003170 f i StdAfx.obj
 0001:00002420       ?TraceV@CTrace@ATL@@SAXPEBDHIIPEB_WPEAD@Z 0000000180003420 f i StdAfx.obj
 0001:000025d0       ?_AtlInitializeCriticalSectionEx@ATL@@YAHPEAU_RTL_CRITICAL_SECTION@@KK@Z 00000001800035d0 f i StdAfx.obj
 0001:00002620       ?_AtlRaiseException@ATL@@YAXKK@Z 0000000180003620 f i StdAfx.obj
 0001:00002660       HRESULT_FROM_WIN32         0000000180003660 f i StdAfx.obj
 0001:000026b0       __local_stdio_printf_options 00000001800036b0 f i StdAfx.obj
 0001:000026c0       _vswprintf_s_l             00000001800036c0 f i StdAfx.obj
 0001:00002750       swprintf_s                 0000000180003750 f i StdAfx.obj
 0001:00002940       DllGetClassObject          0000000180003940 f   OposInternals.obj
 0001:00002990       DllCanUnloadNow            0000000180003990 f   OposInternals.obj
 0001:000029e0       DllRegisterServer          00000001800039e0 f   OposInternals.obj
 0001:00002a20       DllUnregisterServer        0000000180003a20 f   OposInternals.obj
 0001:00002c20       DllMain                    0000000180003c20 f   OposInternals.obj
 0001:00002ca0       ??$?2PEA_W@?$Wrapper@PEA_W@?$CSimpleMap@PEA_WPEA_WVCExpansionVectorEqualHelper@ATL@@@ATL@@SAPEAX_KPEAPEA_W@Z 0000000180003ca0 f i OposInternals.obj
 0001:00002cc0       ??$AtlMultiply@K@ATL@@YAJPEAKKK@Z 0000000180003cc0 f i OposInternals.obj
 0001:00002d30       ??$AtlMultiplyThrow@_K@ATL@@YA_K_K0@Z 0000000180003d30 f i OposInternals.obj
 0001:00002da0       ??0?$CAtlModuleT@VCComModule@ATL@@@ATL@@QEAA@XZ 0000000180003da0 f i OposInternals.obj
 0001:00002de0       ??0?$CAtlSafeAllocBufferManager@VCCRTAllocator@ATL@@@_ATL_SAFE_ALLOCA_IMPL@ATL@@QEAA@XZ 0000000180003de0 f i OposInternals.obj
 0001:00002e00       ??0?$CAutoVectorPtr@_W@ATL@@QEAA@XZ 0000000180003e00 f i OposInternals.obj
 0001:00002e20       ??0?$CComCritSecLock@VCComCriticalSection@ATL@@@ATL@@QEAA@AEAVCComCriticalSection@1@_N@Z 0000000180003e20 f i OposInternals.obj
 0001:00002e90       ??0?$CComPtr@UICatRegister@@@ATL@@QEAA@XZ 0000000180003e90 f i OposInternals.obj
 0001:00002ed0       ??0?$CComPtr@UITypeLib@@@ATL@@QEAA@XZ 0000000180003ed0 f i OposInternals.obj
 0001:00002f10       ??0?$CComPtrBase@UICatRegister@@@ATL@@IEAA@XZ 0000000180003f10 f i OposInternals.obj
 0001:00002f30       ??0?$CComPtrBase@UITypeLib@@@ATL@@IEAA@XZ 0000000180003f30 f i OposInternals.obj
 0001:00002f50       ??0?$CSimpleMap@PEA_WPEA_WVCExpansionVectorEqualHelper@ATL@@@ATL@@QEAA@XZ 0000000180003f50 f i OposInternals.obj
 0001:00002f90       ??0?$CTempBuffer@E$0BAA@VCCRTAllocator@ATL@@@ATL@@QEAA@XZ 0000000180003f90 f i OposInternals.obj
 0001:00002fb0       ??0?$CTempBuffer@_W$0BAA@VCCRTAllocator@ATL@@@ATL@@QEAA@XZ 0000000180003fb0 f i OposInternals.obj
 0001:00002fd0       ??0?$CTempBuffer@_W$0EAA@VCCRTAllocator@ATL@@@ATL@@QEAA@XZ 0000000180003fd0 f i OposInternals.obj
 0001:00002ff0       ??0?$Wrapper@PEA_W@?$CSimpleMap@PEA_WPEA_WVCExpansionVectorEqualHelper@ATL@@@ATL@@QEAA@AEBQEA_W@Z 0000000180003ff0 f i OposInternals.obj
 0001:00003020       ??0CAtlModule@ATL@@QEAA@XZ 0000000180004020 f i OposInternals.obj
 0001:00003190       ??0CComBSTR@ATL@@QEAA@XZ   0000000180004190 f i OposInternals.obj
 0001:000031b0       ??0CComModule@ATL@@QEAA@XZ 00000001800041b0 f i OposInternals.obj
 0001:00003250       ??0CExpansionVector@ATL@@QEAA@XZ 0000000180004250 f i OposInternals.obj
 0001:00003290       ??0CParseBuffer@CRegParser@ATL@@QEAA@H@Z 0000000180004290 f i OposInternals.obj
 0001:00003320       ??0CRegKey@ATL@@QEAA@PEAUHKEY__@@@Z 0000000180004320 f i OposInternals.obj
 0001:00003360       ??0CRegKey@ATL@@QEAA@PEAVCAtlTransactionManager@1@@Z 0000000180004360 f i OposInternals.obj
 0001:000033a0       ??0CRegObject@ATL@@QEAA@XZ 00000001800043a0 f i OposInternals.obj
 0001:00003400       ??0CRegParser@ATL@@QEAA@PEAVCRegObject@1@@Z 0000000180004400 f i OposInternals.obj
 0001:00003430       ??0IRegistrarBase@@QEAA@XZ 0000000180004430 f i OposInternals.obj
 0001:00003470       ??0IUnknown@@QEAA@XZ       0000000180004470 f i OposInternals.obj
 0001:00003480       ??0_ATL_MODULE70@ATL@@QEAA@XZ 0000000180004480 f i OposInternals.obj
 0001:000034c0       ??1?$CAtlModuleT@VCComModule@ATL@@@ATL@@UEAA@XZ 00000001800044c0 f i OposInternals.obj
 0001:000034f0       ??1?$CAtlSafeAllocBufferManager@VCCRTAllocator@ATL@@@_ATL_SAFE_ALLOCA_IMPL@ATL@@QEAA@XZ 00000001800044f0 f i OposInternals.obj
 0001:00003550       ??1?$CAutoVectorPtr@_W@ATL@@QEAA@XZ 0000000180004550 f i OposInternals.obj
 0001:00003580       ??1?$CComCritSecLock@VCComCriticalSection@ATL@@@ATL@@QEAA@XZ 0000000180004580 f i OposInternals.obj
 0001:000035c0       ??1?$CComPtr@UICatRegister@@@ATL@@QEAA@XZ 00000001800045c0 f i OposInternals.obj
 0001:000035f0       ??1?$CComPtr@UITypeLib@@@ATL@@QEAA@XZ 00000001800045f0 f i OposInternals.obj
 0001:00003620       ??1?$CComPtrBase@UICatRegister@@@ATL@@QEAA@XZ 0000000180004620 f i OposInternals.obj
 0001:00003670       ??1?$CComPtrBase@UITypeLib@@@ATL@@QEAA@XZ 0000000180004670 f i OposInternals.obj
 0001:000036c0       ??1?$CSimpleMap@PEA_WPEA_WVCExpansionVectorEqualHelper@ATL@@@ATL@@QEAA@XZ 00000001800046c0 f i OposInternals.obj
 0001:000036f0       ??1?$CTempBuffer@E$0BAA@VCCRTAllocator@ATL@@@ATL@@QEAA@XZ 00000001800046f0 f i OposInternals.obj
 0001:00003740       ??1?$CTempBuffer@_W$0BAA@VCCRTAllocator@ATL@@@ATL@@QEAA@XZ 0000000180004740 f i OposInternals.obj
 0001:00003790       ??1?$CTempBuffer@_W$0EAA@VCCRTAllocator@ATL@@@ATL@@QEAA@XZ 0000000180004790 f i OposInternals.obj
 0001:000037e0       ??1CAtlModule@ATL@@UEAA@XZ 00000001800047e0 f i OposInternals.obj
 0001:00003820       ??1CComModule@ATL@@UEAA@XZ 0000000180004820 f i OposInternals.obj
 0001:00003860       ??1CExpansionVector@ATL@@QEAA@XZ 0000000180004860 f i OposInternals.obj
 0001:000038a0       ??1CParseBuffer@CRegParser@ATL@@QEAA@XZ 00000001800048a0 f i OposInternals.obj
 0001:000038e0       ??1CRegKey@ATL@@QEAA@XZ    00000001800048e0 f i OposInternals.obj
 0001:00003910       ??1CRegObject@ATL@@UEAA@XZ 0000000180004910 f i OposInternals.obj
 0001:00003960       ??1_ATL_MODULE70@ATL@@QEAA@XZ 0000000180004960 f i OposInternals.obj
 0001:000039a0       ??7CComBSTR@ATL@@QEBA_NXZ  00000001800049a0 f i OposInternals.obj
 0001:000039f0       ??8CComBSTR@ATL@@QEBA_NH@Z 00000001800049f0 f i OposInternals.obj
 0001:00003a70       ??9CComBSTR@ATL@@QEBA_NH@Z 0000000180004a70 f i OposInternals.obj
 0001:00003ad0       ??B?$CComPtrBase@UITypeLib@@@ATL@@QEBAPEAUITypeLib@@XZ 0000000180004ad0 f i OposInternals.obj
 0001:00003ae0       ??B?$CTempBuffer@E$0BAA@VCCRTAllocator@ATL@@@ATL@@QEBAPEAEXZ 0000000180004ae0 f i OposInternals.obj
 0001:00003af0       ??B?$CTempBuffer@_W$0BAA@VCCRTAllocator@ATL@@@ATL@@QEBAPEA_WXZ 0000000180004af0 f i OposInternals.obj
 0001:00003b00       ??B?$CTempBuffer@_W$0EAA@VCCRTAllocator@ATL@@@ATL@@QEBAPEA_WXZ 0000000180004b00 f i OposInternals.obj
 0001:00003b10       ??B?$CTraceCategoryEx@$00$0A@@ATL@@QEAAIXZ 0000000180004b10 f i OposInternals.obj
 0001:00003b20       ??B?$CTraceCategoryEx@$07$0A@@ATL@@QEAAIXZ 0000000180004b20 f i OposInternals.obj
 0001:00003b30       ??B?$CTraceCategoryEx@$0CAAA@$0A@@ATL@@QEAAIXZ 0000000180004b30 f i OposInternals.obj
 0001:00003b40       ??BCComBSTR@ATL@@QEBAPEA_WXZ 0000000180004b40 f i OposInternals.obj
 0001:00003b50       ??BCRegKey@ATL@@QEBAPEAUHKEY__@@XZ 0000000180004b50 f i OposInternals.obj
 0001:00003b60       ??C?$CComPtrBase@UICatRegister@@@ATL@@QEBAPEAV?$_NoAddRefReleaseOnCComPtr@UICatRegister@@@1@XZ 0000000180004b60 f i OposInternals.obj
 0001:00003be0       ??C?$CComPtrBase@UITypeLib@@@ATL@@QEBAPEAV?$_NoAddRefReleaseOnCComPtr@UITypeLib@@@1@XZ 0000000180004be0 f i OposInternals.obj
 0001:00003c60       ??I?$CComPtrBase@UICatRegister@@@ATL@@QEAAPEAPEAUICatRegister@@XZ 0000000180004c60 f i OposInternals.obj
 0001:00003cd0       ??I?$CComPtrBase@UITypeLib@@@ATL@@QEAAPEAPEAUITypeLib@@XZ 0000000180004cd0 f i OposInternals.obj
 0001:00003d40       ??ICComBSTR@ATL@@QEAAPEAPEA_WXZ 0000000180004d40 f i OposInternals.obj
 0001:00003d50       ??_GCComModule@ATL@@UEAAPEAXI@Z 0000000180004d50 f i OposInternals.obj
 0001:00003d50       ??_ECComModule@ATL@@UEAAPEAXI@Z 0000000180004d50 f i OposInternals.obj
 0001:00003db0       ??_ECRegObject@ATL@@UEAAPEAXI@Z 0000000180004db0 f i OposInternals.obj
 0001:00003db0       ??_GCRegObject@ATL@@UEAAPEAXI@Z 0000000180004db0 f i OposInternals.obj
 0001:00003e10       ?Add@?$CSimpleMap@PEA_WPEA_WVCExpansionVectorEqualHelper@ATL@@@ATL@@QEAAHAEBQEA_W0@Z 0000000180004e10 f i OposInternals.obj
 0001:00003f00       ?Add@CExpansionVector@ATL@@QEAAHPEB_W0@Z 0000000180004f00 f i OposInternals.obj
 0001:00004230       ?AddChar@CParseBuffer@CRegParser@ATL@@QEAAHPEB_W@Z 0000000180005230 f i OposInternals.obj
 0001:00004280       ?AddCommonRGSReplacements@?$CAtlModuleT@VCComModule@ATL@@@ATL@@UEAAJPEAUIRegistrarBase@@@Z 0000000180005280 f i OposInternals.obj
 0001:000042e0       ?AddRef@CRegObject@ATL@@UEAAKXZ 00000001800052e0 f i OposInternals.obj
 0001:00004350       ?AddReplacement@CRegObject@ATL@@UEAAJPEB_W0@Z 0000000180005350 f i OposInternals.obj
 0001:00004480       ?AddString@CParseBuffer@CRegParser@ATL@@QEAAHPEB_W@Z 0000000180005480 f i OposInternals.obj
 0001:00004570       ?AddValue@CRegParser@ATL@@IEAAJAEAVCRegKey@2@PEB_WPEA_W@Z 0000000180005570 f i OposInternals.obj
 0001:00004e40       ?Allocate@?$CTempBuffer@E$0BAA@VCCRTAllocator@ATL@@@ATL@@QEAAPEAE_K@Z 0000000180005e40 f i OposInternals.obj
 0001:00004e90       ?Allocate@?$CTempBuffer@_W$0BAA@VCCRTAllocator@ATL@@@ATL@@QEAAPEA_W_K@Z 0000000180005e90 f i OposInternals.obj
 0001:00004ee0       ?Allocate@?$CTempBuffer@_W$0EAA@VCCRTAllocator@ATL@@@ATL@@QEAAPEA_W_K@Z 0000000180005ee0 f i OposInternals.obj
 0001:00004f30       ?AllocateBytes@?$CTempBuffer@E$0BAA@VCCRTAllocator@ATL@@@ATL@@QEAAPEAE_K@Z 0000000180005f30 f i OposInternals.obj
 0001:00004fe0       ?AllocateBytes@?$CTempBuffer@_W$0BAA@VCCRTAllocator@ATL@@@ATL@@QEAAPEA_W_K@Z 0000000180005fe0 f i OposInternals.obj
 0001:00005090       ?AllocateBytes@?$CTempBuffer@_W$0EAA@VCCRTAllocator@ATL@@@ATL@@QEAAPEA_W_K@Z 0000000180006090 f i OposInternals.obj
 0001:00005140       ?AllocateHeap@?$CTempBuffer@E$0BAA@VCCRTAllocator@ATL@@@ATL@@AEAAX_K@Z 0000000180006140 f i OposInternals.obj
 0001:000051a0       ?AllocateHeap@?$CTempBuffer@_W$0BAA@VCCRTAllocator@ATL@@@ATL@@AEAAX_K@Z 00000001800061a0 f i OposInternals.obj
 0001:00005200       ?AllocateHeap@?$CTempBuffer@_W$0EAA@VCCRTAllocator@ATL@@@ATL@@AEAAX_K@Z 0000000180006200 f i OposInternals.obj
 0001:00005260       ?Append@CParseBuffer@CRegParser@ATL@@QEAAHPEB_WH@Z 0000000180006260 f i OposInternals.obj
 0001:00005490       ?AtlCallTermFunc@ATL@@YAXPEAU_ATL_MODULE70@1@@Z 0000000180006490 f i OposInternals.obj
 0001:00005540       ?AtlCoTaskMemCAlloc@ATL@@YAPEAXKK@Z 0000000180006540 f i OposInternals.obj
 0001:000055c0       ?AtlCoTaskMemRecalloc@ATL@@YAPEAXPEAXKK@Z 00000001800065c0 f i OposInternals.obj
 0001:00005640       ?AtlComModuleGetClassObject@ATL@@YAJPEAU_ATL_COM_MODULE70@1@AEBU_GUID@@1PEAPEAX@Z 0000000180006640 f i OposInternals.obj
 0001:00005970       ?AtlComModuleRegisterServer@ATL@@YAJPEAU_ATL_COM_MODULE70@1@HPEBU_GUID@@@Z 0000000180006970 f i OposInternals.obj
 0001:00005b70       ?AtlComModuleUnregisterServer@ATL@@YAJPEAU_ATL_COM_MODULE70@1@HPEBU_GUID@@@Z 0000000180006b70 f i OposInternals.obj
 0001:00005cd0       ?AtlCrtErrorCheck@ATL@@YAHH@Z 0000000180006cd0 f i OposInternals.obj
 0001:00005d50       ?AtlGetPerUserRegistration@ATL@@YAJPEA_N@Z 0000000180006d50 f i OposInternals.obj
 0001:00005d80       ?AtlHresultFromLastError@ATL@@YAJXZ 0000000180006d80 f i OposInternals.obj
 0001:00005db0       ?AtlHresultFromWin32@ATL@@YAJK@Z 0000000180006db0 f i OposInternals.obj
 0001:00005de0       ?AtlLoadTypeLib@ATL@@YAJPEAUHINSTANCE__@@PEB_WPEAPEA_WPEAPEAUITypeLib@@@Z 0000000180006de0 f i OposInternals.obj
 0001:000062b0       ?AtlRegisterClassCategoriesHelper@ATL@@YAJAEBU_GUID@@PEBU_ATL_CATMAP_ENTRY@1@H@Z 00000001800072b0 f i OposInternals.obj
 0001:00006a80       ?AtlRegisterTypeLib@ATL@@YAJPEAUHINSTANCE__@@PEB_W@Z 0000000180007a80 f i OposInternals.obj
 0001:00006de0       ?AtlThrowImpl@ATL@@YAXJ@Z  0000000180007de0 f i OposInternals.obj
 0001:00006ec0       ?AtlUnRegisterTypeLib@ATL@@YAJPEAUHINSTANCE__@@PEB_W@Z 0000000180007ec0 f i OposInternals.obj
 0001:000070f0       ?Attach@?$CAutoVectorPtr@_W@ATL@@QEAAXPEA_W@Z 00000001800080f0 f i OposInternals.obj
 0001:00007180       ?Attach@CRegKey@ATL@@QEAAXPEAUHKEY__@@@Z 0000000180008180 f i OposInternals.obj
 0001:00007220       ?CanForceRemoveKey@CRegParser@ATL@@IEAAHPEB_W@Z 0000000180008220 f i OposInternals.obj
 0001:00007290       ?ChToByte@CRegParser@ATL@@KAE_W@Z 0000000180008290 f i OposInternals.obj
 0001:000073f0       ?ClearReplacements@CExpansionVector@ATL@@QEAAJXZ 00000001800083f0 f i OposInternals.obj
 0001:00007490       ?ClearReplacements@CRegObject@ATL@@UEAAJXZ 0000000180008490 f i OposInternals.obj
 0001:000074f0       ?Close@CRegKey@ATL@@QEAAJXZ 00000001800084f0 f i OposInternals.obj
 0001:00007560       ?Decrement@CComMultiThreadModel@ATL@@SAKPEAJ@Z 0000000180008560 f i OposInternals.obj
 0001:00007580       ?DeleteSubKey@CRegKey@ATL@@QEAAJPEB_W@Z 0000000180008580 f i OposInternals.obj
 0001:000076b0       ?DeleteValue@CRegKey@ATL@@QEAAJPEB_W@Z 00000001800086b0 f i OposInternals.obj
 0001:00007740       ?Detach@?$CAutoVectorPtr@_W@ATL@@QEAAPEA_WXZ 0000000180008740 f i OposInternals.obj
 0001:00007780       ?Detach@CParseBuffer@CRegParser@ATL@@QEAAPEA_WXZ 0000000180008780 f i OposInternals.obj
 0001:000077e0       ?Detach@CRegKey@ATL@@QEAAPEAUHKEY__@@XZ 00000001800087e0 f i OposInternals.obj
 0001:00007840       ?EndOfVar@CRegParser@ATL@@IEAAHXZ 0000000180008840 f i OposInternals.obj
 0001:000078a0       ?EscapeSingleQuote@CAtlModule@ATL@@SAXPEA_W_KPEB_W@Z 00000001800088a0 f i OposInternals.obj
 0001:000079a0       ?FinalConstruct@CRegObject@ATL@@QEAAJXZ 00000001800089a0 f i OposInternals.obj
 0001:000079e0       ?FindKey@?$CSimpleMap@PEA_WPEA_WVCExpansionVectorEqualHelper@ATL@@@ATL@@QEBAHAEBQEA_W@Z 00000001800089e0 f i OposInternals.obj
 0001:00007a60       ?Free@?$CAutoVectorPtr@_W@ATL@@QEAAXXZ 0000000180008a60 f i OposInternals.obj
 0001:00007ab0       ?FreeHeap@?$CTempBuffer@E$0BAA@VCCRTAllocator@ATL@@@ATL@@AEAAXXZ 0000000180008ab0 f i OposInternals.obj
 0001:00007af0       ?FreeHeap@?$CTempBuffer@_W$0BAA@VCCRTAllocator@ATL@@@ATL@@AEAAXXZ 0000000180008af0 f i OposInternals.obj
 0001:00007b30       ?FreeHeap@?$CTempBuffer@_W$0EAA@VCCRTAllocator@ATL@@@ATL@@AEAAXXZ 0000000180008b30 f i OposInternals.obj
 0001:00007b70       ?GenerateError@CRegParser@ATL@@IEAAJI@Z 0000000180008b70 f i OposInternals.obj
 0001:00007b90       ?GetAppId@?$CAtlModuleT@VCComModule@ATL@@@ATL@@SAPEB_WXZ 0000000180008b90 f i OposInternals.obj
 0001:00007ba0       ?GetClassObject@CComModule@ATL@@QEAAJAEBU_GUID@@0PEAPEAX@Z 0000000180008ba0 f i OposInternals.obj
 0001:00007e10       ?GetGITPtr@CAtlModule@ATL@@UEAAJPEAPEAUIGlobalInterfaceTable@@@Z 0000000180008e10 f i OposInternals.obj
 0001:00007f50       ?GetKeyAt@?$CSimpleMap@PEA_WPEA_WVCExpansionVectorEqualHelper@ATL@@@ATL@@QEBAAEAPEA_WH@Z 0000000180008f50 f i OposInternals.obj
 0001:00008000       ?GetLockCount@CAtlModule@ATL@@UEAAJXZ 0000000180009000 f i OposInternals.obj
 0001:00008010       ?GetSize@?$CSimpleMap@PEA_WPEA_WVCExpansionVectorEqualHelper@ATL@@@ATL@@QEBAHXZ 0000000180009010 f i OposInternals.obj
 0001:00008020       ?GetValueAt@?$CSimpleMap@PEA_WPEA_WVCExpansionVectorEqualHelper@ATL@@@ATL@@QEBAAEAPEA_WH@Z 0000000180009020 f i OposInternals.obj
 0001:000080d0       ?HKeyFromString@CRegParser@ATL@@KAPEAUHKEY__@@PEA_W@Z 00000001800090d0 f i OposInternals.obj
 0001:00008160       ?HasSubKeys@CRegParser@ATL@@IEAAHPEAUHKEY__@@@Z 0000000180009160 f i OposInternals.obj
 0001:000082d0       ?Increment@CComMultiThreadModel@ATL@@SAKPEAJ@Z 00000001800092d0 f i OposInternals.obj
 0001:000082f0       ?Init@CComFakeCriticalSection@ATL@@QEAAJXZ 00000001800092f0 f i OposInternals.obj
 0001:00008300       ?Init@CComModule@ATL@@QEAAJPEAU_ATL_OBJMAP_ENTRY30@2@PEAUHINSTANCE__@@PEBU_GUID@@@Z 0000000180009300 f i OposInternals.obj
 0001:000083f0       ?InitLibId@?$CAtlModuleT@VCComModule@ATL@@@ATL@@SAXXZ 00000001800093f0 f i OposInternals.obj
 0001:00008400       ?InternalSetAtIndex@?$CSimpleMap@PEA_WPEA_WVCExpansionVectorEqualHelper@ATL@@@ATL@@QEAAXHAEBQEA_W0@Z 0000000180009400 f i OposInternals.obj
 0001:000084d0       ?IsEqualKey@CExpansionVectorEqualHelper@ATL@@SA_NQEA_W0@Z 00000001800094d0 f i OposInternals.obj
 0001:00008520       ?IsSpace@CRegParser@ATL@@IEAAH_W@Z 0000000180009520 f i OposInternals.obj
 0001:00008580       ?Length@CComBSTR@ATL@@QEBAIXZ 0000000180009580 f i OposInternals.obj
 0001:000085c0       ?Lock@?$CComCritSecLock@VCComCriticalSection@ATL@@@ATL@@QEAAJXZ 00000001800095c0 f i OposInternals.obj
 0001:000086b0       ?Lock@CAtlModule@ATL@@UEAAJXZ 00000001800096b0 f i OposInternals.obj
 0001:000086f0       ?Lock@CComCriticalSection@ATL@@QEAAJXZ 00000001800096f0 f i OposInternals.obj
 0001:00008730       ?Lock@CComFakeCriticalSection@ATL@@QEAAJXZ 0000000180009730 f i OposInternals.obj
 0001:00008740       ?Lookup@?$CSimpleMap@PEA_WPEA_WVCExpansionVectorEqualHelper@ATL@@@ATL@@QEBAPEA_WAEBQEA_W@Z 0000000180009740 f i OposInternals.obj
 0001:000087a0       ?NextToken@CRegParser@ATL@@IEAAJPEA_W@Z 00000001800097a0 f i OposInternals.obj
 0001:00008b30       ?OLE2CT_EX@@YAPEB_WPEB_WI@Z 0000000180009b30 f i OposInternals.obj
 0001:00008b50       ?OLE2T_EX@@YAPEA_WPEA_WI@Z 0000000180009b50 f i OposInternals.obj
 0001:00008b70       ?Open@CRegKey@ATL@@QEAAJPEAUHKEY__@@PEB_WK@Z 0000000180009b70 f i OposInternals.obj
 0001:00008cf0       ?PreProcessBuffer@CRegParser@ATL@@QEAAJPEA_WPEAPEA_W@Z 0000000180009cf0 f i OposInternals.obj
 0001:000093d0       ?QueryInterface@CRegObject@ATL@@UEAAJAEBU_GUID@@PEAPEAX@Z 000000018000a3d0 f i OposInternals.obj
 0001:00009450       ?RecurseDeleteKey@CRegKey@ATL@@QEAAJPEB_W@Z 000000018000a450 f i OposInternals.obj
 0001:00009670       ?RegCreateKeyExW@CAtlTransactionManager@ATL@@QEAAJPEAUHKEY__@@PEB_WKPEA_WKKQEAU_SECURITY_ATTRIBUTES@@PEAPEAU3@PEAK@Z 000000018000a670 f i OposInternals.obj
 0001:00009840       ?RegDeleteKeyW@CAtlTransactionManager@ATL@@QEAAJPEAUHKEY__@@PEB_W@Z 000000018000a840 f i OposInternals.obj
 0001:00009950       ?RegOpenKeyExW@CAtlTransactionManager@ATL@@QEAAJPEAUHKEY__@@PEB_WKKPEAPEAU3@@Z 000000018000a950 f i OposInternals.obj
 0001:00009aa0       ?RegisterBuffer@CRegParser@ATL@@QEAAJPEA_WH@Z 000000018000aaa0 f i OposInternals.obj
 0001:00009e90       ?RegisterFromResource@CRegObject@ATL@@IEAAJPEB_W00H@Z 000000018000ae90 f i OposInternals.obj
 0001:0000a2f0       ?RegisterServer@?$CAtlModuleT@VCComModule@ATL@@@ATL@@QEAAJHPEBU_GUID@@@Z 000000018000b2f0 f i OposInternals.obj
 0001:0000a370       ?RegisterServer@CAtlComModule@ATL@@QEAAJHPEBU_GUID@@@Z 000000018000b370 f i OposInternals.obj
 0001:0000a3b0       ?RegisterServer@CComModule@ATL@@QEAAJHPEBU_GUID@@@Z 000000018000b3b0 f i OposInternals.obj
 0001:0000a4b0       ?RegisterSubkeys@CRegParser@ATL@@IEAAJPEA_WPEAUHKEY__@@HH@Z 000000018000b4b0 f i OposInternals.obj
 0001:0000b290       ?Release@CRegObject@ATL@@UEAAKXZ 000000018000c290 f i OposInternals.obj
 0001:0000b300       ?RemoveAll@?$CSimpleMap@PEA_WPEA_WVCExpansionVectorEqualHelper@ATL@@@ATL@@QEAAXXZ 000000018000c300 f i OposInternals.obj
 0001:0000b3a0       ?ResourceRegister@CRegObject@ATL@@QEAAJPEB_WI0@Z 000000018000c3a0 f i OposInternals.obj
 0001:0000b480       ?ResourceRegisterSz@CRegObject@ATL@@QEAAJPEB_W00@Z 000000018000c480 f i OposInternals.obj
 0001:0000b5a0       ?ResourceUnregister@CRegObject@ATL@@QEAAJPEB_WI0@Z 000000018000c5a0 f i OposInternals.obj
 0001:0000b680       ?ResourceUnregisterSz@CRegObject@ATL@@QEAAJPEB_W00@Z 000000018000c680 f i OposInternals.obj
 0001:0000b7a0       ?SetDWORDValue@CRegKey@ATL@@QEAAJPEB_WK@Z 000000018000c7a0 f i OposInternals.obj
 0001:0000b850       ?SetMultiStringValue@CRegKey@ATL@@QEAAJPEB_W0@Z 000000018000c850 f i OposInternals.obj
 0001:0000b9c0       ?SetStringValue@CRegKey@ATL@@QEAAJPEB_W0K@Z 000000018000c9c0 f i OposInternals.obj
 0001:0000bb40       ?SkipAssignment@CRegParser@ATL@@IEAAJPEA_W@Z 000000018000cb40 f i OposInternals.obj
 0001:0000bc40       ?SkipWhiteSpace@CRegParser@ATL@@IEAAXXZ 000000018000cc40 f i OposInternals.obj
 0001:0000bca0       ?StrChrW@CRegParser@ATL@@KAPEA_WPEA_W_W@Z 000000018000cca0 f i OposInternals.obj
 0001:0000bd20       ?StrFromMap@CRegObject@ATL@@QEAAPEB_WPEA_W@Z 000000018000cd20 f i OposInternals.obj
 0001:0000bde0       ?T2COLE_EX@@YAPEB_WPEB_WI@Z 000000018000cde0 f i OposInternals.obj
 0001:0000be00       ?T2OLE_EX@@YAPEA_WPEA_WI@Z 000000018000ce00 f i OposInternals.obj
 0001:0000be20       ?Term@CAtlModule@ATL@@QEAAXXZ 000000018000ce20 f i OposInternals.obj
 0001:0000bee0       ?Term@CComModule@ATL@@QEAAXXZ 000000018000cee0 f i OposInternals.obj
 0001:0000bfd0       ?Unlock@?$CComCritSecLock@VCComCriticalSection@ATL@@@ATL@@QEAAXXZ 000000018000cfd0 f i OposInternals.obj
 0001:0000c060       ?Unlock@CAtlModule@ATL@@UEAAJXZ 000000018000d060 f i OposInternals.obj
 0001:0000c0a0       ?Unlock@CComCriticalSection@ATL@@QEAAJXZ 000000018000d0a0 f i OposInternals.obj
 0001:0000c0e0       ?Unlock@CComFakeCriticalSection@ATL@@QEAAJXZ 000000018000d0e0 f i OposInternals.obj
 0001:0000c0f0       ?UnregisterServer@?$CAtlModuleT@VCComModule@ATL@@@ATL@@QEAAJHPEBU_GUID@@@Z 000000018000d0f0 f i OposInternals.obj
 0001:0000c160       ?UnregisterServer@CAtlComModule@ATL@@QEAAJHPEBU_GUID@@@Z 000000018000d160 f i OposInternals.obj
 0001:0000c1a0       ?UnregisterServer@CComModule@ATL@@QEAAJHPEBU_GUID@@@Z 000000018000d1a0 f i OposInternals.obj
 0001:0000c290       ?UpdateRegistryFromResource@CAtlModule@ATL@@QEAAJIHPEAU_ATL_REGMAP_ENTRY@2@@Z 000000018000d290 f i OposInternals.obj
 0001:0000c7c0       ?UpdateRegistryFromResource@CAtlModule@ATL@@QEAAJPEB_WHPEAU_ATL_REGMAP_ENTRY@2@@Z 000000018000d7c0 f i OposInternals.obj
 0001:0000cd10       ?UpdateRegistryFromResource@CComModule@ATL@@UEAAJIHPEAU_ATL_REGMAP_ENTRY@2@@Z 000000018000dd10 f i OposInternals.obj
 0001:0000cd60       ?UpdateRegistryFromResource@CComModule@ATL@@UEAAJPEB_WHPEAU_ATL_REGMAP_ENTRY@2@@Z 000000018000dd60 f i OposInternals.obj
 0001:0000cdb0       ?UpdateRegistryFromResourceD@CComModule@ATL@@UEAAJIHPEAU_ATL_REGMAP_ENTRY@2@@Z 000000018000ddb0 f i OposInternals.obj
 0001:0000cdd0       ?UpdateRegistryFromResourceD@CComModule@ATL@@UEAAJPEB_WHPEAU_ATL_REGMAP_ENTRY@2@@Z 000000018000ddd0 f i OposInternals.obj
 0001:0000cdf0       ?VTFromRegType@CRegParser@ATL@@KAHPEB_WAEAG@Z 000000018000ddf0 f i OposInternals.obj
 0001:0000ced0       ?_AtlGetConversionACP@ATL@@YAIXZ 000000018000ded0 f i OposInternals.obj
 0001:0000cee0       ?atlCreate@CRegKey@ATL@@QEAAJPEAUHKEY__@@PEB_WPEA_WKKPEAU_SECURITY_ATTRIBUTES@@PEAK@Z 000000018000dee0 f i OposInternals.obj
 0001:0000d0d0       ?memcpy_s@Checked@ATL@@YAXPEAX_KPEBX1@Z 000000018000e0d0 f i OposInternals.obj
 0001:0000d130       ?ocscpy_s@@YA_NPEA_W_KPEB_W@Z 000000018000e130 f i OposInternals.obj
 0001:0000d1b0       ?ocslen@@YAHPEB_W@Z        000000018000e1b0 f i OposInternals.obj
 0001:0000d1f0       ?tcsncpy_s@Checked@ATL@@YAHPEA_W_KPEB_W1@Z 000000018000e1f0 f i OposInternals.obj
 0001:0000d250       ?wcscat_s@Checked@ATL@@YAXPEA_W_KPEB_W@Z 000000018000e250 f i OposInternals.obj
 0001:0000d2a0       ?wcscpy_s@Checked@ATL@@YAXPEA_W_KPEB_W@Z 000000018000e2a0 f i OposInternals.obj
 0001:0000d2f0       ?wcsncpy_s@Checked@ATL@@YAHPEA_W_KPEB_W1@Z 000000018000e2f0 f i OposInternals.obj
 0001:0000d350       ?wcsstr@@YAPEA_WPEA_WPEB_W@Z 000000018000e350 f i OposInternals.obj
 0001:0000d390       InlineIsEqualGUID          000000018000e390 f i OposInternals.obj
 0001:0000d460       IsEqualGUID                000000018000e460 f i OposInternals.obj
 0001:0000d4b8       DecodePointer              000000018000e4b8 f   kernel32:KERNEL32.dll
 0001:0000d4be       RaiseException             000000018000e4be f   kernel32:KERNEL32.dll
 0001:0000d4c4       GetLastError               000000018000e4c4 f   kernel32:KERNEL32.dll
 0001:0000d4ca       SetLastError               000000018000e4ca f   kernel32:KERNEL32.dll
 0001:0000d4d0       InitializeCriticalSectionEx 000000018000e4d0 f   kernel32:KERNEL32.dll
 0001:0000d4d6       DeleteCriticalSection      000000018000e4d6 f   kernel32:KERNEL32.dll
 0001:0000d4dc       EncodePointer              000000018000e4dc f   kernel32:KERNEL32.dll
 0001:0000d4e2       EnterCriticalSection       000000018000e4e2 f   kernel32:KERNEL32.dll
 0001:0000d4e8       LeaveCriticalSection       000000018000e4e8 f   kernel32:KERNEL32.dll
 0001:0000d4ee       DisableThreadLibraryCalls  000000018000e4ee f   kernel32:KERNEL32.dll
 0001:0000d4f4       FreeLibrary                000000018000e4f4 f   kernel32:KERNEL32.dll
 0001:0000d4fa       GetModuleFileNameW         000000018000e4fa f   kernel32:KERNEL32.dll
 0001:0000d500       GetModuleHandleW           000000018000e500 f   kernel32:KERNEL32.dll
 0001:0000d506       GetProcAddress             000000018000e506 f   kernel32:KERNEL32.dll
 0001:0000d50c       LoadLibraryExW             000000018000e50c f   kernel32:KERNEL32.dll
 0001:0000d512       LoadResource               000000018000e512 f   kernel32:KERNEL32.dll
 0001:0000d518       SizeofResource             000000018000e518 f   kernel32:KERNEL32.dll
 0001:0000d51e       FindResourceW              000000018000e51e f   kernel32:KERNEL32.dll
 0001:0000d524       lstrcmpiW                  000000018000e524 f   kernel32:KERNEL32.dll
 0001:0000d52a       MultiByteToWideChar        000000018000e52a f   kernel32:KERNEL32.dll
 0001:0000d530       UnregisterClassW           000000018000e530 f   user32:USER32.dll
 0001:0000d536       CharNextW                  000000018000e536 f   user32:USER32.dll
 0001:0000d53c       RegCloseKey                000000018000e53c f   advapi32:ADVAPI32.dll
 0001:0000d542       RegCreateKeyExW            000000018000e542 f   advapi32:ADVAPI32.dll
 0001:0000d548       RegDeleteKeyW              000000018000e548 f   advapi32:ADVAPI32.dll
 0001:0000d54e       RegDeleteValueW            000000018000e54e f   advapi32:ADVAPI32.dll
 0001:0000d554       RegEnumKeyExW              000000018000e554 f   advapi32:ADVAPI32.dll
 0001:0000d55a       RegOpenKeyExW              000000018000e55a f   advapi32:ADVAPI32.dll
 0001:0000d560       RegQueryInfoKeyW           000000018000e560 f   advapi32:ADVAPI32.dll
 0001:0000d566       RegSetValueExW             000000018000e566 f   advapi32:ADVAPI32.dll
 0001:0000d56c       CoCreateInstance           000000018000e56c f   ole32:ole32.dll
 0001:0000d572       StringFromGUID2            000000018000e572 f   ole32:ole32.dll
 0001:0000d578       CoTaskMemAlloc             000000018000e578 f   ole32:ole32.dll
 0001:0000d57e       CoTaskMemRealloc           000000018000e57e f   ole32:ole32.dll
 0001:0000d584       CoTaskMemFree              000000018000e584 f   ole32:ole32.dll
 0001:0000d58a       SysFreeString              000000018000e58a f   oleaut32:OLEAUT32.dll
 0001:0000d590       SysAllocString             000000018000e590 f   oleaut32:OLEAUT32.dll
 0001:0000d596       SysStringLen               000000018000e596 f   oleaut32:OLEAUT32.dll
 0001:0000d59c       VarUI4FromStr              000000018000e59c f   oleaut32:OLEAUT32.dll
 0001:0000d5a2       LoadTypeLib                000000018000e5a2 f   oleaut32:OLEAUT32.dll
 0001:0000d5a8       RegisterTypeLib            000000018000e5a8 f   oleaut32:OLEAUT32.dll
 0001:0000d5ae       UnRegisterTypeLib          000000018000e5ae f   oleaut32:OLEAUT32.dll
 0001:0000d5b4       ??$?2PEAUHINSTANCE__@@@Wrapper@?$CSimpleArray@PEAUHINSTANCE__@@V?$CSimpleArrayEqualHelper@PEAUHINSTANCE__@@@ATL@@@ATL@@SAPEAX_KPEAPEAUHINSTANCE__@@@Z 000000018000e5b4 f i atls:atlbase.obj
 0001:0000d5b8       ??0?$CSimpleArray@PEAUHINSTANCE__@@V?$CSimpleArrayEqualHelper@PEAUHINSTANCE__@@@ATL@@@ATL@@QEAA@XZ 000000018000e5b8 f i atls:atlbase.obj
 0001:0000d5c8       ??0CAtlBaseModule@ATL@@QEAA@XZ 000000018000e5c8 f   atls:atlbase.obj
 0001:0000d670       ??0Wrapper@?$CSimpleArray@PEAUHINSTANCE__@@V?$CSimpleArrayEqualHelper@PEAUHINSTANCE__@@@ATL@@@ATL@@QEAA@AEBQEAUHINSTANCE__@@@Z 000000018000e670 f i atls:atlbase.obj
 0001:0000d67c       ??0_ATL_BASE_MODULE70@ATL@@QEAA@XZ 000000018000e67c f i atls:atlbase.obj
 0001:0000d6a8       ??1?$CSimpleArray@PEAUHINSTANCE__@@V?$CSimpleArrayEqualHelper@PEAUHINSTANCE__@@@ATL@@@ATL@@QEAA@XZ 000000018000e6a8 f i atls:atlbase.obj
 0001:0000d6d0       ??1CAtlBaseModule@ATL@@QEAA@XZ 000000018000e6d0 f   atls:atlbase.obj
 0001:0000d704       ??1_ATL_BASE_MODULE70@ATL@@QEAA@XZ 000000018000e704 f i atls:atlbase.obj
 0001:0000d730       ??A?$CSimpleArray@PEAUHINSTANCE__@@V?$CSimpleArrayEqualHelper@PEAUHINSTANCE__@@@ATL@@@ATL@@QEAAAEAPEAUHINSTANCE__@@H@Z 000000018000e730 f i atls:atlbase.obj
 0001:0000d75c       ?Add@?$CSimpleArray@PEAUHINSTANCE__@@V?$CSimpleArrayEqualHelper@PEAUHINSTANCE__@@@ATL@@@ATL@@QEAAHAEBQEAUHINSTANCE__@@@Z 000000018000e75c f i atls:atlbase.obj
 0001:0000d810       ?AddResourceInstance@CAtlBaseModule@ATL@@QEAA_NPEAUHINSTANCE__@@@Z 000000018000e810 f   atls:atlbase.obj
 0001:0000d858       ?GetHInstanceAt@CAtlBaseModule@ATL@@QEAAPEAUHINSTANCE__@@H@Z 000000018000e858 f   atls:atlbase.obj
 0001:0000d8d0       ?GetSize@?$CSimpleArray@PEAUHINSTANCE__@@V?$CSimpleArrayEqualHelper@PEAUHINSTANCE__@@@ATL@@@ATL@@QEBAHXZ 000000018000e8d0 f i atls:atlbase.obj
 0001:0000d8d4       ?InternalSetAtIndex@?$CSimpleArray@PEAUHINSTANCE__@@V?$CSimpleArrayEqualHelper@PEAUHINSTANCE__@@@ATL@@@ATL@@QEAAXHAEBQEAUHINSTANCE__@@@Z 000000018000e8d4 f i atls:atlbase.obj
 0001:0000d8ec       ?RemoveAll@?$CSimpleArray@PEAUHINSTANCE__@@V?$CSimpleArrayEqualHelper@PEAUHINSTANCE__@@@ATL@@@ATL@@QEAAXXZ 000000018000e8ec f i atls:atlbase.obj
 0001:0000d914       ?RemoveAt@?$CSimpleArray@PEAUHINSTANCE__@@V?$CSimpleArrayEqualHelper@PEAUHINSTANCE__@@@ATL@@@ATL@@QEAAHH@Z 000000018000e914 f i atls:atlbase.obj
 0001:0000d9b8       ?RemoveResourceInstance@CAtlBaseModule@ATL@@QEAA_NPEAUHINSTANCE__@@@Z 000000018000e9b8 f   atls:atlbase.obj
 0001:0000da38       ?memmove_s@Checked@ATL@@YAXPEAX_KPEBX1@Z 000000018000ea38 f i atls:atlbase.obj
 0001:0000dae0       ??3@YAXPEAX_K@Z            000000018000eae0 f   LIBCMTD:delete_scalar_size.obj
 0001:0000db00       ??_V@YAXPEAX_K@Z           000000018000eb00 f   LIBCMTD:delete_array_size.obj
 0001:0000db20       ?configure_argv@__scrt_narrow_argv_policy@@SAHXZ 000000018000eb20 f i LIBCMTD:utility.obj
 0001:0000dc10       ?initialize_environment@__scrt_narrow_environment_policy@@SAHXZ 000000018000ec10 f i LIBCMTD:utility.obj
 0001:0000dcb0       NtCurrentTeb               000000018000ecb0 f i LIBCMTD:utility.obj
 0001:0000dcc0       __scrt_acquire_startup_lock 000000018000ecc0 f   LIBCMTD:utility.obj
 0001:0000dd30       __scrt_dllmain_after_initialize_c 000000018000ed30 f   LIBCMTD:utility.obj
 0001:0000dd60       __scrt_dllmain_before_initialize_c 000000018000ed60 f   LIBCMTD:utility.obj
 0001:0000dd80       __scrt_dllmain_crt_thread_attach 000000018000ed80 f   LIBCMTD:utility.obj
 0001:0000ddb0       __scrt_dllmain_crt_thread_detach 000000018000edb0 f   LIBCMTD:utility.obj
 0001:0000ddd0       __scrt_dllmain_exception_filter 000000018000edd0 f   LIBCMTD:utility.obj
 0001:0000de40       __scrt_dllmain_uninitialize_c 000000018000ee40 f   LIBCMTD:utility.obj
 0001:0000de70       __scrt_dllmain_uninitialize_critical 000000018000ee70 f   LIBCMTD:utility.obj
 0001:0000de90       __scrt_initialize_crt      000000018000ee90 f   LIBCMTD:utility.obj
 0001:0000dee0       __scrt_initialize_onexit_tables 000000018000eee0 f   LIBCMTD:utility.obj
 0001:0000dff0       __scrt_is_nonwritable_in_current_image 000000018000eff0 f   LIBCMTD:utility.obj
 0001:0000e080       __scrt_release_startup_lock 000000018000f080 f   LIBCMTD:utility.obj
 0001:0000e0b0       __scrt_uninitialize_crt    000000018000f0b0 f   LIBCMTD:utility.obj
 0001:0000e0f0       _onexit                    000000018000f0f0 f   LIBCMTD:utility.obj
 0001:0000e170       at_quick_exit              000000018000f170 f   LIBCMTD:utility.obj
 0001:0000e1c0       atexit                     000000018000f1c0 f   LIBCMTD:utility.obj
 0001:0000e200       _RTC_AllocaHelper          000000018000f200 f   LIBCMTD:stack.obj
 0001:0000e240       _RTC_CheckStackVars        000000018000f240 f   LIBCMTD:stack.obj
 0001:0000e2d0       _RTC_CheckStackVars2       000000018000f2d0 f   LIBCMTD:stack.obj
 0001:0000e3e0       _CRT_RTC_INIT              000000018000f3e0 f   LIBCMTD:init.obj
 0001:0000e3f0       _CRT_RTC_INITW             000000018000f3f0 f   LIBCMTD:init.obj
 0001:0000e400       _RTC_InitBase              000000018000f400 f   LIBCMTD:init.obj
 0001:0000e440       _RTC_Shutdown              000000018000f440 f   LIBCMTD:init.obj
 0001:0000e470       __GSHandlerCheck           000000018000f470 f   LIBCMTD:gshandler.obj
 0001:0000e4b0       __GSHandlerCheckCommon     000000018000f4b0 f   LIBCMTD:gshandler.obj
 0001:0000e5c0       __security_check_cookie    000000018000f5c0 f   LIBCMTD:amdsecgs.obj
 0001:0000e5f0       ??3@YAXPEAX@Z              000000018000f5f0 f   LIBCMTD:delete_scalar.obj
 0001:0000e610       ??_V@YAXPEAX@Z             000000018000f610 f   LIBCMTD:delete_array.obj
 0001:0000e630       __raise_securityfailure    000000018000f630 f   LIBCMTD:gs_report.obj
 0001:0000e670       __report_gsfailure         000000018000f670 f   LIBCMTD:gs_report.obj
 0001:0000e750       __report_rangecheckfailure 000000018000f750 f   LIBCMTD:gs_report.obj
 0001:0000e770       __report_securityfailure   000000018000f770 f   LIBCMTD:gs_report.obj
 0001:0000e810       __report_securityfailureEx 000000018000f810 f   LIBCMTD:gs_report.obj
 0001:0000ea80       ??_U@YAPEAX_KAEBUnothrow_t@std@@@Z 000000018000fa80 f   LIBCMTD:new_array_nothrow.obj
 0001:0000eac0       __chkstk                   000000018000fac0 f   LIBCMTD:chkstk.obj
 0001:0000eac0       _alloca_probe              000000018000fac0 f   LIBCMTD:chkstk.obj
 0001:0000ef30       _CRT_INIT                  000000018000ff30 f   LIBCMTD:dll_dllmain.obj
 0001:0000ef60       _DllMainCRTStartup         000000018000ff60 f   LIBCMTD:dll_dllmain.obj
 0001:0000efa0       _guard_check_icall_nop     000000018000ffa0 f i LIBCMTD:guard_support.obj
 0001:0000efb0       ReadNoFence64              000000018000ffb0 f i LIBCMTD:guard_support.obj
 0001:0000efd0       ReadPointerNoFence         000000018000ffd0 f i LIBCMTD:guard_support.obj
 0001:0000eff0       __castguard_check_failure_debugbreak 000000018000fff0 f i LIBCMTD:guard_support.obj
 0001:0000f010       __castguard_check_failure_fastfail 0000000180010010 f i LIBCMTD:guard_support.obj
 0001:0000f040       __castguard_check_failure_nop 0000000180010040 f i LIBCMTD:guard_support.obj
 0001:0000f050       __castguard_check_failure_os_handled 0000000180010050 f i LIBCMTD:guard_support.obj
 0001:0000f110       __castguard_slow_path_check_debugbreak 0000000180010110 f i LIBCMTD:guard_support.obj
 0001:0000f150       __castguard_slow_path_check_fastfail 0000000180010150 f i LIBCMTD:guard_support.obj
 0001:0000f1a0       __castguard_slow_path_check_nop 00000001800101a0 f i LIBCMTD:guard_support.obj
 0001:0000f1b0       __castguard_slow_path_check_os_handled 00000001800101b0 f i LIBCMTD:guard_support.obj
 0001:0000f290       _guard_icall_checks_enforced 0000000180010290 f i LIBCMTD:guard_support.obj
 0001:0000f2d0       _guard_rf_checks_enforced  00000001800102d0 f i LIBCMTD:guard_support.obj
 0001:0000f2e0       __isa_available_init       00000001800102e0 f   LIBCMTD:cpu_disp.obj
 0001:0000f680       _get_startup_argv_mode     0000000180010680 f   LIBCMTD:argv_mode.obj
 0001:0000f690       __scrt_is_ucrt_dll_in_use  0000000180010690 f   LIBCMTD:ucrt_detection.obj
 0001:0000f6c0       __crt_debugger_hook        00000001800106c0 f   LIBCMTD:utility_desktop.obj
 0001:0000f6d0       __scrt_fastfail            00000001800106d0 f   LIBCMTD:utility_desktop.obj
 0001:0000f870       __scrt_get_show_window_mode 0000000180010870 f   LIBCMTD:utility_desktop.obj
 0001:0000f8d0       __scrt_initialize_mta      00000001800108d0 f   LIBCMTD:utility_desktop.obj
 0001:0000f8e0       __scrt_initialize_winrt    00000001800108e0 f   LIBCMTD:utility_desktop.obj
 0001:0000f8f0       __scrt_is_managed_app      00000001800108f0 f   LIBCMTD:utility_desktop.obj
 0001:0000f9a0       __scrt_set_unhandled_exception_filter 00000001800109a0 f   LIBCMTD:utility_desktop.obj
 0001:0000f9c0       __scrt_stub_for_initialize_mta 00000001800109c0 f   LIBCMTD:utility_desktop.obj
 0001:0000f9c0       __scrt_exe_initialize_mta  00000001800109c0 f   LIBCMTD:utility_desktop.obj
 0001:0000f9d0       __scrt_unhandled_exception_filter 00000001800109d0 f   LIBCMTD:utility_desktop.obj
 0001:0000fb00       ?_RTC_AllocaFailure@@YAXPEAXPEAU_RTC_ALLOCA_NODE@@H@Z 0000000180010b00 f   LIBCMTD:error.obj
 0001:0000fc60       ?_RTC_Failure@@YAXPEAXH@Z  0000000180010c60 f   LIBCMTD:error.obj
 0001:0000fcb0       ?_RTC_StackFailure@@YAXPEAXPEBD@Z 0000000180010cb0 f   LIBCMTD:error.obj
 0001:000100e0       _RTC_UninitUse             00000001800110e0 f   LIBCMTD:error.obj
 0001:000101b0       _vsprintf_s_l              00000001800111b0 f i LIBCMTD:error.obj
 0001:00010220       sprintf_s                  0000000180011220 f i LIBCMTD:error.obj
 0001:00010250       ?_RTC_GetErrorFunc@@YAP6AHHPEBDH00ZZPEBX@Z 0000000180011250 f   LIBCMTD:userapi.obj
 0001:00010260       ?_RTC_GetErrorFuncW@@YAP6AHHPEB_WH00ZZPEBX@Z 0000000180011260 f   LIBCMTD:userapi.obj
 0001:00010270       _RTC_GetErrDesc            0000000180011270 f   LIBCMTD:userapi.obj
 0001:00010290       _RTC_NumErrors             0000000180011290 f   LIBCMTD:userapi.obj
 0001:000102a0       _RTC_SetErrorFunc          00000001800112a0 f   LIBCMTD:userapi.obj
 0001:000102c0       _RTC_SetErrorFuncW         00000001800112c0 f   LIBCMTD:userapi.obj
 0001:000102e0       _RTC_SetErrorType          00000001800112e0 f   LIBCMTD:userapi.obj
 0001:00010300       ??2@YAPEAX_KAEBUnothrow_t@std@@@Z 0000000180011300 f   LIBCMTD:new_scalar_nothrow.obj
 0001:00010400       __security_init_cookie     0000000180011400 f   LIBCMTD:gs_support.obj
 0001:00010480       ?__scrt_initialize_type_info@@YAXXZ 0000000180011480 f   LIBCMTD:tncleanup.obj
 0001:000104a0       ?__scrt_uninitialize_type_info@@YAXXZ 00000001800114a0 f   LIBCMTD:tncleanup.obj
 0001:000104c0       __local_stdio_scanf_options 00000001800114c0 f i LIBCMTD:default_local_stdio_options.obj
 0001:000104d0       __scrt_initialize_default_local_stdio_options 00000001800114d0 f   LIBCMTD:default_local_stdio_options.obj
 0001:00010520       __scrt_get_dyn_tls_init_callback 0000000180011520 f   LIBCMTD:dyn_tls_init.obj
 0001:00010530       _RTC_Initialize            0000000180011530 f   LIBCMTD:initsect.obj
 0001:00010580       _RTC_Terminate             0000000180011580 f   LIBCMTD:initsect.obj
 0001:00010ae0       ?_RTC_GetSrcLine@@YAHPEAEPEA_WKPEAH1K@Z 0000000180011ae0 f   LIBCMTD:pdblkup.obj
 0001:00010eb0       ??2@YAPEAX_K@Z             0000000180011eb0 f   LIBCMTD:new_scalar.obj
 0001:00010f00       ??0bad_alloc@std@@AEAA@QEBD@Z 0000000180011f00 f i LIBCMTD:throw_bad_alloc.obj
 0001:00010f40       ??0bad_alloc@std@@QEAA@AEBV01@@Z 0000000180011f40 f i LIBCMTD:throw_bad_alloc.obj
 0001:00010f80       ??0bad_alloc@std@@QEAA@XZ  0000000180011f80 f i LIBCMTD:throw_bad_alloc.obj
 0001:00010fc0       ??0bad_array_new_length@std@@QEAA@AEBV01@@Z 0000000180011fc0 f i LIBCMTD:throw_bad_alloc.obj
 0001:00011000       ??0bad_array_new_length@std@@QEAA@XZ 0000000180012000 f i LIBCMTD:throw_bad_alloc.obj
 0001:00011040       ??0exception@std@@QEAA@AEBV01@@Z 0000000180012040 f i LIBCMTD:throw_bad_alloc.obj
 0001:000110a0       ??0exception@std@@QEAA@QEBDH@Z 00000001800120a0 f i LIBCMTD:throw_bad_alloc.obj
 0001:000110f0       ??1bad_alloc@std@@UEAA@XZ  00000001800120f0 f i LIBCMTD:throw_bad_alloc.obj
 0001:00011110       ??1bad_array_new_length@std@@UEAA@XZ 0000000180012110 f i LIBCMTD:throw_bad_alloc.obj
 0001:00011130       ??1exception@std@@UEAA@XZ  0000000180012130 f i LIBCMTD:throw_bad_alloc.obj
 0001:00011160       ??_Gbad_alloc@std@@UEAAPEAXI@Z 0000000180012160 f i LIBCMTD:throw_bad_alloc.obj
 0001:00011160       ??_Ebad_alloc@std@@UEAAPEAXI@Z 0000000180012160 f i LIBCMTD:throw_bad_alloc.obj
 0001:000111a0       ??_Gbad_array_new_length@std@@UEAAPEAXI@Z 00000001800121a0 f i LIBCMTD:throw_bad_alloc.obj
 0001:000111a0       ??_Ebad_array_new_length@std@@UEAAPEAXI@Z 00000001800121a0 f i LIBCMTD:throw_bad_alloc.obj
 0001:000111e0       ??_Gexception@std@@UEAAPEAXI@Z 00000001800121e0 f i LIBCMTD:throw_bad_alloc.obj
 0001:000111e0       ??_Eexception@std@@UEAAPEAXI@Z 00000001800121e0 f i LIBCMTD:throw_bad_alloc.obj
 0001:00011220       ?__scrt_throw_std_bad_alloc@@YAXXZ 0000000180012220 f   LIBCMTD:throw_bad_alloc.obj
 0001:00011250       ?__scrt_throw_std_bad_array_new_length@@YAXXZ 0000000180012250 f   LIBCMTD:throw_bad_alloc.obj
 0001:00011280       ?what@exception@std@@UEBAPEBDXZ 0000000180012280 f i LIBCMTD:throw_bad_alloc.obj
 0001:000112c0       ??1type_info@@UEAA@XZ      00000001800122c0 f   LIBCMTD:std_type_info_static.obj
 0001:000112e0       ??_Gtype_info@@UEAAPEAXI@Z 00000001800122e0 f i LIBCMTD:std_type_info_static.obj
 0001:000112e0       ??_Etype_info@@UEAAPEAXI@Z 00000001800122e0 f i LIBCMTD:std_type_info_static.obj
 0001:00011330       memset_repmovs             0000000180012330 f   libvcruntimed:memset.obj
 0001:00011350       memset                     0000000180012350 f   libvcruntimed:memset.obj
 0001:000114f0       memcmp                     00000001800124f0 f   libvcruntimed:memcmp.obj
 0001:000115d0       memcpy_repmovs             00000001800125d0 f   libvcruntimed:memcpy.obj
 0001:000115f0       memmove                    00000001800125f0 f   libvcruntimed:memcpy.obj
 0001:000115f0       memcpy                     00000001800125f0 f   libvcruntimed:memcpy.obj
 0001:000119d0       wcsstr                     00000001800129d0 f   libvcruntimed:wcsstr.obj
 0001:00012030       __vcrt_initialize          0000000180013030 f   libvcruntimed:initialization.obj
 0001:00012070       __vcrt_thread_attach       0000000180013070 f   libvcruntimed:initialization.obj
 0001:00012090       __vcrt_thread_detach       0000000180013090 f   libvcruntimed:initialization.obj
 0001:000120b0       __vcrt_uninitialize        00000001800130b0 f   libvcruntimed:initialization.obj
 0001:000120d0       __vcrt_uninitialize_critical 00000001800130d0 f   libvcruntimed:initialization.obj
 0001:000120f0       __C_specific_handler       00000001800130f0 f   libvcruntimed:riscchandler.obj
 0001:00012560       __DestructExceptionObject  0000000180013560 f   libvcruntimed:ehhelpers.obj
 0001:00012660       ?_CallMemberFunction0@@YAXQEAX0@Z 0000000180013660 f i libvcruntimed:ehhelpers.obj
 0001:00012730       ?raw_name@type_info@@QEBAPEBDXZ 0000000180013730 f i libvcruntimed:ehhelpers.obj
 0001:00012740       _IsExceptionObjectToBeDestroyed 0000000180013740 f   libvcruntimed:ehhelpers.obj
 0001:00012790       _SetWinRTOutOfMemoryExceptionCallback 0000000180013790 f   libvcruntimed:ehhelpers.obj
 0001:000127b0       __AdjustPointer            00000001800137b0 f   libvcruntimed:ehhelpers.obj
 0001:00012830       __FrameUnwindFilter        0000000180013830 f   libvcruntimed:ehhelpers.obj
 0001:000128e0       __GetPlatformExceptionInfo 00000001800138e0 f   libvcruntimed:ehhelpers.obj
 0001:00012990       __current_exception        0000000180013990 f   libvcruntimed:ehhelpers.obj
 0001:000129b0       __current_exception_context 00000001800139b0 f   libvcruntimed:ehhelpers.obj
 0001:000129d0       __processing_throw         00000001800139d0 f   libvcruntimed:ehhelpers.obj
 0001:000129f0       __std_terminate            00000001800139f0 f   libvcruntimed:ehhelpers.obj
 0001:00012a00       _is_exception_typeof       0000000180013a00 f   libvcruntimed:ehhelpers.obj
 0001:00012b50       __C_specific_handler_noexcept 0000000180013b50 f   libvcruntimed:chandler_noexcept.obj
 0001:00012be0       ??$?0AEAViterator@TryBlockMap4@FH4@@AEAV012@$0A@@?$pair@Viterator@TryBlockMap4@FH4@@V123@@std@@QEAA@AEAViterator@TryBlockMap4@FH4@@0@Z 0000000180013be0 f i libvcruntimed:risctrnsctrl.obj
 0001:00012c40       ??$?0AEAViterator@TryBlockMap@__FrameHandler3@@AEAV012@$0A@@?$pair@Viterator@TryBlockMap@__FrameHandler3@@V123@@std@@QEAA@AEAViterator@TryBlockMap@__FrameHandler3@@0@Z 0000000180013c40 f i libvcruntimed:risctrnsctrl.obj
 0001:00012e10       ??$_CallSETranslator@V__FrameHandler3@@@@YAHPEAUEHExceptionRecord@@PEA_KPEAU_CONTEXT@@PEAU_xDISPATCHER_CONTEXT@@PEBU_s_FuncInfo@@K1H@Z 0000000180013e10 f i libvcruntimed:risctrnsctrl.obj
 0001:00012ea0       ??$_CallSETranslator@V__FrameHandler4@@@@YAHPEAUEHExceptionRecord@@PEA_KPEAU_CONTEXT@@PEAU_xDISPATCHER_CONTEXT@@PEAUFuncInfo4@FH4@@K1H@Z 0000000180013ea0 f i libvcruntimed:risctrnsctrl.obj
 0001:00012f30       ??$forward@AEAViterator@TryBlockMap4@FH4@@@std@@YAAEAViterator@TryBlockMap4@FH4@@AEAV123@@Z 0000000180013f30 f i libvcruntimed:risctrnsctrl.obj
 0001:00012f40       ??$forward@AEAViterator@TryBlockMap@__FrameHandler3@@@std@@YAAEAViterator@TryBlockMap@__FrameHandler3@@AEAV123@@Z 0000000180013f40 f i libvcruntimed:risctrnsctrl.obj
 0001:00012f50       ??0FuncInfo4@FH4@@QEAA@XZ  0000000180013f50 f i libvcruntimed:risctrnsctrl.obj
 0001:00012fc0       ??0FuncInfoHeader@FH4@@QEAA@XZ 0000000180013fc0 f i libvcruntimed:risctrnsctrl.obj
 0001:00012fe0       ??0iterator@TryBlockMap4@FH4@@QEAA@AEAV12@I@Z 0000000180013fe0 f i libvcruntimed:risctrnsctrl.obj
 0001:00013010       ??0iterator@TryBlockMap@__FrameHandler3@@QEAA@AEAV12@I@Z 0000000180014010 f i libvcruntimed:risctrnsctrl.obj
 0001:00013040       ??4iterator@TryBlockMap4@FH4@@QEAAAEAV012@AEBV012@@Z 0000000180014040 f i libvcruntimed:risctrnsctrl.obj
 0001:00013060       ??9iterator@TryBlockMap4@FH4@@QEBA_NAEBV012@@Z 0000000180014060 f i libvcruntimed:risctrnsctrl.obj
 0001:000130a0       ??Diterator@TryBlockMap4@FH4@@QEAA?AUTryBlockMapEntry4@2@XZ 00000001800140a0 f i libvcruntimed:risctrnsctrl.obj
 0001:000130d0       ??Eiterator@TryBlockMap4@FH4@@QEAAAEAV012@XZ 00000001800140d0 f i libvcruntimed:risctrnsctrl.obj
 0001:00013110       ?CatchTryBlock@__FrameHandler3@@SAPEBU_s_TryBlockMapEntry@@PEBU_s_FuncInfo@@H@Z 0000000180014110 f   libvcruntimed:risctrnsctrl.obj
 0001:000131a0       ?DecompFuncInfo@FH4@@YA_JPEAEAEAUFuncInfo4@1@_KH@Z 00000001800141a0 f i libvcruntimed:risctrnsctrl.obj
 0001:000131e0       ?DecompFuncInfo@FH4@@YA_JPEAEAEAUFuncInfo4@1@_KH_N@Z 00000001800141e0 f i libvcruntimed:risctrnsctrl.obj
 0001:000133b0       ?DecompTryBlock@TryBlockMap4@FH4@@AEAAXXZ 00000001800143b0 f i libvcruntimed:risctrnsctrl.obj
 0001:00013430       ?ExecutionInCatch@__FrameHandler3@@SA_NPEAU_xDISPATCHER_CONTEXT@@PEBU_s_FuncInfo@@@Z 0000000180014430 f   libvcruntimed:risctrnsctrl.obj
 0001:00013480       ?ExecutionInCatch@__FrameHandler4@@SA_NPEAU_xDISPATCHER_CONTEXT@@PEAUFuncInfo4@FH4@@@Z 0000000180014480 f   libvcruntimed:risctrnsctrl.obj
 0001:000134a0       ?FrameUnwindToEmptyState@__FrameHandler3@@SAXPEA_KPEAU_xDISPATCHER_CONTEXT@@PEBU_s_FuncInfo@@@Z 00000001800144a0 f   libvcruntimed:risctrnsctrl.obj
 0001:00013540       ?FrameUnwindToEmptyState@__FrameHandler4@@SAXPEA_KPEAU_xDISPATCHER_CONTEXT@@PEAUFuncInfo4@FH4@@@Z 0000000180014540 f   libvcruntimed:risctrnsctrl.obj
 0001:00013590       ?GetEstablisherFrame@__FrameHandler3@@SAPEA_KPEA_KPEAU_xDISPATCHER_CONTEXT@@PEBU_s_FuncInfo@@0@Z 0000000180014590 f   libvcruntimed:risctrnsctrl.obj
 0001:00013700       ?GetEstablisherFrame@__FrameHandler4@@SAPEA_KPEA_KPEAU_xDISPATCHER_CONTEXT@@PEAUFuncInfo4@FH4@@0@Z 0000000180014700 f   libvcruntimed:risctrnsctrl.obj
 0001:00013770       ?GetRangeOfTrysToCheck@__FrameHandler3@@SA?AU?$pair@Viterator@TryBlockMap@__FrameHandler3@@V123@@std@@AEAVTryBlockMap@1@HPEAU_xDISPATCHER_CONTEXT@@PEBU_s_FuncInfo@@H@Z 0000000180014770 f   libvcruntimed:risctrnsctrl.obj
 0001:000139b0       ?GetRangeOfTrysToCheck@__FrameHandler4@@SA?AU?$pair@Viterator@TryBlockMap4@FH4@@V123@@std@@AEAVTryBlockMap4@FH4@@HPEAU_xDISPATCHER_CONTEXT@@PEAUFuncInfo4@5@H@Z 00000001800149b0 f   libvcruntimed:risctrnsctrl.obj
 0001:00013b60       ?ReadInt@FH4@@YAHPEAPEAE@Z 0000000180014b60 f i libvcruntimed:risctrnsctrl.obj
 0001:00013ba0       ?ReadUnsigned@FH4@@YAIPEAPEAE@Z 0000000180014ba0 f i libvcruntimed:risctrnsctrl.obj
 0001:00013c30       ?UnwindNestedFrames@__FrameHandler3@@SAXPEA_KPEAUEHExceptionRecord@@PEAU_CONTEXT@@0PEAXPEBU_s_FuncInfo@@HHPEBU_s_HandlerType@@PEAU_xDISPATCHER_CONTEXT@@E@Z 0000000180014c30 f   libvcruntimed:risctrnsctrl.obj
 0001:00013da0       ?UnwindNestedFrames@__FrameHandler4@@SAXPEA_KPEAUEHExceptionRecord@@PEAU_CONTEXT@@0PEAXPEAUFuncInfo4@FH4@@HHPEAUHandlerType4@5@PEAU_xDISPATCHER_CONTEXT@@E@Z 0000000180014da0 f   libvcruntimed:risctrnsctrl.obj
 0001:00013f70       ?begin@TryBlockMap4@FH4@@QEAA?AViterator@12@XZ 0000000180014f70 f i libvcruntimed:risctrnsctrl.obj
 0001:00013fa0       ?end@TryBlockMap4@FH4@@QEAA?AViterator@12@XZ 0000000180014fa0 f i libvcruntimed:risctrnsctrl.obj
 0001:00013fd0       ?imageRelToByteBuffer@FH4@@YAPEAE_KH@Z 0000000180014fd0 f i libvcruntimed:risctrnsctrl.obj
 0001:00013ff0       ?incrementToSentinel@iterator@TryBlockMap4@FH4@@QEAAXXZ 0000000180014ff0 f i libvcruntimed:risctrnsctrl.obj
 0001:00014010       ?setBuffer@TryBlockMap4@FH4@@QEAAXViterator@12@@Z 0000000180015010 f i libvcruntimed:risctrnsctrl.obj
 0001:00014080       _CreateFrameInfo           0000000180015080 f   libvcruntimed:risctrnsctrl.obj
 0001:000140f0       _FindAndUnlinkFrame        00000001800150f0 f   libvcruntimed:risctrnsctrl.obj
 0001:00014170       _GetImageBase              0000000180015170 f   libvcruntimed:risctrnsctrl.obj
 0001:00014190       _GetThrowImageBase         0000000180015190 f   libvcruntimed:risctrnsctrl.obj
 0001:000141b0       _SetImageBase              00000001800151b0 f   libvcruntimed:risctrnsctrl.obj
 0001:000141d0       _SetThrowImageBase         00000001800151d0 f   libvcruntimed:risctrnsctrl.obj
 0001:000141f0       __CxxFrameHandler          00000001800151f0 f   libvcruntimed:risctrnsctrl.obj
 0001:00014230       __CxxFrameHandler2         0000000180015230 f   libvcruntimed:risctrnsctrl.obj
 0001:00014270       __CxxFrameHandler3         0000000180015270 f   libvcruntimed:risctrnsctrl.obj
 0001:00014350       __CxxFrameHandler4         0000000180015350 f   libvcruntimed:risctrnsctrl.obj
 0001:000144a0       ??$?RD@__crt_internal_free_policy@@QEBAXQEBD@Z 00000001800154a0 f i libvcruntimed:std_type_info.obj
 0001:000144d0       ??$?RX@__crt_internal_free_policy@@QEBAXQEBX@Z 00000001800154d0 f i libvcruntimed:std_type_info.obj
 0001:00014500       ??$__crt_interlocked_compare_exchange_pointer@$$CBDPEAD$$T@@YAPEBDPEDSEBDQEAD$$T@Z 0000000180015500 f i libvcruntimed:std_type_info.obj
 0001:00014540       ??$__crt_interlocked_read_pointer@$$CBD@@YAPEBDPEDSEBD@Z 0000000180015540 f i libvcruntimed:std_type_info.obj
 0001:00014560       ??0?$__crt_unique_heap_ptr@DU__crt_internal_free_policy@@@@QEAA@QEAD@Z 0000000180015560 f i libvcruntimed:std_type_info.obj
 0001:00014580       ??0?$__crt_unique_heap_ptr@XU__crt_internal_free_policy@@@@QEAA@QEAX@Z 0000000180015580 f i libvcruntimed:std_type_info.obj
 0001:000145a0       ??1?$__crt_unique_heap_ptr@DU__crt_internal_free_policy@@@@QEAA@XZ 00000001800155a0 f i libvcruntimed:std_type_info.obj
 0001:000145c0       ??1?$__crt_unique_heap_ptr@XU__crt_internal_free_policy@@@@QEAA@XZ 00000001800155c0 f i libvcruntimed:std_type_info.obj
 0001:000145e0       ??B?$__crt_unique_heap_ptr@DU__crt_internal_free_policy@@@@QEBA_NXZ 00000001800155e0 f i libvcruntimed:std_type_info.obj
 0001:00014600       ??B?$__crt_unique_heap_ptr@XU__crt_internal_free_policy@@@@QEBA_NXZ 0000000180015600 f i libvcruntimed:std_type_info.obj
 0001:000146a0       ?__crt_interlocked_read_64@@YA_JPED_J@Z 00000001800156a0 f i libvcruntimed:std_type_info.obj
 0001:000146c0       ?detach@?$__crt_unique_heap_ptr@XU__crt_internal_free_policy@@@@QEAAPEAXXZ 00000001800156c0 f i libvcruntimed:std_type_info.obj
 0001:000146f0       ?get@?$__crt_unique_heap_ptr@DU__crt_internal_free_policy@@@@QEBAPEADXZ 00000001800156f0 f i libvcruntimed:std_type_info.obj
 0001:00014700       ?get@?$__crt_unique_heap_ptr@XU__crt_internal_free_policy@@@@QEBAPEAXXZ 0000000180015700 f i libvcruntimed:std_type_info.obj
 0001:00014710       ?is_valid@?$__crt_unique_heap_ptr@DU__crt_internal_free_policy@@@@QEBA_NXZ 0000000180015710 f i libvcruntimed:std_type_info.obj
 0001:00014740       ?is_valid@?$__crt_unique_heap_ptr@XU__crt_internal_free_policy@@@@QEBA_NXZ 0000000180015740 f i libvcruntimed:std_type_info.obj
 0001:00014770       ?release@?$__crt_unique_heap_ptr@DU__crt_internal_free_policy@@@@QEAAXXZ 0000000180015770 f i libvcruntimed:std_type_info.obj
 0001:000147a0       ?release@?$__crt_unique_heap_ptr@XU__crt_internal_free_policy@@@@QEAAXXZ 00000001800157a0 f i libvcruntimed:std_type_info.obj
 0001:000147d0       __std_type_info_compare    00000001800157d0 f   libvcruntimed:std_type_info.obj
 0001:00014810       __std_type_info_destroy_list 0000000180015810 f   libvcruntimed:std_type_info.obj
 0001:00014870       __std_type_info_hash       0000000180015870 f   libvcruntimed:std_type_info.obj
 0001:00014920       __std_type_info_name       0000000180015920 f   libvcruntimed:std_type_info.obj
 0001:00014bd0       __vcrt_GetModuleFileNameW  0000000180015bd0 f   libvcruntimed:winapi_thunks.obj
 0001:00014c00       __vcrt_GetModuleHandleW    0000000180015c00 f   libvcruntimed:winapi_thunks.obj
 0001:00014c20       __vcrt_LoadLibraryExW      0000000180015c20 f   libvcruntimed:winapi_thunks.obj
 0001:00014c50       ??$?RD@__crt_public_free_policy@@QEBAXQEBD@Z 0000000180015c50 f i libvcruntimed:std_exception.obj
 0001:00014c70       ??0?$__crt_unique_heap_ptr@DU__crt_public_free_policy@@@@QEAA@QEAD@Z 0000000180015c70 f i libvcruntimed:std_exception.obj
 0001:00014c90       ??1?$__crt_unique_heap_ptr@DU__crt_public_free_policy@@@@QEAA@XZ 0000000180015c90 f i libvcruntimed:std_exception.obj
 0001:00014cb0       ??B?$__crt_unique_heap_ptr@DU__crt_public_free_policy@@@@QEBA_NXZ 0000000180015cb0 f i libvcruntimed:std_exception.obj
 0001:00014cd0       ?detach@?$__crt_unique_heap_ptr@DU__crt_public_free_policy@@@@QEAAPEADXZ 0000000180015cd0 f i libvcruntimed:std_exception.obj
 0001:00014d00       ?get@?$__crt_unique_heap_ptr@DU__crt_public_free_policy@@@@QEBAPEADXZ 0000000180015d00 f i libvcruntimed:std_exception.obj
 0001:00014d10       ?is_valid@?$__crt_unique_heap_ptr@DU__crt_public_free_policy@@@@QEBA_NXZ 0000000180015d10 f i libvcruntimed:std_exception.obj
 0001:00014d40       ?release@?$__crt_unique_heap_ptr@DU__crt_public_free_policy@@@@QEAAXXZ 0000000180015d40 f i libvcruntimed:std_exception.obj
 0001:00014d70       __std_exception_copy       0000000180015d70 f   libvcruntimed:std_exception.obj
 0001:00014eb0       __std_exception_destroy    0000000180015eb0 f   libvcruntimed:std_exception.obj
 0001:00014ef0       _CxxThrowException         0000000180015ef0 f   libvcruntimed:throw.obj
 0001:00015020       ??$?RU__vcrt_ptd@@@__crt_internal_free_policy@@QEBAXQEBU__vcrt_ptd@@@Z 0000000180016020 f i libvcruntimed:per_thread_data.obj
 0001:00015050       ??0?$__crt_unique_heap_ptr@U__vcrt_ptd@@U__crt_internal_free_policy@@@@QEAA@QEAU__vcrt_ptd@@@Z 0000000180016050 f i libvcruntimed:per_thread_data.obj
 0001:00015090       ??1?$__crt_unique_heap_ptr@U__vcrt_ptd@@U__crt_internal_free_policy@@@@QEAA@XZ 0000000180016090 f i libvcruntimed:per_thread_data.obj
 0001:000150d0       ??B?$__crt_unique_heap_ptr@U__vcrt_ptd@@U__crt_internal_free_policy@@@@QEBA_NXZ 00000001800160d0 f i libvcruntimed:per_thread_data.obj
 0001:000150f0       ?detach@?$__crt_unique_heap_ptr@U__vcrt_ptd@@U__crt_internal_free_policy@@@@QEAAPEAU__vcrt_ptd@@XZ 00000001800160f0 f i libvcruntimed:per_thread_data.obj
 0001:00015120       ?get@?$__crt_unique_heap_ptr@U__vcrt_ptd@@U__crt_internal_free_policy@@@@QEBAPEAU__vcrt_ptd@@XZ 0000000180016120 f i libvcruntimed:per_thread_data.obj
 0001:00015130       ?is_valid@?$__crt_unique_heap_ptr@U__vcrt_ptd@@U__crt_internal_free_policy@@@@QEBA_NXZ 0000000180016130 f i libvcruntimed:per_thread_data.obj
 0001:00015160       ?release@?$__crt_unique_heap_ptr@U__vcrt_ptd@@U__crt_internal_free_policy@@@@QEAAXXZ 0000000180016160 f i libvcruntimed:per_thread_data.obj
 0001:000151d0       __vcrt_freefls             00000001800161d0 f   libvcruntimed:per_thread_data.obj
 0001:00015210       __vcrt_freeptd             0000000180016210 f   libvcruntimed:per_thread_data.obj
 0001:00015270       __vcrt_getptd              0000000180016270 f   libvcruntimed:per_thread_data.obj
 0001:000152a0       __vcrt_getptd_noexit       00000001800162a0 f   libvcruntimed:per_thread_data.obj
 0001:00015440       __vcrt_getptd_noinit       0000000180016440 f   libvcruntimed:per_thread_data.obj
 0001:000154a0       __vcrt_initialize_ptd      00000001800164a0 f   libvcruntimed:per_thread_data.obj
 0001:000154f0       __vcrt_uninitialize_ptd    00000001800164f0 f   libvcruntimed:per_thread_data.obj
 0001:00015520       __vcrt_initialize_locks    0000000180016520 f   libvcruntimed:locks.obj
 0001:00015590       __vcrt_lock                0000000180016590 f   libvcruntimed:locks.obj
 0001:000155c0       __vcrt_uninitialize_locks  00000001800165c0 f   libvcruntimed:locks.obj
 0001:00015620       __vcrt_unlock              0000000180016620 f   libvcruntimed:locks.obj
 0001:00015660       _NLG_Notify                0000000180016660 f   libvcruntimed:notify.obj
 0001:00015680       __NLG_Dispatch2            0000000180016680 f   libvcruntimed:notify.obj
 0001:00015690       __NLG_Return2              0000000180016690 f   libvcruntimed:notify.obj
 0001:000156b0       __except_validate_context_record 00000001800166b0 f   libvcruntimed:jbcxrval.obj
 0001:00015710       __except_validate_jump_buffer 0000000180016710 f   libvcruntimed:jbcxrval.obj
 0001:00015730       __except_validate_jump_buffer_common 0000000180016730 f i libvcruntimed:jbcxrval.obj
 0001:000157b0       ?GetCurrentState@__FrameHandler3@@SAHPEA_KPEAU_xDISPATCHER_CONTEXT@@PEBU_s_FuncInfo@@@Z 00000001800167b0 f   libvcruntimed:ehstate.obj
 0001:00015810       ?GetUnwindTryBlock@__FrameHandler3@@SAHPEA_KPEAU_xDISPATCHER_CONTEXT@@PEBU_s_FuncInfo@@@Z 0000000180016810 f   libvcruntimed:ehstate.obj
 0001:00015860       ?SetState@__FrameHandler3@@SAXPEA_KPEBU_s_FuncInfo@@H@Z 0000000180016860 f   libvcruntimed:ehstate.obj
 0001:00015890       ?SetUnwindTryBlock@__FrameHandler3@@SAXPEA_KPEAU_xDISPATCHER_CONTEXT@@PEBU_s_FuncInfo@@H@Z 0000000180016890 f   libvcruntimed:ehstate.obj
 0001:00015900       ?StateFromControlPc@__FrameHandler3@@SAHPEBU_s_FuncInfo@@PEAU_xDISPATCHER_CONTEXT@@@Z 0000000180016900 f   libvcruntimed:ehstate.obj
 0001:00015940       ?StateFromControlPc@__FrameHandler4@@SAHPEAUFuncInfo4@FH4@@PEAU_xDISPATCHER_CONTEXT@@@Z 0000000180016940 f   libvcruntimed:ehstate.obj
 0001:00015980       ?StateFromIp@__FrameHandler3@@SAHPEBU_s_FuncInfo@@PEAU_xDISPATCHER_CONTEXT@@_K@Z 0000000180016980 f   libvcruntimed:ehstate.obj
 0001:00015a70       ?StateFromIp@__FrameHandler4@@SAHPEAUFuncInfo4@FH4@@PEAU_xDISPATCHER_CONTEXT@@_K@Z 0000000180016a70 f   libvcruntimed:ehstate.obj
 0001:00015b60       ?__FuncRelToRealOffset@@YA_KPEAU_xDISPATCHER_CONTEXT@@I@Z 0000000180016b60 f i libvcruntimed:ehstate.obj
 0001:00015b90       ?__RVAtoRealOffset@@YA_KPEAU_xDISPATCHER_CONTEXT@@H@Z 0000000180016b90 f i libvcruntimed:ehstate.obj
 0001:00017e10       ??$TypeMatchHelper@V__FrameHandler3@@@@YAHPEBU_s_HandlerType@@PEBU_s_CatchableType@@PEBU_s_ThrowInfo@@@Z 0000000180018e10 f i libvcruntimed:frame.obj
 0001:00018010       ??$TypeMatchHelper@V__FrameHandler4@@@@YAHPEAUHandlerType4@FH4@@PEBU_s_CatchableType@@PEBU_s_ThrowInfo@@@Z 0000000180019010 f i libvcruntimed:frame.obj
 0001:00018220       ??$__InternalCxxFrameHandler@V__FrameHandler3@@@@YA?AW4_EXCEPTION_DISPOSITION@@PEAUEHExceptionRecord@@PEA_KPEAU_CONTEXT@@PEAU_xDISPATCHER_CONTEXT@@PEBU_s_FuncInfo@@H1E@Z 0000000180019220 f i libvcruntimed:frame.obj
 0001:00018690       ??$__InternalCxxFrameHandler@V__FrameHandler4@@@@YA?AW4_EXCEPTION_DISPOSITION@@PEAUEHExceptionRecord@@PEA_KPEAU_CONTEXT@@PEAU_xDISPATCHER_CONTEXT@@PEAUFuncInfo4@FH4@@H1E@Z 0000000180019690 f i libvcruntimed:frame.obj
 0001:00018b20       ??0HandlerMap4@FH4@@QEAA@PEBUTryBlockMapEntry4@1@_KH@Z 0000000180019b20 f i libvcruntimed:frame.obj
 0001:00018be0       ??0HandlerMap@__FrameHandler3@@QEAA@PEBU_s_TryBlockMapEntry@@_KI@Z 0000000180019be0 f i libvcruntimed:frame.obj
 0001:00018c30       ??0HandlerType4@FH4@@QEAA@XZ 0000000180019c30 f i libvcruntimed:frame.obj
 0001:00018c50       ??0TryBlockMap4@FH4@@QEAA@PEBUFuncInfo4@1@_K@Z 0000000180019c50 f i libvcruntimed:frame.obj
 0001:00018ce0       ??0TryBlockMap@__FrameHandler3@@QEAA@PEBU_s_FuncInfo@@_K@Z 0000000180019ce0 f i libvcruntimed:frame.obj
 0001:00018d10       ??0UWMap4@FH4@@QEAA@PEBUFuncInfo4@1@_K@Z 0000000180019d10 f i libvcruntimed:frame.obj
 0001:00018d80       ??0bad_exception@std@@QEAA@AEBV01@@Z 0000000180019d80 f i libvcruntimed:frame.obj
 0001:00018dc0       ??0bad_exception@std@@QEAA@XZ 0000000180019dc0 f i libvcruntimed:frame.obj
 0001:00018e00       ??0iterator@HandlerMap4@FH4@@QEAA@AEAV12@I@Z 0000000180019e00 f i libvcruntimed:frame.obj
 0001:00018e30       ??0iterator@HandlerMap@__FrameHandler3@@QEAA@AEAV12@I@Z 0000000180019e30 f i libvcruntimed:frame.obj
 0001:00018e60       ??0iterator@UWMap4@FH4@@QEAA@AEAV12@PEAE@Z 0000000180019e60 f i libvcruntimed:frame.obj
 0001:00018e90       ??1bad_exception@std@@UEAA@XZ 0000000180019e90 f i libvcruntimed:frame.obj
 0001:00018eb0       ??4iterator@UWMap4@FH4@@QEAAAEAV012@AEBV012@@Z 0000000180019eb0 f i libvcruntimed:frame.obj
 0001:00018f00       ??8iterator@HandlerMap4@FH4@@QEBA_NAEBV012@@Z 0000000180019f00 f i libvcruntimed:frame.obj
 0001:00018f40       ??8iterator@HandlerMap@__FrameHandler3@@QEBA_NAEBV012@@Z 0000000180019f40 f i libvcruntimed:frame.obj
 0001:00018f80       ??8type_info@@QEBA_NAEBV0@@Z 0000000180019f80 f i libvcruntimed:frame.obj
 0001:00018fd0       ??9iterator@HandlerMap4@FH4@@QEBA_NAEBV012@@Z 0000000180019fd0 f i libvcruntimed:frame.obj
 0001:00019010       ??9iterator@HandlerMap@__FrameHandler3@@QEBA_NAEBV012@@Z 000000018001a010 f i libvcruntimed:frame.obj
 0001:00019050       ??Diterator@HandlerMap4@FH4@@QEAA?AUHandlerType4@2@XZ 000000018001a050 f i libvcruntimed:frame.obj
 0001:00019080       ??Diterator@HandlerMap@__FrameHandler3@@QEAA?BU_s_HandlerType@@XZ 000000018001a080 f i libvcruntimed:frame.obj
 0001:000190c0       ??Diterator@TryBlockMap@__FrameHandler3@@QEAA?BU_s_TryBlockMapEntry@@XZ 000000018001a0c0 f i libvcruntimed:frame.obj
 0001:00019110       ??Diterator@UWMap4@FH4@@QEAA?AUUnwindMapEntry4@2@XZ 000000018001a110 f i libvcruntimed:frame.obj
 0001:00019190       ??Eiterator@HandlerMap4@FH4@@QEAAAEAV012@XZ 000000018001a190 f i libvcruntimed:frame.obj
 0001:000191d0       ??Eiterator@HandlerMap@__FrameHandler3@@QEAAAEAV012@XZ 000000018001a1d0 f i libvcruntimed:frame.obj
 0001:000191f0       ??Eiterator@TryBlockMap@__FrameHandler3@@QEAAAEAV012@XZ 000000018001a1f0 f i libvcruntimed:frame.obj
 0001:00019210       ??Eiterator@UWMap4@FH4@@QEAAAEAV012@XZ 000000018001a210 f i libvcruntimed:frame.obj
 0001:00019250       ??Giterator@UWMap4@FH4@@QEBA_JAEBV012@@Z 000000018001a250 f i libvcruntimed:frame.obj
 0001:00019270       ??Miterator@TryBlockMap4@FH4@@QEBA_NAEBV012@@Z 000000018001a270 f i libvcruntimed:frame.obj
 0001:000192b0       ??Miterator@TryBlockMap@__FrameHandler3@@QEBA_NAEBV012@@Z 000000018001a2b0 f i libvcruntimed:frame.obj
 0001:000192f0       ??Oiterator@UWMap4@FH4@@QEBA_NAEBV012@@Z 000000018001a2f0 f i libvcruntimed:frame.obj
 0001:00019330       ??Piterator@UWMap4@FH4@@QEBA_NAEBV012@@Z 000000018001a330 f i libvcruntimed:frame.obj
 0001:00019370       ??_Ebad_exception@std@@UEAAPEAXI@Z 000000018001a370 f i libvcruntimed:frame.obj
 0001:00019370       ??_Gbad_exception@std@@UEAAPEAXI@Z 000000018001a370 f i libvcruntimed:frame.obj
 0001:000193b0       ?BuildCatchObject@__FrameHandler3@@SAXPEAUEHExceptionRecord@@PEAXPEBU_s_HandlerType@@PEBU_s_CatchableType@@@Z 000000018001a3b0 f   libvcruntimed:frame.obj
 0001:000193f0       ?BuildCatchObject@__FrameHandler4@@SAXPEAUEHExceptionRecord@@PEAXPEAUHandlerType4@FH4@@PEBU_s_CatchableType@@@Z 000000018001a3f0 f   libvcruntimed:frame.obj
 0001:00019430       ?BuildCatchObjectHelper@__FrameHandler3@@SAHPEAUEHExceptionRecord@@PEAXPEBU_s_HandlerType@@PEBU_s_CatchableType@@@Z 000000018001a430 f   libvcruntimed:frame.obj
 0001:00019470       ?BuildCatchObjectHelper@__FrameHandler4@@SAHPEAUEHExceptionRecord@@PEAXPEAUHandlerType4@FH4@@PEBU_s_CatchableType@@@Z 000000018001a470 f   libvcruntimed:frame.obj
 0001:000194b0       ?CxxCallCatchBlock@__FrameHandler3@@SAPEAXPEAU_EXCEPTION_RECORD@@@Z 000000018001a4b0 f   libvcruntimed:frame.obj
 0001:00019710       ?CxxCallCatchBlock@__FrameHandler4@@SAPEAXPEAU_EXCEPTION_RECORD@@@Z 000000018001a710 f   libvcruntimed:frame.obj
 0001:00019a40       ?DecompHandler@HandlerMap4@FH4@@AEAAXXZ 000000018001aa40 f i libvcruntimed:frame.obj
 0001:00019e10       ?FrameUnwindToState@__FrameHandler3@@SAXPEA_KPEAU_xDISPATCHER_CONTEXT@@PEBU_s_FuncInfo@@H@Z 000000018001ae10 f   libvcruntimed:frame.obj
 0001:0001a060       ?FrameUnwindToState@__FrameHandler4@@SAXPEA_KPEAU_xDISPATCHER_CONTEXT@@PEAUFuncInfo4@FH4@@H@Z 000000018001b060 f   libvcruntimed:frame.obj
 0001:0001a370       ?GetHandlerSearchState@__FrameHandler3@@SAHPEA_KPEAU_xDISPATCHER_CONTEXT@@PEBU_s_FuncInfo@@@Z 000000018001b370 f i libvcruntimed:frame.obj
 0001:0001a420       ?GetHandlerSearchState@__FrameHandler4@@SAHPEA_KPEAU_xDISPATCHER_CONTEXT@@PEAUFuncInfo4@FH4@@@Z 000000018001b420 f i libvcruntimed:frame.obj
 0001:0001a4a0       ?GetMaxState@__FrameHandler3@@SAHPEAU_xDISPATCHER_CONTEXT@@PEBU_s_FuncInfo@@@Z 000000018001b4a0 f i libvcruntimed:frame.obj
 0001:0001a4c0       ?GetMaxState@__FrameHandler4@@SAHPEAU_xDISPATCHER_CONTEXT@@PEAUFuncInfo4@FH4@@@Z 000000018001b4c0 f i libvcruntimed:frame.obj
 0001:0001a6f0       ?ReadEntry@UWMap4@FH4@@AEAAXPEAPEAE@Z 000000018001b6f0 f i libvcruntimed:frame.obj
 0001:0001a7a0       ?TypeMatch@__FrameHandler3@@SAHPEBU_s_HandlerType@@PEBU_s_CatchableType@@PEBU_s_ThrowInfo@@@Z 000000018001b7a0 f   libvcruntimed:frame.obj
 0001:0001a7d0       ?TypeMatch@__FrameHandler4@@SAHPEAUHandlerType4@FH4@@PEBU_s_CatchableType@@PEBU_s_ThrowInfo@@@Z 000000018001b7d0 f   libvcruntimed:frame.obj
 0001:0001a800       ?WalkBack@UWMap4@FH4@@AEAAXPEAPEAE@Z 000000018001b800 f i libvcruntimed:frame.obj
 0001:0001a850       ?WalkBack@iterator@UWMap4@FH4@@QEAAXXZ 000000018001b850 f i libvcruntimed:frame.obj
 0001:0001a890       ?WalkForward@UWMap4@FH4@@AEAAXPEAPEAE@Z 000000018001b890 f i libvcruntimed:frame.obj
 0001:0001a8c0       ?_CallMemberFunction1@@YAXQEAX00@Z 000000018001b8c0 f i libvcruntimed:frame.obj
 0001:0001a900       ?_CallMemberFunction2@@YAXQEAX00H@Z 000000018001b900 f i libvcruntimed:frame.obj
 0001:0001a990       ?begin@HandlerMap4@FH4@@QEAA?AViterator@12@XZ 000000018001b990 f i libvcruntimed:frame.obj
 0001:0001a9c0       ?begin@HandlerMap@__FrameHandler3@@QEAA?AViterator@12@XZ 000000018001b9c0 f i libvcruntimed:frame.obj
 0001:0001a9f0       ?begin@UWMap4@FH4@@QEAA?AViterator@12@XZ 000000018001b9f0 f i libvcruntimed:frame.obj
 0001:0001aa20       ?end@HandlerMap4@FH4@@QEAA?AViterator@12@XZ 000000018001ba20 f i libvcruntimed:frame.obj
 0001:0001aa50       ?end@HandlerMap@__FrameHandler3@@QEAA?AViterator@12@XZ 000000018001ba50 f i libvcruntimed:frame.obj
 0001:0001aa80       ?getESTypes@__FrameHandler3@@SAPEBU_s_ESTypeList@@PEBU_s_FuncInfo@@@Z 000000018001ba80 f i libvcruntimed:frame.obj
 0001:0001aac0       ?getESTypes@__FrameHandler4@@SAPEBU_s_ESTypeList@@PEAUFuncInfo4@FH4@@@Z 000000018001bac0 f i libvcruntimed:frame.obj
 0001:0001aad0       ?getLastEntry@HandlerMap4@FH4@@QEAAPEAUHandlerType4@2@XZ 000000018001bad0 f i libvcruntimed:frame.obj
 0001:0001ab10       ?getLastEntry@HandlerMap@__FrameHandler3@@QEAAPEBU_s_HandlerType@@XZ 000000018001bb10 f i libvcruntimed:frame.obj
 0001:0001ab30       ?getMagicNum@__FrameHandler3@@SAIPEBU_s_FuncInfo@@@Z 000000018001bb30 f i libvcruntimed:frame.obj
 0001:0001ab50       ?getMagicNum@__FrameHandler4@@SAIPEAUFuncInfo4@FH4@@@Z 000000018001bb50 f i libvcruntimed:frame.obj
 0001:0001ab60       ?getNumTryBlocks@TryBlockMap4@FH4@@QEAAIXZ 000000018001bb60 f i libvcruntimed:frame.obj
 0001:0001ab70       ?getNumTryBlocks@TryBlockMap@__FrameHandler3@@QEAAIXZ 000000018001bb70 f i libvcruntimed:frame.obj
 0001:0001ab90       ?getStartStop@UWMap4@FH4@@QEAAXHHAEAViterator@12@0@Z 000000018001bb90 f i libvcruntimed:frame.obj
 0001:0001acb0       ?getStateFromIterators@UWMap4@FH4@@SAHAEBViterator@12@H0H0@Z 000000018001bcb0 f i libvcruntimed:frame.obj
 0001:0001adf0       ?isEHs@__FrameHandler3@@SA_NPEBU_s_FuncInfo@@@Z 000000018001bdf0 f i libvcruntimed:frame.obj
 0001:0001ae30       ?isEHs@__FrameHandler4@@SA_NPEAUFuncInfo4@FH4@@@Z 000000018001be30 f i libvcruntimed:frame.obj
 0001:0001ae50       ?isNoExcept@__FrameHandler3@@SA_NPEBU_s_FuncInfo@@@Z 000000018001be50 f i libvcruntimed:frame.obj
 0001:0001ae90       ?isNoExcept@__FrameHandler4@@SA_NPEAUFuncInfo4@FH4@@@Z 000000018001be90 f i libvcruntimed:frame.obj
 0001:0001aeb0       ?reset@HandlerType4@FH4@@QEAAXXZ 000000018001beb0 f i libvcruntimed:frame.obj
 0001:0001af10       ?resetBuffer@HandlerMap4@FH4@@QEAAXXZ 000000018001bf10 f i libvcruntimed:frame.obj
 0001:0001af30       ?setBuffer@HandlerMap4@FH4@@QEAAXI@Z 000000018001bf30 f i libvcruntimed:frame.obj
 0001:0001af90       __BuildCatchObject         000000018001bf90 f   libvcruntimed:frame.obj
 0001:0001afd0       __BuildCatchObjectHelper   000000018001bfd0 f   libvcruntimed:frame.obj
 0001:0001b010       __TypeMatch                000000018001c010 f   libvcruntimed:frame.obj
 0001:0001b040       __vcrt_EncodePointer       000000018001c040 f i libvcruntimed:frame.obj
 0001:0001b060       ??$?0$00@DName@@QEAA@PEBDU?$StringLifeSelector@$00@@@Z 000000018001c060 f i libvcruntimed:undname.obj
 0001:0001b0d0       ??$?0$00@pcharNode@@QEAA@PEBDHU?$StringLifeSelector@$00@@@Z 000000018001c0d0 f i libvcruntimed:undname.obj
 0001:0001b130       ??$?0$01@DName@@QEAA@PEBDU?$StringLifeSelector@$01@@@Z 000000018001c130 f i libvcruntimed:undname.obj
 0001:0001b1a0       ??$?0$01@pcharNode@@QEAA@PEBDHU?$StringLifeSelector@$01@@@Z 000000018001c1a0 f i libvcruntimed:undname.obj
 0001:0001b250       ??$?0$0A@@DName@@QEAA@PEBDU?$StringLifeSelector@$0A@@@@Z 000000018001c250 f i libvcruntimed:undname.obj
 0001:0001b2c0       ??$?0$0A@@pcharNode@@QEAA@PEBDHU?$StringLifeSelector@$0A@@@@Z 000000018001c2c0 f i libvcruntimed:undname.obj
 0001:0001b370       ??$?0_K$0A@@?$optional@_K@std@@QEAA@$$QEA_K@Z 000000018001c370 f i libvcruntimed:undname.obj
 0001:0001b3c0       ??$?0_K@?$_Optional_construct_base@_K@std@@QEAA@Uin_place_t@1@$$QEA_K@Z 000000018001c3c0 f i libvcruntimed:undname.obj
 0001:0001b3f0       ??$?0_K@?$_Optional_destruct_base@_K$00@std@@QEAA@Uin_place_t@1@$$QEA_K@Z 000000018001c3f0 f i libvcruntimed:undname.obj
 0001:0001b430       ??$append@VDNameNode@@@DName@@AEAAXPEBVDNameNode@@@Z 000000018001c430 f i libvcruntimed:undname.obj
 0001:0001b4e0       ??$append@VDNameStatusNode@@@DName@@AEAAXPEBVDNameStatusNode@@@Z 000000018001c4e0 f i libvcruntimed:undname.obj
 0001:0001b590       ??$append@VcharNode@@@DName@@AEAAXPEBVcharNode@@@Z 000000018001c590 f i libvcruntimed:undname.obj
 0001:0001b640       ??$append@VpDNameNode@@@DName@@AEAAXPEBVpDNameNode@@@Z 000000018001c640 f i libvcruntimed:undname.obj
 0001:0001b6f0       ??$append@VpcharNode@@@DName@@AEAAXPEBVpcharNode@@@Z 000000018001c6f0 f i libvcruntimed:undname.obj
 0001:0001b7a0       ??$doPchar@$00@DName@@AEAAXPEBDH@Z 000000018001c7a0 f i libvcruntimed:undname.obj
 0001:0001b900       ??$doPchar@$01@DName@@AEAAXPEBDH@Z 000000018001c900 f i libvcruntimed:undname.obj
 0001:0001ba60       ??$doPchar@$0A@@DName@@AEAAXPEBDH@Z 000000018001ca60 f i libvcruntimed:undname.obj
 0001:0001bbc0       ??$forward@_K@std@@YA$$QEA_KAEA_K@Z 000000018001cbc0 f i libvcruntimed:undname.obj
 0001:0001bbd0       ??$size@D$04@std@@YA_KAEAY04$$CBD@Z 000000018001cbd0 f i libvcruntimed:undname.obj
 0001:0001bbe0       ??$size@D$0EB@@std@@YA_KAEAY0EB@$$CBD@Z 000000018001cbe0 f i libvcruntimed:undname.obj
 0001:0001bbf0       ??0?$_Optional_construct_base@_K@std@@QEAA@XZ 000000018001cbf0 f i libvcruntimed:undname.obj
 0001:0001bc10       ??0?$_Optional_destruct_base@_K$00@std@@QEAA@XZ 000000018001cc10 f i libvcruntimed:undname.obj
 0001:0001bc40       ??0?$optional@_K@std@@QEAA@XZ 000000018001cc40 f i libvcruntimed:undname.obj
 0001:0001bc60       ??0Block@_HeapManager@@QEAA@XZ 000000018001cc60 f i libvcruntimed:undname.obj
 0001:0001bc80       ??0DName@@QEAA@AEAPEBDD@Z  000000018001cc80 f   libvcruntimed:undname.obj
 0001:0001be50       ??0DName@@QEAA@AEBUStringLiteral@@@Z 000000018001ce50 f   libvcruntimed:undname.obj
 0001:0001beb0       ??0DName@@QEAA@AEBV0@@Z    000000018001ceb0 f i libvcruntimed:undname.obj
 0001:0001bee0       ??0DName@@QEAA@D@Z         000000018001cee0 f   libvcruntimed:undname.obj
 0001:0001bf20       ??0DName@@QEAA@PEAV0@@Z    000000018001cf20 f   libvcruntimed:undname.obj
 0001:0001c000       ??0DName@@QEAA@W4DNameStatus@@@Z 000000018001d000 f   libvcruntimed:undname.obj
 0001:0001c0b0       ??0DName@@QEAA@XZ          000000018001d0b0 f i libvcruntimed:undname.obj
 0001:0001c0e0       ??0DName@@QEAA@_J@Z        000000018001d0e0 f   libvcruntimed:undname.obj
 0001:0001c1f0       ??0DName@@QEAA@_K@Z        000000018001d1f0 f   libvcruntimed:undname.obj
 0001:0001c2c0       ??0DNameNode@@IEAA@XZ      000000018001d2c0 f i libvcruntimed:undname.obj
 0001:0001c2e0       ??0Replicator@@QEAA@XZ     000000018001d2e0 f i libvcruntimed:undname.obj
 0001:0001c320       ??0UnDecorator@@QEAA@PEBDP6APEADJ@ZK@Z 000000018001d320 f i libvcruntimed:undname.obj
 0001:0001c3d0       ??0_Nontrivial_dummy_type@std@@QEAA@XZ 000000018001d3d0 f i libvcruntimed:undname.obj
 0001:0001c3e0       ??0charNode@@QEAA@D@Z      000000018001d3e0 f i libvcruntimed:undname.obj
 0001:0001c420       ??0pDNameNode@@QEAA@PEAVDName@@@Z 000000018001d420 f   libvcruntimed:undname.obj
 0001:0001c4a0       ??0pairNode@@QEAA@PEBVDNameNode@@0@Z 000000018001d4a0 f i libvcruntimed:undname.obj
 0001:0001c520       ??2@YAPEAX_KAEAV_HeapManager@@H@Z 000000018001d520 f   libvcruntimed:undname.obj
 0001:0001c580       ??4DName@@QEAAAEAV0@AEBUStringLiteral@@@Z 000000018001d580 f   libvcruntimed:undname.obj
 0001:0001c5d0       ??4DName@@QEAAAEAV0@AEBV0@@Z 000000018001d5d0 f   libvcruntimed:undname.obj
 0001:0001c600       ??4DName@@QEAAAEAV0@D@Z    000000018001d600 f i libvcruntimed:undname.obj
 0001:0001c640       ??4DName@@QEAAAEAV0@PEAV0@@Z 000000018001d640 f   libvcruntimed:undname.obj
 0001:0001c710       ??4DName@@QEAAAEAV0@W4DNameStatus@@@Z 000000018001d710 f   libvcruntimed:undname.obj
 0001:0001c7a0       ??AReplicator@@QEBA?AVDName@@H@Z 000000018001d7a0 f   libvcruntimed:undname.obj
 0001:0001c830       ??B?$optional@_K@std@@QEBA_NXZ 000000018001d830 f i libvcruntimed:undname.obj
 0001:0001c840       ??D?$optional@_K@std@@QEGAAAEA_KXZ 000000018001d840 f i libvcruntimed:undname.obj
 0001:0001c850       ??H@YA?AVDName@@AEBUStringLiteral@@AEBV0@@Z 000000018001d850 f i libvcruntimed:undname.obj
 0001:0001c8a0       ??H@YA?AVDName@@DAEBV0@@Z  000000018001d8a0 f i libvcruntimed:undname.obj
 0001:0001c8f0       ??H@YA?AVDName@@W4DNameStatus@@AEBV0@@Z 000000018001d8f0 f i libvcruntimed:undname.obj
 0001:0001c940       ??HDName@@QEBA?AV0@AEBUStringLiteral@@@Z 000000018001d940 f   libvcruntimed:undname.obj
 0001:0001c990       ??HDName@@QEBA?AV0@AEBV0@@Z 000000018001d990 f   libvcruntimed:undname.obj
 0001:0001c9e0       ??HDName@@QEBA?AV0@D@Z     000000018001d9e0 f   libvcruntimed:undname.obj
 0001:0001ca30       ??HDName@@QEBA?AV0@PEAV0@@Z 000000018001da30 f   libvcruntimed:undname.obj
 0001:0001ca80       ??HDName@@QEBA?AV0@W4DNameStatus@@@Z 000000018001da80 f   libvcruntimed:undname.obj
 0001:0001cad0       ??HStringLiteral@@QEBA?AU0@H@Z 000000018001dad0 f i libvcruntimed:undname.obj
 0001:0001cb10       ??YDName@@QEAAAEAV0@AEBUStringLiteral@@@Z 000000018001db10 f   libvcruntimed:undname.obj
 0001:0001cbe0       ??YDName@@QEAAAEAV0@AEBV0@@Z 000000018001dbe0 f   libvcruntimed:undname.obj
 0001:0001cca0       ??YDName@@QEAAAEAV0@D@Z    000000018001dca0 f   libvcruntimed:undname.obj
 0001:0001cd40       ??YDName@@QEAAAEAV0@PEAV0@@Z 000000018001dd40 f   libvcruntimed:undname.obj
 0001:0001ce20       ??YDName@@QEAAAEAV0@W4DNameStatus@@@Z 000000018001de20 f   libvcruntimed:undname.obj
 0001:0001ce90       ??YReplicator@@QEAAAEAV0@AEBVDName@@@Z 000000018001de90 f   libvcruntimed:undname.obj
 0001:0001cf50       ??_5DName@@QEAAAEAV0@AEBV0@@Z 000000018001df50 f   libvcruntimed:undname.obj
 0001:0001cfc0       ??__K_l@@YA?AUStringLiteral@@PEBD_K@Z 000000018001dfc0 f i libvcruntimed:undname.obj
 0001:0001d010       ?Constructor@_HeapManager@@QEAAXP6APEAX_K@ZP6AXPEAX@Z@Z 000000018001e010 f i libvcruntimed:undname.obj
 0001:0001d070       ?Destructor@_HeapManager@@QEAAXXZ 000000018001e070 f i libvcruntimed:undname.obj
 0001:0001d110       ?UScore@UnDecorator@@SA?AUStringLiteral@@W4Tokens@@@Z 000000018001e110 f   libvcruntimed:undname.obj
 0001:0001d1a0       ?composeDeclaration@UnDecorator@@CA?AVDName@@AEBV2@@Z 000000018001e1a0 f i libvcruntimed:undname.obj
 0001:0001f6a0       ?dbGetString@DName@@QEBAPEADXZ 00000001800206a0 f   libvcruntimed:undname.obj
 0001:0001f6d0       ?doAccessSpecifiers@UnDecorator@@SAHXZ 00000001800206d0 f i libvcruntimed:undname.obj
 0001:0001f700       ?doAllocationLanguage@UnDecorator@@SAHXZ 0000000180020700 f i libvcruntimed:undname.obj
 0001:0001f730       ?doAllocationModel@UnDecorator@@SAHXZ 0000000180020730 f i libvcruntimed:undname.obj
 0001:0001f760       ?doEcsu@UnDecorator@@SAHXZ 0000000180020760 f i libvcruntimed:undname.obj
 0001:0001f790       ?doEllipsis@UnDecorator@@SAHXZ 0000000180020790 f i libvcruntimed:undname.obj
 0001:0001f7c0       ?doFunctionReturns@UnDecorator@@SAHXZ 00000001800207c0 f i libvcruntimed:undname.obj
 0001:0001f7f0       ?doMSKeywords@UnDecorator@@SAHXZ 00000001800207f0 f i libvcruntimed:undname.obj
 0001:0001f820       ?doMemberTypes@UnDecorator@@SAHXZ 0000000180020820 f i libvcruntimed:undname.obj
 0001:0001f850       ?doNameOnly@UnDecorator@@SAHXZ 0000000180020850 f i libvcruntimed:undname.obj
 0001:0001f860       ?doNoIdentCharCheck@UnDecorator@@SAHXZ 0000000180020860 f i libvcruntimed:undname.obj
 0001:0001f870       ?doPchar@DName@@AEAAXD@Z   0000000180020870 f   libvcruntimed:undname.obj
 0001:0001f900       ?doPtr64@UnDecorator@@SAHXZ 0000000180020900 f i libvcruntimed:undname.obj
 0001:0001f930       ?doRestrictionSpec@UnDecorator@@SAHXZ 0000000180020930 f i libvcruntimed:undname.obj
 0001:0001f960       ?doThisTypes@UnDecorator@@SAHXZ 0000000180020960 f i libvcruntimed:undname.obj
 0001:0001f990       ?doThrowTypes@UnDecorator@@SAHXZ 0000000180020990 f i libvcruntimed:undname.obj
 0001:0001f9c0       ?doTypeOnly@UnDecorator@@SAHXZ 00000001800209c0 f i libvcruntimed:undname.obj
 0001:0001f9d0       ?doUnderScore@UnDecorator@@SAHXZ 00000001800209d0 f i libvcruntimed:undname.obj
 0001:0001fa00       ?getArgumentList@UnDecorator@@CA?AVDName@@XZ 0000000180020a00 f   libvcruntimed:undname.obj
 0001:0001fba0       ?getArgumentTypes@UnDecorator@@CA?AVDName@@XZ 0000000180020ba0 f   libvcruntimed:undname.obj
 0001:0001ff00       ?getArrayObject@UnDecorator@@CA?AVDName@@XZ 0000000180020f00 f   libvcruntimed:undname.obj
 0001:00020020       ?getArrayType@UnDecorator@@CA?AVDName@@AEBV2@@Z 0000000180021020 f i libvcruntimed:undname.obj
 0001:000203e0       ?getBasedType@UnDecorator@@CA?AVDName@@XZ 00000001800213e0 f   libvcruntimed:undname.obj
 0001:00020550       ?getBasicDataType@UnDecorator@@CA?AVDName@@AEBV2@@Z 0000000180021550 f   libvcruntimed:undname.obj
 0001:00021220       ?getCHPEName@UnDecorator@@QEAAPEADPEADH@Z 0000000180022220 f i libvcruntimed:undname.obj
 0001:000213f0       ?getCallIndex@UnDecorator@@CA?AVDName@@XZ 00000001800223f0 f i libvcruntimed:undname.obj
 0001:00021410       ?getCallingConvention@UnDecorator@@CA?AVDName@@XZ 0000000180022410 f   libvcruntimed:undname.obj
 0001:000217b0       ?getDataIndirectType@UnDecorator@@CA?AVDName@@AEBV2@W4IndirectionKind@@0H@Z 00000001800227b0 f   libvcruntimed:undname.obj
 0001:00022450       ?getDataIndirectType@UnDecorator@@CA?AVDName@@XZ 0000000180023450 f i libvcruntimed:undname.obj
 0001:000224a0       ?getDataType@UnDecorator@@CA?AVDName@@PEAV2@@Z 00000001800234a0 f   libvcruntimed:undname.obj
 0001:00022680       ?getDecoratedName@UnDecorator@@CA?AVDName@@XZ 0000000180023680 f   libvcruntimed:undname.obj
 0001:00022b70       ?getDimension@UnDecorator@@CA?AVDName@@_N@Z 0000000180023b70 f   libvcruntimed:undname.obj
 0001:00022e80       ?getDispatchTarget@UnDecorator@@CA?AVDName@@XZ 0000000180023e80 f   libvcruntimed:undname.obj
 0001:00022f50       ?getDisplacement@UnDecorator@@CA?AVDName@@XZ 0000000180023f50 f i libvcruntimed:undname.obj
 0001:00022f70       ?getECSUDataType@UnDecorator@@CA?AVDName@@XZ 0000000180023f70 f   libvcruntimed:undname.obj
 0001:00023300       ?getECSUName@UnDecorator@@CA?AVDName@@XZ 0000000180024300 f i libvcruntimed:undname.obj
 0001:00023320       ?getEnumType@UnDecorator@@CA?AVDName@@XZ 0000000180024320 f i libvcruntimed:undname.obj
 0001:000235b0       ?getExtendedDataIndirectType@UnDecorator@@CA?AVDName@@AEAW4IndirectionKind@@AEA_NH@Z 00000001800245b0 f   libvcruntimed:undname.obj
 0001:000238d0       ?getExternalDataType@UnDecorator@@CA?AVDName@@AEBV2@@Z 00000001800248d0 f i libvcruntimed:undname.obj
 0001:000239b0       ?getFloatingPoint@UnDecorator@@CA?AVDName@@H@Z 00000001800249b0 f   libvcruntimed:undname.obj
 0001:00023c20       ?getFunctionIndirectType@UnDecorator@@CA?AVDName@@AEBV2@@Z 0000000180024c20 f   libvcruntimed:undname.obj
 0001:00024250       ?getGuardNumber@UnDecorator@@CA?AVDName@@XZ 0000000180025250 f i libvcruntimed:undname.obj
 0001:00024270       ?getLastChar@DName@@QEBADXZ 0000000180025270 f i libvcruntimed:undname.obj
 0001:000242c0       ?getLastChar@DNameStatusNode@@UEBADXZ 00000001800252c0 f i libvcruntimed:undname.obj
 0001:00024300       ?getLastChar@charNode@@UEBADXZ 0000000180025300 f i libvcruntimed:undname.obj
 0001:00024310       ?getLastChar@pDNameNode@@UEBADXZ 0000000180025310 f i libvcruntimed:undname.obj
 0001:00024350       ?getLastChar@pairNode@@UEBADXZ 0000000180025350 f i libvcruntimed:undname.obj
 0001:000243d0       ?getLastChar@pcharNode@@UEBADXZ 00000001800253d0 f i libvcruntimed:undname.obj
 0001:00024410       ?getLexicalFrame@UnDecorator@@CA?AVDName@@XZ 0000000180025410 f i libvcruntimed:undname.obj
 0001:00024460       ?getMemoryWithBuffer@_HeapManager@@QEAAPEAX_K@Z 0000000180025460 f   libvcruntimed:undname.obj
 0001:000245b0       ?getMemoryWithoutBuffer@_HeapManager@@QEAAPEAX_K@Z 00000001800255b0 f   libvcruntimed:undname.obj
 0001:00024600       ?getNoexcept@UnDecorator@@CA?AVDName@@XZ 0000000180025600 f   libvcruntimed:undname.obj
 0001:000246b0       ?getNumberOfDimensions@UnDecorator@@CAHXZ 00000001800256b0 f   libvcruntimed:undname.obj
 0001:000247d0       ?getOperatorName@UnDecorator@@CA?AVDName@@_NPEA_N@Z 00000001800257d0 f i libvcruntimed:undname.obj
 0001:000256e0       ?getPointerType@UnDecorator@@CA?AVDName@@AEBV2@0@Z 00000001800266e0 f i libvcruntimed:undname.obj
 0001:00025720       ?getPointerTypeArray@UnDecorator@@CA?AVDName@@AEBV2@0@Z 0000000180026720 f i libvcruntimed:undname.obj
 0001:00025760       ?getPrimaryDataType@UnDecorator@@CA?AVDName@@AEBV2@@Z 0000000180026760 f   libvcruntimed:undname.obj
 0001:00025d90       ?getPtrRefDataType@UnDecorator@@CA?AVDName@@AEBV2@H@Z 0000000180026d90 f   libvcruntimed:undname.obj
 0001:00026180       ?getPtrRefType@UnDecorator@@CA?AVDName@@AEBV2@0W4IndirectionKind@@@Z 0000000180027180 f   libvcruntimed:undname.obj
 0001:000263c0       ?getReferenceType@UnDecorator@@CA?AVDName@@AEBV2@0W4IndirectionKind@@@Z 00000001800273c0 f i libvcruntimed:undname.obj
 0001:00026400       ?getRestrictionSpec@UnDecorator@@CA?AVDName@@XZ 0000000180027400 f   libvcruntimed:undname.obj
 0001:00026690       ?getReturnType@UnDecorator@@CA?AVDName@@PEAV2@@Z 0000000180027690 f   libvcruntimed:undname.obj
 0001:000266f0       ?getScope@UnDecorator@@CA?AVDName@@XZ 00000001800276f0 f   libvcruntimed:undname.obj
 0001:00026e40       ?getScopedName@UnDecorator@@CA?AVDName@@XZ 0000000180027e40 f   libvcruntimed:undname.obj
 0001:00027040       ?getSignedDimension@UnDecorator@@CA?AVDName@@XZ 0000000180028040 f   libvcruntimed:undname.obj
 0001:000270d0       ?getStorageConvention@UnDecorator@@CA?AVDName@@XZ 00000001800280d0 f i libvcruntimed:undname.obj
 0001:000270f0       ?getString@DName@@QEBAPEADPEAD0@Z 00000001800280f0 f i libvcruntimed:undname.obj
 0001:00027170       ?getString@DName@@QEBAPEADPEADH@Z 0000000180028170 f i libvcruntimed:undname.obj
 0001:00027230       ?getString@DNameStatusNode@@UEBAPEADPEAD0@Z 0000000180028230 f i libvcruntimed:undname.obj
 0001:00027280       ?getString@charNode@@UEBAPEADPEAD0@Z 0000000180028280 f i libvcruntimed:undname.obj
 0001:000272c0       ?getString@pDNameNode@@UEBAPEADPEAD0@Z 00000001800282c0 f i libvcruntimed:undname.obj
 0001:00027320       ?getString@pairNode@@UEBAPEADPEAD0@Z 0000000180028320 f i libvcruntimed:undname.obj
 0001:000273f0       ?getString@pcharNode@@UEBAPEADPEAD0@Z 00000001800283f0 f i libvcruntimed:undname.obj
 0001:00027430       ?getStringEncoding@UnDecorator@@CA?AVDName@@W4PrefixKind@@H@Z 0000000180028430 f   libvcruntimed:undname.obj
 0001:00027590       ?getStringHelper@@YAPEADPEADPEBD1H@Z 0000000180028590 f i libvcruntimed:undname.obj
 0001:00027600       ?getStringObject@UnDecorator@@CA?AVDName@@XZ 0000000180028600 f   libvcruntimed:undname.obj
 0001:000276e0       ?getSymbolName@UnDecorator@@CA?AVDName@@XZ 00000001800286e0 f i libvcruntimed:undname.obj
 0001:00027780       ?getTemplateArgumentList@UnDecorator@@CA?AVDName@@XZ 0000000180028780 f   libvcruntimed:undname.obj
 0001:00027ac0       ?getTemplateName@UnDecorator@@CA?AVDName@@_N@Z 0000000180028ac0 f   libvcruntimed:undname.obj
 0001:00027d00       ?getTemplateNonTypeArgument@UnDecorator@@CA?AVDName@@XZ 0000000180028d00 f   libvcruntimed:undname.obj
 0001:00028420       ?getTemplateTypeArgument@UnDecorator@@CA?AVDName@@XZ 0000000180029420 f   libvcruntimed:undname.obj
 0001:00028690       ?getThisType@UnDecorator@@CA?AVDName@@XZ 0000000180029690 f i libvcruntimed:undname.obj
 0001:000286e0       ?getThrowTypes@UnDecorator@@CA?AVDName@@XZ 00000001800296e0 f   libvcruntimed:undname.obj
 0001:00028730       ?getTypeEncoding@UnDecorator@@CAHXZ 0000000180029730 f i libvcruntimed:undname.obj
 0001:00029360       ?getUndecoratedName@UnDecorator@@QEAAPEADPEADH@Z 000000018002a360 f i libvcruntimed:undname.obj
 0001:00029550       ?getVCallThunkType@UnDecorator@@CA?AVDName@@XZ 000000018002a550 f i libvcruntimed:undname.obj
 0001:00029600       ?getValue@UnDecorator@@CA?AV?$optional@_K@std@@XZ 000000018002a600 f   libvcruntimed:undname.obj
 0001:000296d0       ?getValueObject@UnDecorator@@CA?AVDName@@XZ 000000018002a6d0 f   libvcruntimed:undname.obj
 0001:000298c0       ?getVbTableType@UnDecorator@@CA?AVDName@@AEBV2@@Z 000000018002a8c0 f i libvcruntimed:undname.obj
 0001:000298f0       ?getVdispMapType@UnDecorator@@CA?AVDName@@AEBV2@@Z 000000018002a8f0 f i libvcruntimed:undname.obj
 0001:000299b0       ?getVfTableType@UnDecorator@@CA?AVDName@@AEBV2@@Z 000000018002a9b0 f i libvcruntimed:undname.obj
 0001:00029c50       ?getZName@UnDecorator@@CA?AVDName@@_N0@Z 000000018002ac50 f   libvcruntimed:undname.obj
 0001:0002a0e0       ?haveTemplateParameters@UnDecorator@@SAHXZ 000000018002b0e0 f i libvcruntimed:undname.obj
 0001:0002a0f0       ?isArray@DName@@QEBAHXZ    000000018002b0f0 f i libvcruntimed:undname.obj
 0001:0002a110       ?isComArray@DName@@QEBAHXZ 000000018002b110 f i libvcruntimed:undname.obj
 0001:0002a130       ?isEmpty@DName@@QEBAHXZ    000000018002b130 f i libvcruntimed:undname.obj
 0001:0002a160       ?isFull@Replicator@@QEBAHXZ 000000018002b160 f i libvcruntimed:undname.obj
 0001:0002a190       ?isNoTE@DName@@QEBAHXZ     000000018002b190 f i libvcruntimed:undname.obj
 0001:0002a1b0       ?isPinPtr@DName@@QEBAHXZ   000000018002b1b0 f i libvcruntimed:undname.obj
 0001:0002a1d0       ?isPtrRef@DName@@QEBAHXZ   000000018002b1d0 f i libvcruntimed:undname.obj
 0001:0002a1f0       ?isUDC@DName@@QEBAHXZ      000000018002b1f0 f i libvcruntimed:undname.obj
 0001:0002a240       ?isUDTThunk@DName@@QEBAHXZ 000000018002b240 f i libvcruntimed:undname.obj
 0001:0002a290       ?isVCallThunk@DName@@QEBAHXZ 000000018002b290 f i libvcruntimed:undname.obj
 0001:0002a2b0       ?isValid@DName@@QEBAHXZ    000000018002b2b0 f i libvcruntimed:undname.obj
 0001:0002a2f0       ?length@DName@@QEBAHXZ     000000018002b2f0 f i libvcruntimed:undname.obj
 0001:0002a340       ?length@DNameStatusNode@@UEBAHXZ 000000018002b340 f i libvcruntimed:undname.obj
 0001:0002a350       ?length@charNode@@UEBAHXZ  000000018002b350 f i libvcruntimed:undname.obj
 0001:0002a360       ?length@pDNameNode@@UEBAHXZ 000000018002b360 f i libvcruntimed:undname.obj
 0001:0002a3a0       ?length@pairNode@@UEBAHXZ  000000018002b3a0 f i libvcruntimed:undname.obj
 0001:0002a430       ?length@pcharNode@@UEBAHXZ 000000018002b430 f i libvcruntimed:undname.obj
 0001:0002a440       ?make@DNameStatusNode@@SAPEBV1@W4DNameStatus@@@Z 000000018002b440 f i libvcruntimed:undname.obj
 0001:0002a490       ?parseDecoratedName@UnDecorator@@CA?AVDName@@XZ 000000018002b490 f   libvcruntimed:undname.obj
 0001:0002a680       ?raw_length@DNameStatusNode@@UEBAHXZ 000000018002b680 f i libvcruntimed:undname.obj
 0001:0002a6a0       ?raw_length@charNode@@UEBAHXZ 000000018002b6a0 f i libvcruntimed:undname.obj
 0001:0002a6c0       ?raw_length@pDNameNode@@UEBAHXZ 000000018002b6c0 f i libvcruntimed:undname.obj
 0001:0002a6d0       ?raw_length@pairNode@@UEBAHXZ 000000018002b6d0 f i libvcruntimed:undname.obj
 0001:0002a6e0       ?raw_length@pcharNode@@UEBAHXZ 000000018002b6e0 f i libvcruntimed:undname.obj
 0001:0002a700       ?setIsArray@DName@@QEAAXXZ 000000018002b700 f i libvcruntimed:undname.obj
 0001:0002a720       ?setIsComArray@DName@@QEAAXXZ 000000018002b720 f i libvcruntimed:undname.obj
 0001:0002a740       ?setIsNoTE@DName@@QEAAXXZ  000000018002b740 f i libvcruntimed:undname.obj
 0001:0002a760       ?setIsPinPtr@DName@@QEAAXXZ 000000018002b760 f i libvcruntimed:undname.obj
 0001:0002a780       ?setIsUDC@DName@@QEAAXXZ   000000018002b780 f i libvcruntimed:undname.obj
 0001:0002a7b0       ?setIsVCallThunk@DName@@QEAAXXZ 000000018002b7b0 f i libvcruntimed:undname.obj
 0001:0002a7d0       ?setPtrRef@DName@@QEAAAEAV1@XZ 000000018002b7d0 f i libvcruntimed:undname.obj
 0001:0002a7f0       ?status@DName@@QEBA?AW4DNameStatus@@XZ 000000018002b7f0 f i libvcruntimed:undname.obj
 0001:0002a920       __unDName                  000000018002b920 f   libvcruntimed:undname.obj
 0001:0002a980       __unDNameEx                000000018002b980 f   libvcruntimed:undname.obj
 0001:0002aa40       unDNameGenerateCHPE        000000018002ba40 f   libvcruntimed:undname.obj
 0001:0002aaf0       ??$__crt_interlocked_exchange_pointer@UHINSTANCE__@@PEAU1@@@YAPEAUHINSTANCE__@@PEDSEAU0@QEAU0@@Z 000000018002baf0 f i libvcruntimed:winapi_downlevel.obj
 0001:0002ab10       ??$__crt_interlocked_exchange_pointer@UHINSTANCE__@@PEAX@@YAPEAUHINSTANCE__@@PEDSEAU0@QEAX@Z 000000018002bb10 f i libvcruntimed:winapi_downlevel.obj
 0001:0002ab30       ??$__crt_interlocked_exchange_pointer@XPEAX@@YAPEAXPEDSEAXQEAX@Z 000000018002bb30 f i libvcruntimed:winapi_downlevel.obj
 0001:0002ab50       ??$__crt_interlocked_read_pointer@UHINSTANCE__@@@@YAPEAUHINSTANCE__@@PEDSEAU0@@Z 000000018002bb50 f i libvcruntimed:winapi_downlevel.obj
 0001:0002ab70       ??$__crt_interlocked_read_pointer@X@@YAPEAXPEDSEAX@Z 000000018002bb70 f i libvcruntimed:winapi_downlevel.obj
 0001:0002b080       __vcrt_FlsAlloc            000000018002c080 f   libvcruntimed:winapi_downlevel.obj
 0001:0002b0d0       __vcrt_FlsFree             000000018002c0d0 f   libvcruntimed:winapi_downlevel.obj
 0001:0002b120       __vcrt_FlsGetValue         000000018002c120 f   libvcruntimed:winapi_downlevel.obj
 0001:0002b170       __vcrt_FlsSetValue         000000018002c170 f   libvcruntimed:winapi_downlevel.obj
 0001:0002b1d0       __vcrt_InitializeCriticalSectionEx 000000018002c1d0 f   libvcruntimed:winapi_downlevel.obj
 0001:0002b250       _CallSettingFrame          000000018002c250 f   libvcruntimed:handlers.obj
 0001:0002b2a0       _CallSettingFrame_LookupContinuationIndex 000000018002c2a0 f   libvcruntimed:handlers.obj
 0001:0002b2d0       _CallSettingFrame_NotifyContinuationAddr 000000018002c2d0 f   libvcruntimed:handlers.obj
 0001:0002b300       _CallSettingFrameEncoded   000000018002c300 f   libvcruntimed:handlers.obj
 0001:0002b350       ??$__crt_interlocked_exchange_pointer@$$A6AXXZP6AXXZ@@YAP6AXXZPEDS6AXXZQ6AXXZ@Z 000000018002c350 f i libvcruntimed:purevirt.obj
 0001:0002b370       ??$__crt_interlocked_read_pointer@$$A6AXXZ@@YAP6AXXZPEDS6AXXZ@Z 000000018002c370 f i libvcruntimed:purevirt.obj
 0001:0002b390       _get_purecall_handler      000000018002c390 f   libvcruntimed:purevirt.obj
 0001:0002b3b0       _purecall                  000000018002c3b0 f   libvcruntimed:purevirt.obj
 0001:0002b3f0       _set_purecall_handler      000000018002c3f0 f   libvcruntimed:purevirt.obj
 0001:0002b410       free                       000000018002c410 f   libucrtd:free.obj
 0001:0002b440       malloc                     000000018002c440 f   libucrtd:malloc.obj
 0001:0002b470       ??$?RU?$__crt_report_hook_node@D@@@__crt_internal_free_policy@@QEBAXQEBU?$__crt_report_hook_node@D@@@Z 000000018002c470 f i libucrtd:dbgrpt.obj
 0001:0002b4a0       ??$?RU?$__crt_report_hook_node@_W@@@__crt_internal_free_policy@@QEBAXQEBU?$__crt_report_hook_node@_W@@@Z 000000018002c4a0 f i libucrtd:dbgrpt.obj
 0001:0002c6e0       ??$get_module_file_name@AEAPEAUHINSTANCE__@@AEAY0BAF@DK@?$__crt_char_traits@D@@SAKAEAPEAUHINSTANCE__@@AEAY0BAF@D$$QEAK@Z 000000018002d6e0 f i libucrtd:dbgrpt.obj
 0001:0002c720       ??$get_module_file_name@AEAPEAUHINSTANCE__@@AEAY0BAF@_WK@?$__crt_char_traits@_W@@SAKAEAPEAUHINSTANCE__@@AEAY0BAF@_W$$QEAK@Z 000000018002d720 f i libucrtd:dbgrpt.obj
 0001:0002c760       ??$tcscpy_s@AEAY0BAF@D_KPEBD@?$__crt_char_traits@D@@SAHAEAY0BAF@D$$QEA_K$$QEAPEBD@Z 000000018002d760 f i libucrtd:dbgrpt.obj
 0001:0002c7a0       ??$tcscpy_s@AEAY0BAF@_W_KPEB_W@?$__crt_char_traits@_W@@SAHAEAY0BAF@_W$$QEA_K$$QEAPEB_W@Z 000000018002d7a0 f i libucrtd:dbgrpt.obj
 0001:0002c7e0       ??$tcslen@AEAY0BAF@D@?$__crt_char_traits@D@@SA_KAEAY0BAF@D@Z 000000018002d7e0 f i libucrtd:dbgrpt.obj
 0001:0002c800       ??$tcslen@AEAY0BAF@_W@?$__crt_char_traits@_W@@SA_KAEAY0BAF@_W@Z 000000018002d800 f i libucrtd:dbgrpt.obj
 0001:0002c820       ??$tcslen@AEBQEBD@?$__crt_char_traits@D@@SA_KAEBQEBD@Z 000000018002d820 f i libucrtd:dbgrpt.obj
 0001:0002c840       ??$tcslen@AEBQEB_W@?$__crt_char_traits@_W@@SA_KAEBQEB_W@Z 000000018002d840 f i libucrtd:dbgrpt.obj
 0001:0002c940       ??0?$__crt_unique_heap_ptr@U?$__crt_report_hook_node@D@@U__crt_internal_free_policy@@@@QEAA@QEAU?$__crt_report_hook_node@D@@@Z 000000018002d940 f i libucrtd:dbgrpt.obj
 0001:0002c960       ??0?$__crt_unique_heap_ptr@U?$__crt_report_hook_node@_W@@U__crt_internal_free_policy@@@@QEAA@QEAU?$__crt_report_hook_node@_W@@@Z 000000018002d960 f i libucrtd:dbgrpt.obj
 0001:0002c980       ??1?$__crt_unique_heap_ptr@U?$__crt_report_hook_node@D@@U__crt_internal_free_policy@@@@QEAA@XZ 000000018002d980 f i libucrtd:dbgrpt.obj
 0001:0002c9a0       ??1?$__crt_unique_heap_ptr@U?$__crt_report_hook_node@_W@@U__crt_internal_free_policy@@@@QEAA@XZ 000000018002d9a0 f i libucrtd:dbgrpt.obj
 0001:0002c9c0       ??B?$__crt_unique_heap_ptr@U?$__crt_report_hook_node@D@@U__crt_internal_free_policy@@@@QEBA_NXZ 000000018002d9c0 f i libucrtd:dbgrpt.obj
 0001:0002c9e0       ??B?$__crt_unique_heap_ptr@U?$__crt_report_hook_node@_W@@U__crt_internal_free_policy@@@@QEBA_NXZ 000000018002d9e0 f i libucrtd:dbgrpt.obj
 0001:0002d0c0       ?detach@?$__crt_unique_heap_ptr@U?$__crt_report_hook_node@D@@U__crt_internal_free_policy@@@@QEAAPEAU?$__crt_report_hook_node@D@@XZ 000000018002e0c0 f i libucrtd:dbgrpt.obj
 0001:0002d0f0       ?detach@?$__crt_unique_heap_ptr@U?$__crt_report_hook_node@_W@@U__crt_internal_free_policy@@@@QEAAPEAU?$__crt_report_hook_node@_W@@XZ 000000018002e0f0 f i libucrtd:dbgrpt.obj
 0001:0002d120       ?get@?$__crt_unique_heap_ptr@U?$__crt_report_hook_node@D@@U__crt_internal_free_policy@@@@QEBAPEAU?$__crt_report_hook_node@D@@XZ 000000018002e120 f i libucrtd:dbgrpt.obj
 0001:0002d130       ?get@?$__crt_unique_heap_ptr@U?$__crt_report_hook_node@_W@@U__crt_internal_free_policy@@@@QEBAPEAU?$__crt_report_hook_node@_W@@XZ 000000018002e130 f i libucrtd:dbgrpt.obj
 0001:0002d1a0       ?is_valid@?$__crt_unique_heap_ptr@U?$__crt_report_hook_node@D@@U__crt_internal_free_policy@@@@QEBA_NXZ 000000018002e1a0 f i libucrtd:dbgrpt.obj
 0001:0002d1d0       ?is_valid@?$__crt_unique_heap_ptr@U?$__crt_report_hook_node@_W@@U__crt_internal_free_policy@@@@QEBA_NXZ 000000018002e1d0 f i libucrtd:dbgrpt.obj
 0001:0002d200       ?release@?$__crt_unique_heap_ptr@U?$__crt_report_hook_node@D@@U__crt_internal_free_policy@@@@QEAAXXZ 000000018002e200 f i libucrtd:dbgrpt.obj
 0001:0002d230       ?release@?$__crt_unique_heap_ptr@U?$__crt_report_hook_node@_W@@U__crt_internal_free_policy@@@@QEAAXXZ 000000018002e230 f i libucrtd:dbgrpt.obj
 0001:0002d260       _CrtDbgReport              000000018002e260 f   libucrtd:dbgrpt.obj
 0001:0002d2e0       _CrtDbgReportW             000000018002e2e0 f   libucrtd:dbgrpt.obj
 0001:0002d360       _CrtSetReportHook2         000000018002e360 f   libucrtd:dbgrpt.obj
 0001:0002d380       _CrtSetReportHookW2        000000018002e380 f   libucrtd:dbgrpt.obj
 0001:0002d3a0       __acrt_MessageWindowA      000000018002e3a0 f   libucrtd:dbgrpt.obj
 0001:0002d3f0       __acrt_MessageWindowW      000000018002e3f0 f   libucrtd:dbgrpt.obj
 0001:0002d440       _invoke_watson_if_error    000000018002e440 f i libucrtd:dbgrpt.obj
 0001:0002d490       _invoke_watson_if_oneof    000000018002e490 f i libucrtd:dbgrpt.obj
 0001:0002d4f0       _snwprintf_s               000000018002e4f0 f i libucrtd:dbgrpt.obj
 0001:0002d560       _vsnwprintf_s_l            000000018002e560 f i libucrtd:dbgrpt.obj
 0001:0002dac0       wcscpy_s                   000000018002eac0 f   libucrtd:wcscpy_s.obj
 0001:0002ee50       ??1?$__crt_simd_cleanup_guard@$00@@QEAA@XZ 000000018002fe50 f i libucrtd:strnlen.obj
 0001:0002ee60       ??1?$__crt_simd_cleanup_guard@$0A@@@QEAA@XZ 000000018002fe60 f i libucrtd:strnlen.obj
 0001:0002ee70       ?compare_equals@?$__crt_simd_traits@$00E@@SA?AT__m256i@@T2@0@Z 000000018002fe70 f i libucrtd:strnlen.obj
 0001:0002eeb0       ?compare_equals@?$__crt_simd_traits@$00G@@SA?AT__m256i@@T2@0@Z 000000018002feb0 f i libucrtd:strnlen.obj
 0001:0002eef0       ?compare_equals@?$__crt_simd_traits@$0A@E@@SA?AT__m128i@@T2@0@Z 000000018002fef0 f i libucrtd:strnlen.obj
 0001:0002ef20       ?compare_equals@?$__crt_simd_traits@$0A@G@@SA?AT__m128i@@T2@0@Z 000000018002ff20 f i libucrtd:strnlen.obj
 0001:0002ef50       ?compute_byte_mask@?$__crt_simd_pack_traits@$00@@SAHT__m256i@@@Z 000000018002ff50 f i libucrtd:strnlen.obj
 0001:0002ef70       ?compute_byte_mask@?$__crt_simd_pack_traits@$0A@@@SAHT__m128i@@@Z 000000018002ff70 f i libucrtd:strnlen.obj
 0001:0002ef90       ?get_zero_pack@?$__crt_simd_pack_traits@$00@@SA?AT__m256i@@XZ 000000018002ff90 f i libucrtd:strnlen.obj
 0001:0002efc0       ?get_zero_pack@?$__crt_simd_pack_traits@$0A@@@SA?AT__m128i@@XZ 000000018002ffc0 f i libucrtd:strnlen.obj
 0001:0002efe0       strnlen                    000000018002ffe0 f   libucrtd:strnlen.obj
 0001:0002f010       wcslen                     0000000180030010 f   libucrtd:strnlen.obj
 0001:0002f030       wcsnlen                    0000000180030030 f   libucrtd:strnlen.obj
 0001:0002f060       ??$?0AEBV?$stream_output_adapter@D@__crt_stdio_output@@AEB_KAEBQEBDAEBQEAU__crt_locale_pointers@@AEBQEAD@?$format_validation_base@DV?$stream_output_adapter@D@__crt_stdio_output@@@__crt_stdio_output@@IEAA@AEBV?$stream_output_adapter@D@1@AEB_KAEBQEBDAEBQEAU__crt_locale_pointers@@AEBQEAD@Z 0000000180030060 f i libucrtd:output.obj
 0001:0002f0b0       ??$?0AEBV?$stream_output_adapter@D@__crt_stdio_output@@AEB_KAEBQEBDAEBQEAU__crt_locale_pointers@@AEBQEAD@?$positional_parameter_base@DV?$stream_output_adapter@D@__crt_stdio_output@@@__crt_stdio_output@@IEAA@AEBV?$stream_output_adapter@D@1@AEB_KAEBQEBDAEBQEAU__crt_locale_pointers@@AEBQEAD@Z 00000001800300b0 f i libucrtd:output.obj
 0001:0002f150       ??$?0AEBV?$stream_output_adapter@D@__crt_stdio_output@@AEB_KAEBQEBDAEBQEAU__crt_locale_pointers@@AEBQEAD@?$standard_base@DV?$stream_output_adapter@D@__crt_stdio_output@@@__crt_stdio_output@@IEAA@AEBV?$stream_output_adapter@D@1@AEB_KAEBQEBDAEBQEAU__crt_locale_pointers@@AEBQEAD@Z 0000000180030150 f i libucrtd:output.obj
 0001:0002f1c0       ??$?0AEBV?$stream_output_adapter@_W@__crt_stdio_output@@AEB_KAEBQEB_WAEBQEAU__crt_locale_pointers@@AEBQEAD@?$format_validation_base@_WV?$stream_output_adapter@_W@__crt_stdio_output@@@__crt_stdio_output@@IEAA@AEBV?$stream_output_adapter@_W@1@AEB_KAEBQEB_WAEBQEAU__crt_locale_pointers@@AEBQEAD@Z 00000001800301c0 f i libucrtd:output.obj
 0001:0002f210       ??$?0AEBV?$stream_output_adapter@_W@__crt_stdio_output@@AEB_KAEBQEB_WAEBQEAU__crt_locale_pointers@@AEBQEAD@?$positional_parameter_base@_WV?$stream_output_adapter@_W@__crt_stdio_output@@@__crt_stdio_output@@IEAA@AEBV?$stream_output_adapter@_W@1@AEB_KAEBQEB_WAEBQEAU__crt_locale_pointers@@AEBQEAD@Z 0000000180030210 f i libucrtd:output.obj
 0001:0002f2b0       ??$?0AEBV?$stream_output_adapter@_W@__crt_stdio_output@@AEB_KAEBQEB_WAEBQEAU__crt_locale_pointers@@AEBQEAD@?$standard_base@_WV?$stream_output_adapter@_W@__crt_stdio_output@@@__crt_stdio_output@@IEAA@AEBV?$stream_output_adapter@_W@1@AEB_KAEBQEB_WAEBQEAU__crt_locale_pointers@@AEBQEAD@Z 00000001800302b0 f i libucrtd:output.obj
 0001:0002f320       ??$?0AEBV?$string_output_adapter@D@__crt_stdio_output@@AEB_KAEBQEBDAEBQEAU__crt_locale_pointers@@AEBQEAD@?$format_validation_base@DV?$string_output_adapter@D@__crt_stdio_output@@@__crt_stdio_output@@IEAA@AEBV?$string_output_adapter@D@1@AEB_KAEBQEBDAEBQEAU__crt_locale_pointers@@AEBQEAD@Z 0000000180030320 f i libucrtd:output.obj
 0001:0002f370       ??$?0AEBV?$string_output_adapter@D@__crt_stdio_output@@AEB_KAEBQEBDAEBQEAU__crt_locale_pointers@@AEBQEAD@?$positional_parameter_base@DV?$string_output_adapter@D@__crt_stdio_output@@@__crt_stdio_output@@IEAA@AEBV?$string_output_adapter@D@1@AEB_KAEBQEBDAEBQEAU__crt_locale_pointers@@AEBQEAD@Z 0000000180030370 f i libucrtd:output.obj
 0001:0002f410       ??$?0AEBV?$string_output_adapter@D@__crt_stdio_output@@AEB_KAEBQEBDAEBQEAU__crt_locale_pointers@@AEBQEAD@?$standard_base@DV?$string_output_adapter@D@__crt_stdio_output@@@__crt_stdio_output@@IEAA@AEBV?$string_output_adapter@D@1@AEB_KAEBQEBDAEBQEAU__crt_locale_pointers@@AEBQEAD@Z 0000000180030410 f i libucrtd:output.obj
 0001:0002f480       ??$?0AEBV?$string_output_adapter@_W@__crt_stdio_output@@AEB_KAEBQEB_WAEBQEAU__crt_locale_pointers@@AEBQEAD@?$format_validation_base@_WV?$string_output_adapter@_W@__crt_stdio_output@@@__crt_stdio_output@@IEAA@AEBV?$string_output_adapter@_W@1@AEB_KAEBQEB_WAEBQEAU__crt_locale_pointers@@AEBQEAD@Z 0000000180030480 f i libucrtd:output.obj
 0001:0002f4d0       ??$?0AEBV?$string_output_adapter@_W@__crt_stdio_output@@AEB_KAEBQEB_WAEBQEAU__crt_locale_pointers@@AEBQEAD@?$positional_parameter_base@_WV?$string_output_adapter@_W@__crt_stdio_output@@@__crt_stdio_output@@IEAA@AEBV?$string_output_adapter@_W@1@AEB_KAEBQEB_WAEBQEAU__crt_locale_pointers@@AEBQEAD@Z 00000001800304d0 f i libucrtd:output.obj
 0001:0002f570       ??$?0AEBV?$string_output_adapter@_W@__crt_stdio_output@@AEB_KAEBQEB_WAEBQEAU__crt_locale_pointers@@AEBQEAD@?$standard_base@_WV?$string_output_adapter@_W@__crt_stdio_output@@@__crt_stdio_output@@IEAA@AEBV?$string_output_adapter@_W@1@AEB_KAEBQEB_WAEBQEAU__crt_locale_pointers@@AEBQEAD@Z 0000000180030570 f i libucrtd:output.obj
 0001:0002f9a0       ??$__crt_interlocked_read@J@@YAJPEDJ@Z 00000001800309a0 f i libucrtd:output.obj
 0001:00033480       ??$count@D@formatting_buffer@__crt_stdio_output@@QEBA_KXZ 0000000180034480 f i libucrtd:output.obj
 0001:000334d0       ??$count@_W@formatting_buffer@__crt_stdio_output@@QEBA_KXZ 00000001800344d0 f i libucrtd:output.obj
 0001:00033520       ??$data@D@formatting_buffer@__crt_stdio_output@@QEAAPEADXZ 0000000180034520 f i libucrtd:output.obj
 0001:00033570       ??$data@_W@formatting_buffer@__crt_stdio_output@@QEAAPEA_WXZ 0000000180034570 f i libucrtd:output.obj
 0001:000335c0       ??$ensure_buffer_is_big_enough@D@formatting_buffer@__crt_stdio_output@@QEAA_N_K@Z 00000001800345c0 f i libucrtd:output.obj
 0001:000336f0       ??$ensure_buffer_is_big_enough@_W@formatting_buffer@__crt_stdio_output@@QEAA_N_K@Z 00000001800346f0 f i libucrtd:output.obj
 0001:00033820       ??$extract_argument_from_va_list@C_J@?$positional_parameter_base@DV?$stream_output_adapter@D@__crt_stdio_output@@@__crt_stdio_output@@IEAA_NAEA_J@Z 0000000180034820 f i libucrtd:output.obj
 0001:000339a0       ??$extract_argument_from_va_list@C_J@?$positional_parameter_base@DV?$string_output_adapter@D@__crt_stdio_output@@@__crt_stdio_output@@IEAA_NAEA_J@Z 00000001800349a0 f i libucrtd:output.obj
 0001:00033b20       ??$extract_argument_from_va_list@C_J@?$positional_parameter_base@_WV?$stream_output_adapter@_W@__crt_stdio_output@@@__crt_stdio_output@@IEAA_NAEA_J@Z 0000000180034b20 f i libucrtd:output.obj
 0001:00033ca0       ??$extract_argument_from_va_list@C_J@?$positional_parameter_base@_WV?$string_output_adapter@_W@__crt_stdio_output@@@__crt_stdio_output@@IEAA_NAEA_J@Z 0000000180034ca0 f i libucrtd:output.obj
 0001:00033e20       ??$extract_argument_from_va_list@C_J@?$standard_base@DV?$stream_output_adapter@D@__crt_stdio_output@@@__crt_stdio_output@@IEAA_NAEA_J@Z 0000000180034e20 f i libucrtd:output.obj
 0001:00033e60       ??$extract_argument_from_va_list@C_J@?$standard_base@DV?$string_output_adapter@D@__crt_stdio_output@@@__crt_stdio_output@@IEAA_NAEA_J@Z 0000000180034e60 f i libucrtd:output.obj
 0001:00033ea0       ??$extract_argument_from_va_list@C_J@?$standard_base@_WV?$stream_output_adapter@_W@__crt_stdio_output@@@__crt_stdio_output@@IEAA_NAEA_J@Z 0000000180034ea0 f i libucrtd:output.obj
 0001:00033ee0       ??$extract_argument_from_va_list@C_J@?$standard_base@_WV?$string_output_adapter@_W@__crt_stdio_output@@@__crt_stdio_output@@IEAA_NAEA_J@Z 0000000180034ee0 f i libucrtd:output.obj
 0001:00033f20       ??$extract_argument_from_va_list@E_J@?$positional_parameter_base@DV?$stream_output_adapter@D@__crt_stdio_output@@@__crt_stdio_output@@IEAA_NAEA_J@Z 0000000180034f20 f i libucrtd:output.obj
 0001:000340a0       ??$extract_argument_from_va_list@E_J@?$positional_parameter_base@DV?$string_output_adapter@D@__crt_stdio_output@@@__crt_stdio_output@@IEAA_NAEA_J@Z 00000001800350a0 f i libucrtd:output.obj
 0001:00034220       ??$extract_argument_from_va_list@E_J@?$positional_parameter_base@_WV?$stream_output_adapter@_W@__crt_stdio_output@@@__crt_stdio_output@@IEAA_NAEA_J@Z 0000000180035220 f i libucrtd:output.obj
 0001:000343a0       ??$extract_argument_from_va_list@E_J@?$positional_parameter_base@_WV?$string_output_adapter@_W@__crt_stdio_output@@@__crt_stdio_output@@IEAA_NAEA_J@Z 00000001800353a0 f i libucrtd:output.obj
 0001:00034520       ??$extract_argument_from_va_list@E_J@?$standard_base@DV?$stream_output_adapter@D@__crt_stdio_output@@@__crt_stdio_output@@IEAA_NAEA_J@Z 0000000180035520 f i libucrtd:output.obj
 0001:00034560       ??$extract_argument_from_va_list@E_J@?$standard_base@DV?$string_output_adapter@D@__crt_stdio_output@@@__crt_stdio_output@@IEAA_NAEA_J@Z 0000000180035560 f i libucrtd:output.obj
 0001:000345a0       ??$extract_argument_from_va_list@E_J@?$standard_base@_WV?$stream_output_adapter@_W@__crt_stdio_output@@@__crt_stdio_output@@IEAA_NAEA_J@Z 00000001800355a0 f i libucrtd:output.obj
 0001:000345e0       ??$extract_argument_from_va_list@E_J@?$standard_base@_WV?$string_output_adapter@_W@__crt_stdio_output@@@__crt_stdio_output@@IEAA_NAEA_J@Z 00000001800355e0 f i libucrtd:output.obj
 0001:00034620       ??$extract_argument_from_va_list@F_J@?$positional_parameter_base@DV?$stream_output_adapter@D@__crt_stdio_output@@@__crt_stdio_output@@IEAA_NAEA_J@Z 0000000180035620 f i libucrtd:output.obj
 0001:000347a0       ??$extract_argument_from_va_list@F_J@?$positional_parameter_base@DV?$string_output_adapter@D@__crt_stdio_output@@@__crt_stdio_output@@IEAA_NAEA_J@Z 00000001800357a0 f i libucrtd:output.obj
 0001:00034920       ??$extract_argument_from_va_list@F_J@?$positional_parameter_base@_WV?$stream_output_adapter@_W@__crt_stdio_output@@@__crt_stdio_output@@IEAA_NAEA_J@Z 0000000180035920 f i libucrtd:output.obj
 0001:00034aa0       ??$extract_argument_from_va_list@F_J@?$positional_parameter_base@_WV?$string_output_adapter@_W@__crt_stdio_output@@@__crt_stdio_output@@IEAA_NAEA_J@Z 0000000180035aa0 f i libucrtd:output.obj
 0001:00034c20       ??$extract_argument_from_va_list@F_J@?$standard_base@DV?$stream_output_adapter@D@__crt_stdio_output@@@__crt_stdio_output@@IEAA_NAEA_J@Z 0000000180035c20 f i libucrtd:output.obj
 0001:00034c60       ??$extract_argument_from_va_list@F_J@?$standard_base@DV?$string_output_adapter@D@__crt_stdio_output@@@__crt_stdio_output@@IEAA_NAEA_J@Z 0000000180035c60 f i libucrtd:output.obj
 0001:00034ca0       ??$extract_argument_from_va_list@F_J@?$standard_base@_WV?$stream_output_adapter@_W@__crt_stdio_output@@@__crt_stdio_output@@IEAA_NAEA_J@Z 0000000180035ca0 f i libucrtd:output.obj
 0001:00034ce0       ??$extract_argument_from_va_list@F_J@?$standard_base@_WV?$string_output_adapter@_W@__crt_stdio_output@@@__crt_stdio_output@@IEAA_NAEA_J@Z 0000000180035ce0 f i libucrtd:output.obj
 0001:00034d20       ??$extract_argument_from_va_list@GD@?$positional_parameter_base@DV?$stream_output_adapter@D@__crt_stdio_output@@@__crt_stdio_output@@IEAA_NAEAD@Z 0000000180035d20 f i libucrtd:output.obj
 0001:00034ea0       ??$extract_argument_from_va_list@GD@?$positional_parameter_base@DV?$string_output_adapter@D@__crt_stdio_output@@@__crt_stdio_output@@IEAA_NAEAD@Z 0000000180035ea0 f i libucrtd:output.obj
 0001:00035020       ??$extract_argument_from_va_list@GD@?$standard_base@DV?$stream_output_adapter@D@__crt_stdio_output@@@__crt_stdio_output@@IEAA_NAEAD@Z 0000000180036020 f i libucrtd:output.obj
 0001:00035050       ??$extract_argument_from_va_list@GD@?$standard_base@DV?$string_output_adapter@D@__crt_stdio_output@@@__crt_stdio_output@@IEAA_NAEAD@Z 0000000180036050 f i libucrtd:output.obj
 0001:00035080       ??$extract_argument_from_va_list@G_J@?$positional_parameter_base@DV?$stream_output_adapter@D@__crt_stdio_output@@@__crt_stdio_output@@IEAA_NAEA_J@Z 0000000180036080 f i libucrtd:output.obj
 0001:00035200       ??$extract_argument_from_va_list@G_J@?$positional_parameter_base@DV?$string_output_adapter@D@__crt_stdio_output@@@__crt_stdio_output@@IEAA_NAEA_J@Z 0000000180036200 f i libucrtd:output.obj
 0001:00035380       ??$extract_argument_from_va_list@G_J@?$positional_parameter_base@_WV?$stream_output_adapter@_W@__crt_stdio_output@@@__crt_stdio_output@@IEAA_NAEA_J@Z 0000000180036380 f i libucrtd:output.obj
 0001:00035500       ??$extract_argument_from_va_list@G_J@?$positional_parameter_base@_WV?$string_output_adapter@_W@__crt_stdio_output@@@__crt_stdio_output@@IEAA_NAEA_J@Z 0000000180036500 f i libucrtd:output.obj
 0001:00035680       ??$extract_argument_from_va_list@G_J@?$standard_base@DV?$stream_output_adapter@D@__crt_stdio_output@@@__crt_stdio_output@@IEAA_NAEA_J@Z 0000000180036680 f i libucrtd:output.obj
 0001:000356c0       ??$extract_argument_from_va_list@G_J@?$standard_base@DV?$string_output_adapter@D@__crt_stdio_output@@@__crt_stdio_output@@IEAA_NAEA_J@Z 00000001800366c0 f i libucrtd:output.obj
 0001:00035700       ??$extract_argument_from_va_list@G_J@?$standard_base@_WV?$stream_output_adapter@_W@__crt_stdio_output@@@__crt_stdio_output@@IEAA_NAEA_J@Z 0000000180036700 f i libucrtd:output.obj
 0001:00035740       ??$extract_argument_from_va_list@G_J@?$standard_base@_WV?$string_output_adapter@_W@__crt_stdio_output@@@__crt_stdio_output@@IEAA_NAEA_J@Z 0000000180036740 f i libucrtd:output.obj
 0001:00035780       ??$extract_argument_from_va_list@H_J@?$positional_parameter_base@DV?$stream_output_adapter@D@__crt_stdio_output@@@__crt_stdio_output@@IEAA_NAEA_J@Z 0000000180036780 f i libucrtd:output.obj
 0001:00035900       ??$extract_argument_from_va_list@H_J@?$positional_parameter_base@DV?$string_output_adapter@D@__crt_stdio_output@@@__crt_stdio_output@@IEAA_NAEA_J@Z 0000000180036900 f i libucrtd:output.obj
 0001:00035a80       ??$extract_argument_from_va_list@H_J@?$positional_parameter_base@_WV?$stream_output_adapter@_W@__crt_stdio_output@@@__crt_stdio_output@@IEAA_NAEA_J@Z 0000000180036a80 f i libucrtd:output.obj
 0001:00035c00       ??$extract_argument_from_va_list@H_J@?$positional_parameter_base@_WV?$string_output_adapter@_W@__crt_stdio_output@@@__crt_stdio_output@@IEAA_NAEA_J@Z 0000000180036c00 f i libucrtd:output.obj
 0001:00035d80       ??$extract_argument_from_va_list@H_J@?$standard_base@DV?$stream_output_adapter@D@__crt_stdio_output@@@__crt_stdio_output@@IEAA_NAEA_J@Z 0000000180036d80 f i libucrtd:output.obj
 0001:00035db0       ??$extract_argument_from_va_list@H_J@?$standard_base@DV?$string_output_adapter@D@__crt_stdio_output@@@__crt_stdio_output@@IEAA_NAEA_J@Z 0000000180036db0 f i libucrtd:output.obj
 0001:00035de0       ??$extract_argument_from_va_list@H_J@?$standard_base@_WV?$stream_output_adapter@_W@__crt_stdio_output@@@__crt_stdio_output@@IEAA_NAEA_J@Z 0000000180036de0 f i libucrtd:output.obj
 0001:00035e10       ??$extract_argument_from_va_list@H_J@?$standard_base@_WV?$string_output_adapter@_W@__crt_stdio_output@@@__crt_stdio_output@@IEAA_NAEA_J@Z 0000000180036e10 f i libucrtd:output.obj
 0001:00035e40       ??$extract_argument_from_va_list@I_J@?$positional_parameter_base@DV?$stream_output_adapter@D@__crt_stdio_output@@@__crt_stdio_output@@IEAA_NAEA_J@Z 0000000180036e40 f i libucrtd:output.obj
 0001:00035fc0       ??$extract_argument_from_va_list@I_J@?$positional_parameter_base@DV?$string_output_adapter@D@__crt_stdio_output@@@__crt_stdio_output@@IEAA_NAEA_J@Z 0000000180036fc0 f i libucrtd:output.obj
 0001:00036140       ??$extract_argument_from_va_list@I_J@?$positional_parameter_base@_WV?$stream_output_adapter@_W@__crt_stdio_output@@@__crt_stdio_output@@IEAA_NAEA_J@Z 0000000180037140 f i libucrtd:output.obj
 0001:000362c0       ??$extract_argument_from_va_list@I_J@?$positional_parameter_base@_WV?$string_output_adapter@_W@__crt_stdio_output@@@__crt_stdio_output@@IEAA_NAEA_J@Z 00000001800372c0 f i libucrtd:output.obj
 0001:00036440       ??$extract_argument_from_va_list@I_J@?$standard_base@DV?$stream_output_adapter@D@__crt_stdio_output@@@__crt_stdio_output@@IEAA_NAEA_J@Z 0000000180037440 f i libucrtd:output.obj
 0001:00036470       ??$extract_argument_from_va_list@I_J@?$standard_base@DV?$string_output_adapter@D@__crt_stdio_output@@@__crt_stdio_output@@IEAA_NAEA_J@Z 0000000180037470 f i libucrtd:output.obj
 0001:000364a0       ??$extract_argument_from_va_list@I_J@?$standard_base@_WV?$stream_output_adapter@_W@__crt_stdio_output@@@__crt_stdio_output@@IEAA_NAEA_J@Z 00000001800374a0 f i libucrtd:output.obj
 0001:000364d0       ??$extract_argument_from_va_list@I_J@?$standard_base@_WV?$string_output_adapter@_W@__crt_stdio_output@@@__crt_stdio_output@@IEAA_NAEA_J@Z 00000001800374d0 f i libucrtd:output.obj
 0001:00036500       ??$extract_argument_from_va_list@PEADPEAD@?$positional_parameter_base@DV?$stream_output_adapter@D@__crt_stdio_output@@@__crt_stdio_output@@IEAA_NAEAPEAD@Z 0000000180037500 f i libucrtd:output.obj
 0001:00036680       ??$extract_argument_from_va_list@PEADPEAD@?$positional_parameter_base@DV?$string_output_adapter@D@__crt_stdio_output@@@__crt_stdio_output@@IEAA_NAEAPEAD@Z 0000000180037680 f i libucrtd:output.obj
 0001:00036800       ??$extract_argument_from_va_list@PEADPEAD@?$positional_parameter_base@_WV?$stream_output_adapter@_W@__crt_stdio_output@@@__crt_stdio_output@@IEAA_NAEAPEAD@Z 0000000180037800 f i libucrtd:output.obj
 0001:00036980       ??$extract_argument_from_va_list@PEADPEAD@?$positional_parameter_base@_WV?$string_output_adapter@_W@__crt_stdio_output@@@__crt_stdio_output@@IEAA_NAEAPEAD@Z 0000000180037980 f i libucrtd:output.obj
 0001:00036b00       ??$extract_argument_from_va_list@PEADPEAD@?$standard_base@DV?$stream_output_adapter@D@__crt_stdio_output@@@__crt_stdio_output@@IEAA_NAEAPEAD@Z 0000000180037b00 f i libucrtd:output.obj
 0001:00036b30       ??$extract_argument_from_va_list@PEADPEAD@?$standard_base@DV?$string_output_adapter@D@__crt_stdio_output@@@__crt_stdio_output@@IEAA_NAEAPEAD@Z 0000000180037b30 f i libucrtd:output.obj
 0001:00036b60       ??$extract_argument_from_va_list@PEADPEAD@?$standard_base@_WV?$stream_output_adapter@_W@__crt_stdio_output@@@__crt_stdio_output@@IEAA_NAEAPEAD@Z 0000000180037b60 f i libucrtd:output.obj
 0001:00036b90       ??$extract_argument_from_va_list@PEADPEAD@?$standard_base@_WV?$string_output_adapter@_W@__crt_stdio_output@@@__crt_stdio_output@@IEAA_NAEAPEAD@Z 0000000180037b90 f i libucrtd:output.obj
 0001:00036bc0       ??$extract_argument_from_va_list@PEAUansi_string@?1??type_case_Z@?$output_processor@DV?$stream_output_adapter@D@__crt_stdio_output@@V?$format_validation_base@DV?$stream_output_adapter@D@__crt_stdio_output@@@2@@__crt_stdio_output@@AEAA_NXZ@PEAU1?1??234@AEAA_NXZ@@?$standard_base@DV?$stream_output_adapter@D@__crt_stdio_output@@@__crt_stdio_output@@IEAA_NAEAPEAUansi_string@?1??type_case_Z@?$output_processor@DV?$stream_output_adapter@D@__crt_stdio_output@@V?$format_validation_base@DV?$stream_output_adapter@D@__crt_stdio_output@@@2@@1@AEAA_NXZ@@Z 0000000180037bc0 f i libucrtd:output.obj
 0001:00036bf0       ??$extract_argument_from_va_list@PEAUansi_string@?1??type_case_Z@?$output_processor@DV?$stream_output_adapter@D@__crt_stdio_output@@V?$positional_parameter_base@DV?$stream_output_adapter@D@__crt_stdio_output@@@2@@__crt_stdio_output@@AEAA_NXZ@PEAU1?1??234@AEAA_NXZ@@?$positional_parameter_base@DV?$stream_output_adapter@D@__crt_stdio_output@@@__crt_stdio_output@@IEAA_NAEAPEAUansi_string@?1??type_case_Z@?$output_processor@DV?$stream_output_adapter@D@__crt_stdio_output@@V?$positional_parameter_base@DV?$stream_output_adapter@D@__crt_stdio_output@@@2@@1@AEAA_NXZ@@Z 0000000180037bf0 f i libucrtd:output.obj
 0001:00036d70       ??$extract_argument_from_va_list@PEAUansi_string@?1??type_case_Z@?$output_processor@DV?$stream_output_adapter@D@__crt_stdio_output@@V?$positional_parameter_base@DV?$stream_output_adapter@D@__crt_stdio_output@@@2@@__crt_stdio_output@@AEAA_NXZ@PEAU1?1??234@AEAA_NXZ@@?$standard_base@DV?$stream_output_adapter@D@__crt_stdio_output@@@__crt_stdio_output@@IEAA_NAEAPEAUansi_string@?1??type_case_Z@?$output_processor@DV?$stream_output_adapter@D@__crt_stdio_output@@V?$positional_parameter_base@DV?$stream_output_adapter@D@__crt_stdio_output@@@2@@1@AEAA_NXZ@@Z 0000000180037d70 f i libucrtd:output.obj
 0001:00036da0       ??$extract_argument_from_va_list@PEAUansi_string@?1??type_case_Z@?$output_processor@DV?$stream_output_adapter@D@__crt_stdio_output@@V?$standard_base@DV?$stream_output_adapter@D@__crt_stdio_output@@@2@@__crt_stdio_output@@AEAA_NXZ@PEAU1?1??234@AEAA_NXZ@@?$standard_base@DV?$stream_output_adapter@D@__crt_stdio_output@@@__crt_stdio_output@@IEAA_NAEAPEAUansi_string@?1??type_case_Z@?$output_processor@DV?$stream_output_adapter@D@__crt_stdio_output@@V?$standard_base@DV?$stream_output_adapter@D@__crt_stdio_output@@@2@@1@AEAA_NXZ@@Z 0000000180037da0 f i libucrtd:output.obj
 0001:00036dd0       ??$extract_argument_from_va_list@PEAUansi_string@?1??type_case_Z@?$output_processor@DV?$string_output_adapter@D@__crt_stdio_output@@V?$format_validation_base@DV?$string_output_adapter@D@__crt_stdio_output@@@2@@__crt_stdio_output@@AEAA_NXZ@PEAU1?1??234@AEAA_NXZ@@?$standard_base@DV?$string_output_adapter@D@__crt_stdio_output@@@__crt_stdio_output@@IEAA_NAEAPEAUansi_string@?1??type_case_Z@?$output_processor@DV?$string_output_adapter@D@__crt_stdio_output@@V?$format_validation_base@DV?$string_output_adapter@D@__crt_stdio_output@@@2@@1@AEAA_NXZ@@Z 0000000180037dd0 f i libucrtd:output.obj
 0001:00036e00       ??$extract_argument_from_va_list@PEAUansi_string@?1??type_case_Z@?$output_processor@DV?$string_output_adapter@D@__crt_stdio_output@@V?$positional_parameter_base@DV?$string_output_adapter@D@__crt_stdio_output@@@2@@__crt_stdio_output@@AEAA_NXZ@PEAU1?1??234@AEAA_NXZ@@?$positional_parameter_base@DV?$string_output_adapter@D@__crt_stdio_output@@@__crt_stdio_output@@IEAA_NAEAPEAUansi_string@?1??type_case_Z@?$output_processor@DV?$string_output_adapter@D@__crt_stdio_output@@V?$positional_parameter_base@DV?$string_output_adapter@D@__crt_stdio_output@@@2@@1@AEAA_NXZ@@Z 0000000180037e00 f i libucrtd:output.obj
 0001:00036f80       ??$extract_argument_from_va_list@PEAUansi_string@?1??type_case_Z@?$output_processor@DV?$string_output_adapter@D@__crt_stdio_output@@V?$positional_parameter_base@DV?$string_output_adapter@D@__crt_stdio_output@@@2@@__crt_stdio_output@@AEAA_NXZ@PEAU1?1??234@AEAA_NXZ@@?$standard_base@DV?$string_output_adapter@D@__crt_stdio_output@@@__crt_stdio_output@@IEAA_NAEAPEAUansi_string@?1??type_case_Z@?$output_processor@DV?$string_output_adapter@D@__crt_stdio_output@@V?$positional_parameter_base@DV?$string_output_adapter@D@__crt_stdio_output@@@2@@1@AEAA_NXZ@@Z 0000000180037f80 f i libucrtd:output.obj
 0001:00036fb0       ??$extract_argument_from_va_list@PEAUansi_string@?1??type_case_Z@?$output_processor@DV?$string_output_adapter@D@__crt_stdio_output@@V?$standard_base@DV?$string_output_adapter@D@__crt_stdio_output@@@2@@__crt_stdio_output@@AEAA_NXZ@PEAU1?1??234@AEAA_NXZ@@?$standard_base@DV?$string_output_adapter@D@__crt_stdio_output@@@__crt_stdio_output@@IEAA_NAEAPEAUansi_string@?1??type_case_Z@?$output_processor@DV?$string_output_adapter@D@__crt_stdio_output@@V?$standard_base@DV?$string_output_adapter@D@__crt_stdio_output@@@2@@1@AEAA_NXZ@@Z 0000000180037fb0 f i libucrtd:output.obj
 0001:00036fe0       ??$extract_argument_from_va_list@PEAUansi_string@?1??type_case_Z@?$output_processor@_WV?$stream_output_adapter@_W@__crt_stdio_output@@V?$format_validation_base@_WV?$stream_output_adapter@_W@__crt_stdio_output@@@2@@__crt_stdio_output@@AEAA_NXZ@PEAU1?1??234@AEAA_NXZ@@?$standard_base@_WV?$stream_output_adapter@_W@__crt_stdio_output@@@__crt_stdio_output@@IEAA_NAEAPEAUansi_string@?1??type_case_Z@?$output_processor@_WV?$stream_output_adapter@_W@__crt_stdio_output@@V?$format_validation_base@_WV?$stream_output_adapter@_W@__crt_stdio_output@@@2@@1@AEAA_NXZ@@Z 0000000180037fe0 f i libucrtd:output.obj
 0001:00037010       ??$extract_argument_from_va_list@PEAUansi_string@?1??type_case_Z@?$output_processor@_WV?$stream_output_adapter@_W@__crt_stdio_output@@V?$positional_parameter_base@_WV?$stream_output_adapter@_W@__crt_stdio_output@@@2@@__crt_stdio_output@@AEAA_NXZ@PEAU1?1??234@AEAA_NXZ@@?$positional_parameter_base@_WV?$stream_output_adapter@_W@__crt_stdio_output@@@__crt_stdio_output@@IEAA_NAEAPEAUansi_string@?1??type_case_Z@?$output_processor@_WV?$stream_output_adapter@_W@__crt_stdio_output@@V?$positional_parameter_base@_WV?$stream_output_adapter@_W@__crt_stdio_output@@@2@@1@AEAA_NXZ@@Z 0000000180038010 f i libucrtd:output.obj
 0001:00037190       ??$extract_argument_from_va_list@PEAUansi_string@?1??type_case_Z@?$output_processor@_WV?$stream_output_adapter@_W@__crt_stdio_output@@V?$positional_parameter_base@_WV?$stream_output_adapter@_W@__crt_stdio_output@@@2@@__crt_stdio_output@@AEAA_NXZ@PEAU1?1??234@AEAA_NXZ@@?$standard_base@_WV?$stream_output_adapter@_W@__crt_stdio_output@@@__crt_stdio_output@@IEAA_NAEAPEAUansi_string@?1??type_case_Z@?$output_processor@_WV?$stream_output_adapter@_W@__crt_stdio_output@@V?$positional_parameter_base@_WV?$stream_output_adapter@_W@__crt_stdio_output@@@2@@1@AEAA_NXZ@@Z 0000000180038190 f i libucrtd:output.obj
 0001:000371c0       ??$extract_argument_from_va_list@PEAUansi_string@?1??type_case_Z@?$output_processor@_WV?$stream_output_adapter@_W@__crt_stdio_output@@V?$standard_base@_WV?$stream_output_adapter@_W@__crt_stdio_output@@@2@@__crt_stdio_output@@AEAA_NXZ@PEAU1?1??234@AEAA_NXZ@@?$standard_base@_WV?$stream_output_adapter@_W@__crt_stdio_output@@@__crt_stdio_output@@IEAA_NAEAPEAUansi_string@?1??type_case_Z@?$output_processor@_WV?$stream_output_adapter@_W@__crt_stdio_output@@V?$standard_base@_WV?$stream_output_adapter@_W@__crt_stdio_output@@@2@@1@AEAA_NXZ@@Z 00000001800381c0 f i libucrtd:output.obj
 0001:000371f0       ??$extract_argument_from_va_list@PEAUansi_string@?1??type_case_Z@?$output_processor@_WV?$string_output_adapter@_W@__crt_stdio_output@@V?$format_validation_base@_WV?$string_output_adapter@_W@__crt_stdio_output@@@2@@__crt_stdio_output@@AEAA_NXZ@PEAU1?1??234@AEAA_NXZ@@?$standard_base@_WV?$string_output_adapter@_W@__crt_stdio_output@@@__crt_stdio_output@@IEAA_NAEAPEAUansi_string@?1??type_case_Z@?$output_processor@_WV?$string_output_adapter@_W@__crt_stdio_output@@V?$format_validation_base@_WV?$string_output_adapter@_W@__crt_stdio_output@@@2@@1@AEAA_NXZ@@Z 00000001800381f0 f i libucrtd:output.obj
 0001:00037220       ??$extract_argument_from_va_list@PEAUansi_string@?1??type_case_Z@?$output_processor@_WV?$string_output_adapter@_W@__crt_stdio_output@@V?$positional_parameter_base@_WV?$string_output_adapter@_W@__crt_stdio_output@@@2@@__crt_stdio_output@@AEAA_NXZ@PEAU1?1??234@AEAA_NXZ@@?$positional_parameter_base@_WV?$string_output_adapter@_W@__crt_stdio_output@@@__crt_stdio_output@@IEAA_NAEAPEAUansi_string@?1??type_case_Z@?$output_processor@_WV?$string_output_adapter@_W@__crt_stdio_output@@V?$positional_parameter_base@_WV?$string_output_adapter@_W@__crt_stdio_output@@@2@@1@AEAA_NXZ@@Z 0000000180038220 f i libucrtd:output.obj
 0001:000373a0       ??$extract_argument_from_va_list@PEAUansi_string@?1??type_case_Z@?$output_processor@_WV?$string_output_adapter@_W@__crt_stdio_output@@V?$positional_parameter_base@_WV?$string_output_adapter@_W@__crt_stdio_output@@@2@@__crt_stdio_output@@AEAA_NXZ@PEAU1?1??234@AEAA_NXZ@@?$standard_base@_WV?$string_output_adapter@_W@__crt_stdio_output@@@__crt_stdio_output@@IEAA_NAEAPEAUansi_string@?1??type_case_Z@?$output_processor@_WV?$string_output_adapter@_W@__crt_stdio_output@@V?$positional_parameter_base@_WV?$string_output_adapter@_W@__crt_stdio_output@@@2@@1@AEAA_NXZ@@Z 00000001800383a0 f i libucrtd:output.obj
 0001:000373d0       ??$extract_argument_from_va_list@PEAUansi_string@?1??type_case_Z@?$output_processor@_WV?$string_output_adapter@_W@__crt_stdio_output@@V?$standard_base@_WV?$string_output_adapter@_W@__crt_stdio_output@@@2@@__crt_stdio_output@@AEAA_NXZ@PEAU1?1??234@AEAA_NXZ@@?$standard_base@_WV?$string_output_adapter@_W@__crt_stdio_output@@@__crt_stdio_output@@IEAA_NAEAPEAUansi_string@?1??type_case_Z@?$output_processor@_WV?$string_output_adapter@_W@__crt_stdio_output@@V?$standard_base@_WV?$string_output_adapter@_W@__crt_stdio_output@@@2@@1@AEAA_NXZ@@Z 00000001800383d0 f i libucrtd:output.obj
 0001:00037400       ??$extract_argument_from_va_list@PEAXPEAX@?$positional_parameter_base@DV?$stream_output_adapter@D@__crt_stdio_output@@@__crt_stdio_output@@IEAA_NAEAPEAX@Z 0000000180038400 f i libucrtd:output.obj
 0001:00037580       ??$extract_argument_from_va_list@PEAXPEAX@?$positional_parameter_base@DV?$string_output_adapter@D@__crt_stdio_output@@@__crt_stdio_output@@IEAA_NAEAPEAX@Z 0000000180038580 f i libucrtd:output.obj
 0001:00037700       ??$extract_argument_from_va_list@PEAXPEAX@?$positional_parameter_base@_WV?$stream_output_adapter@_W@__crt_stdio_output@@@__crt_stdio_output@@IEAA_NAEAPEAX@Z 0000000180038700 f i libucrtd:output.obj
 0001:00037880       ??$extract_argument_from_va_list@PEAXPEAX@?$positional_parameter_base@_WV?$string_output_adapter@_W@__crt_stdio_output@@@__crt_stdio_output@@IEAA_NAEAPEAX@Z 0000000180038880 f i libucrtd:output.obj
 0001:00037a00       ??$extract_argument_from_va_list@PEAXPEAX@?$standard_base@DV?$stream_output_adapter@D@__crt_stdio_output@@@__crt_stdio_output@@IEAA_NAEAPEAX@Z 0000000180038a00 f i libucrtd:output.obj
 0001:00037a30       ??$extract_argument_from_va_list@PEAXPEAX@?$standard_base@DV?$string_output_adapter@D@__crt_stdio_output@@@__crt_stdio_output@@IEAA_NAEAPEAX@Z 0000000180038a30 f i libucrtd:output.obj
 0001:00037a60       ??$extract_argument_from_va_list@PEAXPEAX@?$standard_base@_WV?$stream_output_adapter@_W@__crt_stdio_output@@@__crt_stdio_output@@IEAA_NAEAPEAX@Z 0000000180038a60 f i libucrtd:output.obj
 0001:00037a90       ??$extract_argument_from_va_list@PEAXPEAX@?$standard_base@_WV?$string_output_adapter@_W@__crt_stdio_output@@@__crt_stdio_output@@IEAA_NAEAPEAX@Z 0000000180038a90 f i libucrtd:output.obj
 0001:00037ac0       ??$extract_argument_from_va_list@U_CRT_DOUBLE@@U1@@?$positional_parameter_base@DV?$stream_output_adapter@D@__crt_stdio_output@@@__crt_stdio_output@@IEAA_NAEAU_CRT_DOUBLE@@@Z 0000000180038ac0 f i libucrtd:output.obj
 0001:00037c60       ??$extract_argument_from_va_list@U_CRT_DOUBLE@@U1@@?$positional_parameter_base@DV?$string_output_adapter@D@__crt_stdio_output@@@__crt_stdio_output@@IEAA_NAEAU_CRT_DOUBLE@@@Z 0000000180038c60 f i libucrtd:output.obj
 0001:00037e00       ??$extract_argument_from_va_list@U_CRT_DOUBLE@@U1@@?$positional_parameter_base@_WV?$stream_output_adapter@_W@__crt_stdio_output@@@__crt_stdio_output@@IEAA_NAEAU_CRT_DOUBLE@@@Z 0000000180038e00 f i libucrtd:output.obj
 0001:00037fa0       ??$extract_argument_from_va_list@U_CRT_DOUBLE@@U1@@?$positional_parameter_base@_WV?$string_output_adapter@_W@__crt_stdio_output@@@__crt_stdio_output@@IEAA_NAEAU_CRT_DOUBLE@@@Z 0000000180038fa0 f i libucrtd:output.obj
 0001:00038140       ??$extract_argument_from_va_list@U_CRT_DOUBLE@@U1@@?$standard_base@DV?$stream_output_adapter@D@__crt_stdio_output@@@__crt_stdio_output@@IEAA_NAEAU_CRT_DOUBLE@@@Z 0000000180039140 f i libucrtd:output.obj
 0001:00038190       ??$extract_argument_from_va_list@U_CRT_DOUBLE@@U1@@?$standard_base@DV?$string_output_adapter@D@__crt_stdio_output@@@__crt_stdio_output@@IEAA_NAEAU_CRT_DOUBLE@@@Z 0000000180039190 f i libucrtd:output.obj
 0001:000381e0       ??$extract_argument_from_va_list@U_CRT_DOUBLE@@U1@@?$standard_base@_WV?$stream_output_adapter@_W@__crt_stdio_output@@@__crt_stdio_output@@IEAA_NAEAU_CRT_DOUBLE@@@Z 00000001800391e0 f i libucrtd:output.obj
 0001:00038230       ??$extract_argument_from_va_list@U_CRT_DOUBLE@@U1@@?$standard_base@_WV?$string_output_adapter@_W@__crt_stdio_output@@@__crt_stdio_output@@IEAA_NAEAU_CRT_DOUBLE@@@Z 0000000180039230 f i libucrtd:output.obj
 0001:00038280       ??$extract_argument_from_va_list@_J_J@?$positional_parameter_base@DV?$stream_output_adapter@D@__crt_stdio_output@@@__crt_stdio_output@@IEAA_NAEA_J@Z 0000000180039280 f i libucrtd:output.obj
 0001:00038400       ??$extract_argument_from_va_list@_J_J@?$positional_parameter_base@DV?$string_output_adapter@D@__crt_stdio_output@@@__crt_stdio_output@@IEAA_NAEA_J@Z 0000000180039400 f i libucrtd:output.obj
 0001:00038580       ??$extract_argument_from_va_list@_J_J@?$positional_parameter_base@_WV?$stream_output_adapter@_W@__crt_stdio_output@@@__crt_stdio_output@@IEAA_NAEA_J@Z 0000000180039580 f i libucrtd:output.obj
 0001:00038700       ??$extract_argument_from_va_list@_J_J@?$positional_parameter_base@_WV?$string_output_adapter@_W@__crt_stdio_output@@@__crt_stdio_output@@IEAA_NAEA_J@Z 0000000180039700 f i libucrtd:output.obj
 0001:00038880       ??$extract_argument_from_va_list@_J_J@?$standard_base@DV?$stream_output_adapter@D@__crt_stdio_output@@@__crt_stdio_output@@IEAA_NAEA_J@Z 0000000180039880 f i libucrtd:output.obj
 0001:000388b0       ??$extract_argument_from_va_list@_J_J@?$standard_base@DV?$string_output_adapter@D@__crt_stdio_output@@@__crt_stdio_output@@IEAA_NAEA_J@Z 00000001800398b0 f i libucrtd:output.obj
 0001:000388e0       ??$extract_argument_from_va_list@_J_J@?$standard_base@_WV?$stream_output_adapter@_W@__crt_stdio_output@@@__crt_stdio_output@@IEAA_NAEA_J@Z 00000001800398e0 f i libucrtd:output.obj
 0001:00038910       ??$extract_argument_from_va_list@_J_J@?$standard_base@_WV?$string_output_adapter@_W@__crt_stdio_output@@@__crt_stdio_output@@IEAA_NAEA_J@Z 0000000180039910 f i libucrtd:output.obj
 0001:00038940       ??$extract_argument_from_va_list@_K_J@?$positional_parameter_base@DV?$stream_output_adapter@D@__crt_stdio_output@@@__crt_stdio_output@@IEAA_NAEA_J@Z 0000000180039940 f i libucrtd:output.obj
 0001:00038ac0       ??$extract_argument_from_va_list@_K_J@?$positional_parameter_base@DV?$string_output_adapter@D@__crt_stdio_output@@@__crt_stdio_output@@IEAA_NAEA_J@Z 0000000180039ac0 f i libucrtd:output.obj
 0001:00038c40       ??$extract_argument_from_va_list@_K_J@?$positional_parameter_base@_WV?$stream_output_adapter@_W@__crt_stdio_output@@@__crt_stdio_output@@IEAA_NAEA_J@Z 0000000180039c40 f i libucrtd:output.obj
 0001:00038dc0       ??$extract_argument_from_va_list@_K_J@?$positional_parameter_base@_WV?$string_output_adapter@_W@__crt_stdio_output@@@__crt_stdio_output@@IEAA_NAEA_J@Z 0000000180039dc0 f i libucrtd:output.obj
 0001:00038f40       ??$extract_argument_from_va_list@_K_J@?$standard_base@DV?$stream_output_adapter@D@__crt_stdio_output@@@__crt_stdio_output@@IEAA_NAEA_J@Z 0000000180039f40 f i libucrtd:output.obj
 0001:00038f70       ??$extract_argument_from_va_list@_K_J@?$standard_base@DV?$string_output_adapter@D@__crt_stdio_output@@@__crt_stdio_output@@IEAA_NAEA_J@Z 0000000180039f70 f i libucrtd:output.obj
 0001:00038fa0       ??$extract_argument_from_va_list@_K_J@?$standard_base@_WV?$stream_output_adapter@_W@__crt_stdio_output@@@__crt_stdio_output@@IEAA_NAEA_J@Z 0000000180039fa0 f i libucrtd:output.obj
 0001:00038fd0       ??$extract_argument_from_va_list@_K_J@?$standard_base@_WV?$string_output_adapter@_W@__crt_stdio_output@@@__crt_stdio_output@@IEAA_NAEA_J@Z 0000000180039fd0 f i libucrtd:output.obj
 0001:00039000       ??$extract_argument_from_va_list@_W_W@?$positional_parameter_base@DV?$stream_output_adapter@D@__crt_stdio_output@@@__crt_stdio_output@@IEAA_NAEA_W@Z 000000018003a000 f i libucrtd:output.obj
 0001:00039180       ??$extract_argument_from_va_list@_W_W@?$positional_parameter_base@DV?$string_output_adapter@D@__crt_stdio_output@@@__crt_stdio_output@@IEAA_NAEA_W@Z 000000018003a180 f i libucrtd:output.obj
 0001:00039300       ??$extract_argument_from_va_list@_W_W@?$positional_parameter_base@_WV?$stream_output_adapter@_W@__crt_stdio_output@@@__crt_stdio_output@@IEAA_NAEA_W@Z 000000018003a300 f i libucrtd:output.obj
 0001:00039480       ??$extract_argument_from_va_list@_W_W@?$positional_parameter_base@_WV?$string_output_adapter@_W@__crt_stdio_output@@@__crt_stdio_output@@IEAA_NAEA_W@Z 000000018003a480 f i libucrtd:output.obj
 0001:00039600       ??$extract_argument_from_va_list@_W_W@?$standard_base@DV?$stream_output_adapter@D@__crt_stdio_output@@@__crt_stdio_output@@IEAA_NAEA_W@Z 000000018003a600 f i libucrtd:output.obj
 0001:00039630       ??$extract_argument_from_va_list@_W_W@?$standard_base@DV?$string_output_adapter@D@__crt_stdio_output@@@__crt_stdio_output@@IEAA_NAEA_W@Z 000000018003a630 f i libucrtd:output.obj
 0001:00039660       ??$extract_argument_from_va_list@_W_W@?$standard_base@_WV?$stream_output_adapter@_W@__crt_stdio_output@@@__crt_stdio_output@@IEAA_NAEA_W@Z 000000018003a660 f i libucrtd:output.obj
 0001:00039690       ??$extract_argument_from_va_list@_W_W@?$standard_base@_WV?$string_output_adapter@_W@__crt_stdio_output@@@__crt_stdio_output@@IEAA_NAEA_W@Z 000000018003a690 f i libucrtd:output.obj
 0001:000396c0       ??$get_parameter_type@D@?$positional_parameter_base@DV?$stream_output_adapter@D@__crt_stdio_output@@@__crt_stdio_output@@CA?AW4parameter_type@01@PEAD@Z 000000018003a6c0 f i libucrtd:output.obj
 0001:000396d0       ??$get_parameter_type@D@?$positional_parameter_base@DV?$string_output_adapter@D@__crt_stdio_output@@@__crt_stdio_output@@CA?AW4parameter_type@01@PEAD@Z 000000018003a6d0 f i libucrtd:output.obj
 0001:000396e0       ??$get_parameter_type@D@?$positional_parameter_base@_WV?$stream_output_adapter@_W@__crt_stdio_output@@@__crt_stdio_output@@CA?AW4parameter_type@01@PEAD@Z 000000018003a6e0 f i libucrtd:output.obj
 0001:000396f0       ??$get_parameter_type@D@?$positional_parameter_base@_WV?$string_output_adapter@_W@__crt_stdio_output@@@__crt_stdio_output@@CA?AW4parameter_type@01@PEAD@Z 000000018003a6f0 f i libucrtd:output.obj
 0001:00039700       ??$get_parameter_type@Uansi_string@?1??type_case_Z@?$output_processor@DV?$stream_output_adapter@D@__crt_stdio_output@@V?$positional_parameter_base@DV?$stream_output_adapter@D@__crt_stdio_output@@@2@@__crt_stdio_output@@AEAA_NXZ@@?$positional_parameter_base@DV?$stream_output_adapter@D@__crt_stdio_output@@@__crt_stdio_output@@CA?AW4parameter_type@01@PEAUansi_string@?1??type_case_Z@?$output_processor@DV?$stream_output_adapter@D@__crt_stdio_output@@V?$positional_parameter_base@DV?$stream_output_adapter@D@__crt_stdio_output@@@2@@1@AEAA_NXZ@@Z 000000018003a700 f i libucrtd:output.obj
 0001:00039710       ??$get_parameter_type@Uansi_string@?1??type_case_Z@?$output_processor@DV?$string_output_adapter@D@__crt_stdio_output@@V?$positional_parameter_base@DV?$string_output_adapter@D@__crt_stdio_output@@@2@@__crt_stdio_output@@AEAA_NXZ@@?$positional_parameter_base@DV?$string_output_adapter@D@__crt_stdio_output@@@__crt_stdio_output@@CA?AW4parameter_type@01@PEAUansi_string@?1??type_case_Z@?$output_processor@DV?$string_output_adapter@D@__crt_stdio_output@@V?$positional_parameter_base@DV?$string_output_adapter@D@__crt_stdio_output@@@2@@1@AEAA_NXZ@@Z 000000018003a710 f i libucrtd:output.obj
 0001:00039720       ??$get_parameter_type@Uansi_string@?1??type_case_Z@?$output_processor@_WV?$stream_output_adapter@_W@__crt_stdio_output@@V?$positional_parameter_base@_WV?$stream_output_adapter@_W@__crt_stdio_output@@@2@@__crt_stdio_output@@AEAA_NXZ@@?$positional_parameter_base@_WV?$stream_output_adapter@_W@__crt_stdio_output@@@__crt_stdio_output@@CA?AW4parameter_type@01@PEAUansi_string@?1??type_case_Z@?$output_processor@_WV?$stream_output_adapter@_W@__crt_stdio_output@@V?$positional_parameter_base@_WV?$stream_output_adapter@_W@__crt_stdio_output@@@2@@1@AEAA_NXZ@@Z 000000018003a720 f i libucrtd:output.obj
 0001:00039730       ??$get_parameter_type@Uansi_string@?1??type_case_Z@?$output_processor@_WV?$string_output_adapter@_W@__crt_stdio_output@@V?$positional_parameter_base@_WV?$string_output_adapter@_W@__crt_stdio_output@@@2@@__crt_stdio_output@@AEAA_NXZ@@?$positional_parameter_base@_WV?$string_output_adapter@_W@__crt_stdio_output@@@__crt_stdio_output@@CA?AW4parameter_type@01@PEAUansi_string@?1??type_case_Z@?$output_processor@_WV?$string_output_adapter@_W@__crt_stdio_output@@V?$positional_parameter_base@_WV?$string_output_adapter@_W@__crt_stdio_output@@@2@@1@AEAA_NXZ@@Z 000000018003a730 f i libucrtd:output.obj
 0001:00039740       ??$get_parameter_type@X@?$positional_parameter_base@DV?$stream_output_adapter@D@__crt_stdio_output@@@__crt_stdio_output@@CA?AW4parameter_type@01@PEAX@Z 000000018003a740 f i libucrtd:output.obj
 0001:00039750       ??$get_parameter_type@X@?$positional_parameter_base@DV?$string_output_adapter@D@__crt_stdio_output@@@__crt_stdio_output@@CA?AW4parameter_type@01@PEAX@Z 000000018003a750 f i libucrtd:output.obj
 0001:00039760       ??$get_parameter_type@X@?$positional_parameter_base@_WV?$stream_output_adapter@_W@__crt_stdio_output@@@__crt_stdio_output@@CA?AW4parameter_type@01@PEAX@Z 000000018003a760 f i libucrtd:output.obj
 0001:00039770       ??$get_parameter_type@X@?$positional_parameter_base@_WV?$string_output_adapter@_W@__crt_stdio_output@@@__crt_stdio_output@@CA?AW4parameter_type@01@PEAX@Z 000000018003a770 f i libucrtd:output.obj
 0001:00039780       ??$is_character_specifier@D@?$positional_parameter_base@DV?$stream_output_adapter@D@__crt_stdio_output@@@__crt_stdio_output@@CA_ND@Z 000000018003a780 f i libucrtd:output.obj
 0001:000397c0       ??$is_character_specifier@D@?$positional_parameter_base@DV?$string_output_adapter@D@__crt_stdio_output@@@__crt_stdio_output@@CA_ND@Z 000000018003a7c0 f i libucrtd:output.obj
 0001:00039800       ??$is_character_specifier@_W@?$positional_parameter_base@_WV?$stream_output_adapter@_W@__crt_stdio_output@@@__crt_stdio_output@@CA_N_W@Z 000000018003a800 f i libucrtd:output.obj
 0001:00039840       ??$is_character_specifier@_W@?$positional_parameter_base@_WV?$string_output_adapter@_W@__crt_stdio_output@@@__crt_stdio_output@@CA_N_W@Z 000000018003a840 f i libucrtd:output.obj
 0001:00039880       ??$is_integral_specifier@D@?$positional_parameter_base@DV?$stream_output_adapter@D@__crt_stdio_output@@@__crt_stdio_output@@CA_ND@Z 000000018003a880 f i libucrtd:output.obj
 0001:000398f0       ??$is_integral_specifier@D@?$positional_parameter_base@DV?$string_output_adapter@D@__crt_stdio_output@@@__crt_stdio_output@@CA_ND@Z 000000018003a8f0 f i libucrtd:output.obj
 0001:00039960       ??$is_integral_specifier@_W@?$positional_parameter_base@_WV?$stream_output_adapter@_W@__crt_stdio_output@@@__crt_stdio_output@@CA_N_W@Z 000000018003a960 f i libucrtd:output.obj
 0001:000399d0       ??$is_integral_specifier@_W@?$positional_parameter_base@_WV?$string_output_adapter@_W@__crt_stdio_output@@@__crt_stdio_output@@CA_N_W@Z 000000018003a9d0 f i libucrtd:output.obj
 0001:00039a40       ??$is_pointer_specifier@D@?$positional_parameter_base@DV?$stream_output_adapter@D@__crt_stdio_output@@@__crt_stdio_output@@CA_ND@Z 000000018003aa40 f i libucrtd:output.obj
 0001:00039a70       ??$is_pointer_specifier@D@?$positional_parameter_base@DV?$string_output_adapter@D@__crt_stdio_output@@@__crt_stdio_output@@CA_ND@Z 000000018003aa70 f i libucrtd:output.obj
 0001:00039aa0       ??$is_pointer_specifier@_W@?$positional_parameter_base@_WV?$stream_output_adapter@_W@__crt_stdio_output@@@__crt_stdio_output@@CA_N_W@Z 000000018003aaa0 f i libucrtd:output.obj
 0001:00039ad0       ??$is_pointer_specifier@_W@?$positional_parameter_base@_WV?$string_output_adapter@_W@__crt_stdio_output@@@__crt_stdio_output@@CA_N_W@Z 000000018003aad0 f i libucrtd:output.obj
 0001:00039b00       ??$is_string_specifier@D@?$positional_parameter_base@DV?$stream_output_adapter@D@__crt_stdio_output@@@__crt_stdio_output@@CA_ND@Z 000000018003ab00 f i libucrtd:output.obj
 0001:00039b40       ??$is_string_specifier@D@?$positional_parameter_base@DV?$string_output_adapter@D@__crt_stdio_output@@@__crt_stdio_output@@CA_ND@Z 000000018003ab40 f i libucrtd:output.obj
 0001:00039b80       ??$is_string_specifier@_W@?$positional_parameter_base@_WV?$stream_output_adapter@_W@__crt_stdio_output@@@__crt_stdio_output@@CA_N_W@Z 000000018003ab80 f i libucrtd:output.obj
 0001:00039bc0       ??$is_string_specifier@_W@?$positional_parameter_base@_WV?$string_output_adapter@_W@__crt_stdio_output@@@__crt_stdio_output@@CA_N_W@Z 000000018003abc0 f i libucrtd:output.obj
 0001:00039c00       ??$is_wide_character_specifier@D@__crt_stdio_output@@YA_N_KDW4length_modifier@0@@Z 000000018003ac00 f i libucrtd:output.obj
 0001:00039ca0       ??$is_wide_character_specifier@_W@__crt_stdio_output@@YA_N_K_WW4length_modifier@0@@Z 000000018003aca0 f i libucrtd:output.obj
 0001:00039d70       ??$peek_va_arg@C@__crt_stdio_output@@YACPEAD@Z 000000018003ad70 f i libucrtd:output.obj
 0001:00039dd0       ??$peek_va_arg@E@__crt_stdio_output@@YAEPEAD@Z 000000018003add0 f i libucrtd:output.obj
 0001:00039e30       ??$peek_va_arg@F@__crt_stdio_output@@YAFPEAD@Z 000000018003ae30 f i libucrtd:output.obj
 0001:00039e90       ??$peek_va_arg@G@__crt_stdio_output@@YAGPEAD@Z 000000018003ae90 f i libucrtd:output.obj
 0001:00039ef0       ??$peek_va_arg@H@__crt_stdio_output@@YAHPEAD@Z 000000018003aef0 f i libucrtd:output.obj
 0001:00039f40       ??$peek_va_arg@I@__crt_stdio_output@@YAIPEAD@Z 000000018003af40 f i libucrtd:output.obj
 0001:00039f90       ??$peek_va_arg@PEAD@__crt_stdio_output@@YAPEADPEAD@Z 000000018003af90 f i libucrtd:output.obj
 0001:00039ff0       ??$peek_va_arg@PEAUansi_string@?1??type_case_Z@?$output_processor@DV?$stream_output_adapter@D@__crt_stdio_output@@V?$positional_parameter_base@DV?$stream_output_adapter@D@__crt_stdio_output@@@2@@__crt_stdio_output@@AEAA_NXZ@@__crt_stdio_output@@YAPEAUansi_string@?1??type_case_Z@?$output_processor@DV?$stream_output_adapter@D@__crt_stdio_output@@V?$positional_parameter_base@DV?$stream_output_adapter@D@__crt_stdio_output@@@2@@0@AEAA_NXZ@PEAD@Z 000000018003aff0 f i libucrtd:output.obj
 0001:0003a050       ??$peek_va_arg@PEAUansi_string@?1??type_case_Z@?$output_processor@DV?$string_output_adapter@D@__crt_stdio_output@@V?$positional_parameter_base@DV?$string_output_adapter@D@__crt_stdio_output@@@2@@__crt_stdio_output@@AEAA_NXZ@@__crt_stdio_output@@YAPEAUansi_string@?1??type_case_Z@?$output_processor@DV?$string_output_adapter@D@__crt_stdio_output@@V?$positional_parameter_base@DV?$string_output_adapter@D@__crt_stdio_output@@@2@@0@AEAA_NXZ@PEAD@Z 000000018003b050 f i libucrtd:output.obj
 0001:0003a0b0       ??$peek_va_arg@PEAUansi_string@?1??type_case_Z@?$output_processor@_WV?$stream_output_adapter@_W@__crt_stdio_output@@V?$positional_parameter_base@_WV?$stream_output_adapter@_W@__crt_stdio_output@@@2@@__crt_stdio_output@@AEAA_NXZ@@__crt_stdio_output@@YAPEAUansi_string@?1??type_case_Z@?$output_processor@_WV?$stream_output_adapter@_W@__crt_stdio_output@@V?$positional_parameter_base@_WV?$stream_output_adapter@_W@__crt_stdio_output@@@2@@0@AEAA_NXZ@PEAD@Z 000000018003b0b0 f i libucrtd:output.obj
 0001:0003a110       ??$peek_va_arg@PEAUansi_string@?1??type_case_Z@?$output_processor@_WV?$string_output_adapter@_W@__crt_stdio_output@@V?$positional_parameter_base@_WV?$string_output_adapter@_W@__crt_stdio_output@@@2@@__crt_stdio_output@@AEAA_NXZ@@__crt_stdio_output@@YAPEAUansi_string@?1??type_case_Z@?$output_processor@_WV?$string_output_adapter@_W@__crt_stdio_output@@V?$positional_parameter_base@_WV?$string_output_adapter@_W@__crt_stdio_output@@@2@@0@AEAA_NXZ@PEAD@Z 000000018003b110 f i libucrtd:output.obj
 0001:0003a170       ??$peek_va_arg@PEAX@__crt_stdio_output@@YAPEAXPEAD@Z 000000018003b170 f i libucrtd:output.obj
 0001:0003a1d0       ??$peek_va_arg@U_CRT_DOUBLE@@@__crt_stdio_output@@YA?AU_CRT_DOUBLE@@PEAD@Z 000000018003b1d0 f i libucrtd:output.obj
 0001:0003a230       ??$peek_va_arg@_J@__crt_stdio_output@@YA_JPEAD@Z 000000018003b230 f i libucrtd:output.obj
 0001:0003a290       ??$peek_va_arg@_K@__crt_stdio_output@@YA_KPEAD@Z 000000018003b290 f i libucrtd:output.obj
 0001:0003a2f0       ??$peek_va_arg@_W@__crt_stdio_output@@YA_WPEAD@Z 000000018003b2f0 f i libucrtd:output.obj
 0001:0003a350       ??$puttc_nolock@AEBDPEAU_iobuf@@@?$__crt_char_traits@D@@SAHAEBD$$QEAPEAU_iobuf@@@Z 000000018003b350 f i libucrtd:output.obj
 0001:0003a380       ??$puttc_nolock@AEB_WPEAU_iobuf@@@?$__crt_char_traits@_W@@SAGAEB_W$$QEAPEAU_iobuf@@@Z 000000018003b380 f i libucrtd:output.obj
 0001:0003a3b0       ??$read_va_arg@C@__crt_stdio_output@@YACAEAPEAD@Z 000000018003b3b0 f i libucrtd:output.obj
 0001:0003a420       ??$read_va_arg@E@__crt_stdio_output@@YAEAEAPEAD@Z 000000018003b420 f i libucrtd:output.obj
 0001:0003a490       ??$read_va_arg@F@__crt_stdio_output@@YAFAEAPEAD@Z 000000018003b490 f i libucrtd:output.obj
 0001:0003a500       ??$read_va_arg@G@__crt_stdio_output@@YAGAEAPEAD@Z 000000018003b500 f i libucrtd:output.obj
 0001:0003a570       ??$read_va_arg@H@__crt_stdio_output@@YAHAEAPEAD@Z 000000018003b570 f i libucrtd:output.obj
 0001:0003a5d0       ??$read_va_arg@I@__crt_stdio_output@@YAIAEAPEAD@Z 000000018003b5d0 f i libucrtd:output.obj
 0001:0003a630       ??$read_va_arg@PEAD@__crt_stdio_output@@YAPEADAEAPEAD@Z 000000018003b630 f i libucrtd:output.obj
 0001:0003a6a0       ??$read_va_arg@PEAUansi_string@?1??type_case_Z@?$output_processor@DV?$stream_output_adapter@D@__crt_stdio_output@@V?$format_validation_base@DV?$stream_output_adapter@D@__crt_stdio_output@@@2@@__crt_stdio_output@@AEAA_NXZ@@__crt_stdio_output@@YAPEAUansi_string@?1??type_case_Z@?$output_processor@DV?$stream_output_adapter@D@__crt_stdio_output@@V?$format_validation_base@DV?$stream_output_adapter@D@__crt_stdio_output@@@2@@0@AEAA_NXZ@AEAPEAD@Z 000000018003b6a0 f i libucrtd:output.obj
 0001:0003a710       ??$read_va_arg@PEAUansi_string@?1??type_case_Z@?$output_processor@DV?$stream_output_adapter@D@__crt_stdio_output@@V?$positional_parameter_base@DV?$stream_output_adapter@D@__crt_stdio_output@@@2@@__crt_stdio_output@@AEAA_NXZ@@__crt_stdio_output@@YAPEAUansi_string@?1??type_case_Z@?$output_processor@DV?$stream_output_adapter@D@__crt_stdio_output@@V?$positional_parameter_base@DV?$stream_output_adapter@D@__crt_stdio_output@@@2@@0@AEAA_NXZ@AEAPEAD@Z 000000018003b710 f i libucrtd:output.obj
 0001:0003a780       ??$read_va_arg@PEAUansi_string@?1??type_case_Z@?$output_processor@DV?$stream_output_adapter@D@__crt_stdio_output@@V?$standard_base@DV?$stream_output_adapter@D@__crt_stdio_output@@@2@@__crt_stdio_output@@AEAA_NXZ@@__crt_stdio_output@@YAPEAUansi_string@?1??type_case_Z@?$output_processor@DV?$stream_output_adapter@D@__crt_stdio_output@@V?$standard_base@DV?$stream_output_adapter@D@__crt_stdio_output@@@2@@0@AEAA_NXZ@AEAPEAD@Z 000000018003b780 f i libucrtd:output.obj
 0001:0003a7f0       ??$read_va_arg@PEAUansi_string@?1??type_case_Z@?$output_processor@DV?$string_output_adapter@D@__crt_stdio_output@@V?$format_validation_base@DV?$string_output_adapter@D@__crt_stdio_output@@@2@@__crt_stdio_output@@AEAA_NXZ@@__crt_stdio_output@@YAPEAUansi_string@?1??type_case_Z@?$output_processor@DV?$string_output_adapter@D@__crt_stdio_output@@V?$format_validation_base@DV?$string_output_adapter@D@__crt_stdio_output@@@2@@0@AEAA_NXZ@AEAPEAD@Z 000000018003b7f0 f i libucrtd:output.obj
 0001:0003a860       ??$read_va_arg@PEAUansi_string@?1??type_case_Z@?$output_processor@DV?$string_output_adapter@D@__crt_stdio_output@@V?$positional_parameter_base@DV?$string_output_adapter@D@__crt_stdio_output@@@2@@__crt_stdio_output@@AEAA_NXZ@@__crt_stdio_output@@YAPEAUansi_string@?1??type_case_Z@?$output_processor@DV?$string_output_adapter@D@__crt_stdio_output@@V?$positional_parameter_base@DV?$string_output_adapter@D@__crt_stdio_output@@@2@@0@AEAA_NXZ@AEAPEAD@Z 000000018003b860 f i libucrtd:output.obj
 0001:0003a8d0       ??$read_va_arg@PEAUansi_string@?1??type_case_Z@?$output_processor@DV?$string_output_adapter@D@__crt_stdio_output@@V?$standard_base@DV?$string_output_adapter@D@__crt_stdio_output@@@2@@__crt_stdio_output@@AEAA_NXZ@@__crt_stdio_output@@YAPEAUansi_string@?1??type_case_Z@?$output_processor@DV?$string_output_adapter@D@__crt_stdio_output@@V?$standard_base@DV?$string_output_adapter@D@__crt_stdio_output@@@2@@0@AEAA_NXZ@AEAPEAD@Z 000000018003b8d0 f i libucrtd:output.obj
 0001:0003a940       ??$read_va_arg@PEAUansi_string@?1??type_case_Z@?$output_processor@_WV?$stream_output_adapter@_W@__crt_stdio_output@@V?$format_validation_base@_WV?$stream_output_adapter@_W@__crt_stdio_output@@@2@@__crt_stdio_output@@AEAA_NXZ@@__crt_stdio_output@@YAPEAUansi_string@?1??type_case_Z@?$output_processor@_WV?$stream_output_adapter@_W@__crt_stdio_output@@V?$format_validation_base@_WV?$stream_output_adapter@_W@__crt_stdio_output@@@2@@0@AEAA_NXZ@AEAPEAD@Z 000000018003b940 f i libucrtd:output.obj
 0001:0003a9b0       ??$read_va_arg@PEAUansi_string@?1??type_case_Z@?$output_processor@_WV?$stream_output_adapter@_W@__crt_stdio_output@@V?$positional_parameter_base@_WV?$stream_output_adapter@_W@__crt_stdio_output@@@2@@__crt_stdio_output@@AEAA_NXZ@@__crt_stdio_output@@YAPEAUansi_string@?1??type_case_Z@?$output_processor@_WV?$stream_output_adapter@_W@__crt_stdio_output@@V?$positional_parameter_base@_WV?$stream_output_adapter@_W@__crt_stdio_output@@@2@@0@AEAA_NXZ@AEAPEAD@Z 000000018003b9b0 f i libucrtd:output.obj
 0001:0003aa20       ??$read_va_arg@PEAUansi_string@?1??type_case_Z@?$output_processor@_WV?$stream_output_adapter@_W@__crt_stdio_output@@V?$standard_base@_WV?$stream_output_adapter@_W@__crt_stdio_output@@@2@@__crt_stdio_output@@AEAA_NXZ@@__crt_stdio_output@@YAPEAUansi_string@?1??type_case_Z@?$output_processor@_WV?$stream_output_adapter@_W@__crt_stdio_output@@V?$standard_base@_WV?$stream_output_adapter@_W@__crt_stdio_output@@@2@@0@AEAA_NXZ@AEAPEAD@Z 000000018003ba20 f i libucrtd:output.obj
 0001:0003aa90       ??$read_va_arg@PEAUansi_string@?1??type_case_Z@?$output_processor@_WV?$string_output_adapter@_W@__crt_stdio_output@@V?$format_validation_base@_WV?$string_output_adapter@_W@__crt_stdio_output@@@2@@__crt_stdio_output@@AEAA_NXZ@@__crt_stdio_output@@YAPEAUansi_string@?1??type_case_Z@?$output_processor@_WV?$string_output_adapter@_W@__crt_stdio_output@@V?$format_validation_base@_WV?$string_output_adapter@_W@__crt_stdio_output@@@2@@0@AEAA_NXZ@AEAPEAD@Z 000000018003ba90 f i libucrtd:output.obj
 0001:0003ab00       ??$read_va_arg@PEAUansi_string@?1??type_case_Z@?$output_processor@_WV?$string_output_adapter@_W@__crt_stdio_output@@V?$positional_parameter_base@_WV?$string_output_adapter@_W@__crt_stdio_output@@@2@@__crt_stdio_output@@AEAA_NXZ@@__crt_stdio_output@@YAPEAUansi_string@?1??type_case_Z@?$output_processor@_WV?$string_output_adapter@_W@__crt_stdio_output@@V?$positional_parameter_base@_WV?$string_output_adapter@_W@__crt_stdio_output@@@2@@0@AEAA_NXZ@AEAPEAD@Z 000000018003bb00 f i libucrtd:output.obj
 0001:0003ab70       ??$read_va_arg@PEAUansi_string@?1??type_case_Z@?$output_processor@_WV?$string_output_adapter@_W@__crt_stdio_output@@V?$standard_base@_WV?$string_output_adapter@_W@__crt_stdio_output@@@2@@__crt_stdio_output@@AEAA_NXZ@@__crt_stdio_output@@YAPEAUansi_string@?1??type_case_Z@?$output_processor@_WV?$string_output_adapter@_W@__crt_stdio_output@@V?$standard_base@_WV?$string_output_adapter@_W@__crt_stdio_output@@@2@@0@AEAA_NXZ@AEAPEAD@Z 000000018003bb70 f i libucrtd:output.obj
 0001:0003abe0       ??$read_va_arg@PEAX@__crt_stdio_output@@YAPEAXAEAPEAD@Z 000000018003bbe0 f i libucrtd:output.obj
 0001:0003ac50       ??$read_va_arg@U_CRT_DOUBLE@@@__crt_stdio_output@@YA?AU_CRT_DOUBLE@@AEAPEAD@Z 000000018003bc50 f i libucrtd:output.obj
 0001:0003acc0       ??$read_va_arg@_J@__crt_stdio_output@@YA_JAEAPEAD@Z 000000018003bcc0 f i libucrtd:output.obj
 0001:0003ad30       ??$read_va_arg@_K@__crt_stdio_output@@YA_KAEAPEAD@Z 000000018003bd30 f i libucrtd:output.obj
 0001:0003ada0       ??$read_va_arg@_W@__crt_stdio_output@@YA_WAEAPEAD@Z 000000018003bda0 f i libucrtd:output.obj
 0001:0003ae10       ??$scratch_count@D@formatting_buffer@__crt_stdio_output@@QEBA_KXZ 000000018003be10 f i libucrtd:output.obj
 0001:0003ae30       ??$scratch_data@D@formatting_buffer@__crt_stdio_output@@QEAAPEADXZ 000000018003be30 f i libucrtd:output.obj
 0001:0003aea0       ??$tcstol@AEAPEBDPEAPEADH@?$__crt_char_traits@D@@SAJAEAPEBD$$QEAPEAPEAD$$QEAH@Z 000000018003bea0 f i libucrtd:output.obj
 0001:0003aee0       ??$tcstol@AEAPEB_WPEAPEA_WH@?$__crt_char_traits@_W@@SAJAEAPEB_W$$QEAPEAPEA_W$$QEAH@Z 000000018003bee0 f i libucrtd:output.obj
 0001:0003af20       ??$tcstol@PEBDPEAPEADH@?$__crt_char_traits@D@@SAJ$$QEAPEBD$$QEAPEAPEAD$$QEAH@Z 000000018003bf20 f i libucrtd:output.obj
 0001:0003af60       ??$tcstol@PEB_WPEAPEA_WH@?$__crt_char_traits@_W@@SAJ$$QEAPEB_W$$QEAPEAPEA_W$$QEAH@Z 000000018003bf60 f i libucrtd:output.obj
 0001:0003afa0       ??$type_case_integer_parse_into_buffer@I@?$output_processor@DV?$stream_output_adapter@D@__crt_stdio_output@@V?$format_validation_base@DV?$stream_output_adapter@D@__crt_stdio_output@@@2@@__crt_stdio_output@@AEAAXII_N@Z 000000018003bfa0 f i libucrtd:output.obj
 0001:0003b0d0       ??$type_case_integer_parse_into_buffer@I@?$output_processor@DV?$stream_output_adapter@D@__crt_stdio_output@@V?$positional_parameter_base@DV?$stream_output_adapter@D@__crt_stdio_output@@@2@@__crt_stdio_output@@AEAAXII_N@Z 000000018003c0d0 f i libucrtd:output.obj
 0001:0003b200       ??$type_case_integer_parse_into_buffer@I@?$output_processor@DV?$stream_output_adapter@D@__crt_stdio_output@@V?$standard_base@DV?$stream_output_adapter@D@__crt_stdio_output@@@2@@__crt_stdio_output@@AEAAXII_N@Z 000000018003c200 f i libucrtd:output.obj
 0001:0003b330       ??$type_case_integer_parse_into_buffer@I@?$output_processor@DV?$string_output_adapter@D@__crt_stdio_output@@V?$format_validation_base@DV?$string_output_adapter@D@__crt_stdio_output@@@2@@__crt_stdio_output@@AEAAXII_N@Z 000000018003c330 f i libucrtd:output.obj
 0001:0003b460       ??$type_case_integer_parse_into_buffer@I@?$output_processor@DV?$string_output_adapter@D@__crt_stdio_output@@V?$positional_parameter_base@DV?$string_output_adapter@D@__crt_stdio_output@@@2@@__crt_stdio_output@@AEAAXII_N@Z 000000018003c460 f i libucrtd:output.obj
 0001:0003b590       ??$type_case_integer_parse_into_buffer@I@?$output_processor@DV?$string_output_adapter@D@__crt_stdio_output@@V?$standard_base@DV?$string_output_adapter@D@__crt_stdio_output@@@2@@__crt_stdio_output@@AEAAXII_N@Z 000000018003c590 f i libucrtd:output.obj
 0001:0003b6c0       ??$type_case_integer_parse_into_buffer@I@?$output_processor@_WV?$stream_output_adapter@_W@__crt_stdio_output@@V?$format_validation_base@_WV?$stream_output_adapter@_W@__crt_stdio_output@@@2@@__crt_stdio_output@@AEAAXII_N@Z 000000018003c6c0 f i libucrtd:output.obj
 0001:0003b800       ??$type_case_integer_parse_into_buffer@I@?$output_processor@_WV?$stream_output_adapter@_W@__crt_stdio_output@@V?$positional_parameter_base@_WV?$stream_output_adapter@_W@__crt_stdio_output@@@2@@__crt_stdio_output@@AEAAXII_N@Z 000000018003c800 f i libucrtd:output.obj
 0001:0003b940       ??$type_case_integer_parse_into_buffer@I@?$output_processor@_WV?$stream_output_adapter@_W@__crt_stdio_output@@V?$standard_base@_WV?$stream_output_adapter@_W@__crt_stdio_output@@@2@@__crt_stdio_output@@AEAAXII_N@Z 000000018003c940 f i libucrtd:output.obj
 0001:0003ba80       ??$type_case_integer_parse_into_buffer@I@?$output_processor@_WV?$string_output_adapter@_W@__crt_stdio_output@@V?$format_validation_base@_WV?$string_output_adapter@_W@__crt_stdio_output@@@2@@__crt_stdio_output@@AEAAXII_N@Z 000000018003ca80 f i libucrtd:output.obj
 0001:0003bbc0       ??$type_case_integer_parse_into_buffer@I@?$output_processor@_WV?$string_output_adapter@_W@__crt_stdio_output@@V?$positional_parameter_base@_WV?$string_output_adapter@_W@__crt_stdio_output@@@2@@__crt_stdio_output@@AEAAXII_N@Z 000000018003cbc0 f i libucrtd:output.obj
 0001:0003bd00       ??$type_case_integer_parse_into_buffer@I@?$output_processor@_WV?$string_output_adapter@_W@__crt_stdio_output@@V?$standard_base@_WV?$string_output_adapter@_W@__crt_stdio_output@@@2@@__crt_stdio_output@@AEAAXII_N@Z 000000018003cd00 f i libucrtd:output.obj
 0001:0003be40       ??$type_case_integer_parse_into_buffer@_K@?$output_processor@DV?$stream_output_adapter@D@__crt_stdio_output@@V?$format_validation_base@DV?$stream_output_adapter@D@__crt_stdio_output@@@2@@__crt_stdio_output@@AEAAX_KI_N@Z 000000018003ce40 f i libucrtd:output.obj
 0001:0003bf90       ??$type_case_integer_parse_into_buffer@_K@?$output_processor@DV?$stream_output_adapter@D@__crt_stdio_output@@V?$positional_parameter_base@DV?$stream_output_adapter@D@__crt_stdio_output@@@2@@__crt_stdio_output@@AEAAX_KI_N@Z 000000018003cf90 f i libucrtd:output.obj
 0001:0003c0e0       ??$type_case_integer_parse_into_buffer@_K@?$output_processor@DV?$stream_output_adapter@D@__crt_stdio_output@@V?$standard_base@DV?$stream_output_adapter@D@__crt_stdio_output@@@2@@__crt_stdio_output@@AEAAX_KI_N@Z 000000018003d0e0 f i libucrtd:output.obj
 0001:0003c230       ??$type_case_integer_parse_into_buffer@_K@?$output_processor@DV?$string_output_adapter@D@__crt_stdio_output@@V?$format_validation_base@DV?$string_output_adapter@D@__crt_stdio_output@@@2@@__crt_stdio_output@@AEAAX_KI_N@Z 000000018003d230 f i libucrtd:output.obj
 0001:0003c380       ??$type_case_integer_parse_into_buffer@_K@?$output_processor@DV?$string_output_adapter@D@__crt_stdio_output@@V?$positional_parameter_base@DV?$string_output_adapter@D@__crt_stdio_output@@@2@@__crt_stdio_output@@AEAAX_KI_N@Z 000000018003d380 f i libucrtd:output.obj
 0001:0003c4d0       ??$type_case_integer_parse_into_buffer@_K@?$output_processor@DV?$string_output_adapter@D@__crt_stdio_output@@V?$standard_base@DV?$string_output_adapter@D@__crt_stdio_output@@@2@@__crt_stdio_output@@AEAAX_KI_N@Z 000000018003d4d0 f i libucrtd:output.obj
 0001:0003c620       ??$type_case_integer_parse_into_buffer@_K@?$output_processor@_WV?$stream_output_adapter@_W@__crt_stdio_output@@V?$format_validation_base@_WV?$stream_output_adapter@_W@__crt_stdio_output@@@2@@__crt_stdio_output@@AEAAX_KI_N@Z 000000018003d620 f i libucrtd:output.obj
 0001:0003c780       ??$type_case_integer_parse_into_buffer@_K@?$output_processor@_WV?$stream_output_adapter@_W@__crt_stdio_output@@V?$positional_parameter_base@_WV?$stream_output_adapter@_W@__crt_stdio_output@@@2@@__crt_stdio_output@@AEAAX_KI_N@Z 000000018003d780 f i libucrtd:output.obj
 0001:0003c8e0       ??$type_case_integer_parse_into_buffer@_K@?$output_processor@_WV?$stream_output_adapter@_W@__crt_stdio_output@@V?$standard_base@_WV?$stream_output_adapter@_W@__crt_stdio_output@@@2@@__crt_stdio_output@@AEAAX_KI_N@Z 000000018003d8e0 f i libucrtd:output.obj
 0001:0003ca40       ??$type_case_integer_parse_into_buffer@_K@?$output_processor@_WV?$string_output_adapter@_W@__crt_stdio_output@@V?$format_validation_base@_WV?$string_output_adapter@_W@__crt_stdio_output@@@2@@__crt_stdio_output@@AEAAX_KI_N@Z 000000018003da40 f i libucrtd:output.obj
 0001:0003cba0       ??$type_case_integer_parse_into_buffer@_K@?$output_processor@_WV?$string_output_adapter@_W@__crt_stdio_output@@V?$positional_parameter_base@_WV?$string_output_adapter@_W@__crt_stdio_output@@@2@@__crt_stdio_output@@AEAAX_KI_N@Z 000000018003dba0 f i libucrtd:output.obj
 0001:0003cd00       ??$type_case_integer_parse_into_buffer@_K@?$output_processor@_WV?$string_output_adapter@_W@__crt_stdio_output@@V?$standard_base@_WV?$string_output_adapter@_W@__crt_stdio_output@@@2@@__crt_stdio_output@@AEAAX_KI_N@Z 000000018003dd00 f i libucrtd:output.obj
 0001:0003ce60       ??$write_multiple_characters@V?$stream_output_adapter@D@__crt_stdio_output@@D@__crt_stdio_output@@YAXAEBV?$stream_output_adapter@D@0@DHQEAH@Z 000000018003de60 f i libucrtd:output.obj
 0001:0003cec0       ??$write_multiple_characters@V?$stream_output_adapter@_W@__crt_stdio_output@@D@__crt_stdio_output@@YAXAEBV?$stream_output_adapter@_W@0@DHQEAH@Z 000000018003dec0 f i libucrtd:output.obj
 0001:0003cf20       ??$write_multiple_characters@V?$string_output_adapter@D@__crt_stdio_output@@D@__crt_stdio_output@@YAXAEBV?$string_output_adapter@D@0@DHQEAH@Z 000000018003df20 f i libucrtd:output.obj
 0001:0003cf80       ??$write_multiple_characters@V?$string_output_adapter@_W@__crt_stdio_output@@D@__crt_stdio_output@@YAXAEBV?$string_output_adapter@_W@0@DHQEAH@Z 000000018003df80 f i libucrtd:output.obj
 0001:0003d3a0       ??0?$common_data@D@__crt_stdio_output@@IEAA@XZ 000000018003e3a0 f i libucrtd:output.obj
 0001:0003d470       ??0?$common_data@_W@__crt_stdio_output@@IEAA@XZ 000000018003e470 f i libucrtd:output.obj
 0001:0003d540       ??0?$output_adapter_data@DV?$stream_output_adapter@D@__crt_stdio_output@@@__crt_stdio_output@@IEAA@AEBV?$stream_output_adapter@D@1@_KQEBDQEAU__crt_locale_pointers@@QEAD@Z 000000018003e540 f i libucrtd:output.obj
 0001:0003d5c0       ??0?$output_adapter_data@DV?$string_output_adapter@D@__crt_stdio_output@@@__crt_stdio_output@@IEAA@AEBV?$string_output_adapter@D@1@_KQEBDQEAU__crt_locale_pointers@@QEAD@Z 000000018003e5c0 f i libucrtd:output.obj
 0001:0003d640       ??0?$output_adapter_data@_WV?$stream_output_adapter@_W@__crt_stdio_output@@@__crt_stdio_output@@IEAA@AEBV?$stream_output_adapter@_W@1@_KQEB_WQEAU__crt_locale_pointers@@QEAD@Z 000000018003e640 f i libucrtd:output.obj
 0001:0003d6c0       ??0?$output_adapter_data@_WV?$string_output_adapter@_W@__crt_stdio_output@@@__crt_stdio_output@@IEAA@AEBV?$string_output_adapter@_W@1@_KQEB_WQEAU__crt_locale_pointers@@QEAD@Z 000000018003e6c0 f i libucrtd:output.obj
 0001:0003d740       ??0?$output_processor@DV?$stream_output_adapter@D@__crt_stdio_output@@V?$format_validation_base@DV?$stream_output_adapter@D@__crt_stdio_output@@@2@@__crt_stdio_output@@QEAA@AEBV?$stream_output_adapter@D@1@_KQEBDQEAU__crt_locale_pointers@@QEAD@Z 000000018003e740 f i libucrtd:output.obj
 0001:0003d790       ??0?$output_processor@DV?$stream_output_adapter@D@__crt_stdio_output@@V?$positional_parameter_base@DV?$stream_output_adapter@D@__crt_stdio_output@@@2@@__crt_stdio_output@@QEAA@AEBV?$stream_output_adapter@D@1@_KQEBDQEAU__crt_locale_pointers@@QEAD@Z 000000018003e790 f i libucrtd:output.obj
 0001:0003d7e0       ??0?$output_processor@DV?$stream_output_adapter@D@__crt_stdio_output@@V?$standard_base@DV?$stream_output_adapter@D@__crt_stdio_output@@@2@@__crt_stdio_output@@QEAA@AEBV?$stream_output_adapter@D@1@_KQEBDQEAU__crt_locale_pointers@@QEAD@Z 000000018003e7e0 f i libucrtd:output.obj
 0001:0003d830       ??0?$output_processor@DV?$string_output_adapter@D@__crt_stdio_output@@V?$format_validation_base@DV?$string_output_adapter@D@__crt_stdio_output@@@2@@__crt_stdio_output@@QEAA@AEBV?$string_output_adapter@D@1@_KQEBDQEAU__crt_locale_pointers@@QEAD@Z 000000018003e830 f i libucrtd:output.obj
 0001:0003d880       ??0?$output_processor@DV?$string_output_adapter@D@__crt_stdio_output@@V?$positional_parameter_base@DV?$string_output_adapter@D@__crt_stdio_output@@@2@@__crt_stdio_output@@QEAA@AEBV?$string_output_adapter@D@1@_KQEBDQEAU__crt_locale_pointers@@QEAD@Z 000000018003e880 f i libucrtd:output.obj
 0001:0003d8d0       ??0?$output_processor@DV?$string_output_adapter@D@__crt_stdio_output@@V?$standard_base@DV?$string_output_adapter@D@__crt_stdio_output@@@2@@__crt_stdio_output@@QEAA@AEBV?$string_output_adapter@D@1@_KQEBDQEAU__crt_locale_pointers@@QEAD@Z 000000018003e8d0 f i libucrtd:output.obj
 0001:0003d920       ??0?$output_processor@_WV?$stream_output_adapter@_W@__crt_stdio_output@@V?$format_validation_base@_WV?$stream_output_adapter@_W@__crt_stdio_output@@@2@@__crt_stdio_output@@QEAA@AEBV?$stream_output_adapter@_W@1@_KQEB_WQEAU__crt_locale_pointers@@QEAD@Z 000000018003e920 f i libucrtd:output.obj
 0001:0003d970       ??0?$output_processor@_WV?$stream_output_adapter@_W@__crt_stdio_output@@V?$positional_parameter_base@_WV?$stream_output_adapter@_W@__crt_stdio_output@@@2@@__crt_stdio_output@@QEAA@AEBV?$stream_output_adapter@_W@1@_KQEB_WQEAU__crt_locale_pointers@@QEAD@Z 000000018003e970 f i libucrtd:output.obj
 0001:0003d9c0       ??0?$output_processor@_WV?$stream_output_adapter@_W@__crt_stdio_output@@V?$standard_base@_WV?$stream_output_adapter@_W@__crt_stdio_output@@@2@@__crt_stdio_output@@QEAA@AEBV?$stream_output_adapter@_W@1@_KQEB_WQEAU__crt_locale_pointers@@QEAD@Z 000000018003e9c0 f i libucrtd:output.obj
 0001:0003da10       ??0?$output_processor@_WV?$string_output_adapter@_W@__crt_stdio_output@@V?$format_validation_base@_WV?$string_output_adapter@_W@__crt_stdio_output@@@2@@__crt_stdio_output@@QEAA@AEBV?$string_output_adapter@_W@1@_KQEB_WQEAU__crt_locale_pointers@@QEAD@Z 000000018003ea10 f i libucrtd:output.obj
 0001:0003da60       ??0?$output_processor@_WV?$string_output_adapter@_W@__crt_stdio_output@@V?$positional_parameter_base@_WV?$string_output_adapter@_W@__crt_stdio_output@@@2@@__crt_stdio_output@@QEAA@AEBV?$string_output_adapter@_W@1@_KQEB_WQEAU__crt_locale_pointers@@QEAD@Z 000000018003ea60 f i libucrtd:output.obj
 0001:0003dab0       ??0?$output_processor@_WV?$string_output_adapter@_W@__crt_stdio_output@@V?$standard_base@_WV?$string_output_adapter@_W@__crt_stdio_output@@@2@@__crt_stdio_output@@QEAA@AEBV?$string_output_adapter@_W@1@_KQEB_WQEAU__crt_locale_pointers@@QEAD@Z 000000018003eab0 f i libucrtd:output.obj
 0001:0003db00       ??0?$stream_output_adapter@D@__crt_stdio_output@@QEAA@QEAU_iobuf@@@Z 000000018003eb00 f i libucrtd:output.obj
 0001:0003db30       ??0?$stream_output_adapter@_W@__crt_stdio_output@@QEAA@QEAU_iobuf@@@Z 000000018003eb30 f i libucrtd:output.obj
 0001:0003db60       ??0?$string_output_adapter@D@__crt_stdio_output@@QEAA@QEAU?$string_output_adapter_context@D@1@@Z 000000018003eb60 f i libucrtd:output.obj
 0001:0003db80       ??0?$string_output_adapter@_W@__crt_stdio_output@@QEAA@QEAU?$string_output_adapter_context@_W@1@@Z 000000018003eb80 f i libucrtd:output.obj
 0001:0003dba0       ??0_LocaleUpdate@@QEAA@QEAU__crt_locale_pointers@@@Z 000000018003eba0 f i libucrtd:output.obj
 0001:0003dcc0       ??0__acrt_stdio_temporary_buffering_guard@@QEAA@QEAU_iobuf@@@Z 000000018003ecc0 f i libucrtd:output.obj
 0001:0003dd00       ??0__crt_deferred_errno_cache@@QEAA@XZ 000000018003ed00 f i libucrtd:output.obj
 0001:0003dd20       ??0__crt_errno_guard@@QEAA@QEAH@Z 000000018003ed20 f i libucrtd:output.obj
 0001:0003dd60       ??0__crt_stdio_stream@@QEAA@QEAU_iobuf@@@Z 000000018003ed60 f i libucrtd:output.obj
 0001:0003dd80       ??0formatting_buffer@__crt_stdio_output@@QEAA@XZ 000000018003ed80 f i libucrtd:output.obj
 0001:0003ddc0       ??1?$common_data@D@__crt_stdio_output@@QEAA@XZ 000000018003edc0 f i libucrtd:output.obj
 0001:0003dde0       ??1?$common_data@_W@__crt_stdio_output@@QEAA@XZ 000000018003ede0 f i libucrtd:output.obj
 0001:0003de00       ??1?$format_validation_base@DV?$stream_output_adapter@D@__crt_stdio_output@@@__crt_stdio_output@@QEAA@XZ 000000018003ee00 f i libucrtd:output.obj
 0001:0003de20       ??1?$format_validation_base@DV?$string_output_adapter@D@__crt_stdio_output@@@__crt_stdio_output@@QEAA@XZ 000000018003ee20 f i libucrtd:output.obj
 0001:0003de40       ??1?$format_validation_base@_WV?$stream_output_adapter@_W@__crt_stdio_output@@@__crt_stdio_output@@QEAA@XZ 000000018003ee40 f i libucrtd:output.obj
 0001:0003de60       ??1?$format_validation_base@_WV?$string_output_adapter@_W@__crt_stdio_output@@@__crt_stdio_output@@QEAA@XZ 000000018003ee60 f i libucrtd:output.obj
 0001:0003de80       ??1?$output_adapter_data@DV?$stream_output_adapter@D@__crt_stdio_output@@@__crt_stdio_output@@QEAA@XZ 000000018003ee80 f i libucrtd:output.obj
 0001:0003dea0       ??1?$output_adapter_data@DV?$string_output_adapter@D@__crt_stdio_output@@@__crt_stdio_output@@QEAA@XZ 000000018003eea0 f i libucrtd:output.obj
 0001:0003dec0       ??1?$output_adapter_data@_WV?$stream_output_adapter@_W@__crt_stdio_output@@@__crt_stdio_output@@QEAA@XZ 000000018003eec0 f i libucrtd:output.obj
 0001:0003dee0       ??1?$output_adapter_data@_WV?$string_output_adapter@_W@__crt_stdio_output@@@__crt_stdio_output@@QEAA@XZ 000000018003eee0 f i libucrtd:output.obj
 0001:0003df00       ??1?$output_processor@DV?$stream_output_adapter@D@__crt_stdio_output@@V?$format_validation_base@DV?$stream_output_adapter@D@__crt_stdio_output@@@2@@__crt_stdio_output@@QEAA@XZ 000000018003ef00 f i libucrtd:output.obj
 0001:0003df20       ??1?$output_processor@DV?$stream_output_adapter@D@__crt_stdio_output@@V?$positional_parameter_base@DV?$stream_output_adapter@D@__crt_stdio_output@@@2@@__crt_stdio_output@@QEAA@XZ 000000018003ef20 f i libucrtd:output.obj
 0001:0003df40       ??1?$output_processor@DV?$stream_output_adapter@D@__crt_stdio_output@@V?$standard_base@DV?$stream_output_adapter@D@__crt_stdio_output@@@2@@__crt_stdio_output@@QEAA@XZ 000000018003ef40 f i libucrtd:output.obj
 0001:0003df60       ??1?$output_processor@DV?$string_output_adapter@D@__crt_stdio_output@@V?$format_validation_base@DV?$string_output_adapter@D@__crt_stdio_output@@@2@@__crt_stdio_output@@QEAA@XZ 000000018003ef60 f i libucrtd:output.obj
 0001:0003df80       ??1?$output_processor@DV?$string_output_adapter@D@__crt_stdio_output@@V?$positional_parameter_base@DV?$string_output_adapter@D@__crt_stdio_output@@@2@@__crt_stdio_output@@QEAA@XZ 000000018003ef80 f i libucrtd:output.obj
 0001:0003dfa0       ??1?$output_processor@DV?$string_output_adapter@D@__crt_stdio_output@@V?$standard_base@DV?$string_output_adapter@D@__crt_stdio_output@@@2@@__crt_stdio_output@@QEAA@XZ 000000018003efa0 f i libucrtd:output.obj
 0001:0003dfc0       ??1?$output_processor@_WV?$stream_output_adapter@_W@__crt_stdio_output@@V?$format_validation_base@_WV?$stream_output_adapter@_W@__crt_stdio_output@@@2@@__crt_stdio_output@@QEAA@XZ 000000018003efc0 f i libucrtd:output.obj
 0001:0003dfe0       ??1?$output_processor@_WV?$stream_output_adapter@_W@__crt_stdio_output@@V?$positional_parameter_base@_WV?$stream_output_adapter@_W@__crt_stdio_output@@@2@@__crt_stdio_output@@QEAA@XZ 000000018003efe0 f i libucrtd:output.obj
 0001:0003e000       ??1?$output_processor@_WV?$stream_output_adapter@_W@__crt_stdio_output@@V?$standard_base@_WV?$stream_output_adapter@_W@__crt_stdio_output@@@2@@__crt_stdio_output@@QEAA@XZ 000000018003f000 f i libucrtd:output.obj
 0001:0003e020       ??1?$output_processor@_WV?$string_output_adapter@_W@__crt_stdio_output@@V?$format_validation_base@_WV?$string_output_adapter@_W@__crt_stdio_output@@@2@@__crt_stdio_output@@QEAA@XZ 000000018003f020 f i libucrtd:output.obj
 0001:0003e040       ??1?$output_processor@_WV?$string_output_adapter@_W@__crt_stdio_output@@V?$positional_parameter_base@_WV?$string_output_adapter@_W@__crt_stdio_output@@@2@@__crt_stdio_output@@QEAA@XZ 000000018003f040 f i libucrtd:output.obj
 0001:0003e060       ??1?$output_processor@_WV?$string_output_adapter@_W@__crt_stdio_output@@V?$standard_base@_WV?$string_output_adapter@_W@__crt_stdio_output@@@2@@__crt_stdio_output@@QEAA@XZ 000000018003f060 f i libucrtd:output.obj
 0001:0003e080       ??1?$positional_parameter_base@DV?$stream_output_adapter@D@__crt_stdio_output@@@__crt_stdio_output@@QEAA@XZ 000000018003f080 f i libucrtd:output.obj
 0001:0003e0a0       ??1?$positional_parameter_base@DV?$string_output_adapter@D@__crt_stdio_output@@@__crt_stdio_output@@QEAA@XZ 000000018003f0a0 f i libucrtd:output.obj
 0001:0003e0c0       ??1?$positional_parameter_base@_WV?$stream_output_adapter@_W@__crt_stdio_output@@@__crt_stdio_output@@QEAA@XZ 000000018003f0c0 f i libucrtd:output.obj
 0001:0003e0e0       ??1?$positional_parameter_base@_WV?$string_output_adapter@_W@__crt_stdio_output@@@__crt_stdio_output@@QEAA@XZ 000000018003f0e0 f i libucrtd:output.obj
 0001:0003e100       ??1?$standard_base@DV?$stream_output_adapter@D@__crt_stdio_output@@@__crt_stdio_output@@QEAA@XZ 000000018003f100 f i libucrtd:output.obj
 0001:0003e120       ??1?$standard_base@DV?$string_output_adapter@D@__crt_stdio_output@@@__crt_stdio_output@@QEAA@XZ 000000018003f120 f i libucrtd:output.obj
 0001:0003e140       ??1?$standard_base@_WV?$stream_output_adapter@_W@__crt_stdio_output@@@__crt_stdio_output@@QEAA@XZ 000000018003f140 f i libucrtd:output.obj
 0001:0003e160       ??1?$standard_base@_WV?$string_output_adapter@_W@__crt_stdio_output@@@__crt_stdio_output@@QEAA@XZ 000000018003f160 f i libucrtd:output.obj
 0001:0003e180       ??1_LocaleUpdate@@QEAA@XZ  000000018003f180 f i libucrtd:output.obj
 0001:0003e1b0       ??1__acrt_stdio_temporary_buffering_guard@@QEAA@XZ 000000018003f1b0 f i libucrtd:output.obj
 0001:0003e1e0       ??1__crt_errno_guard@@QEAA@XZ 000000018003f1e0 f i libucrtd:output.obj
 0001:0003e210       ??1formatting_buffer@__crt_stdio_output@@QEAA@XZ 000000018003f210 f i libucrtd:output.obj
 0001:0003e240       ??4?$__crt_unique_heap_ptr@DU__crt_internal_free_policy@@@@QEAAAEAV0@$$QEAV0@@Z 000000018003f240 f i libucrtd:output.obj
 0001:0003e280       ??A?$spectre_mitigated_lookup_table@Ustate_transition_pair@__crt_stdio_output@@$0IA@@__crt_stdio_output@@QEBAAEBUstate_transition_pair@1@_K@Z 000000018003f280 f i libucrtd:output.obj
 0001:0003e2a0       ??C__crt_stdio_stream@@QEBAPEAU__crt_stdio_stream_data@@XZ 000000018003f2a0 f i libucrtd:output.obj
 0001:0003eb50       ?GetLocaleT@_LocaleUpdate@@QEAAPEAU__crt_locale_pointers@@XZ 000000018003fb50 f i libucrtd:output.obj
 0001:0003eb60       ?__crt_interlocked_read_32@@YAHPEDH@Z 000000018003fb60 f i libucrtd:output.obj
 0001:0003eb80       ?adjust_hexit@?$output_processor@DV?$stream_output_adapter@D@__crt_stdio_output@@V?$format_validation_base@DV?$stream_output_adapter@D@__crt_stdio_output@@@2@@__crt_stdio_output@@CADH_N@Z 000000018003fb80 f i libucrtd:output.obj
 0001:0003ebd0       ?adjust_hexit@?$output_processor@DV?$stream_output_adapter@D@__crt_stdio_output@@V?$positional_parameter_base@DV?$stream_output_adapter@D@__crt_stdio_output@@@2@@__crt_stdio_output@@CADH_N@Z 000000018003fbd0 f i libucrtd:output.obj
 0001:0003ec20       ?adjust_hexit@?$output_processor@DV?$stream_output_adapter@D@__crt_stdio_output@@V?$standard_base@DV?$stream_output_adapter@D@__crt_stdio_output@@@2@@__crt_stdio_output@@CADH_N@Z 000000018003fc20 f i libucrtd:output.obj
 0001:0003ec70       ?adjust_hexit@?$output_processor@DV?$string_output_adapter@D@__crt_stdio_output@@V?$format_validation_base@DV?$string_output_adapter@D@__crt_stdio_output@@@2@@__crt_stdio_output@@CADH_N@Z 000000018003fc70 f i libucrtd:output.obj
 0001:0003ecc0       ?adjust_hexit@?$output_processor@DV?$string_output_adapter@D@__crt_stdio_output@@V?$positional_parameter_base@DV?$string_output_adapter@D@__crt_stdio_output@@@2@@__crt_stdio_output@@CADH_N@Z 000000018003fcc0 f i libucrtd:output.obj
 0001:0003ed10       ?adjust_hexit@?$output_processor@DV?$string_output_adapter@D@__crt_stdio_output@@V?$standard_base@DV?$string_output_adapter@D@__crt_stdio_output@@@2@@__crt_stdio_output@@CADH_N@Z 000000018003fd10 f i libucrtd:output.obj
 0001:0003ed60       ?adjust_hexit@?$output_processor@_WV?$stream_output_adapter@_W@__crt_stdio_output@@V?$format_validation_base@_WV?$stream_output_adapter@_W@__crt_stdio_output@@@2@@__crt_stdio_output@@CADH_N@Z 000000018003fd60 f i libucrtd:output.obj
 0001:0003edb0       ?adjust_hexit@?$output_processor@_WV?$stream_output_adapter@_W@__crt_stdio_output@@V?$positional_parameter_base@_WV?$stream_output_adapter@_W@__crt_stdio_output@@@2@@__crt_stdio_output@@CADH_N@Z 000000018003fdb0 f i libucrtd:output.obj
 0001:0003ee00       ?adjust_hexit@?$output_processor@_WV?$stream_output_adapter@_W@__crt_stdio_output@@V?$standard_base@_WV?$stream_output_adapter@_W@__crt_stdio_output@@@2@@__crt_stdio_output@@CADH_N@Z 000000018003fe00 f i libucrtd:output.obj
 0001:0003ee50       ?adjust_hexit@?$output_processor@_WV?$string_output_adapter@_W@__crt_stdio_output@@V?$format_validation_base@_WV?$string_output_adapter@_W@__crt_stdio_output@@@2@@__crt_stdio_output@@CADH_N@Z 000000018003fe50 f i libucrtd:output.obj
 0001:0003eea0       ?adjust_hexit@?$output_processor@_WV?$string_output_adapter@_W@__crt_stdio_output@@V?$positional_parameter_base@_WV?$string_output_adapter@_W@__crt_stdio_output@@@2@@__crt_stdio_output@@CADH_N@Z 000000018003fea0 f i libucrtd:output.obj
 0001:0003eef0       ?adjust_hexit@?$output_processor@_WV?$string_output_adapter@_W@__crt_stdio_output@@V?$standard_base@_WV?$string_output_adapter@_W@__crt_stdio_output@@@2@@__crt_stdio_output@@CADH_N@Z 000000018003fef0 f i libucrtd:output.obj
 0001:0003ef40       ?advance_to_next_pass@?$positional_parameter_base@DV?$stream_output_adapter@D@__crt_stdio_output@@@__crt_stdio_output@@IEAA_NXZ 000000018003ff40 f i libucrtd:output.obj
 0001:0003eff0       ?advance_to_next_pass@?$positional_parameter_base@DV?$string_output_adapter@D@__crt_stdio_output@@@__crt_stdio_output@@IEAA_NXZ 000000018003fff0 f i libucrtd:output.obj
 0001:0003f0a0       ?advance_to_next_pass@?$positional_parameter_base@_WV?$stream_output_adapter@_W@__crt_stdio_output@@@__crt_stdio_output@@IEAA_NXZ 00000001800400a0 f i libucrtd:output.obj
 0001:0003f150       ?advance_to_next_pass@?$positional_parameter_base@_WV?$string_output_adapter@_W@__crt_stdio_output@@@__crt_stdio_output@@IEAA_NXZ 0000000180040150 f i libucrtd:output.obj
 0001:0003f200       ?advance_to_next_pass@?$standard_base@DV?$stream_output_adapter@D@__crt_stdio_output@@@__crt_stdio_output@@IEAA_NXZ 0000000180040200 f i libucrtd:output.obj
 0001:0003f250       ?advance_to_next_pass@?$standard_base@DV?$string_output_adapter@D@__crt_stdio_output@@@__crt_stdio_output@@IEAA_NXZ 0000000180040250 f i libucrtd:output.obj
 0001:0003f2a0       ?advance_to_next_pass@?$standard_base@_WV?$stream_output_adapter@_W@__crt_stdio_output@@@__crt_stdio_output@@IEAA_NXZ 00000001800402a0 f i libucrtd:output.obj
 0001:0003f2f0       ?advance_to_next_pass@?$standard_base@_WV?$string_output_adapter@_W@__crt_stdio_output@@@__crt_stdio_output@@IEAA_NXZ 00000001800402f0 f i libucrtd:output.obj
 0001:0003f340       ?crop_zeroes@__crt_stdio_output@@YAXPEADQEAU__crt_locale_pointers@@@Z 0000000180040340 f i libucrtd:output.obj
 0001:0003f480       ?find_next_state@?$output_processor@DV?$stream_output_adapter@D@__crt_stdio_output@@V?$format_validation_base@DV?$stream_output_adapter@D@__crt_stdio_output@@@2@@__crt_stdio_output@@AEBA?AW4state@2@DW432@@Z 0000000180040480 f i libucrtd:output.obj
 0001:0003f510       ?find_next_state@?$output_processor@DV?$stream_output_adapter@D@__crt_stdio_output@@V?$positional_parameter_base@DV?$stream_output_adapter@D@__crt_stdio_output@@@2@@__crt_stdio_output@@AEBA?AW4state@2@DW432@@Z 0000000180040510 f i libucrtd:output.obj
 0001:0003f5a0       ?find_next_state@?$output_processor@DV?$stream_output_adapter@D@__crt_stdio_output@@V?$standard_base@DV?$stream_output_adapter@D@__crt_stdio_output@@@2@@__crt_stdio_output@@AEBA?AW4state@2@DW432@@Z 00000001800405a0 f i libucrtd:output.obj
 0001:0003f630       ?find_next_state@?$output_processor@DV?$string_output_adapter@D@__crt_stdio_output@@V?$format_validation_base@DV?$string_output_adapter@D@__crt_stdio_output@@@2@@__crt_stdio_output@@AEBA?AW4state@2@DW432@@Z 0000000180040630 f i libucrtd:output.obj
 0001:0003f6c0       ?find_next_state@?$output_processor@DV?$string_output_adapter@D@__crt_stdio_output@@V?$positional_parameter_base@DV?$string_output_adapter@D@__crt_stdio_output@@@2@@__crt_stdio_output@@AEBA?AW4state@2@DW432@@Z 00000001800406c0 f i libucrtd:output.obj
 0001:0003f750       ?find_next_state@?$output_processor@DV?$string_output_adapter@D@__crt_stdio_output@@V?$standard_base@DV?$string_output_adapter@D@__crt_stdio_output@@@2@@__crt_stdio_output@@AEBA?AW4state@2@DW432@@Z 0000000180040750 f i libucrtd:output.obj
 0001:0003f7e0       ?find_next_state@?$output_processor@_WV?$stream_output_adapter@_W@__crt_stdio_output@@V?$format_validation_base@_WV?$stream_output_adapter@_W@__crt_stdio_output@@@2@@__crt_stdio_output@@AEBA?AW4state@2@_WW432@@Z 00000001800407e0 f i libucrtd:output.obj
 0001:0003f870       ?find_next_state@?$output_processor@_WV?$stream_output_adapter@_W@__crt_stdio_output@@V?$positional_parameter_base@_WV?$stream_output_adapter@_W@__crt_stdio_output@@@2@@__crt_stdio_output@@AEBA?AW4state@2@_WW432@@Z 0000000180040870 f i libucrtd:output.obj
 0001:0003f900       ?find_next_state@?$output_processor@_WV?$stream_output_adapter@_W@__crt_stdio_output@@V?$standard_base@_WV?$stream_output_adapter@_W@__crt_stdio_output@@@2@@__crt_stdio_output@@AEBA?AW4state@2@_WW432@@Z 0000000180040900 f i libucrtd:output.obj
 0001:0003f990       ?find_next_state@?$output_processor@_WV?$string_output_adapter@_W@__crt_stdio_output@@V?$format_validation_base@_WV?$string_output_adapter@_W@__crt_stdio_output@@@2@@__crt_stdio_output@@AEBA?AW4state@2@_WW432@@Z 0000000180040990 f i libucrtd:output.obj
 0001:0003fa20       ?find_next_state@?$output_processor@_WV?$string_output_adapter@_W@__crt_stdio_output@@V?$positional_parameter_base@_WV?$string_output_adapter@_W@__crt_stdio_output@@@2@@__crt_stdio_output@@AEBA?AW4state@2@_WW432@@Z 0000000180040a20 f i libucrtd:output.obj
 0001:0003fab0       ?find_next_state@?$output_processor@_WV?$string_output_adapter@_W@__crt_stdio_output@@V?$standard_base@_WV?$string_output_adapter@_W@__crt_stdio_output@@@2@@__crt_stdio_output@@AEBA?AW4state@2@_WW432@@Z 0000000180040ab0 f i libucrtd:output.obj
 0001:0003fb40       ?force_decimal_point@__crt_stdio_output@@YAXPEADQEAU__crt_locale_pointers@@@Z 0000000180040b40 f i libucrtd:output.obj
 0001:0003fc40       ?get@__crt_deferred_errno_cache@@QEAAAEAHXZ 0000000180040c40 f i libucrtd:output.obj
 0001:0003fc70       ?get_flags@__crt_stdio_stream@@QEBAJXZ 0000000180040c70 f i libucrtd:output.obj
 0001:0003fca0       ?get_parameter_type@?$positional_parameter_base@DV?$stream_output_adapter@D@__crt_stdio_output@@@__crt_stdio_output@@CA?AW4parameter_type@12@F@Z 0000000180040ca0 f i libucrtd:output.obj
 0001:0003fcb0       ?get_parameter_type@?$positional_parameter_base@DV?$stream_output_adapter@D@__crt_stdio_output@@@__crt_stdio_output@@CA?AW4parameter_type@12@G@Z 0000000180040cb0 f i libucrtd:output.obj
 0001:0003fcc0       ?get_parameter_type@?$positional_parameter_base@DV?$stream_output_adapter@D@__crt_stdio_output@@@__crt_stdio_output@@CA?AW4parameter_type@12@H@Z 0000000180040cc0 f i libucrtd:output.obj
 0001:0003fcd0       ?get_parameter_type@?$positional_parameter_base@DV?$stream_output_adapter@D@__crt_stdio_output@@@__crt_stdio_output@@CA?AW4parameter_type@12@I@Z 0000000180040cd0 f i libucrtd:output.obj
 0001:0003fce0       ?get_parameter_type@?$positional_parameter_base@DV?$stream_output_adapter@D@__crt_stdio_output@@@__crt_stdio_output@@CA?AW4parameter_type@12@U_CRT_DOUBLE@@@Z 0000000180040ce0 f i libucrtd:output.obj
 0001:0003fcf0       ?get_parameter_type@?$positional_parameter_base@DV?$stream_output_adapter@D@__crt_stdio_output@@@__crt_stdio_output@@CA?AW4parameter_type@12@_J@Z 0000000180040cf0 f i libucrtd:output.obj
 0001:0003fd00       ?get_parameter_type@?$positional_parameter_base@DV?$stream_output_adapter@D@__crt_stdio_output@@@__crt_stdio_output@@CA?AW4parameter_type@12@_K@Z 0000000180040d00 f i libucrtd:output.obj
 0001:0003fd10       ?get_parameter_type@?$positional_parameter_base@DV?$stream_output_adapter@D@__crt_stdio_output@@@__crt_stdio_output@@CA?AW4parameter_type@12@_W@Z 0000000180040d10 f i libucrtd:output.obj
 0001:0003fd20       ?get_parameter_type@?$positional_parameter_base@DV?$string_output_adapter@D@__crt_stdio_output@@@__crt_stdio_output@@CA?AW4parameter_type@12@F@Z 0000000180040d20 f i libucrtd:output.obj
 0001:0003fd30       ?get_parameter_type@?$positional_parameter_base@DV?$string_output_adapter@D@__crt_stdio_output@@@__crt_stdio_output@@CA?AW4parameter_type@12@G@Z 0000000180040d30 f i libucrtd:output.obj
 0001:0003fd40       ?get_parameter_type@?$positional_parameter_base@DV?$string_output_adapter@D@__crt_stdio_output@@@__crt_stdio_output@@CA?AW4parameter_type@12@H@Z 0000000180040d40 f i libucrtd:output.obj
 0001:0003fd50       ?get_parameter_type@?$positional_parameter_base@DV?$string_output_adapter@D@__crt_stdio_output@@@__crt_stdio_output@@CA?AW4parameter_type@12@I@Z 0000000180040d50 f i libucrtd:output.obj
 0001:0003fd60       ?get_parameter_type@?$positional_parameter_base@DV?$string_output_adapter@D@__crt_stdio_output@@@__crt_stdio_output@@CA?AW4parameter_type@12@U_CRT_DOUBLE@@@Z 0000000180040d60 f i libucrtd:output.obj
 0001:0003fd70       ?get_parameter_type@?$positional_parameter_base@DV?$string_output_adapter@D@__crt_stdio_output@@@__crt_stdio_output@@CA?AW4parameter_type@12@_J@Z 0000000180040d70 f i libucrtd:output.obj
 0001:0003fd80       ?get_parameter_type@?$positional_parameter_base@DV?$string_output_adapter@D@__crt_stdio_output@@@__crt_stdio_output@@CA?AW4parameter_type@12@_K@Z 0000000180040d80 f i libucrtd:output.obj
 0001:0003fd90       ?get_parameter_type@?$positional_parameter_base@DV?$string_output_adapter@D@__crt_stdio_output@@@__crt_stdio_output@@CA?AW4parameter_type@12@_W@Z 0000000180040d90 f i libucrtd:output.obj
 0001:0003fda0       ?get_parameter_type@?$positional_parameter_base@_WV?$stream_output_adapter@_W@__crt_stdio_output@@@__crt_stdio_output@@CA?AW4parameter_type@12@F@Z 0000000180040da0 f i libucrtd:output.obj
 0001:0003fdb0       ?get_parameter_type@?$positional_parameter_base@_WV?$stream_output_adapter@_W@__crt_stdio_output@@@__crt_stdio_output@@CA?AW4parameter_type@12@G@Z 0000000180040db0 f i libucrtd:output.obj
 0001:0003fdc0       ?get_parameter_type@?$positional_parameter_base@_WV?$stream_output_adapter@_W@__crt_stdio_output@@@__crt_stdio_output@@CA?AW4parameter_type@12@H@Z 0000000180040dc0 f i libucrtd:output.obj
 0001:0003fdd0       ?get_parameter_type@?$positional_parameter_base@_WV?$stream_output_adapter@_W@__crt_stdio_output@@@__crt_stdio_output@@CA?AW4parameter_type@12@I@Z 0000000180040dd0 f i libucrtd:output.obj
 0001:0003fde0       ?get_parameter_type@?$positional_parameter_base@_WV?$stream_output_adapter@_W@__crt_stdio_output@@@__crt_stdio_output@@CA?AW4parameter_type@12@U_CRT_DOUBLE@@@Z 0000000180040de0 f i libucrtd:output.obj
 0001:0003fdf0       ?get_parameter_type@?$positional_parameter_base@_WV?$stream_output_adapter@_W@__crt_stdio_output@@@__crt_stdio_output@@CA?AW4parameter_type@12@_J@Z 0000000180040df0 f i libucrtd:output.obj
 0001:0003fe00       ?get_parameter_type@?$positional_parameter_base@_WV?$stream_output_adapter@_W@__crt_stdio_output@@@__crt_stdio_output@@CA?AW4parameter_type@12@_K@Z 0000000180040e00 f i libucrtd:output.obj
 0001:0003fe10       ?get_parameter_type@?$positional_parameter_base@_WV?$stream_output_adapter@_W@__crt_stdio_output@@@__crt_stdio_output@@CA?AW4parameter_type@12@_W@Z 0000000180040e10 f i libucrtd:output.obj
 0001:0003fe20       ?get_parameter_type@?$positional_parameter_base@_WV?$string_output_adapter@_W@__crt_stdio_output@@@__crt_stdio_output@@CA?AW4parameter_type@12@F@Z 0000000180040e20 f i libucrtd:output.obj
 0001:0003fe30       ?get_parameter_type@?$positional_parameter_base@_WV?$string_output_adapter@_W@__crt_stdio_output@@@__crt_stdio_output@@CA?AW4parameter_type@12@G@Z 0000000180040e30 f i libucrtd:output.obj
 0001:0003fe40       ?get_parameter_type@?$positional_parameter_base@_WV?$string_output_adapter@_W@__crt_stdio_output@@@__crt_stdio_output@@CA?AW4parameter_type@12@H@Z 0000000180040e40 f i libucrtd:output.obj
 0001:0003fe50       ?get_parameter_type@?$positional_parameter_base@_WV?$string_output_adapter@_W@__crt_stdio_output@@@__crt_stdio_output@@CA?AW4parameter_type@12@I@Z 0000000180040e50 f i libucrtd:output.obj
 0001:0003fe60       ?get_parameter_type@?$positional_parameter_base@_WV?$string_output_adapter@_W@__crt_stdio_output@@@__crt_stdio_output@@CA?AW4parameter_type@12@U_CRT_DOUBLE@@@Z 0000000180040e60 f i libucrtd:output.obj
 0001:0003fe70       ?get_parameter_type@?$positional_parameter_base@_WV?$string_output_adapter@_W@__crt_stdio_output@@@__crt_stdio_output@@CA?AW4parameter_type@12@_J@Z 0000000180040e70 f i libucrtd:output.obj
 0001:0003fe80       ?get_parameter_type@?$positional_parameter_base@_WV?$string_output_adapter@_W@__crt_stdio_output@@@__crt_stdio_output@@CA?AW4parameter_type@12@_K@Z 0000000180040e80 f i libucrtd:output.obj
 0001:0003fe90       ?get_parameter_type@?$positional_parameter_base@_WV?$string_output_adapter@_W@__crt_stdio_output@@@__crt_stdio_output@@CA?AW4parameter_type@12@_W@Z 0000000180040e90 f i libucrtd:output.obj
 0001:0003fea0       ?has_flag@?$output_processor@DV?$stream_output_adapter@D@__crt_stdio_output@@V?$format_validation_base@DV?$stream_output_adapter@D@__crt_stdio_output@@@2@@__crt_stdio_output@@AEBA_NI@Z 0000000180040ea0 f i libucrtd:output.obj
 0001:0003fee0       ?has_flag@?$output_processor@DV?$stream_output_adapter@D@__crt_stdio_output@@V?$positional_parameter_base@DV?$stream_output_adapter@D@__crt_stdio_output@@@2@@__crt_stdio_output@@AEBA_NI@Z 0000000180040ee0 f i libucrtd:output.obj
 0001:0003ff20       ?has_flag@?$output_processor@DV?$stream_output_adapter@D@__crt_stdio_output@@V?$standard_base@DV?$stream_output_adapter@D@__crt_stdio_output@@@2@@__crt_stdio_output@@AEBA_NI@Z 0000000180040f20 f i libucrtd:output.obj
 0001:0003ff60       ?has_flag@?$output_processor@DV?$string_output_adapter@D@__crt_stdio_output@@V?$format_validation_base@DV?$string_output_adapter@D@__crt_stdio_output@@@2@@__crt_stdio_output@@AEBA_NI@Z 0000000180040f60 f i libucrtd:output.obj
 0001:0003ffa0       ?has_flag@?$output_processor@DV?$string_output_adapter@D@__crt_stdio_output@@V?$positional_parameter_base@DV?$string_output_adapter@D@__crt_stdio_output@@@2@@__crt_stdio_output@@AEBA_NI@Z 0000000180040fa0 f i libucrtd:output.obj
 0001:0003ffe0       ?has_flag@?$output_processor@DV?$string_output_adapter@D@__crt_stdio_output@@V?$standard_base@DV?$string_output_adapter@D@__crt_stdio_output@@@2@@__crt_stdio_output@@AEBA_NI@Z 0000000180040fe0 f i libucrtd:output.obj
 0001:00040020       ?has_flag@?$output_processor@_WV?$stream_output_adapter@_W@__crt_stdio_output@@V?$format_validation_base@_WV?$stream_output_adapter@_W@__crt_stdio_output@@@2@@__crt_stdio_output@@AEBA_NI@Z 0000000180041020 f i libucrtd:output.obj
 0001:00040060       ?has_flag@?$output_processor@_WV?$stream_output_adapter@_W@__crt_stdio_output@@V?$positional_parameter_base@_WV?$stream_output_adapter@_W@__crt_stdio_output@@@2@@__crt_stdio_output@@AEBA_NI@Z 0000000180041060 f i libucrtd:output.obj
 0001:000400a0       ?has_flag@?$output_processor@_WV?$stream_output_adapter@_W@__crt_stdio_output@@V?$standard_base@_WV?$stream_output_adapter@_W@__crt_stdio_output@@@2@@__crt_stdio_output@@AEBA_NI@Z 00000001800410a0 f i libucrtd:output.obj
 0001:000400e0       ?has_flag@?$output_processor@_WV?$string_output_adapter@_W@__crt_stdio_output@@V?$format_validation_base@_WV?$string_output_adapter@_W@__crt_stdio_output@@@2@@__crt_stdio_output@@AEBA_NI@Z 00000001800410e0 f i libucrtd:output.obj
 0001:00040120       ?has_flag@?$output_processor@_WV?$string_output_adapter@_W@__crt_stdio_output@@V?$positional_parameter_base@_WV?$string_output_adapter@_W@__crt_stdio_output@@@2@@__crt_stdio_output@@AEBA_NI@Z 0000000180041120 f i libucrtd:output.obj
 0001:00040160       ?has_flag@?$output_processor@_WV?$string_output_adapter@_W@__crt_stdio_output@@V?$standard_base@_WV?$string_output_adapter@_W@__crt_stdio_output@@@2@@__crt_stdio_output@@AEBA_NI@Z 0000000180041160 f i libucrtd:output.obj
 0001:000401a0       ?is_positional_parameter_reappearance_consistent@?$positional_parameter_base@DV?$stream_output_adapter@D@__crt_stdio_output@@@__crt_stdio_output@@AEAA_NAEBUparameter_data@12@W4parameter_type@12@DW4length_modifier@2@@Z 00000001800411a0 f i libucrtd:output.obj
 0001:00040400       ?is_positional_parameter_reappearance_consistent@?$positional_parameter_base@DV?$string_output_adapter@D@__crt_stdio_output@@@__crt_stdio_output@@AEAA_NAEBUparameter_data@12@W4parameter_type@12@DW4length_modifier@2@@Z 0000000180041400 f i libucrtd:output.obj
 0001:00040660       ?is_positional_parameter_reappearance_consistent@?$positional_parameter_base@_WV?$stream_output_adapter@_W@__crt_stdio_output@@@__crt_stdio_output@@AEAA_NAEBUparameter_data@12@W4parameter_type@12@_WW4length_modifier@2@@Z 0000000180041660 f i libucrtd:output.obj
 0001:000408c0       ?is_positional_parameter_reappearance_consistent@?$positional_parameter_base@_WV?$string_output_adapter@_W@__crt_stdio_output@@@__crt_stdio_output@@AEAA_NAEBUparameter_data@12@W4parameter_type@12@_WW4length_modifier@2@@Z 00000001800418c0 f i libucrtd:output.obj
 0001:00040b20       ?is_string_backed@__crt_stdio_stream@@QEBA_NXZ 0000000180041b20 f i libucrtd:output.obj
 0001:00040b60       ?narrow_null_string@?$output_processor@DV?$stream_output_adapter@D@__crt_stdio_output@@V?$format_validation_base@DV?$stream_output_adapter@D@__crt_stdio_output@@@2@@__crt_stdio_output@@CAPEADXZ 0000000180041b60 f i libucrtd:output.obj
 0001:00040b70       ?narrow_null_string@?$output_processor@DV?$stream_output_adapter@D@__crt_stdio_output@@V?$positional_parameter_base@DV?$stream_output_adapter@D@__crt_stdio_output@@@2@@__crt_stdio_output@@CAPEADXZ 0000000180041b70 f i libucrtd:output.obj
 0001:00040b80       ?narrow_null_string@?$output_processor@DV?$stream_output_adapter@D@__crt_stdio_output@@V?$standard_base@DV?$stream_output_adapter@D@__crt_stdio_output@@@2@@__crt_stdio_output@@CAPEADXZ 0000000180041b80 f i libucrtd:output.obj
 0001:00040b90       ?narrow_null_string@?$output_processor@DV?$string_output_adapter@D@__crt_stdio_output@@V?$format_validation_base@DV?$string_output_adapter@D@__crt_stdio_output@@@2@@__crt_stdio_output@@CAPEADXZ 0000000180041b90 f i libucrtd:output.obj
 0001:00040ba0       ?narrow_null_string@?$output_processor@DV?$string_output_adapter@D@__crt_stdio_output@@V?$positional_parameter_base@DV?$string_output_adapter@D@__crt_stdio_output@@@2@@__crt_stdio_output@@CAPEADXZ 0000000180041ba0 f i libucrtd:output.obj
 0001:00040bb0       ?narrow_null_string@?$output_processor@DV?$string_output_adapter@D@__crt_stdio_output@@V?$standard_base@DV?$string_output_adapter@D@__crt_stdio_output@@@2@@__crt_stdio_output@@CAPEADXZ 0000000180041bb0 f i libucrtd:output.obj
 0001:00040bc0       ?narrow_null_string@?$output_processor@_WV?$stream_output_adapter@_W@__crt_stdio_output@@V?$format_validation_base@_WV?$stream_output_adapter@_W@__crt_stdio_output@@@2@@__crt_stdio_output@@CAPEADXZ 0000000180041bc0 f i libucrtd:output.obj
 0001:00040bd0       ?narrow_null_string@?$output_processor@_WV?$stream_output_adapter@_W@__crt_stdio_output@@V?$positional_parameter_base@_WV?$stream_output_adapter@_W@__crt_stdio_output@@@2@@__crt_stdio_output@@CAPEADXZ 0000000180041bd0 f i libucrtd:output.obj
 0001:00040be0       ?narrow_null_string@?$output_processor@_WV?$stream_output_adapter@_W@__crt_stdio_output@@V?$standard_base@_WV?$stream_output_adapter@_W@__crt_stdio_output@@@2@@__crt_stdio_output@@CAPEADXZ 0000000180041be0 f i libucrtd:output.obj
 0001:00040bf0       ?narrow_null_string@?$output_processor@_WV?$string_output_adapter@_W@__crt_stdio_output@@V?$format_validation_base@_WV?$string_output_adapter@_W@__crt_stdio_output@@@2@@__crt_stdio_output@@CAPEADXZ 0000000180041bf0 f i libucrtd:output.obj
 0001:00040c00       ?narrow_null_string@?$output_processor@_WV?$string_output_adapter@_W@__crt_stdio_output@@V?$positional_parameter_base@_WV?$string_output_adapter@_W@__crt_stdio_output@@@2@@__crt_stdio_output@@CAPEADXZ 0000000180041c00 f i libucrtd:output.obj
 0001:00040c10       ?narrow_null_string@?$output_processor@_WV?$string_output_adapter@_W@__crt_stdio_output@@V?$standard_base@_WV?$string_output_adapter@_W@__crt_stdio_output@@@2@@__crt_stdio_output@@CAPEADXZ 0000000180041c10 f i libucrtd:output.obj
 0001:00040c20       ?parse_int_from_format_string@?$output_processor@DV?$stream_output_adapter@D@__crt_stdio_output@@V?$format_validation_base@DV?$stream_output_adapter@D@__crt_stdio_output@@@2@@__crt_stdio_output@@AEAA_NQEAH@Z 0000000180041c20 f i libucrtd:output.obj
 0001:00040d10       ?parse_int_from_format_string@?$output_processor@DV?$stream_output_adapter@D@__crt_stdio_output@@V?$positional_parameter_base@DV?$stream_output_adapter@D@__crt_stdio_output@@@2@@__crt_stdio_output@@AEAA_NQEAH@Z 0000000180041d10 f i libucrtd:output.obj
 0001:00040e00       ?parse_int_from_format_string@?$output_processor@DV?$stream_output_adapter@D@__crt_stdio_output@@V?$standard_base@DV?$stream_output_adapter@D@__crt_stdio_output@@@2@@__crt_stdio_output@@AEAA_NQEAH@Z 0000000180041e00 f i libucrtd:output.obj
 0001:00040ef0       ?parse_int_from_format_string@?$output_processor@DV?$string_output_adapter@D@__crt_stdio_output@@V?$format_validation_base@DV?$string_output_adapter@D@__crt_stdio_output@@@2@@__crt_stdio_output@@AEAA_NQEAH@Z 0000000180041ef0 f i libucrtd:output.obj
 0001:00040fe0       ?parse_int_from_format_string@?$output_processor@DV?$string_output_adapter@D@__crt_stdio_output@@V?$positional_parameter_base@DV?$string_output_adapter@D@__crt_stdio_output@@@2@@__crt_stdio_output@@AEAA_NQEAH@Z 0000000180041fe0 f i libucrtd:output.obj
 0001:000410d0       ?parse_int_from_format_string@?$output_processor@DV?$string_output_adapter@D@__crt_stdio_output@@V?$standard_base@DV?$string_output_adapter@D@__crt_stdio_output@@@2@@__crt_stdio_output@@AEAA_NQEAH@Z 00000001800420d0 f i libucrtd:output.obj
 0001:000411c0       ?parse_int_from_format_string@?$output_processor@_WV?$stream_output_adapter@_W@__crt_stdio_output@@V?$format_validation_base@_WV?$stream_output_adapter@_W@__crt_stdio_output@@@2@@__crt_stdio_output@@AEAA_NQEAH@Z 00000001800421c0 f i libucrtd:output.obj
 0001:000412b0       ?parse_int_from_format_string@?$output_processor@_WV?$stream_output_adapter@_W@__crt_stdio_output@@V?$positional_parameter_base@_WV?$stream_output_adapter@_W@__crt_stdio_output@@@2@@__crt_stdio_output@@AEAA_NQEAH@Z 00000001800422b0 f i libucrtd:output.obj
 0001:000413a0       ?parse_int_from_format_string@?$output_processor@_WV?$stream_output_adapter@_W@__crt_stdio_output@@V?$standard_base@_WV?$stream_output_adapter@_W@__crt_stdio_output@@@2@@__crt_stdio_output@@AEAA_NQEAH@Z 00000001800423a0 f i libucrtd:output.obj
 0001:00041490       ?parse_int_from_format_string@?$output_processor@_WV?$string_output_adapter@_W@__crt_stdio_output@@V?$format_validation_base@_WV?$string_output_adapter@_W@__crt_stdio_output@@@2@@__crt_stdio_output@@AEAA_NQEAH@Z 0000000180042490 f i libucrtd:output.obj
 0001:00041580       ?parse_int_from_format_string@?$output_processor@_WV?$string_output_adapter@_W@__crt_stdio_output@@V?$positional_parameter_base@_WV?$string_output_adapter@_W@__crt_stdio_output@@@2@@__crt_stdio_output@@AEAA_NQEAH@Z 0000000180042580 f i libucrtd:output.obj
 0001:00041670       ?parse_int_from_format_string@?$output_processor@_WV?$string_output_adapter@_W@__crt_stdio_output@@V?$standard_base@_WV?$string_output_adapter@_W@__crt_stdio_output@@@2@@__crt_stdio_output@@AEAA_NQEAH@Z 0000000180042670 f i libucrtd:output.obj
 0001:00041760       ?process@?$output_processor@DV?$stream_output_adapter@D@__crt_stdio_output@@V?$format_validation_base@DV?$stream_output_adapter@D@__crt_stdio_output@@@2@@__crt_stdio_output@@QEAAHXZ 0000000180042760 f i libucrtd:output.obj
 0001:00041ac0       ?process@?$output_processor@DV?$stream_output_adapter@D@__crt_stdio_output@@V?$positional_parameter_base@DV?$stream_output_adapter@D@__crt_stdio_output@@@2@@__crt_stdio_output@@QEAAHXZ 0000000180042ac0 f i libucrtd:output.obj
 0001:00041e20       ?process@?$output_processor@DV?$stream_output_adapter@D@__crt_stdio_output@@V?$standard_base@DV?$stream_output_adapter@D@__crt_stdio_output@@@2@@__crt_stdio_output@@QEAAHXZ 0000000180042e20 f i libucrtd:output.obj
 0001:00042180       ?process@?$output_processor@DV?$string_output_adapter@D@__crt_stdio_output@@V?$format_validation_base@DV?$string_output_adapter@D@__crt_stdio_output@@@2@@__crt_stdio_output@@QEAAHXZ 0000000180043180 f i libucrtd:output.obj
 0001:000424e0       ?process@?$output_processor@DV?$string_output_adapter@D@__crt_stdio_output@@V?$positional_parameter_base@DV?$string_output_adapter@D@__crt_stdio_output@@@2@@__crt_stdio_output@@QEAAHXZ 00000001800434e0 f i libucrtd:output.obj
 0001:00042840       ?process@?$output_processor@DV?$string_output_adapter@D@__crt_stdio_output@@V?$standard_base@DV?$string_output_adapter@D@__crt_stdio_output@@@2@@__crt_stdio_output@@QEAAHXZ 0000000180043840 f i libucrtd:output.obj
 0001:00042ba0       ?process@?$output_processor@_WV?$stream_output_adapter@_W@__crt_stdio_output@@V?$format_validation_base@_WV?$stream_output_adapter@_W@__crt_stdio_output@@@2@@__crt_stdio_output@@QEAAHXZ 0000000180043ba0 f i libucrtd:output.obj
 0001:00042f00       ?process@?$output_processor@_WV?$stream_output_adapter@_W@__crt_stdio_output@@V?$positional_parameter_base@_WV?$stream_output_adapter@_W@__crt_stdio_output@@@2@@__crt_stdio_output@@QEAAHXZ 0000000180043f00 f i libucrtd:output.obj
 0001:00043260       ?process@?$output_processor@_WV?$stream_output_adapter@_W@__crt_stdio_output@@V?$standard_base@_WV?$stream_output_adapter@_W@__crt_stdio_output@@@2@@__crt_stdio_output@@QEAAHXZ 0000000180044260 f i libucrtd:output.obj
 0001:000435c0       ?process@?$output_processor@_WV?$string_output_adapter@_W@__crt_stdio_output@@V?$format_validation_base@_WV?$string_output_adapter@_W@__crt_stdio_output@@@2@@__crt_stdio_output@@QEAAHXZ 00000001800445c0 f i libucrtd:output.obj
 0001:00043920       ?process@?$output_processor@_WV?$string_output_adapter@_W@__crt_stdio_output@@V?$positional_parameter_base@_WV?$string_output_adapter@_W@__crt_stdio_output@@@2@@__crt_stdio_output@@QEAAHXZ 0000000180044920 f i libucrtd:output.obj
 0001:00043c80       ?process@?$output_processor@_WV?$string_output_adapter@_W@__crt_stdio_output@@V?$standard_base@_WV?$string_output_adapter@_W@__crt_stdio_output@@@2@@__crt_stdio_output@@QEAAHXZ 0000000180044c80 f i libucrtd:output.obj
 0001:00043fe0       ?public_stream@__crt_stdio_stream@@QEBAPEAU_iobuf@@XZ 0000000180044fe0 f i libucrtd:output.obj
 0001:00043ff0       ?set_flag@?$output_processor@DV?$stream_output_adapter@D@__crt_stdio_output@@V?$format_validation_base@DV?$stream_output_adapter@D@__crt_stdio_output@@@2@@__crt_stdio_output@@AEAAXI@Z 0000000180044ff0 f i libucrtd:output.obj
 0001:00044010       ?set_flag@?$output_processor@DV?$stream_output_adapter@D@__crt_stdio_output@@V?$positional_parameter_base@DV?$stream_output_adapter@D@__crt_stdio_output@@@2@@__crt_stdio_output@@AEAAXI@Z 0000000180045010 f i libucrtd:output.obj
 0001:00044030       ?set_flag@?$output_processor@DV?$stream_output_adapter@D@__crt_stdio_output@@V?$standard_base@DV?$stream_output_adapter@D@__crt_stdio_output@@@2@@__crt_stdio_output@@AEAAXI@Z 0000000180045030 f i libucrtd:output.obj
 0001:00044050       ?set_flag@?$output_processor@DV?$string_output_adapter@D@__crt_stdio_output@@V?$format_validation_base@DV?$string_output_adapter@D@__crt_stdio_output@@@2@@__crt_stdio_output@@AEAAXI@Z 0000000180045050 f i libucrtd:output.obj
 0001:00044070       ?set_flag@?$output_processor@DV?$string_output_adapter@D@__crt_stdio_output@@V?$positional_parameter_base@DV?$string_output_adapter@D@__crt_stdio_output@@@2@@__crt_stdio_output@@AEAAXI@Z 0000000180045070 f i libucrtd:output.obj
 0001:00044090       ?set_flag@?$output_processor@DV?$string_output_adapter@D@__crt_stdio_output@@V?$standard_base@DV?$string_output_adapter@D@__crt_stdio_output@@@2@@__crt_stdio_output@@AEAAXI@Z 0000000180045090 f i libucrtd:output.obj
 0001:000440b0       ?set_flag@?$output_processor@_WV?$stream_output_adapter@_W@__crt_stdio_output@@V?$format_validation_base@_WV?$stream_output_adapter@_W@__crt_stdio_output@@@2@@__crt_stdio_output@@AEAAXI@Z 00000001800450b0 f i libucrtd:output.obj
 0001:000440d0       ?set_flag@?$output_processor@_WV?$stream_output_adapter@_W@__crt_stdio_output@@V?$positional_parameter_base@_WV?$stream_output_adapter@_W@__crt_stdio_output@@@2@@__crt_stdio_output@@AEAAXI@Z 00000001800450d0 f i libucrtd:output.obj
 0001:000440f0       ?set_flag@?$output_processor@_WV?$stream_output_adapter@_W@__crt_stdio_output@@V?$standard_base@_WV?$stream_output_adapter@_W@__crt_stdio_output@@@2@@__crt_stdio_output@@AEAAXI@Z 00000001800450f0 f i libucrtd:output.obj
 0001:00044110       ?set_flag@?$output_processor@_WV?$string_output_adapter@_W@__crt_stdio_output@@V?$format_validation_base@_WV?$string_output_adapter@_W@__crt_stdio_output@@@2@@__crt_stdio_output@@AEAAXI@Z 0000000180045110 f i libucrtd:output.obj
 0001:00044130       ?set_flag@?$output_processor@_WV?$string_output_adapter@_W@__crt_stdio_output@@V?$positional_parameter_base@_WV?$string_output_adapter@_W@__crt_stdio_output@@@2@@__crt_stdio_output@@AEAAXI@Z 0000000180045130 f i libucrtd:output.obj
 0001:00044150       ?set_flag@?$output_processor@_WV?$string_output_adapter@_W@__crt_stdio_output@@V?$standard_base@_WV?$string_output_adapter@_W@__crt_stdio_output@@@2@@__crt_stdio_output@@AEAAXI@Z 0000000180045150 f i libucrtd:output.obj
 0001:00044170       ?should_format@?$positional_parameter_base@DV?$stream_output_adapter@D@__crt_stdio_output@@@__crt_stdio_output@@IEAA_NXZ 0000000180045170 f i libucrtd:output.obj
 0001:000441b0       ?should_format@?$positional_parameter_base@DV?$string_output_adapter@D@__crt_stdio_output@@@__crt_stdio_output@@IEAA_NXZ 00000001800451b0 f i libucrtd:output.obj
 0001:000441f0       ?should_format@?$positional_parameter_base@_WV?$stream_output_adapter@_W@__crt_stdio_output@@@__crt_stdio_output@@IEAA_NXZ 00000001800451f0 f i libucrtd:output.obj
 0001:00044230       ?should_format@?$positional_parameter_base@_WV?$string_output_adapter@_W@__crt_stdio_output@@@__crt_stdio_output@@IEAA_NXZ 0000000180045230 f i libucrtd:output.obj
 0001:00044270       ?should_format@?$standard_base@DV?$stream_output_adapter@D@__crt_stdio_output@@@__crt_stdio_output@@IEAA_NXZ 0000000180045270 f i libucrtd:output.obj
 0001:00044280       ?should_format@?$standard_base@DV?$string_output_adapter@D@__crt_stdio_output@@@__crt_stdio_output@@IEAA_NXZ 0000000180045280 f i libucrtd:output.obj
 0001:00044290       ?should_format@?$standard_base@_WV?$stream_output_adapter@_W@__crt_stdio_output@@@__crt_stdio_output@@IEAA_NXZ 0000000180045290 f i libucrtd:output.obj
 0001:000442a0       ?should_format@?$standard_base@_WV?$string_output_adapter@_W@__crt_stdio_output@@@__crt_stdio_output@@IEAA_NXZ 00000001800452a0 f i libucrtd:output.obj
 0001:000442b0       ?should_skip_normal_state_processing@?$positional_parameter_base@DV?$stream_output_adapter@D@__crt_stdio_output@@@__crt_stdio_output@@IEAA_NXZ 00000001800452b0 f i libucrtd:output.obj
 0001:00044300       ?should_skip_normal_state_processing@?$positional_parameter_base@DV?$string_output_adapter@D@__crt_stdio_output@@@__crt_stdio_output@@IEAA_NXZ 0000000180045300 f i libucrtd:output.obj
 0001:00044350       ?should_skip_normal_state_processing@?$positional_parameter_base@_WV?$stream_output_adapter@_W@__crt_stdio_output@@@__crt_stdio_output@@IEAA_NXZ 0000000180045350 f i libucrtd:output.obj
 0001:000443a0       ?should_skip_normal_state_processing@?$positional_parameter_base@_WV?$string_output_adapter@_W@__crt_stdio_output@@@__crt_stdio_output@@IEAA_NXZ 00000001800453a0 f i libucrtd:output.obj
 0001:000443f0       ?should_skip_normal_state_processing@?$standard_base@DV?$stream_output_adapter@D@__crt_stdio_output@@@__crt_stdio_output@@IEAA_NXZ 00000001800453f0 f i libucrtd:output.obj
 0001:00044400       ?should_skip_normal_state_processing@?$standard_base@DV?$string_output_adapter@D@__crt_stdio_output@@@__crt_stdio_output@@IEAA_NXZ 0000000180045400 f i libucrtd:output.obj
 0001:00044410       ?should_skip_normal_state_processing@?$standard_base@_WV?$stream_output_adapter@_W@__crt_stdio_output@@@__crt_stdio_output@@IEAA_NXZ 0000000180045410 f i libucrtd:output.obj
 0001:00044420       ?should_skip_normal_state_processing@?$standard_base@_WV?$string_output_adapter@_W@__crt_stdio_output@@@__crt_stdio_output@@IEAA_NXZ 0000000180045420 f i libucrtd:output.obj
 0001:00044430       ?should_skip_type_state_output@?$positional_parameter_base@DV?$stream_output_adapter@D@__crt_stdio_output@@@__crt_stdio_output@@IEBA_NXZ 0000000180045430 f i libucrtd:output.obj
 0001:00044470       ?should_skip_type_state_output@?$positional_parameter_base@DV?$string_output_adapter@D@__crt_stdio_output@@@__crt_stdio_output@@IEBA_NXZ 0000000180045470 f i libucrtd:output.obj
 0001:000444b0       ?should_skip_type_state_output@?$positional_parameter_base@_WV?$stream_output_adapter@_W@__crt_stdio_output@@@__crt_stdio_output@@IEBA_NXZ 00000001800454b0 f i libucrtd:output.obj
 0001:000444f0       ?should_skip_type_state_output@?$positional_parameter_base@_WV?$string_output_adapter@_W@__crt_stdio_output@@@__crt_stdio_output@@IEBA_NXZ 00000001800454f0 f i libucrtd:output.obj
 0001:00044530       ?should_skip_type_state_output@?$standard_base@DV?$stream_output_adapter@D@__crt_stdio_output@@@__crt_stdio_output@@IEBA_NXZ 0000000180045530 f i libucrtd:output.obj
 0001:00044540       ?should_skip_type_state_output@?$standard_base@DV?$string_output_adapter@D@__crt_stdio_output@@@__crt_stdio_output@@IEBA_NXZ 0000000180045540 f i libucrtd:output.obj
 0001:00044550       ?should_skip_type_state_output@?$standard_base@_WV?$stream_output_adapter@_W@__crt_stdio_output@@@__crt_stdio_output@@IEBA_NXZ 0000000180045550 f i libucrtd:output.obj
 0001:00044560       ?should_skip_type_state_output@?$standard_base@_WV?$string_output_adapter@_W@__crt_stdio_output@@@__crt_stdio_output@@IEBA_NXZ 0000000180045560 f i libucrtd:output.obj
 0001:00044570       ?state_case_dot@?$output_processor@DV?$stream_output_adapter@D@__crt_stdio_output@@V?$format_validation_base@DV?$stream_output_adapter@D@__crt_stdio_output@@@2@@__crt_stdio_output@@AEAA_NXZ 0000000180045570 f i libucrtd:output.obj
 0001:00044590       ?state_case_dot@?$output_processor@DV?$stream_output_adapter@D@__crt_stdio_output@@V?$positional_parameter_base@DV?$stream_output_adapter@D@__crt_stdio_output@@@2@@__crt_stdio_output@@AEAA_NXZ 0000000180045590 f i libucrtd:output.obj
 0001:000445b0       ?state_case_dot@?$output_processor@DV?$stream_output_adapter@D@__crt_stdio_output@@V?$standard_base@DV?$stream_output_adapter@D@__crt_stdio_output@@@2@@__crt_stdio_output@@AEAA_NXZ 00000001800455b0 f i libucrtd:output.obj
 0001:000445d0       ?state_case_dot@?$output_processor@DV?$string_output_adapter@D@__crt_stdio_output@@V?$format_validation_base@DV?$string_output_adapter@D@__crt_stdio_output@@@2@@__crt_stdio_output@@AEAA_NXZ 00000001800455d0 f i libucrtd:output.obj
 0001:000445f0       ?state_case_dot@?$output_processor@DV?$string_output_adapter@D@__crt_stdio_output@@V?$positional_parameter_base@DV?$string_output_adapter@D@__crt_stdio_output@@@2@@__crt_stdio_output@@AEAA_NXZ 00000001800455f0 f i libucrtd:output.obj
 0001:00044610       ?state_case_dot@?$output_processor@DV?$string_output_adapter@D@__crt_stdio_output@@V?$standard_base@DV?$string_output_adapter@D@__crt_stdio_output@@@2@@__crt_stdio_output@@AEAA_NXZ 0000000180045610 f i libucrtd:output.obj
 0001:00044630       ?state_case_dot@?$output_processor@_WV?$stream_output_adapter@_W@__crt_stdio_output@@V?$format_validation_base@_WV?$stream_output_adapter@_W@__crt_stdio_output@@@2@@__crt_stdio_output@@AEAA_NXZ 0000000180045630 f i libucrtd:output.obj
 0001:00044650       ?state_case_dot@?$output_processor@_WV?$stream_output_adapter@_W@__crt_stdio_output@@V?$positional_parameter_base@_WV?$stream_output_adapter@_W@__crt_stdio_output@@@2@@__crt_stdio_output@@AEAA_NXZ 0000000180045650 f i libucrtd:output.obj
 0001:00044670       ?state_case_dot@?$output_processor@_WV?$stream_output_adapter@_W@__crt_stdio_output@@V?$standard_base@_WV?$stream_output_adapter@_W@__crt_stdio_output@@@2@@__crt_stdio_output@@AEAA_NXZ 0000000180045670 f i libucrtd:output.obj
 0001:00044690       ?state_case_dot@?$output_processor@_WV?$string_output_adapter@_W@__crt_stdio_output@@V?$format_validation_base@_WV?$string_output_adapter@_W@__crt_stdio_output@@@2@@__crt_stdio_output@@AEAA_NXZ 0000000180045690 f i libucrtd:output.obj
 0001:000446b0       ?state_case_dot@?$output_processor@_WV?$string_output_adapter@_W@__crt_stdio_output@@V?$positional_parameter_base@_WV?$string_output_adapter@_W@__crt_stdio_output@@@2@@__crt_stdio_output@@AEAA_NXZ 00000001800456b0 f i libucrtd:output.obj
 0001:000446d0       ?state_case_dot@?$output_processor@_WV?$string_output_adapter@_W@__crt_stdio_output@@V?$standard_base@_WV?$string_output_adapter@_W@__crt_stdio_output@@@2@@__crt_stdio_output@@AEAA_NXZ 00000001800456d0 f i libucrtd:output.obj
 0001:000446f0       ?state_case_flag@?$output_processor@DV?$stream_output_adapter@D@__crt_stdio_output@@V?$format_validation_base@DV?$stream_output_adapter@D@__crt_stdio_output@@@2@@__crt_stdio_output@@AEAA_NXZ 00000001800456f0 f i libucrtd:output.obj
 0001:00044790       ?state_case_flag@?$output_processor@DV?$stream_output_adapter@D@__crt_stdio_output@@V?$positional_parameter_base@DV?$stream_output_adapter@D@__crt_stdio_output@@@2@@__crt_stdio_output@@AEAA_NXZ 0000000180045790 f i libucrtd:output.obj
 0001:00044830       ?state_case_flag@?$output_processor@DV?$stream_output_adapter@D@__crt_stdio_output@@V?$standard_base@DV?$stream_output_adapter@D@__crt_stdio_output@@@2@@__crt_stdio_output@@AEAA_NXZ 0000000180045830 f i libucrtd:output.obj
 0001:000448d0       ?state_case_flag@?$output_processor@DV?$string_output_adapter@D@__crt_stdio_output@@V?$format_validation_base@DV?$string_output_adapter@D@__crt_stdio_output@@@2@@__crt_stdio_output@@AEAA_NXZ 00000001800458d0 f i libucrtd:output.obj
 0001:00044970       ?state_case_flag@?$output_processor@DV?$string_output_adapter@D@__crt_stdio_output@@V?$positional_parameter_base@DV?$string_output_adapter@D@__crt_stdio_output@@@2@@__crt_stdio_output@@AEAA_NXZ 0000000180045970 f i libucrtd:output.obj
 0001:00044a10       ?state_case_flag@?$output_processor@DV?$string_output_adapter@D@__crt_stdio_output@@V?$standard_base@DV?$string_output_adapter@D@__crt_stdio_output@@@2@@__crt_stdio_output@@AEAA_NXZ 0000000180045a10 f i libucrtd:output.obj
 0001:00044ab0       ?state_case_flag@?$output_processor@_WV?$stream_output_adapter@_W@__crt_stdio_output@@V?$format_validation_base@_WV?$stream_output_adapter@_W@__crt_stdio_output@@@2@@__crt_stdio_output@@AEAA_NXZ 0000000180045ab0 f i libucrtd:output.obj
 0001:00044b50       ?state_case_flag@?$output_processor@_WV?$stream_output_adapter@_W@__crt_stdio_output@@V?$positional_parameter_base@_WV?$stream_output_adapter@_W@__crt_stdio_output@@@2@@__crt_stdio_output@@AEAA_NXZ 0000000180045b50 f i libucrtd:output.obj
 0001:00044bf0       ?state_case_flag@?$output_processor@_WV?$stream_output_adapter@_W@__crt_stdio_output@@V?$standard_base@_WV?$stream_output_adapter@_W@__crt_stdio_output@@@2@@__crt_stdio_output@@AEAA_NXZ 0000000180045bf0 f i libucrtd:output.obj
 0001:00044c90       ?state_case_flag@?$output_processor@_WV?$string_output_adapter@_W@__crt_stdio_output@@V?$format_validation_base@_WV?$string_output_adapter@_W@__crt_stdio_output@@@2@@__crt_stdio_output@@AEAA_NXZ 0000000180045c90 f i libucrtd:output.obj
 0001:00044d30       ?state_case_flag@?$output_processor@_WV?$string_output_adapter@_W@__crt_stdio_output@@V?$positional_parameter_base@_WV?$string_output_adapter@_W@__crt_stdio_output@@@2@@__crt_stdio_output@@AEAA_NXZ 0000000180045d30 f i libucrtd:output.obj
 0001:00044dd0       ?state_case_flag@?$output_processor@_WV?$string_output_adapter@_W@__crt_stdio_output@@V?$standard_base@_WV?$string_output_adapter@_W@__crt_stdio_output@@@2@@__crt_stdio_output@@AEAA_NXZ 0000000180045dd0 f i libucrtd:output.obj
 0001:00044e70       ?state_case_normal@?$output_processor@DV?$stream_output_adapter@D@__crt_stdio_output@@V?$format_validation_base@DV?$stream_output_adapter@D@__crt_stdio_output@@@2@@__crt_stdio_output@@AEAA_NXZ 0000000180045e70 f i libucrtd:output.obj
 0001:00044f50       ?state_case_normal@?$output_processor@DV?$stream_output_adapter@D@__crt_stdio_output@@V?$positional_parameter_base@DV?$stream_output_adapter@D@__crt_stdio_output@@@2@@__crt_stdio_output@@AEAA_NXZ 0000000180045f50 f i libucrtd:output.obj
 0001:00045030       ?state_case_normal@?$output_processor@DV?$stream_output_adapter@D@__crt_stdio_output@@V?$standard_base@DV?$stream_output_adapter@D@__crt_stdio_output@@@2@@__crt_stdio_output@@AEAA_NXZ 0000000180046030 f i libucrtd:output.obj
 0001:00045110       ?state_case_normal@?$output_processor@DV?$string_output_adapter@D@__crt_stdio_output@@V?$format_validation_base@DV?$string_output_adapter@D@__crt_stdio_output@@@2@@__crt_stdio_output@@AEAA_NXZ 0000000180046110 f i libucrtd:output.obj
 0001:000451f0       ?state_case_normal@?$output_processor@DV?$string_output_adapter@D@__crt_stdio_output@@V?$positional_parameter_base@DV?$string_output_adapter@D@__crt_stdio_output@@@2@@__crt_stdio_output@@AEAA_NXZ 00000001800461f0 f i libucrtd:output.obj
 0001:000452d0       ?state_case_normal@?$output_processor@DV?$string_output_adapter@D@__crt_stdio_output@@V?$standard_base@DV?$string_output_adapter@D@__crt_stdio_output@@@2@@__crt_stdio_output@@AEAA_NXZ 00000001800462d0 f i libucrtd:output.obj
 0001:000453b0       ?state_case_normal@?$output_processor@_WV?$stream_output_adapter@_W@__crt_stdio_output@@V?$format_validation_base@_WV?$stream_output_adapter@_W@__crt_stdio_output@@@2@@__crt_stdio_output@@AEAA_NXZ 00000001800463b0 f i libucrtd:output.obj
 0001:00045490       ?state_case_normal@?$output_processor@_WV?$stream_output_adapter@_W@__crt_stdio_output@@V?$positional_parameter_base@_WV?$stream_output_adapter@_W@__crt_stdio_output@@@2@@__crt_stdio_output@@AEAA_NXZ 0000000180046490 f i libucrtd:output.obj
 0001:00045570       ?state_case_normal@?$output_processor@_WV?$stream_output_adapter@_W@__crt_stdio_output@@V?$standard_base@_WV?$stream_output_adapter@_W@__crt_stdio_output@@@2@@__crt_stdio_output@@AEAA_NXZ 0000000180046570 f i libucrtd:output.obj
 0001:00045650       ?state_case_normal@?$output_processor@_WV?$string_output_adapter@_W@__crt_stdio_output@@V?$format_validation_base@_WV?$string_output_adapter@_W@__crt_stdio_output@@@2@@__crt_stdio_output@@AEAA_NXZ 0000000180046650 f i libucrtd:output.obj
 0001:00045730       ?state_case_normal@?$output_processor@_WV?$string_output_adapter@_W@__crt_stdio_output@@V?$positional_parameter_base@_WV?$string_output_adapter@_W@__crt_stdio_output@@@2@@__crt_stdio_output@@AEAA_NXZ 0000000180046730 f i libucrtd:output.obj
 0001:00045810       ?state_case_normal@?$output_processor@_WV?$string_output_adapter@_W@__crt_stdio_output@@V?$standard_base@_WV?$string_output_adapter@_W@__crt_stdio_output@@@2@@__crt_stdio_output@@AEAA_NXZ 0000000180046810 f i libucrtd:output.obj
 0001:000458f0       ?state_case_normal_common@?$output_processor@DV?$stream_output_adapter@D@__crt_stdio_output@@V?$format_validation_base@DV?$stream_output_adapter@D@__crt_stdio_output@@@2@@__crt_stdio_output@@AEAA_NXZ 00000001800468f0 f i libucrtd:output.obj
 0001:00045940       ?state_case_normal_common@?$output_processor@DV?$stream_output_adapter@D@__crt_stdio_output@@V?$positional_parameter_base@DV?$stream_output_adapter@D@__crt_stdio_output@@@2@@__crt_stdio_output@@AEAA_NXZ 0000000180046940 f i libucrtd:output.obj
 0001:00045990       ?state_case_normal_common@?$output_processor@DV?$stream_output_adapter@D@__crt_stdio_output@@V?$standard_base@DV?$stream_output_adapter@D@__crt_stdio_output@@@2@@__crt_stdio_output@@AEAA_NXZ 0000000180046990 f i libucrtd:output.obj
 0001:000459e0       ?state_case_normal_common@?$output_processor@DV?$string_output_adapter@D@__crt_stdio_output@@V?$format_validation_base@DV?$string_output_adapter@D@__crt_stdio_output@@@2@@__crt_stdio_output@@AEAA_NXZ 00000001800469e0 f i libucrtd:output.obj
 0001:00045a30       ?state_case_normal_common@?$output_processor@DV?$string_output_adapter@D@__crt_stdio_output@@V?$positional_parameter_base@DV?$string_output_adapter@D@__crt_stdio_output@@@2@@__crt_stdio_output@@AEAA_NXZ 0000000180046a30 f i libucrtd:output.obj
 0001:00045a80       ?state_case_normal_common@?$output_processor@DV?$string_output_adapter@D@__crt_stdio_output@@V?$standard_base@DV?$string_output_adapter@D@__crt_stdio_output@@@2@@__crt_stdio_output@@AEAA_NXZ 0000000180046a80 f i libucrtd:output.obj
 0001:00045ad0       ?state_case_normal_common@?$output_processor@_WV?$stream_output_adapter@_W@__crt_stdio_output@@V?$format_validation_base@_WV?$stream_output_adapter@_W@__crt_stdio_output@@@2@@__crt_stdio_output@@AEAA_NXZ 0000000180046ad0 f i libucrtd:output.obj
 0001:00045b20       ?state_case_normal_common@?$output_processor@_WV?$stream_output_adapter@_W@__crt_stdio_output@@V?$positional_parameter_base@_WV?$stream_output_adapter@_W@__crt_stdio_output@@@2@@__crt_stdio_output@@AEAA_NXZ 0000000180046b20 f i libucrtd:output.obj
 0001:00045b70       ?state_case_normal_common@?$output_processor@_WV?$stream_output_adapter@_W@__crt_stdio_output@@V?$standard_base@_WV?$stream_output_adapter@_W@__crt_stdio_output@@@2@@__crt_stdio_output@@AEAA_NXZ 0000000180046b70 f i libucrtd:output.obj
 0001:00045bc0       ?state_case_normal_common@?$output_processor@_WV?$string_output_adapter@_W@__crt_stdio_output@@V?$format_validation_base@_WV?$string_output_adapter@_W@__crt_stdio_output@@@2@@__crt_stdio_output@@AEAA_NXZ 0000000180046bc0 f i libucrtd:output.obj
 0001:00045c10       ?state_case_normal_common@?$output_processor@_WV?$string_output_adapter@_W@__crt_stdio_output@@V?$positional_parameter_base@_WV?$string_output_adapter@_W@__crt_stdio_output@@@2@@__crt_stdio_output@@AEAA_NXZ 0000000180046c10 f i libucrtd:output.obj
 0001:00045c60       ?state_case_normal_common@?$output_processor@_WV?$string_output_adapter@_W@__crt_stdio_output@@V?$standard_base@_WV?$string_output_adapter@_W@__crt_stdio_output@@@2@@__crt_stdio_output@@AEAA_NXZ 0000000180046c60 f i libucrtd:output.obj
 0001:00045cb0       ?state_case_normal_tchar@?$output_processor@DV?$stream_output_adapter@D@__crt_stdio_output@@V?$format_validation_base@DV?$stream_output_adapter@D@__crt_stdio_output@@@2@@__crt_stdio_output@@AEAA_ND@Z 0000000180046cb0 f i libucrtd:output.obj
 0001:00045df0       ?state_case_normal_tchar@?$output_processor@DV?$stream_output_adapter@D@__crt_stdio_output@@V?$positional_parameter_base@DV?$stream_output_adapter@D@__crt_stdio_output@@@2@@__crt_stdio_output@@AEAA_ND@Z 0000000180046df0 f i libucrtd:output.obj
 0001:00045f30       ?state_case_normal_tchar@?$output_processor@DV?$stream_output_adapter@D@__crt_stdio_output@@V?$standard_base@DV?$stream_output_adapter@D@__crt_stdio_output@@@2@@__crt_stdio_output@@AEAA_ND@Z 0000000180046f30 f i libucrtd:output.obj
 0001:00046070       ?state_case_normal_tchar@?$output_processor@DV?$string_output_adapter@D@__crt_stdio_output@@V?$format_validation_base@DV?$string_output_adapter@D@__crt_stdio_output@@@2@@__crt_stdio_output@@AEAA_ND@Z 0000000180047070 f i libucrtd:output.obj
 0001:000461b0       ?state_case_normal_tchar@?$output_processor@DV?$string_output_adapter@D@__crt_stdio_output@@V?$positional_parameter_base@DV?$string_output_adapter@D@__crt_stdio_output@@@2@@__crt_stdio_output@@AEAA_ND@Z 00000001800471b0 f i libucrtd:output.obj
 0001:000462f0       ?state_case_normal_tchar@?$output_processor@DV?$string_output_adapter@D@__crt_stdio_output@@V?$standard_base@DV?$string_output_adapter@D@__crt_stdio_output@@@2@@__crt_stdio_output@@AEAA_ND@Z 00000001800472f0 f i libucrtd:output.obj
 0001:00046430       ?state_case_normal_tchar@?$output_processor@_WV?$stream_output_adapter@_W@__crt_stdio_output@@V?$format_validation_base@_WV?$stream_output_adapter@_W@__crt_stdio_output@@@2@@__crt_stdio_output@@AEAA_N_W@Z 0000000180047430 f i libucrtd:output.obj
 0001:00046450       ?state_case_normal_tchar@?$output_processor@_WV?$stream_output_adapter@_W@__crt_stdio_output@@V?$positional_parameter_base@_WV?$stream_output_adapter@_W@__crt_stdio_output@@@2@@__crt_stdio_output@@AEAA_N_W@Z 0000000180047450 f i libucrtd:output.obj
 0001:00046470       ?state_case_normal_tchar@?$output_processor@_WV?$stream_output_adapter@_W@__crt_stdio_output@@V?$standard_base@_WV?$stream_output_adapter@_W@__crt_stdio_output@@@2@@__crt_stdio_output@@AEAA_N_W@Z 0000000180047470 f i libucrtd:output.obj
 0001:00046490       ?state_case_normal_tchar@?$output_processor@_WV?$string_output_adapter@_W@__crt_stdio_output@@V?$format_validation_base@_WV?$string_output_adapter@_W@__crt_stdio_output@@@2@@__crt_stdio_output@@AEAA_N_W@Z 0000000180047490 f i libucrtd:output.obj
 0001:000464b0       ?state_case_normal_tchar@?$output_processor@_WV?$string_output_adapter@_W@__crt_stdio_output@@V?$positional_parameter_base@_WV?$string_output_adapter@_W@__crt_stdio_output@@@2@@__crt_stdio_output@@AEAA_N_W@Z 00000001800474b0 f i libucrtd:output.obj
 0001:000464d0       ?state_case_normal_tchar@?$output_processor@_WV?$string_output_adapter@_W@__crt_stdio_output@@V?$standard_base@_WV?$string_output_adapter@_W@__crt_stdio_output@@@2@@__crt_stdio_output@@AEAA_N_W@Z 00000001800474d0 f i libucrtd:output.obj
 0001:000464f0       ?state_case_percent@?$output_processor@DV?$stream_output_adapter@D@__crt_stdio_output@@V?$format_validation_base@DV?$stream_output_adapter@D@__crt_stdio_output@@@2@@__crt_stdio_output@@AEAA_NXZ 00000001800474f0 f i libucrtd:output.obj
 0001:00046540       ?state_case_percent@?$output_processor@DV?$stream_output_adapter@D@__crt_stdio_output@@V?$positional_parameter_base@DV?$stream_output_adapter@D@__crt_stdio_output@@@2@@__crt_stdio_output@@AEAA_NXZ 0000000180047540 f i libucrtd:output.obj
 0001:00046590       ?state_case_percent@?$output_processor@DV?$stream_output_adapter@D@__crt_stdio_output@@V?$standard_base@DV?$stream_output_adapter@D@__crt_stdio_output@@@2@@__crt_stdio_output@@AEAA_NXZ 0000000180047590 f i libucrtd:output.obj
 0001:000465e0       ?state_case_percent@?$output_processor@DV?$string_output_adapter@D@__crt_stdio_output@@V?$format_validation_base@DV?$string_output_adapter@D@__crt_stdio_output@@@2@@__crt_stdio_output@@AEAA_NXZ 00000001800475e0 f i libucrtd:output.obj
 0001:00046630       ?state_case_percent@?$output_processor@DV?$string_output_adapter@D@__crt_stdio_output@@V?$positional_parameter_base@DV?$string_output_adapter@D@__crt_stdio_output@@@2@@__crt_stdio_output@@AEAA_NXZ 0000000180047630 f i libucrtd:output.obj
 0001:00046680       ?state_case_percent@?$output_processor@DV?$string_output_adapter@D@__crt_stdio_output@@V?$standard_base@DV?$string_output_adapter@D@__crt_stdio_output@@@2@@__crt_stdio_output@@AEAA_NXZ 0000000180047680 f i libucrtd:output.obj
 0001:000466d0       ?state_case_percent@?$output_processor@_WV?$stream_output_adapter@_W@__crt_stdio_output@@V?$format_validation_base@_WV?$stream_output_adapter@_W@__crt_stdio_output@@@2@@__crt_stdio_output@@AEAA_NXZ 00000001800476d0 f i libucrtd:output.obj
 0001:00046720       ?state_case_percent@?$output_processor@_WV?$stream_output_adapter@_W@__crt_stdio_output@@V?$positional_parameter_base@_WV?$stream_output_adapter@_W@__crt_stdio_output@@@2@@__crt_stdio_output@@AEAA_NXZ 0000000180047720 f i libucrtd:output.obj
 0001:00046770       ?state_case_percent@?$output_processor@_WV?$stream_output_adapter@_W@__crt_stdio_output@@V?$standard_base@_WV?$stream_output_adapter@_W@__crt_stdio_output@@@2@@__crt_stdio_output@@AEAA_NXZ 0000000180047770 f i libucrtd:output.obj
 0001:000467c0       ?state_case_percent@?$output_processor@_WV?$string_output_adapter@_W@__crt_stdio_output@@V?$format_validation_base@_WV?$string_output_adapter@_W@__crt_stdio_output@@@2@@__crt_stdio_output@@AEAA_NXZ 00000001800477c0 f i libucrtd:output.obj
 0001:00046810       ?state_case_percent@?$output_processor@_WV?$string_output_adapter@_W@__crt_stdio_output@@V?$positional_parameter_base@_WV?$string_output_adapter@_W@__crt_stdio_output@@@2@@__crt_stdio_output@@AEAA_NXZ 0000000180047810 f i libucrtd:output.obj
 0001:00046860       ?state_case_percent@?$output_processor@_WV?$string_output_adapter@_W@__crt_stdio_output@@V?$standard_base@_WV?$string_output_adapter@_W@__crt_stdio_output@@@2@@__crt_stdio_output@@AEAA_NXZ 0000000180047860 f i libucrtd:output.obj
 0001:000468b0       ?state_case_precision@?$output_processor@DV?$stream_output_adapter@D@__crt_stdio_output@@V?$format_validation_base@DV?$stream_output_adapter@D@__crt_stdio_output@@@2@@__crt_stdio_output@@AEAA_NXZ 00000001800478b0 f i libucrtd:output.obj
 0001:00046930       ?state_case_precision@?$output_processor@DV?$stream_output_adapter@D@__crt_stdio_output@@V?$positional_parameter_base@DV?$stream_output_adapter@D@__crt_stdio_output@@@2@@__crt_stdio_output@@AEAA_NXZ 0000000180047930 f i libucrtd:output.obj
 0001:000469b0       ?state_case_precision@?$output_processor@DV?$stream_output_adapter@D@__crt_stdio_output@@V?$standard_base@DV?$stream_output_adapter@D@__crt_stdio_output@@@2@@__crt_stdio_output@@AEAA_NXZ 00000001800479b0 f i libucrtd:output.obj
 0001:00046a30       ?state_case_precision@?$output_processor@DV?$string_output_adapter@D@__crt_stdio_output@@V?$format_validation_base@DV?$string_output_adapter@D@__crt_stdio_output@@@2@@__crt_stdio_output@@AEAA_NXZ 0000000180047a30 f i libucrtd:output.obj
 0001:00046ab0       ?state_case_precision@?$output_processor@DV?$string_output_adapter@D@__crt_stdio_output@@V?$positional_parameter_base@DV?$string_output_adapter@D@__crt_stdio_output@@@2@@__crt_stdio_output@@AEAA_NXZ 0000000180047ab0 f i libucrtd:output.obj
 0001:00046b30       ?state_case_precision@?$output_processor@DV?$string_output_adapter@D@__crt_stdio_output@@V?$standard_base@DV?$string_output_adapter@D@__crt_stdio_output@@@2@@__crt_stdio_output@@AEAA_NXZ 0000000180047b30 f i libucrtd:output.obj
 0001:00046bb0       ?state_case_precision@?$output_processor@_WV?$stream_output_adapter@_W@__crt_stdio_output@@V?$format_validation_base@_WV?$stream_output_adapter@_W@__crt_stdio_output@@@2@@__crt_stdio_output@@AEAA_NXZ 0000000180047bb0 f i libucrtd:output.obj
 0001:00046c30       ?state_case_precision@?$output_processor@_WV?$stream_output_adapter@_W@__crt_stdio_output@@V?$positional_parameter_base@_WV?$stream_output_adapter@_W@__crt_stdio_output@@@2@@__crt_stdio_output@@AEAA_NXZ 0000000180047c30 f i libucrtd:output.obj
 0001:00046cb0       ?state_case_precision@?$output_processor@_WV?$stream_output_adapter@_W@__crt_stdio_output@@V?$standard_base@_WV?$stream_output_adapter@_W@__crt_stdio_output@@@2@@__crt_stdio_output@@AEAA_NXZ 0000000180047cb0 f i libucrtd:output.obj
 0001:00046d30       ?state_case_precision@?$output_processor@_WV?$string_output_adapter@_W@__crt_stdio_output@@V?$format_validation_base@_WV?$string_output_adapter@_W@__crt_stdio_output@@@2@@__crt_stdio_output@@AEAA_NXZ 0000000180047d30 f i libucrtd:output.obj
 0001:00046db0       ?state_case_precision@?$output_processor@_WV?$string_output_adapter@_W@__crt_stdio_output@@V?$positional_parameter_base@_WV?$string_output_adapter@_W@__crt_stdio_output@@@2@@__crt_stdio_output@@AEAA_NXZ 0000000180047db0 f i libucrtd:output.obj
 0001:00046e30       ?state_case_precision@?$output_processor@_WV?$string_output_adapter@_W@__crt_stdio_output@@V?$standard_base@_WV?$string_output_adapter@_W@__crt_stdio_output@@@2@@__crt_stdio_output@@AEAA_NXZ 0000000180047e30 f i libucrtd:output.obj
 0001:00046eb0       ?state_case_size@?$output_processor@DV?$stream_output_adapter@D@__crt_stdio_output@@V?$format_validation_base@DV?$stream_output_adapter@D@__crt_stdio_output@@@2@@__crt_stdio_output@@AEAA_NXZ 0000000180047eb0 f i libucrtd:output.obj
 0001:00047330       ?state_case_size@?$output_processor@DV?$stream_output_adapter@D@__crt_stdio_output@@V?$positional_parameter_base@DV?$stream_output_adapter@D@__crt_stdio_output@@@2@@__crt_stdio_output@@AEAA_NXZ 0000000180048330 f i libucrtd:output.obj
 0001:000477b0       ?state_case_size@?$output_processor@DV?$stream_output_adapter@D@__crt_stdio_output@@V?$standard_base@DV?$stream_output_adapter@D@__crt_stdio_output@@@2@@__crt_stdio_output@@AEAA_NXZ 00000001800487b0 f i libucrtd:output.obj
 0001:00047c30       ?state_case_size@?$output_processor@DV?$string_output_adapter@D@__crt_stdio_output@@V?$format_validation_base@DV?$string_output_adapter@D@__crt_stdio_output@@@2@@__crt_stdio_output@@AEAA_NXZ 0000000180048c30 f i libucrtd:output.obj
 0001:000480b0       ?state_case_size@?$output_processor@DV?$string_output_adapter@D@__crt_stdio_output@@V?$positional_parameter_base@DV?$string_output_adapter@D@__crt_stdio_output@@@2@@__crt_stdio_output@@AEAA_NXZ 00000001800490b0 f i libucrtd:output.obj
 0001:00048530       ?state_case_size@?$output_processor@DV?$string_output_adapter@D@__crt_stdio_output@@V?$standard_base@DV?$string_output_adapter@D@__crt_stdio_output@@@2@@__crt_stdio_output@@AEAA_NXZ 0000000180049530 f i libucrtd:output.obj
 0001:000489b0       ?state_case_size@?$output_processor@_WV?$stream_output_adapter@_W@__crt_stdio_output@@V?$format_validation_base@_WV?$stream_output_adapter@_W@__crt_stdio_output@@@2@@__crt_stdio_output@@AEAA_NXZ 00000001800499b0 f i libucrtd:output.obj
 0001:00048e30       ?state_case_size@?$output_processor@_WV?$stream_output_adapter@_W@__crt_stdio_output@@V?$positional_parameter_base@_WV?$stream_output_adapter@_W@__crt_stdio_output@@@2@@__crt_stdio_output@@AEAA_NXZ 0000000180049e30 f i libucrtd:output.obj
 0001:000492b0       ?state_case_size@?$output_processor@_WV?$stream_output_adapter@_W@__crt_stdio_output@@V?$standard_base@_WV?$stream_output_adapter@_W@__crt_stdio_output@@@2@@__crt_stdio_output@@AEAA_NXZ 000000018004a2b0 f i libucrtd:output.obj
 0001:00049730       ?state_case_size@?$output_processor@_WV?$string_output_adapter@_W@__crt_stdio_output@@V?$format_validation_base@_WV?$string_output_adapter@_W@__crt_stdio_output@@@2@@__crt_stdio_output@@AEAA_NXZ 000000018004a730 f i libucrtd:output.obj
 0001:00049bb0       ?state_case_size@?$output_processor@_WV?$string_output_adapter@_W@__crt_stdio_output@@V?$positional_parameter_base@_WV?$string_output_adapter@_W@__crt_stdio_output@@@2@@__crt_stdio_output@@AEAA_NXZ 000000018004abb0 f i libucrtd:output.obj
 0001:0004a030       ?state_case_size@?$output_processor@_WV?$string_output_adapter@_W@__crt_stdio_output@@V?$standard_base@_WV?$string_output_adapter@_W@__crt_stdio_output@@@2@@__crt_stdio_output@@AEAA_NXZ 000000018004b030 f i libucrtd:output.obj
 0001:0004a4b0       ?state_case_type@?$output_processor@DV?$stream_output_adapter@D@__crt_stdio_output@@V?$format_validation_base@DV?$stream_output_adapter@D@__crt_stdio_output@@@2@@__crt_stdio_output@@AEAA_NXZ 000000018004b4b0 f i libucrtd:output.obj
 0001:0004a950       ?state_case_type@?$output_processor@DV?$stream_output_adapter@D@__crt_stdio_output@@V?$positional_parameter_base@DV?$stream_output_adapter@D@__crt_stdio_output@@@2@@__crt_stdio_output@@AEAA_NXZ 000000018004b950 f i libucrtd:output.obj
 0001:0004adf0       ?state_case_type@?$output_processor@DV?$stream_output_adapter@D@__crt_stdio_output@@V?$standard_base@DV?$stream_output_adapter@D@__crt_stdio_output@@@2@@__crt_stdio_output@@AEAA_NXZ 000000018004bdf0 f i libucrtd:output.obj
 0001:0004b290       ?state_case_type@?$output_processor@DV?$string_output_adapter@D@__crt_stdio_output@@V?$format_validation_base@DV?$string_output_adapter@D@__crt_stdio_output@@@2@@__crt_stdio_output@@AEAA_NXZ 000000018004c290 f i libucrtd:output.obj
 0001:0004b730       ?state_case_type@?$output_processor@DV?$string_output_adapter@D@__crt_stdio_output@@V?$positional_parameter_base@DV?$string_output_adapter@D@__crt_stdio_output@@@2@@__crt_stdio_output@@AEAA_NXZ 000000018004c730 f i libucrtd:output.obj
 0001:0004bbd0       ?state_case_type@?$output_processor@DV?$string_output_adapter@D@__crt_stdio_output@@V?$standard_base@DV?$string_output_adapter@D@__crt_stdio_output@@@2@@__crt_stdio_output@@AEAA_NXZ 000000018004cbd0 f i libucrtd:output.obj
 0001:0004c070       ?state_case_type@?$output_processor@_WV?$stream_output_adapter@_W@__crt_stdio_output@@V?$format_validation_base@_WV?$stream_output_adapter@_W@__crt_stdio_output@@@2@@__crt_stdio_output@@AEAA_NXZ 000000018004d070 f i libucrtd:output.obj
 0001:0004c5d0       ?state_case_type@?$output_processor@_WV?$stream_output_adapter@_W@__crt_stdio_output@@V?$positional_parameter_base@_WV?$stream_output_adapter@_W@__crt_stdio_output@@@2@@__crt_stdio_output@@AEAA_NXZ 000000018004d5d0 f i libucrtd:output.obj
 0001:0004cb30       ?state_case_type@?$output_processor@_WV?$stream_output_adapter@_W@__crt_stdio_output@@V?$standard_base@_WV?$stream_output_adapter@_W@__crt_stdio_output@@@2@@__crt_stdio_output@@AEAA_NXZ 000000018004db30 f i libucrtd:output.obj
 0001:0004d090       ?state_case_type@?$output_processor@_WV?$string_output_adapter@_W@__crt_stdio_output@@V?$format_validation_base@_WV?$string_output_adapter@_W@__crt_stdio_output@@@2@@__crt_stdio_output@@AEAA_NXZ 000000018004e090 f i libucrtd:output.obj
 0001:0004d5f0       ?state_case_type@?$output_processor@_WV?$string_output_adapter@_W@__crt_stdio_output@@V?$positional_parameter_base@_WV?$string_output_adapter@_W@__crt_stdio_output@@@2@@__crt_stdio_output@@AEAA_NXZ 000000018004e5f0 f i libucrtd:output.obj
 0001:0004db50       ?state_case_type@?$output_processor@_WV?$string_output_adapter@_W@__crt_stdio_output@@V?$standard_base@_WV?$string_output_adapter@_W@__crt_stdio_output@@@2@@__crt_stdio_output@@AEAA_NXZ 000000018004eb50 f i libucrtd:output.obj
 0001:0004e0b0       ?state_case_width@?$output_processor@DV?$stream_output_adapter@D@__crt_stdio_output@@V?$format_validation_base@DV?$stream_output_adapter@D@__crt_stdio_output@@@2@@__crt_stdio_output@@AEAA_NXZ 000000018004f0b0 f i libucrtd:output.obj
 0001:0004e140       ?state_case_width@?$output_processor@DV?$stream_output_adapter@D@__crt_stdio_output@@V?$positional_parameter_base@DV?$stream_output_adapter@D@__crt_stdio_output@@@2@@__crt_stdio_output@@AEAA_NXZ 000000018004f140 f i libucrtd:output.obj
 0001:0004e1d0       ?state_case_width@?$output_processor@DV?$stream_output_adapter@D@__crt_stdio_output@@V?$standard_base@DV?$stream_output_adapter@D@__crt_stdio_output@@@2@@__crt_stdio_output@@AEAA_NXZ 000000018004f1d0 f i libucrtd:output.obj
 0001:0004e260       ?state_case_width@?$output_processor@DV?$string_output_adapter@D@__crt_stdio_output@@V?$format_validation_base@DV?$string_output_adapter@D@__crt_stdio_output@@@2@@__crt_stdio_output@@AEAA_NXZ 000000018004f260 f i libucrtd:output.obj
 0001:0004e2f0       ?state_case_width@?$output_processor@DV?$string_output_adapter@D@__crt_stdio_output@@V?$positional_parameter_base@DV?$string_output_adapter@D@__crt_stdio_output@@@2@@__crt_stdio_output@@AEAA_NXZ 000000018004f2f0 f i libucrtd:output.obj
 0001:0004e380       ?state_case_width@?$output_processor@DV?$string_output_adapter@D@__crt_stdio_output@@V?$standard_base@DV?$string_output_adapter@D@__crt_stdio_output@@@2@@__crt_stdio_output@@AEAA_NXZ 000000018004f380 f i libucrtd:output.obj
 0001:0004e410       ?state_case_width@?$output_processor@_WV?$stream_output_adapter@_W@__crt_stdio_output@@V?$format_validation_base@_WV?$stream_output_adapter@_W@__crt_stdio_output@@@2@@__crt_stdio_output@@AEAA_NXZ 000000018004f410 f i libucrtd:output.obj
 0001:0004e4a0       ?state_case_width@?$output_processor@_WV?$stream_output_adapter@_W@__crt_stdio_output@@V?$positional_parameter_base@_WV?$stream_output_adapter@_W@__crt_stdio_output@@@2@@__crt_stdio_output@@AEAA_NXZ 000000018004f4a0 f i libucrtd:output.obj
 0001:0004e530       ?state_case_width@?$output_processor@_WV?$stream_output_adapter@_W@__crt_stdio_output@@V?$standard_base@_WV?$stream_output_adapter@_W@__crt_stdio_output@@@2@@__crt_stdio_output@@AEAA_NXZ 000000018004f530 f i libucrtd:output.obj
 0001:0004e5c0       ?state_case_width@?$output_processor@_WV?$string_output_adapter@_W@__crt_stdio_output@@V?$format_validation_base@_WV?$string_output_adapter@_W@__crt_stdio_output@@@2@@__crt_stdio_output@@AEAA_NXZ 000000018004f5c0 f i libucrtd:output.obj
 0001:0004e650       ?state_case_width@?$output_processor@_WV?$string_output_adapter@_W@__crt_stdio_output@@V?$positional_parameter_base@_WV?$string_output_adapter@_W@__crt_stdio_output@@@2@@__crt_stdio_output@@AEAA_NXZ 000000018004f650 f i libucrtd:output.obj
 0001:0004e6e0       ?state_case_width@?$output_processor@_WV?$string_output_adapter@_W@__crt_stdio_output@@V?$standard_base@_WV?$string_output_adapter@_W@__crt_stdio_output@@@2@@__crt_stdio_output@@AEAA_NXZ 000000018004f6e0 f i libucrtd:output.obj
 0001:0004e770       ?state_count@?$format_validation_base@DV?$stream_output_adapter@D@__crt_stdio_output@@@__crt_stdio_output@@KAIXZ 000000018004f770 f i libucrtd:output.obj
 0001:0004e780       ?state_count@?$format_validation_base@DV?$string_output_adapter@D@__crt_stdio_output@@@__crt_stdio_output@@KAIXZ 000000018004f780 f i libucrtd:output.obj
 0001:0004e790       ?state_count@?$format_validation_base@_WV?$stream_output_adapter@_W@__crt_stdio_output@@@__crt_stdio_output@@KAIXZ 000000018004f790 f i libucrtd:output.obj
 0001:0004e7a0       ?state_count@?$format_validation_base@_WV?$string_output_adapter@_W@__crt_stdio_output@@@__crt_stdio_output@@KAIXZ 000000018004f7a0 f i libucrtd:output.obj
 0001:0004e7b0       ?state_count@?$standard_base@DV?$stream_output_adapter@D@__crt_stdio_output@@@__crt_stdio_output@@KAIXZ 000000018004f7b0 f i libucrtd:output.obj
 0001:0004e7c0       ?state_count@?$standard_base@DV?$string_output_adapter@D@__crt_stdio_output@@@__crt_stdio_output@@KAIXZ 000000018004f7c0 f i libucrtd:output.obj
 0001:0004e7d0       ?state_count@?$standard_base@_WV?$stream_output_adapter@_W@__crt_stdio_output@@@__crt_stdio_output@@KAIXZ 000000018004f7d0 f i libucrtd:output.obj
 0001:0004e7e0       ?state_count@?$standard_base@_WV?$string_output_adapter@_W@__crt_stdio_output@@@__crt_stdio_output@@KAIXZ 000000018004f7e0 f i libucrtd:output.obj
 0001:0004e7f0       ?state_transition_table@?$format_validation_base@DV?$stream_output_adapter@D@__crt_stdio_output@@@__crt_stdio_output@@KAAEBV?$spectre_mitigated_lookup_table@Ustate_transition_pair@__crt_stdio_output@@$0IA@@2@XZ 000000018004f7f0 f i libucrtd:output.obj
 0001:0004e800       ?state_transition_table@?$format_validation_base@DV?$string_output_adapter@D@__crt_stdio_output@@@__crt_stdio_output@@KAAEBV?$spectre_mitigated_lookup_table@Ustate_transition_pair@__crt_stdio_output@@$0IA@@2@XZ 000000018004f800 f i libucrtd:output.obj
 0001:0004e810       ?state_transition_table@?$format_validation_base@_WV?$stream_output_adapter@_W@__crt_stdio_output@@@__crt_stdio_output@@KAAEBV?$spectre_mitigated_lookup_table@Ustate_transition_pair@__crt_stdio_output@@$0IA@@2@XZ 000000018004f810 f i libucrtd:output.obj
 0001:0004e820       ?state_transition_table@?$format_validation_base@_WV?$string_output_adapter@_W@__crt_stdio_output@@@__crt_stdio_output@@KAAEBV?$spectre_mitigated_lookup_table@Ustate_transition_pair@__crt_stdio_output@@$0IA@@2@XZ 000000018004f820 f i libucrtd:output.obj
 0001:0004e830       ?state_transition_table@?$standard_base@DV?$stream_output_adapter@D@__crt_stdio_output@@@__crt_stdio_output@@KAAEBV?$spectre_mitigated_lookup_table@Ustate_transition_pair@__crt_stdio_output@@$0IA@@2@XZ 000000018004f830 f i libucrtd:output.obj
 0001:0004e840       ?state_transition_table@?$standard_base@DV?$string_output_adapter@D@__crt_stdio_output@@@__crt_stdio_output@@KAAEBV?$spectre_mitigated_lookup_table@Ustate_transition_pair@__crt_stdio_output@@$0IA@@2@XZ 000000018004f840 f i libucrtd:output.obj
 0001:0004e850       ?state_transition_table@?$standard_base@_WV?$stream_output_adapter@_W@__crt_stdio_output@@@__crt_stdio_output@@KAAEBV?$spectre_mitigated_lookup_table@Ustate_transition_pair@__crt_stdio_output@@$0IA@@2@XZ 000000018004f850 f i libucrtd:output.obj
 0001:0004e860       ?state_transition_table@?$standard_base@_WV?$string_output_adapter@_W@__crt_stdio_output@@@__crt_stdio_output@@KAAEBV?$spectre_mitigated_lookup_table@Ustate_transition_pair@__crt_stdio_output@@$0IA@@2@XZ 000000018004f860 f i libucrtd:output.obj
 0001:0004e870       ?tchar_string@?$common_data@D@__crt_stdio_output@@IEAAAEAPEADD@Z 000000018004f870 f i libucrtd:output.obj
 0001:0004e890       ?tchar_string@?$common_data@D@__crt_stdio_output@@IEAAAEAPEADXZ 000000018004f890 f i libucrtd:output.obj
 0001:0004e8b0       ?tchar_string@?$common_data@_W@__crt_stdio_output@@IEAAAEAPEA_WXZ 000000018004f8b0 f i libucrtd:output.obj
 0001:0004e8d0       ?tchar_string@?$common_data@_W@__crt_stdio_output@@IEAAAEAPEA_W_W@Z 000000018004f8d0 f i libucrtd:output.obj
 0001:0004e8f0       ?to_integer_size@__crt_stdio_output@@YA_KW4length_modifier@1@@Z 000000018004f8f0 f i libucrtd:output.obj
 0001:0004e9a0       ?type_case_X@?$output_processor@DV?$stream_output_adapter@D@__crt_stdio_output@@V?$format_validation_base@DV?$stream_output_adapter@D@__crt_stdio_output@@@2@@__crt_stdio_output@@AEAA_NXZ 000000018004f9a0 f i libucrtd:output.obj
 0001:0004e9c0       ?type_case_X@?$output_processor@DV?$stream_output_adapter@D@__crt_stdio_output@@V?$positional_parameter_base@DV?$stream_output_adapter@D@__crt_stdio_output@@@2@@__crt_stdio_output@@AEAA_NXZ 000000018004f9c0 f i libucrtd:output.obj
 0001:0004e9e0       ?type_case_X@?$output_processor@DV?$stream_output_adapter@D@__crt_stdio_output@@V?$standard_base@DV?$stream_output_adapter@D@__crt_stdio_output@@@2@@__crt_stdio_output@@AEAA_NXZ 000000018004f9e0 f i libucrtd:output.obj
 0001:0004ea00       ?type_case_X@?$output_processor@DV?$string_output_adapter@D@__crt_stdio_output@@V?$format_validation_base@DV?$string_output_adapter@D@__crt_stdio_output@@@2@@__crt_stdio_output@@AEAA_NXZ 000000018004fa00 f i libucrtd:output.obj
 0001:0004ea20       ?type_case_X@?$output_processor@DV?$string_output_adapter@D@__crt_stdio_output@@V?$positional_parameter_base@DV?$string_output_adapter@D@__crt_stdio_output@@@2@@__crt_stdio_output@@AEAA_NXZ 000000018004fa20 f i libucrtd:output.obj
 0001:0004ea40       ?type_case_X@?$output_processor@DV?$string_output_adapter@D@__crt_stdio_output@@V?$standard_base@DV?$string_output_adapter@D@__crt_stdio_output@@@2@@__crt_stdio_output@@AEAA_NXZ 000000018004fa40 f i libucrtd:output.obj
 0001:0004ea60       ?type_case_X@?$output_processor@_WV?$stream_output_adapter@_W@__crt_stdio_output@@V?$format_validation_base@_WV?$stream_output_adapter@_W@__crt_stdio_output@@@2@@__crt_stdio_output@@AEAA_NXZ 000000018004fa60 f i libucrtd:output.obj
 0001:0004ea80       ?type_case_X@?$output_processor@_WV?$stream_output_adapter@_W@__crt_stdio_output@@V?$positional_parameter_base@_WV?$stream_output_adapter@_W@__crt_stdio_output@@@2@@__crt_stdio_output@@AEAA_NXZ 000000018004fa80 f i libucrtd:output.obj
 0001:0004eaa0       ?type_case_X@?$output_processor@_WV?$stream_output_adapter@_W@__crt_stdio_output@@V?$standard_base@_WV?$stream_output_adapter@_W@__crt_stdio_output@@@2@@__crt_stdio_output@@AEAA_NXZ 000000018004faa0 f i libucrtd:output.obj
 0001:0004eac0       ?type_case_X@?$output_processor@_WV?$string_output_adapter@_W@__crt_stdio_output@@V?$format_validation_base@_WV?$string_output_adapter@_W@__crt_stdio_output@@@2@@__crt_stdio_output@@AEAA_NXZ 000000018004fac0 f i libucrtd:output.obj
 0001:0004eae0       ?type_case_X@?$output_processor@_WV?$string_output_adapter@_W@__crt_stdio_output@@V?$positional_parameter_base@_WV?$string_output_adapter@_W@__crt_stdio_output@@@2@@__crt_stdio_output@@AEAA_NXZ 000000018004fae0 f i libucrtd:output.obj
 0001:0004eb00       ?type_case_X@?$output_processor@_WV?$string_output_adapter@_W@__crt_stdio_output@@V?$standard_base@_WV?$string_output_adapter@_W@__crt_stdio_output@@@2@@__crt_stdio_output@@AEAA_NXZ 000000018004fb00 f i libucrtd:output.obj
 0001:0004eb20       ?type_case_Z@?$output_processor@DV?$stream_output_adapter@D@__crt_stdio_output@@V?$format_validation_base@DV?$stream_output_adapter@D@__crt_stdio_output@@@2@@__crt_stdio_output@@AEAA_NXZ 000000018004fb20 f i libucrtd:output.obj
 0001:0004ec40       ?type_case_Z@?$output_processor@DV?$stream_output_adapter@D@__crt_stdio_output@@V?$positional_parameter_base@DV?$stream_output_adapter@D@__crt_stdio_output@@@2@@__crt_stdio_output@@AEAA_NXZ 000000018004fc40 f i libucrtd:output.obj
 0001:0004ed60       ?type_case_Z@?$output_processor@DV?$stream_output_adapter@D@__crt_stdio_output@@V?$standard_base@DV?$stream_output_adapter@D@__crt_stdio_output@@@2@@__crt_stdio_output@@AEAA_NXZ 000000018004fd60 f i libucrtd:output.obj
 0001:0004ee80       ?type_case_Z@?$output_processor@DV?$string_output_adapter@D@__crt_stdio_output@@V?$format_validation_base@DV?$string_output_adapter@D@__crt_stdio_output@@@2@@__crt_stdio_output@@AEAA_NXZ 000000018004fe80 f i libucrtd:output.obj
 0001:0004efa0       ?type_case_Z@?$output_processor@DV?$string_output_adapter@D@__crt_stdio_output@@V?$positional_parameter_base@DV?$string_output_adapter@D@__crt_stdio_output@@@2@@__crt_stdio_output@@AEAA_NXZ 000000018004ffa0 f i libucrtd:output.obj
 0001:0004f0c0       ?type_case_Z@?$output_processor@DV?$string_output_adapter@D@__crt_stdio_output@@V?$standard_base@DV?$string_output_adapter@D@__crt_stdio_output@@@2@@__crt_stdio_output@@AEAA_NXZ 00000001800500c0 f i libucrtd:output.obj
 0001:0004f1e0       ?type_case_Z@?$output_processor@_WV?$stream_output_adapter@_W@__crt_stdio_output@@V?$format_validation_base@_WV?$stream_output_adapter@_W@__crt_stdio_output@@@2@@__crt_stdio_output@@AEAA_NXZ 00000001800501e0 f i libucrtd:output.obj
 0001:0004f300       ?type_case_Z@?$output_processor@_WV?$stream_output_adapter@_W@__crt_stdio_output@@V?$positional_parameter_base@_WV?$stream_output_adapter@_W@__crt_stdio_output@@@2@@__crt_stdio_output@@AEAA_NXZ 0000000180050300 f i libucrtd:output.obj
 0001:0004f420       ?type_case_Z@?$output_processor@_WV?$stream_output_adapter@_W@__crt_stdio_output@@V?$standard_base@_WV?$stream_output_adapter@_W@__crt_stdio_output@@@2@@__crt_stdio_output@@AEAA_NXZ 0000000180050420 f i libucrtd:output.obj
 0001:0004f540       ?type_case_Z@?$output_processor@_WV?$string_output_adapter@_W@__crt_stdio_output@@V?$format_validation_base@_WV?$string_output_adapter@_W@__crt_stdio_output@@@2@@__crt_stdio_output@@AEAA_NXZ 0000000180050540 f i libucrtd:output.obj
 0001:0004f660       ?type_case_Z@?$output_processor@_WV?$string_output_adapter@_W@__crt_stdio_output@@V?$positional_parameter_base@_WV?$string_output_adapter@_W@__crt_stdio_output@@@2@@__crt_stdio_output@@AEAA_NXZ 0000000180050660 f i libucrtd:output.obj
 0001:0004f780       ?type_case_Z@?$output_processor@_WV?$string_output_adapter@_W@__crt_stdio_output@@V?$standard_base@_WV?$string_output_adapter@_W@__crt_stdio_output@@@2@@__crt_stdio_output@@AEAA_NXZ 0000000180050780 f i libucrtd:output.obj
 0001:0004f8a0       ?type_case_a@?$output_processor@DV?$stream_output_adapter@D@__crt_stdio_output@@V?$format_validation_base@DV?$stream_output_adapter@D@__crt_stdio_output@@@2@@__crt_stdio_output@@AEAA_NXZ 00000001800508a0 f i libucrtd:output.obj
 0001:0004fc70       ?type_case_a@?$output_processor@DV?$stream_output_adapter@D@__crt_stdio_output@@V?$positional_parameter_base@DV?$stream_output_adapter@D@__crt_stdio_output@@@2@@__crt_stdio_output@@AEAA_NXZ 0000000180050c70 f i libucrtd:output.obj
 0001:00050040       ?type_case_a@?$output_processor@DV?$stream_output_adapter@D@__crt_stdio_output@@V?$standard_base@DV?$stream_output_adapter@D@__crt_stdio_output@@@2@@__crt_stdio_output@@AEAA_NXZ 0000000180051040 f i libucrtd:output.obj
 0001:00050410       ?type_case_a@?$output_processor@DV?$string_output_adapter@D@__crt_stdio_output@@V?$format_validation_base@DV?$string_output_adapter@D@__crt_stdio_output@@@2@@__crt_stdio_output@@AEAA_NXZ 0000000180051410 f i libucrtd:output.obj
 0001:000507e0       ?type_case_a@?$output_processor@DV?$string_output_adapter@D@__crt_stdio_output@@V?$positional_parameter_base@DV?$string_output_adapter@D@__crt_stdio_output@@@2@@__crt_stdio_output@@AEAA_NXZ 00000001800517e0 f i libucrtd:output.obj
 0001:00050bb0       ?type_case_a@?$output_processor@DV?$string_output_adapter@D@__crt_stdio_output@@V?$standard_base@DV?$string_output_adapter@D@__crt_stdio_output@@@2@@__crt_stdio_output@@AEAA_NXZ 0000000180051bb0 f i libucrtd:output.obj
 0001:00050f80       ?type_case_a@?$output_processor@_WV?$stream_output_adapter@_W@__crt_stdio_output@@V?$format_validation_base@_WV?$stream_output_adapter@_W@__crt_stdio_output@@@2@@__crt_stdio_output@@AEAA_NXZ 0000000180051f80 f i libucrtd:output.obj
 0001:00051350       ?type_case_a@?$output_processor@_WV?$stream_output_adapter@_W@__crt_stdio_output@@V?$positional_parameter_base@_WV?$stream_output_adapter@_W@__crt_stdio_output@@@2@@__crt_stdio_output@@AEAA_NXZ 0000000180052350 f i libucrtd:output.obj
 0001:00051720       ?type_case_a@?$output_processor@_WV?$stream_output_adapter@_W@__crt_stdio_output@@V?$standard_base@_WV?$stream_output_adapter@_W@__crt_stdio_output@@@2@@__crt_stdio_output@@AEAA_NXZ 0000000180052720 f i libucrtd:output.obj
 0001:00051af0       ?type_case_a@?$output_processor@_WV?$string_output_adapter@_W@__crt_stdio_output@@V?$format_validation_base@_WV?$string_output_adapter@_W@__crt_stdio_output@@@2@@__crt_stdio_output@@AEAA_NXZ 0000000180052af0 f i libucrtd:output.obj
 0001:00051ec0       ?type_case_a@?$output_processor@_WV?$string_output_adapter@_W@__crt_stdio_output@@V?$positional_parameter_base@_WV?$string_output_adapter@_W@__crt_stdio_output@@@2@@__crt_stdio_output@@AEAA_NXZ 0000000180052ec0 f i libucrtd:output.obj
 0001:00052290       ?type_case_a@?$output_processor@_WV?$string_output_adapter@_W@__crt_stdio_output@@V?$standard_base@_WV?$string_output_adapter@_W@__crt_stdio_output@@@2@@__crt_stdio_output@@AEAA_NXZ 0000000180053290 f i libucrtd:output.obj
 0001:00052660       ?type_case_c@?$output_processor@DV?$stream_output_adapter@D@__crt_stdio_output@@V?$format_validation_base@DV?$stream_output_adapter@D@__crt_stdio_output@@@2@@__crt_stdio_output@@AEAA_NXZ 0000000180053660 f i libucrtd:output.obj
 0001:00052680       ?type_case_c@?$output_processor@DV?$stream_output_adapter@D@__crt_stdio_output@@V?$positional_parameter_base@DV?$stream_output_adapter@D@__crt_stdio_output@@@2@@__crt_stdio_output@@AEAA_NXZ 0000000180053680 f i libucrtd:output.obj
 0001:000526a0       ?type_case_c@?$output_processor@DV?$stream_output_adapter@D@__crt_stdio_output@@V?$standard_base@DV?$stream_output_adapter@D@__crt_stdio_output@@@2@@__crt_stdio_output@@AEAA_NXZ 00000001800536a0 f i libucrtd:output.obj
 0001:000526c0       ?type_case_c@?$output_processor@DV?$string_output_adapter@D@__crt_stdio_output@@V?$format_validation_base@DV?$string_output_adapter@D@__crt_stdio_output@@@2@@__crt_stdio_output@@AEAA_NXZ 00000001800536c0 f i libucrtd:output.obj
 0001:000526e0       ?type_case_c@?$output_processor@DV?$string_output_adapter@D@__crt_stdio_output@@V?$positional_parameter_base@DV?$string_output_adapter@D@__crt_stdio_output@@@2@@__crt_stdio_output@@AEAA_NXZ 00000001800536e0 f i libucrtd:output.obj
 0001:00052700       ?type_case_c@?$output_processor@DV?$string_output_adapter@D@__crt_stdio_output@@V?$standard_base@DV?$string_output_adapter@D@__crt_stdio_output@@@2@@__crt_stdio_output@@AEAA_NXZ 0000000180053700 f i libucrtd:output.obj
 0001:00052720       ?type_case_c@?$output_processor@_WV?$stream_output_adapter@_W@__crt_stdio_output@@V?$format_validation_base@_WV?$stream_output_adapter@_W@__crt_stdio_output@@@2@@__crt_stdio_output@@AEAA_NXZ 0000000180053720 f i libucrtd:output.obj
 0001:00052740       ?type_case_c@?$output_processor@_WV?$stream_output_adapter@_W@__crt_stdio_output@@V?$positional_parameter_base@_WV?$stream_output_adapter@_W@__crt_stdio_output@@@2@@__crt_stdio_output@@AEAA_NXZ 0000000180053740 f i libucrtd:output.obj
 0001:00052760       ?type_case_c@?$output_processor@_WV?$stream_output_adapter@_W@__crt_stdio_output@@V?$standard_base@_WV?$stream_output_adapter@_W@__crt_stdio_output@@@2@@__crt_stdio_output@@AEAA_NXZ 0000000180053760 f i libucrtd:output.obj
 0001:00052780       ?type_case_c@?$output_processor@_WV?$string_output_adapter@_W@__crt_stdio_output@@V?$format_validation_base@_WV?$string_output_adapter@_W@__crt_stdio_output@@@2@@__crt_stdio_output@@AEAA_NXZ 0000000180053780 f i libucrtd:output.obj
 0001:000527a0       ?type_case_c@?$output_processor@_WV?$string_output_adapter@_W@__crt_stdio_output@@V?$positional_parameter_base@_WV?$string_output_adapter@_W@__crt_stdio_output@@@2@@__crt_stdio_output@@AEAA_NXZ 00000001800537a0 f i libucrtd:output.obj
 0001:000527c0       ?type_case_c@?$output_processor@_WV?$string_output_adapter@_W@__crt_stdio_output@@V?$standard_base@_WV?$string_output_adapter@_W@__crt_stdio_output@@@2@@__crt_stdio_output@@AEAA_NXZ 00000001800537c0 f i libucrtd:output.obj
 0001:000527e0       ?type_case_c_tchar@?$output_processor@DV?$stream_output_adapter@D@__crt_stdio_output@@V?$format_validation_base@DV?$stream_output_adapter@D@__crt_stdio_output@@@2@@__crt_stdio_output@@AEAA_ND@Z 00000001800537e0 f i libucrtd:output.obj
 0001:00052940       ?type_case_c_tchar@?$output_processor@DV?$stream_output_adapter@D@__crt_stdio_output@@V?$positional_parameter_base@DV?$stream_output_adapter@D@__crt_stdio_output@@@2@@__crt_stdio_output@@AEAA_ND@Z 0000000180053940 f i libucrtd:output.obj
 0001:00052aa0       ?type_case_c_tchar@?$output_processor@DV?$stream_output_adapter@D@__crt_stdio_output@@V?$standard_base@DV?$stream_output_adapter@D@__crt_stdio_output@@@2@@__crt_stdio_output@@AEAA_ND@Z 0000000180053aa0 f i libucrtd:output.obj
 0001:00052c00       ?type_case_c_tchar@?$output_processor@DV?$string_output_adapter@D@__crt_stdio_output@@V?$format_validation_base@DV?$string_output_adapter@D@__crt_stdio_output@@@2@@__crt_stdio_output@@AEAA_ND@Z 0000000180053c00 f i libucrtd:output.obj
 0001:00052d60       ?type_case_c_tchar@?$output_processor@DV?$string_output_adapter@D@__crt_stdio_output@@V?$positional_parameter_base@DV?$string_output_adapter@D@__crt_stdio_output@@@2@@__crt_stdio_output@@AEAA_ND@Z 0000000180053d60 f i libucrtd:output.obj
 0001:00052ec0       ?type_case_c_tchar@?$output_processor@DV?$string_output_adapter@D@__crt_stdio_output@@V?$standard_base@DV?$string_output_adapter@D@__crt_stdio_output@@@2@@__crt_stdio_output@@AEAA_ND@Z 0000000180053ec0 f i libucrtd:output.obj
 0001:00053020       ?type_case_c_tchar@?$output_processor@_WV?$stream_output_adapter@_W@__crt_stdio_output@@V?$format_validation_base@_WV?$stream_output_adapter@_W@__crt_stdio_output@@@2@@__crt_stdio_output@@AEAA_N_W@Z 0000000180054020 f i libucrtd:output.obj
 0001:00053150       ?type_case_c_tchar@?$output_processor@_WV?$stream_output_adapter@_W@__crt_stdio_output@@V?$positional_parameter_base@_WV?$stream_output_adapter@_W@__crt_stdio_output@@@2@@__crt_stdio_output@@AEAA_N_W@Z 0000000180054150 f i libucrtd:output.obj
 0001:00053280       ?type_case_c_tchar@?$output_processor@_WV?$stream_output_adapter@_W@__crt_stdio_output@@V?$standard_base@_WV?$stream_output_adapter@_W@__crt_stdio_output@@@2@@__crt_stdio_output@@AEAA_N_W@Z 0000000180054280 f i libucrtd:output.obj
 0001:000533b0       ?type_case_c_tchar@?$output_processor@_WV?$string_output_adapter@_W@__crt_stdio_output@@V?$format_validation_base@_WV?$string_output_adapter@_W@__crt_stdio_output@@@2@@__crt_stdio_output@@AEAA_N_W@Z 00000001800543b0 f i libucrtd:output.obj
 0001:000534e0       ?type_case_c_tchar@?$output_processor@_WV?$string_output_adapter@_W@__crt_stdio_output@@V?$positional_parameter_base@_WV?$string_output_adapter@_W@__crt_stdio_output@@@2@@__crt_stdio_output@@AEAA_N_W@Z 00000001800544e0 f i libucrtd:output.obj
 0001:00053610       ?type_case_c_tchar@?$output_processor@_WV?$string_output_adapter@_W@__crt_stdio_output@@V?$standard_base@_WV?$string_output_adapter@_W@__crt_stdio_output@@@2@@__crt_stdio_output@@AEAA_N_W@Z 0000000180054610 f i libucrtd:output.obj
 0001:00053740       ?type_case_d@?$output_processor@DV?$stream_output_adapter@D@__crt_stdio_output@@V?$format_validation_base@DV?$stream_output_adapter@D@__crt_stdio_output@@@2@@__crt_stdio_output@@AEAA_NXZ 0000000180054740 f i libucrtd:output.obj
 0001:00053770       ?type_case_d@?$output_processor@DV?$stream_output_adapter@D@__crt_stdio_output@@V?$positional_parameter_base@DV?$stream_output_adapter@D@__crt_stdio_output@@@2@@__crt_stdio_output@@AEAA_NXZ 0000000180054770 f i libucrtd:output.obj
 0001:000537a0       ?type_case_d@?$output_processor@DV?$stream_output_adapter@D@__crt_stdio_output@@V?$standard_base@DV?$stream_output_adapter@D@__crt_stdio_output@@@2@@__crt_stdio_output@@AEAA_NXZ 00000001800547a0 f i libucrtd:output.obj
 0001:000537d0       ?type_case_d@?$output_processor@DV?$string_output_adapter@D@__crt_stdio_output@@V?$format_validation_base@DV?$string_output_adapter@D@__crt_stdio_output@@@2@@__crt_stdio_output@@AEAA_NXZ 00000001800547d0 f i libucrtd:output.obj
 0001:00053800       ?type_case_d@?$output_processor@DV?$string_output_adapter@D@__crt_stdio_output@@V?$positional_parameter_base@DV?$string_output_adapter@D@__crt_stdio_output@@@2@@__crt_stdio_output@@AEAA_NXZ 0000000180054800 f i libucrtd:output.obj
 0001:00053830       ?type_case_d@?$output_processor@DV?$string_output_adapter@D@__crt_stdio_output@@V?$standard_base@DV?$string_output_adapter@D@__crt_stdio_output@@@2@@__crt_stdio_output@@AEAA_NXZ 0000000180054830 f i libucrtd:output.obj
 0001:00053860       ?type_case_d@?$output_processor@_WV?$stream_output_adapter@_W@__crt_stdio_output@@V?$format_validation_base@_WV?$stream_output_adapter@_W@__crt_stdio_output@@@2@@__crt_stdio_output@@AEAA_NXZ 0000000180054860 f i libucrtd:output.obj
 0001:00053890       ?type_case_d@?$output_processor@_WV?$stream_output_adapter@_W@__crt_stdio_output@@V?$positional_parameter_base@_WV?$stream_output_adapter@_W@__crt_stdio_output@@@2@@__crt_stdio_output@@AEAA_NXZ 0000000180054890 f i libucrtd:output.obj
 0001:000538c0       ?type_case_d@?$output_processor@_WV?$stream_output_adapter@_W@__crt_stdio_output@@V?$standard_base@_WV?$stream_output_adapter@_W@__crt_stdio_output@@@2@@__crt_stdio_output@@AEAA_NXZ 00000001800548c0 f i libucrtd:output.obj
 0001:000538f0       ?type_case_d@?$output_processor@_WV?$string_output_adapter@_W@__crt_stdio_output@@V?$format_validation_base@_WV?$string_output_adapter@_W@__crt_stdio_output@@@2@@__crt_stdio_output@@AEAA_NXZ 00000001800548f0 f i libucrtd:output.obj
 0001:00053920       ?type_case_d@?$output_processor@_WV?$string_output_adapter@_W@__crt_stdio_output@@V?$positional_parameter_base@_WV?$string_output_adapter@_W@__crt_stdio_output@@@2@@__crt_stdio_output@@AEAA_NXZ 0000000180054920 f i libucrtd:output.obj
 0001:00053950       ?type_case_d@?$output_processor@_WV?$string_output_adapter@_W@__crt_stdio_output@@V?$standard_base@_WV?$string_output_adapter@_W@__crt_stdio_output@@@2@@__crt_stdio_output@@AEAA_NXZ 0000000180054950 f i libucrtd:output.obj
 0001:00053980       ?type_case_integer@?$output_processor@DV?$stream_output_adapter@D@__crt_stdio_output@@V?$format_validation_base@DV?$stream_output_adapter@D@__crt_stdio_output@@@2@@__crt_stdio_output@@AEAA_NI_N@Z 0000000180054980 f i libucrtd:output.obj
 0001:00053dd0       ?type_case_integer@?$output_processor@DV?$stream_output_adapter@D@__crt_stdio_output@@V?$positional_parameter_base@DV?$stream_output_adapter@D@__crt_stdio_output@@@2@@__crt_stdio_output@@AEAA_NI_N@Z 0000000180054dd0 f i libucrtd:output.obj
 0001:00054220       ?type_case_integer@?$output_processor@DV?$stream_output_adapter@D@__crt_stdio_output@@V?$standard_base@DV?$stream_output_adapter@D@__crt_stdio_output@@@2@@__crt_stdio_output@@AEAA_NI_N@Z 0000000180055220 f i libucrtd:output.obj
 0001:00054670       ?type_case_integer@?$output_processor@DV?$string_output_adapter@D@__crt_stdio_output@@V?$format_validation_base@DV?$string_output_adapter@D@__crt_stdio_output@@@2@@__crt_stdio_output@@AEAA_NI_N@Z 0000000180055670 f i libucrtd:output.obj
 0001:00054ac0       ?type_case_integer@?$output_processor@DV?$string_output_adapter@D@__crt_stdio_output@@V?$positional_parameter_base@DV?$string_output_adapter@D@__crt_stdio_output@@@2@@__crt_stdio_output@@AEAA_NI_N@Z 0000000180055ac0 f i libucrtd:output.obj
 0001:00054f10       ?type_case_integer@?$output_processor@DV?$string_output_adapter@D@__crt_stdio_output@@V?$standard_base@DV?$string_output_adapter@D@__crt_stdio_output@@@2@@__crt_stdio_output@@AEAA_NI_N@Z 0000000180055f10 f i libucrtd:output.obj
 0001:00055360       ?type_case_integer@?$output_processor@_WV?$stream_output_adapter@_W@__crt_stdio_output@@V?$format_validation_base@_WV?$stream_output_adapter@_W@__crt_stdio_output@@@2@@__crt_stdio_output@@AEAA_NI_N@Z 0000000180056360 f i libucrtd:output.obj
 0001:000557b0       ?type_case_integer@?$output_processor@_WV?$stream_output_adapter@_W@__crt_stdio_output@@V?$positional_parameter_base@_WV?$stream_output_adapter@_W@__crt_stdio_output@@@2@@__crt_stdio_output@@AEAA_NI_N@Z 00000001800567b0 f i libucrtd:output.obj
 0001:00055c00       ?type_case_integer@?$output_processor@_WV?$stream_output_adapter@_W@__crt_stdio_output@@V?$standard_base@_WV?$stream_output_adapter@_W@__crt_stdio_output@@@2@@__crt_stdio_output@@AEAA_NI_N@Z 0000000180056c00 f i libucrtd:output.obj
 0001:00056050       ?type_case_integer@?$output_processor@_WV?$string_output_adapter@_W@__crt_stdio_output@@V?$format_validation_base@_WV?$string_output_adapter@_W@__crt_stdio_output@@@2@@__crt_stdio_output@@AEAA_NI_N@Z 0000000180057050 f i libucrtd:output.obj
 0001:000564a0       ?type_case_integer@?$output_processor@_WV?$string_output_adapter@_W@__crt_stdio_output@@V?$positional_parameter_base@_WV?$string_output_adapter@_W@__crt_stdio_output@@@2@@__crt_stdio_output@@AEAA_NI_N@Z 00000001800574a0 f i libucrtd:output.obj
 0001:000568f0       ?type_case_integer@?$output_processor@_WV?$string_output_adapter@_W@__crt_stdio_output@@V?$standard_base@_WV?$string_output_adapter@_W@__crt_stdio_output@@@2@@__crt_stdio_output@@AEAA_NI_N@Z 00000001800578f0 f i libucrtd:output.obj
 0001:00056d40       ?type_case_n@?$output_processor@DV?$stream_output_adapter@D@__crt_stdio_output@@V?$format_validation_base@DV?$stream_output_adapter@D@__crt_stdio_output@@@2@@__crt_stdio_output@@AEAA_NXZ 0000000180057d40 f i libucrtd:output.obj
 0001:00056f80       ?type_case_n@?$output_processor@DV?$stream_output_adapter@D@__crt_stdio_output@@V?$positional_parameter_base@DV?$stream_output_adapter@D@__crt_stdio_output@@@2@@__crt_stdio_output@@AEAA_NXZ 0000000180057f80 f i libucrtd:output.obj
 0001:000571c0       ?type_case_n@?$output_processor@DV?$stream_output_adapter@D@__crt_stdio_output@@V?$standard_base@DV?$stream_output_adapter@D@__crt_stdio_output@@@2@@__crt_stdio_output@@AEAA_NXZ 00000001800581c0 f i libucrtd:output.obj
 0001:00057400       ?type_case_n@?$output_processor@DV?$string_output_adapter@D@__crt_stdio_output@@V?$format_validation_base@DV?$string_output_adapter@D@__crt_stdio_output@@@2@@__crt_stdio_output@@AEAA_NXZ 0000000180058400 f i libucrtd:output.obj
 0001:00057640       ?type_case_n@?$output_processor@DV?$string_output_adapter@D@__crt_stdio_output@@V?$positional_parameter_base@DV?$string_output_adapter@D@__crt_stdio_output@@@2@@__crt_stdio_output@@AEAA_NXZ 0000000180058640 f i libucrtd:output.obj
 0001:00057880       ?type_case_n@?$output_processor@DV?$string_output_adapter@D@__crt_stdio_output@@V?$standard_base@DV?$string_output_adapter@D@__crt_stdio_output@@@2@@__crt_stdio_output@@AEAA_NXZ 0000000180058880 f i libucrtd:output.obj
 0001:00057ac0       ?type_case_n@?$output_processor@_WV?$stream_output_adapter@_W@__crt_stdio_output@@V?$format_validation_base@_WV?$stream_output_adapter@_W@__crt_stdio_output@@@2@@__crt_stdio_output@@AEAA_NXZ 0000000180058ac0 f i libucrtd:output.obj
 0001:00057d00       ?type_case_n@?$output_processor@_WV?$stream_output_adapter@_W@__crt_stdio_output@@V?$positional_parameter_base@_WV?$stream_output_adapter@_W@__crt_stdio_output@@@2@@__crt_stdio_output@@AEAA_NXZ 0000000180058d00 f i libucrtd:output.obj
 0001:00057f40       ?type_case_n@?$output_processor@_WV?$stream_output_adapter@_W@__crt_stdio_output@@V?$standard_base@_WV?$stream_output_adapter@_W@__crt_stdio_output@@@2@@__crt_stdio_output@@AEAA_NXZ 0000000180058f40 f i libucrtd:output.obj
 0001:00058180       ?type_case_n@?$output_processor@_WV?$string_output_adapter@_W@__crt_stdio_output@@V?$format_validation_base@_WV?$string_output_adapter@_W@__crt_stdio_output@@@2@@__crt_stdio_output@@AEAA_NXZ 0000000180059180 f i libucrtd:output.obj
 0001:000583c0       ?type_case_n@?$output_processor@_WV?$string_output_adapter@_W@__crt_stdio_output@@V?$positional_parameter_base@_WV?$string_output_adapter@_W@__crt_stdio_output@@@2@@__crt_stdio_output@@AEAA_NXZ 00000001800593c0 f i libucrtd:output.obj
 0001:00058600       ?type_case_n@?$output_processor@_WV?$string_output_adapter@_W@__crt_stdio_output@@V?$standard_base@_WV?$string_output_adapter@_W@__crt_stdio_output@@@2@@__crt_stdio_output@@AEAA_NXZ 0000000180059600 f i libucrtd:output.obj
 0001:00058840       ?type_case_o@?$output_processor@DV?$stream_output_adapter@D@__crt_stdio_output@@V?$format_validation_base@DV?$stream_output_adapter@D@__crt_stdio_output@@@2@@__crt_stdio_output@@AEAA_NXZ 0000000180059840 f i libucrtd:output.obj
 0001:00058890       ?type_case_o@?$output_processor@DV?$stream_output_adapter@D@__crt_stdio_output@@V?$positional_parameter_base@DV?$stream_output_adapter@D@__crt_stdio_output@@@2@@__crt_stdio_output@@AEAA_NXZ 0000000180059890 f i libucrtd:output.obj
 0001:000588e0       ?type_case_o@?$output_processor@DV?$stream_output_adapter@D@__crt_stdio_output@@V?$standard_base@DV?$stream_output_adapter@D@__crt_stdio_output@@@2@@__crt_stdio_output@@AEAA_NXZ 00000001800598e0 f i libucrtd:output.obj
 0001:00058930       ?type_case_o@?$output_processor@DV?$string_output_adapter@D@__crt_stdio_output@@V?$format_validation_base@DV?$string_output_adapter@D@__crt_stdio_output@@@2@@__crt_stdio_output@@AEAA_NXZ 0000000180059930 f i libucrtd:output.obj
 0001:00058980       ?type_case_o@?$output_processor@DV?$string_output_adapter@D@__crt_stdio_output@@V?$positional_parameter_base@DV?$string_output_adapter@D@__crt_stdio_output@@@2@@__crt_stdio_output@@AEAA_NXZ 0000000180059980 f i libucrtd:output.obj
 0001:000589d0       ?type_case_o@?$output_processor@DV?$string_output_adapter@D@__crt_stdio_output@@V?$standard_base@DV?$string_output_adapter@D@__crt_stdio_output@@@2@@__crt_stdio_output@@AEAA_NXZ 00000001800599d0 f i libucrtd:output.obj
 0001:00058a20       ?type_case_o@?$output_processor@_WV?$stream_output_adapter@_W@__crt_stdio_output@@V?$format_validation_base@_WV?$stream_output_adapter@_W@__crt_stdio_output@@@2@@__crt_stdio_output@@AEAA_NXZ 0000000180059a20 f i libucrtd:output.obj
 0001:00058a70       ?type_case_o@?$output_processor@_WV?$stream_output_adapter@_W@__crt_stdio_output@@V?$positional_parameter_base@_WV?$stream_output_adapter@_W@__crt_stdio_output@@@2@@__crt_stdio_output@@AEAA_NXZ 0000000180059a70 f i libucrtd:output.obj
 0001:00058ac0       ?type_case_o@?$output_processor@_WV?$stream_output_adapter@_W@__crt_stdio_output@@V?$standard_base@_WV?$stream_output_adapter@_W@__crt_stdio_output@@@2@@__crt_stdio_output@@AEAA_NXZ 0000000180059ac0 f i libucrtd:output.obj
 0001:00058b10       ?type_case_o@?$output_processor@_WV?$string_output_adapter@_W@__crt_stdio_output@@V?$format_validation_base@_WV?$string_output_adapter@_W@__crt_stdio_output@@@2@@__crt_stdio_output@@AEAA_NXZ 0000000180059b10 f i libucrtd:output.obj
 0001:00058b60       ?type_case_o@?$output_processor@_WV?$string_output_adapter@_W@__crt_stdio_output@@V?$positional_parameter_base@_WV?$string_output_adapter@_W@__crt_stdio_output@@@2@@__crt_stdio_output@@AEAA_NXZ 0000000180059b60 f i libucrtd:output.obj
 0001:00058bb0       ?type_case_o@?$output_processor@_WV?$string_output_adapter@_W@__crt_stdio_output@@V?$standard_base@_WV?$string_output_adapter@_W@__crt_stdio_output@@@2@@__crt_stdio_output@@AEAA_NXZ 0000000180059bb0 f i libucrtd:output.obj
 0001:00058c00       ?type_case_p@?$output_processor@DV?$stream_output_adapter@D@__crt_stdio_output@@V?$format_validation_base@DV?$stream_output_adapter@D@__crt_stdio_output@@@2@@__crt_stdio_output@@AEAA_NXZ 0000000180059c00 f i libucrtd:output.obj
 0001:00058c40       ?type_case_p@?$output_processor@DV?$stream_output_adapter@D@__crt_stdio_output@@V?$positional_parameter_base@DV?$stream_output_adapter@D@__crt_stdio_output@@@2@@__crt_stdio_output@@AEAA_NXZ 0000000180059c40 f i libucrtd:output.obj
 0001:00058c80       ?type_case_p@?$output_processor@DV?$stream_output_adapter@D@__crt_stdio_output@@V?$standard_base@DV?$stream_output_adapter@D@__crt_stdio_output@@@2@@__crt_stdio_output@@AEAA_NXZ 0000000180059c80 f i libucrtd:output.obj
 0001:00058cc0       ?type_case_p@?$output_processor@DV?$string_output_adapter@D@__crt_stdio_output@@V?$format_validation_base@DV?$string_output_adapter@D@__crt_stdio_output@@@2@@__crt_stdio_output@@AEAA_NXZ 0000000180059cc0 f i libucrtd:output.obj
 0001:00058d00       ?type_case_p@?$output_processor@DV?$string_output_adapter@D@__crt_stdio_output@@V?$positional_parameter_base@DV?$string_output_adapter@D@__crt_stdio_output@@@2@@__crt_stdio_output@@AEAA_NXZ 0000000180059d00 f i libucrtd:output.obj
 0001:00058d40       ?type_case_p@?$output_processor@DV?$string_output_adapter@D@__crt_stdio_output@@V?$standard_base@DV?$string_output_adapter@D@__crt_stdio_output@@@2@@__crt_stdio_output@@AEAA_NXZ 0000000180059d40 f i libucrtd:output.obj
 0001:00058d80       ?type_case_p@?$output_processor@_WV?$stream_output_adapter@_W@__crt_stdio_output@@V?$format_validation_base@_WV?$stream_output_adapter@_W@__crt_stdio_output@@@2@@__crt_stdio_output@@AEAA_NXZ 0000000180059d80 f i libucrtd:output.obj
 0001:00058dc0       ?type_case_p@?$output_processor@_WV?$stream_output_adapter@_W@__crt_stdio_output@@V?$positional_parameter_base@_WV?$stream_output_adapter@_W@__crt_stdio_output@@@2@@__crt_stdio_output@@AEAA_NXZ 0000000180059dc0 f i libucrtd:output.obj
 0001:00058e00       ?type_case_p@?$output_processor@_WV?$stream_output_adapter@_W@__crt_stdio_output@@V?$standard_base@_WV?$stream_output_adapter@_W@__crt_stdio_output@@@2@@__crt_stdio_output@@AEAA_NXZ 0000000180059e00 f i libucrtd:output.obj
 0001:00058e40       ?type_case_p@?$output_processor@_WV?$string_output_adapter@_W@__crt_stdio_output@@V?$format_validation_base@_WV?$string_output_adapter@_W@__crt_stdio_output@@@2@@__crt_stdio_output@@AEAA_NXZ 0000000180059e40 f i libucrtd:output.obj
 0001:00058e80       ?type_case_p@?$output_processor@_WV?$string_output_adapter@_W@__crt_stdio_output@@V?$positional_parameter_base@_WV?$string_output_adapter@_W@__crt_stdio_output@@@2@@__crt_stdio_output@@AEAA_NXZ 0000000180059e80 f i libucrtd:output.obj
 0001:00058ec0       ?type_case_p@?$output_processor@_WV?$string_output_adapter@_W@__crt_stdio_output@@V?$standard_base@_WV?$string_output_adapter@_W@__crt_stdio_output@@@2@@__crt_stdio_output@@AEAA_NXZ 0000000180059ec0 f i libucrtd:output.obj
 0001:00058f00       ?type_case_s@?$output_processor@DV?$stream_output_adapter@D@__crt_stdio_output@@V?$format_validation_base@DV?$stream_output_adapter@D@__crt_stdio_output@@@2@@__crt_stdio_output@@AEAA_NXZ 0000000180059f00 f i libucrtd:output.obj
 0001:00059020       ?type_case_s@?$output_processor@DV?$stream_output_adapter@D@__crt_stdio_output@@V?$positional_parameter_base@DV?$stream_output_adapter@D@__crt_stdio_output@@@2@@__crt_stdio_output@@AEAA_NXZ 000000018005a020 f i libucrtd:output.obj
 0001:00059140       ?type_case_s@?$output_processor@DV?$stream_output_adapter@D@__crt_stdio_output@@V?$standard_base@DV?$stream_output_adapter@D@__crt_stdio_output@@@2@@__crt_stdio_output@@AEAA_NXZ 000000018005a140 f i libucrtd:output.obj
 0001:00059260       ?type_case_s@?$output_processor@DV?$string_output_adapter@D@__crt_stdio_output@@V?$format_validation_base@DV?$string_output_adapter@D@__crt_stdio_output@@@2@@__crt_stdio_output@@AEAA_NXZ 000000018005a260 f i libucrtd:output.obj
 0001:00059380       ?type_case_s@?$output_processor@DV?$string_output_adapter@D@__crt_stdio_output@@V?$positional_parameter_base@DV?$string_output_adapter@D@__crt_stdio_output@@@2@@__crt_stdio_output@@AEAA_NXZ 000000018005a380 f i libucrtd:output.obj
 0001:000594a0       ?type_case_s@?$output_processor@DV?$string_output_adapter@D@__crt_stdio_output@@V?$standard_base@DV?$string_output_adapter@D@__crt_stdio_output@@@2@@__crt_stdio_output@@AEAA_NXZ 000000018005a4a0 f i libucrtd:output.obj
 0001:000595c0       ?type_case_s@?$output_processor@_WV?$stream_output_adapter@_W@__crt_stdio_output@@V?$format_validation_base@_WV?$stream_output_adapter@_W@__crt_stdio_output@@@2@@__crt_stdio_output@@AEAA_NXZ 000000018005a5c0 f i libucrtd:output.obj
 0001:000596e0       ?type_case_s@?$output_processor@_WV?$stream_output_adapter@_W@__crt_stdio_output@@V?$positional_parameter_base@_WV?$stream_output_adapter@_W@__crt_stdio_output@@@2@@__crt_stdio_output@@AEAA_NXZ 000000018005a6e0 f i libucrtd:output.obj
 0001:00059800       ?type_case_s@?$output_processor@_WV?$stream_output_adapter@_W@__crt_stdio_output@@V?$standard_base@_WV?$stream_output_adapter@_W@__crt_stdio_output@@@2@@__crt_stdio_output@@AEAA_NXZ 000000018005a800 f i libucrtd:output.obj
 0001:00059920       ?type_case_s@?$output_processor@_WV?$string_output_adapter@_W@__crt_stdio_output@@V?$format_validation_base@_WV?$string_output_adapter@_W@__crt_stdio_output@@@2@@__crt_stdio_output@@AEAA_NXZ 000000018005a920 f i libucrtd:output.obj
 0001:00059a40       ?type_case_s@?$output_processor@_WV?$string_output_adapter@_W@__crt_stdio_output@@V?$positional_parameter_base@_WV?$string_output_adapter@_W@__crt_stdio_output@@@2@@__crt_stdio_output@@AEAA_NXZ 000000018005aa40 f i libucrtd:output.obj
 0001:00059b60       ?type_case_s@?$output_processor@_WV?$string_output_adapter@_W@__crt_stdio_output@@V?$standard_base@_WV?$string_output_adapter@_W@__crt_stdio_output@@@2@@__crt_stdio_output@@AEAA_NXZ 000000018005ab60 f i libucrtd:output.obj
 0001:00059c80       ?type_case_s_compute_narrow_string_length@?$output_processor@DV?$stream_output_adapter@D@__crt_stdio_output@@V?$format_validation_base@DV?$stream_output_adapter@D@__crt_stdio_output@@@2@@__crt_stdio_output@@AEBAHHD@Z 000000018005ac80 f i libucrtd:output.obj
 0001:00059cb0       ?type_case_s_compute_narrow_string_length@?$output_processor@DV?$stream_output_adapter@D@__crt_stdio_output@@V?$positional_parameter_base@DV?$stream_output_adapter@D@__crt_stdio_output@@@2@@__crt_stdio_output@@AEBAHHD@Z 000000018005acb0 f i libucrtd:output.obj
 0001:00059ce0       ?type_case_s_compute_narrow_string_length@?$output_processor@DV?$stream_output_adapter@D@__crt_stdio_output@@V?$standard_base@DV?$stream_output_adapter@D@__crt_stdio_output@@@2@@__crt_stdio_output@@AEBAHHD@Z 000000018005ace0 f i libucrtd:output.obj
 0001:00059d10       ?type_case_s_compute_narrow_string_length@?$output_processor@DV?$string_output_adapter@D@__crt_stdio_output@@V?$format_validation_base@DV?$string_output_adapter@D@__crt_stdio_output@@@2@@__crt_stdio_output@@AEBAHHD@Z 000000018005ad10 f i libucrtd:output.obj
 0001:00059d40       ?type_case_s_compute_narrow_string_length@?$output_processor@DV?$string_output_adapter@D@__crt_stdio_output@@V?$positional_parameter_base@DV?$string_output_adapter@D@__crt_stdio_output@@@2@@__crt_stdio_output@@AEBAHHD@Z 000000018005ad40 f i libucrtd:output.obj
 0001:00059d70       ?type_case_s_compute_narrow_string_length@?$output_processor@DV?$string_output_adapter@D@__crt_stdio_output@@V?$standard_base@DV?$string_output_adapter@D@__crt_stdio_output@@@2@@__crt_stdio_output@@AEBAHHD@Z 000000018005ad70 f i libucrtd:output.obj
 0001:00059da0       ?type_case_s_compute_narrow_string_length@?$output_processor@_WV?$stream_output_adapter@_W@__crt_stdio_output@@V?$format_validation_base@_WV?$stream_output_adapter@_W@__crt_stdio_output@@@2@@__crt_stdio_output@@AEBAHH_W@Z 000000018005ada0 f i libucrtd:output.obj
 0001:00059e30       ?type_case_s_compute_narrow_string_length@?$output_processor@_WV?$stream_output_adapter@_W@__crt_stdio_output@@V?$positional_parameter_base@_WV?$stream_output_adapter@_W@__crt_stdio_output@@@2@@__crt_stdio_output@@AEBAHH_W@Z 000000018005ae30 f i libucrtd:output.obj
 0001:00059ec0       ?type_case_s_compute_narrow_string_length@?$output_processor@_WV?$stream_output_adapter@_W@__crt_stdio_output@@V?$standard_base@_WV?$stream_output_adapter@_W@__crt_stdio_output@@@2@@__crt_stdio_output@@AEBAHH_W@Z 000000018005aec0 f i libucrtd:output.obj
 0001:00059f50       ?type_case_s_compute_narrow_string_length@?$output_processor@_WV?$string_output_adapter@_W@__crt_stdio_output@@V?$format_validation_base@_WV?$string_output_adapter@_W@__crt_stdio_output@@@2@@__crt_stdio_output@@AEBAHH_W@Z 000000018005af50 f i libucrtd:output.obj
 0001:00059fe0       ?type_case_s_compute_narrow_string_length@?$output_processor@_WV?$string_output_adapter@_W@__crt_stdio_output@@V?$positional_parameter_base@_WV?$string_output_adapter@_W@__crt_stdio_output@@@2@@__crt_stdio_output@@AEBAHH_W@Z 000000018005afe0 f i libucrtd:output.obj
 0001:0005a070       ?type_case_s_compute_narrow_string_length@?$output_processor@_WV?$string_output_adapter@_W@__crt_stdio_output@@V?$standard_base@_WV?$string_output_adapter@_W@__crt_stdio_output@@@2@@__crt_stdio_output@@AEBAHH_W@Z 000000018005b070 f i libucrtd:output.obj
 0001:0005a100       ?type_case_u@?$output_processor@DV?$stream_output_adapter@D@__crt_stdio_output@@V?$format_validation_base@DV?$stream_output_adapter@D@__crt_stdio_output@@@2@@__crt_stdio_output@@AEAA_NXZ 000000018005b100 f i libucrtd:output.obj
 0001:0005a120       ?type_case_u@?$output_processor@DV?$stream_output_adapter@D@__crt_stdio_output@@V?$positional_parameter_base@DV?$stream_output_adapter@D@__crt_stdio_output@@@2@@__crt_stdio_output@@AEAA_NXZ 000000018005b120 f i libucrtd:output.obj
 0001:0005a140       ?type_case_u@?$output_processor@DV?$stream_output_adapter@D@__crt_stdio_output@@V?$standard_base@DV?$stream_output_adapter@D@__crt_stdio_output@@@2@@__crt_stdio_output@@AEAA_NXZ 000000018005b140 f i libucrtd:output.obj
 0001:0005a160       ?type_case_u@?$output_processor@DV?$string_output_adapter@D@__crt_stdio_output@@V?$format_validation_base@DV?$string_output_adapter@D@__crt_stdio_output@@@2@@__crt_stdio_output@@AEAA_NXZ 000000018005b160 f i libucrtd:output.obj
 0001:0005a180       ?type_case_u@?$output_processor@DV?$string_output_adapter@D@__crt_stdio_output@@V?$positional_parameter_base@DV?$string_output_adapter@D@__crt_stdio_output@@@2@@__crt_stdio_output@@AEAA_NXZ 000000018005b180 f i libucrtd:output.obj
 0001:0005a1a0       ?type_case_u@?$output_processor@DV?$string_output_adapter@D@__crt_stdio_output@@V?$standard_base@DV?$string_output_adapter@D@__crt_stdio_output@@@2@@__crt_stdio_output@@AEAA_NXZ 000000018005b1a0 f i libucrtd:output.obj
 0001:0005a1c0       ?type_case_u@?$output_processor@_WV?$stream_output_adapter@_W@__crt_stdio_output@@V?$format_validation_base@_WV?$stream_output_adapter@_W@__crt_stdio_output@@@2@@__crt_stdio_output@@AEAA_NXZ 000000018005b1c0 f i libucrtd:output.obj
 0001:0005a1e0       ?type_case_u@?$output_processor@_WV?$stream_output_adapter@_W@__crt_stdio_output@@V?$positional_parameter_base@_WV?$stream_output_adapter@_W@__crt_stdio_output@@@2@@__crt_stdio_output@@AEAA_NXZ 000000018005b1e0 f i libucrtd:output.obj
 0001:0005a200       ?type_case_u@?$output_processor@_WV?$stream_output_adapter@_W@__crt_stdio_output@@V?$standard_base@_WV?$stream_output_adapter@_W@__crt_stdio_output@@@2@@__crt_stdio_output@@AEAA_NXZ 000000018005b200 f i libucrtd:output.obj
 0001:0005a220       ?type_case_u@?$output_processor@_WV?$string_output_adapter@_W@__crt_stdio_output@@V?$format_validation_base@_WV?$string_output_adapter@_W@__crt_stdio_output@@@2@@__crt_stdio_output@@AEAA_NXZ 000000018005b220 f i libucrtd:output.obj
 0001:0005a240       ?type_case_u@?$output_processor@_WV?$string_output_adapter@_W@__crt_stdio_output@@V?$positional_parameter_base@_WV?$string_output_adapter@_W@__crt_stdio_output@@@2@@__crt_stdio_output@@AEAA_NXZ 000000018005b240 f i libucrtd:output.obj
 0001:0005a260       ?type_case_u@?$output_processor@_WV?$string_output_adapter@_W@__crt_stdio_output@@V?$standard_base@_WV?$string_output_adapter@_W@__crt_stdio_output@@@2@@__crt_stdio_output@@AEAA_NXZ 000000018005b260 f i libucrtd:output.obj
 0001:0005a280       ?type_case_x@?$output_processor@DV?$stream_output_adapter@D@__crt_stdio_output@@V?$format_validation_base@DV?$stream_output_adapter@D@__crt_stdio_output@@@2@@__crt_stdio_output@@AEAA_NXZ 000000018005b280 f i libucrtd:output.obj
 0001:0005a2a0       ?type_case_x@?$output_processor@DV?$stream_output_adapter@D@__crt_stdio_output@@V?$positional_parameter_base@DV?$stream_output_adapter@D@__crt_stdio_output@@@2@@__crt_stdio_output@@AEAA_NXZ 000000018005b2a0 f i libucrtd:output.obj
 0001:0005a2c0       ?type_case_x@?$output_processor@DV?$stream_output_adapter@D@__crt_stdio_output@@V?$standard_base@DV?$stream_output_adapter@D@__crt_stdio_output@@@2@@__crt_stdio_output@@AEAA_NXZ 000000018005b2c0 f i libucrtd:output.obj
 0001:0005a2e0       ?type_case_x@?$output_processor@DV?$string_output_adapter@D@__crt_stdio_output@@V?$format_validation_base@DV?$string_output_adapter@D@__crt_stdio_output@@@2@@__crt_stdio_output@@AEAA_NXZ 000000018005b2e0 f i libucrtd:output.obj
 0001:0005a300       ?type_case_x@?$output_processor@DV?$string_output_adapter@D@__crt_stdio_output@@V?$positional_parameter_base@DV?$string_output_adapter@D@__crt_stdio_output@@@2@@__crt_stdio_output@@AEAA_NXZ 000000018005b300 f i libucrtd:output.obj
 0001:0005a320       ?type_case_x@?$output_processor@DV?$string_output_adapter@D@__crt_stdio_output@@V?$standard_base@DV?$string_output_adapter@D@__crt_stdio_output@@@2@@__crt_stdio_output@@AEAA_NXZ 000000018005b320 f i libucrtd:output.obj
 0001:0005a340       ?type_case_x@?$output_processor@_WV?$stream_output_adapter@_W@__crt_stdio_output@@V?$format_validation_base@_WV?$stream_output_adapter@_W@__crt_stdio_output@@@2@@__crt_stdio_output@@AEAA_NXZ 000000018005b340 f i libucrtd:output.obj
 0001:0005a360       ?type_case_x@?$output_processor@_WV?$stream_output_adapter@_W@__crt_stdio_output@@V?$positional_parameter_base@_WV?$stream_output_adapter@_W@__crt_stdio_output@@@2@@__crt_stdio_output@@AEAA_NXZ 000000018005b360 f i libucrtd:output.obj
 0001:0005a380       ?type_case_x@?$output_processor@_WV?$stream_output_adapter@_W@__crt_stdio_output@@V?$standard_base@_WV?$stream_output_adapter@_W@__crt_stdio_output@@@2@@__crt_stdio_output@@AEAA_NXZ 000000018005b380 f i libucrtd:output.obj
 0001:0005a3a0       ?type_case_x@?$output_processor@_WV?$string_output_adapter@_W@__crt_stdio_output@@V?$format_validation_base@_WV?$string_output_adapter@_W@__crt_stdio_output@@@2@@__crt_stdio_output@@AEAA_NXZ 000000018005b3a0 f i libucrtd:output.obj
 0001:0005a3c0       ?type_case_x@?$output_processor@_WV?$string_output_adapter@_W@__crt_stdio_output@@V?$positional_parameter_base@_WV?$string_output_adapter@_W@__crt_stdio_output@@@2@@__crt_stdio_output@@AEAA_NXZ 000000018005b3c0 f i libucrtd:output.obj
 0001:0005a3e0       ?type_case_x@?$output_processor@_WV?$string_output_adapter@_W@__crt_stdio_output@@V?$standard_base@_WV?$string_output_adapter@_W@__crt_stdio_output@@@2@@__crt_stdio_output@@AEAA_NXZ 000000018005b3e0 f i libucrtd:output.obj
 0001:0005a400       ?unset_flag@?$output_processor@DV?$stream_output_adapter@D@__crt_stdio_output@@V?$format_validation_base@DV?$stream_output_adapter@D@__crt_stdio_output@@@2@@__crt_stdio_output@@AEAAXI@Z 000000018005b400 f i libucrtd:output.obj
 0001:0005a430       ?unset_flag@?$output_processor@DV?$stream_output_adapter@D@__crt_stdio_output@@V?$positional_parameter_base@DV?$stream_output_adapter@D@__crt_stdio_output@@@2@@__crt_stdio_output@@AEAAXI@Z 000000018005b430 f i libucrtd:output.obj
 0001:0005a460       ?unset_flag@?$output_processor@DV?$stream_output_adapter@D@__crt_stdio_output@@V?$standard_base@DV?$stream_output_adapter@D@__crt_stdio_output@@@2@@__crt_stdio_output@@AEAAXI@Z 000000018005b460 f i libucrtd:output.obj
 0001:0005a490       ?unset_flag@?$output_processor@DV?$string_output_adapter@D@__crt_stdio_output@@V?$format_validation_base@DV?$string_output_adapter@D@__crt_stdio_output@@@2@@__crt_stdio_output@@AEAAXI@Z 000000018005b490 f i libucrtd:output.obj
 0001:0005a4c0       ?unset_flag@?$output_processor@DV?$string_output_adapter@D@__crt_stdio_output@@V?$positional_parameter_base@DV?$string_output_adapter@D@__crt_stdio_output@@@2@@__crt_stdio_output@@AEAAXI@Z 000000018005b4c0 f i libucrtd:output.obj
 0001:0005a4f0       ?unset_flag@?$output_processor@DV?$string_output_adapter@D@__crt_stdio_output@@V?$standard_base@DV?$string_output_adapter@D@__crt_stdio_output@@@2@@__crt_stdio_output@@AEAAXI@Z 000000018005b4f0 f i libucrtd:output.obj
 0001:0005a520       ?unset_flag@?$output_processor@_WV?$stream_output_adapter@_W@__crt_stdio_output@@V?$format_validation_base@_WV?$stream_output_adapter@_W@__crt_stdio_output@@@2@@__crt_stdio_output@@AEAAXI@Z 000000018005b520 f i libucrtd:output.obj
 0001:0005a550       ?unset_flag@?$output_processor@_WV?$stream_output_adapter@_W@__crt_stdio_output@@V?$positional_parameter_base@_WV?$stream_output_adapter@_W@__crt_stdio_output@@@2@@__crt_stdio_output@@AEAAXI@Z 000000018005b550 f i libucrtd:output.obj
 0001:0005a580       ?unset_flag@?$output_processor@_WV?$stream_output_adapter@_W@__crt_stdio_output@@V?$standard_base@_WV?$stream_output_adapter@_W@__crt_stdio_output@@@2@@__crt_stdio_output@@AEAAXI@Z 000000018005b580 f i libucrtd:output.obj
 0001:0005a5b0       ?unset_flag@?$output_processor@_WV?$string_output_adapter@_W@__crt_stdio_output@@V?$format_validation_base@_WV?$string_output_adapter@_W@__crt_stdio_output@@@2@@__crt_stdio_output@@AEAAXI@Z 000000018005b5b0 f i libucrtd:output.obj
 0001:0005a5e0       ?unset_flag@?$output_processor@_WV?$string_output_adapter@_W@__crt_stdio_output@@V?$positional_parameter_base@_WV?$string_output_adapter@_W@__crt_stdio_output@@@2@@__crt_stdio_output@@AEAAXI@Z 000000018005b5e0 f i libucrtd:output.obj
 0001:0005a610       ?unset_flag@?$output_processor@_WV?$string_output_adapter@_W@__crt_stdio_output@@V?$standard_base@_WV?$string_output_adapter@_W@__crt_stdio_output@@@2@@__crt_stdio_output@@AEAAXI@Z 000000018005b610 f i libucrtd:output.obj
 0001:0005a640       ?update_field_width@?$positional_parameter_base@DV?$stream_output_adapter@D@__crt_stdio_output@@@__crt_stdio_output@@IEAA_NXZ 000000018005b640 f i libucrtd:output.obj
 0001:0005a830       ?update_field_width@?$positional_parameter_base@DV?$string_output_adapter@D@__crt_stdio_output@@@__crt_stdio_output@@IEAA_NXZ 000000018005b830 f i libucrtd:output.obj
 0001:0005aa20       ?update_field_width@?$positional_parameter_base@_WV?$stream_output_adapter@_W@__crt_stdio_output@@@__crt_stdio_output@@IEAA_NXZ 000000018005ba20 f i libucrtd:output.obj
 0001:0005ac10       ?update_field_width@?$positional_parameter_base@_WV?$string_output_adapter@_W@__crt_stdio_output@@@__crt_stdio_output@@IEAA_NXZ 000000018005bc10 f i libucrtd:output.obj
 0001:0005ae00       ?update_field_width@?$standard_base@DV?$stream_output_adapter@D@__crt_stdio_output@@@__crt_stdio_output@@IEAA_NXZ 000000018005be00 f i libucrtd:output.obj
 0001:0005ae30       ?update_field_width@?$standard_base@DV?$string_output_adapter@D@__crt_stdio_output@@@__crt_stdio_output@@IEAA_NXZ 000000018005be30 f i libucrtd:output.obj
 0001:0005ae60       ?update_field_width@?$standard_base@_WV?$stream_output_adapter@_W@__crt_stdio_output@@@__crt_stdio_output@@IEAA_NXZ 000000018005be60 f i libucrtd:output.obj
 0001:0005ae90       ?update_field_width@?$standard_base@_WV?$string_output_adapter@_W@__crt_stdio_output@@@__crt_stdio_output@@IEAA_NXZ 000000018005be90 f i libucrtd:output.obj
 0001:0005aec0       ?update_precision@?$positional_parameter_base@DV?$stream_output_adapter@D@__crt_stdio_output@@@__crt_stdio_output@@IEAA_NXZ 000000018005bec0 f i libucrtd:output.obj
 0001:0005b0b0       ?update_precision@?$positional_parameter_base@DV?$string_output_adapter@D@__crt_stdio_output@@@__crt_stdio_output@@IEAA_NXZ 000000018005c0b0 f i libucrtd:output.obj
 0001:0005b2a0       ?update_precision@?$positional_parameter_base@_WV?$stream_output_adapter@_W@__crt_stdio_output@@@__crt_stdio_output@@IEAA_NXZ 000000018005c2a0 f i libucrtd:output.obj
 0001:0005b490       ?update_precision@?$positional_parameter_base@_WV?$string_output_adapter@_W@__crt_stdio_output@@@__crt_stdio_output@@IEAA_NXZ 000000018005c490 f i libucrtd:output.obj
 0001:0005b680       ?update_precision@?$standard_base@DV?$stream_output_adapter@D@__crt_stdio_output@@@__crt_stdio_output@@IEAA_NXZ 000000018005c680 f i libucrtd:output.obj
 0001:0005b6b0       ?update_precision@?$standard_base@DV?$string_output_adapter@D@__crt_stdio_output@@@__crt_stdio_output@@IEAA_NXZ 000000018005c6b0 f i libucrtd:output.obj
 0001:0005b6e0       ?update_precision@?$standard_base@_WV?$stream_output_adapter@_W@__crt_stdio_output@@@__crt_stdio_output@@IEAA_NXZ 000000018005c6e0 f i libucrtd:output.obj
 0001:0005b710       ?update_precision@?$standard_base@_WV?$string_output_adapter@_W@__crt_stdio_output@@@__crt_stdio_output@@IEAA_NXZ 000000018005c710 f i libucrtd:output.obj
 0001:0005b740       ?valid@__crt_stdio_stream@@QEBA_NXZ 000000018005c740 f i libucrtd:output.obj
 0001:0005b770       ?validate@?$stream_output_adapter@D@__crt_stdio_output@@QEBA_NXZ 000000018005c770 f i libucrtd:output.obj
 0001:0005b850       ?validate@?$stream_output_adapter@_W@__crt_stdio_output@@QEBA_NXZ 000000018005c850 f i libucrtd:output.obj
 0001:0005b930       ?validate@?$string_output_adapter@D@__crt_stdio_output@@QEBA_NXZ 000000018005c930 f i libucrtd:output.obj
 0001:0005b9f0       ?validate@?$string_output_adapter@_W@__crt_stdio_output@@QEBA_NXZ 000000018005c9f0 f i libucrtd:output.obj
 0001:0005bab0       ?validate_and_store_parameter_data@?$positional_parameter_base@DV?$stream_output_adapter@D@__crt_stdio_output@@@__crt_stdio_output@@AEAA_NAEAUparameter_data@12@W4parameter_type@12@DW4length_modifier@2@@Z 000000018005cab0 f i libucrtd:output.obj
 0001:0005bbd0       ?validate_and_store_parameter_data@?$positional_parameter_base@DV?$string_output_adapter@D@__crt_stdio_output@@@__crt_stdio_output@@AEAA_NAEAUparameter_data@12@W4parameter_type@12@DW4length_modifier@2@@Z 000000018005cbd0 f i libucrtd:output.obj
 0001:0005bcf0       ?validate_and_store_parameter_data@?$positional_parameter_base@_WV?$stream_output_adapter@_W@__crt_stdio_output@@@__crt_stdio_output@@AEAA_NAEAUparameter_data@12@W4parameter_type@12@_WW4length_modifier@2@@Z 000000018005ccf0 f i libucrtd:output.obj
 0001:0005be10       ?validate_and_store_parameter_data@?$positional_parameter_base@_WV?$string_output_adapter@_W@__crt_stdio_output@@@__crt_stdio_output@@AEAA_NAEAUparameter_data@12@W4parameter_type@12@_WW4length_modifier@2@@Z 000000018005ce10 f i libucrtd:output.obj
 0001:0005bf30       ?validate_and_update_state_at_beginning_of_format_character@?$positional_parameter_base@DV?$stream_output_adapter@D@__crt_stdio_output@@@__crt_stdio_output@@IEAA_NXZ 000000018005cf30 f i libucrtd:output.obj
 0001:0005c210       ?validate_and_update_state_at_beginning_of_format_character@?$positional_parameter_base@DV?$string_output_adapter@D@__crt_stdio_output@@@__crt_stdio_output@@IEAA_NXZ 000000018005d210 f i libucrtd:output.obj
 0001:0005c4f0       ?validate_and_update_state_at_beginning_of_format_character@?$positional_parameter_base@_WV?$stream_output_adapter@_W@__crt_stdio_output@@@__crt_stdio_output@@IEAA_NXZ 000000018005d4f0 f i libucrtd:output.obj
 0001:0005c7d0       ?validate_and_update_state_at_beginning_of_format_character@?$positional_parameter_base@_WV?$string_output_adapter@_W@__crt_stdio_output@@@__crt_stdio_output@@IEAA_NXZ 000000018005d7d0 f i libucrtd:output.obj
 0001:0005cab0       ?validate_and_update_state_at_beginning_of_format_character@?$standard_base@DV?$stream_output_adapter@D@__crt_stdio_output@@@__crt_stdio_output@@IEAA_NXZ 000000018005dab0 f i libucrtd:output.obj
 0001:0005cac0       ?validate_and_update_state_at_beginning_of_format_character@?$standard_base@DV?$string_output_adapter@D@__crt_stdio_output@@@__crt_stdio_output@@IEAA_NXZ 000000018005dac0 f i libucrtd:output.obj
 0001:0005cad0       ?validate_and_update_state_at_beginning_of_format_character@?$standard_base@_WV?$stream_output_adapter@_W@__crt_stdio_output@@@__crt_stdio_output@@IEAA_NXZ 000000018005dad0 f i libucrtd:output.obj
 0001:0005cae0       ?validate_and_update_state_at_beginning_of_format_character@?$standard_base@_WV?$string_output_adapter@_W@__crt_stdio_output@@@__crt_stdio_output@@IEAA_NXZ 000000018005dae0 f i libucrtd:output.obj
 0001:0005caf0       ?validate_and_update_state_at_end_of_format_string@?$format_validation_base@DV?$stream_output_adapter@D@__crt_stdio_output@@@__crt_stdio_output@@IEBA_NXZ 000000018005daf0 f i libucrtd:output.obj
 0001:0005cbb0       ?validate_and_update_state_at_end_of_format_string@?$format_validation_base@DV?$string_output_adapter@D@__crt_stdio_output@@@__crt_stdio_output@@IEBA_NXZ 000000018005dbb0 f i libucrtd:output.obj
 0001:0005cc70       ?validate_and_update_state_at_end_of_format_string@?$format_validation_base@_WV?$stream_output_adapter@_W@__crt_stdio_output@@@__crt_stdio_output@@IEBA_NXZ 000000018005dc70 f i libucrtd:output.obj
 0001:0005cd30       ?validate_and_update_state_at_end_of_format_string@?$format_validation_base@_WV?$string_output_adapter@_W@__crt_stdio_output@@@__crt_stdio_output@@IEBA_NXZ 000000018005dd30 f i libucrtd:output.obj
 0001:0005cdf0       ?validate_and_update_state_at_end_of_format_string@?$positional_parameter_base@DV?$stream_output_adapter@D@__crt_stdio_output@@@__crt_stdio_output@@IEAA_NXZ 000000018005ddf0 f i libucrtd:output.obj
 0001:0005cfe0       ?validate_and_update_state_at_end_of_format_string@?$positional_parameter_base@DV?$string_output_adapter@D@__crt_stdio_output@@@__crt_stdio_output@@IEAA_NXZ 000000018005dfe0 f i libucrtd:output.obj
 0001:0005d1d0       ?validate_and_update_state_at_end_of_format_string@?$positional_parameter_base@_WV?$stream_output_adapter@_W@__crt_stdio_output@@@__crt_stdio_output@@IEAA_NXZ 000000018005e1d0 f i libucrtd:output.obj
 0001:0005d3c0       ?validate_and_update_state_at_end_of_format_string@?$positional_parameter_base@_WV?$string_output_adapter@_W@__crt_stdio_output@@@__crt_stdio_output@@IEAA_NXZ 000000018005e3c0 f i libucrtd:output.obj
 0001:0005d5b0       ?validate_and_update_state_at_end_of_format_string@?$standard_base@DV?$stream_output_adapter@D@__crt_stdio_output@@@__crt_stdio_output@@IEBA_NXZ 000000018005e5b0 f i libucrtd:output.obj
 0001:0005d5c0       ?validate_and_update_state_at_end_of_format_string@?$standard_base@DV?$string_output_adapter@D@__crt_stdio_output@@@__crt_stdio_output@@IEBA_NXZ 000000018005e5c0 f i libucrtd:output.obj
 0001:0005d5d0       ?validate_and_update_state_at_end_of_format_string@?$standard_base@_WV?$stream_output_adapter@_W@__crt_stdio_output@@@__crt_stdio_output@@IEBA_NXZ 000000018005e5d0 f i libucrtd:output.obj
 0001:0005d5e0       ?validate_and_update_state_at_end_of_format_string@?$standard_base@_WV?$string_output_adapter@_W@__crt_stdio_output@@@__crt_stdio_output@@IEBA_NXZ 000000018005e5e0 f i libucrtd:output.obj
 0001:0005d5f0       ?validate_state_for_type_case_a@?$positional_parameter_base@DV?$stream_output_adapter@D@__crt_stdio_output@@@__crt_stdio_output@@IEAA_NXZ 000000018005e5f0 f i libucrtd:output.obj
 0001:0005d730       ?validate_state_for_type_case_a@?$positional_parameter_base@DV?$string_output_adapter@D@__crt_stdio_output@@@__crt_stdio_output@@IEAA_NXZ 000000018005e730 f i libucrtd:output.obj
 0001:0005d870       ?validate_state_for_type_case_a@?$positional_parameter_base@_WV?$stream_output_adapter@_W@__crt_stdio_output@@@__crt_stdio_output@@IEAA_NXZ 000000018005e870 f i libucrtd:output.obj
 0001:0005d9b0       ?validate_state_for_type_case_a@?$positional_parameter_base@_WV?$string_output_adapter@_W@__crt_stdio_output@@@__crt_stdio_output@@IEAA_NXZ 000000018005e9b0 f i libucrtd:output.obj
 0001:0005daf0       ?validate_state_for_type_case_a@?$standard_base@DV?$stream_output_adapter@D@__crt_stdio_output@@@__crt_stdio_output@@IEBA_NXZ 000000018005eaf0 f i libucrtd:output.obj
 0001:0005db00       ?validate_state_for_type_case_a@?$standard_base@DV?$string_output_adapter@D@__crt_stdio_output@@@__crt_stdio_output@@IEBA_NXZ 000000018005eb00 f i libucrtd:output.obj
 0001:0005db10       ?validate_state_for_type_case_a@?$standard_base@_WV?$stream_output_adapter@_W@__crt_stdio_output@@@__crt_stdio_output@@IEBA_NXZ 000000018005eb10 f i libucrtd:output.obj
 0001:0005db20       ?validate_state_for_type_case_a@?$standard_base@_WV?$string_output_adapter@_W@__crt_stdio_output@@@__crt_stdio_output@@IEBA_NXZ 000000018005eb20 f i libucrtd:output.obj
 0001:0005db30       ?validate_stream_is_ansi_if_required@?$__acrt_stdio_char_traits@D@@SA_NQEAU_iobuf@@@Z 000000018005eb30 f i libucrtd:output.obj
 0001:0005dcc0       ?validate_stream_is_ansi_if_required@?$__acrt_stdio_char_traits@_W@@SA_NQEAU_iobuf@@@Z 000000018005ecc0 f i libucrtd:output.obj
 0001:0005dcd0       ?wide_null_string@?$output_processor@DV?$stream_output_adapter@D@__crt_stdio_output@@V?$format_validation_base@DV?$stream_output_adapter@D@__crt_stdio_output@@@2@@__crt_stdio_output@@CAPEA_WXZ 000000018005ecd0 f i libucrtd:output.obj
 0001:0005dce0       ?wide_null_string@?$output_processor@DV?$stream_output_adapter@D@__crt_stdio_output@@V?$positional_parameter_base@DV?$stream_output_adapter@D@__crt_stdio_output@@@2@@__crt_stdio_output@@CAPEA_WXZ 000000018005ece0 f i libucrtd:output.obj
 0001:0005dcf0       ?wide_null_string@?$output_processor@DV?$stream_output_adapter@D@__crt_stdio_output@@V?$standard_base@DV?$stream_output_adapter@D@__crt_stdio_output@@@2@@__crt_stdio_output@@CAPEA_WXZ 000000018005ecf0 f i libucrtd:output.obj
 0001:0005dd00       ?wide_null_string@?$output_processor@DV?$string_output_adapter@D@__crt_stdio_output@@V?$format_validation_base@DV?$string_output_adapter@D@__crt_stdio_output@@@2@@__crt_stdio_output@@CAPEA_WXZ 000000018005ed00 f i libucrtd:output.obj
 0001:0005dd10       ?wide_null_string@?$output_processor@DV?$string_output_adapter@D@__crt_stdio_output@@V?$positional_parameter_base@DV?$string_output_adapter@D@__crt_stdio_output@@@2@@__crt_stdio_output@@CAPEA_WXZ 000000018005ed10 f i libucrtd:output.obj
 0001:0005dd20       ?wide_null_string@?$output_processor@DV?$string_output_adapter@D@__crt_stdio_output@@V?$standard_base@DV?$string_output_adapter@D@__crt_stdio_output@@@2@@__crt_stdio_output@@CAPEA_WXZ 000000018005ed20 f i libucrtd:output.obj
 0001:0005dd30       ?wide_null_string@?$output_processor@_WV?$stream_output_adapter@_W@__crt_stdio_output@@V?$format_validation_base@_WV?$stream_output_adapter@_W@__crt_stdio_output@@@2@@__crt_stdio_output@@CAPEA_WXZ 000000018005ed30 f i libucrtd:output.obj
 0001:0005dd40       ?wide_null_string@?$output_processor@_WV?$stream_output_adapter@_W@__crt_stdio_output@@V?$positional_parameter_base@_WV?$stream_output_adapter@_W@__crt_stdio_output@@@2@@__crt_stdio_output@@CAPEA_WXZ 000000018005ed40 f i libucrtd:output.obj
 0001:0005dd50       ?wide_null_string@?$output_processor@_WV?$stream_output_adapter@_W@__crt_stdio_output@@V?$standard_base@_WV?$stream_output_adapter@_W@__crt_stdio_output@@@2@@__crt_stdio_output@@CAPEA_WXZ 000000018005ed50 f i libucrtd:output.obj
 0001:0005dd60       ?wide_null_string@?$output_processor@_WV?$string_output_adapter@_W@__crt_stdio_output@@V?$format_validation_base@_WV?$string_output_adapter@_W@__crt_stdio_output@@@2@@__crt_stdio_output@@CAPEA_WXZ 000000018005ed60 f i libucrtd:output.obj
 0001:0005dd70       ?wide_null_string@?$output_processor@_WV?$string_output_adapter@_W@__crt_stdio_output@@V?$positional_parameter_base@_WV?$string_output_adapter@_W@__crt_stdio_output@@@2@@__crt_stdio_output@@CAPEA_WXZ 000000018005ed70 f i libucrtd:output.obj
 0001:0005dd80       ?wide_null_string@?$output_processor@_WV?$string_output_adapter@_W@__crt_stdio_output@@V?$standard_base@_WV?$string_output_adapter@_W@__crt_stdio_output@@@2@@__crt_stdio_output@@CAPEA_WXZ 000000018005ed80 f i libucrtd:output.obj
 0001:0005dd90       ?write_character@?$output_adapter_common@DV?$stream_output_adapter@D@__crt_stdio_output@@@__crt_stdio_output@@QEBAXDQEAH@Z 000000018005ed90 f i libucrtd:output.obj
 0001:0005dde0       ?write_character@?$output_adapter_common@_WV?$stream_output_adapter@_W@__crt_stdio_output@@@__crt_stdio_output@@QEBAX_WQEAH@Z 000000018005ede0 f i libucrtd:output.obj
 0001:0005de30       ?write_character@?$string_output_adapter@D@__crt_stdio_output@@QEBA_NDQEAH@Z 000000018005ee30 f i libucrtd:output.obj
 0001:0005def0       ?write_character@?$string_output_adapter@_W@__crt_stdio_output@@QEBA_N_WQEAH@Z 000000018005eef0 f i libucrtd:output.obj
 0001:0005dfb0       ?write_character_without_count_update@?$stream_output_adapter@D@__crt_stdio_output@@QEBA_ND@Z 000000018005efb0 f i libucrtd:output.obj
 0001:0005e030       ?write_character_without_count_update@?$stream_output_adapter@_W@__crt_stdio_output@@QEBA_N_W@Z 000000018005f030 f i libucrtd:output.obj
 0001:0005e0c0       ?write_stored_string_tchar@?$output_processor@DV?$stream_output_adapter@D@__crt_stdio_output@@V?$format_validation_base@DV?$stream_output_adapter@D@__crt_stdio_output@@@2@@__crt_stdio_output@@AEAA_ND@Z 000000018005f0c0 f i libucrtd:output.obj
 0001:0005e280       ?write_stored_string_tchar@?$output_processor@DV?$stream_output_adapter@D@__crt_stdio_output@@V?$positional_parameter_base@DV?$stream_output_adapter@D@__crt_stdio_output@@@2@@__crt_stdio_output@@AEAA_ND@Z 000000018005f280 f i libucrtd:output.obj
 0001:0005e440       ?write_stored_string_tchar@?$output_processor@DV?$stream_output_adapter@D@__crt_stdio_output@@V?$standard_base@DV?$stream_output_adapter@D@__crt_stdio_output@@@2@@__crt_stdio_output@@AEAA_ND@Z 000000018005f440 f i libucrtd:output.obj
 0001:0005e600       ?write_stored_string_tchar@?$output_processor@DV?$string_output_adapter@D@__crt_stdio_output@@V?$format_validation_base@DV?$string_output_adapter@D@__crt_stdio_output@@@2@@__crt_stdio_output@@AEAA_ND@Z 000000018005f600 f i libucrtd:output.obj
 0001:0005e7c0       ?write_stored_string_tchar@?$output_processor@DV?$string_output_adapter@D@__crt_stdio_output@@V?$positional_parameter_base@DV?$string_output_adapter@D@__crt_stdio_output@@@2@@__crt_stdio_output@@AEAA_ND@Z 000000018005f7c0 f i libucrtd:output.obj
 0001:0005e980       ?write_stored_string_tchar@?$output_processor@DV?$string_output_adapter@D@__crt_stdio_output@@V?$standard_base@DV?$string_output_adapter@D@__crt_stdio_output@@@2@@__crt_stdio_output@@AEAA_ND@Z 000000018005f980 f i libucrtd:output.obj
 0001:0005eb40       ?write_stored_string_tchar@?$output_processor@_WV?$stream_output_adapter@_W@__crt_stdio_output@@V?$format_validation_base@_WV?$stream_output_adapter@_W@__crt_stdio_output@@@2@@__crt_stdio_output@@AEAA_N_W@Z 000000018005fb40 f i libucrtd:output.obj
 0001:0005ec90       ?write_stored_string_tchar@?$output_processor@_WV?$stream_output_adapter@_W@__crt_stdio_output@@V?$positional_parameter_base@_WV?$stream_output_adapter@_W@__crt_stdio_output@@@2@@__crt_stdio_output@@AEAA_N_W@Z 000000018005fc90 f i libucrtd:output.obj
 0001:0005ede0       ?write_stored_string_tchar@?$output_processor@_WV?$stream_output_adapter@_W@__crt_stdio_output@@V?$standard_base@_WV?$stream_output_adapter@_W@__crt_stdio_output@@@2@@__crt_stdio_output@@AEAA_N_W@Z 000000018005fde0 f i libucrtd:output.obj
 0001:0005ef30       ?write_stored_string_tchar@?$output_processor@_WV?$string_output_adapter@_W@__crt_stdio_output@@V?$format_validation_base@_WV?$string_output_adapter@_W@__crt_stdio_output@@@2@@__crt_stdio_output@@AEAA_N_W@Z 000000018005ff30 f i libucrtd:output.obj
 0001:0005f080       ?write_stored_string_tchar@?$output_processor@_WV?$string_output_adapter@_W@__crt_stdio_output@@V?$positional_parameter_base@_WV?$string_output_adapter@_W@__crt_stdio_output@@@2@@__crt_stdio_output@@AEAA_N_W@Z 0000000180060080 f i libucrtd:output.obj
 0001:0005f1d0       ?write_stored_string_tchar@?$output_processor@_WV?$string_output_adapter@_W@__crt_stdio_output@@V?$standard_base@_WV?$string_output_adapter@_W@__crt_stdio_output@@@2@@__crt_stdio_output@@AEAA_N_W@Z 00000001800601d0 f i libucrtd:output.obj
 0001:0005f320       ?write_string@?$stream_output_adapter@D@__crt_stdio_output@@QEBAXQEBDHQEAHAEAV__crt_deferred_errno_cache@@@Z 0000000180060320 f i libucrtd:output.obj
 0001:0005f3a0       ?write_string@?$stream_output_adapter@_W@__crt_stdio_output@@QEBAXQEB_WHQEAHAEAV__crt_deferred_errno_cache@@@Z 00000001800603a0 f i libucrtd:output.obj
 0001:0005f420       ?write_string@?$string_output_adapter@D@__crt_stdio_output@@QEBAXQEBDHQEAHAEAV__crt_deferred_errno_cache@@@Z 0000000180060420 f i libucrtd:output.obj
 0001:0005f590       ?write_string@?$string_output_adapter@_W@__crt_stdio_output@@QEBAXQEB_WHQEAHAEAV__crt_deferred_errno_cache@@@Z 0000000180060590 f i libucrtd:output.obj
 0001:0005f700       ?write_string_impl@?$output_adapter_common@DV?$stream_output_adapter@D@__crt_stdio_output@@@__crt_stdio_output@@IEBAXQEBDHQEAHAEAV__crt_deferred_errno_cache@@@Z 0000000180060700 f i libucrtd:output.obj
 0001:0005f7e0       ?write_string_impl@?$output_adapter_common@_WV?$stream_output_adapter@_W@__crt_stdio_output@@@__crt_stdio_output@@IEBAXQEB_WHQEAHAEAV__crt_deferred_errno_cache@@@Z 00000001800607e0 f i libucrtd:output.obj
 0001:0005f8c0       __acrt_disable_global_locale_sync 00000001800608c0 f i libucrtd:output.obj
 0001:0005f8f0       __acrt_enable_global_locale_sync 00000001800608f0 f i libucrtd:output.obj
 0001:0005f920       __acrt_isleadbyte_l_noupdate 0000000180060920 f i libucrtd:output.obj
 0001:0005f950       __acrt_locale_changed      0000000180060950 f i libucrtd:output.obj
 0001:0005f980       __acrt_locale_get_ctype_array_value 0000000180060980 f i libucrtd:output.obj
 0001:0005f9c0       __stdio_common_vfprintf    00000001800609c0 f   libucrtd:output.obj
 0001:0005fa00       __stdio_common_vfprintf_p  0000000180060a00 f   libucrtd:output.obj
 0001:0005fa40       __stdio_common_vfprintf_s  0000000180060a40 f   libucrtd:output.obj
 0001:0005fa80       __stdio_common_vfwprintf   0000000180060a80 f   libucrtd:output.obj
 0001:0005fac0       __stdio_common_vfwprintf_p 0000000180060ac0 f   libucrtd:output.obj
 0001:0005fb00       __stdio_common_vfwprintf_s 0000000180060b00 f   libucrtd:output.obj
 0001:0005fb40       __stdio_common_vsnprintf_s 0000000180060b40 f   libucrtd:output.obj
 0001:0005fba0       __stdio_common_vsnwprintf_s 0000000180060ba0 f   libucrtd:output.obj
 0001:0005fc00       __stdio_common_vsprintf    0000000180060c00 f   libucrtd:output.obj
 0001:0005fc50       __stdio_common_vsprintf_p  0000000180060c50 f   libucrtd:output.obj
 0001:0005fca0       __stdio_common_vsprintf_s  0000000180060ca0 f   libucrtd:output.obj
 0001:0005fcf0       __stdio_common_vswprintf   0000000180060cf0 f   libucrtd:output.obj
 0001:0005fd40       __stdio_common_vswprintf_p 0000000180060d40 f   libucrtd:output.obj
 0001:0005fd90       __stdio_common_vswprintf_s 0000000180060d90 f   libucrtd:output.obj
 0001:0005fde0       _ctype_fast_check_internal 0000000180060de0 f i libucrtd:output.obj
 0001:0005fe10       _isdigit_fast_internal     0000000180060e10 f i libucrtd:output.obj
 0001:0005fe40       _tolower_fast_internal     0000000180060e40 f i libucrtd:output.obj
 0001:0005fe70       ??$__crt_fast_decode_pointer@P6AXPEB_W00I_K@Z@@YAP6AXPEB_W00I_K@ZQ6AX000I1@Z@Z 0000000180060e70 f i libucrtd:invalid_parameter.obj
 0001:0005feb0       ??$__crt_fast_encode_pointer@P6AXPEB_W00I_K@Z@@YAP6AXPEB_W00I_K@ZQ6AX000I1@Z@Z 0000000180060eb0 f i libucrtd:invalid_parameter.obj
 0001:0005fef0       ??$initialize_from_array@$$BY00Q6AXPEB_W00I_K@Z@?$dual_state_global@P6AXPEB_W00I_K@Z@__crt_state_management@@QEAAXAEAY00Q6AXPEB_W00I_K@Z@Z 0000000180060ef0 f i libucrtd:invalid_parameter.obj
 0001:0005ff50       ?__crt_rotate_pointer_value@@YA_K_KH@Z 0000000180060f50 f i libucrtd:invalid_parameter.obj
 0001:00060010       ?dangerous_get_state_array@?$dual_state_global@P6AXPEB_W00I_K@Z@__crt_state_management@@QEAAPEAP6AXPEB_W00I_K@ZXZ 0000000180061010 f i libucrtd:invalid_parameter.obj
 0001:00060020       ?get_current_state_index@__crt_state_management@@YA_KXZ 0000000180061020 f i libucrtd:invalid_parameter.obj
 0001:00060030       ?value@?$dual_state_global@P6AXPEB_W00I_K@Z@__crt_state_management@@QEAAAEAP6AXPEB_W00I_K@ZXZ 0000000180061030 f i libucrtd:invalid_parameter.obj
 0001:00060050       __acrt_call_reportfault    0000000180061050 f   libucrtd:invalid_parameter.obj
 0001:00060180       __acrt_initialize_invalid_parameter_handler 0000000180061180 f   libucrtd:invalid_parameter.obj
 0001:000601b0       _get_invalid_parameter_handler 00000001800611b0 f   libucrtd:invalid_parameter.obj
 0001:000601d0       _get_thread_local_invalid_parameter_handler 00000001800611d0 f   libucrtd:invalid_parameter.obj
 0001:00060200       _invalid_parameter         0000000180061200 f   libucrtd:invalid_parameter.obj
 0001:00060300       _invalid_parameter_noinfo  0000000180061300 f   libucrtd:invalid_parameter.obj
 0001:00060330       _invalid_parameter_noinfo_noreturn 0000000180061330 f   libucrtd:invalid_parameter.obj
 0001:00060370       _invoke_watson             0000000180061370 f   libucrtd:invalid_parameter.obj
 0001:000603d0       _set_invalid_parameter_handler 00000001800613d0 f   libucrtd:invalid_parameter.obj
 0001:00060420       _set_thread_local_invalid_parameter_handler 0000000180061420 f   libucrtd:invalid_parameter.obj
 0001:00060460       __acrt_errno_from_os_error 0000000180061460 f   libucrtd:errno.obj
 0001:000604f0       __acrt_errno_map_os_error  00000001800614f0 f   libucrtd:errno.obj
 0001:00060520       __doserrno                 0000000180061520 f   libucrtd:errno.obj
 0001:00060550       _errno                     0000000180061550 f   libucrtd:errno.obj
 0001:00060580       _get_doserrno              0000000180061580 f   libucrtd:errno.obj
 0001:00060640       _get_errno                 0000000180061640 f   libucrtd:errno.obj
 0001:00060700       _set_doserrno              0000000180061700 f   libucrtd:errno.obj
 0001:00060740       _set_errno                 0000000180061740 f   libucrtd:errno.obj
 0001:00060780       _recalloc                  0000000180061780 f   libucrtd:recalloc.obj
 0001:000607d0       _recalloc_base             00000001800617d0 f   libucrtd:recalloc.obj
 0001:00060f30       wcscat_s                   0000000180061f30 f   libucrtd:wcscat_s.obj
 0001:00061600       wcsncpy_s                  0000000180062600 f   libucrtd:wcsncpy_s.obj
 0001:000616b0       _seh_filter_dll            00000001800626b0 f   libucrtd:exception_filter.obj
 0001:000616e0       _seh_filter_exe            00000001800626e0 f   libucrtd:exception_filter.obj
 0001:00061980       ??$?B$$A6AXPEAXK0@Z@__crt_fast_encoded_nullptr_t@@QEBAP6AXPEAXK0@ZXZ 0000000180062980 f i libucrtd:exit.obj
 0001:00061a30       ??$__crt_fast_decode_pointer@P6AXPEAXK0@Z@@YAP6AXPEAXK0@ZQ6AX0K0@Z@Z 0000000180062a30 f i libucrtd:exit.obj
 0001:00061a70       ??$__crt_fast_encode_pointer@P6AXPEAXK0@Z@@YAP6AXPEAXK0@ZQ6AX0K0@Z@Z 0000000180062a70 f i libucrtd:exit.obj
 0001:00061ab0       ??$__crt_get_proc_address@P6AXI@Z@@YAP6AXI@ZQEAUHINSTANCE__@@QEBD@Z 0000000180062ab0 f i libucrtd:exit.obj
 0001:00061b70       ??0?$__crt_unique_handle_t@U__crt_hmodule_traits@@@@QEAA@QEAUHINSTANCE__@@@Z 0000000180062b70 f i libucrtd:exit.obj
 0001:00061b90       ??1?$__crt_unique_handle_t@U__crt_hmodule_traits@@@@QEAA@XZ 0000000180062b90 f i libucrtd:exit.obj
 0001:00061cf0       ?__acrt_select_exit_lock@@YA?AW4__acrt_lock_id@@XZ 0000000180062cf0 f i libucrtd:exit.obj
 0001:00061d00       ?__crt_fast_encode_pointer@@YA?AU__crt_fast_encoded_nullptr_t@@$$T@Z 0000000180062d00 f i libucrtd:exit.obj
 0001:00061d40       ?close@?$__crt_unique_handle_t@U__crt_hmodule_traits@@@@QEAAXXZ 0000000180062d40 f i libucrtd:exit.obj
 0001:00061d80       ?close@__crt_hmodule_traits@@SA_NPEAUHINSTANCE__@@@Z 0000000180062d80 f i libucrtd:exit.obj
 0001:00061e90       ?get@?$__crt_unique_handle_t@U__crt_hmodule_traits@@@@QEBAPEAUHINSTANCE__@@XZ 0000000180062e90 f i libucrtd:exit.obj
 0001:00061ea0       ?get_address_of@?$__crt_unique_handle_t@U__crt_hmodule_traits@@@@QEAAPEAPEAUHINSTANCE__@@XZ 0000000180062ea0 f i libucrtd:exit.obj
 0001:00061eb0       ?get_invalid_value@__crt_hmodule_traits@@SAPEAUHINSTANCE__@@XZ 0000000180062eb0 f i libucrtd:exit.obj
 0001:00062070       _Exit                      0000000180063070 f   libucrtd:exit.obj
 0001:00062090       __acrt_initialize_thread_local_exit_callback 0000000180063090 f   libucrtd:exit.obj
 0001:000620b0       _c_exit                    00000001800630b0 f   libucrtd:exit.obj
 0001:000620d0       _cexit                     00000001800630d0 f   libucrtd:exit.obj
 0001:000620f0       _exit                      00000001800630f0 f   libucrtd:exit.obj
 0001:00062110       _is_c_termination_complete 0000000180063110 f   libucrtd:exit.obj
 0001:00062130       _register_thread_local_exe_atexit_callback 0000000180063130 f   libucrtd:exit.obj
 0001:00062180       exit                       0000000180063180 f   libucrtd:exit.obj
 0001:000621a0       quick_exit                 00000001800631a0 f   libucrtd:exit.obj
 0001:000621c0       ??$?RE@__crt_internal_free_policy@@QEBAXQEBE@Z 00000001800631c0 f i libucrtd:argv_parsing.obj
 0001:000621f0       ??$?RPEAD@__crt_internal_free_policy@@QEBAXQEBQEAD@Z 00000001800631f0 f i libucrtd:argv_parsing.obj
 0001:00062220       ??$?RPEA_W@__crt_internal_free_policy@@QEBAXQEBQEA_W@Z 0000000180063220 f i libucrtd:argv_parsing.obj
 0001:00062970       ??$get_module_file_name@$$TAEAY0BAF@DH@?$__crt_char_traits@D@@SAK$$QEA$$TAEAY0BAF@D$$QEAH@Z 0000000180063970 f i libucrtd:argv_parsing.obj
 0001:000629b0       ??$get_module_file_name@$$TAEAY0BAF@_WH@?$__crt_char_traits@_W@@SAK$$QEA$$TAEAY0BAF@_W$$QEAH@Z 00000001800639b0 f i libucrtd:argv_parsing.obj
 0001:00063360       ??$set_program_name@PEAD@?$__crt_char_traits@D@@SAX$$QEAPEAD@Z 0000000180064360 f i libucrtd:argv_parsing.obj
 0001:00063380       ??$set_program_name@PEA_W@?$__crt_char_traits@_W@@SAX$$QEAPEA_W@Z 0000000180064380 f i libucrtd:argv_parsing.obj
 0001:000633e0       ??0?$__crt_unique_heap_ptr@EU__crt_internal_free_policy@@@@QEAA@QEAE@Z 00000001800643e0 f i libucrtd:argv_parsing.obj
 0001:00063400       ??0?$__crt_unique_heap_ptr@PEADU__crt_internal_free_policy@@@@QEAA@QEAPEAD@Z 0000000180064400 f i libucrtd:argv_parsing.obj
 0001:00063420       ??0?$__crt_unique_heap_ptr@PEA_WU__crt_internal_free_policy@@@@QEAA@QEAPEA_W@Z 0000000180064420 f i libucrtd:argv_parsing.obj
 0001:00063440       ??1?$__crt_unique_heap_ptr@EU__crt_internal_free_policy@@@@QEAA@XZ 0000000180064440 f i libucrtd:argv_parsing.obj
 0001:00063460       ??1?$__crt_unique_heap_ptr@PEADU__crt_internal_free_policy@@@@QEAA@XZ 0000000180064460 f i libucrtd:argv_parsing.obj
 0001:00063480       ??1?$__crt_unique_heap_ptr@PEA_WU__crt_internal_free_policy@@@@QEAA@XZ 0000000180064480 f i libucrtd:argv_parsing.obj
 0001:000634a0       ??B?$__crt_unique_heap_ptr@EU__crt_internal_free_policy@@@@QEBA_NXZ 00000001800644a0 f i libucrtd:argv_parsing.obj
 0001:00063580       ?detach@?$__crt_unique_heap_ptr@EU__crt_internal_free_policy@@@@QEAAPEAEXZ 0000000180064580 f i libucrtd:argv_parsing.obj
 0001:000635b0       ?detach@?$__crt_unique_heap_ptr@PEADU__crt_internal_free_policy@@@@QEAAPEAPEADXZ 00000001800645b0 f i libucrtd:argv_parsing.obj
 0001:000635e0       ?detach@?$__crt_unique_heap_ptr@PEA_WU__crt_internal_free_policy@@@@QEAAPEAPEA_WXZ 00000001800645e0 f i libucrtd:argv_parsing.obj
 0001:000636a0       ?get@?$__crt_unique_heap_ptr@EU__crt_internal_free_policy@@@@QEBAPEAEXZ 00000001800646a0 f i libucrtd:argv_parsing.obj
 0001:000636b0       ?get@?$__crt_unique_heap_ptr@PEADU__crt_internal_free_policy@@@@QEBAPEAPEADXZ 00000001800646b0 f i libucrtd:argv_parsing.obj
 0001:000636c0       ?get@?$__crt_unique_heap_ptr@PEA_WU__crt_internal_free_policy@@@@QEBAPEAPEA_WXZ 00000001800646c0 f i libucrtd:argv_parsing.obj
 0001:000636d0       ?get_address_of@?$__crt_unique_heap_ptr@PEADU__crt_internal_free_policy@@@@QEAAPEAPEAPEADXZ 00000001800646d0 f i libucrtd:argv_parsing.obj
 0001:000636e0       ?get_address_of@?$__crt_unique_heap_ptr@PEA_WU__crt_internal_free_policy@@@@QEAAPEAPEAPEA_WXZ 00000001800646e0 f i libucrtd:argv_parsing.obj
 0001:00063730       ?is_valid@?$__crt_unique_heap_ptr@EU__crt_internal_free_policy@@@@QEBA_NXZ 0000000180064730 f i libucrtd:argv_parsing.obj
 0001:00063760       ?release@?$__crt_unique_heap_ptr@EU__crt_internal_free_policy@@@@QEAAXXZ 0000000180064760 f i libucrtd:argv_parsing.obj
 0001:00063790       ?release@?$__crt_unique_heap_ptr@PEADU__crt_internal_free_policy@@@@QEAAXXZ 0000000180064790 f i libucrtd:argv_parsing.obj
 0001:000637c0       ?release@?$__crt_unique_heap_ptr@PEA_WU__crt_internal_free_policy@@@@QEAAXXZ 00000001800647c0 f i libucrtd:argv_parsing.obj
 0001:00063840       __acrt_allocate_buffer_for_argv 0000000180064840 f   libucrtd:argv_parsing.obj
 0001:00063960       _configure_narrow_argv     0000000180064960 f   libucrtd:argv_parsing.obj
 0001:00063980       _configure_wide_argv       0000000180064980 f   libucrtd:argv_parsing.obj
 0001:000639a0       _set_pgmptr                00000001800649a0 f i libucrtd:argv_parsing.obj
 0001:000639c0       _set_wpgmptr               00000001800649c0 f i libucrtd:argv_parsing.obj
 0001:000639d4       ??$?R_W@__crt_internal_free_policy@@QEBAXQEB_W@Z 00000001800649d4 f i libucrtd:environment_initialization.obj
 0001:00063fac       ??$get_environment_from_os@$$V@?$__crt_char_traits@D@@SAPEADXZ 0000000180064fac f i libucrtd:environment_initialization.obj
 0001:00063fb4       ??$get_environment_from_os@$$V@?$__crt_char_traits@_W@@SAPEA_WXZ 0000000180064fb4 f i libucrtd:environment_initialization.obj
 0001:00064184       ??$set_variable_in_environment_nolock@PEADH@?$__crt_char_traits@D@@SAH$$QEAPEAD$$QEAH@Z 0000000180065184 f i libucrtd:environment_initialization.obj
 0001:00064190       ??$set_variable_in_environment_nolock@PEA_WH@?$__crt_char_traits@_W@@SAH$$QEAPEA_W$$QEAH@Z 0000000180065190 f i libucrtd:environment_initialization.obj
 0001:0006419c       ??$tcscpy_s@PEADAEB_KAEAPEAD@?$__crt_char_traits@D@@SAH$$QEAPEADAEB_KAEAPEAD@Z 000000018006519c f i libucrtd:environment_initialization.obj
 0001:000641ac       ??$tcscpy_s@PEA_WAEB_KAEAPEA_W@?$__crt_char_traits@_W@@SAH$$QEAPEA_WAEB_KAEAPEA_W@Z 00000001800651ac f i libucrtd:environment_initialization.obj
 0001:000641bc       ??$tcslen@AEAPEAD@?$__crt_char_traits@D@@SA_KAEAPEAD@Z 00000001800651bc f i libucrtd:environment_initialization.obj
 0001:000641d0       ??$tcslen@AEAPEA_W@?$__crt_char_traits@_W@@SA_KAEAPEA_W@Z 00000001800651d0 f i libucrtd:environment_initialization.obj
 0001:000641e4       ??$uninitialize@A6AXAEAPEAPEAD@Z@?$dual_state_global@PEAPEAD@__crt_state_management@@QEAAXA6AXAEAPEAPEAD@Z@Z 00000001800651e4 f i libucrtd:environment_initialization.obj
 0001:00064228       ??$uninitialize@A6AXAEAPEAPEA_W@Z@?$dual_state_global@PEAPEA_W@__crt_state_management@@QEAAXA6AXAEAPEAPEA_W@Z@Z 0000000180065228 f i libucrtd:environment_initialization.obj
 0001:000642a4       ??0?$__crt_unique_heap_ptr@_WU__crt_internal_free_policy@@@@QEAA@QEA_W@Z 00000001800652a4 f i libucrtd:environment_initialization.obj
 0001:000642ac       ??1?$__crt_unique_heap_ptr@_WU__crt_internal_free_policy@@@@QEAA@XZ 00000001800652ac f i libucrtd:environment_initialization.obj
 0001:000642cc       ??B?$__crt_unique_heap_ptr@PEADU__crt_internal_free_policy@@@@QEBA_NXZ 00000001800652cc f i libucrtd:environment_initialization.obj
 0001:000642d4       ??B?$__crt_unique_heap_ptr@PEA_WU__crt_internal_free_policy@@@@QEBA_NXZ 00000001800652d4 f i libucrtd:environment_initialization.obj
 0001:000642dc       ??B?$__crt_unique_heap_ptr@_WU__crt_internal_free_policy@@@@QEBA_NXZ 00000001800652dc f i libucrtd:environment_initialization.obj
 0001:000642e4       ?__crt_compute_required_transform_buffer_count@@YA_KIQEBD@Z 00000001800652e4 f i libucrtd:environment_initialization.obj
 0001:00064308       ?__crt_compute_required_transform_buffer_count@@YA_KIQEB_W@Z 0000000180065308 f i libucrtd:environment_initialization.obj
 0001:00064338       ?__crt_transform_string@@YA_KIQEBDQEA_W_K@Z 0000000180065338 f i libucrtd:environment_initialization.obj
 0001:0006435c       ?__crt_transform_string@@YA_KIQEB_WQEAD_K@Z 000000018006535c f i libucrtd:environment_initialization.obj
 0001:0006438c       ?detach@?$__crt_unique_heap_ptr@DU__crt_internal_free_policy@@@@QEAAPEADXZ 000000018006538c f i libucrtd:environment_initialization.obj
 0001:00064394       ?detach@?$__crt_unique_heap_ptr@_WU__crt_internal_free_policy@@@@QEAAPEA_WXZ 0000000180065394 f i libucrtd:environment_initialization.obj
 0001:0006439c       ?get@?$__crt_unique_heap_ptr@_WU__crt_internal_free_policy@@@@QEBAPEA_WXZ 000000018006539c f i libucrtd:environment_initialization.obj
 0001:000643d0       ?initialize@?$dual_state_global@PEAPEAD@__crt_state_management@@QEAAXQEAPEAD@Z 00000001800653d0 f i libucrtd:environment_initialization.obj
 0001:000643f8       ?initialize@?$dual_state_global@PEAPEA_W@__crt_state_management@@QEAAXQEAPEA_W@Z 00000001800653f8 f i libucrtd:environment_initialization.obj
 0001:00064420       ?is_valid@?$__crt_unique_heap_ptr@PEADU__crt_internal_free_policy@@@@QEBA_NXZ 0000000180065420 f i libucrtd:environment_initialization.obj
 0001:00064428       ?is_valid@?$__crt_unique_heap_ptr@PEA_WU__crt_internal_free_policy@@@@QEBA_NXZ 0000000180065428 f i libucrtd:environment_initialization.obj
 0001:00064430       ?is_valid@?$__crt_unique_heap_ptr@_WU__crt_internal_free_policy@@@@QEBA_NXZ 0000000180065430 f i libucrtd:environment_initialization.obj
 0001:00064444       ?release@?$__crt_unique_heap_ptr@_WU__crt_internal_free_policy@@@@QEAAXXZ 0000000180065444 f i libucrtd:environment_initialization.obj
 0001:00064464       ?value@?$dual_state_global@PEAPEAD@__crt_state_management@@QEAAAEAPEAPEADXZ 0000000180065464 f i libucrtd:environment_initialization.obj
 0001:00064468       ?value@?$dual_state_global@PEAPEA_W@__crt_state_management@@QEAAAEAPEAPEA_WXZ 0000000180065468 f i libucrtd:environment_initialization.obj
 0001:0006446c       __dcrt_get_or_create_narrow_environment_nolock 000000018006546c f   libucrtd:environment_initialization.obj
 0001:000644a8       __dcrt_get_or_create_wide_environment_nolock 00000001800654a8 f   libucrtd:environment_initialization.obj
 0001:000644e4       __dcrt_uninitialize_environments_nolock 00000001800654e4 f   libucrtd:environment_initialization.obj
 0001:0006451c       __p__environ               000000018006551c f   libucrtd:environment_initialization.obj
 0001:00064524       __p__wenviron              0000000180065524 f   libucrtd:environment_initialization.obj
 0001:0006452c       _get_initial_narrow_environment 000000018006552c f   libucrtd:environment_initialization.obj
 0001:0006457c       _get_initial_wide_environment 000000018006557c f   libucrtd:environment_initialization.obj
 0001:000645cc       _initialize_narrow_environment 00000001800655cc f   libucrtd:environment_initialization.obj
 0001:000645d4       _initialize_wide_environment 00000001800655d4 f   libucrtd:environment_initialization.obj
 0001:000645e0       ??$?B$$A6AXXZ@__crt_fast_encoded_nullptr_t@@QEBAP6AXXZXZ 00000001800655e0 f i libucrtd:onexit.obj
 0001:00064600       ??$?BP6AXXZ@__crt_fast_encoded_nullptr_t@@QEBAPEAP6AXXZXZ 0000000180065600 f i libucrtd:onexit.obj
 0001:00064620       ??$?RP6AXXZ@__crt_internal_free_policy@@QEBAXQEBQ6AXXZ@Z 0000000180065620 f i libucrtd:onexit.obj
 0001:00064790       ??$__crt_fast_decode_pointer@P6AXXZ@@YAP6AXXZQ6AXXZ@Z 0000000180065790 f i libucrtd:onexit.obj
 0001:000647d0       ??$__crt_fast_decode_pointer@PEAP6AXXZ@@YAPEAP6AXXZQEAP6AXXZ@Z 00000001800657d0 f i libucrtd:onexit.obj
 0001:00064810       ??$__crt_fast_encode_pointer@P6AHXZ@@YAP6AHXZQ6AHXZ@Z 0000000180065810 f i libucrtd:onexit.obj
 0001:00064850       ??$__crt_fast_encode_pointer@P6AXXZ@@YAP6AXXZQ6AXXZ@Z 0000000180065850 f i libucrtd:onexit.obj
 0001:00064890       ??$__crt_fast_encode_pointer@PEAP6AXXZ@@YAPEAP6AXXZQEAP6AXXZ@Z 0000000180065890 f i libucrtd:onexit.obj
 0001:000649a0       ??0?$__crt_unique_heap_ptr@P6AXXZU__crt_internal_free_policy@@@@QEAA@QEAP6AXXZ@Z 00000001800659a0 f i libucrtd:onexit.obj
 0001:000649c0       ??1?$__crt_unique_heap_ptr@P6AXXZU__crt_internal_free_policy@@@@QEAA@XZ 00000001800659c0 f i libucrtd:onexit.obj
 0001:000649e0       ??1scoped_global_state_reset@__crt_state_management@@QEAA@XZ 00000001800659e0 f i libucrtd:onexit.obj
 0001:00064fb0       ?detach@?$__crt_unique_heap_ptr@P6AXXZU__crt_internal_free_policy@@@@QEAAPEAP6AXXZXZ 0000000180065fb0 f i libucrtd:onexit.obj
 0001:00064fe0       ?release@?$__crt_unique_heap_ptr@P6AXXZU__crt_internal_free_policy@@@@QEAAXXZ 0000000180065fe0 f i libucrtd:onexit.obj
 0001:00065010       _crt_at_quick_exit         0000000180066010 f   libucrtd:onexit.obj
 0001:00065030       _crt_atexit                0000000180066030 f   libucrtd:onexit.obj
 0001:00065050       _execute_onexit_table      0000000180066050 f   libucrtd:onexit.obj
 0001:00065090       _initialize_onexit_table   0000000180066090 f   libucrtd:onexit.obj
 0001:00065110       _register_onexit_function  0000000180066110 f   libucrtd:onexit.obj
 0001:00065380       ??$?BX@__crt_fast_encoded_nullptr_t@@QEBAPEAXXZ 0000000180066380 f i libucrtd:initialization.obj
 0001:000653a0       ??$__crt_fast_encode_pointer@PEAX@@YAPEAXQEAX@Z 00000001800663a0 f i libucrtd:initialization.obj
 0001:00065490       ?initialize@?$dual_state_global@PEAU__crt_locale_data@@@__crt_state_management@@QEAAXQEAU__crt_locale_data@@@Z 0000000180066490 f i libucrtd:initialization.obj
 0001:000654e0       __acrt_initialize          00000001800664e0 f   libucrtd:initialization.obj
 0001:00065510       __acrt_thread_attach       0000000180066510 f   libucrtd:initialization.obj
 0001:00065530       __acrt_thread_detach       0000000180066530 f   libucrtd:initialization.obj
 0001:00065540       __acrt_uninitialize        0000000180066540 f   libucrtd:initialization.obj
 0001:00065570       __acrt_uninitialize_critical 0000000180066570 f   libucrtd:initialization.obj
 0001:00067560       _CrtCheckMemory            0000000180068560 f   libucrtd:debug_heap.obj
 0001:000676f0       _CrtDoForAllClientObjects  00000001800686f0 f   libucrtd:debug_heap.obj
 0001:00067820       _CrtDumpMemoryLeaks        0000000180068820 f   libucrtd:debug_heap.obj
 0001:000678e0       _CrtGetAllocHook           00000001800688e0 f   libucrtd:debug_heap.obj
 0001:000678f0       _CrtGetDumpClient          00000001800688f0 f   libucrtd:debug_heap.obj
 0001:00067900       _CrtIsMemoryBlock          0000000180068900 f   libucrtd:debug_heap.obj
 0001:00067a40       _CrtIsValidHeapPointer     0000000180068a40 f   libucrtd:debug_heap.obj
 0001:00067a80       _CrtIsValidPointer         0000000180068a80 f   libucrtd:debug_heap.obj
 0001:00067ac0       _CrtMemCheckpoint          0000000180068ac0 f   libucrtd:debug_heap.obj
 0001:00067d40       _CrtMemDifference          0000000180068d40 f   libucrtd:debug_heap.obj
 0001:000680a0       _CrtMemDumpAllObjectsSince 00000001800690a0 f   libucrtd:debug_heap.obj
 0001:00068100       _CrtMemDumpStatistics      0000000180069100 f   libucrtd:debug_heap.obj
 0001:000682a0       _CrtReportBlockType        00000001800692a0 f   libucrtd:debug_heap.obj
 0001:000682d0       _CrtSetAllocHook           00000001800692d0 f   libucrtd:debug_heap.obj
 0001:00068300       _CrtSetBreakAlloc          0000000180069300 f   libucrtd:debug_heap.obj
 0001:00068330       _CrtSetDbgBlockType        0000000180069330 f   libucrtd:debug_heap.obj
 0001:000683d0       _CrtSetDbgFlag             00000001800693d0 f   libucrtd:debug_heap.obj
 0001:00068530       _CrtSetDumpClient          0000000180069530 f   libucrtd:debug_heap.obj
 0001:00068560       __acrt_get_locale_data_prefix 0000000180069560 f i libucrtd:debug_heap.obj
 0001:00068580       __p__crtBreakAlloc         0000000180069580 f   libucrtd:debug_heap.obj
 0001:00068590       __p__crtDbgFlag            0000000180069590 f   libucrtd:debug_heap.obj
 0001:000685a0       _aligned_free_dbg          00000001800695a0 f   libucrtd:debug_heap.obj
 0001:00068690       _aligned_malloc_dbg        0000000180069690 f   libucrtd:debug_heap.obj
 0001:000686d0       _aligned_msize_dbg         00000001800696d0 f   libucrtd:debug_heap.obj
 0001:000688a0       _aligned_offset_malloc_dbg 00000001800698a0 f   libucrtd:debug_heap.obj
 0001:00068b90       _aligned_offset_realloc_dbg 0000000180069b90 f   libucrtd:debug_heap.obj
 0001:00069040       _aligned_offset_recalloc_dbg 000000018006a040 f   libucrtd:debug_heap.obj
 0001:00069160       _aligned_realloc_dbg       000000018006a160 f   libucrtd:debug_heap.obj
 0001:000691b0       _aligned_recalloc_dbg      000000018006a1b0 f   libucrtd:debug_heap.obj
 0001:00069210       _calloc_dbg                000000018006a210 f   libucrtd:debug_heap.obj
 0001:000692b0       _chvalidchk_l              000000018006a2b0 f i libucrtd:debug_heap.obj
 0001:000692e0       _expand_dbg                000000018006a2e0 f   libucrtd:debug_heap.obj
 0001:00069410       _free_dbg                  000000018006a410 f   libucrtd:debug_heap.obj
 0001:00069480       _ischartype_l              000000018006a480 f i libucrtd:debug_heap.obj
 0001:00069510       _malloc_dbg                000000018006a510 f   libucrtd:debug_heap.obj
 0001:00069550       _msize_dbg                 000000018006a550 f   libucrtd:debug_heap.obj
 0001:000696f0       _realloc_dbg               000000018006a6f0 f   libucrtd:debug_heap.obj
 0001:00069760       _recalloc_dbg              000000018006a760 f   libucrtd:debug_heap.obj
 0001:00069860       _initterm                  000000018006a860 f   libucrtd:initterm.obj
 0001:000698c0       _initterm_e                000000018006a8c0 f   libucrtd:initterm.obj
 0001:00069980       _get_terminate             000000018006a980 f   libucrtd:terminate.obj
 0001:000699a0       set_terminate              000000018006a9a0 f   libucrtd:terminate.obj
 0001:000699e0       terminate                  000000018006a9e0 f   libucrtd:terminate.obj
 0001:00069ef0       strcpy_s                   000000018006aef0 f   libucrtd:strcpy_s.obj
 0001:0006a590       strcat_s                   000000018006b590 f   libucrtd:strcat_s.obj
 0001:0006b380       _makepath                  000000018006c380 f   libucrtd:makepath.obj
 0001:0006b3d0       _makepath_s                000000018006c3d0 f   libucrtd:makepath.obj
 0001:0006b420       _wmakepath                 000000018006c420 f   libucrtd:makepath.obj
 0001:0006b470       _wmakepath_s               000000018006c470 f   libucrtd:makepath.obj
 0001:0006daa0       ??$tcsncpy_s@AEAPEAD_KAEAPEBDAEB_K@?$__crt_char_traits@D@@SAHAEAPEAD$$QEA_KAEAPEBDAEB_K@Z 000000018006eaa0 f i libucrtd:splitpath.obj
 0001:0006daf0       ??$tcsncpy_s@AEAPEAD_KAEAPEBDH@?$__crt_char_traits@D@@SAHAEAPEAD$$QEA_KAEAPEBD$$QEAH@Z 000000018006eaf0 f i libucrtd:splitpath.obj
 0001:0006db40       ??$tcsncpy_s@AEAPEA_W_KAEAPEB_WAEB_K@?$__crt_char_traits@_W@@SAHAEAPEA_W$$QEA_KAEAPEB_WAEB_K@Z 000000018006eb40 f i libucrtd:splitpath.obj
 0001:0006db90       ??$tcsncpy_s@AEAPEA_W_KAEAPEB_WH@?$__crt_char_traits@_W@@SAHAEAPEA_W$$QEA_KAEAPEB_W$$QEAH@Z 000000018006eb90 f i libucrtd:splitpath.obj
 0001:0006de40       _splitpath                 000000018006ee40 f   libucrtd:splitpath.obj
 0001:0006de80       _splitpath_s               000000018006ee80 f   libucrtd:splitpath.obj
 0001:0006df20       _wsplitpath                000000018006ef20 f   libucrtd:splitpath.obj
 0001:0006df60       _wsplitpath_s              000000018006ef60 f   libucrtd:splitpath.obj
 0001:0006e000       ??$?B$$A6AH_K@Z@__crt_fast_encoded_nullptr_t@@QEBAP6AH_K@ZXZ 000000018006f000 f i libucrtd:new_handler.obj
 0001:0006e020       ??$__crt_fast_decode_pointer@P6AH_K@Z@@YAP6AH_K@ZQ6AH0@Z@Z 000000018006f020 f i libucrtd:new_handler.obj
 0001:0006e060       ??$__crt_fast_encode_pointer@P6AH_K@Z@@YAP6AH_K@ZQ6AH0@Z@Z 000000018006f060 f i libucrtd:new_handler.obj
 0001:0006e0a0       ?_set_new_handler@@YAP6AH_K@ZH@Z 000000018006f0a0 f   libucrtd:new_handler.obj
 0001:0006e110       ?initialize@?$dual_state_global@P6AH_K@Z@__crt_state_management@@QEAAXQ6AH_K@Z@Z 000000018006f110 f i libucrtd:new_handler.obj
 0001:0006e160       ?value@?$dual_state_global@P6AH_K@Z@__crt_state_management@@QEAAAEAP6AH_K@ZXZ 000000018006f160 f i libucrtd:new_handler.obj
 0001:0006e180       __acrt_initialize_new_handler 000000018006f180 f   libucrtd:new_handler.obj
 0001:0006e1a0       _callnewh                  000000018006f1a0 f   libucrtd:new_handler.obj
 0001:0006e1f0       _query_new_handler         000000018006f1f0 f   libucrtd:new_handler.obj
 0001:0006e230       _set_new_handler           000000018006f230 f   libucrtd:new_handler.obj
 0001:0006e2a0       _set_abort_behavior        000000018006f2a0 f   libucrtd:abort.obj
 0001:0006e2e0       abort                      000000018006f2e0 f   libucrtd:abort.obj
 0001:0006e370       strcmp                     000000018006f370 f   libucrtd:strcmp.obj
 0001:0006e3f0       strlen                     000000018006f3f0 f   libucrtd:strlen.obj
 0001:0006e4a0       ??$is_overflow_condition@K@__crt_strtox@@YA_NIK@Z 000000018006f4a0 f i libucrtd:atox.obj
 0001:0006e510       ??$is_overflow_condition@_K@__crt_strtox@@YA_NI_K@Z 000000018006f510 f i libucrtd:atox.obj
 0001:0006e580       ??$make_c_string_character_source@D$$T@__crt_strtox@@YA?AV?$c_string_character_source@D@0@QEBD$$T@Z 000000018006f580 f i libucrtd:atox.obj
 0001:0006e5c0       ??$make_c_string_character_source@_W$$T@__crt_strtox@@YA?AV?$c_string_character_source@_W@0@QEB_W$$T@Z 000000018006f5c0 f i libucrtd:atox.obj
 0001:0006e600       ??$parse_integer@KV?$c_string_character_source@D@__crt_strtox@@@__crt_strtox@@YAKQEAU__crt_locale_pointers@@V?$c_string_character_source@D@0@H_N@Z 000000018006f600 f i libucrtd:atox.obj
 0001:0006ea90       ??$parse_integer@KV?$c_string_character_source@_W@__crt_strtox@@@__crt_strtox@@YAKQEAU__crt_locale_pointers@@V?$c_string_character_source@_W@0@H_N@Z 000000018006fa90 f i libucrtd:atox.obj
 0001:0006ef40       ??$parse_integer@_KV?$c_string_character_source@D@__crt_strtox@@@__crt_strtox@@YA_KQEAU__crt_locale_pointers@@V?$c_string_character_source@D@0@H_N@Z 000000018006ff40 f i libucrtd:atox.obj
 0001:0006f460       ??$parse_integer@_KV?$c_string_character_source@_W@__crt_strtox@@@__crt_strtox@@YA_KQEAU__crt_locale_pointers@@V?$c_string_character_source@_W@0@H_N@Z 0000000180070460 f i libucrtd:atox.obj
 0001:0006f980       ??$parse_integer_from_string@JD$$T@__crt_strtox@@YAJQEBD$$THQEAU__crt_locale_pointers@@@Z 0000000180070980 f i libucrtd:atox.obj
 0001:0006f9d0       ??$parse_integer_from_string@J_W$$T@__crt_strtox@@YAJQEB_W$$THQEAU__crt_locale_pointers@@@Z 00000001800709d0 f i libucrtd:atox.obj
 0001:0006fa20       ??$parse_integer_from_string@_JD$$T@__crt_strtox@@YA_JQEBD$$THQEAU__crt_locale_pointers@@@Z 0000000180070a20 f i libucrtd:atox.obj
 0001:0006fa70       ??$parse_integer_from_string@_J_W$$T@__crt_strtox@@YA_JQEB_W$$THQEAU__crt_locale_pointers@@@Z 0000000180070a70 f i libucrtd:atox.obj
 0001:0006fac0       ??0?$c_string_character_source@D@__crt_strtox@@QEAA@QEBDQEAPEBD@Z 0000000180070ac0 f i libucrtd:atox.obj
 0001:0006fb10       ??0?$c_string_character_source@_W@__crt_strtox@@QEAA@QEB_WQEAPEB_W@Z 0000000180070b10 f i libucrtd:atox.obj
 0001:0006fb60       ??1?$c_string_character_source@D@__crt_strtox@@QEAA@XZ 0000000180070b60 f i libucrtd:atox.obj
 0001:0006fb90       ??1?$c_string_character_source@_W@__crt_strtox@@QEAA@XZ 0000000180070b90 f i libucrtd:atox.obj
 0001:0006fbc0       ?get@?$c_string_character_source@D@__crt_strtox@@QEAADXZ 0000000180070bc0 f i libucrtd:atox.obj
 0001:0006fc00       ?get@?$c_string_character_source@_W@__crt_strtox@@QEAA_WXZ 0000000180070c00 f i libucrtd:atox.obj
 0001:0006fc40       ?is_space@__crt_strtox@@YA_NDQEAU__crt_locale_pointers@@@Z 0000000180070c40 f i libucrtd:atox.obj
 0001:0006fc90       ?is_space@__crt_strtox@@YA_N_WPEAU__crt_locale_pointers@@@Z 0000000180070c90 f i libucrtd:atox.obj
 0001:0006fcd0       ?maximum_signed_value@__crt_strtox@@YAJK@Z 0000000180070cd0 f i libucrtd:atox.obj
 0001:0006fce0       ?maximum_signed_value@__crt_strtox@@YA_J_K@Z 0000000180070ce0 f i libucrtd:atox.obj
 0001:0006fcf0       ?minimum_signed_value@__crt_strtox@@YAJK@Z 0000000180070cf0 f i libucrtd:atox.obj
 0001:0006fd00       ?minimum_signed_value@__crt_strtox@@YA_J_K@Z 0000000180070d00 f i libucrtd:atox.obj
 0001:0006fd10       ?parse_digit@__crt_strtox@@YAID@Z 0000000180070d10 f i libucrtd:atox.obj
 0001:0006fd80       ?parse_digit@__crt_strtox@@YAI_W@Z 0000000180070d80 f i libucrtd:atox.obj
 0001:0006fdd0       ?restore_state@?$c_string_character_source@D@__crt_strtox@@QEAA_NQEBD@Z 0000000180070dd0 f i libucrtd:atox.obj
 0001:0006fdf0       ?restore_state@?$c_string_character_source@_W@__crt_strtox@@QEAA_NQEB_W@Z 0000000180070df0 f i libucrtd:atox.obj
 0001:0006fe10       ?save_state@?$c_string_character_source@D@__crt_strtox@@QEBAPEBDXZ 0000000180070e10 f i libucrtd:atox.obj
 0001:0006fe20       ?save_state@?$c_string_character_source@_W@__crt_strtox@@QEBAPEB_WXZ 0000000180070e20 f i libucrtd:atox.obj
 0001:0006fe30       ?unget@?$c_string_character_source@D@__crt_strtox@@QEAAXD@Z 0000000180070e30 f i libucrtd:atox.obj
 0001:0006ff10       ?unget@?$c_string_character_source@_W@__crt_strtox@@QEAAX_W@Z 0000000180070f10 f i libucrtd:atox.obj
 0001:0006fff0       ?validate@?$c_string_character_source@D@__crt_strtox@@QEBA_NXZ 0000000180070ff0 f i libucrtd:atox.obj
 0001:000700b0       ?validate@?$c_string_character_source@_W@__crt_strtox@@QEBA_NXZ 00000001800710b0 f i libucrtd:atox.obj
 0001:00070170       ?wide_character_to_digit@__crt_strtox@@YAH_W@Z 0000000180071170 f i libucrtd:atox.obj
 0001:000704e0       __ascii_iswalpha           00000001800714e0 f i libucrtd:atox.obj
 0001:00070520       __ascii_toupper            0000000180071520 f i libucrtd:atox.obj
 0001:00070540       __ascii_towupper           0000000180071540 f i libucrtd:atox.obj
 0001:00070560       _atoi64                    0000000180071560 f   libucrtd:atox.obj
 0001:00070590       _atoi64_l                  0000000180071590 f   libucrtd:atox.obj
 0001:000705c0       _atoi_l                    00000001800715c0 f   libucrtd:atox.obj
 0001:000705f0       _atol_l                    00000001800715f0 f   libucrtd:atox.obj
 0001:00070620       _atoll_l                   0000000180071620 f   libucrtd:atox.obj
 0001:00070650       _wtoi                      0000000180071650 f   libucrtd:atox.obj
 0001:00070680       _wtoi64                    0000000180071680 f   libucrtd:atox.obj
 0001:000706b0       _wtoi64_l                  00000001800716b0 f   libucrtd:atox.obj
 0001:000706e0       _wtoi_l                    00000001800716e0 f   libucrtd:atox.obj
 0001:00070710       _wtol                      0000000180071710 f   libucrtd:atox.obj
 0001:00070740       _wtol_l                    0000000180071740 f   libucrtd:atox.obj
 0001:00070770       _wtoll                     0000000180071770 f   libucrtd:atox.obj
 0001:000707a0       _wtoll_l                   00000001800717a0 f   libucrtd:atox.obj
 0001:000707d0       atoi                       00000001800717d0 f   libucrtd:atox.obj
 0001:00070800       atol                       0000000180071800 f   libucrtd:atox.obj
 0001:00070830       atoll                      0000000180071830 f   libucrtd:atox.obj
 0001:00070870       strncmp                    0000000180071870 f   libucrtd:strncmp.obj
 0001:000708f0       wcsncmp                    00000001800718f0 f   libucrtd:wcsncmp.obj
 0001:00070980       _CrtGetReportHook          0000000180071980 f   libucrtd:dbgrptt.obj
 0001:00070990       _CrtSetReportFile          0000000180071990 f   libucrtd:dbgrptt.obj
 0001:00070af0       _CrtSetReportHook          0000000180071af0 f   libucrtd:dbgrptt.obj
 0001:00070b20       _CrtSetReportMode          0000000180071b20 f   libucrtd:dbgrptt.obj
 0001:00070cd0       _VCrtDbgReportA            0000000180071cd0 f   libucrtd:dbgrptt.obj
 0001:000716b0       _VCrtDbgReportW            00000001800726b0 f   libucrtd:dbgrptt.obj
 0001:00072230       _snprintf_s                0000000180073230 f i libucrtd:dbgrptt.obj
 0001:000722a0       _vsnprintf_s               00000001800732a0 f i libucrtd:dbgrptt.obj
 0001:000722f0       _vsnprintf_s_l             00000001800732f0 f i libucrtd:dbgrptt.obj
 0001:00072510       ??$__acrt_wcs_to_mbs_cp@U__crt_win32_buffer_no_resizing@@@@YAHQEB_WAEAV?$__crt_win32_buffer@DU__crt_win32_buffer_no_resizing@@@@I@Z 0000000180073510 f i libucrtd:getmodulefilenamea.obj
 0001:00072560       ??0?$__crt_win32_buffer@DU__crt_win32_buffer_no_resizing@@@@QEAA@QEAD_K@Z 0000000180073560 f i libucrtd:getmodulefilenamea.obj
 0001:000725d0       ??1?$__crt_win32_buffer@DU__crt_win32_buffer_no_resizing@@@@QEAA@XZ 00000001800735d0 f i libucrtd:getmodulefilenamea.obj
 0001:00072660       ?__acrt_get_utf8_acp_compatibility_codepage@@YAIXZ 0000000180073660 f i libucrtd:getmodulefilenamea.obj
 0001:00072700       ?_deallocate@?$__crt_win32_buffer@DU__crt_win32_buffer_no_resizing@@@@AEAAXXZ 0000000180073700 f i libucrtd:getmodulefilenamea.obj
 0001:00072740       ?allocate@?$__crt_win32_buffer@DU__crt_win32_buffer_no_resizing@@@@QEAAH_K@Z 0000000180073740 f i libucrtd:getmodulefilenamea.obj
 0001:000727c0       ?allocate@__crt_win32_buffer_no_resizing@@SAHQEAPEAX_KAEBV__crt_win32_buffer_empty_debug_info@@@Z 00000001800737c0 f i libucrtd:getmodulefilenamea.obj
 0001:000727f0       ?capacity@?$__crt_win32_buffer@DU__crt_win32_buffer_no_resizing@@@@QEBA_KXZ 00000001800737f0 f i libucrtd:getmodulefilenamea.obj
 0001:00072800       ?data@?$__crt_win32_buffer@DU__crt_win32_buffer_no_resizing@@@@QEAAPEADXZ 0000000180073800 f i libucrtd:getmodulefilenamea.obj
 0001:00072810       ?deallocate@__crt_win32_buffer_no_resizing@@SAXQEAXAEBV__crt_win32_buffer_empty_debug_info@@@Z 0000000180073810 f i libucrtd:getmodulefilenamea.obj
 0001:00072820       ?debug_info@?$__crt_win32_buffer@DU__crt_win32_buffer_no_resizing@@@@QEBAAEBV__crt_win32_buffer_empty_debug_info@@XZ 0000000180073820 f i libucrtd:getmodulefilenamea.obj
 0001:00072830       ?set_to_nullptr@?$__crt_win32_buffer@DU__crt_win32_buffer_no_resizing@@@@QEAAXXZ 0000000180073830 f i libucrtd:getmodulefilenamea.obj
 0001:00072870       ?size@?$__crt_win32_buffer@DU__crt_win32_buffer_no_resizing@@@@QEAAX_K@Z 0000000180073870 f i libucrtd:getmodulefilenamea.obj
 0001:00072890       ?size@?$__crt_win32_buffer@DU__crt_win32_buffer_no_resizing@@@@QEBA_KXZ 0000000180073890 f i libucrtd:getmodulefilenamea.obj
 0001:000728a0       __acrt_GetModuleFileNameA  00000001800738a0 f   libucrtd:getmodulefilenamea.obj
 0001:00072c00       ??$message_box@$$TAEBQEBDAEBQEBDK@?$__crt_char_traits@D@@SAH$$QEA$$TAEBQEBD1$$QEAK@Z 0000000180073c00 f i libucrtd:crtmbox.obj
 0001:00072c50       ??$message_box@$$TAEBQEB_WAEBQEB_WK@?$__crt_char_traits@_W@@SAH$$QEA$$TAEBQEB_W1$$QEAK@Z 0000000180073c50 f i libucrtd:crtmbox.obj
 0001:00072ca0       ??$message_box@PEAUHWND__@@AEBQEBDAEBQEBDAEBI@?$__crt_char_traits@D@@SAH$$QEAPEAUHWND__@@AEBQEBD1AEBI@Z 0000000180073ca0 f i libucrtd:crtmbox.obj
 0001:00072cf0       ??$message_box@PEAUHWND__@@AEBQEB_WAEBQEB_WAEBI@?$__crt_char_traits@_W@@SAH$$QEAPEAUHWND__@@AEBQEB_W1AEBI@Z 0000000180073cf0 f i libucrtd:crtmbox.obj
 0001:00072d40       ??$output_debug_string@AEBQEBD@?$__crt_char_traits@D@@SAXAEBQEBD@Z 0000000180073d40 f i libucrtd:crtmbox.obj
 0001:00072d60       ??$output_debug_string@AEBQEB_W@?$__crt_char_traits@_W@@SAXAEBQEB_W@Z 0000000180073d60 f i libucrtd:crtmbox.obj
 0001:00072d80       __acrt_show_narrow_message_box 0000000180073d80 f   libucrtd:crtmbox.obj
 0001:00072db0       __acrt_show_wide_message_box 0000000180073db0 f   libucrtd:crtmbox.obj
 0001:00072de0       __acrt_initialize_locks    0000000180073de0 f   libucrtd:locks.obj
 0001:00072e50       __acrt_lock                0000000180073e50 f   libucrtd:locks.obj
 0001:00072e80       __acrt_uninitialize_locks  0000000180073e80 f   libucrtd:locks.obj
 0001:00072ee0       __acrt_unlock              0000000180073ee0 f   libucrtd:locks.obj
 0001:00072f10       _lock_locales              0000000180073f10 f   libucrtd:locks.obj
 0001:00072f30       _unlock_locales            0000000180073f30 f   libucrtd:locks.obj
 0001:00072f50       ??$?B$$A6AXH@Z@__crt_fast_encoded_nullptr_t@@QEBAP6AXH@ZXZ 0000000180073f50 f i libucrtd:signal.obj
 0001:00073010       ??$__crt_fast_decode_pointer@P6AXH@Z@@YAP6AXH@ZQ6AXH@Z@Z 0000000180074010 f i libucrtd:signal.obj
 0001:00073050       ??$__crt_fast_encode_pointer@P6AXH@Z@@YAP6AXH@ZQ6AXH@Z@Z 0000000180074050 f i libucrtd:signal.obj
 0001:000732d0       ?initialize@?$dual_state_global@P6AXH@Z@__crt_state_management@@QEAAXQ6AXH@Z@Z 00000001800742d0 f i libucrtd:signal.obj
 0001:00073450       ?value@?$dual_state_global@P6AXH@Z@__crt_state_management@@QEAAAEAP6AXH@ZXZ 0000000180074450 f i libucrtd:signal.obj
 0001:00073470       __acrt_get_sigabrt_handler 0000000180074470 f   libucrtd:signal.obj
 0001:000734a0       __acrt_initialize_signal_handlers 00000001800744a0 f   libucrtd:signal.obj
 0001:00073500       __fpecode                  0000000180074500 f   libucrtd:signal.obj
 0001:00073520       __pxcptinfoptrs            0000000180074520 f   libucrtd:signal.obj
 0001:00073540       raise                      0000000180074540 f   libucrtd:signal.obj
 0001:00073a00       signal                     0000000180074a00 f   libucrtd:signal.obj
 0001:00073cd0       _CrtGetDebugFillThreshold  0000000180074cd0 f   libucrtd:debug_fill_threshold.obj
 0001:00073ce0       _CrtSetDebugFillThreshold  0000000180074ce0 f   libucrtd:debug_fill_threshold.obj
 0001:00073d10       ??$make_c_string_character_source@DPEAPEAD@__crt_strtox@@YA?AV?$c_string_character_source@D@0@QEBDQEAPEAD@Z 0000000180074d10 f i libucrtd:strtox.obj
 0001:00073d50       ??$make_c_string_character_source@_WPEAPEA_W@__crt_strtox@@YA?AV?$c_string_character_source@_W@0@QEB_WQEAPEA_W@Z 0000000180074d50 f i libucrtd:strtox.obj
 0001:00073d90       ??$parse_integer_from_string@JDPEAPEAD@__crt_strtox@@YAJQEBDQEAPEADHQEAU__crt_locale_pointers@@@Z 0000000180074d90 f i libucrtd:strtox.obj
 0001:00073de0       ??$parse_integer_from_string@J_WPEAPEA_W@__crt_strtox@@YAJQEB_WQEAPEA_WHQEAU__crt_locale_pointers@@@Z 0000000180074de0 f i libucrtd:strtox.obj
 0001:00073e30       ??$parse_integer_from_string@KDPEAPEAD@__crt_strtox@@YAKQEBDQEAPEADHQEAU__crt_locale_pointers@@@Z 0000000180074e30 f i libucrtd:strtox.obj
 0001:00073e80       ??$parse_integer_from_string@K_WPEAPEA_W@__crt_strtox@@YAKQEB_WQEAPEA_WHQEAU__crt_locale_pointers@@@Z 0000000180074e80 f i libucrtd:strtox.obj
 0001:00073ed0       ??$parse_integer_from_string@_JDPEAPEAD@__crt_strtox@@YA_JQEBDQEAPEADHQEAU__crt_locale_pointers@@@Z 0000000180074ed0 f i libucrtd:strtox.obj
 0001:00073f20       ??$parse_integer_from_string@_J_WPEAPEA_W@__crt_strtox@@YA_JQEB_WQEAPEA_WHQEAU__crt_locale_pointers@@@Z 0000000180074f20 f i libucrtd:strtox.obj
 0001:00073f70       ??$parse_integer_from_string@_KDPEAPEAD@__crt_strtox@@YA_KQEBDQEAPEADHQEAU__crt_locale_pointers@@@Z 0000000180074f70 f i libucrtd:strtox.obj
 0001:00073fc0       ??$parse_integer_from_string@_K_WPEAPEA_W@__crt_strtox@@YA_KQEB_WQEAPEA_WHQEAU__crt_locale_pointers@@@Z 0000000180074fc0 f i libucrtd:strtox.obj
 0001:00074010       _strtoi64                  0000000180075010 f   libucrtd:strtox.obj
 0001:00074040       _strtoi64_l                0000000180075040 f   libucrtd:strtox.obj
 0001:00074080       _strtoimax_l               0000000180075080 f   libucrtd:strtox.obj
 0001:000740c0       _strtol_l                  00000001800750c0 f   libucrtd:strtox.obj
 0001:00074100       _strtoll_l                 0000000180075100 f   libucrtd:strtox.obj
 0001:00074140       _strtoui64                 0000000180075140 f   libucrtd:strtox.obj
 0001:00074170       _strtoui64_l               0000000180075170 f   libucrtd:strtox.obj
 0001:000741b0       _strtoul_l                 00000001800751b0 f   libucrtd:strtox.obj
 0001:000741f0       _strtoull_l                00000001800751f0 f   libucrtd:strtox.obj
 0001:00074230       _strtoumax_l               0000000180075230 f   libucrtd:strtox.obj
 0001:00074270       _wcstoi64                  0000000180075270 f   libucrtd:strtox.obj
 0001:000742a0       _wcstoi64_l                00000001800752a0 f   libucrtd:strtox.obj
 0001:000742e0       _wcstoimax_l               00000001800752e0 f   libucrtd:strtox.obj
 0001:00074320       _wcstol_l                  0000000180075320 f   libucrtd:strtox.obj
 0001:00074360       _wcstoll_l                 0000000180075360 f   libucrtd:strtox.obj
 0001:000743a0       _wcstoui64                 00000001800753a0 f   libucrtd:strtox.obj
 0001:000743d0       _wcstoui64_l               00000001800753d0 f   libucrtd:strtox.obj
 0001:00074410       _wcstoul_l                 0000000180075410 f   libucrtd:strtox.obj
 0001:00074450       _wcstoull_l                0000000180075450 f   libucrtd:strtox.obj
 0001:00074490       _wcstoumax_l               0000000180075490 f   libucrtd:strtox.obj
 0001:000744d0       strtoimax                  00000001800754d0 f   libucrtd:strtox.obj
 0001:00074500       strtol                     0000000180075500 f   libucrtd:strtox.obj
 0001:00074530       strtoll                    0000000180075530 f   libucrtd:strtox.obj
 0001:00074560       strtoul                    0000000180075560 f   libucrtd:strtox.obj
 0001:00074590       strtoull                   0000000180075590 f   libucrtd:strtox.obj
 0001:000745c0       strtoumax                  00000001800755c0 f   libucrtd:strtox.obj
 0001:000745f0       wcstoimax                  00000001800755f0 f   libucrtd:strtox.obj
 0001:00074620       wcstol                     0000000180075620 f   libucrtd:strtox.obj
 0001:00074650       wcstoll                    0000000180075650 f   libucrtd:strtox.obj
 0001:00074680       wcstoul                    0000000180075680 f   libucrtd:strtox.obj
 0001:000746b0       wcstoull                   00000001800756b0 f   libucrtd:strtox.obj
 0001:000746e0       wcstoumax                  00000001800756e0 f   libucrtd:strtox.obj
 0001:00074710       _mbtowc_l                  0000000180075710 f   libucrtd:mbtowc.obj
 0001:00074b70       mbtowc                     0000000180075b70 f   libucrtd:mbtowc.obj
 0001:00074ba0       _wctomb_l                  0000000180075ba0 f   libucrtd:wctomb.obj
 0001:00074c60       _wctomb_s_l                0000000180075c60 f   libucrtd:wctomb.obj
 0001:000751e0       wctomb                     00000001800761e0 f   libucrtd:wctomb.obj
 0001:00075240       wctomb_s                   0000000180076240 f   libucrtd:wctomb.obj
 0001:00075290       ??$?RU__acrt_ptd@@@__crt_internal_free_policy@@QEBAXQEBU__acrt_ptd@@@Z 0000000180076290 f i libucrtd:per_thread_data.obj
 0001:00075690       ??0?$__crt_unique_heap_ptr@U__acrt_ptd@@U__crt_internal_free_policy@@@@QEAA@QEAU__acrt_ptd@@@Z 0000000180076690 f i libucrtd:per_thread_data.obj
 0001:000756b0       ??0__crt_scoped_get_last_error_reset@@QEAA@XZ 00000001800766b0 f i libucrtd:per_thread_data.obj
 0001:000756d0       ??1?$__crt_unique_heap_ptr@U__acrt_ptd@@U__crt_internal_free_policy@@@@QEAA@XZ 00000001800766d0 f i libucrtd:per_thread_data.obj
 0001:000756f0       ??1__crt_scoped_get_last_error_reset@@QEAA@XZ 00000001800766f0 f i libucrtd:per_thread_data.obj
 0001:00075710       ??B?$__crt_unique_heap_ptr@U__acrt_ptd@@U__crt_internal_free_policy@@@@QEBA_NXZ 0000000180076710 f i libucrtd:per_thread_data.obj
 0001:00075a60       ?dangerous_get_state_array@?$dual_state_global@PEAU__crt_locale_data@@@__crt_state_management@@QEAAPEAPEAU__crt_locale_data@@XZ 0000000180076a60 f i libucrtd:per_thread_data.obj
 0001:00075c20       ?detach@?$__crt_unique_heap_ptr@U__acrt_ptd@@U__crt_internal_free_policy@@@@QEAAPEAU__acrt_ptd@@XZ 0000000180076c20 f i libucrtd:per_thread_data.obj
 0001:00075c50       ?get@?$__crt_unique_heap_ptr@U__acrt_ptd@@U__crt_internal_free_policy@@@@QEBAPEAU__acrt_ptd@@XZ 0000000180076c50 f i libucrtd:per_thread_data.obj
 0001:00075c60       ?get_current_state_index@__crt_state_management@@YA_KAEBV__crt_scoped_get_last_error_reset@@@Z 0000000180076c60 f i libucrtd:per_thread_data.obj
 0001:00075e10       ?is_valid@?$__crt_unique_heap_ptr@U__acrt_ptd@@U__crt_internal_free_policy@@@@QEBA_NXZ 0000000180076e10 f i libucrtd:per_thread_data.obj
 0001:00075e40       ?release@?$__crt_unique_heap_ptr@U__acrt_ptd@@U__crt_internal_free_policy@@@@QEAAXXZ 0000000180076e40 f i libucrtd:per_thread_data.obj
 0001:00075f70       ?value@?$dual_state_global@PEAU__crt_locale_data@@@__crt_state_management@@QEAAAEAPEAU__crt_locale_data@@XZ 0000000180076f70 f i libucrtd:per_thread_data.obj
 0001:00075f90       __acrt_freeptd             0000000180076f90 f   libucrtd:per_thread_data.obj
 0001:00075fd0       __acrt_getptd              0000000180076fd0 f   libucrtd:per_thread_data.obj
 0001:00076000       __acrt_getptd_head         0000000180077000 f   libucrtd:per_thread_data.obj
 0001:00076030       __acrt_getptd_noexit       0000000180077030 f   libucrtd:per_thread_data.obj
 0001:00076040       __acrt_initialize_ptd      0000000180077040 f   libucrtd:per_thread_data.obj
 0001:00076080       __acrt_uninitialize_ptd    0000000180077080 f   libucrtd:per_thread_data.obj
 0001:000760b0       __threadhandle             00000001800770b0 f   libucrtd:per_thread_data.obj
 0001:000760c0       __threadid                 00000001800770c0 f   libucrtd:per_thread_data.obj
 0001:000760d0       ?value@?$dual_state_global@PEAU__crt_multibyte_data@@@__crt_state_management@@QEAAAEAPEAU__crt_multibyte_data@@XZ 00000001800770d0 f i libucrtd:locale_update.obj
 0001:000760f0       __acrt_should_sync_with_global_locale 00000001800770f0 f i libucrtd:locale_update.obj
 0001:00076130       __acrt_update_locale_info  0000000180077130 f   libucrtd:locale_update.obj
 0001:00076180       __acrt_update_multibyte_info 0000000180077180 f   libucrtd:locale_update.obj
 0001:000761d0       ?__acrt_fp_classify@@YA?AW4__acrt_fp_class@@AEBN@Z 00000001800771d0 f i libucrtd:cvt.obj
 0001:000762d0       ?__acrt_fp_is_negative@@YA_NAEBN@Z 00000001800772d0 f i libucrtd:cvt.obj
 0001:00077c90       ?strrchr@@YAPEADQEADH@Z    0000000180078c90 f i libucrtd:cvt.obj
 0001:00077cb0       __acrt_fp_format           0000000180078cb0 f   libucrtd:cvt.obj
 0001:00078360       _fputwc_nolock             0000000180079360 f   libucrtd:fputwc.obj
 0001:000785d0       _fputwchar                 00000001800795d0 f   libucrtd:fputwc.obj
 0001:00078600       _putwc_nolock              0000000180079600 f   libucrtd:fputwc.obj
 0001:00078630       fputwc                     0000000180079630 f   libucrtd:fputwc.obj
 0001:00078720       putwc                      0000000180079720 f   libucrtd:fputwc.obj
 0001:00078750       putwchar                   0000000180079750 f   libucrtd:fputwc.obj
 0001:00078770       ?lowio_handle@__crt_stdio_stream@@QEBAHXZ 0000000180079770 f i libucrtd:fileno.obj
 0001:000787a0       _fileno                    00000001800797a0 f   libucrtd:fileno.obj
 0001:00078880       ??$?RPEAU__crt_stdio_stream_data@@@__crt_internal_free_policy@@QEBAXQEBQEAU__crt_stdio_stream_data@@@Z 0000000180079880 f i libucrtd:_file.obj
 0001:000788b0       ??0?$__crt_unique_heap_ptr@PEAU__crt_stdio_stream_data@@U__crt_internal_free_policy@@@@QEAA@QEAPEAU__crt_stdio_stream_data@@@Z 00000001800798b0 f i libucrtd:_file.obj
 0001:000788d0       ??1?$__crt_unique_heap_ptr@PEAU__crt_stdio_stream_data@@U__crt_internal_free_policy@@@@QEAA@XZ 00000001800798d0 f i libucrtd:_file.obj
 0001:000788f0       ?detach@?$__crt_unique_heap_ptr@PEAU__crt_stdio_stream_data@@U__crt_internal_free_policy@@@@QEAAPEAPEAU__crt_stdio_stream_data@@XZ 00000001800798f0 f i libucrtd:_file.obj
 0001:00078920       ?release@?$__crt_unique_heap_ptr@PEAU__crt_stdio_stream_data@@U__crt_internal_free_policy@@@@QEAAXXZ 0000000180079920 f i libucrtd:_file.obj
 0001:00078950       __acrt_initialize_stdio    0000000180079950 f   libucrtd:_file.obj
 0001:00078b40       __acrt_iob_func            0000000180079b40 f   libucrtd:_file.obj
 0001:00078b60       __acrt_uninitialize_stdio  0000000180079b60 f   libucrtd:_file.obj
 0001:00078bf0       _get_stream_buffer_pointers 0000000180079bf0 f   libucrtd:_file.obj
 0001:00078d20       _lock_file                 0000000180079d20 f   libucrtd:_file.obj
 0001:00078d60       _unlock_file               0000000180079d60 f   libucrtd:_file.obj
 0001:00078da0       _fputc_nolock              0000000180079da0 f   libucrtd:fputc.obj
 0001:00078e50       _fputchar                  0000000180079e50 f   libucrtd:fputc.obj
 0001:00078e80       _putc_nolock               0000000180079e80 f   libucrtd:fputc.obj
 0001:00078ea0       fputc                      0000000180079ea0 f   libucrtd:fputc.obj
 0001:00079140       putc                       000000018007a140 f   libucrtd:fputc.obj
 0001:00079160       putchar                    000000018007a160 f   libucrtd:fputc.obj
 0001:00079180       _get_printf_count_output   000000018007a180 f   libucrtd:printf_count_output.obj
 0001:000791b0       _set_printf_count_output   000000018007a1b0 f   libucrtd:printf_count_output.obj
 0001:00079220       ?has_any_buffer@__crt_stdio_stream@@QEBA_NXZ 000000018007a220 f i libucrtd:_sftbuf.obj
 0001:00079240       ?has_any_of@__crt_stdio_stream@@QEBA_NJ@Z 000000018007a240 f i libucrtd:_sftbuf.obj
 0001:00079280       ?has_temporary_buffer@__crt_stdio_stream@@QEBA_NXZ 000000018007a280 f i libucrtd:_sftbuf.obj
 0001:000792a0       ?set_flags@__crt_stdio_stream@@QEBA_NJ@Z 000000018007a2a0 f i libucrtd:_sftbuf.obj
 0001:00079310       ?unset_flags@__crt_stdio_stream@@QEBA_NJ@Z 000000018007a310 f i libucrtd:_sftbuf.obj
 0001:00079370       __acrt_should_use_temporary_buffer 000000018007a370 f   libucrtd:_sftbuf.obj
 0001:000793c0       __acrt_stdio_begin_temporary_buffering_nolock 000000018007a3c0 f   libucrtd:_sftbuf.obj
 0001:00079600       __acrt_stdio_end_temporary_buffering_nolock 000000018007a600 f   libucrtd:_sftbuf.obj
 0001:000796b0       ??$?RU__crt_locale_data@@@__crt_internal_free_policy@@QEBAXQEBU__crt_locale_data@@@Z 000000018007a6b0 f i libucrtd:wsetlocale.obj
 0001:000796e0       ??$?RU__crt_locale_pointers@@@__crt_internal_free_policy@@QEBAXQEBU__crt_locale_pointers@@@Z 000000018007a6e0 f i libucrtd:wsetlocale.obj
 0001:00079710       ??$?RU__crt_multibyte_data@@@__crt_internal_free_policy@@QEBAXQEBU__crt_multibyte_data@@@Z 000000018007a710 f i libucrtd:wsetlocale.obj
 0001:00079c70       ??0?$__crt_unique_heap_ptr@U__crt_locale_data@@U__crt_internal_free_policy@@@@QEAA@QEAU__crt_locale_data@@@Z 000000018007ac70 f i libucrtd:wsetlocale.obj
 0001:00079c90       ??0?$__crt_unique_heap_ptr@U__crt_locale_pointers@@U__crt_internal_free_policy@@@@QEAA@QEAU__crt_locale_pointers@@@Z 000000018007ac90 f i libucrtd:wsetlocale.obj
 0001:00079cb0       ??0?$__crt_unique_heap_ptr@U__crt_multibyte_data@@U__crt_internal_free_policy@@@@QEAA@QEAU__crt_multibyte_data@@@Z 000000018007acb0 f i libucrtd:wsetlocale.obj
 0001:00079cd0       ??0_expandlocale_locale_name_cache@@QEAA@QEA_W_KQEAU__crt_qualified_locale_data@@@Z 000000018007acd0 f i libucrtd:wsetlocale.obj
 0001:00079d80       ??1?$__crt_unique_heap_ptr@U__crt_locale_data@@U__crt_internal_free_policy@@@@QEAA@XZ 000000018007ad80 f i libucrtd:wsetlocale.obj
 0001:00079da0       ??1?$__crt_unique_heap_ptr@U__crt_locale_pointers@@U__crt_internal_free_policy@@@@QEAA@XZ 000000018007ada0 f i libucrtd:wsetlocale.obj
 0001:00079dc0       ??1?$__crt_unique_heap_ptr@U__crt_multibyte_data@@U__crt_internal_free_policy@@@@QEAA@XZ 000000018007adc0 f i libucrtd:wsetlocale.obj
 0001:00079de0       ??1_expandlocale_locale_name_cache@@QEAA@XZ 000000018007ade0 f i libucrtd:wsetlocale.obj
 0001:00079e60       ??B?$__crt_unique_heap_ptr@U__crt_locale_data@@U__crt_internal_free_policy@@@@QEBA_NXZ 000000018007ae60 f i libucrtd:wsetlocale.obj
 0001:00079e80       ??B?$__crt_unique_heap_ptr@U__crt_locale_pointers@@U__crt_internal_free_policy@@@@QEBA_NXZ 000000018007ae80 f i libucrtd:wsetlocale.obj
 0001:00079ea0       ??B?$__crt_unique_heap_ptr@U__crt_multibyte_data@@U__crt_internal_free_policy@@@@QEBA_NXZ 000000018007aea0 f i libucrtd:wsetlocale.obj
 0001:0007a350       ?commit_locale_name@_expandlocale_locale_name_cache@@QEAAXQEB_W_K@Z 000000018007b350 f i libucrtd:wsetlocale.obj
 0001:0007a3d0       ?commit_locale_name_cache_already_updated@_expandlocale_locale_name_cache@@QEAAXQEB_W_K@Z 000000018007b3d0 f i libucrtd:wsetlocale.obj
 0001:0007a440       ?detach@?$__crt_unique_heap_ptr@U__crt_locale_data@@U__crt_internal_free_policy@@@@QEAAPEAU__crt_locale_data@@XZ 000000018007b440 f i libucrtd:wsetlocale.obj
 0001:0007a470       ?detach@?$__crt_unique_heap_ptr@U__crt_locale_pointers@@U__crt_internal_free_policy@@@@QEAAPEAU__crt_locale_pointers@@XZ 000000018007b470 f i libucrtd:wsetlocale.obj
 0001:0007a4a0       ?detach@?$__crt_unique_heap_ptr@U__crt_multibyte_data@@U__crt_internal_free_policy@@@@QEAAPEAU__crt_multibyte_data@@XZ 000000018007b4a0 f i libucrtd:wsetlocale.obj
 0001:0007a4d0       ?get@?$__crt_unique_heap_ptr@U__crt_locale_data@@U__crt_internal_free_policy@@@@QEBAPEAU__crt_locale_data@@XZ 000000018007b4d0 f i libucrtd:wsetlocale.obj
 0001:0007a4e0       ?get@?$__crt_unique_heap_ptr@U__crt_locale_pointers@@U__crt_internal_free_policy@@@@QEBAPEAU__crt_locale_pointers@@XZ 000000018007b4e0 f i libucrtd:wsetlocale.obj
 0001:0007a4f0       ?get@?$__crt_unique_heap_ptr@U__crt_multibyte_data@@U__crt_internal_free_policy@@@@QEBAPEAU__crt_multibyte_data@@XZ 000000018007b4f0 f i libucrtd:wsetlocale.obj
 0001:0007a500       ?is_valid@?$__crt_unique_heap_ptr@U__crt_locale_data@@U__crt_internal_free_policy@@@@QEBA_NXZ 000000018007b500 f i libucrtd:wsetlocale.obj
 0001:0007a530       ?is_valid@?$__crt_unique_heap_ptr@U__crt_locale_pointers@@U__crt_internal_free_policy@@@@QEBA_NXZ 000000018007b530 f i libucrtd:wsetlocale.obj
 0001:0007a560       ?is_valid@?$__crt_unique_heap_ptr@U__crt_multibyte_data@@U__crt_internal_free_policy@@@@QEBA_NXZ 000000018007b560 f i libucrtd:wsetlocale.obj
 0001:0007a590       ?release@?$__crt_unique_heap_ptr@U__crt_locale_data@@U__crt_internal_free_policy@@@@QEAAXXZ 000000018007b590 f i libucrtd:wsetlocale.obj
 0001:0007a5c0       ?release@?$__crt_unique_heap_ptr@U__crt_locale_pointers@@U__crt_internal_free_policy@@@@QEAAXXZ 000000018007b5c0 f i libucrtd:wsetlocale.obj
 0001:0007a5f0       ?release@?$__crt_unique_heap_ptr@U__crt_multibyte_data@@U__crt_internal_free_policy@@@@QEAAXXZ 000000018007b5f0 f i libucrtd:wsetlocale.obj
 0001:0007a620       __acrt_copy_locale_name    000000018007b620 f   libucrtd:wsetlocale.obj
 0001:0007a6f0       __acrt_set_locale_changed  000000018007b6f0 f   libucrtd:wsetlocale.obj
 0001:0007a700       __acrt_uninitialize_locale 000000018007b700 f   libucrtd:wsetlocale.obj
 0001:0007a730       __ascii_tolower            000000018007b730 f i libucrtd:wsetlocale.obj
 0001:0007a750       __ascii_towlower           000000018007b750 f i libucrtd:wsetlocale.obj
 0001:0007a770       __lc_lctowcs               000000018007b770 f   libucrtd:wsetlocale.obj
 0001:0007a860       __lc_wcstolc               000000018007b860 f   libucrtd:wsetlocale.obj
 0001:0007ab20       _configthreadlocale        000000018007bb20 f   libucrtd:wsetlocale.obj
 0001:0007ace0       _create_locale             000000018007bce0 f   libucrtd:wsetlocale.obj
 0001:0007b3e0       _free_locale               000000018007c3e0 f   libucrtd:wsetlocale.obj
 0001:0007b4d0       _get_current_locale        000000018007c4d0 f   libucrtd:wsetlocale.obj
 0001:0007b5e0       _wcreate_locale            000000018007c5e0 f   libucrtd:wsetlocale.obj
 0001:0007b8d0       _wcscats                   000000018007c8d0 f   libucrtd:wsetlocale.obj
 0001:0007b9b0       _wsetlocale                000000018007c9b0 f   libucrtd:wsetlocale.obj
 0001:0007d5c0       __p___mb_cur_max           000000018007e5c0 f   libucrtd:nlsdata.obj
 0001:0007d9a0       __acrt_initialize_lowio    000000018007e9a0 f   libucrtd:ioinit.obj
 0001:0007d9f0       __acrt_uninitialize_lowio  000000018007e9f0 f   libucrtd:ioinit.obj
 0001:0007da70       _msize                     000000018007ea70 f   libucrtd:msize.obj
 0001:0007da90       _msize_base                000000018007ea90 f   libucrtd:msize.obj
 0001:0007db60       _realloc_base              000000018007eb60 f   libucrtd:realloc_base.obj
 0001:0007e000       __acrt_get_begin_thread_init_policy 000000018007f000 f   libucrtd:win_policies.obj
 0001:0007e010       __acrt_get_developer_information_policy 000000018007f010 f   libucrtd:win_policies.obj
 0001:0007e030       __acrt_get_process_end_policy 000000018007f030 f   libucrtd:win_policies.obj
 0001:0007e040       __acrt_get_windowing_model_policy 000000018007f040 f   libucrtd:win_policies.obj
 0001:0007e400       ??$__acrt_mbs_to_wcs_cp@U__crt_win32_buffer_internal_dynamic_resizing@@@@YAHQEBDAEAV?$__crt_win32_buffer@_WU__crt_win32_buffer_internal_dynamic_resizing@@@@I@Z 000000018007f400 f i libucrtd:argv_wildcards.obj
 0001:0007e450       ??$__acrt_wcs_to_mbs_cp@U__crt_win32_buffer_internal_dynamic_resizing@@@@YAHQEB_WAEAV?$__crt_win32_buffer@DU__crt_win32_buffer_internal_dynamic_resizing@@@@I@Z 000000018007f450 f i libucrtd:argv_wildcards.obj
 0001:0007f8d0       ??$tcsncpy_s@AEAPEAD_KAEAPEADAEB_K@?$__crt_char_traits@D@@SAHAEAPEAD$$QEA_K0AEB_K@Z 00000001800808d0 f i libucrtd:argv_wildcards.obj
 0001:0007f920       ??$tcsncpy_s@AEAPEA_W_KAEAPEA_WAEB_K@?$__crt_char_traits@_W@@SAHAEAPEA_W$$QEA_K0AEB_K@Z 0000000180080920 f i libucrtd:argv_wildcards.obj
 0001:0007f970       ??$tcsncpy_s@PEADAEB_KAEBQEBDAEB_K@?$__crt_char_traits@D@@SAH$$QEAPEADAEB_KAEBQEBD1@Z 0000000180080970 f i libucrtd:argv_wildcards.obj
 0001:0007f9c0       ??$tcsncpy_s@PEAD_KAEBQEBDAEB_K@?$__crt_char_traits@D@@SAH$$QEAPEAD$$QEA_KAEBQEBDAEB_K@Z 00000001800809c0 f i libucrtd:argv_wildcards.obj
 0001:0007fa10       ??$tcsncpy_s@PEA_WAEB_KAEBQEB_WAEB_K@?$__crt_char_traits@_W@@SAH$$QEAPEA_WAEB_KAEBQEB_W1@Z 0000000180080a10 f i libucrtd:argv_wildcards.obj
 0001:0007fa60       ??$tcsncpy_s@PEA_W_KAEBQEB_WAEB_K@?$__crt_char_traits@_W@@SAH$$QEAPEA_W$$QEA_KAEBQEB_WAEB_K@Z 0000000180080a60 f i libucrtd:argv_wildcards.obj
 0001:0007fab0       ??$tcspbrk@AEAPEADAEAY02$$CBD@?$__crt_char_traits@D@@SAPEADAEAPEADAEAY02$$CBD@Z 0000000180080ab0 f i libucrtd:argv_wildcards.obj
 0001:0007fae0       ??$tcspbrk@AEAPEA_WAEAY02$$CB_W@?$__crt_char_traits@_W@@SAPEA_WAEAPEA_WAEAY02$$CB_W@Z 0000000180080ae0 f i libucrtd:argv_wildcards.obj
 0001:0007fb10       ??0?$__crt_unique_handle_t@U__crt_findfile_traits@@@@QEAA@QEAX@Z 0000000180080b10 f i libucrtd:argv_wildcards.obj
 0001:0007fb30       ??0?$__crt_win32_buffer@DU__crt_win32_buffer_internal_dynamic_resizing@@@@QEAA@XZ 0000000180080b30 f i libucrtd:argv_wildcards.obj
 0001:0007fb90       ??0?$__crt_win32_buffer@_WU__crt_win32_buffer_internal_dynamic_resizing@@@@QEAA@XZ 0000000180080b90 f i libucrtd:argv_wildcards.obj
 0001:0007fc70       ??1?$__crt_unique_handle_t@U__crt_findfile_traits@@@@QEAA@XZ 0000000180080c70 f i libucrtd:argv_wildcards.obj
 0001:0007fc90       ??1?$__crt_win32_buffer@DU__crt_win32_buffer_internal_dynamic_resizing@@@@QEAA@XZ 0000000180080c90 f i libucrtd:argv_wildcards.obj
 0001:0007fcc0       ??1?$__crt_win32_buffer@_WU__crt_win32_buffer_internal_dynamic_resizing@@@@QEAA@XZ 0000000180080cc0 f i libucrtd:argv_wildcards.obj
 0001:0007ffc0       ?_deallocate@?$__crt_win32_buffer@DU__crt_win32_buffer_internal_dynamic_resizing@@@@AEAAXXZ 0000000180080fc0 f i libucrtd:argv_wildcards.obj
 0001:00080000       ?_deallocate@?$__crt_win32_buffer@_WU__crt_win32_buffer_internal_dynamic_resizing@@@@AEAAXXZ 0000000180081000 f i libucrtd:argv_wildcards.obj
 0001:00080040       ?allocate@?$__crt_win32_buffer@DU__crt_win32_buffer_internal_dynamic_resizing@@@@QEAAH_K@Z 0000000180081040 f i libucrtd:argv_wildcards.obj
 0001:000800c0       ?allocate@?$__crt_win32_buffer@_WU__crt_win32_buffer_internal_dynamic_resizing@@@@QEAAH_K@Z 00000001800810c0 f i libucrtd:argv_wildcards.obj
 0001:00080150       ?allocate@__crt_win32_buffer_internal_dynamic_resizing@@SAHQEAPEAX_KAEBV__crt_win32_buffer_empty_debug_info@@@Z 0000000180081150 f i libucrtd:argv_wildcards.obj
 0001:000802b0       ?capacity@?$__crt_win32_buffer@DU__crt_win32_buffer_internal_dynamic_resizing@@@@QEBA_KXZ 00000001800812b0 f i libucrtd:argv_wildcards.obj
 0001:000802c0       ?capacity@?$__crt_win32_buffer@_WU__crt_win32_buffer_internal_dynamic_resizing@@@@QEBA_KXZ 00000001800812c0 f i libucrtd:argv_wildcards.obj
 0001:000802d0       ?close@?$__crt_unique_handle_t@U__crt_findfile_traits@@@@QEAAXXZ 00000001800812d0 f i libucrtd:argv_wildcards.obj
 0001:00080310       ?close@__crt_findfile_traits@@SA_NPEAX@Z 0000000180081310 f i libucrtd:argv_wildcards.obj
 0001:00080350       ?data@?$__crt_win32_buffer@DU__crt_win32_buffer_internal_dynamic_resizing@@@@QEAAPEADXZ 0000000180081350 f i libucrtd:argv_wildcards.obj
 0001:00080360       ?data@?$__crt_win32_buffer@_WU__crt_win32_buffer_internal_dynamic_resizing@@@@QEAAPEA_WXZ 0000000180081360 f i libucrtd:argv_wildcards.obj
 0001:00080370       ?deallocate@__crt_win32_buffer_internal_dynamic_resizing@@SAXQEAXAEBV__crt_win32_buffer_empty_debug_info@@@Z 0000000180081370 f i libucrtd:argv_wildcards.obj
 0001:000803a0       ?debug_info@?$__crt_win32_buffer@DU__crt_win32_buffer_internal_dynamic_resizing@@@@QEBAAEBV__crt_win32_buffer_empty_debug_info@@XZ 00000001800813a0 f i libucrtd:argv_wildcards.obj
 0001:000803b0       ?debug_info@?$__crt_win32_buffer@_WU__crt_win32_buffer_internal_dynamic_resizing@@@@QEBAAEBV__crt_win32_buffer_empty_debug_info@@XZ 00000001800813b0 f i libucrtd:argv_wildcards.obj
 0001:000807a0       ?get@?$__crt_unique_handle_t@U__crt_findfile_traits@@@@QEBAPEAXXZ 00000001800817a0 f i libucrtd:argv_wildcards.obj
 0001:00080810       ?get_invalid_value@__crt_findfile_traits@@SAPEAXXZ 0000000180081810 f i libucrtd:argv_wildcards.obj
 0001:000808d0       ?set_to_nullptr@?$__crt_win32_buffer@DU__crt_win32_buffer_internal_dynamic_resizing@@@@QEAAXXZ 00000001800818d0 f i libucrtd:argv_wildcards.obj
 0001:00080910       ?set_to_nullptr@?$__crt_win32_buffer@_WU__crt_win32_buffer_internal_dynamic_resizing@@@@QEAAXXZ 0000000180081910 f i libucrtd:argv_wildcards.obj
 0001:00080950       ?size@?$__crt_win32_buffer@DU__crt_win32_buffer_internal_dynamic_resizing@@@@QEAAX_K@Z 0000000180081950 f i libucrtd:argv_wildcards.obj
 0001:00080970       ?size@?$__crt_win32_buffer@_WU__crt_win32_buffer_internal_dynamic_resizing@@@@QEAAX_K@Z 0000000180081970 f i libucrtd:argv_wildcards.obj
 0001:000809d0       ?strpbrk@@YAPEADQEADQEBD@Z 00000001800819d0 f i libucrtd:argv_wildcards.obj
 0001:00080a00       ?wcspbrk@@YAPEA_WPEA_WPEB_W@Z 0000000180081a00 f i libucrtd:argv_wildcards.obj
 0001:00080a30       __acrt_expand_narrow_argv_wildcards 0000000180081a30 f   libucrtd:argv_wildcards.obj
 0001:00080a60       __acrt_expand_wide_argv_wildcards 0000000180081a60 f   libucrtd:argv_wildcards.obj
 0001:00080b20       ??$initialize_from_array@$$BY10BAA@E@?$dual_state_global@PEAE@__crt_state_management@@QEAAXAEAY10BAA@E@Z 0000000180081b20 f i libucrtd:mbctype.obj
 0001:00080b90       ??$initialize_from_array@$$BY10BAB@E@?$dual_state_global@PEAE@__crt_state_management@@QEAAXAEAY10BAB@E@Z 0000000180081b90 f i libucrtd:mbctype.obj
 0001:00080e70       ?dangerous_get_state_array@?$dual_state_global@PEAE@__crt_state_management@@QEAAPEAPEAEXZ 0000000180081e70 f i libucrtd:mbctype.obj
 0001:00080e80       ?dangerous_get_state_array@?$dual_state_global@PEAU__crt_multibyte_data@@@__crt_state_management@@QEAAPEAPEAU__crt_multibyte_data@@XZ 0000000180081e80 f i libucrtd:mbctype.obj
 0001:00080f70       ?initialize@?$dual_state_global@PEAU__crt_multibyte_data@@@__crt_state_management@@QEAAXQEAU__crt_multibyte_data@@@Z 0000000180081f70 f i libucrtd:mbctype.obj
 0001:00081820       ?value@?$dual_state_global@PEAE@__crt_state_management@@QEAAAEAPEAEXZ 0000000180082820 f i libucrtd:mbctype.obj
 0001:00081840       __acrt_initialize_multibyte 0000000180082840 f   libucrtd:mbctype.obj
 0001:00081910       __acrt_update_thread_multibyte_data 0000000180082910 f   libucrtd:mbctype.obj
 0001:00081940       __p__mbcasemap             0000000180082940 f   libucrtd:mbctype.obj
 0001:00081960       __p__mbctype               0000000180082960 f   libucrtd:mbctype.obj
 0001:00081980       _getmbcp                   0000000180082980 f   libucrtd:mbctype.obj
 0001:00081a00       _setmbcp                   0000000180082a00 f   libucrtd:mbctype.obj
 0001:00081a40       _setmbcp_nolock            0000000180082a40 f   libucrtd:mbctype.obj
 0001:000820e4       _ismbbalnum                00000001800830e4 f   libucrtd:ismbbyte.obj
 0001:000820fc       _ismbbalnum_l              00000001800830fc f   libucrtd:ismbbyte.obj
 0001:00082118       _ismbbalpha                0000000180083118 f   libucrtd:ismbbyte.obj
 0001:00082130       _ismbbalpha_l              0000000180083130 f   libucrtd:ismbbyte.obj
 0001:0008214c       _ismbbblank                000000018008314c f   libucrtd:ismbbyte.obj
 0001:00082168       _ismbbblank_l              0000000180083168 f   libucrtd:ismbbyte.obj
 0001:00082188       _ismbbgraph                0000000180083188 f   libucrtd:ismbbyte.obj
 0001:000821a0       _ismbbgraph_l              00000001800831a0 f   libucrtd:ismbbyte.obj
 0001:000821bc       _ismbbkalnum               00000001800831bc f   libucrtd:ismbbyte.obj
 0001:000821d0       _ismbbkalnum_l             00000001800831d0 f   libucrtd:ismbbyte.obj
 0001:000821e8       _ismbbkana                 00000001800831e8 f   libucrtd:ismbbyte.obj
 0001:000821f0       _ismbbkana_l               00000001800831f0 f   libucrtd:ismbbyte.obj
 0001:00082258       _ismbbkprint               0000000180083258 f   libucrtd:ismbbyte.obj
 0001:0008226c       _ismbbkprint_l             000000018008326c f   libucrtd:ismbbyte.obj
 0001:00082284       _ismbbkpunct               0000000180083284 f   libucrtd:ismbbyte.obj
 0001:00082298       _ismbbkpunct_l             0000000180083298 f   libucrtd:ismbbyte.obj
 0001:000822b0       _ismbblead                 00000001800832b0 f   libucrtd:ismbbyte.obj
 0001:000822c4       _ismbblead_l               00000001800832c4 f   libucrtd:ismbbyte.obj
 0001:000822dc       _ismbbprint                00000001800832dc f   libucrtd:ismbbyte.obj
 0001:000822f4       _ismbbprint_l              00000001800832f4 f   libucrtd:ismbbyte.obj
 0001:00082310       _ismbbpunct                0000000180083310 f   libucrtd:ismbbyte.obj
 0001:00082324       _ismbbpunct_l              0000000180083324 f   libucrtd:ismbbyte.obj
 0001:0008233c       _ismbbtrail                000000018008333c f   libucrtd:ismbbyte.obj
 0001:00082350       _ismbbtrail_l              0000000180083350 f   libucrtd:ismbbyte.obj
 0001:00082370       __acrt_initialize_command_line 0000000180083370 f   libucrtd:argv_data.obj
 0001:000823a0       __acrt_uninitialize_command_line 00000001800833a0 f   libucrtd:argv_data.obj
 0001:000823b0       __p___argc                 00000001800833b0 f   libucrtd:argv_data.obj
 0001:000823c0       __p___argv                 00000001800833c0 f   libucrtd:argv_data.obj
 0001:000823d0       __p___wargv                00000001800833d0 f   libucrtd:argv_data.obj
 0001:000823e0       __p__acmdln                00000001800833e0 f   libucrtd:argv_data.obj
 0001:000823f0       __p__pgmptr                00000001800833f0 f   libucrtd:argv_data.obj
 0001:00082400       __p__wcmdln                0000000180083400 f   libucrtd:argv_data.obj
 0001:00082410       __p__wpgmptr               0000000180083410 f   libucrtd:argv_data.obj
 0001:00082420       _get_pgmptr                0000000180083420 f   libucrtd:argv_data.obj
 0001:00082590       _get_wpgmptr               0000000180083590 f   libucrtd:argv_data.obj
 0001:000827a0       __acrt_MultiByteToWideChar 00000001800837a0 f   libucrtd:multibytetowidechar.obj
 0001:000828a0       __acrt_WideCharToMultiByte 00000001800838a0 f   libucrtd:widechartomultibyte.obj
 0001:00082a70       __dcrt_get_narrow_environment_from_os 0000000180083a70 f   libucrtd:get_environment_from_os.obj
 0001:00082b88       __dcrt_get_wide_environment_from_os 0000000180083b88 f   libucrtd:get_environment_from_os.obj
 0001:0008391c       ??$get_or_create_environment_nolock@$$V@?$__crt_char_traits@D@@SAPEAPEADXZ 000000018008491c f i libucrtd:setenv.obj
 0001:00083924       ??$get_or_create_environment_nolock@$$V@?$__crt_char_traits@_W@@SAPEAPEA_WXZ 0000000180084924 f i libucrtd:setenv.obj
 0001:0008392c       ??$set_environment_variable@AEBQEADQEAD@?$__crt_char_traits@D@@SAHAEBQEAD$$QEBQEAD@Z 000000018008492c f i libucrtd:setenv.obj
 0001:00083938       ??$set_environment_variable@AEBQEA_WQEA_W@?$__crt_char_traits@_W@@SAHAEBQEA_W$$QEBQEA_W@Z 0000000180084938 f i libucrtd:setenv.obj
 0001:00083948       ??$tcschr@AEBQEADD@?$__crt_char_traits@D@@SAPEADAEBQEAD$$QEAD@Z 0000000180084948 f i libucrtd:setenv.obj
 0001:00083954       ??$tcschr@AEBQEA_WD@?$__crt_char_traits@_W@@SAPEA_WAEBQEA_W$$QEAD@Z 0000000180084954 f i libucrtd:setenv.obj
 0001:00083960       ??$tcscpy_s@AEAPEADAEB_KAEAPEAD@?$__crt_char_traits@D@@SAHAEAPEADAEB_K0@Z 0000000180084960 f i libucrtd:setenv.obj
 0001:00083970       ??$tcscpy_s@AEAPEA_WAEB_KAEAPEA_W@?$__crt_char_traits@_W@@SAHAEAPEA_WAEB_K0@Z 0000000180084970 f i libucrtd:setenv.obj
 0001:00083980       ??$tcscpy_s@AEBQEADAEB_KAEBQEAD@?$__crt_char_traits@D@@SAHAEBQEADAEB_K0@Z 0000000180084980 f i libucrtd:setenv.obj
 0001:00083990       ??$tcscpy_s@AEBQEA_WAEB_KAEBQEA_W@?$__crt_char_traits@_W@@SAHAEBQEA_WAEB_K0@Z 0000000180084990 f i libucrtd:setenv.obj
 0001:000839a0       ??$tcslen@AEBQEAD@?$__crt_char_traits@D@@SA_KAEBQEAD@Z 00000001800849a0 f i libucrtd:setenv.obj
 0001:000839b4       ??$tcslen@AEBQEA_W@?$__crt_char_traits@_W@@SA_KAEBQEA_W@Z 00000001800849b4 f i libucrtd:setenv.obj
 0001:000839c8       ??$tcsnicoll@AEBQEBDAEAPEADAEB_K@?$__crt_char_traits@D@@SAHAEBQEBDAEAPEADAEB_K@Z 00000001800849c8 f i libucrtd:setenv.obj
 0001:000839d8       ??$tcsnicoll@AEBQEB_WAEAPEA_WAEB_K@?$__crt_char_traits@_W@@SAHAEBQEB_WAEAPEA_WAEB_K@Z 00000001800849d8 f i libucrtd:setenv.obj
 0001:000839e8       ??$tcsnlen@PEADH@?$__crt_char_traits@D@@SA_K$$QEAPEAD$$QEAH@Z 00000001800849e8 f i libucrtd:setenv.obj
 0001:000839f4       ??$tcsnlen@PEA_WH@?$__crt_char_traits@_W@@SA_K$$QEAPEA_W$$QEAH@Z 00000001800849f4 f i libucrtd:setenv.obj
 0001:00083a30       ?strchr@@YAPEADQEADH@Z     0000000180084a30 f i libucrtd:setenv.obj
 0001:00083a38       ?wcschr@@YAPEA_WPEA_W_W@Z  0000000180084a38 f i libucrtd:setenv.obj
 0001:00083a40       __dcrt_set_variable_in_narrow_environment_nolock 0000000180084a40 f   libucrtd:setenv.obj
 0001:00083a48       __dcrt_set_variable_in_wide_environment_nolock 0000000180084a48 f   libucrtd:setenv.obj
 0001:00083a70       ??$?B$$A6AHPEA_WK_J@Z@__crt_fast_encoded_nullptr_t@@QEBAP6AHPEA_WK_J@ZXZ 0000000180084a70 f i libucrtd:winapi_thunks.obj
 0001:00083b30       ??$__crt_fast_decode_pointer@P6AHPEA_WK_J@Z@@YAP6AHPEA_WK_J@ZQ6AH0K1@Z@Z 0000000180084b30 f i libucrtd:winapi_thunks.obj
 0001:00083b70       ??$__crt_fast_decode_pointer@PEAX@@YAPEAXQEAX@Z 0000000180084b70 f i libucrtd:winapi_thunks.obj
 0001:00083bb0       ??$__crt_fast_encode_pointer@P6AHPEA_WK_J@Z@@YAP6AHPEA_WK_J@ZQ6AH0K1@Z@Z 0000000180084bb0 f i libucrtd:winapi_thunks.obj
 0001:00084820       GetCurrentThreadEffectiveToken 0000000180085820 f i libucrtd:winapi_thunks.obj
 0001:00084830       __acrt_AppPolicyGetProcessTerminationMethodInternal 0000000180085830 f   libucrtd:winapi_thunks.obj
 0001:00084880       __acrt_AppPolicyGetShowDeveloperDiagnosticInternal 0000000180085880 f   libucrtd:winapi_thunks.obj
 0001:000848d0       __acrt_AppPolicyGetThreadInitializationTypeInternal 00000001800858d0 f   libucrtd:winapi_thunks.obj
 0001:00084920       __acrt_AppPolicyGetWindowingModelInternal 0000000180085920 f   libucrtd:winapi_thunks.obj
 0001:00084970       __acrt_AreFileApisANSI     0000000180085970 f   libucrtd:winapi_thunks.obj
 0001:000849b0       __acrt_CompareStringEx     00000001800859b0 f   libucrtd:winapi_thunks.obj
 0001:00084a90       __acrt_EnumSystemLocalesEx 0000000180085a90 f   libucrtd:winapi_thunks.obj
 0001:00084b10       __acrt_FlsAlloc            0000000180085b10 f   libucrtd:winapi_thunks.obj
 0001:00084b60       __acrt_FlsFree             0000000180085b60 f   libucrtd:winapi_thunks.obj
 0001:00084bb0       __acrt_FlsGetValue         0000000180085bb0 f   libucrtd:winapi_thunks.obj
 0001:00084c00       __acrt_FlsSetValue         0000000180085c00 f   libucrtd:winapi_thunks.obj
 0001:00084c60       __acrt_GetDateFormatEx     0000000180085c60 f   libucrtd:winapi_thunks.obj
 0001:00084d20       __acrt_GetEnabledXStateFeatures 0000000180085d20 f   libucrtd:winapi_thunks.obj
 0001:00084d60       __acrt_GetLocaleInfoEx     0000000180085d60 f   libucrtd:winapi_thunks.obj
 0001:00084de0       __acrt_GetSystemTimePreciseAsFileTime 0000000180085de0 f   libucrtd:winapi_thunks.obj
 0001:00084e30       __acrt_GetTimeFormatEx     0000000180085e30 f   libucrtd:winapi_thunks.obj
 0001:00084ee0       __acrt_GetUserDefaultLocaleName 0000000180085ee0 f   libucrtd:winapi_thunks.obj
 0001:00084f40       __acrt_GetXStateFeaturesMask 0000000180085f40 f   libucrtd:winapi_thunks.obj
 0001:00084f90       __acrt_InitializeCriticalSectionEx 0000000180085f90 f   libucrtd:winapi_thunks.obj
 0001:00084ff0       __acrt_IsValidLocaleName   0000000180085ff0 f   libucrtd:winapi_thunks.obj
 0001:00085050       __acrt_LCIDToLocaleName    0000000180086050 f   libucrtd:winapi_thunks.obj
 0001:000850c0       __acrt_LCMapStringEx       00000001800860c0 f   libucrtd:winapi_thunks.obj
 0001:000851a0       __acrt_LocaleNameToLCID    00000001800861a0 f   libucrtd:winapi_thunks.obj
 0001:000851f0       __acrt_LocateXStateFeature 00000001800861f0 f   libucrtd:winapi_thunks.obj
 0001:00085250       __acrt_MessageBoxA         0000000180086250 f   libucrtd:winapi_thunks.obj
 0001:000852b0       __acrt_MessageBoxW         00000001800862b0 f   libucrtd:winapi_thunks.obj
 0001:00085310       __acrt_RoInitialize        0000000180086310 f   libucrtd:winapi_thunks.obj
 0001:00085350       __acrt_RoUninitialize      0000000180086350 f   libucrtd:winapi_thunks.obj
 0001:00085380       __acrt_RtlGenRandom        0000000180086380 f   libucrtd:winapi_thunks.obj
 0001:000853d0       __acrt_SetThreadStackGuarantee 00000001800863d0 f   libucrtd:winapi_thunks.obj
 0001:00085410       __acrt_can_show_message_box 0000000180086410 f   libucrtd:winapi_thunks.obj
 0001:00085450       __acrt_can_use_vista_locale_apis 0000000180086450 f   libucrtd:winapi_thunks.obj
 0001:00085480       __acrt_can_use_xstate_apis 0000000180086480 f   libucrtd:winapi_thunks.obj
 0001:000854b0       __acrt_eagerly_load_locale_apis 00000001800864b0 f   libucrtd:winapi_thunks.obj
 0001:000854f0       __acrt_get_parent_window   00000001800864f0 f   libucrtd:winapi_thunks.obj
 0001:00085570       __acrt_initialize_winapi_thunks 0000000180086570 f   libucrtd:winapi_thunks.obj
 0001:000855f0       __acrt_is_interactive      00000001800865f0 f   libucrtd:winapi_thunks.obj
 0001:000856d0       __acrt_uninitialize_winapi_thunks 00000001800866d0 f   libucrtd:winapi_thunks.obj
 0001:00085770       __acrt_getheap             0000000180086770 f   libucrtd:heap_handle.obj
 0001:000857d0       __acrt_initialize_heap     00000001800867d0 f   libucrtd:heap_handle.obj
 0001:00085800       __acrt_uninitialize_heap   0000000180086800 f   libucrtd:heap_handle.obj
 0001:00085820       _get_heap_handle           0000000180086820 f   libucrtd:heap_handle.obj
 0001:00085880       __acrt_execute_initializers 0000000180086880 f   libucrtd:shared_initialization.obj
 0001:00085970       __acrt_execute_uninitializers 0000000180086970 f   libucrtd:shared_initialization.obj
 0001:000859f0       ??$__crt_fast_decode_pointer@P6AHPEAU_exception@@@Z@@YAP6AHPEAU_exception@@@ZQ6AH0@Z@Z 00000001800869f0 f i libucrtd:matherr.obj
 0001:00085a30       ??$__crt_fast_encode_pointer@P6AHPEAU_exception@@@Z@@YAP6AHPEAU_exception@@@ZQ6AH0@Z@Z 0000000180086a30 f i libucrtd:matherr.obj
 0001:00085a70       ?initialize@?$dual_state_global@P6AHPEAU_exception@@@Z@__crt_state_management@@QEAAXQ6AHPEAU_exception@@@Z@Z 0000000180086a70 f i libucrtd:matherr.obj
 0001:00085ac0       ?value@?$dual_state_global@P6AHPEAU_exception@@@Z@__crt_state_management@@QEAAAEAP6AHPEAU_exception@@@ZXZ 0000000180086ac0 f i libucrtd:matherr.obj
 0001:00085ae0       __acrt_has_user_matherr    0000000180086ae0 f   libucrtd:matherr.obj
 0001:00085b20       __acrt_initialize_user_matherr 0000000180086b20 f   libucrtd:matherr.obj
 0001:00085b40       __acrt_invoke_user_matherr 0000000180086b40 f   libucrtd:matherr.obj
 0001:00085b90       __setusermatherr           0000000180086b90 f   libucrtd:matherr.obj
 0001:00085bd0       _chvalidator               0000000180086bd0 f   libucrtd:isctype.obj
 0001:00085c40       _chvalidator_l             0000000180086c40 f   libucrtd:isctype.obj
 0001:00085cf0       _isctype                   0000000180086cf0 f   libucrtd:isctype.obj
 0001:00085d40       _isctype_l                 0000000180086d40 f   libucrtd:isctype.obj
 0001:00085f70       _isleadbyte_fast_internal  0000000180086f70 f i libucrtd:isctype.obj
 0001:00085fb0       _free_base                 0000000180086fb0 f   libucrtd:free_base.obj
 0001:00086080       _expand                    0000000180087080 f   libucrtd:expand.obj
 0001:000860c0       _expand_base               00000001800870c0 f   libucrtd:expand.obj
 0001:00086250       ?value@?$dual_state_global@J@__crt_state_management@@QEAAAEAJXZ 0000000180087250 f i libucrtd:new_mode.obj
 0001:00086270       _query_new_mode            0000000180087270 f   libucrtd:new_mode.obj
 0001:00086290       _set_new_mode              0000000180087290 f   libucrtd:new_mode.obj
 0001:00086360       _CrtDefaultAllocHook       0000000180087360 f   libucrtd:debug_heap_hook.obj
 0001:0008637c       _mbsdec                    000000018008737c f   libucrtd:mbsdec.obj
 0001:00086384       _mbsdec_l                  0000000180087384 f   libucrtd:mbsdec.obj
 0001:00086b00       strncpy_s                  0000000180087b00 f   libucrtd:strncpy_s.obj
 0001:00086d10       __acrt_report_runtime_error 0000000180087d10 f   libucrtd:report_runtime_error.obj
 0001:00086f90       _query_app_type            0000000180087f90 f   libucrtd:report_runtime_error.obj
 0001:00086fa0       _set_app_type              0000000180087fa0 f   libucrtd:report_runtime_error.obj
 0001:00086fb0       _iswctype_l                0000000180087fb0 f   libucrtd:iswctype.obj
 0001:00086fe0       iswctype                   0000000180087fe0 f   libucrtd:iswctype.obj
 0001:000888b0       _i64toa                    00000001800898b0 f   libucrtd:xtoa.obj
 0001:00088920       _i64toa_s                  0000000180089920 f   libucrtd:xtoa.obj
 0001:00088990       _i64tow                    0000000180089990 f   libucrtd:xtoa.obj
 0001:00088a00       _i64tow_s                  0000000180089a00 f   libucrtd:xtoa.obj
 0001:00088a70       _itoa                      0000000180089a70 f   libucrtd:xtoa.obj
 0001:00088ae0       _itoa_s                    0000000180089ae0 f   libucrtd:xtoa.obj
 0001:00088b40       _itow                      0000000180089b40 f   libucrtd:xtoa.obj
 0001:00088bb0       _itow_s                    0000000180089bb0 f   libucrtd:xtoa.obj
 0001:00088c10       _ltoa                      0000000180089c10 f   libucrtd:xtoa.obj
 0001:00088c80       _ltoa_s                    0000000180089c80 f   libucrtd:xtoa.obj
 0001:00088ce0       _ltow                      0000000180089ce0 f   libucrtd:xtoa.obj
 0001:00088d50       _ltow_s                    0000000180089d50 f   libucrtd:xtoa.obj
 0001:00088db0       _ui64toa                   0000000180089db0 f   libucrtd:xtoa.obj
 0001:00088df0       _ui64toa_s                 0000000180089df0 f   libucrtd:xtoa.obj
 0001:00088e30       _ui64tow                   0000000180089e30 f   libucrtd:xtoa.obj
 0001:00088e70       _ui64tow_s                 0000000180089e70 f   libucrtd:xtoa.obj
 0001:00088eb0       _ultoa                     0000000180089eb0 f   libucrtd:xtoa.obj
 0001:00088ef0       _ultoa_s                   0000000180089ef0 f   libucrtd:xtoa.obj
 0001:00088f30       _ultow                     0000000180089f30 f   libucrtd:xtoa.obj
 0001:00088f70       _ultow_s                   0000000180089f70 f   libucrtd:xtoa.obj
 0001:00089590       _mbstowcs_l                000000018008a590 f   libucrtd:mbstowcs.obj
 0001:000895d0       _mbstowcs_s_l              000000018008a5d0 f   libucrtd:mbstowcs.obj
 0001:00089ba0       mbstowcs                   000000018008aba0 f   libucrtd:mbstowcs.obj
 0001:00089c00       mbstowcs_s                 000000018008ac00 f   libucrtd:mbstowcs.obj
 0001:0008a590       _wcstombs_l                000000018008b590 f   libucrtd:wcstombs.obj
 0001:0008a5d0       _wcstombs_s_l              000000018008b5d0 f   libucrtd:wcstombs.obj
 0001:0008ab10       wcstombs                   000000018008bb10 f   libucrtd:wcstombs.obj
 0001:0008ab40       wcstombs_s                 000000018008bb40 f   libucrtd:wcstombs.obj
 0001:0008ab90       __acrt_OutputDebugStringA  000000018008bb90 f   libucrtd:outputdebugstringa.obj
 0001:0008ac50       __iswcsym                  000000018008bc50 f i libucrtd:_wctype.obj
 0001:0008ac90       __iswcsymf                 000000018008bc90 f i libucrtd:_wctype.obj
 0001:0008acd0       _isleadbyte_l              000000018008bcd0 f i libucrtd:_wctype.obj
 0001:0008ad30       _iswalnum_l                000000018008bd30 f i libucrtd:_wctype.obj
 0001:0008ad60       _iswalpha_l                000000018008bd60 f i libucrtd:_wctype.obj
 0001:0008ad90       _iswblank_l                000000018008bd90 f i libucrtd:_wctype.obj
 0001:0008add0       _iswcntrl_l                000000018008bdd0 f i libucrtd:_wctype.obj
 0001:0008ae00       _iswcsym_l                 000000018008be00 f i libucrtd:_wctype.obj
 0001:0008ae50       _iswcsymf_l                000000018008be50 f i libucrtd:_wctype.obj
 0001:0008aea0       _iswdigit_l                000000018008bea0 f i libucrtd:_wctype.obj
 0001:0008aed0       _iswgraph_l                000000018008bed0 f i libucrtd:_wctype.obj
 0001:0008af00       _iswlower_l                000000018008bf00 f i libucrtd:_wctype.obj
 0001:0008af30       _iswprint_l                000000018008bf30 f i libucrtd:_wctype.obj
 0001:0008af60       _iswpunct_l                000000018008bf60 f i libucrtd:_wctype.obj
 0001:0008af90       _iswspace_l                000000018008bf90 f i libucrtd:_wctype.obj
 0001:0008afc0       _iswupper_l                000000018008bfc0 f i libucrtd:_wctype.obj
 0001:0008aff0       _iswxdigit_l               000000018008bff0 f i libucrtd:_wctype.obj
 0001:0008b020       isleadbyte                 000000018008c020 f i libucrtd:_wctype.obj
 0001:0008b040       iswalnum                   000000018008c040 f i libucrtd:_wctype.obj
 0001:0008b060       iswalpha                   000000018008c060 f i libucrtd:_wctype.obj
 0001:0008b080       iswascii                   000000018008c080 f i libucrtd:_wctype.obj
 0001:0008b0b0       iswblank                   000000018008c0b0 f i libucrtd:_wctype.obj
 0001:0008b0f0       iswcntrl                   000000018008c0f0 f i libucrtd:_wctype.obj
 0001:0008b110       iswdigit                   000000018008c110 f i libucrtd:_wctype.obj
 0001:0008b130       iswgraph                   000000018008c130 f i libucrtd:_wctype.obj
 0001:0008b150       iswlower                   000000018008c150 f i libucrtd:_wctype.obj
 0001:0008b170       iswprint                   000000018008c170 f i libucrtd:_wctype.obj
 0001:0008b190       iswpunct                   000000018008c190 f i libucrtd:_wctype.obj
 0001:0008b1b0       iswspace                   000000018008c1b0 f i libucrtd:_wctype.obj
 0001:0008b1d0       iswupper                   000000018008c1d0 f i libucrtd:_wctype.obj
 0001:0008b1f0       iswxdigit                  000000018008c1f0 f i libucrtd:_wctype.obj
 0001:0008b280       ?__mbrtowc_utf8@__crt_mbstring@@YA_KPEA_WPEBD_KPEAU_Mbstatet@@@Z 000000018008c280 f   libucrtd:mbrtowc.obj
 0001:0008b2f0       ?__mbsrtowcs_utf8@__crt_mbstring@@YA_KPEA_WPEAPEBD_KPEAU_Mbstatet@@@Z 000000018008c2f0 f   libucrtd:mbrtowc.obj
 0001:0008bf60       btowc                      000000018008cf60 f   libucrtd:mbrtowc.obj
 0001:0008c000       mbrlen                     000000018008d000 f   libucrtd:mbrtowc.obj
 0001:0008c070       mbrtowc                    000000018008d070 f   libucrtd:mbrtowc.obj
 0001:0008c140       mbsrtowcs                  000000018008d140 f   libucrtd:mbrtowc.obj
 0001:0008c180       mbsrtowcs_s                000000018008d180 f   libucrtd:mbrtowc.obj
 0001:0008c680       ??$?RG@__crt_internal_free_policy@@QEBAXQEBG@Z 000000018008d680 f i libucrtd:initctype.obj
 0001:0008c6b0       ??$?RJ@__crt_internal_free_policy@@QEBAXQEBJ@Z 000000018008d6b0 f i libucrtd:initctype.obj
 0001:0008c6e0       ??0?$__crt_unique_heap_ptr@GU__crt_internal_free_policy@@@@QEAA@QEAG@Z 000000018008d6e0 f i libucrtd:initctype.obj
 0001:0008c700       ??0?$__crt_unique_heap_ptr@JU__crt_internal_free_policy@@@@QEAA@QEAJ@Z 000000018008d700 f i libucrtd:initctype.obj
 0001:0008c720       ??1?$__crt_unique_heap_ptr@GU__crt_internal_free_policy@@@@QEAA@XZ 000000018008d720 f i libucrtd:initctype.obj
 0001:0008c740       ??1?$__crt_unique_heap_ptr@JU__crt_internal_free_policy@@@@QEAA@XZ 000000018008d740 f i libucrtd:initctype.obj
 0001:0008c760       ?detach@?$__crt_unique_heap_ptr@GU__crt_internal_free_policy@@@@QEAAPEAGXZ 000000018008d760 f i libucrtd:initctype.obj
 0001:0008c790       ?detach@?$__crt_unique_heap_ptr@JU__crt_internal_free_policy@@@@QEAAPEAJXZ 000000018008d790 f i libucrtd:initctype.obj
 0001:0008c7c0       ?release@?$__crt_unique_heap_ptr@GU__crt_internal_free_policy@@@@QEAAXXZ 000000018008d7c0 f i libucrtd:initctype.obj
 0001:0008c7f0       ?release@?$__crt_unique_heap_ptr@JU__crt_internal_free_policy@@@@QEAAXXZ 000000018008d7f0 f i libucrtd:initctype.obj
 0001:0008c820       ___lc_codepage_func        000000018008d820 f   libucrtd:initctype.obj
 0001:0008c860       ___lc_collate_cp_func      000000018008d860 f   libucrtd:initctype.obj
 0001:0008c8a0       ___lc_locale_name_func     000000018008d8a0 f   libucrtd:initctype.obj
 0001:0008c8e0       ___mb_cur_max_func         000000018008d8e0 f   libucrtd:initctype.obj
 0001:0008c920       ___mb_cur_max_l_func       000000018008d920 f   libucrtd:initctype.obj
 0001:0008c960       __acrt_locale_initialize_ctype 000000018008d960 f   libucrtd:initctype.obj
 0001:0008d410       ?__c32rtomb_utf8@__crt_mbstring@@YA_KPEAD_UPEAU_Mbstatet@@@Z 000000018008e410 f   libucrtd:c32rtomb.obj
 0001:0008d690       ?reset_and_return@__crt_mbstring@@YA_K_KPEAU_Mbstatet@@@Z 000000018008e690 f i libucrtd:c32rtomb.obj
 0001:0008d6d0       ?return_illegal_sequence@__crt_mbstring@@YA_KPEAU_Mbstatet@@@Z 000000018008e6d0 f i libucrtd:c32rtomb.obj
 0001:0008d710       c32rtomb                   000000018008e710 f   libucrtd:c32rtomb.obj
 0001:0008d740       __acrt_add_locale_ref      000000018008e740 f   libucrtd:locale_refcounting.obj
 0001:0008d8a0       __acrt_free_locale         000000018008e8a0 f   libucrtd:locale_refcounting.obj
 0001:0008dc20       __acrt_locale_add_lc_time_reference 000000018008ec20 f   libucrtd:locale_refcounting.obj
 0001:0008dc60       __acrt_locale_free_lc_time_if_unreferenced 000000018008ec60 f   libucrtd:locale_refcounting.obj
 0001:0008dcc0       __acrt_locale_release_lc_time_reference 000000018008ecc0 f   libucrtd:locale_refcounting.obj
 0001:0008dd00       __acrt_release_locale_ref  000000018008ed00 f   libucrtd:locale_refcounting.obj
 0001:0008de70       __acrt_update_thread_locale_data 000000018008ee70 f   libucrtd:locale_refcounting.obj
 0001:0008df10       _updatetlocinfoEx_nolock   000000018008ef10 f   libucrtd:locale_refcounting.obj
 0001:0008e0e0       __acrt_fp_strflt_to_string 000000018008f0e0 f   libucrtd:_fptostr.obj
 0001:0008ebe0       ??0big_integer@__crt_strtox@@QEAA@AEBU01@@Z 000000018008fbe0 f i libucrtd:cfout.obj
 0001:0008ec40       ??0big_integer@__crt_strtox@@QEAA@XZ 000000018008fc40 f i libucrtd:cfout.obj
 0001:0008ed00       ??4big_integer@__crt_strtox@@QEAAAEAU01@AEBU01@@Z 000000018008fd00 f i libucrtd:cfout.obj
 0001:0008ed60       ??8__crt_strtox@@YA_NAEBUbig_integer@0@0@Z 000000018008fd60 f i libucrtd:cfout.obj
 0001:0008edd0       ??9__crt_strtox@@YA_NAEBUbig_integer@0@0@Z 000000018008fdd0 f i libucrtd:cfout.obj
 0001:0008ee10       ?add_carry@__crt_strtox@@YAIAEAIII@Z 000000018008fe10 f i libucrtd:cfout.obj
 0001:0008ee60       ?add_multiply_carry@__crt_strtox@@YAIAEAIIII@Z 000000018008fe60 f i libucrtd:cfout.obj
 0001:0008eec0       ?bit_scan_reverse@__crt_strtox@@YAII@Z 000000018008fec0 f i libucrtd:cfout.obj
 0001:0008ef00       ?count_sequential_high_zeroes@__crt_strtox@@YAII@Z 000000018008ff00 f i libucrtd:cfout.obj
 0001:0008ef40       ?divide@__crt_strtox@@YA_KAEAUbig_integer@1@AEBU21@@Z 000000018008ff40 f i libucrtd:cfout.obj
 0001:0008f910       ?is_zero@__crt_strtox@@YA_NAEBUbig_integer@1@@Z 0000000180090910 f i libucrtd:cfout.obj
 0001:0008f940       ?make_big_integer@__crt_strtox@@YA?AUbig_integer@1@_K@Z 0000000180090940 f i libucrtd:cfout.obj
 0001:0008fa10       ?make_big_integer_power_of_two@__crt_strtox@@YA?AUbig_integer@1@I@Z 0000000180090a10 f i libucrtd:cfout.obj
 0001:0008fae0       ?multiply@__crt_strtox@@YA_NAEAUbig_integer@1@AEBU21@@Z 0000000180090ae0 f i libucrtd:cfout.obj
 0001:0008fe60       ?multiply@__crt_strtox@@YA_NAEAUbig_integer@1@I@Z 0000000180090e60 f i libucrtd:cfout.obj
 0001:0008ff80       ?multiply_64_32@__crt_strtox@@YA_K_KI@Z 0000000180090f80 f i libucrtd:cfout.obj
 0001:0008ffa0       ?multiply_by_power_of_ten@__crt_strtox@@YA_NAEAUbig_integer@1@I@Z 0000000180090fa0 f i libucrtd:cfout.obj
 0001:00090150       ?multiply_core@__crt_strtox@@YAIQEAIII@Z 0000000180091150 f i libucrtd:cfout.obj
 0001:000901d0       ?shift_left@__crt_strtox@@YA_NAEAUbig_integer@1@I@Z 00000001800911d0 f i libucrtd:cfout.obj
 0001:000904b0       __acrt_fltout              00000001800914b0 f   libucrtd:cfout.obj
 0001:000909a0       __fpe_flt_rounds           00000001800919a0 f   libucrtd:fegetround.obj
 0001:00090a00       fegetround                 0000000180091a00 f   libucrtd:fegetround.obj
 0001:00091350       ?has_big_buffer@__crt_stdio_stream@@QEBA_NXZ 0000000180092350 f i libucrtd:_flsbuf.obj
 0001:00091470       __acrt_stdio_flush_and_write_narrow_nolock 0000000180092470 f   libucrtd:_flsbuf.obj
 0001:000914a0       __acrt_stdio_flush_and_write_wide_nolock 00000001800924a0 f   libucrtd:_flsbuf.obj
 0001:000914d0       ??0__crt_stdio_stream@@QEAA@QEAU__crt_stdio_stream_data@@@Z 00000001800924d0 f i libucrtd:closeall.obj
 0001:000914f0       ?is_in_use@__crt_stdio_stream@@QEBA_NXZ 00000001800924f0 f i libucrtd:closeall.obj
 0001:00091530       _fcloseall                 0000000180092530 f   libucrtd:closeall.obj
 0001:00091c10       ?__acrt_stdio_reset_buffer@@YAXV__crt_stdio_stream@@@Z 0000000180092c10 f i libucrtd:fflush.obj
 0001:00091d40       ?has_all_of@__crt_stdio_stream@@QEBA_NJ@Z 0000000180092d40 f i libucrtd:fflush.obj
 0001:00091e20       __acrt_stdio_flush_nolock  0000000180092e20 f   libucrtd:fflush.obj
 0001:00091f30       _fflush_nolock             0000000180092f30 f   libucrtd:fflush.obj
 0001:00091fc0       _flushall                  0000000180092fc0 f   libucrtd:fflush.obj
 0001:00091fd0       fflush                     0000000180092fd0 f   libucrtd:fflush.obj
 0001:00092060       ?has_crt_buffer@__crt_stdio_stream@@QEBA_NXZ 0000000180093060 f i libucrtd:_freebuf.obj
 0001:00092080       __acrt_stdio_free_buffer_nolock 0000000180093080 f   libucrtd:_freebuf.obj
 0001:00092160       _isatty                    0000000180093160 f   libucrtd:isatty.obj
 0001:00092270       ??$?RUlconv@@@__crt_internal_free_policy@@QEBAXQEBUlconv@@@Z 0000000180093270 f i libucrtd:initmon.obj
 0001:000922a0       ??0?$__crt_unique_heap_ptr@Ulconv@@U__crt_internal_free_policy@@@@QEAA@QEAUlconv@@@Z 00000001800932a0 f i libucrtd:initmon.obj
 0001:000922c0       ??1?$__crt_unique_heap_ptr@Ulconv@@U__crt_internal_free_policy@@@@QEAA@XZ 00000001800932c0 f i libucrtd:initmon.obj
 0001:000922e0       ?detach@?$__crt_unique_heap_ptr@Ulconv@@U__crt_internal_free_policy@@@@QEAAPEAUlconv@@XZ 00000001800932e0 f i libucrtd:initmon.obj
 0001:00092310       ?release@?$__crt_unique_heap_ptr@Ulconv@@U__crt_internal_free_policy@@@@QEAAXXZ 0000000180093310 f i libucrtd:initmon.obj
 0001:00092340       __acrt_locale_free_monetary 0000000180093340 f   libucrtd:initmon.obj
 0001:00092550       __acrt_locale_initialize_monetary 0000000180093550 f   libucrtd:initmon.obj
 0001:00092f00       __acrt_locale_free_numeric 0000000180093f00 f   libucrtd:initnum.obj
 0001:00092fe0       __acrt_locale_initialize_numeric 0000000180093fe0 f   libucrtd:initnum.obj
 0001:000935f0       ??$?RU__crt_lc_time_data@@@__crt_internal_free_policy@@QEBAXQEBU__crt_lc_time_data@@@Z 00000001800945f0 f i libucrtd:inittime.obj
 0001:000936e0       ??0?$__crt_unique_heap_ptr@U__crt_lc_time_data@@U__crt_internal_free_policy@@@@QEAA@QEAU__crt_lc_time_data@@@Z 00000001800946e0 f i libucrtd:inittime.obj
 0001:00093700       ??1?$__crt_unique_heap_ptr@U__crt_lc_time_data@@U__crt_internal_free_policy@@@@QEAA@XZ 0000000180094700 f i libucrtd:inittime.obj
 0001:00093720       ??B?$__crt_unique_heap_ptr@U__crt_lc_time_data@@U__crt_internal_free_policy@@@@QEBA_NXZ 0000000180094720 f i libucrtd:inittime.obj
 0001:00093740       ?detach@?$__crt_unique_heap_ptr@U__crt_lc_time_data@@U__crt_internal_free_policy@@@@QEAAPEAU__crt_lc_time_data@@XZ 0000000180094740 f i libucrtd:inittime.obj
 0001:000937d0       ?get@?$__crt_unique_heap_ptr@U__crt_lc_time_data@@U__crt_internal_free_policy@@@@QEBAPEAU__crt_lc_time_data@@XZ 00000001800947d0 f i libucrtd:inittime.obj
 0001:00093e40       ?is_valid@?$__crt_unique_heap_ptr@U__crt_lc_time_data@@U__crt_internal_free_policy@@@@QEBA_NXZ 0000000180094e40 f i libucrtd:inittime.obj
 0001:00093e70       ?release@?$__crt_unique_heap_ptr@U__crt_lc_time_data@@U__crt_internal_free_policy@@@@QEAAXXZ 0000000180094e70 f i libucrtd:inittime.obj
 0001:00093ea0       __acrt_locale_free_time    0000000180094ea0 f   libucrtd:inittime.obj
 0001:00094010       __acrt_locale_initialize_time 0000000180095010 f   libucrtd:inittime.obj
 0001:000940b0       __pctype_func              00000001800950b0 f   libucrtd:ctype.obj
 0001:000940f0       __pwctype_func             00000001800950f0 f   libucrtd:ctype.obj
 0001:00094890       wcsncat_s                  0000000180095890 f   libucrtd:wcsncat_s.obj
 0001:000948d0       wcscmp                     00000001800958d0 f   libucrtd:wcscmp.obj
 0001:00094970       wcscspn                    0000000180095970 f   libucrtd:wcscspn.obj
 0001:00094a10       wcspbrk                    0000000180095a10 f   libucrtd:wcspbrk.obj
 0001:00094a90       ??0?$__crt_scoped_stack_ptr@_W@@QEAA@U?$__crt_scoped_stack_ptr_tag@_W@@@Z 0000000180095a90 f i libucrtd:getstringtypea.obj
 0001:00094ab0       ??0?$__crt_scoped_stack_ptr_tag@_W@@QEAA@QEA_W@Z 0000000180095ab0 f i libucrtd:getstringtypea.obj
 0001:00094ad0       ??1?$__crt_scoped_stack_ptr@_W@@QEAA@XZ 0000000180095ad0 f i libucrtd:getstringtypea.obj
 0001:00094af0       ?get@?$__crt_scoped_stack_ptr@_W@@QEBAPEA_WXZ 0000000180095af0 f i libucrtd:getstringtypea.obj
 0001:00094b00       _MallocaComputeSize        0000000180095b00 f i libucrtd:getstringtypea.obj
 0001:00094b40       _MarkAllocaS               0000000180095b40 f i libucrtd:getstringtypea.obj
 0001:00094b70       __acrt_GetStringTypeA      0000000180095b70 f   libucrtd:getstringtypea.obj
 0001:00094dd0       _freea_crt                 0000000180095dd0 f i libucrtd:getstringtypea.obj
 0001:00095b50       __acrt_get_qualified_locale 0000000180096b50 f   libucrtd:get_qualified_locale.obj
 0001:00096c70       __acrt_get_qualified_locale_downlevel 0000000180097c70 f   libucrtd:getqloc_downlevel.obj
 0001:00096fd0       localeconv                 0000000180097fd0 f   libucrtd:localeconv.obj
 0001:00097010       ??$?RU__crt_lowio_handle_data@@@__crt_internal_free_policy@@QEBAXQEBU__crt_lowio_handle_data@@@Z 0000000180098010 f i libucrtd:osfinfo.obj
 0001:00097040       ??0?$__crt_unique_heap_ptr@U__crt_lowio_handle_data@@U__crt_internal_free_policy@@@@QEAA@QEAU__crt_lowio_handle_data@@@Z 0000000180098040 f i libucrtd:osfinfo.obj
 0001:00097060       ??1?$__crt_unique_heap_ptr@U__crt_lowio_handle_data@@U__crt_internal_free_policy@@@@QEAA@XZ 0000000180098060 f i libucrtd:osfinfo.obj
 0001:00097080       ??B?$__crt_unique_heap_ptr@U__crt_lowio_handle_data@@U__crt_internal_free_policy@@@@QEBA_NXZ 0000000180098080 f i libucrtd:osfinfo.obj
 0001:000970a0       ?detach@?$__crt_unique_heap_ptr@U__crt_lowio_handle_data@@U__crt_internal_free_policy@@@@QEAAPEAU__crt_lowio_handle_data@@XZ 00000001800980a0 f i libucrtd:osfinfo.obj
 0001:000970d0       ?get@?$__crt_unique_heap_ptr@U__crt_lowio_handle_data@@U__crt_internal_free_policy@@@@QEBAPEAU__crt_lowio_handle_data@@XZ 00000001800980d0 f i libucrtd:osfinfo.obj
 0001:000970e0       ?is_valid@?$__crt_unique_heap_ptr@U__crt_lowio_handle_data@@U__crt_internal_free_policy@@@@QEBA_NXZ 00000001800980e0 f i libucrtd:osfinfo.obj
 0001:00097110       ?release@?$__crt_unique_heap_ptr@U__crt_lowio_handle_data@@U__crt_internal_free_policy@@@@QEAAXXZ 0000000180098110 f i libucrtd:osfinfo.obj
 0001:00097140       __acrt_lowio_create_handle_array 0000000180098140 f   libucrtd:osfinfo.obj
 0001:00097300       __acrt_lowio_destroy_handle_array 0000000180098300 f   libucrtd:osfinfo.obj
 0001:00097380       __acrt_lowio_ensure_fh_exists 0000000180098380 f   libucrtd:osfinfo.obj
 0001:000974e0       __acrt_lowio_lock_fh       00000001800984e0 f   libucrtd:osfinfo.obj
 0001:00097520       __acrt_lowio_set_os_handle 0000000180098520 f   libucrtd:osfinfo.obj
 0001:00097630       __acrt_lowio_unlock_fh     0000000180098630 f   libucrtd:osfinfo.obj
 0001:00097670       _alloc_osfhnd              0000000180098670 f   libucrtd:osfinfo.obj
 0001:00097880       _free_osfhnd               0000000180098880 f   libucrtd:osfinfo.obj
 0001:000979b0       _get_osfhandle             00000001800989b0 f   libucrtd:osfinfo.obj
 0001:00097bb0       _open_osfhandle            0000000180098bb0 f   libucrtd:osfinfo.obj
 0001:00097dd0       _malloc_base               0000000180098dd0 f   libucrtd:malloc_base.obj
 0001:00097fe0       qsort                      0000000180098fe0 f   libucrtd:qsort.obj
 0001:00098820       strpbrk                    0000000180099820 f   libucrtd:strpbrk.obj
 0001:00099110       ??B?$__crt_scoped_stack_ptr@_W@@QEBA_NXZ 000000018009a110 f i libucrtd:lcmapstringa.obj
 0001:00099730       __acrt_LCMapStringA        000000018009a730 f   libucrtd:lcmapstringa.obj
 0001:00099810       _wcsnicoll                 000000018009a810 f   libucrtd:wcsnicol.obj
 0001:00099a60       _wcsnicoll_l               000000018009aa60 f   libucrtd:wcsnicol.obj
 0001:00099da0       _strnicoll                 000000018009ada0 f   libucrtd:strnicol.obj
 0001:00099e00       _strnicoll_l               000000018009ae00 f   libucrtd:strnicol.obj
 0001:0009a3d0       __acrt_SetEnvironmentVariableA 000000018009b3d0 f   libucrtd:setenvironmentvariablea.obj
 0001:0009a620       __acrt_DownlevelLCIDToLocaleName 000000018009b620 f   libucrtd:lcidtoname_downlevel.obj
 0001:0009a720       __acrt_DownlevelLocaleNameToLCID 000000018009b720 f   libucrtd:lcidtoname_downlevel.obj
 0001:0009a780       _set_error_mode            000000018009b780 f   libucrtd:set_error_mode.obj
 0001:0009a880       __acrt_GetStringTypeW      000000018009b880 f   libucrtd:getstringtypew.obj
 0001:0009a8c0       ?__wcsrtombs_utf8@__crt_mbstring@@YA_KPEADPEAPEB_W_KPEAU_Mbstatet@@@Z 000000018009b8c0 f   libucrtd:wcrtomb.obj
 0001:0009b410       wcrtomb                    000000018009c410 f   libucrtd:wcrtomb.obj
 0001:0009b480       wcrtomb_s                  000000018009c480 f   libucrtd:wcrtomb.obj
 0001:0009b610       wcsrtombs                  000000018009c610 f   libucrtd:wcrtomb.obj
 0001:0009b650       wcsrtombs_s                000000018009c650 f   libucrtd:wcrtomb.obj
 0001:0009bb50       wctob                      000000018009cb50 f   libucrtd:wcrtomb.obj
 0001:0009bc00       ?__mbrtoc32_utf8@__crt_mbstring@@YA_KPEA_UPEBD_KPEAU_Mbstatet@@@Z 000000018009cc00 f   libucrtd:mbrtoc32.obj
 0001:0009bfc0       mbrtoc32                   000000018009cfc0 f   libucrtd:mbrtoc32.obj
 0001:0009c210       __acrt_GetLocaleInfoA      000000018009d210 f   libucrtd:getlocaleinfoa.obj
 0001:0009c670       log10                      000000018009d670 f   libucrtd:log10.obj
 0001:0009cc20       ceil                       000000018009dc20 f   libucrtd:ceil.obj
 0001:0009cdf0       _controlfp_s               000000018009ddf0 f   libucrtd:contrlfp.obj
 0001:0009cf20       fegetenv                   000000018009df20 f   libucrtd:fegetenv.obj
 0001:0009cf50       fesetenv                   000000018009df50 f   libucrtd:fesetenv.obj
 0001:0009cfd0       feholdexcept               000000018009dfd0 f   libucrtd:feholdexcept.obj
 0001:0009d040       ??$__acrt_fenv_shift_bits@W4__acrt_fenv_abstract_control@@@@YA?AW4__acrt_fenv_abstract_control@@W40@0I@Z 000000018009e040 f i libucrtd:_fenvutils.obj
 0001:0009d070       ??$__acrt_fenv_shift_bits@W4__acrt_fenv_abstract_status@@@@YA?AW4__acrt_fenv_abstract_status@@W40@0I@Z 000000018009e070 f i libucrtd:_fenvutils.obj
 0001:0009d0a0       ??$__acrt_fenv_translate_bit@W4__acrt_fenv_abstract_control@@W4__acrt_fenv_machine_sse_control@@@@YA?AW4__acrt_fenv_abstract_control@@W4__acrt_fenv_machine_sse_control@@0W40@1@Z 000000018009e0a0 f i libucrtd:_fenvutils.obj
 0001:0009d100       ??$__acrt_fenv_translate_bit@W4__acrt_fenv_abstract_status@@W4__acrt_fenv_machine_sse_status@@@@YA?AW4__acrt_fenv_abstract_status@@W4__acrt_fenv_machine_sse_status@@0W40@1@Z 000000018009e100 f i libucrtd:_fenvutils.obj
 0001:0009d150       ??$__acrt_fenv_translate_bit@W4__acrt_fenv_machine_sse_control@@W4__acrt_fenv_abstract_control@@@@YA?AW4__acrt_fenv_machine_sse_control@@W4__acrt_fenv_abstract_control@@0W40@1@Z 000000018009e150 f i libucrtd:_fenvutils.obj
 0001:0009d1b0       ??$__acrt_fenv_translate_bit@W4__acrt_fenv_machine_sse_status@@W4__acrt_fenv_abstract_status@@@@YA?AW4__acrt_fenv_machine_sse_status@@W4__acrt_fenv_abstract_status@@0W40@1@Z 000000018009e1b0 f i libucrtd:_fenvutils.obj
 0001:0009d200       ??$__acrt_fenv_unshift_bits@W4__acrt_fenv_abstract_control@@@@YA?AW4__acrt_fenv_abstract_control@@W40@0I@Z 000000018009e200 f i libucrtd:_fenvutils.obj
 0001:0009d230       ??$__acrt_fenv_unshift_bits@W4__acrt_fenv_abstract_status@@@@YA?AW4__acrt_fenv_abstract_status@@W40@0I@Z 000000018009e230 f i libucrtd:_fenvutils.obj
 0001:0009d720       ??I@YA?AW4__acrt_fenv_abstract_control@@W40@0@Z 000000018009e720 f i libucrtd:_fenvutils.obj
 0001:0009d740       ??I@YA?AW4__acrt_fenv_abstract_status@@W40@0@Z 000000018009e740 f i libucrtd:_fenvutils.obj
 0001:0009d760       ??I@YA?AW4__acrt_fenv_machine_sse_control@@W40@0@Z 000000018009e760 f i libucrtd:_fenvutils.obj
 0001:0009d780       ??I@YA?AW4__acrt_fenv_machine_sse_status@@W40@0@Z 000000018009e780 f i libucrtd:_fenvutils.obj
 0001:0009d7a0       ??U@YA?AW4__acrt_fenv_abstract_control@@W40@0@Z 000000018009e7a0 f i libucrtd:_fenvutils.obj
 0001:0009d7c0       ??U@YA?AW4__acrt_fenv_abstract_status@@W40@0@Z 000000018009e7c0 f i libucrtd:_fenvutils.obj
 0001:0009d7e0       ??U@YA?AW4__acrt_fenv_machine_sse_control@@W40@0@Z 000000018009e7e0 f i libucrtd:_fenvutils.obj
 0001:0009d800       ??_5@YAAEAW4__acrt_fenv_abstract_control@@AEAW40@W40@@Z 000000018009e800 f i libucrtd:_fenvutils.obj
 0001:0009d830       ??_5@YAAEAW4__acrt_fenv_abstract_status@@AEAW40@W40@@Z 000000018009e830 f i libucrtd:_fenvutils.obj
 0001:0009d860       ??_5@YAAEAW4__acrt_fenv_machine_sse_control@@AEAW40@W40@@Z 000000018009e860 f i libucrtd:_fenvutils.obj
 0001:0009d890       ??_5@YAAEAW4__acrt_fenv_machine_sse_status@@AEAW40@W40@@Z 000000018009e890 f i libucrtd:_fenvutils.obj
 0001:0009d8c0       ?__acrt_fenv_shift_abstract_sse_control@@YA?AW4__acrt_fenv_abstract_control@@W41@@Z 000000018009e8c0 f i libucrtd:_fenvutils.obj
 0001:0009d910       ?__acrt_fenv_shift_abstract_sse_status@@YA?AW4__acrt_fenv_abstract_status@@W41@@Z 000000018009e910 f i libucrtd:_fenvutils.obj
 0001:0009d940       ?__acrt_fenv_unshift_abstract_sse_control@@YA?AW4__acrt_fenv_abstract_control@@W41@@Z 000000018009e940 f i libucrtd:_fenvutils.obj
 0001:0009d990       ?__acrt_fenv_unshift_abstract_sse_status@@YA?AW4__acrt_fenv_abstract_status@@W41@@Z 000000018009e990 f i libucrtd:_fenvutils.obj
 0001:0009dc60       __acrt_fenv_expand_round_control 000000018009ec60 f   libucrtd:_fenvutils.obj
 0001:0009dc90       __acrt_fenv_get_common_round_control 000000018009ec90 f   libucrtd:_fenvutils.obj
 0001:0009dcb0       __acrt_fenv_get_control    000000018009ecb0 f   libucrtd:_fenvutils.obj
 0001:0009dce0       __acrt_fenv_get_fp_status_word_from_exception_mask 000000018009ece0 f   libucrtd:_fenvutils.obj
 0001:0009dd10       __acrt_fenv_get_status     000000018009ed10 f   libucrtd:_fenvutils.obj
 0001:0009dd40       __acrt_fenv_set_control    000000018009ed40 f   libucrtd:_fenvutils.obj
 0001:0009dd60       __acrt_fenv_set_status     000000018009ed60 f   libucrtd:_fenvutils.obj
 0001:0009f790       _utf8_no_of_trailbytes     00000001800a0790 f i libucrtd:write.obj
 0001:0009f7b0       _write                     00000001800a07b0 f   libucrtd:write.obj
 0001:0009fa50       _write_nolock              00000001800a0a50 f   libucrtd:write.obj
 0001:000a08e0       _lseek                     00000001800a18e0 f   libucrtd:lseek.obj
 0001:000a0910       _lseek_nolock              00000001800a1910 f   libucrtd:lseek.obj
 0001:000a0940       _lseeki64                  00000001800a1940 f   libucrtd:lseek.obj
 0001:000a0970       _lseeki64_nolock           00000001800a1970 f   libucrtd:lseek.obj
 0001:000a09a0       __acrt_stdio_allocate_buffer_nolock 00000001800a19a0 f   libucrtd:_getbuf.obj
 0001:000a0b20       _fclose_nolock             00000001800a1b20 f   libucrtd:fclose.obj
 0001:000a0cb0       fclose                     00000001800a1cb0 f   libucrtd:fclose.obj
 0001:000a1000       _commit                    00000001800a2000 f   libucrtd:commit.obj
 0001:000a11d0       __ascii_wcsicmp            00000001800a21d0 f   libucrtd:wcsicmp.obj
 0001:000a1270       _towlower_fast_internal    00000001800a2270 f i libucrtd:wcsicmp.obj
 0001:000a12c0       _towlower_internal         00000001800a22c0 f i libucrtd:wcsicmp.obj
 0001:000a1300       _wcsicmp                   00000001800a2300 f   libucrtd:wcsicmp.obj
 0001:000a14a0       _wcsicmp_l                 00000001800a24a0 f   libucrtd:wcsicmp.obj
 0001:000a1740       __ascii_wcsnicmp           00000001800a2740 f   libucrtd:wcsnicmp.obj
 0001:000a1810       _wcsnicmp                  00000001800a2810 f   libucrtd:wcsnicmp.obj
 0001:000a19c0       _wcsnicmp_l                00000001800a29c0 f   libucrtd:wcsnicmp.obj
 0001:000a1ca0       __strncnt                  00000001800a2ca0 f   libucrtd:strncnt.obj
 0001:000a1d00       __acrt_CompareStringW      00000001800a2d00 f   libucrtd:comparestringw.obj
 0001:000a1e30       __ascii_strnicmp           00000001800a2e30 f   libucrtd:strnicmp.obj
 0001:000a1f00       _strnicmp                  00000001800a2f00 f   libucrtd:strnicmp.obj
 0001:000a2150       _strnicmp_l                00000001800a3150 f   libucrtd:strnicmp.obj
 0001:000a2b20       __acrt_CompareStringA      00000001800a3b20 f   libucrtd:comparestringa.obj
 0001:000a2bc0       ?__c16rtomb_utf8@__crt_mbstring@@YA_KPEAD_SPEAU_Mbstatet@@@Z 00000001800a3bc0 f   libucrtd:c16rtomb.obj
 0001:000a2de0       c16rtomb                   00000001800a3de0 f   libucrtd:c16rtomb.obj
 0001:000a2e10       __acrt_initialize_fma3     00000001800a3e10 f   libucrtd:fma3_available.obj
 0001:000a2ec0       _get_FMA3_enable           00000001800a3ec0 f   libucrtd:fma3_available.obj
 0001:000a2ed0       _set_FMA3_enable           00000001800a3ed0 f   libucrtd:fma3_available.obj
 0001:000a2ef0       _log10_special             00000001800a3ef0 f   libucrtd:log_special.obj
 0001:000a2f40       _log10f_special            00000001800a3f40 f   libucrtd:log_special.obj
 0001:000a2f90       _log_special               00000001800a3f90 f   libucrtd:log_special.obj
 0001:000a3100       _logf_special              00000001800a4100 f   libucrtd:log_special.obj
 0001:000a3470       _handle_error              00000001800a4470 f   libucrtd:libm_error.obj
 0001:000a3600       _handle_errorf             00000001800a4600 f   libucrtd:libm_error.obj
 0001:000a3790       _handle_nan                00000001800a4790 f   libucrtd:libm_error.obj
 0001:000a37e0       _handle_nanf               00000001800a47e0 f   libucrtd:libm_error.obj
 0001:000a3a10       _clearfp                   00000001800a4a10 f   libucrtd:ieee.obj
 0001:000a3a30       _control87                 00000001800a4a30 f   libucrtd:ieee.obj
 0001:000a3a50       _controlfp                 00000001800a4a50 f   libucrtd:ieee.obj
 0001:000a3a80       _fpreset                   00000001800a4a80 f   libucrtd:ieee.obj
 0001:000a3bf0       _set_controlfp             00000001800a4bf0 f   libucrtd:ieee.obj
 0001:000a3c50       _statusfp                  00000001800a4c50 f   libucrtd:ieee.obj
 0001:000a3e20       _putwch                    00000001800a4e20 f   libucrtd:putwch.obj
 0001:000a3e5c       _putwch_nolock             00000001800a4e5c f   libucrtd:putwch.obj
 0001:000a4ca0       _read                      00000001800a5ca0 f   libucrtd:read.obj
 0001:000a4ff0       _read_nolock               00000001800a5ff0 f   libucrtd:read.obj
 0001:000a6070       _close                     00000001800a7070 f   libucrtd:close.obj
 0001:000a6260       _close_nolock              00000001800a7260 f   libucrtd:close.obj
 0001:000a62d0       ??$?RU__crt_stdio_stream_data@@@__crt_internal_free_policy@@QEBAXQEBU__crt_stdio_stream_data@@@Z 00000001800a72d0 f i libucrtd:stream.obj
 0001:000a6300       ??0?$__crt_unique_heap_ptr@U__crt_stdio_stream_data@@U__crt_internal_free_policy@@@@QEAA@QEAU__crt_stdio_stream_data@@@Z 00000001800a7300 f i libucrtd:stream.obj
 0001:000a6320       ??0__crt_stdio_stream@@QEAA@XZ 00000001800a7320 f i libucrtd:stream.obj
 0001:000a6340       ??1?$__crt_unique_heap_ptr@U__crt_stdio_stream_data@@U__crt_internal_free_policy@@@@QEAA@XZ 00000001800a7340 f i libucrtd:stream.obj
 0001:000a6360       ?__acrt_stdio_allocate_stream@@YA?AV__crt_stdio_stream@@XZ 00000001800a7360 f   libucrtd:stream.obj
 0001:000a6420       ?__acrt_stdio_free_stream@@YAXV__crt_stdio_stream@@@Z 00000001800a7420 f   libucrtd:stream.obj
 0001:000a64c0       ?deallocate@__crt_stdio_stream@@QEAAXXZ 00000001800a74c0 f i libucrtd:stream.obj
 0001:000a64e0       ?detach@?$__crt_unique_heap_ptr@U__crt_stdio_stream_data@@U__crt_internal_free_policy@@@@QEAAPEAU__crt_stdio_stream_data@@XZ 00000001800a74e0 f i libucrtd:stream.obj
 0001:000a66c0       ?lock@__crt_stdio_stream@@QEBAXXZ 00000001800a76c0 f i libucrtd:stream.obj
 0001:000a66e0       ?release@?$__crt_unique_heap_ptr@U__crt_stdio_stream_data@@U__crt_internal_free_policy@@@@QEAAXXZ 00000001800a76e0 f i libucrtd:stream.obj
 0001:000a6710       ?try_allocate@__crt_stdio_stream@@QEAA_NXZ 00000001800a7710 f i libucrtd:stream.obj
 0001:000a6780       ?unlock@__crt_stdio_stream@@QEBAXXZ 00000001800a7780 f i libucrtd:stream.obj
 0001:000a67a0       _towlower_l                00000001800a77a0 f   libucrtd:towlower.obj
 0001:000a68d0       towlower                   00000001800a78d0 f   libucrtd:towlower.obj
 0001:000a68f0       _errcode                   00000001800a78f0 f   libucrtd:fpexcept.obj
 0001:000a6970       _except1                   00000001800a7970 f   libucrtd:fpexcept.obj
 0001:000a6ab0       _except2                   00000001800a7ab0 f   libucrtd:fpexcept.obj
 0001:000a6c70       _handle_exc                00000001800a7c70 f   libucrtd:fpexcept.obj
 0001:000a70d0       _handle_qnan2              00000001800a80d0 f   libucrtd:fpexcept.obj
 0001:000a7100       _raise_exc                 00000001800a8100 f   libucrtd:fpexcept.obj
 0001:000a7160       _raise_exc_ex              00000001800a8160 f   libucrtd:fpexcept.obj
 0001:000a77e0       _raise_excf                00000001800a87e0 f   libucrtd:fpexcept.obj
 0001:000a7840       _set_errno_from_matherr    00000001800a8840 f   libucrtd:fpexcept.obj
 0001:000a7890       _umatherr                  00000001800a8890 f   libucrtd:fpexcept.obj
 0001:000a7960       _clrfp                     00000001800a8960 f   libucrtd:fpctrl.obj
 0001:000a7990       _ctrlfp                    00000001800a8990 f   libucrtd:fpctrl.obj
 0001:000a7a40       _set_statfp                00000001800a8a40 f   libucrtd:fpctrl.obj
 0001:000a7a80       _statfp                    00000001800a8a80 f   libucrtd:fpctrl.obj
 0001:000a7ac0       _get_fpsr                  00000001800a8ac0 f   libucrtd:fpsr.obj
 0001:000a7ad0       _set_fpsr                  00000001800a8ad0 f   libucrtd:fpsr.obj
 0001:000a7ada       _fclrf                     00000001800a8ada f   libucrtd:fpsr.obj
 0001:000a7aee       _frnd                      00000001800a8aee f   libucrtd:fpsr.obj
 0001:000a7c38       __dcrt_lowio_ensure_console_output_initialized 00000001800a8c38 f   libucrtd:initcon.obj
 0001:000a7c8c       __dcrt_terminate_console_output 00000001800a8c8c f   libucrtd:initcon.obj
 0001:000a7ca8       __dcrt_write_console       00000001800a8ca8 f   libucrtd:initcon.obj
 0001:000a7d70       __acrt_LCMapStringW        00000001800a8d70 f   libucrtd:lcmapstringw.obj
 0001:000a7e30       _add_exp                   00000001800a8e30 f   libucrtd:util.obj
 0001:000a7e70       _decomp                    00000001800a8e70 f   libucrtd:util.obj
 0001:000a7fc0       _get_exp                   00000001800a8fc0 f   libucrtd:util.obj
 0001:000a8000       _set_bexp                  00000001800a9000 f   libucrtd:util.obj
 0001:000a8040       _set_exp                   00000001800a9040 f   libucrtd:util.obj
 0001:000a8090       _sptype                    00000001800a9090 f   libucrtd:util.obj
 0001:000a810b       IsDebuggerPresent          00000001800a910b f   kernel32:KERNEL32.dll
 0001:000a8111       OutputDebugStringW         00000001800a9111 f   kernel32:KERNEL32.dll
 0001:000a8117       RtlCaptureContext          00000001800a9117 f   kernel32:KERNEL32.dll
 0001:000a811d       RtlLookupFunctionEntry     00000001800a911d f   kernel32:KERNEL32.dll
 0001:000a8123       RtlVirtualUnwind           00000001800a9123 f   kernel32:KERNEL32.dll
 0001:000a8129       UnhandledExceptionFilter   00000001800a9129 f   kernel32:KERNEL32.dll
 0001:000a812f       SetUnhandledExceptionFilter 00000001800a912f f   kernel32:KERNEL32.dll
 0001:000a8135       GetCurrentProcess          00000001800a9135 f   kernel32:KERNEL32.dll
 0001:000a813b       TerminateProcess           00000001800a913b f   kernel32:KERNEL32.dll
 0001:000a8141       IsProcessorFeaturePresent  00000001800a9141 f   kernel32:KERNEL32.dll
 0001:000a8147       GetStartupInfoW            00000001800a9147 f   kernel32:KERNEL32.dll
 0001:000a814d       WideCharToMultiByte        00000001800a914d f   kernel32:KERNEL32.dll
 0001:000a8153       QueryPerformanceCounter    00000001800a9153 f   kernel32:KERNEL32.dll
 0001:000a8159       GetCurrentProcessId        00000001800a9159 f   kernel32:KERNEL32.dll
 0001:000a815f       GetCurrentThreadId         00000001800a915f f   kernel32:KERNEL32.dll
 0001:000a8165       GetSystemTimeAsFileTime    00000001800a9165 f   kernel32:KERNEL32.dll
 0001:000a816b       InitializeSListHead        00000001800a916b f   kernel32:KERNEL32.dll
 0001:000a8171       HeapAlloc                  00000001800a9171 f   kernel32:KERNEL32.dll
 0001:000a8177       HeapFree                   00000001800a9177 f   kernel32:KERNEL32.dll
 0001:000a817d       GetProcessHeap             00000001800a917d f   kernel32:KERNEL32.dll
 0001:000a8183       VirtualQuery               00000001800a9183 f   kernel32:KERNEL32.dll
 0001:000a8189       RtlUnwindEx                00000001800a9189 f   kernel32:KERNEL32.dll
 0001:000a818f       InterlockedPushEntrySList  00000001800a918f f   kernel32:KERNEL32.dll
 0001:000a8195       InterlockedFlushSList      00000001800a9195 f   kernel32:KERNEL32.dll
 0001:000a819b       RtlPcToFileHeader          00000001800a919b f   kernel32:KERNEL32.dll
 0001:000a81a1       InitializeCriticalSectionAndSpinCount 00000001800a91a1 f   kernel32:KERNEL32.dll
 0001:000a81a7       TlsAlloc                   00000001800a91a7 f   kernel32:KERNEL32.dll
 0001:000a81ad       TlsGetValue                00000001800a91ad f   kernel32:KERNEL32.dll
 0001:000a81b3       TlsSetValue                00000001800a91b3 f   kernel32:KERNEL32.dll
 0001:000a81b9       TlsFree                    00000001800a91b9 f   kernel32:KERNEL32.dll
 0001:000a81bf       GetModuleHandleExW         00000001800a91bf f   kernel32:KERNEL32.dll
 0001:000a81c5       ExitProcess                00000001800a91c5 f   kernel32:KERNEL32.dll
 0001:000a81cb       HeapSize                   00000001800a91cb f   kernel32:KERNEL32.dll
 0001:000a81d1       HeapValidate               00000001800a91d1 f   kernel32:KERNEL32.dll
 0001:000a81d7       GetSystemInfo              00000001800a91d7 f   kernel32:KERNEL32.dll
 0001:000a81dd       GetStdHandle               00000001800a91dd f   kernel32:KERNEL32.dll
 0001:000a81e3       GetFileType                00000001800a91e3 f   kernel32:KERNEL32.dll
 0001:000a81e9       WriteFile                  00000001800a91e9 f   kernel32:KERNEL32.dll
 0001:000a81ef       WriteConsoleW              00000001800a91ef f   kernel32:KERNEL32.dll
 0001:000a81f5       SetConsoleCtrlHandler      00000001800a91f5 f   kernel32:KERNEL32.dll
 0001:000a81fb       GetCurrentThread           00000001800a91fb f   kernel32:KERNEL32.dll
 0001:000a8201       HeapReAlloc                00000001800a9201 f   kernel32:KERNEL32.dll
 0001:000a8207       FindClose                  00000001800a9207 f   kernel32:KERNEL32.dll
 0001:000a820d       FindFirstFileExW           00000001800a920d f   kernel32:KERNEL32.dll
 0001:000a8213       FindNextFileW              00000001800a9213 f   kernel32:KERNEL32.dll
 0001:000a8219       IsValidCodePage            00000001800a9219 f   kernel32:KERNEL32.dll
 0001:000a821f       GetACP                     00000001800a921f f   kernel32:KERNEL32.dll
 0001:000a8225       GetOEMCP                   00000001800a9225 f   kernel32:KERNEL32.dll
 0001:000a822b       GetCPInfo                  00000001800a922b f   kernel32:KERNEL32.dll
 0001:000a8231       GetCommandLineA            00000001800a9231 f   kernel32:KERNEL32.dll
 0001:000a8237       GetCommandLineW            00000001800a9237 f   kernel32:KERNEL32.dll
 0001:000a823d       GetEnvironmentStringsW     00000001800a923d f   kernel32:KERNEL32.dll
 0001:000a8243       FreeEnvironmentStringsW    00000001800a9243 f   kernel32:KERNEL32.dll
 0001:000a8249       SetEnvironmentVariableW    00000001800a9249 f   kernel32:KERNEL32.dll
 0001:000a824f       GetDateFormatW             00000001800a924f f   kernel32:KERNEL32.dll
 0001:000a8255       GetTimeFormatW             00000001800a9255 f   kernel32:KERNEL32.dll
 0001:000a825b       CompareStringW             00000001800a925b f   kernel32:KERNEL32.dll
 0001:000a8261       LCMapStringW               00000001800a9261 f   kernel32:KERNEL32.dll
 0001:000a8267       GetLocaleInfoW             00000001800a9267 f   kernel32:KERNEL32.dll
 0001:000a826d       IsValidLocale              00000001800a926d f   kernel32:KERNEL32.dll
 0001:000a8273       GetUserDefaultLCID         00000001800a9273 f   kernel32:KERNEL32.dll
 0001:000a8279       EnumSystemLocalesW         00000001800a9279 f   kernel32:KERNEL32.dll
 0001:000a827f       HeapQueryInformation       00000001800a927f f   kernel32:KERNEL32.dll
 0001:000a8285       GetFileSizeEx              00000001800a9285 f   kernel32:KERNEL32.dll
 0001:000a828b       SetFilePointerEx           00000001800a928b f   kernel32:KERNEL32.dll
 0001:000a8291       GetStringTypeW             00000001800a9291 f   kernel32:KERNEL32.dll
 0001:000a8297       SetStdHandle               00000001800a9297 f   kernel32:KERNEL32.dll
 0001:000a829d       GetConsoleOutputCP         00000001800a929d f   kernel32:KERNEL32.dll
 0001:000a82a3       GetConsoleMode             00000001800a92a3 f   kernel32:KERNEL32.dll
 0001:000a82a9       FlushFileBuffers           00000001800a92a9 f   kernel32:KERNEL32.dll
 0001:000a82af       ReadFile                   00000001800a92af f   kernel32:KERNEL32.dll
 0001:000a82b5       ReadConsoleW               00000001800a92b5 f   kernel32:KERNEL32.dll
 0001:000a82bb       CloseHandle                00000001800a92bb f   kernel32:KERNEL32.dll
 0001:000a82c1       CreateFileW                00000001800a92c1 f   kernel32:KERNEL32.dll
 0001:000a82d0       _FindPESection             00000001800a92d0 f   LIBCMTD:pesect.obj
 0001:000a8380       _IsNonwritableInCurrentImage 00000001800a9380 f   LIBCMTD:pesect.obj
 0001:000a8410       _ValidateImageBase         00000001800a9410 f   LIBCMTD:pesect.obj
 0001:000a8490       __GSHandlerCheck_SEH       00000001800a9490 f   LIBCMTD:gshandlerseh.obj
 0001:000a8550       __GSHandlerCheck_EH        00000001800a9550 f   LIBCMTD:gshandlereh.obj
 0001:000a8600       strrchr                    00000001800a9600 f   libvcruntimed:strrchr.obj
 0001:000a8a20       _local_unwind              00000001800a9a20 f   libvcruntimed:jmpuwind.obj
 0001:000a8a50       strchr                     00000001800a9a50 f   libvcruntimed:strchr.obj
 0001:000a8be0       wcschr                     00000001800a9be0 f   libvcruntimed:wcschr.obj
 0001:000a8d31       RtlUnwind                  00000001800a9d31 f   kernel32:KERNEL32.dll
 0001:000a8d50       _guard_dispatch_icall_nop  00000001800a9d50 f   LIBCMTD:guard_dispatch.obj
 0001:000a8d70       _guard_xfg_dispatch_icall_nop 00000001800a9d70 f   LIBCMTD:guard_xfg_dispatch.obj
 0002:00000000       __imp_RegQueryInfoKeyW     00000001800ab000     advapi32:ADVAPI32.dll
 0002:00000008       __imp_RegOpenKeyExW        00000001800ab008     advapi32:ADVAPI32.dll
 0002:00000010       __imp_RegEnumKeyExW        00000001800ab010     advapi32:ADVAPI32.dll
 0002:00000018       __imp_RegDeleteValueW      00000001800ab018     advapi32:ADVAPI32.dll
 0002:00000020       __imp_RegDeleteKeyW        00000001800ab020     advapi32:ADVAPI32.dll
 0002:00000028       __imp_RegCreateKeyExW      00000001800ab028     advapi32:ADVAPI32.dll
 0002:00000030       __imp_RegCloseKey          00000001800ab030     advapi32:ADVAPI32.dll
 0002:00000038       __imp_RegSetValueExW       00000001800ab038     advapi32:ADVAPI32.dll
 0002:00000040       \177ADVAPI32_NULL_THUNK_DATA 00000001800ab040     advapi32:ADVAPI32.dll
 0002:00000048       __imp_DisableThreadLibraryCalls 00000001800ab048     kernel32:KERNEL32.dll
 0002:00000050       __imp_FreeLibrary          00000001800ab050     kernel32:KERNEL32.dll
 0002:00000058       __imp_GetModuleFileNameW   00000001800ab058     kernel32:KERNEL32.dll
 0002:00000060       __imp_GetModuleHandleW     00000001800ab060     kernel32:KERNEL32.dll
 0002:00000068       __imp_GetProcAddress       00000001800ab068     kernel32:KERNEL32.dll
 0002:00000070       __imp_LoadLibraryExW       00000001800ab070     kernel32:KERNEL32.dll
 0002:00000078       __imp_LoadResource         00000001800ab078     kernel32:KERNEL32.dll
 0002:00000080       __imp_LeaveCriticalSection 00000001800ab080     kernel32:KERNEL32.dll
 0002:00000088       __imp_FindResourceW        00000001800ab088     kernel32:KERNEL32.dll
 0002:00000090       __imp_lstrcmpiW            00000001800ab090     kernel32:KERNEL32.dll
 0002:00000098       __imp_MultiByteToWideChar  00000001800ab098     kernel32:KERNEL32.dll
 0002:000000a0       __imp_CreateFileW          00000001800ab0a0     kernel32:KERNEL32.dll
 0002:000000a8       __imp_CloseHandle          00000001800ab0a8     kernel32:KERNEL32.dll
 0002:000000b0       __imp_ReadConsoleW         00000001800ab0b0     kernel32:KERNEL32.dll
 0002:000000b8       __imp_ReadFile             00000001800ab0b8     kernel32:KERNEL32.dll
 0002:000000c0       __imp_EnterCriticalSection 00000001800ab0c0     kernel32:KERNEL32.dll
 0002:000000c8       __imp_EncodePointer        00000001800ab0c8     kernel32:KERNEL32.dll
 0002:000000d0       __imp_DeleteCriticalSection 00000001800ab0d0     kernel32:KERNEL32.dll
 0002:000000d8       __imp_InitializeCriticalSectionEx 00000001800ab0d8     kernel32:KERNEL32.dll
 0002:000000e0       __imp_SetLastError         00000001800ab0e0     kernel32:KERNEL32.dll
 0002:000000e8       __imp_GetLastError         00000001800ab0e8     kernel32:KERNEL32.dll
 0002:000000f0       __imp_RaiseException       00000001800ab0f0     kernel32:KERNEL32.dll
 0002:000000f8       __imp_SizeofResource       00000001800ab0f8     kernel32:KERNEL32.dll
 0002:00000100       __imp_DecodePointer        00000001800ab100     kernel32:KERNEL32.dll
 0002:00000108       __imp_FlushFileBuffers     00000001800ab108     kernel32:KERNEL32.dll
 0002:00000110       __imp_GetConsoleMode       00000001800ab110     kernel32:KERNEL32.dll
 0002:00000118       __imp_GetConsoleOutputCP   00000001800ab118     kernel32:KERNEL32.dll
 0002:00000120       __imp_SetStdHandle         00000001800ab120     kernel32:KERNEL32.dll
 0002:00000128       __imp_GetStringTypeW       00000001800ab128     kernel32:KERNEL32.dll
 0002:00000130       __imp_SetFilePointerEx     00000001800ab130     kernel32:KERNEL32.dll
 0002:00000138       __imp_GetFileSizeEx        00000001800ab138     kernel32:KERNEL32.dll
 0002:00000140       __imp_HeapQueryInformation 00000001800ab140     kernel32:KERNEL32.dll
 0002:00000148       __imp_EnumSystemLocalesW   00000001800ab148     kernel32:KERNEL32.dll
 0002:00000150       __imp_GetUserDefaultLCID   00000001800ab150     kernel32:KERNEL32.dll
 0002:00000158       __imp_IsValidLocale        00000001800ab158     kernel32:KERNEL32.dll
 0002:00000160       __imp_GetLocaleInfoW       00000001800ab160     kernel32:KERNEL32.dll
 0002:00000168       __imp_LCMapStringW         00000001800ab168     kernel32:KERNEL32.dll
 0002:00000170       __imp_CompareStringW       00000001800ab170     kernel32:KERNEL32.dll
 0002:00000178       __imp_IsDebuggerPresent    00000001800ab178     kernel32:KERNEL32.dll
 0002:00000180       __imp_OutputDebugStringW   00000001800ab180     kernel32:KERNEL32.dll
 0002:00000188       __imp_RtlCaptureContext    00000001800ab188     kernel32:KERNEL32.dll
 0002:00000190       __imp_RtlLookupFunctionEntry 00000001800ab190     kernel32:KERNEL32.dll
 0002:00000198       __imp_RtlVirtualUnwind     00000001800ab198     kernel32:KERNEL32.dll
 0002:000001a0       __imp_UnhandledExceptionFilter 00000001800ab1a0     kernel32:KERNEL32.dll
 0002:000001a8       __imp_SetUnhandledExceptionFilter 00000001800ab1a8     kernel32:KERNEL32.dll
 0002:000001b0       __imp_GetCurrentProcess    00000001800ab1b0     kernel32:KERNEL32.dll
 0002:000001b8       __imp_TerminateProcess     00000001800ab1b8     kernel32:KERNEL32.dll
 0002:000001c0       __imp_IsProcessorFeaturePresent 00000001800ab1c0     kernel32:KERNEL32.dll
 0002:000001c8       __imp_GetStartupInfoW      00000001800ab1c8     kernel32:KERNEL32.dll
 0002:000001d0       __imp_WideCharToMultiByte  00000001800ab1d0     kernel32:KERNEL32.dll
 0002:000001d8       __imp_QueryPerformanceCounter 00000001800ab1d8     kernel32:KERNEL32.dll
 0002:000001e0       __imp_GetCurrentProcessId  00000001800ab1e0     kernel32:KERNEL32.dll
 0002:000001e8       __imp_GetCurrentThreadId   00000001800ab1e8     kernel32:KERNEL32.dll
 0002:000001f0       __imp_GetSystemTimeAsFileTime 00000001800ab1f0     kernel32:KERNEL32.dll
 0002:000001f8       __imp_InitializeSListHead  00000001800ab1f8     kernel32:KERNEL32.dll
 0002:00000200       __imp_HeapAlloc            00000001800ab200     kernel32:KERNEL32.dll
 0002:00000208       __imp_HeapFree             00000001800ab208     kernel32:KERNEL32.dll
 0002:00000210       __imp_GetProcessHeap       00000001800ab210     kernel32:KERNEL32.dll
 0002:00000218       __imp_VirtualQuery         00000001800ab218     kernel32:KERNEL32.dll
 0002:00000220       __imp_RtlUnwindEx          00000001800ab220     kernel32:KERNEL32.dll
 0002:00000228       __imp_InterlockedPushEntrySList 00000001800ab228     kernel32:KERNEL32.dll
 0002:00000230       __imp_InterlockedFlushSList 00000001800ab230     kernel32:KERNEL32.dll
 0002:00000238       __imp_RtlPcToFileHeader    00000001800ab238     kernel32:KERNEL32.dll
 0002:00000240       __imp_InitializeCriticalSectionAndSpinCount 00000001800ab240     kernel32:KERNEL32.dll
 0002:00000248       __imp_TlsAlloc             00000001800ab248     kernel32:KERNEL32.dll
 0002:00000250       __imp_TlsGetValue          00000001800ab250     kernel32:KERNEL32.dll
 0002:00000258       __imp_TlsSetValue          00000001800ab258     kernel32:KERNEL32.dll
 0002:00000260       __imp_TlsFree              00000001800ab260     kernel32:KERNEL32.dll
 0002:00000268       __imp_GetModuleHandleExW   00000001800ab268     kernel32:KERNEL32.dll
 0002:00000270       __imp_ExitProcess          00000001800ab270     kernel32:KERNEL32.dll
 0002:00000278       __imp_HeapSize             00000001800ab278     kernel32:KERNEL32.dll
 0002:00000280       __imp_HeapValidate         00000001800ab280     kernel32:KERNEL32.dll
 0002:00000288       __imp_GetSystemInfo        00000001800ab288     kernel32:KERNEL32.dll
 0002:00000290       __imp_GetStdHandle         00000001800ab290     kernel32:KERNEL32.dll
 0002:00000298       __imp_GetFileType          00000001800ab298     kernel32:KERNEL32.dll
 0002:000002a0       __imp_WriteFile            00000001800ab2a0     kernel32:KERNEL32.dll
 0002:000002a8       __imp_WriteConsoleW        00000001800ab2a8     kernel32:KERNEL32.dll
 0002:000002b0       __imp_SetConsoleCtrlHandler 00000001800ab2b0     kernel32:KERNEL32.dll
 0002:000002b8       __imp_GetCurrentThread     00000001800ab2b8     kernel32:KERNEL32.dll
 0002:000002c0       __imp_HeapReAlloc          00000001800ab2c0     kernel32:KERNEL32.dll
 0002:000002c8       __imp_FindClose            00000001800ab2c8     kernel32:KERNEL32.dll
 0002:000002d0       __imp_FindFirstFileExW     00000001800ab2d0     kernel32:KERNEL32.dll
 0002:000002d8       __imp_FindNextFileW        00000001800ab2d8     kernel32:KERNEL32.dll
 0002:000002e0       __imp_IsValidCodePage      00000001800ab2e0     kernel32:KERNEL32.dll
 0002:000002e8       __imp_GetACP               00000001800ab2e8     kernel32:KERNEL32.dll
 0002:000002f0       __imp_GetOEMCP             00000001800ab2f0     kernel32:KERNEL32.dll
 0002:000002f8       __imp_GetCPInfo            00000001800ab2f8     kernel32:KERNEL32.dll
 0002:00000300       __imp_GetCommandLineA      00000001800ab300     kernel32:KERNEL32.dll
 0002:00000308       __imp_GetCommandLineW      00000001800ab308     kernel32:KERNEL32.dll
 0002:00000310       __imp_GetEnvironmentStringsW 00000001800ab310     kernel32:KERNEL32.dll
 0002:00000318       __imp_FreeEnvironmentStringsW 00000001800ab318     kernel32:KERNEL32.dll
 0002:00000320       __imp_SetEnvironmentVariableW 00000001800ab320     kernel32:KERNEL32.dll
 0002:00000328       __imp_GetDateFormatW       00000001800ab328     kernel32:KERNEL32.dll
 0002:00000330       __imp_GetTimeFormatW       00000001800ab330     kernel32:KERNEL32.dll
 0002:00000338       __imp_RtlUnwind            00000001800ab338     kernel32:KERNEL32.dll
 0002:00000340       \177KERNEL32_NULL_THUNK_DATA 00000001800ab340     kernel32:KERNEL32.dll
 0002:00000348       __imp_LoadTypeLib          00000001800ab348     oleaut32:OLEAUT32.dll
 0002:00000350       __imp_UnRegisterTypeLib    00000001800ab350     oleaut32:OLEAUT32.dll
 0002:00000358       __imp_SysStringLen         00000001800ab358     oleaut32:OLEAUT32.dll
 0002:00000360       __imp_SysAllocString       00000001800ab360     oleaut32:OLEAUT32.dll
 0002:00000368       __imp_SysFreeString        00000001800ab368     oleaut32:OLEAUT32.dll
 0002:00000370       __imp_VarUI4FromStr        00000001800ab370     oleaut32:OLEAUT32.dll
 0002:00000378       __imp_RegisterTypeLib      00000001800ab378     oleaut32:OLEAUT32.dll
 0002:00000380       \177OLEAUT32_NULL_THUNK_DATA 00000001800ab380     oleaut32:OLEAUT32.dll
 0002:00000388       __imp_UnregisterClassW     00000001800ab388     user32:USER32.dll
 0002:00000390       __imp_CharNextW            00000001800ab390     user32:USER32.dll
 0002:00000398       \177USER32_NULL_THUNK_DATA 00000001800ab398     user32:USER32.dll
 0002:000003a0       __imp_CoTaskMemRealloc     00000001800ab3a0     ole32:ole32.dll
 0002:000003a8       __imp_CoCreateInstance     00000001800ab3a8     ole32:ole32.dll
 0002:000003b0       __imp_StringFromGUID2      00000001800ab3b0     ole32:ole32.dll
 0002:000003b8       __imp_CoTaskMemAlloc       00000001800ab3b8     ole32:ole32.dll
 0002:000003c0       __imp_CoTaskMemFree        00000001800ab3c0     ole32:ole32.dll
 0002:000003c8       \177ole32_NULL_THUNK_DATA  00000001800ab3c8     ole32:ole32.dll
 0002:000003d0       __guard_check_icall_fptr   00000001800ab3d0     LIBCMTD:guard_support.obj
 0002:000003d8       __guard_xfg_check_icall_fptr 00000001800ab3d8     LIBCMTD:guard_support.obj
 0002:000003e0       __guard_dispatch_icall_fptr 00000001800ab3e0     LIBCMTD:guard_support.obj
 0002:000003e8       __guard_xfg_dispatch_icall_fptr 00000001800ab3e8     LIBCMTD:guard_support.obj
 0002:000003f0       __guard_xfg_table_dispatch_icall_fptr 00000001800ab3f0     LIBCMTD:guard_support.obj
 0002:000003f8       __xc_a                     00000001800ab3f8     LIBCMTD:initializers.obj
 0002:000004d8       __xc_z                     00000001800ab4d8     LIBCMTD:initializers.obj
 0002:000004e0       __xi_a                     00000001800ab4e0     LIBCMTD:initializers.obj
 0002:000004e8       __acrt_stdio_initializer   00000001800ab4e8     libucrtd:stdio_initializer.obj
 0002:000004f0       __acrt_multibyte_initializer 00000001800ab4f0     libucrtd:multibyte_initializer.obj
 0002:000004f8       __acrt_tran_fma3_initializer 00000001800ab4f8     libucrtd:fma3_initializer.obj
 0002:00000500       __xi_z                     00000001800ab500     LIBCMTD:initializers.obj
 0002:00000508       __xp_a                     00000001800ab508     LIBCMTD:initializers.obj
 0002:00000510       __acrt_locale_terminator   00000001800ab510     libucrtd:locale_initializer.obj
 0002:00000518       __dcrt_console_output_terminator 00000001800ab518     libucrtd:console_output_initializer.obj
 0002:00000520       __acrt_stdio_terminator    00000001800ab520     libucrtd:stdio_initializer.obj
 0002:00000528       __xp_z                     00000001800ab528     LIBCMTD:initializers.obj
 0002:00000530       __xt_a                     00000001800ab530     LIBCMTD:initializers.obj
 0002:00000538       __xt_z                     00000001800ab538     LIBCMTD:initializers.obj
 0002:00002418       LIBID_ATLLib               00000001800ad418     StdAfx.obj
 0002:00002428       ?chDirSep@ATL@@3_WB        00000001800ad428     StdAfx.obj
 0002:0000242c       ?chRightBracket@ATL@@3_WB  00000001800ad42c     StdAfx.obj
 0002:00002430       ?chLeftBracket@ATL@@3_WB   00000001800ad430     StdAfx.obj
 0002:00002434       ?chQuote@ATL@@3_WB         00000001800ad434     StdAfx.obj
 0002:00002438       ?chEquals@ATL@@3_WB        00000001800ad438     StdAfx.obj
 0002:00002440       ?szStringVal@ATL@@3QEB_WEB 00000001800ad440     StdAfx.obj
 0002:00002448       ?multiszStringVal@ATL@@3QEB_WEB 00000001800ad448     StdAfx.obj
 0002:00002450       ?szDwordVal@ATL@@3QEB_WEB  00000001800ad450     StdAfx.obj
 0002:00002458       ?szBinaryVal@ATL@@3QEB_WEB 00000001800ad458     StdAfx.obj
 0002:00002460       ?szValToken@ATL@@3QEB_WEB  00000001800ad460     StdAfx.obj
 0002:00002468       ?szForceRemove@ATL@@3QEB_WEB 00000001800ad468     StdAfx.obj
 0002:00002470       ?szNoRemove@ATL@@3QEB_WEB  00000001800ad470     StdAfx.obj
 0002:00002478       ?szDelete@ATL@@3QEB_WEB    00000001800ad478     StdAfx.obj
 0002:00002480       CLSID_Registrar            00000001800ad480     StdAfx.obj
 0002:00002490       IID_IRegistrar             00000001800ad490     StdAfx.obj
 0002:000024a0       IID_IDocHostUIHandlerDispatch 00000001800ad4a0     StdAfx.obj
 0002:000024b0       IID_IAxWinHostWindow       00000001800ad4b0     StdAfx.obj
 0002:000024c0       IID_IAxWinHostWindowLic    00000001800ad4c0     StdAfx.obj
 0002:000024d0       IID_IAxWinAmbientDispatch  00000001800ad4d0     StdAfx.obj
 0002:000024e0       IID_IAxWinAmbientDispatchEx 00000001800ad4e0     StdAfx.obj
 0002:000024f0       IID_IInternalConnection    00000001800ad4f0     StdAfx.obj
 0002:000027c0       ??_C@_13COJANIEC@?$AA0@    00000001800ad7c0     StdAfx.obj
 0002:000027c8       ??_C@_17CNPHIMPH@?$AA?$CF?$AAl?$AAs@ 00000001800ad7c8     StdAfx.obj
 0002:000027d0       ??_C@_1OE@EFJOHFCD@?$AAC?$AA?3?$AA?2?$AAP?$AAr?$AAo?$AAg?$AAr?$AAa?$AAm?$AA?5?$AAF?$AAi?$AAl?$AAe@ 00000001800ad7d0     StdAfx.obj
 0002:000028b8       ??_C@_1O@LFNDFEBP@?$AA?$CF?$AAl?$AAs?$AA?5?$AA?9?$AA?5@ 00000001800ad8b8     StdAfx.obj
 0002:000028c8       ??_C@_1M@PGKOAACE@?$AA?$CF?$AAu?$AA?5?$AA?9?$AA?5@ 00000001800ad8c8     StdAfx.obj
 0002:000028d8       ??_C@_1O@OAIPCDPO@?$AA?$CF?$AAl?$AAs?$AA?$CF?$AAl?$AAs@ 00000001800ad8d8     StdAfx.obj
 0002:000028e8       ??_C@_17LGGGMOOB@?$AA?$CF?$AAh?$AAs@ 00000001800ad8e8     StdAfx.obj
 0002:000028f0       ??_C@_1EO@EBPPKGOM@?$AAf?$AAa?$AAl?$AAs?$AAe?$AA?5?$AA?$CG?$AA?$CG?$AA?5?$AA?$CC?$AAT?$AAo?$AAo?$AA?5?$AAm@ 00000001800ad8f0     StdAfx.obj
 0002:00002940       ??_C@_1OE@DGDFBHKA@?$AAC?$AA?3?$AA?2?$AAP?$AAr?$AAo?$AAg?$AAr?$AAa?$AAm?$AA?5?$AAF?$AAi?$AAl?$AAe@ 00000001800ad940     StdAfx.obj
 0002:00002a30       ??_C@_1OC@CIBKFAMP@?$AAC?$AA?3?$AA?2?$AAP?$AAr?$AAo?$AAg?$AAr?$AAa?$AAm?$AA?5?$AAF?$AAi?$AAl?$AAe@ 00000001800ada30     StdAfx.obj
 0002:00002b20       ??_C@_0HB@KEBNGHII@C?3?2Program?5Files?5?$CIx86?$CJ?2Microsof@ 00000001800adb20     StdAfx.obj
 0002:00002ba0       ??_C@_1IA@KEEOONGN@?$AAE?$AAR?$AAR?$AAO?$AAR?$AA?5?$AA?3?$AA?5?$AAU?$AAn?$AAa?$AAb?$AAl?$AAe?$AA?5@ 00000001800adba0     StdAfx.obj
 0002:00002c20       ??_C@_1IG@OPJAFKJH@?$AAE?$AAR?$AAR?$AAO?$AAR?$AA?5?$AA?3?$AA?5?$AAU?$AAn?$AAa?$AAb?$AAl?$AAe?$AA?5@ 00000001800adc20     StdAfx.obj
 0002:00002cb0       ??_C@_1EA@JHMKKLFC@?$AAn?$AAI?$AAn?$AAd?$AAe?$AAx?$AA?5?$AA?$DO?$AA?$DN?$AA?5?$AA0?$AA?5?$AA?$CG?$AA?$CG?$AA?5@ 00000001800adcb0     StdAfx.obj
 0002:00002cf0       ??_C@_1OK@FGCLCILL@?$AAC?$AA?3?$AA?2?$AAP?$AAr?$AAo?$AAg?$AAr?$AAa?$AAm?$AA?5?$AAF?$AAi?$AAl?$AAe@ 00000001800adcf0     StdAfx.obj
 0002:00002de0       ??_C@_1BK@NHECDDNK@?$AAm?$AA_?$AAp?$AAD?$AAa?$AAt?$AAa?$AA?5?$AA?$DN?$AA?$DN?$AA?5?$AA0@ 00000001800adde0     StdAfx.obj
 0002:00004cd8       LIBID_OPOSINTERNALSLib     00000001800afcd8     OposInternals.obj
 0002:00006640       ??_C@_0HD@ECNMIKGK@C?3?2Program?5Files?5?$CIx86?$CJ?2Microsof@ 00000001800b1640     OposInternals.obj
 0002:000066b8       ??_C@_1CK@DFMKPFAK@?$AAA?$AAt?$AAl?$AAT?$AAh?$AAr?$AAo?$AAw?$AA?3?$AA?5?$AAh?$AAr?$AA?5?$AA?$DN?$AA?5@ 00000001800b16b8     OposInternals.obj
 0002:000066e8       ??_C@_1M@HLGKFCJM@?$AAf?$AAa?$AAl?$AAs?$AAe@ 00000001800b16e8     OposInternals.obj
 0002:00006700       ??_C@_1OG@DEDHKNLM@?$AAC?$AA?3?$AA?2?$AAP?$AAr?$AAo?$AAg?$AAr?$AAa?$AAm?$AA?5?$AAF?$AAi?$AAl?$AAe@ 00000001800b1700     OposInternals.obj
 0002:000067e8       ??_C@_1BM@GBBOFEAE@?$AA_?$AA_?$AAa?$AAt?$AAl?$AA_?$AAc?$AAo?$AAn?$AAd?$AAV?$AAa?$AAl@ 00000001800b17e8     OposInternals.obj
 0002:00006810       ??_C@_1OG@NPBPGCCO@?$AAC?$AA?3?$AA?2?$AAP?$AAr?$AAo?$AAg?$AAr?$AAa?$AAm?$AA?5?$AAF?$AAi?$AAl?$AAe@ 00000001800b1810     OposInternals.obj
 0002:000068f8       _GUID_00000000_0000_0000_c000_000000000046 00000001800b18f8     OposInternals.obj
 0002:00006908       ??_C@_1BG@ILBPLEEF@?$AAn?$AAN?$AAu?$AAl?$AAl?$AA?5?$AA?$DN?$AA?$DN?$AA?5?$AA0@ 00000001800b1908     OposInternals.obj
 0002:00006920       ??_C@_1PO@GPALOAFP@?$AAC?$AA?3?$AA?2?$AAP?$AAr?$AAo?$AAg?$AAr?$AAa?$AAm?$AA?5?$AAF?$AAi?$AAl?$AAe@ 00000001800b1920     OposInternals.obj
 0002:00006a20       ??_C@_1BK@BIGILECK@?$AAA?$AAd?$AAv?$AAa?$AAp?$AAi?$AA3?$AA2?$AA?4?$AAd?$AAl?$AAl@ 00000001800b1a20     OposInternals.obj
 0002:00006a40       ??_C@_1BO@KNMGNOCJ@?$AAh?$AAA?$AAd?$AAv?$AAA?$AAP?$AAI?$AA3?$AA2?$AA?5?$AA?$CB?$AA?$DN?$AA?5?$AA0@ 00000001800b1a40     OposInternals.obj
 0002:00006a60       ??_C@_0BG@EKFFMJIO@RegOpenKeyTransactedW@ 00000001800b1a60     OposInternals.obj
 0002:00006a78       ??_C@_0BI@MNCFCPFK@RegCreateKeyTransactedW@ 00000001800b1a78     OposInternals.obj
 0002:00006a90       ??_C@_0BI@HAKLOOGP@RegDeleteKeyTransactedW@ 00000001800b1a90     OposInternals.obj
 0002:00006aa8       ??_C@_1BG@OHCCAGNO@?$AA?$CB?$AAm?$AA_?$AAb?$AAL?$AAo?$AAc?$AAk?$AAe?$AAd@ 00000001800b1aa8     OposInternals.obj
 0002:00006ac0       ??_C@_1BE@NPGJNKLA@?$AAm?$AA_?$AAb?$AAL?$AAo?$AAc?$AAk?$AAe?$AAd@ 00000001800b1ac0     OposInternals.obj
 0002:00006ad8       ??_C@_1CC@DNHFMIHP@?$AA_?$AAp?$AAA?$AAt?$AAl?$AAM?$AAo?$AAd?$AAu?$AAl?$AAe?$AA?5?$AA?$DN?$AA?$DN?$AA?5@ 00000001800b1ad8     OposInternals.obj
 0002:00006b00       ??_C@_1HK@DFMOIGDB@?$AAE?$AAR?$AAR?$AAO?$AAR?$AA?5?$AA?3?$AA?5?$AAU?$AAn?$AAa?$AAb?$AAl?$AAe?$AA?5@ 00000001800b1b00     OposInternals.obj
 0002:00006b80       _GUID_00000146_0000_0000_c000_000000000046 00000001800b1b80     OposInternals.obj
 0002:00006b90       ??_C@_1BG@LENCCAOJ@?$AAp?$AAp?$AAG?$AAI?$AAT?$AA?5?$AA?$CB?$AA?$DN?$AA?5?$AA0@ 00000001800b1b90     OposInternals.obj
 0002:00006ba8       ??_C@_1BI@JBLBCKD@?$AAm?$AA_?$AAp?$AAG?$AAI?$AAT?$AA?5?$AA?$CB?$AA?$DN?$AA?5?$AA0@ 00000001800b1ba8     OposInternals.obj
 0002:00006bc0       ??_7CComModule@ATL@@6B@    00000001800b1bc0     OposInternals.obj
 0002:00006c10       ??_C@_1BM@NFPICFEL@?$AA_?$AAp?$AAM?$AAo?$AAd?$AAu?$AAl?$AAe?$AA?5?$AA?$DN?$AA?$DN?$AA?5?$AA0@ 00000001800b1c10     OposInternals.obj
 0002:00006c30       ??_C@_1BI@JPOONHGO@?$AAm?$AA_?$AAh?$AAK?$AAe?$AAy?$AA?5?$AA?$DN?$AA?$DN?$AA?5?$AA0@ 00000001800b1c30     OposInternals.obj
 0002:00006c48       ??_C@_1BI@KCHMLGAI@?$AAm?$AA_?$AAh?$AAK?$AAe?$AAy?$AA?5?$AA?$CB?$AA?$DN?$AA?5?$AA0@ 00000001800b1c48     OposInternals.obj
 0002:00006c60       ??_C@_0BA@LILAPHGE@RegDeleteKeyExW@ 00000001800b1c60     OposInternals.obj
 0002:00006c70       ??_C@_1CA@JAHJEEHI@?$AAh?$AAK?$AAe?$AAy?$AAP?$AAa?$AAr?$AAe?$AAn?$AAt?$AA?5?$AA?$CB?$AA?$DN?$AA?5?$AA0@ 00000001800b1c70     OposInternals.obj
 0002:00006c90       ??_C@_1BG@OMKLFNDM@?$AAl?$AAR?$AAe?$AAs?$AA?5?$AA?$DN?$AA?$DN?$AA?5?$AA0?$AAL@ 00000001800b1c90     OposInternals.obj
 0002:00006cb0       ??_C@_1FG@MAMCHIIA@?$AA?$CI?$AAd?$AAw?$AAT?$AAy?$AAp?$AAe?$AA?5?$AA?$DN?$AA?$DN?$AA?5?$AA?$CI?$AA?5?$AA1?$AAu@ 00000001800b1cb0     OposInternals.obj
 0002:00006d10       ??_C@_1IA@CIKBLAHF@?$AAC?$AAR?$AAe?$AAg?$AAK?$AAe?$AAy?$AA?3?$AA?3?$AAR?$AAe?$AAc?$AAu?$AAr?$AAs@ 00000001800b1d10     OposInternals.obj
 0002:00006d90       ??_C@_1DO@EIGOLNAA@?$AAl?$AAp?$AAs?$AAz?$AAK?$AAe?$AAy?$AA?5?$AA?$CB?$AA?$DN?$AA?5?$AA0?$AA?5?$AA?$CG?$AA?$CG@ 00000001800b1d90     OposInternals.obj
 0002:00006dd0       ??_C@_1OC@IGDLHBDL@?$AAC?$AA?3?$AA?2?$AAP?$AAr?$AAo?$AAg?$AAr?$AAa?$AAm?$AA?5?$AAF?$AAi?$AAl?$AAe@ 00000001800b1dd0     OposInternals.obj
 0002:00006eb8       ??_C@_1BG@MMFPEKL@?$AAs?$AAz?$AAK?$AAe?$AAy?$AA?5?$AA?$CB?$AA?$DN?$AA?5?$AA0@ 00000001800b1eb8     OposInternals.obj
 0002:00006ed0       ??_C@_1BK@LDPHGFPN@?$AAs?$AAz?$AAV?$AAa?$AAl?$AAu?$AAe?$AA?5?$AA?$CB?$AA?$DN?$AA?5?$AA0@ 00000001800b1ed0     OposInternals.obj
 0002:00006ef0       ?rgszNeverDelete@CRegParser@ATL@@1QBQEB_WB 00000001800b1ef0     OposInternals.obj
 0002:00006f50       ??_C@_1O@JFMKDNFA@?$AAp?$AA?5?$AA?$CB?$AA?$DN?$AA?5?$AA0@ 00000001800b1f50     OposInternals.obj
 0002:00006f60       ??_7CRegObject@ATL@@6B@    00000001800b1f60     OposInternals.obj
 0002:00006f90       ??_C@_1JM@PMKLGAKF@?$AAs?$AAt?$AAa?$AAt?$AAi?$AAc?$AAa?$AAl?$AAl?$AAy?$AA?5?$AAl?$AAi?$AAn?$AAk@ 00000001800b1f90     OposInternals.obj
 0002:00007030       ??_C@_1KC@MLBIPPDL@?$AAL?$AA?$CC?$AAs?$AAt?$AAa?$AAt?$AAi?$AAc?$AAa?$AAl?$AAl?$AAy?$AA?5?$AAl?$AAi@ 00000001800b2030     OposInternals.obj
 0002:000070e0       ??_C@_0HB@NIKGFAOE@C?3?2Program?5Files?5?$CIx86?$CJ?2Microsof@ 00000001800b20e0     OposInternals.obj
 0002:00007158       ??_C@_1DM@JBIDINMA@?$AAF?$AAa?$AAi?$AAl?$AAe?$AAd?$AA?5?$AAt?$AAo?$AA?5?$AAL?$AAo?$AAa?$AAd?$AAL@ 00000001800b2158     OposInternals.obj
 0002:000071a0       ??_C@_1FE@HJDAOHJE@?$AAF?$AAa?$AAi?$AAl?$AAe?$AAd?$AA?5?$AAt?$AAo?$AA?5?$AAF?$AAi?$AAn?$AAd?$AAR@ 00000001800b21a0     OposInternals.obj
 0002:00007200       ??_C@_1FG@BBJFPKL@?$AAF?$AAa?$AAi?$AAl?$AAe?$AAd?$AA?5?$AAt?$AAo?$AA?5?$AAF?$AAi?$AAn?$AAd?$AAR@ 00000001800b2200     OposInternals.obj
 0002:00007258       ??_C@_1DA@KJKEAFMD@?$AAF?$AAa?$AAi?$AAl?$AAe?$AAd?$AA?5?$AAt?$AAo?$AA?5?$AAL?$AAo?$AAa?$AAd?$AAR@ 00000001800b2258     OposInternals.obj
 0002:00007288       ??_C@_1CK@BCPDHANH@?$AAM?$AAa?$AAp?$AA?5?$AAE?$AAn?$AAt?$AAr?$AAy?$AA?5?$AAn?$AAo?$AAt?$AA?5?$AAf@ 00000001800b2288     OposInternals.obj
 0002:000072c0       ??_C@_1FI@KMIOGKOO@?$AAB?$AAo?$AAg?$AAu?$AAs?$AA?5?$AAv?$AAa?$AAl?$AAu?$AAe?$AA?5?$AA?$CF?$AAT?$AAc@ 00000001800b22c0     OposInternals.obj
 0002:00007320       ?map@?1??HKeyFromString@CRegParser@ATL@@KAPEAUHKEY__@@PEA_W@Z@4QBUkeymap@?1??123@KAPEAU4@0@Z@B 00000001800b2320     OposInternals.obj
 0002:00007400       ??_C@_19NCHLBIN@?$AAH?$AAK?$AAC?$AAR@ 00000001800b2400     OposInternals.obj
 0002:00007410       ??_C@_19JAPAIJDE@?$AAH?$AAK?$AAC?$AAU@ 00000001800b2410     OposInternals.obj
 0002:00007420       ??_C@_19PEALEEJB@?$AAH?$AAK?$AAL?$AAM@ 00000001800b2420     OposInternals.obj
 0002:00007430       ??_C@_17PJOJPMPB@?$AAH?$AAK?$AAU@ 00000001800b2430     OposInternals.obj
 0002:00007438       ??_C@_19PNBHMJPL@?$AAH?$AAK?$AAP?$AAD@ 00000001800b2438     OposInternals.obj
 0002:00007448       ??_C@_19GFFAIJHG@?$AAH?$AAK?$AAD?$AAD@ 00000001800b2448     OposInternals.obj
 0002:00007458       ??_C@_19OFICIBHH@?$AAH?$AAK?$AAC?$AAC@ 00000001800b2458     OposInternals.obj
 0002:00007468       ??_C@_1CE@PACHPJFI@?$AAH?$AAK?$AAE?$AAY?$AA_?$AAC?$AAL?$AAA?$AAS?$AAS?$AAE?$AAS?$AA_?$AAR?$AAO@ 00000001800b2468     OposInternals.obj
 0002:00007490       ??_C@_1CE@HLHNCBPM@?$AAH?$AAK?$AAE?$AAY?$AA_?$AAC?$AAU?$AAR?$AAR?$AAE?$AAN?$AAT?$AA_?$AAU?$AAS@ 00000001800b2490     OposInternals.obj
 0002:000074b8       ??_C@_1CG@GFBEANJL@?$AAH?$AAK?$AAE?$AAY?$AA_?$AAL?$AAO?$AAC?$AAA?$AAL?$AA_?$AAM?$AAA?$AAC?$AAH@ 00000001800b24b8     OposInternals.obj
 0002:000074e0       ??_C@_1BG@BGODANIO@?$AAH?$AAK?$AAE?$AAY?$AA_?$AAU?$AAS?$AAE?$AAR?$AAS@ 00000001800b24e0     OposInternals.obj
 0002:000074f8       ??_C@_1CM@KHNNAOIC@?$AAH?$AAK?$AAE?$AAY?$AA_?$AAP?$AAE?$AAR?$AAF?$AAO?$AAR?$AAM?$AAA?$AAN?$AAC@ 00000001800b24f8     OposInternals.obj
 0002:00007528       ??_C@_1BM@HAGMMHIA@?$AAH?$AAK?$AAE?$AAY?$AA_?$AAD?$AAY?$AAN?$AA_?$AAD?$AAA?$AAT?$AAA@ 00000001800b2528     OposInternals.obj
 0002:00007548       ??_C@_1CI@BBJOACGG@?$AAH?$AAK?$AAE?$AAY?$AA_?$AAC?$AAU?$AAR?$AAR?$AAE?$AAN?$AAT?$AA_?$AAC?$AAO@ 00000001800b2548     OposInternals.obj
 0002:00007570       ??_C@_1EI@CDDJHMMA@?$AAN?$AAe?$AAx?$AAt?$AAT?$AAo?$AAk?$AAe?$AAn?$AA?5?$AA?3?$AA?5?$AAU?$AAn?$AAe@ 00000001800b2570     OposInternals.obj
 0002:000075b8       ??_C@_1DA@BDBPEMM@?$AA?$CF?$AAT?$AAs?$AA?5?$AAT?$AAy?$AAp?$AAe?$AA?5?$AAn?$AAo?$AAt?$AA?5?$AAs?$AAu@ 00000001800b25b8     OposInternals.obj
 0002:000075e8       ??_C@_1BA@HANLFFFG@?$AAd?$AAe?$AAf?$AAa?$AAu?$AAl?$AAt@ 00000001800b25e8     OposInternals.obj
 0002:000075f8       ??_C@_1DE@GENBDOHF@?$AAS?$AAe?$AAt?$AAt?$AAi?$AAn?$AAg?$AA?5?$AAV?$AAa?$AAl?$AAu?$AAe?$AA?5?$AA?$CF@ 00000001800b25f8     OposInternals.obj
 0002:00007630       ??_C@_1DC@OPMJCKIB@?$AAS?$AAe?$AAt?$AAt?$AAi?$AAn?$AAg?$AA?5?$AAV?$AAa?$AAl?$AAu?$AAe?$AA?5?$AA?$CF@ 00000001800b2630     OposInternals.obj
 0002:00007670       ??_C@_1FK@OIDGAAMP@?$AAB?$AAi?$AAn?$AAa?$AAr?$AAy?$AA?5?$AAD?$AAa?$AAt?$AAa?$AA?5?$AAd?$AAo?$AAe@ 00000001800b2670     OposInternals.obj
 0002:000076d0       ??_C@_1CM@LNIALBHN@?$AAS?$AAh?$AAo?$AAu?$AAl?$AAd?$AA?5?$AAn?$AAo?$AAt?$AA?5?$AAb?$AAe?$AA?5?$AAh@ 00000001800b26d0     OposInternals.obj
 0002:00007700       ??_C@_1BK@ODFKMBGC@?$AAl?$AAp?$AAs?$AAz?$AAR?$AAe?$AAg?$AA?5?$AA?$CB?$AA?$DN?$AA?5?$AA0@ 00000001800b2700     OposInternals.obj
 0002:00007720       ??_C@_1BK@DGLFCBHI@?$AAp?$AAp?$AAs?$AAz?$AAR?$AAe?$AAg?$AA?5?$AA?$CB?$AA?$DN?$AA?5?$AA0@ 00000001800b2720     OposInternals.obj
 0002:00007740       ??_C@_1EA@NHKLICFA@?$AAH?$AAK?$AAC?$AAU?$AA?$AN?$AA?6?$AA?$HL?$AA?7?$AAS?$AAo?$AAf?$AAt?$AAw?$AAa?$AAr@ 00000001800b2740     OposInternals.obj
 0002:00007780       ??_C@_1BE@LJOLIMEM@?$AA?$AN?$AA?6?$AA?7?$AA?$HN?$AA?$AN?$AA?6?$AA?$HN?$AA?$AN?$AA?6@ 00000001800b2780     OposInternals.obj
 0002:00007798       ??_C@_1DG@KOLNJMBJ@?$AAE?$AAr?$AAr?$AAo?$AAr?$AA?5?$AAn?$AAo?$AA?5?$AAc?$AAl?$AAo?$AAs?$AAi?$AAn@ 00000001800b2798     OposInternals.obj
 0002:000077d0       ??_C@_19IGGGDNCK@?$AA?$CF?$AAT?$AAs?$AA?6@ 00000001800b27d0     OposInternals.obj
 0002:000077e0       ??_C@_1DM@JFHAPNGI@?$AAH?$AAK?$AAe?$AAy?$AAF?$AAr?$AAo?$AAm?$AAS?$AAt?$AAr?$AAi?$AAn?$AAg?$AA?5@ 00000001800b27e0     OposInternals.obj
 0002:00007820       ??_C@_1FE@MCPBFDLN@?$AAS?$AAy?$AAn?$AAt?$AAa?$AAx?$AA?5?$AAe?$AAr?$AAr?$AAo?$AAr?$AA?0?$AA?5?$AAe@ 00000001800b2820     OposInternals.obj
 0002:00007880       ??_C@_1EE@EMAKHHOG@?$AAF?$AAa?$AAi?$AAl?$AAe?$AAd?$AA?5?$AAt?$AAo?$AA?5?$AAr?$AAe?$AAg?$AAi?$AAs@ 00000001800b2880     OposInternals.obj
 0002:000078c8       ??_C@_1BM@KJDIPNJ@?$AAN?$AAu?$AAm?$AA?5?$AAE?$AAl?$AAs?$AA?5?$AA?$DN?$AA?5?$AA?$CF?$AAd?$AA?6@ 00000001800b28c8     OposInternals.obj
 0002:000078e8       ??_C@_1BM@BEOOHDFB@?$AAD?$AAe?$AAl?$AAe?$AAt?$AAi?$AAn?$AAg?$AA?5?$AA?$CF?$AAT?$AAs?$AA?6@ 00000001800b28e8     OposInternals.obj
 0002:00007908       ??_C@_1CE@NOBELHPC@?$AAC?$AAr?$AAe?$AAa?$AAt?$AAi?$AAn?$AAg?$AA?5?$AAk?$AAe?$AAy?$AA?5?$AA?$CF?$AAT@ 00000001800b2908     OposInternals.obj
 0002:00007930       ??_C@_1CA@MKECKMBH@?$AAO?$AAp?$AAe?$AAn?$AAe?$AAd?$AA?5?$AAK?$AAe?$AAy?$AA?5?$AA?$CF?$AAT?$AAs?$AA?6@ 00000001800b2930     OposInternals.obj
 0002:00007950       ??_C@_1FK@OAJHMKAA@?$AAI?$AAg?$AAn?$AAo?$AAr?$AAi?$AAn?$AAg?$AA?5?$AAO?$AAp?$AAe?$AAn?$AA?5?$AAk@ 00000001800b2950     OposInternals.obj
 0002:000079b0       ??_C@_1CM@OHCCCDHD@?$AAE?$AAn?$AAd?$AAi?$AAn?$AAg?$AA?5?$AAR?$AAe?$AAc?$AAo?$AAv?$AAe?$AAr?$AAy@ 00000001800b29b0     OposInternals.obj
 0002:000079e0       ??_C@_1FA@ECAJCMBE@?$AAD?$AAe?$AAl?$AAe?$AAt?$AAi?$AAn?$AAg?$AA?5?$AAn?$AAo?$AAn?$AA?9?$AAe?$AAm@ 00000001800b29e0     OposInternals.obj
 0002:00007a30       ??_C@_1CE@OGJGDPFE@?$AAD?$AAe?$AAl?$AAe?$AAt?$AAi?$AAn?$AAg?$AA?5?$AAK?$AAe?$AAy?$AA?5?$AA?$CF?$AAT@ 00000001800b2a30     OposInternals.obj
 0002:00007a58       ??_C@_1DC@HEJCCJC@?$AA0?$AA?5?$AA?$CB?$AA?$DN?$AA?5?$AAp?$AAM?$AAa?$AAp?$AAE?$AAn?$AAt?$AAr?$AAi?$AAe@ 00000001800b2a58     OposInternals.obj
 0002:00007a90       ??_C@_1O@MNLDABAF@?$AAM?$AAo?$AAd?$AAu?$AAl?$AAe@ 00000001800b2a90     OposInternals.obj
 0002:00007aa0       ??_C@_1BG@JBACFMF@?$AAM?$AAo?$AAd?$AAu?$AAl?$AAe?$AA_?$AAR?$AAa?$AAw@ 00000001800b2aa0     OposInternals.obj
 0002:00007ab8       ??_C@_1BC@KAILKFFG@?$AAR?$AAE?$AAG?$AAI?$AAS?$AAT?$AAR?$AAY@ 00000001800b2ab8     OposInternals.obj
 0002:00007acc       ??_C@_11LOCGONAA@@         00000001800b2acc     OposInternals.obj
 0002:00007ad0       ??_C@_1EC@GOCPDDCL@?$AAp?$AAb?$AAs?$AAt?$AAr?$AAP?$AAa?$AAt?$AAh?$AA?5?$AA?$CB?$AA?$DN?$AA?5?$AA0?$AA?5@ 00000001800b2ad0     OposInternals.obj
 0002:00007b18       ??_C@_1CE@MNLFIKHJ@?$AAh?$AAI?$AAn?$AAs?$AAt?$AAT?$AAy?$AAp?$AAe?$AAL?$AAi?$AAb?$AA?5?$AA?$CB?$AA?$DN@ 00000001800b2b18     OposInternals.obj
 0002:00007b40       ??_C@_19ILOCMLCJ@?$AA?4?$AAt?$AAl?$AAb@ 00000001800b2b40     OposInternals.obj
 0002:00007b50       _GUID_0002e012_0000_0000_c000_000000000046 00000001800b2b50     OposInternals.obj
 0002:00007b60       ??_C@_1OK@NEECLFPA@?$AA0?$AA?5?$AA?$CG?$AA?$CG?$AA?5?$AAL?$AA?$CC?$AAU?$AAs?$AAe?$AA?5?$AAO?$AAB?$AAJ?$AAE@ 00000001800b2b60     OposInternals.obj
 0002:00007c50       ??_C@_1CG@IDMIONOG@?$AAp?$AAE?$AAn?$AAt?$AAr?$AAy?$AA?9?$AA?$DO?$AAi?$AAT?$AAy?$AAp?$AAe?$AA?5?$AA?$DN@ 00000001800b2c50     OposInternals.obj
 0002:00007c78       ??_C@_1O@FHBGLCIO@?$AAC?$AAL?$AAS?$AAI?$AAD?$AA?2@ 00000001800b2c78     OposInternals.obj
 0002:00007c88       ??_C@_1CK@IFBKBFAA@?$AA?2?$AAR?$AAe?$AAq?$AAu?$AAi?$AAr?$AAe?$AAd?$AA?5?$AAC?$AAa?$AAt?$AAe?$AAg@ 00000001800b2c88     OposInternals.obj
 0002:00007cb8       ??_C@_1DA@BIHALFED@?$AA?2?$AAI?$AAm?$AAp?$AAl?$AAe?$AAm?$AAe?$AAn?$AAt?$AAe?$AAd?$AA?5?$AAC?$AAa@ 00000001800b2cb8     OposInternals.obj
 0002:00007ce8       ??_C@_1BK@EDKOLFBJ@?$AAO?$AAL?$AAE?$AAA?$AAU?$AAT?$AA3?$AA2?$AA?4?$AAD?$AAL?$AAL@ 00000001800b2ce8     OposInternals.obj
 0002:00007d08       ??_C@_0BJ@CNLFOMHB@UnRegisterTypeLibForUser@ 00000001800b2d08     OposInternals.obj
 0002:00007d28       ??_C@_0BH@LBOMMKPJ@RegisterTypeLibForUser@ 00000001800b2d28     OposInternals.obj
 0002:00007d40       ??_C@_1CA@GAOMIJFK@?$AAp?$AAC?$AAo?$AAm?$AAM?$AAo?$AAd?$AAu?$AAl?$AAe?$AA?5?$AA?$CB?$AA?$DN?$AA?5?$AA0@ 00000001800b2d40     OposInternals.obj
 0002:00007d60       ??_C@_1EA@JIHAIGJA@?$AAp?$AAC?$AAo?$AAm?$AAM?$AAo?$AAd?$AAu?$AAl?$AAe?$AA?9?$AA?$DO?$AAm?$AA_?$AAh@ 00000001800b2d60     OposInternals.obj
 0002:00007da0       ??_C@_1IO@OONIPMJC@?$AAE?$AAR?$AAR?$AAO?$AAR?$AA?5?$AA?3?$AA?5?$AAU?$AAn?$AAa?$AAb?$AAl?$AAe?$AA?5@ 00000001800b2da0     OposInternals.obj
 0002:00007e30       ??_C@_1IO@BDEIDBOP@?$AAE?$AAR?$AAR?$AAO?$AAR?$AA?5?$AA?3?$AA?5?$AAU?$AAn?$AAa?$AAb?$AAl?$AAe?$AA?5@ 00000001800b2e30     OposInternals.obj
 0002:00007ec0       ??_C@_19LMDLLIGP@?$AAp?$AA?$DN?$AA?$DN?$AA0@ 00000001800b2ec0     OposInternals.obj
 0002:00007ed0       ??_C@_19JHCPJMAL@?$AAp?$AA?$CB?$AA?$DN?$AA0@ 00000001800b2ed0     OposInternals.obj
 0002:00007ee0       ??_C@_1BC@EMCLECFJ@?$AAm?$AA_?$AAp?$AA?5?$AA?$DN?$AA?$DN?$AA?5?$AA0@ 00000001800b2ee0     OposInternals.obj
 0002:00007ef8       ??_C@_1M@PPPPCDEP@?$AAA?$AAP?$AAP?$AAI?$AAD@ 00000001800b2ef8     OposInternals.obj
 0002:00007f08       GUID_NULL                  00000001800b2f08     uuid:cguid_i.obj
 0002:00007f18       CATID_MARSHALER            00000001800b2f18     uuid:cguid_i.obj
 0002:00007f28       IID_IRpcChannel            00000001800b2f28     uuid:cguid_i.obj
 0002:00007f38       IID_IRpcStub               00000001800b2f38     uuid:cguid_i.obj
 0002:00007f48       IID_IStubManager           00000001800b2f48     uuid:cguid_i.obj
 0002:00007f58       IID_IRpcProxy              00000001800b2f58     uuid:cguid_i.obj
 0002:00007f68       IID_IProxyManager          00000001800b2f68     uuid:cguid_i.obj
 0002:00007f78       IID_IPSFactory             00000001800b2f78     uuid:cguid_i.obj
 0002:00007f88       IID_IInternalMoniker       00000001800b2f88     uuid:cguid_i.obj
 0002:00007f98       IID_IDfReserved1           00000001800b2f98     uuid:cguid_i.obj
 0002:00007fa8       IID_IDfReserved2           00000001800b2fa8     uuid:cguid_i.obj
 0002:00007fb8       IID_IDfReserved3           00000001800b2fb8     uuid:cguid_i.obj
 0002:00007fc8       CLSID_StdMarshal           00000001800b2fc8     uuid:cguid_i.obj
 0002:00007fd8       IID_IStub                  00000001800b2fd8     uuid:cguid_i.obj
 0002:00007fe8       IID_IProxy                 00000001800b2fe8     uuid:cguid_i.obj
 0002:00007ff8       IID_IEnumGeneric           00000001800b2ff8     uuid:cguid_i.obj
 0002:00008008       IID_IEnumHolder            00000001800b3008     uuid:cguid_i.obj
 0002:00008018       IID_IEnumCallback          00000001800b3018     uuid:cguid_i.obj
 0002:00008028       IID_IOleManager            00000001800b3028     uuid:cguid_i.obj
 0002:00008038       IID_IOlePresObj            00000001800b3038     uuid:cguid_i.obj
 0002:00008048       IID_IDebug                 00000001800b3048     uuid:cguid_i.obj
 0002:00008058       IID_IDebugStream           00000001800b3058     uuid:cguid_i.obj
 0002:00008068       CLSID_PSGenObject          00000001800b3068     uuid:cguid_i.obj
 0002:00008078       CLSID_PSClientSite         00000001800b3078     uuid:cguid_i.obj
 0002:00008088       CLSID_PSClassObject        00000001800b3088     uuid:cguid_i.obj
 0002:00008098       CLSID_PSInPlaceActive      00000001800b3098     uuid:cguid_i.obj
 0002:000080a8       CLSID_PSInPlaceFrame       00000001800b30a8     uuid:cguid_i.obj
 0002:000080b8       CLSID_PSDragDrop           00000001800b30b8     uuid:cguid_i.obj
 0002:000080c8       CLSID_PSBindCtx            00000001800b30c8     uuid:cguid_i.obj
 0002:000080d8       CLSID_PSEnumerators        00000001800b30d8     uuid:cguid_i.obj
 0002:000080e8       CLSID_StaticMetafile       00000001800b30e8     uuid:cguid_i.obj
 0002:000080f8       CLSID_StaticDib            00000001800b30f8     uuid:cguid_i.obj
 0002:00008108       CLSID_Picture_Metafile     00000001800b3108     uuid:cguid_i.obj
 0002:00008118       CLSID_Picture_EnhMetafile  00000001800b3118     uuid:cguid_i.obj
 0002:00008128       CLSID_Picture_Dib          00000001800b3128     uuid:cguid_i.obj
 0002:00008138       CLSID_DCOMAccessControl    00000001800b3138     uuid:cguid_i.obj
 0002:00008148       CLSID_StdGlobalInterfaceTable 00000001800b3148     uuid:cguid_i.obj
 0002:00008158       CLSID_ManualResetEvent     00000001800b3158     uuid:cguid_i.obj
 0002:00008168       CLSID_StdEvent             00000001800b3168     uuid:cguid_i.obj
 0002:00008178       CLSID_SynchronizeContainer 00000001800b3178     uuid:cguid_i.obj
 0002:00008188       CLSID_ComBinding           00000001800b3188     uuid:cguid_i.obj
 0002:00008198       CLSID_StdAsyncActManager   00000001800b3198     uuid:cguid_i.obj
 0002:000081a8       CLSID_InProcFreeMarshaler  00000001800b31a8     uuid:cguid_i.obj
 0002:000081b8       CLSID_RemoteUnknownPSFactory 00000001800b31b8     uuid:cguid_i.obj
 0002:000081c8       IID_IRichEditOle           00000001800b31c8     uuid:cguid_i.obj
 0002:000081d8       IID_IRichEditOleCallback   00000001800b31d8     uuid:cguid_i.obj
 0002:000081e8       CLSID_AllClasses           00000001800b31e8     uuid:cguid_i.obj
 0002:000081f8       CLSID_LocalMachineClasses  00000001800b31f8     uuid:cguid_i.obj
 0002:00008208       CLSID_CurrentUserClasses   00000001800b3208     uuid:cguid_i.obj
 0002:00008218       CLSID_AddrControl          00000001800b3218     uuid:cguid_i.obj
 0002:00008228       CLSID_GlobalOptions        00000001800b3228     uuid:cguid_i.obj
 0002:00008238       CLSID_SurrogateManager     00000001800b3238     uuid:cguid_i.obj
 0002:00008248       CLSID_ContextSwitcher      00000001800b3248     uuid:cguid_i.obj
 0002:00008258       CLSID_ActivationStore      00000001800b3258     uuid:cguid_i.obj
 0002:00008268       IID_IPropertyFrame         00000001800b3268     uuid:cguid_i.obj
 0002:00008278       CLSID_CFontPropPage        00000001800b3278     uuid:cguid_i.obj
 0002:00008288       CLSID_CColorPropPage       00000001800b3288     uuid:cguid_i.obj
 0002:00008298       CLSID_CPicturePropPage     00000001800b3298     uuid:cguid_i.obj
 0002:000082a8       CLSID_StockFontPage        00000001800b32a8     uuid:cguid_i.obj
 0002:000082b8       CLSID_StockColorPage       00000001800b32b8     uuid:cguid_i.obj
 0002:000082c8       CLSID_StockPicturePage     00000001800b32c8     uuid:cguid_i.obj
 0002:000082d8       CLSID_PersistPropset       00000001800b32d8     uuid:cguid_i.obj
 0002:000082e8       CLSID_ConvertVBX           00000001800b32e8     uuid:cguid_i.obj
 0002:000082f8       CLSID_StdFont              00000001800b32f8     uuid:cguid_i.obj
 0002:00008308       CLSID_StdPicture           00000001800b3308     uuid:cguid_i.obj
 0002:00008318       GUID_HIMETRIC              00000001800b3318     uuid:cguid_i.obj
 0002:00008328       GUID_COLOR                 00000001800b3328     uuid:cguid_i.obj
 0002:00008338       GUID_XPOSPIXEL             00000001800b3338     uuid:cguid_i.obj
 0002:00008348       GUID_YPOSPIXEL             00000001800b3348     uuid:cguid_i.obj
 0002:00008358       GUID_XSIZEPIXEL            00000001800b3358     uuid:cguid_i.obj
 0002:00008368       GUID_YSIZEPIXEL            00000001800b3368     uuid:cguid_i.obj
 0002:00008378       GUID_XPOS                  00000001800b3378     uuid:cguid_i.obj
 0002:00008388       GUID_YPOS                  00000001800b3388     uuid:cguid_i.obj
 0002:00008398       GUID_XSIZE                 00000001800b3398     uuid:cguid_i.obj
 0002:000083a8       GUID_YSIZE                 00000001800b33a8     uuid:cguid_i.obj
 0002:000083b8       GUID_TRISTATE              00000001800b33b8     uuid:cguid_i.obj
 0002:000083c8       GUID_OPTIONVALUEEXCLUSIVE  00000001800b33c8     uuid:cguid_i.obj
 0002:000083d8       GUID_CHECKVALUEEXCLUSIVE   00000001800b33d8     uuid:cguid_i.obj
 0002:000083e8       GUID_FONTNAME              00000001800b33e8     uuid:cguid_i.obj
 0002:000083f8       GUID_FONTSIZE              00000001800b33f8     uuid:cguid_i.obj
 0002:00008408       GUID_FONTBOLD              00000001800b3408     uuid:cguid_i.obj
 0002:00008418       GUID_FONTITALIC            00000001800b3418     uuid:cguid_i.obj
 0002:00008428       GUID_FONTUNDERSCORE        00000001800b3428     uuid:cguid_i.obj
 0002:00008438       GUID_FONTSTRIKETHROUGH     00000001800b3438     uuid:cguid_i.obj
 0002:00008448       GUID_HANDLE                00000001800b3448     uuid:cguid_i.obj
 0002:00008458       IID_StdOle                 00000001800b3458     uuid:cguid_i.obj
 0002:00008468       IID_ICursor                00000001800b3468     uuid:cguid_i.obj
 0002:00008478       IID_ICursorMove            00000001800b3478     uuid:cguid_i.obj
 0002:00008488       IID_ICursorScroll          00000001800b3488     uuid:cguid_i.obj
 0002:00008498       IID_ICursorUpdateARow      00000001800b3498     uuid:cguid_i.obj
 0002:000084a8       IID_INotifyDBEvents        00000001800b34a8     uuid:cguid_i.obj
 0002:000084b8       IID_ICursorFind            00000001800b34b8     uuid:cguid_i.obj
 0002:000084c8       IID_IEntryID               00000001800b34c8     uuid:cguid_i.obj
 0002:000084d8       _GUID_NAMEONLY             00000001800b34d8     uuid:cguid_i.obj
 0002:000084e8       _DBBMKGUID                 00000001800b34e8     uuid:cguid_i.obj
 0002:000084f8       _DBCIDGUID                 00000001800b34f8     uuid:cguid_i.obj
 0002:00008508       IID_IBoundObject           00000001800b3508     uuid:cguid_i.obj
 0002:00008518       IID_IBoundObjectSite       00000001800b3518     uuid:cguid_i.obj
 0002:00008528       CLSID_GblComponentCategoriesMgr 00000001800b3528     uuid:cguid_i.obj
 0002:00008538       CLSID_ThumbnailFCNHandler  00000001800b3538     uuid:cguid_i.obj
 0002:00008548       CLSID_ThumbnailUpdater     00000001800b3548     uuid:cguid_i.obj
 0002:00008558       IID_ICallbackWithNoReentrancyToApplicationSTA 00000001800b3558     uuid:cguid_i.obj
 0002:00008568       CLSID_TypeLibRegistrationReader 00000001800b3568     uuid:cguid_i.obj
 0002:00008578       GUID_DEVCLASS_1394         00000001800b3578     uuid:cguid_i.obj
 0002:00008588       GUID_DEVCLASS_1394DEBUG    00000001800b3588     uuid:cguid_i.obj
 0002:00008598       GUID_DEVCLASS_61883        00000001800b3598     uuid:cguid_i.obj
 0002:000085a8       GUID_DEVCLASS_ADAPTER      00000001800b35a8     uuid:cguid_i.obj
 0002:000085b8       GUID_DEVCLASS_APMSUPPORT   00000001800b35b8     uuid:cguid_i.obj
 0002:000085c8       GUID_DEVCLASS_AVC          00000001800b35c8     uuid:cguid_i.obj
 0002:000085d8       GUID_DEVCLASS_BATTERY      00000001800b35d8     uuid:cguid_i.obj
 0002:000085e8       GUID_DEVCLASS_BIOMETRIC    00000001800b35e8     uuid:cguid_i.obj
 0002:000085f8       GUID_DEVCLASS_BLUETOOTH    00000001800b35f8     uuid:cguid_i.obj
 0002:00008608       GUID_DEVCLASS_CAMERA       00000001800b3608     uuid:cguid_i.obj
 0002:00008618       GUID_DEVCLASS_CDROM        00000001800b3618     uuid:cguid_i.obj
 0002:00008628       GUID_DEVCLASS_COMPUTEACCELERATOR 00000001800b3628     uuid:cguid_i.obj
 0002:00008638       GUID_DEVCLASS_COMPUTER     00000001800b3638     uuid:cguid_i.obj
 0002:00008648       GUID_DEVCLASS_DECODER      00000001800b3648     uuid:cguid_i.obj
 0002:00008658       GUID_DEVCLASS_DISKDRIVE    00000001800b3658     uuid:cguid_i.obj
 0002:00008668       GUID_DEVCLASS_DISPLAY      00000001800b3668     uuid:cguid_i.obj
 0002:00008678       GUID_DEVCLASS_DOT4         00000001800b3678     uuid:cguid_i.obj
 0002:00008688       GUID_DEVCLASS_DOT4PRINT    00000001800b3688     uuid:cguid_i.obj
 0002:00008698       GUID_DEVCLASS_EHSTORAGESILO 00000001800b3698     uuid:cguid_i.obj
 0002:000086a8       GUID_DEVCLASS_ENUM1394     00000001800b36a8     uuid:cguid_i.obj
 0002:000086b8       GUID_DEVCLASS_EXTENSION    00000001800b36b8     uuid:cguid_i.obj
 0002:000086c8       GUID_DEVCLASS_FDC          00000001800b36c8     uuid:cguid_i.obj
 0002:000086d8       GUID_DEVCLASS_FIRMWARE     00000001800b36d8     uuid:cguid_i.obj
 0002:000086e8       GUID_DEVCLASS_FLOPPYDISK   00000001800b36e8     uuid:cguid_i.obj
 0002:000086f8       GUID_DEVCLASS_GPS          00000001800b36f8     uuid:cguid_i.obj
 0002:00008708       GUID_DEVCLASS_HDC          00000001800b3708     uuid:cguid_i.obj
 0002:00008718       GUID_DEVCLASS_HIDCLASS     00000001800b3718     uuid:cguid_i.obj
 0002:00008728       GUID_DEVCLASS_HOLOGRAPHIC  00000001800b3728     uuid:cguid_i.obj
 0002:00008738       GUID_DEVCLASS_IMAGE        00000001800b3738     uuid:cguid_i.obj
 0002:00008748       GUID_DEVCLASS_INFINIBAND   00000001800b3748     uuid:cguid_i.obj
 0002:00008758       GUID_DEVCLASS_INFRARED     00000001800b3758     uuid:cguid_i.obj
 0002:00008768       GUID_DEVCLASS_KEYBOARD     00000001800b3768     uuid:cguid_i.obj
 0002:00008778       GUID_DEVCLASS_LEGACYDRIVER 00000001800b3778     uuid:cguid_i.obj
 0002:00008788       GUID_DEVCLASS_MEDIA        00000001800b3788     uuid:cguid_i.obj
 0002:00008798       GUID_DEVCLASS_MEDIUM_CHANGER 00000001800b3798     uuid:cguid_i.obj
 0002:000087a8       GUID_DEVCLASS_MEMORY       00000001800b37a8     uuid:cguid_i.obj
 0002:000087b8       GUID_DEVCLASS_MODEM        00000001800b37b8     uuid:cguid_i.obj
 0002:000087c8       GUID_DEVCLASS_MONITOR      00000001800b37c8     uuid:cguid_i.obj
 0002:000087d8       GUID_DEVCLASS_MOUSE        00000001800b37d8     uuid:cguid_i.obj
 0002:000087e8       GUID_DEVCLASS_MTD          00000001800b37e8     uuid:cguid_i.obj
 0002:000087f8       GUID_DEVCLASS_MULTIFUNCTION 00000001800b37f8     uuid:cguid_i.obj
 0002:00008808       GUID_DEVCLASS_MULTIPORTSERIAL 00000001800b3808     uuid:cguid_i.obj
 0002:00008818       GUID_DEVCLASS_NET          00000001800b3818     uuid:cguid_i.obj
 0002:00008828       GUID_DEVCLASS_NETCLIENT    00000001800b3828     uuid:cguid_i.obj
 0002:00008838       GUID_DEVCLASS_NETDRIVER    00000001800b3838     uuid:cguid_i.obj
 0002:00008848       GUID_DEVCLASS_NETSERVICE   00000001800b3848     uuid:cguid_i.obj
 0002:00008858       GUID_DEVCLASS_NETTRANS     00000001800b3858     uuid:cguid_i.obj
 0002:00008868       GUID_DEVCLASS_NODRIVER     00000001800b3868     uuid:cguid_i.obj
 0002:00008878       GUID_DEVCLASS_PCMCIA       00000001800b3878     uuid:cguid_i.obj
 0002:00008888       GUID_DEVCLASS_PNPPRINTERS  00000001800b3888     uuid:cguid_i.obj
 0002:00008898       GUID_DEVCLASS_PORTS        00000001800b3898     uuid:cguid_i.obj
 0002:000088a8       GUID_DEVCLASS_PRINTER      00000001800b38a8     uuid:cguid_i.obj
 0002:000088b8       GUID_DEVCLASS_PRINTERUPGRADE 00000001800b38b8     uuid:cguid_i.obj
 0002:000088c8       GUID_DEVCLASS_PRINTQUEUE   00000001800b38c8     uuid:cguid_i.obj
 0002:000088d8       GUID_DEVCLASS_PROCESSOR    00000001800b38d8     uuid:cguid_i.obj
 0002:000088e8       GUID_DEVCLASS_SBP2         00000001800b38e8     uuid:cguid_i.obj
 0002:000088f8       GUID_DEVCLASS_SCMDISK      00000001800b38f8     uuid:cguid_i.obj
 0002:00008908       GUID_DEVCLASS_SCMVOLUME    00000001800b3908     uuid:cguid_i.obj
 0002:00008918       GUID_DEVCLASS_SCSIADAPTER  00000001800b3918     uuid:cguid_i.obj
 0002:00008928       GUID_DEVCLASS_SECURITYACCELERATOR 00000001800b3928     uuid:cguid_i.obj
 0002:00008938       GUID_DEVCLASS_SENSOR       00000001800b3938     uuid:cguid_i.obj
 0002:00008948       GUID_DEVCLASS_SIDESHOW     00000001800b3948     uuid:cguid_i.obj
 0002:00008958       GUID_DEVCLASS_SMARTCARDREADER 00000001800b3958     uuid:cguid_i.obj
 0002:00008968       GUID_DEVCLASS_SMRDISK      00000001800b3968     uuid:cguid_i.obj
 0002:00008978       GUID_DEVCLASS_SMRVOLUME    00000001800b3978     uuid:cguid_i.obj
 0002:00008988       GUID_DEVCLASS_SOFTWARECOMPONENT 00000001800b3988     uuid:cguid_i.obj
 0002:00008998       GUID_DEVCLASS_SOUND        00000001800b3998     uuid:cguid_i.obj
 0002:000089a8       GUID_DEVCLASS_SYSTEM       00000001800b39a8     uuid:cguid_i.obj
 0002:000089b8       GUID_DEVCLASS_TAPEDRIVE    00000001800b39b8     uuid:cguid_i.obj
 0002:000089c8       GUID_DEVCLASS_UNKNOWN      00000001800b39c8     uuid:cguid_i.obj
 0002:000089d8       GUID_DEVCLASS_UCM          00000001800b39d8     uuid:cguid_i.obj
 0002:000089e8       GUID_DEVCLASS_USB          00000001800b39e8     uuid:cguid_i.obj
 0002:000089f8       GUID_DEVCLASS_VOLUME       00000001800b39f8     uuid:cguid_i.obj
 0002:00008a08       GUID_DEVCLASS_VOLUMESNAPSHOT 00000001800b3a08     uuid:cguid_i.obj
 0002:00008a18       GUID_DEVCLASS_WCEUSBS      00000001800b3a18     uuid:cguid_i.obj
 0002:00008a28       GUID_DEVCLASS_WPD          00000001800b3a28     uuid:cguid_i.obj
 0002:00008a38       GUID_DEVCLASS_FSFILTER_TOP 00000001800b3a38     uuid:cguid_i.obj
 0002:00008a48       GUID_DEVCLASS_FSFILTER_ACTIVITYMONITOR 00000001800b3a48     uuid:cguid_i.obj
 0002:00008a58       GUID_DEVCLASS_FSFILTER_UNDELETE 00000001800b3a58     uuid:cguid_i.obj
 0002:00008a68       GUID_DEVCLASS_FSFILTER_ANTIVIRUS 00000001800b3a68     uuid:cguid_i.obj
 0002:00008a78       GUID_DEVCLASS_FSFILTER_REPLICATION 00000001800b3a78     uuid:cguid_i.obj
 0002:00008a88       GUID_DEVCLASS_FSFILTER_CONTINUOUSBACKUP 00000001800b3a88     uuid:cguid_i.obj
 0002:00008a98       GUID_DEVCLASS_FSFILTER_CONTENTSCREENER 00000001800b3a98     uuid:cguid_i.obj
 0002:00008aa8       GUID_DEVCLASS_FSFILTER_QUOTAMANAGEMENT 00000001800b3aa8     uuid:cguid_i.obj
 0002:00008ab8       GUID_DEVCLASS_FSFILTER_SYSTEMRECOVERY 00000001800b3ab8     uuid:cguid_i.obj
 0002:00008ac8       GUID_DEVCLASS_FSFILTER_CFSMETADATASERVER 00000001800b3ac8     uuid:cguid_i.obj
 0002:00008ad8       GUID_DEVCLASS_FSFILTER_HSM 00000001800b3ad8     uuid:cguid_i.obj
 0002:00008ae8       GUID_DEVCLASS_FSFILTER_COMPRESSION 00000001800b3ae8     uuid:cguid_i.obj
 0002:00008af8       GUID_DEVCLASS_FSFILTER_ENCRYPTION 00000001800b3af8     uuid:cguid_i.obj
 0002:00008b08       GUID_DEVCLASS_FSFILTER_VIRTUALIZATION 00000001800b3b08     uuid:cguid_i.obj
 0002:00008b18       GUID_DEVCLASS_FSFILTER_PHYSICALQUOTAMANAGEMENT 00000001800b3b18     uuid:cguid_i.obj
 0002:00008b28       GUID_DEVCLASS_FSFILTER_OPENFILEBACKUP 00000001800b3b28     uuid:cguid_i.obj
 0002:00008b38       GUID_DEVCLASS_FSFILTER_SECURITYENHANCER 00000001800b3b38     uuid:cguid_i.obj
 0002:00008b48       GUID_DEVCLASS_FSFILTER_COPYPROTECTION 00000001800b3b48     uuid:cguid_i.obj
 0002:00008b58       GUID_DEVCLASS_FSFILTER_BOTTOM 00000001800b3b58     uuid:cguid_i.obj
 0002:00008b68       GUID_DEVCLASS_FSFILTER_SYSTEM 00000001800b3b68     uuid:cguid_i.obj
 0002:00008b78       GUID_DEVCLASS_FSFILTER_INFRASTRUCTURE 00000001800b3b78     uuid:cguid_i.obj
 0002:00008b88       GUID_DEVINTERFACE_DISK     00000001800b3b88     uuid:cguid_i.obj
 0002:00008b98       GUID_DEVINTERFACE_CDROM    00000001800b3b98     uuid:cguid_i.obj
 0002:00008ba8       GUID_DEVINTERFACE_PARTITION 00000001800b3ba8     uuid:cguid_i.obj
 0002:00008bb8       GUID_DEVINTERFACE_TAPE     00000001800b3bb8     uuid:cguid_i.obj
 0002:00008bc8       GUID_DEVINTERFACE_WRITEONCEDISK 00000001800b3bc8     uuid:cguid_i.obj
 0002:00008bd8       GUID_DEVINTERFACE_VOLUME   00000001800b3bd8     uuid:cguid_i.obj
 0002:00008be8       GUID_DEVINTERFACE_MEDIUMCHANGER 00000001800b3be8     uuid:cguid_i.obj
 0002:00008bf8       GUID_DEVINTERFACE_FLOPPY   00000001800b3bf8     uuid:cguid_i.obj
 0002:00008c08       GUID_DEVINTERFACE_CDCHANGER 00000001800b3c08     uuid:cguid_i.obj
 0002:00008c18       GUID_DEVINTERFACE_STORAGEPORT 00000001800b3c18     uuid:cguid_i.obj
 0002:00008c28       GUID_DEVINTERFACE_VMLUN    00000001800b3c28     uuid:cguid_i.obj
 0002:00008c38       GUID_DEVINTERFACE_SES      00000001800b3c38     uuid:cguid_i.obj
 0002:00008c48       GUID_DEVINTERFACE_SERVICE_VOLUME 00000001800b3c48     uuid:cguid_i.obj
 0002:00008c58       GUID_DEVINTERFACE_HIDDEN_VOLUME 00000001800b3c58     uuid:cguid_i.obj
 0002:00008c68       GUID_DEVINTERFACE_UNIFIED_ACCESS_RPMB 00000001800b3c68     uuid:cguid_i.obj
 0002:00008c78       GUID_DEVINTERFACE_SCM_PHYSICAL_DEVICE 00000001800b3c78     uuid:cguid_i.obj
