 OPOSGestureControl

 Timestamp is 600f7b62 (Tue Jan 26 11:16:02 2021)

 Preferred load address is 0000000180000000

 Start         Length     Name                   Class
 0001:00000000 00001400H .text$di                CODE
 0001:00001400 000d5920H .text$mn                CODE
 0001:000d6d20 00000040H .text$mn$00             CODE
 0001:000d6d60 00001390H .text$x                 CODE
 0001:000d80f0 000001b4H .text$yd                CODE
 0002:00000000 000006d8H .idata$5                DATA
 0002:000006d8 00000028H .00cfg                  DATA
 0002:00000700 00000008H .CRT$XCA                DATA
 0002:00000708 00000008H .CRT$XCL                DATA
 0002:00000710 000000d8H .CRT$XCU                DATA
 0002:000007e8 00000008H .CRT$XCZ                DATA
 0002:000007f0 00000008H .CRT$XIA                DATA
 0002:000007f8 00000028H .CRT$XIC                DATA
 0002:00000820 00000008H .CRT$XIZ                DATA
 0002:00000828 00000008H .CRT$XLA                DATA
 0002:00000830 00000008H .CRT$XLZ                DATA
 0002:00000838 00000008H .CRT$XPA                DATA
 0002:00000840 00000010H .CRT$XPX                DATA
 0002:00000850 00000008H .CRT$XPXA               DATA
 0002:00000858 00000008H .CRT$XPZ                DATA
 0002:00000860 00000008H .CRT$XTA                DATA
 0002:00000868 00000008H .CRT$XTZ                DATA
 0002:00000870 00000000H .gehcont$y              DATA
 0002:00000870 00000000H .gfids$y                DATA
 0002:00000870 0003c010H .rdata                  DATA
 0002:0003c880 00000008H .rdata$CastGuardVftablesA DATA
 0002:0003c888 00000008H .rdata$CastGuardVftablesC DATA
 0002:0003c890 00000028H .rdata$T                DATA
 0002:0003c8b8 0000056cH .rdata$r                DATA
 0002:0003ce24 0000047cH .rdata$zzzdbg           DATA
 0002:0003d2a0 00000008H .rtc$IAA                DATA
 0002:0003d2a8 00000030H .rtc$IMZ                DATA
 0002:0003d2d8 00000008H .rtc$IZZ                DATA
 0002:0003d2e0 00000008H .rtc$TAA                DATA
 0002:0003d2e8 00000030H .rtc$TMZ                DATA
 0002:0003d318 00000008H .rtc$TZZ                DATA
 0002:0003d320 00000004H .tls                    DATA
 0002:0003d324 00000004H .tls$                   DATA
 0002:0003d328 00000008H .tls$ZZZ                DATA
 0002:0003d330 00009848H .xdata                  DATA
 0002:00046b78 00000150H .xdata$x                DATA
 0002:00046cc8 00000008H ATL$__a                 DATA
 0002:00046cd0 00000010H ATL$__z                 DATA
 0002:00046ce0 000000b0H .edata                  DATA
 0002:00046d90 00000078H .idata$2                DATA
 0002:00046e08 00000018H .idata$3                DATA
 0002:00046e20 000006d8H .idata$4                DATA
 0002:000474f8 00000dbeH .idata$6                DATA
 0003:00000000 00000ec8H .data                   DATA
 0003:00000ec8 00000198H .data$r                 DATA
 0003:00001060 00003e9cH .bss                    DATA
 0004:00000000 0000c1f8H .pdata                  DATA
 0005:00000000 00000094H _RDATA                  DATA
 0006:00000000 00000220H .rsrc$01                DATA
 0006:00000220 000040b0H .rsrc$02                DATA

  Address         Publics by Value              Rva+Base               Lib:Object

 0000:00000000       __guard_fids_count         0000000000000000     <absolute>
 0000:00000000       __x64_code_ranges_to_entry_points 0000000000000000     <absolute>
 0000:00000000       __x64_code_ranges_to_entry_points_count 0000000000000000     <absolute>
 0000:00000000       ___safe_se_handler_count   0000000000000000     <absolute>
 0000:00000000       __arm64x_native_entrypoint 0000000000000000     <absolute>
 0000:00000000       __hybrid_code_map          0000000000000000     <absolute>
 0000:00000000       __arm64x_redirection_metadata 0000000000000000     <absolute>
 0000:00000000       __arm64x_extra_rfe_table   0000000000000000     <absolute>
 0000:00000000       __arm64x_extra_rfe_table_size 0000000000000000     <absolute>
 0000:00000000       __AbsoluteZero             0000000000000000     <absolute>
 0000:00000000       __guard_longjmp_count      0000000000000000     <absolute>
 0000:00000000       __guard_iat_table          0000000000000000     <absolute>
 0000:00000000       __guard_longjmp_table      0000000000000000     <absolute>
 0000:00000000       __hybrid_auxiliary_iat     0000000000000000     <absolute>
 0000:00000000       __enclave_config           0000000000000000     <absolute>
 0000:00000000       __hybrid_code_map_count    0000000000000000     <absolute>
 0000:00000000       __volatile_metadata        0000000000000000     <absolute>
 0000:00000000       ___safe_se_handler_table   0000000000000000     <absolute>
 0000:00000000       __guard_eh_cont_table      0000000000000000     <absolute>
 0000:00000000       __guard_eh_cont_count      0000000000000000     <absolute>
 0000:00000000       __dynamic_value_reloc_table 0000000000000000     <absolute>
 0000:00000000       __arm64x_redirection_metadata_count 0000000000000000     <absolute>
 0000:00000000       __guard_fids_table         0000000000000000     <absolute>
 0000:00000000       __guard_iat_count          0000000000000000     <absolute>
 0000:00000100       __guard_flags              0000000000000100     <absolute>
 0000:00000000       __ImageBase                0000000180000000     <linker-defined>
 0001:00001400       ?_assert@@YAXPEB_W0I@Z     0000000180002400 f   Assert.obj
 0001:00001500       __local_stdio_printf_options 0000000180002500 f i Assert.obj
 0001:00001510       __vswprintf_l              0000000180002510 f i Assert.obj
 0001:00001570       _swprintf                  0000000180002570 f i Assert.obj
 0001:000015f0       _vswprintf_c_l             00000001800025f0 f i Assert.obj
 0001:00001680       _vswprintf_l               0000000180002680 f i Assert.obj
 0001:000016e0       ?cw_memcpy@@YAHPEADPEB_WH@Z 00000001800026e0 f   CWString.obj
 0001:00001770       ?cw_memcpy@@YAHPEA_WPEBDH@Z 0000000180002770 f   CWString.obj
 0001:000017f0       ?cw_memcpy@@YAHPEADPEBDH@Z 00000001800027f0 f   CWString.obj
 0001:00001890       ?cw_memcpy@@YAHPEA_WPEB_WH@Z 0000000180002890 f   CWString.obj
 0001:00001900       ?cw_memset@@YAXPEADDH@Z    0000000180002900 f   CWString.obj
 0001:00001970       ?cw_memset@@YAXPEA_W_WH@Z  0000000180002970 f   CWString.obj
 0001:00001a10       ?cw_strlen@@YAHPEBD@Z      0000000180002a10 f   CWString.obj
 0001:00001a80       ?cw_strlen@@YAHPEB_W@Z     0000000180002a80 f   CWString.obj
 0001:00001af0       ?cw_strcpy@@YAHPEADPEB_W@Z 0000000180002af0 f   CWString.obj
 0001:00001b40       ?cw_strcpy@@YAHPEA_WPEBD@Z 0000000180002b40 f   CWString.obj
 0001:00001b90       ?cw_strcpy@@YAHPEADPEBD@Z  0000000180002b90 f   CWString.obj
 0001:00001be0       ?cw_strcpy@@YAHPEA_WPEB_W@Z 0000000180002be0 f   CWString.obj
 0001:00001c30       ?cw_strcat@@YAHPEADPEB_W@Z 0000000180002c30 f   CWString.obj
 0001:00001c90       ?cw_strcat@@YAHPEA_WPEBD@Z 0000000180002c90 f   CWString.obj
 0001:00001cf0       ?cw_strcat@@YAHPEADPEBD@Z  0000000180002cf0 f   CWString.obj
 0001:00001d50       ?cw_strcat@@YAHPEA_WPEB_W@Z 0000000180002d50 f   CWString.obj
 0001:00001db0       ?cw_dup@@YAXPEBDAEAHAEAPEA_W1@Z 0000000180002db0 f   CWString.obj
 0001:00001ec0       ?cw_dup@@YAXPEB_WAEAHAEAPEAD1@Z 0000000180002ec0 f   CWString.obj
 0001:00001fb0       ?DupChar@_CW@@AEAAXXZ      0000000180002fb0 f   CWString.obj
 0001:00002010       ?DupWide@_CW@@AEAAXXZ      0000000180003010 f   CWString.obj
 0001:00002080       ?GetCharsMbcs@_CW@@QEAAHXZ 0000000180003080 f   CWString.obj
 0001:000020f0       ?GetCharsWide@_CW@@QEAAHXZ 00000001800030f0 f   CWString.obj
 0001:00002160       ?SetVARIANT_BOOL@OposVariant@@QEAAXF@Z 0000000180003160 f   OposVariant.obj
 0001:000021d0       ?SetVARIANT_BOOL_Ptr@OposVariant@@QEAAXPEAFAEAJ@Z 00000001800031d0 f   OposVariant.obj
 0001:00002240       ?GetLONG@OposVariant@@QEAAJXZ 0000000180003240 f   OposVariant.obj
 0001:000022a0       ?ChangeLONG@OposVariant@@QEAAXPEAJAEAJ@Z 00000001800032a0 f   OposVariant.obj
 0001:00002350       ?SetLONG@OposVariant@@QEAAXJ@Z 0000000180003350 f   OposVariant.obj
 0001:000023b0       ?SetLONG_Ptr@OposVariant@@QEAAXPEAJAEAJ@Z 00000001800033b0 f   OposVariant.obj
 0001:00002420       ?ChangeCURRENCY@OposVariant@@QEAAXPEATtagCY@@AEAJ@Z 0000000180003420 f   OposVariant.obj
 0001:000024d0       ?SetCURRENCY@OposVariant@@QEAAXTtagCY@@@Z 00000001800034d0 f   OposVariant.obj
 0001:00002530       ?SetCURRENCY_Ptr@OposVariant@@QEAAXPEATtagCY@@AEAJ@Z 0000000180003530 f   OposVariant.obj
 0001:000025a0       ?ChangeBSTR@OposVariant@@QEAAXPEAPEA_WAEAJ@Z 00000001800035a0 f   OposVariant.obj
 0001:00002650       ?SetBSTR@OposVariant@@QEAAXPEA_WAEAJ@Z 0000000180003650 f   OposVariant.obj
 0001:000026d0       ?SetBSTR_Copy@OposVariant@@QEAAXPEA_WAEAJ@Z 00000001800036d0 f   OposVariant.obj
 0001:00002780       ?SetBSTR_OutPtr@OposVariant@@QEAA_NPEAPEA_WAEAJ@Z 0000000180003780 f   OposVariant.obj
 0001:000027f0       ?SetBSTR_InOutPtr@OposVariant@@QEAA_NPEAPEA_WAEAJ@Z 00000001800037f0 f   OposVariant.obj
 0001:00002870       ?SetVARIANT@OposVariant@@QEAAXAEAUtagVARIANT@@GAEAJ@Z 0000000180003870 f   OposVariant.obj
 0001:00002910       ?SetVARIANT_Ptr@OposVariant@@QEAAXAEAPEAUtagVARIANT@@GAEAJ@Z 0000000180003910 f   OposVariant.obj
 0001:000029c0       ?SetString@OposVariant@@QEAAXPEB_WAEAJ@Z 00000001800039c0 f   OposVariant.obj
 0001:00002a70       ?SetDispatch_Ptr@OposVariant@@QEAAXPEAUIDispatch@@AEAJ@Z 0000000180003a70 f   OposVariant.obj
 0001:00002b00       ??0OposDispParms@@QEAA@PEAVOposVariant@@H@Z 0000000180003b00 f   OposVariant.obj
 0001:00002c10       ??1OposDispParms@@QEAA@XZ  0000000180003c10 f   OposVariant.obj
 0001:00002c60       ??$AtlMultiply@_K@ATL@@YAJPEA_K_K1@Z 0000000180003c60 f i OposVariant.obj
 0001:00002ce0       ??0?$CHeapPtr@_WVCCRTAllocator@ATL@@@ATL@@QEAA@XZ 0000000180003ce0 f i OposVariant.obj
 0001:00002d20       ??0?$CHeapPtrBase@_WVCCRTAllocator@ATL@@@ATL@@IEAA@XZ 0000000180003d20 f i OposVariant.obj
 0001:00002d40       ??0?$CSimpleArray@GV?$CSimpleArrayEqualHelper@G@ATL@@@ATL@@QEAA@XZ 0000000180003d40 f i OposVariant.obj
 0001:00002d80       ??0?$CTraceCategoryEx@$00$0A@@ATL@@QEAA@PEB_W@Z 0000000180003d80 f i OposVariant.obj
 0001:00002dc0       ??0?$CTraceCategoryEx@$01$0A@@ATL@@QEAA@PEB_W@Z 0000000180003dc0 f i OposVariant.obj
 0001:00002e00       ??0?$CTraceCategoryEx@$03$0A@@ATL@@QEAA@PEB_W@Z 0000000180003e00 f i OposVariant.obj
 0001:00002e40       ??0?$CTraceCategoryEx@$07$0A@@ATL@@QEAA@PEB_W@Z 0000000180003e40 f i OposVariant.obj
 0001:00002e80       ??0?$CTraceCategoryEx@$0BA@$0A@@ATL@@QEAA@PEB_W@Z 0000000180003e80 f i OposVariant.obj
 0001:00002ec0       ??0?$CTraceCategoryEx@$0BAA@$0A@@ATL@@QEAA@PEB_W@Z 0000000180003ec0 f i OposVariant.obj
 0001:00002f00       ??0?$CTraceCategoryEx@$0BAAA@$0A@@ATL@@QEAA@PEB_W@Z 0000000180003f00 f i OposVariant.obj
 0001:00002f40       ??0?$CTraceCategoryEx@$0BAAAA@$0A@@ATL@@QEAA@PEB_W@Z 0000000180003f40 f i OposVariant.obj
 0001:00002f80       ??0?$CTraceCategoryEx@$0BAAAAA@$0A@@ATL@@QEAA@PEB_W@Z 0000000180003f80 f i OposVariant.obj
 0001:00002fc0       ??0?$CTraceCategoryEx@$0CA@$0A@@ATL@@QEAA@PEB_W@Z 0000000180003fc0 f i OposVariant.obj
 0001:00003000       ??0?$CTraceCategoryEx@$0CAA@$0A@@ATL@@QEAA@PEB_W@Z 0000000180004000 f i OposVariant.obj
 0001:00003040       ??0?$CTraceCategoryEx@$0CAAA@$0A@@ATL@@QEAA@PEB_W@Z 0000000180004040 f i OposVariant.obj
 0001:00003080       ??0?$CTraceCategoryEx@$0CAAAA@$0A@@ATL@@QEAA@PEB_W@Z 0000000180004080 f i OposVariant.obj
 0001:000030c0       ??0?$CTraceCategoryEx@$0CAAAAA@$0A@@ATL@@QEAA@PEB_W@Z 00000001800040c0 f i OposVariant.obj
 0001:00003100       ??0?$CTraceCategoryEx@$0EA@$0A@@ATL@@QEAA@PEB_W@Z 0000000180004100 f i OposVariant.obj
 0001:00003140       ??0?$CTraceCategoryEx@$0EAA@$0A@@ATL@@QEAA@PEB_W@Z 0000000180004140 f i OposVariant.obj
 0001:00003180       ??0?$CTraceCategoryEx@$0EAAA@$0A@@ATL@@QEAA@PEB_W@Z 0000000180004180 f i OposVariant.obj
 0001:000031c0       ??0?$CTraceCategoryEx@$0EAAAA@$0A@@ATL@@QEAA@PEB_W@Z 00000001800041c0 f i OposVariant.obj
 0001:00003200       ??0?$CTraceCategoryEx@$0EAAAAA@$0A@@ATL@@QEAA@PEB_W@Z 0000000180004200 f i OposVariant.obj
 0001:00003240       ??0?$CTraceCategoryEx@$0IA@$0A@@ATL@@QEAA@PEB_W@Z 0000000180004240 f i OposVariant.obj
 0001:00003280       ??0?$CTraceCategoryEx@$0IAA@$0A@@ATL@@QEAA@PEB_W@Z 0000000180004280 f i OposVariant.obj
 0001:000032c0       ??0?$CTraceCategoryEx@$0IAAA@$0A@@ATL@@QEAA@PEB_W@Z 00000001800042c0 f i OposVariant.obj
 0001:00003300       ??0?$CTraceCategoryEx@$0IAAAA@$0A@@ATL@@QEAA@PEB_W@Z 0000000180004300 f i OposVariant.obj
 0001:00003340       ??0CAtlComModule@ATL@@QEAA@XZ 0000000180004340 f i OposVariant.obj
 0001:00003460       ??0CAtlWinModule@ATL@@QEAA@XZ 0000000180004460 f i OposVariant.obj
 0001:00003510       ??0CComCriticalSection@ATL@@QEAA@XZ 0000000180004510 f i OposVariant.obj
 0001:00003550       ??0CPreserveLastError@ATL@@QEAA@XZ 0000000180004550 f i OposVariant.obj
 0001:00003590       ??0CTraceFileAndLineInfo@ATL@@QEAA@PEBDH@Z 0000000180004590 f i OposVariant.obj
 0001:000035c0       ??0_ATL_COM_MODULE70@ATL@@QEAA@XZ 00000001800045c0 f i OposVariant.obj
 0001:00003600       ??0_ATL_WIN_MODULE70@ATL@@QEAA@XZ 0000000180004600 f i OposVariant.obj
 0001:00003650       ??1?$CHeapPtr@_WVCCRTAllocator@ATL@@@ATL@@QEAA@XZ 0000000180004650 f i OposVariant.obj
 0001:00003680       ??1?$CHeapPtrBase@_WVCCRTAllocator@ATL@@@ATL@@QEAA@XZ 0000000180004680 f i OposVariant.obj
 0001:000036b0       ??1?$CSimpleArray@GV?$CSimpleArrayEqualHelper@G@ATL@@@ATL@@QEAA@XZ 00000001800046b0 f i OposVariant.obj
 0001:000036e0       ??1CAtlComModule@ATL@@QEAA@XZ 00000001800046e0 f i OposVariant.obj
 0001:00003720       ??1CAtlWinModule@ATL@@QEAA@XZ 0000000180004720 f i OposVariant.obj
 0001:00003760       ??1CComBSTR@ATL@@QEAA@XZ   0000000180004760 f i OposVariant.obj
 0001:000037a0       ??1CComCriticalSection@ATL@@QEAA@XZ 00000001800047a0 f i OposVariant.obj
 0001:000037b0       ??1CPreserveLastError@ATL@@QEAA@XZ 00000001800047b0 f i OposVariant.obj
 0001:000037f0       ??1_ATL_COM_MODULE70@ATL@@QEAA@XZ 00000001800047f0 f i OposVariant.obj
 0001:00003830       ??1_ATL_WIN_MODULE70@ATL@@QEAA@XZ 0000000180004830 f i OposVariant.obj
 0001:00003880       ??1stringdispid@CComTypeInfoHolder@ATL@@QEAA@XZ 0000000180004880 f i OposVariant.obj
 0001:000038c0       ??A?$CSimpleArray@GV?$CSimpleArrayEqualHelper@G@ATL@@@ATL@@QEAAAEAGH@Z 00000001800048c0 f i OposVariant.obj
 0001:00003970       ??B?$CHeapPtrBase@_WVCCRTAllocator@ATL@@@ATL@@QEBAPEA_WXZ 0000000180004970 f i OposVariant.obj
 0001:00003980       ??B?$CTraceCategoryEx@$01$0A@@ATL@@QEAAIXZ 0000000180004980 f i OposVariant.obj
 0001:00003990       ??B?$CTraceCategoryEx@$0CA@$0A@@ATL@@QEAAIXZ 0000000180004990 f i OposVariant.obj
 0001:000039a0       ??RCTraceFileAndLineInfo@ATL@@QEBAXHIPEB_WZZ 00000001800049a0 f i OposVariant.obj
 0001:00003a50       ??_Estringdispid@CComTypeInfoHolder@ATL@@QEAAPEAXI@Z 0000000180004a50 f i OposVariant.obj
 0001:00003b00       ??_H@YAXPEAX_K1P6APEAX0@Z@Z 0000000180004b00 f i OposVariant.obj
 0001:00003b90       ??_I@YAXPEAX_K1P6AX0@Z@Z   0000000180004b90 f i OposVariant.obj
 0001:00003c40       ?Allocate@?$CHeapPtr@_WVCCRTAllocator@ATL@@@ATL@@QEAA_N_K@Z 0000000180004c40 f i OposVariant.obj
 0001:00003cc0       ?Allocate@CCRTAllocator@ATL@@SAPEAX_K@Z 0000000180004cc0 f i OposVariant.obj
 0001:00003cf0       ?AllocateBytes@?$CHeapPtrBase@_WVCCRTAllocator@ATL@@@ATL@@QEAA_N_K@Z 0000000180004cf0 f i OposVariant.obj
 0001:00003d90       ?AtlWinModuleInit@ATL@@YAJPEAU_ATL_WIN_MODULE70@1@@Z 0000000180004d90 f i OposVariant.obj
 0001:00003e90       ?AtlWinModuleTerm@ATL@@YAJPEAU_ATL_WIN_MODULE70@1@PEAUHINSTANCE__@@@Z 0000000180004e90 f i OposVariant.obj
 0001:00003f80       ?Clear@OposVariant@@QEAAJXZ 0000000180004f80 f i OposVariant.obj
 0001:00003fc0       ?Free@?$CHeapPtrBase@_WVCCRTAllocator@ATL@@@ATL@@QEAAXXZ 0000000180004fc0 f i OposVariant.obj
 0001:00004000       ?Free@CCRTAllocator@ATL@@SAXPEAX@Z 0000000180005000 f i OposVariant.obj
 0001:00004030       ?GetCategoryName@CTrace@ATL@@CAPEA_WI@Z 0000000180005030 f i OposVariant.obj
 0001:000040b0       ?GetModuleInstance@CAtlBaseModule@ATL@@QEAAPEAUHINSTANCE__@@XZ 00000001800050b0 f i OposVariant.obj
 0001:000040d0       ?GetSize@?$CSimpleArray@GV?$CSimpleArrayEqualHelper@G@ATL@@@ATL@@QEBAHXZ 00000001800050d0 f i OposVariant.obj
 0001:000040e0       ?Init@CComCriticalSection@ATL@@QEAAJXZ 00000001800050e0 f i OposVariant.obj
 0001:00004140       ?RegisterCategory@CTrace@ATL@@SAXPEB_WI@Z 0000000180005140 f i OposVariant.obj
 0001:00004220       ?RemoveAll@?$CSimpleArray@GV?$CSimpleArrayEqualHelper@G@ATL@@@ATL@@QEAAXXZ 0000000180005220 f i OposVariant.obj
 0001:000042b0       ?Term@CAtlComModule@ATL@@QEAAXXZ 00000001800052b0 f i OposVariant.obj
 0001:00004390       ?Term@CAtlWinModule@ATL@@QEAAXXZ 0000000180005390 f i OposVariant.obj
 0001:000043d0       ?Term@CComCriticalSection@ATL@@QEAAJXZ 00000001800053d0 f i OposVariant.obj
 0001:00004410       ?TraceV@CTrace@ATL@@CAXPEBDHIIPEB_W@Z 0000000180005410 f i OposVariant.obj
 0001:000046c0       ?TraceV@CTrace@ATL@@SAXPEBDHIIPEB_WPEAD@Z 00000001800056c0 f i OposVariant.obj
 0001:00004870       ?_AtlInitializeCriticalSectionEx@ATL@@YAHPEAU_RTL_CRITICAL_SECTION@@KK@Z 0000000180005870 f i OposVariant.obj
 0001:000048c0       ?_AtlRaiseException@ATL@@YAXKK@Z 00000001800058c0 f i OposVariant.obj
 0001:00004900       HRESULT_FROM_WIN32         0000000180005900 f i OposVariant.obj
 0001:00004950       _vswprintf_s_l             0000000180005950 f i OposVariant.obj
 0001:000049e0       swprintf_s                 00000001800059e0 f i OposVariant.obj
 0001:00004a70       ?ObjectMain@CComObjectRootBase@ATL@@SAX_N@Z 0000000180005a70 f i GestureControl.obj
 0001:00004a80       ?GetCategoryMap@CComObjectRootBase@ATL@@SAPEBU_ATL_CATMAP_ENTRY@2@XZ 0000000180005a80 f i GestureControl.obj
 0001:00004a90       ?GetObjectDescription@?$CComCoClass@VCOPOSGestureControl@@$1?CLSID_OPOSGestureControl@@3U_GUID@@B@ATL@@SAPEB_WXZ 0000000180005a90 f i GestureControl.obj
 0001:00004aa0       ?UpdateRegistry@COPOSGestureControl@@SAJH@Z 0000000180005aa0 f i GestureControl.obj
 0001:00004ae0       ?CreateInstance@?$CComCreator@V?$CComObjectCached@VCComClassFactory@ATL@@@ATL@@@ATL@@SAJPEAXAEBU_GUID@@PEAPEAX@Z 0000000180005ae0 f i GestureControl.obj
 0001:00004cd0       ?CreateInstance@?$CComCreator2@V?$CComCreator@V?$CComObject@VCOPOSGestureControl@@@ATL@@@ATL@@V?$CComCreator@V?$CComAggObject@VCOPOSGestureControl@@@ATL@@@2@@ATL@@SAJPEAXAEBU_GUID@@PEAPEAX@Z 0000000180005cd0 f i GestureControl.obj
 0001:00004ee0       DllGetClassObject          0000000180005ee0 f   GestureControl.obj
 0001:00004f30       DllCanUnloadNow            0000000180005f30 f   GestureControl.obj
 0001:00004f80       DllRegisterServer          0000000180005f80 f   GestureControl.obj
 0001:00004fc0       DllUnregisterServer        0000000180005fc0 f   GestureControl.obj
 0001:000051c0       DllMain                    00000001800061c0 f   GestureControl.obj
 0001:00005240       ??$?2G@Wrapper@?$CSimpleArray@GV?$CSimpleArrayEqualHelper@G@ATL@@@ATL@@SAPEAX_KPEAG@Z 0000000180006240 f i GestureControl.obj
 0001:00005260       ??$?2PEA_W@?$Wrapper@PEA_W@?$CSimpleMap@PEA_WPEA_WVCExpansionVectorEqualHelper@ATL@@@ATL@@SAPEAX_KPEAPEA_W@Z 0000000180006260 f i GestureControl.obj
 0001:00005280       ??$?4UITypeInfo2@@@?$CComPtr@UITypeInfo@@@ATL@@QEAAPEAUITypeInfo@@AEBV?$CComPtr@UITypeInfo2@@@1@@Z 0000000180006280 f i GestureControl.obj
 0001:000052f0       ??$AtlAdd@_K@ATL@@YAJPEA_K_K1@Z 00000001800062f0 f i GestureControl.obj
 0001:00005360       ??$AtlAddThrow@_K@ATL@@YA_K_K0@Z 0000000180006360 f i GestureControl.obj
 0001:000053d0       ??$AtlModuleRegisterWndClassInfoT@VAtlModuleRegisterWndClassInfoParamW@ATL@@@ATL@@YAGPEAU_ATL_BASE_MODULE70@0@PEAU_ATL_WIN_MODULE70@0@PEAU_ATL_WNDCLASSINFOW@0@PEAP6A_JPEAUHWND__@@I_K_J@ZVAtlModuleRegisterWndClassInfoParamW@0@@Z 00000001800063d0 f i GestureControl.obj
 0001:000059a0       ??$AtlMultiply@H@ATL@@YAJPEAHHH@Z 00000001800069a0 f i GestureControl.obj
 0001:00005a10       ??$AtlMultiply@K@ATL@@YAJPEAKKK@Z 0000000180006a10 f i GestureControl.obj
 0001:00005a80       ??$AtlMultiplyThrow@_K@ATL@@YA_K_K0@Z 0000000180006a80 f i GestureControl.obj
 0001:00005af0       ??$QueryInterface@UIPersistStream@@@IUnknown@@QEAAJPEAPEAUIPersistStream@@@Z 0000000180006af0 f i GestureControl.obj
 0001:00005b40       ??$QueryInterface@UITypeInfo2@@@IUnknown@@QEAAJPEAPEAUITypeInfo2@@@Z 0000000180006b40 f i GestureControl.obj
 0001:00005b90       ??0?$CAtlModuleT@VCComModule@ATL@@@ATL@@QEAA@XZ 0000000180006b90 f i GestureControl.obj
 0001:00005bd0       ??0?$CAtlSafeAllocBufferManager@VCCRTAllocator@ATL@@@_ATL_SAFE_ALLOCA_IMPL@ATL@@QEAA@XZ 0000000180006bd0 f i GestureControl.obj
 0001:00005bf0       ??0?$CAutoVectorPtr@_W@ATL@@QEAA@XZ 0000000180006bf0 f i GestureControl.obj
 0001:00005c10       ??0?$CComAggObject@VCOPOSGestureControl@@@ATL@@QEAA@PEAX@Z 0000000180006c10 f i GestureControl.obj
 0001:00005ca0       ??0?$CComContainedObject@VCOPOSGestureControl@@@ATL@@QEAA@PEAX@Z 0000000180006ca0 f i GestureControl.obj
 0001:00005e40       ??0?$CComCritSecLock@VCComCriticalSection@ATL@@@ATL@@QEAA@AEAVCComCriticalSection@1@_N@Z 0000000180006e40 f i GestureControl.obj
 0001:00005eb0       ??0?$CComEnum@UIEnumConnectionPoints@@$1?_GUID_b196b285_bab4_101a_b69c_00aa00341d07@@3U__s_GUID@@BPEAUIConnectionPoint@@V?$_CopyInterface@UIConnectionPoint@@@ATL@@VCComSingleThreadModel@6@@ATL@@QEAA@XZ 0000000180006eb0 f i GestureControl.obj
 0001:00005f00       ??0?$CComEnum@UIEnumConnections@@$1?_GUID_b196b287_bab4_101a_b69c_00aa00341d07@@3U__s_GUID@@BUtagCONNECTDATA@@V?$_Copy@UtagCONNECTDATA@@@ATL@@VCComSingleThreadModel@6@@ATL@@QEAA@XZ 0000000180006f00 f i GestureControl.obj
 0001:00005f50       ??0?$CComEnumImpl@UIEnumConnectionPoints@@$1?_GUID_b196b285_bab4_101a_b69c_00aa00341d07@@3U__s_GUID@@BPEAUIConnectionPoint@@V?$_CopyInterface@UIConnectionPoint@@@ATL@@@ATL@@QEAA@XZ 0000000180006f50 f i GestureControl.obj
 0001:00005fd0       ??0?$CComEnumImpl@UIEnumConnections@@$1?_GUID_b196b287_bab4_101a_b69c_00aa00341d07@@3U__s_GUID@@BUtagCONNECTDATA@@V?$_Copy@UtagCONNECTDATA@@@ATL@@@ATL@@QEAA@XZ 0000000180006fd0 f i GestureControl.obj
 0001:00006050       ??0?$CComObject@V?$CComEnum@UIEnumConnectionPoints@@$1?_GUID_b196b285_bab4_101a_b69c_00aa00341d07@@3U__s_GUID@@BPEAUIConnectionPoint@@V?$_CopyInterface@UIConnectionPoint@@@ATL@@VCComSingleThreadModel@6@@ATL@@@ATL@@QEAA@PEAX@Z 0000000180007050 f i GestureControl.obj
 0001:000060b0       ??0?$CComObject@V?$CComEnum@UIEnumConnections@@$1?_GUID_b196b287_bab4_101a_b69c_00aa00341d07@@3U__s_GUID@@BUtagCONNECTDATA@@V?$_Copy@UtagCONNECTDATA@@@ATL@@VCComSingleThreadModel@6@@ATL@@@ATL@@QEAA@PEAX@Z 00000001800070b0 f i GestureControl.obj
 0001:00006110       ??0?$CComObject@VCOPOSGestureControl@@@ATL@@QEAA@PEAX@Z 0000000180007110 f i GestureControl.obj
 0001:000062b0       ??0?$CComObjectCached@VCComClassFactory@ATL@@@ATL@@QEAA@PEAX@Z 00000001800072b0 f i GestureControl.obj
 0001:00006300       ??0?$CComObjectRootEx@VCComMultiThreadModel@ATL@@@ATL@@QEAA@XZ 0000000180007300 f i GestureControl.obj
 0001:00006350       ??0?$CComObjectRootEx@VCComSingleThreadModel@ATL@@@ATL@@QEAA@XZ 0000000180007350 f i GestureControl.obj
 0001:00006390       ??0?$CComPtr@UIAdviseSink@@@ATL@@QEAA@PEAUIAdviseSink@@@Z 0000000180007390 f i GestureControl.obj
 0001:000063d0       ??0?$CComPtr@UICatRegister@@@ATL@@QEAA@XZ 00000001800073d0 f i GestureControl.obj
 0001:00006410       ??0?$CComPtr@UIConnectionPoint@@@ATL@@QEAA@XZ 0000000180007410 f i GestureControl.obj
 0001:00006450       ??0?$CComPtr@UIConnectionPointContainer@@@ATL@@QEAA@XZ 0000000180007450 f i GestureControl.obj
 0001:00006490       ??0?$CComPtr@UIDataObject@@@ATL@@QEAA@XZ 0000000180007490 f i GestureControl.obj
 0001:000064d0       ??0?$CComPtr@UIDispatch@@@ATL@@QEAA@XZ 00000001800074d0 f i GestureControl.obj
 0001:00006510       ??0?$CComPtr@UIOleClientSite@@@ATL@@QEAA@PEAUIOleClientSite@@@Z 0000000180007510 f i GestureControl.obj
 0001:00006550       ??0?$CComPtr@UIOleControlSite@@@ATL@@QEAA@XZ 0000000180007550 f i GestureControl.obj
 0001:00006590       ??0?$CComPtr@UIOleInPlaceActiveObject@@@ATL@@QEAA@XZ 0000000180007590 f i GestureControl.obj
 0001:000065d0       ??0?$CComPtr@UIOleInPlaceFrame@@@ATL@@QEAA@XZ 00000001800075d0 f i GestureControl.obj
 0001:00006610       ??0?$CComPtr@UIOleInPlaceObject@@@ATL@@QEAA@XZ 0000000180007610 f i GestureControl.obj
 0001:00006650       ??0?$CComPtr@UIOleInPlaceUIWindow@@@ATL@@QEAA@XZ 0000000180007650 f i GestureControl.obj
 0001:00006690       ??0?$CComPtr@UIOleObject@@@ATL@@QEAA@XZ 0000000180007690 f i GestureControl.obj
 0001:000066d0       ??0?$CComPtr@UIPersistStream@@@ATL@@QEAA@XZ 00000001800076d0 f i GestureControl.obj
 0001:00006710       ??0?$CComPtr@UIPersistStreamInit@@@ATL@@QEAA@XZ 0000000180007710 f i GestureControl.obj
 0001:00006750       ??0?$CComPtr@UIPointerInactive@@@ATL@@QEAA@XZ 0000000180007750 f i GestureControl.obj
 0001:00006790       ??0?$CComPtr@UIProvideClassInfo2@@@ATL@@QEAA@XZ 0000000180007790 f i GestureControl.obj
 0001:000067d0       ??0?$CComPtr@UISpecifyPropertyPages@@@ATL@@QEAA@XZ 00000001800077d0 f i GestureControl.obj
 0001:00006810       ??0?$CComPtr@UIStream@@@ATL@@QEAA@XZ 0000000180007810 f i GestureControl.obj
 0001:00006850       ??0?$CComPtr@UITypeInfo2@@@ATL@@QEAA@XZ 0000000180007850 f i GestureControl.obj
 0001:00006890       ??0?$CComPtr@UITypeInfo@@@ATL@@QEAA@AEBV01@@Z 0000000180007890 f i GestureControl.obj
 0001:000068d0       ??0?$CComPtr@UITypeInfo@@@ATL@@QEAA@XZ 00000001800078d0 f i GestureControl.obj
 0001:00006910       ??0?$CComPtr@UITypeLib@@@ATL@@QEAA@XZ 0000000180007910 f i GestureControl.obj
 0001:00006950       ??0?$CComPtr@UIUnknown@@@ATL@@QEAA@AEBV01@@Z 0000000180007950 f i GestureControl.obj
 0001:00006990       ??0?$CComPtr@UIUnknown@@@ATL@@QEAA@PEAUIUnknown@@@Z 0000000180007990 f i GestureControl.obj
 0001:000069d0       ??0?$CComPtr@UIUnknown@@@ATL@@QEAA@XZ 00000001800079d0 f i GestureControl.obj
 0001:00006a10       ??0?$CComPtr@UIViewObjectEx@@@ATL@@QEAA@XZ 0000000180007a10 f i GestureControl.obj
 0001:00006a50       ??0?$CComPtrBase@UIAdviseSink@@@ATL@@IEAA@PEAUIAdviseSink@@@Z 0000000180007a50 f i GestureControl.obj
 0001:00006ab0       ??0?$CComPtrBase@UICatRegister@@@ATL@@IEAA@XZ 0000000180007ab0 f i GestureControl.obj
 0001:00006ad0       ??0?$CComPtrBase@UIConnectionPoint@@@ATL@@IEAA@XZ 0000000180007ad0 f i GestureControl.obj
 0001:00006af0       ??0?$CComPtrBase@UIConnectionPointContainer@@@ATL@@IEAA@XZ 0000000180007af0 f i GestureControl.obj
 0001:00006b10       ??0?$CComPtrBase@UIDataObject@@@ATL@@IEAA@XZ 0000000180007b10 f i GestureControl.obj
 0001:00006b30       ??0?$CComPtrBase@UIDispatch@@@ATL@@IEAA@XZ 0000000180007b30 f i GestureControl.obj
 0001:00006b50       ??0?$CComPtrBase@UIOleClientSite@@@ATL@@IEAA@PEAUIOleClientSite@@@Z 0000000180007b50 f i GestureControl.obj
 0001:00006bb0       ??0?$CComPtrBase@UIOleControlSite@@@ATL@@IEAA@XZ 0000000180007bb0 f i GestureControl.obj
 0001:00006bd0       ??0?$CComPtrBase@UIOleInPlaceActiveObject@@@ATL@@IEAA@XZ 0000000180007bd0 f i GestureControl.obj
 0001:00006bf0       ??0?$CComPtrBase@UIOleInPlaceFrame@@@ATL@@IEAA@XZ 0000000180007bf0 f i GestureControl.obj
 0001:00006c10       ??0?$CComPtrBase@UIOleInPlaceObject@@@ATL@@IEAA@XZ 0000000180007c10 f i GestureControl.obj
 0001:00006c30       ??0?$CComPtrBase@UIOleInPlaceUIWindow@@@ATL@@IEAA@XZ 0000000180007c30 f i GestureControl.obj
 0001:00006c50       ??0?$CComPtrBase@UIOleObject@@@ATL@@IEAA@XZ 0000000180007c50 f i GestureControl.obj
 0001:00006c70       ??0?$CComPtrBase@UIPersistStream@@@ATL@@IEAA@XZ 0000000180007c70 f i GestureControl.obj
 0001:00006c90       ??0?$CComPtrBase@UIPersistStreamInit@@@ATL@@IEAA@XZ 0000000180007c90 f i GestureControl.obj
 0001:00006cb0       ??0?$CComPtrBase@UIPointerInactive@@@ATL@@IEAA@XZ 0000000180007cb0 f i GestureControl.obj
 0001:00006cd0       ??0?$CComPtrBase@UIProvideClassInfo2@@@ATL@@IEAA@XZ 0000000180007cd0 f i GestureControl.obj
 0001:00006cf0       ??0?$CComPtrBase@UISpecifyPropertyPages@@@ATL@@IEAA@XZ 0000000180007cf0 f i GestureControl.obj
 0001:00006d10       ??0?$CComPtrBase@UIStream@@@ATL@@IEAA@XZ 0000000180007d10 f i GestureControl.obj
 0001:00006d30       ??0?$CComPtrBase@UITypeInfo2@@@ATL@@IEAA@XZ 0000000180007d30 f i GestureControl.obj
 0001:00006d50       ??0?$CComPtrBase@UITypeInfo@@@ATL@@IEAA@PEAUITypeInfo@@@Z 0000000180007d50 f i GestureControl.obj
 0001:00006db0       ??0?$CComPtrBase@UITypeInfo@@@ATL@@IEAA@XZ 0000000180007db0 f i GestureControl.obj
 0001:00006dd0       ??0?$CComPtrBase@UITypeLib@@@ATL@@IEAA@XZ 0000000180007dd0 f i GestureControl.obj
 0001:00006df0       ??0?$CComPtrBase@UIUnknown@@@ATL@@IEAA@PEAUIUnknown@@@Z 0000000180007df0 f i GestureControl.obj
 0001:00006e50       ??0?$CComPtrBase@UIUnknown@@@ATL@@IEAA@XZ 0000000180007e50 f i GestureControl.obj
 0001:00006e70       ??0?$CComPtrBase@UIViewObjectEx@@@ATL@@IEAA@XZ 0000000180007e70 f i GestureControl.obj
 0001:00006e90       ??0?$CComQIPtr@UIOleControlSite@@$1?_GUID_b196b289_bab4_101a_b69c_00aa00341d07@@3U__s_GUID@@B@ATL@@QEAA@PEAUIUnknown@@@Z 0000000180007e90 f i GestureControl.obj
 0001:00006f00       ??0?$CComQIPtr@UIOleObject@@$1?_GUID_00000112_0000_0000_c000_000000000046@@3U__s_GUID@@B@ATL@@QEAA@XZ 0000000180007f00 f i GestureControl.obj
 0001:00006f40       ??0?$CComQIPtr@UISpecifyPropertyPages@@$1?_GUID_b196b28b_bab4_101a_b69c_00aa00341d07@@3U__s_GUID@@B@ATL@@QEAA@XZ 0000000180007f40 f i GestureControl.obj
 0001:00006f80       ??0?$CSimpleMap@PEA_WPEA_WVCExpansionVectorEqualHelper@ATL@@@ATL@@QEAA@XZ 0000000180007f80 f i GestureControl.obj
 0001:00006fc0       ??0?$CTempBuffer@E$0BAA@VCCRTAllocator@ATL@@@ATL@@QEAA@XZ 0000000180007fc0 f i GestureControl.obj
 0001:00006fe0       ??0?$CTempBuffer@_W$0BAA@VCCRTAllocator@ATL@@@ATL@@QEAA@XZ 0000000180007fe0 f i GestureControl.obj
 0001:00007000       ??0?$CTempBuffer@_W$0EAA@VCCRTAllocator@ATL@@@ATL@@QEAA@XZ 0000000180008000 f i GestureControl.obj
 0001:00007020       ??0?$Wrapper@PEA_W@?$CSimpleMap@PEA_WPEA_WVCExpansionVectorEqualHelper@ATL@@@ATL@@QEAA@AEBQEA_W@Z 0000000180008020 f i GestureControl.obj
 0001:00007050       ??0CAtlModule@ATL@@QEAA@XZ 0000000180008050 f i GestureControl.obj
 0001:000071c0       ??0CComAutoDeleteCriticalSection@ATL@@QEAA@XZ 00000001800081c0 f i GestureControl.obj
 0001:00007200       ??0CComBSTR@ATL@@QEAA@XZ   0000000180008200 f i GestureControl.obj
 0001:00007220       ??0CComClassFactory@ATL@@QEAA@XZ 0000000180008220 f i GestureControl.obj
 0001:00007280       ??0CComModule@ATL@@QEAA@XZ 0000000180008280 f i GestureControl.obj
 0001:00007320       ??0CComObjectRootBase@ATL@@QEAA@XZ 0000000180008320 f i GestureControl.obj
 0001:00007340       ??0CComSafeDeleteCriticalSection@ATL@@QEAA@XZ 0000000180008340 f i GestureControl.obj
 0001:00007380       ??0CComVariant@ATL@@QEAA@XZ 0000000180008380 f i GestureControl.obj
 0001:000073d0       ??0CExpansionVector@ATL@@QEAA@XZ 00000001800083d0 f i GestureControl.obj
 0001:00007410       ??0CParseBuffer@CRegParser@ATL@@QEAA@H@Z 0000000180008410 f i GestureControl.obj
 0001:000074a0       ??0CRegKey@ATL@@QEAA@PEAUHKEY__@@@Z 00000001800084a0 f i GestureControl.obj
 0001:000074e0       ??0CRegKey@ATL@@QEAA@PEAVCAtlTransactionManager@1@@Z 00000001800084e0 f i GestureControl.obj
 0001:00007520       ??0CRegObject@ATL@@QEAA@XZ 0000000180008520 f i GestureControl.obj
 0001:00007580       ??0CRegParser@ATL@@QEAA@PEAVCRegObject@1@@Z 0000000180008580 f i GestureControl.obj
 0001:000075b0       ??0IClassFactory@@QEAA@XZ  00000001800085b0 f i GestureControl.obj
 0001:000075f0       ??0IEnumConnectionPoints@@QEAA@XZ 00000001800085f0 f i GestureControl.obj
 0001:00007630       ??0IEnumConnections@@QEAA@XZ 0000000180008630 f i GestureControl.obj
 0001:00007670       ??0IRegistrarBase@@QEAA@XZ 0000000180008670 f i GestureControl.obj
 0001:000076b0       ??0IUnknown@@QEAA@XZ       00000001800086b0 f i GestureControl.obj
 0001:000076c0       ??0ModuleLockHelper@ATL@@QEAA@XZ 00000001800086c0 f i GestureControl.obj
 0001:00007700       ??0OposVariant@@QEAA@XZ    0000000180008700 f i GestureControl.obj
 0001:00007720       ??0Wrapper@?$CSimpleArray@GV?$CSimpleArrayEqualHelper@G@ATL@@@ATL@@QEAA@AEBG@Z 0000000180008720 f i GestureControl.obj
 0001:00007750       ??0_ATL_MODULE70@ATL@@QEAA@XZ 0000000180008750 f i GestureControl.obj
 0001:00007790       ??0_ATL_MSG@ATL@@QEAA@PEAUHWND__@@I_K_JH@Z 0000000180008790 f i GestureControl.obj
 0001:00007820       ??0_U_MENUorID@ATL@@QEAA@I@Z 0000000180008820 f i GestureControl.obj
 0001:00007840       ??0_U_RECT@ATL@@QEAA@AEAUtagRECT@@@Z 0000000180008840 f i GestureControl.obj
 0001:00007860       ??0stringdispid@CComTypeInfoHolder@ATL@@QEAA@XZ 0000000180008860 f i GestureControl.obj
 0001:000078b0       ??1?$CAtlModuleT@VCComModule@ATL@@@ATL@@UEAA@XZ 00000001800088b0 f i GestureControl.obj
 0001:000078e0       ??1?$CAtlSafeAllocBufferManager@VCCRTAllocator@ATL@@@_ATL_SAFE_ALLOCA_IMPL@ATL@@QEAA@XZ 00000001800088e0 f i GestureControl.obj
 0001:00007940       ??1?$CAutoVectorPtr@_W@ATL@@QEAA@XZ 0000000180008940 f i GestureControl.obj
 0001:00007970       ??1?$CComAggObject@VCOPOSGestureControl@@@ATL@@UEAA@XZ 0000000180008970 f i GestureControl.obj
 0001:000079f0       ??1?$CComContainedObject@VCOPOSGestureControl@@@ATL@@UEAA@XZ 00000001800089f0 f i GestureControl.obj
 0001:00007a20       ??1?$CComCritSecLock@VCComCriticalSection@ATL@@@ATL@@QEAA@XZ 0000000180008a20 f i GestureControl.obj
 0001:00007a60       ??1?$CComEnum@UIEnumConnectionPoints@@$1?_GUID_b196b285_bab4_101a_b69c_00aa00341d07@@3U__s_GUID@@BPEAUIConnectionPoint@@V?$_CopyInterface@UIConnectionPoint@@@ATL@@VCComSingleThreadModel@6@@ATL@@UEAA@XZ 0000000180008a60 f i GestureControl.obj
 0001:00007aa0       ??1?$CComEnum@UIEnumConnections@@$1?_GUID_b196b287_bab4_101a_b69c_00aa00341d07@@3U__s_GUID@@BUtagCONNECTDATA@@V?$_Copy@UtagCONNECTDATA@@@ATL@@VCComSingleThreadModel@6@@ATL@@UEAA@XZ 0000000180008aa0 f i GestureControl.obj
 0001:00007ae0       ??1?$CComEnumImpl@UIEnumConnectionPoints@@$1?_GUID_b196b285_bab4_101a_b69c_00aa00341d07@@3U__s_GUID@@BPEAUIConnectionPoint@@V?$_CopyInterface@UIConnectionPoint@@@ATL@@@ATL@@UEAA@XZ 0000000180008ae0 f i GestureControl.obj
 0001:00007b80       ??1?$CComEnumImpl@UIEnumConnections@@$1?_GUID_b196b287_bab4_101a_b69c_00aa00341d07@@3U__s_GUID@@BUtagCONNECTDATA@@V?$_Copy@UtagCONNECTDATA@@@ATL@@@ATL@@UEAA@XZ 0000000180008b80 f i GestureControl.obj
 0001:00007c20       ??1?$CComObject@V?$CComEnum@UIEnumConnectionPoints@@$1?_GUID_b196b285_bab4_101a_b69c_00aa00341d07@@3U__s_GUID@@BPEAUIConnectionPoint@@V?$_CopyInterface@UIConnectionPoint@@@ATL@@VCComSingleThreadModel@6@@ATL@@@ATL@@UEAA@XZ 0000000180008c20 f i GestureControl.obj
 0001:00007c90       ??1?$CComObject@V?$CComEnum@UIEnumConnections@@$1?_GUID_b196b287_bab4_101a_b69c_00aa00341d07@@3U__s_GUID@@BUtagCONNECTDATA@@V?$_Copy@UtagCONNECTDATA@@@ATL@@VCComSingleThreadModel@6@@ATL@@@ATL@@UEAA@XZ 0000000180008c90 f i GestureControl.obj
 0001:00007d00       ??1?$CComObject@VCOPOSGestureControl@@@ATL@@UEAA@XZ 0000000180008d00 f i GestureControl.obj
 0001:00007eb0       ??1?$CComObjectCached@VCComClassFactory@ATL@@@ATL@@UEAA@XZ 0000000180008eb0 f i GestureControl.obj
 0001:00007f10       ??1?$CComObjectRootEx@VCComMultiThreadModel@ATL@@@ATL@@QEAA@XZ 0000000180008f10 f i GestureControl.obj
 0001:00007f50       ??1?$CComObjectRootEx@VCComSingleThreadModel@ATL@@@ATL@@QEAA@XZ 0000000180008f50 f i GestureControl.obj
 0001:00007f80       ??1?$CComPtr@UIAdviseSink@@@ATL@@QEAA@XZ 0000000180008f80 f i GestureControl.obj
 0001:00007fb0       ??1?$CComPtr@UICatRegister@@@ATL@@QEAA@XZ 0000000180008fb0 f i GestureControl.obj
 0001:00007fe0       ??1?$CComPtr@UIConnectionPoint@@@ATL@@QEAA@XZ 0000000180008fe0 f i GestureControl.obj
 0001:00008010       ??1?$CComPtr@UIConnectionPointContainer@@@ATL@@QEAA@XZ 0000000180009010 f i GestureControl.obj
 0001:00008040       ??1?$CComPtr@UIDataObject@@@ATL@@QEAA@XZ 0000000180009040 f i GestureControl.obj
 0001:00008070       ??1?$CComPtr@UIDispatch@@@ATL@@QEAA@XZ 0000000180009070 f i GestureControl.obj
 0001:000080a0       ??1?$CComPtr@UIOleClientSite@@@ATL@@QEAA@XZ 00000001800090a0 f i GestureControl.obj
 0001:000080d0       ??1?$CComPtr@UIOleControlSite@@@ATL@@QEAA@XZ 00000001800090d0 f i GestureControl.obj
 0001:00008100       ??1?$CComPtr@UIOleInPlaceActiveObject@@@ATL@@QEAA@XZ 0000000180009100 f i GestureControl.obj
 0001:00008130       ??1?$CComPtr@UIOleInPlaceFrame@@@ATL@@QEAA@XZ 0000000180009130 f i GestureControl.obj
 0001:00008160       ??1?$CComPtr@UIOleInPlaceObject@@@ATL@@QEAA@XZ 0000000180009160 f i GestureControl.obj
 0001:00008190       ??1?$CComPtr@UIOleInPlaceUIWindow@@@ATL@@QEAA@XZ 0000000180009190 f i GestureControl.obj
 0001:000081c0       ??1?$CComPtr@UIOleObject@@@ATL@@QEAA@XZ 00000001800091c0 f i GestureControl.obj
 0001:000081f0       ??1?$CComPtr@UIPersistStream@@@ATL@@QEAA@XZ 00000001800091f0 f i GestureControl.obj
 0001:00008220       ??1?$CComPtr@UIPersistStreamInit@@@ATL@@QEAA@XZ 0000000180009220 f i GestureControl.obj
 0001:00008250       ??1?$CComPtr@UIPointerInactive@@@ATL@@QEAA@XZ 0000000180009250 f i GestureControl.obj
 0001:00008280       ??1?$CComPtr@UIProvideClassInfo2@@@ATL@@QEAA@XZ 0000000180009280 f i GestureControl.obj
 0001:000082b0       ??1?$CComPtr@UISpecifyPropertyPages@@@ATL@@QEAA@XZ 00000001800092b0 f i GestureControl.obj
 0001:000082e0       ??1?$CComPtr@UIStream@@@ATL@@QEAA@XZ 00000001800092e0 f i GestureControl.obj
 0001:00008310       ??1?$CComPtr@UITypeInfo2@@@ATL@@QEAA@XZ 0000000180009310 f i GestureControl.obj
 0001:00008340       ??1?$CComPtr@UITypeInfo@@@ATL@@QEAA@XZ 0000000180009340 f i GestureControl.obj
 0001:00008370       ??1?$CComPtr@UITypeLib@@@ATL@@QEAA@XZ 0000000180009370 f i GestureControl.obj
 0001:000083a0       ??1?$CComPtr@UIUnknown@@@ATL@@QEAA@XZ 00000001800093a0 f i GestureControl.obj
 0001:000083d0       ??1?$CComPtr@UIViewObjectEx@@@ATL@@QEAA@XZ 00000001800093d0 f i GestureControl.obj
 0001:00008400       ??1?$CComPtrBase@UIAdviseSink@@@ATL@@QEAA@XZ 0000000180009400 f i GestureControl.obj
 0001:00008450       ??1?$CComPtrBase@UICatRegister@@@ATL@@QEAA@XZ 0000000180009450 f i GestureControl.obj
 0001:000084a0       ??1?$CComPtrBase@UIConnectionPoint@@@ATL@@QEAA@XZ 00000001800094a0 f i GestureControl.obj
 0001:000084f0       ??1?$CComPtrBase@UIConnectionPointContainer@@@ATL@@QEAA@XZ 00000001800094f0 f i GestureControl.obj
 0001:00008540       ??1?$CComPtrBase@UIDataObject@@@ATL@@QEAA@XZ 0000000180009540 f i GestureControl.obj
 0001:00008590       ??1?$CComPtrBase@UIDispatch@@@ATL@@QEAA@XZ 0000000180009590 f i GestureControl.obj
 0001:000085e0       ??1?$CComPtrBase@UIOleClientSite@@@ATL@@QEAA@XZ 00000001800095e0 f i GestureControl.obj
 0001:00008630       ??1?$CComPtrBase@UIOleControlSite@@@ATL@@QEAA@XZ 0000000180009630 f i GestureControl.obj
 0001:00008680       ??1?$CComPtrBase@UIOleInPlaceActiveObject@@@ATL@@QEAA@XZ 0000000180009680 f i GestureControl.obj
 0001:000086d0       ??1?$CComPtrBase@UIOleInPlaceFrame@@@ATL@@QEAA@XZ 00000001800096d0 f i GestureControl.obj
 0001:00008720       ??1?$CComPtrBase@UIOleInPlaceObject@@@ATL@@QEAA@XZ 0000000180009720 f i GestureControl.obj
 0001:00008770       ??1?$CComPtrBase@UIOleInPlaceUIWindow@@@ATL@@QEAA@XZ 0000000180009770 f i GestureControl.obj
 0001:000087c0       ??1?$CComPtrBase@UIOleObject@@@ATL@@QEAA@XZ 00000001800097c0 f i GestureControl.obj
 0001:00008810       ??1?$CComPtrBase@UIPersistStream@@@ATL@@QEAA@XZ 0000000180009810 f i GestureControl.obj
 0001:00008860       ??1?$CComPtrBase@UIPersistStreamInit@@@ATL@@QEAA@XZ 0000000180009860 f i GestureControl.obj
 0001:000088b0       ??1?$CComPtrBase@UIPointerInactive@@@ATL@@QEAA@XZ 00000001800098b0 f i GestureControl.obj
 0001:00008900       ??1?$CComPtrBase@UIProvideClassInfo2@@@ATL@@QEAA@XZ 0000000180009900 f i GestureControl.obj
 0001:00008950       ??1?$CComPtrBase@UISpecifyPropertyPages@@@ATL@@QEAA@XZ 0000000180009950 f i GestureControl.obj
 0001:000089a0       ??1?$CComPtrBase@UIStream@@@ATL@@QEAA@XZ 00000001800099a0 f i GestureControl.obj
 0001:000089f0       ??1?$CComPtrBase@UITypeInfo2@@@ATL@@QEAA@XZ 00000001800099f0 f i GestureControl.obj
 0001:00008a40       ??1?$CComPtrBase@UITypeInfo@@@ATL@@QEAA@XZ 0000000180009a40 f i GestureControl.obj
 0001:00008a90       ??1?$CComPtrBase@UITypeLib@@@ATL@@QEAA@XZ 0000000180009a90 f i GestureControl.obj
 0001:00008ae0       ??1?$CComPtrBase@UIUnknown@@@ATL@@QEAA@XZ 0000000180009ae0 f i GestureControl.obj
 0001:00008b30       ??1?$CComPtrBase@UIViewObjectEx@@@ATL@@QEAA@XZ 0000000180009b30 f i GestureControl.obj
 0001:00008b80       ??1?$CComQIPtr@UIOleControlSite@@$1?_GUID_b196b289_bab4_101a_b69c_00aa00341d07@@3U__s_GUID@@B@ATL@@QEAA@XZ 0000000180009b80 f i GestureControl.obj
 0001:00008bb0       ??1?$CComQIPtr@UIOleObject@@$1?_GUID_00000112_0000_0000_c000_000000000046@@3U__s_GUID@@B@ATL@@QEAA@XZ 0000000180009bb0 f i GestureControl.obj
 0001:00008be0       ??1?$CComQIPtr@UISpecifyPropertyPages@@$1?_GUID_b196b28b_bab4_101a_b69c_00aa00341d07@@3U__s_GUID@@B@ATL@@QEAA@XZ 0000000180009be0 f i GestureControl.obj
 0001:00008c10       ??1?$CSimpleMap@PEA_WPEA_WVCExpansionVectorEqualHelper@ATL@@@ATL@@QEAA@XZ 0000000180009c10 f i GestureControl.obj
 0001:00008c40       ??1?$CTempBuffer@E$0BAA@VCCRTAllocator@ATL@@@ATL@@QEAA@XZ 0000000180009c40 f i GestureControl.obj
 0001:00008c90       ??1?$CTempBuffer@_W$0BAA@VCCRTAllocator@ATL@@@ATL@@QEAA@XZ 0000000180009c90 f i GestureControl.obj
 0001:00008ce0       ??1?$CTempBuffer@_W$0EAA@VCCRTAllocator@ATL@@@ATL@@QEAA@XZ 0000000180009ce0 f i GestureControl.obj
 0001:00008d30       ??1CAtlModule@ATL@@UEAA@XZ 0000000180009d30 f i GestureControl.obj
 0001:00008d70       ??1CComAutoDeleteCriticalSection@ATL@@QEAA@XZ 0000000180009d70 f i GestureControl.obj
 0001:00008da0       ??1CComClassFactory@ATL@@UEAA@XZ 0000000180009da0 f i GestureControl.obj
 0001:00008df0       ??1CComModule@ATL@@UEAA@XZ 0000000180009df0 f i GestureControl.obj
 0001:00008e30       ??1CComObjectRootBase@ATL@@QEAA@XZ 0000000180009e30 f i GestureControl.obj
 0001:00008e40       ??1CComSafeDeleteCriticalSection@ATL@@QEAA@XZ 0000000180009e40 f i GestureControl.obj
 0001:00008e90       ??1CComVariant@ATL@@QEAA@XZ 0000000180009e90 f i GestureControl.obj
 0001:00008f10       ??1CExpansionVector@ATL@@QEAA@XZ 0000000180009f10 f i GestureControl.obj
 0001:00008f50       ??1CParseBuffer@CRegParser@ATL@@QEAA@XZ 0000000180009f50 f i GestureControl.obj
 0001:00008f90       ??1CRegKey@ATL@@QEAA@XZ    0000000180009f90 f i GestureControl.obj
 0001:00008fc0       ??1CRegObject@ATL@@UEAA@XZ 0000000180009fc0 f i GestureControl.obj
 0001:00009010       ??1ModuleLockHelper@ATL@@QEAA@XZ 000000018000a010 f i GestureControl.obj
 0001:00009050       ??1OposVariant@@QEAA@XZ    000000018000a050 f i GestureControl.obj
 0001:00009090       ??1_ATL_MODULE70@ATL@@QEAA@XZ 000000018000a090 f i GestureControl.obj
 0001:000090d0       ??4?$CComPtr@UIAdviseSink@@@ATL@@QEAAPEAUIAdviseSink@@PEAU2@@Z 000000018000a0d0 f i GestureControl.obj
 0001:00009140       ??4?$CComPtr@UIOleClientSite@@@ATL@@QEAAPEAUIOleClientSite@@PEAU2@@Z 000000018000a140 f i GestureControl.obj
 0001:000091b0       ??4?$CComPtr@UIUnknown@@@ATL@@QEAAPEAUIUnknown@@PEAU2@@Z 000000018000a1b0 f i GestureControl.obj
 0001:00009220       ??4?$CComQIPtr@UIOleObject@@$1?_GUID_00000112_0000_0000_c000_000000000046@@3U__s_GUID@@B@ATL@@QEAAPEAUIOleObject@@PEAUIUnknown@@@Z 000000018000a220 f i GestureControl.obj
 0001:00009280       ??4?$CComQIPtr@UISpecifyPropertyPages@@$1?_GUID_b196b28b_bab4_101a_b69c_00aa00341d07@@3U__s_GUID@@B@ATL@@QEAAPEAUISpecifyPropertyPages@@PEAUIUnknown@@@Z 000000018000a280 f i GestureControl.obj
 0001:000092e0       ??7?$CComPtrBase@UIOleClientSite@@@ATL@@QEBA_NXZ 000000018000a2e0 f i GestureControl.obj
 0001:00009330       ??7?$CComPtrBase@UIOleInPlaceSiteWindowless@@@ATL@@QEBA_NXZ 000000018000a330 f i GestureControl.obj
 0001:00009380       ??7CComBSTR@ATL@@QEBA_NXZ  000000018000a380 f i GestureControl.obj
 0001:000093d0       ??8?$CComPtrBase@UIConnectionPointContainer@@@ATL@@QEBA_NPEAUIConnectionPointContainer@@@Z 000000018000a3d0 f i GestureControl.obj
 0001:00009420       ??8?$CComPtrBase@UIDataAdviseHolder@@@ATL@@QEBA_NPEAUIDataAdviseHolder@@@Z 000000018000a420 f i GestureControl.obj
 0001:00009470       ??8?$CComPtrBase@UIOleAdviseHolder@@@ATL@@QEBA_NPEAUIOleAdviseHolder@@@Z 000000018000a470 f i GestureControl.obj
 0001:000094c0       ??8?$CComPtrBase@UIOleClientSite@@@ATL@@QEBA_NPEAUIOleClientSite@@@Z 000000018000a4c0 f i GestureControl.obj
 0001:00009510       ??8?$CComPtrBase@UIOleControlSite@@@ATL@@QEBA_NPEAUIOleControlSite@@@Z 000000018000a510 f i GestureControl.obj
 0001:00009560       ??8?$CComPtrBase@UIOleInPlaceObject@@@ATL@@QEBA_NPEAUIOleInPlaceObject@@@Z 000000018000a560 f i GestureControl.obj
 0001:000095b0       ??8?$CComPtrBase@UIOleInPlaceSiteWindowless@@@ATL@@QEBA_NPEAUIOleInPlaceSiteWindowless@@@Z 000000018000a5b0 f i GestureControl.obj
 0001:00009600       ??8?$CComPtrBase@UIOleObject@@@ATL@@QEBA_NPEAUIOleObject@@@Z 000000018000a600 f i GestureControl.obj
 0001:00009650       ??8?$CComPtrBase@UIPersistStream@@@ATL@@QEBA_NPEAUIPersistStream@@@Z 000000018000a650 f i GestureControl.obj
 0001:000096a0       ??8?$CComPtrBase@UIPersistStreamInit@@@ATL@@QEBA_NPEAUIPersistStreamInit@@@Z 000000018000a6a0 f i GestureControl.obj
 0001:000096f0       ??8?$CComPtrBase@UIPointerInactive@@@ATL@@QEBA_NPEAUIPointerInactive@@@Z 000000018000a6f0 f i GestureControl.obj
 0001:00009740       ??8?$CComPtrBase@UIUnknown@@@ATL@@QEBA_NPEAUIUnknown@@@Z 000000018000a740 f i GestureControl.obj
 0001:00009790       ??8?$CComPtrBase@UIViewObjectEx@@@ATL@@QEBA_NPEAUIViewObjectEx@@@Z 000000018000a790 f i GestureControl.obj
 0001:000097e0       ??8CComBSTR@ATL@@QEBA_NH@Z 000000018000a7e0 f i GestureControl.obj
 0001:00009860       ??9?$CComPtrBase@UIConnectionPointContainer@@@ATL@@QEBA_NPEAUIConnectionPointContainer@@@Z 000000018000a860 f i GestureControl.obj
 0001:000098c0       ??9?$CComPtrBase@UIDataAdviseHolder@@@ATL@@QEBA_NPEAUIDataAdviseHolder@@@Z 000000018000a8c0 f i GestureControl.obj
 0001:00009920       ??9?$CComPtrBase@UIOleAdviseHolder@@@ATL@@QEBA_NPEAUIOleAdviseHolder@@@Z 000000018000a920 f i GestureControl.obj
 0001:00009980       ??9?$CComPtrBase@UIOleClientSite@@@ATL@@QEBA_NPEAUIOleClientSite@@@Z 000000018000a980 f i GestureControl.obj
 0001:000099e0       ??9?$CComPtrBase@UIOleControlSite@@@ATL@@QEBA_NPEAUIOleControlSite@@@Z 000000018000a9e0 f i GestureControl.obj
 0001:00009a40       ??9?$CComPtrBase@UIOleInPlaceObject@@@ATL@@QEBA_NPEAUIOleInPlaceObject@@@Z 000000018000aa40 f i GestureControl.obj
 0001:00009aa0       ??9?$CComPtrBase@UIOleInPlaceSiteWindowless@@@ATL@@QEBA_NPEAUIOleInPlaceSiteWindowless@@@Z 000000018000aaa0 f i GestureControl.obj
 0001:00009b00       ??9?$CComPtrBase@UIOleObject@@@ATL@@QEBA_NPEAUIOleObject@@@Z 000000018000ab00 f i GestureControl.obj
 0001:00009b60       ??9?$CComPtrBase@UIPersistStream@@@ATL@@QEBA_NPEAUIPersistStream@@@Z 000000018000ab60 f i GestureControl.obj
 0001:00009bc0       ??9?$CComPtrBase@UIPersistStreamInit@@@ATL@@QEBA_NPEAUIPersistStreamInit@@@Z 000000018000abc0 f i GestureControl.obj
 0001:00009c20       ??9?$CComPtrBase@UIPointerInactive@@@ATL@@QEBA_NPEAUIPointerInactive@@@Z 000000018000ac20 f i GestureControl.obj
 0001:00009c80       ??9?$CComPtrBase@UIUnknown@@@ATL@@QEBA_NPEAUIUnknown@@@Z 000000018000ac80 f i GestureControl.obj
 0001:00009ce0       ??9?$CComPtrBase@UIViewObjectEx@@@ATL@@QEBA_NPEAUIViewObjectEx@@@Z 000000018000ace0 f i GestureControl.obj
 0001:00009d40       ??9CComBSTR@ATL@@QEBA_NH@Z 000000018000ad40 f i GestureControl.obj
 0001:00009da0       ??B?$CComPtrBase@UIAdviseSink@@@ATL@@QEBAPEAUIAdviseSink@@XZ 000000018000ada0 f i GestureControl.obj
 0001:00009db0       ??B?$CComPtrBase@UIDataAdviseHolder@@@ATL@@QEBAPEAUIDataAdviseHolder@@XZ 000000018000adb0 f i GestureControl.obj
 0001:00009dc0       ??B?$CComPtrBase@UIDataObject@@@ATL@@QEBAPEAUIDataObject@@XZ 000000018000adc0 f i GestureControl.obj
 0001:00009dd0       ??B?$CComPtrBase@UIOleAdviseHolder@@@ATL@@QEBAPEAUIOleAdviseHolder@@XZ 000000018000add0 f i GestureControl.obj
 0001:00009de0       ??B?$CComPtrBase@UIOleClientSite@@@ATL@@QEBAPEAUIOleClientSite@@XZ 000000018000ade0 f i GestureControl.obj
 0001:00009df0       ??B?$CComPtrBase@UIOleControlSite@@@ATL@@QEBAPEAUIOleControlSite@@XZ 000000018000adf0 f i GestureControl.obj
 0001:00009e00       ??B?$CComPtrBase@UIOleInPlaceActiveObject@@@ATL@@QEBAPEAUIOleInPlaceActiveObject@@XZ 000000018000ae00 f i GestureControl.obj
 0001:00009e10       ??B?$CComPtrBase@UIOleInPlaceFrame@@@ATL@@QEBAPEAUIOleInPlaceFrame@@XZ 000000018000ae10 f i GestureControl.obj
 0001:00009e20       ??B?$CComPtrBase@UIOleInPlaceSiteWindowless@@@ATL@@QEBAPEAUIOleInPlaceSiteWindowless@@XZ 000000018000ae20 f i GestureControl.obj
 0001:00009e30       ??B?$CComPtrBase@UIOleInPlaceUIWindow@@@ATL@@QEBAPEAUIOleInPlaceUIWindow@@XZ 000000018000ae30 f i GestureControl.obj
 0001:00009e40       ??B?$CComPtrBase@UIOleObject@@@ATL@@QEBAPEAUIOleObject@@XZ 000000018000ae40 f i GestureControl.obj
 0001:00009e50       ??B?$CComPtrBase@UIPersistStream@@@ATL@@QEBAPEAUIPersistStream@@XZ 000000018000ae50 f i GestureControl.obj
 0001:00009e60       ??B?$CComPtrBase@UIProvideClassInfo2@@@ATL@@QEBAPEAUIProvideClassInfo2@@XZ 000000018000ae60 f i GestureControl.obj
 0001:00009e70       ??B?$CComPtrBase@UISpecifyPropertyPages@@@ATL@@QEBAPEAUISpecifyPropertyPages@@XZ 000000018000ae70 f i GestureControl.obj
 0001:00009e80       ??B?$CComPtrBase@UIStream@@@ATL@@QEBAPEAUIStream@@XZ 000000018000ae80 f i GestureControl.obj
 0001:00009e90       ??B?$CComPtrBase@UITypeInfo2@@@ATL@@QEBAPEAUITypeInfo2@@XZ 000000018000ae90 f i GestureControl.obj
 0001:00009ea0       ??B?$CComPtrBase@UITypeInfo@@@ATL@@QEBAPEAUITypeInfo@@XZ 000000018000aea0 f i GestureControl.obj
 0001:00009eb0       ??B?$CComPtrBase@UITypeLib@@@ATL@@QEBAPEAUITypeLib@@XZ 000000018000aeb0 f i GestureControl.obj
 0001:00009ec0       ??B?$CComPtrBase@UIUnknown@@@ATL@@QEBAPEAUIUnknown@@XZ 000000018000aec0 f i GestureControl.obj
 0001:00009ed0       ??B?$CTempBuffer@E$0BAA@VCCRTAllocator@ATL@@@ATL@@QEBAPEAEXZ 000000018000aed0 f i GestureControl.obj
 0001:00009ee0       ??B?$CTempBuffer@_W$0BAA@VCCRTAllocator@ATL@@@ATL@@QEBAPEA_WXZ 000000018000aee0 f i GestureControl.obj
 0001:00009ef0       ??B?$CTempBuffer@_W$0EAA@VCCRTAllocator@ATL@@@ATL@@QEBAPEA_WXZ 000000018000aef0 f i GestureControl.obj
 0001:00009f00       ??B?$CTraceCategoryEx@$00$0A@@ATL@@QEAAIXZ 000000018000af00 f i GestureControl.obj
 0001:00009f10       ??B?$CTraceCategoryEx@$07$0A@@ATL@@QEAAIXZ 000000018000af10 f i GestureControl.obj
 0001:00009f20       ??B?$CTraceCategoryEx@$0CAAA@$0A@@ATL@@QEAAIXZ 000000018000af20 f i GestureControl.obj
 0001:00009f30       ??B?$CTraceCategoryEx@$0EA@$0A@@ATL@@QEAAIXZ 000000018000af30 f i GestureControl.obj
 0001:00009f40       ??B?$CTraceCategoryEx@$0IAA@$0A@@ATL@@QEAAIXZ 000000018000af40 f i GestureControl.obj
 0001:00009f50       ??BCComBSTR@ATL@@QEBAPEA_WXZ 000000018000af50 f i GestureControl.obj
 0001:00009f60       ??BCRegKey@ATL@@QEBAPEAUHKEY__@@XZ 000000018000af60 f i GestureControl.obj
 0001:00009f70       ??C?$CComPtrBase@UIAdviseSink@@@ATL@@QEBAPEAV?$_NoAddRefReleaseOnCComPtr@UIAdviseSink@@@1@XZ 000000018000af70 f i GestureControl.obj
 0001:00009ff0       ??C?$CComPtrBase@UICatRegister@@@ATL@@QEBAPEAV?$_NoAddRefReleaseOnCComPtr@UICatRegister@@@1@XZ 000000018000aff0 f i GestureControl.obj
 0001:0000a070       ??C?$CComPtrBase@UIConnectionPoint@@@ATL@@QEBAPEAV?$_NoAddRefReleaseOnCComPtr@UIConnectionPoint@@@1@XZ 000000018000b070 f i GestureControl.obj
 0001:0000a0f0       ??C?$CComPtrBase@UIConnectionPointContainer@@@ATL@@QEBAPEAV?$_NoAddRefReleaseOnCComPtr@UIConnectionPointContainer@@@1@XZ 000000018000b0f0 f i GestureControl.obj
 0001:0000a170       ??C?$CComPtrBase@UIDataAdviseHolder@@@ATL@@QEBAPEAV?$_NoAddRefReleaseOnCComPtr@UIDataAdviseHolder@@@1@XZ 000000018000b170 f i GestureControl.obj
 0001:0000a1f0       ??C?$CComPtrBase@UIOleAdviseHolder@@@ATL@@QEBAPEAV?$_NoAddRefReleaseOnCComPtr@UIOleAdviseHolder@@@1@XZ 000000018000b1f0 f i GestureControl.obj
 0001:0000a270       ??C?$CComPtrBase@UIOleClientSite@@@ATL@@QEBAPEAV?$_NoAddRefReleaseOnCComPtr@UIOleClientSite@@@1@XZ 000000018000b270 f i GestureControl.obj
 0001:0000a2f0       ??C?$CComPtrBase@UIOleControlSite@@@ATL@@QEBAPEAV?$_NoAddRefReleaseOnCComPtr@UIOleControlSite@@@1@XZ 000000018000b2f0 f i GestureControl.obj
 0001:0000a370       ??C?$CComPtrBase@UIOleInPlaceFrame@@@ATL@@QEBAPEAV?$_NoAddRefReleaseOnCComPtr@UIOleInPlaceFrame@@@1@XZ 000000018000b370 f i GestureControl.obj
 0001:0000a3f0       ??C?$CComPtrBase@UIOleInPlaceObject@@@ATL@@QEBAPEAV?$_NoAddRefReleaseOnCComPtr@UIOleInPlaceObject@@@1@XZ 000000018000b3f0 f i GestureControl.obj
 0001:0000a470       ??C?$CComPtrBase@UIOleInPlaceSiteWindowless@@@ATL@@QEBAPEAV?$_NoAddRefReleaseOnCComPtr@UIOleInPlaceSiteWindowless@@@1@XZ 000000018000b470 f i GestureControl.obj
 0001:0000a4f0       ??C?$CComPtrBase@UIOleInPlaceUIWindow@@@ATL@@QEBAPEAV?$_NoAddRefReleaseOnCComPtr@UIOleInPlaceUIWindow@@@1@XZ 000000018000b4f0 f i GestureControl.obj
 0001:0000a570       ??C?$CComPtrBase@UIOleObject@@@ATL@@QEBAPEAV?$_NoAddRefReleaseOnCComPtr@UIOleObject@@@1@XZ 000000018000b570 f i GestureControl.obj
 0001:0000a5f0       ??C?$CComPtrBase@UIPersistStream@@@ATL@@QEBAPEAV?$_NoAddRefReleaseOnCComPtr@UIPersistStream@@@1@XZ 000000018000b5f0 f i GestureControl.obj
 0001:0000a670       ??C?$CComPtrBase@UIPersistStreamInit@@@ATL@@QEBAPEAV?$_NoAddRefReleaseOnCComPtr@UIPersistStreamInit@@@1@XZ 000000018000b670 f i GestureControl.obj
 0001:0000a6f0       ??C?$CComPtrBase@UIPointerInactive@@@ATL@@QEBAPEAV?$_NoAddRefReleaseOnCComPtr@UIPointerInactive@@@1@XZ 000000018000b6f0 f i GestureControl.obj
 0001:0000a770       ??C?$CComPtrBase@UIProvideClassInfo2@@@ATL@@QEBAPEAV?$_NoAddRefReleaseOnCComPtr@UIProvideClassInfo2@@@1@XZ 000000018000b770 f i GestureControl.obj
 0001:0000a7f0       ??C?$CComPtrBase@UISpecifyPropertyPages@@@ATL@@QEBAPEAV?$_NoAddRefReleaseOnCComPtr@UISpecifyPropertyPages@@@1@XZ 000000018000b7f0 f i GestureControl.obj
 0001:0000a870       ??C?$CComPtrBase@UITypeInfo@@@ATL@@QEBAPEAV?$_NoAddRefReleaseOnCComPtr@UITypeInfo@@@1@XZ 000000018000b870 f i GestureControl.obj
 0001:0000a8f0       ??C?$CComPtrBase@UITypeLib@@@ATL@@QEBAPEAV?$_NoAddRefReleaseOnCComPtr@UITypeLib@@@1@XZ 000000018000b8f0 f i GestureControl.obj
 0001:0000a970       ??C?$CComPtrBase@UIUnknown@@@ATL@@QEBAPEAV?$_NoAddRefReleaseOnCComPtr@UIUnknown@@@1@XZ 000000018000b970 f i GestureControl.obj
 0001:0000a9f0       ??C?$CComPtrBase@UIViewObjectEx@@@ATL@@QEBAPEAV?$_NoAddRefReleaseOnCComPtr@UIViewObjectEx@@@1@XZ 000000018000b9f0 f i GestureControl.obj
 0001:0000aa70       ??I?$CComPtrBase@UICatRegister@@@ATL@@QEAAPEAPEAUICatRegister@@XZ 000000018000ba70 f i GestureControl.obj
 0001:0000aae0       ??I?$CComPtrBase@UIConnectionPoint@@@ATL@@QEAAPEAPEAUIConnectionPoint@@XZ 000000018000bae0 f i GestureControl.obj
 0001:0000ab50       ??I?$CComPtrBase@UIConnectionPointContainer@@@ATL@@QEAAPEAPEAUIConnectionPointContainer@@XZ 000000018000bb50 f i GestureControl.obj
 0001:0000abc0       ??I?$CComPtrBase@UIDataAdviseHolder@@@ATL@@QEAAPEAPEAUIDataAdviseHolder@@XZ 000000018000bbc0 f i GestureControl.obj
 0001:0000ac30       ??I?$CComPtrBase@UIDataObject@@@ATL@@QEAAPEAPEAUIDataObject@@XZ 000000018000bc30 f i GestureControl.obj
 0001:0000aca0       ??I?$CComPtrBase@UIDispatch@@@ATL@@QEAAPEAPEAUIDispatch@@XZ 000000018000bca0 f i GestureControl.obj
 0001:0000ad10       ??I?$CComPtrBase@UIOleAdviseHolder@@@ATL@@QEAAPEAPEAUIOleAdviseHolder@@XZ 000000018000bd10 f i GestureControl.obj
 0001:0000ad80       ??I?$CComPtrBase@UIOleControlSite@@@ATL@@QEAAPEAPEAUIOleControlSite@@XZ 000000018000bd80 f i GestureControl.obj
 0001:0000adf0       ??I?$CComPtrBase@UIOleInPlaceActiveObject@@@ATL@@QEAAPEAPEAUIOleInPlaceActiveObject@@XZ 000000018000bdf0 f i GestureControl.obj
 0001:0000ae60       ??I?$CComPtrBase@UIOleInPlaceFrame@@@ATL@@QEAAPEAPEAUIOleInPlaceFrame@@XZ 000000018000be60 f i GestureControl.obj
 0001:0000aed0       ??I?$CComPtrBase@UIOleInPlaceObject@@@ATL@@QEAAPEAPEAUIOleInPlaceObject@@XZ 000000018000bed0 f i GestureControl.obj
 0001:0000af40       ??I?$CComPtrBase@UIOleInPlaceSiteWindowless@@@ATL@@QEAAPEAPEAUIOleInPlaceSiteWindowless@@XZ 000000018000bf40 f i GestureControl.obj
 0001:0000afb0       ??I?$CComPtrBase@UIOleInPlaceUIWindow@@@ATL@@QEAAPEAPEAUIOleInPlaceUIWindow@@XZ 000000018000bfb0 f i GestureControl.obj
 0001:0000b020       ??I?$CComPtrBase@UIOleObject@@@ATL@@QEAAPEAPEAUIOleObject@@XZ 000000018000c020 f i GestureControl.obj
 0001:0000b090       ??I?$CComPtrBase@UIPersistStream@@@ATL@@QEAAPEAPEAUIPersistStream@@XZ 000000018000c090 f i GestureControl.obj
 0001:0000b100       ??I?$CComPtrBase@UIPointerInactive@@@ATL@@QEAAPEAPEAUIPointerInactive@@XZ 000000018000c100 f i GestureControl.obj
 0001:0000b170       ??I?$CComPtrBase@UIProvideClassInfo2@@@ATL@@QEAAPEAPEAUIProvideClassInfo2@@XZ 000000018000c170 f i GestureControl.obj
 0001:0000b1e0       ??I?$CComPtrBase@UIStream@@@ATL@@QEAAPEAPEAUIStream@@XZ 000000018000c1e0 f i GestureControl.obj
 0001:0000b250       ??I?$CComPtrBase@UITypeInfo2@@@ATL@@QEAAPEAPEAUITypeInfo2@@XZ 000000018000c250 f i GestureControl.obj
 0001:0000b2c0       ??I?$CComPtrBase@UITypeInfo@@@ATL@@QEAAPEAPEAUITypeInfo@@XZ 000000018000c2c0 f i GestureControl.obj
 0001:0000b330       ??I?$CComPtrBase@UITypeLib@@@ATL@@QEAAPEAPEAUITypeLib@@XZ 000000018000c330 f i GestureControl.obj
 0001:0000b3a0       ??I?$CComPtrBase@UIUnknown@@@ATL@@QEAAPEAPEAUIUnknown@@XZ 000000018000c3a0 f i GestureControl.obj
 0001:0000b410       ??I?$CComPtrBase@UIViewObjectEx@@@ATL@@QEAAPEAPEAUIViewObjectEx@@XZ 000000018000c410 f i GestureControl.obj
 0001:0000b480       ??ICComBSTR@ATL@@QEAAPEAPEA_WXZ 000000018000c480 f i GestureControl.obj
 0001:0000b490       ??_E?$CComContainedObject@VCOPOSGestureControl@@@ATL@@W7EAAPEAXI@Z 000000018000c490 f i GestureControl.obj
 0001:0000b49c       ??_E?$CComContainedObject@VCOPOSGestureControl@@@ATL@@WHA@EAAPEAXI@Z 000000018000c49c f i GestureControl.obj
 0001:0000b4a8       ??_E?$CComObject@VCOPOSGestureControl@@@ATL@@W7EAAPEAXI@Z 000000018000c4a8 f i GestureControl.obj
 0001:0000b4b4       ??_E?$CComObject@VCOPOSGestureControl@@@ATL@@WHA@EAAPEAXI@Z 000000018000c4b4 f i GestureControl.obj
 0001:0000b4c0       ??_E?$CComAggObject@VCOPOSGestureControl@@@ATL@@UEAAPEAXI@Z 000000018000c4c0 f i GestureControl.obj
 0001:0000b4c0       ??_G?$CComAggObject@VCOPOSGestureControl@@@ATL@@UEAAPEAXI@Z 000000018000c4c0 f i GestureControl.obj
 0001:0000b520       ??_G?$CComContainedObject@VCOPOSGestureControl@@@ATL@@UEAAPEAXI@Z 000000018000c520 f i GestureControl.obj
 0001:0000b520       ??_E?$CComContainedObject@VCOPOSGestureControl@@@ATL@@UEAAPEAXI@Z 000000018000c520 f i GestureControl.obj
 0001:0000b580       ??_G?$CComObject@V?$CComEnum@UIEnumConnectionPoints@@$1?_GUID_b196b285_bab4_101a_b69c_00aa00341d07@@3U__s_GUID@@BPEAUIConnectionPoint@@V?$_CopyInterface@UIConnectionPoint@@@ATL@@VCComSingleThreadModel@6@@ATL@@@ATL@@UEAAPEAXI@Z 000000018000c580 f i GestureControl.obj
 0001:0000b580       ??_E?$CComObject@V?$CComEnum@UIEnumConnectionPoints@@$1?_GUID_b196b285_bab4_101a_b69c_00aa00341d07@@3U__s_GUID@@BPEAUIConnectionPoint@@V?$_CopyInterface@UIConnectionPoint@@@ATL@@VCComSingleThreadModel@6@@ATL@@@ATL@@UEAAPEAXI@Z 000000018000c580 f i GestureControl.obj
 0001:0000b5e0       ??_G?$CComObject@V?$CComEnum@UIEnumConnections@@$1?_GUID_b196b287_bab4_101a_b69c_00aa00341d07@@3U__s_GUID@@BUtagCONNECTDATA@@V?$_Copy@UtagCONNECTDATA@@@ATL@@VCComSingleThreadModel@6@@ATL@@@ATL@@UEAAPEAXI@Z 000000018000c5e0 f i GestureControl.obj
 0001:0000b5e0       ??_E?$CComObject@V?$CComEnum@UIEnumConnections@@$1?_GUID_b196b287_bab4_101a_b69c_00aa00341d07@@3U__s_GUID@@BUtagCONNECTDATA@@V?$_Copy@UtagCONNECTDATA@@@ATL@@VCComSingleThreadModel@6@@ATL@@@ATL@@UEAAPEAXI@Z 000000018000c5e0 f i GestureControl.obj
 0001:0000b640       ??_G?$CComObject@VCOPOSGestureControl@@@ATL@@UEAAPEAXI@Z 000000018000c640 f i GestureControl.obj
 0001:0000b640       ??_E?$CComObject@VCOPOSGestureControl@@@ATL@@UEAAPEAXI@Z 000000018000c640 f i GestureControl.obj
 0001:0000b6a0       ??_E?$CComObjectCached@VCComClassFactory@ATL@@@ATL@@UEAAPEAXI@Z 000000018000c6a0 f i GestureControl.obj
 0001:0000b6a0       ??_G?$CComObjectCached@VCComClassFactory@ATL@@@ATL@@UEAAPEAXI@Z 000000018000c6a0 f i GestureControl.obj
 0001:0000b700       ??_ECComClassFactory@ATL@@UEAAPEAXI@Z 000000018000c700 f i GestureControl.obj
 0001:0000b700       ??_GCComClassFactory@ATL@@UEAAPEAXI@Z 000000018000c700 f i GestureControl.obj
 0001:0000b760       ??_ECComModule@ATL@@UEAAPEAXI@Z 000000018000c760 f i GestureControl.obj
 0001:0000b760       ??_GCComModule@ATL@@UEAAPEAXI@Z 000000018000c760 f i GestureControl.obj
 0001:0000b7c0       ??_GCRegObject@ATL@@UEAAPEAXI@Z 000000018000c7c0 f i GestureControl.obj
 0001:0000b7c0       ??_ECRegObject@ATL@@UEAAPEAXI@Z 000000018000c7c0 f i GestureControl.obj
 0001:0000b820       ?Add@?$CSimpleArray@GV?$CSimpleArrayEqualHelper@G@ATL@@@ATL@@QEAAHAEBG@Z 000000018000c820 f i GestureControl.obj
 0001:0000b9c0       ?Add@?$CSimpleMap@PEA_WPEA_WVCExpansionVectorEqualHelper@ATL@@@ATL@@QEAAHAEBQEA_W0@Z 000000018000c9c0 f i GestureControl.obj
 0001:0000bab0       ?Add@CComDynamicUnkArray@ATL@@QEAAKPEAUIUnknown@@@Z 000000018000cab0 f i GestureControl.obj
 0001:0000bc90       ?Add@CExpansionVector@ATL@@QEAAHPEB_W0@Z 000000018000cc90 f i GestureControl.obj
 0001:0000bfc0       ?AddChar@CParseBuffer@CRegParser@ATL@@QEAAHPEB_W@Z 000000018000cfc0 f i GestureControl.obj
 0001:0000c010       ?AddCommonRGSReplacements@?$CAtlModuleT@VCComModule@ATL@@@ATL@@UEAAJPEAUIRegistrarBase@@@Z 000000018000d010 f i GestureControl.obj
 0001:0000c070       ?AddCreateWndData@CAtlWinModule@ATL@@QEAAXPEAU_AtlCreateWndData@2@PEAX@Z 000000018000d070 f i GestureControl.obj
 0001:0000c0c0       ?AddRef@?$CComAggObject@VCOPOSGestureControl@@@ATL@@UEAAKXZ 000000018000d0c0 f i GestureControl.obj
 0001:0000c100       ?AddRef@?$CComContainedObject@VCOPOSGestureControl@@@ATL@@UEAAKXZ 000000018000d100 f i GestureControl.obj
 0001:0000c138       ?AddRef@?$CComContainedObject@VCOPOSGestureControl@@@ATL@@WBAA@EAAKXZ 000000018000d138 f i GestureControl.obj
 0001:0000c144       ?AddRef@?$CComContainedObject@VCOPOSGestureControl@@@ATL@@WBAI@EAAKXZ 000000018000d144 f i GestureControl.obj
 0001:0000c150       ?AddRef@?$CComContainedObject@VCOPOSGestureControl@@@ATL@@WBBA@EAAKXZ 000000018000d150 f i GestureControl.obj
 0001:0000c15c       ?AddRef@?$CComContainedObject@VCOPOSGestureControl@@@ATL@@WBBI@EAAKXZ 000000018000d15c f i GestureControl.obj
 0001:0000c168       ?AddRef@?$CComContainedObject@VCOPOSGestureControl@@@ATL@@WBCI@EAAKXZ 000000018000d168 f i GestureControl.obj
 0001:0000c174       ?AddRef@?$CComContainedObject@VCOPOSGestureControl@@@ATL@@WBEA@EAAKXZ 000000018000d174 f i GestureControl.obj
 0001:0000c180       ?AddRef@?$CComContainedObject@VCOPOSGestureControl@@@ATL@@WLI@EAAKXZ 000000018000d180 f i GestureControl.obj
 0001:0000c18c       ?AddRef@?$CComContainedObject@VCOPOSGestureControl@@@ATL@@WMA@EAAKXZ 000000018000d18c f i GestureControl.obj
 0001:0000c198       ?AddRef@?$CComContainedObject@VCOPOSGestureControl@@@ATL@@WMI@EAAKXZ 000000018000d198 f i GestureControl.obj
 0001:0000c1a4       ?AddRef@?$CComContainedObject@VCOPOSGestureControl@@@ATL@@WNA@EAAKXZ 000000018000d1a4 f i GestureControl.obj
 0001:0000c1b0       ?AddRef@?$CComContainedObject@VCOPOSGestureControl@@@ATL@@WNI@EAAKXZ 000000018000d1b0 f i GestureControl.obj
 0001:0000c1bc       ?AddRef@?$CComContainedObject@VCOPOSGestureControl@@@ATL@@WOA@EAAKXZ 000000018000d1bc f i GestureControl.obj
 0001:0000c1c8       ?AddRef@?$CComContainedObject@VCOPOSGestureControl@@@ATL@@WOI@EAAKXZ 000000018000d1c8 f i GestureControl.obj
 0001:0000c1d4       ?AddRef@?$CComContainedObject@VCOPOSGestureControl@@@ATL@@WPA@EAAKXZ 000000018000d1d4 f i GestureControl.obj
 0001:0000c1e0       ?AddRef@?$CComContainedObject@VCOPOSGestureControl@@@ATL@@WPI@EAAKXZ 000000018000d1e0 f i GestureControl.obj
 0001:0000c1f0       ?AddRef@?$CComObject@V?$CComEnum@UIEnumConnectionPoints@@$1?_GUID_b196b285_bab4_101a_b69c_00aa00341d07@@3U__s_GUID@@BPEAUIConnectionPoint@@V?$_CopyInterface@UIConnectionPoint@@@ATL@@VCComSingleThreadModel@6@@ATL@@@ATL@@UEAAKXZ 000000018000d1f0 f i GestureControl.obj
 0001:0000c230       ?AddRef@?$CComObject@V?$CComEnum@UIEnumConnections@@$1?_GUID_b196b287_bab4_101a_b69c_00aa00341d07@@3U__s_GUID@@BUtagCONNECTDATA@@V?$_Copy@UtagCONNECTDATA@@@ATL@@VCComSingleThreadModel@6@@ATL@@@ATL@@UEAAKXZ 000000018000d230 f i GestureControl.obj
 0001:0000c270       ?AddRef@?$CComObject@VCOPOSGestureControl@@@ATL@@UEAAKXZ 000000018000d270 f i GestureControl.obj
 0001:0000c2a8       ?AddRef@?$CComObject@VCOPOSGestureControl@@@ATL@@WBAA@EAAKXZ 000000018000d2a8 f i GestureControl.obj
 0001:0000c2b4       ?AddRef@?$CComObject@VCOPOSGestureControl@@@ATL@@WBAI@EAAKXZ 000000018000d2b4 f i GestureControl.obj
 0001:0000c2c0       ?AddRef@?$CComObject@VCOPOSGestureControl@@@ATL@@WBBA@EAAKXZ 000000018000d2c0 f i GestureControl.obj
 0001:0000c2cc       ?AddRef@?$CComObject@VCOPOSGestureControl@@@ATL@@WBBI@EAAKXZ 000000018000d2cc f i GestureControl.obj
 0001:0000c2d8       ?AddRef@?$CComObject@VCOPOSGestureControl@@@ATL@@WBCI@EAAKXZ 000000018000d2d8 f i GestureControl.obj
 0001:0000c2e4       ?AddRef@?$CComObject@VCOPOSGestureControl@@@ATL@@WBEA@EAAKXZ 000000018000d2e4 f i GestureControl.obj
 0001:0000c2f0       ?AddRef@?$CComObject@VCOPOSGestureControl@@@ATL@@WLI@EAAKXZ 000000018000d2f0 f i GestureControl.obj
 0001:0000c2fc       ?AddRef@?$CComObject@VCOPOSGestureControl@@@ATL@@WMA@EAAKXZ 000000018000d2fc f i GestureControl.obj
 0001:0000c308       ?AddRef@?$CComObject@VCOPOSGestureControl@@@ATL@@WMI@EAAKXZ 000000018000d308 f i GestureControl.obj
 0001:0000c314       ?AddRef@?$CComObject@VCOPOSGestureControl@@@ATL@@WNA@EAAKXZ 000000018000d314 f i GestureControl.obj
 0001:0000c320       ?AddRef@?$CComObject@VCOPOSGestureControl@@@ATL@@WNI@EAAKXZ 000000018000d320 f i GestureControl.obj
 0001:0000c32c       ?AddRef@?$CComObject@VCOPOSGestureControl@@@ATL@@WOA@EAAKXZ 000000018000d32c f i GestureControl.obj
 0001:0000c338       ?AddRef@?$CComObject@VCOPOSGestureControl@@@ATL@@WOI@EAAKXZ 000000018000d338 f i GestureControl.obj
 0001:0000c344       ?AddRef@?$CComObject@VCOPOSGestureControl@@@ATL@@WPA@EAAKXZ 000000018000d344 f i GestureControl.obj
 0001:0000c350       ?AddRef@?$CComObject@VCOPOSGestureControl@@@ATL@@WPI@EAAKXZ 000000018000d350 f i GestureControl.obj
 0001:0000c360       ?AddRef@?$CComObjectCached@VCComClassFactory@ATL@@@ATL@@UEAAKXZ 000000018000d360 f i GestureControl.obj
 0001:0000c3c0       ?AddRef@CRegObject@ATL@@UEAAKXZ 000000018000d3c0 f i GestureControl.obj
 0001:0000c430       ?AddReplacement@CRegObject@ATL@@UEAAJPEB_W0@Z 000000018000d430 f i GestureControl.obj
 0001:0000c560       ?AddString@CParseBuffer@CRegParser@ATL@@QEAAHPEB_W@Z 000000018000d560 f i GestureControl.obj
 0001:0000c650       ?AddTermFunc@CAtlModule@ATL@@QEAAJP6AX_K@Z0@Z 000000018000d650 f i GestureControl.obj
 0001:0000c6c0       ?AddValue@CRegParser@ATL@@IEAAJAEAVCRegKey@2@PEB_WPEA_W@Z 000000018000d6c0 f i GestureControl.obj
 0001:0000cf90       ?Advise@?$CProxy_IOPOSEvents@VCOPOSGestureControl@@@@UEAAJPEAUIUnknown@@PEAK@Z 000000018000df90 f i GestureControl.obj
 0001:0000d000       ?Advise@?$IConnectionPointImpl@VCOPOSGestureControl@@$1?DIID__IOPOSGestureControlEvents@@3U_GUID@@BVCComDynamicUnkArray@ATL@@@ATL@@UEAAJPEAUIUnknown@@PEAK@Z 000000018000e000 f i GestureControl.obj
 0001:0000d200       ?Advise@?$IConnectionPointImpl@VCOPOSGestureControl@@$1?IID_IPropertyNotifySink@@3U_GUID@@BVCComDynamicUnkArray@ATL@@@ATL@@UEAAJPEAUIUnknown@@PEAK@Z 000000018000e200 f i GestureControl.obj
 0001:0000d400       ?Advise@?$IOleObjectImpl@VCOPOSGestureControl@@@ATL@@UEAAJPEAUIAdviseSink@@PEAK@Z 000000018000e400 f i GestureControl.obj
 0001:0000d4c0       ?Allocate@?$CAtlSafeAllocBufferManager@VCCRTAllocator@ATL@@@_ATL_SAFE_ALLOCA_IMPL@ATL@@QEAAPEAX_K@Z 000000018000e4c0 f i GestureControl.obj
 0001:0000d540       ?Allocate@?$CTempBuffer@E$0BAA@VCCRTAllocator@ATL@@@ATL@@QEAAPEAE_K@Z 000000018000e540 f i GestureControl.obj
 0001:0000d590       ?Allocate@?$CTempBuffer@_W$0BAA@VCCRTAllocator@ATL@@@ATL@@QEAAPEA_W_K@Z 000000018000e590 f i GestureControl.obj
 0001:0000d5e0       ?Allocate@?$CTempBuffer@_W$0EAA@VCCRTAllocator@ATL@@@ATL@@QEAAPEA_W_K@Z 000000018000e5e0 f i GestureControl.obj
 0001:0000d630       ?AllocateBytes@?$CTempBuffer@E$0BAA@VCCRTAllocator@ATL@@@ATL@@QEAAPEAE_K@Z 000000018000e630 f i GestureControl.obj
 0001:0000d6e0       ?AllocateBytes@?$CTempBuffer@_W$0BAA@VCCRTAllocator@ATL@@@ATL@@QEAAPEA_W_K@Z 000000018000e6e0 f i GestureControl.obj
 0001:0000d790       ?AllocateBytes@?$CTempBuffer@_W$0EAA@VCCRTAllocator@ATL@@@ATL@@QEAAPEA_W_K@Z 000000018000e790 f i GestureControl.obj
 0001:0000d840       ?AllocateHeap@?$CTempBuffer@E$0BAA@VCCRTAllocator@ATL@@@ATL@@AEAAX_K@Z 000000018000e840 f i GestureControl.obj
 0001:0000d8a0       ?AllocateHeap@?$CTempBuffer@_W$0BAA@VCCRTAllocator@ATL@@@ATL@@AEAAX_K@Z 000000018000e8a0 f i GestureControl.obj
 0001:0000d900       ?AllocateHeap@?$CTempBuffer@_W$0EAA@VCCRTAllocator@ATL@@@ATL@@AEAAX_K@Z 000000018000e900 f i GestureControl.obj
 0001:0000d960       ?Append@CParseBuffer@CRegParser@ATL@@QEAAHPEB_WH@Z 000000018000e960 f i GestureControl.obj
 0001:0000db90       ?AtlCallTermFunc@ATL@@YAXPEAU_ATL_MODULE70@1@@Z 000000018000eb90 f i GestureControl.obj
 0001:0000dc40       ?AtlCoTaskMemCAlloc@ATL@@YAPEAXKK@Z 000000018000ec40 f i GestureControl.obj
 0001:0000dcc0       ?AtlCoTaskMemRecalloc@ATL@@YAPEAXPEAXKK@Z 000000018000ecc0 f i GestureControl.obj
 0001:0000dd40       ?AtlComModuleGetClassObject@ATL@@YAJPEAU_ATL_COM_MODULE70@1@AEBU_GUID@@1PEAPEAX@Z 000000018000ed40 f i GestureControl.obj
 0001:0000e070       ?AtlComModuleRegisterServer@ATL@@YAJPEAU_ATL_COM_MODULE70@1@HPEBU_GUID@@@Z 000000018000f070 f i GestureControl.obj
 0001:0000e270       ?AtlComModuleUnregisterServer@ATL@@YAJPEAU_ATL_COM_MODULE70@1@HPEBU_GUID@@@Z 000000018000f270 f i GestureControl.obj
 0001:0000e3d0       ?AtlComQIPtrAssign2@ATL@@YAXPEAPEAUIUnknown@@PEAU2@AEBU_GUID@@@Z 000000018000f3d0 f i GestureControl.obj
 0001:0000e460       ?AtlCreateTargetDC@ATL@@YAPEAUHDC__@@PEAU2@PEAUtagDVTARGETDEVICE@@@Z 000000018000f460 f i GestureControl.obj
 0001:0000e690       ?AtlCrtErrorCheck@ATL@@YAHH@Z 000000018000f690 f i GestureControl.obj
 0001:0000e710       ?AtlGetPerUserRegistration@ATL@@YAJPEA_N@Z 000000018000f710 f i GestureControl.obj
 0001:0000e740       ?AtlHiMetricToPixel@ATL@@YAXPEBUtagSIZE@@PEAU2@@Z 000000018000f740 f i GestureControl.obj
 0001:0000e940       ?AtlHresultFromLastError@ATL@@YAJXZ 000000018000f940 f i GestureControl.obj
 0001:0000e970       ?AtlHresultFromWin32@ATL@@YAJK@Z 000000018000f970 f i GestureControl.obj
 0001:0000e9a0       ?AtlIPersistStreamInit_Load@ATL@@YAJPEAUIStream@@PEBUATL_PROPMAP_ENTRY@1@PEAXPEAUIUnknown@@@Z 000000018000f9a0 f i GestureControl.obj
 0001:0000f010       ?AtlIPersistStreamInit_Save@ATL@@YAJPEAUIStream@@HPEBUATL_PROPMAP_ENTRY@1@PEAXPEAUIUnknown@@@Z 0000000180010010 f i GestureControl.obj
 0001:0000f5a0       ?AtlInternalOleLoadFromStream@ATL@@YAJPEAUIStream@@AEBU_GUID@@PEAPEAXTClassesAllowedInStream@1@K@Z 00000001800105a0 f i GestureControl.obj
 0001:0000f8e0       ?AtlInternalQueryInterface@ATL@@YAJPEAXPEBU_ATL_INTMAP_ENTRY@1@AEBU_GUID@@PEAPEAX@Z 00000001800108e0 f i GestureControl.obj
 0001:0000fba0       ?AtlLoadTypeLib@ATL@@YAJPEAUHINSTANCE__@@PEB_WPEAPEA_WPEAPEAUITypeLib@@@Z 0000000180010ba0 f i GestureControl.obj
 0001:00010070       ?AtlModuleAddTermFunc@ATL@@YAJPEAU_ATL_MODULE70@1@P6AX_K@Z1@Z 0000000180011070 f i GestureControl.obj
 0001:00010240       ?AtlRegisterClassCategoriesHelper@ATL@@YAJAEBU_GUID@@PEBU_ATL_CATMAP_ENTRY@1@H@Z 0000000180011240 f i GestureControl.obj
 0001:00010a10       ?AtlRegisterTypeLib@ATL@@YAJPEAUHINSTANCE__@@PEB_W@Z 0000000180011a10 f i GestureControl.obj
 0001:00010d70       ?AtlThrowImpl@ATL@@YAXJ@Z  0000000180011d70 f i GestureControl.obj
 0001:00010e50       ?AtlUnRegisterTypeLib@ATL@@YAJPEAUHINSTANCE__@@PEB_W@Z 0000000180011e50 f i GestureControl.obj
 0001:00011080       ?AtlWinModuleAddCreateWndData@ATL@@YAXPEAU_ATL_WIN_MODULE70@1@PEAU_AtlCreateWndData@1@PEAX@Z 0000000180012080 f i GestureControl.obj
 0001:00011270       ?AtlWinModuleExtractCreateWndData@ATL@@YAPEAXPEAU_ATL_WIN_MODULE70@1@@Z 0000000180012270 f i GestureControl.obj
 0001:00011470       ?AtlWinModuleRegisterClassExW@ATL@@YAGPEAU_ATL_WIN_MODULE70@1@PEBUtagWNDCLASSEXW@@@Z 0000000180012470 f i GestureControl.obj
 0001:00011540       ?AtlWinModuleRegisterWndClassInfoW@ATL@@YAGPEAU_ATL_WIN_MODULE70@1@PEAU_ATL_BASE_MODULE70@1@PEAU_ATL_WNDCLASSINFOW@1@PEAP6A_JPEAUHWND__@@I_K_J@Z@Z 0000000180012540 f i GestureControl.obj
 0001:000115b0       ?Attach@?$CAutoVectorPtr@_W@ATL@@QEAAXPEA_W@Z 00000001800125b0 f i GestureControl.obj
 0001:00011640       ?Attach@CComBSTR@ATL@@QEAAXPEA_W@Z 0000000180012640 f i GestureControl.obj
 0001:000116a0       ?Attach@CRegKey@ATL@@QEAAXPEAUHKEY__@@@Z 00000001800126a0 f i GestureControl.obj
 0001:00011740       ?CanForceRemoveKey@CRegParser@ATL@@IEAAHPEB_W@Z 0000000180012740 f i GestureControl.obj
 0001:000117b0       ?ChToByte@CRegParser@ATL@@KAE_W@Z 00000001800127b0 f i GestureControl.obj
 0001:00011910       ?ChangeType@CComVariant@ATL@@QEAAJGPEBUtagVARIANT@@@Z 0000000180012910 f i GestureControl.obj
 0001:00011980       ?Cleanup@CComTypeInfoHolder@ATL@@SAX_K@Z 0000000180012980 f i GestureControl.obj
 0001:00011a70       ?Clear@CComVariant@ATL@@QEAAJXZ 0000000180012a70 f i GestureControl.obj
 0001:00011aa0       ?ClearReplacements@CExpansionVector@ATL@@QEAAJXZ 0000000180012aa0 f i GestureControl.obj
 0001:00011b40       ?ClearReplacements@CRegObject@ATL@@UEAAJXZ 0000000180012b40 f i GestureControl.obj
 0001:00011ba0       ?Clone@?$CComEnumImpl@UIEnumConnectionPoints@@$1?_GUID_b196b285_bab4_101a_b69c_00aa00341d07@@3U__s_GUID@@BPEAUIConnectionPoint@@V?$_CopyInterface@UIConnectionPoint@@@ATL@@@ATL@@UEAAJPEAPEAUIEnumConnectionPoints@@@Z 0000000180012ba0 f i GestureControl.obj
 0001:00011d90       ?Clone@?$CComEnumImpl@UIEnumConnections@@$1?_GUID_b196b287_bab4_101a_b69c_00aa00341d07@@3U__s_GUID@@BUtagCONNECTDATA@@V?$_Copy@UtagCONNECTDATA@@@ATL@@@ATL@@UEAAJPEAPEAUIEnumConnections@@@Z 0000000180012d90 f i GestureControl.obj
 0001:00011f80       ?Close@?$IOleObjectImpl@VCOPOSGestureControl@@@ATL@@UEAAJK@Z 0000000180012f80 f i GestureControl.obj
 0001:00012030       ?Close@CRegKey@ATL@@QEAAJXZ 0000000180013030 f i GestureControl.obj
 0001:000120a0       ?ContextSensitiveHelp@?$IOleInPlaceActiveObjectImpl@VCOPOSGestureControl@@@ATL@@UEAAJH@Z 00000001800130a0 f i GestureControl.obj
 0001:00012120       ?ContextSensitiveHelp@?$IOleInPlaceObjectWindowlessImpl@VCOPOSGestureControl@@@ATL@@UEAAJH@Z 0000000180013120 f i GestureControl.obj
 0001:000121a0       ?ControlQueryInterface@?$CComControl@VCOPOSGestureControl@@V?$CWindowImpl@VCOPOSGestureControl@@VCWindow@ATL@@V?$CWinTraits@$0FGAAAAAA@$0A@@3@@ATL@@@ATL@@UEAAJAEBU_GUID@@PEAPEAX@Z 00000001800131a0 f i GestureControl.obj
 0001:00012230       ?CreateControlWindow@?$CComControl@VCOPOSGestureControl@@V?$CWindowImpl@VCOPOSGestureControl@@VCWindow@ATL@@V?$CWinTraits@$0FGAAAAAA@$0A@@3@@ATL@@@ATL@@UEAAPEAUHWND__@@PEAU3@AEAUtagRECT@@@Z 0000000180013230 f i GestureControl.obj
 0001:00012320       ?CreateInstance@?$CComCreator@V?$CComAggObject@VCOPOSGestureControl@@@ATL@@@ATL@@SAJPEAXAEBU_GUID@@PEAPEAX@Z 0000000180013320 f i GestureControl.obj
 0001:00012500       ?CreateInstance@?$CComCreator@V?$CComObject@VCOPOSGestureControl@@@ATL@@@ATL@@SAJPEAXAEBU_GUID@@PEAPEAX@Z 0000000180013500 f i GestureControl.obj
 0001:00012700       ?CreateInstance@?$CComObject@V?$CComEnum@UIEnumConnectionPoints@@$1?_GUID_b196b285_bab4_101a_b69c_00aa00341d07@@3U__s_GUID@@BPEAUIConnectionPoint@@V?$_CopyInterface@UIConnectionPoint@@@ATL@@VCComSingleThreadModel@6@@ATL@@@ATL@@SAJPEAPEAV12@@Z 0000000180013700 f i GestureControl.obj
 0001:000128c0       ?CreateInstance@?$CComObject@V?$CComEnum@UIEnumConnections@@$1?_GUID_b196b287_bab4_101a_b69c_00aa00341d07@@3U__s_GUID@@BUtagCONNECTDATA@@V?$_Copy@UtagCONNECTDATA@@@ATL@@VCComSingleThreadModel@6@@ATL@@@ATL@@SAJPEAPEAV12@@Z 00000001800138c0 f i GestureControl.obj
 0001:00012a80       ?CreateInstance@CComClassFactory@ATL@@UEAAJPEAUIUnknown@@AEBU_GUID@@PEAPEAX@Z 0000000180013a80 f i GestureControl.obj
 0001:00012ba0       ?DAdvise@?$IDataObjectImpl@VCOPOSGestureControl@@@ATL@@UEAAJPEAUtagFORMATETC@@KPEAUIAdviseSink@@PEAK@Z 0000000180013ba0 f i GestureControl.obj
 0001:00012d00       ?DEVMODEOLE2T_EX@@YAPEAU_devicemodeW@@PEAU1@@Z 0000000180013d00 f i GestureControl.obj
 0001:00012d10       ?DUnadvise@?$IDataObjectImpl@VCOPOSGestureControl@@@ATL@@UEAAJK@Z 0000000180013d10 f i GestureControl.obj
 0001:00012e10       ?Decrement@CComMultiThreadModel@ATL@@SAKPEAJ@Z 0000000180013e10 f i GestureControl.obj
 0001:00012e30       ?Decrement@CComSingleThreadModel@ATL@@SAKPEAJ@Z 0000000180013e30 f i GestureControl.obj
 0001:00012e50       ?DefWindowProcW@?$CWindowImplBaseT@VCWindow@ATL@@V?$CWinTraits@$0FGAAAAAA@$0A@@2@@ATL@@QEAA_JI_K_J@Z 0000000180013e50 f i GestureControl.obj
 0001:00012eb0       ?DefaultReflectionHandler@?$CWindowImplRoot@VCWindow@ATL@@@ATL@@SAHPEAUHWND__@@I_K_JAEA_J@Z 0000000180013eb0 f i GestureControl.obj
 0001:00012fa0       ?DeleteSubKey@CRegKey@ATL@@QEAAJPEB_W@Z 0000000180013fa0 f i GestureControl.obj
 0001:000130d0       ?DeleteValue@CRegKey@ATL@@QEAAJPEB_W@Z 00000001800140d0 f i GestureControl.obj
 0001:00013160       ?Detach@?$CAutoVectorPtr@_W@ATL@@QEAAPEA_WXZ 0000000180014160 f i GestureControl.obj
 0001:000131a0       ?Detach@?$CComPtrBase@UIPersistStream@@@ATL@@QEAAPEAUIPersistStream@@XZ 00000001800141a0 f i GestureControl.obj
 0001:000131e0       ?Detach@?$CComPtrBase@UITypeInfo@@@ATL@@QEAAPEAUITypeInfo@@XZ 00000001800141e0 f i GestureControl.obj
 0001:00013220       ?Detach@?$CComPtrBase@UIUnknown@@@ATL@@QEAAPEAUIUnknown@@XZ 0000000180014220 f i GestureControl.obj
 0001:00013260       ?Detach@CComBSTR@ATL@@QEAAPEA_WXZ 0000000180014260 f i GestureControl.obj
 0001:000132a0       ?Detach@CParseBuffer@CRegParser@ATL@@QEAAPEA_WXZ 00000001800142a0 f i GestureControl.obj
 0001:00013300       ?Detach@CRegKey@ATL@@QEAAPEAUHKEY__@@XZ 0000000180014300 f i GestureControl.obj
 0001:00013360       ?DoEvent@COPOSGestureControl@@IEAAXI_K_J@Z 0000000180014360 f i GestureControl.obj
 0001:000134a0       ?DoVerb@?$IOleObjectImpl@VCOPOSGestureControl@@@ATL@@UEAAJJPEAUtagMSG@@PEAUIOleClientSite@@JPEAUHWND__@@PEBUtagRECT@@@Z 00000001800144a0 f i GestureControl.obj
 0001:000137b0       ?DoVerbDiscardUndo@?$IOleObjectImpl@VCOPOSGestureControl@@@ATL@@QEAAJPEBUtagRECT@@PEAUHWND__@@@Z 00000001800147b0 f i GestureControl.obj
 0001:00013850       ?DoVerbHide@?$IOleObjectImpl@VCOPOSGestureControl@@@ATL@@QEAAJPEBUtagRECT@@PEAUHWND__@@@Z 0000000180014850 f i GestureControl.obj
 0001:00013930       ?DoVerbInPlaceActivate@?$IOleObjectImpl@VCOPOSGestureControl@@@ATL@@QEAAJPEBUtagRECT@@PEAUHWND__@@@Z 0000000180014930 f i GestureControl.obj
 0001:00013a10       ?DoVerbOpen@?$IOleObjectImpl@VCOPOSGestureControl@@@ATL@@QEAAJPEBUtagRECT@@PEAUHWND__@@@Z 0000000180014a10 f i GestureControl.obj
 0001:00013ab0       ?DoVerbPrimary@?$IOleObjectImpl@VCOPOSGestureControl@@@ATL@@QEAAJPEBUtagRECT@@PEAUHWND__@@@Z 0000000180014ab0 f i GestureControl.obj
 0001:00013bf0       ?DoVerbProperties@CComControlBase@ATL@@QEAAJPEBUtagRECT@@PEAUHWND__@@@Z 0000000180014bf0 f i GestureControl.obj
 0001:00013fa0       ?DoVerbShow@?$IOleObjectImpl@VCOPOSGestureControl@@@ATL@@QEAAJPEBUtagRECT@@PEAUHWND__@@@Z 0000000180014fa0 f i GestureControl.obj
 0001:00014060       ?DoVerbUIActivate@?$IOleObjectImpl@VCOPOSGestureControl@@@ATL@@QEAAJPEBUtagRECT@@PEAUHWND__@@@Z 0000000180015060 f i GestureControl.obj
 0001:00014140       ?DoesVerbActivate@CComControlBase@ATL@@QEAAHJ@Z 0000000180015140 f i GestureControl.obj
 0001:000141a0       ?DoesVerbUIActivate@CComControlBase@ATL@@QEAAHJ@Z 00000001800151a0 f i GestureControl.obj
 0001:00014220       ?Draw@?$IViewObjectExImpl@VCOPOSGestureControl@@@ATL@@UEAAJKJPEAXPEAUtagDVTARGETDEVICE@@PEAUHDC__@@2PEBU_RECTL@@3P6AH_K@Z4@Z 0000000180015220 f i GestureControl.obj
 0001:00014340       ?Empty@CComBSTR@ATL@@QEAAXXZ 0000000180015340 f i GestureControl.obj
 0001:00014380       ?EnableModeless@?$IOleInPlaceActiveObjectImpl@VCOPOSGestureControl@@@ATL@@UEAAJH@Z 0000000180015380 f i GestureControl.obj
 0001:000143f0       ?EndOfVar@CRegParser@ATL@@IEAAHXZ 00000001800153f0 f i GestureControl.obj
 0001:00014450       ?EnsureTI@CComTypeInfoHolder@ATL@@QEAAJK@Z 0000000180015450 f i GestureControl.obj
 0001:000144b0       ?EnumAdvise@?$IOleObjectImpl@VCOPOSGestureControl@@@ATL@@UEAAJPEAPEAUIEnumSTATDATA@@@Z 00000001800154b0 f i GestureControl.obj
 0001:00014610       ?EnumConnectionPoints@?$IConnectionPointContainerImpl@VCOPOSGestureControl@@@ATL@@UEAAJPEAPEAUIEnumConnectionPoints@@@Z 0000000180015610 f i GestureControl.obj
 0001:00014b00       ?EnumConnections@?$IConnectionPointImpl@VCOPOSGestureControl@@$1?DIID__IOPOSGestureControlEvents@@3U_GUID@@BVCComDynamicUnkArray@ATL@@@ATL@@UEAAJPEAPEAUIEnumConnections@@@Z 0000000180015b00 f i GestureControl.obj
 0001:00014e50       ?EnumConnections@?$IConnectionPointImpl@VCOPOSGestureControl@@$1?IID_IPropertyNotifySink@@3U_GUID@@BVCComDynamicUnkArray@ATL@@@ATL@@UEAAJPEAPEAUIEnumConnections@@@Z 0000000180015e50 f i GestureControl.obj
 0001:000151a0       ?EnumDAdvise@?$IDataObjectImpl@VCOPOSGestureControl@@@ATL@@UEAAJPEAPEAUIEnumSTATDATA@@@Z 00000001800161a0 f i GestureControl.obj
 0001:000152f0       ?EnumFormatEtc@?$IDataObjectImpl@VCOPOSGestureControl@@@ATL@@UEAAJKPEAPEAUIEnumFORMATETC@@@Z 00000001800162f0 f i GestureControl.obj
 0001:00015380       ?EnumVerbs@?$IOleObjectImpl@VCOPOSGestureControl@@@ATL@@UEAAJPEAPEAUIEnumOLEVERB@@@Z 0000000180016380 f i GestureControl.obj
 0001:00015450       ?EscapeSingleQuote@CAtlModule@ATL@@SAXPEA_W_KPEB_W@Z 0000000180016450 f i GestureControl.obj
 0001:00015550       ?ExtractCreateWndData@CAtlWinModule@ATL@@QEAAPEAXXZ 0000000180016550 f i GestureControl.obj
 0001:00015580       ?FAccessAllowed@?$IObjectSafetyImpl@VCOPOSGestureControl@@$02@ATL@@MEAAHXZ 0000000180016580 f i GestureControl.obj
 0001:00015590       ?FinalConstruct@?$CComAggObject@VCOPOSGestureControl@@@ATL@@QEAAJXZ 0000000180016590 f i GestureControl.obj
 0001:000155e0       ?FinalConstruct@CComObjectRootBase@ATL@@QEAAJXZ 00000001800165e0 f i GestureControl.obj
 0001:000155f0       ?FinalConstruct@CRegObject@ATL@@QEAAJXZ 00000001800165f0 f i GestureControl.obj
 0001:00015630       ?FinalRelease@?$CComAggObject@VCOPOSGestureControl@@@ATL@@QEAAXXZ 0000000180016630 f i GestureControl.obj
 0001:00015680       ?FinalRelease@CComObjectRootBase@ATL@@QEAAXXZ 0000000180016680 f i GestureControl.obj
 0001:00015690       ?FindConnectionPoint@?$IConnectionPointContainerImpl@VCOPOSGestureControl@@@ATL@@UEAAJAEBU_GUID@@PEAPEAUIConnectionPoint@@@Z 0000000180016690 f i GestureControl.obj
 0001:00015800       ?FindKey@?$CSimpleMap@PEA_WPEA_WVCExpansionVectorEqualHelper@ATL@@@ATL@@QEBAHAEBQEA_W@Z 0000000180016800 f i GestureControl.obj
 0001:00015880       ?FireTheEvent@?$CProxy_IOPOSEvents@VCOPOSGestureControl@@@@IEAAXPEAUIUnknown@@PEAVOposVariant@@IAEAJPEB_WJ@Z 0000000180016880 f i GestureControl.obj
 0001:00015a60       ?FireViewChange@CComControlBase@ATL@@QEAAJXZ 0000000180016a60 f i GestureControl.obj
 0001:00015b40       ?Fire_DirectIOEvent@?$CProxy_IOPOSEvents@VCOPOSGestureControl@@@@QEAAXJPEAJPEAPEA_W@Z 0000000180016b40 f i GestureControl.obj
 0001:00015dd0       ?Fire_ErrorEvent@?$CProxy_IOPOSEvents@VCOPOSGestureControl@@@@QEAAXJJJPEAJ@Z 0000000180016dd0 f i GestureControl.obj
 0001:00016080       ?Fire_OutputCompleteEvent@?$CProxy_IOPOSEvents@VCOPOSGestureControl@@@@QEAAXJ@Z 0000000180017080 f i GestureControl.obj
 0001:00016270       ?Fire_StatusUpdateEvent@?$CProxy_IOPOSEvents@VCOPOSGestureControl@@@@QEAAXJ@Z 0000000180017270 f i GestureControl.obj
 0001:00016460       ?FormatWindowClassName@AtlModuleRegisterWndClassInfoParamW@ATL@@SAXPEA_WKPEAX@Z 0000000180017460 f i GestureControl.obj
 0001:000164b0       ?Free@?$CAutoVectorPtr@_W@ATL@@QEAAXXZ 00000001800174b0 f i GestureControl.obj
 0001:00016500       ?FreeHeap@?$CTempBuffer@E$0BAA@VCCRTAllocator@ATL@@@ATL@@AEAAXXZ 0000000180017500 f i GestureControl.obj
 0001:00016540       ?FreeHeap@?$CTempBuffer@_W$0BAA@VCCRTAllocator@ATL@@@ATL@@AEAAXXZ 0000000180017540 f i GestureControl.obj
 0001:00016580       ?FreeHeap@?$CTempBuffer@_W$0EAA@VCCRTAllocator@ATL@@@ATL@@AEAAXXZ 0000000180017580 f i GestureControl.obj
 0001:000165c0       ?Freeze@?$IViewObjectExImpl@VCOPOSGestureControl@@@ATL@@UEAAJKJPEAXPEAK@Z 00000001800175c0 f i GestureControl.obj
 0001:00016650       ?GenerateError@CRegParser@ATL@@IEAAJI@Z 0000000180017650 f i GestureControl.obj
 0001:00016670       ?GetAdvise@?$IViewObjectExImpl@VCOPOSGestureControl@@@ATL@@UEAAJPEAK0PEAPEAUIAdviseSink@@@Z 0000000180017670 f i GestureControl.obj
 0001:000167c0       ?GetAmbientLocaleID@CComControlBase@ATL@@QEAAJAEAK@Z 00000001800177c0 f i GestureControl.obj
 0001:000168a0       ?GetAmbientProperty@CComControlBase@ATL@@QEAAJJAEAUtagVARIANT@@@Z 00000001800178a0 f i GestureControl.obj
 0001:00016910       ?GetAmbientUserMode@CComControlBase@ATL@@QEAAJAEAH@Z 0000000180017910 f i GestureControl.obj
 0001:00016a30       ?GetAppId@?$CAtlModuleT@VCComModule@ATL@@@ATL@@SAPEB_WXZ 0000000180017a30 f i GestureControl.obj
 0001:00016a40       ?GetAt@CComDynamicUnkArray@ATL@@QEAAPEAUIUnknown@@H@Z 0000000180017a40 f i GestureControl.obj
 0001:00016af0       ?GetCanonicalFormatEtc@?$IDataObjectImpl@VCOPOSGestureControl@@@ATL@@UEAAJPEAUtagFORMATETC@@0@Z 0000000180017af0 f i GestureControl.obj
 0001:00016b80       ?GetClassID@?$IPersistStorageImpl@VCOPOSGestureControl@@@ATL@@UEAAJPEAU_GUID@@@Z 0000000180017b80 f i GestureControl.obj
 0001:00016c20       ?GetClassID@?$IPersistStreamInitImpl@VCOPOSGestureControl@@@ATL@@UEAAJPEAU_GUID@@@Z 0000000180017c20 f i GestureControl.obj
 0001:00016cc0       ?GetClassInfoExW@AtlModuleRegisterWndClassInfoParamW@ATL@@SAHPEAUHINSTANCE__@@PEB_WPEAUtagWNDCLASSEXW@@@Z 0000000180017cc0 f i GestureControl.obj
 0001:00016d10       ?GetClassInfoW@?$IProvideClassInfo2Impl@$1?CLSID_OPOSGestureControl@@3U_GUID@@B$1?DIID__IOPOSGestureControlEvents@@3U2@B$1?LIBID_OposGestureControl_CCO@@3U2@B$00$0A@VCComTypeInfoHolder@ATL@@@ATL@@UEAAJPEAPEAUITypeInfo@@@Z 0000000180017d10 f i GestureControl.obj
 0001:00016d50       ?GetClassObject@CComModule@ATL@@QEAAJAEBU_GUID@@0PEAPEAX@Z 0000000180017d50 f i GestureControl.obj
 0001:00016fc0       ?GetClientSite@?$IOleObjectImpl@VCOPOSGestureControl@@@ATL@@UEAAJPEAPEAUIOleClientSite@@@Z 0000000180017fc0 f i GestureControl.obj
 0001:00017070       ?GetClipboardData@?$IOleObjectImpl@VCOPOSGestureControl@@@ATL@@UEAAJKPEAPEAUIDataObject@@@Z 0000000180018070 f i GestureControl.obj
 0001:00017100       ?GetCodeAddress@CDynamicStdCallThunk2@ATL@@QEAAPEAXXZ 0000000180018100 f i GestureControl.obj
 0001:00017140       ?GetColorSet@?$IViewObjectExImpl@VCOPOSGestureControl@@@ATL@@UEAAJKJPEAXPEAUtagDVTARGETDEVICE@@PEAUHDC__@@PEAPEAUtagLOGPALETTE@@@Z 0000000180018140 f i GestureControl.obj
 0001:000171d0       ?GetConnMap@COPOSGestureControl@@SAPEBU_ATL_CONNMAP_ENTRY@ATL@@PEAH@Z 00000001800181d0 f i GestureControl.obj
 0001:00017330       ?GetConnectionInterface@?$IConnectionPointImpl@VCOPOSGestureControl@@$1?DIID__IOPOSGestureControlEvents@@3U_GUID@@BVCComDynamicUnkArray@ATL@@@ATL@@UEAAJPEAU_GUID@@@Z 0000000180018330 f i GestureControl.obj
 0001:00017370       ?GetConnectionInterface@?$IConnectionPointImpl@VCOPOSGestureControl@@$1?IID_IPropertyNotifySink@@3U_GUID@@BVCComDynamicUnkArray@ATL@@@ATL@@UEAAJPEAU_GUID@@@Z 0000000180018370 f i GestureControl.obj
 0001:000173b0       ?GetConnectionPointContainer@?$IConnectionPointImpl@VCOPOSGestureControl@@$1?DIID__IOPOSGestureControlEvents@@3U_GUID@@BVCComDynamicUnkArray@ATL@@@ATL@@UEAAJPEAPEAUIConnectionPointContainer@@@Z 00000001800183b0 f i GestureControl.obj
 0001:00017430       ?GetConnectionPointContainer@?$IConnectionPointImpl@VCOPOSGestureControl@@$1?IID_IPropertyNotifySink@@3U_GUID@@BVCComDynamicUnkArray@ATL@@@ATL@@UEAAJPEAPEAUIConnectionPointContainer@@@Z 0000000180018430 f i GestureControl.obj
 0001:000174b0       ?GetContentExtent@?$IQuickActivateImpl@VCOPOSGestureControl@@@ATL@@UEAAJPEAUtagSIZE@@@Z 00000001800184b0 f i GestureControl.obj
 0001:00017570       ?GetControlInfo@?$IOleControlImpl@VCOPOSGestureControl@@@ATL@@UEAAJPEAUtagCONTROLINFO@@@Z 0000000180018570 f i GestureControl.obj
 0001:00017600       ?GetCookie@CComDynamicUnkArray@ATL@@QEAAKPEAPEAUIUnknown@@@Z 0000000180018600 f i GestureControl.obj
 0001:000176f0       ?GetData@?$IDataObjectImpl@VCOPOSGestureControl@@@ATL@@UEAAJPEAUtagFORMATETC@@PEAUtagSTGMEDIUM@@@Z 00000001800186f0 f i GestureControl.obj
 0001:000177b0       ?GetData@CAtlSafeAllocBufferNode@?$CAtlSafeAllocBufferManager@VCCRTAllocator@ATL@@@_ATL_SAFE_ALLOCA_IMPL@ATL@@QEAAPEAXXZ 00000001800187b0 f i GestureControl.obj
 0001:000177d0       ?GetDataHere@?$IDataObjectImpl@VCOPOSGestureControl@@@ATL@@UEAAJPEAUtagFORMATETC@@PEAUtagSTGMEDIUM@@@Z 00000001800187d0 f i GestureControl.obj
 0001:00017860       ?GetDropTarget@?$IOleInPlaceObjectWindowlessImpl@VCOPOSGestureControl@@@ATL@@UEAAJPEAPEAUIDropTarget@@@Z 0000000180018860 f i GestureControl.obj
 0001:000178f0       ?GetExtent@?$IOleObjectImpl@VCOPOSGestureControl@@@ATL@@UEAAJKPEAUtagSIZE@@@Z 00000001800188f0 f i GestureControl.obj
 0001:000179c0       ?GetExtent@?$IViewObjectExImpl@VCOPOSGestureControl@@@ATL@@UEAAJKJPEAUtagDVTARGETDEVICE@@PEAUtagSIZE@@@Z 00000001800189c0 f i GestureControl.obj
 0001:00017ad0       ?GetGITPtr@CAtlModule@ATL@@UEAAJPEAPEAUIGlobalInterfaceTable@@@Z 0000000180018ad0 f i GestureControl.obj
 0001:00017c10       ?GetGUID@?$IProvideClassInfo2Impl@$1?CLSID_OPOSGestureControl@@3U_GUID@@B$1?DIID__IOPOSGestureControlEvents@@3U2@B$1?LIBID_OposGestureControl_CCO@@3U2@B$00$0A@VCComTypeInfoHolder@ATL@@@ATL@@UEAAJKPEAU_GUID@@@Z 0000000180018c10 f i GestureControl.obj
 0001:00017c90       ?GetIDsOfNames@?$IDispatchImpl@UIOPOSGestureControl@@$1?IID_IOPOSGestureControl@@3U_GUID@@B$1?LIBID_OposGestureControl_CCO@@3U3@B$00$0A@VCComTypeInfoHolder@ATL@@@ATL@@UEAAJAEBU_GUID@@PEAPEA_WIKPEAJ@Z 0000000180018c90 f i GestureControl.obj
 0001:00017cf0       ?GetIDsOfNames@CComTypeInfoHolder@ATL@@QEAAJAEBU_GUID@@PEAPEA_WIKPEAJ@Z 0000000180018cf0 f i GestureControl.obj
 0001:00017f10       ?GetInterfaceSafetyOptions@?$IObjectSafetyImpl@VCOPOSGestureControl@@$02@ATL@@UEAAJAEBU_GUID@@PEAK1@Z 0000000180018f10 f i GestureControl.obj
 0001:000180b0       ?GetKeyAt@?$CSimpleMap@PEA_WPEA_WVCExpansionVectorEqualHelper@ATL@@@ATL@@QEBAAEAPEA_WH@Z 00000001800190b0 f i GestureControl.obj
 0001:00018160       ?GetLockCount@CAtlModule@ATL@@UEAAJXZ 0000000180019160 f i GestureControl.obj
 0001:00018170       ?GetMiscStatus@?$IOleObjectImpl@VCOPOSGestureControl@@@ATL@@UEAAJKPEAK@Z 0000000180019170 f i GestureControl.obj
 0001:00018200       ?GetMoniker@?$IOleObjectImpl@VCOPOSGestureControl@@@ATL@@UEAAJKKPEAPEAUIMoniker@@@Z 0000000180019200 f i GestureControl.obj
 0001:00018290       ?GetNaturalExtent@?$IViewObjectExImpl@VCOPOSGestureControl@@@ATL@@UEAAJKJPEAUtagDVTARGETDEVICE@@PEAUHDC__@@PEAUtagExtentInfo@@PEAUtagSIZE@@@Z 0000000180019290 f i GestureControl.obj
 0001:00018420       ?GetObjectCLSID@?$CComCoClass@VCOPOSGestureControl@@$1?CLSID_OPOSGestureControl@@3U_GUID@@B@ATL@@SAAEBU_GUID@@XZ 0000000180019420 f i GestureControl.obj
 0001:00018430       ?GetPages@?$ISpecifyPropertyPagesImpl@VCOPOSGestureControl@@@ATL@@UEAAJPEAUtagCAUUID@@@Z 0000000180019430 f i GestureControl.obj
 0001:000184c0       ?GetPagesHelper@?$ISpecifyPropertyPagesImpl@VCOPOSGestureControl@@@ATL@@IEAAJPEAUtagCAUUID@@PEBUATL_PROPMAP_ENTRY@2@@Z 00000001800194c0 f i GestureControl.obj
 0001:00018730       ?GetProperty@?$CComPtr@UIDispatch@@@ATL@@QEAAJJPEAUtagVARIANT@@@Z 0000000180019730 f i GestureControl.obj
 0001:00018780       ?GetProperty@?$CComPtr@UIDispatch@@@ATL@@SAJPEAUIDispatch@@JPEAUtagVARIANT@@@Z 0000000180019780 f i GestureControl.obj
 0001:00018950       ?GetPropertyMap@COPOSGestureControl@@SAPEBUATL_PROPMAP_ENTRY@ATL@@XZ 0000000180019950 f i GestureControl.obj
 0001:00018960       ?GetRect@?$IViewObjectExImpl@VCOPOSGestureControl@@@ATL@@UEAAJKPEAU_RECTL@@@Z 0000000180019960 f i GestureControl.obj
 0001:000189f0       ?GetSize@?$CSimpleMap@PEA_WPEA_WVCExpansionVectorEqualHelper@ATL@@@ATL@@QEBAHXZ 00000001800199f0 f i GestureControl.obj
 0001:00018a00       ?GetSize@CComDynamicUnkArray@ATL@@QEBAHXZ 0000000180019a00 f i GestureControl.obj
 0001:00018a10       ?GetSizeMax@?$IPersistStreamInitImpl@VCOPOSGestureControl@@@ATL@@UEAAJPEAT_ULARGE_INTEGER@@@Z 0000000180019a10 f i GestureControl.obj
 0001:000191a0       ?GetSizeMax@CComVariant@ATL@@QEBAJPEAT_ULARGE_INTEGER@@@Z 000000018001a1a0 f i GestureControl.obj
 0001:000195d0       ?GetStreamSize@CComBSTR@ATL@@SAKPEA_W@Z 000000018001a5d0 f i GestureControl.obj
 0001:00019630       ?GetTI@CComTypeInfoHolder@ATL@@QEAAJK@Z 000000018001a630 f i GestureControl.obj
 0001:00019f00       ?GetTI@CComTypeInfoHolder@ATL@@QEAAJKPEAPEAUITypeInfo@@@Z 000000018001af00 f i GestureControl.obj
 0001:00019ff0       ?GetTypeInfo@?$IDispatchImpl@UIOPOSGestureControl@@$1?IID_IOPOSGestureControl@@3U_GUID@@B$1?LIBID_OposGestureControl_CCO@@3U3@B$00$0A@VCComTypeInfoHolder@ATL@@@ATL@@UEAAJIKPEAPEAUITypeInfo@@@Z 000000018001aff0 f i GestureControl.obj
 0001:0001a040       ?GetTypeInfo@CComTypeInfoHolder@ATL@@QEAAJIKPEAPEAUITypeInfo@@@Z 000000018001b040 f i GestureControl.obj
 0001:0001a0a0       ?GetTypeInfoCount@?$IDispatchImpl@UIOPOSGestureControl@@$1?IID_IOPOSGestureControl@@3U_GUID@@B$1?LIBID_OposGestureControl_CCO@@3U3@B$00$0A@VCComTypeInfoHolder@ATL@@@ATL@@UEAAJPEAI@Z 000000018001b0a0 f i GestureControl.obj
 0001:0001a0d0       ?GetUnknown@CComDynamicUnkArray@ATL@@QEAAPEAUIUnknown@@K@Z 000000018001b0d0 f i GestureControl.obj
 0001:0001a180       ?GetUnknown@COPOSGestureControl@@QEAAPEAUIUnknown@@XZ 000000018001b180 f i GestureControl.obj
 0001:0001a1b0       ?GetUserClassID@?$IOleObjectImpl@VCOPOSGestureControl@@@ATL@@UEAAJPEAU_GUID@@@Z 000000018001b1b0 f i GestureControl.obj
 0001:0001a290       ?GetUserType@?$IOleObjectImpl@VCOPOSGestureControl@@@ATL@@UEAAJKPEAPEA_W@Z 000000018001b290 f i GestureControl.obj
 0001:0001a320       ?GetValueAt@?$CSimpleMap@PEA_WPEA_WVCExpansionVectorEqualHelper@ATL@@@ATL@@QEBAAEAPEA_WH@Z 000000018001b320 f i GestureControl.obj
 0001:0001a3d0       ?GetViewStatus@?$IViewObjectExImpl@VCOPOSGestureControl@@@ATL@@UEAAJPEAK@Z 000000018001b3d0 f i GestureControl.obj
 0001:0001a4d0       ?GetWNDPROC@CWndProcThunk@ATL@@QEAAP6A_JPEAUHWND__@@I_K_J@ZXZ 000000018001b4d0 f i GestureControl.obj
 0001:0001a510       ?GetWindow@?$IOleInPlaceActiveObjectImpl@VCOPOSGestureControl@@@ATL@@UEAAJPEAPEAUHWND__@@@Z 000000018001b510 f i GestureControl.obj
 0001:0001a610       ?GetWindow@?$IOleInPlaceObjectWindowlessImpl@VCOPOSGestureControl@@@ATL@@UEAAJPEAPEAUHWND__@@@Z 000000018001b610 f i GestureControl.obj
 0001:0001a710       ?GetWindowProc@?$CWindowImplBaseT@VCWindow@ATL@@V?$CWinTraits@$0FGAAAAAA@$0A@@2@@ATL@@UEAAP6A_JPEAUHWND__@@I_K_J@ZXZ 000000018001b710 f i GestureControl.obj
 0001:0001a720       ?GetWndCaption@?$CWindowImpl@VCOPOSGestureControl@@VCWindow@ATL@@V?$CWinTraits@$0FGAAAAAA@$0A@@3@@ATL@@SAPEB_WXZ 000000018001b720 f i GestureControl.obj
 0001:0001a730       ?GetWndClassInfo@?$CWindowImpl@VCOPOSGestureControl@@VCWindow@ATL@@V?$CWinTraits@$0FGAAAAAA@$0A@@3@@ATL@@SAAEAU_ATL_WNDCLASSINFOW@2@XZ 000000018001b730 f i GestureControl.obj
 0001:0001a740       ?GetWndClassName@CWindow@ATL@@SAPEB_WXZ 000000018001b740 f i GestureControl.obj
 0001:0001a750       ?GetWndExStyle@?$CWinTraits@$0FGAAAAAA@$0A@@ATL@@SAKK@Z 000000018001b750 f i GestureControl.obj
 0001:0001a790       ?GetWndExStyle@?$CWindowImplBaseT@VCWindow@ATL@@V?$CWinTraits@$0FGAAAAAA@$0A@@2@@ATL@@SAKK@Z 000000018001b790 f i GestureControl.obj
 0001:0001a7c0       ?GetWndStyle@?$CWinTraits@$0FGAAAAAA@$0A@@ATL@@SAKK@Z 000000018001b7c0 f i GestureControl.obj
 0001:0001a800       ?GetWndStyle@?$CWindowImplBaseT@VCWindow@ATL@@V?$CWinTraits@$0FGAAAAAA@$0A@@2@@ATL@@SAKK@Z 000000018001b800 f i GestureControl.obj
 0001:0001a830       ?GetZoomInfo@CComControlBase@ATL@@QEAAXAEAUATL_DRAWINFO@@@Z 000000018001b830 f i GestureControl.obj
 0001:0001a9e0       ?HKeyFromString@CRegParser@ATL@@KAPEAUHKEY__@@PEA_W@Z 000000018001b9e0 f i GestureControl.obj
 0001:0001aa70       ?HandsOffStorage@?$IPersistStorageImpl@VCOPOSGestureControl@@@ATL@@UEAAJXZ 000000018001ba70 f i GestureControl.obj
 0001:0001aae0       ?HasSubKeys@CRegParser@ATL@@IEAAHPEAUHKEY__@@@Z 000000018001bae0 f i GestureControl.obj
 0001:0001ac50       ?IDataObject_GetData@CComControlBase@ATL@@QEAAJPEAUtagFORMATETC@@PEAUtagSTGMEDIUM@@@Z 000000018001bc50 f i GestureControl.obj
 0001:0001b100       ?IOleInPlaceObject_InPlaceDeactivate@CComControlBase@ATL@@QEAAJXZ 000000018001c100 f i GestureControl.obj
 0001:0001b370       ?IOleInPlaceObject_SetObjectRects@CComControlBase@ATL@@QEAAJPEBUtagRECT@@0@Z 000000018001c370 f i GestureControl.obj
 0001:0001b550       ?IOleInPlaceObject_UIDeactivate@CComControlBase@ATL@@QEAAJXZ 000000018001c550 f i GestureControl.obj
 0001:0001b7c0       ?IOleObject_Advise@CComControlBase@ATL@@QEAAJPEAUIAdviseSink@@PEAK@Z 000000018001c7c0 f i GestureControl.obj
 0001:0001b870       ?IOleObject_Close@CComControlBase@ATL@@QEAAJK@Z 000000018001c870 f i GestureControl.obj
 0001:0001bbe0       ?IOleObject_GetClientSite@CComControlBase@ATL@@QEAAJPEAPEAUIOleClientSite@@@Z 000000018001cbe0 f i GestureControl.obj
 0001:0001bcb0       ?IOleObject_SetClientSite@CComControlBase@ATL@@QEAAJPEAUIOleClientSite@@@Z 000000018001ccb0 f i GestureControl.obj
 0001:0001bdc0       ?IOleObject_SetExtent@CComControlBase@ATL@@QEAAJKPEAUtagSIZE@@@Z 000000018001cdc0 f i GestureControl.obj
 0001:0001bf30       ?IPSI_GetIPersistStreamInit@?$IPersistStorageImpl@VCOPOSGestureControl@@@ATL@@AEAAPEAUIPersistStreamInit@@XZ 000000018001cf30 f i GestureControl.obj
 0001:0001bff0       ?IPersistStreamInit_Load@?$IPersistStreamInitImpl@VCOPOSGestureControl@@@ATL@@QEAAJPEAUIStream@@PEBUATL_PROPMAP_ENTRY@2@@Z 000000018001cff0 f i GestureControl.obj
 0001:0001c090       ?IPersistStreamInit_Save@?$IPersistStreamInitImpl@VCOPOSGestureControl@@@ATL@@QEAAJPEAUIStream@@HPEBUATL_PROPMAP_ENTRY@2@@Z 000000018001d090 f i GestureControl.obj
 0001:0001c150       ?IQuickActivate_QuickActivate@CComControlBase@ATL@@QEAAJPEAUtagQACONTAINER@@PEAUtagQACONTROL@@@Z 000000018001d150 f i GestureControl.obj
 0001:0001c990       ?IViewObject_Draw@CComControlBase@ATL@@QEAAJKJPEAXPEAUtagDVTARGETDEVICE@@PEAUHDC__@@2PEBU_RECTL@@3@Z 000000018001d990 f i GestureControl.obj
 0001:0001cde0       ?InPlaceActivate@CComControlBase@ATL@@QEAAJJPEBUtagRECT@@@Z 000000018001dde0 f i GestureControl.obj
 0001:0001d980       ?InPlaceDeactivate@?$IOleInPlaceObjectWindowlessImpl@VCOPOSGestureControl@@@ATL@@UEAAJXZ 000000018001e980 f i GestureControl.obj
 0001:0001da30       ?Increment@CComMultiThreadModel@ATL@@SAKPEAJ@Z 000000018001ea30 f i GestureControl.obj
 0001:0001da50       ?Increment@CComSingleThreadModel@ATL@@SAKPEAJ@Z 000000018001ea50 f i GestureControl.obj
 0001:0001da70       ?Init@?$CComEnumImpl@UIEnumConnectionPoints@@$1?_GUID_b196b285_bab4_101a_b69c_00aa00341d07@@3U__s_GUID@@BPEAUIConnectionPoint@@V?$_CopyInterface@UIConnectionPoint@@@ATL@@@ATL@@QEAAJPEAPEAUIConnectionPoint@@0PEAUIUnknown@@W4CComEnumFlags@2@@Z 000000018001ea70 f i GestureControl.obj
 0001:0001dd60       ?Init@?$CComEnumImpl@UIEnumConnections@@$1?_GUID_b196b287_bab4_101a_b69c_00aa00341d07@@3U__s_GUID@@BUtagCONNECTDATA@@V?$_Copy@UtagCONNECTDATA@@@ATL@@@ATL@@QEAAJPEAUtagCONNECTDATA@@0PEAUIUnknown@@W4CComEnumFlags@2@@Z 000000018001ed60 f i GestureControl.obj
 0001:0001e050       ?Init@CComFakeCriticalSection@ATL@@QEAAJXZ 000000018001f050 f i GestureControl.obj
 0001:0001e060       ?Init@CComModule@ATL@@QEAAJPEAU_ATL_OBJMAP_ENTRY30@2@PEAUHINSTANCE__@@PEBU_GUID@@@Z 000000018001f060 f i GestureControl.obj
 0001:0001e150       ?Init@CComSafeDeleteCriticalSection@ATL@@QEAAJXZ 000000018001f150 f i GestureControl.obj
 0001:0001e1e0       ?Init@CDynamicStdCallThunk2@ATL@@QEAAH_KPEAX@Z 000000018001f1e0 f i GestureControl.obj
 0001:0001e260       ?Init@CWndProcThunk@ATL@@QEAAHP6A_JPEAUHWND__@@I_K_J@ZPEAX@Z 000000018001f260 f i GestureControl.obj
 0001:0001e2b0       ?InitFromData@?$IOleObjectImpl@VCOPOSGestureControl@@@ATL@@UEAAJPEAUIDataObject@@HK@Z 000000018001f2b0 f i GestureControl.obj
 0001:0001e340       ?InitLibId@?$CAtlModuleT@VCComModule@ATL@@@ATL@@SAXXZ 000000018001f340 f i GestureControl.obj
 0001:0001e350       ?InitNew@?$IPersistStorageImpl@VCOPOSGestureControl@@@ATL@@UEAAJPEAUIStorage@@@Z 000000018001f350 f i GestureControl.obj
 0001:0001e440       ?InitNew@?$IPersistStreamInitImpl@VCOPOSGestureControl@@@ATL@@UEAAJXZ 000000018001f440 f i GestureControl.obj
 0001:0001e4f0       ?InlineIsEqualUnknown@ATL@@YAHAEBU_GUID@@@Z 000000018001f4f0 f i GestureControl.obj
 0001:0001e580       ?InternalAddRef@?$CComObjectRootEx@VCComMultiThreadModel@ATL@@@ATL@@QEAAKXZ 000000018001f580 f i GestureControl.obj
 0001:0001e600       ?InternalAddRef@?$CComObjectRootEx@VCComSingleThreadModel@ATL@@@ATL@@QEAAKXZ 000000018001f600 f i GestureControl.obj
 0001:0001e680       ?InternalFinalConstructAddRef@CComObjectRootBase@ATL@@QEAAXXZ 000000018001f680 f i GestureControl.obj
 0001:0001e690       ?InternalFinalConstructAddRef@COPOSGestureControl@@QEAAXXZ 000000018001f690 f i GestureControl.obj
 0001:0001e6d0       ?InternalFinalConstructRelease@CComObjectRootBase@ATL@@QEAAXXZ 000000018001f6d0 f i GestureControl.obj
 0001:0001e740       ?InternalFinalConstructRelease@COPOSGestureControl@@QEAAXXZ 000000018001f740 f i GestureControl.obj
 0001:0001e780       ?InternalGetSite@CComControlBase@ATL@@QEAAJAEBU_GUID@@PEAPEAX@Z 000000018001f780 f i GestureControl.obj
 0001:0001e860       ?InternalQueryInterface@CComObjectRootBase@ATL@@SAJPEAXPEBU_ATL_INTMAP_ENTRY@2@AEBU_GUID@@PEAPEAX@Z 000000018001f860 f i GestureControl.obj
 0001:0001e980       ?InternalRelease@?$CComObjectRootEx@VCComMultiThreadModel@ATL@@@ATL@@QEAAKXZ 000000018001f980 f i GestureControl.obj
 0001:0001ea00       ?InternalRelease@?$CComObjectRootEx@VCComSingleThreadModel@ATL@@@ATL@@QEAAKXZ 000000018001fa00 f i GestureControl.obj
 0001:0001ea80       ?InternalSetAtIndex@?$CSimpleArray@GV?$CSimpleArrayEqualHelper@G@ATL@@@ATL@@QEAAXHAEBG@Z 000000018001fa80 f i GestureControl.obj
 0001:0001eb00       ?InternalSetAtIndex@?$CSimpleMap@PEA_WPEA_WVCExpansionVectorEqualHelper@ATL@@@ATL@@QEAAXHAEBQEA_W0@Z 000000018001fb00 f i GestureControl.obj
 0001:0001ebd0       ?Invoke@?$IDispatchImpl@UIOPOSGestureControl@@$1?IID_IOPOSGestureControl@@3U_GUID@@B$1?LIBID_OposGestureControl_CCO@@3U3@B$00$0A@VCComTypeInfoHolder@ATL@@@ATL@@UEAAJJAEBU_GUID@@KGPEAUtagDISPPARAMS@@PEAUtagVARIANT@@PEAUtagEXCEPINFO@@PEAI@Z 000000018001fbd0 f i GestureControl.obj
 0001:0001ec70       ?Invoke@CComTypeInfoHolder@ATL@@QEAAJPEAUIDispatch@@JAEBU_GUID@@KGPEAUtagDISPPARAMS@@PEAUtagVARIANT@@PEAUtagEXCEPINFO@@PEAI@Z 000000018001fc70 f i GestureControl.obj
 0001:0001ed30       ?IsDirty@?$IPersistStorageImpl@VCOPOSGestureControl@@@ATL@@UEAAJXZ 000000018001fd30 f i GestureControl.obj
 0001:0001ee20       ?IsDirty@?$IPersistStreamInitImpl@VCOPOSGestureControl@@@ATL@@UEAAJXZ 000000018001fe20 f i GestureControl.obj
 0001:0001eee0       ?IsEqualKey@CExpansionVectorEqualHelper@ATL@@SA_NQEA_W0@Z 000000018001fee0 f i GestureControl.obj
 0001:0001ef30       ?IsEqualObject@?$CComPtrBase@UIOleClientSite@@@ATL@@QEAA_NPEAUIUnknown@@@Z 000000018001ff30 f i GestureControl.obj
 0001:0001f080       ?IsEqualObject@?$CComPtrBase@UITypeInfo@@@ATL@@QEAA_NPEAUIUnknown@@@Z 0000000180020080 f i GestureControl.obj
 0001:0001f1d0       ?IsSpace@CRegParser@ATL@@IEAAH_W@Z 00000001800201d0 f i GestureControl.obj
 0001:0001f230       ?IsUpToDate@?$IOleObjectImpl@VCOPOSGestureControl@@@ATL@@UEAAJXZ 0000000180020230 f i GestureControl.obj
 0001:0001f2a0       ?Length@CComBSTR@ATL@@QEBAIXZ 00000001800202a0 f i GestureControl.obj
 0001:0001f2e0       ?Load@?$IPersistStorageImpl@VCOPOSGestureControl@@@ATL@@UEAAJPEAUIStorage@@@Z 00000001800202e0 f i GestureControl.obj
 0001:0001f490       ?Load@?$IPersistStreamInitImpl@VCOPOSGestureControl@@@ATL@@UEAAJPEAUIStream@@@Z 0000000180020490 f i GestureControl.obj
 0001:0001f550       ?LoadCursorW@AtlModuleRegisterWndClassInfoParamW@ATL@@SAPEAUHICON__@@PEAUHINSTANCE__@@PEB_W@Z 0000000180020550 f i GestureControl.obj
 0001:0001f590       ?LoadNameCache@CComTypeInfoHolder@ATL@@QEAAJPEAUITypeInfo@@@Z 0000000180020590 f i GestureControl.obj
 0001:0001f8d0       ?Lock@?$CComCritSecLock@VCComCriticalSection@ATL@@@ATL@@QEAAJXZ 00000001800208d0 f i GestureControl.obj
 0001:0001f9c0       ?Lock@?$CComObjectRootEx@VCComSingleThreadModel@ATL@@@ATL@@QEAAXXZ 00000001800209c0 f i GestureControl.obj
 0001:0001f9d0       ?Lock@CAtlModule@ATL@@UEAAJXZ 00000001800209d0 f i GestureControl.obj
 0001:0001fa10       ?Lock@CComCriticalSection@ATL@@QEAAJXZ 0000000180020a10 f i GestureControl.obj
 0001:0001fa50       ?Lock@CComFakeCriticalSection@ATL@@QEAAJXZ 0000000180020a50 f i GestureControl.obj
 0001:0001fa60       ?LockServer@CComClassFactory@ATL@@UEAAJH@Z 0000000180020a60 f i GestureControl.obj
 0001:0001fac0       ?Lookup@?$CSimpleMap@PEA_WPEA_WVCExpansionVectorEqualHelper@ATL@@@ATL@@QEBAPEA_WAEBQEA_W@Z 0000000180020ac0 f i GestureControl.obj
 0001:0001fb20       ?Next@?$CComEnumImpl@UIEnumConnectionPoints@@$1?_GUID_b196b285_bab4_101a_b69c_00aa00341d07@@3U__s_GUID@@BPEAUIConnectionPoint@@V?$_CopyInterface@UIConnectionPoint@@@ATL@@@ATL@@UEAAJKPEAPEAUIConnectionPoint@@PEAK@Z 0000000180020b20 f i GestureControl.obj
 0001:0001fce0       ?Next@?$CComEnumImpl@UIEnumConnections@@$1?_GUID_b196b287_bab4_101a_b69c_00aa00341d07@@3U__s_GUID@@BUtagCONNECTDATA@@V?$_Copy@UtagCONNECTDATA@@@ATL@@@ATL@@UEAAJKPEAUtagCONNECTDATA@@PEAK@Z 0000000180020ce0 f i GestureControl.obj
 0001:0001fea0       ?NextToken@CRegParser@ATL@@IEAAJPEA_W@Z 0000000180020ea0 f i GestureControl.obj
 0001:00020230       ?OLE2CT_EX@@YAPEB_WPEB_WI@Z 0000000180021230 f i GestureControl.obj
 0001:00020250       ?OLE2CT_EX_DEF@@YAPEB_WPEB_W@Z 0000000180021250 f i GestureControl.obj
 0001:00020260       ?OLE2T_EX@@YAPEA_WPEA_WI@Z 0000000180021260 f i GestureControl.obj
 0001:00020280       ?OnAmbientPropertyChange@?$IOleControlImpl@VCOPOSGestureControl@@@ATL@@UEAAJJ@Z 0000000180021280 f i GestureControl.obj
 0001:00020340       ?OnDocWindowActivate@?$IOleInPlaceActiveObjectImpl@VCOPOSGestureControl@@@ATL@@UEAAJH@Z 0000000180021340 f i GestureControl.obj
 0001:00020400       ?OnDrawAdvanced@CComControlBase@ATL@@UEAAJAEAUATL_DRAWINFO@@@Z 0000000180021400 f i GestureControl.obj
 0001:00020650       ?OnFinalMessage@?$CWindowImplBaseT@VCWindow@ATL@@V?$CWinTraits@$0FGAAAAAA@$0A@@2@@ATL@@UEAAXPEAUHWND__@@@Z 0000000180021650 f i GestureControl.obj
 0001:00020660       ?OnFrameWindowActivate@?$IOleInPlaceActiveObjectImpl@VCOPOSGestureControl@@@ATL@@UEAAJH@Z 0000000180021660 f i GestureControl.obj
 0001:000206d0       ?OnKillFocus@CComControlBase@ATL@@QEAA_JI_K_JAEAH@Z 00000001800216d0 f i GestureControl.obj
 0001:000207c0       ?OnMnemonic@?$IOleControlImpl@VCOPOSGestureControl@@@ATL@@UEAAJPEAUtagMSG@@@Z 00000001800217c0 f i GestureControl.obj
 0001:00020850       ?OnMouseActivate@CComControlBase@ATL@@QEAA_JI_K_JAEAH@Z 0000000180021850 f i GestureControl.obj
 0001:000209f0       ?OnPaint@CComControlBase@ATL@@QEAA_JI_K_JAEAH@Z 00000001800219f0 f i GestureControl.obj
 0001:00020b80       ?OnPostVerbDiscardUndo@?$IOleObjectImpl@VCOPOSGestureControl@@@ATL@@QEAAJXZ 0000000180021b80 f i GestureControl.obj
 0001:00020b90       ?OnPostVerbHide@?$IOleObjectImpl@VCOPOSGestureControl@@@ATL@@QEAAJXZ 0000000180021b90 f i GestureControl.obj
 0001:00020ba0       ?OnPostVerbInPlaceActivate@?$IOleObjectImpl@VCOPOSGestureControl@@@ATL@@QEAAJXZ 0000000180021ba0 f i GestureControl.obj
 0001:00020bb0       ?OnPostVerbOpen@?$IOleObjectImpl@VCOPOSGestureControl@@@ATL@@QEAAJXZ 0000000180021bb0 f i GestureControl.obj
 0001:00020bc0       ?OnPostVerbShow@?$IOleObjectImpl@VCOPOSGestureControl@@@ATL@@QEAAJXZ 0000000180021bc0 f i GestureControl.obj
 0001:00020bd0       ?OnPostVerbUIActivate@?$IOleObjectImpl@VCOPOSGestureControl@@@ATL@@QEAAJXZ 0000000180021bd0 f i GestureControl.obj
 0001:00020be0       ?OnPreVerbDiscardUndo@?$IOleObjectImpl@VCOPOSGestureControl@@@ATL@@QEAAJXZ 0000000180021be0 f i GestureControl.obj
 0001:00020bf0       ?OnPreVerbHide@?$IOleObjectImpl@VCOPOSGestureControl@@@ATL@@QEAAJXZ 0000000180021bf0 f i GestureControl.obj
 0001:00020c00       ?OnPreVerbInPlaceActivate@?$IOleObjectImpl@VCOPOSGestureControl@@@ATL@@QEAAJXZ 0000000180021c00 f i GestureControl.obj
 0001:00020c10       ?OnPreVerbOpen@?$IOleObjectImpl@VCOPOSGestureControl@@@ATL@@QEAAJXZ 0000000180021c10 f i GestureControl.obj
 0001:00020c20       ?OnPreVerbShow@?$IOleObjectImpl@VCOPOSGestureControl@@@ATL@@QEAAJXZ 0000000180021c20 f i GestureControl.obj
 0001:00020c30       ?OnPreVerbUIActivate@?$IOleObjectImpl@VCOPOSGestureControl@@@ATL@@QEAAJXZ 0000000180021c30 f i GestureControl.obj
 0001:00020c40       ?OnSetFocus@CComControlBase@ATL@@QEAA_JI_K_JAEAH@Z 0000000180021c40 f i GestureControl.obj
 0001:00020e40       ?OnWindowMessage@?$IOleInPlaceObjectWindowlessImpl@VCOPOSGestureControl@@@ATL@@UEAAJI_K_JPEA_J@Z 0000000180021e40 f i GestureControl.obj
 0001:00021060       ?Open@CRegKey@ATL@@QEAAJPEAUHKEY__@@PEB_WK@Z 0000000180022060 f i GestureControl.obj
 0001:000211e0       ?OuterAddRef@CComObjectRootBase@ATL@@QEAAKXZ 00000001800221e0 f i GestureControl.obj
 0001:00021220       ?OuterQueryInterface@CComObjectRootBase@ATL@@QEAAJAEBU_GUID@@PEAPEAX@Z 0000000180022220 f i GestureControl.obj
 0001:00021270       ?OuterRelease@CComObjectRootBase@ATL@@QEAAKXZ 0000000180022270 f i GestureControl.obj
 0001:000212b0       ?PreProcessBuffer@CRegParser@ATL@@QEAAJPEA_WPEAPEA_W@Z 00000001800222b0 f i GestureControl.obj
 0001:00021990       ?PreTranslateAccelerator@CComControlBase@ATL@@QEAAHPEAUtagMSG@@AEAJ@Z 0000000180022990 f i GestureControl.obj
 0001:000219b0       ?ProcessWindowMessage@?$CComControl@VCOPOSGestureControl@@V?$CWindowImpl@VCOPOSGestureControl@@VCWindow@ATL@@V?$CWinTraits@$0FGAAAAAA@$0A@@3@@ATL@@@ATL@@UEAAHPEAUHWND__@@I_K_JAEA_JK@Z 00000001800229b0 f i GestureControl.obj
 0001:00021c30       ?ProcessWindowMessage@COPOSGestureControl@@UEAAHPEAUHWND__@@I_K_JAEA_JK@Z 0000000180022c30 f i GestureControl.obj
 0001:00021db0       ?PutProperty@?$CComPtr@UIDispatch@@@ATL@@QEAAJJPEAUtagVARIANT@@@Z 0000000180022db0 f i GestureControl.obj
 0001:00021e00       ?PutProperty@?$CComPtr@UIDispatch@@@ATL@@SAJPEAUIDispatch@@JPEAUtagVARIANT@@@Z 0000000180022e00 f i GestureControl.obj
 0001:000220a0       ?QueryGetData@?$IDataObjectImpl@VCOPOSGestureControl@@@ATL@@UEAAJPEAUtagFORMATETC@@@Z 00000001800230a0 f i GestureControl.obj
 0001:00022130       ?QueryHitPoint@?$IViewObjectExImpl@VCOPOSGestureControl@@@ATL@@UEAAJKPEBUtagRECT@@UtagPOINT@@JPEAK@Z 0000000180023130 f i GestureControl.obj
 0001:000222a0       ?QueryHitRect@?$IViewObjectExImpl@VCOPOSGestureControl@@@ATL@@UEAAJKPEBUtagRECT@@0JPEAK@Z 00000001800232a0 f i GestureControl.obj
 0001:00022470       ?QueryInterface@?$CComAggObject@VCOPOSGestureControl@@@ATL@@UEAAJAEBU_GUID@@PEAPEAX@Z 0000000180023470 f i GestureControl.obj
 0001:00022560       ?QueryInterface@?$CComContainedObject@VCOPOSGestureControl@@@ATL@@UEAAJAEBU_GUID@@PEAPEAX@Z 0000000180023560 f i GestureControl.obj
 0001:000225ac       ?QueryInterface@?$CComContainedObject@VCOPOSGestureControl@@@ATL@@WBAA@EAAJAEBU_GUID@@PEAPEAX@Z 00000001800235ac f i GestureControl.obj
 0001:000225b8       ?QueryInterface@?$CComContainedObject@VCOPOSGestureControl@@@ATL@@WBAI@EAAJAEBU_GUID@@PEAPEAX@Z 00000001800235b8 f i GestureControl.obj
 0001:000225c4       ?QueryInterface@?$CComContainedObject@VCOPOSGestureControl@@@ATL@@WBBA@EAAJAEBU_GUID@@PEAPEAX@Z 00000001800235c4 f i GestureControl.obj
 0001:000225d0       ?QueryInterface@?$CComContainedObject@VCOPOSGestureControl@@@ATL@@WBBI@EAAJAEBU_GUID@@PEAPEAX@Z 00000001800235d0 f i GestureControl.obj
 0001:000225dc       ?QueryInterface@?$CComContainedObject@VCOPOSGestureControl@@@ATL@@WLI@EAAJAEBU_GUID@@PEAPEAX@Z 00000001800235dc f i GestureControl.obj
 0001:000225e8       ?QueryInterface@?$CComContainedObject@VCOPOSGestureControl@@@ATL@@WMA@EAAJAEBU_GUID@@PEAPEAX@Z 00000001800235e8 f i GestureControl.obj
 0001:000225f4       ?QueryInterface@?$CComContainedObject@VCOPOSGestureControl@@@ATL@@WMI@EAAJAEBU_GUID@@PEAPEAX@Z 00000001800235f4 f i GestureControl.obj
 0001:00022600       ?QueryInterface@?$CComContainedObject@VCOPOSGestureControl@@@ATL@@WNA@EAAJAEBU_GUID@@PEAPEAX@Z 0000000180023600 f i GestureControl.obj
 0001:0002260c       ?QueryInterface@?$CComContainedObject@VCOPOSGestureControl@@@ATL@@WNI@EAAJAEBU_GUID@@PEAPEAX@Z 000000018002360c f i GestureControl.obj
 0001:00022618       ?QueryInterface@?$CComContainedObject@VCOPOSGestureControl@@@ATL@@WOA@EAAJAEBU_GUID@@PEAPEAX@Z 0000000180023618 f i GestureControl.obj
 0001:00022624       ?QueryInterface@?$CComContainedObject@VCOPOSGestureControl@@@ATL@@WOI@EAAJAEBU_GUID@@PEAPEAX@Z 0000000180023624 f i GestureControl.obj
 0001:00022630       ?QueryInterface@?$CComContainedObject@VCOPOSGestureControl@@@ATL@@WPA@EAAJAEBU_GUID@@PEAPEAX@Z 0000000180023630 f i GestureControl.obj
 0001:0002263c       ?QueryInterface@?$CComContainedObject@VCOPOSGestureControl@@@ATL@@WPI@EAAJAEBU_GUID@@PEAPEAX@Z 000000018002363c f i GestureControl.obj
 0001:00022650       ?QueryInterface@?$CComObject@V?$CComEnum@UIEnumConnectionPoints@@$1?_GUID_b196b285_bab4_101a_b69c_00aa00341d07@@3U__s_GUID@@BPEAUIConnectionPoint@@V?$_CopyInterface@UIConnectionPoint@@@ATL@@VCComSingleThreadModel@6@@ATL@@@ATL@@UEAAJAEBU_GUID@@PEAPEAX@Z 0000000180023650 f i GestureControl.obj
 0001:000226a0       ?QueryInterface@?$CComObject@V?$CComEnum@UIEnumConnections@@$1?_GUID_b196b287_bab4_101a_b69c_00aa00341d07@@3U__s_GUID@@BUtagCONNECTDATA@@V?$_Copy@UtagCONNECTDATA@@@ATL@@VCComSingleThreadModel@6@@ATL@@@ATL@@UEAAJAEBU_GUID@@PEAPEAX@Z 00000001800236a0 f i GestureControl.obj
 0001:000226f0       ?QueryInterface@?$CComObject@VCOPOSGestureControl@@@ATL@@UEAAJAEBU_GUID@@PEAPEAX@Z 00000001800236f0 f i GestureControl.obj
 0001:00022734       ?QueryInterface@?$CComObject@VCOPOSGestureControl@@@ATL@@WBAA@EAAJAEBU_GUID@@PEAPEAX@Z 0000000180023734 f i GestureControl.obj
 0001:00022740       ?QueryInterface@?$CComObject@VCOPOSGestureControl@@@ATL@@WBAI@EAAJAEBU_GUID@@PEAPEAX@Z 0000000180023740 f i GestureControl.obj
 0001:0002274c       ?QueryInterface@?$CComObject@VCOPOSGestureControl@@@ATL@@WBBA@EAAJAEBU_GUID@@PEAPEAX@Z 000000018002374c f i GestureControl.obj
 0001:00022758       ?QueryInterface@?$CComObject@VCOPOSGestureControl@@@ATL@@WBBI@EAAJAEBU_GUID@@PEAPEAX@Z 0000000180023758 f i GestureControl.obj
 0001:00022764       ?QueryInterface@?$CComObject@VCOPOSGestureControl@@@ATL@@WLI@EAAJAEBU_GUID@@PEAPEAX@Z 0000000180023764 f i GestureControl.obj
 0001:00022770       ?QueryInterface@?$CComObject@VCOPOSGestureControl@@@ATL@@WMA@EAAJAEBU_GUID@@PEAPEAX@Z 0000000180023770 f i GestureControl.obj
 0001:0002277c       ?QueryInterface@?$CComObject@VCOPOSGestureControl@@@ATL@@WMI@EAAJAEBU_GUID@@PEAPEAX@Z 000000018002377c f i GestureControl.obj
 0001:00022788       ?QueryInterface@?$CComObject@VCOPOSGestureControl@@@ATL@@WNA@EAAJAEBU_GUID@@PEAPEAX@Z 0000000180023788 f i GestureControl.obj
 0001:00022794       ?QueryInterface@?$CComObject@VCOPOSGestureControl@@@ATL@@WNI@EAAJAEBU_GUID@@PEAPEAX@Z 0000000180023794 f i GestureControl.obj
 0001:000227a0       ?QueryInterface@?$CComObject@VCOPOSGestureControl@@@ATL@@WOA@EAAJAEBU_GUID@@PEAPEAX@Z 00000001800237a0 f i GestureControl.obj
 0001:000227ac       ?QueryInterface@?$CComObject@VCOPOSGestureControl@@@ATL@@WOI@EAAJAEBU_GUID@@PEAPEAX@Z 00000001800237ac f i GestureControl.obj
 0001:000227b8       ?QueryInterface@?$CComObject@VCOPOSGestureControl@@@ATL@@WPA@EAAJAEBU_GUID@@PEAPEAX@Z 00000001800237b8 f i GestureControl.obj
 0001:000227c4       ?QueryInterface@?$CComObject@VCOPOSGestureControl@@@ATL@@WPI@EAAJAEBU_GUID@@PEAPEAX@Z 00000001800237c4 f i GestureControl.obj
 0001:000227d0       ?QueryInterface@?$CComObjectCached@VCComClassFactory@ATL@@@ATL@@UEAAJAEBU_GUID@@PEAPEAX@Z 00000001800237d0 f i GestureControl.obj
 0001:00022820       ?QueryInterface@CRegObject@ATL@@UEAAJAEBU_GUID@@PEAPEAX@Z 0000000180023820 f i GestureControl.obj
 0001:000228a0       ?QuickActivate@?$IQuickActivateImpl@VCOPOSGestureControl@@@ATL@@UEAAJPEAUtagQACONTAINER@@PEAUtagQACONTROL@@@Z 00000001800238a0 f i GestureControl.obj
 0001:00022960       ?ReactivateAndUndo@?$IOleInPlaceObjectWindowlessImpl@VCOPOSGestureControl@@@ATL@@UEAAJXZ 0000000180023960 f i GestureControl.obj
 0001:000229e0       ?ReadFromStream@CComBSTR@ATL@@QEAAJPEAUIStream@@@Z 00000001800239e0 f i GestureControl.obj
 0001:00022ec0       ?ReadFromStream@CComVariant@ATL@@QEAAJPEAUIStream@@GTClassesAllowedInStream@2@K@Z 0000000180023ec0 f i GestureControl.obj
 0001:000232f0       ?RecurseDeleteKey@CRegKey@ATL@@QEAAJPEB_W@Z 00000001800242f0 f i GestureControl.obj
 0001:00023510       ?RegCreateKeyExW@CAtlTransactionManager@ATL@@QEAAJPEAUHKEY__@@PEB_WKPEA_WKKQEAU_SECURITY_ATTRIBUTES@@PEAPEAU3@PEAK@Z 0000000180024510 f i GestureControl.obj
 0001:000236e0       ?RegDeleteKeyW@CAtlTransactionManager@ATL@@QEAAJPEAUHKEY__@@PEB_W@Z 00000001800246e0 f i GestureControl.obj
 0001:000237f0       ?RegOpenKeyExW@CAtlTransactionManager@ATL@@QEAAJPEAUHKEY__@@PEB_WKKPEAPEAU3@@Z 00000001800247f0 f i GestureControl.obj
 0001:00023940       ?Register@_ATL_WNDCLASSINFOW@ATL@@QEAAGPEAP6A_JPEAUHWND__@@I_K_J@Z@Z 0000000180024940 f i GestureControl.obj
 0001:00023990       ?RegisterBuffer@CRegParser@ATL@@QEAAJPEA_WH@Z 0000000180024990 f i GestureControl.obj
 0001:00023d80       ?RegisterClassExW@AtlModuleRegisterWndClassInfoParamW@ATL@@SAGPEAU_ATL_WIN_MODULE70@2@PEBUtagWNDCLASSEXW@@@Z 0000000180024d80 f i GestureControl.obj
 0001:00023dc0       ?RegisterFromResource@CRegObject@ATL@@IEAAJPEB_W00H@Z 0000000180024dc0 f i GestureControl.obj
 0001:00024220       ?RegisterServer@?$CAtlModuleT@VCComModule@ATL@@@ATL@@QEAAJHPEBU_GUID@@@Z 0000000180025220 f i GestureControl.obj
 0001:000242a0       ?RegisterServer@CAtlComModule@ATL@@QEAAJHPEBU_GUID@@@Z 00000001800252a0 f i GestureControl.obj
 0001:000242e0       ?RegisterServer@CComModule@ATL@@QEAAJHPEBU_GUID@@@Z 00000001800252e0 f i GestureControl.obj
 0001:000243e0       ?RegisterSubkeys@CRegParser@ATL@@IEAAJPEA_WPEAUHKEY__@@HH@Z 00000001800253e0 f i GestureControl.obj
 0001:000251c0       ?Release@?$CComAggObject@VCOPOSGestureControl@@@ATL@@UEAAKXZ 00000001800261c0 f i GestureControl.obj
 0001:00025270       ?Release@?$CComContainedObject@VCOPOSGestureControl@@@ATL@@UEAAKXZ 0000000180026270 f i GestureControl.obj
 0001:000252a8       ?Release@?$CComContainedObject@VCOPOSGestureControl@@@ATL@@WBAA@EAAKXZ 00000001800262a8 f i GestureControl.obj
 0001:000252b4       ?Release@?$CComContainedObject@VCOPOSGestureControl@@@ATL@@WBAI@EAAKXZ 00000001800262b4 f i GestureControl.obj
 0001:000252c0       ?Release@?$CComContainedObject@VCOPOSGestureControl@@@ATL@@WBBA@EAAKXZ 00000001800262c0 f i GestureControl.obj
 0001:000252cc       ?Release@?$CComContainedObject@VCOPOSGestureControl@@@ATL@@WBBI@EAAKXZ 00000001800262cc f i GestureControl.obj
 0001:000252d8       ?Release@?$CComContainedObject@VCOPOSGestureControl@@@ATL@@WBCI@EAAKXZ 00000001800262d8 f i GestureControl.obj
 0001:000252e4       ?Release@?$CComContainedObject@VCOPOSGestureControl@@@ATL@@WBEA@EAAKXZ 00000001800262e4 f i GestureControl.obj
 0001:000252f0       ?Release@?$CComContainedObject@VCOPOSGestureControl@@@ATL@@WLI@EAAKXZ 00000001800262f0 f i GestureControl.obj
 0001:000252fc       ?Release@?$CComContainedObject@VCOPOSGestureControl@@@ATL@@WMA@EAAKXZ 00000001800262fc f i GestureControl.obj
 0001:00025308       ?Release@?$CComContainedObject@VCOPOSGestureControl@@@ATL@@WMI@EAAKXZ 0000000180026308 f i GestureControl.obj
 0001:00025314       ?Release@?$CComContainedObject@VCOPOSGestureControl@@@ATL@@WNA@EAAKXZ 0000000180026314 f i GestureControl.obj
 0001:00025320       ?Release@?$CComContainedObject@VCOPOSGestureControl@@@ATL@@WNI@EAAKXZ 0000000180026320 f i GestureControl.obj
 0001:0002532c       ?Release@?$CComContainedObject@VCOPOSGestureControl@@@ATL@@WOA@EAAKXZ 000000018002632c f i GestureControl.obj
 0001:00025338       ?Release@?$CComContainedObject@VCOPOSGestureControl@@@ATL@@WOI@EAAKXZ 0000000180026338 f i GestureControl.obj
 0001:00025344       ?Release@?$CComContainedObject@VCOPOSGestureControl@@@ATL@@WPA@EAAKXZ 0000000180026344 f i GestureControl.obj
 0001:00025350       ?Release@?$CComContainedObject@VCOPOSGestureControl@@@ATL@@WPI@EAAKXZ 0000000180026350 f i GestureControl.obj
 0001:00025360       ?Release@?$CComObject@V?$CComEnum@UIEnumConnectionPoints@@$1?_GUID_b196b285_bab4_101a_b69c_00aa00341d07@@3U__s_GUID@@BPEAUIConnectionPoint@@V?$_CopyInterface@UIConnectionPoint@@@ATL@@VCComSingleThreadModel@6@@ATL@@@ATL@@UEAAKXZ 0000000180026360 f i GestureControl.obj
 0001:00025410       ?Release@?$CComObject@V?$CComEnum@UIEnumConnections@@$1?_GUID_b196b287_bab4_101a_b69c_00aa00341d07@@3U__s_GUID@@BUtagCONNECTDATA@@V?$_Copy@UtagCONNECTDATA@@@ATL@@VCComSingleThreadModel@6@@ATL@@@ATL@@UEAAKXZ 0000000180026410 f i GestureControl.obj
 0001:000254c0       ?Release@?$CComObject@VCOPOSGestureControl@@@ATL@@UEAAKXZ 00000001800264c0 f i GestureControl.obj
 0001:00025578       ?Release@?$CComObject@VCOPOSGestureControl@@@ATL@@WBAA@EAAKXZ 0000000180026578 f i GestureControl.obj
 0001:00025584       ?Release@?$CComObject@VCOPOSGestureControl@@@ATL@@WBAI@EAAKXZ 0000000180026584 f i GestureControl.obj
 0001:00025590       ?Release@?$CComObject@VCOPOSGestureControl@@@ATL@@WBBA@EAAKXZ 0000000180026590 f i GestureControl.obj
 0001:0002559c       ?Release@?$CComObject@VCOPOSGestureControl@@@ATL@@WBBI@EAAKXZ 000000018002659c f i GestureControl.obj
 0001:000255a8       ?Release@?$CComObject@VCOPOSGestureControl@@@ATL@@WBCI@EAAKXZ 00000001800265a8 f i GestureControl.obj
 0001:000255b4       ?Release@?$CComObject@VCOPOSGestureControl@@@ATL@@WBEA@EAAKXZ 00000001800265b4 f i GestureControl.obj
 0001:000255c0       ?Release@?$CComObject@VCOPOSGestureControl@@@ATL@@WLI@EAAKXZ 00000001800265c0 f i GestureControl.obj
 0001:000255cc       ?Release@?$CComObject@VCOPOSGestureControl@@@ATL@@WMA@EAAKXZ 00000001800265cc f i GestureControl.obj
 0001:000255d8       ?Release@?$CComObject@VCOPOSGestureControl@@@ATL@@WMI@EAAKXZ 00000001800265d8 f i GestureControl.obj
 0001:000255e4       ?Release@?$CComObject@VCOPOSGestureControl@@@ATL@@WNA@EAAKXZ 00000001800265e4 f i GestureControl.obj
 0001:000255f0       ?Release@?$CComObject@VCOPOSGestureControl@@@ATL@@WNI@EAAKXZ 00000001800265f0 f i GestureControl.obj
 0001:000255fc       ?Release@?$CComObject@VCOPOSGestureControl@@@ATL@@WOA@EAAKXZ 00000001800265fc f i GestureControl.obj
 0001:00025608       ?Release@?$CComObject@VCOPOSGestureControl@@@ATL@@WOI@EAAKXZ 0000000180026608 f i GestureControl.obj
 0001:00025614       ?Release@?$CComObject@VCOPOSGestureControl@@@ATL@@WPA@EAAKXZ 0000000180026614 f i GestureControl.obj
 0001:00025620       ?Release@?$CComObject@VCOPOSGestureControl@@@ATL@@WPI@EAAKXZ 0000000180026620 f i GestureControl.obj
 0001:00025630       ?Release@?$CComObjectCached@VCComClassFactory@ATL@@@ATL@@UEAAKXZ 0000000180026630 f i GestureControl.obj
 0001:000256d0       ?Release@?$CComPtrBase@UIAdviseSink@@@ATL@@QEAAXXZ 00000001800266d0 f i GestureControl.obj
 0001:00025730       ?Release@?$CComPtrBase@UIDispatch@@@ATL@@QEAAXXZ 0000000180026730 f i GestureControl.obj
 0001:00025790       ?Release@?$CComPtrBase@UIOleInPlaceSiteWindowless@@@ATL@@QEAAXXZ 0000000180026790 f i GestureControl.obj
 0001:000257f0       ?Release@CRegObject@ATL@@UEAAKXZ 00000001800267f0 f i GestureControl.obj
 0001:00025860       ?Remove@CComDynamicUnkArray@ATL@@QEAAHK@Z 0000000180026860 f i GestureControl.obj
 0001:00025940       ?RemoveAll@?$CSimpleMap@PEA_WPEA_WVCExpansionVectorEqualHelper@ATL@@@ATL@@QEAAXXZ 0000000180026940 f i GestureControl.obj
 0001:000259e0       ?Reset@?$CComEnumImpl@UIEnumConnectionPoints@@$1?_GUID_b196b285_bab4_101a_b69c_00aa00341d07@@3U__s_GUID@@BPEAUIConnectionPoint@@V?$_CopyInterface@UIConnectionPoint@@@ATL@@@ATL@@UEAAJXZ 00000001800269e0 f i GestureControl.obj
 0001:00025a00       ?Reset@?$CComEnumImpl@UIEnumConnections@@$1?_GUID_b196b287_bab4_101a_b69c_00aa00341d07@@3U__s_GUID@@BUtagCONNECTDATA@@V?$_Copy@UtagCONNECTDATA@@@ATL@@@ATL@@UEAAJXZ 0000000180026a00 f i GestureControl.obj
 0001:00025a20       ?ResizeBorder@?$IOleInPlaceActiveObjectImpl@VCOPOSGestureControl@@@ATL@@UEAAJPEBUtagRECT@@PEAUIOleInPlaceUIWindow@@H@Z 0000000180026a20 f i GestureControl.obj
 0001:00025aa0       ?ResourceRegister@CRegObject@ATL@@QEAAJPEB_WI0@Z 0000000180026aa0 f i GestureControl.obj
 0001:00025b80       ?ResourceRegisterSz@CRegObject@ATL@@QEAAJPEB_W00@Z 0000000180026b80 f i GestureControl.obj
 0001:00025ca0       ?ResourceUnregister@CRegObject@ATL@@QEAAJPEB_WI0@Z 0000000180026ca0 f i GestureControl.obj
 0001:00025d80       ?ResourceUnregisterSz@CRegObject@ATL@@QEAAJPEB_W00@Z 0000000180026d80 f i GestureControl.obj
 0001:00025ea0       ?SODataDummy@COPOSGestureControl@@MEAAJJ@Z 0000000180026ea0 f i GestureControl.obj
 0001:00025ec0       ?SODirectIO@COPOSGestureControl@@MEAAJJPEAJPEAPEA_W@Z 0000000180026ec0 f i GestureControl.obj
 0001:00026100       ?SOError@COPOSGestureControl@@MEAAJJJJPEAJ@Z 0000000180027100 f i GestureControl.obj
 0001:00026210       ?SOOutputComplete@COPOSGestureControl@@MEAAJJ@Z 0000000180027210 f i GestureControl.obj
 0001:000262b0       ?SOStatusUpdate@COPOSGestureControl@@MEAAJJ@Z 00000001800272b0 f i GestureControl.obj
 0001:00026350       ?Save@?$IPersistStorageImpl@VCOPOSGestureControl@@@ATL@@UEAAJPEAUIStorage@@H@Z 0000000180027350 f i GestureControl.obj
 0001:00026510       ?Save@?$IPersistStreamInitImpl@VCOPOSGestureControl@@@ATL@@UEAAJPEAUIStream@@H@Z 0000000180027510 f i GestureControl.obj
 0001:000265d0       ?SaveCompleted@?$IPersistStorageImpl@VCOPOSGestureControl@@@ATL@@UEAAJPEAUIStorage@@@Z 00000001800275d0 f i GestureControl.obj
 0001:00026640       ?SendOnDataChange@CComControlBase@ATL@@QEAAJK@Z 0000000180027640 f i GestureControl.obj
 0001:00026730       ?SendOnSave@CComControlBase@ATL@@QEAAJXZ 0000000180027730 f i GestureControl.obj
 0001:000267a0       ?SendOnViewChange@CComControlBase@ATL@@QEAAJKJ@Z 00000001800277a0 f i GestureControl.obj
 0001:00026820       ?SetAdvise@?$IViewObjectExImpl@VCOPOSGestureControl@@@ATL@@UEAAJKKPEAUIAdviseSink@@@Z 0000000180027820 f i GestureControl.obj
 0001:000268e0       ?SetClientSite@?$IOleObjectImpl@VCOPOSGestureControl@@@ATL@@UEAAJPEAUIOleClientSite@@@Z 00000001800278e0 f i GestureControl.obj
 0001:00026990       ?SetColorScheme@?$IOleObjectImpl@VCOPOSGestureControl@@@ATL@@UEAAJPEAUtagLOGPALETTE@@@Z 0000000180027990 f i GestureControl.obj
 0001:00026a20       ?SetContentExtent@?$IQuickActivateImpl@VCOPOSGestureControl@@@ATL@@UEAAJPEAUtagSIZE@@@Z 0000000180027a20 f i GestureControl.obj
 0001:00026ae0       ?SetControlFocus@CComControlBase@ATL@@QEAAHH@Z 0000000180027ae0 f i GestureControl.obj
 0001:00026c70       ?SetDWORDValue@CRegKey@ATL@@QEAAJPEB_WK@Z 0000000180027c70 f i GestureControl.obj
 0001:00026d20       ?SetData@?$IDataObjectImpl@VCOPOSGestureControl@@@ATL@@UEAAJPEAUtagFORMATETC@@PEAUtagSTGMEDIUM@@H@Z 0000000180027d20 f i GestureControl.obj
 0001:00026db0       ?SetExtent@?$IOleObjectImpl@VCOPOSGestureControl@@@ATL@@UEAAJKPEAUtagSIZE@@@Z 0000000180027db0 f i GestureControl.obj
 0001:00026e70       ?SetHostNames@?$IOleObjectImpl@VCOPOSGestureControl@@@ATL@@UEAAJPEB_W0@Z 0000000180027e70 f i GestureControl.obj
 0001:00026ef0       ?SetInterfaceSafetyOptions@?$IObjectSafetyImpl@VCOPOSGestureControl@@$02@ATL@@UEAAJAEBU_GUID@@KK@Z 0000000180027ef0 f i GestureControl.obj
 0001:00027090       ?SetMoniker@?$IOleObjectImpl@VCOPOSGestureControl@@@ATL@@UEAAJKPEAUIMoniker@@@Z 0000000180028090 f i GestureControl.obj
 0001:00027120       ?SetMultiStringValue@CRegKey@ATL@@QEAAJPEB_W0@Z 0000000180028120 f i GestureControl.obj
 0001:00027290       ?SetObjectRects@?$IOleInPlaceObjectWindowlessImpl@VCOPOSGestureControl@@@ATL@@UEAAJPEBUtagRECT@@0@Z 0000000180028290 f i GestureControl.obj
 0001:00027350       ?SetStringValue@CRegKey@ATL@@QEAAJPEB_W0K@Z 0000000180028350 f i GestureControl.obj
 0001:000274d0       ?SetVoid@CComClassFactory@ATL@@QEAAXPEAX@Z 00000001800284d0 f i GestureControl.obj
 0001:000274f0       ?SetVoid@CComObjectRootBase@ATL@@QEAAXPEAX@Z 00000001800284f0 f i GestureControl.obj
 0001:00027500       ?ShowWindow@CWindow@ATL@@QEAAHH@Z 0000000180028500 f i GestureControl.obj
 0001:00027590       ?Skip@?$CComEnumImpl@UIEnumConnectionPoints@@$1?_GUID_b196b285_bab4_101a_b69c_00aa00341d07@@3U__s_GUID@@BPEAUIConnectionPoint@@V?$_CopyInterface@UIConnectionPoint@@@ATL@@@ATL@@UEAAJK@Z 0000000180028590 f i GestureControl.obj
 0001:00027630       ?Skip@?$CComEnumImpl@UIEnumConnections@@$1?_GUID_b196b287_bab4_101a_b69c_00aa00341d07@@3U__s_GUID@@BUtagCONNECTDATA@@V?$_Copy@UtagCONNECTDATA@@@ATL@@@ATL@@UEAAJK@Z 0000000180028630 f i GestureControl.obj
 0001:000276d0       ?SkipAssignment@CRegParser@ATL@@IEAAJPEA_W@Z 00000001800286d0 f i GestureControl.obj
 0001:000277d0       ?SkipWhiteSpace@CRegParser@ATL@@IEAAXXZ 00000001800287d0 f i GestureControl.obj
 0001:00027830       ?StartWindowProc@?$CWindowImplBaseT@VCWindow@ATL@@V?$CWinTraits@$0FGAAAAAA@$0A@@2@@ATL@@SA_JPEAUHWND__@@I_K_J@Z 0000000180028830 f i GestureControl.obj
 0001:000279a0       ?StrChrW@CRegParser@ATL@@KAPEA_WPEA_W_W@Z 00000001800289a0 f i GestureControl.obj
 0001:00027a20       ?StrFromMap@CRegObject@ATL@@QEAAPEB_WPEA_W@Z 0000000180028a20 f i GestureControl.obj
 0001:00027ae0       ?Swap@?$CComPtrBase@UIAdviseSink@@@ATL@@IEAAXAEAV12@@Z 0000000180028ae0 f i GestureControl.obj
 0001:00027b40       ?Swap@?$CComPtrBase@UIOleClientSite@@@ATL@@IEAAXAEAV12@@Z 0000000180028b40 f i GestureControl.obj
 0001:00027ba0       ?Swap@?$CComPtrBase@UIUnknown@@@ATL@@IEAAXAEAV12@@Z 0000000180028ba0 f i GestureControl.obj
 0001:00027c00       ?T2COLE_EX@@YAPEB_WPEB_WI@Z 0000000180028c00 f i GestureControl.obj
 0001:00027c20       ?T2OLE_EX@@YAPEA_WPEA_WI@Z 0000000180028c20 f i GestureControl.obj
 0001:00027c40       ?Term@CAtlModule@ATL@@QEAAXXZ 0000000180028c40 f i GestureControl.obj
 0001:00027d00       ?Term@CComModule@ATL@@QEAAXXZ 0000000180028d00 f i GestureControl.obj
 0001:00027df0       ?TranslateAcceleratorW@?$IOleInPlaceActiveObjectImpl@VCOPOSGestureControl@@@ATL@@UEAAJPEAUtagMSG@@@Z 0000000180028df0 f i GestureControl.obj
 0001:00028060       ?UIDeactivate@?$IOleInPlaceObjectWindowlessImpl@VCOPOSGestureControl@@@ATL@@UEAAJXZ 0000000180029060 f i GestureControl.obj
 0001:00028110       ?Unadvise@?$CProxy_IOPOSEvents@VCOPOSGestureControl@@@@UEAAJK@Z 0000000180029110 f i GestureControl.obj
 0001:00028160       ?Unadvise@?$IConnectionPointImpl@VCOPOSGestureControl@@$1?DIID__IOPOSGestureControlEvents@@3U_GUID@@BVCComDynamicUnkArray@ATL@@@ATL@@UEAAJK@Z 0000000180029160 f i GestureControl.obj
 0001:00028250       ?Unadvise@?$IConnectionPointImpl@VCOPOSGestureControl@@$1?IID_IPropertyNotifySink@@3U_GUID@@BVCComDynamicUnkArray@ATL@@@ATL@@UEAAJK@Z 0000000180029250 f i GestureControl.obj
 0001:00028340       ?Unadvise@?$IOleObjectImpl@VCOPOSGestureControl@@@ATL@@UEAAJK@Z 0000000180029340 f i GestureControl.obj
 0001:00028430       ?Unfreeze@?$IViewObjectExImpl@VCOPOSGestureControl@@@ATL@@UEAAJK@Z 0000000180029430 f i GestureControl.obj
 0001:000284b0       ?Unlock@?$CComCritSecLock@VCComCriticalSection@ATL@@@ATL@@QEAAXXZ 00000001800294b0 f i GestureControl.obj
 0001:00028540       ?Unlock@?$CComObjectRootEx@VCComSingleThreadModel@ATL@@@ATL@@QEAAXXZ 0000000180029540 f i GestureControl.obj
 0001:00028550       ?Unlock@CAtlModule@ATL@@UEAAJXZ 0000000180029550 f i GestureControl.obj
 0001:00028590       ?Unlock@CComCriticalSection@ATL@@QEAAJXZ 0000000180029590 f i GestureControl.obj
 0001:000285d0       ?Unlock@CComFakeCriticalSection@ATL@@QEAAJXZ 00000001800295d0 f i GestureControl.obj
 0001:000285e0       ?UnregisterServer@?$CAtlModuleT@VCComModule@ATL@@@ATL@@QEAAJHPEBU_GUID@@@Z 00000001800295e0 f i GestureControl.obj
 0001:00028650       ?UnregisterServer@CAtlComModule@ATL@@QEAAJHPEBU_GUID@@@Z 0000000180029650 f i GestureControl.obj
 0001:00028690       ?UnregisterServer@CComModule@ATL@@QEAAJHPEBU_GUID@@@Z 0000000180029690 f i GestureControl.obj
 0001:00028780       ?Update@?$IOleObjectImpl@VCOPOSGestureControl@@@ATL@@UEAAJXZ 0000000180029780 f i GestureControl.obj
 0001:000287f0       ?UpdateRegistryFromResource@CAtlModule@ATL@@QEAAJIHPEAU_ATL_REGMAP_ENTRY@2@@Z 00000001800297f0 f i GestureControl.obj
 0001:00028d20       ?UpdateRegistryFromResource@CAtlModule@ATL@@QEAAJPEB_WHPEAU_ATL_REGMAP_ENTRY@2@@Z 0000000180029d20 f i GestureControl.obj
 0001:00029270       ?UpdateRegistryFromResource@CComModule@ATL@@UEAAJIHPEAU_ATL_REGMAP_ENTRY@2@@Z 000000018002a270 f i GestureControl.obj
 0001:000292c0       ?UpdateRegistryFromResource@CComModule@ATL@@UEAAJPEB_WHPEAU_ATL_REGMAP_ENTRY@2@@Z 000000018002a2c0 f i GestureControl.obj
 0001:00029310       ?UpdateRegistryFromResourceD@CComModule@ATL@@UEAAJIHPEAU_ATL_REGMAP_ENTRY@2@@Z 000000018002a310 f i GestureControl.obj
 0001:00029330       ?UpdateRegistryFromResourceD@CComModule@ATL@@UEAAJPEB_WHPEAU_ATL_REGMAP_ENTRY@2@@Z 000000018002a330 f i GestureControl.obj
 0001:00029350       ?VTFromRegType@CRegParser@ATL@@KAHPEB_WAEAG@Z 000000018002a350 f i GestureControl.obj
 0001:00029430       ?WindowProc@?$CWindowImplBaseT@VCWindow@ATL@@V?$CWinTraits@$0FGAAAAAA@$0A@@2@@ATL@@SA_JPEAUHWND__@@I_K_J@Z 000000018002a430 f i GestureControl.obj
 0001:00029710       ?WriteToStream@CComBSTR@ATL@@QEAAJPEAUIStream@@@Z 000000018002a710 f i GestureControl.obj
 0001:00029880       ?WriteToStream@CComVariant@ATL@@QEAAJPEAUIStream@@@Z 000000018002a880 f i GestureControl.obj
 0001:00029c90       ?WriteToStream@CComVariant@ATL@@QEAAJPEAUIStream@@G@Z 000000018002ac90 f i GestureControl.obj
 0001:00029d70       ?_AtlFinalConstruct@CComObjectRootBase@ATL@@QEAAJXZ 000000018002ad70 f i GestureControl.obj
 0001:00029d80       ?_AtlGetConversionACP@ATL@@YAIXZ 000000018002ad80 f i GestureControl.obj
 0001:00029d90       ?_AtlInitialConstruct@?$CComAggObject@VCOPOSGestureControl@@@ATL@@QEAAJXZ 000000018002ad90 f i GestureControl.obj
 0001:00029df0       ?_AtlInitialConstruct@?$CComObjectRootEx@VCComMultiThreadModel@ATL@@@ATL@@QEAAJXZ 000000018002adf0 f i GestureControl.obj
 0001:00029e30       ?_AtlInitialConstruct@?$CComObjectRootEx@VCComSingleThreadModel@ATL@@@ATL@@QEAAJXZ 000000018002ae30 f i GestureControl.obj
 0001:00029e40       ?_AtlVerifyStackAvailable@_ATL_SAFE_ALLOCA_IMPL@ATL@@YA_N_K@Z 000000018002ae40 f i GestureControl.obj
 0001:00029fa0       ?_GetEntries@?$CComEnum@UIEnumConnectionPoints@@$1?_GUID_b196b285_bab4_101a_b69c_00aa00341d07@@3U__s_GUID@@BPEAUIConnectionPoint@@V?$_CopyInterface@UIConnectionPoint@@@ATL@@VCComSingleThreadModel@6@@ATL@@SAPEBU_ATL_INTMAP_ENTRY@2@XZ 000000018002afa0 f i GestureControl.obj
 0001:00029fc0       ?_GetEntries@?$CComEnum@UIEnumConnections@@$1?_GUID_b196b287_bab4_101a_b69c_00aa00341d07@@3U__s_GUID@@BUtagCONNECTDATA@@V?$_Copy@UtagCONNECTDATA@@@ATL@@VCComSingleThreadModel@6@@ATL@@SAPEBU_ATL_INTMAP_ENTRY@2@XZ 000000018002afc0 f i GestureControl.obj
 0001:00029fe0       ?_GetEntries@CComClassFactory@ATL@@SAPEBU_ATL_INTMAP_ENTRY@2@XZ 000000018002afe0 f i GestureControl.obj
 0001:0002a000       ?_GetEntries@COPOSGestureControl@@SAPEBU_ATL_INTMAP_ENTRY@ATL@@XZ 000000018002b000 f i GestureControl.obj
 0001:0002a020       ?_GetRawUnknown@COPOSGestureControl@@QEAAPEAUIUnknown@@XZ 000000018002b020 f i GestureControl.obj
 0001:0002a0b0       ?_GetViewStatus@COPOSGestureControl@@QEAAKXZ 000000018002b0b0 f i GestureControl.obj
 0001:0002a0c0       ?_InternalQueryInterface@?$CComEnum@UIEnumConnectionPoints@@$1?_GUID_b196b285_bab4_101a_b69c_00aa00341d07@@3U__s_GUID@@BPEAUIConnectionPoint@@V?$_CopyInterface@UIConnectionPoint@@@ATL@@VCComSingleThreadModel@6@@ATL@@QEAAJAEBU_GUID@@PEAPEAX@Z 000000018002b0c0 f i GestureControl.obj
 0001:0002a110       ?_InternalQueryInterface@?$CComEnum@UIEnumConnections@@$1?_GUID_b196b287_bab4_101a_b69c_00aa00341d07@@3U__s_GUID@@BUtagCONNECTDATA@@V?$_Copy@UtagCONNECTDATA@@@ATL@@VCComSingleThreadModel@6@@ATL@@QEAAJAEBU_GUID@@PEAPEAX@Z 000000018002b110 f i GestureControl.obj
 0001:0002a160       ?_InternalQueryInterface@CComClassFactory@ATL@@QEAAJAEBU_GUID@@PEAPEAX@Z 000000018002b160 f i GestureControl.obj
 0001:0002a1b0       ?_InternalQueryInterface@COPOSGestureControl@@QEAAJAEBU_GUID@@PEAPEAX@Z 000000018002b1b0 f i GestureControl.obj
 0001:0002a200       ?_LocCPQueryInterface@?$IConnectionPointImpl@VCOPOSGestureControl@@$1?DIID__IOPOSGestureControlEvents@@3U_GUID@@BVCComDynamicUnkArray@ATL@@@ATL@@UEAAJAEBU_GUID@@PEAPEAX@Z 000000018002b200 f i GestureControl.obj
 0001:0002a2e0       ?_LocCPQueryInterface@?$IConnectionPointImpl@VCOPOSGestureControl@@$1?IID_IPropertyNotifySink@@3U_GUID@@BVCComDynamicUnkArray@ATL@@@ATL@@UEAAJAEBU_GUID@@PEAPEAX@Z 000000018002b2e0 f i GestureControl.obj
 0001:0002a3c0       ?atlCreate@?$CWindowImpl@VCOPOSGestureControl@@VCWindow@ATL@@V?$CWinTraits@$0FGAAAAAA@$0A@@3@@ATL@@QEAAPEAUHWND__@@PEAU3@V_U_RECT@2@PEB_WKKV_U_MENUorID@2@PEAX@Z 000000018002b3c0 f i GestureControl.obj
 0001:0002a4f0       ?atlCreate@?$CWindowImplBaseT@VCWindow@ATL@@V?$CWinTraits@$0FGAAAAAA@$0A@@2@@ATL@@QEAAPEAUHWND__@@PEAU3@V_U_RECT@2@PEB_WKKV_U_MENUorID@2@GPEAX@Z 000000018002b4f0 f i GestureControl.obj
 0001:0002a750       ?atlCreate@CRegKey@ATL@@QEAAJPEAUHKEY__@@PEB_WPEA_WKKPEAU_SECURITY_ATTRIBUTES@@PEAK@Z 000000018002b750 f i GestureControl.obj
 0001:0002a940       ?begin@CComDynamicUnkArray@ATL@@QEAAPEAPEAUIUnknown@@XZ 000000018002b940 f i GestureControl.obj
 0001:0002a950       ?copy@?$_Copy@UtagCONNECTDATA@@@ATL@@SAJPEAUtagCONNECTDATA@@PEBU3@@Z 000000018002b950 f i GestureControl.obj
 0001:0002aa40       ?copy@?$_CopyInterface@UIConnectionPoint@@@ATL@@SAJPEAPEAUIConnectionPoint@@PEBQEAU3@@Z 000000018002ba40 f i GestureControl.obj
 0001:0002ab30       ?destroy@?$_Copy@UtagCONNECTDATA@@@ATL@@SAXPEAUtagCONNECTDATA@@@Z 000000018002bb30 f i GestureControl.obj
 0001:0002ab80       ?destroy@?$_CopyInterface@UIConnectionPoint@@@ATL@@SAXPEAPEAUIConnectionPoint@@@Z 000000018002bb80 f i GestureControl.obj
 0001:0002abd0       ?end@CComDynamicUnkArray@ATL@@QEAAPEAPEAUIUnknown@@XZ 000000018002bbd0 f i GestureControl.obj
 0001:0002abf0       ?init@?$_Copy@UtagCONNECTDATA@@@ATL@@SAXPEAUtagCONNECTDATA@@@Z 000000018002bbf0 f i GestureControl.obj
 0001:0002ac00       ?init@?$_CopyInterface@UIConnectionPoint@@@ATL@@SAXPEAPEAUIConnectionPoint@@@Z 000000018002bc00 f i GestureControl.obj
 0001:0002ac10       ?memcpy_s@Checked@ATL@@YAXPEAX_KPEBX1@Z 000000018002bc10 f i GestureControl.obj
 0001:0002ac70       ?ocscpy_s@@YA_NPEA_W_KPEB_W@Z 000000018002bc70 f i GestureControl.obj
 0001:0002acf0       ?ocslen@@YAHPEB_W@Z        000000018002bcf0 f i GestureControl.obj
 0001:0002ad30       ?tcsncpy_s@Checked@ATL@@YAHPEA_W_KPEB_W1@Z 000000018002bd30 f i GestureControl.obj
 0001:0002ad90       ?wcscat_s@Checked@ATL@@YAXPEA_W_KPEB_W@Z 000000018002bd90 f i GestureControl.obj
 0001:0002ade0       ?wcscpy_s@Checked@ATL@@YAXPEA_W_KPEB_W@Z 000000018002bde0 f i GestureControl.obj
 0001:0002ae30       ?wcsncpy_s@Checked@ATL@@YAHPEA_W_KPEB_W1@Z 000000018002be30 f i GestureControl.obj
 0001:0002ae90       ?wcsstr@@YAPEA_WPEA_WPEB_W@Z 000000018002be90 f i GestureControl.obj
 0001:0002aed0       InlineIsEqualGUID          000000018002bed0 f i GestureControl.obj
 0001:0002afa0       IsEqualGUID                000000018002bfa0 f i GestureControl.obj
 0001:0002b000       ??0COPOSGestureControl@@QEAA@XZ 000000018002c000 f   GestureControlImpl.obj
 0001:0002b180       ?FinalConstruct@COPOSGestureControl@@QEAAJXZ 000000018002c180 f   GestureControlImpl.obj
 0001:0002b270       ??1COPOSGestureControl@@UEAA@XZ 000000018002c270 f   GestureControlImpl.obj
 0001:0002b350       ?WriteTrace@COPOSGestureControl@@QEAAXPEB_WZZ 000000018002c350 f   GestureControlImpl.obj
 0001:0002b410       ?WriteTraceString@COPOSGestureControl@@QEAAXPEB_WPEA_W@Z 000000018002c410 f   GestureControlImpl.obj
 0001:0002b850       ?WriteTraceString@COPOSGestureControl@@QEAAXPEAXHHHPEB_WZZ 000000018002c850 f   GestureControlImpl.obj
 0001:0002bae0       ?WriteTraceError@COPOSGestureControl@@QEAAXPEB_WK@Z 000000018002cae0 f   GestureControlImpl.obj
 0001:0002bbe0       ?WriteTraceMethods@COPOSGestureControl@@QEAAXPEAJH@Z 000000018002cbe0 f   GestureControlImpl.obj
 0001:0002bc70       ?GetOposProp@COPOSGestureControl@@IEAAJPEBDJPEAJJ@Z 000000018002cc70 f   GestureControlImpl.obj
 0001:0002bf90       ?SetOposProp@COPOSGestureControl@@IEAAJPEBDJJJ@Z 000000018002cf90 f   GestureControlImpl.obj
 0001:0002c2f0       ?GetOposProp@COPOSGestureControl@@IEAAJPEBDJPEAFJ@Z 000000018002d2f0 f   GestureControlImpl.obj
 0001:0002c390       ?SetOposProp@COPOSGestureControl@@IEAAJPEBDJFJ@Z 000000018002d390 f   GestureControlImpl.obj
 0001:0002c410       ?GetOposProp@COPOSGestureControl@@IEAAJPEBDJPEAPEA_WJ@Z 000000018002d410 f   GestureControlImpl.obj
 0001:0002c730       ?SetOposProp@COPOSGestureControl@@IEAAJPEBDJPEA_WJ@Z 000000018002d730 f   GestureControlImpl.obj
 0001:0002cb10       ?DoInvoke@COPOSGestureControl@@IEAAJPEBDJPEAVOposVariant@@IHPEAJ_N@Z 000000018002db10 f   GestureControlImpl.obj
 0001:0002d660       ?SetCOFreezeEvents@COPOSGestureControl@@IEAAXF@Z 000000018002e660 f   GestureControlImpl.obj
 0001:0002d7f0       ?FreezeEvents@COPOSGestureControl@@MEAAJH@Z 000000018002e7f0 f   GestureControlImpl.obj
 0001:0002d920       ?OnDraw@COPOSGestureControl@@MEAAJAEAUATL_DRAWINFO@@@Z 000000018002e920 f   GestureControlImpl.obj
 0001:0002daf0       ?SOProcessID@COPOSGestureControl@@UEAAJPEAJ@Z 000000018002eaf0 f   GestureControlImpl.obj
 0001:0002db50       ?get_OpenResult@COPOSGestureControl@@UEAAJPEAJ@Z 000000018002eb50 f   GestureControlImpl.obj
 0001:0002dbb0       ?get_BinaryConversion@COPOSGestureControl@@UEAAJPEAJ@Z 000000018002ebb0 f   GestureControlImpl.obj
 0001:0002dc10       ?put_BinaryConversion@COPOSGestureControl@@UEAAJJ@Z 000000018002ec10 f   GestureControlImpl.obj
 0001:0002dc80       ?get_CapPowerReporting@COPOSGestureControl@@UEAAJPEAJ@Z 000000018002ec80 f   GestureControlImpl.obj
 0001:0002dce0       ?get_CheckHealthText@COPOSGestureControl@@UEAAJPEAPEA_W@Z 000000018002ece0 f   GestureControlImpl.obj
 0001:0002dd40       ?get_Claimed@COPOSGestureControl@@UEAAJPEAF@Z 000000018002ed40 f   GestureControlImpl.obj
 0001:0002dda0       ?get_DeviceEnabled@COPOSGestureControl@@UEAAJPEAF@Z 000000018002eda0 f   GestureControlImpl.obj
 0001:0002de00       ?put_DeviceEnabled@COPOSGestureControl@@UEAAJF@Z 000000018002ee00 f   GestureControlImpl.obj
 0001:0002de60       ?get_FreezeEvents@COPOSGestureControl@@UEAAJPEAF@Z 000000018002ee60 f   GestureControlImpl.obj
 0001:0002dec0       ?put_FreezeEvents@COPOSGestureControl@@UEAAJF@Z 000000018002eec0 f   GestureControlImpl.obj
 0001:0002dfa0       ?get_OutputID@COPOSGestureControl@@UEAAJPEAJ@Z 000000018002efa0 f   GestureControlImpl.obj
 0001:0002e000       ?get_PowerNotify@COPOSGestureControl@@UEAAJPEAJ@Z 000000018002f000 f   GestureControlImpl.obj
 0001:0002e060       ?put_PowerNotify@COPOSGestureControl@@UEAAJJ@Z 000000018002f060 f   GestureControlImpl.obj
 0001:0002e0c0       ?get_PowerState@COPOSGestureControl@@UEAAJPEAJ@Z 000000018002f0c0 f   GestureControlImpl.obj
 0001:0002e120       ?get_ResultCode@COPOSGestureControl@@UEAAJPEAJ@Z 000000018002f120 f   GestureControlImpl.obj
 0001:0002e1f0       ?get_ResultCodeExtended@COPOSGestureControl@@UEAAJPEAJ@Z 000000018002f1f0 f   GestureControlImpl.obj
 0001:0002e250       ?get_State@COPOSGestureControl@@UEAAJPEAJ@Z 000000018002f250 f   GestureControlImpl.obj
 0001:0002e2e0       ?get_ControlObjectDescription@COPOSGestureControl@@UEAAJPEAPEA_W@Z 000000018002f2e0 f   GestureControlImpl.obj
 0001:0002e360       ?get_ControlObjectVersion@COPOSGestureControl@@UEAAJPEAJ@Z 000000018002f360 f   GestureControlImpl.obj
 0001:0002e3c0       ?get_ServiceObjectDescription@COPOSGestureControl@@UEAAJPEAPEA_W@Z 000000018002f3c0 f   GestureControlImpl.obj
 0001:0002e420       ?get_ServiceObjectVersion@COPOSGestureControl@@UEAAJPEAJ@Z 000000018002f420 f   GestureControlImpl.obj
 0001:0002e480       ?get_DeviceDescription@COPOSGestureControl@@UEAAJPEAPEA_W@Z 000000018002f480 f   GestureControlImpl.obj
 0001:0002e4e0       ?get_DeviceName@COPOSGestureControl@@UEAAJPEAPEA_W@Z 000000018002f4e0 f   GestureControlImpl.obj
 0001:0002e540       ?get_CapStatisticsReporting@COPOSGestureControl@@UEAAJPEAF@Z 000000018002f540 f   GestureControlImpl.obj
 0001:0002e5a0       ?get_CapUpdateStatistics@COPOSGestureControl@@UEAAJPEAF@Z 000000018002f5a0 f   GestureControlImpl.obj
 0001:0002e600       ?get_CapCompareFirmwareVersion@COPOSGestureControl@@UEAAJPEAF@Z 000000018002f600 f   GestureControlImpl.obj
 0001:0002e660       ?get_CapUpdateFirmware@COPOSGestureControl@@UEAAJPEAF@Z 000000018002f660 f   GestureControlImpl.obj
 0001:0002e6c0       ?CheckHealth@COPOSGestureControl@@UEAAJJPEAJ@Z 000000018002f6c0 f   GestureControlImpl.obj
 0001:0002e780       ?ClaimDevice@COPOSGestureControl@@UEAAJJPEAJ@Z 000000018002f780 f   GestureControlImpl.obj
 0001:0002e8a0       ?ClearOutput@COPOSGestureControl@@UEAAJPEAJ@Z 000000018002f8a0 f   GestureControlImpl.obj
 0001:0002e910       ?Close@COPOSGestureControl@@UEAAJPEAJ@Z 000000018002f910 f   GestureControlImpl.obj
 0001:0002ea20       ?DirectIO@COPOSGestureControl@@UEAAJJPEAJPEAPEA_W0@Z 000000018002fa20 f   GestureControlImpl.obj
 0001:0002eba0       ?Open@COPOSGestureControl@@UEAAJPEA_WPEAJ@Z 000000018002fba0 f   GestureControlImpl.obj
 0001:00030080       ?ReleaseDevice@COPOSGestureControl@@UEAAJPEAJ@Z 0000000180031080 f   GestureControlImpl.obj
 0001:00030130       ?ResetStatistics@COPOSGestureControl@@UEAAJPEA_WPEAJ@Z 0000000180031130 f   GestureControlImpl.obj
 0001:00030210       ?RetrieveStatistics@COPOSGestureControl@@UEAAJPEAPEA_WPEAJ@Z 0000000180031210 f   GestureControlImpl.obj
 0001:000302f0       ?UpdateStatistics@COPOSGestureControl@@UEAAJPEA_WPEAJ@Z 00000001800312f0 f   GestureControlImpl.obj
 0001:000303d0       ?CompareFirmwareVersion@COPOSGestureControl@@UEAAJPEA_WPEAJ1@Z 00000001800313d0 f   GestureControlImpl.obj
 0001:00030510       ?UpdateFirmware@COPOSGestureControl@@UEAAJPEA_WPEAJ@Z 0000000180031510 f   GestureControlImpl.obj
 0001:000305f0       ?get_AutoMode@COPOSGestureControl@@UEAAJPEAPEA_W@Z 00000001800315f0 f   GestureControlImpl.obj
 0001:00030650       ?put_AutoMode@COPOSGestureControl@@UEAAJPEA_W@Z 0000000180031650 f   GestureControlImpl.obj
 0001:000306b0       ?get_AutoModeList@COPOSGestureControl@@UEAAJPEAPEA_W@Z 00000001800316b0 f   GestureControlImpl.obj
 0001:00030710       ?get_CapAssociatedHardTotalsDevice@COPOSGestureControl@@UEAAJPEAPEA_W@Z 0000000180031710 f   GestureControlImpl.obj
 0001:00030770       ?get_CapMotion@COPOSGestureControl@@UEAAJPEAF@Z 0000000180031770 f   GestureControlImpl.obj
 0001:000307d0       ?get_CapMotionCreation@COPOSGestureControl@@UEAAJPEAF@Z 00000001800317d0 f   GestureControlImpl.obj
 0001:00030830       ?get_CapPose@COPOSGestureControl@@UEAAJPEAF@Z 0000000180031830 f   GestureControlImpl.obj
 0001:00030890       ?get_CapPoseCreation@COPOSGestureControl@@UEAAJPEAF@Z 0000000180031890 f   GestureControlImpl.obj
 0001:000308f0       ?get_CapStorage@COPOSGestureControl@@UEAAJPEAJ@Z 00000001800318f0 f   GestureControlImpl.obj
 0001:00030950       ?get_JointList@COPOSGestureControl@@UEAAJPEAPEA_W@Z 0000000180031950 f   GestureControlImpl.obj
 0001:000309b0       ?get_MotionList@COPOSGestureControl@@UEAAJPEAPEA_W@Z 00000001800319b0 f   GestureControlImpl.obj
 0001:00030a10       ?get_PoseCreationMode@COPOSGestureControl@@UEAAJPEAF@Z 0000000180031a10 f   GestureControlImpl.obj
 0001:00030a70       ?put_PoseCreationMode@COPOSGestureControl@@UEAAJF@Z 0000000180031a70 f   GestureControlImpl.obj
 0001:00030ad0       ?get_PoseList@COPOSGestureControl@@UEAAJPEAPEA_W@Z 0000000180031ad0 f   GestureControlImpl.obj
 0001:00030b30       ?get_Storage@COPOSGestureControl@@UEAAJPEAJ@Z 0000000180031b30 f   GestureControlImpl.obj
 0001:00030b90       ?put_Storage@COPOSGestureControl@@UEAAJJ@Z 0000000180031b90 f   GestureControlImpl.obj
 0001:00030bf0       ?CreateMotion@COPOSGestureControl@@UEAAJPEA_W0PEAJ@Z 0000000180031bf0 f   GestureControlImpl.obj
 0001:00030d30       ?CreatePose@COPOSGestureControl@@UEAAJPEA_WJPEAJ@Z 0000000180031d30 f   GestureControlImpl.obj
 0001:00030e60       ?GetPosition@COPOSGestureControl@@UEAAJPEA_WPEAJ1@Z 0000000180031e60 f   GestureControlImpl.obj
 0001:00030fa0       ?SetPosition@COPOSGestureControl@@UEAAJPEA_WJFPEAJ@Z 0000000180031fa0 f   GestureControlImpl.obj
 0001:00031110       ?SetSpeed@COPOSGestureControl@@UEAAJPEA_WJPEAJ@Z 0000000180032110 f   GestureControlImpl.obj
 0001:00031240       ?StartMotion@COPOSGestureControl@@UEAAJPEA_WPEAJ@Z 0000000180032240 f   GestureControlImpl.obj
 0001:00031320       ?StartPose@COPOSGestureControl@@UEAAJPEA_WPEAJ@Z 0000000180032320 f   GestureControlImpl.obj
 0001:00031400       ?StopControl@COPOSGestureControl@@UEAAJJPEAJ@Z 0000000180032400 f   GestureControlImpl.obj
 0001:000314c0       ??0?$CComControl@VCOPOSGestureControl@@V?$CWindowImpl@VCOPOSGestureControl@@VCWindow@ATL@@V?$CWinTraits@$0FGAAAAAA@$0A@@3@@ATL@@@ATL@@QEAA@XZ 00000001800324c0 f i GestureControlImpl.obj
 0001:00031510       ??0?$CComPtr@UIAdviseSink@@@ATL@@QEAA@XZ 0000000180032510 f i GestureControlImpl.obj
 0001:00031550       ??0?$CComPtr@UIDataAdviseHolder@@@ATL@@QEAA@XZ 0000000180032550 f i GestureControlImpl.obj
 0001:00031590       ??0?$CComPtr@UIOleAdviseHolder@@@ATL@@QEAA@XZ 0000000180032590 f i GestureControlImpl.obj
 0001:000315d0       ??0?$CComPtr@UIOleClientSite@@@ATL@@QEAA@XZ 00000001800325d0 f i GestureControlImpl.obj
 0001:00031610       ??0?$CComPtr@UIOleInPlaceSiteWindowless@@@ATL@@QEAA@XZ 0000000180032610 f i GestureControlImpl.obj
 0001:00031650       ??0?$CComPtrBase@UIAdviseSink@@@ATL@@IEAA@XZ 0000000180032650 f i GestureControlImpl.obj
 0001:00031670       ??0?$CComPtrBase@UIDataAdviseHolder@@@ATL@@IEAA@XZ 0000000180032670 f i GestureControlImpl.obj
 0001:00031690       ??0?$CComPtrBase@UIOleAdviseHolder@@@ATL@@IEAA@XZ 0000000180032690 f i GestureControlImpl.obj
 0001:000316b0       ??0?$CComPtrBase@UIOleClientSite@@@ATL@@IEAA@XZ 00000001800326b0 f i GestureControlImpl.obj
 0001:000316d0       ??0?$CComPtrBase@UIOleInPlaceSiteWindowless@@@ATL@@IEAA@XZ 00000001800326d0 f i GestureControlImpl.obj
 0001:000316f0       ??0?$CComQIPtr@UIDispatch@@$1?_GUID_00020400_0000_0000_c000_000000000046@@3U__s_GUID@@B@ATL@@QEAA@XZ 00000001800326f0 f i GestureControlImpl.obj
 0001:00031730       ??0?$CProxy_IOPOSEvents@VCOPOSGestureControl@@@@QEAA@PEAVCOPOSGestureControl@@@Z 0000000180032730 f i GestureControlImpl.obj
 0001:000317d0       ??0?$CWindowImpl@VCOPOSGestureControl@@VCWindow@ATL@@V?$CWinTraits@$0FGAAAAAA@$0A@@3@@ATL@@QEAA@XZ 00000001800327d0 f i GestureControlImpl.obj
 0001:00031810       ??0?$CWindowImplBaseT@VCWindow@ATL@@V?$CWinTraits@$0FGAAAAAA@$0A@@2@@ATL@@QEAA@XZ 0000000180032810 f i GestureControlImpl.obj
 0001:00031860       ??0?$CWindowImplRoot@VCWindow@ATL@@@ATL@@QEAA@XZ 0000000180032860 f i GestureControlImpl.obj
 0001:000318d0       ??0?$IConnectionPointContainerImpl@VCOPOSGestureControl@@@ATL@@QEAA@XZ 00000001800328d0 f i GestureControlImpl.obj
 0001:00031910       ??0?$IConnectionPointImpl@VCOPOSGestureControl@@$1?DIID__IOPOSGestureControlEvents@@3U_GUID@@BVCComDynamicUnkArray@ATL@@@ATL@@QEAA@XZ 0000000180032910 f i GestureControlImpl.obj
 0001:00031960       ??0?$IConnectionPointImpl@VCOPOSGestureControl@@$1?IID_IPropertyNotifySink@@3U_GUID@@BVCComDynamicUnkArray@ATL@@@ATL@@QEAA@XZ 0000000180032960 f i GestureControlImpl.obj
 0001:000319b0       ??0?$IDataObjectImpl@VCOPOSGestureControl@@@ATL@@QEAA@XZ 00000001800329b0 f i GestureControlImpl.obj
 0001:000319f0       ??0?$IDispatchImpl@UIOPOSGestureControl@@$1?IID_IOPOSGestureControl@@3U_GUID@@B$1?LIBID_OposGestureControl_CCO@@3U3@B$00$0A@VCComTypeInfoHolder@ATL@@@ATL@@QEAA@XZ 00000001800329f0 f i GestureControlImpl.obj
 0001:00031a30       ??0?$IObjectSafetyImpl@VCOPOSGestureControl@@$02@ATL@@QEAA@XZ 0000000180032a30 f i GestureControlImpl.obj
 0001:00031a70       ??0?$IOleControlImpl@VCOPOSGestureControl@@@ATL@@QEAA@XZ 0000000180032a70 f i GestureControlImpl.obj
 0001:00031ab0       ??0?$IOleInPlaceActiveObjectImpl@VCOPOSGestureControl@@@ATL@@QEAA@XZ 0000000180032ab0 f i GestureControlImpl.obj
 0001:00031af0       ??0?$IOleInPlaceObjectWindowlessImpl@VCOPOSGestureControl@@@ATL@@QEAA@XZ 0000000180032af0 f i GestureControlImpl.obj
 0001:00031b30       ??0?$IOleObjectImpl@VCOPOSGestureControl@@@ATL@@QEAA@XZ 0000000180032b30 f i GestureControlImpl.obj
 0001:00031b70       ??0?$IPersistStorageImpl@VCOPOSGestureControl@@@ATL@@QEAA@XZ 0000000180032b70 f i GestureControlImpl.obj
 0001:00031bb0       ??0?$IPersistStreamInitImpl@VCOPOSGestureControl@@@ATL@@QEAA@XZ 0000000180032bb0 f i GestureControlImpl.obj
 0001:00031bf0       ??0?$IPropertyNotifySinkCP@VCOPOSGestureControl@@VCComDynamicUnkArray@ATL@@@ATL@@QEAA@XZ 0000000180032bf0 f i GestureControlImpl.obj
 0001:00031c30       ??0?$IProvideClassInfo2Impl@$1?CLSID_OPOSGestureControl@@3U_GUID@@B$1?DIID__IOPOSGestureControlEvents@@3U2@B$1?LIBID_OposGestureControl_CCO@@3U2@B$00$0A@VCComTypeInfoHolder@ATL@@@ATL@@QEAA@XZ 0000000180032c30 f i GestureControlImpl.obj
 0001:00031c70       ??0?$IQuickActivateImpl@VCOPOSGestureControl@@@ATL@@QEAA@XZ 0000000180032c70 f i GestureControlImpl.obj
 0001:00031cb0       ??0?$ISpecifyPropertyPagesImpl@VCOPOSGestureControl@@@ATL@@QEAA@XZ 0000000180032cb0 f i GestureControlImpl.obj
 0001:00031cf0       ??0?$IViewObjectExImpl@VCOPOSGestureControl@@@ATL@@QEAA@XZ 0000000180032cf0 f i GestureControlImpl.obj
 0001:00031d30       ??0?$_ICPLocator@$1?DIID__IOPOSGestureControlEvents@@3U_GUID@@B@ATL@@QEAA@XZ 0000000180032d30 f i GestureControlImpl.obj
 0001:00031d40       ??0?$_ICPLocator@$1?IID_IPropertyNotifySink@@3U_GUID@@B@ATL@@QEAA@XZ 0000000180032d40 f i GestureControlImpl.obj
 0001:00031d50       ??0CComControlBase@ATL@@QEAA@AEAPEAUHWND__@@@Z 0000000180032d50 f i GestureControlImpl.obj
 0001:00031f70       ??0CComDynamicUnkArray@ATL@@QEAA@XZ 0000000180032f70 f i GestureControlImpl.obj
 0001:00031fa0       ??0CDynamicStdCallThunk2@ATL@@QEAA@XZ 0000000180032fa0 f i GestureControlImpl.obj
 0001:00031fc0       ??0CMessageMap@ATL@@QEAA@XZ 0000000180032fc0 f i GestureControlImpl.obj
 0001:00031fd0       ??0CWindow@ATL@@QEAA@PEAUHWND__@@@Z 0000000180032fd0 f i GestureControlImpl.obj
 0001:00031ff0       ??0CWndProcThunk@ATL@@QEAA@XZ 0000000180032ff0 f i GestureControlImpl.obj
 0001:00032030       ??0IConnectionPointContainer@@QEAA@XZ 0000000180033030 f i GestureControlImpl.obj
 0001:00032070       ??0IDataObject@@QEAA@XZ    0000000180033070 f i GestureControlImpl.obj
 0001:000320b0       ??0IDispatch@@QEAA@XZ      00000001800330b0 f i GestureControlImpl.obj
 0001:000320f0       ??0IOPOSGestureControl@@QEAA@XZ 00000001800330f0 f i GestureControlImpl.obj
 0001:00032130       ??0IOPOSGestureControl_1_16@@QEAA@XZ 0000000180033130 f i GestureControlImpl.obj
 0001:00032170       ??0IObjectSafety@@QEAA@XZ  0000000180033170 f i GestureControlImpl.obj
 0001:000321b0       ??0IOleControl@@QEAA@XZ    00000001800331b0 f i GestureControlImpl.obj
 0001:000321f0       ??0IOleInPlaceActiveObject@@QEAA@XZ 00000001800331f0 f i GestureControlImpl.obj
 0001:00032230       ??0IOleInPlaceObject@@QEAA@XZ 0000000180033230 f i GestureControlImpl.obj
 0001:00032270       ??0IOleInPlaceObjectWindowless@@QEAA@XZ 0000000180033270 f i GestureControlImpl.obj
 0001:000322b0       ??0IOleObject@@QEAA@XZ     00000001800332b0 f i GestureControlImpl.obj
 0001:000322f0       ??0IOleWindow@@QEAA@XZ     00000001800332f0 f i GestureControlImpl.obj
 0001:00032330       ??0IPersist@@QEAA@XZ       0000000180033330 f i GestureControlImpl.obj
 0001:00032370       ??0IPersistStorage@@QEAA@XZ 0000000180033370 f i GestureControlImpl.obj
 0001:000323b0       ??0IPersistStreamInit@@QEAA@XZ 00000001800333b0 f i GestureControlImpl.obj
 0001:000323f0       ??0IProvideClassInfo2@@QEAA@XZ 00000001800333f0 f i GestureControlImpl.obj
 0001:00032430       ??0IProvideClassInfo@@QEAA@XZ 0000000180033430 f i GestureControlImpl.obj
 0001:00032470       ??0IQuickActivate@@QEAA@XZ 0000000180033470 f i GestureControlImpl.obj
 0001:000324b0       ??0ISpecifyPropertyPages@@QEAA@XZ 00000001800334b0 f i GestureControlImpl.obj
 0001:000324f0       ??0IViewObject2@@QEAA@XZ   00000001800334f0 f i GestureControlImpl.obj
 0001:00032530       ??0IViewObject@@QEAA@XZ    0000000180033530 f i GestureControlImpl.obj
 0001:00032570       ??0IViewObjectEx@@QEAA@XZ  0000000180033570 f i GestureControlImpl.obj
 0001:000325b0       ??0OposVariantResult@@QEAA@XZ 00000001800335b0 f i GestureControlImpl.obj
 0001:000325f0       ??0_CW@@QEAA@PEBD@Z        00000001800335f0 f i GestureControlImpl.obj
 0001:00032640       ??0_CW@@QEAA@PEB_W@Z       0000000180033640 f i GestureControlImpl.obj
 0001:00032690       ??0_CWNCC@@QEAA@PEBD@Z     0000000180033690 f i GestureControlImpl.obj
 0001:000326d0       ??1?$CComControl@VCOPOSGestureControl@@V?$CWindowImpl@VCOPOSGestureControl@@VCWindow@ATL@@V?$CWinTraits@$0FGAAAAAA@$0A@@3@@ATL@@@ATL@@UEAA@XZ 00000001800336d0 f i GestureControlImpl.obj
 0001:00032710       ??1?$CComPtr@UIDataAdviseHolder@@@ATL@@QEAA@XZ 0000000180033710 f i GestureControlImpl.obj
 0001:00032740       ??1?$CComPtr@UIOleAdviseHolder@@@ATL@@QEAA@XZ 0000000180033740 f i GestureControlImpl.obj
 0001:00032770       ??1?$CComPtr@UIOleInPlaceSiteWindowless@@@ATL@@QEAA@XZ 0000000180033770 f i GestureControlImpl.obj
 0001:000327a0       ??1?$CComPtrBase@UIDataAdviseHolder@@@ATL@@QEAA@XZ 00000001800337a0 f i GestureControlImpl.obj
 0001:000327f0       ??1?$CComPtrBase@UIOleAdviseHolder@@@ATL@@QEAA@XZ 00000001800337f0 f i GestureControlImpl.obj
 0001:00032840       ??1?$CComPtrBase@UIOleInPlaceSiteWindowless@@@ATL@@QEAA@XZ 0000000180033840 f i GestureControlImpl.obj
 0001:00032890       ??1?$CComQIPtr@UIDispatch@@$1?_GUID_00020400_0000_0000_c000_000000000046@@3U__s_GUID@@B@ATL@@QEAA@XZ 0000000180033890 f i GestureControlImpl.obj
 0001:000328c0       ??1?$CProxy_IOPOSEvents@VCOPOSGestureControl@@@@QEAA@XZ 00000001800338c0 f i GestureControlImpl.obj
 0001:000328f0       ??1?$CWindowImpl@VCOPOSGestureControl@@VCWindow@ATL@@V?$CWinTraits@$0FGAAAAAA@$0A@@3@@ATL@@UEAA@XZ 00000001800338f0 f i GestureControlImpl.obj
 0001:00032920       ??1?$CWindowImplBaseT@VCWindow@ATL@@V?$CWinTraits@$0FGAAAAAA@$0A@@2@@ATL@@UEAA@XZ 0000000180033920 f i GestureControlImpl.obj
 0001:00032950       ??1?$CWindowImplRoot@VCWindow@ATL@@@ATL@@UEAA@XZ 0000000180033950 f i GestureControlImpl.obj
 0001:00032a10       ??1?$IConnectionPointImpl@VCOPOSGestureControl@@$1?DIID__IOPOSGestureControlEvents@@3U_GUID@@BVCComDynamicUnkArray@ATL@@@ATL@@QEAA@XZ 0000000180033a10 f i GestureControlImpl.obj
 0001:00032ab0       ??1?$IConnectionPointImpl@VCOPOSGestureControl@@$1?IID_IPropertyNotifySink@@3U_GUID@@BVCComDynamicUnkArray@ATL@@@ATL@@QEAA@XZ 0000000180033ab0 f i GestureControlImpl.obj
 0001:00032b50       ??1?$IPropertyNotifySinkCP@VCOPOSGestureControl@@VCComDynamicUnkArray@ATL@@@ATL@@QEAA@XZ 0000000180033b50 f i GestureControlImpl.obj
 0001:00032b80       ??1CComControlBase@ATL@@UEAA@XZ 0000000180033b80 f i GestureControlImpl.obj
 0001:00032c70       ??1CComDynamicUnkArray@ATL@@QEAA@XZ 0000000180033c70 f i GestureControlImpl.obj
 0001:00032cb0       ??1CDynamicStdCallThunk2@ATL@@QEAA@XZ 0000000180033cb0 f i GestureControlImpl.obj
 0001:00032cf0       ??1CWndProcThunk@ATL@@QEAA@XZ 0000000180033cf0 f i GestureControlImpl.obj
 0001:00032d30       ??1OposVariantResult@@QEAA@XZ 0000000180033d30 f i GestureControlImpl.obj
 0001:00032d70       ??1_CW@@QEAA@XZ            0000000180033d70 f i GestureControlImpl.obj
 0001:00032df0       ??1_CWNCC@@QEAA@XZ         0000000180033df0 f i GestureControlImpl.obj
 0001:00032e20       ??B_CW@@QEAAPEB_WXZ        0000000180033e20 f i GestureControlImpl.obj
 0001:00032e70       ??B_CWNCC@@QEAAPEA_WXZ     0000000180033e70 f i GestureControlImpl.obj
 0001:00032ea0       ??_EOposVariant@@QEAAPEAXI@Z 0000000180033ea0 f i GestureControlImpl.obj
 0001:00032f50       ?EventClaim@COPOSGestureControl@@IEAAXXZ 0000000180033f50 f i GestureControlImpl.obj
 0001:00032fa0       ?EventClose@COPOSGestureControl@@IEAAXXZ 0000000180033fa0 f i GestureControlImpl.obj
 0001:00033040       ?EventInit@COPOSGestureControl@@IEAAJXZ 0000000180034040 f i GestureControlImpl.obj
 0001:000332f0       ?EventOpen@COPOSGestureControl@@IEAAXXZ 00000001800342f0 f i GestureControlImpl.obj
 0001:00033330       ?EventPreCloseRelease@COPOSGestureControl@@IEAAXXZ 0000000180034330 f i GestureControlImpl.obj
 0001:000333b0       ?EventUninit@COPOSGestureControl@@IEAAXXZ 00000001800343b0 f i GestureControlImpl.obj
 0001:000334e0       ?EventWindowProc@COPOSGestureControl@@IEAA_JI_K_J@Z 00000001800344e0 f i GestureControlImpl.obj
 0001:000336b0       ?FireEventCleanup@COPOSGestureControl@@IEAAXXZ 00000001800346b0 f i GestureControlImpl.obj
 0001:00033700       ?FireEventSetup@COPOSGestureControl@@IEAA_NXZ 0000000180034700 f i GestureControlImpl.obj
 0001:00033780       ?GetModuleInstance@CComModule@ATL@@QEAAPEAUHINSTANCE__@@XZ 0000000180034780 f i GestureControlImpl.obj
 0001:00033790       ?SetRC@COPOSGestureControl@@IEAAJJ@Z 0000000180034790 f i GestureControlImpl.obj
 0001:000337b0       ?s_EventWindowProc@COPOSGestureControl@@KA_JPEAUHWND__@@I_K_J@Z 00000001800347b0 f i GestureControlImpl.obj
 0001:00033860       _snwprintf                 0000000180034860 f i GestureControlImpl.obj
 0001:000338f0       _vfwprintf_l               00000001800348f0 f i GestureControlImpl.obj
 0001:00033950       _vsnwprintf                0000000180034950 f i GestureControlImpl.obj
 0001:000339b0       _vsnwprintf_l              00000001800349b0 f i GestureControlImpl.obj
 0001:00033a40       vfwprintf                  0000000180034a40 f i GestureControlImpl.obj
 0001:00033a85       DebugBreak                 0000000180034a85 f   kernel32:KERNEL32.dll
 0001:00033a8b       Sleep                      0000000180034a8b f   kernel32:KERNEL32.dll
 0001:00033a91       GetCurrentProcess          0000000180034a91 f   kernel32:KERNEL32.dll
 0001:00033a97       TerminateProcess           0000000180034a97 f   kernel32:KERNEL32.dll
 0001:00033a9d       MultiByteToWideChar        0000000180034a9d f   kernel32:KERNEL32.dll
 0001:00033aa3       WideCharToMultiByte        0000000180034aa3 f   kernel32:KERNEL32.dll
 0001:00033aa9       DecodePointer              0000000180034aa9 f   kernel32:KERNEL32.dll
 0001:00033aaf       RaiseException             0000000180034aaf f   kernel32:KERNEL32.dll
 0001:00033ab5       GetLastError               0000000180034ab5 f   kernel32:KERNEL32.dll
 0001:00033abb       SetLastError               0000000180034abb f   kernel32:KERNEL32.dll
 0001:00033ac1       InitializeCriticalSectionEx 0000000180034ac1 f   kernel32:KERNEL32.dll
 0001:00033ac7       DeleteCriticalSection      0000000180034ac7 f   kernel32:KERNEL32.dll
 0001:00033acd       EncodePointer              0000000180034acd f   kernel32:KERNEL32.dll
 0001:00033ad3       EnterCriticalSection       0000000180034ad3 f   kernel32:KERNEL32.dll
 0001:00033ad9       LeaveCriticalSection       0000000180034ad9 f   kernel32:KERNEL32.dll
 0001:00033adf       ResetEvent                 0000000180034adf f   kernel32:KERNEL32.dll
 0001:00033ae5       ReleaseMutex               0000000180034ae5 f   kernel32:KERNEL32.dll
 0001:00033aeb       WaitForSingleObject        0000000180034aeb f   kernel32:KERNEL32.dll
 0001:00033af1       GetCurrentThreadId         0000000180034af1 f   kernel32:KERNEL32.dll
 0001:00033af7       DisableThreadLibraryCalls  0000000180034af7 f   kernel32:KERNEL32.dll
 0001:00033afd       FreeLibrary                0000000180034afd f   kernel32:KERNEL32.dll
 0001:00033b03       GetModuleFileNameW         0000000180034b03 f   kernel32:KERNEL32.dll
 0001:00033b09       GetModuleHandleW           0000000180034b09 f   kernel32:KERNEL32.dll
 0001:00033b0f       GetProcAddress             0000000180034b0f f   kernel32:KERNEL32.dll
 0001:00033b15       LoadLibraryExW             0000000180034b15 f   kernel32:KERNEL32.dll
 0001:00033b1b       LoadResource               0000000180034b1b f   kernel32:KERNEL32.dll
 0001:00033b21       SizeofResource             0000000180034b21 f   kernel32:KERNEL32.dll
 0001:00033b27       FindResourceW              0000000180034b27 f   kernel32:KERNEL32.dll
 0001:00033b2d       GlobalAlloc                0000000180034b2d f   kernel32:KERNEL32.dll
 0001:00033b33       GlobalUnlock               0000000180034b33 f   kernel32:KERNEL32.dll
 0001:00033b39       GlobalLock                 0000000180034b39 f   kernel32:KERNEL32.dll
 0001:00033b3f       MulDiv                     0000000180034b3f f   kernel32:KERNEL32.dll
 0001:00033b45       lstrcmpiW                  0000000180034b45 f   kernel32:KERNEL32.dll
 0001:00033b4b       DeleteFileW                0000000180034b4b f   kernel32:KERNEL32.dll
 0001:00033b51       CloseHandle                0000000180034b51 f   kernel32:KERNEL32.dll
 0001:00033b57       SetEvent                   0000000180034b57 f   kernel32:KERNEL32.dll
 0001:00033b5d       CreateMutexW               0000000180034b5d f   kernel32:KERNEL32.dll
 0001:00033b63       CreateEventW               0000000180034b63 f   kernel32:KERNEL32.dll
 0001:00033b69       GetCurrentProcessId        0000000180034b69 f   kernel32:KERNEL32.dll
 0001:00033b6f       LocalFree                  0000000180034b6f f   kernel32:KERNEL32.dll
 0001:00033b75       FormatMessageW             0000000180034b75 f   kernel32:KERNEL32.dll
 0001:00033b7b       GetActiveWindow            0000000180034b7b f   user32:USER32.dll
 0001:00033b81       MessageBoxW                0000000180034b81 f   user32:USER32.dll
 0001:00033b87       UnregisterClassW           0000000180034b87 f   user32:USER32.dll
 0001:00033b8d       PostMessageW               0000000180034b8d f   user32:USER32.dll
 0001:00033b93       DefWindowProcW             0000000180034b93 f   user32:USER32.dll
 0001:00033b99       CallWindowProcW            0000000180034b99 f   user32:USER32.dll
 0001:00033b9f       RegisterClassExW           0000000180034b9f f   user32:USER32.dll
 0001:00033ba5       GetClassInfoExW            0000000180034ba5 f   user32:USER32.dll
 0001:00033bab       CreateWindowExW            0000000180034bab f   user32:USER32.dll
 0001:00033bb1       IsWindow                   0000000180034bb1 f   user32:USER32.dll
 0001:00033bb7       IsChild                    0000000180034bb7 f   user32:USER32.dll
 0001:00033bbd       DestroyWindow              0000000180034bbd f   user32:USER32.dll
 0001:00033bc3       ShowWindow                 0000000180034bc3 f   user32:USER32.dll
 0001:00033bc9       SetWindowPos               0000000180034bc9 f   user32:USER32.dll
 0001:00033bcf       CharNextW                  0000000180034bcf f   user32:USER32.dll
 0001:00033bd5       SetFocus                   0000000180034bd5 f   user32:USER32.dll
 0001:00033bdb       GetFocus                   0000000180034bdb f   user32:USER32.dll
 0001:00033be1       GetKeyState                0000000180034be1 f   user32:USER32.dll
 0001:00033be7       GetDC                      0000000180034be7 f   user32:USER32.dll
 0001:00033bed       ReleaseDC                  0000000180034bed f   user32:USER32.dll
 0001:00033bf3       BeginPaint                 0000000180034bf3 f   user32:USER32.dll
 0001:00033bf9       EndPaint                   0000000180034bf9 f   user32:USER32.dll
 0001:00033bff       SetWindowRgn               0000000180034bff f   user32:USER32.dll
 0001:00033c05       InvalidateRect             0000000180034c05 f   user32:USER32.dll
 0001:00033c0b       GetClientRect              0000000180034c0b f   user32:USER32.dll
 0001:00033c11       IntersectRect              0000000180034c11 f   user32:USER32.dll
 0001:00033c17       UnionRect                  0000000180034c17 f   user32:USER32.dll
 0001:00033c1d       OffsetRect                 0000000180034c1d f   user32:USER32.dll
 0001:00033c23       EqualRect                  0000000180034c23 f   user32:USER32.dll
 0001:00033c29       PtInRect                   0000000180034c29 f   user32:USER32.dll
 0001:00033c2f       GetWindowLongPtrW          0000000180034c2f f   user32:USER32.dll
 0001:00033c35       SetWindowLongPtrW          0000000180034c35 f   user32:USER32.dll
 0001:00033c3b       GetParent                  0000000180034c3b f   user32:USER32.dll
 0001:00033c41       LoadCursorW                0000000180034c41 f   user32:USER32.dll
 0001:00033c47       PeekMessageW               0000000180034c47 f   user32:USER32.dll
 0001:00033c4d       RegisterClassW             0000000180034c4d f   user32:USER32.dll
 0001:00033c53       LoadBitmapW                0000000180034c53 f   user32:USER32.dll
 0001:00033c59       CloseMetaFile              0000000180034c59 f   gdi32:GDI32.dll
 0001:00033c5f       CreateDCW                  0000000180034c5f f   gdi32:GDI32.dll
 0001:00033c65       CreateMetaFileW            0000000180034c65 f   gdi32:GDI32.dll
 0001:00033c6b       CreateRectRgnIndirect      0000000180034c6b f   gdi32:GDI32.dll
 0001:00033c71       DeleteDC                   0000000180034c71 f   gdi32:GDI32.dll
 0001:00033c77       DeleteMetaFile             0000000180034c77 f   gdi32:GDI32.dll
 0001:00033c7d       GetDeviceCaps              0000000180034c7d f   gdi32:GDI32.dll
 0001:00033c83       RestoreDC                  0000000180034c83 f   gdi32:GDI32.dll
 0001:00033c89       SaveDC                     0000000180034c89 f   gdi32:GDI32.dll
 0001:00033c8f       SetMapMode                 0000000180034c8f f   gdi32:GDI32.dll
 0001:00033c95       LPtoDP                     0000000180034c95 f   gdi32:GDI32.dll
 0001:00033c9b       SetViewportOrgEx           0000000180034c9b f   gdi32:GDI32.dll
 0001:00033ca1       SetWindowExtEx             0000000180034ca1 f   gdi32:GDI32.dll
 0001:00033ca7       SetWindowOrgEx             0000000180034ca7 f   gdi32:GDI32.dll
 0001:00033cad       BitBlt                     0000000180034cad f   gdi32:GDI32.dll
 0001:00033cb3       CreateCompatibleDC         0000000180034cb3 f   gdi32:GDI32.dll
 0001:00033cb9       DeleteObject               0000000180034cb9 f   gdi32:GDI32.dll
 0001:00033cbf       SelectObject               0000000180034cbf f   gdi32:GDI32.dll
 0001:00033cc5       GetObjectW                 0000000180034cc5 f   gdi32:GDI32.dll
 0001:00033ccb       RegCloseKey                0000000180034ccb f   advapi32:ADVAPI32.dll
 0001:00033cd1       RegCreateKeyExW            0000000180034cd1 f   advapi32:ADVAPI32.dll
 0001:00033cd7       RegDeleteKeyW              0000000180034cd7 f   advapi32:ADVAPI32.dll
 0001:00033cdd       RegDeleteValueW            0000000180034cdd f   advapi32:ADVAPI32.dll
 0001:00033ce3       RegEnumKeyExW              0000000180034ce3 f   advapi32:ADVAPI32.dll
 0001:00033ce9       RegOpenKeyExW              0000000180034ce9 f   advapi32:ADVAPI32.dll
 0001:00033cef       RegQueryInfoKeyW           0000000180034cef f   advapi32:ADVAPI32.dll
 0001:00033cf5       RegSetValueExW             0000000180034cf5 f   advapi32:ADVAPI32.dll
 0001:00033cfb       RegQueryValueExW           0000000180034cfb f   advapi32:ADVAPI32.dll
 0001:00033d01       CoCreateInstance           0000000180034d01 f   ole32:ole32.dll
 0001:00033d07       StringFromGUID2            0000000180034d07 f   ole32:ole32.dll
 0001:00033d0d       CoTaskMemAlloc             0000000180034d0d f   ole32:ole32.dll
 0001:00033d13       CoTaskMemRealloc           0000000180034d13 f   ole32:ole32.dll
 0001:00033d19       CoTaskMemFree              0000000180034d19 f   ole32:ole32.dll
 0001:00033d1f       ReadClassStm               0000000180034d1f f   ole32:ole32.dll
 0001:00033d25       WriteClassStm              0000000180034d25 f   ole32:ole32.dll
 0001:00033d2b       CreateDataAdviseHolder     0000000180034d2b f   ole32:ole32.dll
 0001:00033d31       OleSaveToStream            0000000180034d31 f   ole32:ole32.dll
 0001:00033d37       CreateOleAdviseHolder      0000000180034d37 f   ole32:ole32.dll
 0001:00033d3d       OleRegGetUserType          0000000180034d3d f   ole32:ole32.dll
 0001:00033d43       OleRegGetMiscStatus        0000000180034d43 f   ole32:ole32.dll
 0001:00033d49       OleRegEnumVerbs            0000000180034d49 f   ole32:ole32.dll
 0001:00033d4f       CLSIDFromProgID            0000000180034d4f f   ole32:ole32.dll
 0001:00033d55       SysAllocString             0000000180034d55 f   oleaut32:OLEAUT32.dll
 0001:00033d5b       SysAllocStringLen          0000000180034d5b f   oleaut32:OLEAUT32.dll
 0001:00033d61       SysFreeString              0000000180034d61 f   oleaut32:OLEAUT32.dll
 0001:00033d67       SysStringLen               0000000180034d67 f   oleaut32:OLEAUT32.dll
 0001:00033d6d       VariantClear               0000000180034d6d f   oleaut32:OLEAUT32.dll
 0001:00033d73       VariantCopyInd             0000000180034d73 f   oleaut32:OLEAUT32.dll
 0001:00033d79       VariantChangeType          0000000180034d79 f   oleaut32:OLEAUT32.dll
 0001:00033d7f       SysStringByteLen           0000000180034d7f f   oleaut32:OLEAUT32.dll
 0001:00033d85       SysAllocStringByteLen      0000000180034d85 f   oleaut32:OLEAUT32.dll
 0001:00033d8b       VariantInit                0000000180034d8b f   oleaut32:OLEAUT32.dll
 0001:00033d91       VarUI4FromStr              0000000180034d91 f   oleaut32:OLEAUT32.dll
 0001:00033d97       LoadTypeLib                0000000180034d97 f   oleaut32:OLEAUT32.dll
 0001:00033d9d       LoadRegTypeLib             0000000180034d9d f   oleaut32:OLEAUT32.dll
 0001:00033da3       RegisterTypeLib            0000000180034da3 f   oleaut32:OLEAUT32.dll
 0001:00033da9       UnRegisterTypeLib          0000000180034da9 f   oleaut32:OLEAUT32.dll
 0001:00033daf       OleCreatePropertyFrame     0000000180034daf f   oleaut32:OLEAUT32.dll
 0001:00033dc0       _RTC_AllocaHelper          0000000180034dc0 f   LIBCMTD:stack.obj
 0001:00033e00       _RTC_CheckStackVars        0000000180034e00 f   LIBCMTD:stack.obj
 0001:00033e90       _RTC_CheckStackVars2       0000000180034e90 f   LIBCMTD:stack.obj
 0001:00033fa0       _CRT_RTC_INIT              0000000180034fa0 f   LIBCMTD:init.obj
 0001:00033fb0       _CRT_RTC_INITW             0000000180034fb0 f   LIBCMTD:init.obj
 0001:00033fc0       _RTC_InitBase              0000000180034fc0 f   LIBCMTD:init.obj
 0001:00034000       _RTC_Shutdown              0000000180035000 f   LIBCMTD:init.obj
 0001:00034030       __GSHandlerCheck           0000000180035030 f   LIBCMTD:gshandler.obj
 0001:00034070       __GSHandlerCheckCommon     0000000180035070 f   LIBCMTD:gshandler.obj
 0001:00034180       __security_check_cookie    0000000180035180 f   LIBCMTD:amdsecgs.obj
 0001:000341b0       ??_U@YAPEAX_K@Z            00000001800351b0 f   LIBCMTD:new_array.obj
 0001:000341d0       ??3@YAXPEAX_K@Z            00000001800351d0 f   LIBCMTD:delete_scalar_size.obj
 0001:000341f0       ??_V@YAXPEAX@Z             00000001800351f0 f   LIBCMTD:delete_array.obj
 0001:00034210       ??_V@YAXPEAX_K@Z           0000000180035210 f   LIBCMTD:delete_array_size.obj
 0001:00034230       ?configure_argv@__scrt_narrow_argv_policy@@SAHXZ 0000000180035230 f i LIBCMTD:utility.obj
 0001:00034320       ?initialize_environment@__scrt_narrow_environment_policy@@SAHXZ 0000000180035320 f i LIBCMTD:utility.obj
 0001:000343c0       NtCurrentTeb               00000001800353c0 f i LIBCMTD:utility.obj
 0001:000343d0       __scrt_acquire_startup_lock 00000001800353d0 f   LIBCMTD:utility.obj
 0001:00034440       __scrt_dllmain_after_initialize_c 0000000180035440 f   LIBCMTD:utility.obj
 0001:00034470       __scrt_dllmain_before_initialize_c 0000000180035470 f   LIBCMTD:utility.obj
 0001:00034490       __scrt_dllmain_crt_thread_attach 0000000180035490 f   LIBCMTD:utility.obj
 0001:000344c0       __scrt_dllmain_crt_thread_detach 00000001800354c0 f   LIBCMTD:utility.obj
 0001:000344e0       __scrt_dllmain_exception_filter 00000001800354e0 f   LIBCMTD:utility.obj
 0001:00034550       __scrt_dllmain_uninitialize_c 0000000180035550 f   LIBCMTD:utility.obj
 0001:00034580       __scrt_dllmain_uninitialize_critical 0000000180035580 f   LIBCMTD:utility.obj
 0001:000345a0       __scrt_initialize_crt      00000001800355a0 f   LIBCMTD:utility.obj
 0001:000345f0       __scrt_initialize_onexit_tables 00000001800355f0 f   LIBCMTD:utility.obj
 0001:00034700       __scrt_is_nonwritable_in_current_image 0000000180035700 f   LIBCMTD:utility.obj
 0001:00034790       __scrt_release_startup_lock 0000000180035790 f   LIBCMTD:utility.obj
 0001:000347c0       __scrt_uninitialize_crt    00000001800357c0 f   LIBCMTD:utility.obj
 0001:00034800       _onexit                    0000000180035800 f   LIBCMTD:utility.obj
 0001:00034880       at_quick_exit              0000000180035880 f   LIBCMTD:utility.obj
 0001:000348d0       atexit                     00000001800358d0 f   LIBCMTD:utility.obj
 0001:00034910       ??3@YAXPEAX@Z              0000000180035910 f   LIBCMTD:delete_scalar.obj
 0001:00034930       __raise_securityfailure    0000000180035930 f   LIBCMTD:gs_report.obj
 0001:00034970       __report_gsfailure         0000000180035970 f   LIBCMTD:gs_report.obj
 0001:00034a50       __report_rangecheckfailure 0000000180035a50 f   LIBCMTD:gs_report.obj
 0001:00034a70       __report_securityfailure   0000000180035a70 f   LIBCMTD:gs_report.obj
 0001:00034b10       __report_securityfailureEx 0000000180035b10 f   LIBCMTD:gs_report.obj
 0001:00034ed0       _Init_thread_abort         0000000180035ed0 f   LIBCMTD:thread_safe_statics.obj
 0001:00034f00       _Init_thread_footer        0000000180035f00 f   LIBCMTD:thread_safe_statics.obj
 0001:00034f60       _Init_thread_header        0000000180035f60 f   LIBCMTD:thread_safe_statics.obj
 0001:00034ff0       _Init_thread_lock          0000000180035ff0 f   LIBCMTD:thread_safe_statics.obj
 0001:00035010       _Init_thread_notify        0000000180036010 f   LIBCMTD:thread_safe_statics.obj
 0001:00035070       _Init_thread_unlock        0000000180036070 f   LIBCMTD:thread_safe_statics.obj
 0001:00035090       _Init_thread_wait          0000000180036090 f   LIBCMTD:thread_safe_statics.obj
 0001:00035140       ??2@YAPEAX_KAEBUnothrow_t@std@@@Z 0000000180036140 f   LIBCMTD:new_scalar_nothrow.obj
 0001:00035180       ??_U@YAPEAX_KAEBUnothrow_t@std@@@Z 0000000180036180 f   LIBCMTD:new_array_nothrow.obj
 0001:000351b0       __GSHandlerCheck_SEH       00000001800361b0 f   LIBCMTD:gshandlerseh.obj
 0001:00035280       _alloca_probe              0000000180036280 f   LIBCMTD:chkstk.obj
 0001:00035280       __chkstk                   0000000180036280 f   LIBCMTD:chkstk.obj
 0001:000356f0       _CRT_INIT                  00000001800366f0 f   LIBCMTD:dll_dllmain.obj
 0001:00035720       _DllMainCRTStartup         0000000180036720 f   LIBCMTD:dll_dllmain.obj
 0001:000357f0       ?_RTC_AllocaFailure@@YAXPEAXPEAU_RTC_ALLOCA_NODE@@H@Z 00000001800367f0 f   LIBCMTD:error.obj
 0001:00035950       ?_RTC_Failure@@YAXPEAXH@Z  0000000180036950 f   LIBCMTD:error.obj
 0001:000359a0       ?_RTC_StackFailure@@YAXPEAXPEBD@Z 00000001800369a0 f   LIBCMTD:error.obj
 0001:00035dd0       _RTC_UninitUse             0000000180036dd0 f   LIBCMTD:error.obj
 0001:00035ea0       _vsprintf_s_l              0000000180036ea0 f i LIBCMTD:error.obj
 0001:00035f10       sprintf_s                  0000000180036f10 f i LIBCMTD:error.obj
 0001:00035f40       ?_RTC_GetErrorFunc@@YAP6AHHPEBDH00ZZPEBX@Z 0000000180036f40 f   LIBCMTD:userapi.obj
 0001:00035f50       ?_RTC_GetErrorFuncW@@YAP6AHHPEB_WH00ZZPEBX@Z 0000000180036f50 f   LIBCMTD:userapi.obj
 0001:00035f60       _RTC_GetErrDesc            0000000180036f60 f   LIBCMTD:userapi.obj
 0001:00035f80       _RTC_NumErrors             0000000180036f80 f   LIBCMTD:userapi.obj
 0001:00035f90       _RTC_SetErrorFunc          0000000180036f90 f   LIBCMTD:userapi.obj
 0001:00035fb0       _RTC_SetErrorFuncW         0000000180036fb0 f   LIBCMTD:userapi.obj
 0001:00035fd0       _RTC_SetErrorType          0000000180036fd0 f   LIBCMTD:userapi.obj
 0001:00035ff0       ??2@YAPEAX_K@Z             0000000180036ff0 f   LIBCMTD:new_scalar.obj
 0001:00036040       __isa_available_init       0000000180037040 f   LIBCMTD:cpu_disp.obj
 0001:000363e0       _get_startup_argv_mode     00000001800373e0 f   LIBCMTD:argv_mode.obj
 0001:000363f0       __scrt_is_ucrt_dll_in_use  00000001800373f0 f   LIBCMTD:ucrt_detection.obj
 0001:00036420       __crt_debugger_hook        0000000180037420 f   LIBCMTD:utility_desktop.obj
 0001:00036430       __scrt_fastfail            0000000180037430 f   LIBCMTD:utility_desktop.obj
 0001:000365d0       __scrt_get_show_window_mode 00000001800375d0 f   LIBCMTD:utility_desktop.obj
 0001:00036630       __scrt_initialize_mta      0000000180037630 f   LIBCMTD:utility_desktop.obj
 0001:00036640       __scrt_initialize_winrt    0000000180037640 f   LIBCMTD:utility_desktop.obj
 0001:00036650       __scrt_is_managed_app      0000000180037650 f   LIBCMTD:utility_desktop.obj
 0001:00036700       __scrt_set_unhandled_exception_filter 0000000180037700 f   LIBCMTD:utility_desktop.obj
 0001:00036720       __scrt_stub_for_initialize_mta 0000000180037720 f   LIBCMTD:utility_desktop.obj
 0001:00036720       __scrt_exe_initialize_mta  0000000180037720 f   LIBCMTD:utility_desktop.obj
 0001:00036730       __scrt_unhandled_exception_filter 0000000180037730 f   LIBCMTD:utility_desktop.obj
 0001:000367d0       _guard_check_icall_nop     00000001800377d0 f i LIBCMTD:guard_support.obj
 0001:000367e0       ReadNoFence64              00000001800377e0 f i LIBCMTD:guard_support.obj
 0001:00036800       ReadPointerNoFence         0000000180037800 f i LIBCMTD:guard_support.obj
 0001:00036820       __castguard_check_failure_debugbreak 0000000180037820 f i LIBCMTD:guard_support.obj
 0001:00036840       __castguard_check_failure_fastfail 0000000180037840 f i LIBCMTD:guard_support.obj
 0001:00036870       __castguard_check_failure_nop 0000000180037870 f i LIBCMTD:guard_support.obj
 0001:00036880       __castguard_check_failure_os_handled 0000000180037880 f i LIBCMTD:guard_support.obj
 0001:00036940       __castguard_slow_path_check_debugbreak 0000000180037940 f i LIBCMTD:guard_support.obj
 0001:00036980       __castguard_slow_path_check_fastfail 0000000180037980 f i LIBCMTD:guard_support.obj
 0001:000369d0       __castguard_slow_path_check_nop 00000001800379d0 f i LIBCMTD:guard_support.obj
 0001:000369e0       __castguard_slow_path_check_os_handled 00000001800379e0 f i LIBCMTD:guard_support.obj
 0001:00036ac0       _guard_icall_checks_enforced 0000000180037ac0 f i LIBCMTD:guard_support.obj
 0001:00036b00       _guard_rf_checks_enforced  0000000180037b00 f i LIBCMTD:guard_support.obj
 0001:00036bd0       __security_init_cookie     0000000180037bd0 f   LIBCMTD:gs_support.obj
 0001:00036c50       ?__scrt_initialize_type_info@@YAXXZ 0000000180037c50 f   LIBCMTD:tncleanup.obj
 0001:00036c70       ?__scrt_uninitialize_type_info@@YAXXZ 0000000180037c70 f   LIBCMTD:tncleanup.obj
 0001:00036c90       __local_stdio_scanf_options 0000000180037c90 f i LIBCMTD:default_local_stdio_options.obj
 0001:00036ca0       __scrt_initialize_default_local_stdio_options 0000000180037ca0 f   LIBCMTD:default_local_stdio_options.obj
 0001:00036cf0       __scrt_get_dyn_tls_init_callback 0000000180037cf0 f   LIBCMTD:dyn_tls_init.obj
 0001:00036d00       _RTC_Initialize            0000000180037d00 f   LIBCMTD:initsect.obj
 0001:00036d50       _RTC_Terminate             0000000180037d50 f   LIBCMTD:initsect.obj
 0001:000372b0       ?_RTC_GetSrcLine@@YAHPEAEPEA_WKPEAH1K@Z 00000001800382b0 f   LIBCMTD:pdblkup.obj
 0001:00037680       ??0bad_alloc@std@@AEAA@QEBD@Z 0000000180038680 f i LIBCMTD:throw_bad_alloc.obj
 0001:000376c0       ??0bad_alloc@std@@QEAA@AEBV01@@Z 00000001800386c0 f i LIBCMTD:throw_bad_alloc.obj
 0001:00037700       ??0bad_alloc@std@@QEAA@XZ  0000000180038700 f i LIBCMTD:throw_bad_alloc.obj
 0001:00037740       ??0bad_array_new_length@std@@QEAA@AEBV01@@Z 0000000180038740 f i LIBCMTD:throw_bad_alloc.obj
 0001:00037780       ??0bad_array_new_length@std@@QEAA@XZ 0000000180038780 f i LIBCMTD:throw_bad_alloc.obj
 0001:000377c0       ??0exception@std@@QEAA@AEBV01@@Z 00000001800387c0 f i LIBCMTD:throw_bad_alloc.obj
 0001:00037820       ??0exception@std@@QEAA@QEBDH@Z 0000000180038820 f i LIBCMTD:throw_bad_alloc.obj
 0001:00037870       ??1bad_alloc@std@@UEAA@XZ  0000000180038870 f i LIBCMTD:throw_bad_alloc.obj
 0001:00037890       ??1bad_array_new_length@std@@UEAA@XZ 0000000180038890 f i LIBCMTD:throw_bad_alloc.obj
 0001:000378b0       ??1exception@std@@UEAA@XZ  00000001800388b0 f i LIBCMTD:throw_bad_alloc.obj
 0001:000378e0       ??_Ebad_alloc@std@@UEAAPEAXI@Z 00000001800388e0 f i LIBCMTD:throw_bad_alloc.obj
 0001:000378e0       ??_Gbad_alloc@std@@UEAAPEAXI@Z 00000001800388e0 f i LIBCMTD:throw_bad_alloc.obj
 0001:00037920       ??_Ebad_array_new_length@std@@UEAAPEAXI@Z 0000000180038920 f i LIBCMTD:throw_bad_alloc.obj
 0001:00037920       ??_Gbad_array_new_length@std@@UEAAPEAXI@Z 0000000180038920 f i LIBCMTD:throw_bad_alloc.obj
 0001:00037960       ??_Gexception@std@@UEAAPEAXI@Z 0000000180038960 f i LIBCMTD:throw_bad_alloc.obj
 0001:00037960       ??_Eexception@std@@UEAAPEAXI@Z 0000000180038960 f i LIBCMTD:throw_bad_alloc.obj
 0001:000379a0       ?__scrt_throw_std_bad_alloc@@YAXXZ 00000001800389a0 f   LIBCMTD:throw_bad_alloc.obj
 0001:000379d0       ?__scrt_throw_std_bad_array_new_length@@YAXXZ 00000001800389d0 f   LIBCMTD:throw_bad_alloc.obj
 0001:00037a00       ?what@exception@std@@UEBAPEBDXZ 0000000180038a00 f i LIBCMTD:throw_bad_alloc.obj
 0001:00037a40       ??1type_info@@UEAA@XZ      0000000180038a40 f   LIBCMTD:std_type_info_static.obj
 0001:00037a60       ??_Gtype_info@@UEAAPEAXI@Z 0000000180038a60 f i LIBCMTD:std_type_info_static.obj
 0001:00037a60       ??_Etype_info@@UEAAPEAXI@Z 0000000180038a60 f i LIBCMTD:std_type_info_static.obj
 0001:00037a9c       ??$?2PEAUHINSTANCE__@@@Wrapper@?$CSimpleArray@PEAUHINSTANCE__@@V?$CSimpleArrayEqualHelper@PEAUHINSTANCE__@@@ATL@@@ATL@@SAPEAX_KPEAPEAUHINSTANCE__@@@Z 0000000180038a9c f i atls:atlbase.obj
 0001:00037aa0       ??0?$CSimpleArray@PEAUHINSTANCE__@@V?$CSimpleArrayEqualHelper@PEAUHINSTANCE__@@@ATL@@@ATL@@QEAA@XZ 0000000180038aa0 f i atls:atlbase.obj
 0001:00037ab0       ??0CAtlBaseModule@ATL@@QEAA@XZ 0000000180038ab0 f   atls:atlbase.obj
 0001:00037b58       ??0Wrapper@?$CSimpleArray@PEAUHINSTANCE__@@V?$CSimpleArrayEqualHelper@PEAUHINSTANCE__@@@ATL@@@ATL@@QEAA@AEBQEAUHINSTANCE__@@@Z 0000000180038b58 f i atls:atlbase.obj
 0001:00037b64       ??0_ATL_BASE_MODULE70@ATL@@QEAA@XZ 0000000180038b64 f i atls:atlbase.obj
 0001:00037b90       ??1?$CSimpleArray@PEAUHINSTANCE__@@V?$CSimpleArrayEqualHelper@PEAUHINSTANCE__@@@ATL@@@ATL@@QEAA@XZ 0000000180038b90 f i atls:atlbase.obj
 0001:00037bb8       ??1CAtlBaseModule@ATL@@QEAA@XZ 0000000180038bb8 f   atls:atlbase.obj
 0001:00037bec       ??1_ATL_BASE_MODULE70@ATL@@QEAA@XZ 0000000180038bec f i atls:atlbase.obj
 0001:00037c18       ??A?$CSimpleArray@PEAUHINSTANCE__@@V?$CSimpleArrayEqualHelper@PEAUHINSTANCE__@@@ATL@@@ATL@@QEAAAEAPEAUHINSTANCE__@@H@Z 0000000180038c18 f i atls:atlbase.obj
 0001:00037c44       ?Add@?$CSimpleArray@PEAUHINSTANCE__@@V?$CSimpleArrayEqualHelper@PEAUHINSTANCE__@@@ATL@@@ATL@@QEAAHAEBQEAUHINSTANCE__@@@Z 0000000180038c44 f i atls:atlbase.obj
 0001:00037cf8       ?AddResourceInstance@CAtlBaseModule@ATL@@QEAA_NPEAUHINSTANCE__@@@Z 0000000180038cf8 f   atls:atlbase.obj
 0001:00037d40       ?GetHInstanceAt@CAtlBaseModule@ATL@@QEAAPEAUHINSTANCE__@@H@Z 0000000180038d40 f   atls:atlbase.obj
 0001:00037db8       ?GetSize@?$CSimpleArray@PEAUHINSTANCE__@@V?$CSimpleArrayEqualHelper@PEAUHINSTANCE__@@@ATL@@@ATL@@QEBAHXZ 0000000180038db8 f i atls:atlbase.obj
 0001:00037dbc       ?InternalSetAtIndex@?$CSimpleArray@PEAUHINSTANCE__@@V?$CSimpleArrayEqualHelper@PEAUHINSTANCE__@@@ATL@@@ATL@@QEAAXHAEBQEAUHINSTANCE__@@@Z 0000000180038dbc f i atls:atlbase.obj
 0001:00037dd4       ?RemoveAll@?$CSimpleArray@PEAUHINSTANCE__@@V?$CSimpleArrayEqualHelper@PEAUHINSTANCE__@@@ATL@@@ATL@@QEAAXXZ 0000000180038dd4 f i atls:atlbase.obj
 0001:00037dfc       ?RemoveAt@?$CSimpleArray@PEAUHINSTANCE__@@V?$CSimpleArrayEqualHelper@PEAUHINSTANCE__@@@ATL@@@ATL@@QEAAHH@Z 0000000180038dfc f i atls:atlbase.obj
 0001:00037ea0       ?RemoveResourceInstance@CAtlBaseModule@ATL@@QEAA_NPEAUHINSTANCE__@@@Z 0000000180038ea0 f   atls:atlbase.obj
 0001:00037f20       ?memmove_s@Checked@ATL@@YAXPEAX_KPEBX1@Z 0000000180038f20 f i atls:atlbase.obj
 0001:000383c8       ?GetCodeAddress@_stdcallthunk@ATL@@QEAAPEAXXZ 00000001800393c8 f i atls:atlthunk.obj
 0001:000383f4       ?Init@_stdcallthunk@ATL@@QEAAH_KPEAX@Z 00000001800393f4 f i atls:atlthunk.obj
 0001:00038444       ?__AllocStdCallThunk@@YAPEAXXZ 0000000180039444 f   atls:atlthunk.obj
 0001:0003844c       ?__AllocStdCallThunk@ATL@@YAPEAXXZ 000000018003944c f   atls:atlthunk.obj
 0001:00038454       ?__AllocStdCallThunk_cmn@@YAPEAXXZ 0000000180039454 f   atls:atlthunk.obj
 0001:0003852c       ?__FreeStdCallThunk@@YAXPEAX@Z 000000018003952c f   atls:atlthunk.obj
 0001:0003854c       ?__FreeStdCallThunk@ATL@@YAXPEAX@Z 000000018003954c f   atls:atlthunk.obj
 0001:0003856c       ?__FreeStdCallThunk_cmn@@YAXPEAX@Z 000000018003956c f   atls:atlthunk.obj
 0001:0003860c       AtlThunk_AllocateData      000000018003960c f   atls:atlthunk.obj
 0001:00038688       AtlThunk_DataToCode        0000000180039688 f   atls:atlthunk.obj
 0001:000386dc       AtlThunk_FreeData          00000001800396dc f   atls:atlthunk.obj
 0001:0003873c       AtlThunk_InitData          000000018003973c f   atls:atlthunk.obj
 0001:00038800       memset_repmovs             0000000180039800 f   libvcruntimed:memset.obj
 0001:00038820       memset                     0000000180039820 f   libvcruntimed:memset.obj
 0001:000389b0       ??$__crt_interlocked_exchange_pointer@$$A6AXXZP6AXXZ@@YAP6AXXZPEDS6AXXZQ6AXXZ@Z 00000001800399b0 f i libvcruntimed:purevirt.obj
 0001:000389d0       ??$__crt_interlocked_read_pointer@$$A6AXXZ@@YAP6AXXZPEDS6AXXZ@Z 00000001800399d0 f i libvcruntimed:purevirt.obj
 0001:000389f0       ?__crt_interlocked_read_64@@YA_JPED_J@Z 00000001800399f0 f i libvcruntimed:purevirt.obj
 0001:00038a10       _get_purecall_handler      0000000180039a10 f   libvcruntimed:purevirt.obj
 0001:00038a30       _purecall                  0000000180039a30 f   libvcruntimed:purevirt.obj
 0001:00038a70       _set_purecall_handler      0000000180039a70 f   libvcruntimed:purevirt.obj
 0001:00038aa0       memcmp                     0000000180039aa0 f   libvcruntimed:memcmp.obj
 0001:00038b80       memcpy_repmovs             0000000180039b80 f   libvcruntimed:memcpy.obj
 0001:00038ba0       memcpy                     0000000180039ba0 f   libvcruntimed:memcpy.obj
 0001:00038ba0       memmove                    0000000180039ba0 f   libvcruntimed:memcpy.obj
 0001:00038f80       wcsstr                     0000000180039f80 f   libvcruntimed:wcsstr.obj
 0001:000395e0       __vcrt_initialize          000000018003a5e0 f   libvcruntimed:initialization.obj
 0001:00039620       __vcrt_thread_attach       000000018003a620 f   libvcruntimed:initialization.obj
 0001:00039640       __vcrt_thread_detach       000000018003a640 f   libvcruntimed:initialization.obj
 0001:00039660       __vcrt_uninitialize        000000018003a660 f   libvcruntimed:initialization.obj
 0001:00039680       __vcrt_uninitialize_critical 000000018003a680 f   libvcruntimed:initialization.obj
 0001:000396a0       __C_specific_handler       000000018003a6a0 f   libvcruntimed:riscchandler.obj
 0001:00039b10       ??$?0AEAViterator@TryBlockMap4@FH4@@AEAV012@$0A@@?$pair@Viterator@TryBlockMap4@FH4@@V123@@std@@QEAA@AEAViterator@TryBlockMap4@FH4@@0@Z 000000018003ab10 f i libvcruntimed:risctrnsctrl.obj
 0001:00039b70       ??$?0AEAViterator@TryBlockMap@__FrameHandler3@@AEAV012@$0A@@?$pair@Viterator@TryBlockMap@__FrameHandler3@@V123@@std@@QEAA@AEAViterator@TryBlockMap@__FrameHandler3@@0@Z 000000018003ab70 f i libvcruntimed:risctrnsctrl.obj
 0001:00039d40       ??$_CallSETranslator@V__FrameHandler3@@@@YAHPEAUEHExceptionRecord@@PEA_KPEAU_CONTEXT@@PEAU_xDISPATCHER_CONTEXT@@PEBU_s_FuncInfo@@K1H@Z 000000018003ad40 f i libvcruntimed:risctrnsctrl.obj
 0001:00039dd0       ??$_CallSETranslator@V__FrameHandler4@@@@YAHPEAUEHExceptionRecord@@PEA_KPEAU_CONTEXT@@PEAU_xDISPATCHER_CONTEXT@@PEAUFuncInfo4@FH4@@K1H@Z 000000018003add0 f i libvcruntimed:risctrnsctrl.obj
 0001:00039e60       ??$forward@AEAViterator@TryBlockMap4@FH4@@@std@@YAAEAViterator@TryBlockMap4@FH4@@AEAV123@@Z 000000018003ae60 f i libvcruntimed:risctrnsctrl.obj
 0001:00039e70       ??$forward@AEAViterator@TryBlockMap@__FrameHandler3@@@std@@YAAEAViterator@TryBlockMap@__FrameHandler3@@AEAV123@@Z 000000018003ae70 f i libvcruntimed:risctrnsctrl.obj
 0001:00039e80       ??0FuncInfo4@FH4@@QEAA@XZ  000000018003ae80 f i libvcruntimed:risctrnsctrl.obj
 0001:00039ef0       ??0FuncInfoHeader@FH4@@QEAA@XZ 000000018003aef0 f i libvcruntimed:risctrnsctrl.obj
 0001:00039f10       ??0iterator@TryBlockMap4@FH4@@QEAA@AEAV12@I@Z 000000018003af10 f i libvcruntimed:risctrnsctrl.obj
 0001:00039f40       ??0iterator@TryBlockMap@__FrameHandler3@@QEAA@AEAV12@I@Z 000000018003af40 f i libvcruntimed:risctrnsctrl.obj
 0001:00039f70       ??4iterator@TryBlockMap4@FH4@@QEAAAEAV012@AEBV012@@Z 000000018003af70 f i libvcruntimed:risctrnsctrl.obj
 0001:00039f90       ??9iterator@TryBlockMap4@FH4@@QEBA_NAEBV012@@Z 000000018003af90 f i libvcruntimed:risctrnsctrl.obj
 0001:00039fd0       ??Diterator@TryBlockMap4@FH4@@QEAA?AUTryBlockMapEntry4@2@XZ 000000018003afd0 f i libvcruntimed:risctrnsctrl.obj
 0001:0003a000       ??Eiterator@TryBlockMap4@FH4@@QEAAAEAV012@XZ 000000018003b000 f i libvcruntimed:risctrnsctrl.obj
 0001:0003a040       ?CatchTryBlock@__FrameHandler3@@SAPEBU_s_TryBlockMapEntry@@PEBU_s_FuncInfo@@H@Z 000000018003b040 f   libvcruntimed:risctrnsctrl.obj
 0001:0003a0d0       ?DecompFuncInfo@FH4@@YA_JPEAEAEAUFuncInfo4@1@_KH@Z 000000018003b0d0 f i libvcruntimed:risctrnsctrl.obj
 0001:0003a110       ?DecompFuncInfo@FH4@@YA_JPEAEAEAUFuncInfo4@1@_KH_N@Z 000000018003b110 f i libvcruntimed:risctrnsctrl.obj
 0001:0003a2e0       ?DecompTryBlock@TryBlockMap4@FH4@@AEAAXXZ 000000018003b2e0 f i libvcruntimed:risctrnsctrl.obj
 0001:0003a360       ?ExecutionInCatch@__FrameHandler3@@SA_NPEAU_xDISPATCHER_CONTEXT@@PEBU_s_FuncInfo@@@Z 000000018003b360 f   libvcruntimed:risctrnsctrl.obj
 0001:0003a3b0       ?ExecutionInCatch@__FrameHandler4@@SA_NPEAU_xDISPATCHER_CONTEXT@@PEAUFuncInfo4@FH4@@@Z 000000018003b3b0 f   libvcruntimed:risctrnsctrl.obj
 0001:0003a3d0       ?FrameUnwindToEmptyState@__FrameHandler3@@SAXPEA_KPEAU_xDISPATCHER_CONTEXT@@PEBU_s_FuncInfo@@@Z 000000018003b3d0 f   libvcruntimed:risctrnsctrl.obj
 0001:0003a470       ?FrameUnwindToEmptyState@__FrameHandler4@@SAXPEA_KPEAU_xDISPATCHER_CONTEXT@@PEAUFuncInfo4@FH4@@@Z 000000018003b470 f   libvcruntimed:risctrnsctrl.obj
 0001:0003a4c0       ?GetEstablisherFrame@__FrameHandler3@@SAPEA_KPEA_KPEAU_xDISPATCHER_CONTEXT@@PEBU_s_FuncInfo@@0@Z 000000018003b4c0 f   libvcruntimed:risctrnsctrl.obj
 0001:0003a630       ?GetEstablisherFrame@__FrameHandler4@@SAPEA_KPEA_KPEAU_xDISPATCHER_CONTEXT@@PEAUFuncInfo4@FH4@@0@Z 000000018003b630 f   libvcruntimed:risctrnsctrl.obj
 0001:0003a6a0       ?GetRangeOfTrysToCheck@__FrameHandler3@@SA?AU?$pair@Viterator@TryBlockMap@__FrameHandler3@@V123@@std@@AEAVTryBlockMap@1@HPEAU_xDISPATCHER_CONTEXT@@PEBU_s_FuncInfo@@H@Z 000000018003b6a0 f   libvcruntimed:risctrnsctrl.obj
 0001:0003a8e0       ?GetRangeOfTrysToCheck@__FrameHandler4@@SA?AU?$pair@Viterator@TryBlockMap4@FH4@@V123@@std@@AEAVTryBlockMap4@FH4@@HPEAU_xDISPATCHER_CONTEXT@@PEAUFuncInfo4@5@H@Z 000000018003b8e0 f   libvcruntimed:risctrnsctrl.obj
 0001:0003aa90       ?ReadInt@FH4@@YAHPEAPEAE@Z 000000018003ba90 f i libvcruntimed:risctrnsctrl.obj
 0001:0003aad0       ?ReadUnsigned@FH4@@YAIPEAPEAE@Z 000000018003bad0 f i libvcruntimed:risctrnsctrl.obj
 0001:0003ab60       ?UnwindNestedFrames@__FrameHandler3@@SAXPEA_KPEAUEHExceptionRecord@@PEAU_CONTEXT@@0PEAXPEBU_s_FuncInfo@@HHPEBU_s_HandlerType@@PEAU_xDISPATCHER_CONTEXT@@E@Z 000000018003bb60 f   libvcruntimed:risctrnsctrl.obj
 0001:0003acd0       ?UnwindNestedFrames@__FrameHandler4@@SAXPEA_KPEAUEHExceptionRecord@@PEAU_CONTEXT@@0PEAXPEAUFuncInfo4@FH4@@HHPEAUHandlerType4@5@PEAU_xDISPATCHER_CONTEXT@@E@Z 000000018003bcd0 f   libvcruntimed:risctrnsctrl.obj
 0001:0003aea0       ?begin@TryBlockMap4@FH4@@QEAA?AViterator@12@XZ 000000018003bea0 f i libvcruntimed:risctrnsctrl.obj
 0001:0003aed0       ?end@TryBlockMap4@FH4@@QEAA?AViterator@12@XZ 000000018003bed0 f i libvcruntimed:risctrnsctrl.obj
 0001:0003af00       ?imageRelToByteBuffer@FH4@@YAPEAE_KH@Z 000000018003bf00 f i libvcruntimed:risctrnsctrl.obj
 0001:0003af20       ?incrementToSentinel@iterator@TryBlockMap4@FH4@@QEAAXXZ 000000018003bf20 f i libvcruntimed:risctrnsctrl.obj
 0001:0003af40       ?setBuffer@TryBlockMap4@FH4@@QEAAXViterator@12@@Z 000000018003bf40 f i libvcruntimed:risctrnsctrl.obj
 0001:0003afb0       _CreateFrameInfo           000000018003bfb0 f   libvcruntimed:risctrnsctrl.obj
 0001:0003b020       _FindAndUnlinkFrame        000000018003c020 f   libvcruntimed:risctrnsctrl.obj
 0001:0003b0a0       _GetImageBase              000000018003c0a0 f   libvcruntimed:risctrnsctrl.obj
 0001:0003b0c0       _GetThrowImageBase         000000018003c0c0 f   libvcruntimed:risctrnsctrl.obj
 0001:0003b0e0       _SetImageBase              000000018003c0e0 f   libvcruntimed:risctrnsctrl.obj
 0001:0003b100       _SetThrowImageBase         000000018003c100 f   libvcruntimed:risctrnsctrl.obj
 0001:0003b120       __CxxFrameHandler          000000018003c120 f   libvcruntimed:risctrnsctrl.obj
 0001:0003b160       __CxxFrameHandler2         000000018003c160 f   libvcruntimed:risctrnsctrl.obj
 0001:0003b1a0       __CxxFrameHandler3         000000018003c1a0 f   libvcruntimed:risctrnsctrl.obj
 0001:0003b280       __CxxFrameHandler4         000000018003c280 f   libvcruntimed:risctrnsctrl.obj
 0001:0003b390       __C_specific_handler_noexcept 000000018003c390 f   libvcruntimed:chandler_noexcept.obj
 0001:0003b420       __DestructExceptionObject  000000018003c420 f   libvcruntimed:ehhelpers.obj
 0001:0003b520       ?_CallMemberFunction0@@YAXQEAX0@Z 000000018003c520 f i libvcruntimed:ehhelpers.obj
 0001:0003b5f0       ?raw_name@type_info@@QEBAPEBDXZ 000000018003c5f0 f i libvcruntimed:ehhelpers.obj
 0001:0003b600       _IsExceptionObjectToBeDestroyed 000000018003c600 f   libvcruntimed:ehhelpers.obj
 0001:0003b650       _SetWinRTOutOfMemoryExceptionCallback 000000018003c650 f   libvcruntimed:ehhelpers.obj
 0001:0003b670       __AdjustPointer            000000018003c670 f   libvcruntimed:ehhelpers.obj
 0001:0003b6f0       __FrameUnwindFilter        000000018003c6f0 f   libvcruntimed:ehhelpers.obj
 0001:0003b7a0       __GetPlatformExceptionInfo 000000018003c7a0 f   libvcruntimed:ehhelpers.obj
 0001:0003b850       __current_exception        000000018003c850 f   libvcruntimed:ehhelpers.obj
 0001:0003b870       __current_exception_context 000000018003c870 f   libvcruntimed:ehhelpers.obj
 0001:0003b890       __processing_throw         000000018003c890 f   libvcruntimed:ehhelpers.obj
 0001:0003b8b0       __std_terminate            000000018003c8b0 f   libvcruntimed:ehhelpers.obj
 0001:0003b8c0       _is_exception_typeof       000000018003c8c0 f   libvcruntimed:ehhelpers.obj
 0001:0003ba50       ??$?RD@__crt_internal_free_policy@@QEBAXQEBD@Z 000000018003ca50 f i libvcruntimed:std_type_info.obj
 0001:0003ba80       ??$?RX@__crt_internal_free_policy@@QEBAXQEBX@Z 000000018003ca80 f i libvcruntimed:std_type_info.obj
 0001:0003bab0       ??$__crt_interlocked_compare_exchange_pointer@$$CBDPEAD$$T@@YAPEBDPEDSEBDQEAD$$T@Z 000000018003cab0 f i libvcruntimed:std_type_info.obj
 0001:0003baf0       ??$__crt_interlocked_read_pointer@$$CBD@@YAPEBDPEDSEBD@Z 000000018003caf0 f i libvcruntimed:std_type_info.obj
 0001:0003bb10       ??0?$__crt_unique_heap_ptr@DU__crt_internal_free_policy@@@@QEAA@QEAD@Z 000000018003cb10 f i libvcruntimed:std_type_info.obj
 0001:0003bb30       ??0?$__crt_unique_heap_ptr@XU__crt_internal_free_policy@@@@QEAA@QEAX@Z 000000018003cb30 f i libvcruntimed:std_type_info.obj
 0001:0003bb50       ??1?$__crt_unique_heap_ptr@DU__crt_internal_free_policy@@@@QEAA@XZ 000000018003cb50 f i libvcruntimed:std_type_info.obj
 0001:0003bb70       ??1?$__crt_unique_heap_ptr@XU__crt_internal_free_policy@@@@QEAA@XZ 000000018003cb70 f i libvcruntimed:std_type_info.obj
 0001:0003bb90       ??B?$__crt_unique_heap_ptr@DU__crt_internal_free_policy@@@@QEBA_NXZ 000000018003cb90 f i libvcruntimed:std_type_info.obj
 0001:0003bbb0       ??B?$__crt_unique_heap_ptr@XU__crt_internal_free_policy@@@@QEBA_NXZ 000000018003cbb0 f i libvcruntimed:std_type_info.obj
 0001:0003bc50       ?detach@?$__crt_unique_heap_ptr@XU__crt_internal_free_policy@@@@QEAAPEAXXZ 000000018003cc50 f i libvcruntimed:std_type_info.obj
 0001:0003bc80       ?get@?$__crt_unique_heap_ptr@DU__crt_internal_free_policy@@@@QEBAPEADXZ 000000018003cc80 f i libvcruntimed:std_type_info.obj
 0001:0003bc90       ?get@?$__crt_unique_heap_ptr@XU__crt_internal_free_policy@@@@QEBAPEAXXZ 000000018003cc90 f i libvcruntimed:std_type_info.obj
 0001:0003bca0       ?is_valid@?$__crt_unique_heap_ptr@DU__crt_internal_free_policy@@@@QEBA_NXZ 000000018003cca0 f i libvcruntimed:std_type_info.obj
 0001:0003bcd0       ?is_valid@?$__crt_unique_heap_ptr@XU__crt_internal_free_policy@@@@QEBA_NXZ 000000018003ccd0 f i libvcruntimed:std_type_info.obj
 0001:0003bd00       ?release@?$__crt_unique_heap_ptr@DU__crt_internal_free_policy@@@@QEAAXXZ 000000018003cd00 f i libvcruntimed:std_type_info.obj
 0001:0003bd30       ?release@?$__crt_unique_heap_ptr@XU__crt_internal_free_policy@@@@QEAAXXZ 000000018003cd30 f i libvcruntimed:std_type_info.obj
 0001:0003bd60       __std_type_info_compare    000000018003cd60 f   libvcruntimed:std_type_info.obj
 0001:0003bda0       __std_type_info_destroy_list 000000018003cda0 f   libvcruntimed:std_type_info.obj
 0001:0003be00       __std_type_info_hash       000000018003ce00 f   libvcruntimed:std_type_info.obj
 0001:0003beb0       __std_type_info_name       000000018003ceb0 f   libvcruntimed:std_type_info.obj
 0001:0003c160       __vcrt_GetModuleFileNameW  000000018003d160 f   libvcruntimed:winapi_thunks.obj
 0001:0003c190       __vcrt_GetModuleHandleW    000000018003d190 f   libvcruntimed:winapi_thunks.obj
 0001:0003c1b0       __vcrt_LoadLibraryExW      000000018003d1b0 f   libvcruntimed:winapi_thunks.obj
 0001:0003c1e0       ??$?RD@__crt_public_free_policy@@QEBAXQEBD@Z 000000018003d1e0 f i libvcruntimed:std_exception.obj
 0001:0003c200       ??0?$__crt_unique_heap_ptr@DU__crt_public_free_policy@@@@QEAA@QEAD@Z 000000018003d200 f i libvcruntimed:std_exception.obj
 0001:0003c220       ??1?$__crt_unique_heap_ptr@DU__crt_public_free_policy@@@@QEAA@XZ 000000018003d220 f i libvcruntimed:std_exception.obj
 0001:0003c240       ??B?$__crt_unique_heap_ptr@DU__crt_public_free_policy@@@@QEBA_NXZ 000000018003d240 f i libvcruntimed:std_exception.obj
 0001:0003c260       ?detach@?$__crt_unique_heap_ptr@DU__crt_public_free_policy@@@@QEAAPEADXZ 000000018003d260 f i libvcruntimed:std_exception.obj
 0001:0003c290       ?get@?$__crt_unique_heap_ptr@DU__crt_public_free_policy@@@@QEBAPEADXZ 000000018003d290 f i libvcruntimed:std_exception.obj
 0001:0003c2a0       ?is_valid@?$__crt_unique_heap_ptr@DU__crt_public_free_policy@@@@QEBA_NXZ 000000018003d2a0 f i libvcruntimed:std_exception.obj
 0001:0003c2d0       ?release@?$__crt_unique_heap_ptr@DU__crt_public_free_policy@@@@QEAAXXZ 000000018003d2d0 f i libvcruntimed:std_exception.obj
 0001:0003c300       __std_exception_copy       000000018003d300 f   libvcruntimed:std_exception.obj
 0001:0003c440       __std_exception_destroy    000000018003d440 f   libvcruntimed:std_exception.obj
 0001:0003c480       _CxxThrowException         000000018003d480 f   libvcruntimed:throw.obj
 0001:0003c5b0       ??$?RU__vcrt_ptd@@@__crt_internal_free_policy@@QEBAXQEBU__vcrt_ptd@@@Z 000000018003d5b0 f i libvcruntimed:per_thread_data.obj
 0001:0003c5e0       ??0?$__crt_unique_heap_ptr@U__vcrt_ptd@@U__crt_internal_free_policy@@@@QEAA@QEAU__vcrt_ptd@@@Z 000000018003d5e0 f i libvcruntimed:per_thread_data.obj
 0001:0003c620       ??1?$__crt_unique_heap_ptr@U__vcrt_ptd@@U__crt_internal_free_policy@@@@QEAA@XZ 000000018003d620 f i libvcruntimed:per_thread_data.obj
 0001:0003c660       ??B?$__crt_unique_heap_ptr@U__vcrt_ptd@@U__crt_internal_free_policy@@@@QEBA_NXZ 000000018003d660 f i libvcruntimed:per_thread_data.obj
 0001:0003c680       ?detach@?$__crt_unique_heap_ptr@U__vcrt_ptd@@U__crt_internal_free_policy@@@@QEAAPEAU__vcrt_ptd@@XZ 000000018003d680 f i libvcruntimed:per_thread_data.obj
 0001:0003c6b0       ?get@?$__crt_unique_heap_ptr@U__vcrt_ptd@@U__crt_internal_free_policy@@@@QEBAPEAU__vcrt_ptd@@XZ 000000018003d6b0 f i libvcruntimed:per_thread_data.obj
 0001:0003c6c0       ?is_valid@?$__crt_unique_heap_ptr@U__vcrt_ptd@@U__crt_internal_free_policy@@@@QEBA_NXZ 000000018003d6c0 f i libvcruntimed:per_thread_data.obj
 0001:0003c6f0       ?release@?$__crt_unique_heap_ptr@U__vcrt_ptd@@U__crt_internal_free_policy@@@@QEAAXXZ 000000018003d6f0 f i libvcruntimed:per_thread_data.obj
 0001:0003c760       __vcrt_freefls             000000018003d760 f   libvcruntimed:per_thread_data.obj
 0001:0003c7a0       __vcrt_freeptd             000000018003d7a0 f   libvcruntimed:per_thread_data.obj
 0001:0003c800       __vcrt_getptd              000000018003d800 f   libvcruntimed:per_thread_data.obj
 0001:0003c830       __vcrt_getptd_noexit       000000018003d830 f   libvcruntimed:per_thread_data.obj
 0001:0003c9d0       __vcrt_getptd_noinit       000000018003d9d0 f   libvcruntimed:per_thread_data.obj
 0001:0003ca30       __vcrt_initialize_ptd      000000018003da30 f   libvcruntimed:per_thread_data.obj
 0001:0003ca80       __vcrt_uninitialize_ptd    000000018003da80 f   libvcruntimed:per_thread_data.obj
 0001:0003cab0       __vcrt_initialize_locks    000000018003dab0 f   libvcruntimed:locks.obj
 0001:0003cb20       __vcrt_lock                000000018003db20 f   libvcruntimed:locks.obj
 0001:0003cb50       __vcrt_uninitialize_locks  000000018003db50 f   libvcruntimed:locks.obj
 0001:0003cbb0       __vcrt_unlock              000000018003dbb0 f   libvcruntimed:locks.obj
 0001:0003cbf0       _NLG_Notify                000000018003dbf0 f   libvcruntimed:notify.obj
 0001:0003cc10       __NLG_Dispatch2            000000018003dc10 f   libvcruntimed:notify.obj
 0001:0003cc20       __NLG_Return2              000000018003dc20 f   libvcruntimed:notify.obj
 0001:0003cc40       __except_validate_context_record 000000018003dc40 f   libvcruntimed:jbcxrval.obj
 0001:0003cca0       __except_validate_jump_buffer 000000018003dca0 f   libvcruntimed:jbcxrval.obj
 0001:0003ccc0       __except_validate_jump_buffer_common 000000018003dcc0 f i libvcruntimed:jbcxrval.obj
 0001:0003cd40       ?GetCurrentState@__FrameHandler3@@SAHPEA_KPEAU_xDISPATCHER_CONTEXT@@PEBU_s_FuncInfo@@@Z 000000018003dd40 f   libvcruntimed:ehstate.obj
 0001:0003cda0       ?GetUnwindTryBlock@__FrameHandler3@@SAHPEA_KPEAU_xDISPATCHER_CONTEXT@@PEBU_s_FuncInfo@@@Z 000000018003dda0 f   libvcruntimed:ehstate.obj
 0001:0003cdf0       ?SetState@__FrameHandler3@@SAXPEA_KPEBU_s_FuncInfo@@H@Z 000000018003ddf0 f   libvcruntimed:ehstate.obj
 0001:0003ce20       ?SetUnwindTryBlock@__FrameHandler3@@SAXPEA_KPEAU_xDISPATCHER_CONTEXT@@PEBU_s_FuncInfo@@H@Z 000000018003de20 f   libvcruntimed:ehstate.obj
 0001:0003ce90       ?StateFromControlPc@__FrameHandler3@@SAHPEBU_s_FuncInfo@@PEAU_xDISPATCHER_CONTEXT@@@Z 000000018003de90 f   libvcruntimed:ehstate.obj
 0001:0003ced0       ?StateFromControlPc@__FrameHandler4@@SAHPEAUFuncInfo4@FH4@@PEAU_xDISPATCHER_CONTEXT@@@Z 000000018003ded0 f   libvcruntimed:ehstate.obj
 0001:0003cf10       ?StateFromIp@__FrameHandler3@@SAHPEBU_s_FuncInfo@@PEAU_xDISPATCHER_CONTEXT@@_K@Z 000000018003df10 f   libvcruntimed:ehstate.obj
 0001:0003d000       ?StateFromIp@__FrameHandler4@@SAHPEAUFuncInfo4@FH4@@PEAU_xDISPATCHER_CONTEXT@@_K@Z 000000018003e000 f   libvcruntimed:ehstate.obj
 0001:0003d0f0       ?__FuncRelToRealOffset@@YA_KPEAU_xDISPATCHER_CONTEXT@@I@Z 000000018003e0f0 f i libvcruntimed:ehstate.obj
 0001:0003d120       ?__RVAtoRealOffset@@YA_KPEAU_xDISPATCHER_CONTEXT@@H@Z 000000018003e120 f i libvcruntimed:ehstate.obj
 0001:0003f3a0       ??$TypeMatchHelper@V__FrameHandler3@@@@YAHPEBU_s_HandlerType@@PEBU_s_CatchableType@@PEBU_s_ThrowInfo@@@Z 00000001800403a0 f i libvcruntimed:frame.obj
 0001:0003f5a0       ??$TypeMatchHelper@V__FrameHandler4@@@@YAHPEAUHandlerType4@FH4@@PEBU_s_CatchableType@@PEBU_s_ThrowInfo@@@Z 00000001800405a0 f i libvcruntimed:frame.obj
 0001:0003f7b0       ??$__InternalCxxFrameHandler@V__FrameHandler3@@@@YA?AW4_EXCEPTION_DISPOSITION@@PEAUEHExceptionRecord@@PEA_KPEAU_CONTEXT@@PEAU_xDISPATCHER_CONTEXT@@PEBU_s_FuncInfo@@H1E@Z 00000001800407b0 f i libvcruntimed:frame.obj
 0001:0003fc20       ??$__InternalCxxFrameHandler@V__FrameHandler4@@@@YA?AW4_EXCEPTION_DISPOSITION@@PEAUEHExceptionRecord@@PEA_KPEAU_CONTEXT@@PEAU_xDISPATCHER_CONTEXT@@PEAUFuncInfo4@FH4@@H1E@Z 0000000180040c20 f i libvcruntimed:frame.obj
 0001:000400b0       ??0HandlerMap4@FH4@@QEAA@PEBUTryBlockMapEntry4@1@_KH@Z 00000001800410b0 f i libvcruntimed:frame.obj
 0001:00040170       ??0HandlerMap@__FrameHandler3@@QEAA@PEBU_s_TryBlockMapEntry@@_KI@Z 0000000180041170 f i libvcruntimed:frame.obj
 0001:000401c0       ??0HandlerType4@FH4@@QEAA@XZ 00000001800411c0 f i libvcruntimed:frame.obj
 0001:000401e0       ??0TryBlockMap4@FH4@@QEAA@PEBUFuncInfo4@1@_K@Z 00000001800411e0 f i libvcruntimed:frame.obj
 0001:00040270       ??0TryBlockMap@__FrameHandler3@@QEAA@PEBU_s_FuncInfo@@_K@Z 0000000180041270 f i libvcruntimed:frame.obj
 0001:000402a0       ??0UWMap4@FH4@@QEAA@PEBUFuncInfo4@1@_K@Z 00000001800412a0 f i libvcruntimed:frame.obj
 0001:00040310       ??0bad_exception@std@@QEAA@AEBV01@@Z 0000000180041310 f i libvcruntimed:frame.obj
 0001:00040350       ??0bad_exception@std@@QEAA@XZ 0000000180041350 f i libvcruntimed:frame.obj
 0001:00040390       ??0iterator@HandlerMap4@FH4@@QEAA@AEAV12@I@Z 0000000180041390 f i libvcruntimed:frame.obj
 0001:000403c0       ??0iterator@HandlerMap@__FrameHandler3@@QEAA@AEAV12@I@Z 00000001800413c0 f i libvcruntimed:frame.obj
 0001:000403f0       ??0iterator@UWMap4@FH4@@QEAA@AEAV12@PEAE@Z 00000001800413f0 f i libvcruntimed:frame.obj
 0001:00040420       ??1bad_exception@std@@UEAA@XZ 0000000180041420 f i libvcruntimed:frame.obj
 0001:00040440       ??4iterator@UWMap4@FH4@@QEAAAEAV012@AEBV012@@Z 0000000180041440 f i libvcruntimed:frame.obj
 0001:00040490       ??8iterator@HandlerMap4@FH4@@QEBA_NAEBV012@@Z 0000000180041490 f i libvcruntimed:frame.obj
 0001:000404d0       ??8iterator@HandlerMap@__FrameHandler3@@QEBA_NAEBV012@@Z 00000001800414d0 f i libvcruntimed:frame.obj
 0001:00040510       ??8type_info@@QEBA_NAEBV0@@Z 0000000180041510 f i libvcruntimed:frame.obj
 0001:00040560       ??9iterator@HandlerMap4@FH4@@QEBA_NAEBV012@@Z 0000000180041560 f i libvcruntimed:frame.obj
 0001:000405a0       ??9iterator@HandlerMap@__FrameHandler3@@QEBA_NAEBV012@@Z 00000001800415a0 f i libvcruntimed:frame.obj
 0001:000405e0       ??Diterator@HandlerMap4@FH4@@QEAA?AUHandlerType4@2@XZ 00000001800415e0 f i libvcruntimed:frame.obj
 0001:00040610       ??Diterator@HandlerMap@__FrameHandler3@@QEAA?BU_s_HandlerType@@XZ 0000000180041610 f i libvcruntimed:frame.obj
 0001:00040650       ??Diterator@TryBlockMap@__FrameHandler3@@QEAA?BU_s_TryBlockMapEntry@@XZ 0000000180041650 f i libvcruntimed:frame.obj
 0001:000406a0       ??Diterator@UWMap4@FH4@@QEAA?AUUnwindMapEntry4@2@XZ 00000001800416a0 f i libvcruntimed:frame.obj
 0001:00040720       ??Eiterator@HandlerMap4@FH4@@QEAAAEAV012@XZ 0000000180041720 f i libvcruntimed:frame.obj
 0001:00040760       ??Eiterator@HandlerMap@__FrameHandler3@@QEAAAEAV012@XZ 0000000180041760 f i libvcruntimed:frame.obj
 0001:00040780       ??Eiterator@TryBlockMap@__FrameHandler3@@QEAAAEAV012@XZ 0000000180041780 f i libvcruntimed:frame.obj
 0001:000407a0       ??Eiterator@UWMap4@FH4@@QEAAAEAV012@XZ 00000001800417a0 f i libvcruntimed:frame.obj
 0001:000407e0       ??Giterator@UWMap4@FH4@@QEBA_JAEBV012@@Z 00000001800417e0 f i libvcruntimed:frame.obj
 0001:00040800       ??Miterator@TryBlockMap4@FH4@@QEBA_NAEBV012@@Z 0000000180041800 f i libvcruntimed:frame.obj
 0001:00040840       ??Miterator@TryBlockMap@__FrameHandler3@@QEBA_NAEBV012@@Z 0000000180041840 f i libvcruntimed:frame.obj
 0001:00040880       ??Oiterator@UWMap4@FH4@@QEBA_NAEBV012@@Z 0000000180041880 f i libvcruntimed:frame.obj
 0001:000408c0       ??Piterator@UWMap4@FH4@@QEBA_NAEBV012@@Z 00000001800418c0 f i libvcruntimed:frame.obj
 0001:00040900       ??_Ebad_exception@std@@UEAAPEAXI@Z 0000000180041900 f i libvcruntimed:frame.obj
 0001:00040900       ??_Gbad_exception@std@@UEAAPEAXI@Z 0000000180041900 f i libvcruntimed:frame.obj
 0001:00040940       ?BuildCatchObject@__FrameHandler3@@SAXPEAUEHExceptionRecord@@PEAXPEBU_s_HandlerType@@PEBU_s_CatchableType@@@Z 0000000180041940 f   libvcruntimed:frame.obj
 0001:00040980       ?BuildCatchObject@__FrameHandler4@@SAXPEAUEHExceptionRecord@@PEAXPEAUHandlerType4@FH4@@PEBU_s_CatchableType@@@Z 0000000180041980 f   libvcruntimed:frame.obj
 0001:000409c0       ?BuildCatchObjectHelper@__FrameHandler3@@SAHPEAUEHExceptionRecord@@PEAXPEBU_s_HandlerType@@PEBU_s_CatchableType@@@Z 00000001800419c0 f   libvcruntimed:frame.obj
 0001:00040a00       ?BuildCatchObjectHelper@__FrameHandler4@@SAHPEAUEHExceptionRecord@@PEAXPEAUHandlerType4@FH4@@PEBU_s_CatchableType@@@Z 0000000180041a00 f   libvcruntimed:frame.obj
 0001:00040a40       ?CxxCallCatchBlock@__FrameHandler3@@SAPEAXPEAU_EXCEPTION_RECORD@@@Z 0000000180041a40 f   libvcruntimed:frame.obj
 0001:00040ca0       ?CxxCallCatchBlock@__FrameHandler4@@SAPEAXPEAU_EXCEPTION_RECORD@@@Z 0000000180041ca0 f   libvcruntimed:frame.obj
 0001:00040fd0       ?DecompHandler@HandlerMap4@FH4@@AEAAXXZ 0000000180041fd0 f i libvcruntimed:frame.obj
 0001:000413a0       ?FrameUnwindToState@__FrameHandler3@@SAXPEA_KPEAU_xDISPATCHER_CONTEXT@@PEBU_s_FuncInfo@@H@Z 00000001800423a0 f   libvcruntimed:frame.obj
 0001:000415f0       ?FrameUnwindToState@__FrameHandler4@@SAXPEA_KPEAU_xDISPATCHER_CONTEXT@@PEAUFuncInfo4@FH4@@H@Z 00000001800425f0 f   libvcruntimed:frame.obj
 0001:00041900       ?GetHandlerSearchState@__FrameHandler3@@SAHPEA_KPEAU_xDISPATCHER_CONTEXT@@PEBU_s_FuncInfo@@@Z 0000000180042900 f i libvcruntimed:frame.obj
 0001:000419b0       ?GetHandlerSearchState@__FrameHandler4@@SAHPEA_KPEAU_xDISPATCHER_CONTEXT@@PEAUFuncInfo4@FH4@@@Z 00000001800429b0 f i libvcruntimed:frame.obj
 0001:00041a30       ?GetMaxState@__FrameHandler3@@SAHPEAU_xDISPATCHER_CONTEXT@@PEBU_s_FuncInfo@@@Z 0000000180042a30 f i libvcruntimed:frame.obj
 0001:00041a50       ?GetMaxState@__FrameHandler4@@SAHPEAU_xDISPATCHER_CONTEXT@@PEAUFuncInfo4@FH4@@@Z 0000000180042a50 f i libvcruntimed:frame.obj
 0001:00041c80       ?ReadEntry@UWMap4@FH4@@AEAAXPEAPEAE@Z 0000000180042c80 f i libvcruntimed:frame.obj
 0001:00041d30       ?TypeMatch@__FrameHandler3@@SAHPEBU_s_HandlerType@@PEBU_s_CatchableType@@PEBU_s_ThrowInfo@@@Z 0000000180042d30 f   libvcruntimed:frame.obj
 0001:00041d60       ?TypeMatch@__FrameHandler4@@SAHPEAUHandlerType4@FH4@@PEBU_s_CatchableType@@PEBU_s_ThrowInfo@@@Z 0000000180042d60 f   libvcruntimed:frame.obj
 0001:00041d90       ?WalkBack@UWMap4@FH4@@AEAAXPEAPEAE@Z 0000000180042d90 f i libvcruntimed:frame.obj
 0001:00041de0       ?WalkBack@iterator@UWMap4@FH4@@QEAAXXZ 0000000180042de0 f i libvcruntimed:frame.obj
 0001:00041e20       ?WalkForward@UWMap4@FH4@@AEAAXPEAPEAE@Z 0000000180042e20 f i libvcruntimed:frame.obj
 0001:00041e50       ?_CallMemberFunction1@@YAXQEAX00@Z 0000000180042e50 f i libvcruntimed:frame.obj
 0001:00041e90       ?_CallMemberFunction2@@YAXQEAX00H@Z 0000000180042e90 f i libvcruntimed:frame.obj
 0001:00041f20       ?begin@HandlerMap4@FH4@@QEAA?AViterator@12@XZ 0000000180042f20 f i libvcruntimed:frame.obj
 0001:00041f50       ?begin@HandlerMap@__FrameHandler3@@QEAA?AViterator@12@XZ 0000000180042f50 f i libvcruntimed:frame.obj
 0001:00041f80       ?begin@UWMap4@FH4@@QEAA?AViterator@12@XZ 0000000180042f80 f i libvcruntimed:frame.obj
 0001:00041fb0       ?end@HandlerMap4@FH4@@QEAA?AViterator@12@XZ 0000000180042fb0 f i libvcruntimed:frame.obj
 0001:00041fe0       ?end@HandlerMap@__FrameHandler3@@QEAA?AViterator@12@XZ 0000000180042fe0 f i libvcruntimed:frame.obj
 0001:00042010       ?getESTypes@__FrameHandler3@@SAPEBU_s_ESTypeList@@PEBU_s_FuncInfo@@@Z 0000000180043010 f i libvcruntimed:frame.obj
 0001:00042050       ?getESTypes@__FrameHandler4@@SAPEBU_s_ESTypeList@@PEAUFuncInfo4@FH4@@@Z 0000000180043050 f i libvcruntimed:frame.obj
 0001:00042060       ?getLastEntry@HandlerMap4@FH4@@QEAAPEAUHandlerType4@2@XZ 0000000180043060 f i libvcruntimed:frame.obj
 0001:000420a0       ?getLastEntry@HandlerMap@__FrameHandler3@@QEAAPEBU_s_HandlerType@@XZ 00000001800430a0 f i libvcruntimed:frame.obj
 0001:000420c0       ?getMagicNum@__FrameHandler3@@SAIPEBU_s_FuncInfo@@@Z 00000001800430c0 f i libvcruntimed:frame.obj
 0001:000420e0       ?getMagicNum@__FrameHandler4@@SAIPEAUFuncInfo4@FH4@@@Z 00000001800430e0 f i libvcruntimed:frame.obj
 0001:000420f0       ?getNumTryBlocks@TryBlockMap4@FH4@@QEAAIXZ 00000001800430f0 f i libvcruntimed:frame.obj
 0001:00042100       ?getNumTryBlocks@TryBlockMap@__FrameHandler3@@QEAAIXZ 0000000180043100 f i libvcruntimed:frame.obj
 0001:00042120       ?getStartStop@UWMap4@FH4@@QEAAXHHAEAViterator@12@0@Z 0000000180043120 f i libvcruntimed:frame.obj
 0001:00042240       ?getStateFromIterators@UWMap4@FH4@@SAHAEBViterator@12@H0H0@Z 0000000180043240 f i libvcruntimed:frame.obj
 0001:00042380       ?isEHs@__FrameHandler3@@SA_NPEBU_s_FuncInfo@@@Z 0000000180043380 f i libvcruntimed:frame.obj
 0001:000423c0       ?isEHs@__FrameHandler4@@SA_NPEAUFuncInfo4@FH4@@@Z 00000001800433c0 f i libvcruntimed:frame.obj
 0001:000423e0       ?isNoExcept@__FrameHandler3@@SA_NPEBU_s_FuncInfo@@@Z 00000001800433e0 f i libvcruntimed:frame.obj
 0001:00042420       ?isNoExcept@__FrameHandler4@@SA_NPEAUFuncInfo4@FH4@@@Z 0000000180043420 f i libvcruntimed:frame.obj
 0001:00042440       ?reset@HandlerType4@FH4@@QEAAXXZ 0000000180043440 f i libvcruntimed:frame.obj
 0001:000424a0       ?resetBuffer@HandlerMap4@FH4@@QEAAXXZ 00000001800434a0 f i libvcruntimed:frame.obj
 0001:000424c0       ?setBuffer@HandlerMap4@FH4@@QEAAXI@Z 00000001800434c0 f i libvcruntimed:frame.obj
 0001:00042520       __BuildCatchObject         0000000180043520 f   libvcruntimed:frame.obj
 0001:00042560       __BuildCatchObjectHelper   0000000180043560 f   libvcruntimed:frame.obj
 0001:000425a0       __TypeMatch                00000001800435a0 f   libvcruntimed:frame.obj
 0001:000425d0       __vcrt_EncodePointer       00000001800435d0 f i libvcruntimed:frame.obj
 0001:000425f0       ??$?0$00@DName@@QEAA@PEBDU?$StringLifeSelector@$00@@@Z 00000001800435f0 f i libvcruntimed:undname.obj
 0001:00042660       ??$?0$00@pcharNode@@QEAA@PEBDHU?$StringLifeSelector@$00@@@Z 0000000180043660 f i libvcruntimed:undname.obj
 0001:000426c0       ??$?0$01@DName@@QEAA@PEBDU?$StringLifeSelector@$01@@@Z 00000001800436c0 f i libvcruntimed:undname.obj
 0001:00042730       ??$?0$01@pcharNode@@QEAA@PEBDHU?$StringLifeSelector@$01@@@Z 0000000180043730 f i libvcruntimed:undname.obj
 0001:000427e0       ??$?0$0A@@DName@@QEAA@PEBDU?$StringLifeSelector@$0A@@@@Z 00000001800437e0 f i libvcruntimed:undname.obj
 0001:00042850       ??$?0$0A@@pcharNode@@QEAA@PEBDHU?$StringLifeSelector@$0A@@@@Z 0000000180043850 f i libvcruntimed:undname.obj
 0001:00042900       ??$?0_K$0A@@?$optional@_K@std@@QEAA@$$QEA_K@Z 0000000180043900 f i libvcruntimed:undname.obj
 0001:00042950       ??$?0_K@?$_Optional_construct_base@_K@std@@QEAA@Uin_place_t@1@$$QEA_K@Z 0000000180043950 f i libvcruntimed:undname.obj
 0001:00042980       ??$?0_K@?$_Optional_destruct_base@_K$00@std@@QEAA@Uin_place_t@1@$$QEA_K@Z 0000000180043980 f i libvcruntimed:undname.obj
 0001:000429c0       ??$append@VDNameNode@@@DName@@AEAAXPEBVDNameNode@@@Z 00000001800439c0 f i libvcruntimed:undname.obj
 0001:00042a70       ??$append@VDNameStatusNode@@@DName@@AEAAXPEBVDNameStatusNode@@@Z 0000000180043a70 f i libvcruntimed:undname.obj
 0001:00042b20       ??$append@VcharNode@@@DName@@AEAAXPEBVcharNode@@@Z 0000000180043b20 f i libvcruntimed:undname.obj
 0001:00042bd0       ??$append@VpDNameNode@@@DName@@AEAAXPEBVpDNameNode@@@Z 0000000180043bd0 f i libvcruntimed:undname.obj
 0001:00042c80       ??$append@VpcharNode@@@DName@@AEAAXPEBVpcharNode@@@Z 0000000180043c80 f i libvcruntimed:undname.obj
 0001:00042d30       ??$doPchar@$00@DName@@AEAAXPEBDH@Z 0000000180043d30 f i libvcruntimed:undname.obj
 0001:00042e90       ??$doPchar@$01@DName@@AEAAXPEBDH@Z 0000000180043e90 f i libvcruntimed:undname.obj
 0001:00042ff0       ??$doPchar@$0A@@DName@@AEAAXPEBDH@Z 0000000180043ff0 f i libvcruntimed:undname.obj
 0001:00043150       ??$forward@_K@std@@YA$$QEA_KAEA_K@Z 0000000180044150 f i libvcruntimed:undname.obj
 0001:00043160       ??$size@D$04@std@@YA_KAEAY04$$CBD@Z 0000000180044160 f i libvcruntimed:undname.obj
 0001:00043170       ??$size@D$0EB@@std@@YA_KAEAY0EB@$$CBD@Z 0000000180044170 f i libvcruntimed:undname.obj
 0001:00043180       ??0?$_Optional_construct_base@_K@std@@QEAA@XZ 0000000180044180 f i libvcruntimed:undname.obj
 0001:000431a0       ??0?$_Optional_destruct_base@_K$00@std@@QEAA@XZ 00000001800441a0 f i libvcruntimed:undname.obj
 0001:000431d0       ??0?$optional@_K@std@@QEAA@XZ 00000001800441d0 f i libvcruntimed:undname.obj
 0001:000431f0       ??0Block@_HeapManager@@QEAA@XZ 00000001800441f0 f i libvcruntimed:undname.obj
 0001:00043210       ??0DName@@QEAA@AEAPEBDD@Z  0000000180044210 f   libvcruntimed:undname.obj
 0001:000433e0       ??0DName@@QEAA@AEBUStringLiteral@@@Z 00000001800443e0 f   libvcruntimed:undname.obj
 0001:00043440       ??0DName@@QEAA@AEBV0@@Z    0000000180044440 f i libvcruntimed:undname.obj
 0001:00043470       ??0DName@@QEAA@D@Z         0000000180044470 f   libvcruntimed:undname.obj
 0001:000434b0       ??0DName@@QEAA@PEAV0@@Z    00000001800444b0 f   libvcruntimed:undname.obj
 0001:00043590       ??0DName@@QEAA@W4DNameStatus@@@Z 0000000180044590 f   libvcruntimed:undname.obj
 0001:00043640       ??0DName@@QEAA@XZ          0000000180044640 f i libvcruntimed:undname.obj
 0001:00043670       ??0DName@@QEAA@_J@Z        0000000180044670 f   libvcruntimed:undname.obj
 0001:00043780       ??0DName@@QEAA@_K@Z        0000000180044780 f   libvcruntimed:undname.obj
 0001:00043850       ??0DNameNode@@IEAA@XZ      0000000180044850 f i libvcruntimed:undname.obj
 0001:00043870       ??0Replicator@@QEAA@XZ     0000000180044870 f i libvcruntimed:undname.obj
 0001:000438b0       ??0UnDecorator@@QEAA@PEBDP6APEADJ@ZK@Z 00000001800448b0 f i libvcruntimed:undname.obj
 0001:00043960       ??0_Nontrivial_dummy_type@std@@QEAA@XZ 0000000180044960 f i libvcruntimed:undname.obj
 0001:00043970       ??0charNode@@QEAA@D@Z      0000000180044970 f i libvcruntimed:undname.obj
 0001:000439b0       ??0pDNameNode@@QEAA@PEAVDName@@@Z 00000001800449b0 f   libvcruntimed:undname.obj
 0001:00043a30       ??0pairNode@@QEAA@PEBVDNameNode@@0@Z 0000000180044a30 f i libvcruntimed:undname.obj
 0001:00043ab0       ??2@YAPEAX_KAEAV_HeapManager@@H@Z 0000000180044ab0 f   libvcruntimed:undname.obj
 0001:00043b10       ??4DName@@QEAAAEAV0@AEBUStringLiteral@@@Z 0000000180044b10 f   libvcruntimed:undname.obj
 0001:00043b60       ??4DName@@QEAAAEAV0@AEBV0@@Z 0000000180044b60 f   libvcruntimed:undname.obj
 0001:00043b90       ??4DName@@QEAAAEAV0@D@Z    0000000180044b90 f i libvcruntimed:undname.obj
 0001:00043bd0       ??4DName@@QEAAAEAV0@PEAV0@@Z 0000000180044bd0 f   libvcruntimed:undname.obj
 0001:00043ca0       ??4DName@@QEAAAEAV0@W4DNameStatus@@@Z 0000000180044ca0 f   libvcruntimed:undname.obj
 0001:00043d30       ??AReplicator@@QEBA?AVDName@@H@Z 0000000180044d30 f   libvcruntimed:undname.obj
 0001:00043dc0       ??B?$optional@_K@std@@QEBA_NXZ 0000000180044dc0 f i libvcruntimed:undname.obj
 0001:00043dd0       ??D?$optional@_K@std@@QEGAAAEA_KXZ 0000000180044dd0 f i libvcruntimed:undname.obj
 0001:00043de0       ??H@YA?AVDName@@AEBUStringLiteral@@AEBV0@@Z 0000000180044de0 f i libvcruntimed:undname.obj
 0001:00043e30       ??H@YA?AVDName@@DAEBV0@@Z  0000000180044e30 f i libvcruntimed:undname.obj
 0001:00043e80       ??H@YA?AVDName@@W4DNameStatus@@AEBV0@@Z 0000000180044e80 f i libvcruntimed:undname.obj
 0001:00043ed0       ??HDName@@QEBA?AV0@AEBUStringLiteral@@@Z 0000000180044ed0 f   libvcruntimed:undname.obj
 0001:00043f20       ??HDName@@QEBA?AV0@AEBV0@@Z 0000000180044f20 f   libvcruntimed:undname.obj
 0001:00043f70       ??HDName@@QEBA?AV0@D@Z     0000000180044f70 f   libvcruntimed:undname.obj
 0001:00043fc0       ??HDName@@QEBA?AV0@PEAV0@@Z 0000000180044fc0 f   libvcruntimed:undname.obj
 0001:00044010       ??HDName@@QEBA?AV0@W4DNameStatus@@@Z 0000000180045010 f   libvcruntimed:undname.obj
 0001:00044060       ??HStringLiteral@@QEBA?AU0@H@Z 0000000180045060 f i libvcruntimed:undname.obj
 0001:000440a0       ??YDName@@QEAAAEAV0@AEBUStringLiteral@@@Z 00000001800450a0 f   libvcruntimed:undname.obj
 0001:00044170       ??YDName@@QEAAAEAV0@AEBV0@@Z 0000000180045170 f   libvcruntimed:undname.obj
 0001:00044230       ??YDName@@QEAAAEAV0@D@Z    0000000180045230 f   libvcruntimed:undname.obj
 0001:000442d0       ??YDName@@QEAAAEAV0@PEAV0@@Z 00000001800452d0 f   libvcruntimed:undname.obj
 0001:000443b0       ??YDName@@QEAAAEAV0@W4DNameStatus@@@Z 00000001800453b0 f   libvcruntimed:undname.obj
 0001:00044420       ??YReplicator@@QEAAAEAV0@AEBVDName@@@Z 0000000180045420 f   libvcruntimed:undname.obj
 0001:000444e0       ??_5DName@@QEAAAEAV0@AEBV0@@Z 00000001800454e0 f   libvcruntimed:undname.obj
 0001:00044550       ??__K_l@@YA?AUStringLiteral@@PEBD_K@Z 0000000180045550 f i libvcruntimed:undname.obj
 0001:000445a0       ?Constructor@_HeapManager@@QEAAXP6APEAX_K@ZP6AXPEAX@Z@Z 00000001800455a0 f i libvcruntimed:undname.obj
 0001:00044600       ?Destructor@_HeapManager@@QEAAXXZ 0000000180045600 f i libvcruntimed:undname.obj
 0001:000446a0       ?UScore@UnDecorator@@SA?AUStringLiteral@@W4Tokens@@@Z 00000001800456a0 f   libvcruntimed:undname.obj
 0001:00044730       ?composeDeclaration@UnDecorator@@CA?AVDName@@AEBV2@@Z 0000000180045730 f i libvcruntimed:undname.obj
 0001:00046c30       ?dbGetString@DName@@QEBAPEADXZ 0000000180047c30 f   libvcruntimed:undname.obj
 0001:00046c60       ?doAccessSpecifiers@UnDecorator@@SAHXZ 0000000180047c60 f i libvcruntimed:undname.obj
 0001:00046c90       ?doAllocationLanguage@UnDecorator@@SAHXZ 0000000180047c90 f i libvcruntimed:undname.obj
 0001:00046cc0       ?doAllocationModel@UnDecorator@@SAHXZ 0000000180047cc0 f i libvcruntimed:undname.obj
 0001:00046cf0       ?doEcsu@UnDecorator@@SAHXZ 0000000180047cf0 f i libvcruntimed:undname.obj
 0001:00046d20       ?doEllipsis@UnDecorator@@SAHXZ 0000000180047d20 f i libvcruntimed:undname.obj
 0001:00046d50       ?doFunctionReturns@UnDecorator@@SAHXZ 0000000180047d50 f i libvcruntimed:undname.obj
 0001:00046d80       ?doMSKeywords@UnDecorator@@SAHXZ 0000000180047d80 f i libvcruntimed:undname.obj
 0001:00046db0       ?doMemberTypes@UnDecorator@@SAHXZ 0000000180047db0 f i libvcruntimed:undname.obj
 0001:00046de0       ?doNameOnly@UnDecorator@@SAHXZ 0000000180047de0 f i libvcruntimed:undname.obj
 0001:00046df0       ?doNoIdentCharCheck@UnDecorator@@SAHXZ 0000000180047df0 f i libvcruntimed:undname.obj
 0001:00046e00       ?doPchar@DName@@AEAAXD@Z   0000000180047e00 f   libvcruntimed:undname.obj
 0001:00046e90       ?doPtr64@UnDecorator@@SAHXZ 0000000180047e90 f i libvcruntimed:undname.obj
 0001:00046ec0       ?doRestrictionSpec@UnDecorator@@SAHXZ 0000000180047ec0 f i libvcruntimed:undname.obj
 0001:00046ef0       ?doThisTypes@UnDecorator@@SAHXZ 0000000180047ef0 f i libvcruntimed:undname.obj
 0001:00046f20       ?doThrowTypes@UnDecorator@@SAHXZ 0000000180047f20 f i libvcruntimed:undname.obj
 0001:00046f50       ?doTypeOnly@UnDecorator@@SAHXZ 0000000180047f50 f i libvcruntimed:undname.obj
 0001:00046f60       ?doUnderScore@UnDecorator@@SAHXZ 0000000180047f60 f i libvcruntimed:undname.obj
 0001:00046f90       ?getArgumentList@UnDecorator@@CA?AVDName@@XZ 0000000180047f90 f   libvcruntimed:undname.obj
 0001:00047130       ?getArgumentTypes@UnDecorator@@CA?AVDName@@XZ 0000000180048130 f   libvcruntimed:undname.obj
 0001:00047490       ?getArrayObject@UnDecorator@@CA?AVDName@@XZ 0000000180048490 f   libvcruntimed:undname.obj
 0001:000475b0       ?getArrayType@UnDecorator@@CA?AVDName@@AEBV2@@Z 00000001800485b0 f i libvcruntimed:undname.obj
 0001:00047970       ?getBasedType@UnDecorator@@CA?AVDName@@XZ 0000000180048970 f   libvcruntimed:undname.obj
 0001:00047ae0       ?getBasicDataType@UnDecorator@@CA?AVDName@@AEBV2@@Z 0000000180048ae0 f   libvcruntimed:undname.obj
 0001:000487b0       ?getCHPEName@UnDecorator@@QEAAPEADPEADH@Z 00000001800497b0 f i libvcruntimed:undname.obj
 0001:00048980       ?getCallIndex@UnDecorator@@CA?AVDName@@XZ 0000000180049980 f i libvcruntimed:undname.obj
 0001:000489a0       ?getCallingConvention@UnDecorator@@CA?AVDName@@XZ 00000001800499a0 f   libvcruntimed:undname.obj
 0001:00048d40       ?getDataIndirectType@UnDecorator@@CA?AVDName@@AEBV2@W4IndirectionKind@@0H@Z 0000000180049d40 f   libvcruntimed:undname.obj
 0001:000499e0       ?getDataIndirectType@UnDecorator@@CA?AVDName@@XZ 000000018004a9e0 f i libvcruntimed:undname.obj
 0001:00049a30       ?getDataType@UnDecorator@@CA?AVDName@@PEAV2@@Z 000000018004aa30 f   libvcruntimed:undname.obj
 0001:00049c10       ?getDecoratedName@UnDecorator@@CA?AVDName@@XZ 000000018004ac10 f   libvcruntimed:undname.obj
 0001:0004a100       ?getDimension@UnDecorator@@CA?AVDName@@_N@Z 000000018004b100 f   libvcruntimed:undname.obj
 0001:0004a410       ?getDispatchTarget@UnDecorator@@CA?AVDName@@XZ 000000018004b410 f   libvcruntimed:undname.obj
 0001:0004a4e0       ?getDisplacement@UnDecorator@@CA?AVDName@@XZ 000000018004b4e0 f i libvcruntimed:undname.obj
 0001:0004a500       ?getECSUDataType@UnDecorator@@CA?AVDName@@XZ 000000018004b500 f   libvcruntimed:undname.obj
 0001:0004a890       ?getECSUName@UnDecorator@@CA?AVDName@@XZ 000000018004b890 f i libvcruntimed:undname.obj
 0001:0004a8b0       ?getEnumType@UnDecorator@@CA?AVDName@@XZ 000000018004b8b0 f i libvcruntimed:undname.obj
 0001:0004ab40       ?getExtendedDataIndirectType@UnDecorator@@CA?AVDName@@AEAW4IndirectionKind@@AEA_NH@Z 000000018004bb40 f   libvcruntimed:undname.obj
 0001:0004ae60       ?getExternalDataType@UnDecorator@@CA?AVDName@@AEBV2@@Z 000000018004be60 f i libvcruntimed:undname.obj
 0001:0004af40       ?getFloatingPoint@UnDecorator@@CA?AVDName@@H@Z 000000018004bf40 f   libvcruntimed:undname.obj
 0001:0004b1b0       ?getFunctionIndirectType@UnDecorator@@CA?AVDName@@AEBV2@@Z 000000018004c1b0 f   libvcruntimed:undname.obj
 0001:0004b7e0       ?getGuardNumber@UnDecorator@@CA?AVDName@@XZ 000000018004c7e0 f i libvcruntimed:undname.obj
 0001:0004b800       ?getLastChar@DName@@QEBADXZ 000000018004c800 f i libvcruntimed:undname.obj
 0001:0004b850       ?getLastChar@DNameStatusNode@@UEBADXZ 000000018004c850 f i libvcruntimed:undname.obj
 0001:0004b890       ?getLastChar@charNode@@UEBADXZ 000000018004c890 f i libvcruntimed:undname.obj
 0001:0004b8a0       ?getLastChar@pDNameNode@@UEBADXZ 000000018004c8a0 f i libvcruntimed:undname.obj
 0001:0004b8e0       ?getLastChar@pairNode@@UEBADXZ 000000018004c8e0 f i libvcruntimed:undname.obj
 0001:0004b960       ?getLastChar@pcharNode@@UEBADXZ 000000018004c960 f i libvcruntimed:undname.obj
 0001:0004b9a0       ?getLexicalFrame@UnDecorator@@CA?AVDName@@XZ 000000018004c9a0 f i libvcruntimed:undname.obj
 0001:0004b9f0       ?getMemoryWithBuffer@_HeapManager@@QEAAPEAX_K@Z 000000018004c9f0 f   libvcruntimed:undname.obj
 0001:0004bb40       ?getMemoryWithoutBuffer@_HeapManager@@QEAAPEAX_K@Z 000000018004cb40 f   libvcruntimed:undname.obj
 0001:0004bb90       ?getNoexcept@UnDecorator@@CA?AVDName@@XZ 000000018004cb90 f   libvcruntimed:undname.obj
 0001:0004bc40       ?getNumberOfDimensions@UnDecorator@@CAHXZ 000000018004cc40 f   libvcruntimed:undname.obj
 0001:0004bd60       ?getOperatorName@UnDecorator@@CA?AVDName@@_NPEA_N@Z 000000018004cd60 f i libvcruntimed:undname.obj
 0001:0004cc70       ?getPointerType@UnDecorator@@CA?AVDName@@AEBV2@0@Z 000000018004dc70 f i libvcruntimed:undname.obj
 0001:0004ccb0       ?getPointerTypeArray@UnDecorator@@CA?AVDName@@AEBV2@0@Z 000000018004dcb0 f i libvcruntimed:undname.obj
 0001:0004ccf0       ?getPrimaryDataType@UnDecorator@@CA?AVDName@@AEBV2@@Z 000000018004dcf0 f   libvcruntimed:undname.obj
 0001:0004d320       ?getPtrRefDataType@UnDecorator@@CA?AVDName@@AEBV2@H@Z 000000018004e320 f   libvcruntimed:undname.obj
 0001:0004d710       ?getPtrRefType@UnDecorator@@CA?AVDName@@AEBV2@0W4IndirectionKind@@@Z 000000018004e710 f   libvcruntimed:undname.obj
 0001:0004d950       ?getReferenceType@UnDecorator@@CA?AVDName@@AEBV2@0W4IndirectionKind@@@Z 000000018004e950 f i libvcruntimed:undname.obj
 0001:0004d990       ?getRestrictionSpec@UnDecorator@@CA?AVDName@@XZ 000000018004e990 f   libvcruntimed:undname.obj
 0001:0004dc20       ?getReturnType@UnDecorator@@CA?AVDName@@PEAV2@@Z 000000018004ec20 f   libvcruntimed:undname.obj
 0001:0004dc80       ?getScope@UnDecorator@@CA?AVDName@@XZ 000000018004ec80 f   libvcruntimed:undname.obj
 0001:0004e3d0       ?getScopedName@UnDecorator@@CA?AVDName@@XZ 000000018004f3d0 f   libvcruntimed:undname.obj
 0001:0004e5d0       ?getSignedDimension@UnDecorator@@CA?AVDName@@XZ 000000018004f5d0 f   libvcruntimed:undname.obj
 0001:0004e660       ?getStorageConvention@UnDecorator@@CA?AVDName@@XZ 000000018004f660 f i libvcruntimed:undname.obj
 0001:0004e680       ?getString@DName@@QEBAPEADPEAD0@Z 000000018004f680 f i libvcruntimed:undname.obj
 0001:0004e700       ?getString@DName@@QEBAPEADPEADH@Z 000000018004f700 f i libvcruntimed:undname.obj
 0001:0004e7c0       ?getString@DNameStatusNode@@UEBAPEADPEAD0@Z 000000018004f7c0 f i libvcruntimed:undname.obj
 0001:0004e810       ?getString@charNode@@UEBAPEADPEAD0@Z 000000018004f810 f i libvcruntimed:undname.obj
 0001:0004e850       ?getString@pDNameNode@@UEBAPEADPEAD0@Z 000000018004f850 f i libvcruntimed:undname.obj
 0001:0004e8b0       ?getString@pairNode@@UEBAPEADPEAD0@Z 000000018004f8b0 f i libvcruntimed:undname.obj
 0001:0004e980       ?getString@pcharNode@@UEBAPEADPEAD0@Z 000000018004f980 f i libvcruntimed:undname.obj
 0001:0004e9c0       ?getStringEncoding@UnDecorator@@CA?AVDName@@W4PrefixKind@@H@Z 000000018004f9c0 f   libvcruntimed:undname.obj
 0001:0004eb20       ?getStringHelper@@YAPEADPEADPEBD1H@Z 000000018004fb20 f i libvcruntimed:undname.obj
 0001:0004eb90       ?getStringObject@UnDecorator@@CA?AVDName@@XZ 000000018004fb90 f   libvcruntimed:undname.obj
 0001:0004ec70       ?getSymbolName@UnDecorator@@CA?AVDName@@XZ 000000018004fc70 f i libvcruntimed:undname.obj
 0001:0004ed10       ?getTemplateArgumentList@UnDecorator@@CA?AVDName@@XZ 000000018004fd10 f   libvcruntimed:undname.obj
 0001:0004f050       ?getTemplateName@UnDecorator@@CA?AVDName@@_N@Z 0000000180050050 f   libvcruntimed:undname.obj
 0001:0004f290       ?getTemplateNonTypeArgument@UnDecorator@@CA?AVDName@@XZ 0000000180050290 f   libvcruntimed:undname.obj
 0001:0004f9b0       ?getTemplateTypeArgument@UnDecorator@@CA?AVDName@@XZ 00000001800509b0 f   libvcruntimed:undname.obj
 0001:0004fc20       ?getThisType@UnDecorator@@CA?AVDName@@XZ 0000000180050c20 f i libvcruntimed:undname.obj
 0001:0004fc70       ?getThrowTypes@UnDecorator@@CA?AVDName@@XZ 0000000180050c70 f   libvcruntimed:undname.obj
 0001:0004fcc0       ?getTypeEncoding@UnDecorator@@CAHXZ 0000000180050cc0 f i libvcruntimed:undname.obj
 0001:000508f0       ?getUndecoratedName@UnDecorator@@QEAAPEADPEADH@Z 00000001800518f0 f i libvcruntimed:undname.obj
 0001:00050ae0       ?getVCallThunkType@UnDecorator@@CA?AVDName@@XZ 0000000180051ae0 f i libvcruntimed:undname.obj
 0001:00050b90       ?getValue@UnDecorator@@CA?AV?$optional@_K@std@@XZ 0000000180051b90 f   libvcruntimed:undname.obj
 0001:00050c60       ?getValueObject@UnDecorator@@CA?AVDName@@XZ 0000000180051c60 f   libvcruntimed:undname.obj
 0001:00050e50       ?getVbTableType@UnDecorator@@CA?AVDName@@AEBV2@@Z 0000000180051e50 f i libvcruntimed:undname.obj
 0001:00050e80       ?getVdispMapType@UnDecorator@@CA?AVDName@@AEBV2@@Z 0000000180051e80 f i libvcruntimed:undname.obj
 0001:00050f40       ?getVfTableType@UnDecorator@@CA?AVDName@@AEBV2@@Z 0000000180051f40 f i libvcruntimed:undname.obj
 0001:000511e0       ?getZName@UnDecorator@@CA?AVDName@@_N0@Z 00000001800521e0 f   libvcruntimed:undname.obj
 0001:00051670       ?haveTemplateParameters@UnDecorator@@SAHXZ 0000000180052670 f i libvcruntimed:undname.obj
 0001:00051680       ?isArray@DName@@QEBAHXZ    0000000180052680 f i libvcruntimed:undname.obj
 0001:000516a0       ?isComArray@DName@@QEBAHXZ 00000001800526a0 f i libvcruntimed:undname.obj
 0001:000516c0       ?isEmpty@DName@@QEBAHXZ    00000001800526c0 f i libvcruntimed:undname.obj
 0001:000516f0       ?isFull@Replicator@@QEBAHXZ 00000001800526f0 f i libvcruntimed:undname.obj
 0001:00051720       ?isNoTE@DName@@QEBAHXZ     0000000180052720 f i libvcruntimed:undname.obj
 0001:00051740       ?isPinPtr@DName@@QEBAHXZ   0000000180052740 f i libvcruntimed:undname.obj
 0001:00051760       ?isPtrRef@DName@@QEBAHXZ   0000000180052760 f i libvcruntimed:undname.obj
 0001:00051780       ?isUDC@DName@@QEBAHXZ      0000000180052780 f i libvcruntimed:undname.obj
 0001:000517d0       ?isUDTThunk@DName@@QEBAHXZ 00000001800527d0 f i libvcruntimed:undname.obj
 0001:00051820       ?isVCallThunk@DName@@QEBAHXZ 0000000180052820 f i libvcruntimed:undname.obj
 0001:00051840       ?isValid@DName@@QEBAHXZ    0000000180052840 f i libvcruntimed:undname.obj
 0001:00051880       ?length@DName@@QEBAHXZ     0000000180052880 f i libvcruntimed:undname.obj
 0001:000518d0       ?length@DNameStatusNode@@UEBAHXZ 00000001800528d0 f i libvcruntimed:undname.obj
 0001:000518e0       ?length@charNode@@UEBAHXZ  00000001800528e0 f i libvcruntimed:undname.obj
 0001:000518f0       ?length@pDNameNode@@UEBAHXZ 00000001800528f0 f i libvcruntimed:undname.obj
 0001:00051930       ?length@pairNode@@UEBAHXZ  0000000180052930 f i libvcruntimed:undname.obj
 0001:000519c0       ?length@pcharNode@@UEBAHXZ 00000001800529c0 f i libvcruntimed:undname.obj
 0001:000519d0       ?make@DNameStatusNode@@SAPEBV1@W4DNameStatus@@@Z 00000001800529d0 f i libvcruntimed:undname.obj
 0001:00051a20       ?parseDecoratedName@UnDecorator@@CA?AVDName@@XZ 0000000180052a20 f   libvcruntimed:undname.obj
 0001:00051c10       ?raw_length@DNameStatusNode@@UEBAHXZ 0000000180052c10 f i libvcruntimed:undname.obj
 0001:00051c30       ?raw_length@charNode@@UEBAHXZ 0000000180052c30 f i libvcruntimed:undname.obj
 0001:00051c50       ?raw_length@pDNameNode@@UEBAHXZ 0000000180052c50 f i libvcruntimed:undname.obj
 0001:00051c60       ?raw_length@pairNode@@UEBAHXZ 0000000180052c60 f i libvcruntimed:undname.obj
 0001:00051c70       ?raw_length@pcharNode@@UEBAHXZ 0000000180052c70 f i libvcruntimed:undname.obj
 0001:00051c90       ?setIsArray@DName@@QEAAXXZ 0000000180052c90 f i libvcruntimed:undname.obj
 0001:00051cb0       ?setIsComArray@DName@@QEAAXXZ 0000000180052cb0 f i libvcruntimed:undname.obj
 0001:00051cd0       ?setIsNoTE@DName@@QEAAXXZ  0000000180052cd0 f i libvcruntimed:undname.obj
 0001:00051cf0       ?setIsPinPtr@DName@@QEAAXXZ 0000000180052cf0 f i libvcruntimed:undname.obj
 0001:00051d10       ?setIsUDC@DName@@QEAAXXZ   0000000180052d10 f i libvcruntimed:undname.obj
 0001:00051d40       ?setIsVCallThunk@DName@@QEAAXXZ 0000000180052d40 f i libvcruntimed:undname.obj
 0001:00051d60       ?setPtrRef@DName@@QEAAAEAV1@XZ 0000000180052d60 f i libvcruntimed:undname.obj
 0001:00051d80       ?status@DName@@QEBA?AW4DNameStatus@@XZ 0000000180052d80 f i libvcruntimed:undname.obj
 0001:00051eb0       __unDName                  0000000180052eb0 f   libvcruntimed:undname.obj
 0001:00051f10       __unDNameEx                0000000180052f10 f   libvcruntimed:undname.obj
 0001:00051fd0       unDNameGenerateCHPE        0000000180052fd0 f   libvcruntimed:undname.obj
 0001:00052080       ??$__crt_interlocked_exchange_pointer@UHINSTANCE__@@PEAU1@@@YAPEAUHINSTANCE__@@PEDSEAU0@QEAU0@@Z 0000000180053080 f i libvcruntimed:winapi_downlevel.obj
 0001:000520a0       ??$__crt_interlocked_exchange_pointer@UHINSTANCE__@@PEAX@@YAPEAUHINSTANCE__@@PEDSEAU0@QEAX@Z 00000001800530a0 f i libvcruntimed:winapi_downlevel.obj
 0001:000520c0       ??$__crt_interlocked_exchange_pointer@XPEAX@@YAPEAXPEDSEAXQEAX@Z 00000001800530c0 f i libvcruntimed:winapi_downlevel.obj
 0001:000520e0       ??$__crt_interlocked_read_pointer@UHINSTANCE__@@@@YAPEAUHINSTANCE__@@PEDSEAU0@@Z 00000001800530e0 f i libvcruntimed:winapi_downlevel.obj
 0001:00052100       ??$__crt_interlocked_read_pointer@X@@YAPEAXPEDSEAX@Z 0000000180053100 f i libvcruntimed:winapi_downlevel.obj
 0001:00052610       __vcrt_FlsAlloc            0000000180053610 f   libvcruntimed:winapi_downlevel.obj
 0001:00052660       __vcrt_FlsFree             0000000180053660 f   libvcruntimed:winapi_downlevel.obj
 0001:000526b0       __vcrt_FlsGetValue         00000001800536b0 f   libvcruntimed:winapi_downlevel.obj
 0001:00052700       __vcrt_FlsSetValue         0000000180053700 f   libvcruntimed:winapi_downlevel.obj
 0001:00052760       __vcrt_InitializeCriticalSectionEx 0000000180053760 f   libvcruntimed:winapi_downlevel.obj
 0001:000527e0       _CallSettingFrame          00000001800537e0 f   libvcruntimed:handlers.obj
 0001:00052830       _CallSettingFrame_LookupContinuationIndex 0000000180053830 f   libvcruntimed:handlers.obj
 0001:00052860       _CallSettingFrame_NotifyContinuationAddr 0000000180053860 f   libvcruntimed:handlers.obj
 0001:00052890       _CallSettingFrameEncoded   0000000180053890 f   libvcruntimed:handlers.obj
 0001:000528e0       ??$?0AEBV?$stream_output_adapter@D@__crt_stdio_output@@AEB_KAEBQEBDAEBQEAU__crt_locale_pointers@@AEBQEAD@?$format_validation_base@DV?$stream_output_adapter@D@__crt_stdio_output@@@__crt_stdio_output@@IEAA@AEBV?$stream_output_adapter@D@1@AEB_KAEBQEBDAEBQEAU__crt_locale_pointers@@AEBQEAD@Z 00000001800538e0 f i libucrtd:output.obj
 0001:00052930       ??$?0AEBV?$stream_output_adapter@D@__crt_stdio_output@@AEB_KAEBQEBDAEBQEAU__crt_locale_pointers@@AEBQEAD@?$positional_parameter_base@DV?$stream_output_adapter@D@__crt_stdio_output@@@__crt_stdio_output@@IEAA@AEBV?$stream_output_adapter@D@1@AEB_KAEBQEBDAEBQEAU__crt_locale_pointers@@AEBQEAD@Z 0000000180053930 f i libucrtd:output.obj
 0001:000529d0       ??$?0AEBV?$stream_output_adapter@D@__crt_stdio_output@@AEB_KAEBQEBDAEBQEAU__crt_locale_pointers@@AEBQEAD@?$standard_base@DV?$stream_output_adapter@D@__crt_stdio_output@@@__crt_stdio_output@@IEAA@AEBV?$stream_output_adapter@D@1@AEB_KAEBQEBDAEBQEAU__crt_locale_pointers@@AEBQEAD@Z 00000001800539d0 f i libucrtd:output.obj
 0001:00052a40       ??$?0AEBV?$stream_output_adapter@_W@__crt_stdio_output@@AEB_KAEBQEB_WAEBQEAU__crt_locale_pointers@@AEBQEAD@?$format_validation_base@_WV?$stream_output_adapter@_W@__crt_stdio_output@@@__crt_stdio_output@@IEAA@AEBV?$stream_output_adapter@_W@1@AEB_KAEBQEB_WAEBQEAU__crt_locale_pointers@@AEBQEAD@Z 0000000180053a40 f i libucrtd:output.obj
 0001:00052a90       ??$?0AEBV?$stream_output_adapter@_W@__crt_stdio_output@@AEB_KAEBQEB_WAEBQEAU__crt_locale_pointers@@AEBQEAD@?$positional_parameter_base@_WV?$stream_output_adapter@_W@__crt_stdio_output@@@__crt_stdio_output@@IEAA@AEBV?$stream_output_adapter@_W@1@AEB_KAEBQEB_WAEBQEAU__crt_locale_pointers@@AEBQEAD@Z 0000000180053a90 f i libucrtd:output.obj
 0001:00052b30       ??$?0AEBV?$stream_output_adapter@_W@__crt_stdio_output@@AEB_KAEBQEB_WAEBQEAU__crt_locale_pointers@@AEBQEAD@?$standard_base@_WV?$stream_output_adapter@_W@__crt_stdio_output@@@__crt_stdio_output@@IEAA@AEBV?$stream_output_adapter@_W@1@AEB_KAEBQEB_WAEBQEAU__crt_locale_pointers@@AEBQEAD@Z 0000000180053b30 f i libucrtd:output.obj
 0001:00052ba0       ??$?0AEBV?$string_output_adapter@D@__crt_stdio_output@@AEB_KAEBQEBDAEBQEAU__crt_locale_pointers@@AEBQEAD@?$format_validation_base@DV?$string_output_adapter@D@__crt_stdio_output@@@__crt_stdio_output@@IEAA@AEBV?$string_output_adapter@D@1@AEB_KAEBQEBDAEBQEAU__crt_locale_pointers@@AEBQEAD@Z 0000000180053ba0 f i libucrtd:output.obj
 0001:00052bf0       ??$?0AEBV?$string_output_adapter@D@__crt_stdio_output@@AEB_KAEBQEBDAEBQEAU__crt_locale_pointers@@AEBQEAD@?$positional_parameter_base@DV?$string_output_adapter@D@__crt_stdio_output@@@__crt_stdio_output@@IEAA@AEBV?$string_output_adapter@D@1@AEB_KAEBQEBDAEBQEAU__crt_locale_pointers@@AEBQEAD@Z 0000000180053bf0 f i libucrtd:output.obj
 0001:00052c90       ??$?0AEBV?$string_output_adapter@D@__crt_stdio_output@@AEB_KAEBQEBDAEBQEAU__crt_locale_pointers@@AEBQEAD@?$standard_base@DV?$string_output_adapter@D@__crt_stdio_output@@@__crt_stdio_output@@IEAA@AEBV?$string_output_adapter@D@1@AEB_KAEBQEBDAEBQEAU__crt_locale_pointers@@AEBQEAD@Z 0000000180053c90 f i libucrtd:output.obj
 0001:00052d00       ??$?0AEBV?$string_output_adapter@_W@__crt_stdio_output@@AEB_KAEBQEB_WAEBQEAU__crt_locale_pointers@@AEBQEAD@?$format_validation_base@_WV?$string_output_adapter@_W@__crt_stdio_output@@@__crt_stdio_output@@IEAA@AEBV?$string_output_adapter@_W@1@AEB_KAEBQEB_WAEBQEAU__crt_locale_pointers@@AEBQEAD@Z 0000000180053d00 f i libucrtd:output.obj
 0001:00052d50       ??$?0AEBV?$string_output_adapter@_W@__crt_stdio_output@@AEB_KAEBQEB_WAEBQEAU__crt_locale_pointers@@AEBQEAD@?$positional_parameter_base@_WV?$string_output_adapter@_W@__crt_stdio_output@@@__crt_stdio_output@@IEAA@AEBV?$string_output_adapter@_W@1@AEB_KAEBQEB_WAEBQEAU__crt_locale_pointers@@AEBQEAD@Z 0000000180053d50 f i libucrtd:output.obj
 0001:00052df0       ??$?0AEBV?$string_output_adapter@_W@__crt_stdio_output@@AEB_KAEBQEB_WAEBQEAU__crt_locale_pointers@@AEBQEAD@?$standard_base@_WV?$string_output_adapter@_W@__crt_stdio_output@@@__crt_stdio_output@@IEAA@AEBV?$string_output_adapter@_W@1@AEB_KAEBQEB_WAEBQEAU__crt_locale_pointers@@AEBQEAD@Z 0000000180053df0 f i libucrtd:output.obj
 0001:00053220       ??$__crt_interlocked_read@J@@YAJPEDJ@Z 0000000180054220 f i libucrtd:output.obj
 0001:00056d00       ??$count@D@formatting_buffer@__crt_stdio_output@@QEBA_KXZ 0000000180057d00 f i libucrtd:output.obj
 0001:00056d50       ??$count@_W@formatting_buffer@__crt_stdio_output@@QEBA_KXZ 0000000180057d50 f i libucrtd:output.obj
 0001:00056da0       ??$data@D@formatting_buffer@__crt_stdio_output@@QEAAPEADXZ 0000000180057da0 f i libucrtd:output.obj
 0001:00056df0       ??$data@_W@formatting_buffer@__crt_stdio_output@@QEAAPEA_WXZ 0000000180057df0 f i libucrtd:output.obj
 0001:00056e40       ??$ensure_buffer_is_big_enough@D@formatting_buffer@__crt_stdio_output@@QEAA_N_K@Z 0000000180057e40 f i libucrtd:output.obj
 0001:00056f70       ??$ensure_buffer_is_big_enough@_W@formatting_buffer@__crt_stdio_output@@QEAA_N_K@Z 0000000180057f70 f i libucrtd:output.obj
 0001:000570a0       ??$extract_argument_from_va_list@C_J@?$positional_parameter_base@DV?$stream_output_adapter@D@__crt_stdio_output@@@__crt_stdio_output@@IEAA_NAEA_J@Z 00000001800580a0 f i libucrtd:output.obj
 0001:00057220       ??$extract_argument_from_va_list@C_J@?$positional_parameter_base@DV?$string_output_adapter@D@__crt_stdio_output@@@__crt_stdio_output@@IEAA_NAEA_J@Z 0000000180058220 f i libucrtd:output.obj
 0001:000573a0       ??$extract_argument_from_va_list@C_J@?$positional_parameter_base@_WV?$stream_output_adapter@_W@__crt_stdio_output@@@__crt_stdio_output@@IEAA_NAEA_J@Z 00000001800583a0 f i libucrtd:output.obj
 0001:00057520       ??$extract_argument_from_va_list@C_J@?$positional_parameter_base@_WV?$string_output_adapter@_W@__crt_stdio_output@@@__crt_stdio_output@@IEAA_NAEA_J@Z 0000000180058520 f i libucrtd:output.obj
 0001:000576a0       ??$extract_argument_from_va_list@C_J@?$standard_base@DV?$stream_output_adapter@D@__crt_stdio_output@@@__crt_stdio_output@@IEAA_NAEA_J@Z 00000001800586a0 f i libucrtd:output.obj
 0001:000576e0       ??$extract_argument_from_va_list@C_J@?$standard_base@DV?$string_output_adapter@D@__crt_stdio_output@@@__crt_stdio_output@@IEAA_NAEA_J@Z 00000001800586e0 f i libucrtd:output.obj
 0001:00057720       ??$extract_argument_from_va_list@C_J@?$standard_base@_WV?$stream_output_adapter@_W@__crt_stdio_output@@@__crt_stdio_output@@IEAA_NAEA_J@Z 0000000180058720 f i libucrtd:output.obj
 0001:00057760       ??$extract_argument_from_va_list@C_J@?$standard_base@_WV?$string_output_adapter@_W@__crt_stdio_output@@@__crt_stdio_output@@IEAA_NAEA_J@Z 0000000180058760 f i libucrtd:output.obj
 0001:000577a0       ??$extract_argument_from_va_list@E_J@?$positional_parameter_base@DV?$stream_output_adapter@D@__crt_stdio_output@@@__crt_stdio_output@@IEAA_NAEA_J@Z 00000001800587a0 f i libucrtd:output.obj
 0001:00057920       ??$extract_argument_from_va_list@E_J@?$positional_parameter_base@DV?$string_output_adapter@D@__crt_stdio_output@@@__crt_stdio_output@@IEAA_NAEA_J@Z 0000000180058920 f i libucrtd:output.obj
 0001:00057aa0       ??$extract_argument_from_va_list@E_J@?$positional_parameter_base@_WV?$stream_output_adapter@_W@__crt_stdio_output@@@__crt_stdio_output@@IEAA_NAEA_J@Z 0000000180058aa0 f i libucrtd:output.obj
 0001:00057c20       ??$extract_argument_from_va_list@E_J@?$positional_parameter_base@_WV?$string_output_adapter@_W@__crt_stdio_output@@@__crt_stdio_output@@IEAA_NAEA_J@Z 0000000180058c20 f i libucrtd:output.obj
 0001:00057da0       ??$extract_argument_from_va_list@E_J@?$standard_base@DV?$stream_output_adapter@D@__crt_stdio_output@@@__crt_stdio_output@@IEAA_NAEA_J@Z 0000000180058da0 f i libucrtd:output.obj
 0001:00057de0       ??$extract_argument_from_va_list@E_J@?$standard_base@DV?$string_output_adapter@D@__crt_stdio_output@@@__crt_stdio_output@@IEAA_NAEA_J@Z 0000000180058de0 f i libucrtd:output.obj
 0001:00057e20       ??$extract_argument_from_va_list@E_J@?$standard_base@_WV?$stream_output_adapter@_W@__crt_stdio_output@@@__crt_stdio_output@@IEAA_NAEA_J@Z 0000000180058e20 f i libucrtd:output.obj
 0001:00057e60       ??$extract_argument_from_va_list@E_J@?$standard_base@_WV?$string_output_adapter@_W@__crt_stdio_output@@@__crt_stdio_output@@IEAA_NAEA_J@Z 0000000180058e60 f i libucrtd:output.obj
 0001:00057ea0       ??$extract_argument_from_va_list@F_J@?$positional_parameter_base@DV?$stream_output_adapter@D@__crt_stdio_output@@@__crt_stdio_output@@IEAA_NAEA_J@Z 0000000180058ea0 f i libucrtd:output.obj
 0001:00058020       ??$extract_argument_from_va_list@F_J@?$positional_parameter_base@DV?$string_output_adapter@D@__crt_stdio_output@@@__crt_stdio_output@@IEAA_NAEA_J@Z 0000000180059020 f i libucrtd:output.obj
 0001:000581a0       ??$extract_argument_from_va_list@F_J@?$positional_parameter_base@_WV?$stream_output_adapter@_W@__crt_stdio_output@@@__crt_stdio_output@@IEAA_NAEA_J@Z 00000001800591a0 f i libucrtd:output.obj
 0001:00058320       ??$extract_argument_from_va_list@F_J@?$positional_parameter_base@_WV?$string_output_adapter@_W@__crt_stdio_output@@@__crt_stdio_output@@IEAA_NAEA_J@Z 0000000180059320 f i libucrtd:output.obj
 0001:000584a0       ??$extract_argument_from_va_list@F_J@?$standard_base@DV?$stream_output_adapter@D@__crt_stdio_output@@@__crt_stdio_output@@IEAA_NAEA_J@Z 00000001800594a0 f i libucrtd:output.obj
 0001:000584e0       ??$extract_argument_from_va_list@F_J@?$standard_base@DV?$string_output_adapter@D@__crt_stdio_output@@@__crt_stdio_output@@IEAA_NAEA_J@Z 00000001800594e0 f i libucrtd:output.obj
 0001:00058520       ??$extract_argument_from_va_list@F_J@?$standard_base@_WV?$stream_output_adapter@_W@__crt_stdio_output@@@__crt_stdio_output@@IEAA_NAEA_J@Z 0000000180059520 f i libucrtd:output.obj
 0001:00058560       ??$extract_argument_from_va_list@F_J@?$standard_base@_WV?$string_output_adapter@_W@__crt_stdio_output@@@__crt_stdio_output@@IEAA_NAEA_J@Z 0000000180059560 f i libucrtd:output.obj
 0001:000585a0       ??$extract_argument_from_va_list@GD@?$positional_parameter_base@DV?$stream_output_adapter@D@__crt_stdio_output@@@__crt_stdio_output@@IEAA_NAEAD@Z 00000001800595a0 f i libucrtd:output.obj
 0001:00058720       ??$extract_argument_from_va_list@GD@?$positional_parameter_base@DV?$string_output_adapter@D@__crt_stdio_output@@@__crt_stdio_output@@IEAA_NAEAD@Z 0000000180059720 f i libucrtd:output.obj
 0001:000588a0       ??$extract_argument_from_va_list@GD@?$standard_base@DV?$stream_output_adapter@D@__crt_stdio_output@@@__crt_stdio_output@@IEAA_NAEAD@Z 00000001800598a0 f i libucrtd:output.obj
 0001:000588d0       ??$extract_argument_from_va_list@GD@?$standard_base@DV?$string_output_adapter@D@__crt_stdio_output@@@__crt_stdio_output@@IEAA_NAEAD@Z 00000001800598d0 f i libucrtd:output.obj
 0001:00058900       ??$extract_argument_from_va_list@G_J@?$positional_parameter_base@DV?$stream_output_adapter@D@__crt_stdio_output@@@__crt_stdio_output@@IEAA_NAEA_J@Z 0000000180059900 f i libucrtd:output.obj
 0001:00058a80       ??$extract_argument_from_va_list@G_J@?$positional_parameter_base@DV?$string_output_adapter@D@__crt_stdio_output@@@__crt_stdio_output@@IEAA_NAEA_J@Z 0000000180059a80 f i libucrtd:output.obj
 0001:00058c00       ??$extract_argument_from_va_list@G_J@?$positional_parameter_base@_WV?$stream_output_adapter@_W@__crt_stdio_output@@@__crt_stdio_output@@IEAA_NAEA_J@Z 0000000180059c00 f i libucrtd:output.obj
 0001:00058d80       ??$extract_argument_from_va_list@G_J@?$positional_parameter_base@_WV?$string_output_adapter@_W@__crt_stdio_output@@@__crt_stdio_output@@IEAA_NAEA_J@Z 0000000180059d80 f i libucrtd:output.obj
 0001:00058f00       ??$extract_argument_from_va_list@G_J@?$standard_base@DV?$stream_output_adapter@D@__crt_stdio_output@@@__crt_stdio_output@@IEAA_NAEA_J@Z 0000000180059f00 f i libucrtd:output.obj
 0001:00058f40       ??$extract_argument_from_va_list@G_J@?$standard_base@DV?$string_output_adapter@D@__crt_stdio_output@@@__crt_stdio_output@@IEAA_NAEA_J@Z 0000000180059f40 f i libucrtd:output.obj
 0001:00058f80       ??$extract_argument_from_va_list@G_J@?$standard_base@_WV?$stream_output_adapter@_W@__crt_stdio_output@@@__crt_stdio_output@@IEAA_NAEA_J@Z 0000000180059f80 f i libucrtd:output.obj
 0001:00058fc0       ??$extract_argument_from_va_list@G_J@?$standard_base@_WV?$string_output_adapter@_W@__crt_stdio_output@@@__crt_stdio_output@@IEAA_NAEA_J@Z 0000000180059fc0 f i libucrtd:output.obj
 0001:00059000       ??$extract_argument_from_va_list@H_J@?$positional_parameter_base@DV?$stream_output_adapter@D@__crt_stdio_output@@@__crt_stdio_output@@IEAA_NAEA_J@Z 000000018005a000 f i libucrtd:output.obj
 0001:00059180       ??$extract_argument_from_va_list@H_J@?$positional_parameter_base@DV?$string_output_adapter@D@__crt_stdio_output@@@__crt_stdio_output@@IEAA_NAEA_J@Z 000000018005a180 f i libucrtd:output.obj
 0001:00059300       ??$extract_argument_from_va_list@H_J@?$positional_parameter_base@_WV?$stream_output_adapter@_W@__crt_stdio_output@@@__crt_stdio_output@@IEAA_NAEA_J@Z 000000018005a300 f i libucrtd:output.obj
 0001:00059480       ??$extract_argument_from_va_list@H_J@?$positional_parameter_base@_WV?$string_output_adapter@_W@__crt_stdio_output@@@__crt_stdio_output@@IEAA_NAEA_J@Z 000000018005a480 f i libucrtd:output.obj
 0001:00059600       ??$extract_argument_from_va_list@H_J@?$standard_base@DV?$stream_output_adapter@D@__crt_stdio_output@@@__crt_stdio_output@@IEAA_NAEA_J@Z 000000018005a600 f i libucrtd:output.obj
 0001:00059630       ??$extract_argument_from_va_list@H_J@?$standard_base@DV?$string_output_adapter@D@__crt_stdio_output@@@__crt_stdio_output@@IEAA_NAEA_J@Z 000000018005a630 f i libucrtd:output.obj
 0001:00059660       ??$extract_argument_from_va_list@H_J@?$standard_base@_WV?$stream_output_adapter@_W@__crt_stdio_output@@@__crt_stdio_output@@IEAA_NAEA_J@Z 000000018005a660 f i libucrtd:output.obj
 0001:00059690       ??$extract_argument_from_va_list@H_J@?$standard_base@_WV?$string_output_adapter@_W@__crt_stdio_output@@@__crt_stdio_output@@IEAA_NAEA_J@Z 000000018005a690 f i libucrtd:output.obj
 0001:000596c0       ??$extract_argument_from_va_list@I_J@?$positional_parameter_base@DV?$stream_output_adapter@D@__crt_stdio_output@@@__crt_stdio_output@@IEAA_NAEA_J@Z 000000018005a6c0 f i libucrtd:output.obj
 0001:00059840       ??$extract_argument_from_va_list@I_J@?$positional_parameter_base@DV?$string_output_adapter@D@__crt_stdio_output@@@__crt_stdio_output@@IEAA_NAEA_J@Z 000000018005a840 f i libucrtd:output.obj
 0001:000599c0       ??$extract_argument_from_va_list@I_J@?$positional_parameter_base@_WV?$stream_output_adapter@_W@__crt_stdio_output@@@__crt_stdio_output@@IEAA_NAEA_J@Z 000000018005a9c0 f i libucrtd:output.obj
 0001:00059b40       ??$extract_argument_from_va_list@I_J@?$positional_parameter_base@_WV?$string_output_adapter@_W@__crt_stdio_output@@@__crt_stdio_output@@IEAA_NAEA_J@Z 000000018005ab40 f i libucrtd:output.obj
 0001:00059cc0       ??$extract_argument_from_va_list@I_J@?$standard_base@DV?$stream_output_adapter@D@__crt_stdio_output@@@__crt_stdio_output@@IEAA_NAEA_J@Z 000000018005acc0 f i libucrtd:output.obj
 0001:00059cf0       ??$extract_argument_from_va_list@I_J@?$standard_base@DV?$string_output_adapter@D@__crt_stdio_output@@@__crt_stdio_output@@IEAA_NAEA_J@Z 000000018005acf0 f i libucrtd:output.obj
 0001:00059d20       ??$extract_argument_from_va_list@I_J@?$standard_base@_WV?$stream_output_adapter@_W@__crt_stdio_output@@@__crt_stdio_output@@IEAA_NAEA_J@Z 000000018005ad20 f i libucrtd:output.obj
 0001:00059d50       ??$extract_argument_from_va_list@I_J@?$standard_base@_WV?$string_output_adapter@_W@__crt_stdio_output@@@__crt_stdio_output@@IEAA_NAEA_J@Z 000000018005ad50 f i libucrtd:output.obj
 0001:00059d80       ??$extract_argument_from_va_list@PEADPEAD@?$positional_parameter_base@DV?$stream_output_adapter@D@__crt_stdio_output@@@__crt_stdio_output@@IEAA_NAEAPEAD@Z 000000018005ad80 f i libucrtd:output.obj
 0001:00059f00       ??$extract_argument_from_va_list@PEADPEAD@?$positional_parameter_base@DV?$string_output_adapter@D@__crt_stdio_output@@@__crt_stdio_output@@IEAA_NAEAPEAD@Z 000000018005af00 f i libucrtd:output.obj
 0001:0005a080       ??$extract_argument_from_va_list@PEADPEAD@?$positional_parameter_base@_WV?$stream_output_adapter@_W@__crt_stdio_output@@@__crt_stdio_output@@IEAA_NAEAPEAD@Z 000000018005b080 f i libucrtd:output.obj
 0001:0005a200       ??$extract_argument_from_va_list@PEADPEAD@?$positional_parameter_base@_WV?$string_output_adapter@_W@__crt_stdio_output@@@__crt_stdio_output@@IEAA_NAEAPEAD@Z 000000018005b200 f i libucrtd:output.obj
 0001:0005a380       ??$extract_argument_from_va_list@PEADPEAD@?$standard_base@DV?$stream_output_adapter@D@__crt_stdio_output@@@__crt_stdio_output@@IEAA_NAEAPEAD@Z 000000018005b380 f i libucrtd:output.obj
 0001:0005a3b0       ??$extract_argument_from_va_list@PEADPEAD@?$standard_base@DV?$string_output_adapter@D@__crt_stdio_output@@@__crt_stdio_output@@IEAA_NAEAPEAD@Z 000000018005b3b0 f i libucrtd:output.obj
 0001:0005a3e0       ??$extract_argument_from_va_list@PEADPEAD@?$standard_base@_WV?$stream_output_adapter@_W@__crt_stdio_output@@@__crt_stdio_output@@IEAA_NAEAPEAD@Z 000000018005b3e0 f i libucrtd:output.obj
 0001:0005a410       ??$extract_argument_from_va_list@PEADPEAD@?$standard_base@_WV?$string_output_adapter@_W@__crt_stdio_output@@@__crt_stdio_output@@IEAA_NAEAPEAD@Z 000000018005b410 f i libucrtd:output.obj
 0001:0005a440       ??$extract_argument_from_va_list@PEAUansi_string@?1??type_case_Z@?$output_processor@DV?$stream_output_adapter@D@__crt_stdio_output@@V?$format_validation_base@DV?$stream_output_adapter@D@__crt_stdio_output@@@2@@__crt_stdio_output@@AEAA_NXZ@PEAU1?1??234@AEAA_NXZ@@?$standard_base@DV?$stream_output_adapter@D@__crt_stdio_output@@@__crt_stdio_output@@IEAA_NAEAPEAUansi_string@?1??type_case_Z@?$output_processor@DV?$stream_output_adapter@D@__crt_stdio_output@@V?$format_validation_base@DV?$stream_output_adapter@D@__crt_stdio_output@@@2@@1@AEAA_NXZ@@Z 000000018005b440 f i libucrtd:output.obj
 0001:0005a470       ??$extract_argument_from_va_list@PEAUansi_string@?1??type_case_Z@?$output_processor@DV?$stream_output_adapter@D@__crt_stdio_output@@V?$positional_parameter_base@DV?$stream_output_adapter@D@__crt_stdio_output@@@2@@__crt_stdio_output@@AEAA_NXZ@PEAU1?1??234@AEAA_NXZ@@?$positional_parameter_base@DV?$stream_output_adapter@D@__crt_stdio_output@@@__crt_stdio_output@@IEAA_NAEAPEAUansi_string@?1??type_case_Z@?$output_processor@DV?$stream_output_adapter@D@__crt_stdio_output@@V?$positional_parameter_base@DV?$stream_output_adapter@D@__crt_stdio_output@@@2@@1@AEAA_NXZ@@Z 000000018005b470 f i libucrtd:output.obj
 0001:0005a5f0       ??$extract_argument_from_va_list@PEAUansi_string@?1??type_case_Z@?$output_processor@DV?$stream_output_adapter@D@__crt_stdio_output@@V?$positional_parameter_base@DV?$stream_output_adapter@D@__crt_stdio_output@@@2@@__crt_stdio_output@@AEAA_NXZ@PEAU1?1??234@AEAA_NXZ@@?$standard_base@DV?$stream_output_adapter@D@__crt_stdio_output@@@__crt_stdio_output@@IEAA_NAEAPEAUansi_string@?1??type_case_Z@?$output_processor@DV?$stream_output_adapter@D@__crt_stdio_output@@V?$positional_parameter_base@DV?$stream_output_adapter@D@__crt_stdio_output@@@2@@1@AEAA_NXZ@@Z 000000018005b5f0 f i libucrtd:output.obj
 0001:0005a620       ??$extract_argument_from_va_list@PEAUansi_string@?1??type_case_Z@?$output_processor@DV?$stream_output_adapter@D@__crt_stdio_output@@V?$standard_base@DV?$stream_output_adapter@D@__crt_stdio_output@@@2@@__crt_stdio_output@@AEAA_NXZ@PEAU1?1??234@AEAA_NXZ@@?$standard_base@DV?$stream_output_adapter@D@__crt_stdio_output@@@__crt_stdio_output@@IEAA_NAEAPEAUansi_string@?1??type_case_Z@?$output_processor@DV?$stream_output_adapter@D@__crt_stdio_output@@V?$standard_base@DV?$stream_output_adapter@D@__crt_stdio_output@@@2@@1@AEAA_NXZ@@Z 000000018005b620 f i libucrtd:output.obj
 0001:0005a650       ??$extract_argument_from_va_list@PEAUansi_string@?1??type_case_Z@?$output_processor@DV?$string_output_adapter@D@__crt_stdio_output@@V?$format_validation_base@DV?$string_output_adapter@D@__crt_stdio_output@@@2@@__crt_stdio_output@@AEAA_NXZ@PEAU1?1??234@AEAA_NXZ@@?$standard_base@DV?$string_output_adapter@D@__crt_stdio_output@@@__crt_stdio_output@@IEAA_NAEAPEAUansi_string@?1??type_case_Z@?$output_processor@DV?$string_output_adapter@D@__crt_stdio_output@@V?$format_validation_base@DV?$string_output_adapter@D@__crt_stdio_output@@@2@@1@AEAA_NXZ@@Z 000000018005b650 f i libucrtd:output.obj
 0001:0005a680       ??$extract_argument_from_va_list@PEAUansi_string@?1??type_case_Z@?$output_processor@DV?$string_output_adapter@D@__crt_stdio_output@@V?$positional_parameter_base@DV?$string_output_adapter@D@__crt_stdio_output@@@2@@__crt_stdio_output@@AEAA_NXZ@PEAU1?1??234@AEAA_NXZ@@?$positional_parameter_base@DV?$string_output_adapter@D@__crt_stdio_output@@@__crt_stdio_output@@IEAA_NAEAPEAUansi_string@?1??type_case_Z@?$output_processor@DV?$string_output_adapter@D@__crt_stdio_output@@V?$positional_parameter_base@DV?$string_output_adapter@D@__crt_stdio_output@@@2@@1@AEAA_NXZ@@Z 000000018005b680 f i libucrtd:output.obj
 0001:0005a800       ??$extract_argument_from_va_list@PEAUansi_string@?1??type_case_Z@?$output_processor@DV?$string_output_adapter@D@__crt_stdio_output@@V?$positional_parameter_base@DV?$string_output_adapter@D@__crt_stdio_output@@@2@@__crt_stdio_output@@AEAA_NXZ@PEAU1?1??234@AEAA_NXZ@@?$standard_base@DV?$string_output_adapter@D@__crt_stdio_output@@@__crt_stdio_output@@IEAA_NAEAPEAUansi_string@?1??type_case_Z@?$output_processor@DV?$string_output_adapter@D@__crt_stdio_output@@V?$positional_parameter_base@DV?$string_output_adapter@D@__crt_stdio_output@@@2@@1@AEAA_NXZ@@Z 000000018005b800 f i libucrtd:output.obj
 0001:0005a830       ??$extract_argument_from_va_list@PEAUansi_string@?1??type_case_Z@?$output_processor@DV?$string_output_adapter@D@__crt_stdio_output@@V?$standard_base@DV?$string_output_adapter@D@__crt_stdio_output@@@2@@__crt_stdio_output@@AEAA_NXZ@PEAU1?1??234@AEAA_NXZ@@?$standard_base@DV?$string_output_adapter@D@__crt_stdio_output@@@__crt_stdio_output@@IEAA_NAEAPEAUansi_string@?1??type_case_Z@?$output_processor@DV?$string_output_adapter@D@__crt_stdio_output@@V?$standard_base@DV?$string_output_adapter@D@__crt_stdio_output@@@2@@1@AEAA_NXZ@@Z 000000018005b830 f i libucrtd:output.obj
 0001:0005a860       ??$extract_argument_from_va_list@PEAUansi_string@?1??type_case_Z@?$output_processor@_WV?$stream_output_adapter@_W@__crt_stdio_output@@V?$format_validation_base@_WV?$stream_output_adapter@_W@__crt_stdio_output@@@2@@__crt_stdio_output@@AEAA_NXZ@PEAU1?1??234@AEAA_NXZ@@?$standard_base@_WV?$stream_output_adapter@_W@__crt_stdio_output@@@__crt_stdio_output@@IEAA_NAEAPEAUansi_string@?1??type_case_Z@?$output_processor@_WV?$stream_output_adapter@_W@__crt_stdio_output@@V?$format_validation_base@_WV?$stream_output_adapter@_W@__crt_stdio_output@@@2@@1@AEAA_NXZ@@Z 000000018005b860 f i libucrtd:output.obj
 0001:0005a890       ??$extract_argument_from_va_list@PEAUansi_string@?1??type_case_Z@?$output_processor@_WV?$stream_output_adapter@_W@__crt_stdio_output@@V?$positional_parameter_base@_WV?$stream_output_adapter@_W@__crt_stdio_output@@@2@@__crt_stdio_output@@AEAA_NXZ@PEAU1?1??234@AEAA_NXZ@@?$positional_parameter_base@_WV?$stream_output_adapter@_W@__crt_stdio_output@@@__crt_stdio_output@@IEAA_NAEAPEAUansi_string@?1??type_case_Z@?$output_processor@_WV?$stream_output_adapter@_W@__crt_stdio_output@@V?$positional_parameter_base@_WV?$stream_output_adapter@_W@__crt_stdio_output@@@2@@1@AEAA_NXZ@@Z 000000018005b890 f i libucrtd:output.obj
 0001:0005aa10       ??$extract_argument_from_va_list@PEAUansi_string@?1??type_case_Z@?$output_processor@_WV?$stream_output_adapter@_W@__crt_stdio_output@@V?$positional_parameter_base@_WV?$stream_output_adapter@_W@__crt_stdio_output@@@2@@__crt_stdio_output@@AEAA_NXZ@PEAU1?1??234@AEAA_NXZ@@?$standard_base@_WV?$stream_output_adapter@_W@__crt_stdio_output@@@__crt_stdio_output@@IEAA_NAEAPEAUansi_string@?1??type_case_Z@?$output_processor@_WV?$stream_output_adapter@_W@__crt_stdio_output@@V?$positional_parameter_base@_WV?$stream_output_adapter@_W@__crt_stdio_output@@@2@@1@AEAA_NXZ@@Z 000000018005ba10 f i libucrtd:output.obj
 0001:0005aa40       ??$extract_argument_from_va_list@PEAUansi_string@?1??type_case_Z@?$output_processor@_WV?$stream_output_adapter@_W@__crt_stdio_output@@V?$standard_base@_WV?$stream_output_adapter@_W@__crt_stdio_output@@@2@@__crt_stdio_output@@AEAA_NXZ@PEAU1?1??234@AEAA_NXZ@@?$standard_base@_WV?$stream_output_adapter@_W@__crt_stdio_output@@@__crt_stdio_output@@IEAA_NAEAPEAUansi_string@?1??type_case_Z@?$output_processor@_WV?$stream_output_adapter@_W@__crt_stdio_output@@V?$standard_base@_WV?$stream_output_adapter@_W@__crt_stdio_output@@@2@@1@AEAA_NXZ@@Z 000000018005ba40 f i libucrtd:output.obj
 0001:0005aa70       ??$extract_argument_from_va_list@PEAUansi_string@?1??type_case_Z@?$output_processor@_WV?$string_output_adapter@_W@__crt_stdio_output@@V?$format_validation_base@_WV?$string_output_adapter@_W@__crt_stdio_output@@@2@@__crt_stdio_output@@AEAA_NXZ@PEAU1?1??234@AEAA_NXZ@@?$standard_base@_WV?$string_output_adapter@_W@__crt_stdio_output@@@__crt_stdio_output@@IEAA_NAEAPEAUansi_string@?1??type_case_Z@?$output_processor@_WV?$string_output_adapter@_W@__crt_stdio_output@@V?$format_validation_base@_WV?$string_output_adapter@_W@__crt_stdio_output@@@2@@1@AEAA_NXZ@@Z 000000018005ba70 f i libucrtd:output.obj
 0001:0005aaa0       ??$extract_argument_from_va_list@PEAUansi_string@?1??type_case_Z@?$output_processor@_WV?$string_output_adapter@_W@__crt_stdio_output@@V?$positional_parameter_base@_WV?$string_output_adapter@_W@__crt_stdio_output@@@2@@__crt_stdio_output@@AEAA_NXZ@PEAU1?1??234@AEAA_NXZ@@?$positional_parameter_base@_WV?$string_output_adapter@_W@__crt_stdio_output@@@__crt_stdio_output@@IEAA_NAEAPEAUansi_string@?1??type_case_Z@?$output_processor@_WV?$string_output_adapter@_W@__crt_stdio_output@@V?$positional_parameter_base@_WV?$string_output_adapter@_W@__crt_stdio_output@@@2@@1@AEAA_NXZ@@Z 000000018005baa0 f i libucrtd:output.obj
 0001:0005ac20       ??$extract_argument_from_va_list@PEAUansi_string@?1??type_case_Z@?$output_processor@_WV?$string_output_adapter@_W@__crt_stdio_output@@V?$positional_parameter_base@_WV?$string_output_adapter@_W@__crt_stdio_output@@@2@@__crt_stdio_output@@AEAA_NXZ@PEAU1?1??234@AEAA_NXZ@@?$standard_base@_WV?$string_output_adapter@_W@__crt_stdio_output@@@__crt_stdio_output@@IEAA_NAEAPEAUansi_string@?1??type_case_Z@?$output_processor@_WV?$string_output_adapter@_W@__crt_stdio_output@@V?$positional_parameter_base@_WV?$string_output_adapter@_W@__crt_stdio_output@@@2@@1@AEAA_NXZ@@Z 000000018005bc20 f i libucrtd:output.obj
 0001:0005ac50       ??$extract_argument_from_va_list@PEAUansi_string@?1??type_case_Z@?$output_processor@_WV?$string_output_adapter@_W@__crt_stdio_output@@V?$standard_base@_WV?$string_output_adapter@_W@__crt_stdio_output@@@2@@__crt_stdio_output@@AEAA_NXZ@PEAU1?1??234@AEAA_NXZ@@?$standard_base@_WV?$string_output_adapter@_W@__crt_stdio_output@@@__crt_stdio_output@@IEAA_NAEAPEAUansi_string@?1??type_case_Z@?$output_processor@_WV?$string_output_adapter@_W@__crt_stdio_output@@V?$standard_base@_WV?$string_output_adapter@_W@__crt_stdio_output@@@2@@1@AEAA_NXZ@@Z 000000018005bc50 f i libucrtd:output.obj
 0001:0005ac80       ??$extract_argument_from_va_list@PEAXPEAX@?$positional_parameter_base@DV?$stream_output_adapter@D@__crt_stdio_output@@@__crt_stdio_output@@IEAA_NAEAPEAX@Z 000000018005bc80 f i libucrtd:output.obj
 0001:0005ae00       ??$extract_argument_from_va_list@PEAXPEAX@?$positional_parameter_base@DV?$string_output_adapter@D@__crt_stdio_output@@@__crt_stdio_output@@IEAA_NAEAPEAX@Z 000000018005be00 f i libucrtd:output.obj
 0001:0005af80       ??$extract_argument_from_va_list@PEAXPEAX@?$positional_parameter_base@_WV?$stream_output_adapter@_W@__crt_stdio_output@@@__crt_stdio_output@@IEAA_NAEAPEAX@Z 000000018005bf80 f i libucrtd:output.obj
 0001:0005b100       ??$extract_argument_from_va_list@PEAXPEAX@?$positional_parameter_base@_WV?$string_output_adapter@_W@__crt_stdio_output@@@__crt_stdio_output@@IEAA_NAEAPEAX@Z 000000018005c100 f i libucrtd:output.obj
 0001:0005b280       ??$extract_argument_from_va_list@PEAXPEAX@?$standard_base@DV?$stream_output_adapter@D@__crt_stdio_output@@@__crt_stdio_output@@IEAA_NAEAPEAX@Z 000000018005c280 f i libucrtd:output.obj
 0001:0005b2b0       ??$extract_argument_from_va_list@PEAXPEAX@?$standard_base@DV?$string_output_adapter@D@__crt_stdio_output@@@__crt_stdio_output@@IEAA_NAEAPEAX@Z 000000018005c2b0 f i libucrtd:output.obj
 0001:0005b2e0       ??$extract_argument_from_va_list@PEAXPEAX@?$standard_base@_WV?$stream_output_adapter@_W@__crt_stdio_output@@@__crt_stdio_output@@IEAA_NAEAPEAX@Z 000000018005c2e0 f i libucrtd:output.obj
 0001:0005b310       ??$extract_argument_from_va_list@PEAXPEAX@?$standard_base@_WV?$string_output_adapter@_W@__crt_stdio_output@@@__crt_stdio_output@@IEAA_NAEAPEAX@Z 000000018005c310 f i libucrtd:output.obj
 0001:0005b340       ??$extract_argument_from_va_list@U_CRT_DOUBLE@@U1@@?$positional_parameter_base@DV?$stream_output_adapter@D@__crt_stdio_output@@@__crt_stdio_output@@IEAA_NAEAU_CRT_DOUBLE@@@Z 000000018005c340 f i libucrtd:output.obj
 0001:0005b4e0       ??$extract_argument_from_va_list@U_CRT_DOUBLE@@U1@@?$positional_parameter_base@DV?$string_output_adapter@D@__crt_stdio_output@@@__crt_stdio_output@@IEAA_NAEAU_CRT_DOUBLE@@@Z 000000018005c4e0 f i libucrtd:output.obj
 0001:0005b680       ??$extract_argument_from_va_list@U_CRT_DOUBLE@@U1@@?$positional_parameter_base@_WV?$stream_output_adapter@_W@__crt_stdio_output@@@__crt_stdio_output@@IEAA_NAEAU_CRT_DOUBLE@@@Z 000000018005c680 f i libucrtd:output.obj
 0001:0005b820       ??$extract_argument_from_va_list@U_CRT_DOUBLE@@U1@@?$positional_parameter_base@_WV?$string_output_adapter@_W@__crt_stdio_output@@@__crt_stdio_output@@IEAA_NAEAU_CRT_DOUBLE@@@Z 000000018005c820 f i libucrtd:output.obj
 0001:0005b9c0       ??$extract_argument_from_va_list@U_CRT_DOUBLE@@U1@@?$standard_base@DV?$stream_output_adapter@D@__crt_stdio_output@@@__crt_stdio_output@@IEAA_NAEAU_CRT_DOUBLE@@@Z 000000018005c9c0 f i libucrtd:output.obj
 0001:0005ba10       ??$extract_argument_from_va_list@U_CRT_DOUBLE@@U1@@?$standard_base@DV?$string_output_adapter@D@__crt_stdio_output@@@__crt_stdio_output@@IEAA_NAEAU_CRT_DOUBLE@@@Z 000000018005ca10 f i libucrtd:output.obj
 0001:0005ba60       ??$extract_argument_from_va_list@U_CRT_DOUBLE@@U1@@?$standard_base@_WV?$stream_output_adapter@_W@__crt_stdio_output@@@__crt_stdio_output@@IEAA_NAEAU_CRT_DOUBLE@@@Z 000000018005ca60 f i libucrtd:output.obj
 0001:0005bab0       ??$extract_argument_from_va_list@U_CRT_DOUBLE@@U1@@?$standard_base@_WV?$string_output_adapter@_W@__crt_stdio_output@@@__crt_stdio_output@@IEAA_NAEAU_CRT_DOUBLE@@@Z 000000018005cab0 f i libucrtd:output.obj
 0001:0005bb00       ??$extract_argument_from_va_list@_J_J@?$positional_parameter_base@DV?$stream_output_adapter@D@__crt_stdio_output@@@__crt_stdio_output@@IEAA_NAEA_J@Z 000000018005cb00 f i libucrtd:output.obj
 0001:0005bc80       ??$extract_argument_from_va_list@_J_J@?$positional_parameter_base@DV?$string_output_adapter@D@__crt_stdio_output@@@__crt_stdio_output@@IEAA_NAEA_J@Z 000000018005cc80 f i libucrtd:output.obj
 0001:0005be00       ??$extract_argument_from_va_list@_J_J@?$positional_parameter_base@_WV?$stream_output_adapter@_W@__crt_stdio_output@@@__crt_stdio_output@@IEAA_NAEA_J@Z 000000018005ce00 f i libucrtd:output.obj
 0001:0005bf80       ??$extract_argument_from_va_list@_J_J@?$positional_parameter_base@_WV?$string_output_adapter@_W@__crt_stdio_output@@@__crt_stdio_output@@IEAA_NAEA_J@Z 000000018005cf80 f i libucrtd:output.obj
 0001:0005c100       ??$extract_argument_from_va_list@_J_J@?$standard_base@DV?$stream_output_adapter@D@__crt_stdio_output@@@__crt_stdio_output@@IEAA_NAEA_J@Z 000000018005d100 f i libucrtd:output.obj
 0001:0005c130       ??$extract_argument_from_va_list@_J_J@?$standard_base@DV?$string_output_adapter@D@__crt_stdio_output@@@__crt_stdio_output@@IEAA_NAEA_J@Z 000000018005d130 f i libucrtd:output.obj
 0001:0005c160       ??$extract_argument_from_va_list@_J_J@?$standard_base@_WV?$stream_output_adapter@_W@__crt_stdio_output@@@__crt_stdio_output@@IEAA_NAEA_J@Z 000000018005d160 f i libucrtd:output.obj
 0001:0005c190       ??$extract_argument_from_va_list@_J_J@?$standard_base@_WV?$string_output_adapter@_W@__crt_stdio_output@@@__crt_stdio_output@@IEAA_NAEA_J@Z 000000018005d190 f i libucrtd:output.obj
 0001:0005c1c0       ??$extract_argument_from_va_list@_K_J@?$positional_parameter_base@DV?$stream_output_adapter@D@__crt_stdio_output@@@__crt_stdio_output@@IEAA_NAEA_J@Z 000000018005d1c0 f i libucrtd:output.obj
 0001:0005c340       ??$extract_argument_from_va_list@_K_J@?$positional_parameter_base@DV?$string_output_adapter@D@__crt_stdio_output@@@__crt_stdio_output@@IEAA_NAEA_J@Z 000000018005d340 f i libucrtd:output.obj
 0001:0005c4c0       ??$extract_argument_from_va_list@_K_J@?$positional_parameter_base@_WV?$stream_output_adapter@_W@__crt_stdio_output@@@__crt_stdio_output@@IEAA_NAEA_J@Z 000000018005d4c0 f i libucrtd:output.obj
 0001:0005c640       ??$extract_argument_from_va_list@_K_J@?$positional_parameter_base@_WV?$string_output_adapter@_W@__crt_stdio_output@@@__crt_stdio_output@@IEAA_NAEA_J@Z 000000018005d640 f i libucrtd:output.obj
 0001:0005c7c0       ??$extract_argument_from_va_list@_K_J@?$standard_base@DV?$stream_output_adapter@D@__crt_stdio_output@@@__crt_stdio_output@@IEAA_NAEA_J@Z 000000018005d7c0 f i libucrtd:output.obj
 0001:0005c7f0       ??$extract_argument_from_va_list@_K_J@?$standard_base@DV?$string_output_adapter@D@__crt_stdio_output@@@__crt_stdio_output@@IEAA_NAEA_J@Z 000000018005d7f0 f i libucrtd:output.obj
 0001:0005c820       ??$extract_argument_from_va_list@_K_J@?$standard_base@_WV?$stream_output_adapter@_W@__crt_stdio_output@@@__crt_stdio_output@@IEAA_NAEA_J@Z 000000018005d820 f i libucrtd:output.obj
 0001:0005c850       ??$extract_argument_from_va_list@_K_J@?$standard_base@_WV?$string_output_adapter@_W@__crt_stdio_output@@@__crt_stdio_output@@IEAA_NAEA_J@Z 000000018005d850 f i libucrtd:output.obj
 0001:0005c880       ??$extract_argument_from_va_list@_W_W@?$positional_parameter_base@DV?$stream_output_adapter@D@__crt_stdio_output@@@__crt_stdio_output@@IEAA_NAEA_W@Z 000000018005d880 f i libucrtd:output.obj
 0001:0005ca00       ??$extract_argument_from_va_list@_W_W@?$positional_parameter_base@DV?$string_output_adapter@D@__crt_stdio_output@@@__crt_stdio_output@@IEAA_NAEA_W@Z 000000018005da00 f i libucrtd:output.obj
 0001:0005cb80       ??$extract_argument_from_va_list@_W_W@?$positional_parameter_base@_WV?$stream_output_adapter@_W@__crt_stdio_output@@@__crt_stdio_output@@IEAA_NAEA_W@Z 000000018005db80 f i libucrtd:output.obj
 0001:0005cd00       ??$extract_argument_from_va_list@_W_W@?$positional_parameter_base@_WV?$string_output_adapter@_W@__crt_stdio_output@@@__crt_stdio_output@@IEAA_NAEA_W@Z 000000018005dd00 f i libucrtd:output.obj
 0001:0005ce80       ??$extract_argument_from_va_list@_W_W@?$standard_base@DV?$stream_output_adapter@D@__crt_stdio_output@@@__crt_stdio_output@@IEAA_NAEA_W@Z 000000018005de80 f i libucrtd:output.obj
 0001:0005ceb0       ??$extract_argument_from_va_list@_W_W@?$standard_base@DV?$string_output_adapter@D@__crt_stdio_output@@@__crt_stdio_output@@IEAA_NAEA_W@Z 000000018005deb0 f i libucrtd:output.obj
 0001:0005cee0       ??$extract_argument_from_va_list@_W_W@?$standard_base@_WV?$stream_output_adapter@_W@__crt_stdio_output@@@__crt_stdio_output@@IEAA_NAEA_W@Z 000000018005dee0 f i libucrtd:output.obj
 0001:0005cf10       ??$extract_argument_from_va_list@_W_W@?$standard_base@_WV?$string_output_adapter@_W@__crt_stdio_output@@@__crt_stdio_output@@IEAA_NAEA_W@Z 000000018005df10 f i libucrtd:output.obj
 0001:0005cf40       ??$get_parameter_type@D@?$positional_parameter_base@DV?$stream_output_adapter@D@__crt_stdio_output@@@__crt_stdio_output@@CA?AW4parameter_type@01@PEAD@Z 000000018005df40 f i libucrtd:output.obj
 0001:0005cf50       ??$get_parameter_type@D@?$positional_parameter_base@DV?$string_output_adapter@D@__crt_stdio_output@@@__crt_stdio_output@@CA?AW4parameter_type@01@PEAD@Z 000000018005df50 f i libucrtd:output.obj
 0001:0005cf60       ??$get_parameter_type@D@?$positional_parameter_base@_WV?$stream_output_adapter@_W@__crt_stdio_output@@@__crt_stdio_output@@CA?AW4parameter_type@01@PEAD@Z 000000018005df60 f i libucrtd:output.obj
 0001:0005cf70       ??$get_parameter_type@D@?$positional_parameter_base@_WV?$string_output_adapter@_W@__crt_stdio_output@@@__crt_stdio_output@@CA?AW4parameter_type@01@PEAD@Z 000000018005df70 f i libucrtd:output.obj
 0001:0005cf80       ??$get_parameter_type@Uansi_string@?1??type_case_Z@?$output_processor@DV?$stream_output_adapter@D@__crt_stdio_output@@V?$positional_parameter_base@DV?$stream_output_adapter@D@__crt_stdio_output@@@2@@__crt_stdio_output@@AEAA_NXZ@@?$positional_parameter_base@DV?$stream_output_adapter@D@__crt_stdio_output@@@__crt_stdio_output@@CA?AW4parameter_type@01@PEAUansi_string@?1??type_case_Z@?$output_processor@DV?$stream_output_adapter@D@__crt_stdio_output@@V?$positional_parameter_base@DV?$stream_output_adapter@D@__crt_stdio_output@@@2@@1@AEAA_NXZ@@Z 000000018005df80 f i libucrtd:output.obj
 0001:0005cf90       ??$get_parameter_type@Uansi_string@?1??type_case_Z@?$output_processor@DV?$string_output_adapter@D@__crt_stdio_output@@V?$positional_parameter_base@DV?$string_output_adapter@D@__crt_stdio_output@@@2@@__crt_stdio_output@@AEAA_NXZ@@?$positional_parameter_base@DV?$string_output_adapter@D@__crt_stdio_output@@@__crt_stdio_output@@CA?AW4parameter_type@01@PEAUansi_string@?1??type_case_Z@?$output_processor@DV?$string_output_adapter@D@__crt_stdio_output@@V?$positional_parameter_base@DV?$string_output_adapter@D@__crt_stdio_output@@@2@@1@AEAA_NXZ@@Z 000000018005df90 f i libucrtd:output.obj
 0001:0005cfa0       ??$get_parameter_type@Uansi_string@?1??type_case_Z@?$output_processor@_WV?$stream_output_adapter@_W@__crt_stdio_output@@V?$positional_parameter_base@_WV?$stream_output_adapter@_W@__crt_stdio_output@@@2@@__crt_stdio_output@@AEAA_NXZ@@?$positional_parameter_base@_WV?$stream_output_adapter@_W@__crt_stdio_output@@@__crt_stdio_output@@CA?AW4parameter_type@01@PEAUansi_string@?1??type_case_Z@?$output_processor@_WV?$stream_output_adapter@_W@__crt_stdio_output@@V?$positional_parameter_base@_WV?$stream_output_adapter@_W@__crt_stdio_output@@@2@@1@AEAA_NXZ@@Z 000000018005dfa0 f i libucrtd:output.obj
 0001:0005cfb0       ??$get_parameter_type@Uansi_string@?1??type_case_Z@?$output_processor@_WV?$string_output_adapter@_W@__crt_stdio_output@@V?$positional_parameter_base@_WV?$string_output_adapter@_W@__crt_stdio_output@@@2@@__crt_stdio_output@@AEAA_NXZ@@?$positional_parameter_base@_WV?$string_output_adapter@_W@__crt_stdio_output@@@__crt_stdio_output@@CA?AW4parameter_type@01@PEAUansi_string@?1??type_case_Z@?$output_processor@_WV?$string_output_adapter@_W@__crt_stdio_output@@V?$positional_parameter_base@_WV?$string_output_adapter@_W@__crt_stdio_output@@@2@@1@AEAA_NXZ@@Z 000000018005dfb0 f i libucrtd:output.obj
 0001:0005cfc0       ??$get_parameter_type@X@?$positional_parameter_base@DV?$stream_output_adapter@D@__crt_stdio_output@@@__crt_stdio_output@@CA?AW4parameter_type@01@PEAX@Z 000000018005dfc0 f i libucrtd:output.obj
 0001:0005cfd0       ??$get_parameter_type@X@?$positional_parameter_base@DV?$string_output_adapter@D@__crt_stdio_output@@@__crt_stdio_output@@CA?AW4parameter_type@01@PEAX@Z 000000018005dfd0 f i libucrtd:output.obj
 0001:0005cfe0       ??$get_parameter_type@X@?$positional_parameter_base@_WV?$stream_output_adapter@_W@__crt_stdio_output@@@__crt_stdio_output@@CA?AW4parameter_type@01@PEAX@Z 000000018005dfe0 f i libucrtd:output.obj
 0001:0005cff0       ??$get_parameter_type@X@?$positional_parameter_base@_WV?$string_output_adapter@_W@__crt_stdio_output@@@__crt_stdio_output@@CA?AW4parameter_type@01@PEAX@Z 000000018005dff0 f i libucrtd:output.obj
 0001:0005d000       ??$is_character_specifier@D@?$positional_parameter_base@DV?$stream_output_adapter@D@__crt_stdio_output@@@__crt_stdio_output@@CA_ND@Z 000000018005e000 f i libucrtd:output.obj
 0001:0005d040       ??$is_character_specifier@D@?$positional_parameter_base@DV?$string_output_adapter@D@__crt_stdio_output@@@__crt_stdio_output@@CA_ND@Z 000000018005e040 f i libucrtd:output.obj
 0001:0005d080       ??$is_character_specifier@_W@?$positional_parameter_base@_WV?$stream_output_adapter@_W@__crt_stdio_output@@@__crt_stdio_output@@CA_N_W@Z 000000018005e080 f i libucrtd:output.obj
 0001:0005d0c0       ??$is_character_specifier@_W@?$positional_parameter_base@_WV?$string_output_adapter@_W@__crt_stdio_output@@@__crt_stdio_output@@CA_N_W@Z 000000018005e0c0 f i libucrtd:output.obj
 0001:0005d100       ??$is_integral_specifier@D@?$positional_parameter_base@DV?$stream_output_adapter@D@__crt_stdio_output@@@__crt_stdio_output@@CA_ND@Z 000000018005e100 f i libucrtd:output.obj
 0001:0005d170       ??$is_integral_specifier@D@?$positional_parameter_base@DV?$string_output_adapter@D@__crt_stdio_output@@@__crt_stdio_output@@CA_ND@Z 000000018005e170 f i libucrtd:output.obj
 0001:0005d1e0       ??$is_integral_specifier@_W@?$positional_parameter_base@_WV?$stream_output_adapter@_W@__crt_stdio_output@@@__crt_stdio_output@@CA_N_W@Z 000000018005e1e0 f i libucrtd:output.obj
 0001:0005d250       ??$is_integral_specifier@_W@?$positional_parameter_base@_WV?$string_output_adapter@_W@__crt_stdio_output@@@__crt_stdio_output@@CA_N_W@Z 000000018005e250 f i libucrtd:output.obj
 0001:0005d2c0       ??$is_pointer_specifier@D@?$positional_parameter_base@DV?$stream_output_adapter@D@__crt_stdio_output@@@__crt_stdio_output@@CA_ND@Z 000000018005e2c0 f i libucrtd:output.obj
 0001:0005d2f0       ??$is_pointer_specifier@D@?$positional_parameter_base@DV?$string_output_adapter@D@__crt_stdio_output@@@__crt_stdio_output@@CA_ND@Z 000000018005e2f0 f i libucrtd:output.obj
 0001:0005d320       ??$is_pointer_specifier@_W@?$positional_parameter_base@_WV?$stream_output_adapter@_W@__crt_stdio_output@@@__crt_stdio_output@@CA_N_W@Z 000000018005e320 f i libucrtd:output.obj
 0001:0005d350       ??$is_pointer_specifier@_W@?$positional_parameter_base@_WV?$string_output_adapter@_W@__crt_stdio_output@@@__crt_stdio_output@@CA_N_W@Z 000000018005e350 f i libucrtd:output.obj
 0001:0005d380       ??$is_string_specifier@D@?$positional_parameter_base@DV?$stream_output_adapter@D@__crt_stdio_output@@@__crt_stdio_output@@CA_ND@Z 000000018005e380 f i libucrtd:output.obj
 0001:0005d3c0       ??$is_string_specifier@D@?$positional_parameter_base@DV?$string_output_adapter@D@__crt_stdio_output@@@__crt_stdio_output@@CA_ND@Z 000000018005e3c0 f i libucrtd:output.obj
 0001:0005d400       ??$is_string_specifier@_W@?$positional_parameter_base@_WV?$stream_output_adapter@_W@__crt_stdio_output@@@__crt_stdio_output@@CA_N_W@Z 000000018005e400 f i libucrtd:output.obj
 0001:0005d440       ??$is_string_specifier@_W@?$positional_parameter_base@_WV?$string_output_adapter@_W@__crt_stdio_output@@@__crt_stdio_output@@CA_N_W@Z 000000018005e440 f i libucrtd:output.obj
 0001:0005d480       ??$is_wide_character_specifier@D@__crt_stdio_output@@YA_N_KDW4length_modifier@0@@Z 000000018005e480 f i libucrtd:output.obj
 0001:0005d520       ??$is_wide_character_specifier@_W@__crt_stdio_output@@YA_N_K_WW4length_modifier@0@@Z 000000018005e520 f i libucrtd:output.obj
 0001:0005d5f0       ??$peek_va_arg@C@__crt_stdio_output@@YACPEAD@Z 000000018005e5f0 f i libucrtd:output.obj
 0001:0005d650       ??$peek_va_arg@E@__crt_stdio_output@@YAEPEAD@Z 000000018005e650 f i libucrtd:output.obj
 0001:0005d6b0       ??$peek_va_arg@F@__crt_stdio_output@@YAFPEAD@Z 000000018005e6b0 f i libucrtd:output.obj
 0001:0005d710       ??$peek_va_arg@G@__crt_stdio_output@@YAGPEAD@Z 000000018005e710 f i libucrtd:output.obj
 0001:0005d770       ??$peek_va_arg@H@__crt_stdio_output@@YAHPEAD@Z 000000018005e770 f i libucrtd:output.obj
 0001:0005d7c0       ??$peek_va_arg@I@__crt_stdio_output@@YAIPEAD@Z 000000018005e7c0 f i libucrtd:output.obj
 0001:0005d810       ??$peek_va_arg@PEAD@__crt_stdio_output@@YAPEADPEAD@Z 000000018005e810 f i libucrtd:output.obj
 0001:0005d870       ??$peek_va_arg@PEAUansi_string@?1??type_case_Z@?$output_processor@DV?$stream_output_adapter@D@__crt_stdio_output@@V?$positional_parameter_base@DV?$stream_output_adapter@D@__crt_stdio_output@@@2@@__crt_stdio_output@@AEAA_NXZ@@__crt_stdio_output@@YAPEAUansi_string@?1??type_case_Z@?$output_processor@DV?$stream_output_adapter@D@__crt_stdio_output@@V?$positional_parameter_base@DV?$stream_output_adapter@D@__crt_stdio_output@@@2@@0@AEAA_NXZ@PEAD@Z 000000018005e870 f i libucrtd:output.obj
 0001:0005d8d0       ??$peek_va_arg@PEAUansi_string@?1??type_case_Z@?$output_processor@DV?$string_output_adapter@D@__crt_stdio_output@@V?$positional_parameter_base@DV?$string_output_adapter@D@__crt_stdio_output@@@2@@__crt_stdio_output@@AEAA_NXZ@@__crt_stdio_output@@YAPEAUansi_string@?1??type_case_Z@?$output_processor@DV?$string_output_adapter@D@__crt_stdio_output@@V?$positional_parameter_base@DV?$string_output_adapter@D@__crt_stdio_output@@@2@@0@AEAA_NXZ@PEAD@Z 000000018005e8d0 f i libucrtd:output.obj
 0001:0005d930       ??$peek_va_arg@PEAUansi_string@?1??type_case_Z@?$output_processor@_WV?$stream_output_adapter@_W@__crt_stdio_output@@V?$positional_parameter_base@_WV?$stream_output_adapter@_W@__crt_stdio_output@@@2@@__crt_stdio_output@@AEAA_NXZ@@__crt_stdio_output@@YAPEAUansi_string@?1??type_case_Z@?$output_processor@_WV?$stream_output_adapter@_W@__crt_stdio_output@@V?$positional_parameter_base@_WV?$stream_output_adapter@_W@__crt_stdio_output@@@2@@0@AEAA_NXZ@PEAD@Z 000000018005e930 f i libucrtd:output.obj
 0001:0005d990       ??$peek_va_arg@PEAUansi_string@?1??type_case_Z@?$output_processor@_WV?$string_output_adapter@_W@__crt_stdio_output@@V?$positional_parameter_base@_WV?$string_output_adapter@_W@__crt_stdio_output@@@2@@__crt_stdio_output@@AEAA_NXZ@@__crt_stdio_output@@YAPEAUansi_string@?1??type_case_Z@?$output_processor@_WV?$string_output_adapter@_W@__crt_stdio_output@@V?$positional_parameter_base@_WV?$string_output_adapter@_W@__crt_stdio_output@@@2@@0@AEAA_NXZ@PEAD@Z 000000018005e990 f i libucrtd:output.obj
 0001:0005d9f0       ??$peek_va_arg@PEAX@__crt_stdio_output@@YAPEAXPEAD@Z 000000018005e9f0 f i libucrtd:output.obj
 0001:0005da50       ??$peek_va_arg@U_CRT_DOUBLE@@@__crt_stdio_output@@YA?AU_CRT_DOUBLE@@PEAD@Z 000000018005ea50 f i libucrtd:output.obj
 0001:0005dab0       ??$peek_va_arg@_J@__crt_stdio_output@@YA_JPEAD@Z 000000018005eab0 f i libucrtd:output.obj
 0001:0005db10       ??$peek_va_arg@_K@__crt_stdio_output@@YA_KPEAD@Z 000000018005eb10 f i libucrtd:output.obj
 0001:0005db70       ??$peek_va_arg@_W@__crt_stdio_output@@YA_WPEAD@Z 000000018005eb70 f i libucrtd:output.obj
 0001:0005dbd0       ??$puttc_nolock@AEBDPEAU_iobuf@@@?$__crt_char_traits@D@@SAHAEBD$$QEAPEAU_iobuf@@@Z 000000018005ebd0 f i libucrtd:output.obj
 0001:0005dc00       ??$puttc_nolock@AEB_WPEAU_iobuf@@@?$__crt_char_traits@_W@@SAGAEB_W$$QEAPEAU_iobuf@@@Z 000000018005ec00 f i libucrtd:output.obj
 0001:0005dc30       ??$read_va_arg@C@__crt_stdio_output@@YACAEAPEAD@Z 000000018005ec30 f i libucrtd:output.obj
 0001:0005dca0       ??$read_va_arg@E@__crt_stdio_output@@YAEAEAPEAD@Z 000000018005eca0 f i libucrtd:output.obj
 0001:0005dd10       ??$read_va_arg@F@__crt_stdio_output@@YAFAEAPEAD@Z 000000018005ed10 f i libucrtd:output.obj
 0001:0005dd80       ??$read_va_arg@G@__crt_stdio_output@@YAGAEAPEAD@Z 000000018005ed80 f i libucrtd:output.obj
 0001:0005ddf0       ??$read_va_arg@H@__crt_stdio_output@@YAHAEAPEAD@Z 000000018005edf0 f i libucrtd:output.obj
 0001:0005de50       ??$read_va_arg@I@__crt_stdio_output@@YAIAEAPEAD@Z 000000018005ee50 f i libucrtd:output.obj
 0001:0005deb0       ??$read_va_arg@PEAD@__crt_stdio_output@@YAPEADAEAPEAD@Z 000000018005eeb0 f i libucrtd:output.obj
 0001:0005df20       ??$read_va_arg@PEAUansi_string@?1??type_case_Z@?$output_processor@DV?$stream_output_adapter@D@__crt_stdio_output@@V?$format_validation_base@DV?$stream_output_adapter@D@__crt_stdio_output@@@2@@__crt_stdio_output@@AEAA_NXZ@@__crt_stdio_output@@YAPEAUansi_string@?1??type_case_Z@?$output_processor@DV?$stream_output_adapter@D@__crt_stdio_output@@V?$format_validation_base@DV?$stream_output_adapter@D@__crt_stdio_output@@@2@@0@AEAA_NXZ@AEAPEAD@Z 000000018005ef20 f i libucrtd:output.obj
 0001:0005df90       ??$read_va_arg@PEAUansi_string@?1??type_case_Z@?$output_processor@DV?$stream_output_adapter@D@__crt_stdio_output@@V?$positional_parameter_base@DV?$stream_output_adapter@D@__crt_stdio_output@@@2@@__crt_stdio_output@@AEAA_NXZ@@__crt_stdio_output@@YAPEAUansi_string@?1??type_case_Z@?$output_processor@DV?$stream_output_adapter@D@__crt_stdio_output@@V?$positional_parameter_base@DV?$stream_output_adapter@D@__crt_stdio_output@@@2@@0@AEAA_NXZ@AEAPEAD@Z 000000018005ef90 f i libucrtd:output.obj
 0001:0005e000       ??$read_va_arg@PEAUansi_string@?1??type_case_Z@?$output_processor@DV?$stream_output_adapter@D@__crt_stdio_output@@V?$standard_base@DV?$stream_output_adapter@D@__crt_stdio_output@@@2@@__crt_stdio_output@@AEAA_NXZ@@__crt_stdio_output@@YAPEAUansi_string@?1??type_case_Z@?$output_processor@DV?$stream_output_adapter@D@__crt_stdio_output@@V?$standard_base@DV?$stream_output_adapter@D@__crt_stdio_output@@@2@@0@AEAA_NXZ@AEAPEAD@Z 000000018005f000 f i libucrtd:output.obj
 0001:0005e070       ??$read_va_arg@PEAUansi_string@?1??type_case_Z@?$output_processor@DV?$string_output_adapter@D@__crt_stdio_output@@V?$format_validation_base@DV?$string_output_adapter@D@__crt_stdio_output@@@2@@__crt_stdio_output@@AEAA_NXZ@@__crt_stdio_output@@YAPEAUansi_string@?1??type_case_Z@?$output_processor@DV?$string_output_adapter@D@__crt_stdio_output@@V?$format_validation_base@DV?$string_output_adapter@D@__crt_stdio_output@@@2@@0@AEAA_NXZ@AEAPEAD@Z 000000018005f070 f i libucrtd:output.obj
 0001:0005e0e0       ??$read_va_arg@PEAUansi_string@?1??type_case_Z@?$output_processor@DV?$string_output_adapter@D@__crt_stdio_output@@V?$positional_parameter_base@DV?$string_output_adapter@D@__crt_stdio_output@@@2@@__crt_stdio_output@@AEAA_NXZ@@__crt_stdio_output@@YAPEAUansi_string@?1??type_case_Z@?$output_processor@DV?$string_output_adapter@D@__crt_stdio_output@@V?$positional_parameter_base@DV?$string_output_adapter@D@__crt_stdio_output@@@2@@0@AEAA_NXZ@AEAPEAD@Z 000000018005f0e0 f i libucrtd:output.obj
 0001:0005e150       ??$read_va_arg@PEAUansi_string@?1??type_case_Z@?$output_processor@DV?$string_output_adapter@D@__crt_stdio_output@@V?$standard_base@DV?$string_output_adapter@D@__crt_stdio_output@@@2@@__crt_stdio_output@@AEAA_NXZ@@__crt_stdio_output@@YAPEAUansi_string@?1??type_case_Z@?$output_processor@DV?$string_output_adapter@D@__crt_stdio_output@@V?$standard_base@DV?$string_output_adapter@D@__crt_stdio_output@@@2@@0@AEAA_NXZ@AEAPEAD@Z 000000018005f150 f i libucrtd:output.obj
 0001:0005e1c0       ??$read_va_arg@PEAUansi_string@?1??type_case_Z@?$output_processor@_WV?$stream_output_adapter@_W@__crt_stdio_output@@V?$format_validation_base@_WV?$stream_output_adapter@_W@__crt_stdio_output@@@2@@__crt_stdio_output@@AEAA_NXZ@@__crt_stdio_output@@YAPEAUansi_string@?1??type_case_Z@?$output_processor@_WV?$stream_output_adapter@_W@__crt_stdio_output@@V?$format_validation_base@_WV?$stream_output_adapter@_W@__crt_stdio_output@@@2@@0@AEAA_NXZ@AEAPEAD@Z 000000018005f1c0 f i libucrtd:output.obj
 0001:0005e230       ??$read_va_arg@PEAUansi_string@?1??type_case_Z@?$output_processor@_WV?$stream_output_adapter@_W@__crt_stdio_output@@V?$positional_parameter_base@_WV?$stream_output_adapter@_W@__crt_stdio_output@@@2@@__crt_stdio_output@@AEAA_NXZ@@__crt_stdio_output@@YAPEAUansi_string@?1??type_case_Z@?$output_processor@_WV?$stream_output_adapter@_W@__crt_stdio_output@@V?$positional_parameter_base@_WV?$stream_output_adapter@_W@__crt_stdio_output@@@2@@0@AEAA_NXZ@AEAPEAD@Z 000000018005f230 f i libucrtd:output.obj
 0001:0005e2a0       ??$read_va_arg@PEAUansi_string@?1??type_case_Z@?$output_processor@_WV?$stream_output_adapter@_W@__crt_stdio_output@@V?$standard_base@_WV?$stream_output_adapter@_W@__crt_stdio_output@@@2@@__crt_stdio_output@@AEAA_NXZ@@__crt_stdio_output@@YAPEAUansi_string@?1??type_case_Z@?$output_processor@_WV?$stream_output_adapter@_W@__crt_stdio_output@@V?$standard_base@_WV?$stream_output_adapter@_W@__crt_stdio_output@@@2@@0@AEAA_NXZ@AEAPEAD@Z 000000018005f2a0 f i libucrtd:output.obj
 0001:0005e310       ??$read_va_arg@PEAUansi_string@?1??type_case_Z@?$output_processor@_WV?$string_output_adapter@_W@__crt_stdio_output@@V?$format_validation_base@_WV?$string_output_adapter@_W@__crt_stdio_output@@@2@@__crt_stdio_output@@AEAA_NXZ@@__crt_stdio_output@@YAPEAUansi_string@?1??type_case_Z@?$output_processor@_WV?$string_output_adapter@_W@__crt_stdio_output@@V?$format_validation_base@_WV?$string_output_adapter@_W@__crt_stdio_output@@@2@@0@AEAA_NXZ@AEAPEAD@Z 000000018005f310 f i libucrtd:output.obj
 0001:0005e380       ??$read_va_arg@PEAUansi_string@?1??type_case_Z@?$output_processor@_WV?$string_output_adapter@_W@__crt_stdio_output@@V?$positional_parameter_base@_WV?$string_output_adapter@_W@__crt_stdio_output@@@2@@__crt_stdio_output@@AEAA_NXZ@@__crt_stdio_output@@YAPEAUansi_string@?1??type_case_Z@?$output_processor@_WV?$string_output_adapter@_W@__crt_stdio_output@@V?$positional_parameter_base@_WV?$string_output_adapter@_W@__crt_stdio_output@@@2@@0@AEAA_NXZ@AEAPEAD@Z 000000018005f380 f i libucrtd:output.obj
 0001:0005e3f0       ??$read_va_arg@PEAUansi_string@?1??type_case_Z@?$output_processor@_WV?$string_output_adapter@_W@__crt_stdio_output@@V?$standard_base@_WV?$string_output_adapter@_W@__crt_stdio_output@@@2@@__crt_stdio_output@@AEAA_NXZ@@__crt_stdio_output@@YAPEAUansi_string@?1??type_case_Z@?$output_processor@_WV?$string_output_adapter@_W@__crt_stdio_output@@V?$standard_base@_WV?$string_output_adapter@_W@__crt_stdio_output@@@2@@0@AEAA_NXZ@AEAPEAD@Z 000000018005f3f0 f i libucrtd:output.obj
 0001:0005e460       ??$read_va_arg@PEAX@__crt_stdio_output@@YAPEAXAEAPEAD@Z 000000018005f460 f i libucrtd:output.obj
 0001:0005e4d0       ??$read_va_arg@U_CRT_DOUBLE@@@__crt_stdio_output@@YA?AU_CRT_DOUBLE@@AEAPEAD@Z 000000018005f4d0 f i libucrtd:output.obj
 0001:0005e540       ??$read_va_arg@_J@__crt_stdio_output@@YA_JAEAPEAD@Z 000000018005f540 f i libucrtd:output.obj
 0001:0005e5b0       ??$read_va_arg@_K@__crt_stdio_output@@YA_KAEAPEAD@Z 000000018005f5b0 f i libucrtd:output.obj
 0001:0005e620       ??$read_va_arg@_W@__crt_stdio_output@@YA_WAEAPEAD@Z 000000018005f620 f i libucrtd:output.obj
 0001:0005e690       ??$scratch_count@D@formatting_buffer@__crt_stdio_output@@QEBA_KXZ 000000018005f690 f i libucrtd:output.obj
 0001:0005e6b0       ??$scratch_data@D@formatting_buffer@__crt_stdio_output@@QEAAPEADXZ 000000018005f6b0 f i libucrtd:output.obj
 0001:0005e720       ??$tcstol@AEAPEBDPEAPEADH@?$__crt_char_traits@D@@SAJAEAPEBD$$QEAPEAPEAD$$QEAH@Z 000000018005f720 f i libucrtd:output.obj
 0001:0005e760       ??$tcstol@AEAPEB_WPEAPEA_WH@?$__crt_char_traits@_W@@SAJAEAPEB_W$$QEAPEAPEA_W$$QEAH@Z 000000018005f760 f i libucrtd:output.obj
 0001:0005e7a0       ??$tcstol@PEBDPEAPEADH@?$__crt_char_traits@D@@SAJ$$QEAPEBD$$QEAPEAPEAD$$QEAH@Z 000000018005f7a0 f i libucrtd:output.obj
 0001:0005e7e0       ??$tcstol@PEB_WPEAPEA_WH@?$__crt_char_traits@_W@@SAJ$$QEAPEB_W$$QEAPEAPEA_W$$QEAH@Z 000000018005f7e0 f i libucrtd:output.obj
 0001:0005e820       ??$type_case_integer_parse_into_buffer@I@?$output_processor@DV?$stream_output_adapter@D@__crt_stdio_output@@V?$format_validation_base@DV?$stream_output_adapter@D@__crt_stdio_output@@@2@@__crt_stdio_output@@AEAAXII_N@Z 000000018005f820 f i libucrtd:output.obj
 0001:0005e950       ??$type_case_integer_parse_into_buffer@I@?$output_processor@DV?$stream_output_adapter@D@__crt_stdio_output@@V?$positional_parameter_base@DV?$stream_output_adapter@D@__crt_stdio_output@@@2@@__crt_stdio_output@@AEAAXII_N@Z 000000018005f950 f i libucrtd:output.obj
 0001:0005ea80       ??$type_case_integer_parse_into_buffer@I@?$output_processor@DV?$stream_output_adapter@D@__crt_stdio_output@@V?$standard_base@DV?$stream_output_adapter@D@__crt_stdio_output@@@2@@__crt_stdio_output@@AEAAXII_N@Z 000000018005fa80 f i libucrtd:output.obj
 0001:0005ebb0       ??$type_case_integer_parse_into_buffer@I@?$output_processor@DV?$string_output_adapter@D@__crt_stdio_output@@V?$format_validation_base@DV?$string_output_adapter@D@__crt_stdio_output@@@2@@__crt_stdio_output@@AEAAXII_N@Z 000000018005fbb0 f i libucrtd:output.obj
 0001:0005ece0       ??$type_case_integer_parse_into_buffer@I@?$output_processor@DV?$string_output_adapter@D@__crt_stdio_output@@V?$positional_parameter_base@DV?$string_output_adapter@D@__crt_stdio_output@@@2@@__crt_stdio_output@@AEAAXII_N@Z 000000018005fce0 f i libucrtd:output.obj
 0001:0005ee10       ??$type_case_integer_parse_into_buffer@I@?$output_processor@DV?$string_output_adapter@D@__crt_stdio_output@@V?$standard_base@DV?$string_output_adapter@D@__crt_stdio_output@@@2@@__crt_stdio_output@@AEAAXII_N@Z 000000018005fe10 f i libucrtd:output.obj
 0001:0005ef40       ??$type_case_integer_parse_into_buffer@I@?$output_processor@_WV?$stream_output_adapter@_W@__crt_stdio_output@@V?$format_validation_base@_WV?$stream_output_adapter@_W@__crt_stdio_output@@@2@@__crt_stdio_output@@AEAAXII_N@Z 000000018005ff40 f i libucrtd:output.obj
 0001:0005f080       ??$type_case_integer_parse_into_buffer@I@?$output_processor@_WV?$stream_output_adapter@_W@__crt_stdio_output@@V?$positional_parameter_base@_WV?$stream_output_adapter@_W@__crt_stdio_output@@@2@@__crt_stdio_output@@AEAAXII_N@Z 0000000180060080 f i libucrtd:output.obj
 0001:0005f1c0       ??$type_case_integer_parse_into_buffer@I@?$output_processor@_WV?$stream_output_adapter@_W@__crt_stdio_output@@V?$standard_base@_WV?$stream_output_adapter@_W@__crt_stdio_output@@@2@@__crt_stdio_output@@AEAAXII_N@Z 00000001800601c0 f i libucrtd:output.obj
 0001:0005f300       ??$type_case_integer_parse_into_buffer@I@?$output_processor@_WV?$string_output_adapter@_W@__crt_stdio_output@@V?$format_validation_base@_WV?$string_output_adapter@_W@__crt_stdio_output@@@2@@__crt_stdio_output@@AEAAXII_N@Z 0000000180060300 f i libucrtd:output.obj
 0001:0005f440       ??$type_case_integer_parse_into_buffer@I@?$output_processor@_WV?$string_output_adapter@_W@__crt_stdio_output@@V?$positional_parameter_base@_WV?$string_output_adapter@_W@__crt_stdio_output@@@2@@__crt_stdio_output@@AEAAXII_N@Z 0000000180060440 f i libucrtd:output.obj
 0001:0005f580       ??$type_case_integer_parse_into_buffer@I@?$output_processor@_WV?$string_output_adapter@_W@__crt_stdio_output@@V?$standard_base@_WV?$string_output_adapter@_W@__crt_stdio_output@@@2@@__crt_stdio_output@@AEAAXII_N@Z 0000000180060580 f i libucrtd:output.obj
 0001:0005f6c0       ??$type_case_integer_parse_into_buffer@_K@?$output_processor@DV?$stream_output_adapter@D@__crt_stdio_output@@V?$format_validation_base@DV?$stream_output_adapter@D@__crt_stdio_output@@@2@@__crt_stdio_output@@AEAAX_KI_N@Z 00000001800606c0 f i libucrtd:output.obj
 0001:0005f810       ??$type_case_integer_parse_into_buffer@_K@?$output_processor@DV?$stream_output_adapter@D@__crt_stdio_output@@V?$positional_parameter_base@DV?$stream_output_adapter@D@__crt_stdio_output@@@2@@__crt_stdio_output@@AEAAX_KI_N@Z 0000000180060810 f i libucrtd:output.obj
 0001:0005f960       ??$type_case_integer_parse_into_buffer@_K@?$output_processor@DV?$stream_output_adapter@D@__crt_stdio_output@@V?$standard_base@DV?$stream_output_adapter@D@__crt_stdio_output@@@2@@__crt_stdio_output@@AEAAX_KI_N@Z 0000000180060960 f i libucrtd:output.obj
 0001:0005fab0       ??$type_case_integer_parse_into_buffer@_K@?$output_processor@DV?$string_output_adapter@D@__crt_stdio_output@@V?$format_validation_base@DV?$string_output_adapter@D@__crt_stdio_output@@@2@@__crt_stdio_output@@AEAAX_KI_N@Z 0000000180060ab0 f i libucrtd:output.obj
 0001:0005fc00       ??$type_case_integer_parse_into_buffer@_K@?$output_processor@DV?$string_output_adapter@D@__crt_stdio_output@@V?$positional_parameter_base@DV?$string_output_adapter@D@__crt_stdio_output@@@2@@__crt_stdio_output@@AEAAX_KI_N@Z 0000000180060c00 f i libucrtd:output.obj
 0001:0005fd50       ??$type_case_integer_parse_into_buffer@_K@?$output_processor@DV?$string_output_adapter@D@__crt_stdio_output@@V?$standard_base@DV?$string_output_adapter@D@__crt_stdio_output@@@2@@__crt_stdio_output@@AEAAX_KI_N@Z 0000000180060d50 f i libucrtd:output.obj
 0001:0005fea0       ??$type_case_integer_parse_into_buffer@_K@?$output_processor@_WV?$stream_output_adapter@_W@__crt_stdio_output@@V?$format_validation_base@_WV?$stream_output_adapter@_W@__crt_stdio_output@@@2@@__crt_stdio_output@@AEAAX_KI_N@Z 0000000180060ea0 f i libucrtd:output.obj
 0001:00060000       ??$type_case_integer_parse_into_buffer@_K@?$output_processor@_WV?$stream_output_adapter@_W@__crt_stdio_output@@V?$positional_parameter_base@_WV?$stream_output_adapter@_W@__crt_stdio_output@@@2@@__crt_stdio_output@@AEAAX_KI_N@Z 0000000180061000 f i libucrtd:output.obj
 0001:00060160       ??$type_case_integer_parse_into_buffer@_K@?$output_processor@_WV?$stream_output_adapter@_W@__crt_stdio_output@@V?$standard_base@_WV?$stream_output_adapter@_W@__crt_stdio_output@@@2@@__crt_stdio_output@@AEAAX_KI_N@Z 0000000180061160 f i libucrtd:output.obj
 0001:000602c0       ??$type_case_integer_parse_into_buffer@_K@?$output_processor@_WV?$string_output_adapter@_W@__crt_stdio_output@@V?$format_validation_base@_WV?$string_output_adapter@_W@__crt_stdio_output@@@2@@__crt_stdio_output@@AEAAX_KI_N@Z 00000001800612c0 f i libucrtd:output.obj
 0001:00060420       ??$type_case_integer_parse_into_buffer@_K@?$output_processor@_WV?$string_output_adapter@_W@__crt_stdio_output@@V?$positional_parameter_base@_WV?$string_output_adapter@_W@__crt_stdio_output@@@2@@__crt_stdio_output@@AEAAX_KI_N@Z 0000000180061420 f i libucrtd:output.obj
 0001:00060580       ??$type_case_integer_parse_into_buffer@_K@?$output_processor@_WV?$string_output_adapter@_W@__crt_stdio_output@@V?$standard_base@_WV?$string_output_adapter@_W@__crt_stdio_output@@@2@@__crt_stdio_output@@AEAAX_KI_N@Z 0000000180061580 f i libucrtd:output.obj
 0001:000606e0       ??$write_multiple_characters@V?$stream_output_adapter@D@__crt_stdio_output@@D@__crt_stdio_output@@YAXAEBV?$stream_output_adapter@D@0@DHQEAH@Z 00000001800616e0 f i libucrtd:output.obj
 0001:00060740       ??$write_multiple_characters@V?$stream_output_adapter@_W@__crt_stdio_output@@D@__crt_stdio_output@@YAXAEBV?$stream_output_adapter@_W@0@DHQEAH@Z 0000000180061740 f i libucrtd:output.obj
 0001:000607a0       ??$write_multiple_characters@V?$string_output_adapter@D@__crt_stdio_output@@D@__crt_stdio_output@@YAXAEBV?$string_output_adapter@D@0@DHQEAH@Z 00000001800617a0 f i libucrtd:output.obj
 0001:00060800       ??$write_multiple_characters@V?$string_output_adapter@_W@__crt_stdio_output@@D@__crt_stdio_output@@YAXAEBV?$string_output_adapter@_W@0@DHQEAH@Z 0000000180061800 f i libucrtd:output.obj
 0001:00060c20       ??0?$common_data@D@__crt_stdio_output@@IEAA@XZ 0000000180061c20 f i libucrtd:output.obj
 0001:00060cf0       ??0?$common_data@_W@__crt_stdio_output@@IEAA@XZ 0000000180061cf0 f i libucrtd:output.obj
 0001:00060dc0       ??0?$output_adapter_data@DV?$stream_output_adapter@D@__crt_stdio_output@@@__crt_stdio_output@@IEAA@AEBV?$stream_output_adapter@D@1@_KQEBDQEAU__crt_locale_pointers@@QEAD@Z 0000000180061dc0 f i libucrtd:output.obj
 0001:00060e40       ??0?$output_adapter_data@DV?$string_output_adapter@D@__crt_stdio_output@@@__crt_stdio_output@@IEAA@AEBV?$string_output_adapter@D@1@_KQEBDQEAU__crt_locale_pointers@@QEAD@Z 0000000180061e40 f i libucrtd:output.obj
 0001:00060ec0       ??0?$output_adapter_data@_WV?$stream_output_adapter@_W@__crt_stdio_output@@@__crt_stdio_output@@IEAA@AEBV?$stream_output_adapter@_W@1@_KQEB_WQEAU__crt_locale_pointers@@QEAD@Z 0000000180061ec0 f i libucrtd:output.obj
 0001:00060f40       ??0?$output_adapter_data@_WV?$string_output_adapter@_W@__crt_stdio_output@@@__crt_stdio_output@@IEAA@AEBV?$string_output_adapter@_W@1@_KQEB_WQEAU__crt_locale_pointers@@QEAD@Z 0000000180061f40 f i libucrtd:output.obj
 0001:00060fc0       ??0?$output_processor@DV?$stream_output_adapter@D@__crt_stdio_output@@V?$format_validation_base@DV?$stream_output_adapter@D@__crt_stdio_output@@@2@@__crt_stdio_output@@QEAA@AEBV?$stream_output_adapter@D@1@_KQEBDQEAU__crt_locale_pointers@@QEAD@Z 0000000180061fc0 f i libucrtd:output.obj
 0001:00061010       ??0?$output_processor@DV?$stream_output_adapter@D@__crt_stdio_output@@V?$positional_parameter_base@DV?$stream_output_adapter@D@__crt_stdio_output@@@2@@__crt_stdio_output@@QEAA@AEBV?$stream_output_adapter@D@1@_KQEBDQEAU__crt_locale_pointers@@QEAD@Z 0000000180062010 f i libucrtd:output.obj
 0001:00061060       ??0?$output_processor@DV?$stream_output_adapter@D@__crt_stdio_output@@V?$standard_base@DV?$stream_output_adapter@D@__crt_stdio_output@@@2@@__crt_stdio_output@@QEAA@AEBV?$stream_output_adapter@D@1@_KQEBDQEAU__crt_locale_pointers@@QEAD@Z 0000000180062060 f i libucrtd:output.obj
 0001:000610b0       ??0?$output_processor@DV?$string_output_adapter@D@__crt_stdio_output@@V?$format_validation_base@DV?$string_output_adapter@D@__crt_stdio_output@@@2@@__crt_stdio_output@@QEAA@AEBV?$string_output_adapter@D@1@_KQEBDQEAU__crt_locale_pointers@@QEAD@Z 00000001800620b0 f i libucrtd:output.obj
 0001:00061100       ??0?$output_processor@DV?$string_output_adapter@D@__crt_stdio_output@@V?$positional_parameter_base@DV?$string_output_adapter@D@__crt_stdio_output@@@2@@__crt_stdio_output@@QEAA@AEBV?$string_output_adapter@D@1@_KQEBDQEAU__crt_locale_pointers@@QEAD@Z 0000000180062100 f i libucrtd:output.obj
 0001:00061150       ??0?$output_processor@DV?$string_output_adapter@D@__crt_stdio_output@@V?$standard_base@DV?$string_output_adapter@D@__crt_stdio_output@@@2@@__crt_stdio_output@@QEAA@AEBV?$string_output_adapter@D@1@_KQEBDQEAU__crt_locale_pointers@@QEAD@Z 0000000180062150 f i libucrtd:output.obj
 0001:000611a0       ??0?$output_processor@_WV?$stream_output_adapter@_W@__crt_stdio_output@@V?$format_validation_base@_WV?$stream_output_adapter@_W@__crt_stdio_output@@@2@@__crt_stdio_output@@QEAA@AEBV?$stream_output_adapter@_W@1@_KQEB_WQEAU__crt_locale_pointers@@QEAD@Z 00000001800621a0 f i libucrtd:output.obj
 0001:000611f0       ??0?$output_processor@_WV?$stream_output_adapter@_W@__crt_stdio_output@@V?$positional_parameter_base@_WV?$stream_output_adapter@_W@__crt_stdio_output@@@2@@__crt_stdio_output@@QEAA@AEBV?$stream_output_adapter@_W@1@_KQEB_WQEAU__crt_locale_pointers@@QEAD@Z 00000001800621f0 f i libucrtd:output.obj
 0001:00061240       ??0?$output_processor@_WV?$stream_output_adapter@_W@__crt_stdio_output@@V?$standard_base@_WV?$stream_output_adapter@_W@__crt_stdio_output@@@2@@__crt_stdio_output@@QEAA@AEBV?$stream_output_adapter@_W@1@_KQEB_WQEAU__crt_locale_pointers@@QEAD@Z 0000000180062240 f i libucrtd:output.obj
 0001:00061290       ??0?$output_processor@_WV?$string_output_adapter@_W@__crt_stdio_output@@V?$format_validation_base@_WV?$string_output_adapter@_W@__crt_stdio_output@@@2@@__crt_stdio_output@@QEAA@AEBV?$string_output_adapter@_W@1@_KQEB_WQEAU__crt_locale_pointers@@QEAD@Z 0000000180062290 f i libucrtd:output.obj
 0001:000612e0       ??0?$output_processor@_WV?$string_output_adapter@_W@__crt_stdio_output@@V?$positional_parameter_base@_WV?$string_output_adapter@_W@__crt_stdio_output@@@2@@__crt_stdio_output@@QEAA@AEBV?$string_output_adapter@_W@1@_KQEB_WQEAU__crt_locale_pointers@@QEAD@Z 00000001800622e0 f i libucrtd:output.obj
 0001:00061330       ??0?$output_processor@_WV?$string_output_adapter@_W@__crt_stdio_output@@V?$standard_base@_WV?$string_output_adapter@_W@__crt_stdio_output@@@2@@__crt_stdio_output@@QEAA@AEBV?$string_output_adapter@_W@1@_KQEB_WQEAU__crt_locale_pointers@@QEAD@Z 0000000180062330 f i libucrtd:output.obj
 0001:00061380       ??0?$stream_output_adapter@D@__crt_stdio_output@@QEAA@QEAU_iobuf@@@Z 0000000180062380 f i libucrtd:output.obj
 0001:000613b0       ??0?$stream_output_adapter@_W@__crt_stdio_output@@QEAA@QEAU_iobuf@@@Z 00000001800623b0 f i libucrtd:output.obj
 0001:000613e0       ??0?$string_output_adapter@D@__crt_stdio_output@@QEAA@QEAU?$string_output_adapter_context@D@1@@Z 00000001800623e0 f i libucrtd:output.obj
 0001:00061400       ??0?$string_output_adapter@_W@__crt_stdio_output@@QEAA@QEAU?$string_output_adapter_context@_W@1@@Z 0000000180062400 f i libucrtd:output.obj
 0001:00061420       ??0_LocaleUpdate@@QEAA@QEAU__crt_locale_pointers@@@Z 0000000180062420 f i libucrtd:output.obj
 0001:00061540       ??0__acrt_stdio_temporary_buffering_guard@@QEAA@QEAU_iobuf@@@Z 0000000180062540 f i libucrtd:output.obj
 0001:00061580       ??0__crt_deferred_errno_cache@@QEAA@XZ 0000000180062580 f i libucrtd:output.obj
 0001:000615a0       ??0__crt_errno_guard@@QEAA@QEAH@Z 00000001800625a0 f i libucrtd:output.obj
 0001:000615e0       ??0__crt_stdio_stream@@QEAA@QEAU_iobuf@@@Z 00000001800625e0 f i libucrtd:output.obj
 0001:00061600       ??0formatting_buffer@__crt_stdio_output@@QEAA@XZ 0000000180062600 f i libucrtd:output.obj
 0001:00061640       ??1?$common_data@D@__crt_stdio_output@@QEAA@XZ 0000000180062640 f i libucrtd:output.obj
 0001:00061660       ??1?$common_data@_W@__crt_stdio_output@@QEAA@XZ 0000000180062660 f i libucrtd:output.obj
 0001:00061680       ??1?$format_validation_base@DV?$stream_output_adapter@D@__crt_stdio_output@@@__crt_stdio_output@@QEAA@XZ 0000000180062680 f i libucrtd:output.obj
 0001:000616a0       ??1?$format_validation_base@DV?$string_output_adapter@D@__crt_stdio_output@@@__crt_stdio_output@@QEAA@XZ 00000001800626a0 f i libucrtd:output.obj
 0001:000616c0       ??1?$format_validation_base@_WV?$stream_output_adapter@_W@__crt_stdio_output@@@__crt_stdio_output@@QEAA@XZ 00000001800626c0 f i libucrtd:output.obj
 0001:000616e0       ??1?$format_validation_base@_WV?$string_output_adapter@_W@__crt_stdio_output@@@__crt_stdio_output@@QEAA@XZ 00000001800626e0 f i libucrtd:output.obj
 0001:00061700       ??1?$output_adapter_data@DV?$stream_output_adapter@D@__crt_stdio_output@@@__crt_stdio_output@@QEAA@XZ 0000000180062700 f i libucrtd:output.obj
 0001:00061720       ??1?$output_adapter_data@DV?$string_output_adapter@D@__crt_stdio_output@@@__crt_stdio_output@@QEAA@XZ 0000000180062720 f i libucrtd:output.obj
 0001:00061740       ??1?$output_adapter_data@_WV?$stream_output_adapter@_W@__crt_stdio_output@@@__crt_stdio_output@@QEAA@XZ 0000000180062740 f i libucrtd:output.obj
 0001:00061760       ??1?$output_adapter_data@_WV?$string_output_adapter@_W@__crt_stdio_output@@@__crt_stdio_output@@QEAA@XZ 0000000180062760 f i libucrtd:output.obj
 0001:00061780       ??1?$output_processor@DV?$stream_output_adapter@D@__crt_stdio_output@@V?$format_validation_base@DV?$stream_output_adapter@D@__crt_stdio_output@@@2@@__crt_stdio_output@@QEAA@XZ 0000000180062780 f i libucrtd:output.obj
 0001:000617a0       ??1?$output_processor@DV?$stream_output_adapter@D@__crt_stdio_output@@V?$positional_parameter_base@DV?$stream_output_adapter@D@__crt_stdio_output@@@2@@__crt_stdio_output@@QEAA@XZ 00000001800627a0 f i libucrtd:output.obj
 0001:000617c0       ??1?$output_processor@DV?$stream_output_adapter@D@__crt_stdio_output@@V?$standard_base@DV?$stream_output_adapter@D@__crt_stdio_output@@@2@@__crt_stdio_output@@QEAA@XZ 00000001800627c0 f i libucrtd:output.obj
 0001:000617e0       ??1?$output_processor@DV?$string_output_adapter@D@__crt_stdio_output@@V?$format_validation_base@DV?$string_output_adapter@D@__crt_stdio_output@@@2@@__crt_stdio_output@@QEAA@XZ 00000001800627e0 f i libucrtd:output.obj
 0001:00061800       ??1?$output_processor@DV?$string_output_adapter@D@__crt_stdio_output@@V?$positional_parameter_base@DV?$string_output_adapter@D@__crt_stdio_output@@@2@@__crt_stdio_output@@QEAA@XZ 0000000180062800 f i libucrtd:output.obj
 0001:00061820       ??1?$output_processor@DV?$string_output_adapter@D@__crt_stdio_output@@V?$standard_base@DV?$string_output_adapter@D@__crt_stdio_output@@@2@@__crt_stdio_output@@QEAA@XZ 0000000180062820 f i libucrtd:output.obj
 0001:00061840       ??1?$output_processor@_WV?$stream_output_adapter@_W@__crt_stdio_output@@V?$format_validation_base@_WV?$stream_output_adapter@_W@__crt_stdio_output@@@2@@__crt_stdio_output@@QEAA@XZ 0000000180062840 f i libucrtd:output.obj
 0001:00061860       ??1?$output_processor@_WV?$stream_output_adapter@_W@__crt_stdio_output@@V?$positional_parameter_base@_WV?$stream_output_adapter@_W@__crt_stdio_output@@@2@@__crt_stdio_output@@QEAA@XZ 0000000180062860 f i libucrtd:output.obj
 0001:00061880       ??1?$output_processor@_WV?$stream_output_adapter@_W@__crt_stdio_output@@V?$standard_base@_WV?$stream_output_adapter@_W@__crt_stdio_output@@@2@@__crt_stdio_output@@QEAA@XZ 0000000180062880 f i libucrtd:output.obj
 0001:000618a0       ??1?$output_processor@_WV?$string_output_adapter@_W@__crt_stdio_output@@V?$format_validation_base@_WV?$string_output_adapter@_W@__crt_stdio_output@@@2@@__crt_stdio_output@@QEAA@XZ 00000001800628a0 f i libucrtd:output.obj
 0001:000618c0       ??1?$output_processor@_WV?$string_output_adapter@_W@__crt_stdio_output@@V?$positional_parameter_base@_WV?$string_output_adapter@_W@__crt_stdio_output@@@2@@__crt_stdio_output@@QEAA@XZ 00000001800628c0 f i libucrtd:output.obj
 0001:000618e0       ??1?$output_processor@_WV?$string_output_adapter@_W@__crt_stdio_output@@V?$standard_base@_WV?$string_output_adapter@_W@__crt_stdio_output@@@2@@__crt_stdio_output@@QEAA@XZ 00000001800628e0 f i libucrtd:output.obj
 0001:00061900       ??1?$positional_parameter_base@DV?$stream_output_adapter@D@__crt_stdio_output@@@__crt_stdio_output@@QEAA@XZ 0000000180062900 f i libucrtd:output.obj
 0001:00061920       ??1?$positional_parameter_base@DV?$string_output_adapter@D@__crt_stdio_output@@@__crt_stdio_output@@QEAA@XZ 0000000180062920 f i libucrtd:output.obj
 0001:00061940       ??1?$positional_parameter_base@_WV?$stream_output_adapter@_W@__crt_stdio_output@@@__crt_stdio_output@@QEAA@XZ 0000000180062940 f i libucrtd:output.obj
 0001:00061960       ??1?$positional_parameter_base@_WV?$string_output_adapter@_W@__crt_stdio_output@@@__crt_stdio_output@@QEAA@XZ 0000000180062960 f i libucrtd:output.obj
 0001:00061980       ??1?$standard_base@DV?$stream_output_adapter@D@__crt_stdio_output@@@__crt_stdio_output@@QEAA@XZ 0000000180062980 f i libucrtd:output.obj
 0001:000619a0       ??1?$standard_base@DV?$string_output_adapter@D@__crt_stdio_output@@@__crt_stdio_output@@QEAA@XZ 00000001800629a0 f i libucrtd:output.obj
 0001:000619c0       ??1?$standard_base@_WV?$stream_output_adapter@_W@__crt_stdio_output@@@__crt_stdio_output@@QEAA@XZ 00000001800629c0 f i libucrtd:output.obj
 0001:000619e0       ??1?$standard_base@_WV?$string_output_adapter@_W@__crt_stdio_output@@@__crt_stdio_output@@QEAA@XZ 00000001800629e0 f i libucrtd:output.obj
 0001:00061a00       ??1_LocaleUpdate@@QEAA@XZ  0000000180062a00 f i libucrtd:output.obj
 0001:00061a30       ??1__acrt_stdio_temporary_buffering_guard@@QEAA@XZ 0000000180062a30 f i libucrtd:output.obj
 0001:00061a60       ??1__crt_errno_guard@@QEAA@XZ 0000000180062a60 f i libucrtd:output.obj
 0001:00061a90       ??1formatting_buffer@__crt_stdio_output@@QEAA@XZ 0000000180062a90 f i libucrtd:output.obj
 0001:00061ac0       ??4?$__crt_unique_heap_ptr@DU__crt_internal_free_policy@@@@QEAAAEAV0@$$QEAV0@@Z 0000000180062ac0 f i libucrtd:output.obj
 0001:00061b00       ??A?$spectre_mitigated_lookup_table@Ustate_transition_pair@__crt_stdio_output@@$0IA@@__crt_stdio_output@@QEBAAEBUstate_transition_pair@1@_K@Z 0000000180062b00 f i libucrtd:output.obj
 0001:00061b20       ??C__crt_stdio_stream@@QEBAPEAU__crt_stdio_stream_data@@XZ 0000000180062b20 f i libucrtd:output.obj
 0001:000623d0       ?GetLocaleT@_LocaleUpdate@@QEAAPEAU__crt_locale_pointers@@XZ 00000001800633d0 f i libucrtd:output.obj
 0001:000623e0       ?__crt_interlocked_read_32@@YAHPEDH@Z 00000001800633e0 f i libucrtd:output.obj
 0001:00062400       ?adjust_hexit@?$output_processor@DV?$stream_output_adapter@D@__crt_stdio_output@@V?$format_validation_base@DV?$stream_output_adapter@D@__crt_stdio_output@@@2@@__crt_stdio_output@@CADH_N@Z 0000000180063400 f i libucrtd:output.obj
 0001:00062450       ?adjust_hexit@?$output_processor@DV?$stream_output_adapter@D@__crt_stdio_output@@V?$positional_parameter_base@DV?$stream_output_adapter@D@__crt_stdio_output@@@2@@__crt_stdio_output@@CADH_N@Z 0000000180063450 f i libucrtd:output.obj
 0001:000624a0       ?adjust_hexit@?$output_processor@DV?$stream_output_adapter@D@__crt_stdio_output@@V?$standard_base@DV?$stream_output_adapter@D@__crt_stdio_output@@@2@@__crt_stdio_output@@CADH_N@Z 00000001800634a0 f i libucrtd:output.obj
 0001:000624f0       ?adjust_hexit@?$output_processor@DV?$string_output_adapter@D@__crt_stdio_output@@V?$format_validation_base@DV?$string_output_adapter@D@__crt_stdio_output@@@2@@__crt_stdio_output@@CADH_N@Z 00000001800634f0 f i libucrtd:output.obj
 0001:00062540       ?adjust_hexit@?$output_processor@DV?$string_output_adapter@D@__crt_stdio_output@@V?$positional_parameter_base@DV?$string_output_adapter@D@__crt_stdio_output@@@2@@__crt_stdio_output@@CADH_N@Z 0000000180063540 f i libucrtd:output.obj
 0001:00062590       ?adjust_hexit@?$output_processor@DV?$string_output_adapter@D@__crt_stdio_output@@V?$standard_base@DV?$string_output_adapter@D@__crt_stdio_output@@@2@@__crt_stdio_output@@CADH_N@Z 0000000180063590 f i libucrtd:output.obj
 0001:000625e0       ?adjust_hexit@?$output_processor@_WV?$stream_output_adapter@_W@__crt_stdio_output@@V?$format_validation_base@_WV?$stream_output_adapter@_W@__crt_stdio_output@@@2@@__crt_stdio_output@@CADH_N@Z 00000001800635e0 f i libucrtd:output.obj
 0001:00062630       ?adjust_hexit@?$output_processor@_WV?$stream_output_adapter@_W@__crt_stdio_output@@V?$positional_parameter_base@_WV?$stream_output_adapter@_W@__crt_stdio_output@@@2@@__crt_stdio_output@@CADH_N@Z 0000000180063630 f i libucrtd:output.obj
 0001:00062680       ?adjust_hexit@?$output_processor@_WV?$stream_output_adapter@_W@__crt_stdio_output@@V?$standard_base@_WV?$stream_output_adapter@_W@__crt_stdio_output@@@2@@__crt_stdio_output@@CADH_N@Z 0000000180063680 f i libucrtd:output.obj
 0001:000626d0       ?adjust_hexit@?$output_processor@_WV?$string_output_adapter@_W@__crt_stdio_output@@V?$format_validation_base@_WV?$string_output_adapter@_W@__crt_stdio_output@@@2@@__crt_stdio_output@@CADH_N@Z 00000001800636d0 f i libucrtd:output.obj
 0001:00062720       ?adjust_hexit@?$output_processor@_WV?$string_output_adapter@_W@__crt_stdio_output@@V?$positional_parameter_base@_WV?$string_output_adapter@_W@__crt_stdio_output@@@2@@__crt_stdio_output@@CADH_N@Z 0000000180063720 f i libucrtd:output.obj
 0001:00062770       ?adjust_hexit@?$output_processor@_WV?$string_output_adapter@_W@__crt_stdio_output@@V?$standard_base@_WV?$string_output_adapter@_W@__crt_stdio_output@@@2@@__crt_stdio_output@@CADH_N@Z 0000000180063770 f i libucrtd:output.obj
 0001:000627c0       ?advance_to_next_pass@?$positional_parameter_base@DV?$stream_output_adapter@D@__crt_stdio_output@@@__crt_stdio_output@@IEAA_NXZ 00000001800637c0 f i libucrtd:output.obj
 0001:00062870       ?advance_to_next_pass@?$positional_parameter_base@DV?$string_output_adapter@D@__crt_stdio_output@@@__crt_stdio_output@@IEAA_NXZ 0000000180063870 f i libucrtd:output.obj
 0001:00062920       ?advance_to_next_pass@?$positional_parameter_base@_WV?$stream_output_adapter@_W@__crt_stdio_output@@@__crt_stdio_output@@IEAA_NXZ 0000000180063920 f i libucrtd:output.obj
 0001:000629d0       ?advance_to_next_pass@?$positional_parameter_base@_WV?$string_output_adapter@_W@__crt_stdio_output@@@__crt_stdio_output@@IEAA_NXZ 00000001800639d0 f i libucrtd:output.obj
 0001:00062a80       ?advance_to_next_pass@?$standard_base@DV?$stream_output_adapter@D@__crt_stdio_output@@@__crt_stdio_output@@IEAA_NXZ 0000000180063a80 f i libucrtd:output.obj
 0001:00062ad0       ?advance_to_next_pass@?$standard_base@DV?$string_output_adapter@D@__crt_stdio_output@@@__crt_stdio_output@@IEAA_NXZ 0000000180063ad0 f i libucrtd:output.obj
 0001:00062b20       ?advance_to_next_pass@?$standard_base@_WV?$stream_output_adapter@_W@__crt_stdio_output@@@__crt_stdio_output@@IEAA_NXZ 0000000180063b20 f i libucrtd:output.obj
 0001:00062b70       ?advance_to_next_pass@?$standard_base@_WV?$string_output_adapter@_W@__crt_stdio_output@@@__crt_stdio_output@@IEAA_NXZ 0000000180063b70 f i libucrtd:output.obj
 0001:00062bc0       ?crop_zeroes@__crt_stdio_output@@YAXPEADQEAU__crt_locale_pointers@@@Z 0000000180063bc0 f i libucrtd:output.obj
 0001:00062d00       ?find_next_state@?$output_processor@DV?$stream_output_adapter@D@__crt_stdio_output@@V?$format_validation_base@DV?$stream_output_adapter@D@__crt_stdio_output@@@2@@__crt_stdio_output@@AEBA?AW4state@2@DW432@@Z 0000000180063d00 f i libucrtd:output.obj
 0001:00062d90       ?find_next_state@?$output_processor@DV?$stream_output_adapter@D@__crt_stdio_output@@V?$positional_parameter_base@DV?$stream_output_adapter@D@__crt_stdio_output@@@2@@__crt_stdio_output@@AEBA?AW4state@2@DW432@@Z 0000000180063d90 f i libucrtd:output.obj
 0001:00062e20       ?find_next_state@?$output_processor@DV?$stream_output_adapter@D@__crt_stdio_output@@V?$standard_base@DV?$stream_output_adapter@D@__crt_stdio_output@@@2@@__crt_stdio_output@@AEBA?AW4state@2@DW432@@Z 0000000180063e20 f i libucrtd:output.obj
 0001:00062eb0       ?find_next_state@?$output_processor@DV?$string_output_adapter@D@__crt_stdio_output@@V?$format_validation_base@DV?$string_output_adapter@D@__crt_stdio_output@@@2@@__crt_stdio_output@@AEBA?AW4state@2@DW432@@Z 0000000180063eb0 f i libucrtd:output.obj
 0001:00062f40       ?find_next_state@?$output_processor@DV?$string_output_adapter@D@__crt_stdio_output@@V?$positional_parameter_base@DV?$string_output_adapter@D@__crt_stdio_output@@@2@@__crt_stdio_output@@AEBA?AW4state@2@DW432@@Z 0000000180063f40 f i libucrtd:output.obj
 0001:00062fd0       ?find_next_state@?$output_processor@DV?$string_output_adapter@D@__crt_stdio_output@@V?$standard_base@DV?$string_output_adapter@D@__crt_stdio_output@@@2@@__crt_stdio_output@@AEBA?AW4state@2@DW432@@Z 0000000180063fd0 f i libucrtd:output.obj
 0001:00063060       ?find_next_state@?$output_processor@_WV?$stream_output_adapter@_W@__crt_stdio_output@@V?$format_validation_base@_WV?$stream_output_adapter@_W@__crt_stdio_output@@@2@@__crt_stdio_output@@AEBA?AW4state@2@_WW432@@Z 0000000180064060 f i libucrtd:output.obj
 0001:000630f0       ?find_next_state@?$output_processor@_WV?$stream_output_adapter@_W@__crt_stdio_output@@V?$positional_parameter_base@_WV?$stream_output_adapter@_W@__crt_stdio_output@@@2@@__crt_stdio_output@@AEBA?AW4state@2@_WW432@@Z 00000001800640f0 f i libucrtd:output.obj
 0001:00063180       ?find_next_state@?$output_processor@_WV?$stream_output_adapter@_W@__crt_stdio_output@@V?$standard_base@_WV?$stream_output_adapter@_W@__crt_stdio_output@@@2@@__crt_stdio_output@@AEBA?AW4state@2@_WW432@@Z 0000000180064180 f i libucrtd:output.obj
 0001:00063210       ?find_next_state@?$output_processor@_WV?$string_output_adapter@_W@__crt_stdio_output@@V?$format_validation_base@_WV?$string_output_adapter@_W@__crt_stdio_output@@@2@@__crt_stdio_output@@AEBA?AW4state@2@_WW432@@Z 0000000180064210 f i libucrtd:output.obj
 0001:000632a0       ?find_next_state@?$output_processor@_WV?$string_output_adapter@_W@__crt_stdio_output@@V?$positional_parameter_base@_WV?$string_output_adapter@_W@__crt_stdio_output@@@2@@__crt_stdio_output@@AEBA?AW4state@2@_WW432@@Z 00000001800642a0 f i libucrtd:output.obj
 0001:00063330       ?find_next_state@?$output_processor@_WV?$string_output_adapter@_W@__crt_stdio_output@@V?$standard_base@_WV?$string_output_adapter@_W@__crt_stdio_output@@@2@@__crt_stdio_output@@AEBA?AW4state@2@_WW432@@Z 0000000180064330 f i libucrtd:output.obj
 0001:000633c0       ?force_decimal_point@__crt_stdio_output@@YAXPEADQEAU__crt_locale_pointers@@@Z 00000001800643c0 f i libucrtd:output.obj
 0001:000634c0       ?get@__crt_deferred_errno_cache@@QEAAAEAHXZ 00000001800644c0 f i libucrtd:output.obj
 0001:000634f0       ?get_flags@__crt_stdio_stream@@QEBAJXZ 00000001800644f0 f i libucrtd:output.obj
 0001:00063520       ?get_parameter_type@?$positional_parameter_base@DV?$stream_output_adapter@D@__crt_stdio_output@@@__crt_stdio_output@@CA?AW4parameter_type@12@F@Z 0000000180064520 f i libucrtd:output.obj
 0001:00063530       ?get_parameter_type@?$positional_parameter_base@DV?$stream_output_adapter@D@__crt_stdio_output@@@__crt_stdio_output@@CA?AW4parameter_type@12@G@Z 0000000180064530 f i libucrtd:output.obj
 0001:00063540       ?get_parameter_type@?$positional_parameter_base@DV?$stream_output_adapter@D@__crt_stdio_output@@@__crt_stdio_output@@CA?AW4parameter_type@12@H@Z 0000000180064540 f i libucrtd:output.obj
 0001:00063550       ?get_parameter_type@?$positional_parameter_base@DV?$stream_output_adapter@D@__crt_stdio_output@@@__crt_stdio_output@@CA?AW4parameter_type@12@I@Z 0000000180064550 f i libucrtd:output.obj
 0001:00063560       ?get_parameter_type@?$positional_parameter_base@DV?$stream_output_adapter@D@__crt_stdio_output@@@__crt_stdio_output@@CA?AW4parameter_type@12@U_CRT_DOUBLE@@@Z 0000000180064560 f i libucrtd:output.obj
 0001:00063570       ?get_parameter_type@?$positional_parameter_base@DV?$stream_output_adapter@D@__crt_stdio_output@@@__crt_stdio_output@@CA?AW4parameter_type@12@_J@Z 0000000180064570 f i libucrtd:output.obj
 0001:00063580       ?get_parameter_type@?$positional_parameter_base@DV?$stream_output_adapter@D@__crt_stdio_output@@@__crt_stdio_output@@CA?AW4parameter_type@12@_K@Z 0000000180064580 f i libucrtd:output.obj
 0001:00063590       ?get_parameter_type@?$positional_parameter_base@DV?$stream_output_adapter@D@__crt_stdio_output@@@__crt_stdio_output@@CA?AW4parameter_type@12@_W@Z 0000000180064590 f i libucrtd:output.obj
 0001:000635a0       ?get_parameter_type@?$positional_parameter_base@DV?$string_output_adapter@D@__crt_stdio_output@@@__crt_stdio_output@@CA?AW4parameter_type@12@F@Z 00000001800645a0 f i libucrtd:output.obj
 0001:000635b0       ?get_parameter_type@?$positional_parameter_base@DV?$string_output_adapter@D@__crt_stdio_output@@@__crt_stdio_output@@CA?AW4parameter_type@12@G@Z 00000001800645b0 f i libucrtd:output.obj
 0001:000635c0       ?get_parameter_type@?$positional_parameter_base@DV?$string_output_adapter@D@__crt_stdio_output@@@__crt_stdio_output@@CA?AW4parameter_type@12@H@Z 00000001800645c0 f i libucrtd:output.obj
 0001:000635d0       ?get_parameter_type@?$positional_parameter_base@DV?$string_output_adapter@D@__crt_stdio_output@@@__crt_stdio_output@@CA?AW4parameter_type@12@I@Z 00000001800645d0 f i libucrtd:output.obj
 0001:000635e0       ?get_parameter_type@?$positional_parameter_base@DV?$string_output_adapter@D@__crt_stdio_output@@@__crt_stdio_output@@CA?AW4parameter_type@12@U_CRT_DOUBLE@@@Z 00000001800645e0 f i libucrtd:output.obj
 0001:000635f0       ?get_parameter_type@?$positional_parameter_base@DV?$string_output_adapter@D@__crt_stdio_output@@@__crt_stdio_output@@CA?AW4parameter_type@12@_J@Z 00000001800645f0 f i libucrtd:output.obj
 0001:00063600       ?get_parameter_type@?$positional_parameter_base@DV?$string_output_adapter@D@__crt_stdio_output@@@__crt_stdio_output@@CA?AW4parameter_type@12@_K@Z 0000000180064600 f i libucrtd:output.obj
 0001:00063610       ?get_parameter_type@?$positional_parameter_base@DV?$string_output_adapter@D@__crt_stdio_output@@@__crt_stdio_output@@CA?AW4parameter_type@12@_W@Z 0000000180064610 f i libucrtd:output.obj
 0001:00063620       ?get_parameter_type@?$positional_parameter_base@_WV?$stream_output_adapter@_W@__crt_stdio_output@@@__crt_stdio_output@@CA?AW4parameter_type@12@F@Z 0000000180064620 f i libucrtd:output.obj
 0001:00063630       ?get_parameter_type@?$positional_parameter_base@_WV?$stream_output_adapter@_W@__crt_stdio_output@@@__crt_stdio_output@@CA?AW4parameter_type@12@G@Z 0000000180064630 f i libucrtd:output.obj
 0001:00063640       ?get_parameter_type@?$positional_parameter_base@_WV?$stream_output_adapter@_W@__crt_stdio_output@@@__crt_stdio_output@@CA?AW4parameter_type@12@H@Z 0000000180064640 f i libucrtd:output.obj
 0001:00063650       ?get_parameter_type@?$positional_parameter_base@_WV?$stream_output_adapter@_W@__crt_stdio_output@@@__crt_stdio_output@@CA?AW4parameter_type@12@I@Z 0000000180064650 f i libucrtd:output.obj
 0001:00063660       ?get_parameter_type@?$positional_parameter_base@_WV?$stream_output_adapter@_W@__crt_stdio_output@@@__crt_stdio_output@@CA?AW4parameter_type@12@U_CRT_DOUBLE@@@Z 0000000180064660 f i libucrtd:output.obj
 0001:00063670       ?get_parameter_type@?$positional_parameter_base@_WV?$stream_output_adapter@_W@__crt_stdio_output@@@__crt_stdio_output@@CA?AW4parameter_type@12@_J@Z 0000000180064670 f i libucrtd:output.obj
 0001:00063680       ?get_parameter_type@?$positional_parameter_base@_WV?$stream_output_adapter@_W@__crt_stdio_output@@@__crt_stdio_output@@CA?AW4parameter_type@12@_K@Z 0000000180064680 f i libucrtd:output.obj
 0001:00063690       ?get_parameter_type@?$positional_parameter_base@_WV?$stream_output_adapter@_W@__crt_stdio_output@@@__crt_stdio_output@@CA?AW4parameter_type@12@_W@Z 0000000180064690 f i libucrtd:output.obj
 0001:000636a0       ?get_parameter_type@?$positional_parameter_base@_WV?$string_output_adapter@_W@__crt_stdio_output@@@__crt_stdio_output@@CA?AW4parameter_type@12@F@Z 00000001800646a0 f i libucrtd:output.obj
 0001:000636b0       ?get_parameter_type@?$positional_parameter_base@_WV?$string_output_adapter@_W@__crt_stdio_output@@@__crt_stdio_output@@CA?AW4parameter_type@12@G@Z 00000001800646b0 f i libucrtd:output.obj
 0001:000636c0       ?get_parameter_type@?$positional_parameter_base@_WV?$string_output_adapter@_W@__crt_stdio_output@@@__crt_stdio_output@@CA?AW4parameter_type@12@H@Z 00000001800646c0 f i libucrtd:output.obj
 0001:000636d0       ?get_parameter_type@?$positional_parameter_base@_WV?$string_output_adapter@_W@__crt_stdio_output@@@__crt_stdio_output@@CA?AW4parameter_type@12@I@Z 00000001800646d0 f i libucrtd:output.obj
 0001:000636e0       ?get_parameter_type@?$positional_parameter_base@_WV?$string_output_adapter@_W@__crt_stdio_output@@@__crt_stdio_output@@CA?AW4parameter_type@12@U_CRT_DOUBLE@@@Z 00000001800646e0 f i libucrtd:output.obj
 0001:000636f0       ?get_parameter_type@?$positional_parameter_base@_WV?$string_output_adapter@_W@__crt_stdio_output@@@__crt_stdio_output@@CA?AW4parameter_type@12@_J@Z 00000001800646f0 f i libucrtd:output.obj
 0001:00063700       ?get_parameter_type@?$positional_parameter_base@_WV?$string_output_adapter@_W@__crt_stdio_output@@@__crt_stdio_output@@CA?AW4parameter_type@12@_K@Z 0000000180064700 f i libucrtd:output.obj
 0001:00063710       ?get_parameter_type@?$positional_parameter_base@_WV?$string_output_adapter@_W@__crt_stdio_output@@@__crt_stdio_output@@CA?AW4parameter_type@12@_W@Z 0000000180064710 f i libucrtd:output.obj
 0001:00063720       ?has_flag@?$output_processor@DV?$stream_output_adapter@D@__crt_stdio_output@@V?$format_validation_base@DV?$stream_output_adapter@D@__crt_stdio_output@@@2@@__crt_stdio_output@@AEBA_NI@Z 0000000180064720 f i libucrtd:output.obj
 0001:00063760       ?has_flag@?$output_processor@DV?$stream_output_adapter@D@__crt_stdio_output@@V?$positional_parameter_base@DV?$stream_output_adapter@D@__crt_stdio_output@@@2@@__crt_stdio_output@@AEBA_NI@Z 0000000180064760 f i libucrtd:output.obj
 0001:000637a0       ?has_flag@?$output_processor@DV?$stream_output_adapter@D@__crt_stdio_output@@V?$standard_base@DV?$stream_output_adapter@D@__crt_stdio_output@@@2@@__crt_stdio_output@@AEBA_NI@Z 00000001800647a0 f i libucrtd:output.obj
 0001:000637e0       ?has_flag@?$output_processor@DV?$string_output_adapter@D@__crt_stdio_output@@V?$format_validation_base@DV?$string_output_adapter@D@__crt_stdio_output@@@2@@__crt_stdio_output@@AEBA_NI@Z 00000001800647e0 f i libucrtd:output.obj
 0001:00063820       ?has_flag@?$output_processor@DV?$string_output_adapter@D@__crt_stdio_output@@V?$positional_parameter_base@DV?$string_output_adapter@D@__crt_stdio_output@@@2@@__crt_stdio_output@@AEBA_NI@Z 0000000180064820 f i libucrtd:output.obj
 0001:00063860       ?has_flag@?$output_processor@DV?$string_output_adapter@D@__crt_stdio_output@@V?$standard_base@DV?$string_output_adapter@D@__crt_stdio_output@@@2@@__crt_stdio_output@@AEBA_NI@Z 0000000180064860 f i libucrtd:output.obj
 0001:000638a0       ?has_flag@?$output_processor@_WV?$stream_output_adapter@_W@__crt_stdio_output@@V?$format_validation_base@_WV?$stream_output_adapter@_W@__crt_stdio_output@@@2@@__crt_stdio_output@@AEBA_NI@Z 00000001800648a0 f i libucrtd:output.obj
 0001:000638e0       ?has_flag@?$output_processor@_WV?$stream_output_adapter@_W@__crt_stdio_output@@V?$positional_parameter_base@_WV?$stream_output_adapter@_W@__crt_stdio_output@@@2@@__crt_stdio_output@@AEBA_NI@Z 00000001800648e0 f i libucrtd:output.obj
 0001:00063920       ?has_flag@?$output_processor@_WV?$stream_output_adapter@_W@__crt_stdio_output@@V?$standard_base@_WV?$stream_output_adapter@_W@__crt_stdio_output@@@2@@__crt_stdio_output@@AEBA_NI@Z 0000000180064920 f i libucrtd:output.obj
 0001:00063960       ?has_flag@?$output_processor@_WV?$string_output_adapter@_W@__crt_stdio_output@@V?$format_validation_base@_WV?$string_output_adapter@_W@__crt_stdio_output@@@2@@__crt_stdio_output@@AEBA_NI@Z 0000000180064960 f i libucrtd:output.obj
 0001:000639a0       ?has_flag@?$output_processor@_WV?$string_output_adapter@_W@__crt_stdio_output@@V?$positional_parameter_base@_WV?$string_output_adapter@_W@__crt_stdio_output@@@2@@__crt_stdio_output@@AEBA_NI@Z 00000001800649a0 f i libucrtd:output.obj
 0001:000639e0       ?has_flag@?$output_processor@_WV?$string_output_adapter@_W@__crt_stdio_output@@V?$standard_base@_WV?$string_output_adapter@_W@__crt_stdio_output@@@2@@__crt_stdio_output@@AEBA_NI@Z 00000001800649e0 f i libucrtd:output.obj
 0001:00063a20       ?is_positional_parameter_reappearance_consistent@?$positional_parameter_base@DV?$stream_output_adapter@D@__crt_stdio_output@@@__crt_stdio_output@@AEAA_NAEBUparameter_data@12@W4parameter_type@12@DW4length_modifier@2@@Z 0000000180064a20 f i libucrtd:output.obj
 0001:00063c80       ?is_positional_parameter_reappearance_consistent@?$positional_parameter_base@DV?$string_output_adapter@D@__crt_stdio_output@@@__crt_stdio_output@@AEAA_NAEBUparameter_data@12@W4parameter_type@12@DW4length_modifier@2@@Z 0000000180064c80 f i libucrtd:output.obj
 0001:00063ee0       ?is_positional_parameter_reappearance_consistent@?$positional_parameter_base@_WV?$stream_output_adapter@_W@__crt_stdio_output@@@__crt_stdio_output@@AEAA_NAEBUparameter_data@12@W4parameter_type@12@_WW4length_modifier@2@@Z 0000000180064ee0 f i libucrtd:output.obj
 0001:00064140       ?is_positional_parameter_reappearance_consistent@?$positional_parameter_base@_WV?$string_output_adapter@_W@__crt_stdio_output@@@__crt_stdio_output@@AEAA_NAEBUparameter_data@12@W4parameter_type@12@_WW4length_modifier@2@@Z 0000000180065140 f i libucrtd:output.obj
 0001:000643a0       ?is_string_backed@__crt_stdio_stream@@QEBA_NXZ 00000001800653a0 f i libucrtd:output.obj
 0001:000643e0       ?narrow_null_string@?$output_processor@DV?$stream_output_adapter@D@__crt_stdio_output@@V?$format_validation_base@DV?$stream_output_adapter@D@__crt_stdio_output@@@2@@__crt_stdio_output@@CAPEADXZ 00000001800653e0 f i libucrtd:output.obj
 0001:000643f0       ?narrow_null_string@?$output_processor@DV?$stream_output_adapter@D@__crt_stdio_output@@V?$positional_parameter_base@DV?$stream_output_adapter@D@__crt_stdio_output@@@2@@__crt_stdio_output@@CAPEADXZ 00000001800653f0 f i libucrtd:output.obj
 0001:00064400       ?narrow_null_string@?$output_processor@DV?$stream_output_adapter@D@__crt_stdio_output@@V?$standard_base@DV?$stream_output_adapter@D@__crt_stdio_output@@@2@@__crt_stdio_output@@CAPEADXZ 0000000180065400 f i libucrtd:output.obj
 0001:00064410       ?narrow_null_string@?$output_processor@DV?$string_output_adapter@D@__crt_stdio_output@@V?$format_validation_base@DV?$string_output_adapter@D@__crt_stdio_output@@@2@@__crt_stdio_output@@CAPEADXZ 0000000180065410 f i libucrtd:output.obj
 0001:00064420       ?narrow_null_string@?$output_processor@DV?$string_output_adapter@D@__crt_stdio_output@@V?$positional_parameter_base@DV?$string_output_adapter@D@__crt_stdio_output@@@2@@__crt_stdio_output@@CAPEADXZ 0000000180065420 f i libucrtd:output.obj
 0001:00064430       ?narrow_null_string@?$output_processor@DV?$string_output_adapter@D@__crt_stdio_output@@V?$standard_base@DV?$string_output_adapter@D@__crt_stdio_output@@@2@@__crt_stdio_output@@CAPEADXZ 0000000180065430 f i libucrtd:output.obj
 0001:00064440       ?narrow_null_string@?$output_processor@_WV?$stream_output_adapter@_W@__crt_stdio_output@@V?$format_validation_base@_WV?$stream_output_adapter@_W@__crt_stdio_output@@@2@@__crt_stdio_output@@CAPEADXZ 0000000180065440 f i libucrtd:output.obj
 0001:00064450       ?narrow_null_string@?$output_processor@_WV?$stream_output_adapter@_W@__crt_stdio_output@@V?$positional_parameter_base@_WV?$stream_output_adapter@_W@__crt_stdio_output@@@2@@__crt_stdio_output@@CAPEADXZ 0000000180065450 f i libucrtd:output.obj
 0001:00064460       ?narrow_null_string@?$output_processor@_WV?$stream_output_adapter@_W@__crt_stdio_output@@V?$standard_base@_WV?$stream_output_adapter@_W@__crt_stdio_output@@@2@@__crt_stdio_output@@CAPEADXZ 0000000180065460 f i libucrtd:output.obj
 0001:00064470       ?narrow_null_string@?$output_processor@_WV?$string_output_adapter@_W@__crt_stdio_output@@V?$format_validation_base@_WV?$string_output_adapter@_W@__crt_stdio_output@@@2@@__crt_stdio_output@@CAPEADXZ 0000000180065470 f i libucrtd:output.obj
 0001:00064480       ?narrow_null_string@?$output_processor@_WV?$string_output_adapter@_W@__crt_stdio_output@@V?$positional_parameter_base@_WV?$string_output_adapter@_W@__crt_stdio_output@@@2@@__crt_stdio_output@@CAPEADXZ 0000000180065480 f i libucrtd:output.obj
 0001:00064490       ?narrow_null_string@?$output_processor@_WV?$string_output_adapter@_W@__crt_stdio_output@@V?$standard_base@_WV?$string_output_adapter@_W@__crt_stdio_output@@@2@@__crt_stdio_output@@CAPEADXZ 0000000180065490 f i libucrtd:output.obj
 0001:000644a0       ?parse_int_from_format_string@?$output_processor@DV?$stream_output_adapter@D@__crt_stdio_output@@V?$format_validation_base@DV?$stream_output_adapter@D@__crt_stdio_output@@@2@@__crt_stdio_output@@AEAA_NQEAH@Z 00000001800654a0 f i libucrtd:output.obj
 0001:00064590       ?parse_int_from_format_string@?$output_processor@DV?$stream_output_adapter@D@__crt_stdio_output@@V?$positional_parameter_base@DV?$stream_output_adapter@D@__crt_stdio_output@@@2@@__crt_stdio_output@@AEAA_NQEAH@Z 0000000180065590 f i libucrtd:output.obj
 0001:00064680       ?parse_int_from_format_string@?$output_processor@DV?$stream_output_adapter@D@__crt_stdio_output@@V?$standard_base@DV?$stream_output_adapter@D@__crt_stdio_output@@@2@@__crt_stdio_output@@AEAA_NQEAH@Z 0000000180065680 f i libucrtd:output.obj
 0001:00064770       ?parse_int_from_format_string@?$output_processor@DV?$string_output_adapter@D@__crt_stdio_output@@V?$format_validation_base@DV?$string_output_adapter@D@__crt_stdio_output@@@2@@__crt_stdio_output@@AEAA_NQEAH@Z 0000000180065770 f i libucrtd:output.obj
 0001:00064860       ?parse_int_from_format_string@?$output_processor@DV?$string_output_adapter@D@__crt_stdio_output@@V?$positional_parameter_base@DV?$string_output_adapter@D@__crt_stdio_output@@@2@@__crt_stdio_output@@AEAA_NQEAH@Z 0000000180065860 f i libucrtd:output.obj
 0001:00064950       ?parse_int_from_format_string@?$output_processor@DV?$string_output_adapter@D@__crt_stdio_output@@V?$standard_base@DV?$string_output_adapter@D@__crt_stdio_output@@@2@@__crt_stdio_output@@AEAA_NQEAH@Z 0000000180065950 f i libucrtd:output.obj
 0001:00064a40       ?parse_int_from_format_string@?$output_processor@_WV?$stream_output_adapter@_W@__crt_stdio_output@@V?$format_validation_base@_WV?$stream_output_adapter@_W@__crt_stdio_output@@@2@@__crt_stdio_output@@AEAA_NQEAH@Z 0000000180065a40 f i libucrtd:output.obj
 0001:00064b30       ?parse_int_from_format_string@?$output_processor@_WV?$stream_output_adapter@_W@__crt_stdio_output@@V?$positional_parameter_base@_WV?$stream_output_adapter@_W@__crt_stdio_output@@@2@@__crt_stdio_output@@AEAA_NQEAH@Z 0000000180065b30 f i libucrtd:output.obj
 0001:00064c20       ?parse_int_from_format_string@?$output_processor@_WV?$stream_output_adapter@_W@__crt_stdio_output@@V?$standard_base@_WV?$stream_output_adapter@_W@__crt_stdio_output@@@2@@__crt_stdio_output@@AEAA_NQEAH@Z 0000000180065c20 f i libucrtd:output.obj
 0001:00064d10       ?parse_int_from_format_string@?$output_processor@_WV?$string_output_adapter@_W@__crt_stdio_output@@V?$format_validation_base@_WV?$string_output_adapter@_W@__crt_stdio_output@@@2@@__crt_stdio_output@@AEAA_NQEAH@Z 0000000180065d10 f i libucrtd:output.obj
 0001:00064e00       ?parse_int_from_format_string@?$output_processor@_WV?$string_output_adapter@_W@__crt_stdio_output@@V?$positional_parameter_base@_WV?$string_output_adapter@_W@__crt_stdio_output@@@2@@__crt_stdio_output@@AEAA_NQEAH@Z 0000000180065e00 f i libucrtd:output.obj
 0001:00064ef0       ?parse_int_from_format_string@?$output_processor@_WV?$string_output_adapter@_W@__crt_stdio_output@@V?$standard_base@_WV?$string_output_adapter@_W@__crt_stdio_output@@@2@@__crt_stdio_output@@AEAA_NQEAH@Z 0000000180065ef0 f i libucrtd:output.obj
 0001:00064fe0       ?process@?$output_processor@DV?$stream_output_adapter@D@__crt_stdio_output@@V?$format_validation_base@DV?$stream_output_adapter@D@__crt_stdio_output@@@2@@__crt_stdio_output@@QEAAHXZ 0000000180065fe0 f i libucrtd:output.obj
 0001:00065340       ?process@?$output_processor@DV?$stream_output_adapter@D@__crt_stdio_output@@V?$positional_parameter_base@DV?$stream_output_adapter@D@__crt_stdio_output@@@2@@__crt_stdio_output@@QEAAHXZ 0000000180066340 f i libucrtd:output.obj
 0001:000656a0       ?process@?$output_processor@DV?$stream_output_adapter@D@__crt_stdio_output@@V?$standard_base@DV?$stream_output_adapter@D@__crt_stdio_output@@@2@@__crt_stdio_output@@QEAAHXZ 00000001800666a0 f i libucrtd:output.obj
 0001:00065a00       ?process@?$output_processor@DV?$string_output_adapter@D@__crt_stdio_output@@V?$format_validation_base@DV?$string_output_adapter@D@__crt_stdio_output@@@2@@__crt_stdio_output@@QEAAHXZ 0000000180066a00 f i libucrtd:output.obj
 0001:00065d60       ?process@?$output_processor@DV?$string_output_adapter@D@__crt_stdio_output@@V?$positional_parameter_base@DV?$string_output_adapter@D@__crt_stdio_output@@@2@@__crt_stdio_output@@QEAAHXZ 0000000180066d60 f i libucrtd:output.obj
 0001:000660c0       ?process@?$output_processor@DV?$string_output_adapter@D@__crt_stdio_output@@V?$standard_base@DV?$string_output_adapter@D@__crt_stdio_output@@@2@@__crt_stdio_output@@QEAAHXZ 00000001800670c0 f i libucrtd:output.obj
 0001:00066420       ?process@?$output_processor@_WV?$stream_output_adapter@_W@__crt_stdio_output@@V?$format_validation_base@_WV?$stream_output_adapter@_W@__crt_stdio_output@@@2@@__crt_stdio_output@@QEAAHXZ 0000000180067420 f i libucrtd:output.obj
 0001:00066780       ?process@?$output_processor@_WV?$stream_output_adapter@_W@__crt_stdio_output@@V?$positional_parameter_base@_WV?$stream_output_adapter@_W@__crt_stdio_output@@@2@@__crt_stdio_output@@QEAAHXZ 0000000180067780 f i libucrtd:output.obj
 0001:00066ae0       ?process@?$output_processor@_WV?$stream_output_adapter@_W@__crt_stdio_output@@V?$standard_base@_WV?$stream_output_adapter@_W@__crt_stdio_output@@@2@@__crt_stdio_output@@QEAAHXZ 0000000180067ae0 f i libucrtd:output.obj
 0001:00066e40       ?process@?$output_processor@_WV?$string_output_adapter@_W@__crt_stdio_output@@V?$format_validation_base@_WV?$string_output_adapter@_W@__crt_stdio_output@@@2@@__crt_stdio_output@@QEAAHXZ 0000000180067e40 f i libucrtd:output.obj
 0001:000671a0       ?process@?$output_processor@_WV?$string_output_adapter@_W@__crt_stdio_output@@V?$positional_parameter_base@_WV?$string_output_adapter@_W@__crt_stdio_output@@@2@@__crt_stdio_output@@QEAAHXZ 00000001800681a0 f i libucrtd:output.obj
 0001:00067500       ?process@?$output_processor@_WV?$string_output_adapter@_W@__crt_stdio_output@@V?$standard_base@_WV?$string_output_adapter@_W@__crt_stdio_output@@@2@@__crt_stdio_output@@QEAAHXZ 0000000180068500 f i libucrtd:output.obj
 0001:00067860       ?public_stream@__crt_stdio_stream@@QEBAPEAU_iobuf@@XZ 0000000180068860 f i libucrtd:output.obj
 0001:00067870       ?set_flag@?$output_processor@DV?$stream_output_adapter@D@__crt_stdio_output@@V?$format_validation_base@DV?$stream_output_adapter@D@__crt_stdio_output@@@2@@__crt_stdio_output@@AEAAXI@Z 0000000180068870 f i libucrtd:output.obj
 0001:00067890       ?set_flag@?$output_processor@DV?$stream_output_adapter@D@__crt_stdio_output@@V?$positional_parameter_base@DV?$stream_output_adapter@D@__crt_stdio_output@@@2@@__crt_stdio_output@@AEAAXI@Z 0000000180068890 f i libucrtd:output.obj
 0001:000678b0       ?set_flag@?$output_processor@DV?$stream_output_adapter@D@__crt_stdio_output@@V?$standard_base@DV?$stream_output_adapter@D@__crt_stdio_output@@@2@@__crt_stdio_output@@AEAAXI@Z 00000001800688b0 f i libucrtd:output.obj
 0001:000678d0       ?set_flag@?$output_processor@DV?$string_output_adapter@D@__crt_stdio_output@@V?$format_validation_base@DV?$string_output_adapter@D@__crt_stdio_output@@@2@@__crt_stdio_output@@AEAAXI@Z 00000001800688d0 f i libucrtd:output.obj
 0001:000678f0       ?set_flag@?$output_processor@DV?$string_output_adapter@D@__crt_stdio_output@@V?$positional_parameter_base@DV?$string_output_adapter@D@__crt_stdio_output@@@2@@__crt_stdio_output@@AEAAXI@Z 00000001800688f0 f i libucrtd:output.obj
 0001:00067910       ?set_flag@?$output_processor@DV?$string_output_adapter@D@__crt_stdio_output@@V?$standard_base@DV?$string_output_adapter@D@__crt_stdio_output@@@2@@__crt_stdio_output@@AEAAXI@Z 0000000180068910 f i libucrtd:output.obj
 0001:00067930       ?set_flag@?$output_processor@_WV?$stream_output_adapter@_W@__crt_stdio_output@@V?$format_validation_base@_WV?$stream_output_adapter@_W@__crt_stdio_output@@@2@@__crt_stdio_output@@AEAAXI@Z 0000000180068930 f i libucrtd:output.obj
 0001:00067950       ?set_flag@?$output_processor@_WV?$stream_output_adapter@_W@__crt_stdio_output@@V?$positional_parameter_base@_WV?$stream_output_adapter@_W@__crt_stdio_output@@@2@@__crt_stdio_output@@AEAAXI@Z 0000000180068950 f i libucrtd:output.obj
 0001:00067970       ?set_flag@?$output_processor@_WV?$stream_output_adapter@_W@__crt_stdio_output@@V?$standard_base@_WV?$stream_output_adapter@_W@__crt_stdio_output@@@2@@__crt_stdio_output@@AEAAXI@Z 0000000180068970 f i libucrtd:output.obj
 0001:00067990       ?set_flag@?$output_processor@_WV?$string_output_adapter@_W@__crt_stdio_output@@V?$format_validation_base@_WV?$string_output_adapter@_W@__crt_stdio_output@@@2@@__crt_stdio_output@@AEAAXI@Z 0000000180068990 f i libucrtd:output.obj
 0001:000679b0       ?set_flag@?$output_processor@_WV?$string_output_adapter@_W@__crt_stdio_output@@V?$positional_parameter_base@_WV?$string_output_adapter@_W@__crt_stdio_output@@@2@@__crt_stdio_output@@AEAAXI@Z 00000001800689b0 f i libucrtd:output.obj
 0001:000679d0       ?set_flag@?$output_processor@_WV?$string_output_adapter@_W@__crt_stdio_output@@V?$standard_base@_WV?$string_output_adapter@_W@__crt_stdio_output@@@2@@__crt_stdio_output@@AEAAXI@Z 00000001800689d0 f i libucrtd:output.obj
 0001:000679f0       ?should_format@?$positional_parameter_base@DV?$stream_output_adapter@D@__crt_stdio_output@@@__crt_stdio_output@@IEAA_NXZ 00000001800689f0 f i libucrtd:output.obj
 0001:00067a30       ?should_format@?$positional_parameter_base@DV?$string_output_adapter@D@__crt_stdio_output@@@__crt_stdio_output@@IEAA_NXZ 0000000180068a30 f i libucrtd:output.obj
 0001:00067a70       ?should_format@?$positional_parameter_base@_WV?$stream_output_adapter@_W@__crt_stdio_output@@@__crt_stdio_output@@IEAA_NXZ 0000000180068a70 f i libucrtd:output.obj
 0001:00067ab0       ?should_format@?$positional_parameter_base@_WV?$string_output_adapter@_W@__crt_stdio_output@@@__crt_stdio_output@@IEAA_NXZ 0000000180068ab0 f i libucrtd:output.obj
 0001:00067af0       ?should_format@?$standard_base@DV?$stream_output_adapter@D@__crt_stdio_output@@@__crt_stdio_output@@IEAA_NXZ 0000000180068af0 f i libucrtd:output.obj
 0001:00067b00       ?should_format@?$standard_base@DV?$string_output_adapter@D@__crt_stdio_output@@@__crt_stdio_output@@IEAA_NXZ 0000000180068b00 f i libucrtd:output.obj
 0001:00067b10       ?should_format@?$standard_base@_WV?$stream_output_adapter@_W@__crt_stdio_output@@@__crt_stdio_output@@IEAA_NXZ 0000000180068b10 f i libucrtd:output.obj
 0001:00067b20       ?should_format@?$standard_base@_WV?$string_output_adapter@_W@__crt_stdio_output@@@__crt_stdio_output@@IEAA_NXZ 0000000180068b20 f i libucrtd:output.obj
 0001:00067b30       ?should_skip_normal_state_processing@?$positional_parameter_base@DV?$stream_output_adapter@D@__crt_stdio_output@@@__crt_stdio_output@@IEAA_NXZ 0000000180068b30 f i libucrtd:output.obj
 0001:00067b80       ?should_skip_normal_state_processing@?$positional_parameter_base@DV?$string_output_adapter@D@__crt_stdio_output@@@__crt_stdio_output@@IEAA_NXZ 0000000180068b80 f i libucrtd:output.obj
 0001:00067bd0       ?should_skip_normal_state_processing@?$positional_parameter_base@_WV?$stream_output_adapter@_W@__crt_stdio_output@@@__crt_stdio_output@@IEAA_NXZ 0000000180068bd0 f i libucrtd:output.obj
 0001:00067c20       ?should_skip_normal_state_processing@?$positional_parameter_base@_WV?$string_output_adapter@_W@__crt_stdio_output@@@__crt_stdio_output@@IEAA_NXZ 0000000180068c20 f i libucrtd:output.obj
 0001:00067c70       ?should_skip_normal_state_processing@?$standard_base@DV?$stream_output_adapter@D@__crt_stdio_output@@@__crt_stdio_output@@IEAA_NXZ 0000000180068c70 f i libucrtd:output.obj
 0001:00067c80       ?should_skip_normal_state_processing@?$standard_base@DV?$string_output_adapter@D@__crt_stdio_output@@@__crt_stdio_output@@IEAA_NXZ 0000000180068c80 f i libucrtd:output.obj
 0001:00067c90       ?should_skip_normal_state_processing@?$standard_base@_WV?$stream_output_adapter@_W@__crt_stdio_output@@@__crt_stdio_output@@IEAA_NXZ 0000000180068c90 f i libucrtd:output.obj
 0001:00067ca0       ?should_skip_normal_state_processing@?$standard_base@_WV?$string_output_adapter@_W@__crt_stdio_output@@@__crt_stdio_output@@IEAA_NXZ 0000000180068ca0 f i libucrtd:output.obj
 0001:00067cb0       ?should_skip_type_state_output@?$positional_parameter_base@DV?$stream_output_adapter@D@__crt_stdio_output@@@__crt_stdio_output@@IEBA_NXZ 0000000180068cb0 f i libucrtd:output.obj
 0001:00067cf0       ?should_skip_type_state_output@?$positional_parameter_base@DV?$string_output_adapter@D@__crt_stdio_output@@@__crt_stdio_output@@IEBA_NXZ 0000000180068cf0 f i libucrtd:output.obj
 0001:00067d30       ?should_skip_type_state_output@?$positional_parameter_base@_WV?$stream_output_adapter@_W@__crt_stdio_output@@@__crt_stdio_output@@IEBA_NXZ 0000000180068d30 f i libucrtd:output.obj
 0001:00067d70       ?should_skip_type_state_output@?$positional_parameter_base@_WV?$string_output_adapter@_W@__crt_stdio_output@@@__crt_stdio_output@@IEBA_NXZ 0000000180068d70 f i libucrtd:output.obj
 0001:00067db0       ?should_skip_type_state_output@?$standard_base@DV?$stream_output_adapter@D@__crt_stdio_output@@@__crt_stdio_output@@IEBA_NXZ 0000000180068db0 f i libucrtd:output.obj
 0001:00067dc0       ?should_skip_type_state_output@?$standard_base@DV?$string_output_adapter@D@__crt_stdio_output@@@__crt_stdio_output@@IEBA_NXZ 0000000180068dc0 f i libucrtd:output.obj
 0001:00067dd0       ?should_skip_type_state_output@?$standard_base@_WV?$stream_output_adapter@_W@__crt_stdio_output@@@__crt_stdio_output@@IEBA_NXZ 0000000180068dd0 f i libucrtd:output.obj
 0001:00067de0       ?should_skip_type_state_output@?$standard_base@_WV?$string_output_adapter@_W@__crt_stdio_output@@@__crt_stdio_output@@IEBA_NXZ 0000000180068de0 f i libucrtd:output.obj
 0001:00067df0       ?state_case_dot@?$output_processor@DV?$stream_output_adapter@D@__crt_stdio_output@@V?$format_validation_base@DV?$stream_output_adapter@D@__crt_stdio_output@@@2@@__crt_stdio_output@@AEAA_NXZ 0000000180068df0 f i libucrtd:output.obj
 0001:00067e10       ?state_case_dot@?$output_processor@DV?$stream_output_adapter@D@__crt_stdio_output@@V?$positional_parameter_base@DV?$stream_output_adapter@D@__crt_stdio_output@@@2@@__crt_stdio_output@@AEAA_NXZ 0000000180068e10 f i libucrtd:output.obj
 0001:00067e30       ?state_case_dot@?$output_processor@DV?$stream_output_adapter@D@__crt_stdio_output@@V?$standard_base@DV?$stream_output_adapter@D@__crt_stdio_output@@@2@@__crt_stdio_output@@AEAA_NXZ 0000000180068e30 f i libucrtd:output.obj
 0001:00067e50       ?state_case_dot@?$output_processor@DV?$string_output_adapter@D@__crt_stdio_output@@V?$format_validation_base@DV?$string_output_adapter@D@__crt_stdio_output@@@2@@__crt_stdio_output@@AEAA_NXZ 0000000180068e50 f i libucrtd:output.obj
 0001:00067e70       ?state_case_dot@?$output_processor@DV?$string_output_adapter@D@__crt_stdio_output@@V?$positional_parameter_base@DV?$string_output_adapter@D@__crt_stdio_output@@@2@@__crt_stdio_output@@AEAA_NXZ 0000000180068e70 f i libucrtd:output.obj
 0001:00067e90       ?state_case_dot@?$output_processor@DV?$string_output_adapter@D@__crt_stdio_output@@V?$standard_base@DV?$string_output_adapter@D@__crt_stdio_output@@@2@@__crt_stdio_output@@AEAA_NXZ 0000000180068e90 f i libucrtd:output.obj
 0001:00067eb0       ?state_case_dot@?$output_processor@_WV?$stream_output_adapter@_W@__crt_stdio_output@@V?$format_validation_base@_WV?$stream_output_adapter@_W@__crt_stdio_output@@@2@@__crt_stdio_output@@AEAA_NXZ 0000000180068eb0 f i libucrtd:output.obj
 0001:00067ed0       ?state_case_dot@?$output_processor@_WV?$stream_output_adapter@_W@__crt_stdio_output@@V?$positional_parameter_base@_WV?$stream_output_adapter@_W@__crt_stdio_output@@@2@@__crt_stdio_output@@AEAA_NXZ 0000000180068ed0 f i libucrtd:output.obj
 0001:00067ef0       ?state_case_dot@?$output_processor@_WV?$stream_output_adapter@_W@__crt_stdio_output@@V?$standard_base@_WV?$stream_output_adapter@_W@__crt_stdio_output@@@2@@__crt_stdio_output@@AEAA_NXZ 0000000180068ef0 f i libucrtd:output.obj
 0001:00067f10       ?state_case_dot@?$output_processor@_WV?$string_output_adapter@_W@__crt_stdio_output@@V?$format_validation_base@_WV?$string_output_adapter@_W@__crt_stdio_output@@@2@@__crt_stdio_output@@AEAA_NXZ 0000000180068f10 f i libucrtd:output.obj
 0001:00067f30       ?state_case_dot@?$output_processor@_WV?$string_output_adapter@_W@__crt_stdio_output@@V?$positional_parameter_base@_WV?$string_output_adapter@_W@__crt_stdio_output@@@2@@__crt_stdio_output@@AEAA_NXZ 0000000180068f30 f i libucrtd:output.obj
 0001:00067f50       ?state_case_dot@?$output_processor@_WV?$string_output_adapter@_W@__crt_stdio_output@@V?$standard_base@_WV?$string_output_adapter@_W@__crt_stdio_output@@@2@@__crt_stdio_output@@AEAA_NXZ 0000000180068f50 f i libucrtd:output.obj
 0001:00067f70       ?state_case_flag@?$output_processor@DV?$stream_output_adapter@D@__crt_stdio_output@@V?$format_validation_base@DV?$stream_output_adapter@D@__crt_stdio_output@@@2@@__crt_stdio_output@@AEAA_NXZ 0000000180068f70 f i libucrtd:output.obj
 0001:00068010       ?state_case_flag@?$output_processor@DV?$stream_output_adapter@D@__crt_stdio_output@@V?$positional_parameter_base@DV?$stream_output_adapter@D@__crt_stdio_output@@@2@@__crt_stdio_output@@AEAA_NXZ 0000000180069010 f i libucrtd:output.obj
 0001:000680b0       ?state_case_flag@?$output_processor@DV?$stream_output_adapter@D@__crt_stdio_output@@V?$standard_base@DV?$stream_output_adapter@D@__crt_stdio_output@@@2@@__crt_stdio_output@@AEAA_NXZ 00000001800690b0 f i libucrtd:output.obj
 0001:00068150       ?state_case_flag@?$output_processor@DV?$string_output_adapter@D@__crt_stdio_output@@V?$format_validation_base@DV?$string_output_adapter@D@__crt_stdio_output@@@2@@__crt_stdio_output@@AEAA_NXZ 0000000180069150 f i libucrtd:output.obj
 0001:000681f0       ?state_case_flag@?$output_processor@DV?$string_output_adapter@D@__crt_stdio_output@@V?$positional_parameter_base@DV?$string_output_adapter@D@__crt_stdio_output@@@2@@__crt_stdio_output@@AEAA_NXZ 00000001800691f0 f i libucrtd:output.obj
 0001:00068290       ?state_case_flag@?$output_processor@DV?$string_output_adapter@D@__crt_stdio_output@@V?$standard_base@DV?$string_output_adapter@D@__crt_stdio_output@@@2@@__crt_stdio_output@@AEAA_NXZ 0000000180069290 f i libucrtd:output.obj
 0001:00068330       ?state_case_flag@?$output_processor@_WV?$stream_output_adapter@_W@__crt_stdio_output@@V?$format_validation_base@_WV?$stream_output_adapter@_W@__crt_stdio_output@@@2@@__crt_stdio_output@@AEAA_NXZ 0000000180069330 f i libucrtd:output.obj
 0001:000683d0       ?state_case_flag@?$output_processor@_WV?$stream_output_adapter@_W@__crt_stdio_output@@V?$positional_parameter_base@_WV?$stream_output_adapter@_W@__crt_stdio_output@@@2@@__crt_stdio_output@@AEAA_NXZ 00000001800693d0 f i libucrtd:output.obj
 0001:00068470       ?state_case_flag@?$output_processor@_WV?$stream_output_adapter@_W@__crt_stdio_output@@V?$standard_base@_WV?$stream_output_adapter@_W@__crt_stdio_output@@@2@@__crt_stdio_output@@AEAA_NXZ 0000000180069470 f i libucrtd:output.obj
 0001:00068510       ?state_case_flag@?$output_processor@_WV?$string_output_adapter@_W@__crt_stdio_output@@V?$format_validation_base@_WV?$string_output_adapter@_W@__crt_stdio_output@@@2@@__crt_stdio_output@@AEAA_NXZ 0000000180069510 f i libucrtd:output.obj
 0001:000685b0       ?state_case_flag@?$output_processor@_WV?$string_output_adapter@_W@__crt_stdio_output@@V?$positional_parameter_base@_WV?$string_output_adapter@_W@__crt_stdio_output@@@2@@__crt_stdio_output@@AEAA_NXZ 00000001800695b0 f i libucrtd:output.obj
 0001:00068650       ?state_case_flag@?$output_processor@_WV?$string_output_adapter@_W@__crt_stdio_output@@V?$standard_base@_WV?$string_output_adapter@_W@__crt_stdio_output@@@2@@__crt_stdio_output@@AEAA_NXZ 0000000180069650 f i libucrtd:output.obj
 0001:000686f0       ?state_case_normal@?$output_processor@DV?$stream_output_adapter@D@__crt_stdio_output@@V?$format_validation_base@DV?$stream_output_adapter@D@__crt_stdio_output@@@2@@__crt_stdio_output@@AEAA_NXZ 00000001800696f0 f i libucrtd:output.obj
 0001:000687d0       ?state_case_normal@?$output_processor@DV?$stream_output_adapter@D@__crt_stdio_output@@V?$positional_parameter_base@DV?$stream_output_adapter@D@__crt_stdio_output@@@2@@__crt_stdio_output@@AEAA_NXZ 00000001800697d0 f i libucrtd:output.obj
 0001:000688b0       ?state_case_normal@?$output_processor@DV?$stream_output_adapter@D@__crt_stdio_output@@V?$standard_base@DV?$stream_output_adapter@D@__crt_stdio_output@@@2@@__crt_stdio_output@@AEAA_NXZ 00000001800698b0 f i libucrtd:output.obj
 0001:00068990       ?state_case_normal@?$output_processor@DV?$string_output_adapter@D@__crt_stdio_output@@V?$format_validation_base@DV?$string_output_adapter@D@__crt_stdio_output@@@2@@__crt_stdio_output@@AEAA_NXZ 0000000180069990 f i libucrtd:output.obj
 0001:00068a70       ?state_case_normal@?$output_processor@DV?$string_output_adapter@D@__crt_stdio_output@@V?$positional_parameter_base@DV?$string_output_adapter@D@__crt_stdio_output@@@2@@__crt_stdio_output@@AEAA_NXZ 0000000180069a70 f i libucrtd:output.obj
 0001:00068b50       ?state_case_normal@?$output_processor@DV?$string_output_adapter@D@__crt_stdio_output@@V?$standard_base@DV?$string_output_adapter@D@__crt_stdio_output@@@2@@__crt_stdio_output@@AEAA_NXZ 0000000180069b50 f i libucrtd:output.obj
 0001:00068c30       ?state_case_normal@?$output_processor@_WV?$stream_output_adapter@_W@__crt_stdio_output@@V?$format_validation_base@_WV?$stream_output_adapter@_W@__crt_stdio_output@@@2@@__crt_stdio_output@@AEAA_NXZ 0000000180069c30 f i libucrtd:output.obj
 0001:00068d10       ?state_case_normal@?$output_processor@_WV?$stream_output_adapter@_W@__crt_stdio_output@@V?$positional_parameter_base@_WV?$stream_output_adapter@_W@__crt_stdio_output@@@2@@__crt_stdio_output@@AEAA_NXZ 0000000180069d10 f i libucrtd:output.obj
 0001:00068df0       ?state_case_normal@?$output_processor@_WV?$stream_output_adapter@_W@__crt_stdio_output@@V?$standard_base@_WV?$stream_output_adapter@_W@__crt_stdio_output@@@2@@__crt_stdio_output@@AEAA_NXZ 0000000180069df0 f i libucrtd:output.obj
 0001:00068ed0       ?state_case_normal@?$output_processor@_WV?$string_output_adapter@_W@__crt_stdio_output@@V?$format_validation_base@_WV?$string_output_adapter@_W@__crt_stdio_output@@@2@@__crt_stdio_output@@AEAA_NXZ 0000000180069ed0 f i libucrtd:output.obj
 0001:00068fb0       ?state_case_normal@?$output_processor@_WV?$string_output_adapter@_W@__crt_stdio_output@@V?$positional_parameter_base@_WV?$string_output_adapter@_W@__crt_stdio_output@@@2@@__crt_stdio_output@@AEAA_NXZ 0000000180069fb0 f i libucrtd:output.obj
 0001:00069090       ?state_case_normal@?$output_processor@_WV?$string_output_adapter@_W@__crt_stdio_output@@V?$standard_base@_WV?$string_output_adapter@_W@__crt_stdio_output@@@2@@__crt_stdio_output@@AEAA_NXZ 000000018006a090 f i libucrtd:output.obj
 0001:00069170       ?state_case_normal_common@?$output_processor@DV?$stream_output_adapter@D@__crt_stdio_output@@V?$format_validation_base@DV?$stream_output_adapter@D@__crt_stdio_output@@@2@@__crt_stdio_output@@AEAA_NXZ 000000018006a170 f i libucrtd:output.obj
 0001:000691c0       ?state_case_normal_common@?$output_processor@DV?$stream_output_adapter@D@__crt_stdio_output@@V?$positional_parameter_base@DV?$stream_output_adapter@D@__crt_stdio_output@@@2@@__crt_stdio_output@@AEAA_NXZ 000000018006a1c0 f i libucrtd:output.obj
 0001:00069210       ?state_case_normal_common@?$output_processor@DV?$stream_output_adapter@D@__crt_stdio_output@@V?$standard_base@DV?$stream_output_adapter@D@__crt_stdio_output@@@2@@__crt_stdio_output@@AEAA_NXZ 000000018006a210 f i libucrtd:output.obj
 0001:00069260       ?state_case_normal_common@?$output_processor@DV?$string_output_adapter@D@__crt_stdio_output@@V?$format_validation_base@DV?$string_output_adapter@D@__crt_stdio_output@@@2@@__crt_stdio_output@@AEAA_NXZ 000000018006a260 f i libucrtd:output.obj
 0001:000692b0       ?state_case_normal_common@?$output_processor@DV?$string_output_adapter@D@__crt_stdio_output@@V?$positional_parameter_base@DV?$string_output_adapter@D@__crt_stdio_output@@@2@@__crt_stdio_output@@AEAA_NXZ 000000018006a2b0 f i libucrtd:output.obj
 0001:00069300       ?state_case_normal_common@?$output_processor@DV?$string_output_adapter@D@__crt_stdio_output@@V?$standard_base@DV?$string_output_adapter@D@__crt_stdio_output@@@2@@__crt_stdio_output@@AEAA_NXZ 000000018006a300 f i libucrtd:output.obj
 0001:00069350       ?state_case_normal_common@?$output_processor@_WV?$stream_output_adapter@_W@__crt_stdio_output@@V?$format_validation_base@_WV?$stream_output_adapter@_W@__crt_stdio_output@@@2@@__crt_stdio_output@@AEAA_NXZ 000000018006a350 f i libucrtd:output.obj
 0001:000693a0       ?state_case_normal_common@?$output_processor@_WV?$stream_output_adapter@_W@__crt_stdio_output@@V?$positional_parameter_base@_WV?$stream_output_adapter@_W@__crt_stdio_output@@@2@@__crt_stdio_output@@AEAA_NXZ 000000018006a3a0 f i libucrtd:output.obj
 0001:000693f0       ?state_case_normal_common@?$output_processor@_WV?$stream_output_adapter@_W@__crt_stdio_output@@V?$standard_base@_WV?$stream_output_adapter@_W@__crt_stdio_output@@@2@@__crt_stdio_output@@AEAA_NXZ 000000018006a3f0 f i libucrtd:output.obj
 0001:00069440       ?state_case_normal_common@?$output_processor@_WV?$string_output_adapter@_W@__crt_stdio_output@@V?$format_validation_base@_WV?$string_output_adapter@_W@__crt_stdio_output@@@2@@__crt_stdio_output@@AEAA_NXZ 000000018006a440 f i libucrtd:output.obj
 0001:00069490       ?state_case_normal_common@?$output_processor@_WV?$string_output_adapter@_W@__crt_stdio_output@@V?$positional_parameter_base@_WV?$string_output_adapter@_W@__crt_stdio_output@@@2@@__crt_stdio_output@@AEAA_NXZ 000000018006a490 f i libucrtd:output.obj
 0001:000694e0       ?state_case_normal_common@?$output_processor@_WV?$string_output_adapter@_W@__crt_stdio_output@@V?$standard_base@_WV?$string_output_adapter@_W@__crt_stdio_output@@@2@@__crt_stdio_output@@AEAA_NXZ 000000018006a4e0 f i libucrtd:output.obj
 0001:00069530       ?state_case_normal_tchar@?$output_processor@DV?$stream_output_adapter@D@__crt_stdio_output@@V?$format_validation_base@DV?$stream_output_adapter@D@__crt_stdio_output@@@2@@__crt_stdio_output@@AEAA_ND@Z 000000018006a530 f i libucrtd:output.obj
 0001:00069670       ?state_case_normal_tchar@?$output_processor@DV?$stream_output_adapter@D@__crt_stdio_output@@V?$positional_parameter_base@DV?$stream_output_adapter@D@__crt_stdio_output@@@2@@__crt_stdio_output@@AEAA_ND@Z 000000018006a670 f i libucrtd:output.obj
 0001:000697b0       ?state_case_normal_tchar@?$output_processor@DV?$stream_output_adapter@D@__crt_stdio_output@@V?$standard_base@DV?$stream_output_adapter@D@__crt_stdio_output@@@2@@__crt_stdio_output@@AEAA_ND@Z 000000018006a7b0 f i libucrtd:output.obj
 0001:000698f0       ?state_case_normal_tchar@?$output_processor@DV?$string_output_adapter@D@__crt_stdio_output@@V?$format_validation_base@DV?$string_output_adapter@D@__crt_stdio_output@@@2@@__crt_stdio_output@@AEAA_ND@Z 000000018006a8f0 f i libucrtd:output.obj
 0001:00069a30       ?state_case_normal_tchar@?$output_processor@DV?$string_output_adapter@D@__crt_stdio_output@@V?$positional_parameter_base@DV?$string_output_adapter@D@__crt_stdio_output@@@2@@__crt_stdio_output@@AEAA_ND@Z 000000018006aa30 f i libucrtd:output.obj
 0001:00069b70       ?state_case_normal_tchar@?$output_processor@DV?$string_output_adapter@D@__crt_stdio_output@@V?$standard_base@DV?$string_output_adapter@D@__crt_stdio_output@@@2@@__crt_stdio_output@@AEAA_ND@Z 000000018006ab70 f i libucrtd:output.obj
 0001:00069cb0       ?state_case_normal_tchar@?$output_processor@_WV?$stream_output_adapter@_W@__crt_stdio_output@@V?$format_validation_base@_WV?$stream_output_adapter@_W@__crt_stdio_output@@@2@@__crt_stdio_output@@AEAA_N_W@Z 000000018006acb0 f i libucrtd:output.obj
 0001:00069cd0       ?state_case_normal_tchar@?$output_processor@_WV?$stream_output_adapter@_W@__crt_stdio_output@@V?$positional_parameter_base@_WV?$stream_output_adapter@_W@__crt_stdio_output@@@2@@__crt_stdio_output@@AEAA_N_W@Z 000000018006acd0 f i libucrtd:output.obj
 0001:00069cf0       ?state_case_normal_tchar@?$output_processor@_WV?$stream_output_adapter@_W@__crt_stdio_output@@V?$standard_base@_WV?$stream_output_adapter@_W@__crt_stdio_output@@@2@@__crt_stdio_output@@AEAA_N_W@Z 000000018006acf0 f i libucrtd:output.obj
 0001:00069d10       ?state_case_normal_tchar@?$output_processor@_WV?$string_output_adapter@_W@__crt_stdio_output@@V?$format_validation_base@_WV?$string_output_adapter@_W@__crt_stdio_output@@@2@@__crt_stdio_output@@AEAA_N_W@Z 000000018006ad10 f i libucrtd:output.obj
 0001:00069d30       ?state_case_normal_tchar@?$output_processor@_WV?$string_output_adapter@_W@__crt_stdio_output@@V?$positional_parameter_base@_WV?$string_output_adapter@_W@__crt_stdio_output@@@2@@__crt_stdio_output@@AEAA_N_W@Z 000000018006ad30 f i libucrtd:output.obj
 0001:00069d50       ?state_case_normal_tchar@?$output_processor@_WV?$string_output_adapter@_W@__crt_stdio_output@@V?$standard_base@_WV?$string_output_adapter@_W@__crt_stdio_output@@@2@@__crt_stdio_output@@AEAA_N_W@Z 000000018006ad50 f i libucrtd:output.obj
 0001:00069d70       ?state_case_percent@?$output_processor@DV?$stream_output_adapter@D@__crt_stdio_output@@V?$format_validation_base@DV?$stream_output_adapter@D@__crt_stdio_output@@@2@@__crt_stdio_output@@AEAA_NXZ 000000018006ad70 f i libucrtd:output.obj
 0001:00069dc0       ?state_case_percent@?$output_processor@DV?$stream_output_adapter@D@__crt_stdio_output@@V?$positional_parameter_base@DV?$stream_output_adapter@D@__crt_stdio_output@@@2@@__crt_stdio_output@@AEAA_NXZ 000000018006adc0 f i libucrtd:output.obj
 0001:00069e10       ?state_case_percent@?$output_processor@DV?$stream_output_adapter@D@__crt_stdio_output@@V?$standard_base@DV?$stream_output_adapter@D@__crt_stdio_output@@@2@@__crt_stdio_output@@AEAA_NXZ 000000018006ae10 f i libucrtd:output.obj
 0001:00069e60       ?state_case_percent@?$output_processor@DV?$string_output_adapter@D@__crt_stdio_output@@V?$format_validation_base@DV?$string_output_adapter@D@__crt_stdio_output@@@2@@__crt_stdio_output@@AEAA_NXZ 000000018006ae60 f i libucrtd:output.obj
 0001:00069eb0       ?state_case_percent@?$output_processor@DV?$string_output_adapter@D@__crt_stdio_output@@V?$positional_parameter_base@DV?$string_output_adapter@D@__crt_stdio_output@@@2@@__crt_stdio_output@@AEAA_NXZ 000000018006aeb0 f i libucrtd:output.obj
 0001:00069f00       ?state_case_percent@?$output_processor@DV?$string_output_adapter@D@__crt_stdio_output@@V?$standard_base@DV?$string_output_adapter@D@__crt_stdio_output@@@2@@__crt_stdio_output@@AEAA_NXZ 000000018006af00 f i libucrtd:output.obj
 0001:00069f50       ?state_case_percent@?$output_processor@_WV?$stream_output_adapter@_W@__crt_stdio_output@@V?$format_validation_base@_WV?$stream_output_adapter@_W@__crt_stdio_output@@@2@@__crt_stdio_output@@AEAA_NXZ 000000018006af50 f i libucrtd:output.obj
 0001:00069fa0       ?state_case_percent@?$output_processor@_WV?$stream_output_adapter@_W@__crt_stdio_output@@V?$positional_parameter_base@_WV?$stream_output_adapter@_W@__crt_stdio_output@@@2@@__crt_stdio_output@@AEAA_NXZ 000000018006afa0 f i libucrtd:output.obj
 0001:00069ff0       ?state_case_percent@?$output_processor@_WV?$stream_output_adapter@_W@__crt_stdio_output@@V?$standard_base@_WV?$stream_output_adapter@_W@__crt_stdio_output@@@2@@__crt_stdio_output@@AEAA_NXZ 000000018006aff0 f i libucrtd:output.obj
 0001:0006a040       ?state_case_percent@?$output_processor@_WV?$string_output_adapter@_W@__crt_stdio_output@@V?$format_validation_base@_WV?$string_output_adapter@_W@__crt_stdio_output@@@2@@__crt_stdio_output@@AEAA_NXZ 000000018006b040 f i libucrtd:output.obj
 0001:0006a090       ?state_case_percent@?$output_processor@_WV?$string_output_adapter@_W@__crt_stdio_output@@V?$positional_parameter_base@_WV?$string_output_adapter@_W@__crt_stdio_output@@@2@@__crt_stdio_output@@AEAA_NXZ 000000018006b090 f i libucrtd:output.obj
 0001:0006a0e0       ?state_case_percent@?$output_processor@_WV?$string_output_adapter@_W@__crt_stdio_output@@V?$standard_base@_WV?$string_output_adapter@_W@__crt_stdio_output@@@2@@__crt_stdio_output@@AEAA_NXZ 000000018006b0e0 f i libucrtd:output.obj
 0001:0006a130       ?state_case_precision@?$output_processor@DV?$stream_output_adapter@D@__crt_stdio_output@@V?$format_validation_base@DV?$stream_output_adapter@D@__crt_stdio_output@@@2@@__crt_stdio_output@@AEAA_NXZ 000000018006b130 f i libucrtd:output.obj
 0001:0006a1b0       ?state_case_precision@?$output_processor@DV?$stream_output_adapter@D@__crt_stdio_output@@V?$positional_parameter_base@DV?$stream_output_adapter@D@__crt_stdio_output@@@2@@__crt_stdio_output@@AEAA_NXZ 000000018006b1b0 f i libucrtd:output.obj
 0001:0006a230       ?state_case_precision@?$output_processor@DV?$stream_output_adapter@D@__crt_stdio_output@@V?$standard_base@DV?$stream_output_adapter@D@__crt_stdio_output@@@2@@__crt_stdio_output@@AEAA_NXZ 000000018006b230 f i libucrtd:output.obj
 0001:0006a2b0       ?state_case_precision@?$output_processor@DV?$string_output_adapter@D@__crt_stdio_output@@V?$format_validation_base@DV?$string_output_adapter@D@__crt_stdio_output@@@2@@__crt_stdio_output@@AEAA_NXZ 000000018006b2b0 f i libucrtd:output.obj
 0001:0006a330       ?state_case_precision@?$output_processor@DV?$string_output_adapter@D@__crt_stdio_output@@V?$positional_parameter_base@DV?$string_output_adapter@D@__crt_stdio_output@@@2@@__crt_stdio_output@@AEAA_NXZ 000000018006b330 f i libucrtd:output.obj
 0001:0006a3b0       ?state_case_precision@?$output_processor@DV?$string_output_adapter@D@__crt_stdio_output@@V?$standard_base@DV?$string_output_adapter@D@__crt_stdio_output@@@2@@__crt_stdio_output@@AEAA_NXZ 000000018006b3b0 f i libucrtd:output.obj
 0001:0006a430       ?state_case_precision@?$output_processor@_WV?$stream_output_adapter@_W@__crt_stdio_output@@V?$format_validation_base@_WV?$stream_output_adapter@_W@__crt_stdio_output@@@2@@__crt_stdio_output@@AEAA_NXZ 000000018006b430 f i libucrtd:output.obj
 0001:0006a4b0       ?state_case_precision@?$output_processor@_WV?$stream_output_adapter@_W@__crt_stdio_output@@V?$positional_parameter_base@_WV?$stream_output_adapter@_W@__crt_stdio_output@@@2@@__crt_stdio_output@@AEAA_NXZ 000000018006b4b0 f i libucrtd:output.obj
 0001:0006a530       ?state_case_precision@?$output_processor@_WV?$stream_output_adapter@_W@__crt_stdio_output@@V?$standard_base@_WV?$stream_output_adapter@_W@__crt_stdio_output@@@2@@__crt_stdio_output@@AEAA_NXZ 000000018006b530 f i libucrtd:output.obj
 0001:0006a5b0       ?state_case_precision@?$output_processor@_WV?$string_output_adapter@_W@__crt_stdio_output@@V?$format_validation_base@_WV?$string_output_adapter@_W@__crt_stdio_output@@@2@@__crt_stdio_output@@AEAA_NXZ 000000018006b5b0 f i libucrtd:output.obj
 0001:0006a630       ?state_case_precision@?$output_processor@_WV?$string_output_adapter@_W@__crt_stdio_output@@V?$positional_parameter_base@_WV?$string_output_adapter@_W@__crt_stdio_output@@@2@@__crt_stdio_output@@AEAA_NXZ 000000018006b630 f i libucrtd:output.obj
 0001:0006a6b0       ?state_case_precision@?$output_processor@_WV?$string_output_adapter@_W@__crt_stdio_output@@V?$standard_base@_WV?$string_output_adapter@_W@__crt_stdio_output@@@2@@__crt_stdio_output@@AEAA_NXZ 000000018006b6b0 f i libucrtd:output.obj
 0001:0006a730       ?state_case_size@?$output_processor@DV?$stream_output_adapter@D@__crt_stdio_output@@V?$format_validation_base@DV?$stream_output_adapter@D@__crt_stdio_output@@@2@@__crt_stdio_output@@AEAA_NXZ 000000018006b730 f i libucrtd:output.obj
 0001:0006abb0       ?state_case_size@?$output_processor@DV?$stream_output_adapter@D@__crt_stdio_output@@V?$positional_parameter_base@DV?$stream_output_adapter@D@__crt_stdio_output@@@2@@__crt_stdio_output@@AEAA_NXZ 000000018006bbb0 f i libucrtd:output.obj
 0001:0006b030       ?state_case_size@?$output_processor@DV?$stream_output_adapter@D@__crt_stdio_output@@V?$standard_base@DV?$stream_output_adapter@D@__crt_stdio_output@@@2@@__crt_stdio_output@@AEAA_NXZ 000000018006c030 f i libucrtd:output.obj
 0001:0006b4b0       ?state_case_size@?$output_processor@DV?$string_output_adapter@D@__crt_stdio_output@@V?$format_validation_base@DV?$string_output_adapter@D@__crt_stdio_output@@@2@@__crt_stdio_output@@AEAA_NXZ 000000018006c4b0 f i libucrtd:output.obj
 0001:0006b930       ?state_case_size@?$output_processor@DV?$string_output_adapter@D@__crt_stdio_output@@V?$positional_parameter_base@DV?$string_output_adapter@D@__crt_stdio_output@@@2@@__crt_stdio_output@@AEAA_NXZ 000000018006c930 f i libucrtd:output.obj
 0001:0006bdb0       ?state_case_size@?$output_processor@DV?$string_output_adapter@D@__crt_stdio_output@@V?$standard_base@DV?$string_output_adapter@D@__crt_stdio_output@@@2@@__crt_stdio_output@@AEAA_NXZ 000000018006cdb0 f i libucrtd:output.obj
 0001:0006c230       ?state_case_size@?$output_processor@_WV?$stream_output_adapter@_W@__crt_stdio_output@@V?$format_validation_base@_WV?$stream_output_adapter@_W@__crt_stdio_output@@@2@@__crt_stdio_output@@AEAA_NXZ 000000018006d230 f i libucrtd:output.obj
 0001:0006c6b0       ?state_case_size@?$output_processor@_WV?$stream_output_adapter@_W@__crt_stdio_output@@V?$positional_parameter_base@_WV?$stream_output_adapter@_W@__crt_stdio_output@@@2@@__crt_stdio_output@@AEAA_NXZ 000000018006d6b0 f i libucrtd:output.obj
 0001:0006cb30       ?state_case_size@?$output_processor@_WV?$stream_output_adapter@_W@__crt_stdio_output@@V?$standard_base@_WV?$stream_output_adapter@_W@__crt_stdio_output@@@2@@__crt_stdio_output@@AEAA_NXZ 000000018006db30 f i libucrtd:output.obj
 0001:0006cfb0       ?state_case_size@?$output_processor@_WV?$string_output_adapter@_W@__crt_stdio_output@@V?$format_validation_base@_WV?$string_output_adapter@_W@__crt_stdio_output@@@2@@__crt_stdio_output@@AEAA_NXZ 000000018006dfb0 f i libucrtd:output.obj
 0001:0006d430       ?state_case_size@?$output_processor@_WV?$string_output_adapter@_W@__crt_stdio_output@@V?$positional_parameter_base@_WV?$string_output_adapter@_W@__crt_stdio_output@@@2@@__crt_stdio_output@@AEAA_NXZ 000000018006e430 f i libucrtd:output.obj
 0001:0006d8b0       ?state_case_size@?$output_processor@_WV?$string_output_adapter@_W@__crt_stdio_output@@V?$standard_base@_WV?$string_output_adapter@_W@__crt_stdio_output@@@2@@__crt_stdio_output@@AEAA_NXZ 000000018006e8b0 f i libucrtd:output.obj
 0001:0006dd30       ?state_case_type@?$output_processor@DV?$stream_output_adapter@D@__crt_stdio_output@@V?$format_validation_base@DV?$stream_output_adapter@D@__crt_stdio_output@@@2@@__crt_stdio_output@@AEAA_NXZ 000000018006ed30 f i libucrtd:output.obj
 0001:0006e1d0       ?state_case_type@?$output_processor@DV?$stream_output_adapter@D@__crt_stdio_output@@V?$positional_parameter_base@DV?$stream_output_adapter@D@__crt_stdio_output@@@2@@__crt_stdio_output@@AEAA_NXZ 000000018006f1d0 f i libucrtd:output.obj
 0001:0006e670       ?state_case_type@?$output_processor@DV?$stream_output_adapter@D@__crt_stdio_output@@V?$standard_base@DV?$stream_output_adapter@D@__crt_stdio_output@@@2@@__crt_stdio_output@@AEAA_NXZ 000000018006f670 f i libucrtd:output.obj
 0001:0006eb10       ?state_case_type@?$output_processor@DV?$string_output_adapter@D@__crt_stdio_output@@V?$format_validation_base@DV?$string_output_adapter@D@__crt_stdio_output@@@2@@__crt_stdio_output@@AEAA_NXZ 000000018006fb10 f i libucrtd:output.obj
 0001:0006efb0       ?state_case_type@?$output_processor@DV?$string_output_adapter@D@__crt_stdio_output@@V?$positional_parameter_base@DV?$string_output_adapter@D@__crt_stdio_output@@@2@@__crt_stdio_output@@AEAA_NXZ 000000018006ffb0 f i libucrtd:output.obj
 0001:0006f450       ?state_case_type@?$output_processor@DV?$string_output_adapter@D@__crt_stdio_output@@V?$standard_base@DV?$string_output_adapter@D@__crt_stdio_output@@@2@@__crt_stdio_output@@AEAA_NXZ 0000000180070450 f i libucrtd:output.obj
 0001:0006f8f0       ?state_case_type@?$output_processor@_WV?$stream_output_adapter@_W@__crt_stdio_output@@V?$format_validation_base@_WV?$stream_output_adapter@_W@__crt_stdio_output@@@2@@__crt_stdio_output@@AEAA_NXZ 00000001800708f0 f i libucrtd:output.obj
 0001:0006fe50       ?state_case_type@?$output_processor@_WV?$stream_output_adapter@_W@__crt_stdio_output@@V?$positional_parameter_base@_WV?$stream_output_adapter@_W@__crt_stdio_output@@@2@@__crt_stdio_output@@AEAA_NXZ 0000000180070e50 f i libucrtd:output.obj
 0001:000703b0       ?state_case_type@?$output_processor@_WV?$stream_output_adapter@_W@__crt_stdio_output@@V?$standard_base@_WV?$stream_output_adapter@_W@__crt_stdio_output@@@2@@__crt_stdio_output@@AEAA_NXZ 00000001800713b0 f i libucrtd:output.obj
 0001:00070910       ?state_case_type@?$output_processor@_WV?$string_output_adapter@_W@__crt_stdio_output@@V?$format_validation_base@_WV?$string_output_adapter@_W@__crt_stdio_output@@@2@@__crt_stdio_output@@AEAA_NXZ 0000000180071910 f i libucrtd:output.obj
 0001:00070e70       ?state_case_type@?$output_processor@_WV?$string_output_adapter@_W@__crt_stdio_output@@V?$positional_parameter_base@_WV?$string_output_adapter@_W@__crt_stdio_output@@@2@@__crt_stdio_output@@AEAA_NXZ 0000000180071e70 f i libucrtd:output.obj
 0001:000713d0       ?state_case_type@?$output_processor@_WV?$string_output_adapter@_W@__crt_stdio_output@@V?$standard_base@_WV?$string_output_adapter@_W@__crt_stdio_output@@@2@@__crt_stdio_output@@AEAA_NXZ 00000001800723d0 f i libucrtd:output.obj
 0001:00071930       ?state_case_width@?$output_processor@DV?$stream_output_adapter@D@__crt_stdio_output@@V?$format_validation_base@DV?$stream_output_adapter@D@__crt_stdio_output@@@2@@__crt_stdio_output@@AEAA_NXZ 0000000180072930 f i libucrtd:output.obj
 0001:000719c0       ?state_case_width@?$output_processor@DV?$stream_output_adapter@D@__crt_stdio_output@@V?$positional_parameter_base@DV?$stream_output_adapter@D@__crt_stdio_output@@@2@@__crt_stdio_output@@AEAA_NXZ 00000001800729c0 f i libucrtd:output.obj
 0001:00071a50       ?state_case_width@?$output_processor@DV?$stream_output_adapter@D@__crt_stdio_output@@V?$standard_base@DV?$stream_output_adapter@D@__crt_stdio_output@@@2@@__crt_stdio_output@@AEAA_NXZ 0000000180072a50 f i libucrtd:output.obj
 0001:00071ae0       ?state_case_width@?$output_processor@DV?$string_output_adapter@D@__crt_stdio_output@@V?$format_validation_base@DV?$string_output_adapter@D@__crt_stdio_output@@@2@@__crt_stdio_output@@AEAA_NXZ 0000000180072ae0 f i libucrtd:output.obj
 0001:00071b70       ?state_case_width@?$output_processor@DV?$string_output_adapter@D@__crt_stdio_output@@V?$positional_parameter_base@DV?$string_output_adapter@D@__crt_stdio_output@@@2@@__crt_stdio_output@@AEAA_NXZ 0000000180072b70 f i libucrtd:output.obj
 0001:00071c00       ?state_case_width@?$output_processor@DV?$string_output_adapter@D@__crt_stdio_output@@V?$standard_base@DV?$string_output_adapter@D@__crt_stdio_output@@@2@@__crt_stdio_output@@AEAA_NXZ 0000000180072c00 f i libucrtd:output.obj
 0001:00071c90       ?state_case_width@?$output_processor@_WV?$stream_output_adapter@_W@__crt_stdio_output@@V?$format_validation_base@_WV?$stream_output_adapter@_W@__crt_stdio_output@@@2@@__crt_stdio_output@@AEAA_NXZ 0000000180072c90 f i libucrtd:output.obj
 0001:00071d20       ?state_case_width@?$output_processor@_WV?$stream_output_adapter@_W@__crt_stdio_output@@V?$positional_parameter_base@_WV?$stream_output_adapter@_W@__crt_stdio_output@@@2@@__crt_stdio_output@@AEAA_NXZ 0000000180072d20 f i libucrtd:output.obj
 0001:00071db0       ?state_case_width@?$output_processor@_WV?$stream_output_adapter@_W@__crt_stdio_output@@V?$standard_base@_WV?$stream_output_adapter@_W@__crt_stdio_output@@@2@@__crt_stdio_output@@AEAA_NXZ 0000000180072db0 f i libucrtd:output.obj
 0001:00071e40       ?state_case_width@?$output_processor@_WV?$string_output_adapter@_W@__crt_stdio_output@@V?$format_validation_base@_WV?$string_output_adapter@_W@__crt_stdio_output@@@2@@__crt_stdio_output@@AEAA_NXZ 0000000180072e40 f i libucrtd:output.obj
 0001:00071ed0       ?state_case_width@?$output_processor@_WV?$string_output_adapter@_W@__crt_stdio_output@@V?$positional_parameter_base@_WV?$string_output_adapter@_W@__crt_stdio_output@@@2@@__crt_stdio_output@@AEAA_NXZ 0000000180072ed0 f i libucrtd:output.obj
 0001:00071f60       ?state_case_width@?$output_processor@_WV?$string_output_adapter@_W@__crt_stdio_output@@V?$standard_base@_WV?$string_output_adapter@_W@__crt_stdio_output@@@2@@__crt_stdio_output@@AEAA_NXZ 0000000180072f60 f i libucrtd:output.obj
 0001:00071ff0       ?state_count@?$format_validation_base@DV?$stream_output_adapter@D@__crt_stdio_output@@@__crt_stdio_output@@KAIXZ 0000000180072ff0 f i libucrtd:output.obj
 0001:00072000       ?state_count@?$format_validation_base@DV?$string_output_adapter@D@__crt_stdio_output@@@__crt_stdio_output@@KAIXZ 0000000180073000 f i libucrtd:output.obj
 0001:00072010       ?state_count@?$format_validation_base@_WV?$stream_output_adapter@_W@__crt_stdio_output@@@__crt_stdio_output@@KAIXZ 0000000180073010 f i libucrtd:output.obj
 0001:00072020       ?state_count@?$format_validation_base@_WV?$string_output_adapter@_W@__crt_stdio_output@@@__crt_stdio_output@@KAIXZ 0000000180073020 f i libucrtd:output.obj
 0001:00072030       ?state_count@?$standard_base@DV?$stream_output_adapter@D@__crt_stdio_output@@@__crt_stdio_output@@KAIXZ 0000000180073030 f i libucrtd:output.obj
 0001:00072040       ?state_count@?$standard_base@DV?$string_output_adapter@D@__crt_stdio_output@@@__crt_stdio_output@@KAIXZ 0000000180073040 f i libucrtd:output.obj
 0001:00072050       ?state_count@?$standard_base@_WV?$stream_output_adapter@_W@__crt_stdio_output@@@__crt_stdio_output@@KAIXZ 0000000180073050 f i libucrtd:output.obj
 0001:00072060       ?state_count@?$standard_base@_WV?$string_output_adapter@_W@__crt_stdio_output@@@__crt_stdio_output@@KAIXZ 0000000180073060 f i libucrtd:output.obj
 0001:00072070       ?state_transition_table@?$format_validation_base@DV?$stream_output_adapter@D@__crt_stdio_output@@@__crt_stdio_output@@KAAEBV?$spectre_mitigated_lookup_table@Ustate_transition_pair@__crt_stdio_output@@$0IA@@2@XZ 0000000180073070 f i libucrtd:output.obj
 0001:00072080       ?state_transition_table@?$format_validation_base@DV?$string_output_adapter@D@__crt_stdio_output@@@__crt_stdio_output@@KAAEBV?$spectre_mitigated_lookup_table@Ustate_transition_pair@__crt_stdio_output@@$0IA@@2@XZ 0000000180073080 f i libucrtd:output.obj
 0001:00072090       ?state_transition_table@?$format_validation_base@_WV?$stream_output_adapter@_W@__crt_stdio_output@@@__crt_stdio_output@@KAAEBV?$spectre_mitigated_lookup_table@Ustate_transition_pair@__crt_stdio_output@@$0IA@@2@XZ 0000000180073090 f i libucrtd:output.obj
 0001:000720a0       ?state_transition_table@?$format_validation_base@_WV?$string_output_adapter@_W@__crt_stdio_output@@@__crt_stdio_output@@KAAEBV?$spectre_mitigated_lookup_table@Ustate_transition_pair@__crt_stdio_output@@$0IA@@2@XZ 00000001800730a0 f i libucrtd:output.obj
 0001:000720b0       ?state_transition_table@?$standard_base@DV?$stream_output_adapter@D@__crt_stdio_output@@@__crt_stdio_output@@KAAEBV?$spectre_mitigated_lookup_table@Ustate_transition_pair@__crt_stdio_output@@$0IA@@2@XZ 00000001800730b0 f i libucrtd:output.obj
 0001:000720c0       ?state_transition_table@?$standard_base@DV?$string_output_adapter@D@__crt_stdio_output@@@__crt_stdio_output@@KAAEBV?$spectre_mitigated_lookup_table@Ustate_transition_pair@__crt_stdio_output@@$0IA@@2@XZ 00000001800730c0 f i libucrtd:output.obj
 0001:000720d0       ?state_transition_table@?$standard_base@_WV?$stream_output_adapter@_W@__crt_stdio_output@@@__crt_stdio_output@@KAAEBV?$spectre_mitigated_lookup_table@Ustate_transition_pair@__crt_stdio_output@@$0IA@@2@XZ 00000001800730d0 f i libucrtd:output.obj
 0001:000720e0       ?state_transition_table@?$standard_base@_WV?$string_output_adapter@_W@__crt_stdio_output@@@__crt_stdio_output@@KAAEBV?$spectre_mitigated_lookup_table@Ustate_transition_pair@__crt_stdio_output@@$0IA@@2@XZ 00000001800730e0 f i libucrtd:output.obj
 0001:000720f0       ?tchar_string@?$common_data@D@__crt_stdio_output@@IEAAAEAPEADD@Z 00000001800730f0 f i libucrtd:output.obj
 0001:00072110       ?tchar_string@?$common_data@D@__crt_stdio_output@@IEAAAEAPEADXZ 0000000180073110 f i libucrtd:output.obj
 0001:00072130       ?tchar_string@?$common_data@_W@__crt_stdio_output@@IEAAAEAPEA_WXZ 0000000180073130 f i libucrtd:output.obj
 0001:00072150       ?tchar_string@?$common_data@_W@__crt_stdio_output@@IEAAAEAPEA_W_W@Z 0000000180073150 f i libucrtd:output.obj
 0001:00072170       ?to_integer_size@__crt_stdio_output@@YA_KW4length_modifier@1@@Z 0000000180073170 f i libucrtd:output.obj
 0001:00072220       ?type_case_X@?$output_processor@DV?$stream_output_adapter@D@__crt_stdio_output@@V?$format_validation_base@DV?$stream_output_adapter@D@__crt_stdio_output@@@2@@__crt_stdio_output@@AEAA_NXZ 0000000180073220 f i libucrtd:output.obj
 0001:00072240       ?type_case_X@?$output_processor@DV?$stream_output_adapter@D@__crt_stdio_output@@V?$positional_parameter_base@DV?$stream_output_adapter@D@__crt_stdio_output@@@2@@__crt_stdio_output@@AEAA_NXZ 0000000180073240 f i libucrtd:output.obj
 0001:00072260       ?type_case_X@?$output_processor@DV?$stream_output_adapter@D@__crt_stdio_output@@V?$standard_base@DV?$stream_output_adapter@D@__crt_stdio_output@@@2@@__crt_stdio_output@@AEAA_NXZ 0000000180073260 f i libucrtd:output.obj
 0001:00072280       ?type_case_X@?$output_processor@DV?$string_output_adapter@D@__crt_stdio_output@@V?$format_validation_base@DV?$string_output_adapter@D@__crt_stdio_output@@@2@@__crt_stdio_output@@AEAA_NXZ 0000000180073280 f i libucrtd:output.obj
 0001:000722a0       ?type_case_X@?$output_processor@DV?$string_output_adapter@D@__crt_stdio_output@@V?$positional_parameter_base@DV?$string_output_adapter@D@__crt_stdio_output@@@2@@__crt_stdio_output@@AEAA_NXZ 00000001800732a0 f i libucrtd:output.obj
 0001:000722c0       ?type_case_X@?$output_processor@DV?$string_output_adapter@D@__crt_stdio_output@@V?$standard_base@DV?$string_output_adapter@D@__crt_stdio_output@@@2@@__crt_stdio_output@@AEAA_NXZ 00000001800732c0 f i libucrtd:output.obj
 0001:000722e0       ?type_case_X@?$output_processor@_WV?$stream_output_adapter@_W@__crt_stdio_output@@V?$format_validation_base@_WV?$stream_output_adapter@_W@__crt_stdio_output@@@2@@__crt_stdio_output@@AEAA_NXZ 00000001800732e0 f i libucrtd:output.obj
 0001:00072300       ?type_case_X@?$output_processor@_WV?$stream_output_adapter@_W@__crt_stdio_output@@V?$positional_parameter_base@_WV?$stream_output_adapter@_W@__crt_stdio_output@@@2@@__crt_stdio_output@@AEAA_NXZ 0000000180073300 f i libucrtd:output.obj
 0001:00072320       ?type_case_X@?$output_processor@_WV?$stream_output_adapter@_W@__crt_stdio_output@@V?$standard_base@_WV?$stream_output_adapter@_W@__crt_stdio_output@@@2@@__crt_stdio_output@@AEAA_NXZ 0000000180073320 f i libucrtd:output.obj
 0001:00072340       ?type_case_X@?$output_processor@_WV?$string_output_adapter@_W@__crt_stdio_output@@V?$format_validation_base@_WV?$string_output_adapter@_W@__crt_stdio_output@@@2@@__crt_stdio_output@@AEAA_NXZ 0000000180073340 f i libucrtd:output.obj
 0001:00072360       ?type_case_X@?$output_processor@_WV?$string_output_adapter@_W@__crt_stdio_output@@V?$positional_parameter_base@_WV?$string_output_adapter@_W@__crt_stdio_output@@@2@@__crt_stdio_output@@AEAA_NXZ 0000000180073360 f i libucrtd:output.obj
 0001:00072380       ?type_case_X@?$output_processor@_WV?$string_output_adapter@_W@__crt_stdio_output@@V?$standard_base@_WV?$string_output_adapter@_W@__crt_stdio_output@@@2@@__crt_stdio_output@@AEAA_NXZ 0000000180073380 f i libucrtd:output.obj
 0001:000723a0       ?type_case_Z@?$output_processor@DV?$stream_output_adapter@D@__crt_stdio_output@@V?$format_validation_base@DV?$stream_output_adapter@D@__crt_stdio_output@@@2@@__crt_stdio_output@@AEAA_NXZ 00000001800733a0 f i libucrtd:output.obj
 0001:000724c0       ?type_case_Z@?$output_processor@DV?$stream_output_adapter@D@__crt_stdio_output@@V?$positional_parameter_base@DV?$stream_output_adapter@D@__crt_stdio_output@@@2@@__crt_stdio_output@@AEAA_NXZ 00000001800734c0 f i libucrtd:output.obj
 0001:000725e0       ?type_case_Z@?$output_processor@DV?$stream_output_adapter@D@__crt_stdio_output@@V?$standard_base@DV?$stream_output_adapter@D@__crt_stdio_output@@@2@@__crt_stdio_output@@AEAA_NXZ 00000001800735e0 f i libucrtd:output.obj
 0001:00072700       ?type_case_Z@?$output_processor@DV?$string_output_adapter@D@__crt_stdio_output@@V?$format_validation_base@DV?$string_output_adapter@D@__crt_stdio_output@@@2@@__crt_stdio_output@@AEAA_NXZ 0000000180073700 f i libucrtd:output.obj
 0001:00072820       ?type_case_Z@?$output_processor@DV?$string_output_adapter@D@__crt_stdio_output@@V?$positional_parameter_base@DV?$string_output_adapter@D@__crt_stdio_output@@@2@@__crt_stdio_output@@AEAA_NXZ 0000000180073820 f i libucrtd:output.obj
 0001:00072940       ?type_case_Z@?$output_processor@DV?$string_output_adapter@D@__crt_stdio_output@@V?$standard_base@DV?$string_output_adapter@D@__crt_stdio_output@@@2@@__crt_stdio_output@@AEAA_NXZ 0000000180073940 f i libucrtd:output.obj
 0001:00072a60       ?type_case_Z@?$output_processor@_WV?$stream_output_adapter@_W@__crt_stdio_output@@V?$format_validation_base@_WV?$stream_output_adapter@_W@__crt_stdio_output@@@2@@__crt_stdio_output@@AEAA_NXZ 0000000180073a60 f i libucrtd:output.obj
 0001:00072b80       ?type_case_Z@?$output_processor@_WV?$stream_output_adapter@_W@__crt_stdio_output@@V?$positional_parameter_base@_WV?$stream_output_adapter@_W@__crt_stdio_output@@@2@@__crt_stdio_output@@AEAA_NXZ 0000000180073b80 f i libucrtd:output.obj
 0001:00072ca0       ?type_case_Z@?$output_processor@_WV?$stream_output_adapter@_W@__crt_stdio_output@@V?$standard_base@_WV?$stream_output_adapter@_W@__crt_stdio_output@@@2@@__crt_stdio_output@@AEAA_NXZ 0000000180073ca0 f i libucrtd:output.obj
 0001:00072dc0       ?type_case_Z@?$output_processor@_WV?$string_output_adapter@_W@__crt_stdio_output@@V?$format_validation_base@_WV?$string_output_adapter@_W@__crt_stdio_output@@@2@@__crt_stdio_output@@AEAA_NXZ 0000000180073dc0 f i libucrtd:output.obj
 0001:00072ee0       ?type_case_Z@?$output_processor@_WV?$string_output_adapter@_W@__crt_stdio_output@@V?$positional_parameter_base@_WV?$string_output_adapter@_W@__crt_stdio_output@@@2@@__crt_stdio_output@@AEAA_NXZ 0000000180073ee0 f i libucrtd:output.obj
 0001:00073000       ?type_case_Z@?$output_processor@_WV?$string_output_adapter@_W@__crt_stdio_output@@V?$standard_base@_WV?$string_output_adapter@_W@__crt_stdio_output@@@2@@__crt_stdio_output@@AEAA_NXZ 0000000180074000 f i libucrtd:output.obj
 0001:00073120       ?type_case_a@?$output_processor@DV?$stream_output_adapter@D@__crt_stdio_output@@V?$format_validation_base@DV?$stream_output_adapter@D@__crt_stdio_output@@@2@@__crt_stdio_output@@AEAA_NXZ 0000000180074120 f i libucrtd:output.obj
 0001:000734f0       ?type_case_a@?$output_processor@DV?$stream_output_adapter@D@__crt_stdio_output@@V?$positional_parameter_base@DV?$stream_output_adapter@D@__crt_stdio_output@@@2@@__crt_stdio_output@@AEAA_NXZ 00000001800744f0 f i libucrtd:output.obj
 0001:000738c0       ?type_case_a@?$output_processor@DV?$stream_output_adapter@D@__crt_stdio_output@@V?$standard_base@DV?$stream_output_adapter@D@__crt_stdio_output@@@2@@__crt_stdio_output@@AEAA_NXZ 00000001800748c0 f i libucrtd:output.obj
 0001:00073c90       ?type_case_a@?$output_processor@DV?$string_output_adapter@D@__crt_stdio_output@@V?$format_validation_base@DV?$string_output_adapter@D@__crt_stdio_output@@@2@@__crt_stdio_output@@AEAA_NXZ 0000000180074c90 f i libucrtd:output.obj
 0001:00074060       ?type_case_a@?$output_processor@DV?$string_output_adapter@D@__crt_stdio_output@@V?$positional_parameter_base@DV?$string_output_adapter@D@__crt_stdio_output@@@2@@__crt_stdio_output@@AEAA_NXZ 0000000180075060 f i libucrtd:output.obj
 0001:00074430       ?type_case_a@?$output_processor@DV?$string_output_adapter@D@__crt_stdio_output@@V?$standard_base@DV?$string_output_adapter@D@__crt_stdio_output@@@2@@__crt_stdio_output@@AEAA_NXZ 0000000180075430 f i libucrtd:output.obj
 0001:00074800       ?type_case_a@?$output_processor@_WV?$stream_output_adapter@_W@__crt_stdio_output@@V?$format_validation_base@_WV?$stream_output_adapter@_W@__crt_stdio_output@@@2@@__crt_stdio_output@@AEAA_NXZ 0000000180075800 f i libucrtd:output.obj
 0001:00074bd0       ?type_case_a@?$output_processor@_WV?$stream_output_adapter@_W@__crt_stdio_output@@V?$positional_parameter_base@_WV?$stream_output_adapter@_W@__crt_stdio_output@@@2@@__crt_stdio_output@@AEAA_NXZ 0000000180075bd0 f i libucrtd:output.obj
 0001:00074fa0       ?type_case_a@?$output_processor@_WV?$stream_output_adapter@_W@__crt_stdio_output@@V?$standard_base@_WV?$stream_output_adapter@_W@__crt_stdio_output@@@2@@__crt_stdio_output@@AEAA_NXZ 0000000180075fa0 f i libucrtd:output.obj
 0001:00075370       ?type_case_a@?$output_processor@_WV?$string_output_adapter@_W@__crt_stdio_output@@V?$format_validation_base@_WV?$string_output_adapter@_W@__crt_stdio_output@@@2@@__crt_stdio_output@@AEAA_NXZ 0000000180076370 f i libucrtd:output.obj
 0001:00075740       ?type_case_a@?$output_processor@_WV?$string_output_adapter@_W@__crt_stdio_output@@V?$positional_parameter_base@_WV?$string_output_adapter@_W@__crt_stdio_output@@@2@@__crt_stdio_output@@AEAA_NXZ 0000000180076740 f i libucrtd:output.obj
 0001:00075b10       ?type_case_a@?$output_processor@_WV?$string_output_adapter@_W@__crt_stdio_output@@V?$standard_base@_WV?$string_output_adapter@_W@__crt_stdio_output@@@2@@__crt_stdio_output@@AEAA_NXZ 0000000180076b10 f i libucrtd:output.obj
 0001:00075ee0       ?type_case_c@?$output_processor@DV?$stream_output_adapter@D@__crt_stdio_output@@V?$format_validation_base@DV?$stream_output_adapter@D@__crt_stdio_output@@@2@@__crt_stdio_output@@AEAA_NXZ 0000000180076ee0 f i libucrtd:output.obj
 0001:00075f00       ?type_case_c@?$output_processor@DV?$stream_output_adapter@D@__crt_stdio_output@@V?$positional_parameter_base@DV?$stream_output_adapter@D@__crt_stdio_output@@@2@@__crt_stdio_output@@AEAA_NXZ 0000000180076f00 f i libucrtd:output.obj
 0001:00075f20       ?type_case_c@?$output_processor@DV?$stream_output_adapter@D@__crt_stdio_output@@V?$standard_base@DV?$stream_output_adapter@D@__crt_stdio_output@@@2@@__crt_stdio_output@@AEAA_NXZ 0000000180076f20 f i libucrtd:output.obj
 0001:00075f40       ?type_case_c@?$output_processor@DV?$string_output_adapter@D@__crt_stdio_output@@V?$format_validation_base@DV?$string_output_adapter@D@__crt_stdio_output@@@2@@__crt_stdio_output@@AEAA_NXZ 0000000180076f40 f i libucrtd:output.obj
 0001:00075f60       ?type_case_c@?$output_processor@DV?$string_output_adapter@D@__crt_stdio_output@@V?$positional_parameter_base@DV?$string_output_adapter@D@__crt_stdio_output@@@2@@__crt_stdio_output@@AEAA_NXZ 0000000180076f60 f i libucrtd:output.obj
 0001:00075f80       ?type_case_c@?$output_processor@DV?$string_output_adapter@D@__crt_stdio_output@@V?$standard_base@DV?$string_output_adapter@D@__crt_stdio_output@@@2@@__crt_stdio_output@@AEAA_NXZ 0000000180076f80 f i libucrtd:output.obj
 0001:00075fa0       ?type_case_c@?$output_processor@_WV?$stream_output_adapter@_W@__crt_stdio_output@@V?$format_validation_base@_WV?$stream_output_adapter@_W@__crt_stdio_output@@@2@@__crt_stdio_output@@AEAA_NXZ 0000000180076fa0 f i libucrtd:output.obj
 0001:00075fc0       ?type_case_c@?$output_processor@_WV?$stream_output_adapter@_W@__crt_stdio_output@@V?$positional_parameter_base@_WV?$stream_output_adapter@_W@__crt_stdio_output@@@2@@__crt_stdio_output@@AEAA_NXZ 0000000180076fc0 f i libucrtd:output.obj
 0001:00075fe0       ?type_case_c@?$output_processor@_WV?$stream_output_adapter@_W@__crt_stdio_output@@V?$standard_base@_WV?$stream_output_adapter@_W@__crt_stdio_output@@@2@@__crt_stdio_output@@AEAA_NXZ 0000000180076fe0 f i libucrtd:output.obj
 0001:00076000       ?type_case_c@?$output_processor@_WV?$string_output_adapter@_W@__crt_stdio_output@@V?$format_validation_base@_WV?$string_output_adapter@_W@__crt_stdio_output@@@2@@__crt_stdio_output@@AEAA_NXZ 0000000180077000 f i libucrtd:output.obj
 0001:00076020       ?type_case_c@?$output_processor@_WV?$string_output_adapter@_W@__crt_stdio_output@@V?$positional_parameter_base@_WV?$string_output_adapter@_W@__crt_stdio_output@@@2@@__crt_stdio_output@@AEAA_NXZ 0000000180077020 f i libucrtd:output.obj
 0001:00076040       ?type_case_c@?$output_processor@_WV?$string_output_adapter@_W@__crt_stdio_output@@V?$standard_base@_WV?$string_output_adapter@_W@__crt_stdio_output@@@2@@__crt_stdio_output@@AEAA_NXZ 0000000180077040 f i libucrtd:output.obj
 0001:00076060       ?type_case_c_tchar@?$output_processor@DV?$stream_output_adapter@D@__crt_stdio_output@@V?$format_validation_base@DV?$stream_output_adapter@D@__crt_stdio_output@@@2@@__crt_stdio_output@@AEAA_ND@Z 0000000180077060 f i libucrtd:output.obj
 0001:000761c0       ?type_case_c_tchar@?$output_processor@DV?$stream_output_adapter@D@__crt_stdio_output@@V?$positional_parameter_base@DV?$stream_output_adapter@D@__crt_stdio_output@@@2@@__crt_stdio_output@@AEAA_ND@Z 00000001800771c0 f i libucrtd:output.obj
 0001:00076320       ?type_case_c_tchar@?$output_processor@DV?$stream_output_adapter@D@__crt_stdio_output@@V?$standard_base@DV?$stream_output_adapter@D@__crt_stdio_output@@@2@@__crt_stdio_output@@AEAA_ND@Z 0000000180077320 f i libucrtd:output.obj
 0001:00076480       ?type_case_c_tchar@?$output_processor@DV?$string_output_adapter@D@__crt_stdio_output@@V?$format_validation_base@DV?$string_output_adapter@D@__crt_stdio_output@@@2@@__crt_stdio_output@@AEAA_ND@Z 0000000180077480 f i libucrtd:output.obj
 0001:000765e0       ?type_case_c_tchar@?$output_processor@DV?$string_output_adapter@D@__crt_stdio_output@@V?$positional_parameter_base@DV?$string_output_adapter@D@__crt_stdio_output@@@2@@__crt_stdio_output@@AEAA_ND@Z 00000001800775e0 f i libucrtd:output.obj
 0001:00076740       ?type_case_c_tchar@?$output_processor@DV?$string_output_adapter@D@__crt_stdio_output@@V?$standard_base@DV?$string_output_adapter@D@__crt_stdio_output@@@2@@__crt_stdio_output@@AEAA_ND@Z 0000000180077740 f i libucrtd:output.obj
 0001:000768a0       ?type_case_c_tchar@?$output_processor@_WV?$stream_output_adapter@_W@__crt_stdio_output@@V?$format_validation_base@_WV?$stream_output_adapter@_W@__crt_stdio_output@@@2@@__crt_stdio_output@@AEAA_N_W@Z 00000001800778a0 f i libucrtd:output.obj
 0001:000769d0       ?type_case_c_tchar@?$output_processor@_WV?$stream_output_adapter@_W@__crt_stdio_output@@V?$positional_parameter_base@_WV?$stream_output_adapter@_W@__crt_stdio_output@@@2@@__crt_stdio_output@@AEAA_N_W@Z 00000001800779d0 f i libucrtd:output.obj
 0001:00076b00       ?type_case_c_tchar@?$output_processor@_WV?$stream_output_adapter@_W@__crt_stdio_output@@V?$standard_base@_WV?$stream_output_adapter@_W@__crt_stdio_output@@@2@@__crt_stdio_output@@AEAA_N_W@Z 0000000180077b00 f i libucrtd:output.obj
 0001:00076c30       ?type_case_c_tchar@?$output_processor@_WV?$string_output_adapter@_W@__crt_stdio_output@@V?$format_validation_base@_WV?$string_output_adapter@_W@__crt_stdio_output@@@2@@__crt_stdio_output@@AEAA_N_W@Z 0000000180077c30 f i libucrtd:output.obj
 0001:00076d60       ?type_case_c_tchar@?$output_processor@_WV?$string_output_adapter@_W@__crt_stdio_output@@V?$positional_parameter_base@_WV?$string_output_adapter@_W@__crt_stdio_output@@@2@@__crt_stdio_output@@AEAA_N_W@Z 0000000180077d60 f i libucrtd:output.obj
 0001:00076e90       ?type_case_c_tchar@?$output_processor@_WV?$string_output_adapter@_W@__crt_stdio_output@@V?$standard_base@_WV?$string_output_adapter@_W@__crt_stdio_output@@@2@@__crt_stdio_output@@AEAA_N_W@Z 0000000180077e90 f i libucrtd:output.obj
 0001:00076fc0       ?type_case_d@?$output_processor@DV?$stream_output_adapter@D@__crt_stdio_output@@V?$format_validation_base@DV?$stream_output_adapter@D@__crt_stdio_output@@@2@@__crt_stdio_output@@AEAA_NXZ 0000000180077fc0 f i libucrtd:output.obj
 0001:00076ff0       ?type_case_d@?$output_processor@DV?$stream_output_adapter@D@__crt_stdio_output@@V?$positional_parameter_base@DV?$stream_output_adapter@D@__crt_stdio_output@@@2@@__crt_stdio_output@@AEAA_NXZ 0000000180077ff0 f i libucrtd:output.obj
 0001:00077020       ?type_case_d@?$output_processor@DV?$stream_output_adapter@D@__crt_stdio_output@@V?$standard_base@DV?$stream_output_adapter@D@__crt_stdio_output@@@2@@__crt_stdio_output@@AEAA_NXZ 0000000180078020 f i libucrtd:output.obj
 0001:00077050       ?type_case_d@?$output_processor@DV?$string_output_adapter@D@__crt_stdio_output@@V?$format_validation_base@DV?$string_output_adapter@D@__crt_stdio_output@@@2@@__crt_stdio_output@@AEAA_NXZ 0000000180078050 f i libucrtd:output.obj
 0001:00077080       ?type_case_d@?$output_processor@DV?$string_output_adapter@D@__crt_stdio_output@@V?$positional_parameter_base@DV?$string_output_adapter@D@__crt_stdio_output@@@2@@__crt_stdio_output@@AEAA_NXZ 0000000180078080 f i libucrtd:output.obj
 0001:000770b0       ?type_case_d@?$output_processor@DV?$string_output_adapter@D@__crt_stdio_output@@V?$standard_base@DV?$string_output_adapter@D@__crt_stdio_output@@@2@@__crt_stdio_output@@AEAA_NXZ 00000001800780b0 f i libucrtd:output.obj
 0001:000770e0       ?type_case_d@?$output_processor@_WV?$stream_output_adapter@_W@__crt_stdio_output@@V?$format_validation_base@_WV?$stream_output_adapter@_W@__crt_stdio_output@@@2@@__crt_stdio_output@@AEAA_NXZ 00000001800780e0 f i libucrtd:output.obj
 0001:00077110       ?type_case_d@?$output_processor@_WV?$stream_output_adapter@_W@__crt_stdio_output@@V?$positional_parameter_base@_WV?$stream_output_adapter@_W@__crt_stdio_output@@@2@@__crt_stdio_output@@AEAA_NXZ 0000000180078110 f i libucrtd:output.obj
 0001:00077140       ?type_case_d@?$output_processor@_WV?$stream_output_adapter@_W@__crt_stdio_output@@V?$standard_base@_WV?$stream_output_adapter@_W@__crt_stdio_output@@@2@@__crt_stdio_output@@AEAA_NXZ 0000000180078140 f i libucrtd:output.obj
 0001:00077170       ?type_case_d@?$output_processor@_WV?$string_output_adapter@_W@__crt_stdio_output@@V?$format_validation_base@_WV?$string_output_adapter@_W@__crt_stdio_output@@@2@@__crt_stdio_output@@AEAA_NXZ 0000000180078170 f i libucrtd:output.obj
 0001:000771a0       ?type_case_d@?$output_processor@_WV?$string_output_adapter@_W@__crt_stdio_output@@V?$positional_parameter_base@_WV?$string_output_adapter@_W@__crt_stdio_output@@@2@@__crt_stdio_output@@AEAA_NXZ 00000001800781a0 f i libucrtd:output.obj
 0001:000771d0       ?type_case_d@?$output_processor@_WV?$string_output_adapter@_W@__crt_stdio_output@@V?$standard_base@_WV?$string_output_adapter@_W@__crt_stdio_output@@@2@@__crt_stdio_output@@AEAA_NXZ 00000001800781d0 f i libucrtd:output.obj
 0001:00077200       ?type_case_integer@?$output_processor@DV?$stream_output_adapter@D@__crt_stdio_output@@V?$format_validation_base@DV?$stream_output_adapter@D@__crt_stdio_output@@@2@@__crt_stdio_output@@AEAA_NI_N@Z 0000000180078200 f i libucrtd:output.obj
 0001:00077650       ?type_case_integer@?$output_processor@DV?$stream_output_adapter@D@__crt_stdio_output@@V?$positional_parameter_base@DV?$stream_output_adapter@D@__crt_stdio_output@@@2@@__crt_stdio_output@@AEAA_NI_N@Z 0000000180078650 f i libucrtd:output.obj
 0001:00077aa0       ?type_case_integer@?$output_processor@DV?$stream_output_adapter@D@__crt_stdio_output@@V?$standard_base@DV?$stream_output_adapter@D@__crt_stdio_output@@@2@@__crt_stdio_output@@AEAA_NI_N@Z 0000000180078aa0 f i libucrtd:output.obj
 0001:00077ef0       ?type_case_integer@?$output_processor@DV?$string_output_adapter@D@__crt_stdio_output@@V?$format_validation_base@DV?$string_output_adapter@D@__crt_stdio_output@@@2@@__crt_stdio_output@@AEAA_NI_N@Z 0000000180078ef0 f i libucrtd:output.obj
 0001:00078340       ?type_case_integer@?$output_processor@DV?$string_output_adapter@D@__crt_stdio_output@@V?$positional_parameter_base@DV?$string_output_adapter@D@__crt_stdio_output@@@2@@__crt_stdio_output@@AEAA_NI_N@Z 0000000180079340 f i libucrtd:output.obj
 0001:00078790       ?type_case_integer@?$output_processor@DV?$string_output_adapter@D@__crt_stdio_output@@V?$standard_base@DV?$string_output_adapter@D@__crt_stdio_output@@@2@@__crt_stdio_output@@AEAA_NI_N@Z 0000000180079790 f i libucrtd:output.obj
 0001:00078be0       ?type_case_integer@?$output_processor@_WV?$stream_output_adapter@_W@__crt_stdio_output@@V?$format_validation_base@_WV?$stream_output_adapter@_W@__crt_stdio_output@@@2@@__crt_stdio_output@@AEAA_NI_N@Z 0000000180079be0 f i libucrtd:output.obj
 0001:00079030       ?type_case_integer@?$output_processor@_WV?$stream_output_adapter@_W@__crt_stdio_output@@V?$positional_parameter_base@_WV?$stream_output_adapter@_W@__crt_stdio_output@@@2@@__crt_stdio_output@@AEAA_NI_N@Z 000000018007a030 f i libucrtd:output.obj
 0001:00079480       ?type_case_integer@?$output_processor@_WV?$stream_output_adapter@_W@__crt_stdio_output@@V?$standard_base@_WV?$stream_output_adapter@_W@__crt_stdio_output@@@2@@__crt_stdio_output@@AEAA_NI_N@Z 000000018007a480 f i libucrtd:output.obj
 0001:000798d0       ?type_case_integer@?$output_processor@_WV?$string_output_adapter@_W@__crt_stdio_output@@V?$format_validation_base@_WV?$string_output_adapter@_W@__crt_stdio_output@@@2@@__crt_stdio_output@@AEAA_NI_N@Z 000000018007a8d0 f i libucrtd:output.obj
 0001:00079d20       ?type_case_integer@?$output_processor@_WV?$string_output_adapter@_W@__crt_stdio_output@@V?$positional_parameter_base@_WV?$string_output_adapter@_W@__crt_stdio_output@@@2@@__crt_stdio_output@@AEAA_NI_N@Z 000000018007ad20 f i libucrtd:output.obj
 0001:0007a170       ?type_case_integer@?$output_processor@_WV?$string_output_adapter@_W@__crt_stdio_output@@V?$standard_base@_WV?$string_output_adapter@_W@__crt_stdio_output@@@2@@__crt_stdio_output@@AEAA_NI_N@Z 000000018007b170 f i libucrtd:output.obj
 0001:0007a5c0       ?type_case_n@?$output_processor@DV?$stream_output_adapter@D@__crt_stdio_output@@V?$format_validation_base@DV?$stream_output_adapter@D@__crt_stdio_output@@@2@@__crt_stdio_output@@AEAA_NXZ 000000018007b5c0 f i libucrtd:output.obj
 0001:0007a800       ?type_case_n@?$output_processor@DV?$stream_output_adapter@D@__crt_stdio_output@@V?$positional_parameter_base@DV?$stream_output_adapter@D@__crt_stdio_output@@@2@@__crt_stdio_output@@AEAA_NXZ 000000018007b800 f i libucrtd:output.obj
 0001:0007aa40       ?type_case_n@?$output_processor@DV?$stream_output_adapter@D@__crt_stdio_output@@V?$standard_base@DV?$stream_output_adapter@D@__crt_stdio_output@@@2@@__crt_stdio_output@@AEAA_NXZ 000000018007ba40 f i libucrtd:output.obj
 0001:0007ac80       ?type_case_n@?$output_processor@DV?$string_output_adapter@D@__crt_stdio_output@@V?$format_validation_base@DV?$string_output_adapter@D@__crt_stdio_output@@@2@@__crt_stdio_output@@AEAA_NXZ 000000018007bc80 f i libucrtd:output.obj
 0001:0007aec0       ?type_case_n@?$output_processor@DV?$string_output_adapter@D@__crt_stdio_output@@V?$positional_parameter_base@DV?$string_output_adapter@D@__crt_stdio_output@@@2@@__crt_stdio_output@@AEAA_NXZ 000000018007bec0 f i libucrtd:output.obj
 0001:0007b100       ?type_case_n@?$output_processor@DV?$string_output_adapter@D@__crt_stdio_output@@V?$standard_base@DV?$string_output_adapter@D@__crt_stdio_output@@@2@@__crt_stdio_output@@AEAA_NXZ 000000018007c100 f i libucrtd:output.obj
 0001:0007b340       ?type_case_n@?$output_processor@_WV?$stream_output_adapter@_W@__crt_stdio_output@@V?$format_validation_base@_WV?$stream_output_adapter@_W@__crt_stdio_output@@@2@@__crt_stdio_output@@AEAA_NXZ 000000018007c340 f i libucrtd:output.obj
 0001:0007b580       ?type_case_n@?$output_processor@_WV?$stream_output_adapter@_W@__crt_stdio_output@@V?$positional_parameter_base@_WV?$stream_output_adapter@_W@__crt_stdio_output@@@2@@__crt_stdio_output@@AEAA_NXZ 000000018007c580 f i libucrtd:output.obj
 0001:0007b7c0       ?type_case_n@?$output_processor@_WV?$stream_output_adapter@_W@__crt_stdio_output@@V?$standard_base@_WV?$stream_output_adapter@_W@__crt_stdio_output@@@2@@__crt_stdio_output@@AEAA_NXZ 000000018007c7c0 f i libucrtd:output.obj
 0001:0007ba00       ?type_case_n@?$output_processor@_WV?$string_output_adapter@_W@__crt_stdio_output@@V?$format_validation_base@_WV?$string_output_adapter@_W@__crt_stdio_output@@@2@@__crt_stdio_output@@AEAA_NXZ 000000018007ca00 f i libucrtd:output.obj
 0001:0007bc40       ?type_case_n@?$output_processor@_WV?$string_output_adapter@_W@__crt_stdio_output@@V?$positional_parameter_base@_WV?$string_output_adapter@_W@__crt_stdio_output@@@2@@__crt_stdio_output@@AEAA_NXZ 000000018007cc40 f i libucrtd:output.obj
 0001:0007be80       ?type_case_n@?$output_processor@_WV?$string_output_adapter@_W@__crt_stdio_output@@V?$standard_base@_WV?$string_output_adapter@_W@__crt_stdio_output@@@2@@__crt_stdio_output@@AEAA_NXZ 000000018007ce80 f i libucrtd:output.obj
 0001:0007c0c0       ?type_case_o@?$output_processor@DV?$stream_output_adapter@D@__crt_stdio_output@@V?$format_validation_base@DV?$stream_output_adapter@D@__crt_stdio_output@@@2@@__crt_stdio_output@@AEAA_NXZ 000000018007d0c0 f i libucrtd:output.obj
 0001:0007c110       ?type_case_o@?$output_processor@DV?$stream_output_adapter@D@__crt_stdio_output@@V?$positional_parameter_base@DV?$stream_output_adapter@D@__crt_stdio_output@@@2@@__crt_stdio_output@@AEAA_NXZ 000000018007d110 f i libucrtd:output.obj
 0001:0007c160       ?type_case_o@?$output_processor@DV?$stream_output_adapter@D@__crt_stdio_output@@V?$standard_base@DV?$stream_output_adapter@D@__crt_stdio_output@@@2@@__crt_stdio_output@@AEAA_NXZ 000000018007d160 f i libucrtd:output.obj
 0001:0007c1b0       ?type_case_o@?$output_processor@DV?$string_output_adapter@D@__crt_stdio_output@@V?$format_validation_base@DV?$string_output_adapter@D@__crt_stdio_output@@@2@@__crt_stdio_output@@AEAA_NXZ 000000018007d1b0 f i libucrtd:output.obj
 0001:0007c200       ?type_case_o@?$output_processor@DV?$string_output_adapter@D@__crt_stdio_output@@V?$positional_parameter_base@DV?$string_output_adapter@D@__crt_stdio_output@@@2@@__crt_stdio_output@@AEAA_NXZ 000000018007d200 f i libucrtd:output.obj
 0001:0007c250       ?type_case_o@?$output_processor@DV?$string_output_adapter@D@__crt_stdio_output@@V?$standard_base@DV?$string_output_adapter@D@__crt_stdio_output@@@2@@__crt_stdio_output@@AEAA_NXZ 000000018007d250 f i libucrtd:output.obj
 0001:0007c2a0       ?type_case_o@?$output_processor@_WV?$stream_output_adapter@_W@__crt_stdio_output@@V?$format_validation_base@_WV?$stream_output_adapter@_W@__crt_stdio_output@@@2@@__crt_stdio_output@@AEAA_NXZ 000000018007d2a0 f i libucrtd:output.obj
 0001:0007c2f0       ?type_case_o@?$output_processor@_WV?$stream_output_adapter@_W@__crt_stdio_output@@V?$positional_parameter_base@_WV?$stream_output_adapter@_W@__crt_stdio_output@@@2@@__crt_stdio_output@@AEAA_NXZ 000000018007d2f0 f i libucrtd:output.obj
 0001:0007c340       ?type_case_o@?$output_processor@_WV?$stream_output_adapter@_W@__crt_stdio_output@@V?$standard_base@_WV?$stream_output_adapter@_W@__crt_stdio_output@@@2@@__crt_stdio_output@@AEAA_NXZ 000000018007d340 f i libucrtd:output.obj
 0001:0007c390       ?type_case_o@?$output_processor@_WV?$string_output_adapter@_W@__crt_stdio_output@@V?$format_validation_base@_WV?$string_output_adapter@_W@__crt_stdio_output@@@2@@__crt_stdio_output@@AEAA_NXZ 000000018007d390 f i libucrtd:output.obj
 0001:0007c3e0       ?type_case_o@?$output_processor@_WV?$string_output_adapter@_W@__crt_stdio_output@@V?$positional_parameter_base@_WV?$string_output_adapter@_W@__crt_stdio_output@@@2@@__crt_stdio_output@@AEAA_NXZ 000000018007d3e0 f i libucrtd:output.obj
 0001:0007c430       ?type_case_o@?$output_processor@_WV?$string_output_adapter@_W@__crt_stdio_output@@V?$standard_base@_WV?$string_output_adapter@_W@__crt_stdio_output@@@2@@__crt_stdio_output@@AEAA_NXZ 000000018007d430 f i libucrtd:output.obj
 0001:0007c480       ?type_case_p@?$output_processor@DV?$stream_output_adapter@D@__crt_stdio_output@@V?$format_validation_base@DV?$stream_output_adapter@D@__crt_stdio_output@@@2@@__crt_stdio_output@@AEAA_NXZ 000000018007d480 f i libucrtd:output.obj
 0001:0007c4c0       ?type_case_p@?$output_processor@DV?$stream_output_adapter@D@__crt_stdio_output@@V?$positional_parameter_base@DV?$stream_output_adapter@D@__crt_stdio_output@@@2@@__crt_stdio_output@@AEAA_NXZ 000000018007d4c0 f i libucrtd:output.obj
 0001:0007c500       ?type_case_p@?$output_processor@DV?$stream_output_adapter@D@__crt_stdio_output@@V?$standard_base@DV?$stream_output_adapter@D@__crt_stdio_output@@@2@@__crt_stdio_output@@AEAA_NXZ 000000018007d500 f i libucrtd:output.obj
 0001:0007c540       ?type_case_p@?$output_processor@DV?$string_output_adapter@D@__crt_stdio_output@@V?$format_validation_base@DV?$string_output_adapter@D@__crt_stdio_output@@@2@@__crt_stdio_output@@AEAA_NXZ 000000018007d540 f i libucrtd:output.obj
 0001:0007c580       ?type_case_p@?$output_processor@DV?$string_output_adapter@D@__crt_stdio_output@@V?$positional_parameter_base@DV?$string_output_adapter@D@__crt_stdio_output@@@2@@__crt_stdio_output@@AEAA_NXZ 000000018007d580 f i libucrtd:output.obj
 0001:0007c5c0       ?type_case_p@?$output_processor@DV?$string_output_adapter@D@__crt_stdio_output@@V?$standard_base@DV?$string_output_adapter@D@__crt_stdio_output@@@2@@__crt_stdio_output@@AEAA_NXZ 000000018007d5c0 f i libucrtd:output.obj
 0001:0007c600       ?type_case_p@?$output_processor@_WV?$stream_output_adapter@_W@__crt_stdio_output@@V?$format_validation_base@_WV?$stream_output_adapter@_W@__crt_stdio_output@@@2@@__crt_stdio_output@@AEAA_NXZ 000000018007d600 f i libucrtd:output.obj
 0001:0007c640       ?type_case_p@?$output_processor@_WV?$stream_output_adapter@_W@__crt_stdio_output@@V?$positional_parameter_base@_WV?$stream_output_adapter@_W@__crt_stdio_output@@@2@@__crt_stdio_output@@AEAA_NXZ 000000018007d640 f i libucrtd:output.obj
 0001:0007c680       ?type_case_p@?$output_processor@_WV?$stream_output_adapter@_W@__crt_stdio_output@@V?$standard_base@_WV?$stream_output_adapter@_W@__crt_stdio_output@@@2@@__crt_stdio_output@@AEAA_NXZ 000000018007d680 f i libucrtd:output.obj
 0001:0007c6c0       ?type_case_p@?$output_processor@_WV?$string_output_adapter@_W@__crt_stdio_output@@V?$format_validation_base@_WV?$string_output_adapter@_W@__crt_stdio_output@@@2@@__crt_stdio_output@@AEAA_NXZ 000000018007d6c0 f i libucrtd:output.obj
 0001:0007c700       ?type_case_p@?$output_processor@_WV?$string_output_adapter@_W@__crt_stdio_output@@V?$positional_parameter_base@_WV?$string_output_adapter@_W@__crt_stdio_output@@@2@@__crt_stdio_output@@AEAA_NXZ 000000018007d700 f i libucrtd:output.obj
 0001:0007c740       ?type_case_p@?$output_processor@_WV?$string_output_adapter@_W@__crt_stdio_output@@V?$standard_base@_WV?$string_output_adapter@_W@__crt_stdio_output@@@2@@__crt_stdio_output@@AEAA_NXZ 000000018007d740 f i libucrtd:output.obj
 0001:0007c780       ?type_case_s@?$output_processor@DV?$stream_output_adapter@D@__crt_stdio_output@@V?$format_validation_base@DV?$stream_output_adapter@D@__crt_stdio_output@@@2@@__crt_stdio_output@@AEAA_NXZ 000000018007d780 f i libucrtd:output.obj
 0001:0007c8a0       ?type_case_s@?$output_processor@DV?$stream_output_adapter@D@__crt_stdio_output@@V?$positional_parameter_base@DV?$stream_output_adapter@D@__crt_stdio_output@@@2@@__crt_stdio_output@@AEAA_NXZ 000000018007d8a0 f i libucrtd:output.obj
 0001:0007c9c0       ?type_case_s@?$output_processor@DV?$stream_output_adapter@D@__crt_stdio_output@@V?$standard_base@DV?$stream_output_adapter@D@__crt_stdio_output@@@2@@__crt_stdio_output@@AEAA_NXZ 000000018007d9c0 f i libucrtd:output.obj
 0001:0007cae0       ?type_case_s@?$output_processor@DV?$string_output_adapter@D@__crt_stdio_output@@V?$format_validation_base@DV?$string_output_adapter@D@__crt_stdio_output@@@2@@__crt_stdio_output@@AEAA_NXZ 000000018007dae0 f i libucrtd:output.obj
 0001:0007cc00       ?type_case_s@?$output_processor@DV?$string_output_adapter@D@__crt_stdio_output@@V?$positional_parameter_base@DV?$string_output_adapter@D@__crt_stdio_output@@@2@@__crt_stdio_output@@AEAA_NXZ 000000018007dc00 f i libucrtd:output.obj
 0001:0007cd20       ?type_case_s@?$output_processor@DV?$string_output_adapter@D@__crt_stdio_output@@V?$standard_base@DV?$string_output_adapter@D@__crt_stdio_output@@@2@@__crt_stdio_output@@AEAA_NXZ 000000018007dd20 f i libucrtd:output.obj
 0001:0007ce40       ?type_case_s@?$output_processor@_WV?$stream_output_adapter@_W@__crt_stdio_output@@V?$format_validation_base@_WV?$stream_output_adapter@_W@__crt_stdio_output@@@2@@__crt_stdio_output@@AEAA_NXZ 000000018007de40 f i libucrtd:output.obj
 0001:0007cf60       ?type_case_s@?$output_processor@_WV?$stream_output_adapter@_W@__crt_stdio_output@@V?$positional_parameter_base@_WV?$stream_output_adapter@_W@__crt_stdio_output@@@2@@__crt_stdio_output@@AEAA_NXZ 000000018007df60 f i libucrtd:output.obj
 0001:0007d080       ?type_case_s@?$output_processor@_WV?$stream_output_adapter@_W@__crt_stdio_output@@V?$standard_base@_WV?$stream_output_adapter@_W@__crt_stdio_output@@@2@@__crt_stdio_output@@AEAA_NXZ 000000018007e080 f i libucrtd:output.obj
 0001:0007d1a0       ?type_case_s@?$output_processor@_WV?$string_output_adapter@_W@__crt_stdio_output@@V?$format_validation_base@_WV?$string_output_adapter@_W@__crt_stdio_output@@@2@@__crt_stdio_output@@AEAA_NXZ 000000018007e1a0 f i libucrtd:output.obj
 0001:0007d2c0       ?type_case_s@?$output_processor@_WV?$string_output_adapter@_W@__crt_stdio_output@@V?$positional_parameter_base@_WV?$string_output_adapter@_W@__crt_stdio_output@@@2@@__crt_stdio_output@@AEAA_NXZ 000000018007e2c0 f i libucrtd:output.obj
 0001:0007d3e0       ?type_case_s@?$output_processor@_WV?$string_output_adapter@_W@__crt_stdio_output@@V?$standard_base@_WV?$string_output_adapter@_W@__crt_stdio_output@@@2@@__crt_stdio_output@@AEAA_NXZ 000000018007e3e0 f i libucrtd:output.obj
 0001:0007d500       ?type_case_s_compute_narrow_string_length@?$output_processor@DV?$stream_output_adapter@D@__crt_stdio_output@@V?$format_validation_base@DV?$stream_output_adapter@D@__crt_stdio_output@@@2@@__crt_stdio_output@@AEBAHHD@Z 000000018007e500 f i libucrtd:output.obj
 0001:0007d530       ?type_case_s_compute_narrow_string_length@?$output_processor@DV?$stream_output_adapter@D@__crt_stdio_output@@V?$positional_parameter_base@DV?$stream_output_adapter@D@__crt_stdio_output@@@2@@__crt_stdio_output@@AEBAHHD@Z 000000018007e530 f i libucrtd:output.obj
 0001:0007d560       ?type_case_s_compute_narrow_string_length@?$output_processor@DV?$stream_output_adapter@D@__crt_stdio_output@@V?$standard_base@DV?$stream_output_adapter@D@__crt_stdio_output@@@2@@__crt_stdio_output@@AEBAHHD@Z 000000018007e560 f i libucrtd:output.obj
 0001:0007d590       ?type_case_s_compute_narrow_string_length@?$output_processor@DV?$string_output_adapter@D@__crt_stdio_output@@V?$format_validation_base@DV?$string_output_adapter@D@__crt_stdio_output@@@2@@__crt_stdio_output@@AEBAHHD@Z 000000018007e590 f i libucrtd:output.obj
 0001:0007d5c0       ?type_case_s_compute_narrow_string_length@?$output_processor@DV?$string_output_adapter@D@__crt_stdio_output@@V?$positional_parameter_base@DV?$string_output_adapter@D@__crt_stdio_output@@@2@@__crt_stdio_output@@AEBAHHD@Z 000000018007e5c0 f i libucrtd:output.obj
 0001:0007d5f0       ?type_case_s_compute_narrow_string_length@?$output_processor@DV?$string_output_adapter@D@__crt_stdio_output@@V?$standard_base@DV?$string_output_adapter@D@__crt_stdio_output@@@2@@__crt_stdio_output@@AEBAHHD@Z 000000018007e5f0 f i libucrtd:output.obj
 0001:0007d620       ?type_case_s_compute_narrow_string_length@?$output_processor@_WV?$stream_output_adapter@_W@__crt_stdio_output@@V?$format_validation_base@_WV?$stream_output_adapter@_W@__crt_stdio_output@@@2@@__crt_stdio_output@@AEBAHH_W@Z 000000018007e620 f i libucrtd:output.obj
 0001:0007d6b0       ?type_case_s_compute_narrow_string_length@?$output_processor@_WV?$stream_output_adapter@_W@__crt_stdio_output@@V?$positional_parameter_base@_WV?$stream_output_adapter@_W@__crt_stdio_output@@@2@@__crt_stdio_output@@AEBAHH_W@Z 000000018007e6b0 f i libucrtd:output.obj
 0001:0007d740       ?type_case_s_compute_narrow_string_length@?$output_processor@_WV?$stream_output_adapter@_W@__crt_stdio_output@@V?$standard_base@_WV?$stream_output_adapter@_W@__crt_stdio_output@@@2@@__crt_stdio_output@@AEBAHH_W@Z 000000018007e740 f i libucrtd:output.obj
 0001:0007d7d0       ?type_case_s_compute_narrow_string_length@?$output_processor@_WV?$string_output_adapter@_W@__crt_stdio_output@@V?$format_validation_base@_WV?$string_output_adapter@_W@__crt_stdio_output@@@2@@__crt_stdio_output@@AEBAHH_W@Z 000000018007e7d0 f i libucrtd:output.obj
 0001:0007d860       ?type_case_s_compute_narrow_string_length@?$output_processor@_WV?$string_output_adapter@_W@__crt_stdio_output@@V?$positional_parameter_base@_WV?$string_output_adapter@_W@__crt_stdio_output@@@2@@__crt_stdio_output@@AEBAHH_W@Z 000000018007e860 f i libucrtd:output.obj
 0001:0007d8f0       ?type_case_s_compute_narrow_string_length@?$output_processor@_WV?$string_output_adapter@_W@__crt_stdio_output@@V?$standard_base@_WV?$string_output_adapter@_W@__crt_stdio_output@@@2@@__crt_stdio_output@@AEBAHH_W@Z 000000018007e8f0 f i libucrtd:output.obj
 0001:0007d980       ?type_case_u@?$output_processor@DV?$stream_output_adapter@D@__crt_stdio_output@@V?$format_validation_base@DV?$stream_output_adapter@D@__crt_stdio_output@@@2@@__crt_stdio_output@@AEAA_NXZ 000000018007e980 f i libucrtd:output.obj
 0001:0007d9a0       ?type_case_u@?$output_processor@DV?$stream_output_adapter@D@__crt_stdio_output@@V?$positional_parameter_base@DV?$stream_output_adapter@D@__crt_stdio_output@@@2@@__crt_stdio_output@@AEAA_NXZ 000000018007e9a0 f i libucrtd:output.obj
 0001:0007d9c0       ?type_case_u@?$output_processor@DV?$stream_output_adapter@D@__crt_stdio_output@@V?$standard_base@DV?$stream_output_adapter@D@__crt_stdio_output@@@2@@__crt_stdio_output@@AEAA_NXZ 000000018007e9c0 f i libucrtd:output.obj
 0001:0007d9e0       ?type_case_u@?$output_processor@DV?$string_output_adapter@D@__crt_stdio_output@@V?$format_validation_base@DV?$string_output_adapter@D@__crt_stdio_output@@@2@@__crt_stdio_output@@AEAA_NXZ 000000018007e9e0 f i libucrtd:output.obj
 0001:0007da00       ?type_case_u@?$output_processor@DV?$string_output_adapter@D@__crt_stdio_output@@V?$positional_parameter_base@DV?$string_output_adapter@D@__crt_stdio_output@@@2@@__crt_stdio_output@@AEAA_NXZ 000000018007ea00 f i libucrtd:output.obj
 0001:0007da20       ?type_case_u@?$output_processor@DV?$string_output_adapter@D@__crt_stdio_output@@V?$standard_base@DV?$string_output_adapter@D@__crt_stdio_output@@@2@@__crt_stdio_output@@AEAA_NXZ 000000018007ea20 f i libucrtd:output.obj
 0001:0007da40       ?type_case_u@?$output_processor@_WV?$stream_output_adapter@_W@__crt_stdio_output@@V?$format_validation_base@_WV?$stream_output_adapter@_W@__crt_stdio_output@@@2@@__crt_stdio_output@@AEAA_NXZ 000000018007ea40 f i libucrtd:output.obj
 0001:0007da60       ?type_case_u@?$output_processor@_WV?$stream_output_adapter@_W@__crt_stdio_output@@V?$positional_parameter_base@_WV?$stream_output_adapter@_W@__crt_stdio_output@@@2@@__crt_stdio_output@@AEAA_NXZ 000000018007ea60 f i libucrtd:output.obj
 0001:0007da80       ?type_case_u@?$output_processor@_WV?$stream_output_adapter@_W@__crt_stdio_output@@V?$standard_base@_WV?$stream_output_adapter@_W@__crt_stdio_output@@@2@@__crt_stdio_output@@AEAA_NXZ 000000018007ea80 f i libucrtd:output.obj
 0001:0007daa0       ?type_case_u@?$output_processor@_WV?$string_output_adapter@_W@__crt_stdio_output@@V?$format_validation_base@_WV?$string_output_adapter@_W@__crt_stdio_output@@@2@@__crt_stdio_output@@AEAA_NXZ 000000018007eaa0 f i libucrtd:output.obj
 0001:0007dac0       ?type_case_u@?$output_processor@_WV?$string_output_adapter@_W@__crt_stdio_output@@V?$positional_parameter_base@_WV?$string_output_adapter@_W@__crt_stdio_output@@@2@@__crt_stdio_output@@AEAA_NXZ 000000018007eac0 f i libucrtd:output.obj
 0001:0007dae0       ?type_case_u@?$output_processor@_WV?$string_output_adapter@_W@__crt_stdio_output@@V?$standard_base@_WV?$string_output_adapter@_W@__crt_stdio_output@@@2@@__crt_stdio_output@@AEAA_NXZ 000000018007eae0 f i libucrtd:output.obj
 0001:0007db00       ?type_case_x@?$output_processor@DV?$stream_output_adapter@D@__crt_stdio_output@@V?$format_validation_base@DV?$stream_output_adapter@D@__crt_stdio_output@@@2@@__crt_stdio_output@@AEAA_NXZ 000000018007eb00 f i libucrtd:output.obj
 0001:0007db20       ?type_case_x@?$output_processor@DV?$stream_output_adapter@D@__crt_stdio_output@@V?$positional_parameter_base@DV?$stream_output_adapter@D@__crt_stdio_output@@@2@@__crt_stdio_output@@AEAA_NXZ 000000018007eb20 f i libucrtd:output.obj
 0001:0007db40       ?type_case_x@?$output_processor@DV?$stream_output_adapter@D@__crt_stdio_output@@V?$standard_base@DV?$stream_output_adapter@D@__crt_stdio_output@@@2@@__crt_stdio_output@@AEAA_NXZ 000000018007eb40 f i libucrtd:output.obj
 0001:0007db60       ?type_case_x@?$output_processor@DV?$string_output_adapter@D@__crt_stdio_output@@V?$format_validation_base@DV?$string_output_adapter@D@__crt_stdio_output@@@2@@__crt_stdio_output@@AEAA_NXZ 000000018007eb60 f i libucrtd:output.obj
 0001:0007db80       ?type_case_x@?$output_processor@DV?$string_output_adapter@D@__crt_stdio_output@@V?$positional_parameter_base@DV?$string_output_adapter@D@__crt_stdio_output@@@2@@__crt_stdio_output@@AEAA_NXZ 000000018007eb80 f i libucrtd:output.obj
 0001:0007dba0       ?type_case_x@?$output_processor@DV?$string_output_adapter@D@__crt_stdio_output@@V?$standard_base@DV?$string_output_adapter@D@__crt_stdio_output@@@2@@__crt_stdio_output@@AEAA_NXZ 000000018007eba0 f i libucrtd:output.obj
 0001:0007dbc0       ?type_case_x@?$output_processor@_WV?$stream_output_adapter@_W@__crt_stdio_output@@V?$format_validation_base@_WV?$stream_output_adapter@_W@__crt_stdio_output@@@2@@__crt_stdio_output@@AEAA_NXZ 000000018007ebc0 f i libucrtd:output.obj
 0001:0007dbe0       ?type_case_x@?$output_processor@_WV?$stream_output_adapter@_W@__crt_stdio_output@@V?$positional_parameter_base@_WV?$stream_output_adapter@_W@__crt_stdio_output@@@2@@__crt_stdio_output@@AEAA_NXZ 000000018007ebe0 f i libucrtd:output.obj
 0001:0007dc00       ?type_case_x@?$output_processor@_WV?$stream_output_adapter@_W@__crt_stdio_output@@V?$standard_base@_WV?$stream_output_adapter@_W@__crt_stdio_output@@@2@@__crt_stdio_output@@AEAA_NXZ 000000018007ec00 f i libucrtd:output.obj
 0001:0007dc20       ?type_case_x@?$output_processor@_WV?$string_output_adapter@_W@__crt_stdio_output@@V?$format_validation_base@_WV?$string_output_adapter@_W@__crt_stdio_output@@@2@@__crt_stdio_output@@AEAA_NXZ 000000018007ec20 f i libucrtd:output.obj
 0001:0007dc40       ?type_case_x@?$output_processor@_WV?$string_output_adapter@_W@__crt_stdio_output@@V?$positional_parameter_base@_WV?$string_output_adapter@_W@__crt_stdio_output@@@2@@__crt_stdio_output@@AEAA_NXZ 000000018007ec40 f i libucrtd:output.obj
 0001:0007dc60       ?type_case_x@?$output_processor@_WV?$string_output_adapter@_W@__crt_stdio_output@@V?$standard_base@_WV?$string_output_adapter@_W@__crt_stdio_output@@@2@@__crt_stdio_output@@AEAA_NXZ 000000018007ec60 f i libucrtd:output.obj
 0001:0007dc80       ?unset_flag@?$output_processor@DV?$stream_output_adapter@D@__crt_stdio_output@@V?$format_validation_base@DV?$stream_output_adapter@D@__crt_stdio_output@@@2@@__crt_stdio_output@@AEAAXI@Z 000000018007ec80 f i libucrtd:output.obj
 0001:0007dcb0       ?unset_flag@?$output_processor@DV?$stream_output_adapter@D@__crt_stdio_output@@V?$positional_parameter_base@DV?$stream_output_adapter@D@__crt_stdio_output@@@2@@__crt_stdio_output@@AEAAXI@Z 000000018007ecb0 f i libucrtd:output.obj
 0001:0007dce0       ?unset_flag@?$output_processor@DV?$stream_output_adapter@D@__crt_stdio_output@@V?$standard_base@DV?$stream_output_adapter@D@__crt_stdio_output@@@2@@__crt_stdio_output@@AEAAXI@Z 000000018007ece0 f i libucrtd:output.obj
 0001:0007dd10       ?unset_flag@?$output_processor@DV?$string_output_adapter@D@__crt_stdio_output@@V?$format_validation_base@DV?$string_output_adapter@D@__crt_stdio_output@@@2@@__crt_stdio_output@@AEAAXI@Z 000000018007ed10 f i libucrtd:output.obj
 0001:0007dd40       ?unset_flag@?$output_processor@DV?$string_output_adapter@D@__crt_stdio_output@@V?$positional_parameter_base@DV?$string_output_adapter@D@__crt_stdio_output@@@2@@__crt_stdio_output@@AEAAXI@Z 000000018007ed40 f i libucrtd:output.obj
 0001:0007dd70       ?unset_flag@?$output_processor@DV?$string_output_adapter@D@__crt_stdio_output@@V?$standard_base@DV?$string_output_adapter@D@__crt_stdio_output@@@2@@__crt_stdio_output@@AEAAXI@Z 000000018007ed70 f i libucrtd:output.obj
 0001:0007dda0       ?unset_flag@?$output_processor@_WV?$stream_output_adapter@_W@__crt_stdio_output@@V?$format_validation_base@_WV?$stream_output_adapter@_W@__crt_stdio_output@@@2@@__crt_stdio_output@@AEAAXI@Z 000000018007eda0 f i libucrtd:output.obj
 0001:0007ddd0       ?unset_flag@?$output_processor@_WV?$stream_output_adapter@_W@__crt_stdio_output@@V?$positional_parameter_base@_WV?$stream_output_adapter@_W@__crt_stdio_output@@@2@@__crt_stdio_output@@AEAAXI@Z 000000018007edd0 f i libucrtd:output.obj
 0001:0007de00       ?unset_flag@?$output_processor@_WV?$stream_output_adapter@_W@__crt_stdio_output@@V?$standard_base@_WV?$stream_output_adapter@_W@__crt_stdio_output@@@2@@__crt_stdio_output@@AEAAXI@Z 000000018007ee00 f i libucrtd:output.obj
 0001:0007de30       ?unset_flag@?$output_processor@_WV?$string_output_adapter@_W@__crt_stdio_output@@V?$format_validation_base@_WV?$string_output_adapter@_W@__crt_stdio_output@@@2@@__crt_stdio_output@@AEAAXI@Z 000000018007ee30 f i libucrtd:output.obj
 0001:0007de60       ?unset_flag@?$output_processor@_WV?$string_output_adapter@_W@__crt_stdio_output@@V?$positional_parameter_base@_WV?$string_output_adapter@_W@__crt_stdio_output@@@2@@__crt_stdio_output@@AEAAXI@Z 000000018007ee60 f i libucrtd:output.obj
 0001:0007de90       ?unset_flag@?$output_processor@_WV?$string_output_adapter@_W@__crt_stdio_output@@V?$standard_base@_WV?$string_output_adapter@_W@__crt_stdio_output@@@2@@__crt_stdio_output@@AEAAXI@Z 000000018007ee90 f i libucrtd:output.obj
 0001:0007dec0       ?update_field_width@?$positional_parameter_base@DV?$stream_output_adapter@D@__crt_stdio_output@@@__crt_stdio_output@@IEAA_NXZ 000000018007eec0 f i libucrtd:output.obj
 0001:0007e0b0       ?update_field_width@?$positional_parameter_base@DV?$string_output_adapter@D@__crt_stdio_output@@@__crt_stdio_output@@IEAA_NXZ 000000018007f0b0 f i libucrtd:output.obj
 0001:0007e2a0       ?update_field_width@?$positional_parameter_base@_WV?$stream_output_adapter@_W@__crt_stdio_output@@@__crt_stdio_output@@IEAA_NXZ 000000018007f2a0 f i libucrtd:output.obj
 0001:0007e490       ?update_field_width@?$positional_parameter_base@_WV?$string_output_adapter@_W@__crt_stdio_output@@@__crt_stdio_output@@IEAA_NXZ 000000018007f490 f i libucrtd:output.obj
 0001:0007e680       ?update_field_width@?$standard_base@DV?$stream_output_adapter@D@__crt_stdio_output@@@__crt_stdio_output@@IEAA_NXZ 000000018007f680 f i libucrtd:output.obj
 0001:0007e6b0       ?update_field_width@?$standard_base@DV?$string_output_adapter@D@__crt_stdio_output@@@__crt_stdio_output@@IEAA_NXZ 000000018007f6b0 f i libucrtd:output.obj
 0001:0007e6e0       ?update_field_width@?$standard_base@_WV?$stream_output_adapter@_W@__crt_stdio_output@@@__crt_stdio_output@@IEAA_NXZ 000000018007f6e0 f i libucrtd:output.obj
 0001:0007e710       ?update_field_width@?$standard_base@_WV?$string_output_adapter@_W@__crt_stdio_output@@@__crt_stdio_output@@IEAA_NXZ 000000018007f710 f i libucrtd:output.obj
 0001:0007e740       ?update_precision@?$positional_parameter_base@DV?$stream_output_adapter@D@__crt_stdio_output@@@__crt_stdio_output@@IEAA_NXZ 000000018007f740 f i libucrtd:output.obj
 0001:0007e930       ?update_precision@?$positional_parameter_base@DV?$string_output_adapter@D@__crt_stdio_output@@@__crt_stdio_output@@IEAA_NXZ 000000018007f930 f i libucrtd:output.obj
 0001:0007eb20       ?update_precision@?$positional_parameter_base@_WV?$stream_output_adapter@_W@__crt_stdio_output@@@__crt_stdio_output@@IEAA_NXZ 000000018007fb20 f i libucrtd:output.obj
 0001:0007ed10       ?update_precision@?$positional_parameter_base@_WV?$string_output_adapter@_W@__crt_stdio_output@@@__crt_stdio_output@@IEAA_NXZ 000000018007fd10 f i libucrtd:output.obj
 0001:0007ef00       ?update_precision@?$standard_base@DV?$stream_output_adapter@D@__crt_stdio_output@@@__crt_stdio_output@@IEAA_NXZ 000000018007ff00 f i libucrtd:output.obj
 0001:0007ef30       ?update_precision@?$standard_base@DV?$string_output_adapter@D@__crt_stdio_output@@@__crt_stdio_output@@IEAA_NXZ 000000018007ff30 f i libucrtd:output.obj
 0001:0007ef60       ?update_precision@?$standard_base@_WV?$stream_output_adapter@_W@__crt_stdio_output@@@__crt_stdio_output@@IEAA_NXZ 000000018007ff60 f i libucrtd:output.obj
 0001:0007ef90       ?update_precision@?$standard_base@_WV?$string_output_adapter@_W@__crt_stdio_output@@@__crt_stdio_output@@IEAA_NXZ 000000018007ff90 f i libucrtd:output.obj
 0001:0007efc0       ?valid@__crt_stdio_stream@@QEBA_NXZ 000000018007ffc0 f i libucrtd:output.obj
 0001:0007eff0       ?validate@?$stream_output_adapter@D@__crt_stdio_output@@QEBA_NXZ 000000018007fff0 f i libucrtd:output.obj
 0001:0007f0d0       ?validate@?$stream_output_adapter@_W@__crt_stdio_output@@QEBA_NXZ 00000001800800d0 f i libucrtd:output.obj
 0001:0007f1b0       ?validate@?$string_output_adapter@D@__crt_stdio_output@@QEBA_NXZ 00000001800801b0 f i libucrtd:output.obj
 0001:0007f270       ?validate@?$string_output_adapter@_W@__crt_stdio_output@@QEBA_NXZ 0000000180080270 f i libucrtd:output.obj
 0001:0007f330       ?validate_and_store_parameter_data@?$positional_parameter_base@DV?$stream_output_adapter@D@__crt_stdio_output@@@__crt_stdio_output@@AEAA_NAEAUparameter_data@12@W4parameter_type@12@DW4length_modifier@2@@Z 0000000180080330 f i libucrtd:output.obj
 0001:0007f450       ?validate_and_store_parameter_data@?$positional_parameter_base@DV?$string_output_adapter@D@__crt_stdio_output@@@__crt_stdio_output@@AEAA_NAEAUparameter_data@12@W4parameter_type@12@DW4length_modifier@2@@Z 0000000180080450 f i libucrtd:output.obj
 0001:0007f570       ?validate_and_store_parameter_data@?$positional_parameter_base@_WV?$stream_output_adapter@_W@__crt_stdio_output@@@__crt_stdio_output@@AEAA_NAEAUparameter_data@12@W4parameter_type@12@_WW4length_modifier@2@@Z 0000000180080570 f i libucrtd:output.obj
 0001:0007f690       ?validate_and_store_parameter_data@?$positional_parameter_base@_WV?$string_output_adapter@_W@__crt_stdio_output@@@__crt_stdio_output@@AEAA_NAEAUparameter_data@12@W4parameter_type@12@_WW4length_modifier@2@@Z 0000000180080690 f i libucrtd:output.obj
 0001:0007f7b0       ?validate_and_update_state_at_beginning_of_format_character@?$positional_parameter_base@DV?$stream_output_adapter@D@__crt_stdio_output@@@__crt_stdio_output@@IEAA_NXZ 00000001800807b0 f i libucrtd:output.obj
 0001:0007fa90       ?validate_and_update_state_at_beginning_of_format_character@?$positional_parameter_base@DV?$string_output_adapter@D@__crt_stdio_output@@@__crt_stdio_output@@IEAA_NXZ 0000000180080a90 f i libucrtd:output.obj
 0001:0007fd70       ?validate_and_update_state_at_beginning_of_format_character@?$positional_parameter_base@_WV?$stream_output_adapter@_W@__crt_stdio_output@@@__crt_stdio_output@@IEAA_NXZ 0000000180080d70 f i libucrtd:output.obj
 0001:00080050       ?validate_and_update_state_at_beginning_of_format_character@?$positional_parameter_base@_WV?$string_output_adapter@_W@__crt_stdio_output@@@__crt_stdio_output@@IEAA_NXZ 0000000180081050 f i libucrtd:output.obj
 0001:00080330       ?validate_and_update_state_at_beginning_of_format_character@?$standard_base@DV?$stream_output_adapter@D@__crt_stdio_output@@@__crt_stdio_output@@IEAA_NXZ 0000000180081330 f i libucrtd:output.obj
 0001:00080340       ?validate_and_update_state_at_beginning_of_format_character@?$standard_base@DV?$string_output_adapter@D@__crt_stdio_output@@@__crt_stdio_output@@IEAA_NXZ 0000000180081340 f i libucrtd:output.obj
 0001:00080350       ?validate_and_update_state_at_beginning_of_format_character@?$standard_base@_WV?$stream_output_adapter@_W@__crt_stdio_output@@@__crt_stdio_output@@IEAA_NXZ 0000000180081350 f i libucrtd:output.obj
 0001:00080360       ?validate_and_update_state_at_beginning_of_format_character@?$standard_base@_WV?$string_output_adapter@_W@__crt_stdio_output@@@__crt_stdio_output@@IEAA_NXZ 0000000180081360 f i libucrtd:output.obj
 0001:00080370       ?validate_and_update_state_at_end_of_format_string@?$format_validation_base@DV?$stream_output_adapter@D@__crt_stdio_output@@@__crt_stdio_output@@IEBA_NXZ 0000000180081370 f i libucrtd:output.obj
 0001:00080430       ?validate_and_update_state_at_end_of_format_string@?$format_validation_base@DV?$string_output_adapter@D@__crt_stdio_output@@@__crt_stdio_output@@IEBA_NXZ 0000000180081430 f i libucrtd:output.obj
 0001:000804f0       ?validate_and_update_state_at_end_of_format_string@?$format_validation_base@_WV?$stream_output_adapter@_W@__crt_stdio_output@@@__crt_stdio_output@@IEBA_NXZ 00000001800814f0 f i libucrtd:output.obj
 0001:000805b0       ?validate_and_update_state_at_end_of_format_string@?$format_validation_base@_WV?$string_output_adapter@_W@__crt_stdio_output@@@__crt_stdio_output@@IEBA_NXZ 00000001800815b0 f i libucrtd:output.obj
 0001:00080670       ?validate_and_update_state_at_end_of_format_string@?$positional_parameter_base@DV?$stream_output_adapter@D@__crt_stdio_output@@@__crt_stdio_output@@IEAA_NXZ 0000000180081670 f i libucrtd:output.obj
 0001:00080860       ?validate_and_update_state_at_end_of_format_string@?$positional_parameter_base@DV?$string_output_adapter@D@__crt_stdio_output@@@__crt_stdio_output@@IEAA_NXZ 0000000180081860 f i libucrtd:output.obj
 0001:00080a50       ?validate_and_update_state_at_end_of_format_string@?$positional_parameter_base@_WV?$stream_output_adapter@_W@__crt_stdio_output@@@__crt_stdio_output@@IEAA_NXZ 0000000180081a50 f i libucrtd:output.obj
 0001:00080c40       ?validate_and_update_state_at_end_of_format_string@?$positional_parameter_base@_WV?$string_output_adapter@_W@__crt_stdio_output@@@__crt_stdio_output@@IEAA_NXZ 0000000180081c40 f i libucrtd:output.obj
 0001:00080e30       ?validate_and_update_state_at_end_of_format_string@?$standard_base@DV?$stream_output_adapter@D@__crt_stdio_output@@@__crt_stdio_output@@IEBA_NXZ 0000000180081e30 f i libucrtd:output.obj
 0001:00080e40       ?validate_and_update_state_at_end_of_format_string@?$standard_base@DV?$string_output_adapter@D@__crt_stdio_output@@@__crt_stdio_output@@IEBA_NXZ 0000000180081e40 f i libucrtd:output.obj
 0001:00080e50       ?validate_and_update_state_at_end_of_format_string@?$standard_base@_WV?$stream_output_adapter@_W@__crt_stdio_output@@@__crt_stdio_output@@IEBA_NXZ 0000000180081e50 f i libucrtd:output.obj
 0001:00080e60       ?validate_and_update_state_at_end_of_format_string@?$standard_base@_WV?$string_output_adapter@_W@__crt_stdio_output@@@__crt_stdio_output@@IEBA_NXZ 0000000180081e60 f i libucrtd:output.obj
 0001:00080e70       ?validate_state_for_type_case_a@?$positional_parameter_base@DV?$stream_output_adapter@D@__crt_stdio_output@@@__crt_stdio_output@@IEAA_NXZ 0000000180081e70 f i libucrtd:output.obj
 0001:00080fb0       ?validate_state_for_type_case_a@?$positional_parameter_base@DV?$string_output_adapter@D@__crt_stdio_output@@@__crt_stdio_output@@IEAA_NXZ 0000000180081fb0 f i libucrtd:output.obj
 0001:000810f0       ?validate_state_for_type_case_a@?$positional_parameter_base@_WV?$stream_output_adapter@_W@__crt_stdio_output@@@__crt_stdio_output@@IEAA_NXZ 00000001800820f0 f i libucrtd:output.obj
 0001:00081230       ?validate_state_for_type_case_a@?$positional_parameter_base@_WV?$string_output_adapter@_W@__crt_stdio_output@@@__crt_stdio_output@@IEAA_NXZ 0000000180082230 f i libucrtd:output.obj
 0001:00081370       ?validate_state_for_type_case_a@?$standard_base@DV?$stream_output_adapter@D@__crt_stdio_output@@@__crt_stdio_output@@IEBA_NXZ 0000000180082370 f i libucrtd:output.obj
 0001:00081380       ?validate_state_for_type_case_a@?$standard_base@DV?$string_output_adapter@D@__crt_stdio_output@@@__crt_stdio_output@@IEBA_NXZ 0000000180082380 f i libucrtd:output.obj
 0001:00081390       ?validate_state_for_type_case_a@?$standard_base@_WV?$stream_output_adapter@_W@__crt_stdio_output@@@__crt_stdio_output@@IEBA_NXZ 0000000180082390 f i libucrtd:output.obj
 0001:000813a0       ?validate_state_for_type_case_a@?$standard_base@_WV?$string_output_adapter@_W@__crt_stdio_output@@@__crt_stdio_output@@IEBA_NXZ 00000001800823a0 f i libucrtd:output.obj
 0001:000813b0       ?validate_stream_is_ansi_if_required@?$__acrt_stdio_char_traits@D@@SA_NQEAU_iobuf@@@Z 00000001800823b0 f i libucrtd:output.obj
 0001:00081540       ?validate_stream_is_ansi_if_required@?$__acrt_stdio_char_traits@_W@@SA_NQEAU_iobuf@@@Z 0000000180082540 f i libucrtd:output.obj
 0001:00081550       ?wide_null_string@?$output_processor@DV?$stream_output_adapter@D@__crt_stdio_output@@V?$format_validation_base@DV?$stream_output_adapter@D@__crt_stdio_output@@@2@@__crt_stdio_output@@CAPEA_WXZ 0000000180082550 f i libucrtd:output.obj
 0001:00081560       ?wide_null_string@?$output_processor@DV?$stream_output_adapter@D@__crt_stdio_output@@V?$positional_parameter_base@DV?$stream_output_adapter@D@__crt_stdio_output@@@2@@__crt_stdio_output@@CAPEA_WXZ 0000000180082560 f i libucrtd:output.obj
 0001:00081570       ?wide_null_string@?$output_processor@DV?$stream_output_adapter@D@__crt_stdio_output@@V?$standard_base@DV?$stream_output_adapter@D@__crt_stdio_output@@@2@@__crt_stdio_output@@CAPEA_WXZ 0000000180082570 f i libucrtd:output.obj
 0001:00081580       ?wide_null_string@?$output_processor@DV?$string_output_adapter@D@__crt_stdio_output@@V?$format_validation_base@DV?$string_output_adapter@D@__crt_stdio_output@@@2@@__crt_stdio_output@@CAPEA_WXZ 0000000180082580 f i libucrtd:output.obj
 0001:00081590       ?wide_null_string@?$output_processor@DV?$string_output_adapter@D@__crt_stdio_output@@V?$positional_parameter_base@DV?$string_output_adapter@D@__crt_stdio_output@@@2@@__crt_stdio_output@@CAPEA_WXZ 0000000180082590 f i libucrtd:output.obj
 0001:000815a0       ?wide_null_string@?$output_processor@DV?$string_output_adapter@D@__crt_stdio_output@@V?$standard_base@DV?$string_output_adapter@D@__crt_stdio_output@@@2@@__crt_stdio_output@@CAPEA_WXZ 00000001800825a0 f i libucrtd:output.obj
 0001:000815b0       ?wide_null_string@?$output_processor@_WV?$stream_output_adapter@_W@__crt_stdio_output@@V?$format_validation_base@_WV?$stream_output_adapter@_W@__crt_stdio_output@@@2@@__crt_stdio_output@@CAPEA_WXZ 00000001800825b0 f i libucrtd:output.obj
 0001:000815c0       ?wide_null_string@?$output_processor@_WV?$stream_output_adapter@_W@__crt_stdio_output@@V?$positional_parameter_base@_WV?$stream_output_adapter@_W@__crt_stdio_output@@@2@@__crt_stdio_output@@CAPEA_WXZ 00000001800825c0 f i libucrtd:output.obj
 0001:000815d0       ?wide_null_string@?$output_processor@_WV?$stream_output_adapter@_W@__crt_stdio_output@@V?$standard_base@_WV?$stream_output_adapter@_W@__crt_stdio_output@@@2@@__crt_stdio_output@@CAPEA_WXZ 00000001800825d0 f i libucrtd:output.obj
 0001:000815e0       ?wide_null_string@?$output_processor@_WV?$string_output_adapter@_W@__crt_stdio_output@@V?$format_validation_base@_WV?$string_output_adapter@_W@__crt_stdio_output@@@2@@__crt_stdio_output@@CAPEA_WXZ 00000001800825e0 f i libucrtd:output.obj
 0001:000815f0       ?wide_null_string@?$output_processor@_WV?$string_output_adapter@_W@__crt_stdio_output@@V?$positional_parameter_base@_WV?$string_output_adapter@_W@__crt_stdio_output@@@2@@__crt_stdio_output@@CAPEA_WXZ 00000001800825f0 f i libucrtd:output.obj
 0001:00081600       ?wide_null_string@?$output_processor@_WV?$string_output_adapter@_W@__crt_stdio_output@@V?$standard_base@_WV?$string_output_adapter@_W@__crt_stdio_output@@@2@@__crt_stdio_output@@CAPEA_WXZ 0000000180082600 f i libucrtd:output.obj
 0001:00081610       ?write_character@?$output_adapter_common@DV?$stream_output_adapter@D@__crt_stdio_output@@@__crt_stdio_output@@QEBAXDQEAH@Z 0000000180082610 f i libucrtd:output.obj
 0001:00081660       ?write_character@?$output_adapter_common@_WV?$stream_output_adapter@_W@__crt_stdio_output@@@__crt_stdio_output@@QEBAX_WQEAH@Z 0000000180082660 f i libucrtd:output.obj
 0001:000816b0       ?write_character@?$string_output_adapter@D@__crt_stdio_output@@QEBA_NDQEAH@Z 00000001800826b0 f i libucrtd:output.obj
 0001:00081770       ?write_character@?$string_output_adapter@_W@__crt_stdio_output@@QEBA_N_WQEAH@Z 0000000180082770 f i libucrtd:output.obj
 0001:00081830       ?write_character_without_count_update@?$stream_output_adapter@D@__crt_stdio_output@@QEBA_ND@Z 0000000180082830 f i libucrtd:output.obj
 0001:000818b0       ?write_character_without_count_update@?$stream_output_adapter@_W@__crt_stdio_output@@QEBA_N_W@Z 00000001800828b0 f i libucrtd:output.obj
 0001:00081940       ?write_stored_string_tchar@?$output_processor@DV?$stream_output_adapter@D@__crt_stdio_output@@V?$format_validation_base@DV?$stream_output_adapter@D@__crt_stdio_output@@@2@@__crt_stdio_output@@AEAA_ND@Z 0000000180082940 f i libucrtd:output.obj
 0001:00081b00       ?write_stored_string_tchar@?$output_processor@DV?$stream_output_adapter@D@__crt_stdio_output@@V?$positional_parameter_base@DV?$stream_output_adapter@D@__crt_stdio_output@@@2@@__crt_stdio_output@@AEAA_ND@Z 0000000180082b00 f i libucrtd:output.obj
 0001:00081cc0       ?write_stored_string_tchar@?$output_processor@DV?$stream_output_adapter@D@__crt_stdio_output@@V?$standard_base@DV?$stream_output_adapter@D@__crt_stdio_output@@@2@@__crt_stdio_output@@AEAA_ND@Z 0000000180082cc0 f i libucrtd:output.obj
 0001:00081e80       ?write_stored_string_tchar@?$output_processor@DV?$string_output_adapter@D@__crt_stdio_output@@V?$format_validation_base@DV?$string_output_adapter@D@__crt_stdio_output@@@2@@__crt_stdio_output@@AEAA_ND@Z 0000000180082e80 f i libucrtd:output.obj
 0001:00082040       ?write_stored_string_tchar@?$output_processor@DV?$string_output_adapter@D@__crt_stdio_output@@V?$positional_parameter_base@DV?$string_output_adapter@D@__crt_stdio_output@@@2@@__crt_stdio_output@@AEAA_ND@Z 0000000180083040 f i libucrtd:output.obj
 0001:00082200       ?write_stored_string_tchar@?$output_processor@DV?$string_output_adapter@D@__crt_stdio_output@@V?$standard_base@DV?$string_output_adapter@D@__crt_stdio_output@@@2@@__crt_stdio_output@@AEAA_ND@Z 0000000180083200 f i libucrtd:output.obj
 0001:000823c0       ?write_stored_string_tchar@?$output_processor@_WV?$stream_output_adapter@_W@__crt_stdio_output@@V?$format_validation_base@_WV?$stream_output_adapter@_W@__crt_stdio_output@@@2@@__crt_stdio_output@@AEAA_N_W@Z 00000001800833c0 f i libucrtd:output.obj
 0001:00082510       ?write_stored_string_tchar@?$output_processor@_WV?$stream_output_adapter@_W@__crt_stdio_output@@V?$positional_parameter_base@_WV?$stream_output_adapter@_W@__crt_stdio_output@@@2@@__crt_stdio_output@@AEAA_N_W@Z 0000000180083510 f i libucrtd:output.obj
 0001:00082660       ?write_stored_string_tchar@?$output_processor@_WV?$stream_output_adapter@_W@__crt_stdio_output@@V?$standard_base@_WV?$stream_output_adapter@_W@__crt_stdio_output@@@2@@__crt_stdio_output@@AEAA_N_W@Z 0000000180083660 f i libucrtd:output.obj
 0001:000827b0       ?write_stored_string_tchar@?$output_processor@_WV?$string_output_adapter@_W@__crt_stdio_output@@V?$format_validation_base@_WV?$string_output_adapter@_W@__crt_stdio_output@@@2@@__crt_stdio_output@@AEAA_N_W@Z 00000001800837b0 f i libucrtd:output.obj
 0001:00082900       ?write_stored_string_tchar@?$output_processor@_WV?$string_output_adapter@_W@__crt_stdio_output@@V?$positional_parameter_base@_WV?$string_output_adapter@_W@__crt_stdio_output@@@2@@__crt_stdio_output@@AEAA_N_W@Z 0000000180083900 f i libucrtd:output.obj
 0001:00082a50       ?write_stored_string_tchar@?$output_processor@_WV?$string_output_adapter@_W@__crt_stdio_output@@V?$standard_base@_WV?$string_output_adapter@_W@__crt_stdio_output@@@2@@__crt_stdio_output@@AEAA_N_W@Z 0000000180083a50 f i libucrtd:output.obj
 0001:00082ba0       ?write_string@?$stream_output_adapter@D@__crt_stdio_output@@QEBAXQEBDHQEAHAEAV__crt_deferred_errno_cache@@@Z 0000000180083ba0 f i libucrtd:output.obj
 0001:00082c20       ?write_string@?$stream_output_adapter@_W@__crt_stdio_output@@QEBAXQEB_WHQEAHAEAV__crt_deferred_errno_cache@@@Z 0000000180083c20 f i libucrtd:output.obj
 0001:00082ca0       ?write_string@?$string_output_adapter@D@__crt_stdio_output@@QEBAXQEBDHQEAHAEAV__crt_deferred_errno_cache@@@Z 0000000180083ca0 f i libucrtd:output.obj
 0001:00082e10       ?write_string@?$string_output_adapter@_W@__crt_stdio_output@@QEBAXQEB_WHQEAHAEAV__crt_deferred_errno_cache@@@Z 0000000180083e10 f i libucrtd:output.obj
 0001:00082f80       ?write_string_impl@?$output_adapter_common@DV?$stream_output_adapter@D@__crt_stdio_output@@@__crt_stdio_output@@IEBAXQEBDHQEAHAEAV__crt_deferred_errno_cache@@@Z 0000000180083f80 f i libucrtd:output.obj
 0001:00083060       ?write_string_impl@?$output_adapter_common@_WV?$stream_output_adapter@_W@__crt_stdio_output@@@__crt_stdio_output@@IEBAXQEB_WHQEAHAEAV__crt_deferred_errno_cache@@@Z 0000000180084060 f i libucrtd:output.obj
 0001:00083140       __acrt_disable_global_locale_sync 0000000180084140 f i libucrtd:output.obj
 0001:00083170       __acrt_enable_global_locale_sync 0000000180084170 f i libucrtd:output.obj
 0001:000831a0       __acrt_isleadbyte_l_noupdate 00000001800841a0 f i libucrtd:output.obj
 0001:000831d0       __acrt_locale_changed      00000001800841d0 f i libucrtd:output.obj
 0001:00083200       __acrt_locale_get_ctype_array_value 0000000180084200 f i libucrtd:output.obj
 0001:00083240       __stdio_common_vfprintf    0000000180084240 f   libucrtd:output.obj
 0001:00083280       __stdio_common_vfprintf_p  0000000180084280 f   libucrtd:output.obj
 0001:000832c0       __stdio_common_vfprintf_s  00000001800842c0 f   libucrtd:output.obj
 0001:00083300       __stdio_common_vfwprintf   0000000180084300 f   libucrtd:output.obj
 0001:00083340       __stdio_common_vfwprintf_p 0000000180084340 f   libucrtd:output.obj
 0001:00083380       __stdio_common_vfwprintf_s 0000000180084380 f   libucrtd:output.obj
 0001:000833c0       __stdio_common_vsnprintf_s 00000001800843c0 f   libucrtd:output.obj
 0001:00083420       __stdio_common_vsnwprintf_s 0000000180084420 f   libucrtd:output.obj
 0001:00083480       __stdio_common_vsprintf    0000000180084480 f   libucrtd:output.obj
 0001:000834d0       __stdio_common_vsprintf_p  00000001800844d0 f   libucrtd:output.obj
 0001:00083520       __stdio_common_vsprintf_s  0000000180084520 f   libucrtd:output.obj
 0001:00083570       __stdio_common_vswprintf   0000000180084570 f   libucrtd:output.obj
 0001:000835c0       __stdio_common_vswprintf_p 00000001800845c0 f   libucrtd:output.obj
 0001:00083610       __stdio_common_vswprintf_s 0000000180084610 f   libucrtd:output.obj
 0001:00083660       _ctype_fast_check_internal 0000000180084660 f i libucrtd:output.obj
 0001:00083690       _isdigit_fast_internal     0000000180084690 f i libucrtd:output.obj
 0001:000836c0       _tolower_fast_internal     00000001800846c0 f i libucrtd:output.obj
 0001:000836f0       free                       00000001800846f0 f   libucrtd:free.obj
 0001:00083720       malloc                     0000000180084720 f   libucrtd:malloc.obj
 0001:00083750       ??$?RU?$__crt_report_hook_node@D@@@__crt_internal_free_policy@@QEBAXQEBU?$__crt_report_hook_node@D@@@Z 0000000180084750 f i libucrtd:dbgrpt.obj
 0001:00083780       ??$?RU?$__crt_report_hook_node@_W@@@__crt_internal_free_policy@@QEBAXQEBU?$__crt_report_hook_node@_W@@@Z 0000000180084780 f i libucrtd:dbgrpt.obj
 0001:000849c0       ??$get_module_file_name@AEAPEAUHINSTANCE__@@AEAY0BAF@DK@?$__crt_char_traits@D@@SAKAEAPEAUHINSTANCE__@@AEAY0BAF@D$$QEAK@Z 00000001800859c0 f i libucrtd:dbgrpt.obj
 0001:00084a00       ??$get_module_file_name@AEAPEAUHINSTANCE__@@AEAY0BAF@_WK@?$__crt_char_traits@_W@@SAKAEAPEAUHINSTANCE__@@AEAY0BAF@_W$$QEAK@Z 0000000180085a00 f i libucrtd:dbgrpt.obj
 0001:00084a40       ??$tcscpy_s@AEAY0BAF@D_KPEBD@?$__crt_char_traits@D@@SAHAEAY0BAF@D$$QEA_K$$QEAPEBD@Z 0000000180085a40 f i libucrtd:dbgrpt.obj
 0001:00084a80       ??$tcscpy_s@AEAY0BAF@_W_KPEB_W@?$__crt_char_traits@_W@@SAHAEAY0BAF@_W$$QEA_K$$QEAPEB_W@Z 0000000180085a80 f i libucrtd:dbgrpt.obj
 0001:00084ac0       ??$tcslen@AEAY0BAF@D@?$__crt_char_traits@D@@SA_KAEAY0BAF@D@Z 0000000180085ac0 f i libucrtd:dbgrpt.obj
 0001:00084ae0       ??$tcslen@AEAY0BAF@_W@?$__crt_char_traits@_W@@SA_KAEAY0BAF@_W@Z 0000000180085ae0 f i libucrtd:dbgrpt.obj
 0001:00084b00       ??$tcslen@AEBQEBD@?$__crt_char_traits@D@@SA_KAEBQEBD@Z 0000000180085b00 f i libucrtd:dbgrpt.obj
 0001:00084b20       ??$tcslen@AEBQEB_W@?$__crt_char_traits@_W@@SA_KAEBQEB_W@Z 0000000180085b20 f i libucrtd:dbgrpt.obj
 0001:00084c20       ??0?$__crt_unique_heap_ptr@U?$__crt_report_hook_node@D@@U__crt_internal_free_policy@@@@QEAA@QEAU?$__crt_report_hook_node@D@@@Z 0000000180085c20 f i libucrtd:dbgrpt.obj
 0001:00084c40       ??0?$__crt_unique_heap_ptr@U?$__crt_report_hook_node@_W@@U__crt_internal_free_policy@@@@QEAA@QEAU?$__crt_report_hook_node@_W@@@Z 0000000180085c40 f i libucrtd:dbgrpt.obj
 0001:00084c60       ??1?$__crt_unique_heap_ptr@U?$__crt_report_hook_node@D@@U__crt_internal_free_policy@@@@QEAA@XZ 0000000180085c60 f i libucrtd:dbgrpt.obj
 0001:00084c80       ??1?$__crt_unique_heap_ptr@U?$__crt_report_hook_node@_W@@U__crt_internal_free_policy@@@@QEAA@XZ 0000000180085c80 f i libucrtd:dbgrpt.obj
 0001:00084ca0       ??B?$__crt_unique_heap_ptr@U?$__crt_report_hook_node@D@@U__crt_internal_free_policy@@@@QEBA_NXZ 0000000180085ca0 f i libucrtd:dbgrpt.obj
 0001:00084cc0       ??B?$__crt_unique_heap_ptr@U?$__crt_report_hook_node@_W@@U__crt_internal_free_policy@@@@QEBA_NXZ 0000000180085cc0 f i libucrtd:dbgrpt.obj
 0001:000853a0       ?detach@?$__crt_unique_heap_ptr@U?$__crt_report_hook_node@D@@U__crt_internal_free_policy@@@@QEAAPEAU?$__crt_report_hook_node@D@@XZ 00000001800863a0 f i libucrtd:dbgrpt.obj
 0001:000853d0       ?detach@?$__crt_unique_heap_ptr@U?$__crt_report_hook_node@_W@@U__crt_internal_free_policy@@@@QEAAPEAU?$__crt_report_hook_node@_W@@XZ 00000001800863d0 f i libucrtd:dbgrpt.obj
 0001:00085400       ?get@?$__crt_unique_heap_ptr@U?$__crt_report_hook_node@D@@U__crt_internal_free_policy@@@@QEBAPEAU?$__crt_report_hook_node@D@@XZ 0000000180086400 f i libucrtd:dbgrpt.obj
 0001:00085410       ?get@?$__crt_unique_heap_ptr@U?$__crt_report_hook_node@_W@@U__crt_internal_free_policy@@@@QEBAPEAU?$__crt_report_hook_node@_W@@XZ 0000000180086410 f i libucrtd:dbgrpt.obj
 0001:00085480       ?is_valid@?$__crt_unique_heap_ptr@U?$__crt_report_hook_node@D@@U__crt_internal_free_policy@@@@QEBA_NXZ 0000000180086480 f i libucrtd:dbgrpt.obj
 0001:000854b0       ?is_valid@?$__crt_unique_heap_ptr@U?$__crt_report_hook_node@_W@@U__crt_internal_free_policy@@@@QEBA_NXZ 00000001800864b0 f i libucrtd:dbgrpt.obj
 0001:000854e0       ?release@?$__crt_unique_heap_ptr@U?$__crt_report_hook_node@D@@U__crt_internal_free_policy@@@@QEAAXXZ 00000001800864e0 f i libucrtd:dbgrpt.obj
 0001:00085510       ?release@?$__crt_unique_heap_ptr@U?$__crt_report_hook_node@_W@@U__crt_internal_free_policy@@@@QEAAXXZ 0000000180086510 f i libucrtd:dbgrpt.obj
 0001:00085540       _CrtDbgReport              0000000180086540 f   libucrtd:dbgrpt.obj
 0001:000855c0       _CrtDbgReportW             00000001800865c0 f   libucrtd:dbgrpt.obj
 0001:00085640       _CrtSetReportHook2         0000000180086640 f   libucrtd:dbgrpt.obj
 0001:00085660       _CrtSetReportHookW2        0000000180086660 f   libucrtd:dbgrpt.obj
 0001:00085680       __acrt_MessageWindowA      0000000180086680 f   libucrtd:dbgrpt.obj
 0001:000856d0       __acrt_MessageWindowW      00000001800866d0 f   libucrtd:dbgrpt.obj
 0001:00085720       _invoke_watson_if_error    0000000180086720 f i libucrtd:dbgrpt.obj
 0001:00085770       _invoke_watson_if_oneof    0000000180086770 f i libucrtd:dbgrpt.obj
 0001:000857d0       _snwprintf_s               00000001800867d0 f i libucrtd:dbgrpt.obj
 0001:00085840       _vsnwprintf_s_l            0000000180086840 f i libucrtd:dbgrpt.obj
 0001:00085da0       wcscpy_s                   0000000180086da0 f   libucrtd:wcscpy_s.obj
 0001:00087130       ??1?$__crt_simd_cleanup_guard@$00@@QEAA@XZ 0000000180088130 f i libucrtd:strnlen.obj
 0001:00087140       ??1?$__crt_simd_cleanup_guard@$0A@@@QEAA@XZ 0000000180088140 f i libucrtd:strnlen.obj
 0001:00087150       ?compare_equals@?$__crt_simd_traits@$00E@@SA?AT__m256i@@T2@0@Z 0000000180088150 f i libucrtd:strnlen.obj
 0001:00087190       ?compare_equals@?$__crt_simd_traits@$00G@@SA?AT__m256i@@T2@0@Z 0000000180088190 f i libucrtd:strnlen.obj
 0001:000871d0       ?compare_equals@?$__crt_simd_traits@$0A@E@@SA?AT__m128i@@T2@0@Z 00000001800881d0 f i libucrtd:strnlen.obj
 0001:00087200       ?compare_equals@?$__crt_simd_traits@$0A@G@@SA?AT__m128i@@T2@0@Z 0000000180088200 f i libucrtd:strnlen.obj
 0001:00087230       ?compute_byte_mask@?$__crt_simd_pack_traits@$00@@SAHT__m256i@@@Z 0000000180088230 f i libucrtd:strnlen.obj
 0001:00087250       ?compute_byte_mask@?$__crt_simd_pack_traits@$0A@@@SAHT__m128i@@@Z 0000000180088250 f i libucrtd:strnlen.obj
 0001:00087270       ?get_zero_pack@?$__crt_simd_pack_traits@$00@@SA?AT__m256i@@XZ 0000000180088270 f i libucrtd:strnlen.obj
 0001:000872a0       ?get_zero_pack@?$__crt_simd_pack_traits@$0A@@@SA?AT__m128i@@XZ 00000001800882a0 f i libucrtd:strnlen.obj
 0001:000872c0       strnlen                    00000001800882c0 f   libucrtd:strnlen.obj
 0001:000872f0       wcslen                     00000001800882f0 f   libucrtd:strnlen.obj
 0001:00087310       wcsnlen                    0000000180088310 f   libucrtd:strnlen.obj
 0001:00087340       ??$__crt_fast_decode_pointer@P6AXPEB_W00I_K@Z@@YAP6AXPEB_W00I_K@ZQ6AX000I1@Z@Z 0000000180088340 f i libucrtd:invalid_parameter.obj
 0001:00087380       ??$__crt_fast_encode_pointer@P6AXPEB_W00I_K@Z@@YAP6AXPEB_W00I_K@ZQ6AX000I1@Z@Z 0000000180088380 f i libucrtd:invalid_parameter.obj
 0001:000873c0       ??$initialize_from_array@$$BY00Q6AXPEB_W00I_K@Z@?$dual_state_global@P6AXPEB_W00I_K@Z@__crt_state_management@@QEAAXAEAY00Q6AXPEB_W00I_K@Z@Z 00000001800883c0 f i libucrtd:invalid_parameter.obj
 0001:00087420       ?__crt_rotate_pointer_value@@YA_K_KH@Z 0000000180088420 f i libucrtd:invalid_parameter.obj
 0001:000874e0       ?dangerous_get_state_array@?$dual_state_global@P6AXPEB_W00I_K@Z@__crt_state_management@@QEAAPEAP6AXPEB_W00I_K@ZXZ 00000001800884e0 f i libucrtd:invalid_parameter.obj
 0001:000874f0       ?get_current_state_index@__crt_state_management@@YA_KXZ 00000001800884f0 f i libucrtd:invalid_parameter.obj
 0001:00087500       ?value@?$dual_state_global@P6AXPEB_W00I_K@Z@__crt_state_management@@QEAAAEAP6AXPEB_W00I_K@ZXZ 0000000180088500 f i libucrtd:invalid_parameter.obj
 0001:00087520       __acrt_call_reportfault    0000000180088520 f   libucrtd:invalid_parameter.obj
 0001:00087650       __acrt_initialize_invalid_parameter_handler 0000000180088650 f   libucrtd:invalid_parameter.obj
 0001:00087680       _get_invalid_parameter_handler 0000000180088680 f   libucrtd:invalid_parameter.obj
 0001:000876a0       _get_thread_local_invalid_parameter_handler 00000001800886a0 f   libucrtd:invalid_parameter.obj
 0001:000876d0       _invalid_parameter         00000001800886d0 f   libucrtd:invalid_parameter.obj
 0001:000877d0       _invalid_parameter_noinfo  00000001800887d0 f   libucrtd:invalid_parameter.obj
 0001:00087800       _invalid_parameter_noinfo_noreturn 0000000180088800 f   libucrtd:invalid_parameter.obj
 0001:00087840       _invoke_watson             0000000180088840 f   libucrtd:invalid_parameter.obj
 0001:000878a0       _set_invalid_parameter_handler 00000001800888a0 f   libucrtd:invalid_parameter.obj
 0001:000878f0       _set_thread_local_invalid_parameter_handler 00000001800888f0 f   libucrtd:invalid_parameter.obj
 0001:00087930       __acrt_errno_from_os_error 0000000180088930 f   libucrtd:errno.obj
 0001:000879c0       __acrt_errno_map_os_error  00000001800889c0 f   libucrtd:errno.obj
 0001:000879f0       __doserrno                 00000001800889f0 f   libucrtd:errno.obj
 0001:00087a20       _errno                     0000000180088a20 f   libucrtd:errno.obj
 0001:00087a50       _get_doserrno              0000000180088a50 f   libucrtd:errno.obj
 0001:00087b10       _get_errno                 0000000180088b10 f   libucrtd:errno.obj
 0001:00087bd0       _set_doserrno              0000000180088bd0 f   libucrtd:errno.obj
 0001:00087c10       _set_errno                 0000000180088c10 f   libucrtd:errno.obj
 0001:00087c50       calloc                     0000000180088c50 f   libucrtd:calloc.obj
 0001:00087c90       _recalloc                  0000000180088c90 f   libucrtd:recalloc.obj
 0001:00087ce0       _recalloc_base             0000000180088ce0 f   libucrtd:recalloc.obj
 0001:00087dbc       _resetstkoflw              0000000180088dbc f   libucrtd:resetstk.obj
 0001:00088570       wcscat_s                   0000000180089570 f   libucrtd:wcscat_s.obj
 0001:00088c40       wcsncpy_s                  0000000180089c40 f   libucrtd:wcsncpy_s.obj
 0001:00088dc0       __isascii                  0000000180089dc0 f   libucrtd:_ctype.obj
 0001:00088df0       __iscsym                   0000000180089df0 f   libucrtd:_ctype.obj
 0001:00088e30       __iscsymf                  0000000180089e30 f   libucrtd:_ctype.obj
 0001:00088e70       __toascii                  0000000180089e70 f   libucrtd:_ctype.obj
 0001:00088e80       _isalnum_l                 0000000180089e80 f   libucrtd:_ctype.obj
 0001:00088eb0       _isalpha_l                 0000000180089eb0 f   libucrtd:_ctype.obj
 0001:00088ee0       _isblank_l                 0000000180089ee0 f   libucrtd:_ctype.obj
 0001:00088f10       _iscntrl_l                 0000000180089f10 f   libucrtd:_ctype.obj
 0001:00088f40       _iscsym_l                  0000000180089f40 f   libucrtd:_ctype.obj
 0001:00088f90       _iscsymf_l                 0000000180089f90 f   libucrtd:_ctype.obj
 0001:00088fe0       _isdigit_l                 0000000180089fe0 f   libucrtd:_ctype.obj
 0001:00089010       _isgraph_l                 000000018008a010 f   libucrtd:_ctype.obj
 0001:00089040       _islower_l                 000000018008a040 f   libucrtd:_ctype.obj
 0001:00089070       _isprint_l                 000000018008a070 f   libucrtd:_ctype.obj
 0001:000890a0       _ispunct_l                 000000018008a0a0 f   libucrtd:_ctype.obj
 0001:000890d0       _isspace_l                 000000018008a0d0 f   libucrtd:_ctype.obj
 0001:00089100       _isupper_l                 000000018008a100 f   libucrtd:_ctype.obj
 0001:00089130       _isxdigit_l                000000018008a130 f   libucrtd:_ctype.obj
 0001:00089160       isalnum                    000000018008a160 f   libucrtd:_ctype.obj
 0001:00089180       isalpha                    000000018008a180 f   libucrtd:_ctype.obj
 0001:000891a0       isblank                    000000018008a1a0 f   libucrtd:_ctype.obj
 0001:000891d0       iscntrl                    000000018008a1d0 f   libucrtd:_ctype.obj
 0001:000891f0       isdigit                    000000018008a1f0 f   libucrtd:_ctype.obj
 0001:00089210       isgraph                    000000018008a210 f   libucrtd:_ctype.obj
 0001:00089230       islower                    000000018008a230 f   libucrtd:_ctype.obj
 0001:00089250       isprint                    000000018008a250 f   libucrtd:_ctype.obj
 0001:00089270       ispunct                    000000018008a270 f   libucrtd:_ctype.obj
 0001:00089290       isspace                    000000018008a290 f   libucrtd:_ctype.obj
 0001:000892b0       isupper                    000000018008a2b0 f   libucrtd:_ctype.obj
 0001:000892d0       isxdigit                   000000018008a2d0 f   libucrtd:_ctype.obj
 0001:000892f0       wcscat                     000000018008a2f0 f   libucrtd:wcscat.obj
 0001:00089370       wcscpy                     000000018008a370 f   libucrtd:wcscpy.obj
 0001:00089b20       ??$open_file@AEBQEBDAEBQEBDAEBHPEAU_iobuf@@@?$__crt_char_traits@D@@SAPEAU_iobuf@@AEBQEBD0AEBH$$QEAPEAU1@@Z 000000018008ab20 f i libucrtd:fopen.obj
 0001:00089b70       ??$open_file@AEBQEB_WAEBQEB_WAEBHPEAU_iobuf@@@?$__crt_char_traits@_W@@SAPEAU_iobuf@@AEBQEB_W0AEBH$$QEAPEAU1@@Z 000000018008ab70 f i libucrtd:fopen.obj
 0001:00089bc0       ?unlock@__crt_stdio_stream@@QEBAXXZ 000000018008abc0 f i libucrtd:fopen.obj
 0001:00089be0       _fsopen                    000000018008abe0 f   libucrtd:fopen.obj
 0001:00089c10       _wfopen                    000000018008ac10 f   libucrtd:fopen.obj
 0001:00089c40       _wfopen_s                  000000018008ac40 f   libucrtd:fopen.obj
 0001:00089c70       _wfsopen                   000000018008ac70 f   libucrtd:fopen.obj
 0001:00089ca0       fopen                      000000018008aca0 f   libucrtd:fopen.obj
 0001:00089cd0       fopen_s                    000000018008acd0 f   libucrtd:fopen.obj
 0001:00089d00       ?is_in_use@__crt_stdio_stream@@QEBA_NXZ 000000018008ad00 f i libucrtd:fclose.obj
 0001:00089d40       _fclose_nolock             000000018008ad40 f   libucrtd:fclose.obj
 0001:00089ed0       fclose                     000000018008aed0 f   libucrtd:fclose.obj
 0001:0008a010       _fputc_nolock              000000018008b010 f   libucrtd:fputc.obj
 0001:0008a0c0       _fputchar                  000000018008b0c0 f   libucrtd:fputc.obj
 0001:0008a0f0       _putc_nolock               000000018008b0f0 f   libucrtd:fputc.obj
 0001:0008a110       fputc                      000000018008b110 f   libucrtd:fputc.obj
 0001:0008a3b0       putc                       000000018008b3b0 f   libucrtd:fputc.obj
 0001:0008a3d0       putchar                    000000018008b3d0 f   libucrtd:fputc.obj
 0001:0008a460       _seh_filter_dll            000000018008b460 f   libucrtd:exception_filter.obj
 0001:0008a490       _seh_filter_exe            000000018008b490 f   libucrtd:exception_filter.obj
 0001:0008a730       ??$?B$$A6AXPEAXK0@Z@__crt_fast_encoded_nullptr_t@@QEBAP6AXPEAXK0@ZXZ 000000018008b730 f i libucrtd:exit.obj
 0001:0008a7e0       ??$__crt_fast_decode_pointer@P6AXPEAXK0@Z@@YAP6AXPEAXK0@ZQ6AX0K0@Z@Z 000000018008b7e0 f i libucrtd:exit.obj
 0001:0008a820       ??$__crt_fast_encode_pointer@P6AXPEAXK0@Z@@YAP6AXPEAXK0@ZQ6AX0K0@Z@Z 000000018008b820 f i libucrtd:exit.obj
 0001:0008a860       ??$__crt_get_proc_address@P6AXI@Z@@YAP6AXI@ZQEAUHINSTANCE__@@QEBD@Z 000000018008b860 f i libucrtd:exit.obj
 0001:0008a920       ??0?$__crt_unique_handle_t@U__crt_hmodule_traits@@@@QEAA@QEAUHINSTANCE__@@@Z 000000018008b920 f i libucrtd:exit.obj
 0001:0008a940       ??1?$__crt_unique_handle_t@U__crt_hmodule_traits@@@@QEAA@XZ 000000018008b940 f i libucrtd:exit.obj
 0001:0008aaa0       ?__acrt_select_exit_lock@@YA?AW4__acrt_lock_id@@XZ 000000018008baa0 f i libucrtd:exit.obj
 0001:0008aab0       ?__crt_fast_encode_pointer@@YA?AU__crt_fast_encoded_nullptr_t@@$$T@Z 000000018008bab0 f i libucrtd:exit.obj
 0001:0008aaf0       ?close@?$__crt_unique_handle_t@U__crt_hmodule_traits@@@@QEAAXXZ 000000018008baf0 f i libucrtd:exit.obj
 0001:0008ab30       ?close@__crt_hmodule_traits@@SA_NPEAUHINSTANCE__@@@Z 000000018008bb30 f i libucrtd:exit.obj
 0001:0008ac40       ?get@?$__crt_unique_handle_t@U__crt_hmodule_traits@@@@QEBAPEAUHINSTANCE__@@XZ 000000018008bc40 f i libucrtd:exit.obj
 0001:0008ac50       ?get_address_of@?$__crt_unique_handle_t@U__crt_hmodule_traits@@@@QEAAPEAPEAUHINSTANCE__@@XZ 000000018008bc50 f i libucrtd:exit.obj
 0001:0008ac60       ?get_invalid_value@__crt_hmodule_traits@@SAPEAUHINSTANCE__@@XZ 000000018008bc60 f i libucrtd:exit.obj
 0001:0008ae20       _Exit                      000000018008be20 f   libucrtd:exit.obj
 0001:0008ae40       __acrt_initialize_thread_local_exit_callback 000000018008be40 f   libucrtd:exit.obj
 0001:0008ae60       _c_exit                    000000018008be60 f   libucrtd:exit.obj
 0001:0008ae80       _cexit                     000000018008be80 f   libucrtd:exit.obj
 0001:0008aea0       _exit                      000000018008bea0 f   libucrtd:exit.obj
 0001:0008aec0       _is_c_termination_complete 000000018008bec0 f   libucrtd:exit.obj
 0001:0008aee0       _register_thread_local_exe_atexit_callback 000000018008bee0 f   libucrtd:exit.obj
 0001:0008af30       exit                       000000018008bf30 f   libucrtd:exit.obj
 0001:0008af50       quick_exit                 000000018008bf50 f   libucrtd:exit.obj
 0001:0008af70       ??$?RE@__crt_internal_free_policy@@QEBAXQEBE@Z 000000018008bf70 f i libucrtd:argv_parsing.obj
 0001:0008afa0       ??$?RPEAD@__crt_internal_free_policy@@QEBAXQEBQEAD@Z 000000018008bfa0 f i libucrtd:argv_parsing.obj
 0001:0008afd0       ??$?RPEA_W@__crt_internal_free_policy@@QEBAXQEBQEA_W@Z 000000018008bfd0 f i libucrtd:argv_parsing.obj
 0001:0008b720       ??$get_module_file_name@$$TAEAY0BAF@DH@?$__crt_char_traits@D@@SAK$$QEA$$TAEAY0BAF@D$$QEAH@Z 000000018008c720 f i libucrtd:argv_parsing.obj
 0001:0008b760       ??$get_module_file_name@$$TAEAY0BAF@_WH@?$__crt_char_traits@_W@@SAK$$QEA$$TAEAY0BAF@_W$$QEAH@Z 000000018008c760 f i libucrtd:argv_parsing.obj
 0001:0008c110       ??$set_program_name@PEAD@?$__crt_char_traits@D@@SAX$$QEAPEAD@Z 000000018008d110 f i libucrtd:argv_parsing.obj
 0001:0008c130       ??$set_program_name@PEA_W@?$__crt_char_traits@_W@@SAX$$QEAPEA_W@Z 000000018008d130 f i libucrtd:argv_parsing.obj
 0001:0008c190       ??0?$__crt_unique_heap_ptr@EU__crt_internal_free_policy@@@@QEAA@QEAE@Z 000000018008d190 f i libucrtd:argv_parsing.obj
 0001:0008c1b0       ??0?$__crt_unique_heap_ptr@PEADU__crt_internal_free_policy@@@@QEAA@QEAPEAD@Z 000000018008d1b0 f i libucrtd:argv_parsing.obj
 0001:0008c1d0       ??0?$__crt_unique_heap_ptr@PEA_WU__crt_internal_free_policy@@@@QEAA@QEAPEA_W@Z 000000018008d1d0 f i libucrtd:argv_parsing.obj
 0001:0008c1f0       ??1?$__crt_unique_heap_ptr@EU__crt_internal_free_policy@@@@QEAA@XZ 000000018008d1f0 f i libucrtd:argv_parsing.obj
 0001:0008c210       ??1?$__crt_unique_heap_ptr@PEADU__crt_internal_free_policy@@@@QEAA@XZ 000000018008d210 f i libucrtd:argv_parsing.obj
 0001:0008c230       ??1?$__crt_unique_heap_ptr@PEA_WU__crt_internal_free_policy@@@@QEAA@XZ 000000018008d230 f i libucrtd:argv_parsing.obj
 0001:0008c250       ??B?$__crt_unique_heap_ptr@EU__crt_internal_free_policy@@@@QEBA_NXZ 000000018008d250 f i libucrtd:argv_parsing.obj
 0001:0008c330       ?detach@?$__crt_unique_heap_ptr@EU__crt_internal_free_policy@@@@QEAAPEAEXZ 000000018008d330 f i libucrtd:argv_parsing.obj
 0001:0008c360       ?detach@?$__crt_unique_heap_ptr@PEADU__crt_internal_free_policy@@@@QEAAPEAPEADXZ 000000018008d360 f i libucrtd:argv_parsing.obj
 0001:0008c390       ?detach@?$__crt_unique_heap_ptr@PEA_WU__crt_internal_free_policy@@@@QEAAPEAPEA_WXZ 000000018008d390 f i libucrtd:argv_parsing.obj
 0001:0008c450       ?get@?$__crt_unique_heap_ptr@EU__crt_internal_free_policy@@@@QEBAPEAEXZ 000000018008d450 f i libucrtd:argv_parsing.obj
 0001:0008c460       ?get@?$__crt_unique_heap_ptr@PEADU__crt_internal_free_policy@@@@QEBAPEAPEADXZ 000000018008d460 f i libucrtd:argv_parsing.obj
 0001:0008c470       ?get@?$__crt_unique_heap_ptr@PEA_WU__crt_internal_free_policy@@@@QEBAPEAPEA_WXZ 000000018008d470 f i libucrtd:argv_parsing.obj
 0001:0008c480       ?get_address_of@?$__crt_unique_heap_ptr@PEADU__crt_internal_free_policy@@@@QEAAPEAPEAPEADXZ 000000018008d480 f i libucrtd:argv_parsing.obj
 0001:0008c490       ?get_address_of@?$__crt_unique_heap_ptr@PEA_WU__crt_internal_free_policy@@@@QEAAPEAPEAPEA_WXZ 000000018008d490 f i libucrtd:argv_parsing.obj
 0001:0008c4e0       ?is_valid@?$__crt_unique_heap_ptr@EU__crt_internal_free_policy@@@@QEBA_NXZ 000000018008d4e0 f i libucrtd:argv_parsing.obj
 0001:0008c510       ?release@?$__crt_unique_heap_ptr@EU__crt_internal_free_policy@@@@QEAAXXZ 000000018008d510 f i libucrtd:argv_parsing.obj
 0001:0008c540       ?release@?$__crt_unique_heap_ptr@PEADU__crt_internal_free_policy@@@@QEAAXXZ 000000018008d540 f i libucrtd:argv_parsing.obj
 0001:0008c570       ?release@?$__crt_unique_heap_ptr@PEA_WU__crt_internal_free_policy@@@@QEAAXXZ 000000018008d570 f i libucrtd:argv_parsing.obj
 0001:0008c5f0       __acrt_allocate_buffer_for_argv 000000018008d5f0 f   libucrtd:argv_parsing.obj
 0001:0008c710       _configure_narrow_argv     000000018008d710 f   libucrtd:argv_parsing.obj
 0001:0008c730       _configure_wide_argv       000000018008d730 f   libucrtd:argv_parsing.obj
 0001:0008c750       _set_pgmptr                000000018008d750 f i libucrtd:argv_parsing.obj
 0001:0008c770       _set_wpgmptr               000000018008d770 f i libucrtd:argv_parsing.obj
 0001:0008c784       ??$?R_W@__crt_internal_free_policy@@QEBAXQEB_W@Z 000000018008d784 f i libucrtd:environment_initialization.obj
 0001:0008cd5c       ??$get_environment_from_os@$$V@?$__crt_char_traits@D@@SAPEADXZ 000000018008dd5c f i libucrtd:environment_initialization.obj
 0001:0008cd64       ??$get_environment_from_os@$$V@?$__crt_char_traits@_W@@SAPEA_WXZ 000000018008dd64 f i libucrtd:environment_initialization.obj
 0001:0008cf34       ??$set_variable_in_environment_nolock@PEADH@?$__crt_char_traits@D@@SAH$$QEAPEAD$$QEAH@Z 000000018008df34 f i libucrtd:environment_initialization.obj
 0001:0008cf40       ??$set_variable_in_environment_nolock@PEA_WH@?$__crt_char_traits@_W@@SAH$$QEAPEA_W$$QEAH@Z 000000018008df40 f i libucrtd:environment_initialization.obj
 0001:0008cf4c       ??$tcscpy_s@PEADAEB_KAEAPEAD@?$__crt_char_traits@D@@SAH$$QEAPEADAEB_KAEAPEAD@Z 000000018008df4c f i libucrtd:environment_initialization.obj
 0001:0008cf5c       ??$tcscpy_s@PEA_WAEB_KAEAPEA_W@?$__crt_char_traits@_W@@SAH$$QEAPEA_WAEB_KAEAPEA_W@Z 000000018008df5c f i libucrtd:environment_initialization.obj
 0001:0008cf6c       ??$tcslen@AEAPEAD@?$__crt_char_traits@D@@SA_KAEAPEAD@Z 000000018008df6c f i libucrtd:environment_initialization.obj
 0001:0008cf80       ??$tcslen@AEAPEA_W@?$__crt_char_traits@_W@@SA_KAEAPEA_W@Z 000000018008df80 f i libucrtd:environment_initialization.obj
 0001:0008cf94       ??$uninitialize@A6AXAEAPEAPEAD@Z@?$dual_state_global@PEAPEAD@__crt_state_management@@QEAAXA6AXAEAPEAPEAD@Z@Z 000000018008df94 f i libucrtd:environment_initialization.obj
 0001:0008cfd8       ??$uninitialize@A6AXAEAPEAPEA_W@Z@?$dual_state_global@PEAPEA_W@__crt_state_management@@QEAAXA6AXAEAPEAPEA_W@Z@Z 000000018008dfd8 f i libucrtd:environment_initialization.obj
 0001:0008d054       ??0?$__crt_unique_heap_ptr@_WU__crt_internal_free_policy@@@@QEAA@QEA_W@Z 000000018008e054 f i libucrtd:environment_initialization.obj
 0001:0008d05c       ??1?$__crt_unique_heap_ptr@_WU__crt_internal_free_policy@@@@QEAA@XZ 000000018008e05c f i libucrtd:environment_initialization.obj
 0001:0008d07c       ??B?$__crt_unique_heap_ptr@PEADU__crt_internal_free_policy@@@@QEBA_NXZ 000000018008e07c f i libucrtd:environment_initialization.obj
 0001:0008d084       ??B?$__crt_unique_heap_ptr@PEA_WU__crt_internal_free_policy@@@@QEBA_NXZ 000000018008e084 f i libucrtd:environment_initialization.obj
 0001:0008d08c       ??B?$__crt_unique_heap_ptr@_WU__crt_internal_free_policy@@@@QEBA_NXZ 000000018008e08c f i libucrtd:environment_initialization.obj
 0001:0008d094       ?__crt_compute_required_transform_buffer_count@@YA_KIQEBD@Z 000000018008e094 f i libucrtd:environment_initialization.obj
 0001:0008d0b8       ?__crt_compute_required_transform_buffer_count@@YA_KIQEB_W@Z 000000018008e0b8 f i libucrtd:environment_initialization.obj
 0001:0008d0e8       ?__crt_transform_string@@YA_KIQEBDQEA_W_K@Z 000000018008e0e8 f i libucrtd:environment_initialization.obj
 0001:0008d10c       ?__crt_transform_string@@YA_KIQEB_WQEAD_K@Z 000000018008e10c f i libucrtd:environment_initialization.obj
 0001:0008d13c       ?detach@?$__crt_unique_heap_ptr@DU__crt_internal_free_policy@@@@QEAAPEADXZ 000000018008e13c f i libucrtd:environment_initialization.obj
 0001:0008d144       ?detach@?$__crt_unique_heap_ptr@_WU__crt_internal_free_policy@@@@QEAAPEA_WXZ 000000018008e144 f i libucrtd:environment_initialization.obj
 0001:0008d14c       ?get@?$__crt_unique_heap_ptr@_WU__crt_internal_free_policy@@@@QEBAPEA_WXZ 000000018008e14c f i libucrtd:environment_initialization.obj
 0001:0008d180       ?initialize@?$dual_state_global@PEAPEAD@__crt_state_management@@QEAAXQEAPEAD@Z 000000018008e180 f i libucrtd:environment_initialization.obj
 0001:0008d1a8       ?initialize@?$dual_state_global@PEAPEA_W@__crt_state_management@@QEAAXQEAPEA_W@Z 000000018008e1a8 f i libucrtd:environment_initialization.obj
 0001:0008d1d0       ?is_valid@?$__crt_unique_heap_ptr@PEADU__crt_internal_free_policy@@@@QEBA_NXZ 000000018008e1d0 f i libucrtd:environment_initialization.obj
 0001:0008d1d8       ?is_valid@?$__crt_unique_heap_ptr@PEA_WU__crt_internal_free_policy@@@@QEBA_NXZ 000000018008e1d8 f i libucrtd:environment_initialization.obj
 0001:0008d1e0       ?is_valid@?$__crt_unique_heap_ptr@_WU__crt_internal_free_policy@@@@QEBA_NXZ 000000018008e1e0 f i libucrtd:environment_initialization.obj
 0001:0008d1f4       ?release@?$__crt_unique_heap_ptr@_WU__crt_internal_free_policy@@@@QEAAXXZ 000000018008e1f4 f i libucrtd:environment_initialization.obj
 0001:0008d214       ?value@?$dual_state_global@PEAPEAD@__crt_state_management@@QEAAAEAPEAPEADXZ 000000018008e214 f i libucrtd:environment_initialization.obj
 0001:0008d218       ?value@?$dual_state_global@PEAPEA_W@__crt_state_management@@QEAAAEAPEAPEA_WXZ 000000018008e218 f i libucrtd:environment_initialization.obj
 0001:0008d21c       __dcrt_get_or_create_narrow_environment_nolock 000000018008e21c f   libucrtd:environment_initialization.obj
 0001:0008d258       __dcrt_get_or_create_wide_environment_nolock 000000018008e258 f   libucrtd:environment_initialization.obj
 0001:0008d294       __dcrt_uninitialize_environments_nolock 000000018008e294 f   libucrtd:environment_initialization.obj
 0001:0008d2cc       __p__environ               000000018008e2cc f   libucrtd:environment_initialization.obj
 0001:0008d2d4       __p__wenviron              000000018008e2d4 f   libucrtd:environment_initialization.obj
 0001:0008d2dc       _get_initial_narrow_environment 000000018008e2dc f   libucrtd:environment_initialization.obj
 0001:0008d32c       _get_initial_wide_environment 000000018008e32c f   libucrtd:environment_initialization.obj
 0001:0008d37c       _initialize_narrow_environment 000000018008e37c f   libucrtd:environment_initialization.obj
 0001:0008d384       _initialize_wide_environment 000000018008e384 f   libucrtd:environment_initialization.obj
 0001:0008d390       ??$?B$$A6AXXZ@__crt_fast_encoded_nullptr_t@@QEBAP6AXXZXZ 000000018008e390 f i libucrtd:onexit.obj
 0001:0008d3b0       ??$?BP6AXXZ@__crt_fast_encoded_nullptr_t@@QEBAPEAP6AXXZXZ 000000018008e3b0 f i libucrtd:onexit.obj
 0001:0008d3d0       ??$?RP6AXXZ@__crt_internal_free_policy@@QEBAXQEBQ6AXXZ@Z 000000018008e3d0 f i libucrtd:onexit.obj
 0001:0008d540       ??$__crt_fast_decode_pointer@P6AXXZ@@YAP6AXXZQ6AXXZ@Z 000000018008e540 f i libucrtd:onexit.obj
 0001:0008d580       ??$__crt_fast_decode_pointer@PEAP6AXXZ@@YAPEAP6AXXZQEAP6AXXZ@Z 000000018008e580 f i libucrtd:onexit.obj
 0001:0008d5c0       ??$__crt_fast_encode_pointer@P6AHXZ@@YAP6AHXZQ6AHXZ@Z 000000018008e5c0 f i libucrtd:onexit.obj
 0001:0008d600       ??$__crt_fast_encode_pointer@P6AXXZ@@YAP6AXXZQ6AXXZ@Z 000000018008e600 f i libucrtd:onexit.obj
 0001:0008d640       ??$__crt_fast_encode_pointer@PEAP6AXXZ@@YAPEAP6AXXZQEAP6AXXZ@Z 000000018008e640 f i libucrtd:onexit.obj
 0001:0008d750       ??0?$__crt_unique_heap_ptr@P6AXXZU__crt_internal_free_policy@@@@QEAA@QEAP6AXXZ@Z 000000018008e750 f i libucrtd:onexit.obj
 0001:0008d770       ??1?$__crt_unique_heap_ptr@P6AXXZU__crt_internal_free_policy@@@@QEAA@XZ 000000018008e770 f i libucrtd:onexit.obj
 0001:0008d790       ??1scoped_global_state_reset@__crt_state_management@@QEAA@XZ 000000018008e790 f i libucrtd:onexit.obj
 0001:0008dd60       ?detach@?$__crt_unique_heap_ptr@P6AXXZU__crt_internal_free_policy@@@@QEAAPEAP6AXXZXZ 000000018008ed60 f i libucrtd:onexit.obj
 0001:0008dd90       ?release@?$__crt_unique_heap_ptr@P6AXXZU__crt_internal_free_policy@@@@QEAAXXZ 000000018008ed90 f i libucrtd:onexit.obj
 0001:0008ddc0       _crt_at_quick_exit         000000018008edc0 f   libucrtd:onexit.obj
 0001:0008dde0       _crt_atexit                000000018008ede0 f   libucrtd:onexit.obj
 0001:0008de00       _execute_onexit_table      000000018008ee00 f   libucrtd:onexit.obj
 0001:0008de40       _initialize_onexit_table   000000018008ee40 f   libucrtd:onexit.obj
 0001:0008dec0       _register_onexit_function  000000018008eec0 f   libucrtd:onexit.obj
 0001:0008e130       ??$?BX@__crt_fast_encoded_nullptr_t@@QEBAPEAXXZ 000000018008f130 f i libucrtd:initialization.obj
 0001:0008e150       ??$__crt_fast_encode_pointer@PEAX@@YAPEAXQEAX@Z 000000018008f150 f i libucrtd:initialization.obj
 0001:0008e240       ?initialize@?$dual_state_global@PEAU__crt_locale_data@@@__crt_state_management@@QEAAXQEAU__crt_locale_data@@@Z 000000018008f240 f i libucrtd:initialization.obj
 0001:0008e290       __acrt_initialize          000000018008f290 f   libucrtd:initialization.obj
 0001:0008e2c0       __acrt_thread_attach       000000018008f2c0 f   libucrtd:initialization.obj
 0001:0008e2e0       __acrt_thread_detach       000000018008f2e0 f   libucrtd:initialization.obj
 0001:0008e2f0       __acrt_uninitialize        000000018008f2f0 f   libucrtd:initialization.obj
 0001:0008e320       __acrt_uninitialize_critical 000000018008f320 f   libucrtd:initialization.obj
 0001:00090310       _CrtCheckMemory            0000000180091310 f   libucrtd:debug_heap.obj
 0001:000904a0       _CrtDoForAllClientObjects  00000001800914a0 f   libucrtd:debug_heap.obj
 0001:000905d0       _CrtDumpMemoryLeaks        00000001800915d0 f   libucrtd:debug_heap.obj
 0001:00090690       _CrtGetAllocHook           0000000180091690 f   libucrtd:debug_heap.obj
 0001:000906a0       _CrtGetDumpClient          00000001800916a0 f   libucrtd:debug_heap.obj
 0001:000906b0       _CrtIsMemoryBlock          00000001800916b0 f   libucrtd:debug_heap.obj
 0001:000907f0       _CrtIsValidHeapPointer     00000001800917f0 f   libucrtd:debug_heap.obj
 0001:00090830       _CrtIsValidPointer         0000000180091830 f   libucrtd:debug_heap.obj
 0001:00090870       _CrtMemCheckpoint          0000000180091870 f   libucrtd:debug_heap.obj
 0001:00090af0       _CrtMemDifference          0000000180091af0 f   libucrtd:debug_heap.obj
 0001:00090e50       _CrtMemDumpAllObjectsSince 0000000180091e50 f   libucrtd:debug_heap.obj
 0001:00090eb0       _CrtMemDumpStatistics      0000000180091eb0 f   libucrtd:debug_heap.obj
 0001:00091050       _CrtReportBlockType        0000000180092050 f   libucrtd:debug_heap.obj
 0001:00091080       _CrtSetAllocHook           0000000180092080 f   libucrtd:debug_heap.obj
 0001:000910b0       _CrtSetBreakAlloc          00000001800920b0 f   libucrtd:debug_heap.obj
 0001:000910e0       _CrtSetDbgBlockType        00000001800920e0 f   libucrtd:debug_heap.obj
 0001:00091180       _CrtSetDbgFlag             0000000180092180 f   libucrtd:debug_heap.obj
 0001:000912e0       _CrtSetDumpClient          00000001800922e0 f   libucrtd:debug_heap.obj
 0001:00091310       __acrt_get_locale_data_prefix 0000000180092310 f i libucrtd:debug_heap.obj
 0001:00091330       __p__crtBreakAlloc         0000000180092330 f   libucrtd:debug_heap.obj
 0001:00091340       __p__crtDbgFlag            0000000180092340 f   libucrtd:debug_heap.obj
 0001:00091350       _aligned_free_dbg          0000000180092350 f   libucrtd:debug_heap.obj
 0001:00091440       _aligned_malloc_dbg        0000000180092440 f   libucrtd:debug_heap.obj
 0001:00091480       _aligned_msize_dbg         0000000180092480 f   libucrtd:debug_heap.obj
 0001:00091650       _aligned_offset_malloc_dbg 0000000180092650 f   libucrtd:debug_heap.obj
 0001:00091940       _aligned_offset_realloc_dbg 0000000180092940 f   libucrtd:debug_heap.obj
 0001:00091df0       _aligned_offset_recalloc_dbg 0000000180092df0 f   libucrtd:debug_heap.obj
 0001:00091f10       _aligned_realloc_dbg       0000000180092f10 f   libucrtd:debug_heap.obj
 0001:00091f60       _aligned_recalloc_dbg      0000000180092f60 f   libucrtd:debug_heap.obj
 0001:00091fc0       _calloc_dbg                0000000180092fc0 f   libucrtd:debug_heap.obj
 0001:00092060       _chvalidchk_l              0000000180093060 f i libucrtd:debug_heap.obj
 0001:00092090       _expand_dbg                0000000180093090 f   libucrtd:debug_heap.obj
 0001:000921c0       _free_dbg                  00000001800931c0 f   libucrtd:debug_heap.obj
 0001:00092230       _ischartype_l              0000000180093230 f i libucrtd:debug_heap.obj
 0001:000922c0       _malloc_dbg                00000001800932c0 f   libucrtd:debug_heap.obj
 0001:00092300       _msize_dbg                 0000000180093300 f   libucrtd:debug_heap.obj
 0001:000924a0       _realloc_dbg               00000001800934a0 f   libucrtd:debug_heap.obj
 0001:00092510       _recalloc_dbg              0000000180093510 f   libucrtd:debug_heap.obj
 0001:00092610       _initterm                  0000000180093610 f   libucrtd:initterm.obj
 0001:00092670       _initterm_e                0000000180093670 f   libucrtd:initterm.obj
 0001:00092bc0       strcpy_s                   0000000180093bc0 f   libucrtd:strcpy_s.obj
 0001:00093260       strcat_s                   0000000180094260 f   libucrtd:strcat_s.obj
 0001:00093290       ??$?B$$A6AH_K@Z@__crt_fast_encoded_nullptr_t@@QEBAP6AH_K@ZXZ 0000000180094290 f i libucrtd:new_handler.obj
 0001:000932b0       ??$__crt_fast_decode_pointer@P6AH_K@Z@@YAP6AH_K@ZQ6AH0@Z@Z 00000001800942b0 f i libucrtd:new_handler.obj
 0001:000932f0       ??$__crt_fast_encode_pointer@P6AH_K@Z@@YAP6AH_K@ZQ6AH0@Z@Z 00000001800942f0 f i libucrtd:new_handler.obj
 0001:00093330       ?_set_new_handler@@YAP6AH_K@ZH@Z 0000000180094330 f   libucrtd:new_handler.obj
 0001:000933a0       ?initialize@?$dual_state_global@P6AH_K@Z@__crt_state_management@@QEAAXQ6AH_K@Z@Z 00000001800943a0 f i libucrtd:new_handler.obj
 0001:000933f0       ?value@?$dual_state_global@P6AH_K@Z@__crt_state_management@@QEAAAEAP6AH_K@ZXZ 00000001800943f0 f i libucrtd:new_handler.obj
 0001:00093410       __acrt_initialize_new_handler 0000000180094410 f   libucrtd:new_handler.obj
 0001:00093430       _callnewh                  0000000180094430 f   libucrtd:new_handler.obj
 0001:00093480       _query_new_handler         0000000180094480 f   libucrtd:new_handler.obj
 0001:000934c0       _set_new_handler           00000001800944c0 f   libucrtd:new_handler.obj
 0001:00093570       _get_terminate             0000000180094570 f   libucrtd:terminate.obj
 0001:00093590       set_terminate              0000000180094590 f   libucrtd:terminate.obj
 0001:000935d0       terminate                  00000001800945d0 f   libucrtd:terminate.obj
 0001:000943d0       _makepath                  00000001800953d0 f   libucrtd:makepath.obj
 0001:00094420       _makepath_s                0000000180095420 f   libucrtd:makepath.obj
 0001:00094470       _wmakepath                 0000000180095470 f   libucrtd:makepath.obj
 0001:000944c0       _wmakepath_s               00000001800954c0 f   libucrtd:makepath.obj
 0001:00096af0       ??$tcsncpy_s@AEAPEAD_KAEAPEBDAEB_K@?$__crt_char_traits@D@@SAHAEAPEAD$$QEA_KAEAPEBDAEB_K@Z 0000000180097af0 f i libucrtd:splitpath.obj
 0001:00096b40       ??$tcsncpy_s@AEAPEAD_KAEAPEBDH@?$__crt_char_traits@D@@SAHAEAPEAD$$QEA_KAEAPEBD$$QEAH@Z 0000000180097b40 f i libucrtd:splitpath.obj
 0001:00096b90       ??$tcsncpy_s@AEAPEA_W_KAEAPEB_WAEB_K@?$__crt_char_traits@_W@@SAHAEAPEA_W$$QEA_KAEAPEB_WAEB_K@Z 0000000180097b90 f i libucrtd:splitpath.obj
 0001:00096be0       ??$tcsncpy_s@AEAPEA_W_KAEAPEB_WH@?$__crt_char_traits@_W@@SAHAEAPEA_W$$QEA_KAEAPEB_W$$QEAH@Z 0000000180097be0 f i libucrtd:splitpath.obj
 0001:00096e90       _splitpath                 0000000180097e90 f   libucrtd:splitpath.obj
 0001:00096ed0       _splitpath_s               0000000180097ed0 f   libucrtd:splitpath.obj
 0001:00096f70       _wsplitpath                0000000180097f70 f   libucrtd:splitpath.obj
 0001:00096fb0       _wsplitpath_s              0000000180097fb0 f   libucrtd:splitpath.obj
 0001:00097050       _set_abort_behavior        0000000180098050 f   libucrtd:abort.obj
 0001:00097090       abort                      0000000180098090 f   libucrtd:abort.obj
 0001:00097120       strcmp                     0000000180098120 f   libucrtd:strcmp.obj
 0001:000971a0       strlen                     00000001800981a0 f   libucrtd:strlen.obj
 0001:00097250       ??$is_overflow_condition@K@__crt_strtox@@YA_NIK@Z 0000000180098250 f i libucrtd:atox.obj
 0001:000972c0       ??$is_overflow_condition@_K@__crt_strtox@@YA_NI_K@Z 00000001800982c0 f i libucrtd:atox.obj
 0001:00097330       ??$make_c_string_character_source@D$$T@__crt_strtox@@YA?AV?$c_string_character_source@D@0@QEBD$$T@Z 0000000180098330 f i libucrtd:atox.obj
 0001:00097370       ??$make_c_string_character_source@_W$$T@__crt_strtox@@YA?AV?$c_string_character_source@_W@0@QEB_W$$T@Z 0000000180098370 f i libucrtd:atox.obj
 0001:000973b0       ??$parse_integer@KV?$c_string_character_source@D@__crt_strtox@@@__crt_strtox@@YAKQEAU__crt_locale_pointers@@V?$c_string_character_source@D@0@H_N@Z 00000001800983b0 f i libucrtd:atox.obj
 0001:00097840       ??$parse_integer@KV?$c_string_character_source@_W@__crt_strtox@@@__crt_strtox@@YAKQEAU__crt_locale_pointers@@V?$c_string_character_source@_W@0@H_N@Z 0000000180098840 f i libucrtd:atox.obj
 0001:00097cf0       ??$parse_integer@_KV?$c_string_character_source@D@__crt_strtox@@@__crt_strtox@@YA_KQEAU__crt_locale_pointers@@V?$c_string_character_source@D@0@H_N@Z 0000000180098cf0 f i libucrtd:atox.obj
 0001:00098210       ??$parse_integer@_KV?$c_string_character_source@_W@__crt_strtox@@@__crt_strtox@@YA_KQEAU__crt_locale_pointers@@V?$c_string_character_source@_W@0@H_N@Z 0000000180099210 f i libucrtd:atox.obj
 0001:00098730       ??$parse_integer_from_string@JD$$T@__crt_strtox@@YAJQEBD$$THQEAU__crt_locale_pointers@@@Z 0000000180099730 f i libucrtd:atox.obj
 0001:00098780       ??$parse_integer_from_string@J_W$$T@__crt_strtox@@YAJQEB_W$$THQEAU__crt_locale_pointers@@@Z 0000000180099780 f i libucrtd:atox.obj
 0001:000987d0       ??$parse_integer_from_string@_JD$$T@__crt_strtox@@YA_JQEBD$$THQEAU__crt_locale_pointers@@@Z 00000001800997d0 f i libucrtd:atox.obj
 0001:00098820       ??$parse_integer_from_string@_J_W$$T@__crt_strtox@@YA_JQEB_W$$THQEAU__crt_locale_pointers@@@Z 0000000180099820 f i libucrtd:atox.obj
 0001:00098870       ??0?$c_string_character_source@D@__crt_strtox@@QEAA@QEBDQEAPEBD@Z 0000000180099870 f i libucrtd:atox.obj
 0001:000988c0       ??0?$c_string_character_source@_W@__crt_strtox@@QEAA@QEB_WQEAPEB_W@Z 00000001800998c0 f i libucrtd:atox.obj
 0001:00098910       ??1?$c_string_character_source@D@__crt_strtox@@QEAA@XZ 0000000180099910 f i libucrtd:atox.obj
 0001:00098940       ??1?$c_string_character_source@_W@__crt_strtox@@QEAA@XZ 0000000180099940 f i libucrtd:atox.obj
 0001:00098970       ?get@?$c_string_character_source@D@__crt_strtox@@QEAADXZ 0000000180099970 f i libucrtd:atox.obj
 0001:000989b0       ?get@?$c_string_character_source@_W@__crt_strtox@@QEAA_WXZ 00000001800999b0 f i libucrtd:atox.obj
 0001:000989f0       ?is_space@__crt_strtox@@YA_NDQEAU__crt_locale_pointers@@@Z 00000001800999f0 f i libucrtd:atox.obj
 0001:00098a40       ?is_space@__crt_strtox@@YA_N_WPEAU__crt_locale_pointers@@@Z 0000000180099a40 f i libucrtd:atox.obj
 0001:00098a80       ?maximum_signed_value@__crt_strtox@@YAJK@Z 0000000180099a80 f i libucrtd:atox.obj
 0001:00098a90       ?maximum_signed_value@__crt_strtox@@YA_J_K@Z 0000000180099a90 f i libucrtd:atox.obj
 0001:00098aa0       ?minimum_signed_value@__crt_strtox@@YAJK@Z 0000000180099aa0 f i libucrtd:atox.obj
 0001:00098ab0       ?minimum_signed_value@__crt_strtox@@YA_J_K@Z 0000000180099ab0 f i libucrtd:atox.obj
 0001:00098ac0       ?parse_digit@__crt_strtox@@YAID@Z 0000000180099ac0 f i libucrtd:atox.obj
 0001:00098b30       ?parse_digit@__crt_strtox@@YAI_W@Z 0000000180099b30 f i libucrtd:atox.obj
 0001:00098b80       ?restore_state@?$c_string_character_source@D@__crt_strtox@@QEAA_NQEBD@Z 0000000180099b80 f i libucrtd:atox.obj
 0001:00098ba0       ?restore_state@?$c_string_character_source@_W@__crt_strtox@@QEAA_NQEB_W@Z 0000000180099ba0 f i libucrtd:atox.obj
 0001:00098bc0       ?save_state@?$c_string_character_source@D@__crt_strtox@@QEBAPEBDXZ 0000000180099bc0 f i libucrtd:atox.obj
 0001:00098bd0       ?save_state@?$c_string_character_source@_W@__crt_strtox@@QEBAPEB_WXZ 0000000180099bd0 f i libucrtd:atox.obj
 0001:00098be0       ?unget@?$c_string_character_source@D@__crt_strtox@@QEAAXD@Z 0000000180099be0 f i libucrtd:atox.obj
 0001:00098cc0       ?unget@?$c_string_character_source@_W@__crt_strtox@@QEAAX_W@Z 0000000180099cc0 f i libucrtd:atox.obj
 0001:00098da0       ?validate@?$c_string_character_source@D@__crt_strtox@@QEBA_NXZ 0000000180099da0 f i libucrtd:atox.obj
 0001:00098e60       ?validate@?$c_string_character_source@_W@__crt_strtox@@QEBA_NXZ 0000000180099e60 f i libucrtd:atox.obj
 0001:00098f20       ?wide_character_to_digit@__crt_strtox@@YAH_W@Z 0000000180099f20 f i libucrtd:atox.obj
 0001:00099290       __ascii_iswalpha           000000018009a290 f i libucrtd:atox.obj
 0001:000992d0       __ascii_toupper            000000018009a2d0 f i libucrtd:atox.obj
 0001:000992f0       __ascii_towupper           000000018009a2f0 f i libucrtd:atox.obj
 0001:00099310       _atoi64                    000000018009a310 f   libucrtd:atox.obj
 0001:00099340       _atoi64_l                  000000018009a340 f   libucrtd:atox.obj
 0001:00099370       _atoi_l                    000000018009a370 f   libucrtd:atox.obj
 0001:000993a0       _atol_l                    000000018009a3a0 f   libucrtd:atox.obj
 0001:000993d0       _atoll_l                   000000018009a3d0 f   libucrtd:atox.obj
 0001:00099400       _wtoi                      000000018009a400 f   libucrtd:atox.obj
 0001:00099430       _wtoi64                    000000018009a430 f   libucrtd:atox.obj
 0001:00099460       _wtoi64_l                  000000018009a460 f   libucrtd:atox.obj
 0001:00099490       _wtoi_l                    000000018009a490 f   libucrtd:atox.obj
 0001:000994c0       _wtol                      000000018009a4c0 f   libucrtd:atox.obj
 0001:000994f0       _wtol_l                    000000018009a4f0 f   libucrtd:atox.obj
 0001:00099520       _wtoll                     000000018009a520 f   libucrtd:atox.obj
 0001:00099550       _wtoll_l                   000000018009a550 f   libucrtd:atox.obj
 0001:00099580       atoi                       000000018009a580 f   libucrtd:atox.obj
 0001:000995b0       atol                       000000018009a5b0 f   libucrtd:atox.obj
 0001:000995e0       atoll                      000000018009a5e0 f   libucrtd:atox.obj
 0001:00099620       strncmp                    000000018009a620 f   libucrtd:strncmp.obj
