 OPOSRemoteOrderDisplay

 Timestamp is 5d429f8b (Thu Aug  1 17:15:07 2019)

 Preferred load address is 0000000180000000

 Start         Length     Name                   Class
 0001:00000000 00001400H .text$di                CODE
 0001:00001400 000d40f0H .text$mn                CODE
 0001:000d54f0 00000020H .text$mn$00             CODE
 0001:000d5510 00001360H .text$x                 CODE
 0001:000d6870 000001b4H .text$yd                CODE
 0002:00000000 000006d8H .idata$5                DATA
 0002:000006d8 00000010H .00cfg                  DATA
 0002:000006e8 00000008H .CRT$XCA                DATA
 0002:000006f0 00000008H .CRT$XCL                DATA
 0002:000006f8 000000d8H .CRT$XCU                DATA
 0002:000007d0 00000008H .CRT$XCZ                DATA
 0002:000007d8 00000008H .CRT$XIA                DATA
 0002:000007e0 00000020H .CRT$XIC                DATA
 0002:00000800 00000008H .CRT$XIZ                DATA
 0002:00000808 00000008H .CRT$XLA                DATA
 0002:00000810 00000008H .CRT$XLZ                DATA
 0002:00000818 00000008H .CRT$XPA                DATA
 0002:00000820 00000010H .CRT$XPX                DATA
 0002:00000830 00000008H .CRT$XPXA               DATA
 0002:00000838 00000008H .CRT$XPZ                DATA
 0002:00000840 00000008H .CRT$XTA                DATA
 0002:00000848 00000008H .CRT$XTZ                DATA
 0002:00000850 00000000H .gfids$y                DATA
 0002:00000850 0003bac8H .rdata                  DATA
 0002:0003c318 00000028H .rdata$T                DATA
 0002:0003c340 0000056cH .rdata$r                DATA
 0002:0003c8ac 0000043cH .rdata$zzzdbg           DATA
 0002:0003cce8 00000008H .rtc$IAA                DATA
 0002:0003ccf0 00000030H .rtc$IMZ                DATA
 0002:0003cd20 00000008H .rtc$IZZ                DATA
 0002:0003cd28 00000008H .rtc$TAA                DATA
 0002:0003cd30 00000030H .rtc$TMZ                DATA
 0002:0003cd60 00000008H .rtc$TZZ                DATA
 0002:0003cd68 00000004H .tls                    DATA
 0002:0003cd6c 00000004H .tls$                   DATA
 0002:0003cd70 00000010H .tls$ZZZ                DATA
 0002:0003cd80 00009848H .xdata                  DATA
 0002:000465c8 00000150H .xdata$x                DATA
 0002:00046718 00000008H ATL$__a                 DATA
 0002:00046720 00000010H ATL$__z                 DATA
 0002:00046730 000000b4H .edata                  DATA
 0002:000467e4 00000078H .idata$2                DATA
 0002:0004685c 00000014H .idata$3                DATA
 0002:00046870 000006d8H .idata$4                DATA
 0002:00046f48 00000db8H .idata$6                DATA
 0003:00000000 00000f48H .data                   DATA
 0003:00000f48 00000198H .data$r                 DATA
 0003:000010e0 00003e9cH .bss                    DATA
 0004:00000000 0000c144H .pdata                  DATA
 0005:00000000 00000094H _RDATA                  DATA
 0006:00000000 00000220H .rsrc$01                DATA
 0006:00000220 00005640H .rsrc$02                DATA

  Address         Publics by Value              Rva+Base               Lib:Object

 0000:00000000       __guard_iat_count          0000000000000000     <absolute>
 0000:00000000       __guard_fids_table         0000000000000000     <absolute>
 0000:00000000       __hybrid_code_map          0000000000000000     <absolute>
 0000:00000000       __volatile_metadata        0000000000000000     <absolute>
 0000:00000000       __enclave_config           0000000000000000     <absolute>
 0000:00000000       __guard_longjmp_table      0000000000000000     <absolute>
 0000:00000000       __hybrid_auxiliary_iat     0000000000000000     <absolute>
 0000:00000000       __dynamic_value_reloc_table 0000000000000000     <absolute>
 0000:00000000       __guard_longjmp_count      0000000000000000     <absolute>
 0000:00000000       __guard_fids_count         0000000000000000     <absolute>
 0000:00000000       ___safe_se_handler_table   0000000000000000     <absolute>
 0000:00000000       __hybrid_code_map_count    0000000000000000     <absolute>
 0000:00000000       __guard_iat_table          0000000000000000     <absolute>
 0000:00000000       __AbsoluteZero             0000000000000000     <absolute>
 0000:00000000       ___safe_se_handler_count   0000000000000000     <absolute>
 0000:00000100       __guard_flags              0000000000000100     <absolute>
 0000:00000000       __ImageBase                0000000180000000     <linker-defined>
 0001:00001400       ?_assert@@YAXPEB_W0I@Z     0000000180002400 f   Assert.obj
 0001:00001500       __local_stdio_printf_options 0000000180002500 f i Assert.obj
 0001:00001510       __vswprintf_l              0000000180002510 f i Assert.obj
 0001:00001570       _swprintf                  0000000180002570 f i Assert.obj
 0001:000015f0       _vswprintf_c_l             00000001800025f0 f i Assert.obj
 0001:00001680       _vswprintf_l               0000000180002680 f i Assert.obj
 0001:000016e0       ?cw_memcpy@@YAHPEADPEB_WH@Z 00000001800026e0 f   CWString.obj
 0001:00001770       ?cw_memcpy@@YAHPEA_WPEBDH@Z 0000000180002770 f   CWString.obj
 0001:000017f0       ?cw_memcpy@@YAHPEADPEBDH@Z 00000001800027f0 f   CWString.obj
 0001:00001890       ?cw_memcpy@@YAHPEA_WPEB_WH@Z 0000000180002890 f   CWString.obj
 0001:00001900       ?cw_memset@@YAXPEADDH@Z    0000000180002900 f   CWString.obj
 0001:00001970       ?cw_memset@@YAXPEA_W_WH@Z  0000000180002970 f   CWString.obj
 0001:00001a10       ?cw_strlen@@YAHPEBD@Z      0000000180002a10 f   CWString.obj
 0001:00001a80       ?cw_strlen@@YAHPEB_W@Z     0000000180002a80 f   CWString.obj
 0001:00001af0       ?cw_strcpy@@YAHPEADPEB_W@Z 0000000180002af0 f   CWString.obj
 0001:00001b40       ?cw_strcpy@@YAHPEA_WPEBD@Z 0000000180002b40 f   CWString.obj
 0001:00001b90       ?cw_strcpy@@YAHPEADPEBD@Z  0000000180002b90 f   CWString.obj
 0001:00001be0       ?cw_strcpy@@YAHPEA_WPEB_W@Z 0000000180002be0 f   CWString.obj
 0001:00001c30       ?cw_strcat@@YAHPEADPEB_W@Z 0000000180002c30 f   CWString.obj
 0001:00001c90       ?cw_strcat@@YAHPEA_WPEBD@Z 0000000180002c90 f   CWString.obj
 0001:00001cf0       ?cw_strcat@@YAHPEADPEBD@Z  0000000180002cf0 f   CWString.obj
 0001:00001d50       ?cw_strcat@@YAHPEA_WPEB_W@Z 0000000180002d50 f   CWString.obj
 0001:00001db0       ?cw_dup@@YAXPEBDAEAHAEAPEA_W1@Z 0000000180002db0 f   CWString.obj
 0001:00001ec0       ?cw_dup@@YAXPEB_WAEAHAEAPEAD1@Z 0000000180002ec0 f   CWString.obj
 0001:00001fb0       ?DupChar@_CW@@AEAAXXZ      0000000180002fb0 f   CWString.obj
 0001:00002010       ?DupWide@_CW@@AEAAXXZ      0000000180003010 f   CWString.obj
 0001:00002080       ?GetCharsMbcs@_CW@@QEAAHXZ 0000000180003080 f   CWString.obj
 0001:000020f0       ?GetCharsWide@_CW@@QEAAHXZ 00000001800030f0 f   CWString.obj
 0001:00002160       ?SetVARIANT_BOOL@OposVariant@@QEAAXF@Z 0000000180003160 f   OposVariant.obj
 0001:000021d0       ?SetVARIANT_BOOL_Ptr@OposVariant@@QEAAXPEAFAEAJ@Z 00000001800031d0 f   OposVariant.obj
 0001:00002240       ?GetLONG@OposVariant@@QEAAJXZ 0000000180003240 f   OposVariant.obj
 0001:000022a0       ?ChangeLONG@OposVariant@@QEAAXPEAJAEAJ@Z 00000001800032a0 f   OposVariant.obj
 0001:00002350       ?SetLONG@OposVariant@@QEAAXJ@Z 0000000180003350 f   OposVariant.obj
 0001:000023b0       ?SetLONG_Ptr@OposVariant@@QEAAXPEAJAEAJ@Z 00000001800033b0 f   OposVariant.obj
 0001:00002420       ?ChangeCURRENCY@OposVariant@@QEAAXPEATtagCY@@AEAJ@Z 0000000180003420 f   OposVariant.obj
 0001:000024d0       ?SetCURRENCY@OposVariant@@QEAAXTtagCY@@@Z 00000001800034d0 f   OposVariant.obj
 0001:00002530       ?SetCURRENCY_Ptr@OposVariant@@QEAAXPEATtagCY@@AEAJ@Z 0000000180003530 f   OposVariant.obj
 0001:000025a0       ?ChangeBSTR@OposVariant@@QEAAXPEAPEA_WAEAJ@Z 00000001800035a0 f   OposVariant.obj
 0001:00002650       ?SetBSTR@OposVariant@@QEAAXPEA_WAEAJ@Z 0000000180003650 f   OposVariant.obj
 0001:000026d0       ?SetBSTR_Copy@OposVariant@@QEAAXPEA_WAEAJ@Z 00000001800036d0 f   OposVariant.obj
 0001:00002780       ?SetBSTR_OutPtr@OposVariant@@QEAA_NPEAPEA_WAEAJ@Z 0000000180003780 f   OposVariant.obj
 0001:000027f0       ?SetBSTR_InOutPtr@OposVariant@@QEAA_NPEAPEA_WAEAJ@Z 00000001800037f0 f   OposVariant.obj
 0001:00002870       ?SetVARIANT@OposVariant@@QEAAXAEAUtagVARIANT@@GAEAJ@Z 0000000180003870 f   OposVariant.obj
 0001:00002910       ?SetVARIANT_Ptr@OposVariant@@QEAAXAEAPEAUtagVARIANT@@GAEAJ@Z 0000000180003910 f   OposVariant.obj
 0001:000029c0       ?SetString@OposVariant@@QEAAXPEB_WAEAJ@Z 00000001800039c0 f   OposVariant.obj
 0001:00002a70       ?SetDispatch_Ptr@OposVariant@@QEAAXPEAUIDispatch@@AEAJ@Z 0000000180003a70 f   OposVariant.obj
 0001:00002b00       ??0OposDispParms@@QEAA@PEAVOposVariant@@H@Z 0000000180003b00 f   OposVariant.obj
 0001:00002c10       ??1OposDispParms@@QEAA@XZ  0000000180003c10 f   OposVariant.obj
 0001:00002c60       ??$AtlMultiply@_K@ATL@@YAJPEA_K_K1@Z 0000000180003c60 f i OposVariant.obj
 0001:00002ce0       ??0?$CHeapPtr@_WVCCRTAllocator@ATL@@@ATL@@QEAA@XZ 0000000180003ce0 f i OposVariant.obj
 0001:00002d20       ??0?$CHeapPtrBase@_WVCCRTAllocator@ATL@@@ATL@@IEAA@XZ 0000000180003d20 f i OposVariant.obj
 0001:00002d40       ??0?$CSimpleArray@GV?$CSimpleArrayEqualHelper@G@ATL@@@ATL@@QEAA@XZ 0000000180003d40 f i OposVariant.obj
 0001:00002d80       ??0?$CTraceCategoryEx@$00$0A@@ATL@@QEAA@PEB_W@Z 0000000180003d80 f i OposVariant.obj
 0001:00002dc0       ??0?$CTraceCategoryEx@$01$0A@@ATL@@QEAA@PEB_W@Z 0000000180003dc0 f i OposVariant.obj
 0001:00002e00       ??0?$CTraceCategoryEx@$03$0A@@ATL@@QEAA@PEB_W@Z 0000000180003e00 f i OposVariant.obj
 0001:00002e40       ??0?$CTraceCategoryEx@$07$0A@@ATL@@QEAA@PEB_W@Z 0000000180003e40 f i OposVariant.obj
 0001:00002e80       ??0?$CTraceCategoryEx@$0BA@$0A@@ATL@@QEAA@PEB_W@Z 0000000180003e80 f i OposVariant.obj
 0001:00002ec0       ??0?$CTraceCategoryEx@$0BAA@$0A@@ATL@@QEAA@PEB_W@Z 0000000180003ec0 f i OposVariant.obj
 0001:00002f00       ??0?$CTraceCategoryEx@$0BAAA@$0A@@ATL@@QEAA@PEB_W@Z 0000000180003f00 f i OposVariant.obj
 0001:00002f40       ??0?$CTraceCategoryEx@$0BAAAA@$0A@@ATL@@QEAA@PEB_W@Z 0000000180003f40 f i OposVariant.obj
 0001:00002f80       ??0?$CTraceCategoryEx@$0BAAAAA@$0A@@ATL@@QEAA@PEB_W@Z 0000000180003f80 f i OposVariant.obj
 0001:00002fc0       ??0?$CTraceCategoryEx@$0CA@$0A@@ATL@@QEAA@PEB_W@Z 0000000180003fc0 f i OposVariant.obj
 0001:00003000       ??0?$CTraceCategoryEx@$0CAA@$0A@@ATL@@QEAA@PEB_W@Z 0000000180004000 f i OposVariant.obj
 0001:00003040       ??0?$CTraceCategoryEx@$0CAAA@$0A@@ATL@@QEAA@PEB_W@Z 0000000180004040 f i OposVariant.obj
 0001:00003080       ??0?$CTraceCategoryEx@$0CAAAA@$0A@@ATL@@QEAA@PEB_W@Z 0000000180004080 f i OposVariant.obj
 0001:000030c0       ??0?$CTraceCategoryEx@$0CAAAAA@$0A@@ATL@@QEAA@PEB_W@Z 00000001800040c0 f i OposVariant.obj
 0001:00003100       ??0?$CTraceCategoryEx@$0EA@$0A@@ATL@@QEAA@PEB_W@Z 0000000180004100 f i OposVariant.obj
 0001:00003140       ??0?$CTraceCategoryEx@$0EAA@$0A@@ATL@@QEAA@PEB_W@Z 0000000180004140 f i OposVariant.obj
 0001:00003180       ??0?$CTraceCategoryEx@$0EAAA@$0A@@ATL@@QEAA@PEB_W@Z 0000000180004180 f i OposVariant.obj
 0001:000031c0       ??0?$CTraceCategoryEx@$0EAAAA@$0A@@ATL@@QEAA@PEB_W@Z 00000001800041c0 f i OposVariant.obj
 0001:00003200       ??0?$CTraceCategoryEx@$0EAAAAA@$0A@@ATL@@QEAA@PEB_W@Z 0000000180004200 f i OposVariant.obj
 0001:00003240       ??0?$CTraceCategoryEx@$0IA@$0A@@ATL@@QEAA@PEB_W@Z 0000000180004240 f i OposVariant.obj
 0001:00003280       ??0?$CTraceCategoryEx@$0IAA@$0A@@ATL@@QEAA@PEB_W@Z 0000000180004280 f i OposVariant.obj
 0001:000032c0       ??0?$CTraceCategoryEx@$0IAAA@$0A@@ATL@@QEAA@PEB_W@Z 00000001800042c0 f i OposVariant.obj
 0001:00003300       ??0?$CTraceCategoryEx@$0IAAAA@$0A@@ATL@@QEAA@PEB_W@Z 0000000180004300 f i OposVariant.obj
 0001:00003340       ??0CAtlComModule@ATL@@QEAA@XZ 0000000180004340 f i OposVariant.obj
 0001:00003460       ??0CAtlWinModule@ATL@@QEAA@XZ 0000000180004460 f i OposVariant.obj
 0001:00003510       ??0CComCriticalSection@ATL@@QEAA@XZ 0000000180004510 f i OposVariant.obj
 0001:00003550       ??0CPreserveLastError@ATL@@QEAA@XZ 0000000180004550 f i OposVariant.obj
 0001:00003590       ??0CTraceFileAndLineInfo@ATL@@QEAA@PEBDH@Z 0000000180004590 f i OposVariant.obj
 0001:000035c0       ??0_ATL_COM_MODULE70@ATL@@QEAA@XZ 00000001800045c0 f i OposVariant.obj
 0001:00003600       ??0_ATL_WIN_MODULE70@ATL@@QEAA@XZ 0000000180004600 f i OposVariant.obj
 0001:00003650       ??1?$CHeapPtr@_WVCCRTAllocator@ATL@@@ATL@@QEAA@XZ 0000000180004650 f i OposVariant.obj
 0001:00003680       ??1?$CHeapPtrBase@_WVCCRTAllocator@ATL@@@ATL@@QEAA@XZ 0000000180004680 f i OposVariant.obj
 0001:000036b0       ??1?$CSimpleArray@GV?$CSimpleArrayEqualHelper@G@ATL@@@ATL@@QEAA@XZ 00000001800046b0 f i OposVariant.obj
 0001:000036e0       ??1CAtlComModule@ATL@@QEAA@XZ 00000001800046e0 f i OposVariant.obj
 0001:00003720       ??1CAtlWinModule@ATL@@QEAA@XZ 0000000180004720 f i OposVariant.obj
 0001:00003760       ??1CComBSTR@ATL@@QEAA@XZ   0000000180004760 f i OposVariant.obj
 0001:000037a0       ??1CComCriticalSection@ATL@@QEAA@XZ 00000001800047a0 f i OposVariant.obj
 0001:000037b0       ??1CPreserveLastError@ATL@@QEAA@XZ 00000001800047b0 f i OposVariant.obj
 0001:000037f0       ??1_ATL_COM_MODULE70@ATL@@QEAA@XZ 00000001800047f0 f i OposVariant.obj
 0001:00003830       ??1_ATL_WIN_MODULE70@ATL@@QEAA@XZ 0000000180004830 f i OposVariant.obj
 0001:00003880       ??1stringdispid@CComTypeInfoHolder@ATL@@QEAA@XZ 0000000180004880 f i OposVariant.obj
 0001:000038c0       ??A?$CSimpleArray@GV?$CSimpleArrayEqualHelper@G@ATL@@@ATL@@QEAAAEAGH@Z 00000001800048c0 f i OposVariant.obj
 0001:00003970       ??B?$CHeapPtrBase@_WVCCRTAllocator@ATL@@@ATL@@QEBAPEA_WXZ 0000000180004970 f i OposVariant.obj
 0001:00003980       ??B?$CTraceCategoryEx@$01$0A@@ATL@@QEAAIXZ 0000000180004980 f i OposVariant.obj
 0001:00003990       ??B?$CTraceCategoryEx@$0CA@$0A@@ATL@@QEAAIXZ 0000000180004990 f i OposVariant.obj
 0001:000039a0       ??RCTraceFileAndLineInfo@ATL@@QEBAXHIPEB_WZZ 00000001800049a0 f i OposVariant.obj
 0001:00003a50       ??_Estringdispid@CComTypeInfoHolder@ATL@@QEAAPEAXI@Z 0000000180004a50 f i OposVariant.obj
 0001:00003b00       ??_H@YAXPEAX_K1P6APEAX0@Z@Z 0000000180004b00 f i OposVariant.obj
 0001:00003b90       ??_I@YAXPEAX_K1P6AX0@Z@Z   0000000180004b90 f i OposVariant.obj
 0001:00003c40       ?Allocate@?$CHeapPtr@_WVCCRTAllocator@ATL@@@ATL@@QEAA_N_K@Z 0000000180004c40 f i OposVariant.obj
 0001:00003cc0       ?Allocate@CCRTAllocator@ATL@@SAPEAX_K@Z 0000000180004cc0 f i OposVariant.obj
 0001:00003cf0       ?AllocateBytes@?$CHeapPtrBase@_WVCCRTAllocator@ATL@@@ATL@@QEAA_N_K@Z 0000000180004cf0 f i OposVariant.obj
 0001:00003d90       ?AtlWinModuleInit@ATL@@YAJPEAU_ATL_WIN_MODULE70@1@@Z 0000000180004d90 f i OposVariant.obj
 0001:00003e90       ?AtlWinModuleTerm@ATL@@YAJPEAU_ATL_WIN_MODULE70@1@PEAUHINSTANCE__@@@Z 0000000180004e90 f i OposVariant.obj
 0001:00003f80       ?Clear@OposVariant@@QEAAJXZ 0000000180004f80 f i OposVariant.obj
 0001:00003fc0       ?Free@?$CHeapPtrBase@_WVCCRTAllocator@ATL@@@ATL@@QEAAXXZ 0000000180004fc0 f i OposVariant.obj
 0001:00004000       ?Free@CCRTAllocator@ATL@@SAXPEAX@Z 0000000180005000 f i OposVariant.obj
 0001:00004030       ?GetCategoryName@CTrace@ATL@@CAPEA_WI@Z 0000000180005030 f i OposVariant.obj
 0001:000040b0       ?GetModuleInstance@CAtlBaseModule@ATL@@QEAAPEAUHINSTANCE__@@XZ 00000001800050b0 f i OposVariant.obj
 0001:000040d0       ?GetSize@?$CSimpleArray@GV?$CSimpleArrayEqualHelper@G@ATL@@@ATL@@QEBAHXZ 00000001800050d0 f i OposVariant.obj
 0001:000040e0       ?Init@CComCriticalSection@ATL@@QEAAJXZ 00000001800050e0 f i OposVariant.obj
 0001:00004140       ?RegisterCategory@CTrace@ATL@@SAXPEB_WI@Z 0000000180005140 f i OposVariant.obj
 0001:00004220       ?RemoveAll@?$CSimpleArray@GV?$CSimpleArrayEqualHelper@G@ATL@@@ATL@@QEAAXXZ 0000000180005220 f i OposVariant.obj
 0001:000042b0       ?Term@CAtlComModule@ATL@@QEAAXXZ 00000001800052b0 f i OposVariant.obj
 0001:00004390       ?Term@CAtlWinModule@ATL@@QEAAXXZ 0000000180005390 f i OposVariant.obj
 0001:000043d0       ?Term@CComCriticalSection@ATL@@QEAAJXZ 00000001800053d0 f i OposVariant.obj
 0001:00004410       ?TraceV@CTrace@ATL@@CAXPEBDHIIPEB_W@Z 0000000180005410 f i OposVariant.obj
 0001:000046c0       ?TraceV@CTrace@ATL@@SAXPEBDHIIPEB_WPEAD@Z 00000001800056c0 f i OposVariant.obj
 0001:00004870       ?_AtlInitializeCriticalSectionEx@ATL@@YAHPEAU_RTL_CRITICAL_SECTION@@KK@Z 0000000180005870 f i OposVariant.obj
 0001:000048c0       ?_AtlRaiseException@ATL@@YAXKK@Z 00000001800058c0 f i OposVariant.obj
 0001:00004900       HRESULT_FROM_WIN32         0000000180005900 f i OposVariant.obj
 0001:00004950       _vswprintf_s_l             0000000180005950 f i OposVariant.obj
 0001:000049e0       swprintf_s                 00000001800059e0 f i OposVariant.obj
 0001:00004a70       ?CreateInstance@?$CComCreator@V?$CComObjectCached@VCComClassFactory@ATL@@@ATL@@@ATL@@SAJPEAXAEBU_GUID@@PEAPEAX@Z 0000000180005a70 f i RemoteOrderDisplay.obj
 0001:00004c60       ?CreateInstance@?$CComCreator2@V?$CComCreator@V?$CComObject@VCOPOSRemoteOrderDisplay@@@ATL@@@ATL@@V?$CComCreator@V?$CComAggObject@VCOPOSRemoteOrderDisplay@@@ATL@@@2@@ATL@@SAJPEAXAEBU_GUID@@PEAPEAX@Z 0000000180005c60 f i RemoteOrderDisplay.obj
 0001:00004d10       ?GetObjectDescription@?$CComCoClass@VCOPOSRemoteOrderDisplay@@$1?CLSID_OPOSRemoteOrderDisplay@@3U_GUID@@B@ATL@@SAPEB_WXZ 0000000180005d10 f i RemoteOrderDisplay.obj
 0001:00004d20       ?UpdateRegistry@COPOSRemoteOrderDisplay@@SAJH@Z 0000000180005d20 f i RemoteOrderDisplay.obj
 0001:00004d60       ?ObjectMain@CComObjectRootBase@ATL@@SAX_N@Z 0000000180005d60 f i RemoteOrderDisplay.obj
 0001:00004d70       ?GetCategoryMap@CComObjectRootBase@ATL@@SAPEBU_ATL_CATMAP_ENTRY@2@XZ 0000000180005d70 f i RemoteOrderDisplay.obj
 0001:00004ee0       DllGetClassObject          0000000180005ee0 f   RemoteOrderDisplay.obj
 0001:00004f30       DllCanUnloadNow            0000000180005f30 f   RemoteOrderDisplay.obj
 0001:00004f80       DllRegisterServer          0000000180005f80 f   RemoteOrderDisplay.obj
 0001:00004fc0       DllUnregisterServer        0000000180005fc0 f   RemoteOrderDisplay.obj
 0001:000051c0       DllMain                    00000001800061c0 f   RemoteOrderDisplay.obj
 0001:00005240       ??$?2G@Wrapper@?$CSimpleArray@GV?$CSimpleArrayEqualHelper@G@ATL@@@ATL@@SAPEAX_KPEAG@Z 0000000180006240 f i RemoteOrderDisplay.obj
 0001:00005260       ??$?2PEA_W@?$Wrapper@PEA_W@?$CSimpleMap@PEA_WPEA_WVCExpansionVectorEqualHelper@ATL@@@ATL@@SAPEAX_KPEAPEA_W@Z 0000000180006260 f i RemoteOrderDisplay.obj
 0001:00005280       ??$?4UITypeInfo2@@@?$CComPtr@UITypeInfo@@@ATL@@QEAAPEAUITypeInfo@@AEBV?$CComPtr@UITypeInfo2@@@1@@Z 0000000180006280 f i RemoteOrderDisplay.obj
 0001:000052f0       ??$AtlAdd@_K@ATL@@YAJPEA_K_K1@Z 00000001800062f0 f i RemoteOrderDisplay.obj
 0001:00005360       ??$AtlAddThrow@_K@ATL@@YA_K_K0@Z 0000000180006360 f i RemoteOrderDisplay.obj
 0001:000053d0       ??$AtlModuleRegisterWndClassInfoT@VAtlModuleRegisterWndClassInfoParamW@ATL@@@ATL@@YAGPEAU_ATL_BASE_MODULE70@0@PEAU_ATL_WIN_MODULE70@0@PEAU_ATL_WNDCLASSINFOW@0@PEAP6A_JPEAUHWND__@@I_K_J@ZVAtlModuleRegisterWndClassInfoParamW@0@@Z 00000001800063d0 f i RemoteOrderDisplay.obj
 0001:000059a0       ??$AtlMultiply@H@ATL@@YAJPEAHHH@Z 00000001800069a0 f i RemoteOrderDisplay.obj
 0001:00005a10       ??$AtlMultiply@K@ATL@@YAJPEAKKK@Z 0000000180006a10 f i RemoteOrderDisplay.obj
 0001:00005a80       ??$AtlMultiplyThrow@_K@ATL@@YA_K_K0@Z 0000000180006a80 f i RemoteOrderDisplay.obj
 0001:00005af0       ??$QueryInterface@UIPersistStream@@@IUnknown@@QEAAJPEAPEAUIPersistStream@@@Z 0000000180006af0 f i RemoteOrderDisplay.obj
 0001:00005b40       ??$QueryInterface@UITypeInfo2@@@IUnknown@@QEAAJPEAPEAUITypeInfo2@@@Z 0000000180006b40 f i RemoteOrderDisplay.obj
 0001:00005b90       ??0?$CAtlModuleT@VCComModule@ATL@@@ATL@@QEAA@XZ 0000000180006b90 f i RemoteOrderDisplay.obj
 0001:00005bd0       ??0?$CAtlSafeAllocBufferManager@VCCRTAllocator@ATL@@@_ATL_SAFE_ALLOCA_IMPL@ATL@@QEAA@XZ 0000000180006bd0 f i RemoteOrderDisplay.obj
 0001:00005bf0       ??0?$CAutoVectorPtr@_W@ATL@@QEAA@XZ 0000000180006bf0 f i RemoteOrderDisplay.obj
 0001:00005c10       ??0?$CComAggObject@VCOPOSRemoteOrderDisplay@@@ATL@@QEAA@PEAX@Z 0000000180006c10 f i RemoteOrderDisplay.obj
 0001:00005ca0       ??0?$CComContainedObject@VCOPOSRemoteOrderDisplay@@@ATL@@QEAA@PEAX@Z 0000000180006ca0 f i RemoteOrderDisplay.obj
 0001:00005e40       ??0?$CComCritSecLock@VCComCriticalSection@ATL@@@ATL@@QEAA@AEAVCComCriticalSection@1@_N@Z 0000000180006e40 f i RemoteOrderDisplay.obj
 0001:00005eb0       ??0?$CComEnum@UIEnumConnectionPoints@@$1?_GUID_b196b285_bab4_101a_b69c_00aa00341d07@@3U__s_GUID@@BPEAUIConnectionPoint@@V?$_CopyInterface@UIConnectionPoint@@@ATL@@VCComSingleThreadModel@6@@ATL@@QEAA@XZ 0000000180006eb0 f i RemoteOrderDisplay.obj
 0001:00005f00       ??0?$CComEnum@UIEnumConnections@@$1?_GUID_b196b287_bab4_101a_b69c_00aa00341d07@@3U__s_GUID@@BUtagCONNECTDATA@@V?$_Copy@UtagCONNECTDATA@@@ATL@@VCComSingleThreadModel@6@@ATL@@QEAA@XZ 0000000180006f00 f i RemoteOrderDisplay.obj
 0001:00005f50       ??0?$CComEnumImpl@UIEnumConnectionPoints@@$1?_GUID_b196b285_bab4_101a_b69c_00aa00341d07@@3U__s_GUID@@BPEAUIConnectionPoint@@V?$_CopyInterface@UIConnectionPoint@@@ATL@@@ATL@@QEAA@XZ 0000000180006f50 f i RemoteOrderDisplay.obj
 0001:00005fd0       ??0?$CComEnumImpl@UIEnumConnections@@$1?_GUID_b196b287_bab4_101a_b69c_00aa00341d07@@3U__s_GUID@@BUtagCONNECTDATA@@V?$_Copy@UtagCONNECTDATA@@@ATL@@@ATL@@QEAA@XZ 0000000180006fd0 f i RemoteOrderDisplay.obj
 0001:00006050       ??0?$CComObject@V?$CComEnum@UIEnumConnectionPoints@@$1?_GUID_b196b285_bab4_101a_b69c_00aa00341d07@@3U__s_GUID@@BPEAUIConnectionPoint@@V?$_CopyInterface@UIConnectionPoint@@@ATL@@VCComSingleThreadModel@6@@ATL@@@ATL@@QEAA@PEAX@Z 0000000180007050 f i RemoteOrderDisplay.obj
 0001:000060b0       ??0?$CComObject@V?$CComEnum@UIEnumConnections@@$1?_GUID_b196b287_bab4_101a_b69c_00aa00341d07@@3U__s_GUID@@BUtagCONNECTDATA@@V?$_Copy@UtagCONNECTDATA@@@ATL@@VCComSingleThreadModel@6@@ATL@@@ATL@@QEAA@PEAX@Z 00000001800070b0 f i RemoteOrderDisplay.obj
 0001:00006110       ??0?$CComObject@VCOPOSRemoteOrderDisplay@@@ATL@@QEAA@PEAX@Z 0000000180007110 f i RemoteOrderDisplay.obj
 0001:000062b0       ??0?$CComObjectCached@VCComClassFactory@ATL@@@ATL@@QEAA@PEAX@Z 00000001800072b0 f i RemoteOrderDisplay.obj
 0001:00006300       ??0?$CComObjectRootEx@VCComMultiThreadModel@ATL@@@ATL@@QEAA@XZ 0000000180007300 f i RemoteOrderDisplay.obj
 0001:00006350       ??0?$CComObjectRootEx@VCComSingleThreadModel@ATL@@@ATL@@QEAA@XZ 0000000180007350 f i RemoteOrderDisplay.obj
 0001:00006390       ??0?$CComPtr@UIAdviseSink@@@ATL@@QEAA@PEAUIAdviseSink@@@Z 0000000180007390 f i RemoteOrderDisplay.obj
 0001:000063d0       ??0?$CComPtr@UICatRegister@@@ATL@@QEAA@XZ 00000001800073d0 f i RemoteOrderDisplay.obj
 0001:00006410       ??0?$CComPtr@UIConnectionPoint@@@ATL@@QEAA@XZ 0000000180007410 f i RemoteOrderDisplay.obj
 0001:00006450       ??0?$CComPtr@UIConnectionPointContainer@@@ATL@@QEAA@XZ 0000000180007450 f i RemoteOrderDisplay.obj
 0001:00006490       ??0?$CComPtr@UIDataObject@@@ATL@@QEAA@XZ 0000000180007490 f i RemoteOrderDisplay.obj
 0001:000064d0       ??0?$CComPtr@UIDispatch@@@ATL@@QEAA@XZ 00000001800074d0 f i RemoteOrderDisplay.obj
 0001:00006510       ??0?$CComPtr@UIOleClientSite@@@ATL@@QEAA@PEAUIOleClientSite@@@Z 0000000180007510 f i RemoteOrderDisplay.obj
 0001:00006550       ??0?$CComPtr@UIOleControlSite@@@ATL@@QEAA@XZ 0000000180007550 f i RemoteOrderDisplay.obj
 0001:00006590       ??0?$CComPtr@UIOleInPlaceActiveObject@@@ATL@@QEAA@XZ 0000000180007590 f i RemoteOrderDisplay.obj
 0001:000065d0       ??0?$CComPtr@UIOleInPlaceFrame@@@ATL@@QEAA@XZ 00000001800075d0 f i RemoteOrderDisplay.obj
 0001:00006610       ??0?$CComPtr@UIOleInPlaceObject@@@ATL@@QEAA@XZ 0000000180007610 f i RemoteOrderDisplay.obj
 0001:00006650       ??0?$CComPtr@UIOleInPlaceUIWindow@@@ATL@@QEAA@XZ 0000000180007650 f i RemoteOrderDisplay.obj
 0001:00006690       ??0?$CComPtr@UIOleObject@@@ATL@@QEAA@XZ 0000000180007690 f i RemoteOrderDisplay.obj
 0001:000066d0       ??0?$CComPtr@UIPersistStream@@@ATL@@QEAA@XZ 00000001800076d0 f i RemoteOrderDisplay.obj
 0001:00006710       ??0?$CComPtr@UIPersistStreamInit@@@ATL@@QEAA@XZ 0000000180007710 f i RemoteOrderDisplay.obj
 0001:00006750       ??0?$CComPtr@UIPointerInactive@@@ATL@@QEAA@XZ 0000000180007750 f i RemoteOrderDisplay.obj
 0001:00006790       ??0?$CComPtr@UIProvideClassInfo2@@@ATL@@QEAA@XZ 0000000180007790 f i RemoteOrderDisplay.obj
 0001:000067d0       ??0?$CComPtr@UISpecifyPropertyPages@@@ATL@@QEAA@XZ 00000001800077d0 f i RemoteOrderDisplay.obj
 0001:00006810       ??0?$CComPtr@UIStream@@@ATL@@QEAA@XZ 0000000180007810 f i RemoteOrderDisplay.obj
 0001:00006850       ??0?$CComPtr@UITypeInfo2@@@ATL@@QEAA@XZ 0000000180007850 f i RemoteOrderDisplay.obj
 0001:00006890       ??0?$CComPtr@UITypeInfo@@@ATL@@QEAA@AEBV01@@Z 0000000180007890 f i RemoteOrderDisplay.obj
 0001:000068d0       ??0?$CComPtr@UITypeInfo@@@ATL@@QEAA@XZ 00000001800078d0 f i RemoteOrderDisplay.obj
 0001:00006910       ??0?$CComPtr@UITypeLib@@@ATL@@QEAA@XZ 0000000180007910 f i RemoteOrderDisplay.obj
 0001:00006950       ??0?$CComPtr@UIUnknown@@@ATL@@QEAA@AEBV01@@Z 0000000180007950 f i RemoteOrderDisplay.obj
 0001:00006990       ??0?$CComPtr@UIUnknown@@@ATL@@QEAA@PEAUIUnknown@@@Z 0000000180007990 f i RemoteOrderDisplay.obj
 0001:000069d0       ??0?$CComPtr@UIUnknown@@@ATL@@QEAA@XZ 00000001800079d0 f i RemoteOrderDisplay.obj
 0001:00006a10       ??0?$CComPtr@UIViewObjectEx@@@ATL@@QEAA@XZ 0000000180007a10 f i RemoteOrderDisplay.obj
 0001:00006a50       ??0?$CComPtrBase@UIAdviseSink@@@ATL@@IEAA@PEAUIAdviseSink@@@Z 0000000180007a50 f i RemoteOrderDisplay.obj
 0001:00006ab0       ??0?$CComPtrBase@UICatRegister@@@ATL@@IEAA@XZ 0000000180007ab0 f i RemoteOrderDisplay.obj
 0001:00006ad0       ??0?$CComPtrBase@UIConnectionPoint@@@ATL@@IEAA@XZ 0000000180007ad0 f i RemoteOrderDisplay.obj
 0001:00006af0       ??0?$CComPtrBase@UIConnectionPointContainer@@@ATL@@IEAA@XZ 0000000180007af0 f i RemoteOrderDisplay.obj
 0001:00006b10       ??0?$CComPtrBase@UIDataObject@@@ATL@@IEAA@XZ 0000000180007b10 f i RemoteOrderDisplay.obj
 0001:00006b30       ??0?$CComPtrBase@UIDispatch@@@ATL@@IEAA@XZ 0000000180007b30 f i RemoteOrderDisplay.obj
 0001:00006b50       ??0?$CComPtrBase@UIOleClientSite@@@ATL@@IEAA@PEAUIOleClientSite@@@Z 0000000180007b50 f i RemoteOrderDisplay.obj
 0001:00006bb0       ??0?$CComPtrBase@UIOleControlSite@@@ATL@@IEAA@XZ 0000000180007bb0 f i RemoteOrderDisplay.obj
 0001:00006bd0       ??0?$CComPtrBase@UIOleInPlaceActiveObject@@@ATL@@IEAA@XZ 0000000180007bd0 f i RemoteOrderDisplay.obj
 0001:00006bf0       ??0?$CComPtrBase@UIOleInPlaceFrame@@@ATL@@IEAA@XZ 0000000180007bf0 f i RemoteOrderDisplay.obj
 0001:00006c10       ??0?$CComPtrBase@UIOleInPlaceObject@@@ATL@@IEAA@XZ 0000000180007c10 f i RemoteOrderDisplay.obj
 0001:00006c30       ??0?$CComPtrBase@UIOleInPlaceUIWindow@@@ATL@@IEAA@XZ 0000000180007c30 f i RemoteOrderDisplay.obj
 0001:00006c50       ??0?$CComPtrBase@UIOleObject@@@ATL@@IEAA@XZ 0000000180007c50 f i RemoteOrderDisplay.obj
 0001:00006c70       ??0?$CComPtrBase@UIPersistStream@@@ATL@@IEAA@XZ 0000000180007c70 f i RemoteOrderDisplay.obj
 0001:00006c90       ??0?$CComPtrBase@UIPersistStreamInit@@@ATL@@IEAA@XZ 0000000180007c90 f i RemoteOrderDisplay.obj
 0001:00006cb0       ??0?$CComPtrBase@UIPointerInactive@@@ATL@@IEAA@XZ 0000000180007cb0 f i RemoteOrderDisplay.obj
 0001:00006cd0       ??0?$CComPtrBase@UIProvideClassInfo2@@@ATL@@IEAA@XZ 0000000180007cd0 f i RemoteOrderDisplay.obj
 0001:00006cf0       ??0?$CComPtrBase@UISpecifyPropertyPages@@@ATL@@IEAA@XZ 0000000180007cf0 f i RemoteOrderDisplay.obj
 0001:00006d10       ??0?$CComPtrBase@UIStream@@@ATL@@IEAA@XZ 0000000180007d10 f i RemoteOrderDisplay.obj
 0001:00006d30       ??0?$CComPtrBase@UITypeInfo2@@@ATL@@IEAA@XZ 0000000180007d30 f i RemoteOrderDisplay.obj
 0001:00006d50       ??0?$CComPtrBase@UITypeInfo@@@ATL@@IEAA@PEAUITypeInfo@@@Z 0000000180007d50 f i RemoteOrderDisplay.obj
 0001:00006db0       ??0?$CComPtrBase@UITypeInfo@@@ATL@@IEAA@XZ 0000000180007db0 f i RemoteOrderDisplay.obj
 0001:00006dd0       ??0?$CComPtrBase@UITypeLib@@@ATL@@IEAA@XZ 0000000180007dd0 f i RemoteOrderDisplay.obj
 0001:00006df0       ??0?$CComPtrBase@UIUnknown@@@ATL@@IEAA@PEAUIUnknown@@@Z 0000000180007df0 f i RemoteOrderDisplay.obj
 0001:00006e50       ??0?$CComPtrBase@UIUnknown@@@ATL@@IEAA@XZ 0000000180007e50 f i RemoteOrderDisplay.obj
 0001:00006e70       ??0?$CComPtrBase@UIViewObjectEx@@@ATL@@IEAA@XZ 0000000180007e70 f i RemoteOrderDisplay.obj
 0001:00006e90       ??0?$CComQIPtr@UIOleControlSite@@$1?_GUID_b196b289_bab4_101a_b69c_00aa00341d07@@3U__s_GUID@@B@ATL@@QEAA@PEAUIUnknown@@@Z 0000000180007e90 f i RemoteOrderDisplay.obj
 0001:00006f00       ??0?$CComQIPtr@UIOleObject@@$1?_GUID_00000112_0000_0000_c000_000000000046@@3U__s_GUID@@B@ATL@@QEAA@XZ 0000000180007f00 f i RemoteOrderDisplay.obj
 0001:00006f40       ??0?$CComQIPtr@UISpecifyPropertyPages@@$1?_GUID_b196b28b_bab4_101a_b69c_00aa00341d07@@3U__s_GUID@@B@ATL@@QEAA@XZ 0000000180007f40 f i RemoteOrderDisplay.obj
 0001:00006f80       ??0?$CSimpleMap@PEA_WPEA_WVCExpansionVectorEqualHelper@ATL@@@ATL@@QEAA@XZ 0000000180007f80 f i RemoteOrderDisplay.obj
 0001:00006fc0       ??0?$CTempBuffer@E$0BAA@VCCRTAllocator@ATL@@@ATL@@QEAA@XZ 0000000180007fc0 f i RemoteOrderDisplay.obj
 0001:00006fe0       ??0?$CTempBuffer@_W$0BAA@VCCRTAllocator@ATL@@@ATL@@QEAA@XZ 0000000180007fe0 f i RemoteOrderDisplay.obj
 0001:00007000       ??0?$CTempBuffer@_W$0EAA@VCCRTAllocator@ATL@@@ATL@@QEAA@XZ 0000000180008000 f i RemoteOrderDisplay.obj
 0001:00007020       ??0?$Wrapper@PEA_W@?$CSimpleMap@PEA_WPEA_WVCExpansionVectorEqualHelper@ATL@@@ATL@@QEAA@AEBQEA_W@Z 0000000180008020 f i RemoteOrderDisplay.obj
 0001:00007050       ??0CAtlModule@ATL@@QEAA@XZ 0000000180008050 f i RemoteOrderDisplay.obj
 0001:000071c0       ??0CComAutoDeleteCriticalSection@ATL@@QEAA@XZ 00000001800081c0 f i RemoteOrderDisplay.obj
 0001:00007200       ??0CComBSTR@ATL@@QEAA@XZ   0000000180008200 f i RemoteOrderDisplay.obj
 0001:00007220       ??0CComClassFactory@ATL@@QEAA@XZ 0000000180008220 f i RemoteOrderDisplay.obj
 0001:00007280       ??0CComModule@ATL@@QEAA@XZ 0000000180008280 f i RemoteOrderDisplay.obj
 0001:00007320       ??0CComObjectRootBase@ATL@@QEAA@XZ 0000000180008320 f i RemoteOrderDisplay.obj
 0001:00007340       ??0CComSafeDeleteCriticalSection@ATL@@QEAA@XZ 0000000180008340 f i RemoteOrderDisplay.obj
 0001:00007380       ??0CComVariant@ATL@@QEAA@XZ 0000000180008380 f i RemoteOrderDisplay.obj
 0001:000073d0       ??0CExpansionVector@ATL@@QEAA@XZ 00000001800083d0 f i RemoteOrderDisplay.obj
 0001:00007410       ??0CParseBuffer@CRegParser@ATL@@QEAA@H@Z 0000000180008410 f i RemoteOrderDisplay.obj
 0001:000074a0       ??0CRegKey@ATL@@QEAA@PEAUHKEY__@@@Z 00000001800084a0 f i RemoteOrderDisplay.obj
 0001:000074e0       ??0CRegKey@ATL@@QEAA@PEAVCAtlTransactionManager@1@@Z 00000001800084e0 f i RemoteOrderDisplay.obj
 0001:00007520       ??0CRegObject@ATL@@QEAA@XZ 0000000180008520 f i RemoteOrderDisplay.obj
 0001:00007580       ??0CRegParser@ATL@@QEAA@PEAVCRegObject@1@@Z 0000000180008580 f i RemoteOrderDisplay.obj
 0001:000075b0       ??0IClassFactory@@QEAA@XZ  00000001800085b0 f i RemoteOrderDisplay.obj
 0001:000075f0       ??0IEnumConnectionPoints@@QEAA@XZ 00000001800085f0 f i RemoteOrderDisplay.obj
 0001:00007630       ??0IEnumConnections@@QEAA@XZ 0000000180008630 f i RemoteOrderDisplay.obj
 0001:00007670       ??0IRegistrarBase@@QEAA@XZ 0000000180008670 f i RemoteOrderDisplay.obj
 0001:000076b0       ??0IUnknown@@QEAA@XZ       00000001800086b0 f i RemoteOrderDisplay.obj
 0001:000076c0       ??0ModuleLockHelper@ATL@@QEAA@XZ 00000001800086c0 f i RemoteOrderDisplay.obj
 0001:00007700       ??0OposVariant@@QEAA@XZ    0000000180008700 f i RemoteOrderDisplay.obj
 0001:00007720       ??0Wrapper@?$CSimpleArray@GV?$CSimpleArrayEqualHelper@G@ATL@@@ATL@@QEAA@AEBG@Z 0000000180008720 f i RemoteOrderDisplay.obj
 0001:00007750       ??0_ATL_MODULE70@ATL@@QEAA@XZ 0000000180008750 f i RemoteOrderDisplay.obj
 0001:00007790       ??0_ATL_MSG@ATL@@QEAA@PEAUHWND__@@I_K_JH@Z 0000000180008790 f i RemoteOrderDisplay.obj
 0001:00007820       ??0_U_MENUorID@ATL@@QEAA@I@Z 0000000180008820 f i RemoteOrderDisplay.obj
 0001:00007840       ??0_U_RECT@ATL@@QEAA@AEAUtagRECT@@@Z 0000000180008840 f i RemoteOrderDisplay.obj
 0001:00007860       ??0stringdispid@CComTypeInfoHolder@ATL@@QEAA@XZ 0000000180008860 f i RemoteOrderDisplay.obj
 0001:000078b0       ??1?$CAtlModuleT@VCComModule@ATL@@@ATL@@UEAA@XZ 00000001800088b0 f i RemoteOrderDisplay.obj
 0001:000078e0       ??1?$CAtlSafeAllocBufferManager@VCCRTAllocator@ATL@@@_ATL_SAFE_ALLOCA_IMPL@ATL@@QEAA@XZ 00000001800088e0 f i RemoteOrderDisplay.obj
 0001:00007940       ??1?$CAutoVectorPtr@_W@ATL@@QEAA@XZ 0000000180008940 f i RemoteOrderDisplay.obj
 0001:00007970       ??1?$CComAggObject@VCOPOSRemoteOrderDisplay@@@ATL@@UEAA@XZ 0000000180008970 f i RemoteOrderDisplay.obj
 0001:000079f0       ??1?$CComContainedObject@VCOPOSRemoteOrderDisplay@@@ATL@@UEAA@XZ 00000001800089f0 f i RemoteOrderDisplay.obj
 0001:00007a20       ??1?$CComCritSecLock@VCComCriticalSection@ATL@@@ATL@@QEAA@XZ 0000000180008a20 f i RemoteOrderDisplay.obj
 0001:00007a60       ??1?$CComEnum@UIEnumConnectionPoints@@$1?_GUID_b196b285_bab4_101a_b69c_00aa00341d07@@3U__s_GUID@@BPEAUIConnectionPoint@@V?$_CopyInterface@UIConnectionPoint@@@ATL@@VCComSingleThreadModel@6@@ATL@@UEAA@XZ 0000000180008a60 f i RemoteOrderDisplay.obj
 0001:00007aa0       ??1?$CComEnum@UIEnumConnections@@$1?_GUID_b196b287_bab4_101a_b69c_00aa00341d07@@3U__s_GUID@@BUtagCONNECTDATA@@V?$_Copy@UtagCONNECTDATA@@@ATL@@VCComSingleThreadModel@6@@ATL@@UEAA@XZ 0000000180008aa0 f i RemoteOrderDisplay.obj
 0001:00007ae0       ??1?$CComEnumImpl@UIEnumConnectionPoints@@$1?_GUID_b196b285_bab4_101a_b69c_00aa00341d07@@3U__s_GUID@@BPEAUIConnectionPoint@@V?$_CopyInterface@UIConnectionPoint@@@ATL@@@ATL@@UEAA@XZ 0000000180008ae0 f i RemoteOrderDisplay.obj
 0001:00007b80       ??1?$CComEnumImpl@UIEnumConnections@@$1?_GUID_b196b287_bab4_101a_b69c_00aa00341d07@@3U__s_GUID@@BUtagCONNECTDATA@@V?$_Copy@UtagCONNECTDATA@@@ATL@@@ATL@@UEAA@XZ 0000000180008b80 f i RemoteOrderDisplay.obj
 0001:00007c20       ??1?$CComObject@V?$CComEnum@UIEnumConnectionPoints@@$1?_GUID_b196b285_bab4_101a_b69c_00aa00341d07@@3U__s_GUID@@BPEAUIConnectionPoint@@V?$_CopyInterface@UIConnectionPoint@@@ATL@@VCComSingleThreadModel@6@@ATL@@@ATL@@UEAA@XZ 0000000180008c20 f i RemoteOrderDisplay.obj
 0001:00007c90       ??1?$CComObject@V?$CComEnum@UIEnumConnections@@$1?_GUID_b196b287_bab4_101a_b69c_00aa00341d07@@3U__s_GUID@@BUtagCONNECTDATA@@V?$_Copy@UtagCONNECTDATA@@@ATL@@VCComSingleThreadModel@6@@ATL@@@ATL@@UEAA@XZ 0000000180008c90 f i RemoteOrderDisplay.obj
 0001:00007d00       ??1?$CComObject@VCOPOSRemoteOrderDisplay@@@ATL@@UEAA@XZ 0000000180008d00 f i RemoteOrderDisplay.obj
 0001:00007eb0       ??1?$CComObjectCached@VCComClassFactory@ATL@@@ATL@@UEAA@XZ 0000000180008eb0 f i RemoteOrderDisplay.obj
 0001:00007f10       ??1?$CComObjectRootEx@VCComMultiThreadModel@ATL@@@ATL@@QEAA@XZ 0000000180008f10 f i RemoteOrderDisplay.obj
 0001:00007f50       ??1?$CComObjectRootEx@VCComSingleThreadModel@ATL@@@ATL@@QEAA@XZ 0000000180008f50 f i RemoteOrderDisplay.obj
 0001:00007f80       ??1?$CComPtr@UIAdviseSink@@@ATL@@QEAA@XZ 0000000180008f80 f i RemoteOrderDisplay.obj
 0001:00007fb0       ??1?$CComPtr@UICatRegister@@@ATL@@QEAA@XZ 0000000180008fb0 f i RemoteOrderDisplay.obj
 0001:00007fe0       ??1?$CComPtr@UIConnectionPoint@@@ATL@@QEAA@XZ 0000000180008fe0 f i RemoteOrderDisplay.obj
 0001:00008010       ??1?$CComPtr@UIConnectionPointContainer@@@ATL@@QEAA@XZ 0000000180009010 f i RemoteOrderDisplay.obj
 0001:00008040       ??1?$CComPtr@UIDataObject@@@ATL@@QEAA@XZ 0000000180009040 f i RemoteOrderDisplay.obj
 0001:00008070       ??1?$CComPtr@UIDispatch@@@ATL@@QEAA@XZ 0000000180009070 f i RemoteOrderDisplay.obj
 0001:000080a0       ??1?$CComPtr@UIOleClientSite@@@ATL@@QEAA@XZ 00000001800090a0 f i RemoteOrderDisplay.obj
 0001:000080d0       ??1?$CComPtr@UIOleControlSite@@@ATL@@QEAA@XZ 00000001800090d0 f i RemoteOrderDisplay.obj
 0001:00008100       ??1?$CComPtr@UIOleInPlaceActiveObject@@@ATL@@QEAA@XZ 0000000180009100 f i RemoteOrderDisplay.obj
 0001:00008130       ??1?$CComPtr@UIOleInPlaceFrame@@@ATL@@QEAA@XZ 0000000180009130 f i RemoteOrderDisplay.obj
 0001:00008160       ??1?$CComPtr@UIOleInPlaceObject@@@ATL@@QEAA@XZ 0000000180009160 f i RemoteOrderDisplay.obj
 0001:00008190       ??1?$CComPtr@UIOleInPlaceUIWindow@@@ATL@@QEAA@XZ 0000000180009190 f i RemoteOrderDisplay.obj
 0001:000081c0       ??1?$CComPtr@UIOleObject@@@ATL@@QEAA@XZ 00000001800091c0 f i RemoteOrderDisplay.obj
 0001:000081f0       ??1?$CComPtr@UIPersistStream@@@ATL@@QEAA@XZ 00000001800091f0 f i RemoteOrderDisplay.obj
 0001:00008220       ??1?$CComPtr@UIPersistStreamInit@@@ATL@@QEAA@XZ 0000000180009220 f i RemoteOrderDisplay.obj
 0001:00008250       ??1?$CComPtr@UIPointerInactive@@@ATL@@QEAA@XZ 0000000180009250 f i RemoteOrderDisplay.obj
 0001:00008280       ??1?$CComPtr@UIProvideClassInfo2@@@ATL@@QEAA@XZ 0000000180009280 f i RemoteOrderDisplay.obj
 0001:000082b0       ??1?$CComPtr@UISpecifyPropertyPages@@@ATL@@QEAA@XZ 00000001800092b0 f i RemoteOrderDisplay.obj
 0001:000082e0       ??1?$CComPtr@UIStream@@@ATL@@QEAA@XZ 00000001800092e0 f i RemoteOrderDisplay.obj
 0001:00008310       ??1?$CComPtr@UITypeInfo2@@@ATL@@QEAA@XZ 0000000180009310 f i RemoteOrderDisplay.obj
 0001:00008340       ??1?$CComPtr@UITypeInfo@@@ATL@@QEAA@XZ 0000000180009340 f i RemoteOrderDisplay.obj
 0001:00008370       ??1?$CComPtr@UITypeLib@@@ATL@@QEAA@XZ 0000000180009370 f i RemoteOrderDisplay.obj
 0001:000083a0       ??1?$CComPtr@UIUnknown@@@ATL@@QEAA@XZ 00000001800093a0 f i RemoteOrderDisplay.obj
 0001:000083d0       ??1?$CComPtr@UIViewObjectEx@@@ATL@@QEAA@XZ 00000001800093d0 f i RemoteOrderDisplay.obj
 0001:00008400       ??1?$CComPtrBase@UIAdviseSink@@@ATL@@QEAA@XZ 0000000180009400 f i RemoteOrderDisplay.obj
 0001:00008450       ??1?$CComPtrBase@UICatRegister@@@ATL@@QEAA@XZ 0000000180009450 f i RemoteOrderDisplay.obj
 0001:000084a0       ??1?$CComPtrBase@UIConnectionPoint@@@ATL@@QEAA@XZ 00000001800094a0 f i RemoteOrderDisplay.obj
 0001:000084f0       ??1?$CComPtrBase@UIConnectionPointContainer@@@ATL@@QEAA@XZ 00000001800094f0 f i RemoteOrderDisplay.obj
 0001:00008540       ??1?$CComPtrBase@UIDataObject@@@ATL@@QEAA@XZ 0000000180009540 f i RemoteOrderDisplay.obj
 0001:00008590       ??1?$CComPtrBase@UIDispatch@@@ATL@@QEAA@XZ 0000000180009590 f i RemoteOrderDisplay.obj
 0001:000085e0       ??1?$CComPtrBase@UIOleClientSite@@@ATL@@QEAA@XZ 00000001800095e0 f i RemoteOrderDisplay.obj
 0001:00008630       ??1?$CComPtrBase@UIOleControlSite@@@ATL@@QEAA@XZ 0000000180009630 f i RemoteOrderDisplay.obj
 0001:00008680       ??1?$CComPtrBase@UIOleInPlaceActiveObject@@@ATL@@QEAA@XZ 0000000180009680 f i RemoteOrderDisplay.obj
 0001:000086d0       ??1?$CComPtrBase@UIOleInPlaceFrame@@@ATL@@QEAA@XZ 00000001800096d0 f i RemoteOrderDisplay.obj
 0001:00008720       ??1?$CComPtrBase@UIOleInPlaceObject@@@ATL@@QEAA@XZ 0000000180009720 f i RemoteOrderDisplay.obj
 0001:00008770       ??1?$CComPtrBase@UIOleInPlaceUIWindow@@@ATL@@QEAA@XZ 0000000180009770 f i RemoteOrderDisplay.obj
 0001:000087c0       ??1?$CComPtrBase@UIOleObject@@@ATL@@QEAA@XZ 00000001800097c0 f i RemoteOrderDisplay.obj
 0001:00008810       ??1?$CComPtrBase@UIPersistStream@@@ATL@@QEAA@XZ 0000000180009810 f i RemoteOrderDisplay.obj
 0001:00008860       ??1?$CComPtrBase@UIPersistStreamInit@@@ATL@@QEAA@XZ 0000000180009860 f i RemoteOrderDisplay.obj
 0001:000088b0       ??1?$CComPtrBase@UIPointerInactive@@@ATL@@QEAA@XZ 00000001800098b0 f i RemoteOrderDisplay.obj
 0001:00008900       ??1?$CComPtrBase@UIProvideClassInfo2@@@ATL@@QEAA@XZ 0000000180009900 f i RemoteOrderDisplay.obj
 0001:00008950       ??1?$CComPtrBase@UISpecifyPropertyPages@@@ATL@@QEAA@XZ 0000000180009950 f i RemoteOrderDisplay.obj
 0001:000089a0       ??1?$CComPtrBase@UIStream@@@ATL@@QEAA@XZ 00000001800099a0 f i RemoteOrderDisplay.obj
 0001:000089f0       ??1?$CComPtrBase@UITypeInfo2@@@ATL@@QEAA@XZ 00000001800099f0 f i RemoteOrderDisplay.obj
 0001:00008a40       ??1?$CComPtrBase@UITypeInfo@@@ATL@@QEAA@XZ 0000000180009a40 f i RemoteOrderDisplay.obj
 0001:00008a90       ??1?$CComPtrBase@UITypeLib@@@ATL@@QEAA@XZ 0000000180009a90 f i RemoteOrderDisplay.obj
 0001:00008ae0       ??1?$CComPtrBase@UIUnknown@@@ATL@@QEAA@XZ 0000000180009ae0 f i RemoteOrderDisplay.obj
 0001:00008b30       ??1?$CComPtrBase@UIViewObjectEx@@@ATL@@QEAA@XZ 0000000180009b30 f i RemoteOrderDisplay.obj
 0001:00008b80       ??1?$CComQIPtr@UIOleControlSite@@$1?_GUID_b196b289_bab4_101a_b69c_00aa00341d07@@3U__s_GUID@@B@ATL@@QEAA@XZ 0000000180009b80 f i RemoteOrderDisplay.obj
 0001:00008bb0       ??1?$CComQIPtr@UIOleObject@@$1?_GUID_00000112_0000_0000_c000_000000000046@@3U__s_GUID@@B@ATL@@QEAA@XZ 0000000180009bb0 f i RemoteOrderDisplay.obj
 0001:00008be0       ??1?$CComQIPtr@UISpecifyPropertyPages@@$1?_GUID_b196b28b_bab4_101a_b69c_00aa00341d07@@3U__s_GUID@@B@ATL@@QEAA@XZ 0000000180009be0 f i RemoteOrderDisplay.obj
 0001:00008c10       ??1?$CSimpleMap@PEA_WPEA_WVCExpansionVectorEqualHelper@ATL@@@ATL@@QEAA@XZ 0000000180009c10 f i RemoteOrderDisplay.obj
 0001:00008c40       ??1?$CTempBuffer@E$0BAA@VCCRTAllocator@ATL@@@ATL@@QEAA@XZ 0000000180009c40 f i RemoteOrderDisplay.obj
 0001:00008c90       ??1?$CTempBuffer@_W$0BAA@VCCRTAllocator@ATL@@@ATL@@QEAA@XZ 0000000180009c90 f i RemoteOrderDisplay.obj
 0001:00008ce0       ??1?$CTempBuffer@_W$0EAA@VCCRTAllocator@ATL@@@ATL@@QEAA@XZ 0000000180009ce0 f i RemoteOrderDisplay.obj
 0001:00008d30       ??1CAtlModule@ATL@@UEAA@XZ 0000000180009d30 f i RemoteOrderDisplay.obj
 0001:00008d70       ??1CComAutoDeleteCriticalSection@ATL@@QEAA@XZ 0000000180009d70 f i RemoteOrderDisplay.obj
 0001:00008da0       ??1CComClassFactory@ATL@@UEAA@XZ 0000000180009da0 f i RemoteOrderDisplay.obj
 0001:00008df0       ??1CComModule@ATL@@UEAA@XZ 0000000180009df0 f i RemoteOrderDisplay.obj
 0001:00008e30       ??1CComObjectRootBase@ATL@@QEAA@XZ 0000000180009e30 f i RemoteOrderDisplay.obj
 0001:00008e40       ??1CComSafeDeleteCriticalSection@ATL@@QEAA@XZ 0000000180009e40 f i RemoteOrderDisplay.obj
 0001:00008e90       ??1CComVariant@ATL@@QEAA@XZ 0000000180009e90 f i RemoteOrderDisplay.obj
 0001:00008f10       ??1CExpansionVector@ATL@@QEAA@XZ 0000000180009f10 f i RemoteOrderDisplay.obj
 0001:00008f50       ??1CParseBuffer@CRegParser@ATL@@QEAA@XZ 0000000180009f50 f i RemoteOrderDisplay.obj
 0001:00008f90       ??1CRegKey@ATL@@QEAA@XZ    0000000180009f90 f i RemoteOrderDisplay.obj
 0001:00008fc0       ??1CRegObject@ATL@@UEAA@XZ 0000000180009fc0 f i RemoteOrderDisplay.obj
 0001:00009010       ??1ModuleLockHelper@ATL@@QEAA@XZ 000000018000a010 f i RemoteOrderDisplay.obj
 0001:00009050       ??1OposVariant@@QEAA@XZ    000000018000a050 f i RemoteOrderDisplay.obj
 0001:00009090       ??1_ATL_MODULE70@ATL@@QEAA@XZ 000000018000a090 f i RemoteOrderDisplay.obj
 0001:000090d0       ??4?$CComPtr@UIAdviseSink@@@ATL@@QEAAPEAUIAdviseSink@@PEAU2@@Z 000000018000a0d0 f i RemoteOrderDisplay.obj
 0001:00009140       ??4?$CComPtr@UIOleClientSite@@@ATL@@QEAAPEAUIOleClientSite@@PEAU2@@Z 000000018000a140 f i RemoteOrderDisplay.obj
 0001:000091b0       ??4?$CComPtr@UIUnknown@@@ATL@@QEAAPEAUIUnknown@@PEAU2@@Z 000000018000a1b0 f i RemoteOrderDisplay.obj
 0001:00009220       ??4?$CComQIPtr@UIOleObject@@$1?_GUID_00000112_0000_0000_c000_000000000046@@3U__s_GUID@@B@ATL@@QEAAPEAUIOleObject@@PEAUIUnknown@@@Z 000000018000a220 f i RemoteOrderDisplay.obj
 0001:00009280       ??4?$CComQIPtr@UISpecifyPropertyPages@@$1?_GUID_b196b28b_bab4_101a_b69c_00aa00341d07@@3U__s_GUID@@B@ATL@@QEAAPEAUISpecifyPropertyPages@@PEAUIUnknown@@@Z 000000018000a280 f i RemoteOrderDisplay.obj
 0001:000092e0       ??7?$CComPtrBase@UIOleClientSite@@@ATL@@QEBA_NXZ 000000018000a2e0 f i RemoteOrderDisplay.obj
 0001:00009330       ??7?$CComPtrBase@UIOleInPlaceSiteWindowless@@@ATL@@QEBA_NXZ 000000018000a330 f i RemoteOrderDisplay.obj
 0001:00009380       ??7CComBSTR@ATL@@QEBA_NXZ  000000018000a380 f i RemoteOrderDisplay.obj
 0001:000093d0       ??8?$CComPtrBase@UIAdviseSink@@@ATL@@QEBA_NPEAUIAdviseSink@@@Z 000000018000a3d0 f i RemoteOrderDisplay.obj
 0001:00009420       ??8?$CComPtrBase@UIConnectionPointContainer@@@ATL@@QEBA_NPEAUIConnectionPointContainer@@@Z 000000018000a420 f i RemoteOrderDisplay.obj
 0001:00009470       ??8?$CComPtrBase@UIDataAdviseHolder@@@ATL@@QEBA_NPEAUIDataAdviseHolder@@@Z 000000018000a470 f i RemoteOrderDisplay.obj
 0001:000094c0       ??8?$CComPtrBase@UIOleAdviseHolder@@@ATL@@QEBA_NPEAUIOleAdviseHolder@@@Z 000000018000a4c0 f i RemoteOrderDisplay.obj
 0001:00009510       ??8?$CComPtrBase@UIOleClientSite@@@ATL@@QEBA_NPEAUIOleClientSite@@@Z 000000018000a510 f i RemoteOrderDisplay.obj
 0001:00009560       ??8?$CComPtrBase@UIOleControlSite@@@ATL@@QEBA_NPEAUIOleControlSite@@@Z 000000018000a560 f i RemoteOrderDisplay.obj
 0001:000095b0       ??8?$CComPtrBase@UIOleInPlaceObject@@@ATL@@QEBA_NPEAUIOleInPlaceObject@@@Z 000000018000a5b0 f i RemoteOrderDisplay.obj
 0001:00009600       ??8?$CComPtrBase@UIOleInPlaceSiteWindowless@@@ATL@@QEBA_NPEAUIOleInPlaceSiteWindowless@@@Z 000000018000a600 f i RemoteOrderDisplay.obj
 0001:00009650       ??8?$CComPtrBase@UIOleObject@@@ATL@@QEBA_NPEAUIOleObject@@@Z 000000018000a650 f i RemoteOrderDisplay.obj
 0001:000096a0       ??8?$CComPtrBase@UIPersistStream@@@ATL@@QEBA_NPEAUIPersistStream@@@Z 000000018000a6a0 f i RemoteOrderDisplay.obj
 0001:000096f0       ??8?$CComPtrBase@UIPersistStreamInit@@@ATL@@QEBA_NPEAUIPersistStreamInit@@@Z 000000018000a6f0 f i RemoteOrderDisplay.obj
 0001:00009740       ??8?$CComPtrBase@UIPointerInactive@@@ATL@@QEBA_NPEAUIPointerInactive@@@Z 000000018000a740 f i RemoteOrderDisplay.obj
 0001:00009790       ??8?$CComPtrBase@UIUnknown@@@ATL@@QEBA_NPEAUIUnknown@@@Z 000000018000a790 f i RemoteOrderDisplay.obj
 0001:000097e0       ??8?$CComPtrBase@UIViewObjectEx@@@ATL@@QEBA_NPEAUIViewObjectEx@@@Z 000000018000a7e0 f i RemoteOrderDisplay.obj
 0001:00009830       ??8CComBSTR@ATL@@QEBA_NH@Z 000000018000a830 f i RemoteOrderDisplay.obj
 0001:000098b0       ??9?$CComPtrBase@UIAdviseSink@@@ATL@@QEBA_NPEAUIAdviseSink@@@Z 000000018000a8b0 f i RemoteOrderDisplay.obj
 0001:00009910       ??9?$CComPtrBase@UIConnectionPointContainer@@@ATL@@QEBA_NPEAUIConnectionPointContainer@@@Z 000000018000a910 f i RemoteOrderDisplay.obj
 0001:00009970       ??9?$CComPtrBase@UIDataAdviseHolder@@@ATL@@QEBA_NPEAUIDataAdviseHolder@@@Z 000000018000a970 f i RemoteOrderDisplay.obj
 0001:000099d0       ??9?$CComPtrBase@UIOleAdviseHolder@@@ATL@@QEBA_NPEAUIOleAdviseHolder@@@Z 000000018000a9d0 f i RemoteOrderDisplay.obj
 0001:00009a30       ??9?$CComPtrBase@UIOleClientSite@@@ATL@@QEBA_NPEAUIOleClientSite@@@Z 000000018000aa30 f i RemoteOrderDisplay.obj
 0001:00009a90       ??9?$CComPtrBase@UIOleControlSite@@@ATL@@QEBA_NPEAUIOleControlSite@@@Z 000000018000aa90 f i RemoteOrderDisplay.obj
 0001:00009af0       ??9?$CComPtrBase@UIOleInPlaceObject@@@ATL@@QEBA_NPEAUIOleInPlaceObject@@@Z 000000018000aaf0 f i RemoteOrderDisplay.obj
 0001:00009b50       ??9?$CComPtrBase@UIOleInPlaceSiteWindowless@@@ATL@@QEBA_NPEAUIOleInPlaceSiteWindowless@@@Z 000000018000ab50 f i RemoteOrderDisplay.obj
 0001:00009bb0       ??9?$CComPtrBase@UIOleObject@@@ATL@@QEBA_NPEAUIOleObject@@@Z 000000018000abb0 f i RemoteOrderDisplay.obj
 0001:00009c10       ??9?$CComPtrBase@UIPersistStream@@@ATL@@QEBA_NPEAUIPersistStream@@@Z 000000018000ac10 f i RemoteOrderDisplay.obj
 0001:00009c70       ??9?$CComPtrBase@UIPersistStreamInit@@@ATL@@QEBA_NPEAUIPersistStreamInit@@@Z 000000018000ac70 f i RemoteOrderDisplay.obj
 0001:00009cd0       ??9?$CComPtrBase@UIPointerInactive@@@ATL@@QEBA_NPEAUIPointerInactive@@@Z 000000018000acd0 f i RemoteOrderDisplay.obj
 0001:00009d30       ??9?$CComPtrBase@UIUnknown@@@ATL@@QEBA_NPEAUIUnknown@@@Z 000000018000ad30 f i RemoteOrderDisplay.obj
 0001:00009d90       ??9?$CComPtrBase@UIViewObjectEx@@@ATL@@QEBA_NPEAUIViewObjectEx@@@Z 000000018000ad90 f i RemoteOrderDisplay.obj
 0001:00009df0       ??9CComBSTR@ATL@@QEBA_NH@Z 000000018000adf0 f i RemoteOrderDisplay.obj
 0001:00009e50       ??B?$CComPtrBase@UIAdviseSink@@@ATL@@QEBAPEAUIAdviseSink@@XZ 000000018000ae50 f i RemoteOrderDisplay.obj
 0001:00009e60       ??B?$CComPtrBase@UIDataAdviseHolder@@@ATL@@QEBAPEAUIDataAdviseHolder@@XZ 000000018000ae60 f i RemoteOrderDisplay.obj
 0001:00009e70       ??B?$CComPtrBase@UIDataObject@@@ATL@@QEBAPEAUIDataObject@@XZ 000000018000ae70 f i RemoteOrderDisplay.obj
 0001:00009e80       ??B?$CComPtrBase@UIOleAdviseHolder@@@ATL@@QEBAPEAUIOleAdviseHolder@@XZ 000000018000ae80 f i RemoteOrderDisplay.obj
 0001:00009e90       ??B?$CComPtrBase@UIOleClientSite@@@ATL@@QEBAPEAUIOleClientSite@@XZ 000000018000ae90 f i RemoteOrderDisplay.obj
 0001:00009ea0       ??B?$CComPtrBase@UIOleControlSite@@@ATL@@QEBAPEAUIOleControlSite@@XZ 000000018000aea0 f i RemoteOrderDisplay.obj
 0001:00009eb0       ??B?$CComPtrBase@UIOleInPlaceActiveObject@@@ATL@@QEBAPEAUIOleInPlaceActiveObject@@XZ 000000018000aeb0 f i RemoteOrderDisplay.obj
 0001:00009ec0       ??B?$CComPtrBase@UIOleInPlaceFrame@@@ATL@@QEBAPEAUIOleInPlaceFrame@@XZ 000000018000aec0 f i RemoteOrderDisplay.obj
 0001:00009ed0       ??B?$CComPtrBase@UIOleInPlaceSiteWindowless@@@ATL@@QEBAPEAUIOleInPlaceSiteWindowless@@XZ 000000018000aed0 f i RemoteOrderDisplay.obj
 0001:00009ee0       ??B?$CComPtrBase@UIOleInPlaceUIWindow@@@ATL@@QEBAPEAUIOleInPlaceUIWindow@@XZ 000000018000aee0 f i RemoteOrderDisplay.obj
 0001:00009ef0       ??B?$CComPtrBase@UIOleObject@@@ATL@@QEBAPEAUIOleObject@@XZ 000000018000aef0 f i RemoteOrderDisplay.obj
 0001:00009f00       ??B?$CComPtrBase@UIPersistStream@@@ATL@@QEBAPEAUIPersistStream@@XZ 000000018000af00 f i RemoteOrderDisplay.obj
 0001:00009f10       ??B?$CComPtrBase@UIProvideClassInfo2@@@ATL@@QEBAPEAUIProvideClassInfo2@@XZ 000000018000af10 f i RemoteOrderDisplay.obj
 0001:00009f20       ??B?$CComPtrBase@UISpecifyPropertyPages@@@ATL@@QEBAPEAUISpecifyPropertyPages@@XZ 000000018000af20 f i RemoteOrderDisplay.obj
 0001:00009f30       ??B?$CComPtrBase@UIStream@@@ATL@@QEBAPEAUIStream@@XZ 000000018000af30 f i RemoteOrderDisplay.obj
 0001:00009f40       ??B?$CComPtrBase@UITypeInfo2@@@ATL@@QEBAPEAUITypeInfo2@@XZ 000000018000af40 f i RemoteOrderDisplay.obj
 0001:00009f50       ??B?$CComPtrBase@UITypeInfo@@@ATL@@QEBAPEAUITypeInfo@@XZ 000000018000af50 f i RemoteOrderDisplay.obj
 0001:00009f60       ??B?$CComPtrBase@UITypeLib@@@ATL@@QEBAPEAUITypeLib@@XZ 000000018000af60 f i RemoteOrderDisplay.obj
 0001:00009f70       ??B?$CComPtrBase@UIUnknown@@@ATL@@QEBAPEAUIUnknown@@XZ 000000018000af70 f i RemoteOrderDisplay.obj
 0001:00009f80       ??B?$CTempBuffer@E$0BAA@VCCRTAllocator@ATL@@@ATL@@QEBAPEAEXZ 000000018000af80 f i RemoteOrderDisplay.obj
 0001:00009f90       ??B?$CTempBuffer@_W$0BAA@VCCRTAllocator@ATL@@@ATL@@QEBAPEA_WXZ 000000018000af90 f i RemoteOrderDisplay.obj
 0001:00009fa0       ??B?$CTempBuffer@_W$0EAA@VCCRTAllocator@ATL@@@ATL@@QEBAPEA_WXZ 000000018000afa0 f i RemoteOrderDisplay.obj
 0001:00009fb0       ??B?$CTraceCategoryEx@$00$0A@@ATL@@QEAAIXZ 000000018000afb0 f i RemoteOrderDisplay.obj
 0001:00009fc0       ??B?$CTraceCategoryEx@$07$0A@@ATL@@QEAAIXZ 000000018000afc0 f i RemoteOrderDisplay.obj
 0001:00009fd0       ??B?$CTraceCategoryEx@$0CAAA@$0A@@ATL@@QEAAIXZ 000000018000afd0 f i RemoteOrderDisplay.obj
 0001:00009fe0       ??B?$CTraceCategoryEx@$0EA@$0A@@ATL@@QEAAIXZ 000000018000afe0 f i RemoteOrderDisplay.obj
 0001:00009ff0       ??B?$CTraceCategoryEx@$0IAA@$0A@@ATL@@QEAAIXZ 000000018000aff0 f i RemoteOrderDisplay.obj
 0001:0000a000       ??BCComBSTR@ATL@@QEBAPEA_WXZ 000000018000b000 f i RemoteOrderDisplay.obj
 0001:0000a010       ??BCRegKey@ATL@@QEBAPEAUHKEY__@@XZ 000000018000b010 f i RemoteOrderDisplay.obj
 0001:0000a020       ??C?$CComPtrBase@UIAdviseSink@@@ATL@@QEBAPEAV?$_NoAddRefReleaseOnCComPtr@UIAdviseSink@@@1@XZ 000000018000b020 f i RemoteOrderDisplay.obj
 0001:0000a0a0       ??C?$CComPtrBase@UICatRegister@@@ATL@@QEBAPEAV?$_NoAddRefReleaseOnCComPtr@UICatRegister@@@1@XZ 000000018000b0a0 f i RemoteOrderDisplay.obj
 0001:0000a120       ??C?$CComPtrBase@UIConnectionPoint@@@ATL@@QEBAPEAV?$_NoAddRefReleaseOnCComPtr@UIConnectionPoint@@@1@XZ 000000018000b120 f i RemoteOrderDisplay.obj
 0001:0000a1a0       ??C?$CComPtrBase@UIConnectionPointContainer@@@ATL@@QEBAPEAV?$_NoAddRefReleaseOnCComPtr@UIConnectionPointContainer@@@1@XZ 000000018000b1a0 f i RemoteOrderDisplay.obj
 0001:0000a220       ??C?$CComPtrBase@UIDataAdviseHolder@@@ATL@@QEBAPEAV?$_NoAddRefReleaseOnCComPtr@UIDataAdviseHolder@@@1@XZ 000000018000b220 f i RemoteOrderDisplay.obj
 0001:0000a2a0       ??C?$CComPtrBase@UIOleAdviseHolder@@@ATL@@QEBAPEAV?$_NoAddRefReleaseOnCComPtr@UIOleAdviseHolder@@@1@XZ 000000018000b2a0 f i RemoteOrderDisplay.obj
 0001:0000a320       ??C?$CComPtrBase@UIOleClientSite@@@ATL@@QEBAPEAV?$_NoAddRefReleaseOnCComPtr@UIOleClientSite@@@1@XZ 000000018000b320 f i RemoteOrderDisplay.obj
 0001:0000a3a0       ??C?$CComPtrBase@UIOleControlSite@@@ATL@@QEBAPEAV?$_NoAddRefReleaseOnCComPtr@UIOleControlSite@@@1@XZ 000000018000b3a0 f i RemoteOrderDisplay.obj
 0001:0000a420       ??C?$CComPtrBase@UIOleInPlaceFrame@@@ATL@@QEBAPEAV?$_NoAddRefReleaseOnCComPtr@UIOleInPlaceFrame@@@1@XZ 000000018000b420 f i RemoteOrderDisplay.obj
 0001:0000a4a0       ??C?$CComPtrBase@UIOleInPlaceObject@@@ATL@@QEBAPEAV?$_NoAddRefReleaseOnCComPtr@UIOleInPlaceObject@@@1@XZ 000000018000b4a0 f i RemoteOrderDisplay.obj
 0001:0000a520       ??C?$CComPtrBase@UIOleInPlaceSiteWindowless@@@ATL@@QEBAPEAV?$_NoAddRefReleaseOnCComPtr@UIOleInPlaceSiteWindowless@@@1@XZ 000000018000b520 f i RemoteOrderDisplay.obj
 0001:0000a5a0       ??C?$CComPtrBase@UIOleInPlaceUIWindow@@@ATL@@QEBAPEAV?$_NoAddRefReleaseOnCComPtr@UIOleInPlaceUIWindow@@@1@XZ 000000018000b5a0 f i RemoteOrderDisplay.obj
 0001:0000a620       ??C?$CComPtrBase@UIOleObject@@@ATL@@QEBAPEAV?$_NoAddRefReleaseOnCComPtr@UIOleObject@@@1@XZ 000000018000b620 f i RemoteOrderDisplay.obj
 0001:0000a6a0       ??C?$CComPtrBase@UIPersistStream@@@ATL@@QEBAPEAV?$_NoAddRefReleaseOnCComPtr@UIPersistStream@@@1@XZ 000000018000b6a0 f i RemoteOrderDisplay.obj
 0001:0000a720       ??C?$CComPtrBase@UIPersistStreamInit@@@ATL@@QEBAPEAV?$_NoAddRefReleaseOnCComPtr@UIPersistStreamInit@@@1@XZ 000000018000b720 f i RemoteOrderDisplay.obj
 0001:0000a7a0       ??C?$CComPtrBase@UIPointerInactive@@@ATL@@QEBAPEAV?$_NoAddRefReleaseOnCComPtr@UIPointerInactive@@@1@XZ 000000018000b7a0 f i RemoteOrderDisplay.obj
 0001:0000a820       ??C?$CComPtrBase@UIProvideClassInfo2@@@ATL@@QEBAPEAV?$_NoAddRefReleaseOnCComPtr@UIProvideClassInfo2@@@1@XZ 000000018000b820 f i RemoteOrderDisplay.obj
 0001:0000a8a0       ??C?$CComPtrBase@UISpecifyPropertyPages@@@ATL@@QEBAPEAV?$_NoAddRefReleaseOnCComPtr@UISpecifyPropertyPages@@@1@XZ 000000018000b8a0 f i RemoteOrderDisplay.obj
 0001:0000a920       ??C?$CComPtrBase@UITypeInfo@@@ATL@@QEBAPEAV?$_NoAddRefReleaseOnCComPtr@UITypeInfo@@@1@XZ 000000018000b920 f i RemoteOrderDisplay.obj
 0001:0000a9a0       ??C?$CComPtrBase@UITypeLib@@@ATL@@QEBAPEAV?$_NoAddRefReleaseOnCComPtr@UITypeLib@@@1@XZ 000000018000b9a0 f i RemoteOrderDisplay.obj
 0001:0000aa20       ??C?$CComPtrBase@UIUnknown@@@ATL@@QEBAPEAV?$_NoAddRefReleaseOnCComPtr@UIUnknown@@@1@XZ 000000018000ba20 f i RemoteOrderDisplay.obj
 0001:0000aaa0       ??C?$CComPtrBase@UIViewObjectEx@@@ATL@@QEBAPEAV?$_NoAddRefReleaseOnCComPtr@UIViewObjectEx@@@1@XZ 000000018000baa0 f i RemoteOrderDisplay.obj
 0001:0000ab20       ??I?$CComPtrBase@UICatRegister@@@ATL@@QEAAPEAPEAUICatRegister@@XZ 000000018000bb20 f i RemoteOrderDisplay.obj
 0001:0000ab90       ??I?$CComPtrBase@UIConnectionPoint@@@ATL@@QEAAPEAPEAUIConnectionPoint@@XZ 000000018000bb90 f i RemoteOrderDisplay.obj
 0001:0000ac00       ??I?$CComPtrBase@UIConnectionPointContainer@@@ATL@@QEAAPEAPEAUIConnectionPointContainer@@XZ 000000018000bc00 f i RemoteOrderDisplay.obj
 0001:0000ac70       ??I?$CComPtrBase@UIDataAdviseHolder@@@ATL@@QEAAPEAPEAUIDataAdviseHolder@@XZ 000000018000bc70 f i RemoteOrderDisplay.obj
 0001:0000ace0       ??I?$CComPtrBase@UIDataObject@@@ATL@@QEAAPEAPEAUIDataObject@@XZ 000000018000bce0 f i RemoteOrderDisplay.obj
 0001:0000ad50       ??I?$CComPtrBase@UIDispatch@@@ATL@@QEAAPEAPEAUIDispatch@@XZ 000000018000bd50 f i RemoteOrderDisplay.obj
 0001:0000adc0       ??I?$CComPtrBase@UIOleAdviseHolder@@@ATL@@QEAAPEAPEAUIOleAdviseHolder@@XZ 000000018000bdc0 f i RemoteOrderDisplay.obj
 0001:0000ae30       ??I?$CComPtrBase@UIOleControlSite@@@ATL@@QEAAPEAPEAUIOleControlSite@@XZ 000000018000be30 f i RemoteOrderDisplay.obj
 0001:0000aea0       ??I?$CComPtrBase@UIOleInPlaceActiveObject@@@ATL@@QEAAPEAPEAUIOleInPlaceActiveObject@@XZ 000000018000bea0 f i RemoteOrderDisplay.obj
 0001:0000af10       ??I?$CComPtrBase@UIOleInPlaceFrame@@@ATL@@QEAAPEAPEAUIOleInPlaceFrame@@XZ 000000018000bf10 f i RemoteOrderDisplay.obj
 0001:0000af80       ??I?$CComPtrBase@UIOleInPlaceObject@@@ATL@@QEAAPEAPEAUIOleInPlaceObject@@XZ 000000018000bf80 f i RemoteOrderDisplay.obj
 0001:0000aff0       ??I?$CComPtrBase@UIOleInPlaceSiteWindowless@@@ATL@@QEAAPEAPEAUIOleInPlaceSiteWindowless@@XZ 000000018000bff0 f i RemoteOrderDisplay.obj
 0001:0000b060       ??I?$CComPtrBase@UIOleInPlaceUIWindow@@@ATL@@QEAAPEAPEAUIOleInPlaceUIWindow@@XZ 000000018000c060 f i RemoteOrderDisplay.obj
 0001:0000b0d0       ??I?$CComPtrBase@UIOleObject@@@ATL@@QEAAPEAPEAUIOleObject@@XZ 000000018000c0d0 f i RemoteOrderDisplay.obj
 0001:0000b140       ??I?$CComPtrBase@UIPersistStream@@@ATL@@QEAAPEAPEAUIPersistStream@@XZ 000000018000c140 f i RemoteOrderDisplay.obj
 0001:0000b1b0       ??I?$CComPtrBase@UIPointerInactive@@@ATL@@QEAAPEAPEAUIPointerInactive@@XZ 000000018000c1b0 f i RemoteOrderDisplay.obj
 0001:0000b220       ??I?$CComPtrBase@UIProvideClassInfo2@@@ATL@@QEAAPEAPEAUIProvideClassInfo2@@XZ 000000018000c220 f i RemoteOrderDisplay.obj
 0001:0000b290       ??I?$CComPtrBase@UIStream@@@ATL@@QEAAPEAPEAUIStream@@XZ 000000018000c290 f i RemoteOrderDisplay.obj
 0001:0000b300       ??I?$CComPtrBase@UITypeInfo2@@@ATL@@QEAAPEAPEAUITypeInfo2@@XZ 000000018000c300 f i RemoteOrderDisplay.obj
 0001:0000b370       ??I?$CComPtrBase@UITypeInfo@@@ATL@@QEAAPEAPEAUITypeInfo@@XZ 000000018000c370 f i RemoteOrderDisplay.obj
 0001:0000b3e0       ??I?$CComPtrBase@UITypeLib@@@ATL@@QEAAPEAPEAUITypeLib@@XZ 000000018000c3e0 f i RemoteOrderDisplay.obj
 0001:0000b450       ??I?$CComPtrBase@UIUnknown@@@ATL@@QEAAPEAPEAUIUnknown@@XZ 000000018000c450 f i RemoteOrderDisplay.obj
 0001:0000b4c0       ??I?$CComPtrBase@UIViewObjectEx@@@ATL@@QEAAPEAPEAUIViewObjectEx@@XZ 000000018000c4c0 f i RemoteOrderDisplay.obj
 0001:0000b530       ??ICComBSTR@ATL@@QEAAPEAPEA_WXZ 000000018000c530 f i RemoteOrderDisplay.obj
 0001:0000b540       ??_E?$CComContainedObject@VCOPOSRemoteOrderDisplay@@@ATL@@W7EAAPEAXI@Z 000000018000c540 f i RemoteOrderDisplay.obj
 0001:0000b54c       ??_E?$CComContainedObject@VCOPOSRemoteOrderDisplay@@@ATL@@WHA@EAAPEAXI@Z 000000018000c54c f i RemoteOrderDisplay.obj
 0001:0000b558       ??_E?$CComObject@VCOPOSRemoteOrderDisplay@@@ATL@@W7EAAPEAXI@Z 000000018000c558 f i RemoteOrderDisplay.obj
 0001:0000b564       ??_E?$CComObject@VCOPOSRemoteOrderDisplay@@@ATL@@WHA@EAAPEAXI@Z 000000018000c564 f i RemoteOrderDisplay.obj
 0001:0000b570       ??_G?$CComAggObject@VCOPOSRemoteOrderDisplay@@@ATL@@UEAAPEAXI@Z 000000018000c570 f i RemoteOrderDisplay.obj
 0001:0000b570       ??_E?$CComAggObject@VCOPOSRemoteOrderDisplay@@@ATL@@UEAAPEAXI@Z 000000018000c570 f i RemoteOrderDisplay.obj
 0001:0000b5d0       ??_E?$CComContainedObject@VCOPOSRemoteOrderDisplay@@@ATL@@UEAAPEAXI@Z 000000018000c5d0 f i RemoteOrderDisplay.obj
 0001:0000b5d0       ??_G?$CComContainedObject@VCOPOSRemoteOrderDisplay@@@ATL@@UEAAPEAXI@Z 000000018000c5d0 f i RemoteOrderDisplay.obj
 0001:0000b630       ??_G?$CComObject@V?$CComEnum@UIEnumConnectionPoints@@$1?_GUID_b196b285_bab4_101a_b69c_00aa00341d07@@3U__s_GUID@@BPEAUIConnectionPoint@@V?$_CopyInterface@UIConnectionPoint@@@ATL@@VCComSingleThreadModel@6@@ATL@@@ATL@@UEAAPEAXI@Z 000000018000c630 f i RemoteOrderDisplay.obj
 0001:0000b630       ??_E?$CComObject@V?$CComEnum@UIEnumConnectionPoints@@$1?_GUID_b196b285_bab4_101a_b69c_00aa00341d07@@3U__s_GUID@@BPEAUIConnectionPoint@@V?$_CopyInterface@UIConnectionPoint@@@ATL@@VCComSingleThreadModel@6@@ATL@@@ATL@@UEAAPEAXI@Z 000000018000c630 f i RemoteOrderDisplay.obj
 0001:0000b690       ??_G?$CComObject@V?$CComEnum@UIEnumConnections@@$1?_GUID_b196b287_bab4_101a_b69c_00aa00341d07@@3U__s_GUID@@BUtagCONNECTDATA@@V?$_Copy@UtagCONNECTDATA@@@ATL@@VCComSingleThreadModel@6@@ATL@@@ATL@@UEAAPEAXI@Z 000000018000c690 f i RemoteOrderDisplay.obj
 0001:0000b690       ??_E?$CComObject@V?$CComEnum@UIEnumConnections@@$1?_GUID_b196b287_bab4_101a_b69c_00aa00341d07@@3U__s_GUID@@BUtagCONNECTDATA@@V?$_Copy@UtagCONNECTDATA@@@ATL@@VCComSingleThreadModel@6@@ATL@@@ATL@@UEAAPEAXI@Z 000000018000c690 f i RemoteOrderDisplay.obj
 0001:0000b6f0       ??_E?$CComObject@VCOPOSRemoteOrderDisplay@@@ATL@@UEAAPEAXI@Z 000000018000c6f0 f i RemoteOrderDisplay.obj
 0001:0000b6f0       ??_G?$CComObject@VCOPOSRemoteOrderDisplay@@@ATL@@UEAAPEAXI@Z 000000018000c6f0 f i RemoteOrderDisplay.obj
 0001:0000b750       ??_G?$CComObjectCached@VCComClassFactory@ATL@@@ATL@@UEAAPEAXI@Z 000000018000c750 f i RemoteOrderDisplay.obj
 0001:0000b750       ??_E?$CComObjectCached@VCComClassFactory@ATL@@@ATL@@UEAAPEAXI@Z 000000018000c750 f i RemoteOrderDisplay.obj
 0001:0000b7b0       ??_GCComClassFactory@ATL@@UEAAPEAXI@Z 000000018000c7b0 f i RemoteOrderDisplay.obj
 0001:0000b7b0       ??_ECComClassFactory@ATL@@UEAAPEAXI@Z 000000018000c7b0 f i RemoteOrderDisplay.obj
 0001:0000b810       ??_GCComModule@ATL@@UEAAPEAXI@Z 000000018000c810 f i RemoteOrderDisplay.obj
 0001:0000b810       ??_ECComModule@ATL@@UEAAPEAXI@Z 000000018000c810 f i RemoteOrderDisplay.obj
 0001:0000b870       ??_ECRegObject@ATL@@UEAAPEAXI@Z 000000018000c870 f i RemoteOrderDisplay.obj
 0001:0000b870       ??_GCRegObject@ATL@@UEAAPEAXI@Z 000000018000c870 f i RemoteOrderDisplay.obj
 0001:0000b8d0       ?Add@?$CSimpleArray@GV?$CSimpleArrayEqualHelper@G@ATL@@@ATL@@QEAAHAEBG@Z 000000018000c8d0 f i RemoteOrderDisplay.obj
 0001:0000ba70       ?Add@?$CSimpleMap@PEA_WPEA_WVCExpansionVectorEqualHelper@ATL@@@ATL@@QEAAHAEBQEA_W0@Z 000000018000ca70 f i RemoteOrderDisplay.obj
 0001:0000bb60       ?Add@CComDynamicUnkArray@ATL@@QEAAKPEAUIUnknown@@@Z 000000018000cb60 f i RemoteOrderDisplay.obj
 0001:0000bd40       ?Add@CExpansionVector@ATL@@QEAAHPEB_W0@Z 000000018000cd40 f i RemoteOrderDisplay.obj
 0001:0000c070       ?AddChar@CParseBuffer@CRegParser@ATL@@QEAAHPEB_W@Z 000000018000d070 f i RemoteOrderDisplay.obj
 0001:0000c0c0       ?AddCommonRGSReplacements@?$CAtlModuleT@VCComModule@ATL@@@ATL@@UEAAJPEAUIRegistrarBase@@@Z 000000018000d0c0 f i RemoteOrderDisplay.obj
 0001:0000c120       ?AddCreateWndData@CAtlWinModule@ATL@@QEAAXPEAU_AtlCreateWndData@2@PEAX@Z 000000018000d120 f i RemoteOrderDisplay.obj
 0001:0000c170       ?AddRef@?$CComAggObject@VCOPOSRemoteOrderDisplay@@@ATL@@UEAAKXZ 000000018000d170 f i RemoteOrderDisplay.obj
 0001:0000c1b0       ?AddRef@?$CComContainedObject@VCOPOSRemoteOrderDisplay@@@ATL@@UEAAKXZ 000000018000d1b0 f i RemoteOrderDisplay.obj
 0001:0000c1e8       ?AddRef@?$CComContainedObject@VCOPOSRemoteOrderDisplay@@@ATL@@WBAA@EAAKXZ 000000018000d1e8 f i RemoteOrderDisplay.obj
 0001:0000c1f4       ?AddRef@?$CComContainedObject@VCOPOSRemoteOrderDisplay@@@ATL@@WBAI@EAAKXZ 000000018000d1f4 f i RemoteOrderDisplay.obj
 0001:0000c200       ?AddRef@?$CComContainedObject@VCOPOSRemoteOrderDisplay@@@ATL@@WBBA@EAAKXZ 000000018000d200 f i RemoteOrderDisplay.obj
 0001:0000c20c       ?AddRef@?$CComContainedObject@VCOPOSRemoteOrderDisplay@@@ATL@@WBBI@EAAKXZ 000000018000d20c f i RemoteOrderDisplay.obj
 0001:0000c218       ?AddRef@?$CComContainedObject@VCOPOSRemoteOrderDisplay@@@ATL@@WBCI@EAAKXZ 000000018000d218 f i RemoteOrderDisplay.obj
 0001:0000c224       ?AddRef@?$CComContainedObject@VCOPOSRemoteOrderDisplay@@@ATL@@WBEA@EAAKXZ 000000018000d224 f i RemoteOrderDisplay.obj
 0001:0000c230       ?AddRef@?$CComContainedObject@VCOPOSRemoteOrderDisplay@@@ATL@@WLI@EAAKXZ 000000018000d230 f i RemoteOrderDisplay.obj
 0001:0000c23c       ?AddRef@?$CComContainedObject@VCOPOSRemoteOrderDisplay@@@ATL@@WMA@EAAKXZ 000000018000d23c f i RemoteOrderDisplay.obj
 0001:0000c248       ?AddRef@?$CComContainedObject@VCOPOSRemoteOrderDisplay@@@ATL@@WMI@EAAKXZ 000000018000d248 f i RemoteOrderDisplay.obj
 0001:0000c254       ?AddRef@?$CComContainedObject@VCOPOSRemoteOrderDisplay@@@ATL@@WNA@EAAKXZ 000000018000d254 f i RemoteOrderDisplay.obj
 0001:0000c260       ?AddRef@?$CComContainedObject@VCOPOSRemoteOrderDisplay@@@ATL@@WNI@EAAKXZ 000000018000d260 f i RemoteOrderDisplay.obj
 0001:0000c26c       ?AddRef@?$CComContainedObject@VCOPOSRemoteOrderDisplay@@@ATL@@WOA@EAAKXZ 000000018000d26c f i RemoteOrderDisplay.obj
 0001:0000c278       ?AddRef@?$CComContainedObject@VCOPOSRemoteOrderDisplay@@@ATL@@WOI@EAAKXZ 000000018000d278 f i RemoteOrderDisplay.obj
 0001:0000c284       ?AddRef@?$CComContainedObject@VCOPOSRemoteOrderDisplay@@@ATL@@WPA@EAAKXZ 000000018000d284 f i RemoteOrderDisplay.obj
 0001:0000c290       ?AddRef@?$CComContainedObject@VCOPOSRemoteOrderDisplay@@@ATL@@WPI@EAAKXZ 000000018000d290 f i RemoteOrderDisplay.obj
 0001:0000c2a0       ?AddRef@?$CComObject@V?$CComEnum@UIEnumConnectionPoints@@$1?_GUID_b196b285_bab4_101a_b69c_00aa00341d07@@3U__s_GUID@@BPEAUIConnectionPoint@@V?$_CopyInterface@UIConnectionPoint@@@ATL@@VCComSingleThreadModel@6@@ATL@@@ATL@@UEAAKXZ 000000018000d2a0 f i RemoteOrderDisplay.obj
 0001:0000c2e0       ?AddRef@?$CComObject@V?$CComEnum@UIEnumConnections@@$1?_GUID_b196b287_bab4_101a_b69c_00aa00341d07@@3U__s_GUID@@BUtagCONNECTDATA@@V?$_Copy@UtagCONNECTDATA@@@ATL@@VCComSingleThreadModel@6@@ATL@@@ATL@@UEAAKXZ 000000018000d2e0 f i RemoteOrderDisplay.obj
 0001:0000c320       ?AddRef@?$CComObject@VCOPOSRemoteOrderDisplay@@@ATL@@UEAAKXZ 000000018000d320 f i RemoteOrderDisplay.obj
 0001:0000c358       ?AddRef@?$CComObject@VCOPOSRemoteOrderDisplay@@@ATL@@WBAA@EAAKXZ 000000018000d358 f i RemoteOrderDisplay.obj
 0001:0000c364       ?AddRef@?$CComObject@VCOPOSRemoteOrderDisplay@@@ATL@@WBAI@EAAKXZ 000000018000d364 f i RemoteOrderDisplay.obj
 0001:0000c370       ?AddRef@?$CComObject@VCOPOSRemoteOrderDisplay@@@ATL@@WBBA@EAAKXZ 000000018000d370 f i RemoteOrderDisplay.obj
 0001:0000c37c       ?AddRef@?$CComObject@VCOPOSRemoteOrderDisplay@@@ATL@@WBBI@EAAKXZ 000000018000d37c f i RemoteOrderDisplay.obj
 0001:0000c388       ?AddRef@?$CComObject@VCOPOSRemoteOrderDisplay@@@ATL@@WBCI@EAAKXZ 000000018000d388 f i RemoteOrderDisplay.obj
 0001:0000c394       ?AddRef@?$CComObject@VCOPOSRemoteOrderDisplay@@@ATL@@WBEA@EAAKXZ 000000018000d394 f i RemoteOrderDisplay.obj
 0001:0000c3a0       ?AddRef@?$CComObject@VCOPOSRemoteOrderDisplay@@@ATL@@WLI@EAAKXZ 000000018000d3a0 f i RemoteOrderDisplay.obj
 0001:0000c3ac       ?AddRef@?$CComObject@VCOPOSRemoteOrderDisplay@@@ATL@@WMA@EAAKXZ 000000018000d3ac f i RemoteOrderDisplay.obj
 0001:0000c3b8       ?AddRef@?$CComObject@VCOPOSRemoteOrderDisplay@@@ATL@@WMI@EAAKXZ 000000018000d3b8 f i RemoteOrderDisplay.obj
 0001:0000c3c4       ?AddRef@?$CComObject@VCOPOSRemoteOrderDisplay@@@ATL@@WNA@EAAKXZ 000000018000d3c4 f i RemoteOrderDisplay.obj
 0001:0000c3d0       ?AddRef@?$CComObject@VCOPOSRemoteOrderDisplay@@@ATL@@WNI@EAAKXZ 000000018000d3d0 f i RemoteOrderDisplay.obj
 0001:0000c3dc       ?AddRef@?$CComObject@VCOPOSRemoteOrderDisplay@@@ATL@@WOA@EAAKXZ 000000018000d3dc f i RemoteOrderDisplay.obj
 0001:0000c3e8       ?AddRef@?$CComObject@VCOPOSRemoteOrderDisplay@@@ATL@@WOI@EAAKXZ 000000018000d3e8 f i RemoteOrderDisplay.obj
 0001:0000c3f4       ?AddRef@?$CComObject@VCOPOSRemoteOrderDisplay@@@ATL@@WPA@EAAKXZ 000000018000d3f4 f i RemoteOrderDisplay.obj
 0001:0000c400       ?AddRef@?$CComObject@VCOPOSRemoteOrderDisplay@@@ATL@@WPI@EAAKXZ 000000018000d400 f i RemoteOrderDisplay.obj
 0001:0000c410       ?AddRef@?$CComObjectCached@VCComClassFactory@ATL@@@ATL@@UEAAKXZ 000000018000d410 f i RemoteOrderDisplay.obj
 0001:0000c470       ?AddRef@CRegObject@ATL@@UEAAKXZ 000000018000d470 f i RemoteOrderDisplay.obj
 0001:0000c4e0       ?AddReplacement@CRegObject@ATL@@UEAAJPEB_W0@Z 000000018000d4e0 f i RemoteOrderDisplay.obj
 0001:0000c610       ?AddString@CParseBuffer@CRegParser@ATL@@QEAAHPEB_W@Z 000000018000d610 f i RemoteOrderDisplay.obj
 0001:0000c700       ?AddTermFunc@CAtlModule@ATL@@QEAAJP6AX_K@Z0@Z 000000018000d700 f i RemoteOrderDisplay.obj
 0001:0000c770       ?AddValue@CRegParser@ATL@@IEAAJAEAVCRegKey@2@PEB_WPEA_W@Z 000000018000d770 f i RemoteOrderDisplay.obj
 0001:0000d040       ?Advise@?$CProxy_IOPOSEvents@VCOPOSRemoteOrderDisplay@@@@UEAAJPEAUIUnknown@@PEAK@Z 000000018000e040 f i RemoteOrderDisplay.obj
 0001:0000d0b0       ?Advise@?$IConnectionPointImpl@VCOPOSRemoteOrderDisplay@@$1?DIID__IOPOSRemoteOrderDisplayEvents@@3U_GUID@@BVCComDynamicUnkArray@ATL@@@ATL@@UEAAJPEAUIUnknown@@PEAK@Z 000000018000e0b0 f i RemoteOrderDisplay.obj
 0001:0000d2b0       ?Advise@?$IConnectionPointImpl@VCOPOSRemoteOrderDisplay@@$1?IID_IPropertyNotifySink@@3U_GUID@@BVCComDynamicUnkArray@ATL@@@ATL@@UEAAJPEAUIUnknown@@PEAK@Z 000000018000e2b0 f i RemoteOrderDisplay.obj
 0001:0000d4b0       ?Advise@?$IOleObjectImpl@VCOPOSRemoteOrderDisplay@@@ATL@@UEAAJPEAUIAdviseSink@@PEAK@Z 000000018000e4b0 f i RemoteOrderDisplay.obj
 0001:0000d570       ?Allocate@?$CAtlSafeAllocBufferManager@VCCRTAllocator@ATL@@@_ATL_SAFE_ALLOCA_IMPL@ATL@@QEAAPEAX_K@Z 000000018000e570 f i RemoteOrderDisplay.obj
 0001:0000d5f0       ?Allocate@?$CTempBuffer@E$0BAA@VCCRTAllocator@ATL@@@ATL@@QEAAPEAE_K@Z 000000018000e5f0 f i RemoteOrderDisplay.obj
 0001:0000d640       ?Allocate@?$CTempBuffer@_W$0BAA@VCCRTAllocator@ATL@@@ATL@@QEAAPEA_W_K@Z 000000018000e640 f i RemoteOrderDisplay.obj
 0001:0000d690       ?Allocate@?$CTempBuffer@_W$0EAA@VCCRTAllocator@ATL@@@ATL@@QEAAPEA_W_K@Z 000000018000e690 f i RemoteOrderDisplay.obj
 0001:0000d6e0       ?AllocateBytes@?$CTempBuffer@E$0BAA@VCCRTAllocator@ATL@@@ATL@@QEAAPEAE_K@Z 000000018000e6e0 f i RemoteOrderDisplay.obj
 0001:0000d790       ?AllocateBytes@?$CTempBuffer@_W$0BAA@VCCRTAllocator@ATL@@@ATL@@QEAAPEA_W_K@Z 000000018000e790 f i RemoteOrderDisplay.obj
 0001:0000d840       ?AllocateBytes@?$CTempBuffer@_W$0EAA@VCCRTAllocator@ATL@@@ATL@@QEAAPEA_W_K@Z 000000018000e840 f i RemoteOrderDisplay.obj
 0001:0000d8f0       ?AllocateHeap@?$CTempBuffer@E$0BAA@VCCRTAllocator@ATL@@@ATL@@AEAAX_K@Z 000000018000e8f0 f i RemoteOrderDisplay.obj
 0001:0000d950       ?AllocateHeap@?$CTempBuffer@_W$0BAA@VCCRTAllocator@ATL@@@ATL@@AEAAX_K@Z 000000018000e950 f i RemoteOrderDisplay.obj
 0001:0000d9b0       ?AllocateHeap@?$CTempBuffer@_W$0EAA@VCCRTAllocator@ATL@@@ATL@@AEAAX_K@Z 000000018000e9b0 f i RemoteOrderDisplay.obj
 0001:0000da10       ?Append@CParseBuffer@CRegParser@ATL@@QEAAHPEB_WH@Z 000000018000ea10 f i RemoteOrderDisplay.obj
 0001:0000dc40       ?AtlCallTermFunc@ATL@@YAXPEAU_ATL_MODULE70@1@@Z 000000018000ec40 f i RemoteOrderDisplay.obj
 0001:0000dcf0       ?AtlCoTaskMemCAlloc@ATL@@YAPEAXKK@Z 000000018000ecf0 f i RemoteOrderDisplay.obj
 0001:0000dd70       ?AtlCoTaskMemRecalloc@ATL@@YAPEAXPEAXKK@Z 000000018000ed70 f i RemoteOrderDisplay.obj
 0001:0000ddf0       ?AtlComModuleGetClassObject@ATL@@YAJPEAU_ATL_COM_MODULE70@1@AEBU_GUID@@1PEAPEAX@Z 000000018000edf0 f i RemoteOrderDisplay.obj
 0001:0000e120       ?AtlComModuleRegisterServer@ATL@@YAJPEAU_ATL_COM_MODULE70@1@HPEBU_GUID@@@Z 000000018000f120 f i RemoteOrderDisplay.obj
 0001:0000e320       ?AtlComModuleUnregisterServer@ATL@@YAJPEAU_ATL_COM_MODULE70@1@HPEBU_GUID@@@Z 000000018000f320 f i RemoteOrderDisplay.obj
 0001:0000e480       ?AtlComQIPtrAssign2@ATL@@YAXPEAPEAUIUnknown@@PEAU2@AEBU_GUID@@@Z 000000018000f480 f i RemoteOrderDisplay.obj
 0001:0000e510       ?AtlCreateTargetDC@ATL@@YAPEAUHDC__@@PEAU2@PEAUtagDVTARGETDEVICE@@@Z 000000018000f510 f i RemoteOrderDisplay.obj
 0001:0000e740       ?AtlCrtErrorCheck@ATL@@YAHH@Z 000000018000f740 f i RemoteOrderDisplay.obj
 0001:0000e7c0       ?AtlGetPerUserRegistration@ATL@@YAJPEA_N@Z 000000018000f7c0 f i RemoteOrderDisplay.obj
 0001:0000e7f0       ?AtlHiMetricToPixel@ATL@@YAXPEBUtagSIZE@@PEAU2@@Z 000000018000f7f0 f i RemoteOrderDisplay.obj
 0001:0000e9f0       ?AtlHresultFromLastError@ATL@@YAJXZ 000000018000f9f0 f i RemoteOrderDisplay.obj
 0001:0000ea20       ?AtlHresultFromWin32@ATL@@YAJK@Z 000000018000fa20 f i RemoteOrderDisplay.obj
 0001:0000ea50       ?AtlIPersistStreamInit_Load@ATL@@YAJPEAUIStream@@PEBUATL_PROPMAP_ENTRY@1@PEAXPEAUIUnknown@@@Z 000000018000fa50 f i RemoteOrderDisplay.obj
 0001:0000f0c0       ?AtlIPersistStreamInit_Save@ATL@@YAJPEAUIStream@@HPEBUATL_PROPMAP_ENTRY@1@PEAXPEAUIUnknown@@@Z 00000001800100c0 f i RemoteOrderDisplay.obj
 0001:0000f650       ?AtlInternalOleLoadFromStream@ATL@@YAJPEAUIStream@@AEBU_GUID@@PEAPEAXTClassesAllowedInStream@1@K@Z 0000000180010650 f i RemoteOrderDisplay.obj
 0001:0000f990       ?AtlInternalQueryInterface@ATL@@YAJPEAXPEBU_ATL_INTMAP_ENTRY@1@AEBU_GUID@@PEAPEAX@Z 0000000180010990 f i RemoteOrderDisplay.obj
 0001:0000fc50       ?AtlLoadTypeLib@ATL@@YAJPEAUHINSTANCE__@@PEB_WPEAPEA_WPEAPEAUITypeLib@@@Z 0000000180010c50 f i RemoteOrderDisplay.obj
 0001:00010120       ?AtlModuleAddTermFunc@ATL@@YAJPEAU_ATL_MODULE70@1@P6AX_K@Z1@Z 0000000180011120 f i RemoteOrderDisplay.obj
 0001:000102f0       ?AtlRegisterClassCategoriesHelper@ATL@@YAJAEBU_GUID@@PEBU_ATL_CATMAP_ENTRY@1@H@Z 00000001800112f0 f i RemoteOrderDisplay.obj
 0001:00010ac0       ?AtlRegisterTypeLib@ATL@@YAJPEAUHINSTANCE__@@PEB_W@Z 0000000180011ac0 f i RemoteOrderDisplay.obj
 0001:00010e20       ?AtlThrowImpl@ATL@@YAXJ@Z  0000000180011e20 f i RemoteOrderDisplay.obj
 0001:00010f00       ?AtlUnRegisterTypeLib@ATL@@YAJPEAUHINSTANCE__@@PEB_W@Z 0000000180011f00 f i RemoteOrderDisplay.obj
 0001:00011130       ?AtlWinModuleAddCreateWndData@ATL@@YAXPEAU_ATL_WIN_MODULE70@1@PEAU_AtlCreateWndData@1@PEAX@Z 0000000180012130 f i RemoteOrderDisplay.obj
 0001:00011320       ?AtlWinModuleExtractCreateWndData@ATL@@YAPEAXPEAU_ATL_WIN_MODULE70@1@@Z 0000000180012320 f i RemoteOrderDisplay.obj
 0001:00011520       ?AtlWinModuleRegisterClassExW@ATL@@YAGPEAU_ATL_WIN_MODULE70@1@PEBUtagWNDCLASSEXW@@@Z 0000000180012520 f i RemoteOrderDisplay.obj
 0001:000115f0       ?AtlWinModuleRegisterWndClassInfoW@ATL@@YAGPEAU_ATL_WIN_MODULE70@1@PEAU_ATL_BASE_MODULE70@1@PEAU_ATL_WNDCLASSINFOW@1@PEAP6A_JPEAUHWND__@@I_K_J@Z@Z 00000001800125f0 f i RemoteOrderDisplay.obj
 0001:00011660       ?Attach@?$CAutoVectorPtr@_W@ATL@@QEAAXPEA_W@Z 0000000180012660 f i RemoteOrderDisplay.obj
 0001:000116f0       ?Attach@CComBSTR@ATL@@QEAAXPEA_W@Z 00000001800126f0 f i RemoteOrderDisplay.obj
 0001:00011750       ?Attach@CRegKey@ATL@@QEAAXPEAUHKEY__@@@Z 0000000180012750 f i RemoteOrderDisplay.obj
 0001:000117f0       ?CanForceRemoveKey@CRegParser@ATL@@IEAAHPEB_W@Z 00000001800127f0 f i RemoteOrderDisplay.obj
 0001:00011860       ?ChToByte@CRegParser@ATL@@KAE_W@Z 0000000180012860 f i RemoteOrderDisplay.obj
 0001:000119c0       ?ChangeType@CComVariant@ATL@@QEAAJGPEBUtagVARIANT@@@Z 00000001800129c0 f i RemoteOrderDisplay.obj
 0001:00011a30       ?Cleanup@CComTypeInfoHolder@ATL@@SAX_K@Z 0000000180012a30 f i RemoteOrderDisplay.obj
 0001:00011b20       ?Clear@CComVariant@ATL@@QEAAJXZ 0000000180012b20 f i RemoteOrderDisplay.obj
 0001:00011b50       ?ClearReplacements@CExpansionVector@ATL@@QEAAJXZ 0000000180012b50 f i RemoteOrderDisplay.obj
 0001:00011bf0       ?ClearReplacements@CRegObject@ATL@@UEAAJXZ 0000000180012bf0 f i RemoteOrderDisplay.obj
 0001:00011c50       ?Clone@?$CComEnumImpl@UIEnumConnectionPoints@@$1?_GUID_b196b285_bab4_101a_b69c_00aa00341d07@@3U__s_GUID@@BPEAUIConnectionPoint@@V?$_CopyInterface@UIConnectionPoint@@@ATL@@@ATL@@UEAAJPEAPEAUIEnumConnectionPoints@@@Z 0000000180012c50 f i RemoteOrderDisplay.obj
 0001:00011e40       ?Clone@?$CComEnumImpl@UIEnumConnections@@$1?_GUID_b196b287_bab4_101a_b69c_00aa00341d07@@3U__s_GUID@@BUtagCONNECTDATA@@V?$_Copy@UtagCONNECTDATA@@@ATL@@@ATL@@UEAAJPEAPEAUIEnumConnections@@@Z 0000000180012e40 f i RemoteOrderDisplay.obj
 0001:00012030       ?Close@?$IOleObjectImpl@VCOPOSRemoteOrderDisplay@@@ATL@@UEAAJK@Z 0000000180013030 f i RemoteOrderDisplay.obj
 0001:000120e0       ?Close@CRegKey@ATL@@QEAAJXZ 00000001800130e0 f i RemoteOrderDisplay.obj
 0001:00012150       ?ContextSensitiveHelp@?$IOleInPlaceActiveObjectImpl@VCOPOSRemoteOrderDisplay@@@ATL@@UEAAJH@Z 0000000180013150 f i RemoteOrderDisplay.obj
 0001:000121d0       ?ContextSensitiveHelp@?$IOleInPlaceObjectWindowlessImpl@VCOPOSRemoteOrderDisplay@@@ATL@@UEAAJH@Z 00000001800131d0 f i RemoteOrderDisplay.obj
 0001:00012250       ?ControlQueryInterface@?$CComControl@VCOPOSRemoteOrderDisplay@@V?$CWindowImpl@VCOPOSRemoteOrderDisplay@@VCWindow@ATL@@V?$CWinTraits@$0FGAAAAAA@$0A@@3@@ATL@@@ATL@@UEAAJAEBU_GUID@@PEAPEAX@Z 0000000180013250 f i RemoteOrderDisplay.obj
 0001:000122e0       ?CreateControlWindow@?$CComControl@VCOPOSRemoteOrderDisplay@@V?$CWindowImpl@VCOPOSRemoteOrderDisplay@@VCWindow@ATL@@V?$CWinTraits@$0FGAAAAAA@$0A@@3@@ATL@@@ATL@@UEAAPEAUHWND__@@PEAU3@AEAUtagRECT@@@Z 00000001800132e0 f i RemoteOrderDisplay.obj
 0001:000123d0       ?CreateInstance@?$CComCreator@V?$CComAggObject@VCOPOSRemoteOrderDisplay@@@ATL@@@ATL@@SAJPEAXAEBU_GUID@@PEAPEAX@Z 00000001800133d0 f i RemoteOrderDisplay.obj
 0001:000125b0       ?CreateInstance@?$CComCreator@V?$CComObject@VCOPOSRemoteOrderDisplay@@@ATL@@@ATL@@SAJPEAXAEBU_GUID@@PEAPEAX@Z 00000001800135b0 f i RemoteOrderDisplay.obj
 0001:000127b0       ?CreateInstance@?$CComObject@V?$CComEnum@UIEnumConnectionPoints@@$1?_GUID_b196b285_bab4_101a_b69c_00aa00341d07@@3U__s_GUID@@BPEAUIConnectionPoint@@V?$_CopyInterface@UIConnectionPoint@@@ATL@@VCComSingleThreadModel@6@@ATL@@@ATL@@SAJPEAPEAV12@@Z 00000001800137b0 f i RemoteOrderDisplay.obj
 0001:00012970       ?CreateInstance@?$CComObject@V?$CComEnum@UIEnumConnections@@$1?_GUID_b196b287_bab4_101a_b69c_00aa00341d07@@3U__s_GUID@@BUtagCONNECTDATA@@V?$_Copy@UtagCONNECTDATA@@@ATL@@VCComSingleThreadModel@6@@ATL@@@ATL@@SAJPEAPEAV12@@Z 0000000180013970 f i RemoteOrderDisplay.obj
 0001:00012b30       ?CreateInstance@CComClassFactory@ATL@@UEAAJPEAUIUnknown@@AEBU_GUID@@PEAPEAX@Z 0000000180013b30 f i RemoteOrderDisplay.obj
 0001:00012c50       ?DAdvise@?$IDataObjectImpl@VCOPOSRemoteOrderDisplay@@@ATL@@UEAAJPEAUtagFORMATETC@@KPEAUIAdviseSink@@PEAK@Z 0000000180013c50 f i RemoteOrderDisplay.obj
 0001:00012db0       ?DEVMODEOLE2T_EX@@YAPEAU_devicemodeW@@PEAU1@@Z 0000000180013db0 f i RemoteOrderDisplay.obj
 0001:00012dc0       ?DUnadvise@?$IDataObjectImpl@VCOPOSRemoteOrderDisplay@@@ATL@@UEAAJK@Z 0000000180013dc0 f i RemoteOrderDisplay.obj
 0001:00012ec0       ?Decrement@CComMultiThreadModel@ATL@@SAKPEAJ@Z 0000000180013ec0 f i RemoteOrderDisplay.obj
 0001:00012ee0       ?Decrement@CComSingleThreadModel@ATL@@SAKPEAJ@Z 0000000180013ee0 f i RemoteOrderDisplay.obj
 0001:00012f00       ?DefWindowProcW@?$CWindowImplBaseT@VCWindow@ATL@@V?$CWinTraits@$0FGAAAAAA@$0A@@2@@ATL@@QEAA_JI_K_J@Z 0000000180013f00 f i RemoteOrderDisplay.obj
 0001:00012f60       ?DefaultReflectionHandler@?$CWindowImplRoot@VCWindow@ATL@@@ATL@@SAHPEAUHWND__@@I_K_JAEA_J@Z 0000000180013f60 f i RemoteOrderDisplay.obj
 0001:00013050       ?DeleteSubKey@CRegKey@ATL@@QEAAJPEB_W@Z 0000000180014050 f i RemoteOrderDisplay.obj
 0001:00013180       ?DeleteValue@CRegKey@ATL@@QEAAJPEB_W@Z 0000000180014180 f i RemoteOrderDisplay.obj
 0001:00013210       ?Detach@?$CAutoVectorPtr@_W@ATL@@QEAAPEA_WXZ 0000000180014210 f i RemoteOrderDisplay.obj
 0001:00013250       ?Detach@?$CComPtrBase@UIPersistStream@@@ATL@@QEAAPEAUIPersistStream@@XZ 0000000180014250 f i RemoteOrderDisplay.obj
 0001:00013290       ?Detach@?$CComPtrBase@UITypeInfo@@@ATL@@QEAAPEAUITypeInfo@@XZ 0000000180014290 f i RemoteOrderDisplay.obj
 0001:000132d0       ?Detach@?$CComPtrBase@UIUnknown@@@ATL@@QEAAPEAUIUnknown@@XZ 00000001800142d0 f i RemoteOrderDisplay.obj
 0001:00013310       ?Detach@CComBSTR@ATL@@QEAAPEA_WXZ 0000000180014310 f i RemoteOrderDisplay.obj
 0001:00013350       ?Detach@CParseBuffer@CRegParser@ATL@@QEAAPEA_WXZ 0000000180014350 f i RemoteOrderDisplay.obj
 0001:000133b0       ?Detach@CRegKey@ATL@@QEAAPEAUHKEY__@@XZ 00000001800143b0 f i RemoteOrderDisplay.obj
 0001:00013410       ?DoEvent@COPOSRemoteOrderDisplay@@IEAAXI_K_J@Z 0000000180014410 f i RemoteOrderDisplay.obj
 0001:00013550       ?DoVerb@?$IOleObjectImpl@VCOPOSRemoteOrderDisplay@@@ATL@@UEAAJJPEAUtagMSG@@PEAUIOleClientSite@@JPEAUHWND__@@PEBUtagRECT@@@Z 0000000180014550 f i RemoteOrderDisplay.obj
 0001:00013860       ?DoVerbDiscardUndo@?$IOleObjectImpl@VCOPOSRemoteOrderDisplay@@@ATL@@QEAAJPEBUtagRECT@@PEAUHWND__@@@Z 0000000180014860 f i RemoteOrderDisplay.obj
 0001:00013900       ?DoVerbHide@?$IOleObjectImpl@VCOPOSRemoteOrderDisplay@@@ATL@@QEAAJPEBUtagRECT@@PEAUHWND__@@@Z 0000000180014900 f i RemoteOrderDisplay.obj
 0001:000139e0       ?DoVerbInPlaceActivate@?$IOleObjectImpl@VCOPOSRemoteOrderDisplay@@@ATL@@QEAAJPEBUtagRECT@@PEAUHWND__@@@Z 00000001800149e0 f i RemoteOrderDisplay.obj
 0001:00013ac0       ?DoVerbOpen@?$IOleObjectImpl@VCOPOSRemoteOrderDisplay@@@ATL@@QEAAJPEBUtagRECT@@PEAUHWND__@@@Z 0000000180014ac0 f i RemoteOrderDisplay.obj
 0001:00013b60       ?DoVerbPrimary@?$IOleObjectImpl@VCOPOSRemoteOrderDisplay@@@ATL@@QEAAJPEBUtagRECT@@PEAUHWND__@@@Z 0000000180014b60 f i RemoteOrderDisplay.obj
 0001:00013ca0       ?DoVerbProperties@CComControlBase@ATL@@QEAAJPEBUtagRECT@@PEAUHWND__@@@Z 0000000180014ca0 f i RemoteOrderDisplay.obj
 0001:00014050       ?DoVerbShow@?$IOleObjectImpl@VCOPOSRemoteOrderDisplay@@@ATL@@QEAAJPEBUtagRECT@@PEAUHWND__@@@Z 0000000180015050 f i RemoteOrderDisplay.obj
 0001:00014110       ?DoVerbUIActivate@?$IOleObjectImpl@VCOPOSRemoteOrderDisplay@@@ATL@@QEAAJPEBUtagRECT@@PEAUHWND__@@@Z 0000000180015110 f i RemoteOrderDisplay.obj
 0001:000141f0       ?DoesVerbActivate@CComControlBase@ATL@@QEAAHJ@Z 00000001800151f0 f i RemoteOrderDisplay.obj
 0001:00014250       ?DoesVerbUIActivate@CComControlBase@ATL@@QEAAHJ@Z 0000000180015250 f i RemoteOrderDisplay.obj
 0001:000142d0       ?Draw@?$IViewObjectExImpl@VCOPOSRemoteOrderDisplay@@@ATL@@UEAAJKJPEAXPEAUtagDVTARGETDEVICE@@PEAUHDC__@@2PEBU_RECTL@@3P6AH_K@Z4@Z 00000001800152d0 f i RemoteOrderDisplay.obj
 0001:000143f0       ?Empty@CComBSTR@ATL@@QEAAXXZ 00000001800153f0 f i RemoteOrderDisplay.obj
 0001:00014430       ?EnableModeless@?$IOleInPlaceActiveObjectImpl@VCOPOSRemoteOrderDisplay@@@ATL@@UEAAJH@Z 0000000180015430 f i RemoteOrderDisplay.obj
 0001:000144a0       ?EndOfVar@CRegParser@ATL@@IEAAHXZ 00000001800154a0 f i RemoteOrderDisplay.obj
 0001:00014500       ?EnsureTI@CComTypeInfoHolder@ATL@@QEAAJK@Z 0000000180015500 f i RemoteOrderDisplay.obj
 0001:00014560       ?EnumAdvise@?$IOleObjectImpl@VCOPOSRemoteOrderDisplay@@@ATL@@UEAAJPEAPEAUIEnumSTATDATA@@@Z 0000000180015560 f i RemoteOrderDisplay.obj
 0001:000146c0       ?EnumConnectionPoints@?$IConnectionPointContainerImpl@VCOPOSRemoteOrderDisplay@@@ATL@@UEAAJPEAPEAUIEnumConnectionPoints@@@Z 00000001800156c0 f i RemoteOrderDisplay.obj
 0001:00014bb0       ?EnumConnections@?$IConnectionPointImpl@VCOPOSRemoteOrderDisplay@@$1?DIID__IOPOSRemoteOrderDisplayEvents@@3U_GUID@@BVCComDynamicUnkArray@ATL@@@ATL@@UEAAJPEAPEAUIEnumConnections@@@Z 0000000180015bb0 f i RemoteOrderDisplay.obj
 0001:00014f00       ?EnumConnections@?$IConnectionPointImpl@VCOPOSRemoteOrderDisplay@@$1?IID_IPropertyNotifySink@@3U_GUID@@BVCComDynamicUnkArray@ATL@@@ATL@@UEAAJPEAPEAUIEnumConnections@@@Z 0000000180015f00 f i RemoteOrderDisplay.obj
 0001:00015250       ?EnumDAdvise@?$IDataObjectImpl@VCOPOSRemoteOrderDisplay@@@ATL@@UEAAJPEAPEAUIEnumSTATDATA@@@Z 0000000180016250 f i RemoteOrderDisplay.obj
 0001:000153a0       ?EnumFormatEtc@?$IDataObjectImpl@VCOPOSRemoteOrderDisplay@@@ATL@@UEAAJKPEAPEAUIEnumFORMATETC@@@Z 00000001800163a0 f i RemoteOrderDisplay.obj
 0001:00015430       ?EnumVerbs@?$IOleObjectImpl@VCOPOSRemoteOrderDisplay@@@ATL@@UEAAJPEAPEAUIEnumOLEVERB@@@Z 0000000180016430 f i RemoteOrderDisplay.obj
 0001:00015500       ?EscapeSingleQuote@CAtlModule@ATL@@SAXPEA_W_KPEB_W@Z 0000000180016500 f i RemoteOrderDisplay.obj
 0001:00015600       ?ExtractCreateWndData@CAtlWinModule@ATL@@QEAAPEAXXZ 0000000180016600 f i RemoteOrderDisplay.obj
 0001:00015630       ?FAccessAllowed@?$IObjectSafetyImpl@VCOPOSRemoteOrderDisplay@@$02@ATL@@MEAAHXZ 0000000180016630 f i RemoteOrderDisplay.obj
 0001:00015640       ?FinalConstruct@?$CComAggObject@VCOPOSRemoteOrderDisplay@@@ATL@@QEAAJXZ 0000000180016640 f i RemoteOrderDisplay.obj
 0001:00015690       ?FinalConstruct@CComObjectRootBase@ATL@@QEAAJXZ 0000000180016690 f i RemoteOrderDisplay.obj
 0001:000156a0       ?FinalConstruct@CRegObject@ATL@@QEAAJXZ 00000001800166a0 f i RemoteOrderDisplay.obj
 0001:000156e0       ?FinalRelease@?$CComAggObject@VCOPOSRemoteOrderDisplay@@@ATL@@QEAAXXZ 00000001800166e0 f i RemoteOrderDisplay.obj
 0001:00015730       ?FinalRelease@CComObjectRootBase@ATL@@QEAAXXZ 0000000180016730 f i RemoteOrderDisplay.obj
 0001:00015740       ?FindConnectionPoint@?$IConnectionPointContainerImpl@VCOPOSRemoteOrderDisplay@@@ATL@@UEAAJAEBU_GUID@@PEAPEAUIConnectionPoint@@@Z 0000000180016740 f i RemoteOrderDisplay.obj
 0001:000158b0       ?FindKey@?$CSimpleMap@PEA_WPEA_WVCExpansionVectorEqualHelper@ATL@@@ATL@@QEBAHAEBQEA_W@Z 00000001800168b0 f i RemoteOrderDisplay.obj
 0001:00015930       ?FireTheEvent@?$CProxy_IOPOSEvents@VCOPOSRemoteOrderDisplay@@@@IEAAXPEAUIUnknown@@PEAVOposVariant@@IAEAJPEB_WJ@Z 0000000180016930 f i RemoteOrderDisplay.obj
 0001:00015b10       ?FireViewChange@CComControlBase@ATL@@QEAAJXZ 0000000180016b10 f i RemoteOrderDisplay.obj
 0001:00015bf0       ?Fire_DataEvent@?$CProxy_IOPOSEvents@VCOPOSRemoteOrderDisplay@@@@QEAAXJ@Z 0000000180016bf0 f i RemoteOrderDisplay.obj
 0001:00015de0       ?Fire_DirectIOEvent@?$CProxy_IOPOSEvents@VCOPOSRemoteOrderDisplay@@@@QEAAXJPEAJPEAPEA_W@Z 0000000180016de0 f i RemoteOrderDisplay.obj
 0001:00016070       ?Fire_ErrorEvent@?$CProxy_IOPOSEvents@VCOPOSRemoteOrderDisplay@@@@QEAAXJJJPEAJ@Z 0000000180017070 f i RemoteOrderDisplay.obj
 0001:00016320       ?Fire_OutputCompleteEvent@?$CProxy_IOPOSEvents@VCOPOSRemoteOrderDisplay@@@@QEAAXJ@Z 0000000180017320 f i RemoteOrderDisplay.obj
 0001:00016510       ?Fire_StatusUpdateEvent@?$CProxy_IOPOSEvents@VCOPOSRemoteOrderDisplay@@@@QEAAXJ@Z 0000000180017510 f i RemoteOrderDisplay.obj
 0001:00016700       ?FormatWindowClassName@AtlModuleRegisterWndClassInfoParamW@ATL@@SAXPEA_WKPEAX@Z 0000000180017700 f i RemoteOrderDisplay.obj
 0001:00016750       ?Free@?$CAutoVectorPtr@_W@ATL@@QEAAXXZ 0000000180017750 f i RemoteOrderDisplay.obj
 0001:000167a0       ?FreeHeap@?$CTempBuffer@E$0BAA@VCCRTAllocator@ATL@@@ATL@@AEAAXXZ 00000001800177a0 f i RemoteOrderDisplay.obj
 0001:000167e0       ?FreeHeap@?$CTempBuffer@_W$0BAA@VCCRTAllocator@ATL@@@ATL@@AEAAXXZ 00000001800177e0 f i RemoteOrderDisplay.obj
 0001:00016820       ?FreeHeap@?$CTempBuffer@_W$0EAA@VCCRTAllocator@ATL@@@ATL@@AEAAXXZ 0000000180017820 f i RemoteOrderDisplay.obj
 0001:00016860       ?Freeze@?$IViewObjectExImpl@VCOPOSRemoteOrderDisplay@@@ATL@@UEAAJKJPEAXPEAK@Z 0000000180017860 f i RemoteOrderDisplay.obj
 0001:000168f0       ?GenerateError@CRegParser@ATL@@IEAAJI@Z 00000001800178f0 f i RemoteOrderDisplay.obj
 0001:00016910       ?GetAdvise@?$IViewObjectExImpl@VCOPOSRemoteOrderDisplay@@@ATL@@UEAAJPEAK0PEAPEAUIAdviseSink@@@Z 0000000180017910 f i RemoteOrderDisplay.obj
 0001:00016a60       ?GetAmbientLocaleID@CComControlBase@ATL@@QEAAJAEAK@Z 0000000180017a60 f i RemoteOrderDisplay.obj
 0001:00016b40       ?GetAmbientProperty@CComControlBase@ATL@@QEAAJJAEAUtagVARIANT@@@Z 0000000180017b40 f i RemoteOrderDisplay.obj
 0001:00016bb0       ?GetAmbientUserMode@CComControlBase@ATL@@QEAAJAEAH@Z 0000000180017bb0 f i RemoteOrderDisplay.obj
 0001:00016cd0       ?GetAppId@?$CAtlModuleT@VCComModule@ATL@@@ATL@@SAPEB_WXZ 0000000180017cd0 f i RemoteOrderDisplay.obj
 0001:00016ce0       ?GetAt@CComDynamicUnkArray@ATL@@QEAAPEAUIUnknown@@H@Z 0000000180017ce0 f i RemoteOrderDisplay.obj
 0001:00016d90       ?GetCanonicalFormatEtc@?$IDataObjectImpl@VCOPOSRemoteOrderDisplay@@@ATL@@UEAAJPEAUtagFORMATETC@@0@Z 0000000180017d90 f i RemoteOrderDisplay.obj
 0001:00016e20       ?GetClassID@?$IPersistStorageImpl@VCOPOSRemoteOrderDisplay@@@ATL@@UEAAJPEAU_GUID@@@Z 0000000180017e20 f i RemoteOrderDisplay.obj
 0001:00016ec0       ?GetClassID@?$IPersistStreamInitImpl@VCOPOSRemoteOrderDisplay@@@ATL@@UEAAJPEAU_GUID@@@Z 0000000180017ec0 f i RemoteOrderDisplay.obj
 0001:00016f60       ?GetClassInfoExW@AtlModuleRegisterWndClassInfoParamW@ATL@@SAHPEAUHINSTANCE__@@PEB_WPEAUtagWNDCLASSEXW@@@Z 0000000180017f60 f i RemoteOrderDisplay.obj
 0001:00016fb0       ?GetClassInfoW@?$IProvideClassInfo2Impl@$1?CLSID_OPOSRemoteOrderDisplay@@3U_GUID@@B$1?DIID__IOPOSRemoteOrderDisplayEvents@@3U2@B$1?LIBID_OposRemoteOrderDisplay_CCO@@3U2@B$00$0A@VCComTypeInfoHolder@ATL@@@ATL@@UEAAJPEAPEAUITypeInfo@@@Z 0000000180017fb0 f i RemoteOrderDisplay.obj
 0001:00016ff0       ?GetClassObject@CComModule@ATL@@QEAAJAEBU_GUID@@0PEAPEAX@Z 0000000180017ff0 f i RemoteOrderDisplay.obj
 0001:00017260       ?GetClientSite@?$IOleObjectImpl@VCOPOSRemoteOrderDisplay@@@ATL@@UEAAJPEAPEAUIOleClientSite@@@Z 0000000180018260 f i RemoteOrderDisplay.obj
 0001:00017310       ?GetClipboardData@?$IOleObjectImpl@VCOPOSRemoteOrderDisplay@@@ATL@@UEAAJKPEAPEAUIDataObject@@@Z 0000000180018310 f i RemoteOrderDisplay.obj
 0001:000173a0       ?GetCodeAddress@CDynamicStdCallThunk2@ATL@@QEAAPEAXXZ 00000001800183a0 f i RemoteOrderDisplay.obj
 0001:000173e0       ?GetColorSet@?$IViewObjectExImpl@VCOPOSRemoteOrderDisplay@@@ATL@@UEAAJKJPEAXPEAUtagDVTARGETDEVICE@@PEAUHDC__@@PEAPEAUtagLOGPALETTE@@@Z 00000001800183e0 f i RemoteOrderDisplay.obj
 0001:00017470       ?GetConnMap@COPOSRemoteOrderDisplay@@SAPEBU_ATL_CONNMAP_ENTRY@ATL@@PEAH@Z 0000000180018470 f i RemoteOrderDisplay.obj
 0001:000175d0       ?GetConnectionInterface@?$IConnectionPointImpl@VCOPOSRemoteOrderDisplay@@$1?DIID__IOPOSRemoteOrderDisplayEvents@@3U_GUID@@BVCComDynamicUnkArray@ATL@@@ATL@@UEAAJPEAU_GUID@@@Z 00000001800185d0 f i RemoteOrderDisplay.obj
 0001:00017610       ?GetConnectionInterface@?$IConnectionPointImpl@VCOPOSRemoteOrderDisplay@@$1?IID_IPropertyNotifySink@@3U_GUID@@BVCComDynamicUnkArray@ATL@@@ATL@@UEAAJPEAU_GUID@@@Z 0000000180018610 f i RemoteOrderDisplay.obj
 0001:00017650       ?GetConnectionPointContainer@?$IConnectionPointImpl@VCOPOSRemoteOrderDisplay@@$1?DIID__IOPOSRemoteOrderDisplayEvents@@3U_GUID@@BVCComDynamicUnkArray@ATL@@@ATL@@UEAAJPEAPEAUIConnectionPointContainer@@@Z 0000000180018650 f i RemoteOrderDisplay.obj
 0001:000176d0       ?GetConnectionPointContainer@?$IConnectionPointImpl@VCOPOSRemoteOrderDisplay@@$1?IID_IPropertyNotifySink@@3U_GUID@@BVCComDynamicUnkArray@ATL@@@ATL@@UEAAJPEAPEAUIConnectionPointContainer@@@Z 00000001800186d0 f i RemoteOrderDisplay.obj
 0001:00017750       ?GetContentExtent@?$IQuickActivateImpl@VCOPOSRemoteOrderDisplay@@@ATL@@UEAAJPEAUtagSIZE@@@Z 0000000180018750 f i RemoteOrderDisplay.obj
 0001:00017810       ?GetControlInfo@?$IOleControlImpl@VCOPOSRemoteOrderDisplay@@@ATL@@UEAAJPEAUtagCONTROLINFO@@@Z 0000000180018810 f i RemoteOrderDisplay.obj
 0001:000178a0       ?GetCookie@CComDynamicUnkArray@ATL@@QEAAKPEAPEAUIUnknown@@@Z 00000001800188a0 f i RemoteOrderDisplay.obj
 0001:00017990       ?GetData@?$IDataObjectImpl@VCOPOSRemoteOrderDisplay@@@ATL@@UEAAJPEAUtagFORMATETC@@PEAUtagSTGMEDIUM@@@Z 0000000180018990 f i RemoteOrderDisplay.obj
 0001:00017a50       ?GetData@CAtlSafeAllocBufferNode@?$CAtlSafeAllocBufferManager@VCCRTAllocator@ATL@@@_ATL_SAFE_ALLOCA_IMPL@ATL@@QEAAPEAXXZ 0000000180018a50 f i RemoteOrderDisplay.obj
 0001:00017a70       ?GetDataHere@?$IDataObjectImpl@VCOPOSRemoteOrderDisplay@@@ATL@@UEAAJPEAUtagFORMATETC@@PEAUtagSTGMEDIUM@@@Z 0000000180018a70 f i RemoteOrderDisplay.obj
 0001:00017b00       ?GetDropTarget@?$IOleInPlaceObjectWindowlessImpl@VCOPOSRemoteOrderDisplay@@@ATL@@UEAAJPEAPEAUIDropTarget@@@Z 0000000180018b00 f i RemoteOrderDisplay.obj
 0001:00017b90       ?GetExtent@?$IOleObjectImpl@VCOPOSRemoteOrderDisplay@@@ATL@@UEAAJKPEAUtagSIZE@@@Z 0000000180018b90 f i RemoteOrderDisplay.obj
 0001:00017c60       ?GetExtent@?$IViewObjectExImpl@VCOPOSRemoteOrderDisplay@@@ATL@@UEAAJKJPEAUtagDVTARGETDEVICE@@PEAUtagSIZE@@@Z 0000000180018c60 f i RemoteOrderDisplay.obj
 0001:00017d70       ?GetGITPtr@CAtlModule@ATL@@UEAAJPEAPEAUIGlobalInterfaceTable@@@Z 0000000180018d70 f i RemoteOrderDisplay.obj
 0001:00017eb0       ?GetGUID@?$IProvideClassInfo2Impl@$1?CLSID_OPOSRemoteOrderDisplay@@3U_GUID@@B$1?DIID__IOPOSRemoteOrderDisplayEvents@@3U2@B$1?LIBID_OposRemoteOrderDisplay_CCO@@3U2@B$00$0A@VCComTypeInfoHolder@ATL@@@ATL@@UEAAJKPEAU_GUID@@@Z 0000000180018eb0 f i RemoteOrderDisplay.obj
 0001:00017f30       ?GetIDsOfNames@?$IDispatchImpl@UIOPOSRemoteOrderDisplay@@$1?IID_IOPOSRemoteOrderDisplay@@3U_GUID@@B$1?LIBID_OposRemoteOrderDisplay_CCO@@3U3@B$00$0A@VCComTypeInfoHolder@ATL@@@ATL@@UEAAJAEBU_GUID@@PEAPEA_WIKPEAJ@Z 0000000180018f30 f i RemoteOrderDisplay.obj
 0001:00017f90       ?GetIDsOfNames@CComTypeInfoHolder@ATL@@QEAAJAEBU_GUID@@PEAPEA_WIKPEAJ@Z 0000000180018f90 f i RemoteOrderDisplay.obj
 0001:000181b0       ?GetInterfaceSafetyOptions@?$IObjectSafetyImpl@VCOPOSRemoteOrderDisplay@@$02@ATL@@UEAAJAEBU_GUID@@PEAK1@Z 00000001800191b0 f i RemoteOrderDisplay.obj
 0001:00018350       ?GetKeyAt@?$CSimpleMap@PEA_WPEA_WVCExpansionVectorEqualHelper@ATL@@@ATL@@QEBAAEAPEA_WH@Z 0000000180019350 f i RemoteOrderDisplay.obj
 0001:00018400       ?GetLockCount@CAtlModule@ATL@@UEAAJXZ 0000000180019400 f i RemoteOrderDisplay.obj
 0001:00018410       ?GetMiscStatus@?$IOleObjectImpl@VCOPOSRemoteOrderDisplay@@@ATL@@UEAAJKPEAK@Z 0000000180019410 f i RemoteOrderDisplay.obj
 0001:000184a0       ?GetMoniker@?$IOleObjectImpl@VCOPOSRemoteOrderDisplay@@@ATL@@UEAAJKKPEAPEAUIMoniker@@@Z 00000001800194a0 f i RemoteOrderDisplay.obj
 0001:00018530       ?GetNaturalExtent@?$IViewObjectExImpl@VCOPOSRemoteOrderDisplay@@@ATL@@UEAAJKJPEAUtagDVTARGETDEVICE@@PEAUHDC__@@PEAUtagExtentInfo@@PEAUtagSIZE@@@Z 0000000180019530 f i RemoteOrderDisplay.obj
 0001:000186c0       ?GetObjectCLSID@?$CComCoClass@VCOPOSRemoteOrderDisplay@@$1?CLSID_OPOSRemoteOrderDisplay@@3U_GUID@@B@ATL@@SAAEBU_GUID@@XZ 00000001800196c0 f i RemoteOrderDisplay.obj
 0001:000186d0       ?GetPages@?$ISpecifyPropertyPagesImpl@VCOPOSRemoteOrderDisplay@@@ATL@@UEAAJPEAUtagCAUUID@@@Z 00000001800196d0 f i RemoteOrderDisplay.obj
 0001:00018760       ?GetPagesHelper@?$ISpecifyPropertyPagesImpl@VCOPOSRemoteOrderDisplay@@@ATL@@IEAAJPEAUtagCAUUID@@PEBUATL_PROPMAP_ENTRY@2@@Z 0000000180019760 f i RemoteOrderDisplay.obj
 0001:000189d0       ?GetProperty@?$CComPtr@UIDispatch@@@ATL@@QEAAJJPEAUtagVARIANT@@@Z 00000001800199d0 f i RemoteOrderDisplay.obj
 0001:00018a20       ?GetProperty@?$CComPtr@UIDispatch@@@ATL@@SAJPEAUIDispatch@@JPEAUtagVARIANT@@@Z 0000000180019a20 f i RemoteOrderDisplay.obj
 0001:00018bf0       ?GetPropertyMap@COPOSRemoteOrderDisplay@@SAPEBUATL_PROPMAP_ENTRY@ATL@@XZ 0000000180019bf0 f i RemoteOrderDisplay.obj
 0001:00018c00       ?GetRect@?$IViewObjectExImpl@VCOPOSRemoteOrderDisplay@@@ATL@@UEAAJKPEAU_RECTL@@@Z 0000000180019c00 f i RemoteOrderDisplay.obj
 0001:00018c90       ?GetSize@?$CSimpleMap@PEA_WPEA_WVCExpansionVectorEqualHelper@ATL@@@ATL@@QEBAHXZ 0000000180019c90 f i RemoteOrderDisplay.obj
 0001:00018ca0       ?GetSize@CComDynamicUnkArray@ATL@@QEBAHXZ 0000000180019ca0 f i RemoteOrderDisplay.obj
 0001:00018cb0       ?GetSizeMax@?$IPersistStreamInitImpl@VCOPOSRemoteOrderDisplay@@@ATL@@UEAAJPEAT_ULARGE_INTEGER@@@Z 0000000180019cb0 f i RemoteOrderDisplay.obj
 0001:00019440       ?GetSizeMax@CComVariant@ATL@@QEBAJPEAT_ULARGE_INTEGER@@@Z 000000018001a440 f i RemoteOrderDisplay.obj
 0001:00019870       ?GetStreamSize@CComBSTR@ATL@@SAKPEA_W@Z 000000018001a870 f i RemoteOrderDisplay.obj
 0001:000198d0       ?GetTI@CComTypeInfoHolder@ATL@@QEAAJK@Z 000000018001a8d0 f i RemoteOrderDisplay.obj
 0001:0001a1a0       ?GetTI@CComTypeInfoHolder@ATL@@QEAAJKPEAPEAUITypeInfo@@@Z 000000018001b1a0 f i RemoteOrderDisplay.obj
 0001:0001a290       ?GetTypeInfo@?$IDispatchImpl@UIOPOSRemoteOrderDisplay@@$1?IID_IOPOSRemoteOrderDisplay@@3U_GUID@@B$1?LIBID_OposRemoteOrderDisplay_CCO@@3U3@B$00$0A@VCComTypeInfoHolder@ATL@@@ATL@@UEAAJIKPEAPEAUITypeInfo@@@Z 000000018001b290 f i RemoteOrderDisplay.obj
 0001:0001a2e0       ?GetTypeInfo@CComTypeInfoHolder@ATL@@QEAAJIKPEAPEAUITypeInfo@@@Z 000000018001b2e0 f i RemoteOrderDisplay.obj
 0001:0001a340       ?GetTypeInfoCount@?$IDispatchImpl@UIOPOSRemoteOrderDisplay@@$1?IID_IOPOSRemoteOrderDisplay@@3U_GUID@@B$1?LIBID_OposRemoteOrderDisplay_CCO@@3U3@B$00$0A@VCComTypeInfoHolder@ATL@@@ATL@@UEAAJPEAI@Z 000000018001b340 f i RemoteOrderDisplay.obj
 0001:0001a370       ?GetUnknown@CComDynamicUnkArray@ATL@@QEAAPEAUIUnknown@@K@Z 000000018001b370 f i RemoteOrderDisplay.obj
 0001:0001a420       ?GetUnknown@COPOSRemoteOrderDisplay@@QEAAPEAUIUnknown@@XZ 000000018001b420 f i RemoteOrderDisplay.obj
 0001:0001a450       ?GetUserClassID@?$IOleObjectImpl@VCOPOSRemoteOrderDisplay@@@ATL@@UEAAJPEAU_GUID@@@Z 000000018001b450 f i RemoteOrderDisplay.obj
 0001:0001a530       ?GetUserType@?$IOleObjectImpl@VCOPOSRemoteOrderDisplay@@@ATL@@UEAAJKPEAPEA_W@Z 000000018001b530 f i RemoteOrderDisplay.obj
 0001:0001a5c0       ?GetValueAt@?$CSimpleMap@PEA_WPEA_WVCExpansionVectorEqualHelper@ATL@@@ATL@@QEBAAEAPEA_WH@Z 000000018001b5c0 f i RemoteOrderDisplay.obj
 0001:0001a670       ?GetViewStatus@?$IViewObjectExImpl@VCOPOSRemoteOrderDisplay@@@ATL@@UEAAJPEAK@Z 000000018001b670 f i RemoteOrderDisplay.obj
 0001:0001a770       ?GetWNDPROC@CWndProcThunk@ATL@@QEAAP6A_JPEAUHWND__@@I_K_J@ZXZ 000000018001b770 f i RemoteOrderDisplay.obj
 0001:0001a7b0       ?GetWindow@?$IOleInPlaceActiveObjectImpl@VCOPOSRemoteOrderDisplay@@@ATL@@UEAAJPEAPEAUHWND__@@@Z 000000018001b7b0 f i RemoteOrderDisplay.obj
 0001:0001a8b0       ?GetWindow@?$IOleInPlaceObjectWindowlessImpl@VCOPOSRemoteOrderDisplay@@@ATL@@UEAAJPEAPEAUHWND__@@@Z 000000018001b8b0 f i RemoteOrderDisplay.obj
 0001:0001a9b0       ?GetWindowProc@?$CWindowImplBaseT@VCWindow@ATL@@V?$CWinTraits@$0FGAAAAAA@$0A@@2@@ATL@@UEAAP6A_JPEAUHWND__@@I_K_J@ZXZ 000000018001b9b0 f i RemoteOrderDisplay.obj
 0001:0001a9c0       ?GetWndCaption@?$CWindowImpl@VCOPOSRemoteOrderDisplay@@VCWindow@ATL@@V?$CWinTraits@$0FGAAAAAA@$0A@@3@@ATL@@SAPEB_WXZ 000000018001b9c0 f i RemoteOrderDisplay.obj
 0001:0001a9d0       ?GetWndClassInfo@?$CWindowImpl@VCOPOSRemoteOrderDisplay@@VCWindow@ATL@@V?$CWinTraits@$0FGAAAAAA@$0A@@3@@ATL@@SAAEAU_ATL_WNDCLASSINFOW@2@XZ 000000018001b9d0 f i RemoteOrderDisplay.obj
 0001:0001a9e0       ?GetWndClassName@CWindow@ATL@@SAPEB_WXZ 000000018001b9e0 f i RemoteOrderDisplay.obj
 0001:0001a9f0       ?GetWndExStyle@?$CWinTraits@$0FGAAAAAA@$0A@@ATL@@SAKK@Z 000000018001b9f0 f i RemoteOrderDisplay.obj
 0001:0001aa30       ?GetWndExStyle@?$CWindowImplBaseT@VCWindow@ATL@@V?$CWinTraits@$0FGAAAAAA@$0A@@2@@ATL@@SAKK@Z 000000018001ba30 f i RemoteOrderDisplay.obj
 0001:0001aa60       ?GetWndStyle@?$CWinTraits@$0FGAAAAAA@$0A@@ATL@@SAKK@Z 000000018001ba60 f i RemoteOrderDisplay.obj
 0001:0001aaa0       ?GetWndStyle@?$CWindowImplBaseT@VCWindow@ATL@@V?$CWinTraits@$0FGAAAAAA@$0A@@2@@ATL@@SAKK@Z 000000018001baa0 f i RemoteOrderDisplay.obj
 0001:0001aad0       ?GetZoomInfo@CComControlBase@ATL@@QEAAXAEAUATL_DRAWINFO@@@Z 000000018001bad0 f i RemoteOrderDisplay.obj
 0001:0001ac80       ?HKeyFromString@CRegParser@ATL@@KAPEAUHKEY__@@PEA_W@Z 000000018001bc80 f i RemoteOrderDisplay.obj
 0001:0001ad10       ?HandsOffStorage@?$IPersistStorageImpl@VCOPOSRemoteOrderDisplay@@@ATL@@UEAAJXZ 000000018001bd10 f i RemoteOrderDisplay.obj
 0001:0001ad80       ?HasSubKeys@CRegParser@ATL@@IEAAHPEAUHKEY__@@@Z 000000018001bd80 f i RemoteOrderDisplay.obj
 0001:0001aef0       ?IDataObject_GetData@CComControlBase@ATL@@QEAAJPEAUtagFORMATETC@@PEAUtagSTGMEDIUM@@@Z 000000018001bef0 f i RemoteOrderDisplay.obj
 0001:0001b3a0       ?IOleInPlaceObject_InPlaceDeactivate@CComControlBase@ATL@@QEAAJXZ 000000018001c3a0 f i RemoteOrderDisplay.obj
 0001:0001b610       ?IOleInPlaceObject_SetObjectRects@CComControlBase@ATL@@QEAAJPEBUtagRECT@@0@Z 000000018001c610 f i RemoteOrderDisplay.obj
 0001:0001b7f0       ?IOleInPlaceObject_UIDeactivate@CComControlBase@ATL@@QEAAJXZ 000000018001c7f0 f i RemoteOrderDisplay.obj
 0001:0001ba60       ?IOleObject_Advise@CComControlBase@ATL@@QEAAJPEAUIAdviseSink@@PEAK@Z 000000018001ca60 f i RemoteOrderDisplay.obj
 0001:0001bb10       ?IOleObject_Close@CComControlBase@ATL@@QEAAJK@Z 000000018001cb10 f i RemoteOrderDisplay.obj
 0001:0001be80       ?IOleObject_GetClientSite@CComControlBase@ATL@@QEAAJPEAPEAUIOleClientSite@@@Z 000000018001ce80 f i RemoteOrderDisplay.obj
 0001:0001bf50       ?IOleObject_SetClientSite@CComControlBase@ATL@@QEAAJPEAUIOleClientSite@@@Z 000000018001cf50 f i RemoteOrderDisplay.obj
 0001:0001c060       ?IOleObject_SetExtent@CComControlBase@ATL@@QEAAJKPEAUtagSIZE@@@Z 000000018001d060 f i RemoteOrderDisplay.obj
 0001:0001c1d0       ?IPSI_GetIPersistStreamInit@?$IPersistStorageImpl@VCOPOSRemoteOrderDisplay@@@ATL@@AEAAPEAUIPersistStreamInit@@XZ 000000018001d1d0 f i RemoteOrderDisplay.obj
 0001:0001c290       ?IPersistStreamInit_Load@?$IPersistStreamInitImpl@VCOPOSRemoteOrderDisplay@@@ATL@@QEAAJPEAUIStream@@PEBUATL_PROPMAP_ENTRY@2@@Z 000000018001d290 f i RemoteOrderDisplay.obj
 0001:0001c330       ?IPersistStreamInit_Save@?$IPersistStreamInitImpl@VCOPOSRemoteOrderDisplay@@@ATL@@QEAAJPEAUIStream@@HPEBUATL_PROPMAP_ENTRY@2@@Z 000000018001d330 f i RemoteOrderDisplay.obj
 0001:0001c3f0       ?IQuickActivate_QuickActivate@CComControlBase@ATL@@QEAAJPEAUtagQACONTAINER@@PEAUtagQACONTROL@@@Z 000000018001d3f0 f i RemoteOrderDisplay.obj
 0001:0001cc30       ?IViewObject_Draw@CComControlBase@ATL@@QEAAJKJPEAXPEAUtagDVTARGETDEVICE@@PEAUHDC__@@2PEBU_RECTL@@3@Z 000000018001dc30 f i RemoteOrderDisplay.obj
 0001:0001d080       ?InPlaceActivate@CComControlBase@ATL@@QEAAJJPEBUtagRECT@@@Z 000000018001e080 f i RemoteOrderDisplay.obj
 0001:0001dc20       ?InPlaceDeactivate@?$IOleInPlaceObjectWindowlessImpl@VCOPOSRemoteOrderDisplay@@@ATL@@UEAAJXZ 000000018001ec20 f i RemoteOrderDisplay.obj
 0001:0001dcd0       ?Increment@CComMultiThreadModel@ATL@@SAKPEAJ@Z 000000018001ecd0 f i RemoteOrderDisplay.obj
 0001:0001dcf0       ?Increment@CComSingleThreadModel@ATL@@SAKPEAJ@Z 000000018001ecf0 f i RemoteOrderDisplay.obj
 0001:0001dd10       ?Init@?$CComEnumImpl@UIEnumConnectionPoints@@$1?_GUID_b196b285_bab4_101a_b69c_00aa00341d07@@3U__s_GUID@@BPEAUIConnectionPoint@@V?$_CopyInterface@UIConnectionPoint@@@ATL@@@ATL@@QEAAJPEAPEAUIConnectionPoint@@0PEAUIUnknown@@W4CComEnumFlags@2@@Z 000000018001ed10 f i RemoteOrderDisplay.obj
 0001:0001e000       ?Init@?$CComEnumImpl@UIEnumConnections@@$1?_GUID_b196b287_bab4_101a_b69c_00aa00341d07@@3U__s_GUID@@BUtagCONNECTDATA@@V?$_Copy@UtagCONNECTDATA@@@ATL@@@ATL@@QEAAJPEAUtagCONNECTDATA@@0PEAUIUnknown@@W4CComEnumFlags@2@@Z 000000018001f000 f i RemoteOrderDisplay.obj
 0001:0001e2f0       ?Init@CComFakeCriticalSection@ATL@@QEAAJXZ 000000018001f2f0 f i RemoteOrderDisplay.obj
 0001:0001e300       ?Init@CComModule@ATL@@QEAAJPEAU_ATL_OBJMAP_ENTRY30@2@PEAUHINSTANCE__@@PEBU_GUID@@@Z 000000018001f300 f i RemoteOrderDisplay.obj
 0001:0001e3f0       ?Init@CComSafeDeleteCriticalSection@ATL@@QEAAJXZ 000000018001f3f0 f i RemoteOrderDisplay.obj
 0001:0001e480       ?Init@CDynamicStdCallThunk2@ATL@@QEAAH_KPEAX@Z 000000018001f480 f i RemoteOrderDisplay.obj
 0001:0001e500       ?Init@CWndProcThunk@ATL@@QEAAHP6A_JPEAUHWND__@@I_K_J@ZPEAX@Z 000000018001f500 f i RemoteOrderDisplay.obj
 0001:0001e550       ?InitFromData@?$IOleObjectImpl@VCOPOSRemoteOrderDisplay@@@ATL@@UEAAJPEAUIDataObject@@HK@Z 000000018001f550 f i RemoteOrderDisplay.obj
 0001:0001e5e0       ?InitLibId@?$CAtlModuleT@VCComModule@ATL@@@ATL@@SAXXZ 000000018001f5e0 f i RemoteOrderDisplay.obj
 0001:0001e5f0       ?InitNew@?$IPersistStorageImpl@VCOPOSRemoteOrderDisplay@@@ATL@@UEAAJPEAUIStorage@@@Z 000000018001f5f0 f i RemoteOrderDisplay.obj
 0001:0001e6e0       ?InitNew@?$IPersistStreamInitImpl@VCOPOSRemoteOrderDisplay@@@ATL@@UEAAJXZ 000000018001f6e0 f i RemoteOrderDisplay.obj
 0001:0001e790       ?InlineIsEqualUnknown@ATL@@YAHAEBU_GUID@@@Z 000000018001f790 f i RemoteOrderDisplay.obj
 0001:0001e820       ?InternalAddRef@?$CComObjectRootEx@VCComMultiThreadModel@ATL@@@ATL@@QEAAKXZ 000000018001f820 f i RemoteOrderDisplay.obj
 0001:0001e8a0       ?InternalAddRef@?$CComObjectRootEx@VCComSingleThreadModel@ATL@@@ATL@@QEAAKXZ 000000018001f8a0 f i RemoteOrderDisplay.obj
 0001:0001e920       ?InternalFinalConstructAddRef@CComObjectRootBase@ATL@@QEAAXXZ 000000018001f920 f i RemoteOrderDisplay.obj
 0001:0001e930       ?InternalFinalConstructAddRef@COPOSRemoteOrderDisplay@@QEAAXXZ 000000018001f930 f i RemoteOrderDisplay.obj
 0001:0001e970       ?InternalFinalConstructRelease@CComObjectRootBase@ATL@@QEAAXXZ 000000018001f970 f i RemoteOrderDisplay.obj
 0001:0001e9e0       ?InternalFinalConstructRelease@COPOSRemoteOrderDisplay@@QEAAXXZ 000000018001f9e0 f i RemoteOrderDisplay.obj
 0001:0001ea20       ?InternalGetSite@CComControlBase@ATL@@QEAAJAEBU_GUID@@PEAPEAX@Z 000000018001fa20 f i RemoteOrderDisplay.obj
 0001:0001eb00       ?InternalQueryInterface@CComObjectRootBase@ATL@@SAJPEAXPEBU_ATL_INTMAP_ENTRY@2@AEBU_GUID@@PEAPEAX@Z 000000018001fb00 f i RemoteOrderDisplay.obj
 0001:0001ec20       ?InternalRelease@?$CComObjectRootEx@VCComMultiThreadModel@ATL@@@ATL@@QEAAKXZ 000000018001fc20 f i RemoteOrderDisplay.obj
 0001:0001eca0       ?InternalRelease@?$CComObjectRootEx@VCComSingleThreadModel@ATL@@@ATL@@QEAAKXZ 000000018001fca0 f i RemoteOrderDisplay.obj
 0001:0001ed20       ?InternalSetAtIndex@?$CSimpleArray@GV?$CSimpleArrayEqualHelper@G@ATL@@@ATL@@QEAAXHAEBG@Z 000000018001fd20 f i RemoteOrderDisplay.obj
 0001:0001eda0       ?InternalSetAtIndex@?$CSimpleMap@PEA_WPEA_WVCExpansionVectorEqualHelper@ATL@@@ATL@@QEAAXHAEBQEA_W0@Z 000000018001fda0 f i RemoteOrderDisplay.obj
 0001:0001ee70       ?Invoke@?$IDispatchImpl@UIOPOSRemoteOrderDisplay@@$1?IID_IOPOSRemoteOrderDisplay@@3U_GUID@@B$1?LIBID_OposRemoteOrderDisplay_CCO@@3U3@B$00$0A@VCComTypeInfoHolder@ATL@@@ATL@@UEAAJJAEBU_GUID@@KGPEAUtagDISPPARAMS@@PEAUtagVARIANT@@PEAUtagEXCEPINFO@@PEAI@Z 000000018001fe70 f i RemoteOrderDisplay.obj
 0001:0001ef10       ?Invoke@CComTypeInfoHolder@ATL@@QEAAJPEAUIDispatch@@JAEBU_GUID@@KGPEAUtagDISPPARAMS@@PEAUtagVARIANT@@PEAUtagEXCEPINFO@@PEAI@Z 000000018001ff10 f i RemoteOrderDisplay.obj
 0001:0001efd0       ?IsDirty@?$IPersistStorageImpl@VCOPOSRemoteOrderDisplay@@@ATL@@UEAAJXZ 000000018001ffd0 f i RemoteOrderDisplay.obj
 0001:0001f0c0       ?IsDirty@?$IPersistStreamInitImpl@VCOPOSRemoteOrderDisplay@@@ATL@@UEAAJXZ 00000001800200c0 f i RemoteOrderDisplay.obj
 0001:0001f180       ?IsEqualKey@CExpansionVectorEqualHelper@ATL@@SA_NQEA_W0@Z 0000000180020180 f i RemoteOrderDisplay.obj
 0001:0001f1d0       ?IsEqualObject@?$CComPtrBase@UIOleClientSite@@@ATL@@QEAA_NPEAUIUnknown@@@Z 00000001800201d0 f i RemoteOrderDisplay.obj
 0001:0001f320       ?IsEqualObject@?$CComPtrBase@UITypeInfo@@@ATL@@QEAA_NPEAUIUnknown@@@Z 0000000180020320 f i RemoteOrderDisplay.obj
 0001:0001f470       ?IsSpace@CRegParser@ATL@@IEAAH_W@Z 0000000180020470 f i RemoteOrderDisplay.obj
 0001:0001f4d0       ?IsUpToDate@?$IOleObjectImpl@VCOPOSRemoteOrderDisplay@@@ATL@@UEAAJXZ 00000001800204d0 f i RemoteOrderDisplay.obj
 0001:0001f540       ?Length@CComBSTR@ATL@@QEBAIXZ 0000000180020540 f i RemoteOrderDisplay.obj
 0001:0001f580       ?Load@?$IPersistStorageImpl@VCOPOSRemoteOrderDisplay@@@ATL@@UEAAJPEAUIStorage@@@Z 0000000180020580 f i RemoteOrderDisplay.obj
 0001:0001f730       ?Load@?$IPersistStreamInitImpl@VCOPOSRemoteOrderDisplay@@@ATL@@UEAAJPEAUIStream@@@Z 0000000180020730 f i RemoteOrderDisplay.obj
 0001:0001f7f0       ?LoadCursorW@AtlModuleRegisterWndClassInfoParamW@ATL@@SAPEAUHICON__@@PEAUHINSTANCE__@@PEB_W@Z 00000001800207f0 f i RemoteOrderDisplay.obj
 0001:0001f830       ?LoadNameCache@CComTypeInfoHolder@ATL@@QEAAJPEAUITypeInfo@@@Z 0000000180020830 f i RemoteOrderDisplay.obj
 0001:0001fb70       ?Lock@?$CComCritSecLock@VCComCriticalSection@ATL@@@ATL@@QEAAJXZ 0000000180020b70 f i RemoteOrderDisplay.obj
 0001:0001fc60       ?Lock@?$CComObjectRootEx@VCComSingleThreadModel@ATL@@@ATL@@QEAAXXZ 0000000180020c60 f i RemoteOrderDisplay.obj
 0001:0001fc70       ?Lock@CAtlModule@ATL@@UEAAJXZ 0000000180020c70 f i RemoteOrderDisplay.obj
 0001:0001fcb0       ?Lock@CComCriticalSection@ATL@@QEAAJXZ 0000000180020cb0 f i RemoteOrderDisplay.obj
 0001:0001fcf0       ?Lock@CComFakeCriticalSection@ATL@@QEAAJXZ 0000000180020cf0 f i RemoteOrderDisplay.obj
 0001:0001fd00       ?LockServer@CComClassFactory@ATL@@UEAAJH@Z 0000000180020d00 f i RemoteOrderDisplay.obj
 0001:0001fd60       ?Lookup@?$CSimpleMap@PEA_WPEA_WVCExpansionVectorEqualHelper@ATL@@@ATL@@QEBAPEA_WAEBQEA_W@Z 0000000180020d60 f i RemoteOrderDisplay.obj
 0001:0001fdc0       ?Next@?$CComEnumImpl@UIEnumConnectionPoints@@$1?_GUID_b196b285_bab4_101a_b69c_00aa00341d07@@3U__s_GUID@@BPEAUIConnectionPoint@@V?$_CopyInterface@UIConnectionPoint@@@ATL@@@ATL@@UEAAJKPEAPEAUIConnectionPoint@@PEAK@Z 0000000180020dc0 f i RemoteOrderDisplay.obj
 0001:0001ff80       ?Next@?$CComEnumImpl@UIEnumConnections@@$1?_GUID_b196b287_bab4_101a_b69c_00aa00341d07@@3U__s_GUID@@BUtagCONNECTDATA@@V?$_Copy@UtagCONNECTDATA@@@ATL@@@ATL@@UEAAJKPEAUtagCONNECTDATA@@PEAK@Z 0000000180020f80 f i RemoteOrderDisplay.obj
 0001:00020140       ?NextToken@CRegParser@ATL@@IEAAJPEA_W@Z 0000000180021140 f i RemoteOrderDisplay.obj
 0001:000204d0       ?OLE2CT_EX@@YAPEB_WPEB_WI@Z 00000001800214d0 f i RemoteOrderDisplay.obj
 0001:000204f0       ?OLE2CT_EX_DEF@@YAPEB_WPEB_W@Z 00000001800214f0 f i RemoteOrderDisplay.obj
 0001:00020500       ?OLE2T_EX@@YAPEA_WPEA_WI@Z 0000000180021500 f i RemoteOrderDisplay.obj
 0001:00020520       ?OnAmbientPropertyChange@?$IOleControlImpl@VCOPOSRemoteOrderDisplay@@@ATL@@UEAAJJ@Z 0000000180021520 f i RemoteOrderDisplay.obj
 0001:000205e0       ?OnDocWindowActivate@?$IOleInPlaceActiveObjectImpl@VCOPOSRemoteOrderDisplay@@@ATL@@UEAAJH@Z 00000001800215e0 f i RemoteOrderDisplay.obj
 0001:000206a0       ?OnDrawAdvanced@CComControlBase@ATL@@UEAAJAEAUATL_DRAWINFO@@@Z 00000001800216a0 f i RemoteOrderDisplay.obj
 0001:000208f0       ?OnFinalMessage@?$CWindowImplBaseT@VCWindow@ATL@@V?$CWinTraits@$0FGAAAAAA@$0A@@2@@ATL@@UEAAXPEAUHWND__@@@Z 00000001800218f0 f i RemoteOrderDisplay.obj
 0001:00020900       ?OnFrameWindowActivate@?$IOleInPlaceActiveObjectImpl@VCOPOSRemoteOrderDisplay@@@ATL@@UEAAJH@Z 0000000180021900 f i RemoteOrderDisplay.obj
 0001:00020970       ?OnKillFocus@CComControlBase@ATL@@QEAA_JI_K_JAEAH@Z 0000000180021970 f i RemoteOrderDisplay.obj
 0001:00020a60       ?OnMnemonic@?$IOleControlImpl@VCOPOSRemoteOrderDisplay@@@ATL@@UEAAJPEAUtagMSG@@@Z 0000000180021a60 f i RemoteOrderDisplay.obj
 0001:00020af0       ?OnMouseActivate@CComControlBase@ATL@@QEAA_JI_K_JAEAH@Z 0000000180021af0 f i RemoteOrderDisplay.obj
 0001:00020c90       ?OnPaint@CComControlBase@ATL@@QEAA_JI_K_JAEAH@Z 0000000180021c90 f i RemoteOrderDisplay.obj
 0001:00020e20       ?OnPostVerbDiscardUndo@?$IOleObjectImpl@VCOPOSRemoteOrderDisplay@@@ATL@@QEAAJXZ 0000000180021e20 f i RemoteOrderDisplay.obj
 0001:00020e30       ?OnPostVerbHide@?$IOleObjectImpl@VCOPOSRemoteOrderDisplay@@@ATL@@QEAAJXZ 0000000180021e30 f i RemoteOrderDisplay.obj
 0001:00020e40       ?OnPostVerbInPlaceActivate@?$IOleObjectImpl@VCOPOSRemoteOrderDisplay@@@ATL@@QEAAJXZ 0000000180021e40 f i RemoteOrderDisplay.obj
 0001:00020e50       ?OnPostVerbOpen@?$IOleObjectImpl@VCOPOSRemoteOrderDisplay@@@ATL@@QEAAJXZ 0000000180021e50 f i RemoteOrderDisplay.obj
 0001:00020e60       ?OnPostVerbShow@?$IOleObjectImpl@VCOPOSRemoteOrderDisplay@@@ATL@@QEAAJXZ 0000000180021e60 f i RemoteOrderDisplay.obj
 0001:00020e70       ?OnPostVerbUIActivate@?$IOleObjectImpl@VCOPOSRemoteOrderDisplay@@@ATL@@QEAAJXZ 0000000180021e70 f i RemoteOrderDisplay.obj
 0001:00020e80       ?OnPreVerbDiscardUndo@?$IOleObjectImpl@VCOPOSRemoteOrderDisplay@@@ATL@@QEAAJXZ 0000000180021e80 f i RemoteOrderDisplay.obj
 0001:00020e90       ?OnPreVerbHide@?$IOleObjectImpl@VCOPOSRemoteOrderDisplay@@@ATL@@QEAAJXZ 0000000180021e90 f i RemoteOrderDisplay.obj
 0001:00020ea0       ?OnPreVerbInPlaceActivate@?$IOleObjectImpl@VCOPOSRemoteOrderDisplay@@@ATL@@QEAAJXZ 0000000180021ea0 f i RemoteOrderDisplay.obj
 0001:00020eb0       ?OnPreVerbOpen@?$IOleObjectImpl@VCOPOSRemoteOrderDisplay@@@ATL@@QEAAJXZ 0000000180021eb0 f i RemoteOrderDisplay.obj
 0001:00020ec0       ?OnPreVerbShow@?$IOleObjectImpl@VCOPOSRemoteOrderDisplay@@@ATL@@QEAAJXZ 0000000180021ec0 f i RemoteOrderDisplay.obj
 0001:00020ed0       ?OnPreVerbUIActivate@?$IOleObjectImpl@VCOPOSRemoteOrderDisplay@@@ATL@@QEAAJXZ 0000000180021ed0 f i RemoteOrderDisplay.obj
 0001:00020ee0       ?OnSetFocus@CComControlBase@ATL@@QEAA_JI_K_JAEAH@Z 0000000180021ee0 f i RemoteOrderDisplay.obj
 0001:000210e0       ?OnWindowMessage@?$IOleInPlaceObjectWindowlessImpl@VCOPOSRemoteOrderDisplay@@@ATL@@UEAAJI_K_JPEA_J@Z 00000001800220e0 f i RemoteOrderDisplay.obj
 0001:00021300       ?Open@CRegKey@ATL@@QEAAJPEAUHKEY__@@PEB_WK@Z 0000000180022300 f i RemoteOrderDisplay.obj
 0001:00021480       ?OuterAddRef@CComObjectRootBase@ATL@@QEAAKXZ 0000000180022480 f i RemoteOrderDisplay.obj
 0001:000214c0       ?OuterQueryInterface@CComObjectRootBase@ATL@@QEAAJAEBU_GUID@@PEAPEAX@Z 00000001800224c0 f i RemoteOrderDisplay.obj
 0001:00021510       ?OuterRelease@CComObjectRootBase@ATL@@QEAAKXZ 0000000180022510 f i RemoteOrderDisplay.obj
 0001:00021550       ?PreProcessBuffer@CRegParser@ATL@@QEAAJPEA_WPEAPEA_W@Z 0000000180022550 f i RemoteOrderDisplay.obj
 0001:00021c30       ?PreTranslateAccelerator@CComControlBase@ATL@@QEAAHPEAUtagMSG@@AEAJ@Z 0000000180022c30 f i RemoteOrderDisplay.obj
 0001:00021c50       ?ProcessWindowMessage@?$CComControl@VCOPOSRemoteOrderDisplay@@V?$CWindowImpl@VCOPOSRemoteOrderDisplay@@VCWindow@ATL@@V?$CWinTraits@$0FGAAAAAA@$0A@@3@@ATL@@@ATL@@UEAAHPEAUHWND__@@I_K_JAEA_JK@Z 0000000180022c50 f i RemoteOrderDisplay.obj
 0001:00021ed0       ?ProcessWindowMessage@COPOSRemoteOrderDisplay@@UEAAHPEAUHWND__@@I_K_JAEA_JK@Z 0000000180022ed0 f i RemoteOrderDisplay.obj
 0001:00022050       ?PutProperty@?$CComPtr@UIDispatch@@@ATL@@QEAAJJPEAUtagVARIANT@@@Z 0000000180023050 f i RemoteOrderDisplay.obj
 0001:000220a0       ?PutProperty@?$CComPtr@UIDispatch@@@ATL@@SAJPEAUIDispatch@@JPEAUtagVARIANT@@@Z 00000001800230a0 f i RemoteOrderDisplay.obj
 0001:00022340       ?QueryGetData@?$IDataObjectImpl@VCOPOSRemoteOrderDisplay@@@ATL@@UEAAJPEAUtagFORMATETC@@@Z 0000000180023340 f i RemoteOrderDisplay.obj
 0001:000223d0       ?QueryHitPoint@?$IViewObjectExImpl@VCOPOSRemoteOrderDisplay@@@ATL@@UEAAJKPEBUtagRECT@@UtagPOINT@@JPEAK@Z 00000001800233d0 f i RemoteOrderDisplay.obj
 0001:00022540       ?QueryHitRect@?$IViewObjectExImpl@VCOPOSRemoteOrderDisplay@@@ATL@@UEAAJKPEBUtagRECT@@0JPEAK@Z 0000000180023540 f i RemoteOrderDisplay.obj
 0001:00022710       ?QueryInterface@?$CComAggObject@VCOPOSRemoteOrderDisplay@@@ATL@@UEAAJAEBU_GUID@@PEAPEAX@Z 0000000180023710 f i RemoteOrderDisplay.obj
 0001:00022800       ?QueryInterface@?$CComContainedObject@VCOPOSRemoteOrderDisplay@@@ATL@@UEAAJAEBU_GUID@@PEAPEAX@Z 0000000180023800 f i RemoteOrderDisplay.obj
 0001:0002284c       ?QueryInterface@?$CComContainedObject@VCOPOSRemoteOrderDisplay@@@ATL@@WBAA@EAAJAEBU_GUID@@PEAPEAX@Z 000000018002384c f i RemoteOrderDisplay.obj
 0001:00022858       ?QueryInterface@?$CComContainedObject@VCOPOSRemoteOrderDisplay@@@ATL@@WBAI@EAAJAEBU_GUID@@PEAPEAX@Z 0000000180023858 f i RemoteOrderDisplay.obj
 0001:00022864       ?QueryInterface@?$CComContainedObject@VCOPOSRemoteOrderDisplay@@@ATL@@WBBA@EAAJAEBU_GUID@@PEAPEAX@Z 0000000180023864 f i RemoteOrderDisplay.obj
 0001:00022870       ?QueryInterface@?$CComContainedObject@VCOPOSRemoteOrderDisplay@@@ATL@@WBBI@EAAJAEBU_GUID@@PEAPEAX@Z 0000000180023870 f i RemoteOrderDisplay.obj
 0001:0002287c       ?QueryInterface@?$CComContainedObject@VCOPOSRemoteOrderDisplay@@@ATL@@WLI@EAAJAEBU_GUID@@PEAPEAX@Z 000000018002387c f i RemoteOrderDisplay.obj
 0001:00022888       ?QueryInterface@?$CComContainedObject@VCOPOSRemoteOrderDisplay@@@ATL@@WMA@EAAJAEBU_GUID@@PEAPEAX@Z 0000000180023888 f i RemoteOrderDisplay.obj
 0001:00022894       ?QueryInterface@?$CComContainedObject@VCOPOSRemoteOrderDisplay@@@ATL@@WMI@EAAJAEBU_GUID@@PEAPEAX@Z 0000000180023894 f i RemoteOrderDisplay.obj
 0001:000228a0       ?QueryInterface@?$CComContainedObject@VCOPOSRemoteOrderDisplay@@@ATL@@WNA@EAAJAEBU_GUID@@PEAPEAX@Z 00000001800238a0 f i RemoteOrderDisplay.obj
 0001:000228ac       ?QueryInterface@?$CComContainedObject@VCOPOSRemoteOrderDisplay@@@ATL@@WNI@EAAJAEBU_GUID@@PEAPEAX@Z 00000001800238ac f i RemoteOrderDisplay.obj
 0001:000228b8       ?QueryInterface@?$CComContainedObject@VCOPOSRemoteOrderDisplay@@@ATL@@WOA@EAAJAEBU_GUID@@PEAPEAX@Z 00000001800238b8 f i RemoteOrderDisplay.obj
 0001:000228c4       ?QueryInterface@?$CComContainedObject@VCOPOSRemoteOrderDisplay@@@ATL@@WOI@EAAJAEBU_GUID@@PEAPEAX@Z 00000001800238c4 f i RemoteOrderDisplay.obj
 0001:000228d0       ?QueryInterface@?$CComContainedObject@VCOPOSRemoteOrderDisplay@@@ATL@@WPA@EAAJAEBU_GUID@@PEAPEAX@Z 00000001800238d0 f i RemoteOrderDisplay.obj
 0001:000228dc       ?QueryInterface@?$CComContainedObject@VCOPOSRemoteOrderDisplay@@@ATL@@WPI@EAAJAEBU_GUID@@PEAPEAX@Z 00000001800238dc f i RemoteOrderDisplay.obj
 0001:000228f0       ?QueryInterface@?$CComObject@V?$CComEnum@UIEnumConnectionPoints@@$1?_GUID_b196b285_bab4_101a_b69c_00aa00341d07@@3U__s_GUID@@BPEAUIConnectionPoint@@V?$_CopyInterface@UIConnectionPoint@@@ATL@@VCComSingleThreadModel@6@@ATL@@@ATL@@UEAAJAEBU_GUID@@PEAPEAX@Z 00000001800238f0 f i RemoteOrderDisplay.obj
 0001:00022940       ?QueryInterface@?$CComObject@V?$CComEnum@UIEnumConnections@@$1?_GUID_b196b287_bab4_101a_b69c_00aa00341d07@@3U__s_GUID@@BUtagCONNECTDATA@@V?$_Copy@UtagCONNECTDATA@@@ATL@@VCComSingleThreadModel@6@@ATL@@@ATL@@UEAAJAEBU_GUID@@PEAPEAX@Z 0000000180023940 f i RemoteOrderDisplay.obj
 0001:00022990       ?QueryInterface@?$CComObject@VCOPOSRemoteOrderDisplay@@@ATL@@UEAAJAEBU_GUID@@PEAPEAX@Z 0000000180023990 f i RemoteOrderDisplay.obj
 0001:000229d4       ?QueryInterface@?$CComObject@VCOPOSRemoteOrderDisplay@@@ATL@@WBAA@EAAJAEBU_GUID@@PEAPEAX@Z 00000001800239d4 f i RemoteOrderDisplay.obj
 0001:000229e0       ?QueryInterface@?$CComObject@VCOPOSRemoteOrderDisplay@@@ATL@@WBAI@EAAJAEBU_GUID@@PEAPEAX@Z 00000001800239e0 f i RemoteOrderDisplay.obj
 0001:000229ec       ?QueryInterface@?$CComObject@VCOPOSRemoteOrderDisplay@@@ATL@@WBBA@EAAJAEBU_GUID@@PEAPEAX@Z 00000001800239ec f i RemoteOrderDisplay.obj
 0001:000229f8       ?QueryInterface@?$CComObject@VCOPOSRemoteOrderDisplay@@@ATL@@WBBI@EAAJAEBU_GUID@@PEAPEAX@Z 00000001800239f8 f i RemoteOrderDisplay.obj
 0001:00022a04       ?QueryInterface@?$CComObject@VCOPOSRemoteOrderDisplay@@@ATL@@WLI@EAAJAEBU_GUID@@PEAPEAX@Z 0000000180023a04 f i RemoteOrderDisplay.obj
 0001:00022a10       ?QueryInterface@?$CComObject@VCOPOSRemoteOrderDisplay@@@ATL@@WMA@EAAJAEBU_GUID@@PEAPEAX@Z 0000000180023a10 f i RemoteOrderDisplay.obj
 0001:00022a1c       ?QueryInterface@?$CComObject@VCOPOSRemoteOrderDisplay@@@ATL@@WMI@EAAJAEBU_GUID@@PEAPEAX@Z 0000000180023a1c f i RemoteOrderDisplay.obj
 0001:00022a28       ?QueryInterface@?$CComObject@VCOPOSRemoteOrderDisplay@@@ATL@@WNA@EAAJAEBU_GUID@@PEAPEAX@Z 0000000180023a28 f i RemoteOrderDisplay.obj
 0001:00022a34       ?QueryInterface@?$CComObject@VCOPOSRemoteOrderDisplay@@@ATL@@WNI@EAAJAEBU_GUID@@PEAPEAX@Z 0000000180023a34 f i RemoteOrderDisplay.obj
 0001:00022a40       ?QueryInterface@?$CComObject@VCOPOSRemoteOrderDisplay@@@ATL@@WOA@EAAJAEBU_GUID@@PEAPEAX@Z 0000000180023a40 f i RemoteOrderDisplay.obj
 0001:00022a4c       ?QueryInterface@?$CComObject@VCOPOSRemoteOrderDisplay@@@ATL@@WOI@EAAJAEBU_GUID@@PEAPEAX@Z 0000000180023a4c f i RemoteOrderDisplay.obj
 0001:00022a58       ?QueryInterface@?$CComObject@VCOPOSRemoteOrderDisplay@@@ATL@@WPA@EAAJAEBU_GUID@@PEAPEAX@Z 0000000180023a58 f i RemoteOrderDisplay.obj
 0001:00022a64       ?QueryInterface@?$CComObject@VCOPOSRemoteOrderDisplay@@@ATL@@WPI@EAAJAEBU_GUID@@PEAPEAX@Z 0000000180023a64 f i RemoteOrderDisplay.obj
 0001:00022a70       ?QueryInterface@?$CComObjectCached@VCComClassFactory@ATL@@@ATL@@UEAAJAEBU_GUID@@PEAPEAX@Z 0000000180023a70 f i RemoteOrderDisplay.obj
 0001:00022ac0       ?QueryInterface@CRegObject@ATL@@UEAAJAEBU_GUID@@PEAPEAX@Z 0000000180023ac0 f i RemoteOrderDisplay.obj
 0001:00022b40       ?QuickActivate@?$IQuickActivateImpl@VCOPOSRemoteOrderDisplay@@@ATL@@UEAAJPEAUtagQACONTAINER@@PEAUtagQACONTROL@@@Z 0000000180023b40 f i RemoteOrderDisplay.obj
 0001:00022c00       ?ReactivateAndUndo@?$IOleInPlaceObjectWindowlessImpl@VCOPOSRemoteOrderDisplay@@@ATL@@UEAAJXZ 0000000180023c00 f i RemoteOrderDisplay.obj
 0001:00022c80       ?ReadFromStream@CComBSTR@ATL@@QEAAJPEAUIStream@@@Z 0000000180023c80 f i RemoteOrderDisplay.obj
 0001:00023160       ?ReadFromStream@CComVariant@ATL@@QEAAJPEAUIStream@@GTClassesAllowedInStream@2@K@Z 0000000180024160 f i RemoteOrderDisplay.obj
 0001:00023590       ?RecurseDeleteKey@CRegKey@ATL@@QEAAJPEB_W@Z 0000000180024590 f i RemoteOrderDisplay.obj
 0001:000237b0       ?RegCreateKeyExW@CAtlTransactionManager@ATL@@QEAAJPEAUHKEY__@@PEB_WKPEA_WKKQEAU_SECURITY_ATTRIBUTES@@PEAPEAU3@PEAK@Z 00000001800247b0 f i RemoteOrderDisplay.obj
 0001:00023980       ?RegDeleteKeyW@CAtlTransactionManager@ATL@@QEAAJPEAUHKEY__@@PEB_W@Z 0000000180024980 f i RemoteOrderDisplay.obj
 0001:00023a90       ?RegOpenKeyExW@CAtlTransactionManager@ATL@@QEAAJPEAUHKEY__@@PEB_WKKPEAPEAU3@@Z 0000000180024a90 f i RemoteOrderDisplay.obj
 0001:00023be0       ?Register@_ATL_WNDCLASSINFOW@ATL@@QEAAGPEAP6A_JPEAUHWND__@@I_K_J@Z@Z 0000000180024be0 f i RemoteOrderDisplay.obj
 0001:00023c30       ?RegisterBuffer@CRegParser@ATL@@QEAAJPEA_WH@Z 0000000180024c30 f i RemoteOrderDisplay.obj
 0001:00024020       ?RegisterClassExW@AtlModuleRegisterWndClassInfoParamW@ATL@@SAGPEAU_ATL_WIN_MODULE70@2@PEBUtagWNDCLASSEXW@@@Z 0000000180025020 f i RemoteOrderDisplay.obj
 0001:00024060       ?RegisterFromResource@CRegObject@ATL@@IEAAJPEB_W00H@Z 0000000180025060 f i RemoteOrderDisplay.obj
 0001:000244c0       ?RegisterServer@?$CAtlModuleT@VCComModule@ATL@@@ATL@@QEAAJHPEBU_GUID@@@Z 00000001800254c0 f i RemoteOrderDisplay.obj
 0001:00024540       ?RegisterServer@CAtlComModule@ATL@@QEAAJHPEBU_GUID@@@Z 0000000180025540 f i RemoteOrderDisplay.obj
 0001:00024580       ?RegisterServer@CComModule@ATL@@QEAAJHPEBU_GUID@@@Z 0000000180025580 f i RemoteOrderDisplay.obj
 0001:00024680       ?RegisterSubkeys@CRegParser@ATL@@IEAAJPEA_WPEAUHKEY__@@HH@Z 0000000180025680 f i RemoteOrderDisplay.obj
 0001:00025460       ?Release@?$CComAggObject@VCOPOSRemoteOrderDisplay@@@ATL@@UEAAKXZ 0000000180026460 f i RemoteOrderDisplay.obj
 0001:00025510       ?Release@?$CComContainedObject@VCOPOSRemoteOrderDisplay@@@ATL@@UEAAKXZ 0000000180026510 f i RemoteOrderDisplay.obj
 0001:00025548       ?Release@?$CComContainedObject@VCOPOSRemoteOrderDisplay@@@ATL@@WBAA@EAAKXZ 0000000180026548 f i RemoteOrderDisplay.obj
 0001:00025554       ?Release@?$CComContainedObject@VCOPOSRemoteOrderDisplay@@@ATL@@WBAI@EAAKXZ 0000000180026554 f i RemoteOrderDisplay.obj
 0001:00025560       ?Release@?$CComContainedObject@VCOPOSRemoteOrderDisplay@@@ATL@@WBBA@EAAKXZ 0000000180026560 f i RemoteOrderDisplay.obj
 0001:0002556c       ?Release@?$CComContainedObject@VCOPOSRemoteOrderDisplay@@@ATL@@WBBI@EAAKXZ 000000018002656c f i RemoteOrderDisplay.obj
 0001:00025578       ?Release@?$CComContainedObject@VCOPOSRemoteOrderDisplay@@@ATL@@WBCI@EAAKXZ 0000000180026578 f i RemoteOrderDisplay.obj
 0001:00025584       ?Release@?$CComContainedObject@VCOPOSRemoteOrderDisplay@@@ATL@@WBEA@EAAKXZ 0000000180026584 f i RemoteOrderDisplay.obj
 0001:00025590       ?Release@?$CComContainedObject@VCOPOSRemoteOrderDisplay@@@ATL@@WLI@EAAKXZ 0000000180026590 f i RemoteOrderDisplay.obj
 0001:0002559c       ?Release@?$CComContainedObject@VCOPOSRemoteOrderDisplay@@@ATL@@WMA@EAAKXZ 000000018002659c f i RemoteOrderDisplay.obj
 0001:000255a8       ?Release@?$CComContainedObject@VCOPOSRemoteOrderDisplay@@@ATL@@WMI@EAAKXZ 00000001800265a8 f i RemoteOrderDisplay.obj
 0001:000255b4       ?Release@?$CComContainedObject@VCOPOSRemoteOrderDisplay@@@ATL@@WNA@EAAKXZ 00000001800265b4 f i RemoteOrderDisplay.obj
 0001:000255c0       ?Release@?$CComContainedObject@VCOPOSRemoteOrderDisplay@@@ATL@@WNI@EAAKXZ 00000001800265c0 f i RemoteOrderDisplay.obj
 0001:000255cc       ?Release@?$CComContainedObject@VCOPOSRemoteOrderDisplay@@@ATL@@WOA@EAAKXZ 00000001800265cc f i RemoteOrderDisplay.obj
 0001:000255d8       ?Release@?$CComContainedObject@VCOPOSRemoteOrderDisplay@@@ATL@@WOI@EAAKXZ 00000001800265d8 f i RemoteOrderDisplay.obj
 0001:000255e4       ?Release@?$CComContainedObject@VCOPOSRemoteOrderDisplay@@@ATL@@WPA@EAAKXZ 00000001800265e4 f i RemoteOrderDisplay.obj
 0001:000255f0       ?Release@?$CComContainedObject@VCOPOSRemoteOrderDisplay@@@ATL@@WPI@EAAKXZ 00000001800265f0 f i RemoteOrderDisplay.obj
 0001:00025600       ?Release@?$CComObject@V?$CComEnum@UIEnumConnectionPoints@@$1?_GUID_b196b285_bab4_101a_b69c_00aa00341d07@@3U__s_GUID@@BPEAUIConnectionPoint@@V?$_CopyInterface@UIConnectionPoint@@@ATL@@VCComSingleThreadModel@6@@ATL@@@ATL@@UEAAKXZ 0000000180026600 f i RemoteOrderDisplay.obj
 0001:000256b0       ?Release@?$CComObject@V?$CComEnum@UIEnumConnections@@$1?_GUID_b196b287_bab4_101a_b69c_00aa00341d07@@3U__s_GUID@@BUtagCONNECTDATA@@V?$_Copy@UtagCONNECTDATA@@@ATL@@VCComSingleThreadModel@6@@ATL@@@ATL@@UEAAKXZ 00000001800266b0 f i RemoteOrderDisplay.obj
 0001:00025760       ?Release@?$CComObject@VCOPOSRemoteOrderDisplay@@@ATL@@UEAAKXZ 0000000180026760 f i RemoteOrderDisplay.obj
 0001:00025818       ?Release@?$CComObject@VCOPOSRemoteOrderDisplay@@@ATL@@WBAA@EAAKXZ 0000000180026818 f i RemoteOrderDisplay.obj
 0001:00025824       ?Release@?$CComObject@VCOPOSRemoteOrderDisplay@@@ATL@@WBAI@EAAKXZ 0000000180026824 f i RemoteOrderDisplay.obj
 0001:00025830       ?Release@?$CComObject@VCOPOSRemoteOrderDisplay@@@ATL@@WBBA@EAAKXZ 0000000180026830 f i RemoteOrderDisplay.obj
 0001:0002583c       ?Release@?$CComObject@VCOPOSRemoteOrderDisplay@@@ATL@@WBBI@EAAKXZ 000000018002683c f i RemoteOrderDisplay.obj
 0001:00025848       ?Release@?$CComObject@VCOPOSRemoteOrderDisplay@@@ATL@@WBCI@EAAKXZ 0000000180026848 f i RemoteOrderDisplay.obj
 0001:00025854       ?Release@?$CComObject@VCOPOSRemoteOrderDisplay@@@ATL@@WBEA@EAAKXZ 0000000180026854 f i RemoteOrderDisplay.obj
 0001:00025860       ?Release@?$CComObject@VCOPOSRemoteOrderDisplay@@@ATL@@WLI@EAAKXZ 0000000180026860 f i RemoteOrderDisplay.obj
 0001:0002586c       ?Release@?$CComObject@VCOPOSRemoteOrderDisplay@@@ATL@@WMA@EAAKXZ 000000018002686c f i RemoteOrderDisplay.obj
 0001:00025878       ?Release@?$CComObject@VCOPOSRemoteOrderDisplay@@@ATL@@WMI@EAAKXZ 0000000180026878 f i RemoteOrderDisplay.obj
 0001:00025884       ?Release@?$CComObject@VCOPOSRemoteOrderDisplay@@@ATL@@WNA@EAAKXZ 0000000180026884 f i RemoteOrderDisplay.obj
 0001:00025890       ?Release@?$CComObject@VCOPOSRemoteOrderDisplay@@@ATL@@WNI@EAAKXZ 0000000180026890 f i RemoteOrderDisplay.obj
 0001:0002589c       ?Release@?$CComObject@VCOPOSRemoteOrderDisplay@@@ATL@@WOA@EAAKXZ 000000018002689c f i RemoteOrderDisplay.obj
 0001:000258a8       ?Release@?$CComObject@VCOPOSRemoteOrderDisplay@@@ATL@@WOI@EAAKXZ 00000001800268a8 f i RemoteOrderDisplay.obj
 0001:000258b4       ?Release@?$CComObject@VCOPOSRemoteOrderDisplay@@@ATL@@WPA@EAAKXZ 00000001800268b4 f i RemoteOrderDisplay.obj
 0001:000258c0       ?Release@?$CComObject@VCOPOSRemoteOrderDisplay@@@ATL@@WPI@EAAKXZ 00000001800268c0 f i RemoteOrderDisplay.obj
 0001:000258d0       ?Release@?$CComObjectCached@VCComClassFactory@ATL@@@ATL@@UEAAKXZ 00000001800268d0 f i RemoteOrderDisplay.obj
 0001:00025970       ?Release@?$CComPtrBase@UIAdviseSink@@@ATL@@QEAAXXZ 0000000180026970 f i RemoteOrderDisplay.obj
 0001:000259d0       ?Release@?$CComPtrBase@UIDispatch@@@ATL@@QEAAXXZ 00000001800269d0 f i RemoteOrderDisplay.obj
 0001:00025a30       ?Release@?$CComPtrBase@UIOleInPlaceSiteWindowless@@@ATL@@QEAAXXZ 0000000180026a30 f i RemoteOrderDisplay.obj
 0001:00025a90       ?Release@CRegObject@ATL@@UEAAKXZ 0000000180026a90 f i RemoteOrderDisplay.obj
 0001:00025b00       ?Remove@CComDynamicUnkArray@ATL@@QEAAHK@Z 0000000180026b00 f i RemoteOrderDisplay.obj
 0001:00025be0       ?RemoveAll@?$CSimpleMap@PEA_WPEA_WVCExpansionVectorEqualHelper@ATL@@@ATL@@QEAAXXZ 0000000180026be0 f i RemoteOrderDisplay.obj
 0001:00025c80       ?Reset@?$CComEnumImpl@UIEnumConnectionPoints@@$1?_GUID_b196b285_bab4_101a_b69c_00aa00341d07@@3U__s_GUID@@BPEAUIConnectionPoint@@V?$_CopyInterface@UIConnectionPoint@@@ATL@@@ATL@@UEAAJXZ 0000000180026c80 f i RemoteOrderDisplay.obj
 0001:00025ca0       ?Reset@?$CComEnumImpl@UIEnumConnections@@$1?_GUID_b196b287_bab4_101a_b69c_00aa00341d07@@3U__s_GUID@@BUtagCONNECTDATA@@V?$_Copy@UtagCONNECTDATA@@@ATL@@@ATL@@UEAAJXZ 0000000180026ca0 f i RemoteOrderDisplay.obj
 0001:00025cc0       ?ResizeBorder@?$IOleInPlaceActiveObjectImpl@VCOPOSRemoteOrderDisplay@@@ATL@@UEAAJPEBUtagRECT@@PEAUIOleInPlaceUIWindow@@H@Z 0000000180026cc0 f i RemoteOrderDisplay.obj
 0001:00025d40       ?ResourceRegister@CRegObject@ATL@@QEAAJPEB_WI0@Z 0000000180026d40 f i RemoteOrderDisplay.obj
 0001:00025e20       ?ResourceRegisterSz@CRegObject@ATL@@QEAAJPEB_W00@Z 0000000180026e20 f i RemoteOrderDisplay.obj
 0001:00025f40       ?ResourceUnregister@CRegObject@ATL@@QEAAJPEB_WI0@Z 0000000180026f40 f i RemoteOrderDisplay.obj
 0001:00026020       ?ResourceUnregisterSz@CRegObject@ATL@@QEAAJPEB_W00@Z 0000000180027020 f i RemoteOrderDisplay.obj
 0001:00026140       ?SOData@COPOSRemoteOrderDisplay@@MEAAJJ@Z 0000000180027140 f i RemoteOrderDisplay.obj
 0001:000261e0       ?SODirectIO@COPOSRemoteOrderDisplay@@MEAAJJPEAJPEAPEA_W@Z 00000001800271e0 f i RemoteOrderDisplay.obj
 0001:00026420       ?SOError@COPOSRemoteOrderDisplay@@MEAAJJJJPEAJ@Z 0000000180027420 f i RemoteOrderDisplay.obj
 0001:00026530       ?SOOutputComplete@COPOSRemoteOrderDisplay@@MEAAJJ@Z 0000000180027530 f i RemoteOrderDisplay.obj
 0001:000265d0       ?SOStatusUpdate@COPOSRemoteOrderDisplay@@MEAAJJ@Z 00000001800275d0 f i RemoteOrderDisplay.obj
 0001:00026670       ?Save@?$IPersistStorageImpl@VCOPOSRemoteOrderDisplay@@@ATL@@UEAAJPEAUIStorage@@H@Z 0000000180027670 f i RemoteOrderDisplay.obj
 0001:00026830       ?Save@?$IPersistStreamInitImpl@VCOPOSRemoteOrderDisplay@@@ATL@@UEAAJPEAUIStream@@H@Z 0000000180027830 f i RemoteOrderDisplay.obj
 0001:000268f0       ?SaveCompleted@?$IPersistStorageImpl@VCOPOSRemoteOrderDisplay@@@ATL@@UEAAJPEAUIStorage@@@Z 00000001800278f0 f i RemoteOrderDisplay.obj
 0001:00026960       ?SendOnDataChange@CComControlBase@ATL@@QEAAJK@Z 0000000180027960 f i RemoteOrderDisplay.obj
 0001:00026a50       ?SendOnSave@CComControlBase@ATL@@QEAAJXZ 0000000180027a50 f i RemoteOrderDisplay.obj
 0001:00026ac0       ?SendOnViewChange@CComControlBase@ATL@@QEAAJKJ@Z 0000000180027ac0 f i RemoteOrderDisplay.obj
 0001:00026b40       ?SetAdvise@?$IViewObjectExImpl@VCOPOSRemoteOrderDisplay@@@ATL@@UEAAJKKPEAUIAdviseSink@@@Z 0000000180027b40 f i RemoteOrderDisplay.obj
 0001:00026c00       ?SetClientSite@?$IOleObjectImpl@VCOPOSRemoteOrderDisplay@@@ATL@@UEAAJPEAUIOleClientSite@@@Z 0000000180027c00 f i RemoteOrderDisplay.obj
 0001:00026cb0       ?SetColorScheme@?$IOleObjectImpl@VCOPOSRemoteOrderDisplay@@@ATL@@UEAAJPEAUtagLOGPALETTE@@@Z 0000000180027cb0 f i RemoteOrderDisplay.obj
 0001:00026d40       ?SetContentExtent@?$IQuickActivateImpl@VCOPOSRemoteOrderDisplay@@@ATL@@UEAAJPEAUtagSIZE@@@Z 0000000180027d40 f i RemoteOrderDisplay.obj
 0001:00026e00       ?SetControlFocus@CComControlBase@ATL@@QEAAHH@Z 0000000180027e00 f i RemoteOrderDisplay.obj
 0001:00026f90       ?SetDWORDValue@CRegKey@ATL@@QEAAJPEB_WK@Z 0000000180027f90 f i RemoteOrderDisplay.obj
 0001:00027040       ?SetData@?$IDataObjectImpl@VCOPOSRemoteOrderDisplay@@@ATL@@UEAAJPEAUtagFORMATETC@@PEAUtagSTGMEDIUM@@H@Z 0000000180028040 f i RemoteOrderDisplay.obj
 0001:000270d0       ?SetExtent@?$IOleObjectImpl@VCOPOSRemoteOrderDisplay@@@ATL@@UEAAJKPEAUtagSIZE@@@Z 00000001800280d0 f i RemoteOrderDisplay.obj
 0001:00027190       ?SetHostNames@?$IOleObjectImpl@VCOPOSRemoteOrderDisplay@@@ATL@@UEAAJPEB_W0@Z 0000000180028190 f i RemoteOrderDisplay.obj
 0001:00027210       ?SetInterfaceSafetyOptions@?$IObjectSafetyImpl@VCOPOSRemoteOrderDisplay@@$02@ATL@@UEAAJAEBU_GUID@@KK@Z 0000000180028210 f i RemoteOrderDisplay.obj
 0001:000273b0       ?SetMoniker@?$IOleObjectImpl@VCOPOSRemoteOrderDisplay@@@ATL@@UEAAJKPEAUIMoniker@@@Z 00000001800283b0 f i RemoteOrderDisplay.obj
 0001:00027440       ?SetMultiStringValue@CRegKey@ATL@@QEAAJPEB_W0@Z 0000000180028440 f i RemoteOrderDisplay.obj
 0001:000275b0       ?SetObjectRects@?$IOleInPlaceObjectWindowlessImpl@VCOPOSRemoteOrderDisplay@@@ATL@@UEAAJPEBUtagRECT@@0@Z 00000001800285b0 f i RemoteOrderDisplay.obj
 0001:00027670       ?SetStringValue@CRegKey@ATL@@QEAAJPEB_W0K@Z 0000000180028670 f i RemoteOrderDisplay.obj
 0001:000277f0       ?SetVoid@CComClassFactory@ATL@@QEAAXPEAX@Z 00000001800287f0 f i RemoteOrderDisplay.obj
 0001:00027810       ?SetVoid@CComObjectRootBase@ATL@@QEAAXPEAX@Z 0000000180028810 f i RemoteOrderDisplay.obj
 0001:00027820       ?ShowWindow@CWindow@ATL@@QEAAHH@Z 0000000180028820 f i RemoteOrderDisplay.obj
 0001:000278b0       ?Skip@?$CComEnumImpl@UIEnumConnectionPoints@@$1?_GUID_b196b285_bab4_101a_b69c_00aa00341d07@@3U__s_GUID@@BPEAUIConnectionPoint@@V?$_CopyInterface@UIConnectionPoint@@@ATL@@@ATL@@UEAAJK@Z 00000001800288b0 f i RemoteOrderDisplay.obj
 0001:00027950       ?Skip@?$CComEnumImpl@UIEnumConnections@@$1?_GUID_b196b287_bab4_101a_b69c_00aa00341d07@@3U__s_GUID@@BUtagCONNECTDATA@@V?$_Copy@UtagCONNECTDATA@@@ATL@@@ATL@@UEAAJK@Z 0000000180028950 f i RemoteOrderDisplay.obj
 0001:000279f0       ?SkipAssignment@CRegParser@ATL@@IEAAJPEA_W@Z 00000001800289f0 f i RemoteOrderDisplay.obj
 0001:00027af0       ?SkipWhiteSpace@CRegParser@ATL@@IEAAXXZ 0000000180028af0 f i RemoteOrderDisplay.obj
 0001:00027b50       ?StartWindowProc@?$CWindowImplBaseT@VCWindow@ATL@@V?$CWinTraits@$0FGAAAAAA@$0A@@2@@ATL@@SA_JPEAUHWND__@@I_K_J@Z 0000000180028b50 f i RemoteOrderDisplay.obj
 0001:00027cc0       ?StrChrW@CRegParser@ATL@@KAPEA_WPEA_W_W@Z 0000000180028cc0 f i RemoteOrderDisplay.obj
 0001:00027d40       ?StrFromMap@CRegObject@ATL@@QEAAPEB_WPEA_W@Z 0000000180028d40 f i RemoteOrderDisplay.obj
 0001:00027e00       ?Swap@?$CComPtrBase@UIAdviseSink@@@ATL@@IEAAXAEAV12@@Z 0000000180028e00 f i RemoteOrderDisplay.obj
 0001:00027e60       ?Swap@?$CComPtrBase@UIOleClientSite@@@ATL@@IEAAXAEAV12@@Z 0000000180028e60 f i RemoteOrderDisplay.obj
 0001:00027ec0       ?Swap@?$CComPtrBase@UIUnknown@@@ATL@@IEAAXAEAV12@@Z 0000000180028ec0 f i RemoteOrderDisplay.obj
 0001:00027f20       ?T2COLE_EX@@YAPEB_WPEB_WI@Z 0000000180028f20 f i RemoteOrderDisplay.obj
 0001:00027f40       ?T2OLE_EX@@YAPEA_WPEA_WI@Z 0000000180028f40 f i RemoteOrderDisplay.obj
 0001:00027f60       ?Term@CAtlModule@ATL@@QEAAXXZ 0000000180028f60 f i RemoteOrderDisplay.obj
 0001:00028020       ?Term@CComModule@ATL@@QEAAXXZ 0000000180029020 f i RemoteOrderDisplay.obj
 0001:00028110       ?TranslateAcceleratorW@?$IOleInPlaceActiveObjectImpl@VCOPOSRemoteOrderDisplay@@@ATL@@UEAAJPEAUtagMSG@@@Z 0000000180029110 f i RemoteOrderDisplay.obj
 0001:00028380       ?UIDeactivate@?$IOleInPlaceObjectWindowlessImpl@VCOPOSRemoteOrderDisplay@@@ATL@@UEAAJXZ 0000000180029380 f i RemoteOrderDisplay.obj
 0001:00028430       ?Unadvise@?$CProxy_IOPOSEvents@VCOPOSRemoteOrderDisplay@@@@UEAAJK@Z 0000000180029430 f i RemoteOrderDisplay.obj
 0001:00028480       ?Unadvise@?$IConnectionPointImpl@VCOPOSRemoteOrderDisplay@@$1?DIID__IOPOSRemoteOrderDisplayEvents@@3U_GUID@@BVCComDynamicUnkArray@ATL@@@ATL@@UEAAJK@Z 0000000180029480 f i RemoteOrderDisplay.obj
 0001:00028570       ?Unadvise@?$IConnectionPointImpl@VCOPOSRemoteOrderDisplay@@$1?IID_IPropertyNotifySink@@3U_GUID@@BVCComDynamicUnkArray@ATL@@@ATL@@UEAAJK@Z 0000000180029570 f i RemoteOrderDisplay.obj
 0001:00028660       ?Unadvise@?$IOleObjectImpl@VCOPOSRemoteOrderDisplay@@@ATL@@UEAAJK@Z 0000000180029660 f i RemoteOrderDisplay.obj
 0001:00028750       ?Unfreeze@?$IViewObjectExImpl@VCOPOSRemoteOrderDisplay@@@ATL@@UEAAJK@Z 0000000180029750 f i RemoteOrderDisplay.obj
 0001:000287d0       ?Unlock@?$CComCritSecLock@VCComCriticalSection@ATL@@@ATL@@QEAAXXZ 00000001800297d0 f i RemoteOrderDisplay.obj
 0001:00028860       ?Unlock@?$CComObjectRootEx@VCComSingleThreadModel@ATL@@@ATL@@QEAAXXZ 0000000180029860 f i RemoteOrderDisplay.obj
 0001:00028870       ?Unlock@CAtlModule@ATL@@UEAAJXZ 0000000180029870 f i RemoteOrderDisplay.obj
 0001:000288b0       ?Unlock@CComCriticalSection@ATL@@QEAAJXZ 00000001800298b0 f i RemoteOrderDisplay.obj
 0001:000288f0       ?Unlock@CComFakeCriticalSection@ATL@@QEAAJXZ 00000001800298f0 f i RemoteOrderDisplay.obj
 0001:00028900       ?UnregisterServer@?$CAtlModuleT@VCComModule@ATL@@@ATL@@QEAAJHPEBU_GUID@@@Z 0000000180029900 f i RemoteOrderDisplay.obj
 0001:00028970       ?UnregisterServer@CAtlComModule@ATL@@QEAAJHPEBU_GUID@@@Z 0000000180029970 f i RemoteOrderDisplay.obj
 0001:000289b0       ?UnregisterServer@CComModule@ATL@@QEAAJHPEBU_GUID@@@Z 00000001800299b0 f i RemoteOrderDisplay.obj
 0001:00028aa0       ?Update@?$IOleObjectImpl@VCOPOSRemoteOrderDisplay@@@ATL@@UEAAJXZ 0000000180029aa0 f i RemoteOrderDisplay.obj
 0001:00028b10       ?UpdateRegistryFromResource@CAtlModule@ATL@@QEAAJIHPEAU_ATL_REGMAP_ENTRY@2@@Z 0000000180029b10 f i RemoteOrderDisplay.obj
 0001:00029040       ?UpdateRegistryFromResource@CAtlModule@ATL@@QEAAJPEB_WHPEAU_ATL_REGMAP_ENTRY@2@@Z 000000018002a040 f i RemoteOrderDisplay.obj
 0001:00029590       ?UpdateRegistryFromResource@CComModule@ATL@@UEAAJIHPEAU_ATL_REGMAP_ENTRY@2@@Z 000000018002a590 f i RemoteOrderDisplay.obj
 0001:000295e0       ?UpdateRegistryFromResource@CComModule@ATL@@UEAAJPEB_WHPEAU_ATL_REGMAP_ENTRY@2@@Z 000000018002a5e0 f i RemoteOrderDisplay.obj
 0001:00029630       ?UpdateRegistryFromResourceD@CComModule@ATL@@UEAAJIHPEAU_ATL_REGMAP_ENTRY@2@@Z 000000018002a630 f i RemoteOrderDisplay.obj
 0001:00029650       ?UpdateRegistryFromResourceD@CComModule@ATL@@UEAAJPEB_WHPEAU_ATL_REGMAP_ENTRY@2@@Z 000000018002a650 f i RemoteOrderDisplay.obj
 0001:00029670       ?VTFromRegType@CRegParser@ATL@@KAHPEB_WAEAG@Z 000000018002a670 f i RemoteOrderDisplay.obj
 0001:00029750       ?WindowProc@?$CWindowImplBaseT@VCWindow@ATL@@V?$CWinTraits@$0FGAAAAAA@$0A@@2@@ATL@@SA_JPEAUHWND__@@I_K_J@Z 000000018002a750 f i RemoteOrderDisplay.obj
 0001:00029a30       ?WriteToStream@CComBSTR@ATL@@QEAAJPEAUIStream@@@Z 000000018002aa30 f i RemoteOrderDisplay.obj
 0001:00029ba0       ?WriteToStream@CComVariant@ATL@@QEAAJPEAUIStream@@@Z 000000018002aba0 f i RemoteOrderDisplay.obj
 0001:00029fb0       ?WriteToStream@CComVariant@ATL@@QEAAJPEAUIStream@@G@Z 000000018002afb0 f i RemoteOrderDisplay.obj
 0001:0002a090       ?_AtlFinalConstruct@CComObjectRootBase@ATL@@QEAAJXZ 000000018002b090 f i RemoteOrderDisplay.obj
 0001:0002a0a0       ?_AtlGetConversionACP@ATL@@YAIXZ 000000018002b0a0 f i RemoteOrderDisplay.obj
 0001:0002a0b0       ?_AtlInitialConstruct@?$CComAggObject@VCOPOSRemoteOrderDisplay@@@ATL@@QEAAJXZ 000000018002b0b0 f i RemoteOrderDisplay.obj
 0001:0002a110       ?_AtlInitialConstruct@?$CComObjectRootEx@VCComMultiThreadModel@ATL@@@ATL@@QEAAJXZ 000000018002b110 f i RemoteOrderDisplay.obj
 0001:0002a150       ?_AtlInitialConstruct@?$CComObjectRootEx@VCComSingleThreadModel@ATL@@@ATL@@QEAAJXZ 000000018002b150 f i RemoteOrderDisplay.obj
 0001:0002a160       ?_AtlVerifyStackAvailable@_ATL_SAFE_ALLOCA_IMPL@ATL@@YA_N_K@Z 000000018002b160 f i RemoteOrderDisplay.obj
 0001:0002a2c0       ?_GetEntries@?$CComEnum@UIEnumConnectionPoints@@$1?_GUID_b196b285_bab4_101a_b69c_00aa00341d07@@3U__s_GUID@@BPEAUIConnectionPoint@@V?$_CopyInterface@UIConnectionPoint@@@ATL@@VCComSingleThreadModel@6@@ATL@@SAPEBU_ATL_INTMAP_ENTRY@2@XZ 000000018002b2c0 f i RemoteOrderDisplay.obj
 0001:0002a2e0       ?_GetEntries@?$CComEnum@UIEnumConnections@@$1?_GUID_b196b287_bab4_101a_b69c_00aa00341d07@@3U__s_GUID@@BUtagCONNECTDATA@@V?$_Copy@UtagCONNECTDATA@@@ATL@@VCComSingleThreadModel@6@@ATL@@SAPEBU_ATL_INTMAP_ENTRY@2@XZ 000000018002b2e0 f i RemoteOrderDisplay.obj
 0001:0002a300       ?_GetEntries@CComClassFactory@ATL@@SAPEBU_ATL_INTMAP_ENTRY@2@XZ 000000018002b300 f i RemoteOrderDisplay.obj
 0001:0002a320       ?_GetEntries@COPOSRemoteOrderDisplay@@SAPEBU_ATL_INTMAP_ENTRY@ATL@@XZ 000000018002b320 f i RemoteOrderDisplay.obj
 0001:0002a340       ?_GetRawUnknown@COPOSRemoteOrderDisplay@@QEAAPEAUIUnknown@@XZ 000000018002b340 f i RemoteOrderDisplay.obj
 0001:0002a3d0       ?_GetViewStatus@COPOSRemoteOrderDisplay@@QEAAKXZ 000000018002b3d0 f i RemoteOrderDisplay.obj
 0001:0002a3e0       ?_InternalQueryInterface@?$CComEnum@UIEnumConnectionPoints@@$1?_GUID_b196b285_bab4_101a_b69c_00aa00341d07@@3U__s_GUID@@BPEAUIConnectionPoint@@V?$_CopyInterface@UIConnectionPoint@@@ATL@@VCComSingleThreadModel@6@@ATL@@QEAAJAEBU_GUID@@PEAPEAX@Z 000000018002b3e0 f i RemoteOrderDisplay.obj
 0001:0002a430       ?_InternalQueryInterface@?$CComEnum@UIEnumConnections@@$1?_GUID_b196b287_bab4_101a_b69c_00aa00341d07@@3U__s_GUID@@BUtagCONNECTDATA@@V?$_Copy@UtagCONNECTDATA@@@ATL@@VCComSingleThreadModel@6@@ATL@@QEAAJAEBU_GUID@@PEAPEAX@Z 000000018002b430 f i RemoteOrderDisplay.obj
 0001:0002a480       ?_InternalQueryInterface@CComClassFactory@ATL@@QEAAJAEBU_GUID@@PEAPEAX@Z 000000018002b480 f i RemoteOrderDisplay.obj
 0001:0002a4d0       ?_InternalQueryInterface@COPOSRemoteOrderDisplay@@QEAAJAEBU_GUID@@PEAPEAX@Z 000000018002b4d0 f i RemoteOrderDisplay.obj
 0001:0002a520       ?_LocCPQueryInterface@?$IConnectionPointImpl@VCOPOSRemoteOrderDisplay@@$1?DIID__IOPOSRemoteOrderDisplayEvents@@3U_GUID@@BVCComDynamicUnkArray@ATL@@@ATL@@UEAAJAEBU_GUID@@PEAPEAX@Z 000000018002b520 f i RemoteOrderDisplay.obj
 0001:0002a600       ?_LocCPQueryInterface@?$IConnectionPointImpl@VCOPOSRemoteOrderDisplay@@$1?IID_IPropertyNotifySink@@3U_GUID@@BVCComDynamicUnkArray@ATL@@@ATL@@UEAAJAEBU_GUID@@PEAPEAX@Z 000000018002b600 f i RemoteOrderDisplay.obj
 0001:0002a6e0       ?atlCreate@?$CWindowImpl@VCOPOSRemoteOrderDisplay@@VCWindow@ATL@@V?$CWinTraits@$0FGAAAAAA@$0A@@3@@ATL@@QEAAPEAUHWND__@@PEAU3@V_U_RECT@2@PEB_WKKV_U_MENUorID@2@PEAX@Z 000000018002b6e0 f i RemoteOrderDisplay.obj
 0001:0002a810       ?atlCreate@?$CWindowImplBaseT@VCWindow@ATL@@V?$CWinTraits@$0FGAAAAAA@$0A@@2@@ATL@@QEAAPEAUHWND__@@PEAU3@V_U_RECT@2@PEB_WKKV_U_MENUorID@2@GPEAX@Z 000000018002b810 f i RemoteOrderDisplay.obj
 0001:0002aa70       ?atlCreate@CRegKey@ATL@@QEAAJPEAUHKEY__@@PEB_WPEA_WKKPEAU_SECURITY_ATTRIBUTES@@PEAK@Z 000000018002ba70 f i RemoteOrderDisplay.obj
 0001:0002ac60       ?begin@CComDynamicUnkArray@ATL@@QEAAPEAPEAUIUnknown@@XZ 000000018002bc60 f i RemoteOrderDisplay.obj
 0001:0002ac70       ?copy@?$_Copy@UtagCONNECTDATA@@@ATL@@SAJPEAUtagCONNECTDATA@@PEBU3@@Z 000000018002bc70 f i RemoteOrderDisplay.obj
 0001:0002ad60       ?copy@?$_CopyInterface@UIConnectionPoint@@@ATL@@SAJPEAPEAUIConnectionPoint@@PEBQEAU3@@Z 000000018002bd60 f i RemoteOrderDisplay.obj
 0001:0002ae50       ?destroy@?$_Copy@UtagCONNECTDATA@@@ATL@@SAXPEAUtagCONNECTDATA@@@Z 000000018002be50 f i RemoteOrderDisplay.obj
 0001:0002aea0       ?destroy@?$_CopyInterface@UIConnectionPoint@@@ATL@@SAXPEAPEAUIConnectionPoint@@@Z 000000018002bea0 f i RemoteOrderDisplay.obj
 0001:0002aef0       ?end@CComDynamicUnkArray@ATL@@QEAAPEAPEAUIUnknown@@XZ 000000018002bef0 f i RemoteOrderDisplay.obj
 0001:0002af10       ?init@?$_Copy@UtagCONNECTDATA@@@ATL@@SAXPEAUtagCONNECTDATA@@@Z 000000018002bf10 f i RemoteOrderDisplay.obj
 0001:0002af20       ?init@?$_CopyInterface@UIConnectionPoint@@@ATL@@SAXPEAPEAUIConnectionPoint@@@Z 000000018002bf20 f i RemoteOrderDisplay.obj
 0001:0002af30       ?memcpy_s@Checked@ATL@@YAXPEAX_KPEBX1@Z 000000018002bf30 f i RemoteOrderDisplay.obj
 0001:0002af90       ?ocscpy_s@@YA_NPEA_W_KPEB_W@Z 000000018002bf90 f i RemoteOrderDisplay.obj
 0001:0002b010       ?ocslen@@YAHPEB_W@Z        000000018002c010 f i RemoteOrderDisplay.obj
 0001:0002b050       ?tcsncpy_s@Checked@ATL@@YAHPEA_W_KPEB_W1@Z 000000018002c050 f i RemoteOrderDisplay.obj
 0001:0002b0b0       ?wcscat_s@Checked@ATL@@YAXPEA_W_KPEB_W@Z 000000018002c0b0 f i RemoteOrderDisplay.obj
 0001:0002b100       ?wcscpy_s@Checked@ATL@@YAXPEA_W_KPEB_W@Z 000000018002c100 f i RemoteOrderDisplay.obj
 0001:0002b150       ?wcsncpy_s@Checked@ATL@@YAHPEA_W_KPEB_W1@Z 000000018002c150 f i RemoteOrderDisplay.obj
 0001:0002b1b0       ?wcsstr@@YAPEA_WPEA_WPEB_W@Z 000000018002c1b0 f i RemoteOrderDisplay.obj
 0001:0002b1f0       InlineIsEqualGUID          000000018002c1f0 f i RemoteOrderDisplay.obj
 0001:0002b2c0       IsEqualGUID                000000018002c2c0 f i RemoteOrderDisplay.obj
 0001:0002b320       ??0COPOSRemoteOrderDisplay@@QEAA@XZ 000000018002c320 f   RemoteOrderDisplayImpl.obj
 0001:0002b4a0       ?FinalConstruct@COPOSRemoteOrderDisplay@@QEAAJXZ 000000018002c4a0 f   RemoteOrderDisplayImpl.obj
 0001:0002b590       ??1COPOSRemoteOrderDisplay@@UEAA@XZ 000000018002c590 f   RemoteOrderDisplayImpl.obj
 0001:0002b670       ?WriteTrace@COPOSRemoteOrderDisplay@@QEAAXPEB_WZZ 000000018002c670 f   RemoteOrderDisplayImpl.obj
 0001:0002b730       ?WriteTraceString@COPOSRemoteOrderDisplay@@QEAAXPEB_WPEA_W@Z 000000018002c730 f   RemoteOrderDisplayImpl.obj
 0001:0002bb70       ?WriteTraceString@COPOSRemoteOrderDisplay@@QEAAXPEAXHHHPEB_WZZ 000000018002cb70 f   RemoteOrderDisplayImpl.obj
 0001:0002be00       ?WriteTraceError@COPOSRemoteOrderDisplay@@QEAAXPEB_WK@Z 000000018002ce00 f   RemoteOrderDisplayImpl.obj
 0001:0002bf00       ?WriteTraceMethods@COPOSRemoteOrderDisplay@@QEAAXPEAJH@Z 000000018002cf00 f   RemoteOrderDisplayImpl.obj
 0001:0002bf90       ?GetOposProp@COPOSRemoteOrderDisplay@@IEAAJPEBDJPEAJJ@Z 000000018002cf90 f   RemoteOrderDisplayImpl.obj
 0001:0002c2b0       ?SetOposProp@COPOSRemoteOrderDisplay@@IEAAJPEBDJJJ@Z 000000018002d2b0 f   RemoteOrderDisplayImpl.obj
 0001:0002c610       ?GetOposProp@COPOSRemoteOrderDisplay@@IEAAJPEBDJPEAFJ@Z 000000018002d610 f   RemoteOrderDisplayImpl.obj
 0001:0002c6b0       ?SetOposProp@COPOSRemoteOrderDisplay@@IEAAJPEBDJFJ@Z 000000018002d6b0 f   RemoteOrderDisplayImpl.obj
 0001:0002c730       ?GetOposProp@COPOSRemoteOrderDisplay@@IEAAJPEBDJPEAPEA_WJ@Z 000000018002d730 f   RemoteOrderDisplayImpl.obj
 0001:0002ca50       ?SetOposProp@COPOSRemoteOrderDisplay@@IEAAJPEBDJPEA_WJ@Z 000000018002da50 f   RemoteOrderDisplayImpl.obj
 0001:0002ce30       ?DoInvoke@COPOSRemoteOrderDisplay@@IEAAJPEBDJPEAVOposVariant@@IHPEAJ_N@Z 000000018002de30 f   RemoteOrderDisplayImpl.obj
 0001:0002d980       ?SetCOFreezeEvents@COPOSRemoteOrderDisplay@@IEAAXF@Z 000000018002e980 f   RemoteOrderDisplayImpl.obj
 0001:0002db10       ?FreezeEvents@COPOSRemoteOrderDisplay@@MEAAJH@Z 000000018002eb10 f   RemoteOrderDisplayImpl.obj
 0001:0002dc40       ?OnDraw@COPOSRemoteOrderDisplay@@MEAAJAEAUATL_DRAWINFO@@@Z 000000018002ec40 f   RemoteOrderDisplayImpl.obj
 0001:0002de10       ?SOProcessID@COPOSRemoteOrderDisplay@@UEAAJPEAJ@Z 000000018002ee10 f   RemoteOrderDisplayImpl.obj
 0001:0002de70       ?get_OpenResult@COPOSRemoteOrderDisplay@@UEAAJPEAJ@Z 000000018002ee70 f   RemoteOrderDisplayImpl.obj
 0001:0002ded0       ?get_BinaryConversion@COPOSRemoteOrderDisplay@@UEAAJPEAJ@Z 000000018002eed0 f   RemoteOrderDisplayImpl.obj
 0001:0002df30       ?put_BinaryConversion@COPOSRemoteOrderDisplay@@UEAAJJ@Z 000000018002ef30 f   RemoteOrderDisplayImpl.obj
 0001:0002dfa0       ?get_CapPowerReporting@COPOSRemoteOrderDisplay@@UEAAJPEAJ@Z 000000018002efa0 f   RemoteOrderDisplayImpl.obj
 0001:0002e000       ?get_CheckHealthText@COPOSRemoteOrderDisplay@@UEAAJPEAPEA_W@Z 000000018002f000 f   RemoteOrderDisplayImpl.obj
 0001:0002e060       ?get_Claimed@COPOSRemoteOrderDisplay@@UEAAJPEAF@Z 000000018002f060 f   RemoteOrderDisplayImpl.obj
 0001:0002e0c0       ?get_DataCount@COPOSRemoteOrderDisplay@@UEAAJPEAJ@Z 000000018002f0c0 f   RemoteOrderDisplayImpl.obj
 0001:0002e120       ?get_DataEventEnabled@COPOSRemoteOrderDisplay@@UEAAJPEAF@Z 000000018002f120 f   RemoteOrderDisplayImpl.obj
 0001:0002e180       ?put_DataEventEnabled@COPOSRemoteOrderDisplay@@UEAAJF@Z 000000018002f180 f   RemoteOrderDisplayImpl.obj
 0001:0002e1e0       ?get_DeviceEnabled@COPOSRemoteOrderDisplay@@UEAAJPEAF@Z 000000018002f1e0 f   RemoteOrderDisplayImpl.obj
 0001:0002e240       ?put_DeviceEnabled@COPOSRemoteOrderDisplay@@UEAAJF@Z 000000018002f240 f   RemoteOrderDisplayImpl.obj
 0001:0002e2a0       ?get_FreezeEvents@COPOSRemoteOrderDisplay@@UEAAJPEAF@Z 000000018002f2a0 f   RemoteOrderDisplayImpl.obj
 0001:0002e300       ?put_FreezeEvents@COPOSRemoteOrderDisplay@@UEAAJF@Z 000000018002f300 f   RemoteOrderDisplayImpl.obj
 0001:0002e3e0       ?get_OutputID@COPOSRemoteOrderDisplay@@UEAAJPEAJ@Z 000000018002f3e0 f   RemoteOrderDisplayImpl.obj
 0001:0002e440       ?get_PowerNotify@COPOSRemoteOrderDisplay@@UEAAJPEAJ@Z 000000018002f440 f   RemoteOrderDisplayImpl.obj
 0001:0002e4a0       ?put_PowerNotify@COPOSRemoteOrderDisplay@@UEAAJJ@Z 000000018002f4a0 f   RemoteOrderDisplayImpl.obj
 0001:0002e500       ?get_PowerState@COPOSRemoteOrderDisplay@@UEAAJPEAJ@Z 000000018002f500 f   RemoteOrderDisplayImpl.obj
 0001:0002e560       ?get_ResultCode@COPOSRemoteOrderDisplay@@UEAAJPEAJ@Z 000000018002f560 f   RemoteOrderDisplayImpl.obj
 0001:0002e630       ?get_ResultCodeExtended@COPOSRemoteOrderDisplay@@UEAAJPEAJ@Z 000000018002f630 f   RemoteOrderDisplayImpl.obj
 0001:0002e690       ?get_State@COPOSRemoteOrderDisplay@@UEAAJPEAJ@Z 000000018002f690 f   RemoteOrderDisplayImpl.obj
 0001:0002e720       ?get_ControlObjectDescription@COPOSRemoteOrderDisplay@@UEAAJPEAPEA_W@Z 000000018002f720 f   RemoteOrderDisplayImpl.obj
 0001:0002e7a0       ?get_ControlObjectVersion@COPOSRemoteOrderDisplay@@UEAAJPEAJ@Z 000000018002f7a0 f   RemoteOrderDisplayImpl.obj
 0001:0002e800       ?get_ServiceObjectDescription@COPOSRemoteOrderDisplay@@UEAAJPEAPEA_W@Z 000000018002f800 f   RemoteOrderDisplayImpl.obj
 0001:0002e860       ?get_ServiceObjectVersion@COPOSRemoteOrderDisplay@@UEAAJPEAJ@Z 000000018002f860 f   RemoteOrderDisplayImpl.obj
 0001:0002e8c0       ?get_DeviceDescription@COPOSRemoteOrderDisplay@@UEAAJPEAPEA_W@Z 000000018002f8c0 f   RemoteOrderDisplayImpl.obj
 0001:0002e920       ?get_DeviceName@COPOSRemoteOrderDisplay@@UEAAJPEAPEA_W@Z 000000018002f920 f   RemoteOrderDisplayImpl.obj
 0001:0002e980       ?CheckHealth@COPOSRemoteOrderDisplay@@UEAAJJPEAJ@Z 000000018002f980 f   RemoteOrderDisplayImpl.obj
 0001:0002ea40       ?ClaimDevice@COPOSRemoteOrderDisplay@@UEAAJJPEAJ@Z 000000018002fa40 f   RemoteOrderDisplayImpl.obj
 0001:0002eb60       ?ClearInput@COPOSRemoteOrderDisplay@@UEAAJPEAJ@Z 000000018002fb60 f   RemoteOrderDisplayImpl.obj
 0001:0002ebd0       ?ClearOutput@COPOSRemoteOrderDisplay@@UEAAJPEAJ@Z 000000018002fbd0 f   RemoteOrderDisplayImpl.obj
 0001:0002ec40       ?Close@COPOSRemoteOrderDisplay@@UEAAJPEAJ@Z 000000018002fc40 f   RemoteOrderDisplayImpl.obj
 0001:0002ed50       ?DirectIO@COPOSRemoteOrderDisplay@@UEAAJJPEAJPEAPEA_W0@Z 000000018002fd50 f   RemoteOrderDisplayImpl.obj
 0001:0002eed0       ?Open@COPOSRemoteOrderDisplay@@UEAAJPEA_WPEAJ@Z 000000018002fed0 f   RemoteOrderDisplayImpl.obj
 0001:000303b0       ?ReleaseDevice@COPOSRemoteOrderDisplay@@UEAAJPEAJ@Z 00000001800313b0 f   RemoteOrderDisplayImpl.obj
 0001:00030460       ?get_AsyncMode@COPOSRemoteOrderDisplay@@UEAAJPEAF@Z 0000000180031460 f   RemoteOrderDisplayImpl.obj
 0001:000304c0       ?put_AsyncMode@COPOSRemoteOrderDisplay@@UEAAJF@Z 00000001800314c0 f   RemoteOrderDisplayImpl.obj
 0001:00030520       ?get_AutoToneDuration@COPOSRemoteOrderDisplay@@UEAAJPEAJ@Z 0000000180031520 f   RemoteOrderDisplayImpl.obj
 0001:00030580       ?put_AutoToneDuration@COPOSRemoteOrderDisplay@@UEAAJJ@Z 0000000180031580 f   RemoteOrderDisplayImpl.obj
 0001:000305e0       ?get_AutoToneFrequency@COPOSRemoteOrderDisplay@@UEAAJPEAJ@Z 00000001800315e0 f   RemoteOrderDisplayImpl.obj
 0001:00030640       ?put_AutoToneFrequency@COPOSRemoteOrderDisplay@@UEAAJJ@Z 0000000180031640 f   RemoteOrderDisplayImpl.obj
 0001:000306a0       ?get_CapSelectCharacterSet@COPOSRemoteOrderDisplay@@UEAAJPEAF@Z 00000001800316a0 f   RemoteOrderDisplayImpl.obj
 0001:00030700       ?get_CapTone@COPOSRemoteOrderDisplay@@UEAAJPEAF@Z 0000000180031700 f   RemoteOrderDisplayImpl.obj
 0001:00030760       ?get_CapTouch@COPOSRemoteOrderDisplay@@UEAAJPEAF@Z 0000000180031760 f   RemoteOrderDisplayImpl.obj
 0001:000307c0       ?get_CapTransaction@COPOSRemoteOrderDisplay@@UEAAJPEAF@Z 00000001800317c0 f   RemoteOrderDisplayImpl.obj
 0001:00030820       ?get_CharacterSet@COPOSRemoteOrderDisplay@@UEAAJPEAJ@Z 0000000180031820 f   RemoteOrderDisplayImpl.obj
 0001:00030880       ?get_CharacterSetList@COPOSRemoteOrderDisplay@@UEAAJPEAPEA_W@Z 0000000180031880 f   RemoteOrderDisplayImpl.obj
 0001:000308e0       ?get_Clocks@COPOSRemoteOrderDisplay@@UEAAJPEAJ@Z 00000001800318e0 f   RemoteOrderDisplayImpl.obj
 0001:00030940       ?get_CurrentUnitID@COPOSRemoteOrderDisplay@@UEAAJPEAJ@Z 0000000180031940 f   RemoteOrderDisplayImpl.obj
 0001:000309a0       ?put_CurrentUnitID@COPOSRemoteOrderDisplay@@UEAAJJ@Z 00000001800319a0 f   RemoteOrderDisplayImpl.obj
 0001:00030a00       ?get_ErrorString@COPOSRemoteOrderDisplay@@UEAAJPEAPEA_W@Z 0000000180031a00 f   RemoteOrderDisplayImpl.obj
 0001:00030a60       ?get_ErrorUnits@COPOSRemoteOrderDisplay@@UEAAJPEAJ@Z 0000000180031a60 f   RemoteOrderDisplayImpl.obj
 0001:00030ac0       ?get_EventString@COPOSRemoteOrderDisplay@@UEAAJPEAPEA_W@Z 0000000180031ac0 f   RemoteOrderDisplayImpl.obj
 0001:00030b20       ?get_EventType@COPOSRemoteOrderDisplay@@UEAAJPEAJ@Z 0000000180031b20 f   RemoteOrderDisplayImpl.obj
 0001:00030b80       ?put_EventType@COPOSRemoteOrderDisplay@@UEAAJJ@Z 0000000180031b80 f   RemoteOrderDisplayImpl.obj
 0001:00030be0       ?get_EventUnitID@COPOSRemoteOrderDisplay@@UEAAJPEAJ@Z 0000000180031be0 f   RemoteOrderDisplayImpl.obj
 0001:00030c40       ?get_EventUnits@COPOSRemoteOrderDisplay@@UEAAJPEAJ@Z 0000000180031c40 f   RemoteOrderDisplayImpl.obj
 0001:00030ca0       ?get_SystemClocks@COPOSRemoteOrderDisplay@@UEAAJPEAJ@Z 0000000180031ca0 f   RemoteOrderDisplayImpl.obj
 0001:00030d00       ?get_SystemVideoSaveBuffers@COPOSRemoteOrderDisplay@@UEAAJPEAJ@Z 0000000180031d00 f   RemoteOrderDisplayImpl.obj
 0001:00030d60       ?get_Timeout@COPOSRemoteOrderDisplay@@UEAAJPEAJ@Z 0000000180031d60 f   RemoteOrderDisplayImpl.obj
 0001:00030dc0       ?put_Timeout@COPOSRemoteOrderDisplay@@UEAAJJ@Z 0000000180031dc0 f   RemoteOrderDisplayImpl.obj
 0001:00030e20       ?get_UnitsOnline@COPOSRemoteOrderDisplay@@UEAAJPEAJ@Z 0000000180031e20 f   RemoteOrderDisplayImpl.obj
 0001:00030e80       ?get_VideoDataCount@COPOSRemoteOrderDisplay@@UEAAJPEAJ@Z 0000000180031e80 f   RemoteOrderDisplayImpl.obj
 0001:00030ee0       ?get_VideoMode@COPOSRemoteOrderDisplay@@UEAAJPEAJ@Z 0000000180031ee0 f   RemoteOrderDisplayImpl.obj
 0001:00030f40       ?put_VideoMode@COPOSRemoteOrderDisplay@@UEAAJJ@Z 0000000180031f40 f   RemoteOrderDisplayImpl.obj
 0001:00030fa0       ?get_VideoModesList@COPOSRemoteOrderDisplay@@UEAAJPEAPEA_W@Z 0000000180031fa0 f   RemoteOrderDisplayImpl.obj
 0001:00031000       ?get_VideoSaveBuffers@COPOSRemoteOrderDisplay@@UEAAJPEAJ@Z 0000000180032000 f   RemoteOrderDisplayImpl.obj
 0001:00031060       ?ClearVideo@COPOSRemoteOrderDisplay@@UEAAJJJPEAJ@Z 0000000180032060 f   RemoteOrderDisplayImpl.obj
 0001:00031180       ?ClearVideoRegion@COPOSRemoteOrderDisplay@@UEAAJJJJJJJPEAJ@Z 0000000180032180 f   RemoteOrderDisplayImpl.obj
 0001:00031330       ?ControlClock@COPOSRemoteOrderDisplay@@UEAAJJJJJJJJJJJPEAJ@Z 0000000180032330 f   RemoteOrderDisplayImpl.obj
 0001:00031550       ?ControlCursor@COPOSRemoteOrderDisplay@@UEAAJJJPEAJ@Z 0000000180032550 f   RemoteOrderDisplayImpl.obj
 0001:00031670       ?CopyVideoRegion@COPOSRemoteOrderDisplay@@UEAAJJJJJJJJPEAJ@Z 0000000180032670 f   RemoteOrderDisplayImpl.obj
 0001:00031840       ?DisplayData@COPOSRemoteOrderDisplay@@UEAAJJJJJPEA_WPEAJ@Z 0000000180032840 f   RemoteOrderDisplayImpl.obj
 0001:000319f0       ?DrawBox@COPOSRemoteOrderDisplay@@UEAAJJJJJJJJPEAJ@Z 00000001800329f0 f   RemoteOrderDisplayImpl.obj
 0001:00031bc0       ?FreeVideoRegion@COPOSRemoteOrderDisplay@@UEAAJJJPEAJ@Z 0000000180032bc0 f   RemoteOrderDisplayImpl.obj
 0001:00031ce0       ?ResetVideo@COPOSRemoteOrderDisplay@@UEAAJJPEAJ@Z 0000000180032ce0 f   RemoteOrderDisplayImpl.obj
 0001:00031da0       ?RestoreVideoRegion@COPOSRemoteOrderDisplay@@UEAAJJJJJPEAJ@Z 0000000180032da0 f   RemoteOrderDisplayImpl.obj
 0001:00031f10       ?SaveVideoRegion@COPOSRemoteOrderDisplay@@UEAAJJJJJJJPEAJ@Z 0000000180032f10 f   RemoteOrderDisplayImpl.obj
 0001:000320c0       ?SelectCharacterSet@COPOSRemoteOrderDisplay@@UEAAJJJPEAJ@Z 00000001800330c0 f   RemoteOrderDisplayImpl.obj
 0001:000321e0       ?SetCursor@COPOSRemoteOrderDisplay@@UEAAJJJJPEAJ@Z 00000001800331e0 f   RemoteOrderDisplayImpl.obj
 0001:00032340       ?TransactionDisplay@COPOSRemoteOrderDisplay@@UEAAJJJPEAJ@Z 0000000180033340 f   RemoteOrderDisplayImpl.obj
 0001:00032460       ?UpdateVideoRegionAttribute@COPOSRemoteOrderDisplay@@UEAAJJJJJJJJPEAJ@Z 0000000180033460 f   RemoteOrderDisplayImpl.obj
 0001:00032630       ?VideoSound@COPOSRemoteOrderDisplay@@UEAAJJJJJJPEAJ@Z 0000000180033630 f   RemoteOrderDisplayImpl.obj
 0001:000327c0       ?get_CapMapCharacterSet@COPOSRemoteOrderDisplay@@UEAAJPEAF@Z 00000001800337c0 f   RemoteOrderDisplayImpl.obj
 0001:00032820       ?get_MapCharacterSet@COPOSRemoteOrderDisplay@@UEAAJPEAF@Z 0000000180033820 f   RemoteOrderDisplayImpl.obj
 0001:00032880       ?put_MapCharacterSet@COPOSRemoteOrderDisplay@@UEAAJF@Z 0000000180033880 f   RemoteOrderDisplayImpl.obj
 0001:000328e0       ?get_CapStatisticsReporting@COPOSRemoteOrderDisplay@@UEAAJPEAF@Z 00000001800338e0 f   RemoteOrderDisplayImpl.obj
 0001:00032940       ?get_CapUpdateStatistics@COPOSRemoteOrderDisplay@@UEAAJPEAF@Z 0000000180033940 f   RemoteOrderDisplayImpl.obj
 0001:000329a0       ?ResetStatistics@COPOSRemoteOrderDisplay@@UEAAJPEA_WPEAJ@Z 00000001800339a0 f   RemoteOrderDisplayImpl.obj
 0001:00032a80       ?RetrieveStatistics@COPOSRemoteOrderDisplay@@UEAAJPEAPEA_WPEAJ@Z 0000000180033a80 f   RemoteOrderDisplayImpl.obj
 0001:00032b60       ?UpdateStatistics@COPOSRemoteOrderDisplay@@UEAAJPEA_WPEAJ@Z 0000000180033b60 f   RemoteOrderDisplayImpl.obj
 0001:00032c40       ?get_CapCompareFirmwareVersion@COPOSRemoteOrderDisplay@@UEAAJPEAF@Z 0000000180033c40 f   RemoteOrderDisplayImpl.obj
 0001:00032ca0       ?get_CapUpdateFirmware@COPOSRemoteOrderDisplay@@UEAAJPEAF@Z 0000000180033ca0 f   RemoteOrderDisplayImpl.obj
 0001:00032d00       ?CompareFirmwareVersion@COPOSRemoteOrderDisplay@@UEAAJPEA_WPEAJ1@Z 0000000180033d00 f   RemoteOrderDisplayImpl.obj
 0001:00032e40       ?UpdateFirmware@COPOSRemoteOrderDisplay@@UEAAJPEA_WPEAJ@Z 0000000180033e40 f   RemoteOrderDisplayImpl.obj
 0001:00032f20       ??0?$CComControl@VCOPOSRemoteOrderDisplay@@V?$CWindowImpl@VCOPOSRemoteOrderDisplay@@VCWindow@ATL@@V?$CWinTraits@$0FGAAAAAA@$0A@@3@@ATL@@@ATL@@QEAA@XZ 0000000180033f20 f i RemoteOrderDisplayImpl.obj
 0001:00032f70       ??0?$CComPtr@UIAdviseSink@@@ATL@@QEAA@XZ 0000000180033f70 f i RemoteOrderDisplayImpl.obj
 0001:00032fb0       ??0?$CComPtr@UIDataAdviseHolder@@@ATL@@QEAA@XZ 0000000180033fb0 f i RemoteOrderDisplayImpl.obj
 0001:00032ff0       ??0?$CComPtr@UIOleAdviseHolder@@@ATL@@QEAA@XZ 0000000180033ff0 f i RemoteOrderDisplayImpl.obj
 0001:00033030       ??0?$CComPtr@UIOleClientSite@@@ATL@@QEAA@XZ 0000000180034030 f i RemoteOrderDisplayImpl.obj
 0001:00033070       ??0?$CComPtr@UIOleInPlaceSiteWindowless@@@ATL@@QEAA@XZ 0000000180034070 f i RemoteOrderDisplayImpl.obj
 0001:000330b0       ??0?$CComPtrBase@UIAdviseSink@@@ATL@@IEAA@XZ 00000001800340b0 f i RemoteOrderDisplayImpl.obj
 0001:000330d0       ??0?$CComPtrBase@UIDataAdviseHolder@@@ATL@@IEAA@XZ 00000001800340d0 f i RemoteOrderDisplayImpl.obj
 0001:000330f0       ??0?$CComPtrBase@UIOleAdviseHolder@@@ATL@@IEAA@XZ 00000001800340f0 f i RemoteOrderDisplayImpl.obj
 0001:00033110       ??0?$CComPtrBase@UIOleClientSite@@@ATL@@IEAA@XZ 0000000180034110 f i RemoteOrderDisplayImpl.obj
 0001:00033130       ??0?$CComPtrBase@UIOleInPlaceSiteWindowless@@@ATL@@IEAA@XZ 0000000180034130 f i RemoteOrderDisplayImpl.obj
 0001:00033150       ??0?$CComQIPtr@UIDispatch@@$1?_GUID_00020400_0000_0000_c000_000000000046@@3U__s_GUID@@B@ATL@@QEAA@XZ 0000000180034150 f i RemoteOrderDisplayImpl.obj
 0001:00033190       ??0?$CProxy_IOPOSEvents@VCOPOSRemoteOrderDisplay@@@@QEAA@PEAVCOPOSRemoteOrderDisplay@@@Z 0000000180034190 f i RemoteOrderDisplayImpl.obj
 0001:00033230       ??0?$CWindowImpl@VCOPOSRemoteOrderDisplay@@VCWindow@ATL@@V?$CWinTraits@$0FGAAAAAA@$0A@@3@@ATL@@QEAA@XZ 0000000180034230 f i RemoteOrderDisplayImpl.obj
 0001:00033270       ??0?$CWindowImplBaseT@VCWindow@ATL@@V?$CWinTraits@$0FGAAAAAA@$0A@@2@@ATL@@QEAA@XZ 0000000180034270 f i RemoteOrderDisplayImpl.obj
 0001:000332c0       ??0?$CWindowImplRoot@VCWindow@ATL@@@ATL@@QEAA@XZ 00000001800342c0 f i RemoteOrderDisplayImpl.obj
 0001:00033330       ??0?$IConnectionPointContainerImpl@VCOPOSRemoteOrderDisplay@@@ATL@@QEAA@XZ 0000000180034330 f i RemoteOrderDisplayImpl.obj
 0001:00033370       ??0?$IConnectionPointImpl@VCOPOSRemoteOrderDisplay@@$1?DIID__IOPOSRemoteOrderDisplayEvents@@3U_GUID@@BVCComDynamicUnkArray@ATL@@@ATL@@QEAA@XZ 0000000180034370 f i RemoteOrderDisplayImpl.obj
 0001:000333c0       ??0?$IConnectionPointImpl@VCOPOSRemoteOrderDisplay@@$1?IID_IPropertyNotifySink@@3U_GUID@@BVCComDynamicUnkArray@ATL@@@ATL@@QEAA@XZ 00000001800343c0 f i RemoteOrderDisplayImpl.obj
 0001:00033410       ??0?$IDataObjectImpl@VCOPOSRemoteOrderDisplay@@@ATL@@QEAA@XZ 0000000180034410 f i RemoteOrderDisplayImpl.obj
 0001:00033450       ??0?$IDispatchImpl@UIOPOSRemoteOrderDisplay@@$1?IID_IOPOSRemoteOrderDisplay@@3U_GUID@@B$1?LIBID_OposRemoteOrderDisplay_CCO@@3U3@B$00$0A@VCComTypeInfoHolder@ATL@@@ATL@@QEAA@XZ 0000000180034450 f i RemoteOrderDisplayImpl.obj
 0001:00033490       ??0?$IObjectSafetyImpl@VCOPOSRemoteOrderDisplay@@$02@ATL@@QEAA@XZ 0000000180034490 f i RemoteOrderDisplayImpl.obj
 0001:000334d0       ??0?$IOleControlImpl@VCOPOSRemoteOrderDisplay@@@ATL@@QEAA@XZ 00000001800344d0 f i RemoteOrderDisplayImpl.obj
 0001:00033510       ??0?$IOleInPlaceActiveObjectImpl@VCOPOSRemoteOrderDisplay@@@ATL@@QEAA@XZ 0000000180034510 f i RemoteOrderDisplayImpl.obj
 0001:00033550       ??0?$IOleInPlaceObjectWindowlessImpl@VCOPOSRemoteOrderDisplay@@@ATL@@QEAA@XZ 0000000180034550 f i RemoteOrderDisplayImpl.obj
 0001:00033590       ??0?$IOleObjectImpl@VCOPOSRemoteOrderDisplay@@@ATL@@QEAA@XZ 0000000180034590 f i RemoteOrderDisplayImpl.obj
 0001:000335d0       ??0?$IPersistStorageImpl@VCOPOSRemoteOrderDisplay@@@ATL@@QEAA@XZ 00000001800345d0 f i RemoteOrderDisplayImpl.obj
 0001:00033610       ??0?$IPersistStreamInitImpl@VCOPOSRemoteOrderDisplay@@@ATL@@QEAA@XZ 0000000180034610 f i RemoteOrderDisplayImpl.obj
 0001:00033650       ??0?$IPropertyNotifySinkCP@VCOPOSRemoteOrderDisplay@@VCComDynamicUnkArray@ATL@@@ATL@@QEAA@XZ 0000000180034650 f i RemoteOrderDisplayImpl.obj
 0001:00033690       ??0?$IProvideClassInfo2Impl@$1?CLSID_OPOSRemoteOrderDisplay@@3U_GUID@@B$1?DIID__IOPOSRemoteOrderDisplayEvents@@3U2@B$1?LIBID_OposRemoteOrderDisplay_CCO@@3U2@B$00$0A@VCComTypeInfoHolder@ATL@@@ATL@@QEAA@XZ 0000000180034690 f i RemoteOrderDisplayImpl.obj
 0001:000336d0       ??0?$IQuickActivateImpl@VCOPOSRemoteOrderDisplay@@@ATL@@QEAA@XZ 00000001800346d0 f i RemoteOrderDisplayImpl.obj
 0001:00033710       ??0?$ISpecifyPropertyPagesImpl@VCOPOSRemoteOrderDisplay@@@ATL@@QEAA@XZ 0000000180034710 f i RemoteOrderDisplayImpl.obj
 0001:00033750       ??0?$IViewObjectExImpl@VCOPOSRemoteOrderDisplay@@@ATL@@QEAA@XZ 0000000180034750 f i RemoteOrderDisplayImpl.obj
 0001:00033790       ??0?$_ICPLocator@$1?DIID__IOPOSRemoteOrderDisplayEvents@@3U_GUID@@B@ATL@@QEAA@XZ 0000000180034790 f i RemoteOrderDisplayImpl.obj
 0001:000337a0       ??0?$_ICPLocator@$1?IID_IPropertyNotifySink@@3U_GUID@@B@ATL@@QEAA@XZ 00000001800347a0 f i RemoteOrderDisplayImpl.obj
 0001:000337b0       ??0CComControlBase@ATL@@QEAA@AEAPEAUHWND__@@@Z 00000001800347b0 f i RemoteOrderDisplayImpl.obj
 0001:000339d0       ??0CComDynamicUnkArray@ATL@@QEAA@XZ 00000001800349d0 f i RemoteOrderDisplayImpl.obj
 0001:00033a00       ??0CDynamicStdCallThunk2@ATL@@QEAA@XZ 0000000180034a00 f i RemoteOrderDisplayImpl.obj
 0001:00033a20       ??0CMessageMap@ATL@@QEAA@XZ 0000000180034a20 f i RemoteOrderDisplayImpl.obj
 0001:00033a30       ??0CWindow@ATL@@QEAA@PEAUHWND__@@@Z 0000000180034a30 f i RemoteOrderDisplayImpl.obj
 0001:00033a50       ??0CWndProcThunk@ATL@@QEAA@XZ 0000000180034a50 f i RemoteOrderDisplayImpl.obj
 0001:00033a90       ??0IConnectionPointContainer@@QEAA@XZ 0000000180034a90 f i RemoteOrderDisplayImpl.obj
 0001:00033ad0       ??0IDataObject@@QEAA@XZ    0000000180034ad0 f i RemoteOrderDisplayImpl.obj
 0001:00033b10       ??0IDispatch@@QEAA@XZ      0000000180034b10 f i RemoteOrderDisplayImpl.obj
 0001:00033b50       ??0IOPOSRemoteOrderDisplay@@QEAA@XZ 0000000180034b50 f i RemoteOrderDisplayImpl.obj
 0001:00033b90       ??0IOPOSRemoteOrderDisplay_1_5@@QEAA@XZ 0000000180034b90 f i RemoteOrderDisplayImpl.obj
 0001:00033bd0       ??0IOPOSRemoteOrderDisplay_1_7@@QEAA@XZ 0000000180034bd0 f i RemoteOrderDisplayImpl.obj
 0001:00033c10       ??0IOPOSRemoteOrderDisplay_1_8@@QEAA@XZ 0000000180034c10 f i RemoteOrderDisplayImpl.obj
 0001:00033c50       ??0IOPOSRemoteOrderDisplay_1_9@@QEAA@XZ 0000000180034c50 f i RemoteOrderDisplayImpl.obj
 0001:00033c90       ??0IObjectSafety@@QEAA@XZ  0000000180034c90 f i RemoteOrderDisplayImpl.obj
 0001:00033cd0       ??0IOleControl@@QEAA@XZ    0000000180034cd0 f i RemoteOrderDisplayImpl.obj
 0001:00033d10       ??0IOleInPlaceActiveObject@@QEAA@XZ 0000000180034d10 f i RemoteOrderDisplayImpl.obj
 0001:00033d50       ??0IOleInPlaceObject@@QEAA@XZ 0000000180034d50 f i RemoteOrderDisplayImpl.obj
 0001:00033d90       ??0IOleInPlaceObjectWindowless@@QEAA@XZ 0000000180034d90 f i RemoteOrderDisplayImpl.obj
 0001:00033dd0       ??0IOleObject@@QEAA@XZ     0000000180034dd0 f i RemoteOrderDisplayImpl.obj
 0001:00033e10       ??0IOleWindow@@QEAA@XZ     0000000180034e10 f i RemoteOrderDisplayImpl.obj
 0001:00033e50       ??0IPersist@@QEAA@XZ       0000000180034e50 f i RemoteOrderDisplayImpl.obj
 0001:00033e90       ??0IPersistStorage@@QEAA@XZ 0000000180034e90 f i RemoteOrderDisplayImpl.obj
 0001:00033ed0       ??0IPersistStreamInit@@QEAA@XZ 0000000180034ed0 f i RemoteOrderDisplayImpl.obj
 0001:00033f10       ??0IProvideClassInfo2@@QEAA@XZ 0000000180034f10 f i RemoteOrderDisplayImpl.obj
 0001:00033f50       ??0IProvideClassInfo@@QEAA@XZ 0000000180034f50 f i RemoteOrderDisplayImpl.obj
 0001:00033f90       ??0IQuickActivate@@QEAA@XZ 0000000180034f90 f i RemoteOrderDisplayImpl.obj
 0001:00033fd0       ??0ISpecifyPropertyPages@@QEAA@XZ 0000000180034fd0 f i RemoteOrderDisplayImpl.obj
 0001:00034010       ??0IViewObject2@@QEAA@XZ   0000000180035010 f i RemoteOrderDisplayImpl.obj
 0001:00034050       ??0IViewObject@@QEAA@XZ    0000000180035050 f i RemoteOrderDisplayImpl.obj
 0001:00034090       ??0IViewObjectEx@@QEAA@XZ  0000000180035090 f i RemoteOrderDisplayImpl.obj
 0001:000340d0       ??0OposVariantResult@@QEAA@XZ 00000001800350d0 f i RemoteOrderDisplayImpl.obj
 0001:00034110       ??0_CW@@QEAA@PEBD@Z        0000000180035110 f i RemoteOrderDisplayImpl.obj
 0001:00034160       ??0_CW@@QEAA@PEB_W@Z       0000000180035160 f i RemoteOrderDisplayImpl.obj
 0001:000341b0       ??0_CWNCC@@QEAA@PEBD@Z     00000001800351b0 f i RemoteOrderDisplayImpl.obj
 0001:000341f0       ??1?$CComControl@VCOPOSRemoteOrderDisplay@@V?$CWindowImpl@VCOPOSRemoteOrderDisplay@@VCWindow@ATL@@V?$CWinTraits@$0FGAAAAAA@$0A@@3@@ATL@@@ATL@@UEAA@XZ 00000001800351f0 f i RemoteOrderDisplayImpl.obj
 0001:00034230       ??1?$CComPtr@UIDataAdviseHolder@@@ATL@@QEAA@XZ 0000000180035230 f i RemoteOrderDisplayImpl.obj
 0001:00034260       ??1?$CComPtr@UIOleAdviseHolder@@@ATL@@QEAA@XZ 0000000180035260 f i RemoteOrderDisplayImpl.obj
 0001:00034290       ??1?$CComPtr@UIOleInPlaceSiteWindowless@@@ATL@@QEAA@XZ 0000000180035290 f i RemoteOrderDisplayImpl.obj
 0001:000342c0       ??1?$CComPtrBase@UIDataAdviseHolder@@@ATL@@QEAA@XZ 00000001800352c0 f i RemoteOrderDisplayImpl.obj
 0001:00034310       ??1?$CComPtrBase@UIOleAdviseHolder@@@ATL@@QEAA@XZ 0000000180035310 f i RemoteOrderDisplayImpl.obj
 0001:00034360       ??1?$CComPtrBase@UIOleInPlaceSiteWindowless@@@ATL@@QEAA@XZ 0000000180035360 f i RemoteOrderDisplayImpl.obj
 0001:000343b0       ??1?$CComQIPtr@UIDispatch@@$1?_GUID_00020400_0000_0000_c000_000000000046@@3U__s_GUID@@B@ATL@@QEAA@XZ 00000001800353b0 f i RemoteOrderDisplayImpl.obj
 0001:000343e0       ??1?$CProxy_IOPOSEvents@VCOPOSRemoteOrderDisplay@@@@QEAA@XZ 00000001800353e0 f i RemoteOrderDisplayImpl.obj
 0001:00034410       ??1?$CWindowImpl@VCOPOSRemoteOrderDisplay@@VCWindow@ATL@@V?$CWinTraits@$0FGAAAAAA@$0A@@3@@ATL@@UEAA@XZ 0000000180035410 f i RemoteOrderDisplayImpl.obj
 0001:00034440       ??1?$CWindowImplBaseT@VCWindow@ATL@@V?$CWinTraits@$0FGAAAAAA@$0A@@2@@ATL@@UEAA@XZ 0000000180035440 f i RemoteOrderDisplayImpl.obj
 0001:00034470       ??1?$CWindowImplRoot@VCWindow@ATL@@@ATL@@UEAA@XZ 0000000180035470 f i RemoteOrderDisplayImpl.obj
 0001:00034530       ??1?$IConnectionPointImpl@VCOPOSRemoteOrderDisplay@@$1?DIID__IOPOSRemoteOrderDisplayEvents@@3U_GUID@@BVCComDynamicUnkArray@ATL@@@ATL@@QEAA@XZ 0000000180035530 f i RemoteOrderDisplayImpl.obj
 0001:000345d0       ??1?$IConnectionPointImpl@VCOPOSRemoteOrderDisplay@@$1?IID_IPropertyNotifySink@@3U_GUID@@BVCComDynamicUnkArray@ATL@@@ATL@@QEAA@XZ 00000001800355d0 f i RemoteOrderDisplayImpl.obj
 0001:00034670       ??1?$IPropertyNotifySinkCP@VCOPOSRemoteOrderDisplay@@VCComDynamicUnkArray@ATL@@@ATL@@QEAA@XZ 0000000180035670 f i RemoteOrderDisplayImpl.obj
 0001:000346a0       ??1CComControlBase@ATL@@UEAA@XZ 00000001800356a0 f i RemoteOrderDisplayImpl.obj
 0001:00034790       ??1CComDynamicUnkArray@ATL@@QEAA@XZ 0000000180035790 f i RemoteOrderDisplayImpl.obj
 0001:000347d0       ??1CDynamicStdCallThunk2@ATL@@QEAA@XZ 00000001800357d0 f i RemoteOrderDisplayImpl.obj
 0001:00034810       ??1CWndProcThunk@ATL@@QEAA@XZ 0000000180035810 f i RemoteOrderDisplayImpl.obj
 0001:00034850       ??1OposVariantResult@@QEAA@XZ 0000000180035850 f i RemoteOrderDisplayImpl.obj
 0001:00034890       ??1_CW@@QEAA@XZ            0000000180035890 f i RemoteOrderDisplayImpl.obj
 0001:00034910       ??1_CWNCC@@QEAA@XZ         0000000180035910 f i RemoteOrderDisplayImpl.obj
 0001:00034940       ??B_CW@@QEAAPEB_WXZ        0000000180035940 f i RemoteOrderDisplayImpl.obj
 0001:00034990       ??B_CWNCC@@QEAAPEA_WXZ     0000000180035990 f i RemoteOrderDisplayImpl.obj
 0001:000349c0       ??_EOposVariant@@QEAAPEAXI@Z 00000001800359c0 f i RemoteOrderDisplayImpl.obj
 0001:00034a70       ?EventClaim@COPOSRemoteOrderDisplay@@IEAAXXZ 0000000180035a70 f i RemoteOrderDisplayImpl.obj
 0001:00034ac0       ?EventClose@COPOSRemoteOrderDisplay@@IEAAXXZ 0000000180035ac0 f i RemoteOrderDisplayImpl.obj
 0001:00034b60       ?EventInit@COPOSRemoteOrderDisplay@@IEAAJXZ 0000000180035b60 f i RemoteOrderDisplayImpl.obj
 0001:00034e10       ?EventOpen@COPOSRemoteOrderDisplay@@IEAAXXZ 0000000180035e10 f i RemoteOrderDisplayImpl.obj
 0001:00034e50       ?EventPreCloseRelease@COPOSRemoteOrderDisplay@@IEAAXXZ 0000000180035e50 f i RemoteOrderDisplayImpl.obj
 0001:00034ed0       ?EventUninit@COPOSRemoteOrderDisplay@@IEAAXXZ 0000000180035ed0 f i RemoteOrderDisplayImpl.obj
 0001:00035000       ?EventWindowProc@COPOSRemoteOrderDisplay@@IEAA_JI_K_J@Z 0000000180036000 f i RemoteOrderDisplayImpl.obj
 0001:00035230       ?FireEventCleanup@COPOSRemoteOrderDisplay@@IEAAXXZ 0000000180036230 f i RemoteOrderDisplayImpl.obj
 0001:00035280       ?FireEventSetup@COPOSRemoteOrderDisplay@@IEAA_NXZ 0000000180036280 f i RemoteOrderDisplayImpl.obj
 0001:00035300       ?GetModuleInstance@CComModule@ATL@@QEAAPEAUHINSTANCE__@@XZ 0000000180036300 f i RemoteOrderDisplayImpl.obj
 0001:00035310       ?SetRC@COPOSRemoteOrderDisplay@@IEAAJJ@Z 0000000180036310 f i RemoteOrderDisplayImpl.obj
 0001:00035330       ?s_EventWindowProc@COPOSRemoteOrderDisplay@@KA_JPEAUHWND__@@I_K_J@Z 0000000180036330 f i RemoteOrderDisplayImpl.obj
 0001:000353e0       _snwprintf                 00000001800363e0 f i RemoteOrderDisplayImpl.obj
 0001:00035470       _vfwprintf_l               0000000180036470 f i RemoteOrderDisplayImpl.obj
 0001:000354d0       _vsnwprintf                00000001800364d0 f i RemoteOrderDisplayImpl.obj
 0001:00035530       _vsnwprintf_l              0000000180036530 f i RemoteOrderDisplayImpl.obj
 0001:000355c0       vfwprintf                  00000001800365c0 f i RemoteOrderDisplayImpl.obj
 0001:00035605       DebugBreak                 0000000180036605 f   kernel32:KERNEL32.dll
 0001:0003560b       Sleep                      000000018003660b f   kernel32:KERNEL32.dll
 0001:00035611       GetCurrentProcess          0000000180036611 f   kernel32:KERNEL32.dll
 0001:00035617       TerminateProcess           0000000180036617 f   kernel32:KERNEL32.dll
 0001:0003561d       MultiByteToWideChar        000000018003661d f   kernel32:KERNEL32.dll
 0001:00035623       WideCharToMultiByte        0000000180036623 f   kernel32:KERNEL32.dll
 0001:00035629       DecodePointer              0000000180036629 f   kernel32:KERNEL32.dll
 0001:0003562f       RaiseException             000000018003662f f   kernel32:KERNEL32.dll
 0001:00035635       GetLastError               0000000180036635 f   kernel32:KERNEL32.dll
 0001:0003563b       SetLastError               000000018003663b f   kernel32:KERNEL32.dll
 0001:00035641       InitializeCriticalSectionEx 0000000180036641 f   kernel32:KERNEL32.dll
 0001:00035647       DeleteCriticalSection      0000000180036647 f   kernel32:KERNEL32.dll
 0001:0003564d       EncodePointer              000000018003664d f   kernel32:KERNEL32.dll
 0001:00035653       EnterCriticalSection       0000000180036653 f   kernel32:KERNEL32.dll
 0001:00035659       LeaveCriticalSection       0000000180036659 f   kernel32:KERNEL32.dll
 0001:0003565f       ResetEvent                 000000018003665f f   kernel32:KERNEL32.dll
 0001:00035665       ReleaseMutex               0000000180036665 f   kernel32:KERNEL32.dll
 0001:0003566b       WaitForSingleObject        000000018003666b f   kernel32:KERNEL32.dll
 0001:00035671       GetCurrentThreadId         0000000180036671 f   kernel32:KERNEL32.dll
 0001:00035677       DisableThreadLibraryCalls  0000000180036677 f   kernel32:KERNEL32.dll
 0001:0003567d       FreeLibrary                000000018003667d f   kernel32:KERNEL32.dll
 0001:00035683       GetModuleFileNameW         0000000180036683 f   kernel32:KERNEL32.dll
 0001:00035689       GetModuleHandleW           0000000180036689 f   kernel32:KERNEL32.dll
 0001:0003568f       GetProcAddress             000000018003668f f   kernel32:KERNEL32.dll
 0001:00035695       LoadLibraryExW             0000000180036695 f   kernel32:KERNEL32.dll
 0001:0003569b       LoadResource               000000018003669b f   kernel32:KERNEL32.dll
 0001:000356a1       SizeofResource             00000001800366a1 f   kernel32:KERNEL32.dll
 0001:000356a7       FindResourceW              00000001800366a7 f   kernel32:KERNEL32.dll
 0001:000356ad       GlobalAlloc                00000001800366ad f   kernel32:KERNEL32.dll
 0001:000356b3       GlobalUnlock               00000001800366b3 f   kernel32:KERNEL32.dll
 0001:000356b9       GlobalLock                 00000001800366b9 f   kernel32:KERNEL32.dll
 0001:000356bf       MulDiv                     00000001800366bf f   kernel32:KERNEL32.dll
 0001:000356c5       lstrcmpiW                  00000001800366c5 f   kernel32:KERNEL32.dll
 0001:000356cb       DeleteFileW                00000001800366cb f   kernel32:KERNEL32.dll
 0001:000356d1       CloseHandle                00000001800366d1 f   kernel32:KERNEL32.dll
 0001:000356d7       SetEvent                   00000001800366d7 f   kernel32:KERNEL32.dll
 0001:000356dd       CreateMutexW               00000001800366dd f   kernel32:KERNEL32.dll
 0001:000356e3       CreateEventW               00000001800366e3 f   kernel32:KERNEL32.dll
 0001:000356e9       GetCurrentProcessId        00000001800366e9 f   kernel32:KERNEL32.dll
 0001:000356ef       LocalFree                  00000001800366ef f   kernel32:KERNEL32.dll
 0001:000356f5       FormatMessageW             00000001800366f5 f   kernel32:KERNEL32.dll
 0001:000356fb       GetActiveWindow            00000001800366fb f   user32:USER32.dll
 0001:00035701       MessageBoxW                0000000180036701 f   user32:USER32.dll
 0001:00035707       UnregisterClassW           0000000180036707 f   user32:USER32.dll
 0001:0003570d       PostMessageW               000000018003670d f   user32:USER32.dll
 0001:00035713       DefWindowProcW             0000000180036713 f   user32:USER32.dll
 0001:00035719       CallWindowProcW            0000000180036719 f   user32:USER32.dll
 0001:0003571f       RegisterClassExW           000000018003671f f   user32:USER32.dll
 0001:00035725       GetClassInfoExW            0000000180036725 f   user32:USER32.dll
 0001:0003572b       CreateWindowExW            000000018003672b f   user32:USER32.dll
 0001:00035731       IsWindow                   0000000180036731 f   user32:USER32.dll
 0001:00035737       IsChild                    0000000180036737 f   user32:USER32.dll
 0001:0003573d       DestroyWindow              000000018003673d f   user32:USER32.dll
 0001:00035743       ShowWindow                 0000000180036743 f   user32:USER32.dll
 0001:00035749       SetWindowPos               0000000180036749 f   user32:USER32.dll
 0001:0003574f       CharNextW                  000000018003674f f   user32:USER32.dll
 0001:00035755       SetFocus                   0000000180036755 f   user32:USER32.dll
 0001:0003575b       GetFocus                   000000018003675b f   user32:USER32.dll
 0001:00035761       GetKeyState                0000000180036761 f   user32:USER32.dll
 0001:00035767       GetDC                      0000000180036767 f   user32:USER32.dll
 0001:0003576d       ReleaseDC                  000000018003676d f   user32:USER32.dll
 0001:00035773       BeginPaint                 0000000180036773 f   user32:USER32.dll
 0001:00035779       EndPaint                   0000000180036779 f   user32:USER32.dll
 0001:0003577f       SetWindowRgn               000000018003677f f   user32:USER32.dll
 0001:00035785       InvalidateRect             0000000180036785 f   user32:USER32.dll
 0001:0003578b       GetClientRect              000000018003678b f   user32:USER32.dll
 0001:00035791       IntersectRect              0000000180036791 f   user32:USER32.dll
 0001:00035797       UnionRect                  0000000180036797 f   user32:USER32.dll
 0001:0003579d       OffsetRect                 000000018003679d f   user32:USER32.dll
 0001:000357a3       EqualRect                  00000001800367a3 f   user32:USER32.dll
 0001:000357a9       PtInRect                   00000001800367a9 f   user32:USER32.dll
 0001:000357af       GetWindowLongPtrW          00000001800367af f   user32:USER32.dll
 0001:000357b5       SetWindowLongPtrW          00000001800367b5 f   user32:USER32.dll
 0001:000357bb       GetParent                  00000001800367bb f   user32:USER32.dll
 0001:000357c1       LoadCursorW                00000001800367c1 f   user32:USER32.dll
 0001:000357c7       PeekMessageW               00000001800367c7 f   user32:USER32.dll
 0001:000357cd       RegisterClassW             00000001800367cd f   user32:USER32.dll
 0001:000357d3       LoadBitmapW                00000001800367d3 f   user32:USER32.dll
 0001:000357d9       CloseMetaFile              00000001800367d9 f   gdi32:GDI32.dll
 0001:000357df       CreateDCW                  00000001800367df f   gdi32:GDI32.dll
 0001:000357e5       CreateMetaFileW            00000001800367e5 f   gdi32:GDI32.dll
 0001:000357eb       CreateRectRgnIndirect      00000001800367eb f   gdi32:GDI32.dll
 0001:000357f1       DeleteDC                   00000001800367f1 f   gdi32:GDI32.dll
 0001:000357f7       DeleteMetaFile             00000001800367f7 f   gdi32:GDI32.dll
 0001:000357fd       GetDeviceCaps              00000001800367fd f   gdi32:GDI32.dll
 0001:00035803       RestoreDC                  0000000180036803 f   gdi32:GDI32.dll
 0001:00035809       SaveDC                     0000000180036809 f   gdi32:GDI32.dll
 0001:0003580f       SetMapMode                 000000018003680f f   gdi32:GDI32.dll
 0001:00035815       LPtoDP                     0000000180036815 f   gdi32:GDI32.dll
 0001:0003581b       SetViewportOrgEx           000000018003681b f   gdi32:GDI32.dll
 0001:00035821       SetWindowExtEx             0000000180036821 f   gdi32:GDI32.dll
 0001:00035827       SetWindowOrgEx             0000000180036827 f   gdi32:GDI32.dll
 0001:0003582d       BitBlt                     000000018003682d f   gdi32:GDI32.dll
 0001:00035833       CreateCompatibleDC         0000000180036833 f   gdi32:GDI32.dll
 0001:00035839       DeleteObject               0000000180036839 f   gdi32:GDI32.dll
 0001:0003583f       SelectObject               000000018003683f f   gdi32:GDI32.dll
 0001:00035845       GetObjectW                 0000000180036845 f   gdi32:GDI32.dll
 0001:0003584b       RegCloseKey                000000018003684b f   advapi32:ADVAPI32.dll
 0001:00035851       RegCreateKeyExW            0000000180036851 f   advapi32:ADVAPI32.dll
 0001:00035857       RegDeleteKeyW              0000000180036857 f   advapi32:ADVAPI32.dll
 0001:0003585d       RegDeleteValueW            000000018003685d f   advapi32:ADVAPI32.dll
 0001:00035863       RegEnumKeyExW              0000000180036863 f   advapi32:ADVAPI32.dll
 0001:00035869       RegOpenKeyExW              0000000180036869 f   advapi32:ADVAPI32.dll
 0001:0003586f       RegQueryInfoKeyW           000000018003686f f   advapi32:ADVAPI32.dll
 0001:00035875       RegSetValueExW             0000000180036875 f   advapi32:ADVAPI32.dll
 0001:0003587b       RegQueryValueExW           000000018003687b f   advapi32:ADVAPI32.dll
 0001:00035881       CoCreateInstance           0000000180036881 f   ole32:ole32.dll
 0001:00035887       StringFromGUID2            0000000180036887 f   ole32:ole32.dll
 0001:0003588d       CoTaskMemAlloc             000000018003688d f   ole32:ole32.dll
 0001:00035893       CoTaskMemRealloc           0000000180036893 f   ole32:ole32.dll
 0001:00035899       CoTaskMemFree              0000000180036899 f   ole32:ole32.dll
 0001:0003589f       ReadClassStm               000000018003689f f   ole32:ole32.dll
 0001:000358a5       WriteClassStm              00000001800368a5 f   ole32:ole32.dll
 0001:000358ab       CreateDataAdviseHolder     00000001800368ab f   ole32:ole32.dll
 0001:000358b1       OleSaveToStream            00000001800368b1 f   ole32:ole32.dll
 0001:000358b7       CreateOleAdviseHolder      00000001800368b7 f   ole32:ole32.dll
 0001:000358bd       OleRegGetUserType          00000001800368bd f   ole32:ole32.dll
 0001:000358c3       OleRegGetMiscStatus        00000001800368c3 f   ole32:ole32.dll
 0001:000358c9       OleRegEnumVerbs            00000001800368c9 f   ole32:ole32.dll
 0001:000358cf       CLSIDFromProgID            00000001800368cf f   ole32:ole32.dll
 0001:000358d5       SysAllocString             00000001800368d5 f   oleaut32:OLEAUT32.dll
 0001:000358db       SysAllocStringLen          00000001800368db f   oleaut32:OLEAUT32.dll
 0001:000358e1       SysFreeString              00000001800368e1 f   oleaut32:OLEAUT32.dll
 0001:000358e7       SysStringLen               00000001800368e7 f   oleaut32:OLEAUT32.dll
 0001:000358ed       VariantClear               00000001800368ed f   oleaut32:OLEAUT32.dll
 0001:000358f3       VariantCopyInd             00000001800368f3 f   oleaut32:OLEAUT32.dll
 0001:000358f9       VariantChangeType          00000001800368f9 f   oleaut32:OLEAUT32.dll
 0001:000358ff       SysStringByteLen           00000001800368ff f   oleaut32:OLEAUT32.dll
 0001:00035905       SysAllocStringByteLen      0000000180036905 f   oleaut32:OLEAUT32.dll
 0001:0003590b       VariantInit                000000018003690b f   oleaut32:OLEAUT32.dll
 0001:00035911       VarUI4FromStr              0000000180036911 f   oleaut32:OLEAUT32.dll
 0001:00035917       LoadTypeLib                0000000180036917 f   oleaut32:OLEAUT32.dll
 0001:0003591d       LoadRegTypeLib             000000018003691d f   oleaut32:OLEAUT32.dll
 0001:00035923       RegisterTypeLib            0000000180036923 f   oleaut32:OLEAUT32.dll
 0001:00035929       UnRegisterTypeLib          0000000180036929 f   oleaut32:OLEAUT32.dll
 0001:0003592f       OleCreatePropertyFrame     000000018003692f f   oleaut32:OLEAUT32.dll
 0001:00035940       _RTC_AllocaHelper          0000000180036940 f   LIBCMTD:stack.obj
 0001:00035980       _RTC_CheckStackVars        0000000180036980 f   LIBCMTD:stack.obj
 0001:00035a10       _RTC_CheckStackVars2       0000000180036a10 f   LIBCMTD:stack.obj
 0001:00035b20       _CRT_RTC_INIT              0000000180036b20 f   LIBCMTD:init.obj
 0001:00035b30       _CRT_RTC_INITW             0000000180036b30 f   LIBCMTD:init.obj
 0001:00035b40       _RTC_InitBase              0000000180036b40 f   LIBCMTD:init.obj
 0001:00035b80       _RTC_Shutdown              0000000180036b80 f   LIBCMTD:init.obj
 0001:00035bb0       __GSHandlerCheck           0000000180036bb0 f   LIBCMTD:gshandler.obj
 0001:00035bf0       __GSHandlerCheckCommon     0000000180036bf0 f   LIBCMTD:gshandler.obj
 0001:00035d00       __security_check_cookie    0000000180036d00 f   LIBCMTD:amdsecgs.obj
 0001:00035d30       ??_U@YAPEAX_K@Z            0000000180036d30 f   LIBCMTD:new_array.obj
 0001:00035d50       ??3@YAXPEAX_K@Z            0000000180036d50 f   LIBCMTD:delete_scalar_size.obj
 0001:00035d70       ??_V@YAXPEAX@Z             0000000180036d70 f   LIBCMTD:delete_array.obj
 0001:00035d90       ??_V@YAXPEAX_K@Z           0000000180036d90 f   LIBCMTD:delete_array_size.obj
 0001:00035db0       ?configure_argv@__scrt_narrow_argv_policy@@SAHXZ 0000000180036db0 f i LIBCMTD:utility.obj
 0001:00035ea0       ?initialize_environment@__scrt_narrow_environment_policy@@SAHXZ 0000000180036ea0 f i LIBCMTD:utility.obj
 0001:00035f40       NtCurrentTeb               0000000180036f40 f i LIBCMTD:utility.obj
 0001:00035f50       __scrt_acquire_startup_lock 0000000180036f50 f   LIBCMTD:utility.obj
 0001:00035fc0       __scrt_dllmain_after_initialize_c 0000000180036fc0 f   LIBCMTD:utility.obj
 0001:00035ff0       __scrt_dllmain_before_initialize_c 0000000180036ff0 f   LIBCMTD:utility.obj
 0001:00036010       __scrt_dllmain_crt_thread_attach 0000000180037010 f   LIBCMTD:utility.obj
 0001:00036040       __scrt_dllmain_crt_thread_detach 0000000180037040 f   LIBCMTD:utility.obj
 0001:00036060       __scrt_dllmain_exception_filter 0000000180037060 f   LIBCMTD:utility.obj
 0001:000360d0       __scrt_dllmain_uninitialize_c 00000001800370d0 f   LIBCMTD:utility.obj
 0001:00036100       __scrt_dllmain_uninitialize_critical 0000000180037100 f   LIBCMTD:utility.obj
 0001:00036120       __scrt_initialize_crt      0000000180037120 f   LIBCMTD:utility.obj
 0001:00036170       __scrt_initialize_onexit_tables 0000000180037170 f   LIBCMTD:utility.obj
 0001:00036280       __scrt_is_nonwritable_in_current_image 0000000180037280 f   LIBCMTD:utility.obj
 0001:00036310       __scrt_release_startup_lock 0000000180037310 f   LIBCMTD:utility.obj
 0001:00036340       __scrt_uninitialize_crt    0000000180037340 f   LIBCMTD:utility.obj
 0001:00036380       _onexit                    0000000180037380 f   LIBCMTD:utility.obj
 0001:00036400       at_quick_exit              0000000180037400 f   LIBCMTD:utility.obj
 0001:00036450       atexit                     0000000180037450 f   LIBCMTD:utility.obj
 0001:00036490       ??3@YAXPEAX@Z              0000000180037490 f   LIBCMTD:delete_scalar.obj
 0001:000364b0       __raise_securityfailure    00000001800374b0 f   LIBCMTD:gs_report.obj
 0001:000364f0       __report_gsfailure         00000001800374f0 f   LIBCMTD:gs_report.obj
 0001:000365d0       __report_rangecheckfailure 00000001800375d0 f   LIBCMTD:gs_report.obj
 0001:000365f0       __report_securityfailure   00000001800375f0 f   LIBCMTD:gs_report.obj
 0001:00036690       __report_securityfailureEx 0000000180037690 f   LIBCMTD:gs_report.obj
 0001:00036a50       _Init_thread_abort         0000000180037a50 f   LIBCMTD:thread_safe_statics.obj
 0001:00036a80       _Init_thread_footer        0000000180037a80 f   LIBCMTD:thread_safe_statics.obj
 0001:00036ae0       _Init_thread_header        0000000180037ae0 f   LIBCMTD:thread_safe_statics.obj
 0001:00036b70       _Init_thread_lock          0000000180037b70 f   LIBCMTD:thread_safe_statics.obj
 0001:00036b90       _Init_thread_notify        0000000180037b90 f   LIBCMTD:thread_safe_statics.obj
 0001:00036bf0       _Init_thread_unlock        0000000180037bf0 f   LIBCMTD:thread_safe_statics.obj
 0001:00036c10       _Init_thread_wait          0000000180037c10 f   LIBCMTD:thread_safe_statics.obj
 0001:00036cc0       ??2@YAPEAX_KAEBUnothrow_t@std@@@Z 0000000180037cc0 f   LIBCMTD:new_scalar_nothrow.obj
 0001:00036d00       ??_U@YAPEAX_KAEBUnothrow_t@std@@@Z 0000000180037d00 f   LIBCMTD:new_array_nothrow.obj
 0001:00036d30       __GSHandlerCheck_SEH       0000000180037d30 f   LIBCMTD:gshandlerseh.obj
 0001:00036e00       _alloca_probe              0000000180037e00 f   LIBCMTD:chkstk.obj
 0001:00036e00       __chkstk                   0000000180037e00 f   LIBCMTD:chkstk.obj
 0001:00037260       _CRT_INIT                  0000000180038260 f   LIBCMTD:dll_dllmain.obj
 0001:00037290       _DllMainCRTStartup         0000000180038290 f   LIBCMTD:dll_dllmain.obj
 0001:00037360       ?_RTC_AllocaFailure@@YAXPEAXPEAU_RTC_ALLOCA_NODE@@H@Z 0000000180038360 f   LIBCMTD:error.obj
 0001:000374c0       ?_RTC_Failure@@YAXPEAXH@Z  00000001800384c0 f   LIBCMTD:error.obj
 0001:00037510       ?_RTC_StackFailure@@YAXPEAXPEBD@Z 0000000180038510 f   LIBCMTD:error.obj
 0001:00037940       _RTC_UninitUse             0000000180038940 f   LIBCMTD:error.obj
 0001:00037a10       _vsprintf_s_l              0000000180038a10 f i LIBCMTD:error.obj
 0001:00037a80       sprintf_s                  0000000180038a80 f i LIBCMTD:error.obj
 0001:00037ab0       ?_RTC_GetErrorFunc@@YAP6AHHPEBDH00ZZPEBX@Z 0000000180038ab0 f   LIBCMTD:userapi.obj
 0001:00037ac0       ?_RTC_GetErrorFuncW@@YAP6AHHPEB_WH00ZZPEBX@Z 0000000180038ac0 f   LIBCMTD:userapi.obj
 0001:00037ad0       _RTC_GetErrDesc            0000000180038ad0 f   LIBCMTD:userapi.obj
 0001:00037af0       _RTC_NumErrors             0000000180038af0 f   LIBCMTD:userapi.obj
 0001:00037b00       _RTC_SetErrorFunc          0000000180038b00 f   LIBCMTD:userapi.obj
 0001:00037b20       _RTC_SetErrorFuncW         0000000180038b20 f   LIBCMTD:userapi.obj
 0001:00037b40       _RTC_SetErrorType          0000000180038b40 f   LIBCMTD:userapi.obj
 0001:00037b60       ??2@YAPEAX_K@Z             0000000180038b60 f   LIBCMTD:new_scalar.obj
 0001:00037bb0       __isa_available_init       0000000180038bb0 f   LIBCMTD:cpu_disp.obj
 0001:00037f00       _get_startup_argv_mode     0000000180038f00 f   LIBCMTD:argv_mode.obj
 0001:00037f10       __scrt_is_ucrt_dll_in_use  0000000180038f10 f   LIBCMTD:ucrt_detection.obj
 0001:00037f40       __crt_debugger_hook        0000000180038f40 f   LIBCMTD:utility_desktop.obj
 0001:00037f50       __scrt_fastfail            0000000180038f50 f   LIBCMTD:utility_desktop.obj
 0001:000380f0       __scrt_get_show_window_mode 00000001800390f0 f   LIBCMTD:utility_desktop.obj
 0001:00038150       __scrt_initialize_mta      0000000180039150 f   LIBCMTD:utility_desktop.obj
 0001:00038160       __scrt_initialize_winrt    0000000180039160 f   LIBCMTD:utility_desktop.obj
 0001:00038170       __scrt_is_managed_app      0000000180039170 f   LIBCMTD:utility_desktop.obj
 0001:00038220       __scrt_set_unhandled_exception_filter 0000000180039220 f   LIBCMTD:utility_desktop.obj
 0001:00038240       __scrt_exe_initialize_mta  0000000180039240 f   LIBCMTD:utility_desktop.obj
 0001:00038240       __scrt_stub_for_initialize_mta 0000000180039240 f   LIBCMTD:utility_desktop.obj
 0001:00038250       __scrt_unhandled_exception_filter 0000000180039250 f   LIBCMTD:utility_desktop.obj
 0001:000382d0       _guard_check_icall_nop     00000001800392d0 f i LIBCMTD:guard_support.obj
 0001:000382e0       ReadNoFence64              00000001800392e0 f i LIBCMTD:guard_support.obj
 0001:00038300       ReadPointerNoFence         0000000180039300 f i LIBCMTD:guard_support.obj
 0001:00038320       _guard_icall_checks_enforced 0000000180039320 f i LIBCMTD:guard_support.obj
 0001:00038360       _guard_rf_checks_enforced  0000000180039360 f i LIBCMTD:guard_support.obj
 0001:00038430       __security_init_cookie     0000000180039430 f   LIBCMTD:gs_support.obj
 0001:000384b0       ?__scrt_initialize_type_info@@YAXXZ 00000001800394b0 f   LIBCMTD:tncleanup.obj
 0001:000384d0       ?__scrt_uninitialize_type_info@@YAXXZ 00000001800394d0 f   LIBCMTD:tncleanup.obj
 0001:000384f0       __local_stdio_scanf_options 00000001800394f0 f i LIBCMTD:default_local_stdio_options.obj
 0001:00038500       __scrt_initialize_default_local_stdio_options 0000000180039500 f   LIBCMTD:default_local_stdio_options.obj
 0001:00038550       __scrt_get_dyn_tls_init_callback 0000000180039550 f   LIBCMTD:dyn_tls_init.obj
 0001:00038560       _RTC_Initialize            0000000180039560 f   LIBCMTD:initsect.obj
 0001:000385b0       _RTC_Terminate             00000001800395b0 f   LIBCMTD:initsect.obj
 0001:00038b10       ?_RTC_GetSrcLine@@YAHPEAEPEA_WKPEAH1K@Z 0000000180039b10 f   LIBCMTD:pdblkup.obj
 0001:00038ee0       ??0bad_alloc@std@@AEAA@QEBD@Z 0000000180039ee0 f i LIBCMTD:throw_bad_alloc.obj
 0001:00038f20       ??0bad_alloc@std@@QEAA@AEBV01@@Z 0000000180039f20 f i LIBCMTD:throw_bad_alloc.obj
 0001:00038f60       ??0bad_alloc@std@@QEAA@XZ  0000000180039f60 f i LIBCMTD:throw_bad_alloc.obj
 0001:00038fa0       ??0bad_array_new_length@std@@QEAA@AEBV01@@Z 0000000180039fa0 f i LIBCMTD:throw_bad_alloc.obj
 0001:00038fe0       ??0bad_array_new_length@std@@QEAA@XZ 0000000180039fe0 f i LIBCMTD:throw_bad_alloc.obj
 0001:00039020       ??0exception@std@@QEAA@AEBV01@@Z 000000018003a020 f i LIBCMTD:throw_bad_alloc.obj
 0001:00039080       ??0exception@std@@QEAA@QEBDH@Z 000000018003a080 f i LIBCMTD:throw_bad_alloc.obj
 0001:000390d0       ??1bad_alloc@std@@UEAA@XZ  000000018003a0d0 f i LIBCMTD:throw_bad_alloc.obj
 0001:000390f0       ??1bad_array_new_length@std@@UEAA@XZ 000000018003a0f0 f i LIBCMTD:throw_bad_alloc.obj
 0001:00039110       ??1exception@std@@UEAA@XZ  000000018003a110 f i LIBCMTD:throw_bad_alloc.obj
 0001:00039140       ??_Gbad_alloc@std@@UEAAPEAXI@Z 000000018003a140 f i LIBCMTD:throw_bad_alloc.obj
 0001:00039140       ??_Ebad_alloc@std@@UEAAPEAXI@Z 000000018003a140 f i LIBCMTD:throw_bad_alloc.obj
 0001:00039180       ??_Ebad_array_new_length@std@@UEAAPEAXI@Z 000000018003a180 f i LIBCMTD:throw_bad_alloc.obj
 0001:00039180       ??_Gbad_array_new_length@std@@UEAAPEAXI@Z 000000018003a180 f i LIBCMTD:throw_bad_alloc.obj
 0001:000391c0       ??_Eexception@std@@UEAAPEAXI@Z 000000018003a1c0 f i LIBCMTD:throw_bad_alloc.obj
 0001:000391c0       ??_Gexception@std@@UEAAPEAXI@Z 000000018003a1c0 f i LIBCMTD:throw_bad_alloc.obj
 0001:00039200       ?__scrt_throw_std_bad_alloc@@YAXXZ 000000018003a200 f   LIBCMTD:throw_bad_alloc.obj
 0001:00039230       ?__scrt_throw_std_bad_array_new_length@@YAXXZ 000000018003a230 f   LIBCMTD:throw_bad_alloc.obj
 0001:00039260       ?what@exception@std@@UEBAPEBDXZ 000000018003a260 f i LIBCMTD:throw_bad_alloc.obj
 0001:000392a0       ??1type_info@@UEAA@XZ      000000018003a2a0 f   LIBCMTD:std_type_info_static.obj
 0001:000392c0       ??_Gtype_info@@UEAAPEAXI@Z 000000018003a2c0 f i LIBCMTD:std_type_info_static.obj
 0001:000392c0       ??_Etype_info@@UEAAPEAXI@Z 000000018003a2c0 f i LIBCMTD:std_type_info_static.obj
 0001:000392fc       ??$?2PEAUHINSTANCE__@@@Wrapper@?$CSimpleArray@PEAUHINSTANCE__@@V?$CSimpleArrayEqualHelper@PEAUHINSTANCE__@@@ATL@@@ATL@@SAPEAX_KPEAPEAUHINSTANCE__@@@Z 000000018003a2fc f i atls:atlbase.obj
 0001:00039300       ??0?$CSimpleArray@PEAUHINSTANCE__@@V?$CSimpleArrayEqualHelper@PEAUHINSTANCE__@@@ATL@@@ATL@@QEAA@XZ 000000018003a300 f i atls:atlbase.obj
 0001:00039310       ??0CAtlBaseModule@ATL@@QEAA@XZ 000000018003a310 f   atls:atlbase.obj
 0001:000393b8       ??0Wrapper@?$CSimpleArray@PEAUHINSTANCE__@@V?$CSimpleArrayEqualHelper@PEAUHINSTANCE__@@@ATL@@@ATL@@QEAA@AEBQEAUHINSTANCE__@@@Z 000000018003a3b8 f i atls:atlbase.obj
 0001:000393c4       ??0_ATL_BASE_MODULE70@ATL@@QEAA@XZ 000000018003a3c4 f i atls:atlbase.obj
 0001:000393f0       ??1?$CSimpleArray@PEAUHINSTANCE__@@V?$CSimpleArrayEqualHelper@PEAUHINSTANCE__@@@ATL@@@ATL@@QEAA@XZ 000000018003a3f0 f i atls:atlbase.obj
 0001:00039418       ??1CAtlBaseModule@ATL@@QEAA@XZ 000000018003a418 f   atls:atlbase.obj
 0001:0003944c       ??1_ATL_BASE_MODULE70@ATL@@QEAA@XZ 000000018003a44c f i atls:atlbase.obj
 0001:00039478       ??A?$CSimpleArray@PEAUHINSTANCE__@@V?$CSimpleArrayEqualHelper@PEAUHINSTANCE__@@@ATL@@@ATL@@QEAAAEAPEAUHINSTANCE__@@H@Z 000000018003a478 f i atls:atlbase.obj
 0001:000394a4       ?Add@?$CSimpleArray@PEAUHINSTANCE__@@V?$CSimpleArrayEqualHelper@PEAUHINSTANCE__@@@ATL@@@ATL@@QEAAHAEBQEAUHINSTANCE__@@@Z 000000018003a4a4 f i atls:atlbase.obj
 0001:00039558       ?AddResourceInstance@CAtlBaseModule@ATL@@QEAA_NPEAUHINSTANCE__@@@Z 000000018003a558 f   atls:atlbase.obj
 0001:000395a0       ?GetHInstanceAt@CAtlBaseModule@ATL@@QEAAPEAUHINSTANCE__@@H@Z 000000018003a5a0 f   atls:atlbase.obj
 0001:00039618       ?GetSize@?$CSimpleArray@PEAUHINSTANCE__@@V?$CSimpleArrayEqualHelper@PEAUHINSTANCE__@@@ATL@@@ATL@@QEBAHXZ 000000018003a618 f i atls:atlbase.obj
 0001:0003961c       ?InternalSetAtIndex@?$CSimpleArray@PEAUHINSTANCE__@@V?$CSimpleArrayEqualHelper@PEAUHINSTANCE__@@@ATL@@@ATL@@QEAAXHAEBQEAUHINSTANCE__@@@Z 000000018003a61c f i atls:atlbase.obj
 0001:00039634       ?RemoveAll@?$CSimpleArray@PEAUHINSTANCE__@@V?$CSimpleArrayEqualHelper@PEAUHINSTANCE__@@@ATL@@@ATL@@QEAAXXZ 000000018003a634 f i atls:atlbase.obj
 0001:0003965c       ?RemoveAt@?$CSimpleArray@PEAUHINSTANCE__@@V?$CSimpleArrayEqualHelper@PEAUHINSTANCE__@@@ATL@@@ATL@@QEAAHH@Z 000000018003a65c f i atls:atlbase.obj
 0001:00039700       ?RemoveResourceInstance@CAtlBaseModule@ATL@@QEAA_NPEAUHINSTANCE__@@@Z 000000018003a700 f   atls:atlbase.obj
 0001:00039780       ?memmove_s@Checked@ATL@@YAXPEAX_KPEBX1@Z 000000018003a780 f i atls:atlbase.obj
 0001:00039c28       ?GetCodeAddress@_stdcallthunk@ATL@@QEAAPEAXXZ 000000018003ac28 f i atls:atlthunk.obj
 0001:00039c54       ?Init@_stdcallthunk@ATL@@QEAAH_KPEAX@Z 000000018003ac54 f i atls:atlthunk.obj
 0001:00039ca4       ?__AllocStdCallThunk@@YAPEAXXZ 000000018003aca4 f   atls:atlthunk.obj
 0001:00039cac       ?__AllocStdCallThunk@ATL@@YAPEAXXZ 000000018003acac f   atls:atlthunk.obj
 0001:00039cb4       ?__AllocStdCallThunk_cmn@@YAPEAXXZ 000000018003acb4 f   atls:atlthunk.obj
 0001:00039d8c       ?__FreeStdCallThunk@@YAXPEAX@Z 000000018003ad8c f   atls:atlthunk.obj
 0001:00039dac       ?__FreeStdCallThunk@ATL@@YAXPEAX@Z 000000018003adac f   atls:atlthunk.obj
 0001:00039dcc       ?__FreeStdCallThunk_cmn@@YAXPEAX@Z 000000018003adcc f   atls:atlthunk.obj
 0001:00039e6c       AtlThunk_AllocateData      000000018003ae6c f   atls:atlthunk.obj
 0001:00039ee8       AtlThunk_DataToCode        000000018003aee8 f   atls:atlthunk.obj
 0001:00039f3c       AtlThunk_FreeData          000000018003af3c f   atls:atlthunk.obj
 0001:00039f9c       AtlThunk_InitData          000000018003af9c f   atls:atlthunk.obj
 0001:0003a060       memset_repmovs             000000018003b060 f   libvcruntimed:memset.obj
 0001:0003a080       memset                     000000018003b080 f   libvcruntimed:memset.obj
 0001:0003a210       ??$__crt_interlocked_exchange_pointer@$$A6AXXZP6AXXZ@@YAP6AXXZPEDS6AXXZQ6AXXZ@Z 000000018003b210 f i libvcruntimed:purevirt.obj
 0001:0003a230       ??$__crt_interlocked_read_pointer@$$A6AXXZ@@YAP6AXXZPEDS6AXXZ@Z 000000018003b230 f i libvcruntimed:purevirt.obj
 0001:0003a250       ?__crt_interlocked_read_64@@YA_JPED_J@Z 000000018003b250 f i libvcruntimed:purevirt.obj
 0001:0003a270       _get_purecall_handler      000000018003b270 f   libvcruntimed:purevirt.obj
 0001:0003a290       _purecall                  000000018003b290 f   libvcruntimed:purevirt.obj
 0001:0003a2d0       _set_purecall_handler      000000018003b2d0 f   libvcruntimed:purevirt.obj
 0001:0003a300       memcmp                     000000018003b300 f   libvcruntimed:memcmp.obj
 0001:0003a3e0       memcpy_repmovs             000000018003b3e0 f   libvcruntimed:memcpy.obj
 0001:0003a400       memcpy                     000000018003b400 f   libvcruntimed:memcpy.obj
 0001:0003a400       memmove                    000000018003b400 f   libvcruntimed:memcpy.obj
 0001:0003a7e0       wcsstr                     000000018003b7e0 f   libvcruntimed:wcsstr.obj
 0001:0003ae40       __vcrt_initialize          000000018003be40 f   libvcruntimed:initialization.obj
 0001:0003ae80       __vcrt_thread_attach       000000018003be80 f   libvcruntimed:initialization.obj
 0001:0003aea0       __vcrt_thread_detach       000000018003bea0 f   libvcruntimed:initialization.obj
 0001:0003aec0       __vcrt_uninitialize        000000018003bec0 f   libvcruntimed:initialization.obj
 0001:0003aee0       __vcrt_uninitialize_critical 000000018003bee0 f   libvcruntimed:initialization.obj
 0001:0003af00       __C_specific_handler       000000018003bf00 f   libvcruntimed:riscchandler.obj
 0001:0003b370       ??$?0AEAViterator@TryBlockMap4@FH4@@AEAV012@$0A@@?$pair@Viterator@TryBlockMap4@FH4@@V123@@std@@QEAA@AEAViterator@TryBlockMap4@FH4@@0@Z 000000018003c370 f i libvcruntimed:risctrnsctrl.obj
 0001:0003b3d0       ??$?0AEAViterator@TryBlockMap@__FrameHandler3@@AEAV012@$0A@@?$pair@Viterator@TryBlockMap@__FrameHandler3@@V123@@std@@QEAA@AEAViterator@TryBlockMap@__FrameHandler3@@0@Z 000000018003c3d0 f i libvcruntimed:risctrnsctrl.obj
 0001:0003b590       ??$_CallSETranslator@V__FrameHandler3@@@@YAHPEAUEHExceptionRecord@@PEA_KPEAU_CONTEXT@@PEAU_xDISPATCHER_CONTEXT@@PEBU_s_FuncInfo@@K1@Z 000000018003c590 f i libvcruntimed:risctrnsctrl.obj
 0001:0003b620       ??$_CallSETranslator@V__FrameHandler4@@@@YAHPEAUEHExceptionRecord@@PEA_KPEAU_CONTEXT@@PEAU_xDISPATCHER_CONTEXT@@PEAUFuncInfo4@FH4@@K1@Z 000000018003c620 f i libvcruntimed:risctrnsctrl.obj
 0001:0003b6b0       ??$forward@AEAViterator@TryBlockMap4@FH4@@@std@@YAAEAViterator@TryBlockMap4@FH4@@AEAV123@@Z 000000018003c6b0 f i libvcruntimed:risctrnsctrl.obj
 0001:0003b6c0       ??$forward@AEAViterator@TryBlockMap@__FrameHandler3@@@std@@YAAEAViterator@TryBlockMap@__FrameHandler3@@AEAV123@@Z 000000018003c6c0 f i libvcruntimed:risctrnsctrl.obj
 0001:0003b6d0       ??0FuncInfo4@FH4@@QEAA@XZ  000000018003c6d0 f i libvcruntimed:risctrnsctrl.obj
 0001:0003b740       ??0FuncInfoHeader@FH4@@QEAA@XZ 000000018003c740 f i libvcruntimed:risctrnsctrl.obj
 0001:0003b760       ??0iterator@TryBlockMap4@FH4@@QEAA@AEAV12@I@Z 000000018003c760 f i libvcruntimed:risctrnsctrl.obj
 0001:0003b790       ??0iterator@TryBlockMap@__FrameHandler3@@QEAA@AEAV12@I@Z 000000018003c790 f i libvcruntimed:risctrnsctrl.obj
 0001:0003b7c0       ??4iterator@TryBlockMap4@FH4@@QEAAAEAV012@AEBV012@@Z 000000018003c7c0 f i libvcruntimed:risctrnsctrl.obj
 0001:0003b7e0       ??9iterator@TryBlockMap4@FH4@@QEBA_NAEBV012@@Z 000000018003c7e0 f i libvcruntimed:risctrnsctrl.obj
 0001:0003b820       ??Diterator@TryBlockMap4@FH4@@QEAA?AUTryBlockMapEntry4@2@XZ 000000018003c820 f i libvcruntimed:risctrnsctrl.obj
 0001:0003b850       ??Eiterator@TryBlockMap4@FH4@@QEAAAEAV012@XZ 000000018003c850 f i libvcruntimed:risctrnsctrl.obj
 0001:0003b890       ?CatchTryBlock@__FrameHandler3@@SAPEBU_s_TryBlockMapEntry@@PEBU_s_FuncInfo@@H@Z 000000018003c890 f   libvcruntimed:risctrnsctrl.obj
 0001:0003b920       ?DecompFuncInfo@FH4@@YA_JPEAEAEAUFuncInfo4@1@_KH@Z 000000018003c920 f i libvcruntimed:risctrnsctrl.obj
 0001:0003b960       ?DecompFuncInfo@FH4@@YA_JPEAEAEAUFuncInfo4@1@_KH_N@Z 000000018003c960 f i libvcruntimed:risctrnsctrl.obj
 0001:0003bb30       ?DecompTryBlock@TryBlockMap4@FH4@@AEAAXXZ 000000018003cb30 f i libvcruntimed:risctrnsctrl.obj
 0001:0003bbb0       ?ExecutionInCatch@__FrameHandler3@@SA_NPEAU_xDISPATCHER_CONTEXT@@PEBU_s_FuncInfo@@@Z 000000018003cbb0 f   libvcruntimed:risctrnsctrl.obj
 0001:0003bc00       ?ExecutionInCatch@__FrameHandler4@@SA_NPEAU_xDISPATCHER_CONTEXT@@PEAUFuncInfo4@FH4@@@Z 000000018003cc00 f   libvcruntimed:risctrnsctrl.obj
 0001:0003bc20       ?FrameUnwindToEmptyState@__FrameHandler3@@SAXPEA_KPEAU_xDISPATCHER_CONTEXT@@PEBU_s_FuncInfo@@@Z 000000018003cc20 f   libvcruntimed:risctrnsctrl.obj
 0001:0003bcc0       ?FrameUnwindToEmptyState@__FrameHandler4@@SAXPEA_KPEAU_xDISPATCHER_CONTEXT@@PEAUFuncInfo4@FH4@@@Z 000000018003ccc0 f   libvcruntimed:risctrnsctrl.obj
 0001:0003bd10       ?GetEstablisherFrame@__FrameHandler3@@SAPEA_KPEA_KPEAU_xDISPATCHER_CONTEXT@@PEBU_s_FuncInfo@@0@Z 000000018003cd10 f   libvcruntimed:risctrnsctrl.obj
 0001:0003be80       ?GetEstablisherFrame@__FrameHandler4@@SAPEA_KPEA_KPEAU_xDISPATCHER_CONTEXT@@PEAUFuncInfo4@FH4@@0@Z 000000018003ce80 f   libvcruntimed:risctrnsctrl.obj
 0001:0003bef0       ?GetRangeOfTrysToCheck@__FrameHandler3@@SA?AU?$pair@Viterator@TryBlockMap@__FrameHandler3@@V123@@std@@AEAVTryBlockMap@1@HPEAU_xDISPATCHER_CONTEXT@@PEBU_s_FuncInfo@@H@Z 000000018003cef0 f   libvcruntimed:risctrnsctrl.obj
 0001:0003c130       ?GetRangeOfTrysToCheck@__FrameHandler4@@SA?AU?$pair@Viterator@TryBlockMap4@FH4@@V123@@std@@AEAVTryBlockMap4@FH4@@HPEAU_xDISPATCHER_CONTEXT@@PEAUFuncInfo4@5@H@Z 000000018003d130 f   libvcruntimed:risctrnsctrl.obj
 0001:0003c2e0       ?ReadInt@FH4@@YAHPEAPEAE@Z 000000018003d2e0 f i libvcruntimed:risctrnsctrl.obj
 0001:0003c320       ?ReadUnsigned@FH4@@YAIPEAPEAE@Z 000000018003d320 f i libvcruntimed:risctrnsctrl.obj
 0001:0003c3b0       ?UnwindNestedFrames@__FrameHandler3@@SAXPEA_KPEAUEHExceptionRecord@@PEAU_CONTEXT@@0PEAXPEBU_s_FuncInfo@@HHPEBU_s_HandlerType@@PEAU_xDISPATCHER_CONTEXT@@E@Z 000000018003d3b0 f   libvcruntimed:risctrnsctrl.obj
 0001:0003c520       ?UnwindNestedFrames@__FrameHandler4@@SAXPEA_KPEAUEHExceptionRecord@@PEAU_CONTEXT@@0PEAXPEAUFuncInfo4@FH4@@HHPEAUHandlerType4@5@PEAU_xDISPATCHER_CONTEXT@@E@Z 000000018003d520 f   libvcruntimed:risctrnsctrl.obj
 0001:0003c6f0       ?begin@TryBlockMap4@FH4@@QEAA?AViterator@12@XZ 000000018003d6f0 f i libvcruntimed:risctrnsctrl.obj
 0001:0003c720       ?end@TryBlockMap4@FH4@@QEAA?AViterator@12@XZ 000000018003d720 f i libvcruntimed:risctrnsctrl.obj
 0001:0003c750       ?imageRelToByteBuffer@FH4@@YAPEAE_KH@Z 000000018003d750 f i libvcruntimed:risctrnsctrl.obj
 0001:0003c770       ?incrementToSentinel@iterator@TryBlockMap4@FH4@@QEAAXXZ 000000018003d770 f i libvcruntimed:risctrnsctrl.obj
 0001:0003c790       ?setBuffer@TryBlockMap4@FH4@@QEAAXViterator@12@@Z 000000018003d790 f i libvcruntimed:risctrnsctrl.obj
 0001:0003c800       _CreateFrameInfo           000000018003d800 f   libvcruntimed:risctrnsctrl.obj
 0001:0003c870       _FindAndUnlinkFrame        000000018003d870 f   libvcruntimed:risctrnsctrl.obj
 0001:0003c900       _GetImageBase              000000018003d900 f   libvcruntimed:risctrnsctrl.obj
 0001:0003c920       _GetThrowImageBase         000000018003d920 f   libvcruntimed:risctrnsctrl.obj
 0001:0003c940       _SetImageBase              000000018003d940 f   libvcruntimed:risctrnsctrl.obj
 0001:0003c960       _SetThrowImageBase         000000018003d960 f   libvcruntimed:risctrnsctrl.obj
 0001:0003c980       __CxxFrameHandler          000000018003d980 f   libvcruntimed:risctrnsctrl.obj
 0001:0003c9c0       __CxxFrameHandler2         000000018003d9c0 f   libvcruntimed:risctrnsctrl.obj
 0001:0003ca00       __CxxFrameHandler3         000000018003da00 f   libvcruntimed:risctrnsctrl.obj
 0001:0003cae0       __CxxFrameHandler4         000000018003dae0 f   libvcruntimed:risctrnsctrl.obj
 0001:0003cbf0       __C_specific_handler_noexcept 000000018003dbf0 f   libvcruntimed:chandler_noexcept.obj
 0001:0003cc60       ?<lambda_invoker_cdecl>@_Closure_wrapper_b75ec0ea_1@@CAPEAX_K@Z 000000018003dc60 f i libvcruntimed:std_type_info.obj
 0001:0003cc80       ?<lambda_invoker_cdecl>@_Closure_wrapper_b75ec0ea_2@@CAXQEAX@Z 000000018003dc80 f i libvcruntimed:std_type_info.obj
 0001:0003cca0       ??$?RD@__crt_internal_free_policy@@QEBAXQEBD@Z 000000018003dca0 f i libvcruntimed:std_type_info.obj
 0001:0003ccd0       ??$?RX@__crt_internal_free_policy@@QEBAXQEBX@Z 000000018003dcd0 f i libvcruntimed:std_type_info.obj
 0001:0003cd00       ??$__crt_interlocked_compare_exchange_pointer@$$CBDPEAD$$T@@YAPEBDPEDSEBDQEAD$$T@Z 000000018003dd00 f i libvcruntimed:std_type_info.obj
 0001:0003cd40       ??$__crt_interlocked_read_pointer@$$CBD@@YAPEBDPEDSEBD@Z 000000018003dd40 f i libvcruntimed:std_type_info.obj
 0001:0003cd60       ??0?$__crt_unique_heap_ptr@DU__crt_internal_free_policy@@@@QEAA@QEAD@Z 000000018003dd60 f i libvcruntimed:std_type_info.obj
 0001:0003cd80       ??0?$__crt_unique_heap_ptr@XU__crt_internal_free_policy@@@@QEAA@QEAX@Z 000000018003dd80 f i libvcruntimed:std_type_info.obj
 0001:0003cda0       ??1?$__crt_unique_heap_ptr@DU__crt_internal_free_policy@@@@QEAA@XZ 000000018003dda0 f i libvcruntimed:std_type_info.obj
 0001:0003cdc0       ??1?$__crt_unique_heap_ptr@XU__crt_internal_free_policy@@@@QEAA@XZ 000000018003ddc0 f i libvcruntimed:std_type_info.obj
 0001:0003cde0       ??B?$__crt_unique_heap_ptr@DU__crt_internal_free_policy@@@@QEBA_NXZ 000000018003dde0 f i libvcruntimed:std_type_info.obj
 0001:0003ce00       ??B?$__crt_unique_heap_ptr@XU__crt_internal_free_policy@@@@QEBA_NXZ 000000018003de00 f i libvcruntimed:std_type_info.obj
 0001:0003ce20       ??B_Closure_wrapper_b75ec0ea_1@@QEBAP6APEAX_K@ZXZ 000000018003de20 f i libvcruntimed:std_type_info.obj
 0001:0003ce30       ??B_Closure_wrapper_b75ec0ea_2@@QEBAP6AXQEAX@ZXZ 000000018003de30 f i libvcruntimed:std_type_info.obj
 0001:0003cea0       ?detach@?$__crt_unique_heap_ptr@XU__crt_internal_free_policy@@@@QEAAPEAXXZ 000000018003dea0 f i libvcruntimed:std_type_info.obj
 0001:0003ced0       ?get@?$__crt_unique_heap_ptr@DU__crt_internal_free_policy@@@@QEBAPEADXZ 000000018003ded0 f i libvcruntimed:std_type_info.obj
 0001:0003cee0       ?get@?$__crt_unique_heap_ptr@XU__crt_internal_free_policy@@@@QEBAPEAXXZ 000000018003dee0 f i libvcruntimed:std_type_info.obj
 0001:0003cef0       ?is_valid@?$__crt_unique_heap_ptr@DU__crt_internal_free_policy@@@@QEBA_NXZ 000000018003def0 f i libvcruntimed:std_type_info.obj
 0001:0003cf20       ?is_valid@?$__crt_unique_heap_ptr@XU__crt_internal_free_policy@@@@QEBA_NXZ 000000018003df20 f i libvcruntimed:std_type_info.obj
 0001:0003cf50       ?release@?$__crt_unique_heap_ptr@DU__crt_internal_free_policy@@@@QEAAXXZ 000000018003df50 f i libvcruntimed:std_type_info.obj
 0001:0003cf80       ?release@?$__crt_unique_heap_ptr@XU__crt_internal_free_policy@@@@QEAAXXZ 000000018003df80 f i libvcruntimed:std_type_info.obj
 0001:0003cfb0       __std_type_info_compare    000000018003dfb0 f   libvcruntimed:std_type_info.obj
 0001:0003cff0       __std_type_info_destroy_list 000000018003dff0 f   libvcruntimed:std_type_info.obj
 0001:0003d050       __std_type_info_hash       000000018003e050 f   libvcruntimed:std_type_info.obj
 0001:0003d100       __std_type_info_name       000000018003e100 f   libvcruntimed:std_type_info.obj
 0001:0003d3b0       __vcrt_GetModuleFileNameW  000000018003e3b0 f   libvcruntimed:winapi_thunks.obj
 0001:0003d3e0       __vcrt_GetModuleHandleW    000000018003e3e0 f   libvcruntimed:winapi_thunks.obj
 0001:0003d400       __vcrt_LoadLibraryExW      000000018003e400 f   libvcruntimed:winapi_thunks.obj
 0001:0003d430       ??$?RD@__crt_public_free_policy@@QEBAXQEBD@Z 000000018003e430 f i libvcruntimed:std_exception.obj
 0001:0003d450       ??0?$__crt_unique_heap_ptr@DU__crt_public_free_policy@@@@QEAA@QEAD@Z 000000018003e450 f i libvcruntimed:std_exception.obj
 0001:0003d470       ??1?$__crt_unique_heap_ptr@DU__crt_public_free_policy@@@@QEAA@XZ 000000018003e470 f i libvcruntimed:std_exception.obj
 0001:0003d490       ??B?$__crt_unique_heap_ptr@DU__crt_public_free_policy@@@@QEBA_NXZ 000000018003e490 f i libvcruntimed:std_exception.obj
 0001:0003d4b0       ?detach@?$__crt_unique_heap_ptr@DU__crt_public_free_policy@@@@QEAAPEADXZ 000000018003e4b0 f i libvcruntimed:std_exception.obj
 0001:0003d4e0       ?get@?$__crt_unique_heap_ptr@DU__crt_public_free_policy@@@@QEBAPEADXZ 000000018003e4e0 f i libvcruntimed:std_exception.obj
 0001:0003d4f0       ?is_valid@?$__crt_unique_heap_ptr@DU__crt_public_free_policy@@@@QEBA_NXZ 000000018003e4f0 f i libvcruntimed:std_exception.obj
 0001:0003d520       ?release@?$__crt_unique_heap_ptr@DU__crt_public_free_policy@@@@QEAAXXZ 000000018003e520 f i libvcruntimed:std_exception.obj
 0001:0003d550       __std_exception_copy       000000018003e550 f   libvcruntimed:std_exception.obj
 0001:0003d690       __std_exception_destroy    000000018003e690 f   libvcruntimed:std_exception.obj
 0001:0003d6d0       _CxxThrowException         000000018003e6d0 f   libvcruntimed:throw.obj
 0001:0003d820       ??$?RU__vcrt_ptd@@@__crt_internal_free_policy@@QEBAXQEBU__vcrt_ptd@@@Z 000000018003e820 f i libvcruntimed:per_thread_data.obj
 0001:0003d850       ??0?$__crt_unique_heap_ptr@U__vcrt_ptd@@U__crt_internal_free_policy@@@@QEAA@QEAU__vcrt_ptd@@@Z 000000018003e850 f i libvcruntimed:per_thread_data.obj
 0001:0003d890       ??1?$__crt_unique_heap_ptr@U__vcrt_ptd@@U__crt_internal_free_policy@@@@QEAA@XZ 000000018003e890 f i libvcruntimed:per_thread_data.obj
 0001:0003d8d0       ??B?$__crt_unique_heap_ptr@U__vcrt_ptd@@U__crt_internal_free_policy@@@@QEBA_NXZ 000000018003e8d0 f i libvcruntimed:per_thread_data.obj
 0001:0003d8f0       ?detach@?$__crt_unique_heap_ptr@U__vcrt_ptd@@U__crt_internal_free_policy@@@@QEAAPEAU__vcrt_ptd@@XZ 000000018003e8f0 f i libvcruntimed:per_thread_data.obj
 0001:0003d920       ?get@?$__crt_unique_heap_ptr@U__vcrt_ptd@@U__crt_internal_free_policy@@@@QEBAPEAU__vcrt_ptd@@XZ 000000018003e920 f i libvcruntimed:per_thread_data.obj
 0001:0003d930       ?is_valid@?$__crt_unique_heap_ptr@U__vcrt_ptd@@U__crt_internal_free_policy@@@@QEBA_NXZ 000000018003e930 f i libvcruntimed:per_thread_data.obj
 0001:0003d960       ?release@?$__crt_unique_heap_ptr@U__vcrt_ptd@@U__crt_internal_free_policy@@@@QEAAXXZ 000000018003e960 f i libvcruntimed:per_thread_data.obj
 0001:0003d9d0       __vcrt_freefls             000000018003e9d0 f   libvcruntimed:per_thread_data.obj
 0001:0003da10       __vcrt_freeptd             000000018003ea10 f   libvcruntimed:per_thread_data.obj
 0001:0003da70       __vcrt_getptd              000000018003ea70 f   libvcruntimed:per_thread_data.obj
 0001:0003daa0       __vcrt_getptd_noexit       000000018003eaa0 f   libvcruntimed:per_thread_data.obj
 0001:0003dc40       __vcrt_getptd_noinit       000000018003ec40 f   libvcruntimed:per_thread_data.obj
 0001:0003dca0       __vcrt_initialize_ptd      000000018003eca0 f   libvcruntimed:per_thread_data.obj
 0001:0003dcf0       __vcrt_uninitialize_ptd    000000018003ecf0 f   libvcruntimed:per_thread_data.obj
 0001:0003dd20       __vcrt_initialize_locks    000000018003ed20 f   libvcruntimed:locks.obj
 0001:0003dd90       __vcrt_lock                000000018003ed90 f   libvcruntimed:locks.obj
 0001:0003ddc0       __vcrt_uninitialize_locks  000000018003edc0 f   libvcruntimed:locks.obj
 0001:0003de20       __vcrt_unlock              000000018003ee20 f   libvcruntimed:locks.obj
 0001:0003de60       _NLG_Notify                000000018003ee60 f   libvcruntimed:notify.obj
 0001:0003de80       __NLG_Dispatch2            000000018003ee80 f   libvcruntimed:notify.obj
 0001:0003de90       __NLG_Return2              000000018003ee90 f   libvcruntimed:notify.obj
 0001:0003deb0       __except_validate_context_record 000000018003eeb0 f   libvcruntimed:jbcxrval.obj
 0001:0003df10       __except_validate_jump_buffer 000000018003ef10 f   libvcruntimed:jbcxrval.obj
 0001:0003df30       __except_validate_jump_buffer_common 000000018003ef30 f i libvcruntimed:jbcxrval.obj
 0001:0003dfb0       __DestructExceptionObject  000000018003efb0 f   libvcruntimed:ehhelpers.obj
 0001:0003e0b0       ?_CallMemberFunction0@@YAXQEAX0@Z 000000018003f0b0 f i libvcruntimed:ehhelpers.obj
 0001:0003e0e0       ?raw_name@type_info@@QEBAPEBDXZ 000000018003f0e0 f i libvcruntimed:ehhelpers.obj
 0001:0003e0f0       _IsExceptionObjectToBeDestroyed 000000018003f0f0 f   libvcruntimed:ehhelpers.obj
 0001:0003e140       _SetWinRTOutOfMemoryExceptionCallback 000000018003f140 f   libvcruntimed:ehhelpers.obj
 0001:0003e160       __AdjustPointer            000000018003f160 f   libvcruntimed:ehhelpers.obj
 0001:0003e1e0       __FrameUnwindFilter        000000018003f1e0 f   libvcruntimed:ehhelpers.obj
 0001:0003e270       __GetPlatformExceptionInfo 000000018003f270 f   libvcruntimed:ehhelpers.obj
 0001:0003e320       __current_exception        000000018003f320 f   libvcruntimed:ehhelpers.obj
 0001:0003e340       __current_exception_context 000000018003f340 f   libvcruntimed:ehhelpers.obj
 0001:0003e360       __processing_throw         000000018003f360 f   libvcruntimed:ehhelpers.obj
 0001:0003e380       __std_terminate            000000018003f380 f   libvcruntimed:ehhelpers.obj
 0001:0003e390       _is_exception_typeof       000000018003f390 f   libvcruntimed:ehhelpers.obj
 0001:0003e4e0       ?GetCurrentState@__FrameHandler3@@SAHPEA_KPEAU_xDISPATCHER_CONTEXT@@PEBU_s_FuncInfo@@@Z 000000018003f4e0 f   libvcruntimed:ehstate.obj
 0001:0003e540       ?GetUnwindTryBlock@__FrameHandler3@@SAHPEA_KPEAU_xDISPATCHER_CONTEXT@@PEBU_s_FuncInfo@@@Z 000000018003f540 f   libvcruntimed:ehstate.obj
 0001:0003e590       ?SetState@__FrameHandler3@@SAXPEA_KPEBU_s_FuncInfo@@H@Z 000000018003f590 f   libvcruntimed:ehstate.obj
 0001:0003e5c0       ?SetUnwindTryBlock@__FrameHandler3@@SAXPEA_KPEAU_xDISPATCHER_CONTEXT@@PEBU_s_FuncInfo@@H@Z 000000018003f5c0 f   libvcruntimed:ehstate.obj
 0001:0003e630       ?StateFromControlPc@__FrameHandler3@@SAHPEBU_s_FuncInfo@@PEAU_xDISPATCHER_CONTEXT@@@Z 000000018003f630 f   libvcruntimed:ehstate.obj
 0001:0003e670       ?StateFromControlPc@__FrameHandler4@@SAHPEAUFuncInfo4@FH4@@PEAU_xDISPATCHER_CONTEXT@@@Z 000000018003f670 f   libvcruntimed:ehstate.obj
 0001:0003e6b0       ?StateFromIp@__FrameHandler3@@SAHPEBU_s_FuncInfo@@PEAU_xDISPATCHER_CONTEXT@@_K@Z 000000018003f6b0 f   libvcruntimed:ehstate.obj
 0001:0003e7a0       ?StateFromIp@__FrameHandler4@@SAHPEAUFuncInfo4@FH4@@PEAU_xDISPATCHER_CONTEXT@@_K@Z 000000018003f7a0 f   libvcruntimed:ehstate.obj
 0001:0003e890       ?__FuncRelToRealOffset@@YA_KPEAU_xDISPATCHER_CONTEXT@@I@Z 000000018003f890 f i libvcruntimed:ehstate.obj
 0001:0003e8c0       ?__RVAtoRealOffset@@YA_KPEAU_xDISPATCHER_CONTEXT@@H@Z 000000018003f8c0 f i libvcruntimed:ehstate.obj
 0001:00040c50       ??$TypeMatchHelper@V__FrameHandler3@@@@YAHPEBU_s_HandlerType@@PEBU_s_CatchableType@@PEBU_s_ThrowInfo@@@Z 0000000180041c50 f i libvcruntimed:frame.obj
 0001:00040e50       ??$TypeMatchHelper@V__FrameHandler4@@@@YAHPEAUHandlerType4@FH4@@PEBU_s_CatchableType@@PEBU_s_ThrowInfo@@@Z 0000000180041e50 f i libvcruntimed:frame.obj
 0001:00041060       ??$__InternalCxxFrameHandler@V__FrameHandler3@@@@YA?AW4_EXCEPTION_DISPOSITION@@PEAUEHExceptionRecord@@PEA_KPEAU_CONTEXT@@PEAU_xDISPATCHER_CONTEXT@@PEBU_s_FuncInfo@@H1E@Z 0000000180042060 f i libvcruntimed:frame.obj
 0001:00041500       ??$__InternalCxxFrameHandler@V__FrameHandler4@@@@YA?AW4_EXCEPTION_DISPOSITION@@PEAUEHExceptionRecord@@PEA_KPEAU_CONTEXT@@PEAU_xDISPATCHER_CONTEXT@@PEAUFuncInfo4@FH4@@H1E@Z 0000000180042500 f i libvcruntimed:frame.obj
 0001:000419c0       ??0HandlerMap4@FH4@@QEAA@PEBUTryBlockMapEntry4@1@_KH@Z 00000001800429c0 f i libvcruntimed:frame.obj
 0001:00041a80       ??0HandlerMap@__FrameHandler3@@QEAA@PEBU_s_TryBlockMapEntry@@_KI@Z 0000000180042a80 f i libvcruntimed:frame.obj
 0001:00041ad0       ??0HandlerType4@FH4@@QEAA@XZ 0000000180042ad0 f i libvcruntimed:frame.obj
 0001:00041af0       ??0TryBlockMap4@FH4@@QEAA@PEBUFuncInfo4@1@_K@Z 0000000180042af0 f i libvcruntimed:frame.obj
 0001:00041b80       ??0TryBlockMap@__FrameHandler3@@QEAA@PEBU_s_FuncInfo@@_K@Z 0000000180042b80 f i libvcruntimed:frame.obj
 0001:00041bb0       ??0UWMap4@FH4@@QEAA@PEBUFuncInfo4@1@_K@Z 0000000180042bb0 f i libvcruntimed:frame.obj
 0001:00041c20       ??0bad_exception@std@@QEAA@AEBV01@@Z 0000000180042c20 f i libvcruntimed:frame.obj
 0001:00041c60       ??0bad_exception@std@@QEAA@XZ 0000000180042c60 f i libvcruntimed:frame.obj
 0001:00041ca0       ??0iterator@HandlerMap4@FH4@@QEAA@AEAV12@I@Z 0000000180042ca0 f i libvcruntimed:frame.obj
 0001:00041cd0       ??0iterator@HandlerMap@__FrameHandler3@@QEAA@AEAV12@I@Z 0000000180042cd0 f i libvcruntimed:frame.obj
 0001:00041d00       ??0iterator@UWMap4@FH4@@QEAA@AEAV12@PEAE@Z 0000000180042d00 f i libvcruntimed:frame.obj
 0001:00041d30       ??1bad_exception@std@@UEAA@XZ 0000000180042d30 f i libvcruntimed:frame.obj
 0001:00041d50       ??4iterator@UWMap4@FH4@@QEAAAEAV012@AEBV012@@Z 0000000180042d50 f i libvcruntimed:frame.obj
 0001:00041da0       ??8iterator@HandlerMap4@FH4@@QEBA_NAEBV012@@Z 0000000180042da0 f i libvcruntimed:frame.obj
 0001:00041de0       ??8iterator@HandlerMap@__FrameHandler3@@QEBA_NAEBV012@@Z 0000000180042de0 f i libvcruntimed:frame.obj
 0001:00041e20       ??8type_info@@QEBA_NAEBV0@@Z 0000000180042e20 f i libvcruntimed:frame.obj
 0001:00041e70       ??9iterator@HandlerMap4@FH4@@QEBA_NAEBV012@@Z 0000000180042e70 f i libvcruntimed:frame.obj
 0001:00041eb0       ??9iterator@HandlerMap@__FrameHandler3@@QEBA_NAEBV012@@Z 0000000180042eb0 f i libvcruntimed:frame.obj
 0001:00041ef0       ??Diterator@HandlerMap4@FH4@@QEAA?AUHandlerType4@2@XZ 0000000180042ef0 f i libvcruntimed:frame.obj
 0001:00041f20       ??Diterator@HandlerMap@__FrameHandler3@@QEAA?BU_s_HandlerType@@XZ 0000000180042f20 f i libvcruntimed:frame.obj
 0001:00041f60       ??Diterator@TryBlockMap@__FrameHandler3@@QEAA?BU_s_TryBlockMapEntry@@XZ 0000000180042f60 f i libvcruntimed:frame.obj
 0001:00041fb0       ??Diterator@UWMap4@FH4@@QEAA?AUUnwindMapEntry4@2@XZ 0000000180042fb0 f i libvcruntimed:frame.obj
 0001:00042030       ??Eiterator@HandlerMap4@FH4@@QEAAAEAV012@XZ 0000000180043030 f i libvcruntimed:frame.obj
 0001:00042070       ??Eiterator@HandlerMap@__FrameHandler3@@QEAAAEAV012@XZ 0000000180043070 f i libvcruntimed:frame.obj
 0001:00042090       ??Eiterator@TryBlockMap@__FrameHandler3@@QEAAAEAV012@XZ 0000000180043090 f i libvcruntimed:frame.obj
 0001:000420b0       ??Eiterator@UWMap4@FH4@@QEAAAEAV012@XZ 00000001800430b0 f i libvcruntimed:frame.obj
 0001:000420f0       ??Giterator@UWMap4@FH4@@QEBA_JAEBV012@@Z 00000001800430f0 f i libvcruntimed:frame.obj
 0001:00042110       ??Miterator@TryBlockMap4@FH4@@QEBA_NAEBV012@@Z 0000000180043110 f i libvcruntimed:frame.obj
 0001:00042150       ??Miterator@TryBlockMap@__FrameHandler3@@QEBA_NAEBV012@@Z 0000000180043150 f i libvcruntimed:frame.obj
 0001:00042190       ??Oiterator@UWMap4@FH4@@QEBA_NAEBV012@@Z 0000000180043190 f i libvcruntimed:frame.obj
 0001:000421d0       ??Piterator@UWMap4@FH4@@QEBA_NAEBV012@@Z 00000001800431d0 f i libvcruntimed:frame.obj
 0001:00042210       ??_Ebad_exception@std@@UEAAPEAXI@Z 0000000180043210 f i libvcruntimed:frame.obj
 0001:00042210       ??_Gbad_exception@std@@UEAAPEAXI@Z 0000000180043210 f i libvcruntimed:frame.obj
 0001:00042250       ?BuildCatchObject@__FrameHandler3@@SAXPEAUEHExceptionRecord@@PEAXPEBU_s_HandlerType@@PEBU_s_CatchableType@@@Z 0000000180043250 f   libvcruntimed:frame.obj
 0001:00042290       ?BuildCatchObject@__FrameHandler4@@SAXPEAUEHExceptionRecord@@PEAXPEAUHandlerType4@FH4@@PEBU_s_CatchableType@@@Z 0000000180043290 f   libvcruntimed:frame.obj
 0001:000422d0       ?BuildCatchObjectHelper@__FrameHandler3@@SAHPEAUEHExceptionRecord@@PEAXPEBU_s_HandlerType@@PEBU_s_CatchableType@@@Z 00000001800432d0 f   libvcruntimed:frame.obj
 0001:00042310       ?BuildCatchObjectHelper@__FrameHandler4@@SAHPEAUEHExceptionRecord@@PEAXPEAUHandlerType4@FH4@@PEBU_s_CatchableType@@@Z 0000000180043310 f   libvcruntimed:frame.obj
 0001:00042350       ?CxxCallCatchBlock@__FrameHandler3@@SAPEAXPEAU_EXCEPTION_RECORD@@@Z 0000000180043350 f   libvcruntimed:frame.obj
 0001:000425b0       ?CxxCallCatchBlock@__FrameHandler4@@SAPEAXPEAU_EXCEPTION_RECORD@@@Z 00000001800435b0 f   libvcruntimed:frame.obj
 0001:000428e0       ?DecompHandler@HandlerMap4@FH4@@AEAAXXZ 00000001800438e0 f i libvcruntimed:frame.obj
 0001:00042cb0       ?FrameUnwindToState@__FrameHandler3@@SAXPEA_KPEAU_xDISPATCHER_CONTEXT@@PEBU_s_FuncInfo@@H@Z 0000000180043cb0 f   libvcruntimed:frame.obj
 0001:00042f00       ?FrameUnwindToState@__FrameHandler4@@SAXPEA_KPEAU_xDISPATCHER_CONTEXT@@PEAUFuncInfo4@FH4@@H@Z 0000000180043f00 f   libvcruntimed:frame.obj
 0001:00043250       ?GetHandlerSearchState@__FrameHandler3@@SAHPEA_KPEAU_xDISPATCHER_CONTEXT@@PEBU_s_FuncInfo@@@Z 0000000180044250 f i libvcruntimed:frame.obj
 0001:00043300       ?GetHandlerSearchState@__FrameHandler4@@SAHPEA_KPEAU_xDISPATCHER_CONTEXT@@PEAUFuncInfo4@FH4@@@Z 0000000180044300 f i libvcruntimed:frame.obj
 0001:00043380       ?GetMaxState@__FrameHandler3@@SAHPEAU_xDISPATCHER_CONTEXT@@PEBU_s_FuncInfo@@@Z 0000000180044380 f i libvcruntimed:frame.obj
 0001:000433a0       ?GetMaxState@__FrameHandler4@@SAHPEAU_xDISPATCHER_CONTEXT@@PEAUFuncInfo4@FH4@@@Z 00000001800443a0 f i libvcruntimed:frame.obj
 0001:000435e0       ?ReadEntry@UWMap4@FH4@@AEAAXPEAPEAE@Z 00000001800445e0 f i libvcruntimed:frame.obj
 0001:00043690       ?TypeMatch@__FrameHandler3@@SAHPEBU_s_HandlerType@@PEBU_s_CatchableType@@PEBU_s_ThrowInfo@@@Z 0000000180044690 f   libvcruntimed:frame.obj
 0001:000436c0       ?TypeMatch@__FrameHandler4@@SAHPEAUHandlerType4@FH4@@PEBU_s_CatchableType@@PEBU_s_ThrowInfo@@@Z 00000001800446c0 f   libvcruntimed:frame.obj
 0001:000436f0       ?WalkBack@UWMap4@FH4@@AEAAXPEAPEAE@Z 00000001800446f0 f i libvcruntimed:frame.obj
 0001:00043740       ?WalkBack@iterator@UWMap4@FH4@@QEAAXXZ 0000000180044740 f i libvcruntimed:frame.obj
 0001:00043780       ?WalkForward@UWMap4@FH4@@AEAAXPEAPEAE@Z 0000000180044780 f i libvcruntimed:frame.obj
 0001:000437b0       ?_CallMemberFunction1@@YAXQEAX00@Z 00000001800447b0 f i libvcruntimed:frame.obj
 0001:000437f0       ?_CallMemberFunction2@@YAXQEAX00H@Z 00000001800447f0 f i libvcruntimed:frame.obj
 0001:00043840       ?_ValidateExecute@@YA_NP6A_JXZ@Z 0000000180044840 f i libvcruntimed:frame.obj
 0001:00043860       ?_ValidateRead@@YA_NPEBXI@Z 0000000180044860 f i libvcruntimed:frame.obj
 0001:00043880       ?_ValidateWrite@@YA_NPEAXI@Z 0000000180044880 f i libvcruntimed:frame.obj
 0001:000438e0       ?begin@HandlerMap4@FH4@@QEAA?AViterator@12@XZ 00000001800448e0 f i libvcruntimed:frame.obj
 0001:00043910       ?begin@HandlerMap@__FrameHandler3@@QEAA?AViterator@12@XZ 0000000180044910 f i libvcruntimed:frame.obj
 0001:00043940       ?begin@UWMap4@FH4@@QEAA?AViterator@12@XZ 0000000180044940 f i libvcruntimed:frame.obj
 0001:00043970       ?end@HandlerMap4@FH4@@QEAA?AViterator@12@XZ 0000000180044970 f i libvcruntimed:frame.obj
 0001:000439a0       ?end@HandlerMap@__FrameHandler3@@QEAA?AViterator@12@XZ 00000001800449a0 f i libvcruntimed:frame.obj
 0001:000439d0       ?getESTypes@__FrameHandler3@@SAPEBU_s_ESTypeList@@PEBU_s_FuncInfo@@@Z 00000001800449d0 f i libvcruntimed:frame.obj
 0001:00043a10       ?getESTypes@__FrameHandler4@@SAPEBU_s_ESTypeList@@PEAUFuncInfo4@FH4@@@Z 0000000180044a10 f i libvcruntimed:frame.obj
 0001:00043a20       ?getLastEntry@HandlerMap4@FH4@@QEAAPEAUHandlerType4@2@XZ 0000000180044a20 f i libvcruntimed:frame.obj
 0001:00043a60       ?getLastEntry@HandlerMap@__FrameHandler3@@QEAAPEBU_s_HandlerType@@XZ 0000000180044a60 f i libvcruntimed:frame.obj
 0001:00043a80       ?getMagicNum@__FrameHandler3@@SAIPEBU_s_FuncInfo@@@Z 0000000180044a80 f i libvcruntimed:frame.obj
 0001:00043aa0       ?getMagicNum@__FrameHandler4@@SAIPEAUFuncInfo4@FH4@@@Z 0000000180044aa0 f i libvcruntimed:frame.obj
 0001:00043ab0       ?getNumTryBlocks@TryBlockMap4@FH4@@QEAAIXZ 0000000180044ab0 f i libvcruntimed:frame.obj
 0001:00043ac0       ?getNumTryBlocks@TryBlockMap@__FrameHandler3@@QEAAIXZ 0000000180044ac0 f i libvcruntimed:frame.obj
 0001:00043ae0       ?getStartStop@UWMap4@FH4@@QEAAXHHAEAViterator@12@0@Z 0000000180044ae0 f i libvcruntimed:frame.obj
 0001:00043c00       ?getStateFromIterators@UWMap4@FH4@@SAHAEBViterator@12@H0H0@Z 0000000180044c00 f i libvcruntimed:frame.obj
 0001:00043d40       ?isEHs@__FrameHandler3@@SA_NPEBU_s_FuncInfo@@@Z 0000000180044d40 f i libvcruntimed:frame.obj
 0001:00043d80       ?isEHs@__FrameHandler4@@SA_NPEAUFuncInfo4@FH4@@@Z 0000000180044d80 f i libvcruntimed:frame.obj
 0001:00043da0       ?isNoExcept@__FrameHandler3@@SA_NPEBU_s_FuncInfo@@@Z 0000000180044da0 f i libvcruntimed:frame.obj
 0001:00043de0       ?isNoExcept@__FrameHandler4@@SA_NPEAUFuncInfo4@FH4@@@Z 0000000180044de0 f i libvcruntimed:frame.obj
 0001:00043e00       ?reset@HandlerType4@FH4@@QEAAXXZ 0000000180044e00 f i libvcruntimed:frame.obj
 0001:00043e60       ?resetBuffer@HandlerMap4@FH4@@QEAAXXZ 0000000180044e60 f i libvcruntimed:frame.obj
 0001:00043e80       ?setBuffer@HandlerMap4@FH4@@QEAAXI@Z 0000000180044e80 f i libvcruntimed:frame.obj
 0001:00043ee0       __BuildCatchObject         0000000180044ee0 f   libvcruntimed:frame.obj
 0001:00043f20       __BuildCatchObjectHelper   0000000180044f20 f   libvcruntimed:frame.obj
 0001:00043f60       __TypeMatch                0000000180044f60 f   libvcruntimed:frame.obj
 0001:00043f90       __vcrt_EncodePointer       0000000180044f90 f i libvcruntimed:frame.obj
 0001:00043fb0       ??0Block@_HeapManager@@QEAA@XZ 0000000180044fb0 f i libvcruntimed:undname.obj
 0001:00043fd0       ??0DName@@QEAA@AEAPEBDD@Z  0000000180044fd0 f   libvcruntimed:undname.obj
 0001:00044280       ??0DName@@QEAA@AEBV0@@Z    0000000180045280 f i libvcruntimed:undname.obj
 0001:000442b0       ??0DName@@QEAA@D@Z         00000001800452b0 f   libvcruntimed:undname.obj
 0001:00044300       ??0DName@@QEAA@PEAV0@@Z    0000000180045300 f   libvcruntimed:undname.obj
 0001:000443e0       ??0DName@@QEAA@PEBD@Z      00000001800453e0 f   libvcruntimed:undname.obj
 0001:00044450       ??0DName@@QEAA@W4DNameStatus@@@Z 0000000180045450 f   libvcruntimed:undname.obj
 0001:00044500       ??0DName@@QEAA@XZ          0000000180045500 f i libvcruntimed:undname.obj
 0001:00044530       ??0DName@@QEAA@_J@Z        0000000180045530 f   libvcruntimed:undname.obj
 0001:00044640       ??0DName@@QEAA@_K@Z        0000000180045640 f   libvcruntimed:undname.obj
 0001:00044710       ??0DNameNode@@IEAA@XZ      0000000180045710 f i libvcruntimed:undname.obj
 0001:00044730       ??0Replicator@@QEAA@XZ     0000000180045730 f i libvcruntimed:undname.obj
 0001:00044770       ??0UnDecorator@@QEAA@PEBDP6APEADJ@ZK@Z 0000000180045770 f i libvcruntimed:undname.obj
 0001:00044820       ??0charNode@@QEAA@D@Z      0000000180045820 f i libvcruntimed:undname.obj
 0001:00044860       ??0pDNameNode@@QEAA@PEAVDName@@@Z 0000000180045860 f   libvcruntimed:undname.obj
 0001:000448e0       ??0pairNode@@QEAA@PEBVDNameNode@@0@Z 00000001800458e0 f i libvcruntimed:undname.obj
 0001:00044940       ??0pcharNode@@QEAA@PEBDH@Z 0000000180045940 f   libvcruntimed:undname.obj
 0001:00044a30       ??2@YAPEAX_KAEAV_HeapManager@@H@Z 0000000180045a30 f i libvcruntimed:undname.obj
 0001:00044a60       ??4DName@@QEAAAEAV0@AEBV0@@Z 0000000180045a60 f   libvcruntimed:undname.obj
 0001:00044a90       ??4DName@@QEAAAEAV0@D@Z    0000000180045a90 f i libvcruntimed:undname.obj
 0001:00044ae0       ??4DName@@QEAAAEAV0@PEAV0@@Z 0000000180045ae0 f   libvcruntimed:undname.obj
 0001:00044bb0       ??4DName@@QEAAAEAV0@PEBD@Z 0000000180045bb0 f   libvcruntimed:undname.obj
 0001:00044c00       ??4DName@@QEAAAEAV0@W4DNameStatus@@@Z 0000000180045c00 f   libvcruntimed:undname.obj
 0001:00044c90       ??AReplicator@@QEBA?AVDName@@H@Z 0000000180045c90 f   libvcruntimed:undname.obj
 0001:00044d20       ??H@YA?AVDName@@DAEBV0@@Z  0000000180045d20 f i libvcruntimed:undname.obj
 0001:00044d70       ??H@YA?AVDName@@PEBDAEBV0@@Z 0000000180045d70 f i libvcruntimed:undname.obj
 0001:00044dc0       ??H@YA?AVDName@@W4DNameStatus@@AEBV0@@Z 0000000180045dc0 f i libvcruntimed:undname.obj
 0001:00044e10       ??HDName@@QEBA?AV0@AEBV0@@Z 0000000180045e10 f   libvcruntimed:undname.obj
 0001:00044e60       ??HDName@@QEBA?AV0@D@Z     0000000180045e60 f   libvcruntimed:undname.obj
 0001:00044eb0       ??HDName@@QEBA?AV0@PEAV0@@Z 0000000180045eb0 f   libvcruntimed:undname.obj
 0001:00044f00       ??HDName@@QEBA?AV0@PEBD@Z  0000000180045f00 f   libvcruntimed:undname.obj
 0001:00044f50       ??HDName@@QEBA?AV0@W4DNameStatus@@@Z 0000000180045f50 f   libvcruntimed:undname.obj
 0001:00044fa0       ??YDName@@QEAAAEAV0@AEBV0@@Z 0000000180045fa0 f   libvcruntimed:undname.obj
 0001:00045020       ??YDName@@QEAAAEAV0@D@Z    0000000180046020 f   libvcruntimed:undname.obj
 0001:000450c0       ??YDName@@QEAAAEAV0@PEAV0@@Z 00000001800460c0 f   libvcruntimed:undname.obj
 0001:000451a0       ??YDName@@QEAAAEAV0@PEBD@Z 00000001800461a0 f   libvcruntimed:undname.obj
 0001:00045270       ??YDName@@QEAAAEAV0@W4DNameStatus@@@Z 0000000180046270 f   libvcruntimed:undname.obj
 0001:000452e0       ??YReplicator@@QEAAAEAV0@AEBVDName@@@Z 00000001800462e0 f   libvcruntimed:undname.obj
 0001:000453a0       ??_5DName@@QEAAAEAV0@AEBV0@@Z 00000001800463a0 f   libvcruntimed:undname.obj
 0001:00045410       ?Constructor@_HeapManager@@QEAAXP6APEAX_K@ZP6AXPEAX@Z@Z 0000000180046410 f i libvcruntimed:undname.obj
 0001:00045470       ?Destructor@_HeapManager@@QEAAXXZ 0000000180046470 f i libvcruntimed:undname.obj
 0001:000454f0       ?UScore@UnDecorator@@SAPEBDW4Tokens@@@Z 00000001800464f0 f   libvcruntimed:undname.obj
 0001:00045530       ?append@DName@@AEAAXPEBVDNameNode@@@Z 0000000180046530 f   libvcruntimed:undname.obj
 0001:000455e0       ?composeDeclaration@UnDecorator@@CA?AVDName@@AEBV2@@Z 00000001800465e0 f i libvcruntimed:undname.obj
 0001:000477b0       ?dbGetString@DName@@QEBAPEADXZ 00000001800487b0 f   libvcruntimed:undname.obj
 0001:000477e0       ?doAccessSpecifiers@UnDecorator@@SAHXZ 00000001800487e0 f i libvcruntimed:undname.obj
 0001:00047810       ?doAllocationLanguage@UnDecorator@@SAHXZ 0000000180048810 f i libvcruntimed:undname.obj
 0001:00047840       ?doAllocationModel@UnDecorator@@SAHXZ 0000000180048840 f i libvcruntimed:undname.obj
 0001:00047870       ?doEcsu@UnDecorator@@SAHXZ 0000000180048870 f i libvcruntimed:undname.obj
 0001:000478a0       ?doEllipsis@UnDecorator@@SAHXZ 00000001800488a0 f i libvcruntimed:undname.obj
 0001:000478d0       ?doFunctionReturns@UnDecorator@@SAHXZ 00000001800488d0 f i libvcruntimed:undname.obj
 0001:00047900       ?doMSKeywords@UnDecorator@@SAHXZ 0000000180048900 f i libvcruntimed:undname.obj
 0001:00047930       ?doMemberTypes@UnDecorator@@SAHXZ 0000000180048930 f i libvcruntimed:undname.obj
 0001:00047960       ?doNameOnly@UnDecorator@@SAHXZ 0000000180048960 f i libvcruntimed:undname.obj
 0001:00047970       ?doNoIdentCharCheck@UnDecorator@@SAHXZ 0000000180048970 f i libvcruntimed:undname.obj
 0001:00047980       ?doPchar@DName@@AEAAXPEBDH@Z 0000000180048980 f   libvcruntimed:undname.obj
 0001:00047b10       ?doPtr64@UnDecorator@@SAHXZ 0000000180048b10 f i libvcruntimed:undname.obj
 0001:00047b40       ?doRestrictionSpec@UnDecorator@@SAHXZ 0000000180048b40 f i libvcruntimed:undname.obj
 0001:00047b70       ?doThisTypes@UnDecorator@@SAHXZ 0000000180048b70 f i libvcruntimed:undname.obj
 0001:00047ba0       ?doThrowTypes@UnDecorator@@SAHXZ 0000000180048ba0 f i libvcruntimed:undname.obj
 0001:00047bd0       ?doTypeOnly@UnDecorator@@SAHXZ 0000000180048bd0 f i libvcruntimed:undname.obj
 0001:00047be0       ?doUnderScore@UnDecorator@@SAHXZ 0000000180048be0 f i libvcruntimed:undname.obj
 0001:00047c10       ?getArgumentList@UnDecorator@@CA?AVDName@@XZ 0000000180048c10 f   libvcruntimed:undname.obj
 0001:00047db0       ?getArgumentTypes@UnDecorator@@CA?AVDName@@XZ 0000000180048db0 f   libvcruntimed:undname.obj
 0001:00047f60       ?getArrayType@UnDecorator@@CA?AVDName@@AEBV2@@Z 0000000180048f60 f i libvcruntimed:undname.obj
 0001:000482c0       ?getBasedType@UnDecorator@@CA?AVDName@@XZ 00000001800492c0 f   libvcruntimed:undname.obj
 0001:000483b0       ?getBasicDataType@UnDecorator@@CA?AVDName@@AEBV2@@Z 00000001800493b0 f   libvcruntimed:undname.obj
 0001:00048b20       ?getCHPEName@UnDecorator@@QEAAPEADPEADH@Z 0000000180049b20 f i libvcruntimed:undname.obj
 0001:00048cf0       ?getCallIndex@UnDecorator@@CA?AVDName@@XZ 0000000180049cf0 f i libvcruntimed:undname.obj
 0001:00048d10       ?getCallingConvention@UnDecorator@@CA?AVDName@@XZ 0000000180049d10 f   libvcruntimed:undname.obj
 0001:00048f50       ?getDataIndirectType@UnDecorator@@CA?AVDName@@AEBV2@PEBD0H@Z 0000000180049f50 f   libvcruntimed:undname.obj
 0001:00049a20       ?getDataIndirectType@UnDecorator@@CA?AVDName@@XZ 000000018004aa20 f i libvcruntimed:undname.obj
 0001:00049a90       ?getDataType@UnDecorator@@CA?AVDName@@PEAV2@@Z 000000018004aa90 f   libvcruntimed:undname.obj
 0001:00049c20       ?getDecoratedName@UnDecorator@@CA?AVDName@@XZ 000000018004ac20 f   libvcruntimed:undname.obj
 0001:0004a0c0       ?getDimension@UnDecorator@@CA?AVDName@@_N@Z 000000018004b0c0 f   libvcruntimed:undname.obj
 0001:0004a420       ?getDispatchTarget@UnDecorator@@CA?AVDName@@XZ 000000018004b420 f   libvcruntimed:undname.obj
 0001:0004a4f0       ?getDisplacement@UnDecorator@@CA?AVDName@@XZ 000000018004b4f0 f i libvcruntimed:undname.obj
 0001:0004a510       ?getECSUDataType@UnDecorator@@CA?AVDName@@XZ 000000018004b510 f   libvcruntimed:undname.obj
 0001:0004a750       ?getECSUName@UnDecorator@@CA?AVDName@@XZ 000000018004b750 f i libvcruntimed:undname.obj
 0001:0004a770       ?getEnumType@UnDecorator@@CA?AVDName@@XZ 000000018004b770 f i libvcruntimed:undname.obj
 0001:0004a8f0       ?getExtendedDataIndirectType@UnDecorator@@CA?AVDName@@AEAPEBDAEA_NH@Z 000000018004b8f0 f   libvcruntimed:undname.obj
 0001:0004ac10       ?getExternalDataType@UnDecorator@@CA?AVDName@@AEBV2@@Z 000000018004bc10 f i libvcruntimed:undname.obj
 0001:0004acf0       ?getFunctionIndirectType@UnDecorator@@CA?AVDName@@AEBV2@@Z 000000018004bcf0 f   libvcruntimed:undname.obj
 0001:0004b2f0       ?getGuardNumber@UnDecorator@@CA?AVDName@@XZ 000000018004c2f0 f i libvcruntimed:undname.obj
 0001:0004b310       ?getLastChar@DName@@QEBADXZ 000000018004c310 f i libvcruntimed:undname.obj
 0001:0004b360       ?getLastChar@DNameStatusNode@@UEBADXZ 000000018004c360 f i libvcruntimed:undname.obj
 0001:0004b3a0       ?getLastChar@charNode@@UEBADXZ 000000018004c3a0 f i libvcruntimed:undname.obj
 0001:0004b3b0       ?getLastChar@pDNameNode@@UEBADXZ 000000018004c3b0 f i libvcruntimed:undname.obj
 0001:0004b3f0       ?getLastChar@pairNode@@UEBADXZ 000000018004c3f0 f i libvcruntimed:undname.obj
 0001:0004b470       ?getLastChar@pcharNode@@UEBADXZ 000000018004c470 f i libvcruntimed:undname.obj
 0001:0004b4b0       ?getLexicalFrame@UnDecorator@@CA?AVDName@@XZ 000000018004c4b0 f i libvcruntimed:undname.obj
 0001:0004b500       ?getMemory@_HeapManager@@QEAAPEAX_KH@Z 000000018004c500 f   libvcruntimed:undname.obj
 0001:0004b680       ?getNoexcept@UnDecorator@@CA?AVDName@@XZ 000000018004c680 f   libvcruntimed:undname.obj
 0001:0004b710       ?getNumberOfDimensions@UnDecorator@@CAHXZ 000000018004c710 f   libvcruntimed:undname.obj
 0001:0004b830       ?getOperatorName@UnDecorator@@CA?AVDName@@_NPEA_N@Z 000000018004c830 f i libvcruntimed:undname.obj
 0001:0004c610       ?getPointerType@UnDecorator@@CA?AVDName@@AEBV2@0@Z 000000018004d610 f i libvcruntimed:undname.obj
 0001:0004c660       ?getPointerTypeArray@UnDecorator@@CA?AVDName@@AEBV2@0@Z 000000018004d660 f i libvcruntimed:undname.obj
 0001:0004c6b0       ?getPrimaryDataType@UnDecorator@@CA?AVDName@@AEBV2@@Z 000000018004d6b0 f   libvcruntimed:undname.obj
 0001:0004cba0       ?getPtrRefDataType@UnDecorator@@CA?AVDName@@AEBV2@H@Z 000000018004dba0 f   libvcruntimed:undname.obj
 0001:0004ce30       ?getPtrRefType@UnDecorator@@CA?AVDName@@AEBV2@0PEBD@Z 000000018004de30 f   libvcruntimed:undname.obj
 0001:0004d040       ?getReferenceType@UnDecorator@@CA?AVDName@@AEBV2@0PEBD@Z 000000018004e040 f i libvcruntimed:undname.obj
 0001:0004d080       ?getRestrictionSpec@UnDecorator@@CA?AVDName@@XZ 000000018004e080 f   libvcruntimed:undname.obj
 0001:0004d250       ?getReturnType@UnDecorator@@CA?AVDName@@PEAV2@@Z 000000018004e250 f   libvcruntimed:undname.obj
 0001:0004d2b0       ?getScope@UnDecorator@@CA?AVDName@@XZ 000000018004e2b0 f   libvcruntimed:undname.obj
 0001:0004d930       ?getScopedName@UnDecorator@@CA?AVDName@@XZ 000000018004e930 f   libvcruntimed:undname.obj
 0001:0004dac0       ?getSignedDimension@UnDecorator@@CA?AVDName@@XZ 000000018004eac0 f   libvcruntimed:undname.obj
 0001:0004db50       ?getStorageConvention@UnDecorator@@CA?AVDName@@XZ 000000018004eb50 f i libvcruntimed:undname.obj
 0001:0004db70       ?getString@DName@@QEBAPEADPEAD0@Z 000000018004eb70 f i libvcruntimed:undname.obj
 0001:0004dbf0       ?getString@DName@@QEBAPEADPEADH@Z 000000018004ebf0 f i libvcruntimed:undname.obj
 0001:0004dcb0       ?getString@DNameStatusNode@@UEBAPEADPEAD0@Z 000000018004ecb0 f i libvcruntimed:undname.obj
 0001:0004dd00       ?getString@charNode@@UEBAPEADPEAD0@Z 000000018004ed00 f i libvcruntimed:undname.obj
 0001:0004dd40       ?getString@pDNameNode@@UEBAPEADPEAD0@Z 000000018004ed40 f i libvcruntimed:undname.obj
 0001:0004dda0       ?getString@pairNode@@UEBAPEADPEAD0@Z 000000018004eda0 f i libvcruntimed:undname.obj
 0001:0004de70       ?getString@pcharNode@@UEBAPEADPEAD0@Z 000000018004ee70 f i libvcruntimed:undname.obj
 0001:0004deb0       ?getStringEncoding@UnDecorator@@CA?AVDName@@PEBDH@Z 000000018004eeb0 f   libvcruntimed:undname.obj
 0001:0004dff0       ?getStringHelper@@YAPEADPEADPEBD1H@Z 000000018004eff0 f i libvcruntimed:undname.obj
 0001:0004e060       ?getSymbolName@UnDecorator@@CA?AVDName@@XZ 000000018004f060 f i libvcruntimed:undname.obj
 0001:0004e100       ?getTemplateArgumentList@UnDecorator@@CA?AVDName@@XZ 000000018004f100 f   libvcruntimed:undname.obj
 0001:0004e3e0       ?getTemplateName@UnDecorator@@CA?AVDName@@_N@Z 000000018004f3e0 f   libvcruntimed:undname.obj
 0001:0004e620       ?getTemplateNonTypeArgument@UnDecorator@@CA?AVDName@@XZ 000000018004f620 f   libvcruntimed:undname.obj
 0001:0004ed50       ?getTemplateTypeArgument@UnDecorator@@CA?AVDName@@XZ 000000018004fd50 f   libvcruntimed:undname.obj
 0001:0004ef20       ?getThisType@UnDecorator@@CA?AVDName@@XZ 000000018004ff20 f i libvcruntimed:undname.obj
 0001:0004ef90       ?getThrowTypes@UnDecorator@@CA?AVDName@@XZ 000000018004ff90 f   libvcruntimed:undname.obj
 0001:0004efe0       ?getTypeEncoding@UnDecorator@@CAHXZ 000000018004ffe0 f i libvcruntimed:undname.obj
 0001:0004fbe0       ?getUndecoratedName@UnDecorator@@QEAAPEADPEADH@Z 0000000180050be0 f i libvcruntimed:undname.obj
 0001:0004fda0       ?getVCallThunkType@UnDecorator@@CA?AVDName@@XZ 0000000180050da0 f i libvcruntimed:undname.obj
 0001:0004fe20       ?getVbTableType@UnDecorator@@CA?AVDName@@AEBV2@@Z 0000000180050e20 f i libvcruntimed:undname.obj
 0001:0004fe50       ?getVdispMapType@UnDecorator@@CA?AVDName@@AEBV2@@Z 0000000180050e50 f i libvcruntimed:undname.obj
 0001:0004fee0       ?getVfTableType@UnDecorator@@CA?AVDName@@AEBV2@@Z 0000000180050ee0 f i libvcruntimed:undname.obj
 0001:00050120       ?getZName@UnDecorator@@CA?AVDName@@_N0@Z 0000000180051120 f   libvcruntimed:undname.obj
 0001:000504e0       ?haveTemplateParameters@UnDecorator@@SAHXZ 00000001800514e0 f i libvcruntimed:undname.obj
 0001:000504f0       ?isArray@DName@@QEBAHXZ    00000001800514f0 f i libvcruntimed:undname.obj
 0001:00050510       ?isComArray@DName@@QEBAHXZ 0000000180051510 f i libvcruntimed:undname.obj
 0001:00050530       ?isEmpty@DName@@QEBAHXZ    0000000180051530 f i libvcruntimed:undname.obj
 0001:00050560       ?isFull@Replicator@@QEBAHXZ 0000000180051560 f i libvcruntimed:undname.obj
 0001:00050590       ?isNoTE@DName@@QEBAHXZ     0000000180051590 f i libvcruntimed:undname.obj
 0001:000505b0       ?isPinPtr@DName@@QEBAHXZ   00000001800515b0 f i libvcruntimed:undname.obj
 0001:000505d0       ?isPtrRef@DName@@QEBAHXZ   00000001800515d0 f i libvcruntimed:undname.obj
 0001:000505f0       ?isUDC@DName@@QEBAHXZ      00000001800515f0 f i libvcruntimed:undname.obj
 0001:00050640       ?isUDTThunk@DName@@QEBAHXZ 0000000180051640 f i libvcruntimed:undname.obj
 0001:00050690       ?isVCallThunk@DName@@QEBAHXZ 0000000180051690 f i libvcruntimed:undname.obj
 0001:000506b0       ?isValid@DName@@QEBAHXZ    00000001800516b0 f i libvcruntimed:undname.obj
 0001:000506f0       ?length@DName@@QEBAHXZ     00000001800516f0 f i libvcruntimed:undname.obj
 0001:00050740       ?length@DNameStatusNode@@UEBAHXZ 0000000180051740 f i libvcruntimed:undname.obj
 0001:00050750       ?length@charNode@@UEBAHXZ  0000000180051750 f i libvcruntimed:undname.obj
 0001:00050760       ?length@pDNameNode@@UEBAHXZ 0000000180051760 f i libvcruntimed:undname.obj
 0001:000507a0       ?length@pairNode@@UEBAHXZ  00000001800517a0 f i libvcruntimed:undname.obj
 0001:00050830       ?length@pcharNode@@UEBAHXZ 0000000180051830 f i libvcruntimed:undname.obj
 0001:00050840       ?make@DNameStatusNode@@SAPEBV1@W4DNameStatus@@@Z 0000000180051840 f i libvcruntimed:undname.obj
 0001:00050890       ?parseDecoratedName@UnDecorator@@CA?AVDName@@XZ 0000000180051890 f   libvcruntimed:undname.obj
 0001:00050a50       ?setIsArray@DName@@QEAAXXZ 0000000180051a50 f i libvcruntimed:undname.obj
 0001:00050a70       ?setIsComArray@DName@@QEAAXXZ 0000000180051a70 f i libvcruntimed:undname.obj
 0001:00050a90       ?setIsNoTE@DName@@QEAAXXZ  0000000180051a90 f i libvcruntimed:undname.obj
 0001:00050ab0       ?setIsPinPtr@DName@@QEAAXXZ 0000000180051ab0 f i libvcruntimed:undname.obj
 0001:00050ad0       ?setIsUDC@DName@@QEAAXXZ   0000000180051ad0 f i libvcruntimed:undname.obj
 0001:00050b00       ?setIsVCallThunk@DName@@QEAAXXZ 0000000180051b00 f i libvcruntimed:undname.obj
 0001:00050b20       ?setPtrRef@DName@@QEAAAEAV1@XZ 0000000180051b20 f i libvcruntimed:undname.obj
 0001:00050b40       ?status@DName@@QEBA?AW4DNameStatus@@XZ 0000000180051b40 f i libvcruntimed:undname.obj
 0001:00050c70       __unDName                  0000000180051c70 f   libvcruntimed:undname.obj
 0001:00050cd0       __unDNameEx                0000000180051cd0 f   libvcruntimed:undname.obj
 0001:00050d90       unDNameGenerateCHPE        0000000180051d90 f   libvcruntimed:undname.obj
 0001:00050e40       ??$__crt_interlocked_exchange_pointer@UHINSTANCE__@@PEAU1@@@YAPEAUHINSTANCE__@@PEDSEAU0@QEAU0@@Z 0000000180051e40 f i libvcruntimed:winapi_downlevel.obj
 0001:00050e60       ??$__crt_interlocked_exchange_pointer@UHINSTANCE__@@PEAX@@YAPEAUHINSTANCE__@@PEDSEAU0@QEAX@Z 0000000180051e60 f i libvcruntimed:winapi_downlevel.obj
 0001:00050e80       ??$__crt_interlocked_exchange_pointer@XPEAX@@YAPEAXPEDSEAXQEAX@Z 0000000180051e80 f i libvcruntimed:winapi_downlevel.obj
 0001:00050ea0       ??$__crt_interlocked_read_pointer@UHINSTANCE__@@@@YAPEAUHINSTANCE__@@PEDSEAU0@@Z 0000000180051ea0 f i libvcruntimed:winapi_downlevel.obj
 0001:00050ec0       ??$__crt_interlocked_read_pointer@X@@YAPEAXPEDSEAX@Z 0000000180051ec0 f i libvcruntimed:winapi_downlevel.obj
 0001:000513d0       __vcrt_FlsAlloc            00000001800523d0 f   libvcruntimed:winapi_downlevel.obj
 0001:00051420       __vcrt_FlsFree             0000000180052420 f   libvcruntimed:winapi_downlevel.obj
 0001:00051470       __vcrt_FlsGetValue         0000000180052470 f   libvcruntimed:winapi_downlevel.obj
 0001:000514c0       __vcrt_FlsSetValue         00000001800524c0 f   libvcruntimed:winapi_downlevel.obj
 0001:00051520       __vcrt_InitializeCriticalSectionEx 0000000180052520 f   libvcruntimed:winapi_downlevel.obj
 0001:000515a0       _CallSettingFrame          00000001800525a0 f   libvcruntimed:handlers.obj
 0001:000515f0       _CallSettingFrame_LookupContinuationIndex 00000001800525f0 f   libvcruntimed:handlers.obj
 0001:00051620       _CallSettingFrame_NotifyContinuationAddr 0000000180052620 f   libvcruntimed:handlers.obj
 0001:00051650       _CallSettingFrameEncoded   0000000180052650 f   libvcruntimed:handlers.obj
 0001:000516a0       ??$?0AEBV?$stream_output_adapter@D@__crt_stdio_output@@AEB_KAEBQEBDAEBQEAU__crt_locale_pointers@@AEBQEAD@?$format_validation_base@DV?$stream_output_adapter@D@__crt_stdio_output@@@__crt_stdio_output@@IEAA@AEBV?$stream_output_adapter@D@1@AEB_KAEBQEBDAEBQEAU__crt_locale_pointers@@AEBQEAD@Z 00000001800526a0 f i libucrtd:output.obj
 0001:000516f0       ??$?0AEBV?$stream_output_adapter@D@__crt_stdio_output@@AEB_KAEBQEBDAEBQEAU__crt_locale_pointers@@AEBQEAD@?$positional_parameter_base@DV?$stream_output_adapter@D@__crt_stdio_output@@@__crt_stdio_output@@IEAA@AEBV?$stream_output_adapter@D@1@AEB_KAEBQEBDAEBQEAU__crt_locale_pointers@@AEBQEAD@Z 00000001800526f0 f i libucrtd:output.obj
 0001:00051790       ??$?0AEBV?$stream_output_adapter@D@__crt_stdio_output@@AEB_KAEBQEBDAEBQEAU__crt_locale_pointers@@AEBQEAD@?$standard_base@DV?$stream_output_adapter@D@__crt_stdio_output@@@__crt_stdio_output@@IEAA@AEBV?$stream_output_adapter@D@1@AEB_KAEBQEBDAEBQEAU__crt_locale_pointers@@AEBQEAD@Z 0000000180052790 f i libucrtd:output.obj
 0001:00051800       ??$?0AEBV?$stream_output_adapter@_W@__crt_stdio_output@@AEB_KAEBQEB_WAEBQEAU__crt_locale_pointers@@AEBQEAD@?$format_validation_base@_WV?$stream_output_adapter@_W@__crt_stdio_output@@@__crt_stdio_output@@IEAA@AEBV?$stream_output_adapter@_W@1@AEB_KAEBQEB_WAEBQEAU__crt_locale_pointers@@AEBQEAD@Z 0000000180052800 f i libucrtd:output.obj
 0001:00051850       ??$?0AEBV?$stream_output_adapter@_W@__crt_stdio_output@@AEB_KAEBQEB_WAEBQEAU__crt_locale_pointers@@AEBQEAD@?$positional_parameter_base@_WV?$stream_output_adapter@_W@__crt_stdio_output@@@__crt_stdio_output@@IEAA@AEBV?$stream_output_adapter@_W@1@AEB_KAEBQEB_WAEBQEAU__crt_locale_pointers@@AEBQEAD@Z 0000000180052850 f i libucrtd:output.obj
 0001:000518f0       ??$?0AEBV?$stream_output_adapter@_W@__crt_stdio_output@@AEB_KAEBQEB_WAEBQEAU__crt_locale_pointers@@AEBQEAD@?$standard_base@_WV?$stream_output_adapter@_W@__crt_stdio_output@@@__crt_stdio_output@@IEAA@AEBV?$stream_output_adapter@_W@1@AEB_KAEBQEB_WAEBQEAU__crt_locale_pointers@@AEBQEAD@Z 00000001800528f0 f i libucrtd:output.obj
 0001:00051960       ??$?0AEBV?$string_output_adapter@D@__crt_stdio_output@@AEB_KAEBQEBDAEBQEAU__crt_locale_pointers@@AEBQEAD@?$format_validation_base@DV?$string_output_adapter@D@__crt_stdio_output@@@__crt_stdio_output@@IEAA@AEBV?$string_output_adapter@D@1@AEB_KAEBQEBDAEBQEAU__crt_locale_pointers@@AEBQEAD@Z 0000000180052960 f i libucrtd:output.obj
 0001:000519b0       ??$?0AEBV?$string_output_adapter@D@__crt_stdio_output@@AEB_KAEBQEBDAEBQEAU__crt_locale_pointers@@AEBQEAD@?$positional_parameter_base@DV?$string_output_adapter@D@__crt_stdio_output@@@__crt_stdio_output@@IEAA@AEBV?$string_output_adapter@D@1@AEB_KAEBQEBDAEBQEAU__crt_locale_pointers@@AEBQEAD@Z 00000001800529b0 f i libucrtd:output.obj
 0001:00051a50       ??$?0AEBV?$string_output_adapter@D@__crt_stdio_output@@AEB_KAEBQEBDAEBQEAU__crt_locale_pointers@@AEBQEAD@?$standard_base@DV?$string_output_adapter@D@__crt_stdio_output@@@__crt_stdio_output@@IEAA@AEBV?$string_output_adapter@D@1@AEB_KAEBQEBDAEBQEAU__crt_locale_pointers@@AEBQEAD@Z 0000000180052a50 f i libucrtd:output.obj
 0001:00051ac0       ??$?0AEBV?$string_output_adapter@_W@__crt_stdio_output@@AEB_KAEBQEB_WAEBQEAU__crt_locale_pointers@@AEBQEAD@?$format_validation_base@_WV?$string_output_adapter@_W@__crt_stdio_output@@@__crt_stdio_output@@IEAA@AEBV?$string_output_adapter@_W@1@AEB_KAEBQEB_WAEBQEAU__crt_locale_pointers@@AEBQEAD@Z 0000000180052ac0 f i libucrtd:output.obj
 0001:00051b10       ??$?0AEBV?$string_output_adapter@_W@__crt_stdio_output@@AEB_KAEBQEB_WAEBQEAU__crt_locale_pointers@@AEBQEAD@?$positional_parameter_base@_WV?$string_output_adapter@_W@__crt_stdio_output@@@__crt_stdio_output@@IEAA@AEBV?$string_output_adapter@_W@1@AEB_KAEBQEB_WAEBQEAU__crt_locale_pointers@@AEBQEAD@Z 0000000180052b10 f i libucrtd:output.obj
 0001:00051bb0       ??$?0AEBV?$string_output_adapter@_W@__crt_stdio_output@@AEB_KAEBQEB_WAEBQEAU__crt_locale_pointers@@AEBQEAD@?$standard_base@_WV?$string_output_adapter@_W@__crt_stdio_output@@@__crt_stdio_output@@IEAA@AEBV?$string_output_adapter@_W@1@AEB_KAEBQEB_WAEBQEAU__crt_locale_pointers@@AEBQEAD@Z 0000000180052bb0 f i libucrtd:output.obj
 0001:00051fe0       ??$__crt_interlocked_read@J@@YAJPEDJ@Z 0000000180052fe0 f i libucrtd:output.obj
 0001:00055ac0       ??$count@D@formatting_buffer@__crt_stdio_output@@QEBA_KXZ 0000000180056ac0 f i libucrtd:output.obj
 0001:00055b10       ??$count@_W@formatting_buffer@__crt_stdio_output@@QEBA_KXZ 0000000180056b10 f i libucrtd:output.obj
 0001:00055b60       ??$data@D@formatting_buffer@__crt_stdio_output@@QEAAPEADXZ 0000000180056b60 f i libucrtd:output.obj
 0001:00055bb0       ??$data@_W@formatting_buffer@__crt_stdio_output@@QEAAPEA_WXZ 0000000180056bb0 f i libucrtd:output.obj
 0001:00055c00       ??$ensure_buffer_is_big_enough@D@formatting_buffer@__crt_stdio_output@@QEAA_N_K@Z 0000000180056c00 f i libucrtd:output.obj
 0001:00055d30       ??$ensure_buffer_is_big_enough@_W@formatting_buffer@__crt_stdio_output@@QEAA_N_K@Z 0000000180056d30 f i libucrtd:output.obj
 0001:00055e60       ??$extract_argument_from_va_list@C_J@?$positional_parameter_base@DV?$stream_output_adapter@D@__crt_stdio_output@@@__crt_stdio_output@@IEAA_NAEA_J@Z 0000000180056e60 f i libucrtd:output.obj
 0001:00055fe0       ??$extract_argument_from_va_list@C_J@?$positional_parameter_base@DV?$string_output_adapter@D@__crt_stdio_output@@@__crt_stdio_output@@IEAA_NAEA_J@Z 0000000180056fe0 f i libucrtd:output.obj
 0001:00056160       ??$extract_argument_from_va_list@C_J@?$positional_parameter_base@_WV?$stream_output_adapter@_W@__crt_stdio_output@@@__crt_stdio_output@@IEAA_NAEA_J@Z 0000000180057160 f i libucrtd:output.obj
 0001:000562e0       ??$extract_argument_from_va_list@C_J@?$positional_parameter_base@_WV?$string_output_adapter@_W@__crt_stdio_output@@@__crt_stdio_output@@IEAA_NAEA_J@Z 00000001800572e0 f i libucrtd:output.obj
 0001:00056460       ??$extract_argument_from_va_list@C_J@?$standard_base@DV?$stream_output_adapter@D@__crt_stdio_output@@@__crt_stdio_output@@IEAA_NAEA_J@Z 0000000180057460 f i libucrtd:output.obj
 0001:000564a0       ??$extract_argument_from_va_list@C_J@?$standard_base@DV?$string_output_adapter@D@__crt_stdio_output@@@__crt_stdio_output@@IEAA_NAEA_J@Z 00000001800574a0 f i libucrtd:output.obj
 0001:000564e0       ??$extract_argument_from_va_list@C_J@?$standard_base@_WV?$stream_output_adapter@_W@__crt_stdio_output@@@__crt_stdio_output@@IEAA_NAEA_J@Z 00000001800574e0 f i libucrtd:output.obj
 0001:00056520       ??$extract_argument_from_va_list@C_J@?$standard_base@_WV?$string_output_adapter@_W@__crt_stdio_output@@@__crt_stdio_output@@IEAA_NAEA_J@Z 0000000180057520 f i libucrtd:output.obj
 0001:00056560       ??$extract_argument_from_va_list@E_J@?$positional_parameter_base@DV?$stream_output_adapter@D@__crt_stdio_output@@@__crt_stdio_output@@IEAA_NAEA_J@Z 0000000180057560 f i libucrtd:output.obj
 0001:000566e0       ??$extract_argument_from_va_list@E_J@?$positional_parameter_base@DV?$string_output_adapter@D@__crt_stdio_output@@@__crt_stdio_output@@IEAA_NAEA_J@Z 00000001800576e0 f i libucrtd:output.obj
 0001:00056860       ??$extract_argument_from_va_list@E_J@?$positional_parameter_base@_WV?$stream_output_adapter@_W@__crt_stdio_output@@@__crt_stdio_output@@IEAA_NAEA_J@Z 0000000180057860 f i libucrtd:output.obj
 0001:000569e0       ??$extract_argument_from_va_list@E_J@?$positional_parameter_base@_WV?$string_output_adapter@_W@__crt_stdio_output@@@__crt_stdio_output@@IEAA_NAEA_J@Z 00000001800579e0 f i libucrtd:output.obj
 0001:00056b60       ??$extract_argument_from_va_list@E_J@?$standard_base@DV?$stream_output_adapter@D@__crt_stdio_output@@@__crt_stdio_output@@IEAA_NAEA_J@Z 0000000180057b60 f i libucrtd:output.obj
 0001:00056ba0       ??$extract_argument_from_va_list@E_J@?$standard_base@DV?$string_output_adapter@D@__crt_stdio_output@@@__crt_stdio_output@@IEAA_NAEA_J@Z 0000000180057ba0 f i libucrtd:output.obj
 0001:00056be0       ??$extract_argument_from_va_list@E_J@?$standard_base@_WV?$stream_output_adapter@_W@__crt_stdio_output@@@__crt_stdio_output@@IEAA_NAEA_J@Z 0000000180057be0 f i libucrtd:output.obj
 0001:00056c20       ??$extract_argument_from_va_list@E_J@?$standard_base@_WV?$string_output_adapter@_W@__crt_stdio_output@@@__crt_stdio_output@@IEAA_NAEA_J@Z 0000000180057c20 f i libucrtd:output.obj
 0001:00056c60       ??$extract_argument_from_va_list@F_J@?$positional_parameter_base@DV?$stream_output_adapter@D@__crt_stdio_output@@@__crt_stdio_output@@IEAA_NAEA_J@Z 0000000180057c60 f i libucrtd:output.obj
 0001:00056de0       ??$extract_argument_from_va_list@F_J@?$positional_parameter_base@DV?$string_output_adapter@D@__crt_stdio_output@@@__crt_stdio_output@@IEAA_NAEA_J@Z 0000000180057de0 f i libucrtd:output.obj
 0001:00056f60       ??$extract_argument_from_va_list@F_J@?$positional_parameter_base@_WV?$stream_output_adapter@_W@__crt_stdio_output@@@__crt_stdio_output@@IEAA_NAEA_J@Z 0000000180057f60 f i libucrtd:output.obj
 0001:000570e0       ??$extract_argument_from_va_list@F_J@?$positional_parameter_base@_WV?$string_output_adapter@_W@__crt_stdio_output@@@__crt_stdio_output@@IEAA_NAEA_J@Z 00000001800580e0 f i libucrtd:output.obj
 0001:00057260       ??$extract_argument_from_va_list@F_J@?$standard_base@DV?$stream_output_adapter@D@__crt_stdio_output@@@__crt_stdio_output@@IEAA_NAEA_J@Z 0000000180058260 f i libucrtd:output.obj
 0001:000572a0       ??$extract_argument_from_va_list@F_J@?$standard_base@DV?$string_output_adapter@D@__crt_stdio_output@@@__crt_stdio_output@@IEAA_NAEA_J@Z 00000001800582a0 f i libucrtd:output.obj
 0001:000572e0       ??$extract_argument_from_va_list@F_J@?$standard_base@_WV?$stream_output_adapter@_W@__crt_stdio_output@@@__crt_stdio_output@@IEAA_NAEA_J@Z 00000001800582e0 f i libucrtd:output.obj
 0001:00057320       ??$extract_argument_from_va_list@F_J@?$standard_base@_WV?$string_output_adapter@_W@__crt_stdio_output@@@__crt_stdio_output@@IEAA_NAEA_J@Z 0000000180058320 f i libucrtd:output.obj
 0001:00057360       ??$extract_argument_from_va_list@GD@?$positional_parameter_base@DV?$stream_output_adapter@D@__crt_stdio_output@@@__crt_stdio_output@@IEAA_NAEAD@Z 0000000180058360 f i libucrtd:output.obj
 0001:000574e0       ??$extract_argument_from_va_list@GD@?$positional_parameter_base@DV?$string_output_adapter@D@__crt_stdio_output@@@__crt_stdio_output@@IEAA_NAEAD@Z 00000001800584e0 f i libucrtd:output.obj
 0001:00057660       ??$extract_argument_from_va_list@GD@?$standard_base@DV?$stream_output_adapter@D@__crt_stdio_output@@@__crt_stdio_output@@IEAA_NAEAD@Z 0000000180058660 f i libucrtd:output.obj
 0001:00057690       ??$extract_argument_from_va_list@GD@?$standard_base@DV?$string_output_adapter@D@__crt_stdio_output@@@__crt_stdio_output@@IEAA_NAEAD@Z 0000000180058690 f i libucrtd:output.obj
 0001:000576c0       ??$extract_argument_from_va_list@G_J@?$positional_parameter_base@DV?$stream_output_adapter@D@__crt_stdio_output@@@__crt_stdio_output@@IEAA_NAEA_J@Z 00000001800586c0 f i libucrtd:output.obj
 0001:00057840       ??$extract_argument_from_va_list@G_J@?$positional_parameter_base@DV?$string_output_adapter@D@__crt_stdio_output@@@__crt_stdio_output@@IEAA_NAEA_J@Z 0000000180058840 f i libucrtd:output.obj
 0001:000579c0       ??$extract_argument_from_va_list@G_J@?$positional_parameter_base@_WV?$stream_output_adapter@_W@__crt_stdio_output@@@__crt_stdio_output@@IEAA_NAEA_J@Z 00000001800589c0 f i libucrtd:output.obj
 0001:00057b40       ??$extract_argument_from_va_list@G_J@?$positional_parameter_base@_WV?$string_output_adapter@_W@__crt_stdio_output@@@__crt_stdio_output@@IEAA_NAEA_J@Z 0000000180058b40 f i libucrtd:output.obj
 0001:00057cc0       ??$extract_argument_from_va_list@G_J@?$standard_base@DV?$stream_output_adapter@D@__crt_stdio_output@@@__crt_stdio_output@@IEAA_NAEA_J@Z 0000000180058cc0 f i libucrtd:output.obj
 0001:00057d00       ??$extract_argument_from_va_list@G_J@?$standard_base@DV?$string_output_adapter@D@__crt_stdio_output@@@__crt_stdio_output@@IEAA_NAEA_J@Z 0000000180058d00 f i libucrtd:output.obj
 0001:00057d40       ??$extract_argument_from_va_list@G_J@?$standard_base@_WV?$stream_output_adapter@_W@__crt_stdio_output@@@__crt_stdio_output@@IEAA_NAEA_J@Z 0000000180058d40 f i libucrtd:output.obj
 0001:00057d80       ??$extract_argument_from_va_list@G_J@?$standard_base@_WV?$string_output_adapter@_W@__crt_stdio_output@@@__crt_stdio_output@@IEAA_NAEA_J@Z 0000000180058d80 f i libucrtd:output.obj
 0001:00057dc0       ??$extract_argument_from_va_list@H_J@?$positional_parameter_base@DV?$stream_output_adapter@D@__crt_stdio_output@@@__crt_stdio_output@@IEAA_NAEA_J@Z 0000000180058dc0 f i libucrtd:output.obj
 0001:00057f40       ??$extract_argument_from_va_list@H_J@?$positional_parameter_base@DV?$string_output_adapter@D@__crt_stdio_output@@@__crt_stdio_output@@IEAA_NAEA_J@Z 0000000180058f40 f i libucrtd:output.obj
 0001:000580c0       ??$extract_argument_from_va_list@H_J@?$positional_parameter_base@_WV?$stream_output_adapter@_W@__crt_stdio_output@@@__crt_stdio_output@@IEAA_NAEA_J@Z 00000001800590c0 f i libucrtd:output.obj
 0001:00058240       ??$extract_argument_from_va_list@H_J@?$positional_parameter_base@_WV?$string_output_adapter@_W@__crt_stdio_output@@@__crt_stdio_output@@IEAA_NAEA_J@Z 0000000180059240 f i libucrtd:output.obj
 0001:000583c0       ??$extract_argument_from_va_list@H_J@?$standard_base@DV?$stream_output_adapter@D@__crt_stdio_output@@@__crt_stdio_output@@IEAA_NAEA_J@Z 00000001800593c0 f i libucrtd:output.obj
 0001:000583f0       ??$extract_argument_from_va_list@H_J@?$standard_base@DV?$string_output_adapter@D@__crt_stdio_output@@@__crt_stdio_output@@IEAA_NAEA_J@Z 00000001800593f0 f i libucrtd:output.obj
 0001:00058420       ??$extract_argument_from_va_list@H_J@?$standard_base@_WV?$stream_output_adapter@_W@__crt_stdio_output@@@__crt_stdio_output@@IEAA_NAEA_J@Z 0000000180059420 f i libucrtd:output.obj
 0001:00058450       ??$extract_argument_from_va_list@H_J@?$standard_base@_WV?$string_output_adapter@_W@__crt_stdio_output@@@__crt_stdio_output@@IEAA_NAEA_J@Z 0000000180059450 f i libucrtd:output.obj
 0001:00058480       ??$extract_argument_from_va_list@I_J@?$positional_parameter_base@DV?$stream_output_adapter@D@__crt_stdio_output@@@__crt_stdio_output@@IEAA_NAEA_J@Z 0000000180059480 f i libucrtd:output.obj
 0001:00058600       ??$extract_argument_from_va_list@I_J@?$positional_parameter_base@DV?$string_output_adapter@D@__crt_stdio_output@@@__crt_stdio_output@@IEAA_NAEA_J@Z 0000000180059600 f i libucrtd:output.obj
 0001:00058780       ??$extract_argument_from_va_list@I_J@?$positional_parameter_base@_WV?$stream_output_adapter@_W@__crt_stdio_output@@@__crt_stdio_output@@IEAA_NAEA_J@Z 0000000180059780 f i libucrtd:output.obj
 0001:00058900       ??$extract_argument_from_va_list@I_J@?$positional_parameter_base@_WV?$string_output_adapter@_W@__crt_stdio_output@@@__crt_stdio_output@@IEAA_NAEA_J@Z 0000000180059900 f i libucrtd:output.obj
 0001:00058a80       ??$extract_argument_from_va_list@I_J@?$standard_base@DV?$stream_output_adapter@D@__crt_stdio_output@@@__crt_stdio_output@@IEAA_NAEA_J@Z 0000000180059a80 f i libucrtd:output.obj
 0001:00058ab0       ??$extract_argument_from_va_list@I_J@?$standard_base@DV?$string_output_adapter@D@__crt_stdio_output@@@__crt_stdio_output@@IEAA_NAEA_J@Z 0000000180059ab0 f i libucrtd:output.obj
 0001:00058ae0       ??$extract_argument_from_va_list@I_J@?$standard_base@_WV?$stream_output_adapter@_W@__crt_stdio_output@@@__crt_stdio_output@@IEAA_NAEA_J@Z 0000000180059ae0 f i libucrtd:output.obj
 0001:00058b10       ??$extract_argument_from_va_list@I_J@?$standard_base@_WV?$string_output_adapter@_W@__crt_stdio_output@@@__crt_stdio_output@@IEAA_NAEA_J@Z 0000000180059b10 f i libucrtd:output.obj
 0001:00058b40       ??$extract_argument_from_va_list@PEADPEAD@?$positional_parameter_base@DV?$stream_output_adapter@D@__crt_stdio_output@@@__crt_stdio_output@@IEAA_NAEAPEAD@Z 0000000180059b40 f i libucrtd:output.obj
 0001:00058cc0       ??$extract_argument_from_va_list@PEADPEAD@?$positional_parameter_base@DV?$string_output_adapter@D@__crt_stdio_output@@@__crt_stdio_output@@IEAA_NAEAPEAD@Z 0000000180059cc0 f i libucrtd:output.obj
 0001:00058e40       ??$extract_argument_from_va_list@PEADPEAD@?$positional_parameter_base@_WV?$stream_output_adapter@_W@__crt_stdio_output@@@__crt_stdio_output@@IEAA_NAEAPEAD@Z 0000000180059e40 f i libucrtd:output.obj
 0001:00058fc0       ??$extract_argument_from_va_list@PEADPEAD@?$positional_parameter_base@_WV?$string_output_adapter@_W@__crt_stdio_output@@@__crt_stdio_output@@IEAA_NAEAPEAD@Z 0000000180059fc0 f i libucrtd:output.obj
 0001:00059140       ??$extract_argument_from_va_list@PEADPEAD@?$standard_base@DV?$stream_output_adapter@D@__crt_stdio_output@@@__crt_stdio_output@@IEAA_NAEAPEAD@Z 000000018005a140 f i libucrtd:output.obj
 0001:00059170       ??$extract_argument_from_va_list@PEADPEAD@?$standard_base@DV?$string_output_adapter@D@__crt_stdio_output@@@__crt_stdio_output@@IEAA_NAEAPEAD@Z 000000018005a170 f i libucrtd:output.obj
 0001:000591a0       ??$extract_argument_from_va_list@PEADPEAD@?$standard_base@_WV?$stream_output_adapter@_W@__crt_stdio_output@@@__crt_stdio_output@@IEAA_NAEAPEAD@Z 000000018005a1a0 f i libucrtd:output.obj
 0001:000591d0       ??$extract_argument_from_va_list@PEADPEAD@?$standard_base@_WV?$string_output_adapter@_W@__crt_stdio_output@@@__crt_stdio_output@@IEAA_NAEAPEAD@Z 000000018005a1d0 f i libucrtd:output.obj
 0001:00059a40       ??$extract_argument_from_va_list@PEAXPEAX@?$positional_parameter_base@DV?$stream_output_adapter@D@__crt_stdio_output@@@__crt_stdio_output@@IEAA_NAEAPEAX@Z 000000018005aa40 f i libucrtd:output.obj
 0001:00059bc0       ??$extract_argument_from_va_list@PEAXPEAX@?$positional_parameter_base@DV?$string_output_adapter@D@__crt_stdio_output@@@__crt_stdio_output@@IEAA_NAEAPEAX@Z 000000018005abc0 f i libucrtd:output.obj
 0001:00059d40       ??$extract_argument_from_va_list@PEAXPEAX@?$positional_parameter_base@_WV?$stream_output_adapter@_W@__crt_stdio_output@@@__crt_stdio_output@@IEAA_NAEAPEAX@Z 000000018005ad40 f i libucrtd:output.obj
 0001:00059ec0       ??$extract_argument_from_va_list@PEAXPEAX@?$positional_parameter_base@_WV?$string_output_adapter@_W@__crt_stdio_output@@@__crt_stdio_output@@IEAA_NAEAPEAX@Z 000000018005aec0 f i libucrtd:output.obj
 0001:0005a040       ??$extract_argument_from_va_list@PEAXPEAX@?$standard_base@DV?$stream_output_adapter@D@__crt_stdio_output@@@__crt_stdio_output@@IEAA_NAEAPEAX@Z 000000018005b040 f i libucrtd:output.obj
 0001:0005a070       ??$extract_argument_from_va_list@PEAXPEAX@?$standard_base@DV?$string_output_adapter@D@__crt_stdio_output@@@__crt_stdio_output@@IEAA_NAEAPEAX@Z 000000018005b070 f i libucrtd:output.obj
 0001:0005a0a0       ??$extract_argument_from_va_list@PEAXPEAX@?$standard_base@_WV?$stream_output_adapter@_W@__crt_stdio_output@@@__crt_stdio_output@@IEAA_NAEAPEAX@Z 000000018005b0a0 f i libucrtd:output.obj
 0001:0005a0d0       ??$extract_argument_from_va_list@PEAXPEAX@?$standard_base@_WV?$string_output_adapter@_W@__crt_stdio_output@@@__crt_stdio_output@@IEAA_NAEAPEAX@Z 000000018005b0d0 f i libucrtd:output.obj
 0001:0005a100       ??$extract_argument_from_va_list@U_CRT_DOUBLE@@U1@@?$positional_parameter_base@DV?$stream_output_adapter@D@__crt_stdio_output@@@__crt_stdio_output@@IEAA_NAEAU_CRT_DOUBLE@@@Z 000000018005b100 f i libucrtd:output.obj
 0001:0005a2a0       ??$extract_argument_from_va_list@U_CRT_DOUBLE@@U1@@?$positional_parameter_base@DV?$string_output_adapter@D@__crt_stdio_output@@@__crt_stdio_output@@IEAA_NAEAU_CRT_DOUBLE@@@Z 000000018005b2a0 f i libucrtd:output.obj
 0001:0005a440       ??$extract_argument_from_va_list@U_CRT_DOUBLE@@U1@@?$positional_parameter_base@_WV?$stream_output_adapter@_W@__crt_stdio_output@@@__crt_stdio_output@@IEAA_NAEAU_CRT_DOUBLE@@@Z 000000018005b440 f i libucrtd:output.obj
 0001:0005a5e0       ??$extract_argument_from_va_list@U_CRT_DOUBLE@@U1@@?$positional_parameter_base@_WV?$string_output_adapter@_W@__crt_stdio_output@@@__crt_stdio_output@@IEAA_NAEAU_CRT_DOUBLE@@@Z 000000018005b5e0 f i libucrtd:output.obj
 0001:0005a780       ??$extract_argument_from_va_list@U_CRT_DOUBLE@@U1@@?$standard_base@DV?$stream_output_adapter@D@__crt_stdio_output@@@__crt_stdio_output@@IEAA_NAEAU_CRT_DOUBLE@@@Z 000000018005b780 f i libucrtd:output.obj
 0001:0005a7d0       ??$extract_argument_from_va_list@U_CRT_DOUBLE@@U1@@?$standard_base@DV?$string_output_adapter@D@__crt_stdio_output@@@__crt_stdio_output@@IEAA_NAEAU_CRT_DOUBLE@@@Z 000000018005b7d0 f i libucrtd:output.obj
 0001:0005a820       ??$extract_argument_from_va_list@U_CRT_DOUBLE@@U1@@?$standard_base@_WV?$stream_output_adapter@_W@__crt_stdio_output@@@__crt_stdio_output@@IEAA_NAEAU_CRT_DOUBLE@@@Z 000000018005b820 f i libucrtd:output.obj
 0001:0005a870       ??$extract_argument_from_va_list@U_CRT_DOUBLE@@U1@@?$standard_base@_WV?$string_output_adapter@_W@__crt_stdio_output@@@__crt_stdio_output@@IEAA_NAEAU_CRT_DOUBLE@@@Z 000000018005b870 f i libucrtd:output.obj
 0001:0005a8c0       ??$extract_argument_from_va_list@_J_J@?$positional_parameter_base@DV?$stream_output_adapter@D@__crt_stdio_output@@@__crt_stdio_output@@IEAA_NAEA_J@Z 000000018005b8c0 f i libucrtd:output.obj
 0001:0005aa40       ??$extract_argument_from_va_list@_J_J@?$positional_parameter_base@DV?$string_output_adapter@D@__crt_stdio_output@@@__crt_stdio_output@@IEAA_NAEA_J@Z 000000018005ba40 f i libucrtd:output.obj
 0001:0005abc0       ??$extract_argument_from_va_list@_J_J@?$positional_parameter_base@_WV?$stream_output_adapter@_W@__crt_stdio_output@@@__crt_stdio_output@@IEAA_NAEA_J@Z 000000018005bbc0 f i libucrtd:output.obj
 0001:0005ad40       ??$extract_argument_from_va_list@_J_J@?$positional_parameter_base@_WV?$string_output_adapter@_W@__crt_stdio_output@@@__crt_stdio_output@@IEAA_NAEA_J@Z 000000018005bd40 f i libucrtd:output.obj
 0001:0005aec0       ??$extract_argument_from_va_list@_J_J@?$standard_base@DV?$stream_output_adapter@D@__crt_stdio_output@@@__crt_stdio_output@@IEAA_NAEA_J@Z 000000018005bec0 f i libucrtd:output.obj
 0001:0005aef0       ??$extract_argument_from_va_list@_J_J@?$standard_base@DV?$string_output_adapter@D@__crt_stdio_output@@@__crt_stdio_output@@IEAA_NAEA_J@Z 000000018005bef0 f i libucrtd:output.obj
 0001:0005af20       ??$extract_argument_from_va_list@_J_J@?$standard_base@_WV?$stream_output_adapter@_W@__crt_stdio_output@@@__crt_stdio_output@@IEAA_NAEA_J@Z 000000018005bf20 f i libucrtd:output.obj
 0001:0005af50       ??$extract_argument_from_va_list@_J_J@?$standard_base@_WV?$string_output_adapter@_W@__crt_stdio_output@@@__crt_stdio_output@@IEAA_NAEA_J@Z 000000018005bf50 f i libucrtd:output.obj
 0001:0005af80       ??$extract_argument_from_va_list@_K_J@?$positional_parameter_base@DV?$stream_output_adapter@D@__crt_stdio_output@@@__crt_stdio_output@@IEAA_NAEA_J@Z 000000018005bf80 f i libucrtd:output.obj
 0001:0005b100       ??$extract_argument_from_va_list@_K_J@?$positional_parameter_base@DV?$string_output_adapter@D@__crt_stdio_output@@@__crt_stdio_output@@IEAA_NAEA_J@Z 000000018005c100 f i libucrtd:output.obj
 0001:0005b280       ??$extract_argument_from_va_list@_K_J@?$positional_parameter_base@_WV?$stream_output_adapter@_W@__crt_stdio_output@@@__crt_stdio_output@@IEAA_NAEA_J@Z 000000018005c280 f i libucrtd:output.obj
 0001:0005b400       ??$extract_argument_from_va_list@_K_J@?$positional_parameter_base@_WV?$string_output_adapter@_W@__crt_stdio_output@@@__crt_stdio_output@@IEAA_NAEA_J@Z 000000018005c400 f i libucrtd:output.obj
 0001:0005b580       ??$extract_argument_from_va_list@_K_J@?$standard_base@DV?$stream_output_adapter@D@__crt_stdio_output@@@__crt_stdio_output@@IEAA_NAEA_J@Z 000000018005c580 f i libucrtd:output.obj
 0001:0005b5b0       ??$extract_argument_from_va_list@_K_J@?$standard_base@DV?$string_output_adapter@D@__crt_stdio_output@@@__crt_stdio_output@@IEAA_NAEA_J@Z 000000018005c5b0 f i libucrtd:output.obj
 0001:0005b5e0       ??$extract_argument_from_va_list@_K_J@?$standard_base@_WV?$stream_output_adapter@_W@__crt_stdio_output@@@__crt_stdio_output@@IEAA_NAEA_J@Z 000000018005c5e0 f i libucrtd:output.obj
 0001:0005b610       ??$extract_argument_from_va_list@_K_J@?$standard_base@_WV?$string_output_adapter@_W@__crt_stdio_output@@@__crt_stdio_output@@IEAA_NAEA_J@Z 000000018005c610 f i libucrtd:output.obj
 0001:0005b640       ??$extract_argument_from_va_list@_W_W@?$positional_parameter_base@DV?$stream_output_adapter@D@__crt_stdio_output@@@__crt_stdio_output@@IEAA_NAEA_W@Z 000000018005c640 f i libucrtd:output.obj
 0001:0005b7c0       ??$extract_argument_from_va_list@_W_W@?$positional_parameter_base@DV?$string_output_adapter@D@__crt_stdio_output@@@__crt_stdio_output@@IEAA_NAEA_W@Z 000000018005c7c0 f i libucrtd:output.obj
 0001:0005b940       ??$extract_argument_from_va_list@_W_W@?$positional_parameter_base@_WV?$stream_output_adapter@_W@__crt_stdio_output@@@__crt_stdio_output@@IEAA_NAEA_W@Z 000000018005c940 f i libucrtd:output.obj
 0001:0005bac0       ??$extract_argument_from_va_list@_W_W@?$positional_parameter_base@_WV?$string_output_adapter@_W@__crt_stdio_output@@@__crt_stdio_output@@IEAA_NAEA_W@Z 000000018005cac0 f i libucrtd:output.obj
 0001:0005bc40       ??$extract_argument_from_va_list@_W_W@?$standard_base@DV?$stream_output_adapter@D@__crt_stdio_output@@@__crt_stdio_output@@IEAA_NAEA_W@Z 000000018005cc40 f i libucrtd:output.obj
 0001:0005bc70       ??$extract_argument_from_va_list@_W_W@?$standard_base@DV?$string_output_adapter@D@__crt_stdio_output@@@__crt_stdio_output@@IEAA_NAEA_W@Z 000000018005cc70 f i libucrtd:output.obj
 0001:0005bca0       ??$extract_argument_from_va_list@_W_W@?$standard_base@_WV?$stream_output_adapter@_W@__crt_stdio_output@@@__crt_stdio_output@@IEAA_NAEA_W@Z 000000018005cca0 f i libucrtd:output.obj
 0001:0005bcd0       ??$extract_argument_from_va_list@_W_W@?$standard_base@_WV?$string_output_adapter@_W@__crt_stdio_output@@@__crt_stdio_output@@IEAA_NAEA_W@Z 000000018005ccd0 f i libucrtd:output.obj
 0001:0005bd00       ??$get_parameter_type@D@?$positional_parameter_base@DV?$stream_output_adapter@D@__crt_stdio_output@@@__crt_stdio_output@@CA?AW4parameter_type@01@PEAD@Z 000000018005cd00 f i libucrtd:output.obj
 0001:0005bd10       ??$get_parameter_type@D@?$positional_parameter_base@DV?$string_output_adapter@D@__crt_stdio_output@@@__crt_stdio_output@@CA?AW4parameter_type@01@PEAD@Z 000000018005cd10 f i libucrtd:output.obj
 0001:0005bd20       ??$get_parameter_type@D@?$positional_parameter_base@_WV?$stream_output_adapter@_W@__crt_stdio_output@@@__crt_stdio_output@@CA?AW4parameter_type@01@PEAD@Z 000000018005cd20 f i libucrtd:output.obj
 0001:0005bd30       ??$get_parameter_type@D@?$positional_parameter_base@_WV?$string_output_adapter@_W@__crt_stdio_output@@@__crt_stdio_output@@CA?AW4parameter_type@01@PEAD@Z 000000018005cd30 f i libucrtd:output.obj
 0001:0005bd80       ??$get_parameter_type@X@?$positional_parameter_base@DV?$stream_output_adapter@D@__crt_stdio_output@@@__crt_stdio_output@@CA?AW4parameter_type@01@PEAX@Z 000000018005cd80 f i libucrtd:output.obj
 0001:0005bd90       ??$get_parameter_type@X@?$positional_parameter_base@DV?$string_output_adapter@D@__crt_stdio_output@@@__crt_stdio_output@@CA?AW4parameter_type@01@PEAX@Z 000000018005cd90 f i libucrtd:output.obj
 0001:0005bda0       ??$get_parameter_type@X@?$positional_parameter_base@_WV?$stream_output_adapter@_W@__crt_stdio_output@@@__crt_stdio_output@@CA?AW4parameter_type@01@PEAX@Z 000000018005cda0 f i libucrtd:output.obj
 0001:0005bdb0       ??$get_parameter_type@X@?$positional_parameter_base@_WV?$string_output_adapter@_W@__crt_stdio_output@@@__crt_stdio_output@@CA?AW4parameter_type@01@PEAX@Z 000000018005cdb0 f i libucrtd:output.obj
 0001:0005bdc0       ??$is_character_specifier@D@?$positional_parameter_base@DV?$stream_output_adapter@D@__crt_stdio_output@@@__crt_stdio_output@@CA_ND@Z 000000018005cdc0 f i libucrtd:output.obj
 0001:0005be00       ??$is_character_specifier@D@?$positional_parameter_base@DV?$string_output_adapter@D@__crt_stdio_output@@@__crt_stdio_output@@CA_ND@Z 000000018005ce00 f i libucrtd:output.obj
 0001:0005be40       ??$is_character_specifier@_W@?$positional_parameter_base@_WV?$stream_output_adapter@_W@__crt_stdio_output@@@__crt_stdio_output@@CA_N_W@Z 000000018005ce40 f i libucrtd:output.obj
 0001:0005be80       ??$is_character_specifier@_W@?$positional_parameter_base@_WV?$string_output_adapter@_W@__crt_stdio_output@@@__crt_stdio_output@@CA_N_W@Z 000000018005ce80 f i libucrtd:output.obj
 0001:0005bec0       ??$is_integral_specifier@D@?$positional_parameter_base@DV?$stream_output_adapter@D@__crt_stdio_output@@@__crt_stdio_output@@CA_ND@Z 000000018005cec0 f i libucrtd:output.obj
 0001:0005bf30       ??$is_integral_specifier@D@?$positional_parameter_base@DV?$string_output_adapter@D@__crt_stdio_output@@@__crt_stdio_output@@CA_ND@Z 000000018005cf30 f i libucrtd:output.obj
 0001:0005bfa0       ??$is_integral_specifier@_W@?$positional_parameter_base@_WV?$stream_output_adapter@_W@__crt_stdio_output@@@__crt_stdio_output@@CA_N_W@Z 000000018005cfa0 f i libucrtd:output.obj
 0001:0005c010       ??$is_integral_specifier@_W@?$positional_parameter_base@_WV?$string_output_adapter@_W@__crt_stdio_output@@@__crt_stdio_output@@CA_N_W@Z 000000018005d010 f i libucrtd:output.obj
 0001:0005c080       ??$is_pointer_specifier@D@?$positional_parameter_base@DV?$stream_output_adapter@D@__crt_stdio_output@@@__crt_stdio_output@@CA_ND@Z 000000018005d080 f i libucrtd:output.obj
 0001:0005c0b0       ??$is_pointer_specifier@D@?$positional_parameter_base@DV?$string_output_adapter@D@__crt_stdio_output@@@__crt_stdio_output@@CA_ND@Z 000000018005d0b0 f i libucrtd:output.obj
 0001:0005c0e0       ??$is_pointer_specifier@_W@?$positional_parameter_base@_WV?$stream_output_adapter@_W@__crt_stdio_output@@@__crt_stdio_output@@CA_N_W@Z 000000018005d0e0 f i libucrtd:output.obj
 0001:0005c110       ??$is_pointer_specifier@_W@?$positional_parameter_base@_WV?$string_output_adapter@_W@__crt_stdio_output@@@__crt_stdio_output@@CA_N_W@Z 000000018005d110 f i libucrtd:output.obj
 0001:0005c140       ??$is_string_specifier@D@?$positional_parameter_base@DV?$stream_output_adapter@D@__crt_stdio_output@@@__crt_stdio_output@@CA_ND@Z 000000018005d140 f i libucrtd:output.obj
 0001:0005c180       ??$is_string_specifier@D@?$positional_parameter_base@DV?$string_output_adapter@D@__crt_stdio_output@@@__crt_stdio_output@@CA_ND@Z 000000018005d180 f i libucrtd:output.obj
 0001:0005c1c0       ??$is_string_specifier@_W@?$positional_parameter_base@_WV?$stream_output_adapter@_W@__crt_stdio_output@@@__crt_stdio_output@@CA_N_W@Z 000000018005d1c0 f i libucrtd:output.obj
 0001:0005c200       ??$is_string_specifier@_W@?$positional_parameter_base@_WV?$string_output_adapter@_W@__crt_stdio_output@@@__crt_stdio_output@@CA_N_W@Z 000000018005d200 f i libucrtd:output.obj
 0001:0005c240       ??$is_wide_character_specifier@D@__crt_stdio_output@@YA_N_KDW4length_modifier@0@@Z 000000018005d240 f i libucrtd:output.obj
 0001:0005c2e0       ??$is_wide_character_specifier@_W@__crt_stdio_output@@YA_N_K_WW4length_modifier@0@@Z 000000018005d2e0 f i libucrtd:output.obj
 0001:0005c3b0       ??$peek_va_arg@C@__crt_stdio_output@@YACPEAD@Z 000000018005d3b0 f i libucrtd:output.obj
 0001:0005c410       ??$peek_va_arg@E@__crt_stdio_output@@YAEPEAD@Z 000000018005d410 f i libucrtd:output.obj
 0001:0005c470       ??$peek_va_arg@F@__crt_stdio_output@@YAFPEAD@Z 000000018005d470 f i libucrtd:output.obj
 0001:0005c4d0       ??$peek_va_arg@G@__crt_stdio_output@@YAGPEAD@Z 000000018005d4d0 f i libucrtd:output.obj
 0001:0005c530       ??$peek_va_arg@H@__crt_stdio_output@@YAHPEAD@Z 000000018005d530 f i libucrtd:output.obj
 0001:0005c580       ??$peek_va_arg@I@__crt_stdio_output@@YAIPEAD@Z 000000018005d580 f i libucrtd:output.obj
 0001:0005c5d0       ??$peek_va_arg@PEAD@__crt_stdio_output@@YAPEADPEAD@Z 000000018005d5d0 f i libucrtd:output.obj
 0001:0005c7b0       ??$peek_va_arg@PEAX@__crt_stdio_output@@YAPEAXPEAD@Z 000000018005d7b0 f i libucrtd:output.obj
 0001:0005c810       ??$peek_va_arg@U_CRT_DOUBLE@@@__crt_stdio_output@@YA?AU_CRT_DOUBLE@@PEAD@Z 000000018005d810 f i libucrtd:output.obj
 0001:0005c870       ??$peek_va_arg@_J@__crt_stdio_output@@YA_JPEAD@Z 000000018005d870 f i libucrtd:output.obj
 0001:0005c8d0       ??$peek_va_arg@_K@__crt_stdio_output@@YA_KPEAD@Z 000000018005d8d0 f i libucrtd:output.obj
 0001:0005c930       ??$peek_va_arg@_W@__crt_stdio_output@@YA_WPEAD@Z 000000018005d930 f i libucrtd:output.obj
 0001:0005c990       ??$puttc_nolock@AEBDPEAU_iobuf@@@?$__crt_char_traits@D@@SAHAEBD$$QEAPEAU_iobuf@@@Z 000000018005d990 f i libucrtd:output.obj
 0001:0005c9c0       ??$puttc_nolock@AEB_WPEAU_iobuf@@@?$__crt_char_traits@_W@@SAGAEB_W$$QEAPEAU_iobuf@@@Z 000000018005d9c0 f i libucrtd:output.obj
 0001:0005c9f0       ??$read_va_arg@C@__crt_stdio_output@@YACAEAPEAD@Z 000000018005d9f0 f i libucrtd:output.obj
 0001:0005ca60       ??$read_va_arg@E@__crt_stdio_output@@YAEAEAPEAD@Z 000000018005da60 f i libucrtd:output.obj
 0001:0005cad0       ??$read_va_arg@F@__crt_stdio_output@@YAFAEAPEAD@Z 000000018005dad0 f i libucrtd:output.obj
 0001:0005cb40       ??$read_va_arg@G@__crt_stdio_output@@YAGAEAPEAD@Z 000000018005db40 f i libucrtd:output.obj
 0001:0005cbb0       ??$read_va_arg@H@__crt_stdio_output@@YAHAEAPEAD@Z 000000018005dbb0 f i libucrtd:output.obj
 0001:0005cc10       ??$read_va_arg@I@__crt_stdio_output@@YAIAEAPEAD@Z 000000018005dc10 f i libucrtd:output.obj
 0001:0005cc70       ??$read_va_arg@PEAD@__crt_stdio_output@@YAPEADAEAPEAD@Z 000000018005dc70 f i libucrtd:output.obj
 0001:0005d220       ??$read_va_arg@PEAX@__crt_stdio_output@@YAPEAXAEAPEAD@Z 000000018005e220 f i libucrtd:output.obj
 0001:0005d290       ??$read_va_arg@U_CRT_DOUBLE@@@__crt_stdio_output@@YA?AU_CRT_DOUBLE@@AEAPEAD@Z 000000018005e290 f i libucrtd:output.obj
 0001:0005d300       ??$read_va_arg@_J@__crt_stdio_output@@YA_JAEAPEAD@Z 000000018005e300 f i libucrtd:output.obj
 0001:0005d370       ??$read_va_arg@_K@__crt_stdio_output@@YA_KAEAPEAD@Z 000000018005e370 f i libucrtd:output.obj
 0001:0005d3e0       ??$read_va_arg@_W@__crt_stdio_output@@YA_WAEAPEAD@Z 000000018005e3e0 f i libucrtd:output.obj
 0001:0005d450       ??$scratch_count@D@formatting_buffer@__crt_stdio_output@@QEBA_KXZ 000000018005e450 f i libucrtd:output.obj
 0001:0005d470       ??$scratch_data@D@formatting_buffer@__crt_stdio_output@@QEAAPEADXZ 000000018005e470 f i libucrtd:output.obj
 0001:0005d4e0       ??$tcstol@AEAPEBDPEAPEADH@?$__crt_char_traits@D@@SAJAEAPEBD$$QEAPEAPEAD$$QEAH@Z 000000018005e4e0 f i libucrtd:output.obj
 0001:0005d520       ??$tcstol@AEAPEB_WPEAPEA_WH@?$__crt_char_traits@_W@@SAJAEAPEB_W$$QEAPEAPEA_W$$QEAH@Z 000000018005e520 f i libucrtd:output.obj
 0001:0005d560       ??$tcstol@PEBDPEAPEADH@?$__crt_char_traits@D@@SAJ$$QEAPEBD$$QEAPEAPEAD$$QEAH@Z 000000018005e560 f i libucrtd:output.obj
 0001:0005d5a0       ??$tcstol@PEB_WPEAPEA_WH@?$__crt_char_traits@_W@@SAJ$$QEAPEB_W$$QEAPEAPEA_W$$QEAH@Z 000000018005e5a0 f i libucrtd:output.obj
 0001:0005d5e0       ??$type_case_integer_parse_into_buffer@I@?$output_processor@DV?$stream_output_adapter@D@__crt_stdio_output@@V?$format_validation_base@DV?$stream_output_adapter@D@__crt_stdio_output@@@2@@__crt_stdio_output@@AEAAXII_N@Z 000000018005e5e0 f i libucrtd:output.obj
 0001:0005d710       ??$type_case_integer_parse_into_buffer@I@?$output_processor@DV?$stream_output_adapter@D@__crt_stdio_output@@V?$positional_parameter_base@DV?$stream_output_adapter@D@__crt_stdio_output@@@2@@__crt_stdio_output@@AEAAXII_N@Z 000000018005e710 f i libucrtd:output.obj
 0001:0005d840       ??$type_case_integer_parse_into_buffer@I@?$output_processor@DV?$stream_output_adapter@D@__crt_stdio_output@@V?$standard_base@DV?$stream_output_adapter@D@__crt_stdio_output@@@2@@__crt_stdio_output@@AEAAXII_N@Z 000000018005e840 f i libucrtd:output.obj
 0001:0005d970       ??$type_case_integer_parse_into_buffer@I@?$output_processor@DV?$string_output_adapter@D@__crt_stdio_output@@V?$format_validation_base@DV?$string_output_adapter@D@__crt_stdio_output@@@2@@__crt_stdio_output@@AEAAXII_N@Z 000000018005e970 f i libucrtd:output.obj
 0001:0005daa0       ??$type_case_integer_parse_into_buffer@I@?$output_processor@DV?$string_output_adapter@D@__crt_stdio_output@@V?$positional_parameter_base@DV?$string_output_adapter@D@__crt_stdio_output@@@2@@__crt_stdio_output@@AEAAXII_N@Z 000000018005eaa0 f i libucrtd:output.obj
 0001:0005dbd0       ??$type_case_integer_parse_into_buffer@I@?$output_processor@DV?$string_output_adapter@D@__crt_stdio_output@@V?$standard_base@DV?$string_output_adapter@D@__crt_stdio_output@@@2@@__crt_stdio_output@@AEAAXII_N@Z 000000018005ebd0 f i libucrtd:output.obj
 0001:0005dd00       ??$type_case_integer_parse_into_buffer@I@?$output_processor@_WV?$stream_output_adapter@_W@__crt_stdio_output@@V?$format_validation_base@_WV?$stream_output_adapter@_W@__crt_stdio_output@@@2@@__crt_stdio_output@@AEAAXII_N@Z 000000018005ed00 f i libucrtd:output.obj
 0001:0005de40       ??$type_case_integer_parse_into_buffer@I@?$output_processor@_WV?$stream_output_adapter@_W@__crt_stdio_output@@V?$positional_parameter_base@_WV?$stream_output_adapter@_W@__crt_stdio_output@@@2@@__crt_stdio_output@@AEAAXII_N@Z 000000018005ee40 f i libucrtd:output.obj
 0001:0005df80       ??$type_case_integer_parse_into_buffer@I@?$output_processor@_WV?$stream_output_adapter@_W@__crt_stdio_output@@V?$standard_base@_WV?$stream_output_adapter@_W@__crt_stdio_output@@@2@@__crt_stdio_output@@AEAAXII_N@Z 000000018005ef80 f i libucrtd:output.obj
 0001:0005e0c0       ??$type_case_integer_parse_into_buffer@I@?$output_processor@_WV?$string_output_adapter@_W@__crt_stdio_output@@V?$format_validation_base@_WV?$string_output_adapter@_W@__crt_stdio_output@@@2@@__crt_stdio_output@@AEAAXII_N@Z 000000018005f0c0 f i libucrtd:output.obj
 0001:0005e200       ??$type_case_integer_parse_into_buffer@I@?$output_processor@_WV?$string_output_adapter@_W@__crt_stdio_output@@V?$positional_parameter_base@_WV?$string_output_adapter@_W@__crt_stdio_output@@@2@@__crt_stdio_output@@AEAAXII_N@Z 000000018005f200 f i libucrtd:output.obj
 0001:0005e340       ??$type_case_integer_parse_into_buffer@I@?$output_processor@_WV?$string_output_adapter@_W@__crt_stdio_output@@V?$standard_base@_WV?$string_output_adapter@_W@__crt_stdio_output@@@2@@__crt_stdio_output@@AEAAXII_N@Z 000000018005f340 f i libucrtd:output.obj
 0001:0005e480       ??$type_case_integer_parse_into_buffer@_K@?$output_processor@DV?$stream_output_adapter@D@__crt_stdio_output@@V?$format_validation_base@DV?$stream_output_adapter@D@__crt_stdio_output@@@2@@__crt_stdio_output@@AEAAX_KI_N@Z 000000018005f480 f i libucrtd:output.obj
 0001:0005e5d0       ??$type_case_integer_parse_into_buffer@_K@?$output_processor@DV?$stream_output_adapter@D@__crt_stdio_output@@V?$positional_parameter_base@DV?$stream_output_adapter@D@__crt_stdio_output@@@2@@__crt_stdio_output@@AEAAX_KI_N@Z 000000018005f5d0 f i libucrtd:output.obj
 0001:0005e720       ??$type_case_integer_parse_into_buffer@_K@?$output_processor@DV?$stream_output_adapter@D@__crt_stdio_output@@V?$standard_base@DV?$stream_output_adapter@D@__crt_stdio_output@@@2@@__crt_stdio_output@@AEAAX_KI_N@Z 000000018005f720 f i libucrtd:output.obj
 0001:0005e870       ??$type_case_integer_parse_into_buffer@_K@?$output_processor@DV?$string_output_adapter@D@__crt_stdio_output@@V?$format_validation_base@DV?$string_output_adapter@D@__crt_stdio_output@@@2@@__crt_stdio_output@@AEAAX_KI_N@Z 000000018005f870 f i libucrtd:output.obj
 0001:0005e9c0       ??$type_case_integer_parse_into_buffer@_K@?$output_processor@DV?$string_output_adapter@D@__crt_stdio_output@@V?$positional_parameter_base@DV?$string_output_adapter@D@__crt_stdio_output@@@2@@__crt_stdio_output@@AEAAX_KI_N@Z 000000018005f9c0 f i libucrtd:output.obj
 0001:0005eb10       ??$type_case_integer_parse_into_buffer@_K@?$output_processor@DV?$string_output_adapter@D@__crt_stdio_output@@V?$standard_base@DV?$string_output_adapter@D@__crt_stdio_output@@@2@@__crt_stdio_output@@AEAAX_KI_N@Z 000000018005fb10 f i libucrtd:output.obj
 0001:0005ec60       ??$type_case_integer_parse_into_buffer@_K@?$output_processor@_WV?$stream_output_adapter@_W@__crt_stdio_output@@V?$format_validation_base@_WV?$stream_output_adapter@_W@__crt_stdio_output@@@2@@__crt_stdio_output@@AEAAX_KI_N@Z 000000018005fc60 f i libucrtd:output.obj
 0001:0005edc0       ??$type_case_integer_parse_into_buffer@_K@?$output_processor@_WV?$stream_output_adapter@_W@__crt_stdio_output@@V?$positional_parameter_base@_WV?$stream_output_adapter@_W@__crt_stdio_output@@@2@@__crt_stdio_output@@AEAAX_KI_N@Z 000000018005fdc0 f i libucrtd:output.obj
 0001:0005ef20       ??$type_case_integer_parse_into_buffer@_K@?$output_processor@_WV?$stream_output_adapter@_W@__crt_stdio_output@@V?$standard_base@_WV?$stream_output_adapter@_W@__crt_stdio_output@@@2@@__crt_stdio_output@@AEAAX_KI_N@Z 000000018005ff20 f i libucrtd:output.obj
 0001:0005f080       ??$type_case_integer_parse_into_buffer@_K@?$output_processor@_WV?$string_output_adapter@_W@__crt_stdio_output@@V?$format_validation_base@_WV?$string_output_adapter@_W@__crt_stdio_output@@@2@@__crt_stdio_output@@AEAAX_KI_N@Z 0000000180060080 f i libucrtd:output.obj
 0001:0005f1e0       ??$type_case_integer_parse_into_buffer@_K@?$output_processor@_WV?$string_output_adapter@_W@__crt_stdio_output@@V?$positional_parameter_base@_WV?$string_output_adapter@_W@__crt_stdio_output@@@2@@__crt_stdio_output@@AEAAX_KI_N@Z 00000001800601e0 f i libucrtd:output.obj
 0001:0005f340       ??$type_case_integer_parse_into_buffer@_K@?$output_processor@_WV?$string_output_adapter@_W@__crt_stdio_output@@V?$standard_base@_WV?$string_output_adapter@_W@__crt_stdio_output@@@2@@__crt_stdio_output@@AEAAX_KI_N@Z 0000000180060340 f i libucrtd:output.obj
 0001:0005f4a0       ??$write_multiple_characters@V?$stream_output_adapter@D@__crt_stdio_output@@D@__crt_stdio_output@@YAXAEBV?$stream_output_adapter@D@0@DHQEAH@Z 00000001800604a0 f i libucrtd:output.obj
 0001:0005f500       ??$write_multiple_characters@V?$stream_output_adapter@_W@__crt_stdio_output@@D@__crt_stdio_output@@YAXAEBV?$stream_output_adapter@_W@0@DHQEAH@Z 0000000180060500 f i libucrtd:output.obj
 0001:0005f560       ??$write_multiple_characters@V?$string_output_adapter@D@__crt_stdio_output@@D@__crt_stdio_output@@YAXAEBV?$string_output_adapter@D@0@DHQEAH@Z 0000000180060560 f i libucrtd:output.obj
 0001:0005f5c0       ??$write_multiple_characters@V?$string_output_adapter@_W@__crt_stdio_output@@D@__crt_stdio_output@@YAXAEBV?$string_output_adapter@_W@0@DHQEAH@Z 00000001800605c0 f i libucrtd:output.obj
 0001:0005f9e0       ??0?$common_data@D@__crt_stdio_output@@IEAA@XZ 00000001800609e0 f i libucrtd:output.obj
 0001:0005fab0       ??0?$common_data@_W@__crt_stdio_output@@IEAA@XZ 0000000180060ab0 f i libucrtd:output.obj
 0001:0005fb80       ??0?$output_adapter_data@DV?$stream_output_adapter@D@__crt_stdio_output@@@__crt_stdio_output@@IEAA@AEBV?$stream_output_adapter@D@1@_KQEBDQEAU__crt_locale_pointers@@QEAD@Z 0000000180060b80 f i libucrtd:output.obj
 0001:0005fc00       ??0?$output_adapter_data@DV?$string_output_adapter@D@__crt_stdio_output@@@__crt_stdio_output@@IEAA@AEBV?$string_output_adapter@D@1@_KQEBDQEAU__crt_locale_pointers@@QEAD@Z 0000000180060c00 f i libucrtd:output.obj
 0001:0005fc80       ??0?$output_adapter_data@_WV?$stream_output_adapter@_W@__crt_stdio_output@@@__crt_stdio_output@@IEAA@AEBV?$stream_output_adapter@_W@1@_KQEB_WQEAU__crt_locale_pointers@@QEAD@Z 0000000180060c80 f i libucrtd:output.obj
 0001:0005fd00       ??0?$output_adapter_data@_WV?$string_output_adapter@_W@__crt_stdio_output@@@__crt_stdio_output@@IEAA@AEBV?$string_output_adapter@_W@1@_KQEB_WQEAU__crt_locale_pointers@@QEAD@Z 0000000180060d00 f i libucrtd:output.obj
 0001:0005fd80       ??0?$output_processor@DV?$stream_output_adapter@D@__crt_stdio_output@@V?$format_validation_base@DV?$stream_output_adapter@D@__crt_stdio_output@@@2@@__crt_stdio_output@@QEAA@AEBV?$stream_output_adapter@D@1@_KQEBDQEAU__crt_locale_pointers@@QEAD@Z 0000000180060d80 f i libucrtd:output.obj
 0001:0005fdd0       ??0?$output_processor@DV?$stream_output_adapter@D@__crt_stdio_output@@V?$positional_parameter_base@DV?$stream_output_adapter@D@__crt_stdio_output@@@2@@__crt_stdio_output@@QEAA@AEBV?$stream_output_adapter@D@1@_KQEBDQEAU__crt_locale_pointers@@QEAD@Z 0000000180060dd0 f i libucrtd:output.obj
 0001:0005fe20       ??0?$output_processor@DV?$stream_output_adapter@D@__crt_stdio_output@@V?$standard_base@DV?$stream_output_adapter@D@__crt_stdio_output@@@2@@__crt_stdio_output@@QEAA@AEBV?$stream_output_adapter@D@1@_KQEBDQEAU__crt_locale_pointers@@QEAD@Z 0000000180060e20 f i libucrtd:output.obj
 0001:0005fe70       ??0?$output_processor@DV?$string_output_adapter@D@__crt_stdio_output@@V?$format_validation_base@DV?$string_output_adapter@D@__crt_stdio_output@@@2@@__crt_stdio_output@@QEAA@AEBV?$string_output_adapter@D@1@_KQEBDQEAU__crt_locale_pointers@@QEAD@Z 0000000180060e70 f i libucrtd:output.obj
 0001:0005fec0       ??0?$output_processor@DV?$string_output_adapter@D@__crt_stdio_output@@V?$positional_parameter_base@DV?$string_output_adapter@D@__crt_stdio_output@@@2@@__crt_stdio_output@@QEAA@AEBV?$string_output_adapter@D@1@_KQEBDQEAU__crt_locale_pointers@@QEAD@Z 0000000180060ec0 f i libucrtd:output.obj
 0001:0005ff10       ??0?$output_processor@DV?$string_output_adapter@D@__crt_stdio_output@@V?$standard_base@DV?$string_output_adapter@D@__crt_stdio_output@@@2@@__crt_stdio_output@@QEAA@AEBV?$string_output_adapter@D@1@_KQEBDQEAU__crt_locale_pointers@@QEAD@Z 0000000180060f10 f i libucrtd:output.obj
 0001:0005ff60       ??0?$output_processor@_WV?$stream_output_adapter@_W@__crt_stdio_output@@V?$format_validation_base@_WV?$stream_output_adapter@_W@__crt_stdio_output@@@2@@__crt_stdio_output@@QEAA@AEBV?$stream_output_adapter@_W@1@_KQEB_WQEAU__crt_locale_pointers@@QEAD@Z 0000000180060f60 f i libucrtd:output.obj
 0001:0005ffb0       ??0?$output_processor@_WV?$stream_output_adapter@_W@__crt_stdio_output@@V?$positional_parameter_base@_WV?$stream_output_adapter@_W@__crt_stdio_output@@@2@@__crt_stdio_output@@QEAA@AEBV?$stream_output_adapter@_W@1@_KQEB_WQEAU__crt_locale_pointers@@QEAD@Z 0000000180060fb0 f i libucrtd:output.obj
 0001:00060000       ??0?$output_processor@_WV?$stream_output_adapter@_W@__crt_stdio_output@@V?$standard_base@_WV?$stream_output_adapter@_W@__crt_stdio_output@@@2@@__crt_stdio_output@@QEAA@AEBV?$stream_output_adapter@_W@1@_KQEB_WQEAU__crt_locale_pointers@@QEAD@Z 0000000180061000 f i libucrtd:output.obj
 0001:00060050       ??0?$output_processor@_WV?$string_output_adapter@_W@__crt_stdio_output@@V?$format_validation_base@_WV?$string_output_adapter@_W@__crt_stdio_output@@@2@@__crt_stdio_output@@QEAA@AEBV?$string_output_adapter@_W@1@_KQEB_WQEAU__crt_locale_pointers@@QEAD@Z 0000000180061050 f i libucrtd:output.obj
 0001:000600a0       ??0?$output_processor@_WV?$string_output_adapter@_W@__crt_stdio_output@@V?$positional_parameter_base@_WV?$string_output_adapter@_W@__crt_stdio_output@@@2@@__crt_stdio_output@@QEAA@AEBV?$string_output_adapter@_W@1@_KQEB_WQEAU__crt_locale_pointers@@QEAD@Z 00000001800610a0 f i libucrtd:output.obj
 0001:000600f0       ??0?$output_processor@_WV?$string_output_adapter@_W@__crt_stdio_output@@V?$standard_base@_WV?$string_output_adapter@_W@__crt_stdio_output@@@2@@__crt_stdio_output@@QEAA@AEBV?$string_output_adapter@_W@1@_KQEB_WQEAU__crt_locale_pointers@@QEAD@Z 00000001800610f0 f i libucrtd:output.obj
 0001:00060140       ??0?$stream_output_adapter@D@__crt_stdio_output@@QEAA@QEAU_iobuf@@@Z 0000000180061140 f i libucrtd:output.obj
 0001:00060170       ??0?$stream_output_adapter@_W@__crt_stdio_output@@QEAA@QEAU_iobuf@@@Z 0000000180061170 f i libucrtd:output.obj
 0001:000601a0       ??0?$string_output_adapter@D@__crt_stdio_output@@QEAA@QEAU?$string_output_adapter_context@D@1@@Z 00000001800611a0 f i libucrtd:output.obj
 0001:000601c0       ??0?$string_output_adapter@_W@__crt_stdio_output@@QEAA@QEAU?$string_output_adapter_context@_W@1@@Z 00000001800611c0 f i libucrtd:output.obj
 0001:000601e0       ??0_LocaleUpdate@@QEAA@QEAU__crt_locale_pointers@@@Z 00000001800611e0 f i libucrtd:output.obj
 0001:00060300       ??0__acrt_stdio_temporary_buffering_guard@@QEAA@QEAU_iobuf@@@Z 0000000180061300 f i libucrtd:output.obj
 0001:00060340       ??0__crt_deferred_errno_cache@@QEAA@XZ 0000000180061340 f i libucrtd:output.obj
 0001:00060360       ??0__crt_errno_guard@@QEAA@QEAH@Z 0000000180061360 f i libucrtd:output.obj
 0001:000603a0       ??0__crt_stdio_stream@@QEAA@QEAU_iobuf@@@Z 00000001800613a0 f i libucrtd:output.obj
 0001:000603c0       ??0formatting_buffer@__crt_stdio_output@@QEAA@XZ 00000001800613c0 f i libucrtd:output.obj
 0001:00060400       ??1?$common_data@D@__crt_stdio_output@@QEAA@XZ 0000000180061400 f i libucrtd:output.obj
 0001:00060420       ??1?$common_data@_W@__crt_stdio_output@@QEAA@XZ 0000000180061420 f i libucrtd:output.obj
 0001:00060440       ??1?$format_validation_base@DV?$stream_output_adapter@D@__crt_stdio_output@@@__crt_stdio_output@@QEAA@XZ 0000000180061440 f i libucrtd:output.obj
 0001:00060460       ??1?$format_validation_base@DV?$string_output_adapter@D@__crt_stdio_output@@@__crt_stdio_output@@QEAA@XZ 0000000180061460 f i libucrtd:output.obj
 0001:00060480       ??1?$format_validation_base@_WV?$stream_output_adapter@_W@__crt_stdio_output@@@__crt_stdio_output@@QEAA@XZ 0000000180061480 f i libucrtd:output.obj
 0001:000604a0       ??1?$format_validation_base@_WV?$string_output_adapter@_W@__crt_stdio_output@@@__crt_stdio_output@@QEAA@XZ 00000001800614a0 f i libucrtd:output.obj
 0001:000604c0       ??1?$output_adapter_data@DV?$stream_output_adapter@D@__crt_stdio_output@@@__crt_stdio_output@@QEAA@XZ 00000001800614c0 f i libucrtd:output.obj
 0001:000604e0       ??1?$output_adapter_data@DV?$string_output_adapter@D@__crt_stdio_output@@@__crt_stdio_output@@QEAA@XZ 00000001800614e0 f i libucrtd:output.obj
 0001:00060500       ??1?$output_adapter_data@_WV?$stream_output_adapter@_W@__crt_stdio_output@@@__crt_stdio_output@@QEAA@XZ 0000000180061500 f i libucrtd:output.obj
 0001:00060520       ??1?$output_adapter_data@_WV?$string_output_adapter@_W@__crt_stdio_output@@@__crt_stdio_output@@QEAA@XZ 0000000180061520 f i libucrtd:output.obj
 0001:00060540       ??1?$output_processor@DV?$stream_output_adapter@D@__crt_stdio_output@@V?$format_validation_base@DV?$stream_output_adapter@D@__crt_stdio_output@@@2@@__crt_stdio_output@@QEAA@XZ 0000000180061540 f i libucrtd:output.obj
 0001:00060560       ??1?$output_processor@DV?$stream_output_adapter@D@__crt_stdio_output@@V?$positional_parameter_base@DV?$stream_output_adapter@D@__crt_stdio_output@@@2@@__crt_stdio_output@@QEAA@XZ 0000000180061560 f i libucrtd:output.obj
 0001:00060580       ??1?$output_processor@DV?$stream_output_adapter@D@__crt_stdio_output@@V?$standard_base@DV?$stream_output_adapter@D@__crt_stdio_output@@@2@@__crt_stdio_output@@QEAA@XZ 0000000180061580 f i libucrtd:output.obj
 0001:000605a0       ??1?$output_processor@DV?$string_output_adapter@D@__crt_stdio_output@@V?$format_validation_base@DV?$string_output_adapter@D@__crt_stdio_output@@@2@@__crt_stdio_output@@QEAA@XZ 00000001800615a0 f i libucrtd:output.obj
 0001:000605c0       ??1?$output_processor@DV?$string_output_adapter@D@__crt_stdio_output@@V?$positional_parameter_base@DV?$string_output_adapter@D@__crt_stdio_output@@@2@@__crt_stdio_output@@QEAA@XZ 00000001800615c0 f i libucrtd:output.obj
 0001:000605e0       ??1?$output_processor@DV?$string_output_adapter@D@__crt_stdio_output@@V?$standard_base@DV?$string_output_adapter@D@__crt_stdio_output@@@2@@__crt_stdio_output@@QEAA@XZ 00000001800615e0 f i libucrtd:output.obj
 0001:00060600       ??1?$output_processor@_WV?$stream_output_adapter@_W@__crt_stdio_output@@V?$format_validation_base@_WV?$stream_output_adapter@_W@__crt_stdio_output@@@2@@__crt_stdio_output@@QEAA@XZ 0000000180061600 f i libucrtd:output.obj
 0001:00060620       ??1?$output_processor@_WV?$stream_output_adapter@_W@__crt_stdio_output@@V?$positional_parameter_base@_WV?$stream_output_adapter@_W@__crt_stdio_output@@@2@@__crt_stdio_output@@QEAA@XZ 0000000180061620 f i libucrtd:output.obj
 0001:00060640       ??1?$output_processor@_WV?$stream_output_adapter@_W@__crt_stdio_output@@V?$standard_base@_WV?$stream_output_adapter@_W@__crt_stdio_output@@@2@@__crt_stdio_output@@QEAA@XZ 0000000180061640 f i libucrtd:output.obj
 0001:00060660       ??1?$output_processor@_WV?$string_output_adapter@_W@__crt_stdio_output@@V?$format_validation_base@_WV?$string_output_adapter@_W@__crt_stdio_output@@@2@@__crt_stdio_output@@QEAA@XZ 0000000180061660 f i libucrtd:output.obj
 0001:00060680       ??1?$output_processor@_WV?$string_output_adapter@_W@__crt_stdio_output@@V?$positional_parameter_base@_WV?$string_output_adapter@_W@__crt_stdio_output@@@2@@__crt_stdio_output@@QEAA@XZ 0000000180061680 f i libucrtd:output.obj
 0001:000606a0       ??1?$output_processor@_WV?$string_output_adapter@_W@__crt_stdio_output@@V?$standard_base@_WV?$string_output_adapter@_W@__crt_stdio_output@@@2@@__crt_stdio_output@@QEAA@XZ 00000001800616a0 f i libucrtd:output.obj
 0001:000606c0       ??1?$positional_parameter_base@DV?$stream_output_adapter@D@__crt_stdio_output@@@__crt_stdio_output@@QEAA@XZ 00000001800616c0 f i libucrtd:output.obj
 0001:000606e0       ??1?$positional_parameter_base@DV?$string_output_adapter@D@__crt_stdio_output@@@__crt_stdio_output@@QEAA@XZ 00000001800616e0 f i libucrtd:output.obj
 0001:00060700       ??1?$positional_parameter_base@_WV?$stream_output_adapter@_W@__crt_stdio_output@@@__crt_stdio_output@@QEAA@XZ 0000000180061700 f i libucrtd:output.obj
 0001:00060720       ??1?$positional_parameter_base@_WV?$string_output_adapter@_W@__crt_stdio_output@@@__crt_stdio_output@@QEAA@XZ 0000000180061720 f i libucrtd:output.obj
 0001:00060740       ??1?$standard_base@DV?$stream_output_adapter@D@__crt_stdio_output@@@__crt_stdio_output@@QEAA@XZ 0000000180061740 f i libucrtd:output.obj
 0001:00060760       ??1?$standard_base@DV?$string_output_adapter@D@__crt_stdio_output@@@__crt_stdio_output@@QEAA@XZ 0000000180061760 f i libucrtd:output.obj
 0001:00060780       ??1?$standard_base@_WV?$stream_output_adapter@_W@__crt_stdio_output@@@__crt_stdio_output@@QEAA@XZ 0000000180061780 f i libucrtd:output.obj
 0001:000607a0       ??1?$standard_base@_WV?$string_output_adapter@_W@__crt_stdio_output@@@__crt_stdio_output@@QEAA@XZ 00000001800617a0 f i libucrtd:output.obj
 0001:000607c0       ??1_LocaleUpdate@@QEAA@XZ  00000001800617c0 f i libucrtd:output.obj
 0001:00060800       ??1__acrt_stdio_temporary_buffering_guard@@QEAA@XZ 0000000180061800 f i libucrtd:output.obj
 0001:00060830       ??1__crt_errno_guard@@QEAA@XZ 0000000180061830 f i libucrtd:output.obj
 0001:00060860       ??1formatting_buffer@__crt_stdio_output@@QEAA@XZ 0000000180061860 f i libucrtd:output.obj
 0001:00060890       ??4?$__crt_unique_heap_ptr@DU__crt_internal_free_policy@@@@QEAAAEAV0@$$QEAV0@@Z 0000000180061890 f i libucrtd:output.obj
 0001:000608d0       ??C__crt_stdio_stream@@QEBAPEAU__crt_stdio_stream_data@@XZ 00000001800618d0 f i libucrtd:output.obj
 0001:00061180       ?GetLocaleT@_LocaleUpdate@@QEAAPEAU__crt_locale_pointers@@XZ 0000000180062180 f i libucrtd:output.obj
 0001:00061190       ?__crt_interlocked_read_32@@YAHPEDH@Z 0000000180062190 f i libucrtd:output.obj
 0001:000611b0       ?adjust_hexit@?$output_processor@DV?$stream_output_adapter@D@__crt_stdio_output@@V?$format_validation_base@DV?$stream_output_adapter@D@__crt_stdio_output@@@2@@__crt_stdio_output@@CADH_N@Z 00000001800621b0 f i libucrtd:output.obj
 0001:00061200       ?adjust_hexit@?$output_processor@DV?$stream_output_adapter@D@__crt_stdio_output@@V?$positional_parameter_base@DV?$stream_output_adapter@D@__crt_stdio_output@@@2@@__crt_stdio_output@@CADH_N@Z 0000000180062200 f i libucrtd:output.obj
 0001:00061250       ?adjust_hexit@?$output_processor@DV?$stream_output_adapter@D@__crt_stdio_output@@V?$standard_base@DV?$stream_output_adapter@D@__crt_stdio_output@@@2@@__crt_stdio_output@@CADH_N@Z 0000000180062250 f i libucrtd:output.obj
 0001:000612a0       ?adjust_hexit@?$output_processor@DV?$string_output_adapter@D@__crt_stdio_output@@V?$format_validation_base@DV?$string_output_adapter@D@__crt_stdio_output@@@2@@__crt_stdio_output@@CADH_N@Z 00000001800622a0 f i libucrtd:output.obj
 0001:000612f0       ?adjust_hexit@?$output_processor@DV?$string_output_adapter@D@__crt_stdio_output@@V?$positional_parameter_base@DV?$string_output_adapter@D@__crt_stdio_output@@@2@@__crt_stdio_output@@CADH_N@Z 00000001800622f0 f i libucrtd:output.obj
 0001:00061340       ?adjust_hexit@?$output_processor@DV?$string_output_adapter@D@__crt_stdio_output@@V?$standard_base@DV?$string_output_adapter@D@__crt_stdio_output@@@2@@__crt_stdio_output@@CADH_N@Z 0000000180062340 f i libucrtd:output.obj
 0001:00061390       ?adjust_hexit@?$output_processor@_WV?$stream_output_adapter@_W@__crt_stdio_output@@V?$format_validation_base@_WV?$stream_output_adapter@_W@__crt_stdio_output@@@2@@__crt_stdio_output@@CADH_N@Z 0000000180062390 f i libucrtd:output.obj
 0001:000613e0       ?adjust_hexit@?$output_processor@_WV?$stream_output_adapter@_W@__crt_stdio_output@@V?$positional_parameter_base@_WV?$stream_output_adapter@_W@__crt_stdio_output@@@2@@__crt_stdio_output@@CADH_N@Z 00000001800623e0 f i libucrtd:output.obj
 0001:00061430       ?adjust_hexit@?$output_processor@_WV?$stream_output_adapter@_W@__crt_stdio_output@@V?$standard_base@_WV?$stream_output_adapter@_W@__crt_stdio_output@@@2@@__crt_stdio_output@@CADH_N@Z 0000000180062430 f i libucrtd:output.obj
 0001:00061480       ?adjust_hexit@?$output_processor@_WV?$string_output_adapter@_W@__crt_stdio_output@@V?$format_validation_base@_WV?$string_output_adapter@_W@__crt_stdio_output@@@2@@__crt_stdio_output@@CADH_N@Z 0000000180062480 f i libucrtd:output.obj
 0001:000614d0       ?adjust_hexit@?$output_processor@_WV?$string_output_adapter@_W@__crt_stdio_output@@V?$positional_parameter_base@_WV?$string_output_adapter@_W@__crt_stdio_output@@@2@@__crt_stdio_output@@CADH_N@Z 00000001800624d0 f i libucrtd:output.obj
 0001:00061520       ?adjust_hexit@?$output_processor@_WV?$string_output_adapter@_W@__crt_stdio_output@@V?$standard_base@_WV?$string_output_adapter@_W@__crt_stdio_output@@@2@@__crt_stdio_output@@CADH_N@Z 0000000180062520 f i libucrtd:output.obj
 0001:00061570       ?advance_to_next_pass@?$positional_parameter_base@DV?$stream_output_adapter@D@__crt_stdio_output@@@__crt_stdio_output@@IEAA_NXZ 0000000180062570 f i libucrtd:output.obj
 0001:00061620       ?advance_to_next_pass@?$positional_parameter_base@DV?$string_output_adapter@D@__crt_stdio_output@@@__crt_stdio_output@@IEAA_NXZ 0000000180062620 f i libucrtd:output.obj
 0001:000616d0       ?advance_to_next_pass@?$positional_parameter_base@_WV?$stream_output_adapter@_W@__crt_stdio_output@@@__crt_stdio_output@@IEAA_NXZ 00000001800626d0 f i libucrtd:output.obj
 0001:00061780       ?advance_to_next_pass@?$positional_parameter_base@_WV?$string_output_adapter@_W@__crt_stdio_output@@@__crt_stdio_output@@IEAA_NXZ 0000000180062780 f i libucrtd:output.obj
 0001:00061830       ?advance_to_next_pass@?$standard_base@DV?$stream_output_adapter@D@__crt_stdio_output@@@__crt_stdio_output@@IEAA_NXZ 0000000180062830 f i libucrtd:output.obj
 0001:00061880       ?advance_to_next_pass@?$standard_base@DV?$string_output_adapter@D@__crt_stdio_output@@@__crt_stdio_output@@IEAA_NXZ 0000000180062880 f i libucrtd:output.obj
 0001:000618d0       ?advance_to_next_pass@?$standard_base@_WV?$stream_output_adapter@_W@__crt_stdio_output@@@__crt_stdio_output@@IEAA_NXZ 00000001800628d0 f i libucrtd:output.obj
 0001:00061920       ?advance_to_next_pass@?$standard_base@_WV?$string_output_adapter@_W@__crt_stdio_output@@@__crt_stdio_output@@IEAA_NXZ 0000000180062920 f i libucrtd:output.obj
 0001:00061970       ?crop_zeroes@__crt_stdio_output@@YAXPEADQEAU__crt_locale_pointers@@@Z 0000000180062970 f i libucrtd:output.obj
 0001:00061ab0       ?find_next_state@?$output_processor@DV?$stream_output_adapter@D@__crt_stdio_output@@V?$format_validation_base@DV?$stream_output_adapter@D@__crt_stdio_output@@@2@@__crt_stdio_output@@AEBA?AW4state@2@DW432@@Z 0000000180062ab0 f i libucrtd:output.obj
 0001:00061b50       ?find_next_state@?$output_processor@DV?$stream_output_adapter@D@__crt_stdio_output@@V?$positional_parameter_base@DV?$stream_output_adapter@D@__crt_stdio_output@@@2@@__crt_stdio_output@@AEBA?AW4state@2@DW432@@Z 0000000180062b50 f i libucrtd:output.obj
 0001:00061bf0       ?find_next_state@?$output_processor@DV?$stream_output_adapter@D@__crt_stdio_output@@V?$standard_base@DV?$stream_output_adapter@D@__crt_stdio_output@@@2@@__crt_stdio_output@@AEBA?AW4state@2@DW432@@Z 0000000180062bf0 f i libucrtd:output.obj
 0001:00061c90       ?find_next_state@?$output_processor@DV?$string_output_adapter@D@__crt_stdio_output@@V?$format_validation_base@DV?$string_output_adapter@D@__crt_stdio_output@@@2@@__crt_stdio_output@@AEBA?AW4state@2@DW432@@Z 0000000180062c90 f i libucrtd:output.obj
 0001:00061d30       ?find_next_state@?$output_processor@DV?$string_output_adapter@D@__crt_stdio_output@@V?$positional_parameter_base@DV?$string_output_adapter@D@__crt_stdio_output@@@2@@__crt_stdio_output@@AEBA?AW4state@2@DW432@@Z 0000000180062d30 f i libucrtd:output.obj
 0001:00061dd0       ?find_next_state@?$output_processor@DV?$string_output_adapter@D@__crt_stdio_output@@V?$standard_base@DV?$string_output_adapter@D@__crt_stdio_output@@@2@@__crt_stdio_output@@AEBA?AW4state@2@DW432@@Z 0000000180062dd0 f i libucrtd:output.obj
 0001:00061e70       ?find_next_state@?$output_processor@_WV?$stream_output_adapter@_W@__crt_stdio_output@@V?$format_validation_base@_WV?$stream_output_adapter@_W@__crt_stdio_output@@@2@@__crt_stdio_output@@AEBA?AW4state@2@_WW432@@Z 0000000180062e70 f i libucrtd:output.obj
 0001:00061f10       ?find_next_state@?$output_processor@_WV?$stream_output_adapter@_W@__crt_stdio_output@@V?$positional_parameter_base@_WV?$stream_output_adapter@_W@__crt_stdio_output@@@2@@__crt_stdio_output@@AEBA?AW4state@2@_WW432@@Z 0000000180062f10 f i libucrtd:output.obj
 0001:00061fb0       ?find_next_state@?$output_processor@_WV?$stream_output_adapter@_W@__crt_stdio_output@@V?$standard_base@_WV?$stream_output_adapter@_W@__crt_stdio_output@@@2@@__crt_stdio_output@@AEBA?AW4state@2@_WW432@@Z 0000000180062fb0 f i libucrtd:output.obj
 0001:00062050       ?find_next_state@?$output_processor@_WV?$string_output_adapter@_W@__crt_stdio_output@@V?$format_validation_base@_WV?$string_output_adapter@_W@__crt_stdio_output@@@2@@__crt_stdio_output@@AEBA?AW4state@2@_WW432@@Z 0000000180063050 f i libucrtd:output.obj
 0001:000620f0       ?find_next_state@?$output_processor@_WV?$string_output_adapter@_W@__crt_stdio_output@@V?$positional_parameter_base@_WV?$string_output_adapter@_W@__crt_stdio_output@@@2@@__crt_stdio_output@@AEBA?AW4state@2@_WW432@@Z 00000001800630f0 f i libucrtd:output.obj
 0001:00062190       ?find_next_state@?$output_processor@_WV?$string_output_adapter@_W@__crt_stdio_output@@V?$standard_base@_WV?$string_output_adapter@_W@__crt_stdio_output@@@2@@__crt_stdio_output@@AEBA?AW4state@2@_WW432@@Z 0000000180063190 f i libucrtd:output.obj
 0001:00062230       ?force_decimal_point@__crt_stdio_output@@YAXPEADQEAU__crt_locale_pointers@@@Z 0000000180063230 f i libucrtd:output.obj
 0001:00062330       ?get@__crt_deferred_errno_cache@@QEAAAEAHXZ 0000000180063330 f i libucrtd:output.obj
 0001:00062360       ?get_flags@__crt_stdio_stream@@QEBAJXZ 0000000180063360 f i libucrtd:output.obj
 0001:00062390       ?get_parameter_type@?$positional_parameter_base@DV?$stream_output_adapter@D@__crt_stdio_output@@@__crt_stdio_output@@CA?AW4parameter_type@12@F@Z 0000000180063390 f i libucrtd:output.obj
 0001:000623a0       ?get_parameter_type@?$positional_parameter_base@DV?$stream_output_adapter@D@__crt_stdio_output@@@__crt_stdio_output@@CA?AW4parameter_type@12@G@Z 00000001800633a0 f i libucrtd:output.obj
 0001:000623b0       ?get_parameter_type@?$positional_parameter_base@DV?$stream_output_adapter@D@__crt_stdio_output@@@__crt_stdio_output@@CA?AW4parameter_type@12@H@Z 00000001800633b0 f i libucrtd:output.obj
 0001:000623c0       ?get_parameter_type@?$positional_parameter_base@DV?$stream_output_adapter@D@__crt_stdio_output@@@__crt_stdio_output@@CA?AW4parameter_type@12@I@Z 00000001800633c0 f i libucrtd:output.obj
 0001:000623d0       ?get_parameter_type@?$positional_parameter_base@DV?$stream_output_adapter@D@__crt_stdio_output@@@__crt_stdio_output@@CA?AW4parameter_type@12@U_CRT_DOUBLE@@@Z 00000001800633d0 f i libucrtd:output.obj
 0001:000623e0       ?get_parameter_type@?$positional_parameter_base@DV?$stream_output_adapter@D@__crt_stdio_output@@@__crt_stdio_output@@CA?AW4parameter_type@12@_J@Z 00000001800633e0 f i libucrtd:output.obj
 0001:000623f0       ?get_parameter_type@?$positional_parameter_base@DV?$stream_output_adapter@D@__crt_stdio_output@@@__crt_stdio_output@@CA?AW4parameter_type@12@_K@Z 00000001800633f0 f i libucrtd:output.obj
 0001:00062400       ?get_parameter_type@?$positional_parameter_base@DV?$stream_output_adapter@D@__crt_stdio_output@@@__crt_stdio_output@@CA?AW4parameter_type@12@_W@Z 0000000180063400 f i libucrtd:output.obj
 0001:00062410       ?get_parameter_type@?$positional_parameter_base@DV?$string_output_adapter@D@__crt_stdio_output@@@__crt_stdio_output@@CA?AW4parameter_type@12@F@Z 0000000180063410 f i libucrtd:output.obj
 0001:00062420       ?get_parameter_type@?$positional_parameter_base@DV?$string_output_adapter@D@__crt_stdio_output@@@__crt_stdio_output@@CA?AW4parameter_type@12@G@Z 0000000180063420 f i libucrtd:output.obj
 0001:00062430       ?get_parameter_type@?$positional_parameter_base@DV?$string_output_adapter@D@__crt_stdio_output@@@__crt_stdio_output@@CA?AW4parameter_type@12@H@Z 0000000180063430 f i libucrtd:output.obj
 0001:00062440       ?get_parameter_type@?$positional_parameter_base@DV?$string_output_adapter@D@__crt_stdio_output@@@__crt_stdio_output@@CA?AW4parameter_type@12@I@Z 0000000180063440 f i libucrtd:output.obj
 0001:00062450       ?get_parameter_type@?$positional_parameter_base@DV?$string_output_adapter@D@__crt_stdio_output@@@__crt_stdio_output@@CA?AW4parameter_type@12@U_CRT_DOUBLE@@@Z 0000000180063450 f i libucrtd:output.obj
 0001:00062460       ?get_parameter_type@?$positional_parameter_base@DV?$string_output_adapter@D@__crt_stdio_output@@@__crt_stdio_output@@CA?AW4parameter_type@12@_J@Z 0000000180063460 f i libucrtd:output.obj
 0001:00062470       ?get_parameter_type@?$positional_parameter_base@DV?$string_output_adapter@D@__crt_stdio_output@@@__crt_stdio_output@@CA?AW4parameter_type@12@_K@Z 0000000180063470 f i libucrtd:output.obj
 0001:00062480       ?get_parameter_type@?$positional_parameter_base@DV?$string_output_adapter@D@__crt_stdio_output@@@__crt_stdio_output@@CA?AW4parameter_type@12@_W@Z 0000000180063480 f i libucrtd:output.obj
 0001:00062490       ?get_parameter_type@?$positional_parameter_base@_WV?$stream_output_adapter@_W@__crt_stdio_output@@@__crt_stdio_output@@CA?AW4parameter_type@12@F@Z 0000000180063490 f i libucrtd:output.obj
 0001:000624a0       ?get_parameter_type@?$positional_parameter_base@_WV?$stream_output_adapter@_W@__crt_stdio_output@@@__crt_stdio_output@@CA?AW4parameter_type@12@G@Z 00000001800634a0 f i libucrtd:output.obj
 0001:000624b0       ?get_parameter_type@?$positional_parameter_base@_WV?$stream_output_adapter@_W@__crt_stdio_output@@@__crt_stdio_output@@CA?AW4parameter_type@12@H@Z 00000001800634b0 f i libucrtd:output.obj
 0001:000624c0       ?get_parameter_type@?$positional_parameter_base@_WV?$stream_output_adapter@_W@__crt_stdio_output@@@__crt_stdio_output@@CA?AW4parameter_type@12@I@Z 00000001800634c0 f i libucrtd:output.obj
 0001:000624d0       ?get_parameter_type@?$positional_parameter_base@_WV?$stream_output_adapter@_W@__crt_stdio_output@@@__crt_stdio_output@@CA?AW4parameter_type@12@U_CRT_DOUBLE@@@Z 00000001800634d0 f i libucrtd:output.obj
 0001:000624e0       ?get_parameter_type@?$positional_parameter_base@_WV?$stream_output_adapter@_W@__crt_stdio_output@@@__crt_stdio_output@@CA?AW4parameter_type@12@_J@Z 00000001800634e0 f i libucrtd:output.obj
 0001:000624f0       ?get_parameter_type@?$positional_parameter_base@_WV?$stream_output_adapter@_W@__crt_stdio_output@@@__crt_stdio_output@@CA?AW4parameter_type@12@_K@Z 00000001800634f0 f i libucrtd:output.obj
 0001:00062500       ?get_parameter_type@?$positional_parameter_base@_WV?$stream_output_adapter@_W@__crt_stdio_output@@@__crt_stdio_output@@CA?AW4parameter_type@12@_W@Z 0000000180063500 f i libucrtd:output.obj
 0001:00062510       ?get_parameter_type@?$positional_parameter_base@_WV?$string_output_adapter@_W@__crt_stdio_output@@@__crt_stdio_output@@CA?AW4parameter_type@12@F@Z 0000000180063510 f i libucrtd:output.obj
 0001:00062520       ?get_parameter_type@?$positional_parameter_base@_WV?$string_output_adapter@_W@__crt_stdio_output@@@__crt_stdio_output@@CA?AW4parameter_type@12@G@Z 0000000180063520 f i libucrtd:output.obj
 0001:00062530       ?get_parameter_type@?$positional_parameter_base@_WV?$string_output_adapter@_W@__crt_stdio_output@@@__crt_stdio_output@@CA?AW4parameter_type@12@H@Z 0000000180063530 f i libucrtd:output.obj
 0001:00062540       ?get_parameter_type@?$positional_parameter_base@_WV?$string_output_adapter@_W@__crt_stdio_output@@@__crt_stdio_output@@CA?AW4parameter_type@12@I@Z 0000000180063540 f i libucrtd:output.obj
 0001:00062550       ?get_parameter_type@?$positional_parameter_base@_WV?$string_output_adapter@_W@__crt_stdio_output@@@__crt_stdio_output@@CA?AW4parameter_type@12@U_CRT_DOUBLE@@@Z 0000000180063550 f i libucrtd:output.obj
 0001:00062560       ?get_parameter_type@?$positional_parameter_base@_WV?$string_output_adapter@_W@__crt_stdio_output@@@__crt_stdio_output@@CA?AW4parameter_type@12@_J@Z 0000000180063560 f i libucrtd:output.obj
 0001:00062570       ?get_parameter_type@?$positional_parameter_base@_WV?$string_output_adapter@_W@__crt_stdio_output@@@__crt_stdio_output@@CA?AW4parameter_type@12@_K@Z 0000000180063570 f i libucrtd:output.obj
 0001:00062580       ?get_parameter_type@?$positional_parameter_base@_WV?$string_output_adapter@_W@__crt_stdio_output@@@__crt_stdio_output@@CA?AW4parameter_type@12@_W@Z 0000000180063580 f i libucrtd:output.obj
 0001:00062590       ?has_flag@?$output_processor@DV?$stream_output_adapter@D@__crt_stdio_output@@V?$format_validation_base@DV?$stream_output_adapter@D@__crt_stdio_output@@@2@@__crt_stdio_output@@AEBA_NI@Z 0000000180063590 f i libucrtd:output.obj
 0001:000625d0       ?has_flag@?$output_processor@DV?$stream_output_adapter@D@__crt_stdio_output@@V?$positional_parameter_base@DV?$stream_output_adapter@D@__crt_stdio_output@@@2@@__crt_stdio_output@@AEBA_NI@Z 00000001800635d0 f i libucrtd:output.obj
 0001:00062610       ?has_flag@?$output_processor@DV?$stream_output_adapter@D@__crt_stdio_output@@V?$standard_base@DV?$stream_output_adapter@D@__crt_stdio_output@@@2@@__crt_stdio_output@@AEBA_NI@Z 0000000180063610 f i libucrtd:output.obj
 0001:00062650       ?has_flag@?$output_processor@DV?$string_output_adapter@D@__crt_stdio_output@@V?$format_validation_base@DV?$string_output_adapter@D@__crt_stdio_output@@@2@@__crt_stdio_output@@AEBA_NI@Z 0000000180063650 f i libucrtd:output.obj
 0001:00062690       ?has_flag@?$output_processor@DV?$string_output_adapter@D@__crt_stdio_output@@V?$positional_parameter_base@DV?$string_output_adapter@D@__crt_stdio_output@@@2@@__crt_stdio_output@@AEBA_NI@Z 0000000180063690 f i libucrtd:output.obj
 0001:000626d0       ?has_flag@?$output_processor@DV?$string_output_adapter@D@__crt_stdio_output@@V?$standard_base@DV?$string_output_adapter@D@__crt_stdio_output@@@2@@__crt_stdio_output@@AEBA_NI@Z 00000001800636d0 f i libucrtd:output.obj
 0001:00062710       ?has_flag@?$output_processor@_WV?$stream_output_adapter@_W@__crt_stdio_output@@V?$format_validation_base@_WV?$stream_output_adapter@_W@__crt_stdio_output@@@2@@__crt_stdio_output@@AEBA_NI@Z 0000000180063710 f i libucrtd:output.obj
 0001:00062750       ?has_flag@?$output_processor@_WV?$stream_output_adapter@_W@__crt_stdio_output@@V?$positional_parameter_base@_WV?$stream_output_adapter@_W@__crt_stdio_output@@@2@@__crt_stdio_output@@AEBA_NI@Z 0000000180063750 f i libucrtd:output.obj
 0001:00062790       ?has_flag@?$output_processor@_WV?$stream_output_adapter@_W@__crt_stdio_output@@V?$standard_base@_WV?$stream_output_adapter@_W@__crt_stdio_output@@@2@@__crt_stdio_output@@AEBA_NI@Z 0000000180063790 f i libucrtd:output.obj
 0001:000627d0       ?has_flag@?$output_processor@_WV?$string_output_adapter@_W@__crt_stdio_output@@V?$format_validation_base@_WV?$string_output_adapter@_W@__crt_stdio_output@@@2@@__crt_stdio_output@@AEBA_NI@Z 00000001800637d0 f i libucrtd:output.obj
 0001:00062810       ?has_flag@?$output_processor@_WV?$string_output_adapter@_W@__crt_stdio_output@@V?$positional_parameter_base@_WV?$string_output_adapter@_W@__crt_stdio_output@@@2@@__crt_stdio_output@@AEBA_NI@Z 0000000180063810 f i libucrtd:output.obj
 0001:00062850       ?has_flag@?$output_processor@_WV?$string_output_adapter@_W@__crt_stdio_output@@V?$standard_base@_WV?$string_output_adapter@_W@__crt_stdio_output@@@2@@__crt_stdio_output@@AEBA_NI@Z 0000000180063850 f i libucrtd:output.obj
 0001:00062890       ?is_positional_parameter_reappearance_consistent@?$positional_parameter_base@DV?$stream_output_adapter@D@__crt_stdio_output@@@__crt_stdio_output@@AEAA_NAEBUparameter_data@12@W4parameter_type@12@DW4length_modifier@2@@Z 0000000180063890 f i libucrtd:output.obj
 0001:00062af0       ?is_positional_parameter_reappearance_consistent@?$positional_parameter_base@DV?$string_output_adapter@D@__crt_stdio_output@@@__crt_stdio_output@@AEAA_NAEBUparameter_data@12@W4parameter_type@12@DW4length_modifier@2@@Z 0000000180063af0 f i libucrtd:output.obj
 0001:00062d50       ?is_positional_parameter_reappearance_consistent@?$positional_parameter_base@_WV?$stream_output_adapter@_W@__crt_stdio_output@@@__crt_stdio_output@@AEAA_NAEBUparameter_data@12@W4parameter_type@12@_WW4length_modifier@2@@Z 0000000180063d50 f i libucrtd:output.obj
 0001:00062fb0       ?is_positional_parameter_reappearance_consistent@?$positional_parameter_base@_WV?$string_output_adapter@_W@__crt_stdio_output@@@__crt_stdio_output@@AEAA_NAEBUparameter_data@12@W4parameter_type@12@_WW4length_modifier@2@@Z 0000000180063fb0 f i libucrtd:output.obj
 0001:00063210       ?is_string_backed@__crt_stdio_stream@@QEBA_NXZ 0000000180064210 f i libucrtd:output.obj
 0001:00063250       ?narrow_null_string@?$output_processor@DV?$stream_output_adapter@D@__crt_stdio_output@@V?$format_validation_base@DV?$stream_output_adapter@D@__crt_stdio_output@@@2@@__crt_stdio_output@@CAPEADXZ 0000000180064250 f i libucrtd:output.obj
 0001:00063260       ?narrow_null_string@?$output_processor@DV?$stream_output_adapter@D@__crt_stdio_output@@V?$positional_parameter_base@DV?$stream_output_adapter@D@__crt_stdio_output@@@2@@__crt_stdio_output@@CAPEADXZ 0000000180064260 f i libucrtd:output.obj
 0001:00063270       ?narrow_null_string@?$output_processor@DV?$stream_output_adapter@D@__crt_stdio_output@@V?$standard_base@DV?$stream_output_adapter@D@__crt_stdio_output@@@2@@__crt_stdio_output@@CAPEADXZ 0000000180064270 f i libucrtd:output.obj
 0001:00063280       ?narrow_null_string@?$output_processor@DV?$string_output_adapter@D@__crt_stdio_output@@V?$format_validation_base@DV?$string_output_adapter@D@__crt_stdio_output@@@2@@__crt_stdio_output@@CAPEADXZ 0000000180064280 f i libucrtd:output.obj
 0001:00063290       ?narrow_null_string@?$output_processor@DV?$string_output_adapter@D@__crt_stdio_output@@V?$positional_parameter_base@DV?$string_output_adapter@D@__crt_stdio_output@@@2@@__crt_stdio_output@@CAPEADXZ 0000000180064290 f i libucrtd:output.obj
 0001:000632a0       ?narrow_null_string@?$output_processor@DV?$string_output_adapter@D@__crt_stdio_output@@V?$standard_base@DV?$string_output_adapter@D@__crt_stdio_output@@@2@@__crt_stdio_output@@CAPEADXZ 00000001800642a0 f i libucrtd:output.obj
 0001:000632b0       ?narrow_null_string@?$output_processor@_WV?$stream_output_adapter@_W@__crt_stdio_output@@V?$format_validation_base@_WV?$stream_output_adapter@_W@__crt_stdio_output@@@2@@__crt_stdio_output@@CAPEADXZ 00000001800642b0 f i libucrtd:output.obj
 0001:000632c0       ?narrow_null_string@?$output_processor@_WV?$stream_output_adapter@_W@__crt_stdio_output@@V?$positional_parameter_base@_WV?$stream_output_adapter@_W@__crt_stdio_output@@@2@@__crt_stdio_output@@CAPEADXZ 00000001800642c0 f i libucrtd:output.obj
 0001:000632d0       ?narrow_null_string@?$output_processor@_WV?$stream_output_adapter@_W@__crt_stdio_output@@V?$standard_base@_WV?$stream_output_adapter@_W@__crt_stdio_output@@@2@@__crt_stdio_output@@CAPEADXZ 00000001800642d0 f i libucrtd:output.obj
 0001:000632e0       ?narrow_null_string@?$output_processor@_WV?$string_output_adapter@_W@__crt_stdio_output@@V?$format_validation_base@_WV?$string_output_adapter@_W@__crt_stdio_output@@@2@@__crt_stdio_output@@CAPEADXZ 00000001800642e0 f i libucrtd:output.obj
 0001:000632f0       ?narrow_null_string@?$output_processor@_WV?$string_output_adapter@_W@__crt_stdio_output@@V?$positional_parameter_base@_WV?$string_output_adapter@_W@__crt_stdio_output@@@2@@__crt_stdio_output@@CAPEADXZ 00000001800642f0 f i libucrtd:output.obj
 0001:00063300       ?narrow_null_string@?$output_processor@_WV?$string_output_adapter@_W@__crt_stdio_output@@V?$standard_base@_WV?$string_output_adapter@_W@__crt_stdio_output@@@2@@__crt_stdio_output@@CAPEADXZ 0000000180064300 f i libucrtd:output.obj
 0001:00063310       ?parse_int_from_format_string@?$output_processor@DV?$stream_output_adapter@D@__crt_stdio_output@@V?$format_validation_base@DV?$stream_output_adapter@D@__crt_stdio_output@@@2@@__crt_stdio_output@@AEAA_NQEAH@Z 0000000180064310 f i libucrtd:output.obj
 0001:00063400       ?parse_int_from_format_string@?$output_processor@DV?$stream_output_adapter@D@__crt_stdio_output@@V?$positional_parameter_base@DV?$stream_output_adapter@D@__crt_stdio_output@@@2@@__crt_stdio_output@@AEAA_NQEAH@Z 0000000180064400 f i libucrtd:output.obj
 0001:000634f0       ?parse_int_from_format_string@?$output_processor@DV?$stream_output_adapter@D@__crt_stdio_output@@V?$standard_base@DV?$stream_output_adapter@D@__crt_stdio_output@@@2@@__crt_stdio_output@@AEAA_NQEAH@Z 00000001800644f0 f i libucrtd:output.obj
 0001:000635e0       ?parse_int_from_format_string@?$output_processor@DV?$string_output_adapter@D@__crt_stdio_output@@V?$format_validation_base@DV?$string_output_adapter@D@__crt_stdio_output@@@2@@__crt_stdio_output@@AEAA_NQEAH@Z 00000001800645e0 f i libucrtd:output.obj
 0001:000636d0       ?parse_int_from_format_string@?$output_processor@DV?$string_output_adapter@D@__crt_stdio_output@@V?$positional_parameter_base@DV?$string_output_adapter@D@__crt_stdio_output@@@2@@__crt_stdio_output@@AEAA_NQEAH@Z 00000001800646d0 f i libucrtd:output.obj
 0001:000637c0       ?parse_int_from_format_string@?$output_processor@DV?$string_output_adapter@D@__crt_stdio_output@@V?$standard_base@DV?$string_output_adapter@D@__crt_stdio_output@@@2@@__crt_stdio_output@@AEAA_NQEAH@Z 00000001800647c0 f i libucrtd:output.obj
 0001:000638b0       ?parse_int_from_format_string@?$output_processor@_WV?$stream_output_adapter@_W@__crt_stdio_output@@V?$format_validation_base@_WV?$stream_output_adapter@_W@__crt_stdio_output@@@2@@__crt_stdio_output@@AEAA_NQEAH@Z 00000001800648b0 f i libucrtd:output.obj
 0001:000639a0       ?parse_int_from_format_string@?$output_processor@_WV?$stream_output_adapter@_W@__crt_stdio_output@@V?$positional_parameter_base@_WV?$stream_output_adapter@_W@__crt_stdio_output@@@2@@__crt_stdio_output@@AEAA_NQEAH@Z 00000001800649a0 f i libucrtd:output.obj
 0001:00063a90       ?parse_int_from_format_string@?$output_processor@_WV?$stream_output_adapter@_W@__crt_stdio_output@@V?$standard_base@_WV?$stream_output_adapter@_W@__crt_stdio_output@@@2@@__crt_stdio_output@@AEAA_NQEAH@Z 0000000180064a90 f i libucrtd:output.obj
 0001:00063b80       ?parse_int_from_format_string@?$output_processor@_WV?$string_output_adapter@_W@__crt_stdio_output@@V?$format_validation_base@_WV?$string_output_adapter@_W@__crt_stdio_output@@@2@@__crt_stdio_output@@AEAA_NQEAH@Z 0000000180064b80 f i libucrtd:output.obj
 0001:00063c70       ?parse_int_from_format_string@?$output_processor@_WV?$string_output_adapter@_W@__crt_stdio_output@@V?$positional_parameter_base@_WV?$string_output_adapter@_W@__crt_stdio_output@@@2@@__crt_stdio_output@@AEAA_NQEAH@Z 0000000180064c70 f i libucrtd:output.obj
 0001:00063d60       ?parse_int_from_format_string@?$output_processor@_WV?$string_output_adapter@_W@__crt_stdio_output@@V?$standard_base@_WV?$string_output_adapter@_W@__crt_stdio_output@@@2@@__crt_stdio_output@@AEAA_NQEAH@Z 0000000180064d60 f i libucrtd:output.obj
 0001:00063e50       ?process@?$output_processor@DV?$stream_output_adapter@D@__crt_stdio_output@@V?$format_validation_base@DV?$stream_output_adapter@D@__crt_stdio_output@@@2@@__crt_stdio_output@@QEAAHXZ 0000000180064e50 f i libucrtd:output.obj
 0001:000641b0       ?process@?$output_processor@DV?$stream_output_adapter@D@__crt_stdio_output@@V?$positional_parameter_base@DV?$stream_output_adapter@D@__crt_stdio_output@@@2@@__crt_stdio_output@@QEAAHXZ 00000001800651b0 f i libucrtd:output.obj
 0001:00064510       ?process@?$output_processor@DV?$stream_output_adapter@D@__crt_stdio_output@@V?$standard_base@DV?$stream_output_adapter@D@__crt_stdio_output@@@2@@__crt_stdio_output@@QEAAHXZ 0000000180065510 f i libucrtd:output.obj
 0001:00064870       ?process@?$output_processor@DV?$string_output_adapter@D@__crt_stdio_output@@V?$format_validation_base@DV?$string_output_adapter@D@__crt_stdio_output@@@2@@__crt_stdio_output@@QEAAHXZ 0000000180065870 f i libucrtd:output.obj
 0001:00064bd0       ?process@?$output_processor@DV?$string_output_adapter@D@__crt_stdio_output@@V?$positional_parameter_base@DV?$string_output_adapter@D@__crt_stdio_output@@@2@@__crt_stdio_output@@QEAAHXZ 0000000180065bd0 f i libucrtd:output.obj
 0001:00064f30       ?process@?$output_processor@DV?$string_output_adapter@D@__crt_stdio_output@@V?$standard_base@DV?$string_output_adapter@D@__crt_stdio_output@@@2@@__crt_stdio_output@@QEAAHXZ 0000000180065f30 f i libucrtd:output.obj
 0001:00065290       ?process@?$output_processor@_WV?$stream_output_adapter@_W@__crt_stdio_output@@V?$format_validation_base@_WV?$stream_output_adapter@_W@__crt_stdio_output@@@2@@__crt_stdio_output@@QEAAHXZ 0000000180066290 f i libucrtd:output.obj
 0001:000655f0       ?process@?$output_processor@_WV?$stream_output_adapter@_W@__crt_stdio_output@@V?$positional_parameter_base@_WV?$stream_output_adapter@_W@__crt_stdio_output@@@2@@__crt_stdio_output@@QEAAHXZ 00000001800665f0 f i libucrtd:output.obj
 0001:00065950       ?process@?$output_processor@_WV?$stream_output_adapter@_W@__crt_stdio_output@@V?$standard_base@_WV?$stream_output_adapter@_W@__crt_stdio_output@@@2@@__crt_stdio_output@@QEAAHXZ 0000000180066950 f i libucrtd:output.obj
 0001:00065cb0       ?process@?$output_processor@_WV?$string_output_adapter@_W@__crt_stdio_output@@V?$format_validation_base@_WV?$string_output_adapter@_W@__crt_stdio_output@@@2@@__crt_stdio_output@@QEAAHXZ 0000000180066cb0 f i libucrtd:output.obj
 0001:00066010       ?process@?$output_processor@_WV?$string_output_adapter@_W@__crt_stdio_output@@V?$positional_parameter_base@_WV?$string_output_adapter@_W@__crt_stdio_output@@@2@@__crt_stdio_output@@QEAAHXZ 0000000180067010 f i libucrtd:output.obj
 0001:00066370       ?process@?$output_processor@_WV?$string_output_adapter@_W@__crt_stdio_output@@V?$standard_base@_WV?$string_output_adapter@_W@__crt_stdio_output@@@2@@__crt_stdio_output@@QEAAHXZ 0000000180067370 f i libucrtd:output.obj
 0001:000666d0       ?public_stream@__crt_stdio_stream@@QEBAPEAU_iobuf@@XZ 00000001800676d0 f i libucrtd:output.obj
 0001:000666e0       ?set_flag@?$output_processor@DV?$stream_output_adapter@D@__crt_stdio_output@@V?$format_validation_base@DV?$stream_output_adapter@D@__crt_stdio_output@@@2@@__crt_stdio_output@@AEAAXI@Z 00000001800676e0 f i libucrtd:output.obj
 0001:00066700       ?set_flag@?$output_processor@DV?$stream_output_adapter@D@__crt_stdio_output@@V?$positional_parameter_base@DV?$stream_output_adapter@D@__crt_stdio_output@@@2@@__crt_stdio_output@@AEAAXI@Z 0000000180067700 f i libucrtd:output.obj
 0001:00066720       ?set_flag@?$output_processor@DV?$stream_output_adapter@D@__crt_stdio_output@@V?$standard_base@DV?$stream_output_adapter@D@__crt_stdio_output@@@2@@__crt_stdio_output@@AEAAXI@Z 0000000180067720 f i libucrtd:output.obj
 0001:00066740       ?set_flag@?$output_processor@DV?$string_output_adapter@D@__crt_stdio_output@@V?$format_validation_base@DV?$string_output_adapter@D@__crt_stdio_output@@@2@@__crt_stdio_output@@AEAAXI@Z 0000000180067740 f i libucrtd:output.obj
 0001:00066760       ?set_flag@?$output_processor@DV?$string_output_adapter@D@__crt_stdio_output@@V?$positional_parameter_base@DV?$string_output_adapter@D@__crt_stdio_output@@@2@@__crt_stdio_output@@AEAAXI@Z 0000000180067760 f i libucrtd:output.obj
 0001:00066780       ?set_flag@?$output_processor@DV?$string_output_adapter@D@__crt_stdio_output@@V?$standard_base@DV?$string_output_adapter@D@__crt_stdio_output@@@2@@__crt_stdio_output@@AEAAXI@Z 0000000180067780 f i libucrtd:output.obj
 0001:000667a0       ?set_flag@?$output_processor@_WV?$stream_output_adapter@_W@__crt_stdio_output@@V?$format_validation_base@_WV?$stream_output_adapter@_W@__crt_stdio_output@@@2@@__crt_stdio_output@@AEAAXI@Z 00000001800677a0 f i libucrtd:output.obj
 0001:000667c0       ?set_flag@?$output_processor@_WV?$stream_output_adapter@_W@__crt_stdio_output@@V?$positional_parameter_base@_WV?$stream_output_adapter@_W@__crt_stdio_output@@@2@@__crt_stdio_output@@AEAAXI@Z 00000001800677c0 f i libucrtd:output.obj
 0001:000667e0       ?set_flag@?$output_processor@_WV?$stream_output_adapter@_W@__crt_stdio_output@@V?$standard_base@_WV?$stream_output_adapter@_W@__crt_stdio_output@@@2@@__crt_stdio_output@@AEAAXI@Z 00000001800677e0 f i libucrtd:output.obj
 0001:00066800       ?set_flag@?$output_processor@_WV?$string_output_adapter@_W@__crt_stdio_output@@V?$format_validation_base@_WV?$string_output_adapter@_W@__crt_stdio_output@@@2@@__crt_stdio_output@@AEAAXI@Z 0000000180067800 f i libucrtd:output.obj
 0001:00066820       ?set_flag@?$output_processor@_WV?$string_output_adapter@_W@__crt_stdio_output@@V?$positional_parameter_base@_WV?$string_output_adapter@_W@__crt_stdio_output@@@2@@__crt_stdio_output@@AEAAXI@Z 0000000180067820 f i libucrtd:output.obj
 0001:00066840       ?set_flag@?$output_processor@_WV?$string_output_adapter@_W@__crt_stdio_output@@V?$standard_base@_WV?$string_output_adapter@_W@__crt_stdio_output@@@2@@__crt_stdio_output@@AEAAXI@Z 0000000180067840 f i libucrtd:output.obj
 0001:00066860       ?should_format@?$positional_parameter_base@DV?$stream_output_adapter@D@__crt_stdio_output@@@__crt_stdio_output@@IEAA_NXZ 0000000180067860 f i libucrtd:output.obj
 0001:000668a0       ?should_format@?$positional_parameter_base@DV?$string_output_adapter@D@__crt_stdio_output@@@__crt_stdio_output@@IEAA_NXZ 00000001800678a0 f i libucrtd:output.obj
 0001:000668e0       ?should_format@?$positional_parameter_base@_WV?$stream_output_adapter@_W@__crt_stdio_output@@@__crt_stdio_output@@IEAA_NXZ 00000001800678e0 f i libucrtd:output.obj
 0001:00066920       ?should_format@?$positional_parameter_base@_WV?$string_output_adapter@_W@__crt_stdio_output@@@__crt_stdio_output@@IEAA_NXZ 0000000180067920 f i libucrtd:output.obj
 0001:00066960       ?should_format@?$standard_base@DV?$stream_output_adapter@D@__crt_stdio_output@@@__crt_stdio_output@@IEAA_NXZ 0000000180067960 f i libucrtd:output.obj
 0001:00066970       ?should_format@?$standard_base@DV?$string_output_adapter@D@__crt_stdio_output@@@__crt_stdio_output@@IEAA_NXZ 0000000180067970 f i libucrtd:output.obj
 0001:00066980       ?should_format@?$standard_base@_WV?$stream_output_adapter@_W@__crt_stdio_output@@@__crt_stdio_output@@IEAA_NXZ 0000000180067980 f i libucrtd:output.obj
 0001:00066990       ?should_format@?$standard_base@_WV?$string_output_adapter@_W@__crt_stdio_output@@@__crt_stdio_output@@IEAA_NXZ 0000000180067990 f i libucrtd:output.obj
 0001:000669a0       ?should_skip_normal_state_processing@?$positional_parameter_base@DV?$stream_output_adapter@D@__crt_stdio_output@@@__crt_stdio_output@@IEAA_NXZ 00000001800679a0 f i libucrtd:output.obj
 0001:000669f0       ?should_skip_normal_state_processing@?$positional_parameter_base@DV?$string_output_adapter@D@__crt_stdio_output@@@__crt_stdio_output@@IEAA_NXZ 00000001800679f0 f i libucrtd:output.obj
 0001:00066a40       ?should_skip_normal_state_processing@?$positional_parameter_base@_WV?$stream_output_adapter@_W@__crt_stdio_output@@@__crt_stdio_output@@IEAA_NXZ 0000000180067a40 f i libucrtd:output.obj
 0001:00066a90       ?should_skip_normal_state_processing@?$positional_parameter_base@_WV?$string_output_adapter@_W@__crt_stdio_output@@@__crt_stdio_output@@IEAA_NXZ 0000000180067a90 f i libucrtd:output.obj
 0001:00066ae0       ?should_skip_normal_state_processing@?$standard_base@DV?$stream_output_adapter@D@__crt_stdio_output@@@__crt_stdio_output@@IEAA_NXZ 0000000180067ae0 f i libucrtd:output.obj
 0001:00066af0       ?should_skip_normal_state_processing@?$standard_base@DV?$string_output_adapter@D@__crt_stdio_output@@@__crt_stdio_output@@IEAA_NXZ 0000000180067af0 f i libucrtd:output.obj
 0001:00066b00       ?should_skip_normal_state_processing@?$standard_base@_WV?$stream_output_adapter@_W@__crt_stdio_output@@@__crt_stdio_output@@IEAA_NXZ 0000000180067b00 f i libucrtd:output.obj
 0001:00066b10       ?should_skip_normal_state_processing@?$standard_base@_WV?$string_output_adapter@_W@__crt_stdio_output@@@__crt_stdio_output@@IEAA_NXZ 0000000180067b10 f i libucrtd:output.obj
 0001:00066b20       ?should_skip_type_state_output@?$positional_parameter_base@DV?$stream_output_adapter@D@__crt_stdio_output@@@__crt_stdio_output@@IEBA_NXZ 0000000180067b20 f i libucrtd:output.obj
 0001:00066b60       ?should_skip_type_state_output@?$positional_parameter_base@DV?$string_output_adapter@D@__crt_stdio_output@@@__crt_stdio_output@@IEBA_NXZ 0000000180067b60 f i libucrtd:output.obj
 0001:00066ba0       ?should_skip_type_state_output@?$positional_parameter_base@_WV?$stream_output_adapter@_W@__crt_stdio_output@@@__crt_stdio_output@@IEBA_NXZ 0000000180067ba0 f i libucrtd:output.obj
 0001:00066be0       ?should_skip_type_state_output@?$positional_parameter_base@_WV?$string_output_adapter@_W@__crt_stdio_output@@@__crt_stdio_output@@IEBA_NXZ 0000000180067be0 f i libucrtd:output.obj
 0001:00066c20       ?should_skip_type_state_output@?$standard_base@DV?$stream_output_adapter@D@__crt_stdio_output@@@__crt_stdio_output@@IEBA_NXZ 0000000180067c20 f i libucrtd:output.obj
 0001:00066c30       ?should_skip_type_state_output@?$standard_base@DV?$string_output_adapter@D@__crt_stdio_output@@@__crt_stdio_output@@IEBA_NXZ 0000000180067c30 f i libucrtd:output.obj
 0001:00066c40       ?should_skip_type_state_output@?$standard_base@_WV?$stream_output_adapter@_W@__crt_stdio_output@@@__crt_stdio_output@@IEBA_NXZ 0000000180067c40 f i libucrtd:output.obj
 0001:00066c50       ?should_skip_type_state_output@?$standard_base@_WV?$string_output_adapter@_W@__crt_stdio_output@@@__crt_stdio_output@@IEBA_NXZ 0000000180067c50 f i libucrtd:output.obj
 0001:00066c60       ?state_case_dot@?$output_processor@DV?$stream_output_adapter@D@__crt_stdio_output@@V?$format_validation_base@DV?$stream_output_adapter@D@__crt_stdio_output@@@2@@__crt_stdio_output@@AEAA_NXZ 0000000180067c60 f i libucrtd:output.obj
 0001:00066c80       ?state_case_dot@?$output_processor@DV?$stream_output_adapter@D@__crt_stdio_output@@V?$positional_parameter_base@DV?$stream_output_adapter@D@__crt_stdio_output@@@2@@__crt_stdio_output@@AEAA_NXZ 0000000180067c80 f i libucrtd:output.obj
 0001:00066ca0       ?state_case_dot@?$output_processor@DV?$stream_output_adapter@D@__crt_stdio_output@@V?$standard_base@DV?$stream_output_adapter@D@__crt_stdio_output@@@2@@__crt_stdio_output@@AEAA_NXZ 0000000180067ca0 f i libucrtd:output.obj
 0001:00066cc0       ?state_case_dot@?$output_processor@DV?$string_output_adapter@D@__crt_stdio_output@@V?$format_validation_base@DV?$string_output_adapter@D@__crt_stdio_output@@@2@@__crt_stdio_output@@AEAA_NXZ 0000000180067cc0 f i libucrtd:output.obj
 0001:00066ce0       ?state_case_dot@?$output_processor@DV?$string_output_adapter@D@__crt_stdio_output@@V?$positional_parameter_base@DV?$string_output_adapter@D@__crt_stdio_output@@@2@@__crt_stdio_output@@AEAA_NXZ 0000000180067ce0 f i libucrtd:output.obj
 0001:00066d00       ?state_case_dot@?$output_processor@DV?$string_output_adapter@D@__crt_stdio_output@@V?$standard_base@DV?$string_output_adapter@D@__crt_stdio_output@@@2@@__crt_stdio_output@@AEAA_NXZ 0000000180067d00 f i libucrtd:output.obj
 0001:00066d20       ?state_case_dot@?$output_processor@_WV?$stream_output_adapter@_W@__crt_stdio_output@@V?$format_validation_base@_WV?$stream_output_adapter@_W@__crt_stdio_output@@@2@@__crt_stdio_output@@AEAA_NXZ 0000000180067d20 f i libucrtd:output.obj
 0001:00066d40       ?state_case_dot@?$output_processor@_WV?$stream_output_adapter@_W@__crt_stdio_output@@V?$positional_parameter_base@_WV?$stream_output_adapter@_W@__crt_stdio_output@@@2@@__crt_stdio_output@@AEAA_NXZ 0000000180067d40 f i libucrtd:output.obj
 0001:00066d60       ?state_case_dot@?$output_processor@_WV?$stream_output_adapter@_W@__crt_stdio_output@@V?$standard_base@_WV?$stream_output_adapter@_W@__crt_stdio_output@@@2@@__crt_stdio_output@@AEAA_NXZ 0000000180067d60 f i libucrtd:output.obj
 0001:00066d80       ?state_case_dot@?$output_processor@_WV?$string_output_adapter@_W@__crt_stdio_output@@V?$format_validation_base@_WV?$string_output_adapter@_W@__crt_stdio_output@@@2@@__crt_stdio_output@@AEAA_NXZ 0000000180067d80 f i libucrtd:output.obj
 0001:00066da0       ?state_case_dot@?$output_processor@_WV?$string_output_adapter@_W@__crt_stdio_output@@V?$positional_parameter_base@_WV?$string_output_adapter@_W@__crt_stdio_output@@@2@@__crt_stdio_output@@AEAA_NXZ 0000000180067da0 f i libucrtd:output.obj
 0001:00066dc0       ?state_case_dot@?$output_processor@_WV?$string_output_adapter@_W@__crt_stdio_output@@V?$standard_base@_WV?$string_output_adapter@_W@__crt_stdio_output@@@2@@__crt_stdio_output@@AEAA_NXZ 0000000180067dc0 f i libucrtd:output.obj
 0001:00066de0       ?state_case_flag@?$output_processor@DV?$stream_output_adapter@D@__crt_stdio_output@@V?$format_validation_base@DV?$stream_output_adapter@D@__crt_stdio_output@@@2@@__crt_stdio_output@@AEAA_NXZ 0000000180067de0 f i libucrtd:output.obj
 0001:00066e80       ?state_case_flag@?$output_processor@DV?$stream_output_adapter@D@__crt_stdio_output@@V?$positional_parameter_base@DV?$stream_output_adapter@D@__crt_stdio_output@@@2@@__crt_stdio_output@@AEAA_NXZ 0000000180067e80 f i libucrtd:output.obj
 0001:00066f20       ?state_case_flag@?$output_processor@DV?$stream_output_adapter@D@__crt_stdio_output@@V?$standard_base@DV?$stream_output_adapter@D@__crt_stdio_output@@@2@@__crt_stdio_output@@AEAA_NXZ 0000000180067f20 f i libucrtd:output.obj
 0001:00066fc0       ?state_case_flag@?$output_processor@DV?$string_output_adapter@D@__crt_stdio_output@@V?$format_validation_base@DV?$string_output_adapter@D@__crt_stdio_output@@@2@@__crt_stdio_output@@AEAA_NXZ 0000000180067fc0 f i libucrtd:output.obj
 0001:00067060       ?state_case_flag@?$output_processor@DV?$string_output_adapter@D@__crt_stdio_output@@V?$positional_parameter_base@DV?$string_output_adapter@D@__crt_stdio_output@@@2@@__crt_stdio_output@@AEAA_NXZ 0000000180068060 f i libucrtd:output.obj
 0001:00067100       ?state_case_flag@?$output_processor@DV?$string_output_adapter@D@__crt_stdio_output@@V?$standard_base@DV?$string_output_adapter@D@__crt_stdio_output@@@2@@__crt_stdio_output@@AEAA_NXZ 0000000180068100 f i libucrtd:output.obj
 0001:000671a0       ?state_case_flag@?$output_processor@_WV?$stream_output_adapter@_W@__crt_stdio_output@@V?$format_validation_base@_WV?$stream_output_adapter@_W@__crt_stdio_output@@@2@@__crt_stdio_output@@AEAA_NXZ 00000001800681a0 f i libucrtd:output.obj
 0001:00067240       ?state_case_flag@?$output_processor@_WV?$stream_output_adapter@_W@__crt_stdio_output@@V?$positional_parameter_base@_WV?$stream_output_adapter@_W@__crt_stdio_output@@@2@@__crt_stdio_output@@AEAA_NXZ 0000000180068240 f i libucrtd:output.obj
 0001:000672e0       ?state_case_flag@?$output_processor@_WV?$stream_output_adapter@_W@__crt_stdio_output@@V?$standard_base@_WV?$stream_output_adapter@_W@__crt_stdio_output@@@2@@__crt_stdio_output@@AEAA_NXZ 00000001800682e0 f i libucrtd:output.obj
 0001:00067380       ?state_case_flag@?$output_processor@_WV?$string_output_adapter@_W@__crt_stdio_output@@V?$format_validation_base@_WV?$string_output_adapter@_W@__crt_stdio_output@@@2@@__crt_stdio_output@@AEAA_NXZ 0000000180068380 f i libucrtd:output.obj
 0001:00067420       ?state_case_flag@?$output_processor@_WV?$string_output_adapter@_W@__crt_stdio_output@@V?$positional_parameter_base@_WV?$string_output_adapter@_W@__crt_stdio_output@@@2@@__crt_stdio_output@@AEAA_NXZ 0000000180068420 f i libucrtd:output.obj
 0001:000674c0       ?state_case_flag@?$output_processor@_WV?$string_output_adapter@_W@__crt_stdio_output@@V?$standard_base@_WV?$string_output_adapter@_W@__crt_stdio_output@@@2@@__crt_stdio_output@@AEAA_NXZ 00000001800684c0 f i libucrtd:output.obj
 0001:00067560       ?state_case_normal@?$output_processor@DV?$stream_output_adapter@D@__crt_stdio_output@@V?$format_validation_base@DV?$stream_output_adapter@D@__crt_stdio_output@@@2@@__crt_stdio_output@@AEAA_NXZ 0000000180068560 f i libucrtd:output.obj
 0001:00067640       ?state_case_normal@?$output_processor@DV?$stream_output_adapter@D@__crt_stdio_output@@V?$positional_parameter_base@DV?$stream_output_adapter@D@__crt_stdio_output@@@2@@__crt_stdio_output@@AEAA_NXZ 0000000180068640 f i libucrtd:output.obj
 0001:00067720       ?state_case_normal@?$output_processor@DV?$stream_output_adapter@D@__crt_stdio_output@@V?$standard_base@DV?$stream_output_adapter@D@__crt_stdio_output@@@2@@__crt_stdio_output@@AEAA_NXZ 0000000180068720 f i libucrtd:output.obj
 0001:00067800       ?state_case_normal@?$output_processor@DV?$string_output_adapter@D@__crt_stdio_output@@V?$format_validation_base@DV?$string_output_adapter@D@__crt_stdio_output@@@2@@__crt_stdio_output@@AEAA_NXZ 0000000180068800 f i libucrtd:output.obj
 0001:000678e0       ?state_case_normal@?$output_processor@DV?$string_output_adapter@D@__crt_stdio_output@@V?$positional_parameter_base@DV?$string_output_adapter@D@__crt_stdio_output@@@2@@__crt_stdio_output@@AEAA_NXZ 00000001800688e0 f i libucrtd:output.obj
 0001:000679c0       ?state_case_normal@?$output_processor@DV?$string_output_adapter@D@__crt_stdio_output@@V?$standard_base@DV?$string_output_adapter@D@__crt_stdio_output@@@2@@__crt_stdio_output@@AEAA_NXZ 00000001800689c0 f i libucrtd:output.obj
 0001:00067aa0       ?state_case_normal@?$output_processor@_WV?$stream_output_adapter@_W@__crt_stdio_output@@V?$format_validation_base@_WV?$stream_output_adapter@_W@__crt_stdio_output@@@2@@__crt_stdio_output@@AEAA_NXZ 0000000180068aa0 f i libucrtd:output.obj
 0001:00067b80       ?state_case_normal@?$output_processor@_WV?$stream_output_adapter@_W@__crt_stdio_output@@V?$positional_parameter_base@_WV?$stream_output_adapter@_W@__crt_stdio_output@@@2@@__crt_stdio_output@@AEAA_NXZ 0000000180068b80 f i libucrtd:output.obj
 0001:00067c60       ?state_case_normal@?$output_processor@_WV?$stream_output_adapter@_W@__crt_stdio_output@@V?$standard_base@_WV?$stream_output_adapter@_W@__crt_stdio_output@@@2@@__crt_stdio_output@@AEAA_NXZ 0000000180068c60 f i libucrtd:output.obj
 0001:00067d40       ?state_case_normal@?$output_processor@_WV?$string_output_adapter@_W@__crt_stdio_output@@V?$format_validation_base@_WV?$string_output_adapter@_W@__crt_stdio_output@@@2@@__crt_stdio_output@@AEAA_NXZ 0000000180068d40 f i libucrtd:output.obj
 0001:00067e20       ?state_case_normal@?$output_processor@_WV?$string_output_adapter@_W@__crt_stdio_output@@V?$positional_parameter_base@_WV?$string_output_adapter@_W@__crt_stdio_output@@@2@@__crt_stdio_output@@AEAA_NXZ 0000000180068e20 f i libucrtd:output.obj
 0001:00067f00       ?state_case_normal@?$output_processor@_WV?$string_output_adapter@_W@__crt_stdio_output@@V?$standard_base@_WV?$string_output_adapter@_W@__crt_stdio_output@@@2@@__crt_stdio_output@@AEAA_NXZ 0000000180068f00 f i libucrtd:output.obj
 0001:00067fe0       ?state_case_normal_common@?$output_processor@DV?$stream_output_adapter@D@__crt_stdio_output@@V?$format_validation_base@DV?$stream_output_adapter@D@__crt_stdio_output@@@2@@__crt_stdio_output@@AEAA_NXZ 0000000180068fe0 f i libucrtd:output.obj
 0001:00068030       ?state_case_normal_common@?$output_processor@DV?$stream_output_adapter@D@__crt_stdio_output@@V?$positional_parameter_base@DV?$stream_output_adapter@D@__crt_stdio_output@@@2@@__crt_stdio_output@@AEAA_NXZ 0000000180069030 f i libucrtd:output.obj
 0001:00068080       ?state_case_normal_common@?$output_processor@DV?$stream_output_adapter@D@__crt_stdio_output@@V?$standard_base@DV?$stream_output_adapter@D@__crt_stdio_output@@@2@@__crt_stdio_output@@AEAA_NXZ 0000000180069080 f i libucrtd:output.obj
 0001:000680d0       ?state_case_normal_common@?$output_processor@DV?$string_output_adapter@D@__crt_stdio_output@@V?$format_validation_base@DV?$string_output_adapter@D@__crt_stdio_output@@@2@@__crt_stdio_output@@AEAA_NXZ 00000001800690d0 f i libucrtd:output.obj
 0001:00068120       ?state_case_normal_common@?$output_processor@DV?$string_output_adapter@D@__crt_stdio_output@@V?$positional_parameter_base@DV?$string_output_adapter@D@__crt_stdio_output@@@2@@__crt_stdio_output@@AEAA_NXZ 0000000180069120 f i libucrtd:output.obj
 0001:00068170       ?state_case_normal_common@?$output_processor@DV?$string_output_adapter@D@__crt_stdio_output@@V?$standard_base@DV?$string_output_adapter@D@__crt_stdio_output@@@2@@__crt_stdio_output@@AEAA_NXZ 0000000180069170 f i libucrtd:output.obj
 0001:000681c0       ?state_case_normal_common@?$output_processor@_WV?$stream_output_adapter@_W@__crt_stdio_output@@V?$format_validation_base@_WV?$stream_output_adapter@_W@__crt_stdio_output@@@2@@__crt_stdio_output@@AEAA_NXZ 00000001800691c0 f i libucrtd:output.obj
 0001:00068210       ?state_case_normal_common@?$output_processor@_WV?$stream_output_adapter@_W@__crt_stdio_output@@V?$positional_parameter_base@_WV?$stream_output_adapter@_W@__crt_stdio_output@@@2@@__crt_stdio_output@@AEAA_NXZ 0000000180069210 f i libucrtd:output.obj
 0001:00068260       ?state_case_normal_common@?$output_processor@_WV?$stream_output_adapter@_W@__crt_stdio_output@@V?$standard_base@_WV?$stream_output_adapter@_W@__crt_stdio_output@@@2@@__crt_stdio_output@@AEAA_NXZ 0000000180069260 f i libucrtd:output.obj
 0001:000682b0       ?state_case_normal_common@?$output_processor@_WV?$string_output_adapter@_W@__crt_stdio_output@@V?$format_validation_base@_WV?$string_output_adapter@_W@__crt_stdio_output@@@2@@__crt_stdio_output@@AEAA_NXZ 00000001800692b0 f i libucrtd:output.obj
 0001:00068300       ?state_case_normal_common@?$output_processor@_WV?$string_output_adapter@_W@__crt_stdio_output@@V?$positional_parameter_base@_WV?$string_output_adapter@_W@__crt_stdio_output@@@2@@__crt_stdio_output@@AEAA_NXZ 0000000180069300 f i libucrtd:output.obj
 0001:00068350       ?state_case_normal_common@?$output_processor@_WV?$string_output_adapter@_W@__crt_stdio_output@@V?$standard_base@_WV?$string_output_adapter@_W@__crt_stdio_output@@@2@@__crt_stdio_output@@AEAA_NXZ 0000000180069350 f i libucrtd:output.obj
 0001:000683a0       ?state_case_normal_tchar@?$output_processor@DV?$stream_output_adapter@D@__crt_stdio_output@@V?$format_validation_base@DV?$stream_output_adapter@D@__crt_stdio_output@@@2@@__crt_stdio_output@@AEAA_ND@Z 00000001800693a0 f i libucrtd:output.obj
 0001:000684e0       ?state_case_normal_tchar@?$output_processor@DV?$stream_output_adapter@D@__crt_stdio_output@@V?$positional_parameter_base@DV?$stream_output_adapter@D@__crt_stdio_output@@@2@@__crt_stdio_output@@AEAA_ND@Z 00000001800694e0 f i libucrtd:output.obj
 0001:00068620       ?state_case_normal_tchar@?$output_processor@DV?$stream_output_adapter@D@__crt_stdio_output@@V?$standard_base@DV?$stream_output_adapter@D@__crt_stdio_output@@@2@@__crt_stdio_output@@AEAA_ND@Z 0000000180069620 f i libucrtd:output.obj
 0001:00068760       ?state_case_normal_tchar@?$output_processor@DV?$string_output_adapter@D@__crt_stdio_output@@V?$format_validation_base@DV?$string_output_adapter@D@__crt_stdio_output@@@2@@__crt_stdio_output@@AEAA_ND@Z 0000000180069760 f i libucrtd:output.obj
 0001:000688a0       ?state_case_normal_tchar@?$output_processor@DV?$string_output_adapter@D@__crt_stdio_output@@V?$positional_parameter_base@DV?$string_output_adapter@D@__crt_stdio_output@@@2@@__crt_stdio_output@@AEAA_ND@Z 00000001800698a0 f i libucrtd:output.obj
 0001:000689e0       ?state_case_normal_tchar@?$output_processor@DV?$string_output_adapter@D@__crt_stdio_output@@V?$standard_base@DV?$string_output_adapter@D@__crt_stdio_output@@@2@@__crt_stdio_output@@AEAA_ND@Z 00000001800699e0 f i libucrtd:output.obj
 0001:00068b20       ?state_case_normal_tchar@?$output_processor@_WV?$stream_output_adapter@_W@__crt_stdio_output@@V?$format_validation_base@_WV?$stream_output_adapter@_W@__crt_stdio_output@@@2@@__crt_stdio_output@@AEAA_N_W@Z 0000000180069b20 f i libucrtd:output.obj
 0001:00068b40       ?state_case_normal_tchar@?$output_processor@_WV?$stream_output_adapter@_W@__crt_stdio_output@@V?$positional_parameter_base@_WV?$stream_output_adapter@_W@__crt_stdio_output@@@2@@__crt_stdio_output@@AEAA_N_W@Z 0000000180069b40 f i libucrtd:output.obj
 0001:00068b60       ?state_case_normal_tchar@?$output_processor@_WV?$stream_output_adapter@_W@__crt_stdio_output@@V?$standard_base@_WV?$stream_output_adapter@_W@__crt_stdio_output@@@2@@__crt_stdio_output@@AEAA_N_W@Z 0000000180069b60 f i libucrtd:output.obj
 0001:00068b80       ?state_case_normal_tchar@?$output_processor@_WV?$string_output_adapter@_W@__crt_stdio_output@@V?$format_validation_base@_WV?$string_output_adapter@_W@__crt_stdio_output@@@2@@__crt_stdio_output@@AEAA_N_W@Z 0000000180069b80 f i libucrtd:output.obj
 0001:00068ba0       ?state_case_normal_tchar@?$output_processor@_WV?$string_output_adapter@_W@__crt_stdio_output@@V?$positional_parameter_base@_WV?$string_output_adapter@_W@__crt_stdio_output@@@2@@__crt_stdio_output@@AEAA_N_W@Z 0000000180069ba0 f i libucrtd:output.obj
 0001:00068bc0       ?state_case_normal_tchar@?$output_processor@_WV?$string_output_adapter@_W@__crt_stdio_output@@V?$standard_base@_WV?$string_output_adapter@_W@__crt_stdio_output@@@2@@__crt_stdio_output@@AEAA_N_W@Z 0000000180069bc0 f i libucrtd:output.obj
 0001:00068be0       ?state_case_percent@?$output_processor@DV?$stream_output_adapter@D@__crt_stdio_output@@V?$format_validation_base@DV?$stream_output_adapter@D@__crt_stdio_output@@@2@@__crt_stdio_output@@AEAA_NXZ 0000000180069be0 f i libucrtd:output.obj
 0001:00068c30       ?state_case_percent@?$output_processor@DV?$stream_output_adapter@D@__crt_stdio_output@@V?$positional_parameter_base@DV?$stream_output_adapter@D@__crt_stdio_output@@@2@@__crt_stdio_output@@AEAA_NXZ 0000000180069c30 f i libucrtd:output.obj
 0001:00068c80       ?state_case_percent@?$output_processor@DV?$stream_output_adapter@D@__crt_stdio_output@@V?$standard_base@DV?$stream_output_adapter@D@__crt_stdio_output@@@2@@__crt_stdio_output@@AEAA_NXZ 0000000180069c80 f i libucrtd:output.obj
 0001:00068cd0       ?state_case_percent@?$output_processor@DV?$string_output_adapter@D@__crt_stdio_output@@V?$format_validation_base@DV?$string_output_adapter@D@__crt_stdio_output@@@2@@__crt_stdio_output@@AEAA_NXZ 0000000180069cd0 f i libucrtd:output.obj
 0001:00068d20       ?state_case_percent@?$output_processor@DV?$string_output_adapter@D@__crt_stdio_output@@V?$positional_parameter_base@DV?$string_output_adapter@D@__crt_stdio_output@@@2@@__crt_stdio_output@@AEAA_NXZ 0000000180069d20 f i libucrtd:output.obj
 0001:00068d70       ?state_case_percent@?$output_processor@DV?$string_output_adapter@D@__crt_stdio_output@@V?$standard_base@DV?$string_output_adapter@D@__crt_stdio_output@@@2@@__crt_stdio_output@@AEAA_NXZ 0000000180069d70 f i libucrtd:output.obj
 0001:00068dc0       ?state_case_percent@?$output_processor@_WV?$stream_output_adapter@_W@__crt_stdio_output@@V?$format_validation_base@_WV?$stream_output_adapter@_W@__crt_stdio_output@@@2@@__crt_stdio_output@@AEAA_NXZ 0000000180069dc0 f i libucrtd:output.obj
 0001:00068e10       ?state_case_percent@?$output_processor@_WV?$stream_output_adapter@_W@__crt_stdio_output@@V?$positional_parameter_base@_WV?$stream_output_adapter@_W@__crt_stdio_output@@@2@@__crt_stdio_output@@AEAA_NXZ 0000000180069e10 f i libucrtd:output.obj
 0001:00068e60       ?state_case_percent@?$output_processor@_WV?$stream_output_adapter@_W@__crt_stdio_output@@V?$standard_base@_WV?$stream_output_adapter@_W@__crt_stdio_output@@@2@@__crt_stdio_output@@AEAA_NXZ 0000000180069e60 f i libucrtd:output.obj
 0001:00068eb0       ?state_case_percent@?$output_processor@_WV?$string_output_adapter@_W@__crt_stdio_output@@V?$format_validation_base@_WV?$string_output_adapter@_W@__crt_stdio_output@@@2@@__crt_stdio_output@@AEAA_NXZ 0000000180069eb0 f i libucrtd:output.obj
 0001:00068f00       ?state_case_percent@?$output_processor@_WV?$string_output_adapter@_W@__crt_stdio_output@@V?$positional_parameter_base@_WV?$string_output_adapter@_W@__crt_stdio_output@@@2@@__crt_stdio_output@@AEAA_NXZ 0000000180069f00 f i libucrtd:output.obj
 0001:00068f50       ?state_case_percent@?$output_processor@_WV?$string_output_adapter@_W@__crt_stdio_output@@V?$standard_base@_WV?$string_output_adapter@_W@__crt_stdio_output@@@2@@__crt_stdio_output@@AEAA_NXZ 0000000180069f50 f i libucrtd:output.obj
 0001:00068fa0       ?state_case_precision@?$output_processor@DV?$stream_output_adapter@D@__crt_stdio_output@@V?$format_validation_base@DV?$stream_output_adapter@D@__crt_stdio_output@@@2@@__crt_stdio_output@@AEAA_NXZ 0000000180069fa0 f i libucrtd:output.obj
 0001:00069020       ?state_case_precision@?$output_processor@DV?$stream_output_adapter@D@__crt_stdio_output@@V?$positional_parameter_base@DV?$stream_output_adapter@D@__crt_stdio_output@@@2@@__crt_stdio_output@@AEAA_NXZ 000000018006a020 f i libucrtd:output.obj
 0001:000690a0       ?state_case_precision@?$output_processor@DV?$stream_output_adapter@D@__crt_stdio_output@@V?$standard_base@DV?$stream_output_adapter@D@__crt_stdio_output@@@2@@__crt_stdio_output@@AEAA_NXZ 000000018006a0a0 f i libucrtd:output.obj
 0001:00069120       ?state_case_precision@?$output_processor@DV?$string_output_adapter@D@__crt_stdio_output@@V?$format_validation_base@DV?$string_output_adapter@D@__crt_stdio_output@@@2@@__crt_stdio_output@@AEAA_NXZ 000000018006a120 f i libucrtd:output.obj
 0001:000691a0       ?state_case_precision@?$output_processor@DV?$string_output_adapter@D@__crt_stdio_output@@V?$positional_parameter_base@DV?$string_output_adapter@D@__crt_stdio_output@@@2@@__crt_stdio_output@@AEAA_NXZ 000000018006a1a0 f i libucrtd:output.obj
 0001:00069220       ?state_case_precision@?$output_processor@DV?$string_output_adapter@D@__crt_stdio_output@@V?$standard_base@DV?$string_output_adapter@D@__crt_stdio_output@@@2@@__crt_stdio_output@@AEAA_NXZ 000000018006a220 f i libucrtd:output.obj
 0001:000692a0       ?state_case_precision@?$output_processor@_WV?$stream_output_adapter@_W@__crt_stdio_output@@V?$format_validation_base@_WV?$stream_output_adapter@_W@__crt_stdio_output@@@2@@__crt_stdio_output@@AEAA_NXZ 000000018006a2a0 f i libucrtd:output.obj
 0001:00069320       ?state_case_precision@?$output_processor@_WV?$stream_output_adapter@_W@__crt_stdio_output@@V?$positional_parameter_base@_WV?$stream_output_adapter@_W@__crt_stdio_output@@@2@@__crt_stdio_output@@AEAA_NXZ 000000018006a320 f i libucrtd:output.obj
 0001:000693a0       ?state_case_precision@?$output_processor@_WV?$stream_output_adapter@_W@__crt_stdio_output@@V?$standard_base@_WV?$stream_output_adapter@_W@__crt_stdio_output@@@2@@__crt_stdio_output@@AEAA_NXZ 000000018006a3a0 f i libucrtd:output.obj
 0001:00069420       ?state_case_precision@?$output_processor@_WV?$string_output_adapter@_W@__crt_stdio_output@@V?$format_validation_base@_WV?$string_output_adapter@_W@__crt_stdio_output@@@2@@__crt_stdio_output@@AEAA_NXZ 000000018006a420 f i libucrtd:output.obj
 0001:000694a0       ?state_case_precision@?$output_processor@_WV?$string_output_adapter@_W@__crt_stdio_output@@V?$positional_parameter_base@_WV?$string_output_adapter@_W@__crt_stdio_output@@@2@@__crt_stdio_output@@AEAA_NXZ 000000018006a4a0 f i libucrtd:output.obj
 0001:00069520       ?state_case_precision@?$output_processor@_WV?$string_output_adapter@_W@__crt_stdio_output@@V?$standard_base@_WV?$string_output_adapter@_W@__crt_stdio_output@@@2@@__crt_stdio_output@@AEAA_NXZ 000000018006a520 f i libucrtd:output.obj
 0001:000695a0       ?state_case_size@?$output_processor@DV?$stream_output_adapter@D@__crt_stdio_output@@V?$format_validation_base@DV?$stream_output_adapter@D@__crt_stdio_output@@@2@@__crt_stdio_output@@AEAA_NXZ 000000018006a5a0 f i libucrtd:output.obj
 0001:00069a20       ?state_case_size@?$output_processor@DV?$stream_output_adapter@D@__crt_stdio_output@@V?$positional_parameter_base@DV?$stream_output_adapter@D@__crt_stdio_output@@@2@@__crt_stdio_output@@AEAA_NXZ 000000018006aa20 f i libucrtd:output.obj
 0001:00069ea0       ?state_case_size@?$output_processor@DV?$stream_output_adapter@D@__crt_stdio_output@@V?$standard_base@DV?$stream_output_adapter@D@__crt_stdio_output@@@2@@__crt_stdio_output@@AEAA_NXZ 000000018006aea0 f i libucrtd:output.obj
 0001:0006a320       ?state_case_size@?$output_processor@DV?$string_output_adapter@D@__crt_stdio_output@@V?$format_validation_base@DV?$string_output_adapter@D@__crt_stdio_output@@@2@@__crt_stdio_output@@AEAA_NXZ 000000018006b320 f i libucrtd:output.obj
 0001:0006a7a0       ?state_case_size@?$output_processor@DV?$string_output_adapter@D@__crt_stdio_output@@V?$positional_parameter_base@DV?$string_output_adapter@D@__crt_stdio_output@@@2@@__crt_stdio_output@@AEAA_NXZ 000000018006b7a0 f i libucrtd:output.obj
 0001:0006ac20       ?state_case_size@?$output_processor@DV?$string_output_adapter@D@__crt_stdio_output@@V?$standard_base@DV?$string_output_adapter@D@__crt_stdio_output@@@2@@__crt_stdio_output@@AEAA_NXZ 000000018006bc20 f i libucrtd:output.obj
 0001:0006b0a0       ?state_case_size@?$output_processor@_WV?$stream_output_adapter@_W@__crt_stdio_output@@V?$format_validation_base@_WV?$stream_output_adapter@_W@__crt_stdio_output@@@2@@__crt_stdio_output@@AEAA_NXZ 000000018006c0a0 f i libucrtd:output.obj
 0001:0006b520       ?state_case_size@?$output_processor@_WV?$stream_output_adapter@_W@__crt_stdio_output@@V?$positional_parameter_base@_WV?$stream_output_adapter@_W@__crt_stdio_output@@@2@@__crt_stdio_output@@AEAA_NXZ 000000018006c520 f i libucrtd:output.obj
 0001:0006b9a0       ?state_case_size@?$output_processor@_WV?$stream_output_adapter@_W@__crt_stdio_output@@V?$standard_base@_WV?$stream_output_adapter@_W@__crt_stdio_output@@@2@@__crt_stdio_output@@AEAA_NXZ 000000018006c9a0 f i libucrtd:output.obj
 0001:0006be20       ?state_case_size@?$output_processor@_WV?$string_output_adapter@_W@__crt_stdio_output@@V?$format_validation_base@_WV?$string_output_adapter@_W@__crt_stdio_output@@@2@@__crt_stdio_output@@AEAA_NXZ 000000018006ce20 f i libucrtd:output.obj
 0001:0006c2a0       ?state_case_size@?$output_processor@_WV?$string_output_adapter@_W@__crt_stdio_output@@V?$positional_parameter_base@_WV?$string_output_adapter@_W@__crt_stdio_output@@@2@@__crt_stdio_output@@AEAA_NXZ 000000018006d2a0 f i libucrtd:output.obj
 0001:0006c720       ?state_case_size@?$output_processor@_WV?$string_output_adapter@_W@__crt_stdio_output@@V?$standard_base@_WV?$string_output_adapter@_W@__crt_stdio_output@@@2@@__crt_stdio_output@@AEAA_NXZ 000000018006d720 f i libucrtd:output.obj
 0001:0006cba0       ?state_case_type@?$output_processor@DV?$stream_output_adapter@D@__crt_stdio_output@@V?$format_validation_base@DV?$stream_output_adapter@D@__crt_stdio_output@@@2@@__crt_stdio_output@@AEAA_NXZ 000000018006dba0 f i libucrtd:output.obj
 0001:0006d040       ?state_case_type@?$output_processor@DV?$stream_output_adapter@D@__crt_stdio_output@@V?$positional_parameter_base@DV?$stream_output_adapter@D@__crt_stdio_output@@@2@@__crt_stdio_output@@AEAA_NXZ 000000018006e040 f i libucrtd:output.obj
 0001:0006d4e0       ?state_case_type@?$output_processor@DV?$stream_output_adapter@D@__crt_stdio_output@@V?$standard_base@DV?$stream_output_adapter@D@__crt_stdio_output@@@2@@__crt_stdio_output@@AEAA_NXZ 000000018006e4e0 f i libucrtd:output.obj
 0001:0006d980       ?state_case_type@?$output_processor@DV?$string_output_adapter@D@__crt_stdio_output@@V?$format_validation_base@DV?$string_output_adapter@D@__crt_stdio_output@@@2@@__crt_stdio_output@@AEAA_NXZ 000000018006e980 f i libucrtd:output.obj
 0001:0006de20       ?state_case_type@?$output_processor@DV?$string_output_adapter@D@__crt_stdio_output@@V?$positional_parameter_base@DV?$string_output_adapter@D@__crt_stdio_output@@@2@@__crt_stdio_output@@AEAA_NXZ 000000018006ee20 f i libucrtd:output.obj
 0001:0006e2c0       ?state_case_type@?$output_processor@DV?$string_output_adapter@D@__crt_stdio_output@@V?$standard_base@DV?$string_output_adapter@D@__crt_stdio_output@@@2@@__crt_stdio_output@@AEAA_NXZ 000000018006f2c0 f i libucrtd:output.obj
 0001:0006e760       ?state_case_type@?$output_processor@_WV?$stream_output_adapter@_W@__crt_stdio_output@@V?$format_validation_base@_WV?$stream_output_adapter@_W@__crt_stdio_output@@@2@@__crt_stdio_output@@AEAA_NXZ 000000018006f760 f i libucrtd:output.obj
 0001:0006ecc0       ?state_case_type@?$output_processor@_WV?$stream_output_adapter@_W@__crt_stdio_output@@V?$positional_parameter_base@_WV?$stream_output_adapter@_W@__crt_stdio_output@@@2@@__crt_stdio_output@@AEAA_NXZ 000000018006fcc0 f i libucrtd:output.obj
 0001:0006f220       ?state_case_type@?$output_processor@_WV?$stream_output_adapter@_W@__crt_stdio_output@@V?$standard_base@_WV?$stream_output_adapter@_W@__crt_stdio_output@@@2@@__crt_stdio_output@@AEAA_NXZ 0000000180070220 f i libucrtd:output.obj
 0001:0006f780       ?state_case_type@?$output_processor@_WV?$string_output_adapter@_W@__crt_stdio_output@@V?$format_validation_base@_WV?$string_output_adapter@_W@__crt_stdio_output@@@2@@__crt_stdio_output@@AEAA_NXZ 0000000180070780 f i libucrtd:output.obj
 0001:0006fce0       ?state_case_type@?$output_processor@_WV?$string_output_adapter@_W@__crt_stdio_output@@V?$positional_parameter_base@_WV?$string_output_adapter@_W@__crt_stdio_output@@@2@@__crt_stdio_output@@AEAA_NXZ 0000000180070ce0 f i libucrtd:output.obj
 0001:00070240       ?state_case_type@?$output_processor@_WV?$string_output_adapter@_W@__crt_stdio_output@@V?$standard_base@_WV?$string_output_adapter@_W@__crt_stdio_output@@@2@@__crt_stdio_output@@AEAA_NXZ 0000000180071240 f i libucrtd:output.obj
 0001:000707a0       ?state_case_width@?$output_processor@DV?$stream_output_adapter@D@__crt_stdio_output@@V?$format_validation_base@DV?$stream_output_adapter@D@__crt_stdio_output@@@2@@__crt_stdio_output@@AEAA_NXZ 00000001800717a0 f i libucrtd:output.obj
 0001:00070830       ?state_case_width@?$output_processor@DV?$stream_output_adapter@D@__crt_stdio_output@@V?$positional_parameter_base@DV?$stream_output_adapter@D@__crt_stdio_output@@@2@@__crt_stdio_output@@AEAA_NXZ 0000000180071830 f i libucrtd:output.obj
 0001:000708c0       ?state_case_width@?$output_processor@DV?$stream_output_adapter@D@__crt_stdio_output@@V?$standard_base@DV?$stream_output_adapter@D@__crt_stdio_output@@@2@@__crt_stdio_output@@AEAA_NXZ 00000001800718c0 f i libucrtd:output.obj
 0001:00070950       ?state_case_width@?$output_processor@DV?$string_output_adapter@D@__crt_stdio_output@@V?$format_validation_base@DV?$string_output_adapter@D@__crt_stdio_output@@@2@@__crt_stdio_output@@AEAA_NXZ 0000000180071950 f i libucrtd:output.obj
 0001:000709e0       ?state_case_width@?$output_processor@DV?$string_output_adapter@D@__crt_stdio_output@@V?$positional_parameter_base@DV?$string_output_adapter@D@__crt_stdio_output@@@2@@__crt_stdio_output@@AEAA_NXZ 00000001800719e0 f i libucrtd:output.obj
 0001:00070a70       ?state_case_width@?$output_processor@DV?$string_output_adapter@D@__crt_stdio_output@@V?$standard_base@DV?$string_output_adapter@D@__crt_stdio_output@@@2@@__crt_stdio_output@@AEAA_NXZ 0000000180071a70 f i libucrtd:output.obj
 0001:00070b00       ?state_case_width@?$output_processor@_WV?$stream_output_adapter@_W@__crt_stdio_output@@V?$format_validation_base@_WV?$stream_output_adapter@_W@__crt_stdio_output@@@2@@__crt_stdio_output@@AEAA_NXZ 0000000180071b00 f i libucrtd:output.obj
 0001:00070b90       ?state_case_width@?$output_processor@_WV?$stream_output_adapter@_W@__crt_stdio_output@@V?$positional_parameter_base@_WV?$stream_output_adapter@_W@__crt_stdio_output@@@2@@__crt_stdio_output@@AEAA_NXZ 0000000180071b90 f i libucrtd:output.obj
 0001:00070c20       ?state_case_width@?$output_processor@_WV?$stream_output_adapter@_W@__crt_stdio_output@@V?$standard_base@_WV?$stream_output_adapter@_W@__crt_stdio_output@@@2@@__crt_stdio_output@@AEAA_NXZ 0000000180071c20 f i libucrtd:output.obj
 0001:00070cb0       ?state_case_width@?$output_processor@_WV?$string_output_adapter@_W@__crt_stdio_output@@V?$format_validation_base@_WV?$string_output_adapter@_W@__crt_stdio_output@@@2@@__crt_stdio_output@@AEAA_NXZ 0000000180071cb0 f i libucrtd:output.obj
 0001:00070d40       ?state_case_width@?$output_processor@_WV?$string_output_adapter@_W@__crt_stdio_output@@V?$positional_parameter_base@_WV?$string_output_adapter@_W@__crt_stdio_output@@@2@@__crt_stdio_output@@AEAA_NXZ 0000000180071d40 f i libucrtd:output.obj
 0001:00070dd0       ?state_case_width@?$output_processor@_WV?$string_output_adapter@_W@__crt_stdio_output@@V?$standard_base@_WV?$string_output_adapter@_W@__crt_stdio_output@@@2@@__crt_stdio_output@@AEAA_NXZ 0000000180071dd0 f i libucrtd:output.obj
 0001:00070e60       ?state_count@?$format_validation_base@DV?$stream_output_adapter@D@__crt_stdio_output@@@__crt_stdio_output@@KAIXZ 0000000180071e60 f i libucrtd:output.obj
 0001:00070e70       ?state_count@?$format_validation_base@DV?$string_output_adapter@D@__crt_stdio_output@@@__crt_stdio_output@@KAIXZ 0000000180071e70 f i libucrtd:output.obj
 0001:00070e80       ?state_count@?$format_validation_base@_WV?$stream_output_adapter@_W@__crt_stdio_output@@@__crt_stdio_output@@KAIXZ 0000000180071e80 f i libucrtd:output.obj
 0001:00070e90       ?state_count@?$format_validation_base@_WV?$string_output_adapter@_W@__crt_stdio_output@@@__crt_stdio_output@@KAIXZ 0000000180071e90 f i libucrtd:output.obj
 0001:00070ea0       ?state_count@?$standard_base@DV?$stream_output_adapter@D@__crt_stdio_output@@@__crt_stdio_output@@KAIXZ 0000000180071ea0 f i libucrtd:output.obj
 0001:00070eb0       ?state_count@?$standard_base@DV?$string_output_adapter@D@__crt_stdio_output@@@__crt_stdio_output@@KAIXZ 0000000180071eb0 f i libucrtd:output.obj
 0001:00070ec0       ?state_count@?$standard_base@_WV?$stream_output_adapter@_W@__crt_stdio_output@@@__crt_stdio_output@@KAIXZ 0000000180071ec0 f i libucrtd:output.obj
 0001:00070ed0       ?state_count@?$standard_base@_WV?$string_output_adapter@_W@__crt_stdio_output@@@__crt_stdio_output@@KAIXZ 0000000180071ed0 f i libucrtd:output.obj
 0001:00070ee0       ?state_transition_table@?$format_validation_base@DV?$stream_output_adapter@D@__crt_stdio_output@@@__crt_stdio_output@@KAPEBEXZ 0000000180071ee0 f i libucrtd:output.obj
 0001:00070ef0       ?state_transition_table@?$format_validation_base@DV?$string_output_adapter@D@__crt_stdio_output@@@__crt_stdio_output@@KAPEBEXZ 0000000180071ef0 f i libucrtd:output.obj
 0001:00070f00       ?state_transition_table@?$format_validation_base@_WV?$stream_output_adapter@_W@__crt_stdio_output@@@__crt_stdio_output@@KAPEBEXZ 0000000180071f00 f i libucrtd:output.obj
 0001:00070f10       ?state_transition_table@?$format_validation_base@_WV?$string_output_adapter@_W@__crt_stdio_output@@@__crt_stdio_output@@KAPEBEXZ 0000000180071f10 f i libucrtd:output.obj
 0001:00070f20       ?state_transition_table@?$standard_base@DV?$stream_output_adapter@D@__crt_stdio_output@@@__crt_stdio_output@@KAPEBEXZ 0000000180071f20 f i libucrtd:output.obj
 0001:00070f30       ?state_transition_table@?$standard_base@DV?$string_output_adapter@D@__crt_stdio_output@@@__crt_stdio_output@@KAPEBEXZ 0000000180071f30 f i libucrtd:output.obj
 0001:00070f40       ?state_transition_table@?$standard_base@_WV?$stream_output_adapter@_W@__crt_stdio_output@@@__crt_stdio_output@@KAPEBEXZ 0000000180071f40 f i libucrtd:output.obj
 0001:00070f50       ?state_transition_table@?$standard_base@_WV?$string_output_adapter@_W@__crt_stdio_output@@@__crt_stdio_output@@KAPEBEXZ 0000000180071f50 f i libucrtd:output.obj
 0001:00070f60       ?tchar_string@?$common_data@D@__crt_stdio_output@@IEAAAEAPEADD@Z 0000000180071f60 f i libucrtd:output.obj
 0001:00070f80       ?tchar_string@?$common_data@D@__crt_stdio_output@@IEAAAEAPEADXZ 0000000180071f80 f i libucrtd:output.obj
 0001:00070fa0       ?tchar_string@?$common_data@_W@__crt_stdio_output@@IEAAAEAPEA_WXZ 0000000180071fa0 f i libucrtd:output.obj
 0001:00070fc0       ?tchar_string@?$common_data@_W@__crt_stdio_output@@IEAAAEAPEA_W_W@Z 0000000180071fc0 f i libucrtd:output.obj
 0001:00070fe0       ?to_integer_size@__crt_stdio_output@@YA_KW4length_modifier@1@@Z 0000000180071fe0 f i libucrtd:output.obj
 0001:00071090       ?type_case_X@?$output_processor@DV?$stream_output_adapter@D@__crt_stdio_output@@V?$format_validation_base@DV?$stream_output_adapter@D@__crt_stdio_output@@@2@@__crt_stdio_output@@AEAA_NXZ 0000000180072090 f i libucrtd:output.obj
 0001:000710b0       ?type_case_X@?$output_processor@DV?$stream_output_adapter@D@__crt_stdio_output@@V?$positional_parameter_base@DV?$stream_output_adapter@D@__crt_stdio_output@@@2@@__crt_stdio_output@@AEAA_NXZ 00000001800720b0 f i libucrtd:output.obj
 0001:000710d0       ?type_case_X@?$output_processor@DV?$stream_output_adapter@D@__crt_stdio_output@@V?$standard_base@DV?$stream_output_adapter@D@__crt_stdio_output@@@2@@__crt_stdio_output@@AEAA_NXZ 00000001800720d0 f i libucrtd:output.obj
 0001:000710f0       ?type_case_X@?$output_processor@DV?$string_output_adapter@D@__crt_stdio_output@@V?$format_validation_base@DV?$string_output_adapter@D@__crt_stdio_output@@@2@@__crt_stdio_output@@AEAA_NXZ 00000001800720f0 f i libucrtd:output.obj
 0001:00071110       ?type_case_X@?$output_processor@DV?$string_output_adapter@D@__crt_stdio_output@@V?$positional_parameter_base@DV?$string_output_adapter@D@__crt_stdio_output@@@2@@__crt_stdio_output@@AEAA_NXZ 0000000180072110 f i libucrtd:output.obj
 0001:00071130       ?type_case_X@?$output_processor@DV?$string_output_adapter@D@__crt_stdio_output@@V?$standard_base@DV?$string_output_adapter@D@__crt_stdio_output@@@2@@__crt_stdio_output@@AEAA_NXZ 0000000180072130 f i libucrtd:output.obj
 0001:00071150       ?type_case_X@?$output_processor@_WV?$stream_output_adapter@_W@__crt_stdio_output@@V?$format_validation_base@_WV?$stream_output_adapter@_W@__crt_stdio_output@@@2@@__crt_stdio_output@@AEAA_NXZ 0000000180072150 f i libucrtd:output.obj
 0001:00071170       ?type_case_X@?$output_processor@_WV?$stream_output_adapter@_W@__crt_stdio_output@@V?$positional_parameter_base@_WV?$stream_output_adapter@_W@__crt_stdio_output@@@2@@__crt_stdio_output@@AEAA_NXZ 0000000180072170 f i libucrtd:output.obj
 0001:00071190       ?type_case_X@?$output_processor@_WV?$stream_output_adapter@_W@__crt_stdio_output@@V?$standard_base@_WV?$stream_output_adapter@_W@__crt_stdio_output@@@2@@__crt_stdio_output@@AEAA_NXZ 0000000180072190 f i libucrtd:output.obj
 0001:000711b0       ?type_case_X@?$output_processor@_WV?$string_output_adapter@_W@__crt_stdio_output@@V?$format_validation_base@_WV?$string_output_adapter@_W@__crt_stdio_output@@@2@@__crt_stdio_output@@AEAA_NXZ 00000001800721b0 f i libucrtd:output.obj
 0001:000711d0       ?type_case_X@?$output_processor@_WV?$string_output_adapter@_W@__crt_stdio_output@@V?$positional_parameter_base@_WV?$string_output_adapter@_W@__crt_stdio_output@@@2@@__crt_stdio_output@@AEAA_NXZ 00000001800721d0 f i libucrtd:output.obj
 0001:000711f0       ?type_case_X@?$output_processor@_WV?$string_output_adapter@_W@__crt_stdio_output@@V?$standard_base@_WV?$string_output_adapter@_W@__crt_stdio_output@@@2@@__crt_stdio_output@@AEAA_NXZ 00000001800721f0 f i libucrtd:output.obj
 0001:00071210       ?type_case_Z@?$output_processor@DV?$stream_output_adapter@D@__crt_stdio_output@@V?$format_validation_base@DV?$stream_output_adapter@D@__crt_stdio_output@@@2@@__crt_stdio_output@@AEAA_NXZ 0000000180072210 f i libucrtd:output.obj
 0001:00071330       ?type_case_Z@?$output_processor@DV?$stream_output_adapter@D@__crt_stdio_output@@V?$positional_parameter_base@DV?$stream_output_adapter@D@__crt_stdio_output@@@2@@__crt_stdio_output@@AEAA_NXZ 0000000180072330 f i libucrtd:output.obj
 0001:00071450       ?type_case_Z@?$output_processor@DV?$stream_output_adapter@D@__crt_stdio_output@@V?$standard_base@DV?$stream_output_adapter@D@__crt_stdio_output@@@2@@__crt_stdio_output@@AEAA_NXZ 0000000180072450 f i libucrtd:output.obj
 0001:00071570       ?type_case_Z@?$output_processor@DV?$string_output_adapter@D@__crt_stdio_output@@V?$format_validation_base@DV?$string_output_adapter@D@__crt_stdio_output@@@2@@__crt_stdio_output@@AEAA_NXZ 0000000180072570 f i libucrtd:output.obj
 0001:00071690       ?type_case_Z@?$output_processor@DV?$string_output_adapter@D@__crt_stdio_output@@V?$positional_parameter_base@DV?$string_output_adapter@D@__crt_stdio_output@@@2@@__crt_stdio_output@@AEAA_NXZ 0000000180072690 f i libucrtd:output.obj
 0001:000717b0       ?type_case_Z@?$output_processor@DV?$string_output_adapter@D@__crt_stdio_output@@V?$standard_base@DV?$string_output_adapter@D@__crt_stdio_output@@@2@@__crt_stdio_output@@AEAA_NXZ 00000001800727b0 f i libucrtd:output.obj
 0001:000718d0       ?type_case_Z@?$output_processor@_WV?$stream_output_adapter@_W@__crt_stdio_output@@V?$format_validation_base@_WV?$stream_output_adapter@_W@__crt_stdio_output@@@2@@__crt_stdio_output@@AEAA_NXZ 00000001800728d0 f i libucrtd:output.obj
 0001:000719f0       ?type_case_Z@?$output_processor@_WV?$stream_output_adapter@_W@__crt_stdio_output@@V?$positional_parameter_base@_WV?$stream_output_adapter@_W@__crt_stdio_output@@@2@@__crt_stdio_output@@AEAA_NXZ 00000001800729f0 f i libucrtd:output.obj
 0001:00071b10       ?type_case_Z@?$output_processor@_WV?$stream_output_adapter@_W@__crt_stdio_output@@V?$standard_base@_WV?$stream_output_adapter@_W@__crt_stdio_output@@@2@@__crt_stdio_output@@AEAA_NXZ 0000000180072b10 f i libucrtd:output.obj
 0001:00071c30       ?type_case_Z@?$output_processor@_WV?$string_output_adapter@_W@__crt_stdio_output@@V?$format_validation_base@_WV?$string_output_adapter@_W@__crt_stdio_output@@@2@@__crt_stdio_output@@AEAA_NXZ 0000000180072c30 f i libucrtd:output.obj
 0001:00071d50       ?type_case_Z@?$output_processor@_WV?$string_output_adapter@_W@__crt_stdio_output@@V?$positional_parameter_base@_WV?$string_output_adapter@_W@__crt_stdio_output@@@2@@__crt_stdio_output@@AEAA_NXZ 0000000180072d50 f i libucrtd:output.obj
 0001:00071e70       ?type_case_Z@?$output_processor@_WV?$string_output_adapter@_W@__crt_stdio_output@@V?$standard_base@_WV?$string_output_adapter@_W@__crt_stdio_output@@@2@@__crt_stdio_output@@AEAA_NXZ 0000000180072e70 f i libucrtd:output.obj
 0001:00071f90       ?type_case_a@?$output_processor@DV?$stream_output_adapter@D@__crt_stdio_output@@V?$format_validation_base@DV?$stream_output_adapter@D@__crt_stdio_output@@@2@@__crt_stdio_output@@AEAA_NXZ 0000000180072f90 f i libucrtd:output.obj
 0001:00072350       ?type_case_a@?$output_processor@DV?$stream_output_adapter@D@__crt_stdio_output@@V?$positional_parameter_base@DV?$stream_output_adapter@D@__crt_stdio_output@@@2@@__crt_stdio_output@@AEAA_NXZ 0000000180073350 f i libucrtd:output.obj
 0001:00072710       ?type_case_a@?$output_processor@DV?$stream_output_adapter@D@__crt_stdio_output@@V?$standard_base@DV?$stream_output_adapter@D@__crt_stdio_output@@@2@@__crt_stdio_output@@AEAA_NXZ 0000000180073710 f i libucrtd:output.obj
 0001:00072ad0       ?type_case_a@?$output_processor@DV?$string_output_adapter@D@__crt_stdio_output@@V?$format_validation_base@DV?$string_output_adapter@D@__crt_stdio_output@@@2@@__crt_stdio_output@@AEAA_NXZ 0000000180073ad0 f i libucrtd:output.obj
 0001:00072e90       ?type_case_a@?$output_processor@DV?$string_output_adapter@D@__crt_stdio_output@@V?$positional_parameter_base@DV?$string_output_adapter@D@__crt_stdio_output@@@2@@__crt_stdio_output@@AEAA_NXZ 0000000180073e90 f i libucrtd:output.obj
 0001:00073250       ?type_case_a@?$output_processor@DV?$string_output_adapter@D@__crt_stdio_output@@V?$standard_base@DV?$string_output_adapter@D@__crt_stdio_output@@@2@@__crt_stdio_output@@AEAA_NXZ 0000000180074250 f i libucrtd:output.obj
 0001:00073610       ?type_case_a@?$output_processor@_WV?$stream_output_adapter@_W@__crt_stdio_output@@V?$format_validation_base@_WV?$stream_output_adapter@_W@__crt_stdio_output@@@2@@__crt_stdio_output@@AEAA_NXZ 0000000180074610 f i libucrtd:output.obj
 0001:000739e0       ?type_case_a@?$output_processor@_WV?$stream_output_adapter@_W@__crt_stdio_output@@V?$positional_parameter_base@_WV?$stream_output_adapter@_W@__crt_stdio_output@@@2@@__crt_stdio_output@@AEAA_NXZ 00000001800749e0 f i libucrtd:output.obj
 0001:00073db0       ?type_case_a@?$output_processor@_WV?$stream_output_adapter@_W@__crt_stdio_output@@V?$standard_base@_WV?$stream_output_adapter@_W@__crt_stdio_output@@@2@@__crt_stdio_output@@AEAA_NXZ 0000000180074db0 f i libucrtd:output.obj
 0001:00074180       ?type_case_a@?$output_processor@_WV?$string_output_adapter@_W@__crt_stdio_output@@V?$format_validation_base@_WV?$string_output_adapter@_W@__crt_stdio_output@@@2@@__crt_stdio_output@@AEAA_NXZ 0000000180075180 f i libucrtd:output.obj
 0001:00074550       ?type_case_a@?$output_processor@_WV?$string_output_adapter@_W@__crt_stdio_output@@V?$positional_parameter_base@_WV?$string_output_adapter@_W@__crt_stdio_output@@@2@@__crt_stdio_output@@AEAA_NXZ 0000000180075550 f i libucrtd:output.obj
 0001:00074920       ?type_case_a@?$output_processor@_WV?$string_output_adapter@_W@__crt_stdio_output@@V?$standard_base@_WV?$string_output_adapter@_W@__crt_stdio_output@@@2@@__crt_stdio_output@@AEAA_NXZ 0000000180075920 f i libucrtd:output.obj
 0001:00074cf0       ?type_case_c@?$output_processor@DV?$stream_output_adapter@D@__crt_stdio_output@@V?$format_validation_base@DV?$stream_output_adapter@D@__crt_stdio_output@@@2@@__crt_stdio_output@@AEAA_NXZ 0000000180075cf0 f i libucrtd:output.obj
 0001:00074d10       ?type_case_c@?$output_processor@DV?$stream_output_adapter@D@__crt_stdio_output@@V?$positional_parameter_base@DV?$stream_output_adapter@D@__crt_stdio_output@@@2@@__crt_stdio_output@@AEAA_NXZ 0000000180075d10 f i libucrtd:output.obj
 0001:00074d30       ?type_case_c@?$output_processor@DV?$stream_output_adapter@D@__crt_stdio_output@@V?$standard_base@DV?$stream_output_adapter@D@__crt_stdio_output@@@2@@__crt_stdio_output@@AEAA_NXZ 0000000180075d30 f i libucrtd:output.obj
 0001:00074d50       ?type_case_c@?$output_processor@DV?$string_output_adapter@D@__crt_stdio_output@@V?$format_validation_base@DV?$string_output_adapter@D@__crt_stdio_output@@@2@@__crt_stdio_output@@AEAA_NXZ 0000000180075d50 f i libucrtd:output.obj
 0001:00074d70       ?type_case_c@?$output_processor@DV?$string_output_adapter@D@__crt_stdio_output@@V?$positional_parameter_base@DV?$string_output_adapter@D@__crt_stdio_output@@@2@@__crt_stdio_output@@AEAA_NXZ 0000000180075d70 f i libucrtd:output.obj
 0001:00074d90       ?type_case_c@?$output_processor@DV?$string_output_adapter@D@__crt_stdio_output@@V?$standard_base@DV?$string_output_adapter@D@__crt_stdio_output@@@2@@__crt_stdio_output@@AEAA_NXZ 0000000180075d90 f i libucrtd:output.obj
 0001:00074db0       ?type_case_c@?$output_processor@_WV?$stream_output_adapter@_W@__crt_stdio_output@@V?$format_validation_base@_WV?$stream_output_adapter@_W@__crt_stdio_output@@@2@@__crt_stdio_output@@AEAA_NXZ 0000000180075db0 f i libucrtd:output.obj
 0001:00074dd0       ?type_case_c@?$output_processor@_WV?$stream_output_adapter@_W@__crt_stdio_output@@V?$positional_parameter_base@_WV?$stream_output_adapter@_W@__crt_stdio_output@@@2@@__crt_stdio_output@@AEAA_NXZ 0000000180075dd0 f i libucrtd:output.obj
 0001:00074df0       ?type_case_c@?$output_processor@_WV?$stream_output_adapter@_W@__crt_stdio_output@@V?$standard_base@_WV?$stream_output_adapter@_W@__crt_stdio_output@@@2@@__crt_stdio_output@@AEAA_NXZ 0000000180075df0 f i libucrtd:output.obj
 0001:00074e10       ?type_case_c@?$output_processor@_WV?$string_output_adapter@_W@__crt_stdio_output@@V?$format_validation_base@_WV?$string_output_adapter@_W@__crt_stdio_output@@@2@@__crt_stdio_output@@AEAA_NXZ 0000000180075e10 f i libucrtd:output.obj
 0001:00074e30       ?type_case_c@?$output_processor@_WV?$string_output_adapter@_W@__crt_stdio_output@@V?$positional_parameter_base@_WV?$string_output_adapter@_W@__crt_stdio_output@@@2@@__crt_stdio_output@@AEAA_NXZ 0000000180075e30 f i libucrtd:output.obj
 0001:00074e50       ?type_case_c@?$output_processor@_WV?$string_output_adapter@_W@__crt_stdio_output@@V?$standard_base@_WV?$string_output_adapter@_W@__crt_stdio_output@@@2@@__crt_stdio_output@@AEAA_NXZ 0000000180075e50 f i libucrtd:output.obj
 0001:00074e70       ?type_case_c_tchar@?$output_processor@DV?$stream_output_adapter@D@__crt_stdio_output@@V?$format_validation_base@DV?$stream_output_adapter@D@__crt_stdio_output@@@2@@__crt_stdio_output@@AEAA_ND@Z 0000000180075e70 f i libucrtd:output.obj
 0001:00074fc0       ?type_case_c_tchar@?$output_processor@DV?$stream_output_adapter@D@__crt_stdio_output@@V?$positional_parameter_base@DV?$stream_output_adapter@D@__crt_stdio_output@@@2@@__crt_stdio_output@@AEAA_ND@Z 0000000180075fc0 f i libucrtd:output.obj
 0001:00075110       ?type_case_c_tchar@?$output_processor@DV?$stream_output_adapter@D@__crt_stdio_output@@V?$standard_base@DV?$stream_output_adapter@D@__crt_stdio_output@@@2@@__crt_stdio_output@@AEAA_ND@Z 0000000180076110 f i libucrtd:output.obj
 0001:00075260       ?type_case_c_tchar@?$output_processor@DV?$string_output_adapter@D@__crt_stdio_output@@V?$format_validation_base@DV?$string_output_adapter@D@__crt_stdio_output@@@2@@__crt_stdio_output@@AEAA_ND@Z 0000000180076260 f i libucrtd:output.obj
 0001:000753b0       ?type_case_c_tchar@?$output_processor@DV?$string_output_adapter@D@__crt_stdio_output@@V?$positional_parameter_base@DV?$string_output_adapter@D@__crt_stdio_output@@@2@@__crt_stdio_output@@AEAA_ND@Z 00000001800763b0 f i libucrtd:output.obj
 0001:00075500       ?type_case_c_tchar@?$output_processor@DV?$string_output_adapter@D@__crt_stdio_output@@V?$standard_base@DV?$string_output_adapter@D@__crt_stdio_output@@@2@@__crt_stdio_output@@AEAA_ND@Z 0000000180076500 f i libucrtd:output.obj
 0001:00075650       ?type_case_c_tchar@?$output_processor@_WV?$stream_output_adapter@_W@__crt_stdio_output@@V?$format_validation_base@_WV?$stream_output_adapter@_W@__crt_stdio_output@@@2@@__crt_stdio_output@@AEAA_N_W@Z 0000000180076650 f i libucrtd:output.obj
 0001:00075780       ?type_case_c_tchar@?$output_processor@_WV?$stream_output_adapter@_W@__crt_stdio_output@@V?$positional_parameter_base@_WV?$stream_output_adapter@_W@__crt_stdio_output@@@2@@__crt_stdio_output@@AEAA_N_W@Z 0000000180076780 f i libucrtd:output.obj
 0001:000758b0       ?type_case_c_tchar@?$output_processor@_WV?$stream_output_adapter@_W@__crt_stdio_output@@V?$standard_base@_WV?$stream_output_adapter@_W@__crt_stdio_output@@@2@@__crt_stdio_output@@AEAA_N_W@Z 00000001800768b0 f i libucrtd:output.obj
 0001:000759e0       ?type_case_c_tchar@?$output_processor@_WV?$string_output_adapter@_W@__crt_stdio_output@@V?$format_validation_base@_WV?$string_output_adapter@_W@__crt_stdio_output@@@2@@__crt_stdio_output@@AEAA_N_W@Z 00000001800769e0 f i libucrtd:output.obj
 0001:00075b10       ?type_case_c_tchar@?$output_processor@_WV?$string_output_adapter@_W@__crt_stdio_output@@V?$positional_parameter_base@_WV?$string_output_adapter@_W@__crt_stdio_output@@@2@@__crt_stdio_output@@AEAA_N_W@Z 0000000180076b10 f i libucrtd:output.obj
 0001:00075c40       ?type_case_c_tchar@?$output_processor@_WV?$string_output_adapter@_W@__crt_stdio_output@@V?$standard_base@_WV?$string_output_adapter@_W@__crt_stdio_output@@@2@@__crt_stdio_output@@AEAA_N_W@Z 0000000180076c40 f i libucrtd:output.obj
 0001:00075d70       ?type_case_d@?$output_processor@DV?$stream_output_adapter@D@__crt_stdio_output@@V?$format_validation_base@DV?$stream_output_adapter@D@__crt_stdio_output@@@2@@__crt_stdio_output@@AEAA_NXZ 0000000180076d70 f i libucrtd:output.obj
 0001:00075da0       ?type_case_d@?$output_processor@DV?$stream_output_adapter@D@__crt_stdio_output@@V?$positional_parameter_base@DV?$stream_output_adapter@D@__crt_stdio_output@@@2@@__crt_stdio_output@@AEAA_NXZ 0000000180076da0 f i libucrtd:output.obj
 0001:00075dd0       ?type_case_d@?$output_processor@DV?$stream_output_adapter@D@__crt_stdio_output@@V?$standard_base@DV?$stream_output_adapter@D@__crt_stdio_output@@@2@@__crt_stdio_output@@AEAA_NXZ 0000000180076dd0 f i libucrtd:output.obj
 0001:00075e00       ?type_case_d@?$output_processor@DV?$string_output_adapter@D@__crt_stdio_output@@V?$format_validation_base@DV?$string_output_adapter@D@__crt_stdio_output@@@2@@__crt_stdio_output@@AEAA_NXZ 0000000180076e00 f i libucrtd:output.obj
 0001:00075e30       ?type_case_d@?$output_processor@DV?$string_output_adapter@D@__crt_stdio_output@@V?$positional_parameter_base@DV?$string_output_adapter@D@__crt_stdio_output@@@2@@__crt_stdio_output@@AEAA_NXZ 0000000180076e30 f i libucrtd:output.obj
 0001:00075e60       ?type_case_d@?$output_processor@DV?$string_output_adapter@D@__crt_stdio_output@@V?$standard_base@DV?$string_output_adapter@D@__crt_stdio_output@@@2@@__crt_stdio_output@@AEAA_NXZ 0000000180076e60 f i libucrtd:output.obj
 0001:00075e90       ?type_case_d@?$output_processor@_WV?$stream_output_adapter@_W@__crt_stdio_output@@V?$format_validation_base@_WV?$stream_output_adapter@_W@__crt_stdio_output@@@2@@__crt_stdio_output@@AEAA_NXZ 0000000180076e90 f i libucrtd:output.obj
 0001:00075ec0       ?type_case_d@?$output_processor@_WV?$stream_output_adapter@_W@__crt_stdio_output@@V?$positional_parameter_base@_WV?$stream_output_adapter@_W@__crt_stdio_output@@@2@@__crt_stdio_output@@AEAA_NXZ 0000000180076ec0 f i libucrtd:output.obj
 0001:00075ef0       ?type_case_d@?$output_processor@_WV?$stream_output_adapter@_W@__crt_stdio_output@@V?$standard_base@_WV?$stream_output_adapter@_W@__crt_stdio_output@@@2@@__crt_stdio_output@@AEAA_NXZ 0000000180076ef0 f i libucrtd:output.obj
 0001:00075f20       ?type_case_d@?$output_processor@_WV?$string_output_adapter@_W@__crt_stdio_output@@V?$format_validation_base@_WV?$string_output_adapter@_W@__crt_stdio_output@@@2@@__crt_stdio_output@@AEAA_NXZ 0000000180076f20 f i libucrtd:output.obj
 0001:00075f50       ?type_case_d@?$output_processor@_WV?$string_output_adapter@_W@__crt_stdio_output@@V?$positional_parameter_base@_WV?$string_output_adapter@_W@__crt_stdio_output@@@2@@__crt_stdio_output@@AEAA_NXZ 0000000180076f50 f i libucrtd:output.obj
 0001:00075f80       ?type_case_d@?$output_processor@_WV?$string_output_adapter@_W@__crt_stdio_output@@V?$standard_base@_WV?$string_output_adapter@_W@__crt_stdio_output@@@2@@__crt_stdio_output@@AEAA_NXZ 0000000180076f80 f i libucrtd:output.obj
 0001:00075fb0       ?type_case_integer@?$output_processor@DV?$stream_output_adapter@D@__crt_stdio_output@@V?$format_validation_base@DV?$stream_output_adapter@D@__crt_stdio_output@@@2@@__crt_stdio_output@@AEAA_NI_N@Z 0000000180076fb0 f i libucrtd:output.obj
 0001:00076400       ?type_case_integer@?$output_processor@DV?$stream_output_adapter@D@__crt_stdio_output@@V?$positional_parameter_base@DV?$stream_output_adapter@D@__crt_stdio_output@@@2@@__crt_stdio_output@@AEAA_NI_N@Z 0000000180077400 f i libucrtd:output.obj
 0001:00076850       ?type_case_integer@?$output_processor@DV?$stream_output_adapter@D@__crt_stdio_output@@V?$standard_base@DV?$stream_output_adapter@D@__crt_stdio_output@@@2@@__crt_stdio_output@@AEAA_NI_N@Z 0000000180077850 f i libucrtd:output.obj
 0001:00076ca0       ?type_case_integer@?$output_processor@DV?$string_output_adapter@D@__crt_stdio_output@@V?$format_validation_base@DV?$string_output_adapter@D@__crt_stdio_output@@@2@@__crt_stdio_output@@AEAA_NI_N@Z 0000000180077ca0 f i libucrtd:output.obj
 0001:000770f0       ?type_case_integer@?$output_processor@DV?$string_output_adapter@D@__crt_stdio_output@@V?$positional_parameter_base@DV?$string_output_adapter@D@__crt_stdio_output@@@2@@__crt_stdio_output@@AEAA_NI_N@Z 00000001800780f0 f i libucrtd:output.obj
 0001:00077540       ?type_case_integer@?$output_processor@DV?$string_output_adapter@D@__crt_stdio_output@@V?$standard_base@DV?$string_output_adapter@D@__crt_stdio_output@@@2@@__crt_stdio_output@@AEAA_NI_N@Z 0000000180078540 f i libucrtd:output.obj
 0001:00077990       ?type_case_integer@?$output_processor@_WV?$stream_output_adapter@_W@__crt_stdio_output@@V?$format_validation_base@_WV?$stream_output_adapter@_W@__crt_stdio_output@@@2@@__crt_stdio_output@@AEAA_NI_N@Z 0000000180078990 f i libucrtd:output.obj
 0001:00077de0       ?type_case_integer@?$output_processor@_WV?$stream_output_adapter@_W@__crt_stdio_output@@V?$positional_parameter_base@_WV?$stream_output_adapter@_W@__crt_stdio_output@@@2@@__crt_stdio_output@@AEAA_NI_N@Z 0000000180078de0 f i libucrtd:output.obj
 0001:00078230       ?type_case_integer@?$output_processor@_WV?$stream_output_adapter@_W@__crt_stdio_output@@V?$standard_base@_WV?$stream_output_adapter@_W@__crt_stdio_output@@@2@@__crt_stdio_output@@AEAA_NI_N@Z 0000000180079230 f i libucrtd:output.obj
 0001:00078680       ?type_case_integer@?$output_processor@_WV?$string_output_adapter@_W@__crt_stdio_output@@V?$format_validation_base@_WV?$string_output_adapter@_W@__crt_stdio_output@@@2@@__crt_stdio_output@@AEAA_NI_N@Z 0000000180079680 f i libucrtd:output.obj
 0001:00078ad0       ?type_case_integer@?$output_processor@_WV?$string_output_adapter@_W@__crt_stdio_output@@V?$positional_parameter_base@_WV?$string_output_adapter@_W@__crt_stdio_output@@@2@@__crt_stdio_output@@AEAA_NI_N@Z 0000000180079ad0 f i libucrtd:output.obj
 0001:00078f20       ?type_case_integer@?$output_processor@_WV?$string_output_adapter@_W@__crt_stdio_output@@V?$standard_base@_WV?$string_output_adapter@_W@__crt_stdio_output@@@2@@__crt_stdio_output@@AEAA_NI_N@Z 0000000180079f20 f i libucrtd:output.obj
 0001:00079370       ?type_case_n@?$output_processor@DV?$stream_output_adapter@D@__crt_stdio_output@@V?$format_validation_base@DV?$stream_output_adapter@D@__crt_stdio_output@@@2@@__crt_stdio_output@@AEAA_NXZ 000000018007a370 f i libucrtd:output.obj
 0001:000795b0       ?type_case_n@?$output_processor@DV?$stream_output_adapter@D@__crt_stdio_output@@V?$positional_parameter_base@DV?$stream_output_adapter@D@__crt_stdio_output@@@2@@__crt_stdio_output@@AEAA_NXZ 000000018007a5b0 f i libucrtd:output.obj
 0001:000797f0       ?type_case_n@?$output_processor@DV?$stream_output_adapter@D@__crt_stdio_output@@V?$standard_base@DV?$stream_output_adapter@D@__crt_stdio_output@@@2@@__crt_stdio_output@@AEAA_NXZ 000000018007a7f0 f i libucrtd:output.obj
 0001:00079a30       ?type_case_n@?$output_processor@DV?$string_output_adapter@D@__crt_stdio_output@@V?$format_validation_base@DV?$string_output_adapter@D@__crt_stdio_output@@@2@@__crt_stdio_output@@AEAA_NXZ 000000018007aa30 f i libucrtd:output.obj
 0001:00079c70       ?type_case_n@?$output_processor@DV?$string_output_adapter@D@__crt_stdio_output@@V?$positional_parameter_base@DV?$string_output_adapter@D@__crt_stdio_output@@@2@@__crt_stdio_output@@AEAA_NXZ 000000018007ac70 f i libucrtd:output.obj
 0001:00079eb0       ?type_case_n@?$output_processor@DV?$string_output_adapter@D@__crt_stdio_output@@V?$standard_base@DV?$string_output_adapter@D@__crt_stdio_output@@@2@@__crt_stdio_output@@AEAA_NXZ 000000018007aeb0 f i libucrtd:output.obj
 0001:0007a0f0       ?type_case_n@?$output_processor@_WV?$stream_output_adapter@_W@__crt_stdio_output@@V?$format_validation_base@_WV?$stream_output_adapter@_W@__crt_stdio_output@@@2@@__crt_stdio_output@@AEAA_NXZ 000000018007b0f0 f i libucrtd:output.obj
 0001:0007a330       ?type_case_n@?$output_processor@_WV?$stream_output_adapter@_W@__crt_stdio_output@@V?$positional_parameter_base@_WV?$stream_output_adapter@_W@__crt_stdio_output@@@2@@__crt_stdio_output@@AEAA_NXZ 000000018007b330 f i libucrtd:output.obj
 0001:0007a570       ?type_case_n@?$output_processor@_WV?$stream_output_adapter@_W@__crt_stdio_output@@V?$standard_base@_WV?$stream_output_adapter@_W@__crt_stdio_output@@@2@@__crt_stdio_output@@AEAA_NXZ 000000018007b570 f i libucrtd:output.obj
 0001:0007a7b0       ?type_case_n@?$output_processor@_WV?$string_output_adapter@_W@__crt_stdio_output@@V?$format_validation_base@_WV?$string_output_adapter@_W@__crt_stdio_output@@@2@@__crt_stdio_output@@AEAA_NXZ 000000018007b7b0 f i libucrtd:output.obj
 0001:0007a9f0       ?type_case_n@?$output_processor@_WV?$string_output_adapter@_W@__crt_stdio_output@@V?$positional_parameter_base@_WV?$string_output_adapter@_W@__crt_stdio_output@@@2@@__crt_stdio_output@@AEAA_NXZ 000000018007b9f0 f i libucrtd:output.obj
 0001:0007ac30       ?type_case_n@?$output_processor@_WV?$string_output_adapter@_W@__crt_stdio_output@@V?$standard_base@_WV?$string_output_adapter@_W@__crt_stdio_output@@@2@@__crt_stdio_output@@AEAA_NXZ 000000018007bc30 f i libucrtd:output.obj
 0001:0007ae70       ?type_case_o@?$output_processor@DV?$stream_output_adapter@D@__crt_stdio_output@@V?$format_validation_base@DV?$stream_output_adapter@D@__crt_stdio_output@@@2@@__crt_stdio_output@@AEAA_NXZ 000000018007be70 f i libucrtd:output.obj
 0001:0007aec0       ?type_case_o@?$output_processor@DV?$stream_output_adapter@D@__crt_stdio_output@@V?$positional_parameter_base@DV?$stream_output_adapter@D@__crt_stdio_output@@@2@@__crt_stdio_output@@AEAA_NXZ 000000018007bec0 f i libucrtd:output.obj
 0001:0007af10       ?type_case_o@?$output_processor@DV?$stream_output_adapter@D@__crt_stdio_output@@V?$standard_base@DV?$stream_output_adapter@D@__crt_stdio_output@@@2@@__crt_stdio_output@@AEAA_NXZ 000000018007bf10 f i libucrtd:output.obj
 0001:0007af60       ?type_case_o@?$output_processor@DV?$string_output_adapter@D@__crt_stdio_output@@V?$format_validation_base@DV?$string_output_adapter@D@__crt_stdio_output@@@2@@__crt_stdio_output@@AEAA_NXZ 000000018007bf60 f i libucrtd:output.obj
 0001:0007afb0       ?type_case_o@?$output_processor@DV?$string_output_adapter@D@__crt_stdio_output@@V?$positional_parameter_base@DV?$string_output_adapter@D@__crt_stdio_output@@@2@@__crt_stdio_output@@AEAA_NXZ 000000018007bfb0 f i libucrtd:output.obj
 0001:0007b000       ?type_case_o@?$output_processor@DV?$string_output_adapter@D@__crt_stdio_output@@V?$standard_base@DV?$string_output_adapter@D@__crt_stdio_output@@@2@@__crt_stdio_output@@AEAA_NXZ 000000018007c000 f i libucrtd:output.obj
 0001:0007b050       ?type_case_o@?$output_processor@_WV?$stream_output_adapter@_W@__crt_stdio_output@@V?$format_validation_base@_WV?$stream_output_adapter@_W@__crt_stdio_output@@@2@@__crt_stdio_output@@AEAA_NXZ 000000018007c050 f i libucrtd:output.obj
 0001:0007b0a0       ?type_case_o@?$output_processor@_WV?$stream_output_adapter@_W@__crt_stdio_output@@V?$positional_parameter_base@_WV?$stream_output_adapter@_W@__crt_stdio_output@@@2@@__crt_stdio_output@@AEAA_NXZ 000000018007c0a0 f i libucrtd:output.obj
 0001:0007b0f0       ?type_case_o@?$output_processor@_WV?$stream_output_adapter@_W@__crt_stdio_output@@V?$standard_base@_WV?$stream_output_adapter@_W@__crt_stdio_output@@@2@@__crt_stdio_output@@AEAA_NXZ 000000018007c0f0 f i libucrtd:output.obj
 0001:0007b140       ?type_case_o@?$output_processor@_WV?$string_output_adapter@_W@__crt_stdio_output@@V?$format_validation_base@_WV?$string_output_adapter@_W@__crt_stdio_output@@@2@@__crt_stdio_output@@AEAA_NXZ 000000018007c140 f i libucrtd:output.obj
 0001:0007b190       ?type_case_o@?$output_processor@_WV?$string_output_adapter@_W@__crt_stdio_output@@V?$positional_parameter_base@_WV?$string_output_adapter@_W@__crt_stdio_output@@@2@@__crt_stdio_output@@AEAA_NXZ 000000018007c190 f i libucrtd:output.obj
 0001:0007b1e0       ?type_case_o@?$output_processor@_WV?$string_output_adapter@_W@__crt_stdio_output@@V?$standard_base@_WV?$string_output_adapter@_W@__crt_stdio_output@@@2@@__crt_stdio_output@@AEAA_NXZ 000000018007c1e0 f i libucrtd:output.obj
 0001:0007b230       ?type_case_p@?$output_processor@DV?$stream_output_adapter@D@__crt_stdio_output@@V?$format_validation_base@DV?$stream_output_adapter@D@__crt_stdio_output@@@2@@__crt_stdio_output@@AEAA_NXZ 000000018007c230 f i libucrtd:output.obj
 0001:0007b270       ?type_case_p@?$output_processor@DV?$stream_output_adapter@D@__crt_stdio_output@@V?$positional_parameter_base@DV?$stream_output_adapter@D@__crt_stdio_output@@@2@@__crt_stdio_output@@AEAA_NXZ 000000018007c270 f i libucrtd:output.obj
 0001:0007b2b0       ?type_case_p@?$output_processor@DV?$stream_output_adapter@D@__crt_stdio_output@@V?$standard_base@DV?$stream_output_adapter@D@__crt_stdio_output@@@2@@__crt_stdio_output@@AEAA_NXZ 000000018007c2b0 f i libucrtd:output.obj
 0001:0007b2f0       ?type_case_p@?$output_processor@DV?$string_output_adapter@D@__crt_stdio_output@@V?$format_validation_base@DV?$string_output_adapter@D@__crt_stdio_output@@@2@@__crt_stdio_output@@AEAA_NXZ 000000018007c2f0 f i libucrtd:output.obj
 0001:0007b330       ?type_case_p@?$output_processor@DV?$string_output_adapter@D@__crt_stdio_output@@V?$positional_parameter_base@DV?$string_output_adapter@D@__crt_stdio_output@@@2@@__crt_stdio_output@@AEAA_NXZ 000000018007c330 f i libucrtd:output.obj
 0001:0007b370       ?type_case_p@?$output_processor@DV?$string_output_adapter@D@__crt_stdio_output@@V?$standard_base@DV?$string_output_adapter@D@__crt_stdio_output@@@2@@__crt_stdio_output@@AEAA_NXZ 000000018007c370 f i libucrtd:output.obj
 0001:0007b3b0       ?type_case_p@?$output_processor@_WV?$stream_output_adapter@_W@__crt_stdio_output@@V?$format_validation_base@_WV?$stream_output_adapter@_W@__crt_stdio_output@@@2@@__crt_stdio_output@@AEAA_NXZ 000000018007c3b0 f i libucrtd:output.obj
 0001:0007b3f0       ?type_case_p@?$output_processor@_WV?$stream_output_adapter@_W@__crt_stdio_output@@V?$positional_parameter_base@_WV?$stream_output_adapter@_W@__crt_stdio_output@@@2@@__crt_stdio_output@@AEAA_NXZ 000000018007c3f0 f i libucrtd:output.obj
 0001:0007b430       ?type_case_p@?$output_processor@_WV?$stream_output_adapter@_W@__crt_stdio_output@@V?$standard_base@_WV?$stream_output_adapter@_W@__crt_stdio_output@@@2@@__crt_stdio_output@@AEAA_NXZ 000000018007c430 f i libucrtd:output.obj
 0001:0007b470       ?type_case_p@?$output_processor@_WV?$string_output_adapter@_W@__crt_stdio_output@@V?$format_validation_base@_WV?$string_output_adapter@_W@__crt_stdio_output@@@2@@__crt_stdio_output@@AEAA_NXZ 000000018007c470 f i libucrtd:output.obj
 0001:0007b4b0       ?type_case_p@?$output_processor@_WV?$string_output_adapter@_W@__crt_stdio_output@@V?$positional_parameter_base@_WV?$string_output_adapter@_W@__crt_stdio_output@@@2@@__crt_stdio_output@@AEAA_NXZ 000000018007c4b0 f i libucrtd:output.obj
 0001:0007b4f0       ?type_case_p@?$output_processor@_WV?$string_output_adapter@_W@__crt_stdio_output@@V?$standard_base@_WV?$string_output_adapter@_W@__crt_stdio_output@@@2@@__crt_stdio_output@@AEAA_NXZ 000000018007c4f0 f i libucrtd:output.obj
 0001:0007b530       ?type_case_s@?$output_processor@DV?$stream_output_adapter@D@__crt_stdio_output@@V?$format_validation_base@DV?$stream_output_adapter@D@__crt_stdio_output@@@2@@__crt_stdio_output@@AEAA_NXZ 000000018007c530 f i libucrtd:output.obj
 0001:0007b650       ?type_case_s@?$output_processor@DV?$stream_output_adapter@D@__crt_stdio_output@@V?$positional_parameter_base@DV?$stream_output_adapter@D@__crt_stdio_output@@@2@@__crt_stdio_output@@AEAA_NXZ 000000018007c650 f i libucrtd:output.obj
 0001:0007b770       ?type_case_s@?$output_processor@DV?$stream_output_adapter@D@__crt_stdio_output@@V?$standard_base@DV?$stream_output_adapter@D@__crt_stdio_output@@@2@@__crt_stdio_output@@AEAA_NXZ 000000018007c770 f i libucrtd:output.obj
 0001:0007b890       ?type_case_s@?$output_processor@DV?$string_output_adapter@D@__crt_stdio_output@@V?$format_validation_base@DV?$string_output_adapter@D@__crt_stdio_output@@@2@@__crt_stdio_output@@AEAA_NXZ 000000018007c890 f i libucrtd:output.obj
 0001:0007b9b0       ?type_case_s@?$output_processor@DV?$string_output_adapter@D@__crt_stdio_output@@V?$positional_parameter_base@DV?$string_output_adapter@D@__crt_stdio_output@@@2@@__crt_stdio_output@@AEAA_NXZ 000000018007c9b0 f i libucrtd:output.obj
 0001:0007bad0       ?type_case_s@?$output_processor@DV?$string_output_adapter@D@__crt_stdio_output@@V?$standard_base@DV?$string_output_adapter@D@__crt_stdio_output@@@2@@__crt_stdio_output@@AEAA_NXZ 000000018007cad0 f i libucrtd:output.obj
 0001:0007bbf0       ?type_case_s@?$output_processor@_WV?$stream_output_adapter@_W@__crt_stdio_output@@V?$format_validation_base@_WV?$stream_output_adapter@_W@__crt_stdio_output@@@2@@__crt_stdio_output@@AEAA_NXZ 000000018007cbf0 f i libucrtd:output.obj
 0001:0007bd10       ?type_case_s@?$output_processor@_WV?$stream_output_adapter@_W@__crt_stdio_output@@V?$positional_parameter_base@_WV?$stream_output_adapter@_W@__crt_stdio_output@@@2@@__crt_stdio_output@@AEAA_NXZ 000000018007cd10 f i libucrtd:output.obj
 0001:0007be30       ?type_case_s@?$output_processor@_WV?$stream_output_adapter@_W@__crt_stdio_output@@V?$standard_base@_WV?$stream_output_adapter@_W@__crt_stdio_output@@@2@@__crt_stdio_output@@AEAA_NXZ 000000018007ce30 f i libucrtd:output.obj
 0001:0007bf50       ?type_case_s@?$output_processor@_WV?$string_output_adapter@_W@__crt_stdio_output@@V?$format_validation_base@_WV?$string_output_adapter@_W@__crt_stdio_output@@@2@@__crt_stdio_output@@AEAA_NXZ 000000018007cf50 f i libucrtd:output.obj
 0001:0007c070       ?type_case_s@?$output_processor@_WV?$string_output_adapter@_W@__crt_stdio_output@@V?$positional_parameter_base@_WV?$string_output_adapter@_W@__crt_stdio_output@@@2@@__crt_stdio_output@@AEAA_NXZ 000000018007d070 f i libucrtd:output.obj
 0001:0007c190       ?type_case_s@?$output_processor@_WV?$string_output_adapter@_W@__crt_stdio_output@@V?$standard_base@_WV?$string_output_adapter@_W@__crt_stdio_output@@@2@@__crt_stdio_output@@AEAA_NXZ 000000018007d190 f i libucrtd:output.obj
 0001:0007c2b0       ?type_case_s_compute_narrow_string_length@?$output_processor@DV?$stream_output_adapter@D@__crt_stdio_output@@V?$format_validation_base@DV?$stream_output_adapter@D@__crt_stdio_output@@@2@@__crt_stdio_output@@AEBAHHD@Z 000000018007d2b0 f i libucrtd:output.obj
 0001:0007c2e0       ?type_case_s_compute_narrow_string_length@?$output_processor@DV?$stream_output_adapter@D@__crt_stdio_output@@V?$positional_parameter_base@DV?$stream_output_adapter@D@__crt_stdio_output@@@2@@__crt_stdio_output@@AEBAHHD@Z 000000018007d2e0 f i libucrtd:output.obj
 0001:0007c310       ?type_case_s_compute_narrow_string_length@?$output_processor@DV?$stream_output_adapter@D@__crt_stdio_output@@V?$standard_base@DV?$stream_output_adapter@D@__crt_stdio_output@@@2@@__crt_stdio_output@@AEBAHHD@Z 000000018007d310 f i libucrtd:output.obj
 0001:0007c340       ?type_case_s_compute_narrow_string_length@?$output_processor@DV?$string_output_adapter@D@__crt_stdio_output@@V?$format_validation_base@DV?$string_output_adapter@D@__crt_stdio_output@@@2@@__crt_stdio_output@@AEBAHHD@Z 000000018007d340 f i libucrtd:output.obj
 0001:0007c370       ?type_case_s_compute_narrow_string_length@?$output_processor@DV?$string_output_adapter@D@__crt_stdio_output@@V?$positional_parameter_base@DV?$string_output_adapter@D@__crt_stdio_output@@@2@@__crt_stdio_output@@AEBAHHD@Z 000000018007d370 f i libucrtd:output.obj
 0001:0007c3a0       ?type_case_s_compute_narrow_string_length@?$output_processor@DV?$string_output_adapter@D@__crt_stdio_output@@V?$standard_base@DV?$string_output_adapter@D@__crt_stdio_output@@@2@@__crt_stdio_output@@AEBAHHD@Z 000000018007d3a0 f i libucrtd:output.obj
 0001:0007c3d0       ?type_case_s_compute_narrow_string_length@?$output_processor@_WV?$stream_output_adapter@_W@__crt_stdio_output@@V?$format_validation_base@_WV?$stream_output_adapter@_W@__crt_stdio_output@@@2@@__crt_stdio_output@@AEBAHH_W@Z 000000018007d3d0 f i libucrtd:output.obj
 0001:0007c460       ?type_case_s_compute_narrow_string_length@?$output_processor@_WV?$stream_output_adapter@_W@__crt_stdio_output@@V?$positional_parameter_base@_WV?$stream_output_adapter@_W@__crt_stdio_output@@@2@@__crt_stdio_output@@AEBAHH_W@Z 000000018007d460 f i libucrtd:output.obj
 0001:0007c4f0       ?type_case_s_compute_narrow_string_length@?$output_processor@_WV?$stream_output_adapter@_W@__crt_stdio_output@@V?$standard_base@_WV?$stream_output_adapter@_W@__crt_stdio_output@@@2@@__crt_stdio_output@@AEBAHH_W@Z 000000018007d4f0 f i libucrtd:output.obj
 0001:0007c580       ?type_case_s_compute_narrow_string_length@?$output_processor@_WV?$string_output_adapter@_W@__crt_stdio_output@@V?$format_validation_base@_WV?$string_output_adapter@_W@__crt_stdio_output@@@2@@__crt_stdio_output@@AEBAHH_W@Z 000000018007d580 f i libucrtd:output.obj
 0001:0007c610       ?type_case_s_compute_narrow_string_length@?$output_processor@_WV?$string_output_adapter@_W@__crt_stdio_output@@V?$positional_parameter_base@_WV?$string_output_adapter@_W@__crt_stdio_output@@@2@@__crt_stdio_output@@AEBAHH_W@Z 000000018007d610 f i libucrtd:output.obj
 0001:0007c6a0       ?type_case_s_compute_narrow_string_length@?$output_processor@_WV?$string_output_adapter@_W@__crt_stdio_output@@V?$standard_base@_WV?$string_output_adapter@_W@__crt_stdio_output@@@2@@__crt_stdio_output@@AEBAHH_W@Z 000000018007d6a0 f i libucrtd:output.obj
 0001:0007c730       ?type_case_u@?$output_processor@DV?$stream_output_adapter@D@__crt_stdio_output@@V?$format_validation_base@DV?$stream_output_adapter@D@__crt_stdio_output@@@2@@__crt_stdio_output@@AEAA_NXZ 000000018007d730 f i libucrtd:output.obj
 0001:0007c750       ?type_case_u@?$output_processor@DV?$stream_output_adapter@D@__crt_stdio_output@@V?$positional_parameter_base@DV?$stream_output_adapter@D@__crt_stdio_output@@@2@@__crt_stdio_output@@AEAA_NXZ 000000018007d750 f i libucrtd:output.obj
 0001:0007c770       ?type_case_u@?$output_processor@DV?$stream_output_adapter@D@__crt_stdio_output@@V?$standard_base@DV?$stream_output_adapter@D@__crt_stdio_output@@@2@@__crt_stdio_output@@AEAA_NXZ 000000018007d770 f i libucrtd:output.obj
 0001:0007c790       ?type_case_u@?$output_processor@DV?$string_output_adapter@D@__crt_stdio_output@@V?$format_validation_base@DV?$string_output_adapter@D@__crt_stdio_output@@@2@@__crt_stdio_output@@AEAA_NXZ 000000018007d790 f i libucrtd:output.obj
 0001:0007c7b0       ?type_case_u@?$output_processor@DV?$string_output_adapter@D@__crt_stdio_output@@V?$positional_parameter_base@DV?$string_output_adapter@D@__crt_stdio_output@@@2@@__crt_stdio_output@@AEAA_NXZ 000000018007d7b0 f i libucrtd:output.obj
 0001:0007c7d0       ?type_case_u@?$output_processor@DV?$string_output_adapter@D@__crt_stdio_output@@V?$standard_base@DV?$string_output_adapter@D@__crt_stdio_output@@@2@@__crt_stdio_output@@AEAA_NXZ 000000018007d7d0 f i libucrtd:output.obj
 0001:0007c7f0       ?type_case_u@?$output_processor@_WV?$stream_output_adapter@_W@__crt_stdio_output@@V?$format_validation_base@_WV?$stream_output_adapter@_W@__crt_stdio_output@@@2@@__crt_stdio_output@@AEAA_NXZ 000000018007d7f0 f i libucrtd:output.obj
 0001:0007c810       ?type_case_u@?$output_processor@_WV?$stream_output_adapter@_W@__crt_stdio_output@@V?$positional_parameter_base@_WV?$stream_output_adapter@_W@__crt_stdio_output@@@2@@__crt_stdio_output@@AEAA_NXZ 000000018007d810 f i libucrtd:output.obj
 0001:0007c830       ?type_case_u@?$output_processor@_WV?$stream_output_adapter@_W@__crt_stdio_output@@V?$standard_base@_WV?$stream_output_adapter@_W@__crt_stdio_output@@@2@@__crt_stdio_output@@AEAA_NXZ 000000018007d830 f i libucrtd:output.obj
 0001:0007c850       ?type_case_u@?$output_processor@_WV?$string_output_adapter@_W@__crt_stdio_output@@V?$format_validation_base@_WV?$string_output_adapter@_W@__crt_stdio_output@@@2@@__crt_stdio_output@@AEAA_NXZ 000000018007d850 f i libucrtd:output.obj
 0001:0007c870       ?type_case_u@?$output_processor@_WV?$string_output_adapter@_W@__crt_stdio_output@@V?$positional_parameter_base@_WV?$string_output_adapter@_W@__crt_stdio_output@@@2@@__crt_stdio_output@@AEAA_NXZ 000000018007d870 f i libucrtd:output.obj
 0001:0007c890       ?type_case_u@?$output_processor@_WV?$string_output_adapter@_W@__crt_stdio_output@@V?$standard_base@_WV?$string_output_adapter@_W@__crt_stdio_output@@@2@@__crt_stdio_output@@AEAA_NXZ 000000018007d890 f i libucrtd:output.obj
 0001:0007c8b0       ?type_case_x@?$output_processor@DV?$stream_output_adapter@D@__crt_stdio_output@@V?$format_validation_base@DV?$stream_output_adapter@D@__crt_stdio_output@@@2@@__crt_stdio_output@@AEAA_NXZ 000000018007d8b0 f i libucrtd:output.obj
 0001:0007c8d0       ?type_case_x@?$output_processor@DV?$stream_output_adapter@D@__crt_stdio_output@@V?$positional_parameter_base@DV?$stream_output_adapter@D@__crt_stdio_output@@@2@@__crt_stdio_output@@AEAA_NXZ 000000018007d8d0 f i libucrtd:output.obj
 0001:0007c8f0       ?type_case_x@?$output_processor@DV?$stream_output_adapter@D@__crt_stdio_output@@V?$standard_base@DV?$stream_output_adapter@D@__crt_stdio_output@@@2@@__crt_stdio_output@@AEAA_NXZ 000000018007d8f0 f i libucrtd:output.obj
 0001:0007c910       ?type_case_x@?$output_processor@DV?$string_output_adapter@D@__crt_stdio_output@@V?$format_validation_base@DV?$string_output_adapter@D@__crt_stdio_output@@@2@@__crt_stdio_output@@AEAA_NXZ 000000018007d910 f i libucrtd:output.obj
 0001:0007c930       ?type_case_x@?$output_processor@DV?$string_output_adapter@D@__crt_stdio_output@@V?$positional_parameter_base@DV?$string_output_adapter@D@__crt_stdio_output@@@2@@__crt_stdio_output@@AEAA_NXZ 000000018007d930 f i libucrtd:output.obj
 0001:0007c950       ?type_case_x@?$output_processor@DV?$string_output_adapter@D@__crt_stdio_output@@V?$standard_base@DV?$string_output_adapter@D@__crt_stdio_output@@@2@@__crt_stdio_output@@AEAA_NXZ 000000018007d950 f i libucrtd:output.obj
 0001:0007c970       ?type_case_x@?$output_processor@_WV?$stream_output_adapter@_W@__crt_stdio_output@@V?$format_validation_base@_WV?$stream_output_adapter@_W@__crt_stdio_output@@@2@@__crt_stdio_output@@AEAA_NXZ 000000018007d970 f i libucrtd:output.obj
 0001:0007c990       ?type_case_x@?$output_processor@_WV?$stream_output_adapter@_W@__crt_stdio_output@@V?$positional_parameter_base@_WV?$stream_output_adapter@_W@__crt_stdio_output@@@2@@__crt_stdio_output@@AEAA_NXZ 000000018007d990 f i libucrtd:output.obj
 0001:0007c9b0       ?type_case_x@?$output_processor@_WV?$stream_output_adapter@_W@__crt_stdio_output@@V?$standard_base@_WV?$stream_output_adapter@_W@__crt_stdio_output@@@2@@__crt_stdio_output@@AEAA_NXZ 000000018007d9b0 f i libucrtd:output.obj
 0001:0007c9d0       ?type_case_x@?$output_processor@_WV?$string_output_adapter@_W@__crt_stdio_output@@V?$format_validation_base@_WV?$string_output_adapter@_W@__crt_stdio_output@@@2@@__crt_stdio_output@@AEAA_NXZ 000000018007d9d0 f i libucrtd:output.obj
 0001:0007c9f0       ?type_case_x@?$output_processor@_WV?$string_output_adapter@_W@__crt_stdio_output@@V?$positional_parameter_base@_WV?$string_output_adapter@_W@__crt_stdio_output@@@2@@__crt_stdio_output@@AEAA_NXZ 000000018007d9f0 f i libucrtd:output.obj
 0001:0007ca10       ?type_case_x@?$output_processor@_WV?$string_output_adapter@_W@__crt_stdio_output@@V?$standard_base@_WV?$string_output_adapter@_W@__crt_stdio_output@@@2@@__crt_stdio_output@@AEAA_NXZ 000000018007da10 f i libucrtd:output.obj
 0001:0007ca30       ?unset_flag@?$output_processor@DV?$stream_output_adapter@D@__crt_stdio_output@@V?$format_validation_base@DV?$stream_output_adapter@D@__crt_stdio_output@@@2@@__crt_stdio_output@@AEAAXI@Z 000000018007da30 f i libucrtd:output.obj
 0001:0007ca60       ?unset_flag@?$output_processor@DV?$stream_output_adapter@D@__crt_stdio_output@@V?$positional_parameter_base@DV?$stream_output_adapter@D@__crt_stdio_output@@@2@@__crt_stdio_output@@AEAAXI@Z 000000018007da60 f i libucrtd:output.obj
 0001:0007ca90       ?unset_flag@?$output_processor@DV?$stream_output_adapter@D@__crt_stdio_output@@V?$standard_base@DV?$stream_output_adapter@D@__crt_stdio_output@@@2@@__crt_stdio_output@@AEAAXI@Z 000000018007da90 f i libucrtd:output.obj
 0001:0007cac0       ?unset_flag@?$output_processor@DV?$string_output_adapter@D@__crt_stdio_output@@V?$format_validation_base@DV?$string_output_adapter@D@__crt_stdio_output@@@2@@__crt_stdio_output@@AEAAXI@Z 000000018007dac0 f i libucrtd:output.obj
 0001:0007caf0       ?unset_flag@?$output_processor@DV?$string_output_adapter@D@__crt_stdio_output@@V?$positional_parameter_base@DV?$string_output_adapter@D@__crt_stdio_output@@@2@@__crt_stdio_output@@AEAAXI@Z 000000018007daf0 f i libucrtd:output.obj
 0001:0007cb20       ?unset_flag@?$output_processor@DV?$string_output_adapter@D@__crt_stdio_output@@V?$standard_base@DV?$string_output_adapter@D@__crt_stdio_output@@@2@@__crt_stdio_output@@AEAAXI@Z 000000018007db20 f i libucrtd:output.obj
 0001:0007cb50       ?unset_flag@?$output_processor@_WV?$stream_output_adapter@_W@__crt_stdio_output@@V?$format_validation_base@_WV?$stream_output_adapter@_W@__crt_stdio_output@@@2@@__crt_stdio_output@@AEAAXI@Z 000000018007db50 f i libucrtd:output.obj
 0001:0007cb80       ?unset_flag@?$output_processor@_WV?$stream_output_adapter@_W@__crt_stdio_output@@V?$positional_parameter_base@_WV?$stream_output_adapter@_W@__crt_stdio_output@@@2@@__crt_stdio_output@@AEAAXI@Z 000000018007db80 f i libucrtd:output.obj
 0001:0007cbb0       ?unset_flag@?$output_processor@_WV?$stream_output_adapter@_W@__crt_stdio_output@@V?$standard_base@_WV?$stream_output_adapter@_W@__crt_stdio_output@@@2@@__crt_stdio_output@@AEAAXI@Z 000000018007dbb0 f i libucrtd:output.obj
 0001:0007cbe0       ?unset_flag@?$output_processor@_WV?$string_output_adapter@_W@__crt_stdio_output@@V?$format_validation_base@_WV?$string_output_adapter@_W@__crt_stdio_output@@@2@@__crt_stdio_output@@AEAAXI@Z 000000018007dbe0 f i libucrtd:output.obj
 0001:0007cc10       ?unset_flag@?$output_processor@_WV?$string_output_adapter@_W@__crt_stdio_output@@V?$positional_parameter_base@_WV?$string_output_adapter@_W@__crt_stdio_output@@@2@@__crt_stdio_output@@AEAAXI@Z 000000018007dc10 f i libucrtd:output.obj
 0001:0007cc40       ?unset_flag@?$output_processor@_WV?$string_output_adapter@_W@__crt_stdio_output@@V?$standard_base@_WV?$string_output_adapter@_W@__crt_stdio_output@@@2@@__crt_stdio_output@@AEAAXI@Z 000000018007dc40 f i libucrtd:output.obj
 0001:0007cc70       ?update_field_width@?$positional_parameter_base@DV?$stream_output_adapter@D@__crt_stdio_output@@@__crt_stdio_output@@IEAA_NXZ 000000018007dc70 f i libucrtd:output.obj
 0001:0007ce60       ?update_field_width@?$positional_parameter_base@DV?$string_output_adapter@D@__crt_stdio_output@@@__crt_stdio_output@@IEAA_NXZ 000000018007de60 f i libucrtd:output.obj
 0001:0007d050       ?update_field_width@?$positional_parameter_base@_WV?$stream_output_adapter@_W@__crt_stdio_output@@@__crt_stdio_output@@IEAA_NXZ 000000018007e050 f i libucrtd:output.obj
 0001:0007d240       ?update_field_width@?$positional_parameter_base@_WV?$string_output_adapter@_W@__crt_stdio_output@@@__crt_stdio_output@@IEAA_NXZ 000000018007e240 f i libucrtd:output.obj
 0001:0007d430       ?update_field_width@?$standard_base@DV?$stream_output_adapter@D@__crt_stdio_output@@@__crt_stdio_output@@IEAA_NXZ 000000018007e430 f i libucrtd:output.obj
 0001:0007d460       ?update_field_width@?$standard_base@DV?$string_output_adapter@D@__crt_stdio_output@@@__crt_stdio_output@@IEAA_NXZ 000000018007e460 f i libucrtd:output.obj
 0001:0007d490       ?update_field_width@?$standard_base@_WV?$stream_output_adapter@_W@__crt_stdio_output@@@__crt_stdio_output@@IEAA_NXZ 000000018007e490 f i libucrtd:output.obj
 0001:0007d4c0       ?update_field_width@?$standard_base@_WV?$string_output_adapter@_W@__crt_stdio_output@@@__crt_stdio_output@@IEAA_NXZ 000000018007e4c0 f i libucrtd:output.obj
 0001:0007d4f0       ?update_precision@?$positional_parameter_base@DV?$stream_output_adapter@D@__crt_stdio_output@@@__crt_stdio_output@@IEAA_NXZ 000000018007e4f0 f i libucrtd:output.obj
 0001:0007d6e0       ?update_precision@?$positional_parameter_base@DV?$string_output_adapter@D@__crt_stdio_output@@@__crt_stdio_output@@IEAA_NXZ 000000018007e6e0 f i libucrtd:output.obj
 0001:0007d8d0       ?update_precision@?$positional_parameter_base@_WV?$stream_output_adapter@_W@__crt_stdio_output@@@__crt_stdio_output@@IEAA_NXZ 000000018007e8d0 f i libucrtd:output.obj
 0001:0007dac0       ?update_precision@?$positional_parameter_base@_WV?$string_output_adapter@_W@__crt_stdio_output@@@__crt_stdio_output@@IEAA_NXZ 000000018007eac0 f i libucrtd:output.obj
 0001:0007dcb0       ?update_precision@?$standard_base@DV?$stream_output_adapter@D@__crt_stdio_output@@@__crt_stdio_output@@IEAA_NXZ 000000018007ecb0 f i libucrtd:output.obj
 0001:0007dce0       ?update_precision@?$standard_base@DV?$string_output_adapter@D@__crt_stdio_output@@@__crt_stdio_output@@IEAA_NXZ 000000018007ece0 f i libucrtd:output.obj
 0001:0007dd10       ?update_precision@?$standard_base@_WV?$stream_output_adapter@_W@__crt_stdio_output@@@__crt_stdio_output@@IEAA_NXZ 000000018007ed10 f i libucrtd:output.obj
 0001:0007dd40       ?update_precision@?$standard_base@_WV?$string_output_adapter@_W@__crt_stdio_output@@@__crt_stdio_output@@IEAA_NXZ 000000018007ed40 f i libucrtd:output.obj
 0001:0007dd70       ?valid@__crt_stdio_stream@@QEBA_NXZ 000000018007ed70 f i libucrtd:output.obj
 0001:0007dda0       ?validate@?$stream_output_adapter@D@__crt_stdio_output@@QEBA_NXZ 000000018007eda0 f i libucrtd:output.obj
 0001:0007de80       ?validate@?$stream_output_adapter@_W@__crt_stdio_output@@QEBA_NXZ 000000018007ee80 f i libucrtd:output.obj
 0001:0007df60       ?validate@?$string_output_adapter@D@__crt_stdio_output@@QEBA_NXZ 000000018007ef60 f i libucrtd:output.obj
 0001:0007e020       ?validate@?$string_output_adapter@_W@__crt_stdio_output@@QEBA_NXZ 000000018007f020 f i libucrtd:output.obj
 0001:0007e0e0       ?validate_and_store_parameter_data@?$positional_parameter_base@DV?$stream_output_adapter@D@__crt_stdio_output@@@__crt_stdio_output@@AEAA_NAEAUparameter_data@12@W4parameter_type@12@DW4length_modifier@2@@Z 000000018007f0e0 f i libucrtd:output.obj
 0001:0007e200       ?validate_and_store_parameter_data@?$positional_parameter_base@DV?$string_output_adapter@D@__crt_stdio_output@@@__crt_stdio_output@@AEAA_NAEAUparameter_data@12@W4parameter_type@12@DW4length_modifier@2@@Z 000000018007f200 f i libucrtd:output.obj
 0001:0007e320       ?validate_and_store_parameter_data@?$positional_parameter_base@_WV?$stream_output_adapter@_W@__crt_stdio_output@@@__crt_stdio_output@@AEAA_NAEAUparameter_data@12@W4parameter_type@12@_WW4length_modifier@2@@Z 000000018007f320 f i libucrtd:output.obj
 0001:0007e440       ?validate_and_store_parameter_data@?$positional_parameter_base@_WV?$string_output_adapter@_W@__crt_stdio_output@@@__crt_stdio_output@@AEAA_NAEAUparameter_data@12@W4parameter_type@12@_WW4length_modifier@2@@Z 000000018007f440 f i libucrtd:output.obj
 0001:0007e560       ?validate_and_update_state_at_beginning_of_format_character@?$positional_parameter_base@DV?$stream_output_adapter@D@__crt_stdio_output@@@__crt_stdio_output@@IEAA_NXZ 000000018007f560 f i libucrtd:output.obj
 0001:0007e840       ?validate_and_update_state_at_beginning_of_format_character@?$positional_parameter_base@DV?$string_output_adapter@D@__crt_stdio_output@@@__crt_stdio_output@@IEAA_NXZ 000000018007f840 f i libucrtd:output.obj
 0001:0007eb20       ?validate_and_update_state_at_beginning_of_format_character@?$positional_parameter_base@_WV?$stream_output_adapter@_W@__crt_stdio_output@@@__crt_stdio_output@@IEAA_NXZ 000000018007fb20 f i libucrtd:output.obj
 0001:0007ee00       ?validate_and_update_state_at_beginning_of_format_character@?$positional_parameter_base@_WV?$string_output_adapter@_W@__crt_stdio_output@@@__crt_stdio_output@@IEAA_NXZ 000000018007fe00 f i libucrtd:output.obj
 0001:0007f0e0       ?validate_and_update_state_at_beginning_of_format_character@?$standard_base@DV?$stream_output_adapter@D@__crt_stdio_output@@@__crt_stdio_output@@IEAA_NXZ 00000001800800e0 f i libucrtd:output.obj
 0001:0007f0f0       ?validate_and_update_state_at_beginning_of_format_character@?$standard_base@DV?$string_output_adapter@D@__crt_stdio_output@@@__crt_stdio_output@@IEAA_NXZ 00000001800800f0 f i libucrtd:output.obj
 0001:0007f100       ?validate_and_update_state_at_beginning_of_format_character@?$standard_base@_WV?$stream_output_adapter@_W@__crt_stdio_output@@@__crt_stdio_output@@IEAA_NXZ 0000000180080100 f i libucrtd:output.obj
 0001:0007f110       ?validate_and_update_state_at_beginning_of_format_character@?$standard_base@_WV?$string_output_adapter@_W@__crt_stdio_output@@@__crt_stdio_output@@IEAA_NXZ 0000000180080110 f i libucrtd:output.obj
 0001:0007f120       ?validate_and_update_state_at_end_of_format_string@?$format_validation_base@DV?$stream_output_adapter@D@__crt_stdio_output@@@__crt_stdio_output@@IEBA_NXZ 0000000180080120 f i libucrtd:output.obj
 0001:0007f1e0       ?validate_and_update_state_at_end_of_format_string@?$format_validation_base@DV?$string_output_adapter@D@__crt_stdio_output@@@__crt_stdio_output@@IEBA_NXZ 00000001800801e0 f i libucrtd:output.obj
 0001:0007f2a0       ?validate_and_update_state_at_end_of_format_string@?$format_validation_base@_WV?$stream_output_adapter@_W@__crt_stdio_output@@@__crt_stdio_output@@IEBA_NXZ 00000001800802a0 f i libucrtd:output.obj
 0001:0007f360       ?validate_and_update_state_at_end_of_format_string@?$format_validation_base@_WV?$string_output_adapter@_W@__crt_stdio_output@@@__crt_stdio_output@@IEBA_NXZ 0000000180080360 f i libucrtd:output.obj
 0001:0007f420       ?validate_and_update_state_at_end_of_format_string@?$positional_parameter_base@DV?$stream_output_adapter@D@__crt_stdio_output@@@__crt_stdio_output@@IEAA_NXZ 0000000180080420 f i libucrtd:output.obj
 0001:0007f610       ?validate_and_update_state_at_end_of_format_string@?$positional_parameter_base@DV?$string_output_adapter@D@__crt_stdio_output@@@__crt_stdio_output@@IEAA_NXZ 0000000180080610 f i libucrtd:output.obj
 0001:0007f800       ?validate_and_update_state_at_end_of_format_string@?$positional_parameter_base@_WV?$stream_output_adapter@_W@__crt_stdio_output@@@__crt_stdio_output@@IEAA_NXZ 0000000180080800 f i libucrtd:output.obj
 0001:0007f9f0       ?validate_and_update_state_at_end_of_format_string@?$positional_parameter_base@_WV?$string_output_adapter@_W@__crt_stdio_output@@@__crt_stdio_output@@IEAA_NXZ 00000001800809f0 f i libucrtd:output.obj
 0001:0007fbe0       ?validate_and_update_state_at_end_of_format_string@?$standard_base@DV?$stream_output_adapter@D@__crt_stdio_output@@@__crt_stdio_output@@IEBA_NXZ 0000000180080be0 f i libucrtd:output.obj
 0001:0007fbf0       ?validate_and_update_state_at_end_of_format_string@?$standard_base@DV?$string_output_adapter@D@__crt_stdio_output@@@__crt_stdio_output@@IEBA_NXZ 0000000180080bf0 f i libucrtd:output.obj
 0001:0007fc00       ?validate_and_update_state_at_end_of_format_string@?$standard_base@_WV?$stream_output_adapter@_W@__crt_stdio_output@@@__crt_stdio_output@@IEBA_NXZ 0000000180080c00 f i libucrtd:output.obj
 0001:0007fc10       ?validate_and_update_state_at_end_of_format_string@?$standard_base@_WV?$string_output_adapter@_W@__crt_stdio_output@@@__crt_stdio_output@@IEBA_NXZ 0000000180080c10 f i libucrtd:output.obj
 0001:0007fc20       ?validate_state_for_type_case_a@?$positional_parameter_base@DV?$stream_output_adapter@D@__crt_stdio_output@@@__crt_stdio_output@@IEAA_NXZ 0000000180080c20 f i libucrtd:output.obj
 0001:0007fd60       ?validate_state_for_type_case_a@?$positional_parameter_base@DV?$string_output_adapter@D@__crt_stdio_output@@@__crt_stdio_output@@IEAA_NXZ 0000000180080d60 f i libucrtd:output.obj
 0001:0007fea0       ?validate_state_for_type_case_a@?$positional_parameter_base@_WV?$stream_output_adapter@_W@__crt_stdio_output@@@__crt_stdio_output@@IEAA_NXZ 0000000180080ea0 f i libucrtd:output.obj
 0001:0007ffe0       ?validate_state_for_type_case_a@?$positional_parameter_base@_WV?$string_output_adapter@_W@__crt_stdio_output@@@__crt_stdio_output@@IEAA_NXZ 0000000180080fe0 f i libucrtd:output.obj
 0001:00080120       ?validate_state_for_type_case_a@?$standard_base@DV?$stream_output_adapter@D@__crt_stdio_output@@@__crt_stdio_output@@IEBA_NXZ 0000000180081120 f i libucrtd:output.obj
 0001:00080130       ?validate_state_for_type_case_a@?$standard_base@DV?$string_output_adapter@D@__crt_stdio_output@@@__crt_stdio_output@@IEBA_NXZ 0000000180081130 f i libucrtd:output.obj
 0001:00080140       ?validate_state_for_type_case_a@?$standard_base@_WV?$stream_output_adapter@_W@__crt_stdio_output@@@__crt_stdio_output@@IEBA_NXZ 0000000180081140 f i libucrtd:output.obj
 0001:00080150       ?validate_state_for_type_case_a@?$standard_base@_WV?$string_output_adapter@_W@__crt_stdio_output@@@__crt_stdio_output@@IEBA_NXZ 0000000180081150 f i libucrtd:output.obj
 0001:00080160       ?validate_stream_is_ansi_if_required@?$__acrt_stdio_char_traits@D@@SA_NQEAU_iobuf@@@Z 0000000180081160 f i libucrtd:output.obj
 0001:000802f0       ?validate_stream_is_ansi_if_required@?$__acrt_stdio_char_traits@_W@@SA_NQEAU_iobuf@@@Z 00000001800812f0 f i libucrtd:output.obj
 0001:00080300       ?wide_null_string@?$output_processor@DV?$stream_output_adapter@D@__crt_stdio_output@@V?$format_validation_base@DV?$stream_output_adapter@D@__crt_stdio_output@@@2@@__crt_stdio_output@@CAPEA_WXZ 0000000180081300 f i libucrtd:output.obj
 0001:00080310       ?wide_null_string@?$output_processor@DV?$stream_output_adapter@D@__crt_stdio_output@@V?$positional_parameter_base@DV?$stream_output_adapter@D@__crt_stdio_output@@@2@@__crt_stdio_output@@CAPEA_WXZ 0000000180081310 f i libucrtd:output.obj
 0001:00080320       ?wide_null_string@?$output_processor@DV?$stream_output_adapter@D@__crt_stdio_output@@V?$standard_base@DV?$stream_output_adapter@D@__crt_stdio_output@@@2@@__crt_stdio_output@@CAPEA_WXZ 0000000180081320 f i libucrtd:output.obj
 0001:00080330       ?wide_null_string@?$output_processor@DV?$string_output_adapter@D@__crt_stdio_output@@V?$format_validation_base@DV?$string_output_adapter@D@__crt_stdio_output@@@2@@__crt_stdio_output@@CAPEA_WXZ 0000000180081330 f i libucrtd:output.obj
 0001:00080340       ?wide_null_string@?$output_processor@DV?$string_output_adapter@D@__crt_stdio_output@@V?$positional_parameter_base@DV?$string_output_adapter@D@__crt_stdio_output@@@2@@__crt_stdio_output@@CAPEA_WXZ 0000000180081340 f i libucrtd:output.obj
 0001:00080350       ?wide_null_string@?$output_processor@DV?$string_output_adapter@D@__crt_stdio_output@@V?$standard_base@DV?$string_output_adapter@D@__crt_stdio_output@@@2@@__crt_stdio_output@@CAPEA_WXZ 0000000180081350 f i libucrtd:output.obj
 0001:00080360       ?wide_null_string@?$output_processor@_WV?$stream_output_adapter@_W@__crt_stdio_output@@V?$format_validation_base@_WV?$stream_output_adapter@_W@__crt_stdio_output@@@2@@__crt_stdio_output@@CAPEA_WXZ 0000000180081360 f i libucrtd:output.obj
 0001:00080370       ?wide_null_string@?$output_processor@_WV?$stream_output_adapter@_W@__crt_stdio_output@@V?$positional_parameter_base@_WV?$stream_output_adapter@_W@__crt_stdio_output@@@2@@__crt_stdio_output@@CAPEA_WXZ 0000000180081370 f i libucrtd:output.obj
 0001:00080380       ?wide_null_string@?$output_processor@_WV?$stream_output_adapter@_W@__crt_stdio_output@@V?$standard_base@_WV?$stream_output_adapter@_W@__crt_stdio_output@@@2@@__crt_stdio_output@@CAPEA_WXZ 0000000180081380 f i libucrtd:output.obj
 0001:00080390       ?wide_null_string@?$output_processor@_WV?$string_output_adapter@_W@__crt_stdio_output@@V?$format_validation_base@_WV?$string_output_adapter@_W@__crt_stdio_output@@@2@@__crt_stdio_output@@CAPEA_WXZ 0000000180081390 f i libucrtd:output.obj
 0001:000803a0       ?wide_null_string@?$output_processor@_WV?$string_output_adapter@_W@__crt_stdio_output@@V?$positional_parameter_base@_WV?$string_output_adapter@_W@__crt_stdio_output@@@2@@__crt_stdio_output@@CAPEA_WXZ 00000001800813a0 f i libucrtd:output.obj
 0001:000803b0       ?wide_null_string@?$output_processor@_WV?$string_output_adapter@_W@__crt_stdio_output@@V?$standard_base@_WV?$string_output_adapter@_W@__crt_stdio_output@@@2@@__crt_stdio_output@@CAPEA_WXZ 00000001800813b0 f i libucrtd:output.obj
 0001:000803c0       ?write_character@?$output_adapter_common@DV?$stream_output_adapter@D@__crt_stdio_output@@@__crt_stdio_output@@QEBAXDQEAH@Z 00000001800813c0 f i libucrtd:output.obj
 0001:00080410       ?write_character@?$output_adapter_common@_WV?$stream_output_adapter@_W@__crt_stdio_output@@@__crt_stdio_output@@QEBAX_WQEAH@Z 0000000180081410 f i libucrtd:output.obj
 0001:00080460       ?write_character@?$string_output_adapter@D@__crt_stdio_output@@QEBA_NDQEAH@Z 0000000180081460 f i libucrtd:output.obj
 0001:00080520       ?write_character@?$string_output_adapter@_W@__crt_stdio_output@@QEBA_N_WQEAH@Z 0000000180081520 f i libucrtd:output.obj
 0001:000805e0       ?write_character_without_count_update@?$stream_output_adapter@D@__crt_stdio_output@@QEBA_ND@Z 00000001800815e0 f i libucrtd:output.obj
 0001:00080660       ?write_character_without_count_update@?$stream_output_adapter@_W@__crt_stdio_output@@QEBA_N_W@Z 0000000180081660 f i libucrtd:output.obj
 0001:000806f0       ?write_stored_string_tchar@?$output_processor@DV?$stream_output_adapter@D@__crt_stdio_output@@V?$format_validation_base@DV?$stream_output_adapter@D@__crt_stdio_output@@@2@@__crt_stdio_output@@AEAA_ND@Z 00000001800816f0 f i libucrtd:output.obj
 0001:000808a0       ?write_stored_string_tchar@?$output_processor@DV?$stream_output_adapter@D@__crt_stdio_output@@V?$positional_parameter_base@DV?$stream_output_adapter@D@__crt_stdio_output@@@2@@__crt_stdio_output@@AEAA_ND@Z 00000001800818a0 f i libucrtd:output.obj
 0001:00080a50       ?write_stored_string_tchar@?$output_processor@DV?$stream_output_adapter@D@__crt_stdio_output@@V?$standard_base@DV?$stream_output_adapter@D@__crt_stdio_output@@@2@@__crt_stdio_output@@AEAA_ND@Z 0000000180081a50 f i libucrtd:output.obj
 0001:00080c00       ?write_stored_string_tchar@?$output_processor@DV?$string_output_adapter@D@__crt_stdio_output@@V?$format_validation_base@DV?$string_output_adapter@D@__crt_stdio_output@@@2@@__crt_stdio_output@@AEAA_ND@Z 0000000180081c00 f i libucrtd:output.obj
 0001:00080db0       ?write_stored_string_tchar@?$output_processor@DV?$string_output_adapter@D@__crt_stdio_output@@V?$positional_parameter_base@DV?$string_output_adapter@D@__crt_stdio_output@@@2@@__crt_stdio_output@@AEAA_ND@Z 0000000180081db0 f i libucrtd:output.obj
 0001:00080f60       ?write_stored_string_tchar@?$output_processor@DV?$string_output_adapter@D@__crt_stdio_output@@V?$standard_base@DV?$string_output_adapter@D@__crt_stdio_output@@@2@@__crt_stdio_output@@AEAA_ND@Z 0000000180081f60 f i libucrtd:output.obj
 0001:00081110       ?write_stored_string_tchar@?$output_processor@_WV?$stream_output_adapter@_W@__crt_stdio_output@@V?$format_validation_base@_WV?$stream_output_adapter@_W@__crt_stdio_output@@@2@@__crt_stdio_output@@AEAA_N_W@Z 0000000180082110 f i libucrtd:output.obj
 0001:00081260       ?write_stored_string_tchar@?$output_processor@_WV?$stream_output_adapter@_W@__crt_stdio_output@@V?$positional_parameter_base@_WV?$stream_output_adapter@_W@__crt_stdio_output@@@2@@__crt_stdio_output@@AEAA_N_W@Z 0000000180082260 f i libucrtd:output.obj
 0001:000813b0       ?write_stored_string_tchar@?$output_processor@_WV?$stream_output_adapter@_W@__crt_stdio_output@@V?$standard_base@_WV?$stream_output_adapter@_W@__crt_stdio_output@@@2@@__crt_stdio_output@@AEAA_N_W@Z 00000001800823b0 f i libucrtd:output.obj
 0001:00081500       ?write_stored_string_tchar@?$output_processor@_WV?$string_output_adapter@_W@__crt_stdio_output@@V?$format_validation_base@_WV?$string_output_adapter@_W@__crt_stdio_output@@@2@@__crt_stdio_output@@AEAA_N_W@Z 0000000180082500 f i libucrtd:output.obj
 0001:00081650       ?write_stored_string_tchar@?$output_processor@_WV?$string_output_adapter@_W@__crt_stdio_output@@V?$positional_parameter_base@_WV?$string_output_adapter@_W@__crt_stdio_output@@@2@@__crt_stdio_output@@AEAA_N_W@Z 0000000180082650 f i libucrtd:output.obj
 0001:000817a0       ?write_stored_string_tchar@?$output_processor@_WV?$string_output_adapter@_W@__crt_stdio_output@@V?$standard_base@_WV?$string_output_adapter@_W@__crt_stdio_output@@@2@@__crt_stdio_output@@AEAA_N_W@Z 00000001800827a0 f i libucrtd:output.obj
 0001:000818f0       ?write_string@?$stream_output_adapter@D@__crt_stdio_output@@QEBAXQEBDHQEAHAEAV__crt_deferred_errno_cache@@@Z 00000001800828f0 f i libucrtd:output.obj
 0001:00081970       ?write_string@?$stream_output_adapter@_W@__crt_stdio_output@@QEBAXQEB_WHQEAHAEAV__crt_deferred_errno_cache@@@Z 0000000180082970 f i libucrtd:output.obj
 0001:000819f0       ?write_string@?$string_output_adapter@D@__crt_stdio_output@@QEBAXQEBDHQEAHAEAV__crt_deferred_errno_cache@@@Z 00000001800829f0 f i libucrtd:output.obj
 0001:00081b60       ?write_string@?$string_output_adapter@_W@__crt_stdio_output@@QEBAXQEB_WHQEAHAEAV__crt_deferred_errno_cache@@@Z 0000000180082b60 f i libucrtd:output.obj
 0001:00081cd0       ?write_string_impl@?$output_adapter_common@DV?$stream_output_adapter@D@__crt_stdio_output@@@__crt_stdio_output@@IEBAXQEBDHQEAHAEAV__crt_deferred_errno_cache@@@Z 0000000180082cd0 f i libucrtd:output.obj
 0001:00081db0       ?write_string_impl@?$output_adapter_common@_WV?$stream_output_adapter@_W@__crt_stdio_output@@@__crt_stdio_output@@IEBAXQEB_WHQEAHAEAV__crt_deferred_errno_cache@@@Z 0000000180082db0 f i libucrtd:output.obj
 0001:00081e90       __acrt_isleadbyte_l_noupdate 0000000180082e90 f i libucrtd:output.obj
 0001:00081ec0       __acrt_locale_changed      0000000180082ec0 f i libucrtd:output.obj
 0001:00081ef0       __acrt_locale_get_ctype_array_value 0000000180082ef0 f i libucrtd:output.obj
 0001:00081f30       __stdio_common_vfprintf    0000000180082f30 f   libucrtd:output.obj
 0001:00081f70       __stdio_common_vfprintf_p  0000000180082f70 f   libucrtd:output.obj
 0001:00081fb0       __stdio_common_vfprintf_s  0000000180082fb0 f   libucrtd:output.obj
 0001:00081ff0       __stdio_common_vfwprintf   0000000180082ff0 f   libucrtd:output.obj
 0001:00082030       __stdio_common_vfwprintf_p 0000000180083030 f   libucrtd:output.obj
 0001:00082070       __stdio_common_vfwprintf_s 0000000180083070 f   libucrtd:output.obj
 0001:000820b0       __stdio_common_vsnprintf_s 00000001800830b0 f   libucrtd:output.obj
 0001:00082110       __stdio_common_vsnwprintf_s 0000000180083110 f   libucrtd:output.obj
 0001:00082170       __stdio_common_vsprintf    0000000180083170 f   libucrtd:output.obj
 0001:000821c0       __stdio_common_vsprintf_p  00000001800831c0 f   libucrtd:output.obj
 0001:00082210       __stdio_common_vsprintf_s  0000000180083210 f   libucrtd:output.obj
 0001:00082260       __stdio_common_vswprintf   0000000180083260 f   libucrtd:output.obj
 0001:000822b0       __stdio_common_vswprintf_p 00000001800832b0 f   libucrtd:output.obj
 0001:00082300       __stdio_common_vswprintf_s 0000000180083300 f   libucrtd:output.obj
 0001:00082350       _ctype_fast_check_internal 0000000180083350 f i libucrtd:output.obj
 0001:00082380       _isdigit_fast_internal     0000000180083380 f i libucrtd:output.obj
 0001:000823b0       _tolower_fast_internal     00000001800833b0 f i libucrtd:output.obj
 0001:000823e0       free                       00000001800833e0 f   libucrtd:free.obj
 0001:00082410       malloc                     0000000180083410 f   libucrtd:malloc.obj
 0001:00082440       ??$?RU?$__crt_report_hook_node@D@@@__crt_internal_free_policy@@QEBAXQEBU?$__crt_report_hook_node@D@@@Z 0000000180083440 f i libucrtd:dbgrpt.obj
 0001:00082470       ??$?RU?$__crt_report_hook_node@_W@@@__crt_internal_free_policy@@QEBAXQEBU?$__crt_report_hook_node@_W@@@Z 0000000180083470 f i libucrtd:dbgrpt.obj
 0001:000836b0       ??$get_module_file_name@AEAPEAUHINSTANCE__@@AEAY0BAF@DK@?$__crt_char_traits@D@@SAKAEAPEAUHINSTANCE__@@AEAY0BAF@D$$QEAK@Z 00000001800846b0 f i libucrtd:dbgrpt.obj
 0001:000836f0       ??$get_module_file_name@AEAPEAUHINSTANCE__@@AEAY0BAF@_WK@?$__crt_char_traits@_W@@SAKAEAPEAUHINSTANCE__@@AEAY0BAF@_W$$QEAK@Z 00000001800846f0 f i libucrtd:dbgrpt.obj
 0001:00083730       ??$tcscpy_s@AEAY0BAF@D_KPEBD@?$__crt_char_traits@D@@SAHAEAY0BAF@D$$QEA_K$$QEAPEBD@Z 0000000180084730 f i libucrtd:dbgrpt.obj
 0001:00083770       ??$tcscpy_s@AEAY0BAF@_W_KPEB_W@?$__crt_char_traits@_W@@SAHAEAY0BAF@_W$$QEA_K$$QEAPEB_W@Z 0000000180084770 f i libucrtd:dbgrpt.obj
 0001:000837b0       ??$tcslen@AEAY0BAF@D@?$__crt_char_traits@D@@SA_KAEAY0BAF@D@Z 00000001800847b0 f i libucrtd:dbgrpt.obj
 0001:000837d0       ??$tcslen@AEAY0BAF@_W@?$__crt_char_traits@_W@@SA_KAEAY0BAF@_W@Z 00000001800847d0 f i libucrtd:dbgrpt.obj
 0001:000837f0       ??$tcslen@AEBQEBD@?$__crt_char_traits@D@@SA_KAEBQEBD@Z 00000001800847f0 f i libucrtd:dbgrpt.obj
 0001:00083810       ??$tcslen@AEBQEB_W@?$__crt_char_traits@_W@@SA_KAEBQEB_W@Z 0000000180084810 f i libucrtd:dbgrpt.obj
 0001:00083910       ??0?$__crt_unique_heap_ptr@U?$__crt_report_hook_node@D@@U__crt_internal_free_policy@@@@QEAA@QEAU?$__crt_report_hook_node@D@@@Z 0000000180084910 f i libucrtd:dbgrpt.obj
 0001:00083930       ??0?$__crt_unique_heap_ptr@U?$__crt_report_hook_node@_W@@U__crt_internal_free_policy@@@@QEAA@QEAU?$__crt_report_hook_node@_W@@@Z 0000000180084930 f i libucrtd:dbgrpt.obj
 0001:00083950       ??1?$__crt_unique_heap_ptr@U?$__crt_report_hook_node@D@@U__crt_internal_free_policy@@@@QEAA@XZ 0000000180084950 f i libucrtd:dbgrpt.obj
 0001:00083970       ??1?$__crt_unique_heap_ptr@U?$__crt_report_hook_node@_W@@U__crt_internal_free_policy@@@@QEAA@XZ 0000000180084970 f i libucrtd:dbgrpt.obj
 0001:00083990       ??B?$__crt_unique_heap_ptr@U?$__crt_report_hook_node@D@@U__crt_internal_free_policy@@@@QEBA_NXZ 0000000180084990 f i libucrtd:dbgrpt.obj
 0001:000839b0       ??B?$__crt_unique_heap_ptr@U?$__crt_report_hook_node@_W@@U__crt_internal_free_policy@@@@QEBA_NXZ 00000001800849b0 f i libucrtd:dbgrpt.obj
 0001:00084090       ?detach@?$__crt_unique_heap_ptr@U?$__crt_report_hook_node@D@@U__crt_internal_free_policy@@@@QEAAPEAU?$__crt_report_hook_node@D@@XZ 0000000180085090 f i libucrtd:dbgrpt.obj
 0001:000840c0       ?detach@?$__crt_unique_heap_ptr@U?$__crt_report_hook_node@_W@@U__crt_internal_free_policy@@@@QEAAPEAU?$__crt_report_hook_node@_W@@XZ 00000001800850c0 f i libucrtd:dbgrpt.obj
 0001:000840f0       ?get@?$__crt_unique_heap_ptr@U?$__crt_report_hook_node@D@@U__crt_internal_free_policy@@@@QEBAPEAU?$__crt_report_hook_node@D@@XZ 00000001800850f0 f i libucrtd:dbgrpt.obj
 0001:00084100       ?get@?$__crt_unique_heap_ptr@U?$__crt_report_hook_node@_W@@U__crt_internal_free_policy@@@@QEBAPEAU?$__crt_report_hook_node@_W@@XZ 0000000180085100 f i libucrtd:dbgrpt.obj
 0001:00084170       ?is_valid@?$__crt_unique_heap_ptr@U?$__crt_report_hook_node@D@@U__crt_internal_free_policy@@@@QEBA_NXZ 0000000180085170 f i libucrtd:dbgrpt.obj
 0001:000841a0       ?is_valid@?$__crt_unique_heap_ptr@U?$__crt_report_hook_node@_W@@U__crt_internal_free_policy@@@@QEBA_NXZ 00000001800851a0 f i libucrtd:dbgrpt.obj
 0001:000841d0       ?release@?$__crt_unique_heap_ptr@U?$__crt_report_hook_node@D@@U__crt_internal_free_policy@@@@QEAAXXZ 00000001800851d0 f i libucrtd:dbgrpt.obj
 0001:00084200       ?release@?$__crt_unique_heap_ptr@U?$__crt_report_hook_node@_W@@U__crt_internal_free_policy@@@@QEAAXXZ 0000000180085200 f i libucrtd:dbgrpt.obj
 0001:00084230       _CrtDbgReport              0000000180085230 f   libucrtd:dbgrpt.obj
 0001:000842b0       _CrtDbgReportW             00000001800852b0 f   libucrtd:dbgrpt.obj
 0001:00084330       _CrtSetReportHook2         0000000180085330 f   libucrtd:dbgrpt.obj
 0001:00084350       _CrtSetReportHookW2        0000000180085350 f   libucrtd:dbgrpt.obj
 0001:00084370       __acrt_MessageWindowA      0000000180085370 f   libucrtd:dbgrpt.obj
 0001:000843c0       __acrt_MessageWindowW      00000001800853c0 f   libucrtd:dbgrpt.obj
 0001:00084410       _invoke_watson_if_error    0000000180085410 f i libucrtd:dbgrpt.obj
 0001:00084460       _invoke_watson_if_oneof    0000000180085460 f i libucrtd:dbgrpt.obj
 0001:000844c0       _snwprintf_s               00000001800854c0 f i libucrtd:dbgrpt.obj
 0001:00084530       _vsnwprintf_s_l            0000000180085530 f i libucrtd:dbgrpt.obj
 0001:00084a90       wcscpy_s                   0000000180085a90 f   libucrtd:wcscpy_s.obj
 0001:00085e20       ??1?$__crt_simd_cleanup_guard@$00@@QEAA@XZ 0000000180086e20 f i libucrtd:strnlen.obj
 0001:00085e30       ??1?$__crt_simd_cleanup_guard@$0A@@@QEAA@XZ 0000000180086e30 f i libucrtd:strnlen.obj
 0001:00085e40       ?compare_equals@?$__crt_simd_traits@$00E@@SA?AT__m256i@@T2@0@Z 0000000180086e40 f i libucrtd:strnlen.obj
 0001:00085e80       ?compare_equals@?$__crt_simd_traits@$00G@@SA?AT__m256i@@T2@0@Z 0000000180086e80 f i libucrtd:strnlen.obj
 0001:00085ec0       ?compare_equals@?$__crt_simd_traits@$0A@E@@SA?AT__m128i@@T2@0@Z 0000000180086ec0 f i libucrtd:strnlen.obj
 0001:00085ef0       ?compare_equals@?$__crt_simd_traits@$0A@G@@SA?AT__m128i@@T2@0@Z 0000000180086ef0 f i libucrtd:strnlen.obj
 0001:00085f20       ?compute_byte_mask@?$__crt_simd_pack_traits@$00@@SAHT__m256i@@@Z 0000000180086f20 f i libucrtd:strnlen.obj
 0001:00085f40       ?compute_byte_mask@?$__crt_simd_pack_traits@$0A@@@SAHT__m128i@@@Z 0000000180086f40 f i libucrtd:strnlen.obj
 0001:00085f60       ?get_zero_pack@?$__crt_simd_pack_traits@$00@@SA?AT__m256i@@XZ 0000000180086f60 f i libucrtd:strnlen.obj
 0001:00085f90       ?get_zero_pack@?$__crt_simd_pack_traits@$0A@@@SA?AT__m128i@@XZ 0000000180086f90 f i libucrtd:strnlen.obj
 0001:00085fb0       strnlen                    0000000180086fb0 f   libucrtd:strnlen.obj
 0001:00085fe0       wcslen                     0000000180086fe0 f   libucrtd:strnlen.obj
 0001:00086000       wcsnlen                    0000000180087000 f   libucrtd:strnlen.obj
 0001:00086030       ??$__crt_fast_decode_pointer@P6AXPEB_W00I_K@Z@@YAP6AXPEB_W00I_K@ZQ6AX000I1@Z@Z 0000000180087030 f i libucrtd:invalid_parameter.obj
 0001:00086070       ??$__crt_fast_encode_pointer@P6AXPEB_W00I_K@Z@@YAP6AXPEB_W00I_K@ZQ6AX000I1@Z@Z 0000000180087070 f i libucrtd:invalid_parameter.obj
 0001:000860b0       ??$initialize_from_array@$$BY00Q6AXPEB_W00I_K@Z@?$dual_state_global@P6AXPEB_W00I_K@Z@__crt_state_management@@QEAAXAEAY00Q6AXPEB_W00I_K@Z@Z 00000001800870b0 f i libucrtd:invalid_parameter.obj
 0001:00086110       ?__crt_rotate_pointer_value@@YA_K_KH@Z 0000000180087110 f i libucrtd:invalid_parameter.obj
 0001:000861d0       ?dangerous_get_state_array@?$dual_state_global@P6AXPEB_W00I_K@Z@__crt_state_management@@QEAAPEAP6AXPEB_W00I_K@ZXZ 00000001800871d0 f i libucrtd:invalid_parameter.obj
 0001:000861e0       ?get_current_state_index@__crt_state_management@@YA_KXZ 00000001800871e0 f i libucrtd:invalid_parameter.obj
 0001:000861f0       ?value@?$dual_state_global@P6AXPEB_W00I_K@Z@__crt_state_management@@QEAAAEAP6AXPEB_W00I_K@ZXZ 00000001800871f0 f i libucrtd:invalid_parameter.obj
 0001:00086210       __acrt_call_reportfault    0000000180087210 f   libucrtd:invalid_parameter.obj
 0001:00086340       __acrt_initialize_invalid_parameter_handler 0000000180087340 f   libucrtd:invalid_parameter.obj
 0001:00086370       _get_invalid_parameter_handler 0000000180087370 f   libucrtd:invalid_parameter.obj
 0001:00086390       _get_thread_local_invalid_parameter_handler 0000000180087390 f   libucrtd:invalid_parameter.obj
 0001:000863c0       _invalid_parameter         00000001800873c0 f   libucrtd:invalid_parameter.obj
 0001:000864c0       _invalid_parameter_noinfo  00000001800874c0 f   libucrtd:invalid_parameter.obj
 0001:000864f0       _invalid_parameter_noinfo_noreturn 00000001800874f0 f   libucrtd:invalid_parameter.obj
 0001:00086530       _invoke_watson             0000000180087530 f   libucrtd:invalid_parameter.obj
 0001:00086590       _set_invalid_parameter_handler 0000000180087590 f   libucrtd:invalid_parameter.obj
 0001:000865e0       _set_thread_local_invalid_parameter_handler 00000001800875e0 f   libucrtd:invalid_parameter.obj
 0001:00086620       __acrt_errno_from_os_error 0000000180087620 f   libucrtd:errno.obj
 0001:000866b0       __acrt_errno_map_os_error  00000001800876b0 f   libucrtd:errno.obj
 0001:000866e0       __doserrno                 00000001800876e0 f   libucrtd:errno.obj
 0001:00086710       _errno                     0000000180087710 f   libucrtd:errno.obj
 0001:00086740       _get_doserrno              0000000180087740 f   libucrtd:errno.obj
 0001:00086800       _get_errno                 0000000180087800 f   libucrtd:errno.obj
 0001:000868c0       _set_doserrno              00000001800878c0 f   libucrtd:errno.obj
 0001:00086900       _set_errno                 0000000180087900 f   libucrtd:errno.obj
 0001:00086940       calloc                     0000000180087940 f   libucrtd:calloc.obj
 0001:00086980       _recalloc                  0000000180087980 f   libucrtd:recalloc.obj
 0001:000869d0       _recalloc_base             00000001800879d0 f   libucrtd:recalloc.obj
 0001:00086aac       _resetstkoflw              0000000180087aac f   libucrtd:resetstk.obj
 0001:00087260       wcscat_s                   0000000180088260 f   libucrtd:wcscat_s.obj
 0001:00087930       wcsncpy_s                  0000000180088930 f   libucrtd:wcsncpy_s.obj
 0001:00087990       __acrt_get_locale_data_prefix 0000000180088990 f i libucrtd:_ctype.obj
 0001:000879b0       __isascii                  00000001800889b0 f i libucrtd:_ctype.obj
 0001:000879e0       __iscsym                   00000001800889e0 f i libucrtd:_ctype.obj
 0001:00087a20       __iscsymf                  0000000180088a20 f i libucrtd:_ctype.obj
 0001:00087a60       __toascii                  0000000180088a60 f i libucrtd:_ctype.obj
 0001:00087a70       _chvalidchk_l              0000000180088a70 f i libucrtd:_ctype.obj
 0001:00087aa0       _isalnum_l                 0000000180088aa0 f i libucrtd:_ctype.obj
 0001:00087af0       _isalpha_l                 0000000180088af0 f i libucrtd:_ctype.obj
 0001:00087b40       _isblank_l                 0000000180088b40 f i libucrtd:_ctype.obj
 0001:00087bb0       _ischartype_l              0000000180088bb0 f i libucrtd:_ctype.obj
 0001:00087c40       _iscntrl_l                 0000000180088c40 f i libucrtd:_ctype.obj
 0001:00087c90       _iscsym_l                  0000000180088c90 f i libucrtd:_ctype.obj
 0001:00087ce0       _iscsymf_l                 0000000180088ce0 f i libucrtd:_ctype.obj
 0001:00087d30       _isdigit_l                 0000000180088d30 f i libucrtd:_ctype.obj
 0001:00087d80       _isgraph_l                 0000000180088d80 f i libucrtd:_ctype.obj
 0001:00087dd0       _islower_l                 0000000180088dd0 f i libucrtd:_ctype.obj
 0001:00087e20       _isprint_l                 0000000180088e20 f i libucrtd:_ctype.obj
 0001:00087e70       _ispunct_l                 0000000180088e70 f i libucrtd:_ctype.obj
 0001:00087ec0       _isspace_l                 0000000180088ec0 f i libucrtd:_ctype.obj
 0001:00087f10       _isupper_l                 0000000180088f10 f i libucrtd:_ctype.obj
 0001:00087f60       _isxdigit_l                0000000180088f60 f i libucrtd:_ctype.obj
 0001:00087fb0       isalnum                    0000000180088fb0 f i libucrtd:_ctype.obj
 0001:00087ff0       isalpha                    0000000180088ff0 f i libucrtd:_ctype.obj
 0001:00088030       isblank                    0000000180089030 f i libucrtd:_ctype.obj
 0001:00088090       iscntrl                    0000000180089090 f i libucrtd:_ctype.obj
 0001:000880d0       isdigit                    00000001800890d0 f i libucrtd:_ctype.obj
 0001:00088110       isgraph                    0000000180089110 f i libucrtd:_ctype.obj
 0001:00088150       islower                    0000000180089150 f i libucrtd:_ctype.obj
 0001:00088190       isprint                    0000000180089190 f i libucrtd:_ctype.obj
 0001:000881d0       ispunct                    00000001800891d0 f i libucrtd:_ctype.obj
 0001:00088210       isspace                    0000000180089210 f i libucrtd:_ctype.obj
 0001:00088250       isupper                    0000000180089250 f i libucrtd:_ctype.obj
 0001:00088290       isxdigit                   0000000180089290 f i libucrtd:_ctype.obj
 0001:000882d0       wcscat                     00000001800892d0 f   libucrtd:wcscat.obj
 0001:00088350       wcscpy                     0000000180089350 f   libucrtd:wcscpy.obj
 0001:00088b00       ??$open_file@AEBQEBDAEBQEBDAEBHPEAU_iobuf@@@?$__crt_char_traits@D@@SAPEAU_iobuf@@AEBQEBD0AEBH$$QEAPEAU1@@Z 0000000180089b00 f i libucrtd:fopen.obj
 0001:00088b50       ??$open_file@AEBQEB_WAEBQEB_WAEBHPEAU_iobuf@@@?$__crt_char_traits@_W@@SAPEAU_iobuf@@AEBQEB_W0AEBH$$QEAPEAU1@@Z 0000000180089b50 f i libucrtd:fopen.obj
 0001:00088ba0       ?unlock@__crt_stdio_stream@@QEBAXXZ 0000000180089ba0 f i libucrtd:fopen.obj
 0001:00088bc0       _fsopen                    0000000180089bc0 f   libucrtd:fopen.obj
 0001:00088bf0       _wfopen                    0000000180089bf0 f   libucrtd:fopen.obj
 0001:00088c20       _wfopen_s                  0000000180089c20 f   libucrtd:fopen.obj
 0001:00088c50       _wfsopen                   0000000180089c50 f   libucrtd:fopen.obj
 0001:00088c80       fopen                      0000000180089c80 f   libucrtd:fopen.obj
 0001:00088cb0       fopen_s                    0000000180089cb0 f   libucrtd:fopen.obj
 0001:00088ce0       ?is_in_use@__crt_stdio_stream@@QEBA_NXZ 0000000180089ce0 f i libucrtd:fclose.obj
 0001:00088d20       _fclose_nolock             0000000180089d20 f   libucrtd:fclose.obj
 0001:00088eb0       fclose                     0000000180089eb0 f   libucrtd:fclose.obj
 0001:00088ff0       _fputc_nolock              0000000180089ff0 f   libucrtd:fputc.obj
 0001:000890a0       _fputchar                  000000018008a0a0 f   libucrtd:fputc.obj
 0001:000890d0       _putc_nolock               000000018008a0d0 f   libucrtd:fputc.obj
 0001:000890f0       fputc                      000000018008a0f0 f   libucrtd:fputc.obj
 0001:00089390       putc                       000000018008a390 f   libucrtd:fputc.obj
 0001:000893b0       putchar                    000000018008a3b0 f   libucrtd:fputc.obj
 0001:00089440       _seh_filter_dll            000000018008a440 f   libucrtd:exception_filter.obj
 0001:00089470       _seh_filter_exe            000000018008a470 f   libucrtd:exception_filter.obj
 0001:00089710       ??$?B$$A6AXPEAXK0@Z@__crt_fast_encoded_nullptr_t@@QEBAP6AXPEAXK0@ZXZ 000000018008a710 f i libucrtd:exit.obj
 0001:000897c0       ??$__crt_fast_decode_pointer@P6AXPEAXK0@Z@@YAP6AXPEAXK0@ZQ6AX0K0@Z@Z 000000018008a7c0 f i libucrtd:exit.obj
 0001:00089800       ??$__crt_fast_encode_pointer@P6AXPEAXK0@Z@@YAP6AXPEAXK0@ZQ6AX0K0@Z@Z 000000018008a800 f i libucrtd:exit.obj
 0001:00089840       ??$__crt_get_proc_address@P6AXI@Z@@YAP6AXI@ZQEAUHINSTANCE__@@QEBD@Z 000000018008a840 f i libucrtd:exit.obj
 0001:00089900       ??0?$__crt_unique_handle_t@U__crt_hmodule_traits@@@@QEAA@QEAUHINSTANCE__@@@Z 000000018008a900 f i libucrtd:exit.obj
 0001:00089920       ??1?$__crt_unique_handle_t@U__crt_hmodule_traits@@@@QEAA@XZ 000000018008a920 f i libucrtd:exit.obj
 0001:00089a80       ?__acrt_select_exit_lock@@YA?AW4__acrt_lock_id@@XZ 000000018008aa80 f i libucrtd:exit.obj
 0001:00089a90       ?__crt_fast_encode_pointer@@YA?AU__crt_fast_encoded_nullptr_t@@$$T@Z 000000018008aa90 f i libucrtd:exit.obj
 0001:00089ad0       ?close@?$__crt_unique_handle_t@U__crt_hmodule_traits@@@@QEAAXXZ 000000018008aad0 f i libucrtd:exit.obj
 0001:00089b10       ?close@__crt_hmodule_traits@@SA_NPEAUHINSTANCE__@@@Z 000000018008ab10 f i libucrtd:exit.obj
 0001:00089c20       ?get@?$__crt_unique_handle_t@U__crt_hmodule_traits@@@@QEBAPEAUHINSTANCE__@@XZ 000000018008ac20 f i libucrtd:exit.obj
 0001:00089c30       ?get_address_of@?$__crt_unique_handle_t@U__crt_hmodule_traits@@@@QEAAPEAPEAUHINSTANCE__@@XZ 000000018008ac30 f i libucrtd:exit.obj
 0001:00089c40       ?get_invalid_value@__crt_hmodule_traits@@SAPEAUHINSTANCE__@@XZ 000000018008ac40 f i libucrtd:exit.obj
 0001:00089e00       _Exit                      000000018008ae00 f   libucrtd:exit.obj
 0001:00089e20       __acrt_initialize_thread_local_exit_callback 000000018008ae20 f   libucrtd:exit.obj
 0001:00089e40       _c_exit                    000000018008ae40 f   libucrtd:exit.obj
 0001:00089e60       _cexit                     000000018008ae60 f   libucrtd:exit.obj
 0001:00089e80       _exit                      000000018008ae80 f   libucrtd:exit.obj
 0001:00089ea0       _is_c_termination_complete 000000018008aea0 f   libucrtd:exit.obj
 0001:00089ec0       _register_thread_local_exe_atexit_callback 000000018008aec0 f   libucrtd:exit.obj
 0001:00089f10       exit                       000000018008af10 f   libucrtd:exit.obj
 0001:00089f30       quick_exit                 000000018008af30 f   libucrtd:exit.obj
 0001:00089f50       ??$?RE@__crt_internal_free_policy@@QEBAXQEBE@Z 000000018008af50 f i libucrtd:argv_parsing.obj
 0001:00089f80       ??$?RPEAD@__crt_internal_free_policy@@QEBAXQEBQEAD@Z 000000018008af80 f i libucrtd:argv_parsing.obj
 0001:00089fb0       ??$?RPEA_W@__crt_internal_free_policy@@QEBAXQEBQEA_W@Z 000000018008afb0 f i libucrtd:argv_parsing.obj
 0001:0008a700       ??$get_module_file_name@$$TAEAY0BAF@DH@?$__crt_char_traits@D@@SAK$$QEA$$TAEAY0BAF@D$$QEAH@Z 000000018008b700 f i libucrtd:argv_parsing.obj
 0001:0008a740       ??$get_module_file_name@$$TAEAY0BAF@_WH@?$__crt_char_traits@_W@@SAK$$QEA$$TAEAY0BAF@_W$$QEAH@Z 000000018008b740 f i libucrtd:argv_parsing.obj
 0001:0008b0f0       ??$set_program_name@PEAD@?$__crt_char_traits@D@@SAX$$QEAPEAD@Z 000000018008c0f0 f i libucrtd:argv_parsing.obj
 0001:0008b110       ??$set_program_name@PEA_W@?$__crt_char_traits@_W@@SAX$$QEAPEA_W@Z 000000018008c110 f i libucrtd:argv_parsing.obj
 0001:0008b170       ??0?$__crt_unique_heap_ptr@EU__crt_internal_free_policy@@@@QEAA@QEAE@Z 000000018008c170 f i libucrtd:argv_parsing.obj
 0001:0008b190       ??0?$__crt_unique_heap_ptr@PEADU__crt_internal_free_policy@@@@QEAA@QEAPEAD@Z 000000018008c190 f i libucrtd:argv_parsing.obj
 0001:0008b1b0       ??0?$__crt_unique_heap_ptr@PEA_WU__crt_internal_free_policy@@@@QEAA@QEAPEA_W@Z 000000018008c1b0 f i libucrtd:argv_parsing.obj
 0001:0008b1d0       ??1?$__crt_unique_heap_ptr@EU__crt_internal_free_policy@@@@QEAA@XZ 000000018008c1d0 f i libucrtd:argv_parsing.obj
 0001:0008b1f0       ??1?$__crt_unique_heap_ptr@PEADU__crt_internal_free_policy@@@@QEAA@XZ 000000018008c1f0 f i libucrtd:argv_parsing.obj
 0001:0008b210       ??1?$__crt_unique_heap_ptr@PEA_WU__crt_internal_free_policy@@@@QEAA@XZ 000000018008c210 f i libucrtd:argv_parsing.obj
 0001:0008b230       ??B?$__crt_unique_heap_ptr@EU__crt_internal_free_policy@@@@QEBA_NXZ 000000018008c230 f i libucrtd:argv_parsing.obj
 0001:0008b310       ?detach@?$__crt_unique_heap_ptr@EU__crt_internal_free_policy@@@@QEAAPEAEXZ 000000018008c310 f i libucrtd:argv_parsing.obj
 0001:0008b340       ?detach@?$__crt_unique_heap_ptr@PEADU__crt_internal_free_policy@@@@QEAAPEAPEADXZ 000000018008c340 f i libucrtd:argv_parsing.obj
 0001:0008b370       ?detach@?$__crt_unique_heap_ptr@PEA_WU__crt_internal_free_policy@@@@QEAAPEAPEA_WXZ 000000018008c370 f i libucrtd:argv_parsing.obj
 0001:0008b430       ?get@?$__crt_unique_heap_ptr@EU__crt_internal_free_policy@@@@QEBAPEAEXZ 000000018008c430 f i libucrtd:argv_parsing.obj
 0001:0008b440       ?get@?$__crt_unique_heap_ptr@PEADU__crt_internal_free_policy@@@@QEBAPEAPEADXZ 000000018008c440 f i libucrtd:argv_parsing.obj
 0001:0008b450       ?get@?$__crt_unique_heap_ptr@PEA_WU__crt_internal_free_policy@@@@QEBAPEAPEA_WXZ 000000018008c450 f i libucrtd:argv_parsing.obj
 0001:0008b460       ?get_address_of@?$__crt_unique_heap_ptr@PEADU__crt_internal_free_policy@@@@QEAAPEAPEAPEADXZ 000000018008c460 f i libucrtd:argv_parsing.obj
 0001:0008b470       ?get_address_of@?$__crt_unique_heap_ptr@PEA_WU__crt_internal_free_policy@@@@QEAAPEAPEAPEA_WXZ 000000018008c470 f i libucrtd:argv_parsing.obj
 0001:0008b4c0       ?is_valid@?$__crt_unique_heap_ptr@EU__crt_internal_free_policy@@@@QEBA_NXZ 000000018008c4c0 f i libucrtd:argv_parsing.obj
 0001:0008b4f0       ?release@?$__crt_unique_heap_ptr@EU__crt_internal_free_policy@@@@QEAAXXZ 000000018008c4f0 f i libucrtd:argv_parsing.obj
 0001:0008b520       ?release@?$__crt_unique_heap_ptr@PEADU__crt_internal_free_policy@@@@QEAAXXZ 000000018008c520 f i libucrtd:argv_parsing.obj
 0001:0008b550       ?release@?$__crt_unique_heap_ptr@PEA_WU__crt_internal_free_policy@@@@QEAAXXZ 000000018008c550 f i libucrtd:argv_parsing.obj
 0001:0008b5d0       __acrt_allocate_buffer_for_argv 000000018008c5d0 f   libucrtd:argv_parsing.obj
 0001:0008b6f0       _configure_narrow_argv     000000018008c6f0 f   libucrtd:argv_parsing.obj
 0001:0008b710       _configure_wide_argv       000000018008c710 f   libucrtd:argv_parsing.obj
 0001:0008b730       _set_pgmptr                000000018008c730 f i libucrtd:argv_parsing.obj
 0001:0008b750       _set_wpgmptr               000000018008c750 f i libucrtd:argv_parsing.obj
 0001:0008b764       ??$?R_W@__crt_internal_free_policy@@QEBAXQEB_W@Z 000000018008c764 f i libucrtd:environment_initialization.obj
 0001:0008bd3c       ??$get_environment_from_os@$$V@?$__crt_char_traits@D@@SAPEADXZ 000000018008cd3c f i libucrtd:environment_initialization.obj
 0001:0008bd44       ??$get_environment_from_os@$$V@?$__crt_char_traits@_W@@SAPEA_WXZ 000000018008cd44 f i libucrtd:environment_initialization.obj
 0001:0008bf14       ??$set_variable_in_environment_nolock@PEADH@?$__crt_char_traits@D@@SAH$$QEAPEAD$$QEAH@Z 000000018008cf14 f i libucrtd:environment_initialization.obj
 0001:0008bf20       ??$set_variable_in_environment_nolock@PEA_WH@?$__crt_char_traits@_W@@SAH$$QEAPEA_W$$QEAH@Z 000000018008cf20 f i libucrtd:environment_initialization.obj
 0001:0008bf2c       ??$tcscpy_s@PEADAEB_KAEAPEAD@?$__crt_char_traits@D@@SAH$$QEAPEADAEB_KAEAPEAD@Z 000000018008cf2c f i libucrtd:environment_initialization.obj
 0001:0008bf3c       ??$tcscpy_s@PEA_WAEB_KAEAPEA_W@?$__crt_char_traits@_W@@SAH$$QEAPEA_WAEB_KAEAPEA_W@Z 000000018008cf3c f i libucrtd:environment_initialization.obj
 0001:0008bf4c       ??$tcslen@AEAPEAD@?$__crt_char_traits@D@@SA_KAEAPEAD@Z 000000018008cf4c f i libucrtd:environment_initialization.obj
 0001:0008bf60       ??$tcslen@AEAPEA_W@?$__crt_char_traits@_W@@SA_KAEAPEA_W@Z 000000018008cf60 f i libucrtd:environment_initialization.obj
 0001:0008bf74       ??$uninitialize@A6AXAEAPEAPEAD@Z@?$dual_state_global@PEAPEAD@__crt_state_management@@QEAAXA6AXAEAPEAPEAD@Z@Z 000000018008cf74 f i libucrtd:environment_initialization.obj
 0001:0008bfb8       ??$uninitialize@A6AXAEAPEAPEA_W@Z@?$dual_state_global@PEAPEA_W@__crt_state_management@@QEAAXA6AXAEAPEAPEA_W@Z@Z 000000018008cfb8 f i libucrtd:environment_initialization.obj
 0001:0008c034       ??0?$__crt_unique_heap_ptr@_WU__crt_internal_free_policy@@@@QEAA@QEA_W@Z 000000018008d034 f i libucrtd:environment_initialization.obj
 0001:0008c03c       ??1?$__crt_unique_heap_ptr@_WU__crt_internal_free_policy@@@@QEAA@XZ 000000018008d03c f i libucrtd:environment_initialization.obj
 0001:0008c05c       ??B?$__crt_unique_heap_ptr@PEADU__crt_internal_free_policy@@@@QEBA_NXZ 000000018008d05c f i libucrtd:environment_initialization.obj
 0001:0008c064       ??B?$__crt_unique_heap_ptr@PEA_WU__crt_internal_free_policy@@@@QEBA_NXZ 000000018008d064 f i libucrtd:environment_initialization.obj
 0001:0008c06c       ??B?$__crt_unique_heap_ptr@_WU__crt_internal_free_policy@@@@QEBA_NXZ 000000018008d06c f i libucrtd:environment_initialization.obj
 0001:0008c074       ?__crt_compute_required_transform_buffer_count@@YA_KIQEBD@Z 000000018008d074 f i libucrtd:environment_initialization.obj
 0001:0008c098       ?__crt_compute_required_transform_buffer_count@@YA_KIQEB_W@Z 000000018008d098 f i libucrtd:environment_initialization.obj
 0001:0008c0c8       ?__crt_transform_string@@YA_KIQEBDQEA_W_K@Z 000000018008d0c8 f i libucrtd:environment_initialization.obj
 0001:0008c0ec       ?__crt_transform_string@@YA_KIQEB_WQEAD_K@Z 000000018008d0ec f i libucrtd:environment_initialization.obj
 0001:0008c11c       ?detach@?$__crt_unique_heap_ptr@DU__crt_internal_free_policy@@@@QEAAPEADXZ 000000018008d11c f i libucrtd:environment_initialization.obj
 0001:0008c124       ?detach@?$__crt_unique_heap_ptr@_WU__crt_internal_free_policy@@@@QEAAPEA_WXZ 000000018008d124 f i libucrtd:environment_initialization.obj
 0001:0008c12c       ?get@?$__crt_unique_heap_ptr@_WU__crt_internal_free_policy@@@@QEBAPEA_WXZ 000000018008d12c f i libucrtd:environment_initialization.obj
 0001:0008c160       ?initialize@?$dual_state_global@PEAPEAD@__crt_state_management@@QEAAXQEAPEAD@Z 000000018008d160 f i libucrtd:environment_initialization.obj
 0001:0008c188       ?initialize@?$dual_state_global@PEAPEA_W@__crt_state_management@@QEAAXQEAPEA_W@Z 000000018008d188 f i libucrtd:environment_initialization.obj
 0001:0008c1b0       ?is_valid@?$__crt_unique_heap_ptr@PEADU__crt_internal_free_policy@@@@QEBA_NXZ 000000018008d1b0 f i libucrtd:environment_initialization.obj
 0001:0008c1b8       ?is_valid@?$__crt_unique_heap_ptr@PEA_WU__crt_internal_free_policy@@@@QEBA_NXZ 000000018008d1b8 f i libucrtd:environment_initialization.obj
 0001:0008c1c0       ?is_valid@?$__crt_unique_heap_ptr@_WU__crt_internal_free_policy@@@@QEBA_NXZ 000000018008d1c0 f i libucrtd:environment_initialization.obj
 0001:0008c1d4       ?release@?$__crt_unique_heap_ptr@_WU__crt_internal_free_policy@@@@QEAAXXZ 000000018008d1d4 f i libucrtd:environment_initialization.obj
 0001:0008c1f4       ?value@?$dual_state_global@PEAPEAD@__crt_state_management@@QEAAAEAPEAPEADXZ 000000018008d1f4 f i libucrtd:environment_initialization.obj
 0001:0008c1f8       ?value@?$dual_state_global@PEAPEA_W@__crt_state_management@@QEAAAEAPEAPEA_WXZ 000000018008d1f8 f i libucrtd:environment_initialization.obj
 0001:0008c1fc       __dcrt_get_or_create_narrow_environment_nolock 000000018008d1fc f   libucrtd:environment_initialization.obj
 0001:0008c238       __dcrt_get_or_create_wide_environment_nolock 000000018008d238 f   libucrtd:environment_initialization.obj
 0001:0008c274       __dcrt_uninitialize_environments_nolock 000000018008d274 f   libucrtd:environment_initialization.obj
 0001:0008c2ac       __p__environ               000000018008d2ac f   libucrtd:environment_initialization.obj
 0001:0008c2b4       __p__wenviron              000000018008d2b4 f   libucrtd:environment_initialization.obj
 0001:0008c2bc       _get_initial_narrow_environment 000000018008d2bc f   libucrtd:environment_initialization.obj
 0001:0008c30c       _get_initial_wide_environment 000000018008d30c f   libucrtd:environment_initialization.obj
 0001:0008c35c       _initialize_narrow_environment 000000018008d35c f   libucrtd:environment_initialization.obj
 0001:0008c364       _initialize_wide_environment 000000018008d364 f   libucrtd:environment_initialization.obj
 0001:0008c370       ??$?B$$A6AXXZ@__crt_fast_encoded_nullptr_t@@QEBAP6AXXZXZ 000000018008d370 f i libucrtd:onexit.obj
 0001:0008c390       ??$?BP6AXXZ@__crt_fast_encoded_nullptr_t@@QEBAPEAP6AXXZXZ 000000018008d390 f i libucrtd:onexit.obj
 0001:0008c3b0       ??$?RP6AXXZ@__crt_internal_free_policy@@QEBAXQEBQ6AXXZ@Z 000000018008d3b0 f i libucrtd:onexit.obj
 0001:0008c520       ??$__crt_fast_decode_pointer@P6AXXZ@@YAP6AXXZQ6AXXZ@Z 000000018008d520 f i libucrtd:onexit.obj
 0001:0008c560       ??$__crt_fast_decode_pointer@PEAP6AXXZ@@YAPEAP6AXXZQEAP6AXXZ@Z 000000018008d560 f i libucrtd:onexit.obj
 0001:0008c5a0       ??$__crt_fast_encode_pointer@P6AHXZ@@YAP6AHXZQ6AHXZ@Z 000000018008d5a0 f i libucrtd:onexit.obj
 0001:0008c5e0       ??$__crt_fast_encode_pointer@P6AXXZ@@YAP6AXXZQ6AXXZ@Z 000000018008d5e0 f i libucrtd:onexit.obj
 0001:0008c620       ??$__crt_fast_encode_pointer@PEAP6AXXZ@@YAPEAP6AXXZQEAP6AXXZ@Z 000000018008d620 f i libucrtd:onexit.obj
 0001:0008c730       ??0?$__crt_unique_heap_ptr@P6AXXZU__crt_internal_free_policy@@@@QEAA@QEAP6AXXZ@Z 000000018008d730 f i libucrtd:onexit.obj
 0001:0008c750       ??1?$__crt_unique_heap_ptr@P6AXXZU__crt_internal_free_policy@@@@QEAA@XZ 000000018008d750 f i libucrtd:onexit.obj
 0001:0008c770       ??1scoped_global_state_reset@__crt_state_management@@QEAA@XZ 000000018008d770 f i libucrtd:onexit.obj
 0001:0008cd40       ?detach@?$__crt_unique_heap_ptr@P6AXXZU__crt_internal_free_policy@@@@QEAAPEAP6AXXZXZ 000000018008dd40 f i libucrtd:onexit.obj
 0001:0008cd70       ?release@?$__crt_unique_heap_ptr@P6AXXZU__crt_internal_free_policy@@@@QEAAXXZ 000000018008dd70 f i libucrtd:onexit.obj
 0001:0008cda0       _crt_at_quick_exit         000000018008dda0 f   libucrtd:onexit.obj
 0001:0008cdc0       _crt_atexit                000000018008ddc0 f   libucrtd:onexit.obj
 0001:0008cde0       _execute_onexit_table      000000018008dde0 f   libucrtd:onexit.obj
 0001:0008ce20       _initialize_onexit_table   000000018008de20 f   libucrtd:onexit.obj
 0001:0008cea0       _register_onexit_function  000000018008dea0 f   libucrtd:onexit.obj
 0001:0008d110       ??$?BX@__crt_fast_encoded_nullptr_t@@QEBAPEAXXZ 000000018008e110 f i libucrtd:initialization.obj
 0001:0008d130       ??$__crt_fast_encode_pointer@PEAX@@YAPEAXQEAX@Z 000000018008e130 f i libucrtd:initialization.obj
 0001:0008d220       ?initialize@?$dual_state_global@PEAU__crt_locale_data@@@__crt_state_management@@QEAAXQEAU__crt_locale_data@@@Z 000000018008e220 f i libucrtd:initialization.obj
 0001:0008d270       __acrt_initialize          000000018008e270 f   libucrtd:initialization.obj
 0001:0008d2a0       __acrt_thread_attach       000000018008e2a0 f   libucrtd:initialization.obj
 0001:0008d2c0       __acrt_thread_detach       000000018008e2c0 f   libucrtd:initialization.obj
 0001:0008d2d0       __acrt_uninitialize        000000018008e2d0 f   libucrtd:initialization.obj
 0001:0008d300       __acrt_uninitialize_critical 000000018008e300 f   libucrtd:initialization.obj
 0001:0008f2f0       _CrtCheckMemory            00000001800902f0 f   libucrtd:debug_heap.obj
 0001:0008f480       _CrtDoForAllClientObjects  0000000180090480 f   libucrtd:debug_heap.obj
 0001:0008f5b0       _CrtDumpMemoryLeaks        00000001800905b0 f   libucrtd:debug_heap.obj
 0001:0008f670       _CrtGetAllocHook           0000000180090670 f   libucrtd:debug_heap.obj
 0001:0008f680       _CrtGetDumpClient          0000000180090680 f   libucrtd:debug_heap.obj
 0001:0008f690       _CrtIsMemoryBlock          0000000180090690 f   libucrtd:debug_heap.obj
 0001:0008f7d0       _CrtIsValidHeapPointer     00000001800907d0 f   libucrtd:debug_heap.obj
 0001:0008f810       _CrtIsValidPointer         0000000180090810 f   libucrtd:debug_heap.obj
 0001:0008f850       _CrtMemCheckpoint          0000000180090850 f   libucrtd:debug_heap.obj
 0001:0008fad0       _CrtMemDifference          0000000180090ad0 f   libucrtd:debug_heap.obj
 0001:0008fe30       _CrtMemDumpAllObjectsSince 0000000180090e30 f   libucrtd:debug_heap.obj
 0001:0008fe90       _CrtMemDumpStatistics      0000000180090e90 f   libucrtd:debug_heap.obj
 0001:00090030       _CrtReportBlockType        0000000180091030 f   libucrtd:debug_heap.obj
 0001:00090060       _CrtSetAllocHook           0000000180091060 f   libucrtd:debug_heap.obj
 0001:00090090       _CrtSetBreakAlloc          0000000180091090 f   libucrtd:debug_heap.obj
 0001:000900c0       _CrtSetDbgBlockType        00000001800910c0 f   libucrtd:debug_heap.obj
 0001:00090160       _CrtSetDbgFlag             0000000180091160 f   libucrtd:debug_heap.obj
 0001:000902c0       _CrtSetDumpClient          00000001800912c0 f   libucrtd:debug_heap.obj
 0001:000902f0       __p__crtBreakAlloc         00000001800912f0 f   libucrtd:debug_heap.obj
 0001:00090300       __p__crtDbgFlag            0000000180091300 f   libucrtd:debug_heap.obj
 0001:00090310       _aligned_free_dbg          0000000180091310 f   libucrtd:debug_heap.obj
 0001:00090400       _aligned_malloc_dbg        0000000180091400 f   libucrtd:debug_heap.obj
 0001:00090440       _aligned_msize_dbg         0000000180091440 f   libucrtd:debug_heap.obj
 0001:00090610       _aligned_offset_malloc_dbg 0000000180091610 f   libucrtd:debug_heap.obj
 0001:00090900       _aligned_offset_realloc_dbg 0000000180091900 f   libucrtd:debug_heap.obj
 0001:00090db0       _aligned_offset_recalloc_dbg 0000000180091db0 f   libucrtd:debug_heap.obj
 0001:00090ed0       _aligned_realloc_dbg       0000000180091ed0 f   libucrtd:debug_heap.obj
 0001:00090f20       _aligned_recalloc_dbg      0000000180091f20 f   libucrtd:debug_heap.obj
 0001:00090f80       _calloc_dbg                0000000180091f80 f   libucrtd:debug_heap.obj
 0001:00091020       _expand_dbg                0000000180092020 f   libucrtd:debug_heap.obj
 0001:00091150       _free_dbg                  0000000180092150 f   libucrtd:debug_heap.obj
 0001:000911c0       _malloc_dbg                00000001800921c0 f   libucrtd:debug_heap.obj
 0001:00091200       _msize_dbg                 0000000180092200 f   libucrtd:debug_heap.obj
 0001:000913a0       _realloc_dbg               00000001800923a0 f   libucrtd:debug_heap.obj
 0001:00091410       _recalloc_dbg              0000000180092410 f   libucrtd:debug_heap.obj
 0001:00091510       _initterm                  0000000180092510 f   libucrtd:initterm.obj
 0001:00091570       _initterm_e                0000000180092570 f   libucrtd:initterm.obj
 0001:00091ac0       strcpy_s                   0000000180092ac0 f   libucrtd:strcpy_s.obj
 0001:00092160       strcat_s                   0000000180093160 f   libucrtd:strcat_s.obj
 0001:00092190       ??$?B$$A6AH_K@Z@__crt_fast_encoded_nullptr_t@@QEBAP6AH_K@ZXZ 0000000180093190 f i libucrtd:new_handler.obj
 0001:000921b0       ??$__crt_fast_decode_pointer@P6AH_K@Z@@YAP6AH_K@ZQ6AH0@Z@Z 00000001800931b0 f i libucrtd:new_handler.obj
 0001:000921f0       ??$__crt_fast_encode_pointer@P6AH_K@Z@@YAP6AH_K@ZQ6AH0@Z@Z 00000001800931f0 f i libucrtd:new_handler.obj
 0001:00092230       ?_set_new_handler@@YAP6AH_K@ZH@Z 0000000180093230 f   libucrtd:new_handler.obj
 0001:000922a0       ?initialize@?$dual_state_global@P6AH_K@Z@__crt_state_management@@QEAAXQ6AH_K@Z@Z 00000001800932a0 f i libucrtd:new_handler.obj
 0001:000922f0       ?value@?$dual_state_global@P6AH_K@Z@__crt_state_management@@QEAAAEAP6AH_K@ZXZ 00000001800932f0 f i libucrtd:new_handler.obj
 0001:00092310       __acrt_initialize_new_handler 0000000180093310 f   libucrtd:new_handler.obj
 0001:00092330       _callnewh                  0000000180093330 f   libucrtd:new_handler.obj
 0001:00092380       _query_new_handler         0000000180093380 f   libucrtd:new_handler.obj
 0001:000923c0       _set_new_handler           00000001800933c0 f   libucrtd:new_handler.obj
 0001:00092470       _get_terminate             0000000180093470 f   libucrtd:terminate.obj
 0001:00092490       set_terminate              0000000180093490 f   libucrtd:terminate.obj
 0001:000924d0       terminate                  00000001800934d0 f   libucrtd:terminate.obj
 0001:000932d0       _makepath                  00000001800942d0 f   libucrtd:makepath.obj
 0001:00093320       _makepath_s                0000000180094320 f   libucrtd:makepath.obj
 0001:00093370       _wmakepath                 0000000180094370 f   libucrtd:makepath.obj
 0001:000933c0       _wmakepath_s               00000001800943c0 f   libucrtd:makepath.obj
 0001:000959f0       ??$tcsncpy_s@AEAPEAD_KAEAPEBDAEB_K@?$__crt_char_traits@D@@SAHAEAPEAD$$QEA_KAEAPEBDAEB_K@Z 00000001800969f0 f i libucrtd:splitpath.obj
 0001:00095a40       ??$tcsncpy_s@AEAPEAD_KAEAPEBDH@?$__crt_char_traits@D@@SAHAEAPEAD$$QEA_KAEAPEBD$$QEAH@Z 0000000180096a40 f i libucrtd:splitpath.obj
 0001:00095a90       ??$tcsncpy_s@AEAPEA_W_KAEAPEB_WAEB_K@?$__crt_char_traits@_W@@SAHAEAPEA_W$$QEA_KAEAPEB_WAEB_K@Z 0000000180096a90 f i libucrtd:splitpath.obj
 0001:00095ae0       ??$tcsncpy_s@AEAPEA_W_KAEAPEB_WH@?$__crt_char_traits@_W@@SAHAEAPEA_W$$QEA_KAEAPEB_W$$QEAH@Z 0000000180096ae0 f i libucrtd:splitpath.obj
 0001:00095d90       _splitpath                 0000000180096d90 f   libucrtd:splitpath.obj
 0001:00095dd0       _splitpath_s               0000000180096dd0 f   libucrtd:splitpath.obj
 0001:00095e70       _wsplitpath                0000000180096e70 f   libucrtd:splitpath.obj
 0001:00095eb0       _wsplitpath_s              0000000180096eb0 f   libucrtd:splitpath.obj
 0001:00095f50       _set_abort_behavior        0000000180096f50 f   libucrtd:abort.obj
 0001:00095f90       abort                      0000000180096f90 f   libucrtd:abort.obj
 0001:00096020       strcmp                     0000000180097020 f   libucrtd:strcmp.obj
 0001:000960a0       strlen                     00000001800970a0 f   libucrtd:strlen.obj
 0001:00096150       ??$is_overflow_condition@K@__crt_strtox@@YA_NIK@Z 0000000180097150 f i libucrtd:atox.obj
 0001:000961c0       ??$is_overflow_condition@_K@__crt_strtox@@YA_NI_K@Z 00000001800971c0 f i libucrtd:atox.obj
 0001:00096230       ??$make_c_string_character_source@D$$T@__crt_strtox@@YA?AV?$c_string_character_source@D@0@QEBD$$T@Z 0000000180097230 f i libucrtd:atox.obj
 0001:00096270       ??$make_c_string_character_source@_W$$T@__crt_strtox@@YA?AV?$c_string_character_source@_W@0@QEB_W$$T@Z 0000000180097270 f i libucrtd:atox.obj
 0001:000962b0       ??$parse_integer@KV?$c_string_character_source@D@__crt_strtox@@@__crt_strtox@@YAKQEAU__crt_locale_pointers@@V?$c_string_character_source@D@0@H_N@Z 00000001800972b0 f i libucrtd:atox.obj
 0001:00096740       ??$parse_integer@KV?$c_string_character_source@_W@__crt_strtox@@@__crt_strtox@@YAKQEAU__crt_locale_pointers@@V?$c_string_character_source@_W@0@H_N@Z 0000000180097740 f i libucrtd:atox.obj
 0001:00096bf0       ??$parse_integer@_KV?$c_string_character_source@D@__crt_strtox@@@__crt_strtox@@YA_KQEAU__crt_locale_pointers@@V?$c_string_character_source@D@0@H_N@Z 0000000180097bf0 f i libucrtd:atox.obj
 0001:00097110       ??$parse_integer@_KV?$c_string_character_source@_W@__crt_strtox@@@__crt_strtox@@YA_KQEAU__crt_locale_pointers@@V?$c_string_character_source@_W@0@H_N@Z 0000000180098110 f i libucrtd:atox.obj
 0001:00097630       ??$parse_integer_from_string@JD$$T@__crt_strtox@@YAJQEBD$$THQEAU__crt_locale_pointers@@@Z 0000000180098630 f i libucrtd:atox.obj
 0001:00097680       ??$parse_integer_from_string@J_W$$T@__crt_strtox@@YAJQEB_W$$THQEAU__crt_locale_pointers@@@Z 0000000180098680 f i libucrtd:atox.obj
 0001:000976d0       ??$parse_integer_from_string@_JD$$T@__crt_strtox@@YA_JQEBD$$THQEAU__crt_locale_pointers@@@Z 00000001800986d0 f i libucrtd:atox.obj
 0001:00097720       ??$parse_integer_from_string@_J_W$$T@__crt_strtox@@YA_JQEB_W$$THQEAU__crt_locale_pointers@@@Z 0000000180098720 f i libucrtd:atox.obj
 0001:00097770       ??0?$c_string_character_source@D@__crt_strtox@@QEAA@QEBDQEAPEBD@Z 0000000180098770 f i libucrtd:atox.obj
 0001:000977c0       ??0?$c_string_character_source@_W@__crt_strtox@@QEAA@QEB_WQEAPEB_W@Z 00000001800987c0 f i libucrtd:atox.obj
 0001:00097810       ??1?$c_string_character_source@D@__crt_strtox@@QEAA@XZ 0000000180098810 f i libucrtd:atox.obj
 0001:00097840       ??1?$c_string_character_source@_W@__crt_strtox@@QEAA@XZ 0000000180098840 f i libucrtd:atox.obj
 0001:00097870       ?get@?$c_string_character_source@D@__crt_strtox@@QEAADXZ 0000000180098870 f i libucrtd:atox.obj
 0001:000978b0       ?get@?$c_string_character_source@_W@__crt_strtox@@QEAA_WXZ 00000001800988b0 f i libucrtd:atox.obj
 0001:000978f0       ?is_space@__crt_strtox@@YA_NDQEAU__crt_locale_pointers@@@Z 00000001800988f0 f i libucrtd:atox.obj
 0001:00097940       ?is_space@__crt_strtox@@YA_N_WPEAU__crt_locale_pointers@@@Z 0000000180098940 f i libucrtd:atox.obj
 0001:00097980       ?maximum_signed_value@__crt_strtox@@YAJK@Z 0000000180098980 f i libucrtd:atox.obj
 0001:00097990       ?maximum_signed_value@__crt_strtox@@YA_J_K@Z 0000000180098990 f i libucrtd:atox.obj
 0001:000979a0       ?minimum_signed_value@__crt_strtox@@YAJK@Z 00000001800989a0 f i libucrtd:atox.obj
 0001:000979b0       ?minimum_signed_value@__crt_strtox@@YA_J_K@Z 00000001800989b0 f i libucrtd:atox.obj
 0001:000979c0       ?parse_digit@__crt_strtox@@YAID@Z 00000001800989c0 f i libucrtd:atox.obj
 0001:00097a30       ?parse_digit@__crt_strtox@@YAI_W@Z 0000000180098a30 f i libucrtd:atox.obj
 0001:00097a80       ?restore_state@?$c_string_character_source@D@__crt_strtox@@QEAA_NQEBD@Z 0000000180098a80 f i libucrtd:atox.obj
 0001:00097aa0       ?restore_state@?$c_string_character_source@_W@__crt_strtox@@QEAA_NQEB_W@Z 0000000180098aa0 f i libucrtd:atox.obj
 0001:00097ac0       ?save_state@?$c_string_character_source@D@__crt_strtox@@QEBAPEBDXZ 0000000180098ac0 f i libucrtd:atox.obj
 0001:00097ad0       ?save_state@?$c_string_character_source@_W@__crt_strtox@@QEBAPEB_WXZ 0000000180098ad0 f i libucrtd:atox.obj
 0001:00097ae0       ?unget@?$c_string_character_source@D@__crt_strtox@@QEAAXD@Z 0000000180098ae0 f i libucrtd:atox.obj
 0001:00097bc0       ?unget@?$c_string_character_source@_W@__crt_strtox@@QEAAX_W@Z 0000000180098bc0 f i libucrtd:atox.obj
 0001:00097ca0       ?validate@?$c_string_character_source@D@__crt_strtox@@QEBA_NXZ 0000000180098ca0 f i libucrtd:atox.obj
 0001:00097d60       ?validate@?$c_string_character_source@_W@__crt_strtox@@QEBA_NXZ 0000000180098d60 f i libucrtd:atox.obj
 0001:00097e20       ?wide_character_to_digit@__crt_strtox@@YAH_W@Z 0000000180098e20 f i libucrtd:atox.obj
 0001:00098190       __ascii_iswalpha           0000000180099190 f i libucrtd:atox.obj
 0001:000981d0       __ascii_toupper            00000001800991d0 f i libucrtd:atox.obj
 0001:000981f0       __ascii_towupper           00000001800991f0 f i libucrtd:atox.obj
 0001:00098210       _atoi64                    0000000180099210 f   libucrtd:atox.obj
 0001:00098240       _atoi64_l                  0000000180099240 f   libucrtd:atox.obj
 0001:00098270       _atoi_l                    0000000180099270 f   libucrtd:atox.obj
 0001:000982a0       _atol_l                    00000001800992a0 f   libucrtd:atox.obj
 0001:000982d0       _atoll_l                   00000001800992d0 f   libucrtd:atox.obj
 0001:00098300       _wtoi                      0000000180099300 f   libucrtd:atox.obj
 0001:00098330       _wtoi64                    0000000180099330 f   libucrtd:atox.obj
 0001:00098360       _wtoi64_l                  0000000180099360 f   libucrtd:atox.obj
 0001:00098390       _wtoi_l                    0000000180099390 f   libucrtd:atox.obj
 0001:000983c0       _wtol                      00000001800993c0 f   libucrtd:atox.obj
 0001:000983f0       _wtol_l                    00000001800993f0 f   libucrtd:atox.obj
 0001:00098420       _wtoll                     0000000180099420 f   libucrtd:atox.obj
 0001:00098450       _wtoll_l                   0000000180099450 f   libucrtd:atox.obj
 0001:00098480       atoi                       0000000180099480 f   libucrtd:atox.obj
 0001:000984b0       atol                       00000001800994b0 f   libucrtd:atox.obj
 0001:000984e0       atoll                      00000001800994e0 f   libucrtd:atox.obj
 0001:00098520       strncmp                    0000000180099520 f   libucrtd:strncmp.obj
 0001:000985a0       wcsncmp                    00000001800995a0 f   libucrtd:wcsncmp.obj
 0001:00098630       _CrtGetDebugFillThreshold  0000000180099630 f   libucrtd:debug_fill_threshold.obj
 0001:00098640       _CrtSetDebugFillThreshold  0000000180099640 f   libucrtd:debug_fill_threshold.obj
 0001:00098670       ??$make_c_string_character_source@DPEAPEAD@__crt_strtox@@YA?AV?$c_string_character_source@D@0@QEBDQEAPEAD@Z 0000000180099670 f i libucrtd:strtox.obj
 0001:000986b0       ??$make_c_string_character_source@_WPEAPEA_W@__crt_strtox@@YA?AV?$c_string_character_source@_W@0@QEB_WQEAPEA_W@Z 00000001800996b0 f i libucrtd:strtox.obj
 0001:000986f0       ??$parse_integer_from_string@JDPEAPEAD@__crt_strtox@@YAJQEBDQEAPEADHQEAU__crt_locale_pointers@@@Z 00000001800996f0 f i libucrtd:strtox.obj
 0001:00098740       ??$parse_integer_from_string@J_WPEAPEA_W@__crt_strtox@@YAJQEB_WQEAPEA_WHQEAU__crt_locale_pointers@@@Z 0000000180099740 f i libucrtd:strtox.obj
 0001:00098790       ??$parse_integer_from_string@KDPEAPEAD@__crt_strtox@@YAKQEBDQEAPEADHQEAU__crt_locale_pointers@@@Z 0000000180099790 f i libucrtd:strtox.obj
 0001:000987e0       ??$parse_integer_from_string@K_WPEAPEA_W@__crt_strtox@@YAKQEB_WQEAPEA_WHQEAU__crt_locale_pointers@@@Z 00000001800997e0 f i libucrtd:strtox.obj
 0001:00098830       ??$parse_integer_from_string@_JDPEAPEAD@__crt_strtox@@YA_JQEBDQEAPEADHQEAU__crt_locale_pointers@@@Z 0000000180099830 f i libucrtd:strtox.obj
 0001:00098880       ??$parse_integer_from_string@_J_WPEAPEA_W@__crt_strtox@@YA_JQEB_WQEAPEA_WHQEAU__crt_locale_pointers@@@Z 0000000180099880 f i libucrtd:strtox.obj
 0001:000988d0       ??$parse_integer_from_string@_KDPEAPEAD@__crt_strtox@@YA_KQEBDQEAPEADHQEAU__crt_locale_pointers@@@Z 00000001800998d0 f i libucrtd:strtox.obj
 0001:00098920       ??$parse_integer_from_string@_K_WPEAPEA_W@__crt_strtox@@YA_KQEB_WQEAPEA_WHQEAU__crt_locale_pointers@@@Z 0000000180099920 f i libucrtd:strtox.obj
 0001:00098970       _strtoi64                  0000000180099970 f   libucrtd:strtox.obj
 0001:000989a0       _strtoi64_l                00000001800999a0 f   libucrtd:strtox.obj
 0001:000989e0       _strtoimax_l               00000001800999e0 f   libucrtd:strtox.obj
 0001:00098a20       _strtol_l                  0000000180099a20 f   libucrtd:strtox.obj
 0001:00098a60       _strtoll_l                 0000000180099a60 f   libucrtd:strtox.obj
 0001:00098aa0       _strtoui64                 0000000180099aa0 f   libucrtd:strtox.obj
 0001:00098ad0       _strtoui64_l               0000000180099ad0 f   libucrtd:strtox.obj
 0001:00098b10       _strtoul_l                 0000000180099b10 f   libucrtd:strtox.obj
 0001:00098b50       _strtoull_l                0000000180099b50 f   libucrtd:strtox.obj
 0001:00098b90       _strtoumax_l               0000000180099b90 f   libucrtd:strtox.obj
 0001:00098bd0       _wcstoi64                  0000000180099bd0 f   libucrtd:strtox.obj
 0001:00098c00       _wcstoi64_l                0000000180099c00 f   libucrtd:strtox.obj
 0001:00098c40       _wcstoimax_l               0000000180099c40 f   libucrtd:strtox.obj
 0001:00098c80       _wcstol_l                  0000000180099c80 f   libucrtd:strtox.obj
 0001:00098cc0       _wcstoll_l                 0000000180099cc0 f   libucrtd:strtox.obj
 0001:00098d00       _wcstoui64                 0000000180099d00 f   libucrtd:strtox.obj
 0001:00098d30       _wcstoui64_l               0000000180099d30 f   libucrtd:strtox.obj
 0001:00098d70       _wcstoul_l                 0000000180099d70 f   libucrtd:strtox.obj
 0001:00098db0       _wcstoull_l                0000000180099db0 f   libucrtd:strtox.obj
 0001:00098df0       _wcstoumax_l               0000000180099df0 f   libucrtd:strtox.obj
 0001:00098e30       strtoimax                  0000000180099e30 f   libucrtd:strtox.obj
 0001:00098e60       strtol                     0000000180099e60 f   libucrtd:strtox.obj
 0001:00098e90       strtoll                    0000000180099e90 f   libucrtd:strtox.obj
 0001:00098ec0       strtoul                    0000000180099ec0 f   libucrtd:strtox.obj
 0001:00098ef0       strtoull                   0000000180099ef0 f   libucrtd:strtox.obj
 0001:00098f20       strtoumax                  0000000180099f20 f   libucrtd:strtox.obj
 0001:00098f50       wcstoimax                  0000000180099f50 f   libucrtd:strtox.obj
 0001:00098f80       wcstol                     0000000180099f80 f   libucrtd:strtox.obj
 0001:00098fb0       wcstoll                    0000000180099fb0 f   libucrtd:strtox.obj
 0001:00098fe0       wcstoul                    0000000180099fe0 f   libucrtd:strtox.obj
 0001:00099010       wcstoull                   000000018009a010 f   libucrtd:strtox.obj
 0001:00099040       wcstoumax                  000000018009a040 f   libucrtd:strtox.obj
 0001:00099070       _mbtowc_l                  000000018009a070 f   libucrtd:mbtowc.obj
 0001:000994d0       mbtowc                     000000018009a4d0 f   libucrtd:mbtowc.obj
 0001:00099500       _wctomb_l                  000000018009a500 f   libucrtd:wctomb.obj
 0001:000995c0       _wctomb_s_l                000000018009a5c0 f   libucrtd:wctomb.obj
 0001:00099b40       wctomb                     000000018009ab40 f   libucrtd:wctomb.obj
 0001:00099ba0       wctomb_s                   000000018009aba0 f   libucrtd:wctomb.obj
 0001:00099bf0       ??$?RU__acrt_ptd@@@__crt_internal_free_policy@@QEBAXQEBU__acrt_ptd@@@Z 000000018009abf0 f i libucrtd:per_thread_data.obj
 0001:00099ff0       ??0?$__crt_unique_heap_ptr@U__acrt_ptd@@U__crt_internal_free_policy@@@@QEAA@QEAU__acrt_ptd@@@Z 000000018009aff0 f i libucrtd:per_thread_data.obj
 0001:0009a010       ??0__crt_scoped_get_last_error_reset@@QEAA@XZ 000000018009b010 f i libucrtd:per_thread_data.obj
 0001:0009a030       ??1?$__crt_unique_heap_ptr@U__acrt_ptd@@U__crt_internal_free_policy@@@@QEAA@XZ 000000018009b030 f i libucrtd:per_thread_data.obj
 0001:0009a050       ??1__crt_scoped_get_last_error_reset@@QEAA@XZ 000000018009b050 f i libucrtd:per_thread_data.obj
 0001:0009a070       ??B?$__crt_unique_heap_ptr@U__acrt_ptd@@U__crt_internal_free_policy@@@@QEBA_NXZ 000000018009b070 f i libucrtd:per_thread_data.obj
 0001:0009a3c0       ?dangerous_get_state_array@?$dual_state_global@PEAU__crt_locale_data@@@__crt_state_management@@QEAAPEAPEAU__crt_locale_data@@XZ 000000018009b3c0 f i libucrtd:per_thread_data.obj
 0001:0009a580       ?detach@?$__crt_unique_heap_ptr@U__acrt_ptd@@U__crt_internal_free_policy@@@@QEAAPEAU__acrt_ptd@@XZ 000000018009b580 f i libucrtd:per_thread_data.obj
 0001:0009a5b0       ?get@?$__crt_unique_heap_ptr@U__acrt_ptd@@U__crt_internal_free_policy@@@@QEBAPEAU__acrt_ptd@@XZ 000000018009b5b0 f i libucrtd:per_thread_data.obj
 0001:0009a5c0       ?get_current_state_index@__crt_state_management@@YA_KAEBV__crt_scoped_get_last_error_reset@@@Z 000000018009b5c0 f i libucrtd:per_thread_data.obj
 0001:0009a770       ?is_valid@?$__crt_unique_heap_ptr@U__acrt_ptd@@U__crt_internal_free_policy@@@@QEBA_NXZ 000000018009b770 f i libucrtd:per_thread_data.obj
 0001:0009a7a0       ?release@?$__crt_unique_heap_ptr@U__acrt_ptd@@U__crt_internal_free_policy@@@@QEAAXXZ 000000018009b7a0 f i libucrtd:per_thread_data.obj
 0001:0009a8d0       ?value@?$dual_state_global@PEAU__crt_locale_data@@@__crt_state_management@@QEAAAEAPEAU__crt_locale_data@@XZ 000000018009b8d0 f i libucrtd:per_thread_data.obj
 0001:0009a8f0       __acrt_freeptd             000000018009b8f0 f   libucrtd:per_thread_data.obj
 0001:0009a930       __acrt_getptd              000000018009b930 f   libucrtd:per_thread_data.obj
 0001:0009a960       __acrt_getptd_head         000000018009b960 f   libucrtd:per_thread_data.obj
 0001:0009a990       __acrt_getptd_noexit       000000018009b990 f   libucrtd:per_thread_data.obj
 0001:0009a9a0       __acrt_initialize_ptd      000000018009b9a0 f   libucrtd:per_thread_data.obj
 0001:0009a9e0       __acrt_uninitialize_ptd    000000018009b9e0 f   libucrtd:per_thread_data.obj
 0001:0009aa10       __threadhandle             000000018009ba10 f   libucrtd:per_thread_data.obj
 0001:0009aa20       __threadid                 000000018009ba20 f   libucrtd:per_thread_data.obj
 0001:0009aa30       ?value@?$dual_state_global@PEAU__crt_multibyte_data@@@__crt_state_management@@QEAAAEAPEAU__crt_multibyte_data@@XZ 000000018009ba30 f i libucrtd:locale_update.obj
 0001:0009aa50       __acrt_update_locale_info  000000018009ba50 f   libucrtd:locale_update.obj
 0001:0009aaa0       __acrt_update_multibyte_info 000000018009baa0 f   libucrtd:locale_update.obj
 0001:0009aaf0       ?__acrt_fp_classify@@YA?AW4__acrt_fp_class@@AEBN@Z 000000018009baf0 f i libucrtd:cvt.obj
 0001:0009abf0       ?__acrt_fp_is_negative@@YA_NAEBN@Z 000000018009bbf0 f i libucrtd:cvt.obj
 0001:0009c2a0       ?strrchr@@YAPEADQEADH@Z    000000018009d2a0 f i libucrtd:cvt.obj
 0001:0009c2c0       __acrt_fp_format           000000018009d2c0 f   libucrtd:cvt.obj
 0001:0009c930       _fputwc_nolock             000000018009d930 f   libucrtd:fputwc.obj
 0001:0009cba0       _fputwchar                 000000018009dba0 f   libucrtd:fputwc.obj
 0001:0009cbd0       _putwc_nolock              000000018009dbd0 f   libucrtd:fputwc.obj
 0001:0009cc00       fputwc                     000000018009dc00 f   libucrtd:fputwc.obj
 0001:0009ccf0       putwc                      000000018009dcf0 f   libucrtd:fputwc.obj
 0001:0009cd20       putwchar                   000000018009dd20 f   libucrtd:fputwc.obj
 0001:0009cd40       ?lowio_handle@__crt_stdio_stream@@QEBAHXZ 000000018009dd40 f i libucrtd:fileno.obj
 0001:0009cd70       _fileno                    000000018009dd70 f   libucrtd:fileno.obj
 0001:0009ce50       ??$?RPEAU__crt_stdio_stream_data@@@__crt_internal_free_policy@@QEBAXQEBQEAU__crt_stdio_stream_data@@@Z 000000018009de50 f i libucrtd:_file.obj
 0001:0009ce80       ??0?$__crt_unique_heap_ptr@PEAU__crt_stdio_stream_data@@U__crt_internal_free_policy@@@@QEAA@QEAPEAU__crt_stdio_stream_data@@@Z 000000018009de80 f i libucrtd:_file.obj
 0001:0009cea0       ??1?$__crt_unique_heap_ptr@PEAU__crt_stdio_stream_data@@U__crt_internal_free_policy@@@@QEAA@XZ 000000018009dea0 f i libucrtd:_file.obj
 0001:0009cec0       ?detach@?$__crt_unique_heap_ptr@PEAU__crt_stdio_stream_data@@U__crt_internal_free_policy@@@@QEAAPEAPEAU__crt_stdio_stream_data@@XZ 000000018009dec0 f i libucrtd:_file.obj
 0001:0009cef0       ?release@?$__crt_unique_heap_ptr@PEAU__crt_stdio_stream_data@@U__crt_internal_free_policy@@@@QEAAXXZ 000000018009def0 f i libucrtd:_file.obj
 0001:0009cf20       __acrt_initialize_stdio    000000018009df20 f   libucrtd:_file.obj
 0001:0009d110       __acrt_iob_func            000000018009e110 f   libucrtd:_file.obj
 0001:0009d130       __acrt_uninitialize_stdio  000000018009e130 f   libucrtd:_file.obj
 0001:0009d1c0       _get_stream_buffer_pointers 000000018009e1c0 f   libucrtd:_file.obj
 0001:0009d2f0       _lock_file                 000000018009e2f0 f   libucrtd:_file.obj
 0001:0009d330       _unlock_file               000000018009e330 f   libucrtd:_file.obj
 0001:0009d370       _get_printf_count_output   000000018009e370 f   libucrtd:printf_count_output.obj
 0001:0009d3a0       _set_printf_count_output   000000018009e3a0 f   libucrtd:printf_count_output.obj
 0001:0009d410       ?has_any_buffer@__crt_stdio_stream@@QEBA_NXZ 000000018009e410 f i libucrtd:_sftbuf.obj
 0001:0009d430       ?has_any_of@__crt_stdio_stream@@QEBA_NJ@Z 000000018009e430 f i libucrtd:_sftbuf.obj
 0001:0009d470       ?has_temporary_buffer@__crt_stdio_stream@@QEBA_NXZ 000000018009e470 f i libucrtd:_sftbuf.obj
 0001:0009d490       ?set_flags@__crt_stdio_stream@@QEBA_NJ@Z 000000018009e490 f i libucrtd:_sftbuf.obj
 0001:0009d500       ?unset_flags@__crt_stdio_stream@@QEBA_NJ@Z 000000018009e500 f i libucrtd:_sftbuf.obj
 0001:0009d560       __acrt_stdio_begin_temporary_buffering_nolock 000000018009e560 f   libucrtd:_sftbuf.obj
 0001:0009d7a0       __acrt_stdio_end_temporary_buffering_nolock 000000018009e7a0 f   libucrtd:_sftbuf.obj
 0001:0009d850       ??$?RU__crt_locale_data@@@__crt_internal_free_policy@@QEBAXQEBU__crt_locale_data@@@Z 000000018009e850 f i libucrtd:wsetlocale.obj
 0001:0009d880       ??$?RU__crt_locale_pointers@@@__crt_internal_free_policy@@QEBAXQEBU__crt_locale_pointers@@@Z 000000018009e880 f i libucrtd:wsetlocale.obj
 0001:0009d8b0       ??$?RU__crt_multibyte_data@@@__crt_internal_free_policy@@QEBAXQEBU__crt_multibyte_data@@@Z 000000018009e8b0 f i libucrtd:wsetlocale.obj
 0001:0009de10       ??0?$__crt_unique_heap_ptr@U__crt_locale_data@@U__crt_internal_free_policy@@@@QEAA@QEAU__crt_locale_data@@@Z 000000018009ee10 f i libucrtd:wsetlocale.obj
 0001:0009de30       ??0?$__crt_unique_heap_ptr@U__crt_locale_pointers@@U__crt_internal_free_policy@@@@QEAA@QEAU__crt_locale_pointers@@@Z 000000018009ee30 f i libucrtd:wsetlocale.obj
 0001:0009de50       ??0?$__crt_unique_heap_ptr@U__crt_multibyte_data@@U__crt_internal_free_policy@@@@QEAA@QEAU__crt_multibyte_data@@@Z 000000018009ee50 f i libucrtd:wsetlocale.obj
 0001:0009de70       ??0_expandlocale_locale_name_cache@@QEAA@QEA_W_KQEAU__crt_qualified_locale_data@@@Z 000000018009ee70 f i libucrtd:wsetlocale.obj
 0001:0009df20       ??1?$__crt_unique_heap_ptr@U__crt_locale_data@@U__crt_internal_free_policy@@@@QEAA@XZ 000000018009ef20 f i libucrtd:wsetlocale.obj
 0001:0009df40       ??1?$__crt_unique_heap_ptr@U__crt_locale_pointers@@U__crt_internal_free_policy@@@@QEAA@XZ 000000018009ef40 f i libucrtd:wsetlocale.obj
 0001:0009df60       ??1?$__crt_unique_heap_ptr@U__crt_multibyte_data@@U__crt_internal_free_policy@@@@QEAA@XZ 000000018009ef60 f i libucrtd:wsetlocale.obj
 0001:0009df80       ??1_expandlocale_locale_name_cache@@QEAA@XZ 000000018009ef80 f i libucrtd:wsetlocale.obj
 0001:0009e000       ??B?$__crt_unique_heap_ptr@U__crt_locale_data@@U__crt_internal_free_policy@@@@QEBA_NXZ 000000018009f000 f i libucrtd:wsetlocale.obj
 0001:0009e020       ??B?$__crt_unique_heap_ptr@U__crt_locale_pointers@@U__crt_internal_free_policy@@@@QEBA_NXZ 000000018009f020 f i libucrtd:wsetlocale.obj
 0001:0009e040       ??B?$__crt_unique_heap_ptr@U__crt_multibyte_data@@U__crt_internal_free_policy@@@@QEBA_NXZ 000000018009f040 f i libucrtd:wsetlocale.obj
 0001:0009e4f0       ?commit_locale_name@_expandlocale_locale_name_cache@@QEAAXQEB_W_K@Z 000000018009f4f0 f i libucrtd:wsetlocale.obj
 0001:0009e570       ?commit_locale_name_cache_already_updated@_expandlocale_locale_name_cache@@QEAAXQEB_W_K@Z 000000018009f570 f i libucrtd:wsetlocale.obj
 0001:0009e5e0       ?detach@?$__crt_unique_heap_ptr@U__crt_locale_data@@U__crt_internal_free_policy@@@@QEAAPEAU__crt_locale_data@@XZ 000000018009f5e0 f i libucrtd:wsetlocale.obj
 0001:0009e610       ?detach@?$__crt_unique_heap_ptr@U__crt_locale_pointers@@U__crt_internal_free_policy@@@@QEAAPEAU__crt_locale_pointers@@XZ 000000018009f610 f i libucrtd:wsetlocale.obj
 0001:0009e640       ?detach@?$__crt_unique_heap_ptr@U__crt_multibyte_data@@U__crt_internal_free_policy@@@@QEAAPEAU__crt_multibyte_data@@XZ 000000018009f640 f i libucrtd:wsetlocale.obj
 0001:0009e670       ?get@?$__crt_unique_heap_ptr@U__crt_locale_data@@U__crt_internal_free_policy@@@@QEBAPEAU__crt_locale_data@@XZ 000000018009f670 f i libucrtd:wsetlocale.obj
 0001:0009e680       ?get@?$__crt_unique_heap_ptr@U__crt_locale_pointers@@U__crt_internal_free_policy@@@@QEBAPEAU__crt_locale_pointers@@XZ 000000018009f680 f i libucrtd:wsetlocale.obj
 0001:0009e690       ?get@?$__crt_unique_heap_ptr@U__crt_multibyte_data@@U__crt_internal_free_policy@@@@QEBAPEAU__crt_multibyte_data@@XZ 000000018009f690 f i libucrtd:wsetlocale.obj
 0001:0009e6a0       ?is_valid@?$__crt_unique_heap_ptr@U__crt_locale_data@@U__crt_internal_free_policy@@@@QEBA_NXZ 000000018009f6a0 f i libucrtd:wsetlocale.obj
 0001:0009e6d0       ?is_valid@?$__crt_unique_heap_ptr@U__crt_locale_pointers@@U__crt_internal_free_policy@@@@QEBA_NXZ 000000018009f6d0 f i libucrtd:wsetlocale.obj
 0001:0009e700       ?is_valid@?$__crt_unique_heap_ptr@U__crt_multibyte_data@@U__crt_internal_free_policy@@@@QEBA_NXZ 000000018009f700 f i libucrtd:wsetlocale.obj
