 Opos_Interfaces

 Timestamp is 5ed45a58 (Mon Jun  1 10:31:04 2020)

 Preferred load address is 0000000180000000

 Start         Length     Name                   Class
 0001:00000000 00000a00H .text$di                CODE
 0001:00000a00 000a7fc0H .text$mn                CODE
 0001:000a89c0 00000040H .text$mn$00             CODE
 0001:000a8a00 00001050H .text$x                 CODE
 0001:000a9a50 000000f4H .text$yd                CODE
 0002:00000000 000003d0H .idata$5                DATA
 0002:000003d0 00000028H .00cfg                  DATA
 0002:000003f8 00000008H .CRT$XCA                DATA
 0002:00000400 00000008H .CRT$XCL                DATA
 0002:00000408 000000d0H .CRT$XCU                DATA
 0002:000004d8 00000008H .CRT$XCZ                DATA
 0002:000004e0 00000008H .CRT$XIA                DATA
 0002:000004e8 00000018H .CRT$XIC                DATA
 0002:00000500 00000008H .CRT$XIZ                DATA
 0002:00000508 00000008H .CRT$XPA                DATA
 0002:00000510 00000010H .CRT$XPX                DATA
 0002:00000520 00000008H .CRT$XPXA               DATA
 0002:00000528 00000008H .CRT$XPZ                DATA
 0002:00000530 00000008H .CRT$XTA                DATA
 0002:00000538 00000008H .CRT$XTZ                DATA
 0002:00000540 00000000H .gfids$y                DATA
 0002:00000540 0002a420H .rdata                  DATA
 0002:0002a960 0000056cH .rdata$r                DATA
 0002:0002aecc 000003c4H .rdata$zzzdbg           DATA
 0002:0002b290 00000008H .rtc$IAA                DATA
 0002:0002b298 00000010H .rtc$IMZ                DATA
 0002:0002b2a8 00000008H .rtc$IZZ                DATA
 0002:0002b2b0 00000008H .rtc$TAA                DATA
 0002:0002b2b8 00000010H .rtc$TMZ                DATA
 0002:0002b2c8 00000008H .rtc$TZZ                DATA
 0002:0002b2d0 000073d8H .xdata                  DATA
 0002:000326a8 00000150H .xdata$x                DATA
 0002:000327f8 00000008H ATL$__a                 DATA
 0002:00032800 00000010H ATL$__z                 DATA
 0002:00032810 000000acH .edata                  DATA
 0002:000328bc 00000064H .idata$2                DATA
 0002:00032920 00000018H .idata$3                DATA
 0002:00032938 000003d0H .idata$4                DATA
 0002:00032d08 00000846H .idata$6                DATA
 0003:00000000 00000ae0H .data                   DATA
 0003:00000ae0 000001a0H .data$r                 DATA
 0003:00000c80 00003e2cH .bss                    DATA
 0004:00000000 00009090H .pdata                  DATA
 0005:00000000 00000094H _RDATA                  DATA
 0006:00000000 00000140H .rsrc$01                DATA
 0006:00000140 00013620H .rsrc$02                DATA

  Address         Publics by Value              Rva+Base               Lib:Object

 0000:00000000       ___safe_se_handler_table   0000000000000000     <absolute>
 0000:00000000       __enclave_config           0000000000000000     <absolute>
 0000:00000000       __hybrid_auxiliary_iat     0000000000000000     <absolute>
 0000:00000000       __AbsoluteZero             0000000000000000     <absolute>
 0000:00000000       ___safe_se_handler_count   0000000000000000     <absolute>
 0000:00000000       __guard_iat_table          0000000000000000     <absolute>
 0000:00000000       __guard_longjmp_count      0000000000000000     <absolute>
 0000:00000000       __guard_fids_table         0000000000000000     <absolute>
 0000:00000000       __volatile_metadata        0000000000000000     <absolute>
 0000:00000000       __arm64x_native_entrypoint 0000000000000000     <absolute>
 0000:00000000       __x64_code_ranges_to_entry_points 0000000000000000     <absolute>
 0000:00000000       __guard_eh_cont_table      0000000000000000     <absolute>
 0000:00000000       __guard_eh_cont_count      0000000000000000     <absolute>
 0000:00000000       __guard_fids_count         0000000000000000     <absolute>
 0000:00000000       __hybrid_code_map          0000000000000000     <absolute>
 0000:00000000       __guard_longjmp_table      0000000000000000     <absolute>
 0000:00000000       __arm64x_redirection_metadata 0000000000000000     <absolute>
 0000:00000000       __hybrid_code_map_count    0000000000000000     <absolute>
 0000:00000000       __guard_iat_count          0000000000000000     <absolute>
 0000:00000000       __dynamic_value_reloc_table 0000000000000000     <absolute>
 0000:00000100       __guard_flags              0000000000000100     <absolute>
 0000:00000000       __ImageBase                0000000180000000     <linker-defined>
 0001:00000a00       ??$AtlMultiply@_K@ATL@@YAJPEA_K_K1@Z 0000000180001a00 f i StdAfx.obj
 0001:00000a80       ??0?$CHeapPtr@_WVCCRTAllocator@ATL@@@ATL@@QEAA@XZ 0000000180001a80 f i StdAfx.obj
 0001:00000ac0       ??0?$CHeapPtrBase@_WVCCRTAllocator@ATL@@@ATL@@IEAA@XZ 0000000180001ac0 f i StdAfx.obj
 0001:00000ae0       ??0?$CSimpleArray@GV?$CSimpleArrayEqualHelper@G@ATL@@@ATL@@QEAA@XZ 0000000180001ae0 f i StdAfx.obj
 0001:00000b20       ??0?$CTraceCategoryEx@$00$0A@@ATL@@QEAA@PEB_W@Z 0000000180001b20 f i StdAfx.obj
 0001:00000b60       ??0?$CTraceCategoryEx@$01$0A@@ATL@@QEAA@PEB_W@Z 0000000180001b60 f i StdAfx.obj
 0001:00000ba0       ??0?$CTraceCategoryEx@$03$0A@@ATL@@QEAA@PEB_W@Z 0000000180001ba0 f i StdAfx.obj
 0001:00000be0       ??0?$CTraceCategoryEx@$07$0A@@ATL@@QEAA@PEB_W@Z 0000000180001be0 f i StdAfx.obj
 0001:00000c20       ??0?$CTraceCategoryEx@$0BA@$0A@@ATL@@QEAA@PEB_W@Z 0000000180001c20 f i StdAfx.obj
 0001:00000c60       ??0?$CTraceCategoryEx@$0BAA@$0A@@ATL@@QEAA@PEB_W@Z 0000000180001c60 f i StdAfx.obj
 0001:00000ca0       ??0?$CTraceCategoryEx@$0BAAA@$0A@@ATL@@QEAA@PEB_W@Z 0000000180001ca0 f i StdAfx.obj
 0001:00000ce0       ??0?$CTraceCategoryEx@$0BAAAA@$0A@@ATL@@QEAA@PEB_W@Z 0000000180001ce0 f i StdAfx.obj
 0001:00000d20       ??0?$CTraceCategoryEx@$0BAAAAA@$0A@@ATL@@QEAA@PEB_W@Z 0000000180001d20 f i StdAfx.obj
 0001:00000d60       ??0?$CTraceCategoryEx@$0CA@$0A@@ATL@@QEAA@PEB_W@Z 0000000180001d60 f i StdAfx.obj
 0001:00000da0       ??0?$CTraceCategoryEx@$0CAA@$0A@@ATL@@QEAA@PEB_W@Z 0000000180001da0 f i StdAfx.obj
 0001:00000de0       ??0?$CTraceCategoryEx@$0CAAA@$0A@@ATL@@QEAA@PEB_W@Z 0000000180001de0 f i StdAfx.obj
 0001:00000e20       ??0?$CTraceCategoryEx@$0CAAAA@$0A@@ATL@@QEAA@PEB_W@Z 0000000180001e20 f i StdAfx.obj
 0001:00000e60       ??0?$CTraceCategoryEx@$0CAAAAA@$0A@@ATL@@QEAA@PEB_W@Z 0000000180001e60 f i StdAfx.obj
 0001:00000ea0       ??0?$CTraceCategoryEx@$0EA@$0A@@ATL@@QEAA@PEB_W@Z 0000000180001ea0 f i StdAfx.obj
 0001:00000ee0       ??0?$CTraceCategoryEx@$0EAA@$0A@@ATL@@QEAA@PEB_W@Z 0000000180001ee0 f i StdAfx.obj
 0001:00000f20       ??0?$CTraceCategoryEx@$0EAAA@$0A@@ATL@@QEAA@PEB_W@Z 0000000180001f20 f i StdAfx.obj
 0001:00000f60       ??0?$CTraceCategoryEx@$0EAAAA@$0A@@ATL@@QEAA@PEB_W@Z 0000000180001f60 f i StdAfx.obj
 0001:00000fa0       ??0?$CTraceCategoryEx@$0EAAAAA@$0A@@ATL@@QEAA@PEB_W@Z 0000000180001fa0 f i StdAfx.obj
 0001:00000fe0       ??0?$CTraceCategoryEx@$0IA@$0A@@ATL@@QEAA@PEB_W@Z 0000000180001fe0 f i StdAfx.obj
 0001:00001020       ??0?$CTraceCategoryEx@$0IAA@$0A@@ATL@@QEAA@PEB_W@Z 0000000180002020 f i StdAfx.obj
 0001:00001060       ??0?$CTraceCategoryEx@$0IAAA@$0A@@ATL@@QEAA@PEB_W@Z 0000000180002060 f i StdAfx.obj
 0001:000010a0       ??0?$CTraceCategoryEx@$0IAAAA@$0A@@ATL@@QEAA@PEB_W@Z 00000001800020a0 f i StdAfx.obj
 0001:000010e0       ??0CAtlComModule@ATL@@QEAA@XZ 00000001800020e0 f i StdAfx.obj
 0001:00001200       ??0CAtlWinModule@ATL@@QEAA@XZ 0000000180002200 f i StdAfx.obj
 0001:000012b0       ??0CComCriticalSection@ATL@@QEAA@XZ 00000001800022b0 f i StdAfx.obj
 0001:000012f0       ??0CPreserveLastError@ATL@@QEAA@XZ 00000001800022f0 f i StdAfx.obj
 0001:00001330       ??0CTraceFileAndLineInfo@ATL@@QEAA@PEBDH@Z 0000000180002330 f i StdAfx.obj
 0001:00001360       ??0_ATL_COM_MODULE70@ATL@@QEAA@XZ 0000000180002360 f i StdAfx.obj
 0001:000013a0       ??0_ATL_WIN_MODULE70@ATL@@QEAA@XZ 00000001800023a0 f i StdAfx.obj
 0001:000013f0       ??1?$CHeapPtr@_WVCCRTAllocator@ATL@@@ATL@@QEAA@XZ 00000001800023f0 f i StdAfx.obj
 0001:00001420       ??1?$CHeapPtrBase@_WVCCRTAllocator@ATL@@@ATL@@QEAA@XZ 0000000180002420 f i StdAfx.obj
 0001:00001450       ??1?$CSimpleArray@GV?$CSimpleArrayEqualHelper@G@ATL@@@ATL@@QEAA@XZ 0000000180002450 f i StdAfx.obj
 0001:00001480       ??1CAtlComModule@ATL@@QEAA@XZ 0000000180002480 f i StdAfx.obj
 0001:000014c0       ??1CAtlWinModule@ATL@@QEAA@XZ 00000001800024c0 f i StdAfx.obj
 0001:00001500       ??1CComBSTR@ATL@@QEAA@XZ   0000000180002500 f i StdAfx.obj
 0001:00001540       ??1CComCriticalSection@ATL@@QEAA@XZ 0000000180002540 f i StdAfx.obj
 0001:00001550       ??1CPreserveLastError@ATL@@QEAA@XZ 0000000180002550 f i StdAfx.obj
 0001:00001590       ??1_ATL_COM_MODULE70@ATL@@QEAA@XZ 0000000180002590 f i StdAfx.obj
 0001:000015d0       ??1_ATL_WIN_MODULE70@ATL@@QEAA@XZ 00000001800025d0 f i StdAfx.obj
 0001:00001620       ??1stringdispid@CComTypeInfoHolder@ATL@@QEAA@XZ 0000000180002620 f i StdAfx.obj
 0001:00001660       ??A?$CSimpleArray@GV?$CSimpleArrayEqualHelper@G@ATL@@@ATL@@QEAAAEAGH@Z 0000000180002660 f i StdAfx.obj
 0001:00001710       ??B?$CHeapPtrBase@_WVCCRTAllocator@ATL@@@ATL@@QEBAPEA_WXZ 0000000180002710 f i StdAfx.obj
 0001:00001720       ??B?$CTraceCategoryEx@$01$0A@@ATL@@QEAAIXZ 0000000180002720 f i StdAfx.obj
 0001:00001730       ??B?$CTraceCategoryEx@$0CA@$0A@@ATL@@QEAAIXZ 0000000180002730 f i StdAfx.obj
 0001:00001740       ??RCTraceFileAndLineInfo@ATL@@QEBAXHIPEB_WZZ 0000000180002740 f i StdAfx.obj
 0001:000017f0       ??_Estringdispid@CComTypeInfoHolder@ATL@@QEAAPEAXI@Z 00000001800027f0 f i StdAfx.obj
 0001:000018a0       ??_H@YAXPEAX_K1P6APEAX0@Z@Z 00000001800028a0 f i StdAfx.obj
 0001:00001930       ??_I@YAXPEAX_K1P6AX0@Z@Z   0000000180002930 f i StdAfx.obj
 0001:000019e0       ?Allocate@?$CHeapPtr@_WVCCRTAllocator@ATL@@@ATL@@QEAA_N_K@Z 00000001800029e0 f i StdAfx.obj
 0001:00001a60       ?Allocate@CCRTAllocator@ATL@@SAPEAX_K@Z 0000000180002a60 f i StdAfx.obj
 0001:00001a90       ?AllocateBytes@?$CHeapPtrBase@_WVCCRTAllocator@ATL@@@ATL@@QEAA_N_K@Z 0000000180002a90 f i StdAfx.obj
 0001:00001b30       ?AtlWinModuleInit@ATL@@YAJPEAU_ATL_WIN_MODULE70@1@@Z 0000000180002b30 f i StdAfx.obj
 0001:00001c30       ?AtlWinModuleTerm@ATL@@YAJPEAU_ATL_WIN_MODULE70@1@PEAUHINSTANCE__@@@Z 0000000180002c30 f i StdAfx.obj
 0001:00001d20       ?Free@?$CHeapPtrBase@_WVCCRTAllocator@ATL@@@ATL@@QEAAXXZ 0000000180002d20 f i StdAfx.obj
 0001:00001d60       ?Free@CCRTAllocator@ATL@@SAXPEAX@Z 0000000180002d60 f i StdAfx.obj
 0001:00001d90       ?GetCategoryName@CTrace@ATL@@CAPEA_WI@Z 0000000180002d90 f i StdAfx.obj
 0001:00001e10       ?GetModuleInstance@CAtlBaseModule@ATL@@QEAAPEAUHINSTANCE__@@XZ 0000000180002e10 f i StdAfx.obj
 0001:00001e30       ?GetSize@?$CSimpleArray@GV?$CSimpleArrayEqualHelper@G@ATL@@@ATL@@QEBAHXZ 0000000180002e30 f i StdAfx.obj
 0001:00001e40       ?Init@CComCriticalSection@ATL@@QEAAJXZ 0000000180002e40 f i StdAfx.obj
 0001:00001ea0       ?RegisterCategory@CTrace@ATL@@SAXPEB_WI@Z 0000000180002ea0 f i StdAfx.obj
 0001:00001f80       ?RemoveAll@?$CSimpleArray@GV?$CSimpleArrayEqualHelper@G@ATL@@@ATL@@QEAAXXZ 0000000180002f80 f i StdAfx.obj
 0001:00002010       ?Term@CAtlComModule@ATL@@QEAAXXZ 0000000180003010 f i StdAfx.obj
 0001:000020f0       ?Term@CAtlWinModule@ATL@@QEAAXXZ 00000001800030f0 f i StdAfx.obj
 0001:00002130       ?Term@CComCriticalSection@ATL@@QEAAJXZ 0000000180003130 f i StdAfx.obj
 0001:00002170       ?TraceV@CTrace@ATL@@CAXPEBDHIIPEB_W@Z 0000000180003170 f i StdAfx.obj
 0001:00002420       ?TraceV@CTrace@ATL@@SAXPEBDHIIPEB_WPEAD@Z 0000000180003420 f i StdAfx.obj
 0001:000025d0       ?_AtlInitializeCriticalSectionEx@ATL@@YAHPEAU_RTL_CRITICAL_SECTION@@KK@Z 00000001800035d0 f i StdAfx.obj
 0001:00002620       ?_AtlRaiseException@ATL@@YAXKK@Z 0000000180003620 f i StdAfx.obj
 0001:00002660       HRESULT_FROM_WIN32         0000000180003660 f i StdAfx.obj
 0001:000026b0       __local_stdio_printf_options 00000001800036b0 f i StdAfx.obj
 0001:000026c0       _vswprintf_s_l             00000001800036c0 f i StdAfx.obj
 0001:00002750       swprintf_s                 0000000180003750 f i StdAfx.obj
 0001:00002940       DllGetClassObject          0000000180003940 f   OposInterfaces.obj
 0001:00002990       DllCanUnloadNow            0000000180003990 f   OposInterfaces.obj
 0001:000029e0       DllRegisterServer          00000001800039e0 f   OposInterfaces.obj
 0001:00002a20       DllUnregisterServer        0000000180003a20 f   OposInterfaces.obj
 0001:00002c20       DllMain                    0000000180003c20 f   OposInterfaces.obj
 0001:00002ca0       ??$?2PEA_W@?$Wrapper@PEA_W@?$CSimpleMap@PEA_WPEA_WVCExpansionVectorEqualHelper@ATL@@@ATL@@SAPEAX_KPEAPEA_W@Z 0000000180003ca0 f i OposInterfaces.obj
 0001:00002cc0       ??$AtlMultiply@K@ATL@@YAJPEAKKK@Z 0000000180003cc0 f i OposInterfaces.obj
 0001:00002d30       ??$AtlMultiplyThrow@_K@ATL@@YA_K_K0@Z 0000000180003d30 f i OposInterfaces.obj
 0001:00002da0       ??0?$CAtlModuleT@VCComModule@ATL@@@ATL@@QEAA@XZ 0000000180003da0 f i OposInterfaces.obj
 0001:00002de0       ??0?$CAtlSafeAllocBufferManager@VCCRTAllocator@ATL@@@_ATL_SAFE_ALLOCA_IMPL@ATL@@QEAA@XZ 0000000180003de0 f i OposInterfaces.obj
 0001:00002e00       ??0?$CAutoVectorPtr@_W@ATL@@QEAA@XZ 0000000180003e00 f i OposInterfaces.obj
 0001:00002e20       ??0?$CComCritSecLock@VCComCriticalSection@ATL@@@ATL@@QEAA@AEAVCComCriticalSection@1@_N@Z 0000000180003e20 f i OposInterfaces.obj
 0001:00002e90       ??0?$CComPtr@UICatRegister@@@ATL@@QEAA@XZ 0000000180003e90 f i OposInterfaces.obj
 0001:00002ed0       ??0?$CComPtr@UITypeLib@@@ATL@@QEAA@XZ 0000000180003ed0 f i OposInterfaces.obj
 0001:00002f10       ??0?$CComPtrBase@UICatRegister@@@ATL@@IEAA@XZ 0000000180003f10 f i OposInterfaces.obj
 0001:00002f30       ??0?$CComPtrBase@UITypeLib@@@ATL@@IEAA@XZ 0000000180003f30 f i OposInterfaces.obj
 0001:00002f50       ??0?$CSimpleMap@PEA_WPEA_WVCExpansionVectorEqualHelper@ATL@@@ATL@@QEAA@XZ 0000000180003f50 f i OposInterfaces.obj
 0001:00002f90       ??0?$CTempBuffer@E$0BAA@VCCRTAllocator@ATL@@@ATL@@QEAA@XZ 0000000180003f90 f i OposInterfaces.obj
 0001:00002fb0       ??0?$CTempBuffer@_W$0BAA@VCCRTAllocator@ATL@@@ATL@@QEAA@XZ 0000000180003fb0 f i OposInterfaces.obj
 0001:00002fd0       ??0?$CTempBuffer@_W$0EAA@VCCRTAllocator@ATL@@@ATL@@QEAA@XZ 0000000180003fd0 f i OposInterfaces.obj
 0001:00002ff0       ??0?$Wrapper@PEA_W@?$CSimpleMap@PEA_WPEA_WVCExpansionVectorEqualHelper@ATL@@@ATL@@QEAA@AEBQEA_W@Z 0000000180003ff0 f i OposInterfaces.obj
 0001:00003020       ??0CAtlModule@ATL@@QEAA@XZ 0000000180004020 f i OposInterfaces.obj
 0001:00003190       ??0CComBSTR@ATL@@QEAA@XZ   0000000180004190 f i OposInterfaces.obj
 0001:000031b0       ??0CComModule@ATL@@QEAA@XZ 00000001800041b0 f i OposInterfaces.obj
 0001:00003250       ??0CExpansionVector@ATL@@QEAA@XZ 0000000180004250 f i OposInterfaces.obj
 0001:00003290       ??0CParseBuffer@CRegParser@ATL@@QEAA@H@Z 0000000180004290 f i OposInterfaces.obj
 0001:00003320       ??0CRegKey@ATL@@QEAA@PEAUHKEY__@@@Z 0000000180004320 f i OposInterfaces.obj
 0001:00003360       ??0CRegKey@ATL@@QEAA@PEAVCAtlTransactionManager@1@@Z 0000000180004360 f i OposInterfaces.obj
 0001:000033a0       ??0CRegObject@ATL@@QEAA@XZ 00000001800043a0 f i OposInterfaces.obj
 0001:00003400       ??0CRegParser@ATL@@QEAA@PEAVCRegObject@1@@Z 0000000180004400 f i OposInterfaces.obj
 0001:00003430       ??0IRegistrarBase@@QEAA@XZ 0000000180004430 f i OposInterfaces.obj
 0001:00003470       ??0IUnknown@@QEAA@XZ       0000000180004470 f i OposInterfaces.obj
 0001:00003480       ??0_ATL_MODULE70@ATL@@QEAA@XZ 0000000180004480 f i OposInterfaces.obj
 0001:000034c0       ??1?$CAtlModuleT@VCComModule@ATL@@@ATL@@UEAA@XZ 00000001800044c0 f i OposInterfaces.obj
 0001:000034f0       ??1?$CAtlSafeAllocBufferManager@VCCRTAllocator@ATL@@@_ATL_SAFE_ALLOCA_IMPL@ATL@@QEAA@XZ 00000001800044f0 f i OposInterfaces.obj
 0001:00003550       ??1?$CAutoVectorPtr@_W@ATL@@QEAA@XZ 0000000180004550 f i OposInterfaces.obj
 0001:00003580       ??1?$CComCritSecLock@VCComCriticalSection@ATL@@@ATL@@QEAA@XZ 0000000180004580 f i OposInterfaces.obj
 0001:000035c0       ??1?$CComPtr@UICatRegister@@@ATL@@QEAA@XZ 00000001800045c0 f i OposInterfaces.obj
 0001:000035f0       ??1?$CComPtr@UITypeLib@@@ATL@@QEAA@XZ 00000001800045f0 f i OposInterfaces.obj
 0001:00003620       ??1?$CComPtrBase@UICatRegister@@@ATL@@QEAA@XZ 0000000180004620 f i OposInterfaces.obj
 0001:00003670       ??1?$CComPtrBase@UITypeLib@@@ATL@@QEAA@XZ 0000000180004670 f i OposInterfaces.obj
 0001:000036c0       ??1?$CSimpleMap@PEA_WPEA_WVCExpansionVectorEqualHelper@ATL@@@ATL@@QEAA@XZ 00000001800046c0 f i OposInterfaces.obj
 0001:000036f0       ??1?$CTempBuffer@E$0BAA@VCCRTAllocator@ATL@@@ATL@@QEAA@XZ 00000001800046f0 f i OposInterfaces.obj
 0001:00003740       ??1?$CTempBuffer@_W$0BAA@VCCRTAllocator@ATL@@@ATL@@QEAA@XZ 0000000180004740 f i OposInterfaces.obj
 0001:00003790       ??1?$CTempBuffer@_W$0EAA@VCCRTAllocator@ATL@@@ATL@@QEAA@XZ 0000000180004790 f i OposInterfaces.obj
 0001:000037e0       ??1CAtlModule@ATL@@UEAA@XZ 00000001800047e0 f i OposInterfaces.obj
 0001:00003820       ??1CComModule@ATL@@UEAA@XZ 0000000180004820 f i OposInterfaces.obj
 0001:00003860       ??1CExpansionVector@ATL@@QEAA@XZ 0000000180004860 f i OposInterfaces.obj
 0001:000038a0       ??1CParseBuffer@CRegParser@ATL@@QEAA@XZ 00000001800048a0 f i OposInterfaces.obj
 0001:000038e0       ??1CRegKey@ATL@@QEAA@XZ    00000001800048e0 f i OposInterfaces.obj
 0001:00003910       ??1CRegObject@ATL@@UEAA@XZ 0000000180004910 f i OposInterfaces.obj
 0001:00003960       ??1_ATL_MODULE70@ATL@@QEAA@XZ 0000000180004960 f i OposInterfaces.obj
 0001:000039a0       ??7CComBSTR@ATL@@QEBA_NXZ  00000001800049a0 f i OposInterfaces.obj
 0001:000039f0       ??8CComBSTR@ATL@@QEBA_NH@Z 00000001800049f0 f i OposInterfaces.obj
 0001:00003a70       ??9CComBSTR@ATL@@QEBA_NH@Z 0000000180004a70 f i OposInterfaces.obj
 0001:00003ad0       ??B?$CComPtrBase@UITypeLib@@@ATL@@QEBAPEAUITypeLib@@XZ 0000000180004ad0 f i OposInterfaces.obj
 0001:00003ae0       ??B?$CTempBuffer@E$0BAA@VCCRTAllocator@ATL@@@ATL@@QEBAPEAEXZ 0000000180004ae0 f i OposInterfaces.obj
 0001:00003af0       ??B?$CTempBuffer@_W$0BAA@VCCRTAllocator@ATL@@@ATL@@QEBAPEA_WXZ 0000000180004af0 f i OposInterfaces.obj
 0001:00003b00       ??B?$CTempBuffer@_W$0EAA@VCCRTAllocator@ATL@@@ATL@@QEBAPEA_WXZ 0000000180004b00 f i OposInterfaces.obj
 0001:00003b10       ??B?$CTraceCategoryEx@$00$0A@@ATL@@QEAAIXZ 0000000180004b10 f i OposInterfaces.obj
 0001:00003b20       ??B?$CTraceCategoryEx@$07$0A@@ATL@@QEAAIXZ 0000000180004b20 f i OposInterfaces.obj
 0001:00003b30       ??B?$CTraceCategoryEx@$0CAAA@$0A@@ATL@@QEAAIXZ 0000000180004b30 f i OposInterfaces.obj
 0001:00003b40       ??BCComBSTR@ATL@@QEBAPEA_WXZ 0000000180004b40 f i OposInterfaces.obj
 0001:00003b50       ??BCRegKey@ATL@@QEBAPEAUHKEY__@@XZ 0000000180004b50 f i OposInterfaces.obj
 0001:00003b60       ??C?$CComPtrBase@UICatRegister@@@ATL@@QEBAPEAV?$_NoAddRefReleaseOnCComPtr@UICatRegister@@@1@XZ 0000000180004b60 f i OposInterfaces.obj
 0001:00003be0       ??C?$CComPtrBase@UITypeLib@@@ATL@@QEBAPEAV?$_NoAddRefReleaseOnCComPtr@UITypeLib@@@1@XZ 0000000180004be0 f i OposInterfaces.obj
 0001:00003c60       ??I?$CComPtrBase@UICatRegister@@@ATL@@QEAAPEAPEAUICatRegister@@XZ 0000000180004c60 f i OposInterfaces.obj
 0001:00003cd0       ??I?$CComPtrBase@UITypeLib@@@ATL@@QEAAPEAPEAUITypeLib@@XZ 0000000180004cd0 f i OposInterfaces.obj
 0001:00003d40       ??ICComBSTR@ATL@@QEAAPEAPEA_WXZ 0000000180004d40 f i OposInterfaces.obj
 0001:00003d50       ??_ECComModule@ATL@@UEAAPEAXI@Z 0000000180004d50 f i OposInterfaces.obj
 0001:00003d50       ??_GCComModule@ATL@@UEAAPEAXI@Z 0000000180004d50 f i OposInterfaces.obj
 0001:00003db0       ??_ECRegObject@ATL@@UEAAPEAXI@Z 0000000180004db0 f i OposInterfaces.obj
 0001:00003db0       ??_GCRegObject@ATL@@UEAAPEAXI@Z 0000000180004db0 f i OposInterfaces.obj
 0001:00003e10       ?Add@?$CSimpleMap@PEA_WPEA_WVCExpansionVectorEqualHelper@ATL@@@ATL@@QEAAHAEBQEA_W0@Z 0000000180004e10 f i OposInterfaces.obj
 0001:00003f00       ?Add@CExpansionVector@ATL@@QEAAHPEB_W0@Z 0000000180004f00 f i OposInterfaces.obj
 0001:00004230       ?AddChar@CParseBuffer@CRegParser@ATL@@QEAAHPEB_W@Z 0000000180005230 f i OposInterfaces.obj
 0001:00004280       ?AddCommonRGSReplacements@?$CAtlModuleT@VCComModule@ATL@@@ATL@@UEAAJPEAUIRegistrarBase@@@Z 0000000180005280 f i OposInterfaces.obj
 0001:000042e0       ?AddRef@CRegObject@ATL@@UEAAKXZ 00000001800052e0 f i OposInterfaces.obj
 0001:00004350       ?AddReplacement@CRegObject@ATL@@UEAAJPEB_W0@Z 0000000180005350 f i OposInterfaces.obj
 0001:00004480       ?AddString@CParseBuffer@CRegParser@ATL@@QEAAHPEB_W@Z 0000000180005480 f i OposInterfaces.obj
 0001:00004570       ?AddValue@CRegParser@ATL@@IEAAJAEAVCRegKey@2@PEB_WPEA_W@Z 0000000180005570 f i OposInterfaces.obj
 0001:00004e40       ?Allocate@?$CTempBuffer@E$0BAA@VCCRTAllocator@ATL@@@ATL@@QEAAPEAE_K@Z 0000000180005e40 f i OposInterfaces.obj
 0001:00004e90       ?Allocate@?$CTempBuffer@_W$0BAA@VCCRTAllocator@ATL@@@ATL@@QEAAPEA_W_K@Z 0000000180005e90 f i OposInterfaces.obj
 0001:00004ee0       ?Allocate@?$CTempBuffer@_W$0EAA@VCCRTAllocator@ATL@@@ATL@@QEAAPEA_W_K@Z 0000000180005ee0 f i OposInterfaces.obj
 0001:00004f30       ?AllocateBytes@?$CTempBuffer@E$0BAA@VCCRTAllocator@ATL@@@ATL@@QEAAPEAE_K@Z 0000000180005f30 f i OposInterfaces.obj
 0001:00004fe0       ?AllocateBytes@?$CTempBuffer@_W$0BAA@VCCRTAllocator@ATL@@@ATL@@QEAAPEA_W_K@Z 0000000180005fe0 f i OposInterfaces.obj
 0001:00005090       ?AllocateBytes@?$CTempBuffer@_W$0EAA@VCCRTAllocator@ATL@@@ATL@@QEAAPEA_W_K@Z 0000000180006090 f i OposInterfaces.obj
 0001:00005140       ?AllocateHeap@?$CTempBuffer@E$0BAA@VCCRTAllocator@ATL@@@ATL@@AEAAX_K@Z 0000000180006140 f i OposInterfaces.obj
 0001:000051a0       ?AllocateHeap@?$CTempBuffer@_W$0BAA@VCCRTAllocator@ATL@@@ATL@@AEAAX_K@Z 00000001800061a0 f i OposInterfaces.obj
 0001:00005200       ?AllocateHeap@?$CTempBuffer@_W$0EAA@VCCRTAllocator@ATL@@@ATL@@AEAAX_K@Z 0000000180006200 f i OposInterfaces.obj
 0001:00005260       ?Append@CParseBuffer@CRegParser@ATL@@QEAAHPEB_WH@Z 0000000180006260 f i OposInterfaces.obj
 0001:00005490       ?AtlCallTermFunc@ATL@@YAXPEAU_ATL_MODULE70@1@@Z 0000000180006490 f i OposInterfaces.obj
 0001:00005540       ?AtlCoTaskMemCAlloc@ATL@@YAPEAXKK@Z 0000000180006540 f i OposInterfaces.obj
 0001:000055c0       ?AtlCoTaskMemRecalloc@ATL@@YAPEAXPEAXKK@Z 00000001800065c0 f i OposInterfaces.obj
 0001:00005640       ?AtlComModuleGetClassObject@ATL@@YAJPEAU_ATL_COM_MODULE70@1@AEBU_GUID@@1PEAPEAX@Z 0000000180006640 f i OposInterfaces.obj
 0001:00005970       ?AtlComModuleRegisterServer@ATL@@YAJPEAU_ATL_COM_MODULE70@1@HPEBU_GUID@@@Z 0000000180006970 f i OposInterfaces.obj
 0001:00005b70       ?AtlComModuleUnregisterServer@ATL@@YAJPEAU_ATL_COM_MODULE70@1@HPEBU_GUID@@@Z 0000000180006b70 f i OposInterfaces.obj
 0001:00005cd0       ?AtlCrtErrorCheck@ATL@@YAHH@Z 0000000180006cd0 f i OposInterfaces.obj
 0001:00005d50       ?AtlGetPerUserRegistration@ATL@@YAJPEA_N@Z 0000000180006d50 f i OposInterfaces.obj
 0001:00005d80       ?AtlHresultFromLastError@ATL@@YAJXZ 0000000180006d80 f i OposInterfaces.obj
 0001:00005db0       ?AtlHresultFromWin32@ATL@@YAJK@Z 0000000180006db0 f i OposInterfaces.obj
 0001:00005de0       ?AtlLoadTypeLib@ATL@@YAJPEAUHINSTANCE__@@PEB_WPEAPEA_WPEAPEAUITypeLib@@@Z 0000000180006de0 f i OposInterfaces.obj
 0001:000062b0       ?AtlRegisterClassCategoriesHelper@ATL@@YAJAEBU_GUID@@PEBU_ATL_CATMAP_ENTRY@1@H@Z 00000001800072b0 f i OposInterfaces.obj
 0001:00006a80       ?AtlRegisterTypeLib@ATL@@YAJPEAUHINSTANCE__@@PEB_W@Z 0000000180007a80 f i OposInterfaces.obj
 0001:00006de0       ?AtlThrowImpl@ATL@@YAXJ@Z  0000000180007de0 f i OposInterfaces.obj
 0001:00006ec0       ?AtlUnRegisterTypeLib@ATL@@YAJPEAUHINSTANCE__@@PEB_W@Z 0000000180007ec0 f i OposInterfaces.obj
 0001:000070f0       ?Attach@?$CAutoVectorPtr@_W@ATL@@QEAAXPEA_W@Z 00000001800080f0 f i OposInterfaces.obj
 0001:00007180       ?Attach@CRegKey@ATL@@QEAAXPEAUHKEY__@@@Z 0000000180008180 f i OposInterfaces.obj
 0001:00007220       ?CanForceRemoveKey@CRegParser@ATL@@IEAAHPEB_W@Z 0000000180008220 f i OposInterfaces.obj
 0001:00007290       ?ChToByte@CRegParser@ATL@@KAE_W@Z 0000000180008290 f i OposInterfaces.obj
 0001:000073f0       ?ClearReplacements@CExpansionVector@ATL@@QEAAJXZ 00000001800083f0 f i OposInterfaces.obj
 0001:00007490       ?ClearReplacements@CRegObject@ATL@@UEAAJXZ 0000000180008490 f i OposInterfaces.obj
 0001:000074f0       ?Close@CRegKey@ATL@@QEAAJXZ 00000001800084f0 f i OposInterfaces.obj
 0001:00007560       ?Decrement@CComMultiThreadModel@ATL@@SAKPEAJ@Z 0000000180008560 f i OposInterfaces.obj
 0001:00007580       ?DeleteSubKey@CRegKey@ATL@@QEAAJPEB_W@Z 0000000180008580 f i OposInterfaces.obj
 0001:000076b0       ?DeleteValue@CRegKey@ATL@@QEAAJPEB_W@Z 00000001800086b0 f i OposInterfaces.obj
 0001:00007740       ?Detach@?$CAutoVectorPtr@_W@ATL@@QEAAPEA_WXZ 0000000180008740 f i OposInterfaces.obj
 0001:00007780       ?Detach@CParseBuffer@CRegParser@ATL@@QEAAPEA_WXZ 0000000180008780 f i OposInterfaces.obj
 0001:000077e0       ?Detach@CRegKey@ATL@@QEAAPEAUHKEY__@@XZ 00000001800087e0 f i OposInterfaces.obj
 0001:00007840       ?EndOfVar@CRegParser@ATL@@IEAAHXZ 0000000180008840 f i OposInterfaces.obj
 0001:000078a0       ?EscapeSingleQuote@CAtlModule@ATL@@SAXPEA_W_KPEB_W@Z 00000001800088a0 f i OposInterfaces.obj
 0001:000079a0       ?FinalConstruct@CRegObject@ATL@@QEAAJXZ 00000001800089a0 f i OposInterfaces.obj
 0001:000079e0       ?FindKey@?$CSimpleMap@PEA_WPEA_WVCExpansionVectorEqualHelper@ATL@@@ATL@@QEBAHAEBQEA_W@Z 00000001800089e0 f i OposInterfaces.obj
 0001:00007a60       ?Free@?$CAutoVectorPtr@_W@ATL@@QEAAXXZ 0000000180008a60 f i OposInterfaces.obj
 0001:00007ab0       ?FreeHeap@?$CTempBuffer@E$0BAA@VCCRTAllocator@ATL@@@ATL@@AEAAXXZ 0000000180008ab0 f i OposInterfaces.obj
 0001:00007af0       ?FreeHeap@?$CTempBuffer@_W$0BAA@VCCRTAllocator@ATL@@@ATL@@AEAAXXZ 0000000180008af0 f i OposInterfaces.obj
 0001:00007b30       ?FreeHeap@?$CTempBuffer@_W$0EAA@VCCRTAllocator@ATL@@@ATL@@AEAAXXZ 0000000180008b30 f i OposInterfaces.obj
 0001:00007b70       ?GenerateError@CRegParser@ATL@@IEAAJI@Z 0000000180008b70 f i OposInterfaces.obj
 0001:00007b90       ?GetAppId@?$CAtlModuleT@VCComModule@ATL@@@ATL@@SAPEB_WXZ 0000000180008b90 f i OposInterfaces.obj
 0001:00007ba0       ?GetClassObject@CComModule@ATL@@QEAAJAEBU_GUID@@0PEAPEAX@Z 0000000180008ba0 f i OposInterfaces.obj
 0001:00007e10       ?GetGITPtr@CAtlModule@ATL@@UEAAJPEAPEAUIGlobalInterfaceTable@@@Z 0000000180008e10 f i OposInterfaces.obj
 0001:00007f50       ?GetKeyAt@?$CSimpleMap@PEA_WPEA_WVCExpansionVectorEqualHelper@ATL@@@ATL@@QEBAAEAPEA_WH@Z 0000000180008f50 f i OposInterfaces.obj
 0001:00008000       ?GetLockCount@CAtlModule@ATL@@UEAAJXZ 0000000180009000 f i OposInterfaces.obj
 0001:00008010       ?GetSize@?$CSimpleMap@PEA_WPEA_WVCExpansionVectorEqualHelper@ATL@@@ATL@@QEBAHXZ 0000000180009010 f i OposInterfaces.obj
 0001:00008020       ?GetValueAt@?$CSimpleMap@PEA_WPEA_WVCExpansionVectorEqualHelper@ATL@@@ATL@@QEBAAEAPEA_WH@Z 0000000180009020 f i OposInterfaces.obj
 0001:000080d0       ?HKeyFromString@CRegParser@ATL@@KAPEAUHKEY__@@PEA_W@Z 00000001800090d0 f i OposInterfaces.obj
 0001:00008160       ?HasSubKeys@CRegParser@ATL@@IEAAHPEAUHKEY__@@@Z 0000000180009160 f i OposInterfaces.obj
 0001:000082d0       ?Increment@CComMultiThreadModel@ATL@@SAKPEAJ@Z 00000001800092d0 f i OposInterfaces.obj
 0001:000082f0       ?Init@CComFakeCriticalSection@ATL@@QEAAJXZ 00000001800092f0 f i OposInterfaces.obj
 0001:00008300       ?Init@CComModule@ATL@@QEAAJPEAU_ATL_OBJMAP_ENTRY30@2@PEAUHINSTANCE__@@PEBU_GUID@@@Z 0000000180009300 f i OposInterfaces.obj
 0001:000083f0       ?InitLibId@?$CAtlModuleT@VCComModule@ATL@@@ATL@@SAXXZ 00000001800093f0 f i OposInterfaces.obj
 0001:00008400       ?InternalSetAtIndex@?$CSimpleMap@PEA_WPEA_WVCExpansionVectorEqualHelper@ATL@@@ATL@@QEAAXHAEBQEA_W0@Z 0000000180009400 f i OposInterfaces.obj
 0001:000084d0       ?IsEqualKey@CExpansionVectorEqualHelper@ATL@@SA_NQEA_W0@Z 00000001800094d0 f i OposInterfaces.obj
 0001:00008520       ?IsSpace@CRegParser@ATL@@IEAAH_W@Z 0000000180009520 f i OposInterfaces.obj
 0001:00008580       ?Length@CComBSTR@ATL@@QEBAIXZ 0000000180009580 f i OposInterfaces.obj
 0001:000085c0       ?Lock@?$CComCritSecLock@VCComCriticalSection@ATL@@@ATL@@QEAAJXZ 00000001800095c0 f i OposInterfaces.obj
 0001:000086b0       ?Lock@CAtlModule@ATL@@UEAAJXZ 00000001800096b0 f i OposInterfaces.obj
 0001:000086f0       ?Lock@CComCriticalSection@ATL@@QEAAJXZ 00000001800096f0 f i OposInterfaces.obj
 0001:00008730       ?Lock@CComFakeCriticalSection@ATL@@QEAAJXZ 0000000180009730 f i OposInterfaces.obj
 0001:00008740       ?Lookup@?$CSimpleMap@PEA_WPEA_WVCExpansionVectorEqualHelper@ATL@@@ATL@@QEBAPEA_WAEBQEA_W@Z 0000000180009740 f i OposInterfaces.obj
 0001:000087a0       ?NextToken@CRegParser@ATL@@IEAAJPEA_W@Z 00000001800097a0 f i OposInterfaces.obj
 0001:00008b30       ?OLE2CT_EX@@YAPEB_WPEB_WI@Z 0000000180009b30 f i OposInterfaces.obj
 0001:00008b50       ?OLE2T_EX@@YAPEA_WPEA_WI@Z 0000000180009b50 f i OposInterfaces.obj
 0001:00008b70       ?Open@CRegKey@ATL@@QEAAJPEAUHKEY__@@PEB_WK@Z 0000000180009b70 f i OposInterfaces.obj
 0001:00008cf0       ?PreProcessBuffer@CRegParser@ATL@@QEAAJPEA_WPEAPEA_W@Z 0000000180009cf0 f i OposInterfaces.obj
 0001:000093d0       ?QueryInterface@CRegObject@ATL@@UEAAJAEBU_GUID@@PEAPEAX@Z 000000018000a3d0 f i OposInterfaces.obj
 0001:00009450       ?RecurseDeleteKey@CRegKey@ATL@@QEAAJPEB_W@Z 000000018000a450 f i OposInterfaces.obj
 0001:00009670       ?RegCreateKeyExW@CAtlTransactionManager@ATL@@QEAAJPEAUHKEY__@@PEB_WKPEA_WKKQEAU_SECURITY_ATTRIBUTES@@PEAPEAU3@PEAK@Z 000000018000a670 f i OposInterfaces.obj
 0001:00009840       ?RegDeleteKeyW@CAtlTransactionManager@ATL@@QEAAJPEAUHKEY__@@PEB_W@Z 000000018000a840 f i OposInterfaces.obj
 0001:00009950       ?RegOpenKeyExW@CAtlTransactionManager@ATL@@QEAAJPEAUHKEY__@@PEB_WKKPEAPEAU3@@Z 000000018000a950 f i OposInterfaces.obj
 0001:00009aa0       ?RegisterBuffer@CRegParser@ATL@@QEAAJPEA_WH@Z 000000018000aaa0 f i OposInterfaces.obj
 0001:00009e90       ?RegisterFromResource@CRegObject@ATL@@IEAAJPEB_W00H@Z 000000018000ae90 f i OposInterfaces.obj
 0001:0000a2f0       ?RegisterServer@?$CAtlModuleT@VCComModule@ATL@@@ATL@@QEAAJHPEBU_GUID@@@Z 000000018000b2f0 f i OposInterfaces.obj
 0001:0000a370       ?RegisterServer@CAtlComModule@ATL@@QEAAJHPEBU_GUID@@@Z 000000018000b370 f i OposInterfaces.obj
 0001:0000a3b0       ?RegisterServer@CComModule@ATL@@QEAAJHPEBU_GUID@@@Z 000000018000b3b0 f i OposInterfaces.obj
 0001:0000a4b0       ?RegisterSubkeys@CRegParser@ATL@@IEAAJPEA_WPEAUHKEY__@@HH@Z 000000018000b4b0 f i OposInterfaces.obj
 0001:0000b290       ?Release@CRegObject@ATL@@UEAAKXZ 000000018000c290 f i OposInterfaces.obj
 0001:0000b300       ?RemoveAll@?$CSimpleMap@PEA_WPEA_WVCExpansionVectorEqualHelper@ATL@@@ATL@@QEAAXXZ 000000018000c300 f i OposInterfaces.obj
 0001:0000b3a0       ?ResourceRegister@CRegObject@ATL@@QEAAJPEB_WI0@Z 000000018000c3a0 f i OposInterfaces.obj
 0001:0000b480       ?ResourceRegisterSz@CRegObject@ATL@@QEAAJPEB_W00@Z 000000018000c480 f i OposInterfaces.obj
 0001:0000b5a0       ?ResourceUnregister@CRegObject@ATL@@QEAAJPEB_WI0@Z 000000018000c5a0 f i OposInterfaces.obj
 0001:0000b680       ?ResourceUnregisterSz@CRegObject@ATL@@QEAAJPEB_W00@Z 000000018000c680 f i OposInterfaces.obj
 0001:0000b7a0       ?SetDWORDValue@CRegKey@ATL@@QEAAJPEB_WK@Z 000000018000c7a0 f i OposInterfaces.obj
 0001:0000b850       ?SetMultiStringValue@CRegKey@ATL@@QEAAJPEB_W0@Z 000000018000c850 f i OposInterfaces.obj
 0001:0000b9c0       ?SetStringValue@CRegKey@ATL@@QEAAJPEB_W0K@Z 000000018000c9c0 f i OposInterfaces.obj
 0001:0000bb40       ?SkipAssignment@CRegParser@ATL@@IEAAJPEA_W@Z 000000018000cb40 f i OposInterfaces.obj
 0001:0000bc40       ?SkipWhiteSpace@CRegParser@ATL@@IEAAXXZ 000000018000cc40 f i OposInterfaces.obj
 0001:0000bca0       ?StrChrW@CRegParser@ATL@@KAPEA_WPEA_W_W@Z 000000018000cca0 f i OposInterfaces.obj
 0001:0000bd20       ?StrFromMap@CRegObject@ATL@@QEAAPEB_WPEA_W@Z 000000018000cd20 f i OposInterfaces.obj
 0001:0000bde0       ?T2COLE_EX@@YAPEB_WPEB_WI@Z 000000018000cde0 f i OposInterfaces.obj
 0001:0000be00       ?T2OLE_EX@@YAPEA_WPEA_WI@Z 000000018000ce00 f i OposInterfaces.obj
 0001:0000be20       ?Term@CAtlModule@ATL@@QEAAXXZ 000000018000ce20 f i OposInterfaces.obj
 0001:0000bee0       ?Term@CComModule@ATL@@QEAAXXZ 000000018000cee0 f i OposInterfaces.obj
 0001:0000bfd0       ?Unlock@?$CComCritSecLock@VCComCriticalSection@ATL@@@ATL@@QEAAXXZ 000000018000cfd0 f i OposInterfaces.obj
 0001:0000c060       ?Unlock@CAtlModule@ATL@@UEAAJXZ 000000018000d060 f i OposInterfaces.obj
 0001:0000c0a0       ?Unlock@CComCriticalSection@ATL@@QEAAJXZ 000000018000d0a0 f i OposInterfaces.obj
 0001:0000c0e0       ?Unlock@CComFakeCriticalSection@ATL@@QEAAJXZ 000000018000d0e0 f i OposInterfaces.obj
 0001:0000c0f0       ?UnregisterServer@?$CAtlModuleT@VCComModule@ATL@@@ATL@@QEAAJHPEBU_GUID@@@Z 000000018000d0f0 f i OposInterfaces.obj
 0001:0000c160       ?UnregisterServer@CAtlComModule@ATL@@QEAAJHPEBU_GUID@@@Z 000000018000d160 f i OposInterfaces.obj
 0001:0000c1a0       ?UnregisterServer@CComModule@ATL@@QEAAJHPEBU_GUID@@@Z 000000018000d1a0 f i OposInterfaces.obj
 0001:0000c290       ?UpdateRegistryFromResource@CAtlModule@ATL@@QEAAJIHPEAU_ATL_REGMAP_ENTRY@2@@Z 000000018000d290 f i OposInterfaces.obj
 0001:0000c7c0       ?UpdateRegistryFromResource@CAtlModule@ATL@@QEAAJPEB_WHPEAU_ATL_REGMAP_ENTRY@2@@Z 000000018000d7c0 f i OposInterfaces.obj
 0001:0000cd10       ?UpdateRegistryFromResource@CComModule@ATL@@UEAAJIHPEAU_ATL_REGMAP_ENTRY@2@@Z 000000018000dd10 f i OposInterfaces.obj
 0001:0000cd60       ?UpdateRegistryFromResource@CComModule@ATL@@UEAAJPEB_WHPEAU_ATL_REGMAP_ENTRY@2@@Z 000000018000dd60 f i OposInterfaces.obj
 0001:0000cdb0       ?UpdateRegistryFromResourceD@CComModule@ATL@@UEAAJIHPEAU_ATL_REGMAP_ENTRY@2@@Z 000000018000ddb0 f i OposInterfaces.obj
 0001:0000cdd0       ?UpdateRegistryFromResourceD@CComModule@ATL@@UEAAJPEB_WHPEAU_ATL_REGMAP_ENTRY@2@@Z 000000018000ddd0 f i OposInterfaces.obj
 0001:0000cdf0       ?VTFromRegType@CRegParser@ATL@@KAHPEB_WAEAG@Z 000000018000ddf0 f i OposInterfaces.obj
 0001:0000ced0       ?_AtlGetConversionACP@ATL@@YAIXZ 000000018000ded0 f i OposInterfaces.obj
 0001:0000cee0       ?atlCreate@CRegKey@ATL@@QEAAJPEAUHKEY__@@PEB_WPEA_WKKPEAU_SECURITY_ATTRIBUTES@@PEAK@Z 000000018000dee0 f i OposInterfaces.obj
 0001:0000d0d0       ?memcpy_s@Checked@ATL@@YAXPEAX_KPEBX1@Z 000000018000e0d0 f i OposInterfaces.obj
 0001:0000d130       ?ocscpy_s@@YA_NPEA_W_KPEB_W@Z 000000018000e130 f i OposInterfaces.obj
 0001:0000d1b0       ?ocslen@@YAHPEB_W@Z        000000018000e1b0 f i OposInterfaces.obj
 0001:0000d1f0       ?tcsncpy_s@Checked@ATL@@YAHPEA_W_KPEB_W1@Z 000000018000e1f0 f i OposInterfaces.obj
 0001:0000d250       ?wcscat_s@Checked@ATL@@YAXPEA_W_KPEB_W@Z 000000018000e250 f i OposInterfaces.obj
 0001:0000d2a0       ?wcscpy_s@Checked@ATL@@YAXPEA_W_KPEB_W@Z 000000018000e2a0 f i OposInterfaces.obj
 0001:0000d2f0       ?wcsncpy_s@Checked@ATL@@YAHPEA_W_KPEB_W1@Z 000000018000e2f0 f i OposInterfaces.obj
 0001:0000d350       ?wcsstr@@YAPEA_WPEA_WPEB_W@Z 000000018000e350 f i OposInterfaces.obj
 0001:0000d390       InlineIsEqualGUID          000000018000e390 f i OposInterfaces.obj
 0001:0000d460       IsEqualGUID                000000018000e460 f i OposInterfaces.obj
 0001:0000d4b8       DecodePointer              000000018000e4b8 f   kernel32:KERNEL32.dll
 0001:0000d4be       RaiseException             000000018000e4be f   kernel32:KERNEL32.dll
 0001:0000d4c4       GetLastError               000000018000e4c4 f   kernel32:KERNEL32.dll
 0001:0000d4ca       SetLastError               000000018000e4ca f   kernel32:KERNEL32.dll
 0001:0000d4d0       InitializeCriticalSectionEx 000000018000e4d0 f   kernel32:KERNEL32.dll
 0001:0000d4d6       DeleteCriticalSection      000000018000e4d6 f   kernel32:KERNEL32.dll
 0001:0000d4dc       EncodePointer              000000018000e4dc f   kernel32:KERNEL32.dll
 0001:0000d4e2       EnterCriticalSection       000000018000e4e2 f   kernel32:KERNEL32.dll
 0001:0000d4e8       LeaveCriticalSection       000000018000e4e8 f   kernel32:KERNEL32.dll
 0001:0000d4ee       DisableThreadLibraryCalls  000000018000e4ee f   kernel32:KERNEL32.dll
 0001:0000d4f4       FreeLibrary                000000018000e4f4 f   kernel32:KERNEL32.dll
 0001:0000d4fa       GetModuleFileNameW         000000018000e4fa f   kernel32:KERNEL32.dll
 0001:0000d500       GetModuleHandleW           000000018000e500 f   kernel32:KERNEL32.dll
 0001:0000d506       GetProcAddress             000000018000e506 f   kernel32:KERNEL32.dll
 0001:0000d50c       LoadLibraryExW             000000018000e50c f   kernel32:KERNEL32.dll
 0001:0000d512       LoadResource               000000018000e512 f   kernel32:KERNEL32.dll
 0001:0000d518       SizeofResource             000000018000e518 f   kernel32:KERNEL32.dll
 0001:0000d51e       FindResourceW              000000018000e51e f   kernel32:KERNEL32.dll
 0001:0000d524       lstrcmpiW                  000000018000e524 f   kernel32:KERNEL32.dll
 0001:0000d52a       MultiByteToWideChar        000000018000e52a f   kernel32:KERNEL32.dll
 0001:0000d530       UnregisterClassW           000000018000e530 f   user32:USER32.dll
 0001:0000d536       CharNextW                  000000018000e536 f   user32:USER32.dll
 0001:0000d53c       RegCloseKey                000000018000e53c f   advapi32:ADVAPI32.dll
 0001:0000d542       RegCreateKeyExW            000000018000e542 f   advapi32:ADVAPI32.dll
 0001:0000d548       RegDeleteKeyW              000000018000e548 f   advapi32:ADVAPI32.dll
 0001:0000d54e       RegDeleteValueW            000000018000e54e f   advapi32:ADVAPI32.dll
 0001:0000d554       RegEnumKeyExW              000000018000e554 f   advapi32:ADVAPI32.dll
 0001:0000d55a       RegOpenKeyExW              000000018000e55a f   advapi32:ADVAPI32.dll
 0001:0000d560       RegQueryInfoKeyW           000000018000e560 f   advapi32:ADVAPI32.dll
 0001:0000d566       RegSetValueExW             000000018000e566 f   advapi32:ADVAPI32.dll
 0001:0000d56c       CoCreateInstance           000000018000e56c f   ole32:ole32.dll
 0001:0000d572       StringFromGUID2            000000018000e572 f   ole32:ole32.dll
 0001:0000d578       CoTaskMemAlloc             000000018000e578 f   ole32:ole32.dll
 0001:0000d57e       CoTaskMemRealloc           000000018000e57e f   ole32:ole32.dll
 0001:0000d584       CoTaskMemFree              000000018000e584 f   ole32:ole32.dll
 0001:0000d58a       SysFreeString              000000018000e58a f   oleaut32:OLEAUT32.dll
 0001:0000d590       SysAllocString             000000018000e590 f   oleaut32:OLEAUT32.dll
 0001:0000d596       SysStringLen               000000018000e596 f   oleaut32:OLEAUT32.dll
 0001:0000d59c       VarUI4FromStr              000000018000e59c f   oleaut32:OLEAUT32.dll
 0001:0000d5a2       LoadTypeLib                000000018000e5a2 f   oleaut32:OLEAUT32.dll
 0001:0000d5a8       RegisterTypeLib            000000018000e5a8 f   oleaut32:OLEAUT32.dll
 0001:0000d5ae       UnRegisterTypeLib          000000018000e5ae f   oleaut32:OLEAUT32.dll
 0001:0000d5b4       ??$?2PEAUHINSTANCE__@@@Wrapper@?$CSimpleArray@PEAUHINSTANCE__@@V?$CSimpleArrayEqualHelper@PEAUHINSTANCE__@@@ATL@@@ATL@@SAPEAX_KPEAPEAUHINSTANCE__@@@Z 000000018000e5b4 f i atls:atlbase.obj
 0001:0000d5b8       ??0?$CSimpleArray@PEAUHINSTANCE__@@V?$CSimpleArrayEqualHelper@PEAUHINSTANCE__@@@ATL@@@ATL@@QEAA@XZ 000000018000e5b8 f i atls:atlbase.obj
 0001:0000d5c8       ??0CAtlBaseModule@ATL@@QEAA@XZ 000000018000e5c8 f   atls:atlbase.obj
 0001:0000d670       ??0Wrapper@?$CSimpleArray@PEAUHINSTANCE__@@V?$CSimpleArrayEqualHelper@PEAUHINSTANCE__@@@ATL@@@ATL@@QEAA@AEBQEAUHINSTANCE__@@@Z 000000018000e670 f i atls:atlbase.obj
 0001:0000d67c       ??0_ATL_BASE_MODULE70@ATL@@QEAA@XZ 000000018000e67c f i atls:atlbase.obj
 0001:0000d6a8       ??1?$CSimpleArray@PEAUHINSTANCE__@@V?$CSimpleArrayEqualHelper@PEAUHINSTANCE__@@@ATL@@@ATL@@QEAA@XZ 000000018000e6a8 f i atls:atlbase.obj
 0001:0000d6d0       ??1CAtlBaseModule@ATL@@QEAA@XZ 000000018000e6d0 f   atls:atlbase.obj
 0001:0000d704       ??1_ATL_BASE_MODULE70@ATL@@QEAA@XZ 000000018000e704 f i atls:atlbase.obj
 0001:0000d730       ??A?$CSimpleArray@PEAUHINSTANCE__@@V?$CSimpleArrayEqualHelper@PEAUHINSTANCE__@@@ATL@@@ATL@@QEAAAEAPEAUHINSTANCE__@@H@Z 000000018000e730 f i atls:atlbase.obj
 0001:0000d75c       ?Add@?$CSimpleArray@PEAUHINSTANCE__@@V?$CSimpleArrayEqualHelper@PEAUHINSTANCE__@@@ATL@@@ATL@@QEAAHAEBQEAUHINSTANCE__@@@Z 000000018000e75c f i atls:atlbase.obj
 0001:0000d810       ?AddResourceInstance@CAtlBaseModule@ATL@@QEAA_NPEAUHINSTANCE__@@@Z 000000018000e810 f   atls:atlbase.obj
 0001:0000d858       ?GetHInstanceAt@CAtlBaseModule@ATL@@QEAAPEAUHINSTANCE__@@H@Z 000000018000e858 f   atls:atlbase.obj
 0001:0000d8d0       ?GetSize@?$CSimpleArray@PEAUHINSTANCE__@@V?$CSimpleArrayEqualHelper@PEAUHINSTANCE__@@@ATL@@@ATL@@QEBAHXZ 000000018000e8d0 f i atls:atlbase.obj
 0001:0000d8d4       ?InternalSetAtIndex@?$CSimpleArray@PEAUHINSTANCE__@@V?$CSimpleArrayEqualHelper@PEAUHINSTANCE__@@@ATL@@@ATL@@QEAAXHAEBQEAUHINSTANCE__@@@Z 000000018000e8d4 f i atls:atlbase.obj
 0001:0000d8ec       ?RemoveAll@?$CSimpleArray@PEAUHINSTANCE__@@V?$CSimpleArrayEqualHelper@PEAUHINSTANCE__@@@ATL@@@ATL@@QEAAXXZ 000000018000e8ec f i atls:atlbase.obj
 0001:0000d914       ?RemoveAt@?$CSimpleArray@PEAUHINSTANCE__@@V?$CSimpleArrayEqualHelper@PEAUHINSTANCE__@@@ATL@@@ATL@@QEAAHH@Z 000000018000e914 f i atls:atlbase.obj
 0001:0000d9b8       ?RemoveResourceInstance@CAtlBaseModule@ATL@@QEAA_NPEAUHINSTANCE__@@@Z 000000018000e9b8 f   atls:atlbase.obj
 0001:0000da38       ?memmove_s@Checked@ATL@@YAXPEAX_KPEBX1@Z 000000018000ea38 f i atls:atlbase.obj
 0001:0000dae0       ??3@YAXPEAX_K@Z            000000018000eae0 f   LIBCMTD:delete_scalar_size.obj
 0001:0000db00       ??_V@YAXPEAX_K@Z           000000018000eb00 f   LIBCMTD:delete_array_size.obj
 0001:0000db20       ?configure_argv@__scrt_narrow_argv_policy@@SAHXZ 000000018000eb20 f i LIBCMTD:utility.obj
 0001:0000dc10       ?initialize_environment@__scrt_narrow_environment_policy@@SAHXZ 000000018000ec10 f i LIBCMTD:utility.obj
 0001:0000dcb0       NtCurrentTeb               000000018000ecb0 f i LIBCMTD:utility.obj
 0001:0000dcc0       __scrt_acquire_startup_lock 000000018000ecc0 f   LIBCMTD:utility.obj
 0001:0000dd30       __scrt_dllmain_after_initialize_c 000000018000ed30 f   LIBCMTD:utility.obj
 0001:0000dd60       __scrt_dllmain_before_initialize_c 000000018000ed60 f   LIBCMTD:utility.obj
 0001:0000dd80       __scrt_dllmain_crt_thread_attach 000000018000ed80 f   LIBCMTD:utility.obj
 0001:0000ddb0       __scrt_dllmain_crt_thread_detach 000000018000edb0 f   LIBCMTD:utility.obj
 0001:0000ddd0       __scrt_dllmain_exception_filter 000000018000edd0 f   LIBCMTD:utility.obj
 0001:0000de40       __scrt_dllmain_uninitialize_c 000000018000ee40 f   LIBCMTD:utility.obj
 0001:0000de70       __scrt_dllmain_uninitialize_critical 000000018000ee70 f   LIBCMTD:utility.obj
 0001:0000de90       __scrt_initialize_crt      000000018000ee90 f   LIBCMTD:utility.obj
 0001:0000dee0       __scrt_initialize_onexit_tables 000000018000eee0 f   LIBCMTD:utility.obj
 0001:0000dff0       __scrt_is_nonwritable_in_current_image 000000018000eff0 f   LIBCMTD:utility.obj
 0001:0000e080       __scrt_release_startup_lock 000000018000f080 f   LIBCMTD:utility.obj
 0001:0000e0b0       __scrt_uninitialize_crt    000000018000f0b0 f   LIBCMTD:utility.obj
 0001:0000e0f0       _onexit                    000000018000f0f0 f   LIBCMTD:utility.obj
 0001:0000e170       at_quick_exit              000000018000f170 f   LIBCMTD:utility.obj
 0001:0000e1c0       atexit                     000000018000f1c0 f   LIBCMTD:utility.obj
 0001:0000e200       _RTC_AllocaHelper          000000018000f200 f   LIBCMTD:stack.obj
 0001:0000e240       _RTC_CheckStackVars        000000018000f240 f   LIBCMTD:stack.obj
 0001:0000e2d0       _RTC_CheckStackVars2       000000018000f2d0 f   LIBCMTD:stack.obj
 0001:0000e3e0       _CRT_RTC_INIT              000000018000f3e0 f   LIBCMTD:init.obj
 0001:0000e3f0       _CRT_RTC_INITW             000000018000f3f0 f   LIBCMTD:init.obj
 0001:0000e400       _RTC_InitBase              000000018000f400 f   LIBCMTD:init.obj
 0001:0000e440       _RTC_Shutdown              000000018000f440 f   LIBCMTD:init.obj
 0001:0000e470       __GSHandlerCheck           000000018000f470 f   LIBCMTD:gshandler.obj
 0001:0000e4b0       __GSHandlerCheckCommon     000000018000f4b0 f   LIBCMTD:gshandler.obj
 0001:0000e5c0       __security_check_cookie    000000018000f5c0 f   LIBCMTD:amdsecgs.obj
 0001:0000e5f0       ??3@YAXPEAX@Z              000000018000f5f0 f   LIBCMTD:delete_scalar.obj
 0001:0000e610       ??_V@YAXPEAX@Z             000000018000f610 f   LIBCMTD:delete_array.obj
 0001:0000e630       __raise_securityfailure    000000018000f630 f   LIBCMTD:gs_report.obj
 0001:0000e670       __report_gsfailure         000000018000f670 f   LIBCMTD:gs_report.obj
 0001:0000e750       __report_rangecheckfailure 000000018000f750 f   LIBCMTD:gs_report.obj
 0001:0000e770       __report_securityfailure   000000018000f770 f   LIBCMTD:gs_report.obj
 0001:0000e810       __report_securityfailureEx 000000018000f810 f   LIBCMTD:gs_report.obj
 0001:0000ea80       ??_U@YAPEAX_KAEBUnothrow_t@std@@@Z 000000018000fa80 f   LIBCMTD:new_array_nothrow.obj
 0001:0000eac0       _alloca_probe              000000018000fac0 f   LIBCMTD:chkstk.obj
 0001:0000eac0       __chkstk                   000000018000fac0 f   LIBCMTD:chkstk.obj
 0001:0000ef30       _CRT_INIT                  000000018000ff30 f   LIBCMTD:dll_dllmain.obj
 0001:0000ef60       _DllMainCRTStartup         000000018000ff60 f   LIBCMTD:dll_dllmain.obj
 0001:0000efa0       _guard_check_icall_nop     000000018000ffa0 f i LIBCMTD:guard_support.obj
 0001:0000efb0       ReadNoFence64              000000018000ffb0 f i LIBCMTD:guard_support.obj
 0001:0000efd0       ReadPointerNoFence         000000018000ffd0 f i LIBCMTD:guard_support.obj
 0001:0000eff0       _guard_icall_checks_enforced 000000018000fff0 f i LIBCMTD:guard_support.obj
 0001:0000f030       _guard_rf_checks_enforced  0000000180010030 f i LIBCMTD:guard_support.obj
 0001:0000f040       __isa_available_init       0000000180010040 f   LIBCMTD:cpu_disp.obj
 0001:0000f3e0       _get_startup_argv_mode     00000001800103e0 f   LIBCMTD:argv_mode.obj
 0001:0000f3f0       __scrt_is_ucrt_dll_in_use  00000001800103f0 f   LIBCMTD:ucrt_detection.obj
 0001:0000f420       __crt_debugger_hook        0000000180010420 f   LIBCMTD:utility_desktop.obj
 0001:0000f430       __scrt_fastfail            0000000180010430 f   LIBCMTD:utility_desktop.obj
 0001:0000f5d0       __scrt_get_show_window_mode 00000001800105d0 f   LIBCMTD:utility_desktop.obj
 0001:0000f630       __scrt_initialize_mta      0000000180010630 f   LIBCMTD:utility_desktop.obj
 0001:0000f640       __scrt_initialize_winrt    0000000180010640 f   LIBCMTD:utility_desktop.obj
 0001:0000f650       __scrt_is_managed_app      0000000180010650 f   LIBCMTD:utility_desktop.obj
 0001:0000f700       __scrt_set_unhandled_exception_filter 0000000180010700 f   LIBCMTD:utility_desktop.obj
 0001:0000f720       __scrt_exe_initialize_mta  0000000180010720 f   LIBCMTD:utility_desktop.obj
 0001:0000f720       __scrt_stub_for_initialize_mta 0000000180010720 f   LIBCMTD:utility_desktop.obj
 0001:0000f730       __scrt_unhandled_exception_filter 0000000180010730 f   LIBCMTD:utility_desktop.obj
 0001:0000f860       ?_RTC_AllocaFailure@@YAXPEAXPEAU_RTC_ALLOCA_NODE@@H@Z 0000000180010860 f   LIBCMTD:error.obj
 0001:0000f9c0       ?_RTC_Failure@@YAXPEAXH@Z  00000001800109c0 f   LIBCMTD:error.obj
 0001:0000fa10       ?_RTC_StackFailure@@YAXPEAXPEBD@Z 0000000180010a10 f   LIBCMTD:error.obj
 0001:0000fe40       _RTC_UninitUse             0000000180010e40 f   LIBCMTD:error.obj
 0001:0000ff10       _vsprintf_s_l              0000000180010f10 f i LIBCMTD:error.obj
 0001:0000ff80       sprintf_s                  0000000180010f80 f i LIBCMTD:error.obj
 0001:0000ffb0       ?_RTC_GetErrorFunc@@YAP6AHHPEBDH00ZZPEBX@Z 0000000180010fb0 f   LIBCMTD:userapi.obj
 0001:0000ffc0       ?_RTC_GetErrorFuncW@@YAP6AHHPEB_WH00ZZPEBX@Z 0000000180010fc0 f   LIBCMTD:userapi.obj
 0001:0000ffd0       _RTC_GetErrDesc            0000000180010fd0 f   LIBCMTD:userapi.obj
 0001:0000fff0       _RTC_NumErrors             0000000180010ff0 f   LIBCMTD:userapi.obj
 0001:00010000       _RTC_SetErrorFunc          0000000180011000 f   LIBCMTD:userapi.obj
 0001:00010020       _RTC_SetErrorFuncW         0000000180011020 f   LIBCMTD:userapi.obj
 0001:00010040       _RTC_SetErrorType          0000000180011040 f   LIBCMTD:userapi.obj
 0001:00010060       ??2@YAPEAX_KAEBUnothrow_t@std@@@Z 0000000180011060 f   LIBCMTD:new_scalar_nothrow.obj
 0001:00010160       __security_init_cookie     0000000180011160 f   LIBCMTD:gs_support.obj
 0001:000101e0       ?__scrt_initialize_type_info@@YAXXZ 00000001800111e0 f   LIBCMTD:tncleanup.obj
 0001:00010200       ?__scrt_uninitialize_type_info@@YAXXZ 0000000180011200 f   LIBCMTD:tncleanup.obj
 0001:00010220       __local_stdio_scanf_options 0000000180011220 f i LIBCMTD:default_local_stdio_options.obj
 0001:00010230       __scrt_initialize_default_local_stdio_options 0000000180011230 f   LIBCMTD:default_local_stdio_options.obj
 0001:00010280       __scrt_get_dyn_tls_init_callback 0000000180011280 f   LIBCMTD:dyn_tls_init.obj
 0001:00010290       _RTC_Initialize            0000000180011290 f   LIBCMTD:initsect.obj
 0001:000102e0       _RTC_Terminate             00000001800112e0 f   LIBCMTD:initsect.obj
 0001:00010840       ?_RTC_GetSrcLine@@YAHPEAEPEA_WKPEAH1K@Z 0000000180011840 f   LIBCMTD:pdblkup.obj
 0001:00010c10       ??2@YAPEAX_K@Z             0000000180011c10 f   LIBCMTD:new_scalar.obj
 0001:00010c60       ??0bad_alloc@std@@AEAA@QEBD@Z 0000000180011c60 f i LIBCMTD:throw_bad_alloc.obj
 0001:00010ca0       ??0bad_alloc@std@@QEAA@AEBV01@@Z 0000000180011ca0 f i LIBCMTD:throw_bad_alloc.obj
 0001:00010ce0       ??0bad_alloc@std@@QEAA@XZ  0000000180011ce0 f i LIBCMTD:throw_bad_alloc.obj
 0001:00010d20       ??0bad_array_new_length@std@@QEAA@AEBV01@@Z 0000000180011d20 f i LIBCMTD:throw_bad_alloc.obj
 0001:00010d60       ??0bad_array_new_length@std@@QEAA@XZ 0000000180011d60 f i LIBCMTD:throw_bad_alloc.obj
 0001:00010da0       ??0exception@std@@QEAA@AEBV01@@Z 0000000180011da0 f i LIBCMTD:throw_bad_alloc.obj
 0001:00010e00       ??0exception@std@@QEAA@QEBDH@Z 0000000180011e00 f i LIBCMTD:throw_bad_alloc.obj
 0001:00010e50       ??1bad_alloc@std@@UEAA@XZ  0000000180011e50 f i LIBCMTD:throw_bad_alloc.obj
 0001:00010e70       ??1bad_array_new_length@std@@UEAA@XZ 0000000180011e70 f i LIBCMTD:throw_bad_alloc.obj
 0001:00010e90       ??1exception@std@@UEAA@XZ  0000000180011e90 f i LIBCMTD:throw_bad_alloc.obj
 0001:00010ec0       ??_Ebad_alloc@std@@UEAAPEAXI@Z 0000000180011ec0 f i LIBCMTD:throw_bad_alloc.obj
 0001:00010ec0       ??_Gbad_alloc@std@@UEAAPEAXI@Z 0000000180011ec0 f i LIBCMTD:throw_bad_alloc.obj
 0001:00010f00       ??_Gbad_array_new_length@std@@UEAAPEAXI@Z 0000000180011f00 f i LIBCMTD:throw_bad_alloc.obj
 0001:00010f00       ??_Ebad_array_new_length@std@@UEAAPEAXI@Z 0000000180011f00 f i LIBCMTD:throw_bad_alloc.obj
 0001:00010f40       ??_Eexception@std@@UEAAPEAXI@Z 0000000180011f40 f i LIBCMTD:throw_bad_alloc.obj
 0001:00010f40       ??_Gexception@std@@UEAAPEAXI@Z 0000000180011f40 f i LIBCMTD:throw_bad_alloc.obj
 0001:00010f80       ?__scrt_throw_std_bad_alloc@@YAXXZ 0000000180011f80 f   LIBCMTD:throw_bad_alloc.obj
 0001:00010fb0       ?__scrt_throw_std_bad_array_new_length@@YAXXZ 0000000180011fb0 f   LIBCMTD:throw_bad_alloc.obj
 0001:00010fe0       ?what@exception@std@@UEBAPEBDXZ 0000000180011fe0 f i LIBCMTD:throw_bad_alloc.obj
 0001:00011020       ??1type_info@@UEAA@XZ      0000000180012020 f   LIBCMTD:std_type_info_static.obj
 0001:00011040       ??_Gtype_info@@UEAAPEAXI@Z 0000000180012040 f i LIBCMTD:std_type_info_static.obj
 0001:00011040       ??_Etype_info@@UEAAPEAXI@Z 0000000180012040 f i LIBCMTD:std_type_info_static.obj
 0001:00011090       memset_repmovs             0000000180012090 f   libvcruntimed:memset.obj
 0001:000110b0       memset                     00000001800120b0 f   libvcruntimed:memset.obj
 0001:00011250       memcmp                     0000000180012250 f   libvcruntimed:memcmp.obj
 0001:00011330       memcpy_repmovs             0000000180012330 f   libvcruntimed:memcpy.obj
 0001:00011350       memcpy                     0000000180012350 f   libvcruntimed:memcpy.obj
 0001:00011350       memmove                    0000000180012350 f   libvcruntimed:memcpy.obj
 0001:00011730       wcsstr                     0000000180012730 f   libvcruntimed:wcsstr.obj
 0001:00011d90       __vcrt_initialize          0000000180012d90 f   libvcruntimed:initialization.obj
 0001:00011dd0       __vcrt_thread_attach       0000000180012dd0 f   libvcruntimed:initialization.obj
 0001:00011df0       __vcrt_thread_detach       0000000180012df0 f   libvcruntimed:initialization.obj
 0001:00011e10       __vcrt_uninitialize        0000000180012e10 f   libvcruntimed:initialization.obj
 0001:00011e30       __vcrt_uninitialize_critical 0000000180012e30 f   libvcruntimed:initialization.obj
 0001:00011e50       __C_specific_handler       0000000180012e50 f   libvcruntimed:riscchandler.obj
 0001:000122c0       __DestructExceptionObject  00000001800132c0 f   libvcruntimed:ehhelpers.obj
 0001:000123c0       ?_CallMemberFunction0@@YAXQEAX0@Z 00000001800133c0 f i libvcruntimed:ehhelpers.obj
 0001:00012490       ?raw_name@type_info@@QEBAPEBDXZ 0000000180013490 f i libvcruntimed:ehhelpers.obj
 0001:000124a0       _IsExceptionObjectToBeDestroyed 00000001800134a0 f   libvcruntimed:ehhelpers.obj
 0001:000124f0       _SetWinRTOutOfMemoryExceptionCallback 00000001800134f0 f   libvcruntimed:ehhelpers.obj
 0001:00012510       __AdjustPointer            0000000180013510 f   libvcruntimed:ehhelpers.obj
 0001:00012590       __FrameUnwindFilter        0000000180013590 f   libvcruntimed:ehhelpers.obj
 0001:00012640       __GetPlatformExceptionInfo 0000000180013640 f   libvcruntimed:ehhelpers.obj
 0001:000126f0       __current_exception        00000001800136f0 f   libvcruntimed:ehhelpers.obj
 0001:00012710       __current_exception_context 0000000180013710 f   libvcruntimed:ehhelpers.obj
 0001:00012730       __processing_throw         0000000180013730 f   libvcruntimed:ehhelpers.obj
 0001:00012750       __std_terminate            0000000180013750 f   libvcruntimed:ehhelpers.obj
 0001:00012760       _is_exception_typeof       0000000180013760 f   libvcruntimed:ehhelpers.obj
 0001:000128b0       __C_specific_handler_noexcept 00000001800138b0 f   libvcruntimed:chandler_noexcept.obj
 0001:00012940       ??$?0AEAViterator@TryBlockMap4@FH4@@AEAV012@$0A@@?$pair@Viterator@TryBlockMap4@FH4@@V123@@std@@QEAA@AEAViterator@TryBlockMap4@FH4@@0@Z 0000000180013940 f i libvcruntimed:risctrnsctrl.obj
 0001:000129a0       ??$?0AEAViterator@TryBlockMap@__FrameHandler3@@AEAV012@$0A@@?$pair@Viterator@TryBlockMap@__FrameHandler3@@V123@@std@@QEAA@AEAViterator@TryBlockMap@__FrameHandler3@@0@Z 00000001800139a0 f i libvcruntimed:risctrnsctrl.obj
 0001:00012b70       ??$_CallSETranslator@V__FrameHandler3@@@@YAHPEAUEHExceptionRecord@@PEA_KPEAU_CONTEXT@@PEAU_xDISPATCHER_CONTEXT@@PEBU_s_FuncInfo@@K1H@Z 0000000180013b70 f i libvcruntimed:risctrnsctrl.obj
 0001:00012c00       ??$_CallSETranslator@V__FrameHandler4@@@@YAHPEAUEHExceptionRecord@@PEA_KPEAU_CONTEXT@@PEAU_xDISPATCHER_CONTEXT@@PEAUFuncInfo4@FH4@@K1H@Z 0000000180013c00 f i libvcruntimed:risctrnsctrl.obj
 0001:00012c90       ??$forward@AEAViterator@TryBlockMap4@FH4@@@std@@YAAEAViterator@TryBlockMap4@FH4@@AEAV123@@Z 0000000180013c90 f i libvcruntimed:risctrnsctrl.obj
 0001:00012ca0       ??$forward@AEAViterator@TryBlockMap@__FrameHandler3@@@std@@YAAEAViterator@TryBlockMap@__FrameHandler3@@AEAV123@@Z 0000000180013ca0 f i libvcruntimed:risctrnsctrl.obj
 0001:00012cb0       ??0FuncInfo4@FH4@@QEAA@XZ  0000000180013cb0 f i libvcruntimed:risctrnsctrl.obj
 0001:00012d20       ??0FuncInfoHeader@FH4@@QEAA@XZ 0000000180013d20 f i libvcruntimed:risctrnsctrl.obj
 0001:00012d40       ??0iterator@TryBlockMap4@FH4@@QEAA@AEAV12@I@Z 0000000180013d40 f i libvcruntimed:risctrnsctrl.obj
 0001:00012d70       ??0iterator@TryBlockMap@__FrameHandler3@@QEAA@AEAV12@I@Z 0000000180013d70 f i libvcruntimed:risctrnsctrl.obj
 0001:00012da0       ??4iterator@TryBlockMap4@FH4@@QEAAAEAV012@AEBV012@@Z 0000000180013da0 f i libvcruntimed:risctrnsctrl.obj
 0001:00012dc0       ??9iterator@TryBlockMap4@FH4@@QEBA_NAEBV012@@Z 0000000180013dc0 f i libvcruntimed:risctrnsctrl.obj
 0001:00012e00       ??Diterator@TryBlockMap4@FH4@@QEAA?AUTryBlockMapEntry4@2@XZ 0000000180013e00 f i libvcruntimed:risctrnsctrl.obj
 0001:00012e30       ??Eiterator@TryBlockMap4@FH4@@QEAAAEAV012@XZ 0000000180013e30 f i libvcruntimed:risctrnsctrl.obj
 0001:00012e70       ?CatchTryBlock@__FrameHandler3@@SAPEBU_s_TryBlockMapEntry@@PEBU_s_FuncInfo@@H@Z 0000000180013e70 f   libvcruntimed:risctrnsctrl.obj
 0001:00012f00       ?DecompFuncInfo@FH4@@YA_JPEAEAEAUFuncInfo4@1@_KH@Z 0000000180013f00 f i libvcruntimed:risctrnsctrl.obj
 0001:00012f40       ?DecompFuncInfo@FH4@@YA_JPEAEAEAUFuncInfo4@1@_KH_N@Z 0000000180013f40 f i libvcruntimed:risctrnsctrl.obj
 0001:00013110       ?DecompTryBlock@TryBlockMap4@FH4@@AEAAXXZ 0000000180014110 f i libvcruntimed:risctrnsctrl.obj
 0001:00013190       ?ExecutionInCatch@__FrameHandler3@@SA_NPEAU_xDISPATCHER_CONTEXT@@PEBU_s_FuncInfo@@@Z 0000000180014190 f   libvcruntimed:risctrnsctrl.obj
 0001:000131e0       ?ExecutionInCatch@__FrameHandler4@@SA_NPEAU_xDISPATCHER_CONTEXT@@PEAUFuncInfo4@FH4@@@Z 00000001800141e0 f   libvcruntimed:risctrnsctrl.obj
 0001:00013200       ?FrameUnwindToEmptyState@__FrameHandler3@@SAXPEA_KPEAU_xDISPATCHER_CONTEXT@@PEBU_s_FuncInfo@@@Z 0000000180014200 f   libvcruntimed:risctrnsctrl.obj
 0001:000132a0       ?FrameUnwindToEmptyState@__FrameHandler4@@SAXPEA_KPEAU_xDISPATCHER_CONTEXT@@PEAUFuncInfo4@FH4@@@Z 00000001800142a0 f   libvcruntimed:risctrnsctrl.obj
 0001:000132f0       ?GetEstablisherFrame@__FrameHandler3@@SAPEA_KPEA_KPEAU_xDISPATCHER_CONTEXT@@PEBU_s_FuncInfo@@0@Z 00000001800142f0 f   libvcruntimed:risctrnsctrl.obj
 0001:00013460       ?GetEstablisherFrame@__FrameHandler4@@SAPEA_KPEA_KPEAU_xDISPATCHER_CONTEXT@@PEAUFuncInfo4@FH4@@0@Z 0000000180014460 f   libvcruntimed:risctrnsctrl.obj
 0001:000134d0       ?GetRangeOfTrysToCheck@__FrameHandler3@@SA?AU?$pair@Viterator@TryBlockMap@__FrameHandler3@@V123@@std@@AEAVTryBlockMap@1@HPEAU_xDISPATCHER_CONTEXT@@PEBU_s_FuncInfo@@H@Z 00000001800144d0 f   libvcruntimed:risctrnsctrl.obj
 0001:00013710       ?GetRangeOfTrysToCheck@__FrameHandler4@@SA?AU?$pair@Viterator@TryBlockMap4@FH4@@V123@@std@@AEAVTryBlockMap4@FH4@@HPEAU_xDISPATCHER_CONTEXT@@PEAUFuncInfo4@5@H@Z 0000000180014710 f   libvcruntimed:risctrnsctrl.obj
 0001:000138c0       ?ReadInt@FH4@@YAHPEAPEAE@Z 00000001800148c0 f i libvcruntimed:risctrnsctrl.obj
 0001:00013900       ?ReadUnsigned@FH4@@YAIPEAPEAE@Z 0000000180014900 f i libvcruntimed:risctrnsctrl.obj
 0001:00013990       ?UnwindNestedFrames@__FrameHandler3@@SAXPEA_KPEAUEHExceptionRecord@@PEAU_CONTEXT@@0PEAXPEBU_s_FuncInfo@@HHPEBU_s_HandlerType@@PEAU_xDISPATCHER_CONTEXT@@E@Z 0000000180014990 f   libvcruntimed:risctrnsctrl.obj
 0001:00013b00       ?UnwindNestedFrames@__FrameHandler4@@SAXPEA_KPEAUEHExceptionRecord@@PEAU_CONTEXT@@0PEAXPEAUFuncInfo4@FH4@@HHPEAUHandlerType4@5@PEAU_xDISPATCHER_CONTEXT@@E@Z 0000000180014b00 f   libvcruntimed:risctrnsctrl.obj
 0001:00013cd0       ?begin@TryBlockMap4@FH4@@QEAA?AViterator@12@XZ 0000000180014cd0 f i libvcruntimed:risctrnsctrl.obj
 0001:00013d00       ?end@TryBlockMap4@FH4@@QEAA?AViterator@12@XZ 0000000180014d00 f i libvcruntimed:risctrnsctrl.obj
 0001:00013d30       ?imageRelToByteBuffer@FH4@@YAPEAE_KH@Z 0000000180014d30 f i libvcruntimed:risctrnsctrl.obj
 0001:00013d50       ?incrementToSentinel@iterator@TryBlockMap4@FH4@@QEAAXXZ 0000000180014d50 f i libvcruntimed:risctrnsctrl.obj
 0001:00013d70       ?setBuffer@TryBlockMap4@FH4@@QEAAXViterator@12@@Z 0000000180014d70 f i libvcruntimed:risctrnsctrl.obj
 0001:00013de0       _CreateFrameInfo           0000000180014de0 f   libvcruntimed:risctrnsctrl.obj
 0001:00013e50       _FindAndUnlinkFrame        0000000180014e50 f   libvcruntimed:risctrnsctrl.obj
 0001:00013ed0       _GetImageBase              0000000180014ed0 f   libvcruntimed:risctrnsctrl.obj
 0001:00013ef0       _GetThrowImageBase         0000000180014ef0 f   libvcruntimed:risctrnsctrl.obj
 0001:00013f10       _SetImageBase              0000000180014f10 f   libvcruntimed:risctrnsctrl.obj
 0001:00013f30       _SetThrowImageBase         0000000180014f30 f   libvcruntimed:risctrnsctrl.obj
 0001:00013f50       __CxxFrameHandler          0000000180014f50 f   libvcruntimed:risctrnsctrl.obj
 0001:00013f90       __CxxFrameHandler2         0000000180014f90 f   libvcruntimed:risctrnsctrl.obj
 0001:00013fd0       __CxxFrameHandler3         0000000180014fd0 f   libvcruntimed:risctrnsctrl.obj
 0001:000140b0       __CxxFrameHandler4         00000001800150b0 f   libvcruntimed:risctrnsctrl.obj
 0001:00014200       ??$?RD@__crt_internal_free_policy@@QEBAXQEBD@Z 0000000180015200 f i libvcruntimed:std_type_info.obj
 0001:00014230       ??$?RX@__crt_internal_free_policy@@QEBAXQEBX@Z 0000000180015230 f i libvcruntimed:std_type_info.obj
 0001:00014260       ??$__crt_interlocked_compare_exchange_pointer@$$CBDPEAD$$T@@YAPEBDPEDSEBDQEAD$$T@Z 0000000180015260 f i libvcruntimed:std_type_info.obj
 0001:000142a0       ??$__crt_interlocked_read_pointer@$$CBD@@YAPEBDPEDSEBD@Z 00000001800152a0 f i libvcruntimed:std_type_info.obj
 0001:000142c0       ??0?$__crt_unique_heap_ptr@DU__crt_internal_free_policy@@@@QEAA@QEAD@Z 00000001800152c0 f i libvcruntimed:std_type_info.obj
 0001:000142e0       ??0?$__crt_unique_heap_ptr@XU__crt_internal_free_policy@@@@QEAA@QEAX@Z 00000001800152e0 f i libvcruntimed:std_type_info.obj
 0001:00014300       ??1?$__crt_unique_heap_ptr@DU__crt_internal_free_policy@@@@QEAA@XZ 0000000180015300 f i libvcruntimed:std_type_info.obj
 0001:00014320       ??1?$__crt_unique_heap_ptr@XU__crt_internal_free_policy@@@@QEAA@XZ 0000000180015320 f i libvcruntimed:std_type_info.obj
 0001:00014340       ??B?$__crt_unique_heap_ptr@DU__crt_internal_free_policy@@@@QEBA_NXZ 0000000180015340 f i libvcruntimed:std_type_info.obj
 0001:00014360       ??B?$__crt_unique_heap_ptr@XU__crt_internal_free_policy@@@@QEBA_NXZ 0000000180015360 f i libvcruntimed:std_type_info.obj
 0001:00014400       ?__crt_interlocked_read_64@@YA_JPED_J@Z 0000000180015400 f i libvcruntimed:std_type_info.obj
 0001:00014420       ?detach@?$__crt_unique_heap_ptr@XU__crt_internal_free_policy@@@@QEAAPEAXXZ 0000000180015420 f i libvcruntimed:std_type_info.obj
 0001:00014450       ?get@?$__crt_unique_heap_ptr@DU__crt_internal_free_policy@@@@QEBAPEADXZ 0000000180015450 f i libvcruntimed:std_type_info.obj
 0001:00014460       ?get@?$__crt_unique_heap_ptr@XU__crt_internal_free_policy@@@@QEBAPEAXXZ 0000000180015460 f i libvcruntimed:std_type_info.obj
 0001:00014470       ?is_valid@?$__crt_unique_heap_ptr@DU__crt_internal_free_policy@@@@QEBA_NXZ 0000000180015470 f i libvcruntimed:std_type_info.obj
 0001:000144a0       ?is_valid@?$__crt_unique_heap_ptr@XU__crt_internal_free_policy@@@@QEBA_NXZ 00000001800154a0 f i libvcruntimed:std_type_info.obj
 0001:000144d0       ?release@?$__crt_unique_heap_ptr@DU__crt_internal_free_policy@@@@QEAAXXZ 00000001800154d0 f i libvcruntimed:std_type_info.obj
 0001:00014500       ?release@?$__crt_unique_heap_ptr@XU__crt_internal_free_policy@@@@QEAAXXZ 0000000180015500 f i libvcruntimed:std_type_info.obj
 0001:00014530       __std_type_info_compare    0000000180015530 f   libvcruntimed:std_type_info.obj
 0001:00014570       __std_type_info_destroy_list 0000000180015570 f   libvcruntimed:std_type_info.obj
 0001:000145d0       __std_type_info_hash       00000001800155d0 f   libvcruntimed:std_type_info.obj
 0001:00014680       __std_type_info_name       0000000180015680 f   libvcruntimed:std_type_info.obj
 0001:00014930       __vcrt_GetModuleFileNameW  0000000180015930 f   libvcruntimed:winapi_thunks.obj
 0001:00014960       __vcrt_GetModuleHandleW    0000000180015960 f   libvcruntimed:winapi_thunks.obj
 0001:00014980       __vcrt_LoadLibraryExW      0000000180015980 f   libvcruntimed:winapi_thunks.obj
 0001:000149b0       ??$?RD@__crt_public_free_policy@@QEBAXQEBD@Z 00000001800159b0 f i libvcruntimed:std_exception.obj
 0001:000149d0       ??0?$__crt_unique_heap_ptr@DU__crt_public_free_policy@@@@QEAA@QEAD@Z 00000001800159d0 f i libvcruntimed:std_exception.obj
 0001:000149f0       ??1?$__crt_unique_heap_ptr@DU__crt_public_free_policy@@@@QEAA@XZ 00000001800159f0 f i libvcruntimed:std_exception.obj
 0001:00014a10       ??B?$__crt_unique_heap_ptr@DU__crt_public_free_policy@@@@QEBA_NXZ 0000000180015a10 f i libvcruntimed:std_exception.obj
 0001:00014a30       ?detach@?$__crt_unique_heap_ptr@DU__crt_public_free_policy@@@@QEAAPEADXZ 0000000180015a30 f i libvcruntimed:std_exception.obj
 0001:00014a60       ?get@?$__crt_unique_heap_ptr@DU__crt_public_free_policy@@@@QEBAPEADXZ 0000000180015a60 f i libvcruntimed:std_exception.obj
 0001:00014a70       ?is_valid@?$__crt_unique_heap_ptr@DU__crt_public_free_policy@@@@QEBA_NXZ 0000000180015a70 f i libvcruntimed:std_exception.obj
 0001:00014aa0       ?release@?$__crt_unique_heap_ptr@DU__crt_public_free_policy@@@@QEAAXXZ 0000000180015aa0 f i libvcruntimed:std_exception.obj
 0001:00014ad0       __std_exception_copy       0000000180015ad0 f   libvcruntimed:std_exception.obj
 0001:00014c10       __std_exception_destroy    0000000180015c10 f   libvcruntimed:std_exception.obj
 0001:00014c50       _CxxThrowException         0000000180015c50 f   libvcruntimed:throw.obj
 0001:00014d80       ??$?RU__vcrt_ptd@@@__crt_internal_free_policy@@QEBAXQEBU__vcrt_ptd@@@Z 0000000180015d80 f i libvcruntimed:per_thread_data.obj
 0001:00014db0       ??0?$__crt_unique_heap_ptr@U__vcrt_ptd@@U__crt_internal_free_policy@@@@QEAA@QEAU__vcrt_ptd@@@Z 0000000180015db0 f i libvcruntimed:per_thread_data.obj
 0001:00014df0       ??1?$__crt_unique_heap_ptr@U__vcrt_ptd@@U__crt_internal_free_policy@@@@QEAA@XZ 0000000180015df0 f i libvcruntimed:per_thread_data.obj
 0001:00014e30       ??B?$__crt_unique_heap_ptr@U__vcrt_ptd@@U__crt_internal_free_policy@@@@QEBA_NXZ 0000000180015e30 f i libvcruntimed:per_thread_data.obj
 0001:00014e50       ?detach@?$__crt_unique_heap_ptr@U__vcrt_ptd@@U__crt_internal_free_policy@@@@QEAAPEAU__vcrt_ptd@@XZ 0000000180015e50 f i libvcruntimed:per_thread_data.obj
 0001:00014e80       ?get@?$__crt_unique_heap_ptr@U__vcrt_ptd@@U__crt_internal_free_policy@@@@QEBAPEAU__vcrt_ptd@@XZ 0000000180015e80 f i libvcruntimed:per_thread_data.obj
 0001:00014e90       ?is_valid@?$__crt_unique_heap_ptr@U__vcrt_ptd@@U__crt_internal_free_policy@@@@QEBA_NXZ 0000000180015e90 f i libvcruntimed:per_thread_data.obj
 0001:00014ec0       ?release@?$__crt_unique_heap_ptr@U__vcrt_ptd@@U__crt_internal_free_policy@@@@QEAAXXZ 0000000180015ec0 f i libvcruntimed:per_thread_data.obj
 0001:00014f30       __vcrt_freefls             0000000180015f30 f   libvcruntimed:per_thread_data.obj
 0001:00014f70       __vcrt_freeptd             0000000180015f70 f   libvcruntimed:per_thread_data.obj
 0001:00014fd0       __vcrt_getptd              0000000180015fd0 f   libvcruntimed:per_thread_data.obj
 0001:00015000       __vcrt_getptd_noexit       0000000180016000 f   libvcruntimed:per_thread_data.obj
 0001:000151a0       __vcrt_getptd_noinit       00000001800161a0 f   libvcruntimed:per_thread_data.obj
 0001:00015200       __vcrt_initialize_ptd      0000000180016200 f   libvcruntimed:per_thread_data.obj
 0001:00015250       __vcrt_uninitialize_ptd    0000000180016250 f   libvcruntimed:per_thread_data.obj
 0001:00015280       __vcrt_initialize_locks    0000000180016280 f   libvcruntimed:locks.obj
 0001:000152f0       __vcrt_lock                00000001800162f0 f   libvcruntimed:locks.obj
 0001:00015320       __vcrt_uninitialize_locks  0000000180016320 f   libvcruntimed:locks.obj
 0001:00015380       __vcrt_unlock              0000000180016380 f   libvcruntimed:locks.obj
 0001:000153c0       _NLG_Notify                00000001800163c0 f   libvcruntimed:notify.obj
 0001:000153e0       __NLG_Dispatch2            00000001800163e0 f   libvcruntimed:notify.obj
 0001:000153f0       __NLG_Return2              00000001800163f0 f   libvcruntimed:notify.obj
 0001:00015410       __except_validate_context_record 0000000180016410 f   libvcruntimed:jbcxrval.obj
 0001:00015470       __except_validate_jump_buffer 0000000180016470 f   libvcruntimed:jbcxrval.obj
 0001:00015490       __except_validate_jump_buffer_common 0000000180016490 f i libvcruntimed:jbcxrval.obj
 0001:00015510       ?GetCurrentState@__FrameHandler3@@SAHPEA_KPEAU_xDISPATCHER_CONTEXT@@PEBU_s_FuncInfo@@@Z 0000000180016510 f   libvcruntimed:ehstate.obj
 0001:00015570       ?GetUnwindTryBlock@__FrameHandler3@@SAHPEA_KPEAU_xDISPATCHER_CONTEXT@@PEBU_s_FuncInfo@@@Z 0000000180016570 f   libvcruntimed:ehstate.obj
 0001:000155c0       ?SetState@__FrameHandler3@@SAXPEA_KPEBU_s_FuncInfo@@H@Z 00000001800165c0 f   libvcruntimed:ehstate.obj
 0001:000155f0       ?SetUnwindTryBlock@__FrameHandler3@@SAXPEA_KPEAU_xDISPATCHER_CONTEXT@@PEBU_s_FuncInfo@@H@Z 00000001800165f0 f   libvcruntimed:ehstate.obj
 0001:00015660       ?StateFromControlPc@__FrameHandler3@@SAHPEBU_s_FuncInfo@@PEAU_xDISPATCHER_CONTEXT@@@Z 0000000180016660 f   libvcruntimed:ehstate.obj
 0001:000156a0       ?StateFromControlPc@__FrameHandler4@@SAHPEAUFuncInfo4@FH4@@PEAU_xDISPATCHER_CONTEXT@@@Z 00000001800166a0 f   libvcruntimed:ehstate.obj
 0001:000156e0       ?StateFromIp@__FrameHandler3@@SAHPEBU_s_FuncInfo@@PEAU_xDISPATCHER_CONTEXT@@_K@Z 00000001800166e0 f   libvcruntimed:ehstate.obj
 0001:000157d0       ?StateFromIp@__FrameHandler4@@SAHPEAUFuncInfo4@FH4@@PEAU_xDISPATCHER_CONTEXT@@_K@Z 00000001800167d0 f   libvcruntimed:ehstate.obj
 0001:000158c0       ?__FuncRelToRealOffset@@YA_KPEAU_xDISPATCHER_CONTEXT@@I@Z 00000001800168c0 f i libvcruntimed:ehstate.obj
 0001:000158f0       ?__RVAtoRealOffset@@YA_KPEAU_xDISPATCHER_CONTEXT@@H@Z 00000001800168f0 f i libvcruntimed:ehstate.obj
 0001:00017b70       ??$TypeMatchHelper@V__FrameHandler3@@@@YAHPEBU_s_HandlerType@@PEBU_s_CatchableType@@PEBU_s_ThrowInfo@@@Z 0000000180018b70 f i libvcruntimed:frame.obj
 0001:00017d70       ??$TypeMatchHelper@V__FrameHandler4@@@@YAHPEAUHandlerType4@FH4@@PEBU_s_CatchableType@@PEBU_s_ThrowInfo@@@Z 0000000180018d70 f i libvcruntimed:frame.obj
 0001:00017f80       ??$__InternalCxxFrameHandler@V__FrameHandler3@@@@YA?AW4_EXCEPTION_DISPOSITION@@PEAUEHExceptionRecord@@PEA_KPEAU_CONTEXT@@PEAU_xDISPATCHER_CONTEXT@@PEBU_s_FuncInfo@@H1E@Z 0000000180018f80 f i libvcruntimed:frame.obj
 0001:000183f0       ??$__InternalCxxFrameHandler@V__FrameHandler4@@@@YA?AW4_EXCEPTION_DISPOSITION@@PEAUEHExceptionRecord@@PEA_KPEAU_CONTEXT@@PEAU_xDISPATCHER_CONTEXT@@PEAUFuncInfo4@FH4@@H1E@Z 00000001800193f0 f i libvcruntimed:frame.obj
 0001:00018880       ??0HandlerMap4@FH4@@QEAA@PEBUTryBlockMapEntry4@1@_KH@Z 0000000180019880 f i libvcruntimed:frame.obj
 0001:00018940       ??0HandlerMap@__FrameHandler3@@QEAA@PEBU_s_TryBlockMapEntry@@_KI@Z 0000000180019940 f i libvcruntimed:frame.obj
 0001:00018990       ??0HandlerType4@FH4@@QEAA@XZ 0000000180019990 f i libvcruntimed:frame.obj
 0001:000189b0       ??0TryBlockMap4@FH4@@QEAA@PEBUFuncInfo4@1@_K@Z 00000001800199b0 f i libvcruntimed:frame.obj
 0001:00018a40       ??0TryBlockMap@__FrameHandler3@@QEAA@PEBU_s_FuncInfo@@_K@Z 0000000180019a40 f i libvcruntimed:frame.obj
 0001:00018a70       ??0UWMap4@FH4@@QEAA@PEBUFuncInfo4@1@_K@Z 0000000180019a70 f i libvcruntimed:frame.obj
 0001:00018ae0       ??0bad_exception@std@@QEAA@AEBV01@@Z 0000000180019ae0 f i libvcruntimed:frame.obj
 0001:00018b20       ??0bad_exception@std@@QEAA@XZ 0000000180019b20 f i libvcruntimed:frame.obj
 0001:00018b60       ??0iterator@HandlerMap4@FH4@@QEAA@AEAV12@I@Z 0000000180019b60 f i libvcruntimed:frame.obj
 0001:00018b90       ??0iterator@HandlerMap@__FrameHandler3@@QEAA@AEAV12@I@Z 0000000180019b90 f i libvcruntimed:frame.obj
 0001:00018bc0       ??0iterator@UWMap4@FH4@@QEAA@AEAV12@PEAE@Z 0000000180019bc0 f i libvcruntimed:frame.obj
 0001:00018bf0       ??1bad_exception@std@@UEAA@XZ 0000000180019bf0 f i libvcruntimed:frame.obj
 0001:00018c10       ??4iterator@UWMap4@FH4@@QEAAAEAV012@AEBV012@@Z 0000000180019c10 f i libvcruntimed:frame.obj
 0001:00018c60       ??8iterator@HandlerMap4@FH4@@QEBA_NAEBV012@@Z 0000000180019c60 f i libvcruntimed:frame.obj
 0001:00018ca0       ??8iterator@HandlerMap@__FrameHandler3@@QEBA_NAEBV012@@Z 0000000180019ca0 f i libvcruntimed:frame.obj
 0001:00018ce0       ??8type_info@@QEBA_NAEBV0@@Z 0000000180019ce0 f i libvcruntimed:frame.obj
 0001:00018d30       ??9iterator@HandlerMap4@FH4@@QEBA_NAEBV012@@Z 0000000180019d30 f i libvcruntimed:frame.obj
 0001:00018d70       ??9iterator@HandlerMap@__FrameHandler3@@QEBA_NAEBV012@@Z 0000000180019d70 f i libvcruntimed:frame.obj
 0001:00018db0       ??Diterator@HandlerMap4@FH4@@QEAA?AUHandlerType4@2@XZ 0000000180019db0 f i libvcruntimed:frame.obj
 0001:00018de0       ??Diterator@HandlerMap@__FrameHandler3@@QEAA?BU_s_HandlerType@@XZ 0000000180019de0 f i libvcruntimed:frame.obj
 0001:00018e20       ??Diterator@TryBlockMap@__FrameHandler3@@QEAA?BU_s_TryBlockMapEntry@@XZ 0000000180019e20 f i libvcruntimed:frame.obj
 0001:00018e70       ??Diterator@UWMap4@FH4@@QEAA?AUUnwindMapEntry4@2@XZ 0000000180019e70 f i libvcruntimed:frame.obj
 0001:00018ef0       ??Eiterator@HandlerMap4@FH4@@QEAAAEAV012@XZ 0000000180019ef0 f i libvcruntimed:frame.obj
 0001:00018f30       ??Eiterator@HandlerMap@__FrameHandler3@@QEAAAEAV012@XZ 0000000180019f30 f i libvcruntimed:frame.obj
 0001:00018f50       ??Eiterator@TryBlockMap@__FrameHandler3@@QEAAAEAV012@XZ 0000000180019f50 f i libvcruntimed:frame.obj
 0001:00018f70       ??Eiterator@UWMap4@FH4@@QEAAAEAV012@XZ 0000000180019f70 f i libvcruntimed:frame.obj
 0001:00018fb0       ??Giterator@UWMap4@FH4@@QEBA_JAEBV012@@Z 0000000180019fb0 f i libvcruntimed:frame.obj
 0001:00018fd0       ??Miterator@TryBlockMap4@FH4@@QEBA_NAEBV012@@Z 0000000180019fd0 f i libvcruntimed:frame.obj
 0001:00019010       ??Miterator@TryBlockMap@__FrameHandler3@@QEBA_NAEBV012@@Z 000000018001a010 f i libvcruntimed:frame.obj
 0001:00019050       ??Oiterator@UWMap4@FH4@@QEBA_NAEBV012@@Z 000000018001a050 f i libvcruntimed:frame.obj
 0001:00019090       ??Piterator@UWMap4@FH4@@QEBA_NAEBV012@@Z 000000018001a090 f i libvcruntimed:frame.obj
 0001:000190d0       ??_Ebad_exception@std@@UEAAPEAXI@Z 000000018001a0d0 f i libvcruntimed:frame.obj
 0001:000190d0       ??_Gbad_exception@std@@UEAAPEAXI@Z 000000018001a0d0 f i libvcruntimed:frame.obj
 0001:00019110       ?BuildCatchObject@__FrameHandler3@@SAXPEAUEHExceptionRecord@@PEAXPEBU_s_HandlerType@@PEBU_s_CatchableType@@@Z 000000018001a110 f   libvcruntimed:frame.obj
 0001:00019150       ?BuildCatchObject@__FrameHandler4@@SAXPEAUEHExceptionRecord@@PEAXPEAUHandlerType4@FH4@@PEBU_s_CatchableType@@@Z 000000018001a150 f   libvcruntimed:frame.obj
 0001:00019190       ?BuildCatchObjectHelper@__FrameHandler3@@SAHPEAUEHExceptionRecord@@PEAXPEBU_s_HandlerType@@PEBU_s_CatchableType@@@Z 000000018001a190 f   libvcruntimed:frame.obj
 0001:000191d0       ?BuildCatchObjectHelper@__FrameHandler4@@SAHPEAUEHExceptionRecord@@PEAXPEAUHandlerType4@FH4@@PEBU_s_CatchableType@@@Z 000000018001a1d0 f   libvcruntimed:frame.obj
 0001:00019210       ?CxxCallCatchBlock@__FrameHandler3@@SAPEAXPEAU_EXCEPTION_RECORD@@@Z 000000018001a210 f   libvcruntimed:frame.obj
 0001:00019470       ?CxxCallCatchBlock@__FrameHandler4@@SAPEAXPEAU_EXCEPTION_RECORD@@@Z 000000018001a470 f   libvcruntimed:frame.obj
 0001:000197a0       ?DecompHandler@HandlerMap4@FH4@@AEAAXXZ 000000018001a7a0 f i libvcruntimed:frame.obj
 0001:00019b70       ?FrameUnwindToState@__FrameHandler3@@SAXPEA_KPEAU_xDISPATCHER_CONTEXT@@PEBU_s_FuncInfo@@H@Z 000000018001ab70 f   libvcruntimed:frame.obj
 0001:00019dc0       ?FrameUnwindToState@__FrameHandler4@@SAXPEA_KPEAU_xDISPATCHER_CONTEXT@@PEAUFuncInfo4@FH4@@H@Z 000000018001adc0 f   libvcruntimed:frame.obj
 0001:0001a0d0       ?GetHandlerSearchState@__FrameHandler3@@SAHPEA_KPEAU_xDISPATCHER_CONTEXT@@PEBU_s_FuncInfo@@@Z 000000018001b0d0 f i libvcruntimed:frame.obj
 0001:0001a180       ?GetHandlerSearchState@__FrameHandler4@@SAHPEA_KPEAU_xDISPATCHER_CONTEXT@@PEAUFuncInfo4@FH4@@@Z 000000018001b180 f i libvcruntimed:frame.obj
 0001:0001a200       ?GetMaxState@__FrameHandler3@@SAHPEAU_xDISPATCHER_CONTEXT@@PEBU_s_FuncInfo@@@Z 000000018001b200 f i libvcruntimed:frame.obj
 0001:0001a220       ?GetMaxState@__FrameHandler4@@SAHPEAU_xDISPATCHER_CONTEXT@@PEAUFuncInfo4@FH4@@@Z 000000018001b220 f i libvcruntimed:frame.obj
 0001:0001a450       ?ReadEntry@UWMap4@FH4@@AEAAXPEAPEAE@Z 000000018001b450 f i libvcruntimed:frame.obj
 0001:0001a500       ?TypeMatch@__FrameHandler3@@SAHPEBU_s_HandlerType@@PEBU_s_CatchableType@@PEBU_s_ThrowInfo@@@Z 000000018001b500 f   libvcruntimed:frame.obj
 0001:0001a530       ?TypeMatch@__FrameHandler4@@SAHPEAUHandlerType4@FH4@@PEBU_s_CatchableType@@PEBU_s_ThrowInfo@@@Z 000000018001b530 f   libvcruntimed:frame.obj
 0001:0001a560       ?WalkBack@UWMap4@FH4@@AEAAXPEAPEAE@Z 000000018001b560 f i libvcruntimed:frame.obj
 0001:0001a5b0       ?WalkBack@iterator@UWMap4@FH4@@QEAAXXZ 000000018001b5b0 f i libvcruntimed:frame.obj
 0001:0001a5f0       ?WalkForward@UWMap4@FH4@@AEAAXPEAPEAE@Z 000000018001b5f0 f i libvcruntimed:frame.obj
 0001:0001a620       ?_CallMemberFunction1@@YAXQEAX00@Z 000000018001b620 f i libvcruntimed:frame.obj
 0001:0001a660       ?_CallMemberFunction2@@YAXQEAX00H@Z 000000018001b660 f i libvcruntimed:frame.obj
 0001:0001a6f0       ?begin@HandlerMap4@FH4@@QEAA?AViterator@12@XZ 000000018001b6f0 f i libvcruntimed:frame.obj
 0001:0001a720       ?begin@HandlerMap@__FrameHandler3@@QEAA?AViterator@12@XZ 000000018001b720 f i libvcruntimed:frame.obj
 0001:0001a750       ?begin@UWMap4@FH4@@QEAA?AViterator@12@XZ 000000018001b750 f i libvcruntimed:frame.obj
 0001:0001a780       ?end@HandlerMap4@FH4@@QEAA?AViterator@12@XZ 000000018001b780 f i libvcruntimed:frame.obj
 0001:0001a7b0       ?end@HandlerMap@__FrameHandler3@@QEAA?AViterator@12@XZ 000000018001b7b0 f i libvcruntimed:frame.obj
 0001:0001a7e0       ?getESTypes@__FrameHandler3@@SAPEBU_s_ESTypeList@@PEBU_s_FuncInfo@@@Z 000000018001b7e0 f i libvcruntimed:frame.obj
 0001:0001a820       ?getESTypes@__FrameHandler4@@SAPEBU_s_ESTypeList@@PEAUFuncInfo4@FH4@@@Z 000000018001b820 f i libvcruntimed:frame.obj
 0001:0001a830       ?getLastEntry@HandlerMap4@FH4@@QEAAPEAUHandlerType4@2@XZ 000000018001b830 f i libvcruntimed:frame.obj
 0001:0001a870       ?getLastEntry@HandlerMap@__FrameHandler3@@QEAAPEBU_s_HandlerType@@XZ 000000018001b870 f i libvcruntimed:frame.obj
 0001:0001a890       ?getMagicNum@__FrameHandler3@@SAIPEBU_s_FuncInfo@@@Z 000000018001b890 f i libvcruntimed:frame.obj
 0001:0001a8b0       ?getMagicNum@__FrameHandler4@@SAIPEAUFuncInfo4@FH4@@@Z 000000018001b8b0 f i libvcruntimed:frame.obj
 0001:0001a8c0       ?getNumTryBlocks@TryBlockMap4@FH4@@QEAAIXZ 000000018001b8c0 f i libvcruntimed:frame.obj
 0001:0001a8d0       ?getNumTryBlocks@TryBlockMap@__FrameHandler3@@QEAAIXZ 000000018001b8d0 f i libvcruntimed:frame.obj
 0001:0001a8f0       ?getStartStop@UWMap4@FH4@@QEAAXHHAEAViterator@12@0@Z 000000018001b8f0 f i libvcruntimed:frame.obj
 0001:0001aa10       ?getStateFromIterators@UWMap4@FH4@@SAHAEBViterator@12@H0H0@Z 000000018001ba10 f i libvcruntimed:frame.obj
 0001:0001ab50       ?isEHs@__FrameHandler3@@SA_NPEBU_s_FuncInfo@@@Z 000000018001bb50 f i libvcruntimed:frame.obj
 0001:0001ab90       ?isEHs@__FrameHandler4@@SA_NPEAUFuncInfo4@FH4@@@Z 000000018001bb90 f i libvcruntimed:frame.obj
 0001:0001abb0       ?isNoExcept@__FrameHandler3@@SA_NPEBU_s_FuncInfo@@@Z 000000018001bbb0 f i libvcruntimed:frame.obj
 0001:0001abf0       ?isNoExcept@__FrameHandler4@@SA_NPEAUFuncInfo4@FH4@@@Z 000000018001bbf0 f i libvcruntimed:frame.obj
 0001:0001ac10       ?reset@HandlerType4@FH4@@QEAAXXZ 000000018001bc10 f i libvcruntimed:frame.obj
 0001:0001ac70       ?resetBuffer@HandlerMap4@FH4@@QEAAXXZ 000000018001bc70 f i libvcruntimed:frame.obj
 0001:0001ac90       ?setBuffer@HandlerMap4@FH4@@QEAAXI@Z 000000018001bc90 f i libvcruntimed:frame.obj
 0001:0001acf0       __BuildCatchObject         000000018001bcf0 f   libvcruntimed:frame.obj
 0001:0001ad30       __BuildCatchObjectHelper   000000018001bd30 f   libvcruntimed:frame.obj
 0001:0001ad70       __TypeMatch                000000018001bd70 f   libvcruntimed:frame.obj
 0001:0001ada0       __vcrt_EncodePointer       000000018001bda0 f i libvcruntimed:frame.obj
 0001:0001adc0       ??$?0$00@DName@@QEAA@PEBDU?$StringLifeSelector@$00@@@Z 000000018001bdc0 f i libvcruntimed:undname.obj
 0001:0001ae30       ??$?0$00@pcharNode@@QEAA@PEBDHU?$StringLifeSelector@$00@@@Z 000000018001be30 f i libvcruntimed:undname.obj
 0001:0001ae90       ??$?0$01@DName@@QEAA@PEBDU?$StringLifeSelector@$01@@@Z 000000018001be90 f i libvcruntimed:undname.obj
 0001:0001af00       ??$?0$01@pcharNode@@QEAA@PEBDHU?$StringLifeSelector@$01@@@Z 000000018001bf00 f i libvcruntimed:undname.obj
 0001:0001afb0       ??$?0$0A@@DName@@QEAA@PEBDU?$StringLifeSelector@$0A@@@@Z 000000018001bfb0 f i libvcruntimed:undname.obj
 0001:0001b020       ??$?0$0A@@pcharNode@@QEAA@PEBDHU?$StringLifeSelector@$0A@@@@Z 000000018001c020 f i libvcruntimed:undname.obj
 0001:0001b0d0       ??$?0_K$0A@@?$optional@_K@std@@QEAA@$$QEA_K@Z 000000018001c0d0 f i libvcruntimed:undname.obj
 0001:0001b120       ??$?0_K@?$_Optional_construct_base@_K@std@@QEAA@Uin_place_t@1@$$QEA_K@Z 000000018001c120 f i libvcruntimed:undname.obj
 0001:0001b150       ??$?0_K@?$_Optional_destruct_base@_K$00@std@@QEAA@Uin_place_t@1@$$QEA_K@Z 000000018001c150 f i libvcruntimed:undname.obj
 0001:0001b190       ??$append@VDNameNode@@@DName@@AEAAXPEBVDNameNode@@@Z 000000018001c190 f i libvcruntimed:undname.obj
 0001:0001b240       ??$append@VDNameStatusNode@@@DName@@AEAAXPEBVDNameStatusNode@@@Z 000000018001c240 f i libvcruntimed:undname.obj
 0001:0001b2f0       ??$append@VcharNode@@@DName@@AEAAXPEBVcharNode@@@Z 000000018001c2f0 f i libvcruntimed:undname.obj
 0001:0001b3a0       ??$append@VpDNameNode@@@DName@@AEAAXPEBVpDNameNode@@@Z 000000018001c3a0 f i libvcruntimed:undname.obj
 0001:0001b450       ??$append@VpcharNode@@@DName@@AEAAXPEBVpcharNode@@@Z 000000018001c450 f i libvcruntimed:undname.obj
 0001:0001b500       ??$doPchar@$00@DName@@AEAAXPEBDH@Z 000000018001c500 f i libvcruntimed:undname.obj
 0001:0001b660       ??$doPchar@$01@DName@@AEAAXPEBDH@Z 000000018001c660 f i libvcruntimed:undname.obj
 0001:0001b7c0       ??$doPchar@$0A@@DName@@AEAAXPEBDH@Z 000000018001c7c0 f i libvcruntimed:undname.obj
 0001:0001b920       ??$forward@_K@std@@YA$$QEA_KAEA_K@Z 000000018001c920 f i libvcruntimed:undname.obj
 0001:0001b930       ??$size@D$04@std@@YA_KAEAY04$$CBD@Z 000000018001c930 f i libvcruntimed:undname.obj
 0001:0001b940       ??$size@D$0EB@@std@@YA_KAEAY0EB@$$CBD@Z 000000018001c940 f i libvcruntimed:undname.obj
 0001:0001b950       ??0?$_Optional_construct_base@_K@std@@QEAA@XZ 000000018001c950 f i libvcruntimed:undname.obj
 0001:0001b970       ??0?$_Optional_destruct_base@_K$00@std@@QEAA@XZ 000000018001c970 f i libvcruntimed:undname.obj
 0001:0001b990       ??0?$optional@_K@std@@QEAA@XZ 000000018001c990 f i libvcruntimed:undname.obj
 0001:0001b9c0       ??0Block@_HeapManager@@QEAA@XZ 000000018001c9c0 f i libvcruntimed:undname.obj
 0001:0001b9e0       ??0DName@@QEAA@AEAPEBDD@Z  000000018001c9e0 f   libvcruntimed:undname.obj
 0001:0001bbb0       ??0DName@@QEAA@AEBUStringLiteral@@@Z 000000018001cbb0 f   libvcruntimed:undname.obj
 0001:0001bc10       ??0DName@@QEAA@AEBV0@@Z    000000018001cc10 f i libvcruntimed:undname.obj
 0001:0001bc40       ??0DName@@QEAA@D@Z         000000018001cc40 f   libvcruntimed:undname.obj
 0001:0001bc80       ??0DName@@QEAA@PEAV0@@Z    000000018001cc80 f   libvcruntimed:undname.obj
 0001:0001bd60       ??0DName@@QEAA@W4DNameStatus@@@Z 000000018001cd60 f   libvcruntimed:undname.obj
 0001:0001be10       ??0DName@@QEAA@XZ          000000018001ce10 f i libvcruntimed:undname.obj
 0001:0001be40       ??0DName@@QEAA@_J@Z        000000018001ce40 f   libvcruntimed:undname.obj
 0001:0001bf50       ??0DName@@QEAA@_K@Z        000000018001cf50 f   libvcruntimed:undname.obj
 0001:0001c020       ??0DNameNode@@IEAA@XZ      000000018001d020 f i libvcruntimed:undname.obj
 0001:0001c040       ??0Replicator@@QEAA@XZ     000000018001d040 f i libvcruntimed:undname.obj
 0001:0001c080       ??0UnDecorator@@QEAA@PEBDP6APEADJ@ZK@Z 000000018001d080 f i libvcruntimed:undname.obj
 0001:0001c130       ??0charNode@@QEAA@D@Z      000000018001d130 f i libvcruntimed:undname.obj
 0001:0001c170       ??0pDNameNode@@QEAA@PEAVDName@@@Z 000000018001d170 f   libvcruntimed:undname.obj
 0001:0001c1f0       ??0pairNode@@QEAA@PEBVDNameNode@@0@Z 000000018001d1f0 f i libvcruntimed:undname.obj
 0001:0001c270       ??2@YAPEAX_KAEAV_HeapManager@@H@Z 000000018001d270 f   libvcruntimed:undname.obj
 0001:0001c2d0       ??4DName@@QEAAAEAV0@AEBUStringLiteral@@@Z 000000018001d2d0 f   libvcruntimed:undname.obj
 0001:0001c320       ??4DName@@QEAAAEAV0@AEBV0@@Z 000000018001d320 f   libvcruntimed:undname.obj
 0001:0001c350       ??4DName@@QEAAAEAV0@D@Z    000000018001d350 f i libvcruntimed:undname.obj
 0001:0001c390       ??4DName@@QEAAAEAV0@PEAV0@@Z 000000018001d390 f   libvcruntimed:undname.obj
 0001:0001c460       ??4DName@@QEAAAEAV0@W4DNameStatus@@@Z 000000018001d460 f   libvcruntimed:undname.obj
 0001:0001c4f0       ??AReplicator@@QEBA?AVDName@@H@Z 000000018001d4f0 f   libvcruntimed:undname.obj
 0001:0001c580       ??B?$optional@_K@std@@QEBA_NXZ 000000018001d580 f i libvcruntimed:undname.obj
 0001:0001c590       ??D?$optional@_K@std@@QEGAAAEA_KXZ 000000018001d590 f i libvcruntimed:undname.obj
 0001:0001c5a0       ??H@YA?AVDName@@AEBUStringLiteral@@AEBV0@@Z 000000018001d5a0 f i libvcruntimed:undname.obj
 0001:0001c5f0       ??H@YA?AVDName@@DAEBV0@@Z  000000018001d5f0 f i libvcruntimed:undname.obj
 0001:0001c640       ??H@YA?AVDName@@W4DNameStatus@@AEBV0@@Z 000000018001d640 f i libvcruntimed:undname.obj
 0001:0001c690       ??HDName@@QEBA?AV0@AEBUStringLiteral@@@Z 000000018001d690 f   libvcruntimed:undname.obj
 0001:0001c6e0       ??HDName@@QEBA?AV0@AEBV0@@Z 000000018001d6e0 f   libvcruntimed:undname.obj
 0001:0001c730       ??HDName@@QEBA?AV0@D@Z     000000018001d730 f   libvcruntimed:undname.obj
 0001:0001c780       ??HDName@@QEBA?AV0@PEAV0@@Z 000000018001d780 f   libvcruntimed:undname.obj
 0001:0001c7d0       ??HDName@@QEBA?AV0@W4DNameStatus@@@Z 000000018001d7d0 f   libvcruntimed:undname.obj
 0001:0001c820       ??HStringLiteral@@QEBA?AU0@H@Z 000000018001d820 f i libvcruntimed:undname.obj
 0001:0001c860       ??YDName@@QEAAAEAV0@AEBUStringLiteral@@@Z 000000018001d860 f   libvcruntimed:undname.obj
 0001:0001c930       ??YDName@@QEAAAEAV0@AEBV0@@Z 000000018001d930 f   libvcruntimed:undname.obj
 0001:0001c9f0       ??YDName@@QEAAAEAV0@D@Z    000000018001d9f0 f   libvcruntimed:undname.obj
 0001:0001ca90       ??YDName@@QEAAAEAV0@PEAV0@@Z 000000018001da90 f   libvcruntimed:undname.obj
 0001:0001cb70       ??YDName@@QEAAAEAV0@W4DNameStatus@@@Z 000000018001db70 f   libvcruntimed:undname.obj
 0001:0001cbe0       ??YReplicator@@QEAAAEAV0@AEBVDName@@@Z 000000018001dbe0 f   libvcruntimed:undname.obj
 0001:0001cca0       ??_5DName@@QEAAAEAV0@AEBV0@@Z 000000018001dca0 f   libvcruntimed:undname.obj
 0001:0001cd10       ??__K_l@@YA?AUStringLiteral@@PEBD_K@Z 000000018001dd10 f i libvcruntimed:undname.obj
 0001:0001cd60       ?Constructor@_HeapManager@@QEAAXP6APEAX_K@ZP6AXPEAX@Z@Z 000000018001dd60 f i libvcruntimed:undname.obj
 0001:0001cdc0       ?Destructor@_HeapManager@@QEAAXXZ 000000018001ddc0 f i libvcruntimed:undname.obj
 0001:0001ce60       ?UScore@UnDecorator@@SA?AUStringLiteral@@W4Tokens@@@Z 000000018001de60 f   libvcruntimed:undname.obj
 0001:0001cef0       ?composeDeclaration@UnDecorator@@CA?AVDName@@AEBV2@@Z 000000018001def0 f i libvcruntimed:undname.obj
 0001:0001f3f0       ?dbGetString@DName@@QEBAPEADXZ 00000001800203f0 f   libvcruntimed:undname.obj
 0001:0001f420       ?doAccessSpecifiers@UnDecorator@@SAHXZ 0000000180020420 f i libvcruntimed:undname.obj
 0001:0001f450       ?doAllocationLanguage@UnDecorator@@SAHXZ 0000000180020450 f i libvcruntimed:undname.obj
 0001:0001f480       ?doAllocationModel@UnDecorator@@SAHXZ 0000000180020480 f i libvcruntimed:undname.obj
 0001:0001f4b0       ?doEcsu@UnDecorator@@SAHXZ 00000001800204b0 f i libvcruntimed:undname.obj
 0001:0001f4e0       ?doEllipsis@UnDecorator@@SAHXZ 00000001800204e0 f i libvcruntimed:undname.obj
 0001:0001f510       ?doFunctionReturns@UnDecorator@@SAHXZ 0000000180020510 f i libvcruntimed:undname.obj
 0001:0001f540       ?doMSKeywords@UnDecorator@@SAHXZ 0000000180020540 f i libvcruntimed:undname.obj
 0001:0001f570       ?doMemberTypes@UnDecorator@@SAHXZ 0000000180020570 f i libvcruntimed:undname.obj
 0001:0001f5a0       ?doNameOnly@UnDecorator@@SAHXZ 00000001800205a0 f i libvcruntimed:undname.obj
 0001:0001f5b0       ?doNoIdentCharCheck@UnDecorator@@SAHXZ 00000001800205b0 f i libvcruntimed:undname.obj
 0001:0001f5c0       ?doPchar@DName@@AEAAXD@Z   00000001800205c0 f   libvcruntimed:undname.obj
 0001:0001f650       ?doPtr64@UnDecorator@@SAHXZ 0000000180020650 f i libvcruntimed:undname.obj
 0001:0001f680       ?doRestrictionSpec@UnDecorator@@SAHXZ 0000000180020680 f i libvcruntimed:undname.obj
 0001:0001f6b0       ?doThisTypes@UnDecorator@@SAHXZ 00000001800206b0 f i libvcruntimed:undname.obj
 0001:0001f6e0       ?doThrowTypes@UnDecorator@@SAHXZ 00000001800206e0 f i libvcruntimed:undname.obj
 0001:0001f710       ?doTypeOnly@UnDecorator@@SAHXZ 0000000180020710 f i libvcruntimed:undname.obj
 0001:0001f720       ?doUnderScore@UnDecorator@@SAHXZ 0000000180020720 f i libvcruntimed:undname.obj
 0001:0001f750       ?getArgumentList@UnDecorator@@CA?AVDName@@XZ 0000000180020750 f   libvcruntimed:undname.obj
 0001:0001f8f0       ?getArgumentTypes@UnDecorator@@CA?AVDName@@XZ 00000001800208f0 f   libvcruntimed:undname.obj
 0001:0001fc50       ?getArrayObject@UnDecorator@@CA?AVDName@@XZ 0000000180020c50 f   libvcruntimed:undname.obj
 0001:0001fd70       ?getArrayType@UnDecorator@@CA?AVDName@@AEBV2@@Z 0000000180020d70 f i libvcruntimed:undname.obj
 0001:00020130       ?getBasedType@UnDecorator@@CA?AVDName@@XZ 0000000180021130 f   libvcruntimed:undname.obj
 0001:000202a0       ?getBasicDataType@UnDecorator@@CA?AVDName@@AEBV2@@Z 00000001800212a0 f   libvcruntimed:undname.obj
 0001:00020f70       ?getCHPEName@UnDecorator@@QEAAPEADPEADH@Z 0000000180021f70 f i libvcruntimed:undname.obj
 0001:00021140       ?getCallIndex@UnDecorator@@CA?AVDName@@XZ 0000000180022140 f i libvcruntimed:undname.obj
 0001:00021160       ?getCallingConvention@UnDecorator@@CA?AVDName@@XZ 0000000180022160 f   libvcruntimed:undname.obj
 0001:00021500       ?getDataIndirectType@UnDecorator@@CA?AVDName@@AEBV2@W4IndirectionKind@@0H@Z 0000000180022500 f   libvcruntimed:undname.obj
 0001:000221a0       ?getDataIndirectType@UnDecorator@@CA?AVDName@@XZ 00000001800231a0 f i libvcruntimed:undname.obj
 0001:000221f0       ?getDataType@UnDecorator@@CA?AVDName@@PEAV2@@Z 00000001800231f0 f   libvcruntimed:undname.obj
 0001:000223d0       ?getDecoratedName@UnDecorator@@CA?AVDName@@XZ 00000001800233d0 f   libvcruntimed:undname.obj
 0001:000228c0       ?getDimension@UnDecorator@@CA?AVDName@@_N@Z 00000001800238c0 f   libvcruntimed:undname.obj
 0001:00022bd0       ?getDispatchTarget@UnDecorator@@CA?AVDName@@XZ 0000000180023bd0 f   libvcruntimed:undname.obj
 0001:00022ca0       ?getDisplacement@UnDecorator@@CA?AVDName@@XZ 0000000180023ca0 f i libvcruntimed:undname.obj
 0001:00022cc0       ?getECSUDataType@UnDecorator@@CA?AVDName@@XZ 0000000180023cc0 f   libvcruntimed:undname.obj
 0001:00023050       ?getECSUName@UnDecorator@@CA?AVDName@@XZ 0000000180024050 f i libvcruntimed:undname.obj
 0001:00023070       ?getEnumType@UnDecorator@@CA?AVDName@@XZ 0000000180024070 f i libvcruntimed:undname.obj
 0001:00023300       ?getExtendedDataIndirectType@UnDecorator@@CA?AVDName@@AEAW4IndirectionKind@@AEA_NH@Z 0000000180024300 f   libvcruntimed:undname.obj
 0001:00023620       ?getExternalDataType@UnDecorator@@CA?AVDName@@AEBV2@@Z 0000000180024620 f i libvcruntimed:undname.obj
 0001:00023700       ?getFloatingPoint@UnDecorator@@CA?AVDName@@H@Z 0000000180024700 f   libvcruntimed:undname.obj
 0001:00023970       ?getFunctionIndirectType@UnDecorator@@CA?AVDName@@AEBV2@@Z 0000000180024970 f   libvcruntimed:undname.obj
 0001:00023fa0       ?getGuardNumber@UnDecorator@@CA?AVDName@@XZ 0000000180024fa0 f i libvcruntimed:undname.obj
 0001:00023fc0       ?getLastChar@DName@@QEBADXZ 0000000180024fc0 f i libvcruntimed:undname.obj
 0001:00024010       ?getLastChar@DNameStatusNode@@UEBADXZ 0000000180025010 f i libvcruntimed:undname.obj
 0001:00024050       ?getLastChar@charNode@@UEBADXZ 0000000180025050 f i libvcruntimed:undname.obj
 0001:00024060       ?getLastChar@pDNameNode@@UEBADXZ 0000000180025060 f i libvcruntimed:undname.obj
 0001:000240a0       ?getLastChar@pairNode@@UEBADXZ 00000001800250a0 f i libvcruntimed:undname.obj
 0001:00024120       ?getLastChar@pcharNode@@UEBADXZ 0000000180025120 f i libvcruntimed:undname.obj
 0001:00024160       ?getLexicalFrame@UnDecorator@@CA?AVDName@@XZ 0000000180025160 f i libvcruntimed:undname.obj
 0001:000241b0       ?getMemoryWithBuffer@_HeapManager@@QEAAPEAX_K@Z 00000001800251b0 f   libvcruntimed:undname.obj
 0001:00024300       ?getMemoryWithoutBuffer@_HeapManager@@QEAAPEAX_K@Z 0000000180025300 f   libvcruntimed:undname.obj
 0001:00024350       ?getNoexcept@UnDecorator@@CA?AVDName@@XZ 0000000180025350 f   libvcruntimed:undname.obj
 0001:00024400       ?getNumberOfDimensions@UnDecorator@@CAHXZ 0000000180025400 f   libvcruntimed:undname.obj
 0001:00024520       ?getOperatorName@UnDecorator@@CA?AVDName@@_NPEA_N@Z 0000000180025520 f i libvcruntimed:undname.obj
 0001:00025430       ?getPointerType@UnDecorator@@CA?AVDName@@AEBV2@0@Z 0000000180026430 f i libvcruntimed:undname.obj
 0001:00025470       ?getPointerTypeArray@UnDecorator@@CA?AVDName@@AEBV2@0@Z 0000000180026470 f i libvcruntimed:undname.obj
 0001:000254b0       ?getPrimaryDataType@UnDecorator@@CA?AVDName@@AEBV2@@Z 00000001800264b0 f   libvcruntimed:undname.obj
 0001:00025aa0       ?getPtrRefDataType@UnDecorator@@CA?AVDName@@AEBV2@H@Z 0000000180026aa0 f   libvcruntimed:undname.obj
 0001:00025e90       ?getPtrRefType@UnDecorator@@CA?AVDName@@AEBV2@0W4IndirectionKind@@@Z 0000000180026e90 f   libvcruntimed:undname.obj
 0001:000260d0       ?getReferenceType@UnDecorator@@CA?AVDName@@AEBV2@0W4IndirectionKind@@@Z 00000001800270d0 f i libvcruntimed:undname.obj
 0001:00026110       ?getRestrictionSpec@UnDecorator@@CA?AVDName@@XZ 0000000180027110 f   libvcruntimed:undname.obj
 0001:000263a0       ?getReturnType@UnDecorator@@CA?AVDName@@PEAV2@@Z 00000001800273a0 f   libvcruntimed:undname.obj
 0001:00026400       ?getScope@UnDecorator@@CA?AVDName@@XZ 0000000180027400 f   libvcruntimed:undname.obj
 0001:00026b50       ?getScopedName@UnDecorator@@CA?AVDName@@XZ 0000000180027b50 f   libvcruntimed:undname.obj
 0001:00026d50       ?getSignedDimension@UnDecorator@@CA?AVDName@@XZ 0000000180027d50 f   libvcruntimed:undname.obj
 0001:00026de0       ?getStorageConvention@UnDecorator@@CA?AVDName@@XZ 0000000180027de0 f i libvcruntimed:undname.obj
 0001:00026e00       ?getString@DName@@QEBAPEADPEAD0@Z 0000000180027e00 f i libvcruntimed:undname.obj
 0001:00026e80       ?getString@DName@@QEBAPEADPEADH@Z 0000000180027e80 f i libvcruntimed:undname.obj
 0001:00026f40       ?getString@DNameStatusNode@@UEBAPEADPEAD0@Z 0000000180027f40 f i libvcruntimed:undname.obj
 0001:00026f90       ?getString@charNode@@UEBAPEADPEAD0@Z 0000000180027f90 f i libvcruntimed:undname.obj
 0001:00026fd0       ?getString@pDNameNode@@UEBAPEADPEAD0@Z 0000000180027fd0 f i libvcruntimed:undname.obj
 0001:00027030       ?getString@pairNode@@UEBAPEADPEAD0@Z 0000000180028030 f i libvcruntimed:undname.obj
 0001:00027100       ?getString@pcharNode@@UEBAPEADPEAD0@Z 0000000180028100 f i libvcruntimed:undname.obj
 0001:00027140       ?getStringEncoding@UnDecorator@@CA?AVDName@@W4PrefixKind@@H@Z 0000000180028140 f   libvcruntimed:undname.obj
 0001:000272a0       ?getStringHelper@@YAPEADPEADPEBD1H@Z 00000001800282a0 f i libvcruntimed:undname.obj
 0001:00027310       ?getStringObject@UnDecorator@@CA?AVDName@@XZ 0000000180028310 f   libvcruntimed:undname.obj
 0001:000273f0       ?getSymbolName@UnDecorator@@CA?AVDName@@XZ 00000001800283f0 f i libvcruntimed:undname.obj
 0001:00027490       ?getTemplateArgumentList@UnDecorator@@CA?AVDName@@XZ 0000000180028490 f   libvcruntimed:undname.obj
 0001:000277a0       ?getTemplateName@UnDecorator@@CA?AVDName@@_N@Z 00000001800287a0 f   libvcruntimed:undname.obj
 0001:000279e0       ?getTemplateNonTypeArgument@UnDecorator@@CA?AVDName@@XZ 00000001800289e0 f   libvcruntimed:undname.obj
 0001:000280d0       ?getTemplateTypeArgument@UnDecorator@@CA?AVDName@@XZ 00000001800290d0 f   libvcruntimed:undname.obj
 0001:00028340       ?getThisType@UnDecorator@@CA?AVDName@@XZ 0000000180029340 f i libvcruntimed:undname.obj
 0001:00028390       ?getThrowTypes@UnDecorator@@CA?AVDName@@XZ 0000000180029390 f   libvcruntimed:undname.obj
 0001:000283e0       ?getTypeEncoding@UnDecorator@@CAHXZ 00000001800293e0 f i libvcruntimed:undname.obj
 0001:00029010       ?getUndecoratedName@UnDecorator@@QEAAPEADPEADH@Z 000000018002a010 f i libvcruntimed:undname.obj
 0001:00029200       ?getVCallThunkType@UnDecorator@@CA?AVDName@@XZ 000000018002a200 f i libvcruntimed:undname.obj
 0001:000292b0       ?getValue@UnDecorator@@CA?AV?$optional@_K@std@@XZ 000000018002a2b0 f   libvcruntimed:undname.obj
 0001:00029380       ?getValueObject@UnDecorator@@CA?AVDName@@XZ 000000018002a380 f   libvcruntimed:undname.obj
 0001:00029540       ?getVbTableType@UnDecorator@@CA?AVDName@@AEBV2@@Z 000000018002a540 f i libvcruntimed:undname.obj
 0001:00029570       ?getVdispMapType@UnDecorator@@CA?AVDName@@AEBV2@@Z 000000018002a570 f i libvcruntimed:undname.obj
 0001:00029630       ?getVfTableType@UnDecorator@@CA?AVDName@@AEBV2@@Z 000000018002a630 f i libvcruntimed:undname.obj
 0001:000298d0       ?getZName@UnDecorator@@CA?AVDName@@_N0@Z 000000018002a8d0 f   libvcruntimed:undname.obj
 0001:00029d60       ?haveTemplateParameters@UnDecorator@@SAHXZ 000000018002ad60 f i libvcruntimed:undname.obj
 0001:00029d70       ?isArray@DName@@QEBAHXZ    000000018002ad70 f i libvcruntimed:undname.obj
 0001:00029d90       ?isComArray@DName@@QEBAHXZ 000000018002ad90 f i libvcruntimed:undname.obj
 0001:00029db0       ?isEmpty@DName@@QEBAHXZ    000000018002adb0 f i libvcruntimed:undname.obj
 0001:00029de0       ?isFull@Replicator@@QEBAHXZ 000000018002ade0 f i libvcruntimed:undname.obj
 0001:00029e10       ?isNoTE@DName@@QEBAHXZ     000000018002ae10 f i libvcruntimed:undname.obj
 0001:00029e30       ?isPinPtr@DName@@QEBAHXZ   000000018002ae30 f i libvcruntimed:undname.obj
 0001:00029e50       ?isPtrRef@DName@@QEBAHXZ   000000018002ae50 f i libvcruntimed:undname.obj
 0001:00029e70       ?isUDC@DName@@QEBAHXZ      000000018002ae70 f i libvcruntimed:undname.obj
 0001:00029ec0       ?isUDTThunk@DName@@QEBAHXZ 000000018002aec0 f i libvcruntimed:undname.obj
 0001:00029f10       ?isVCallThunk@DName@@QEBAHXZ 000000018002af10 f i libvcruntimed:undname.obj
 0001:00029f30       ?isValid@DName@@QEBAHXZ    000000018002af30 f i libvcruntimed:undname.obj
 0001:00029f70       ?length@DName@@QEBAHXZ     000000018002af70 f i libvcruntimed:undname.obj
 0001:00029fc0       ?length@DNameStatusNode@@UEBAHXZ 000000018002afc0 f i libvcruntimed:undname.obj
 0001:00029fd0       ?length@charNode@@UEBAHXZ  000000018002afd0 f i libvcruntimed:undname.obj
 0001:00029fe0       ?length@pDNameNode@@UEBAHXZ 000000018002afe0 f i libvcruntimed:undname.obj
 0001:0002a020       ?length@pairNode@@UEBAHXZ  000000018002b020 f i libvcruntimed:undname.obj
 0001:0002a0b0       ?length@pcharNode@@UEBAHXZ 000000018002b0b0 f i libvcruntimed:undname.obj
 0001:0002a0c0       ?make@DNameStatusNode@@SAPEBV1@W4DNameStatus@@@Z 000000018002b0c0 f i libvcruntimed:undname.obj
 0001:0002a110       ?parseDecoratedName@UnDecorator@@CA?AVDName@@XZ 000000018002b110 f   libvcruntimed:undname.obj
 0001:0002a300       ?raw_length@DNameStatusNode@@UEBAHXZ 000000018002b300 f i libvcruntimed:undname.obj
 0001:0002a320       ?raw_length@charNode@@UEBAHXZ 000000018002b320 f i libvcruntimed:undname.obj
 0001:0002a340       ?raw_length@pDNameNode@@UEBAHXZ 000000018002b340 f i libvcruntimed:undname.obj
 0001:0002a350       ?raw_length@pairNode@@UEBAHXZ 000000018002b350 f i libvcruntimed:undname.obj
 0001:0002a360       ?raw_length@pcharNode@@UEBAHXZ 000000018002b360 f i libvcruntimed:undname.obj
 0001:0002a380       ?setIsArray@DName@@QEAAXXZ 000000018002b380 f i libvcruntimed:undname.obj
 0001:0002a3a0       ?setIsComArray@DName@@QEAAXXZ 000000018002b3a0 f i libvcruntimed:undname.obj
 0001:0002a3c0       ?setIsNoTE@DName@@QEAAXXZ  000000018002b3c0 f i libvcruntimed:undname.obj
 0001:0002a3e0       ?setIsPinPtr@DName@@QEAAXXZ 000000018002b3e0 f i libvcruntimed:undname.obj
 0001:0002a400       ?setIsUDC@DName@@QEAAXXZ   000000018002b400 f i libvcruntimed:undname.obj
 0001:0002a430       ?setIsVCallThunk@DName@@QEAAXXZ 000000018002b430 f i libvcruntimed:undname.obj
 0001:0002a450       ?setPtrRef@DName@@QEAAAEAV1@XZ 000000018002b450 f i libvcruntimed:undname.obj
 0001:0002a470       ?status@DName@@QEBA?AW4DNameStatus@@XZ 000000018002b470 f i libvcruntimed:undname.obj
 0001:0002a5a0       __unDName                  000000018002b5a0 f   libvcruntimed:undname.obj
 0001:0002a600       __unDNameEx                000000018002b600 f   libvcruntimed:undname.obj
 0001:0002a6c0       unDNameGenerateCHPE        000000018002b6c0 f   libvcruntimed:undname.obj
 0001:0002a770       ??$__crt_interlocked_exchange_pointer@UHINSTANCE__@@PEAU1@@@YAPEAUHINSTANCE__@@PEDSEAU0@QEAU0@@Z 000000018002b770 f i libvcruntimed:winapi_downlevel.obj
 0001:0002a790       ??$__crt_interlocked_exchange_pointer@UHINSTANCE__@@PEAX@@YAPEAUHINSTANCE__@@PEDSEAU0@QEAX@Z 000000018002b790 f i libvcruntimed:winapi_downlevel.obj
 0001:0002a7b0       ??$__crt_interlocked_exchange_pointer@XPEAX@@YAPEAXPEDSEAXQEAX@Z 000000018002b7b0 f i libvcruntimed:winapi_downlevel.obj
 0001:0002a7d0       ??$__crt_interlocked_read_pointer@UHINSTANCE__@@@@YAPEAUHINSTANCE__@@PEDSEAU0@@Z 000000018002b7d0 f i libvcruntimed:winapi_downlevel.obj
 0001:0002a7f0       ??$__crt_interlocked_read_pointer@X@@YAPEAXPEDSEAX@Z 000000018002b7f0 f i libvcruntimed:winapi_downlevel.obj
 0001:0002ad00       __vcrt_FlsAlloc            000000018002bd00 f   libvcruntimed:winapi_downlevel.obj
 0001:0002ad50       __vcrt_FlsFree             000000018002bd50 f   libvcruntimed:winapi_downlevel.obj
 0001:0002ada0       __vcrt_FlsGetValue         000000018002bda0 f   libvcruntimed:winapi_downlevel.obj
 0001:0002adf0       __vcrt_FlsSetValue         000000018002bdf0 f   libvcruntimed:winapi_downlevel.obj
 0001:0002ae50       __vcrt_InitializeCriticalSectionEx 000000018002be50 f   libvcruntimed:winapi_downlevel.obj
 0001:0002aed0       _CallSettingFrame          000000018002bed0 f   libvcruntimed:handlers.obj
 0001:0002af20       _CallSettingFrame_LookupContinuationIndex 000000018002bf20 f   libvcruntimed:handlers.obj
 0001:0002af50       _CallSettingFrame_NotifyContinuationAddr 000000018002bf50 f   libvcruntimed:handlers.obj
 0001:0002af80       _CallSettingFrameEncoded   000000018002bf80 f   libvcruntimed:handlers.obj
 0001:0002afd0       ??$__crt_interlocked_exchange_pointer@$$A6AXXZP6AXXZ@@YAP6AXXZPEDS6AXXZQ6AXXZ@Z 000000018002bfd0 f i libvcruntimed:purevirt.obj
 0001:0002aff0       ??$__crt_interlocked_read_pointer@$$A6AXXZ@@YAP6AXXZPEDS6AXXZ@Z 000000018002bff0 f i libvcruntimed:purevirt.obj
 0001:0002b010       _get_purecall_handler      000000018002c010 f   libvcruntimed:purevirt.obj
 0001:0002b030       _purecall                  000000018002c030 f   libvcruntimed:purevirt.obj
 0001:0002b070       _set_purecall_handler      000000018002c070 f   libvcruntimed:purevirt.obj
 0001:0002b090       free                       000000018002c090 f   libucrtd:free.obj
 0001:0002b0c0       malloc                     000000018002c0c0 f   libucrtd:malloc.obj
 0001:0002b0f0       ??$?RU?$__crt_report_hook_node@D@@@__crt_internal_free_policy@@QEBAXQEBU?$__crt_report_hook_node@D@@@Z 000000018002c0f0 f i libucrtd:dbgrpt.obj
 0001:0002b120       ??$?RU?$__crt_report_hook_node@_W@@@__crt_internal_free_policy@@QEBAXQEBU?$__crt_report_hook_node@_W@@@Z 000000018002c120 f i libucrtd:dbgrpt.obj
 0001:0002c360       ??$get_module_file_name@AEAPEAUHINSTANCE__@@AEAY0BAF@DK@?$__crt_char_traits@D@@SAKAEAPEAUHINSTANCE__@@AEAY0BAF@D$$QEAK@Z 000000018002d360 f i libucrtd:dbgrpt.obj
 0001:0002c3a0       ??$get_module_file_name@AEAPEAUHINSTANCE__@@AEAY0BAF@_WK@?$__crt_char_traits@_W@@SAKAEAPEAUHINSTANCE__@@AEAY0BAF@_W$$QEAK@Z 000000018002d3a0 f i libucrtd:dbgrpt.obj
 0001:0002c3e0       ??$tcscpy_s@AEAY0BAF@D_KPEBD@?$__crt_char_traits@D@@SAHAEAY0BAF@D$$QEA_K$$QEAPEBD@Z 000000018002d3e0 f i libucrtd:dbgrpt.obj
 0001:0002c420       ??$tcscpy_s@AEAY0BAF@_W_KPEB_W@?$__crt_char_traits@_W@@SAHAEAY0BAF@_W$$QEA_K$$QEAPEB_W@Z 000000018002d420 f i libucrtd:dbgrpt.obj
 0001:0002c460       ??$tcslen@AEAY0BAF@D@?$__crt_char_traits@D@@SA_KAEAY0BAF@D@Z 000000018002d460 f i libucrtd:dbgrpt.obj
 0001:0002c480       ??$tcslen@AEAY0BAF@_W@?$__crt_char_traits@_W@@SA_KAEAY0BAF@_W@Z 000000018002d480 f i libucrtd:dbgrpt.obj
 0001:0002c4a0       ??$tcslen@AEBQEBD@?$__crt_char_traits@D@@SA_KAEBQEBD@Z 000000018002d4a0 f i libucrtd:dbgrpt.obj
 0001:0002c4c0       ??$tcslen@AEBQEB_W@?$__crt_char_traits@_W@@SA_KAEBQEB_W@Z 000000018002d4c0 f i libucrtd:dbgrpt.obj
 0001:0002c5c0       ??0?$__crt_unique_heap_ptr@U?$__crt_report_hook_node@D@@U__crt_internal_free_policy@@@@QEAA@QEAU?$__crt_report_hook_node@D@@@Z 000000018002d5c0 f i libucrtd:dbgrpt.obj
 0001:0002c5e0       ??0?$__crt_unique_heap_ptr@U?$__crt_report_hook_node@_W@@U__crt_internal_free_policy@@@@QEAA@QEAU?$__crt_report_hook_node@_W@@@Z 000000018002d5e0 f i libucrtd:dbgrpt.obj
 0001:0002c600       ??1?$__crt_unique_heap_ptr@U?$__crt_report_hook_node@D@@U__crt_internal_free_policy@@@@QEAA@XZ 000000018002d600 f i libucrtd:dbgrpt.obj
 0001:0002c620       ??1?$__crt_unique_heap_ptr@U?$__crt_report_hook_node@_W@@U__crt_internal_free_policy@@@@QEAA@XZ 000000018002d620 f i libucrtd:dbgrpt.obj
 0001:0002c640       ??B?$__crt_unique_heap_ptr@U?$__crt_report_hook_node@D@@U__crt_internal_free_policy@@@@QEBA_NXZ 000000018002d640 f i libucrtd:dbgrpt.obj
 0001:0002c660       ??B?$__crt_unique_heap_ptr@U?$__crt_report_hook_node@_W@@U__crt_internal_free_policy@@@@QEBA_NXZ 000000018002d660 f i libucrtd:dbgrpt.obj
 0001:0002cd40       ?detach@?$__crt_unique_heap_ptr@U?$__crt_report_hook_node@D@@U__crt_internal_free_policy@@@@QEAAPEAU?$__crt_report_hook_node@D@@XZ 000000018002dd40 f i libucrtd:dbgrpt.obj
 0001:0002cd70       ?detach@?$__crt_unique_heap_ptr@U?$__crt_report_hook_node@_W@@U__crt_internal_free_policy@@@@QEAAPEAU?$__crt_report_hook_node@_W@@XZ 000000018002dd70 f i libucrtd:dbgrpt.obj
 0001:0002cda0       ?get@?$__crt_unique_heap_ptr@U?$__crt_report_hook_node@D@@U__crt_internal_free_policy@@@@QEBAPEAU?$__crt_report_hook_node@D@@XZ 000000018002dda0 f i libucrtd:dbgrpt.obj
 0001:0002cdb0       ?get@?$__crt_unique_heap_ptr@U?$__crt_report_hook_node@_W@@U__crt_internal_free_policy@@@@QEBAPEAU?$__crt_report_hook_node@_W@@XZ 000000018002ddb0 f i libucrtd:dbgrpt.obj
 0001:0002ce20       ?is_valid@?$__crt_unique_heap_ptr@U?$__crt_report_hook_node@D@@U__crt_internal_free_policy@@@@QEBA_NXZ 000000018002de20 f i libucrtd:dbgrpt.obj
 0001:0002ce50       ?is_valid@?$__crt_unique_heap_ptr@U?$__crt_report_hook_node@_W@@U__crt_internal_free_policy@@@@QEBA_NXZ 000000018002de50 f i libucrtd:dbgrpt.obj
 0001:0002ce80       ?release@?$__crt_unique_heap_ptr@U?$__crt_report_hook_node@D@@U__crt_internal_free_policy@@@@QEAAXXZ 000000018002de80 f i libucrtd:dbgrpt.obj
 0001:0002ceb0       ?release@?$__crt_unique_heap_ptr@U?$__crt_report_hook_node@_W@@U__crt_internal_free_policy@@@@QEAAXXZ 000000018002deb0 f i libucrtd:dbgrpt.obj
 0001:0002cee0       _CrtDbgReport              000000018002dee0 f   libucrtd:dbgrpt.obj
 0001:0002cf60       _CrtDbgReportW             000000018002df60 f   libucrtd:dbgrpt.obj
 0001:0002cfe0       _CrtSetReportHook2         000000018002dfe0 f   libucrtd:dbgrpt.obj
 0001:0002d000       _CrtSetReportHookW2        000000018002e000 f   libucrtd:dbgrpt.obj
 0001:0002d020       __acrt_MessageWindowA      000000018002e020 f   libucrtd:dbgrpt.obj
 0001:0002d070       __acrt_MessageWindowW      000000018002e070 f   libucrtd:dbgrpt.obj
 0001:0002d0c0       _invoke_watson_if_error    000000018002e0c0 f i libucrtd:dbgrpt.obj
 0001:0002d110       _invoke_watson_if_oneof    000000018002e110 f i libucrtd:dbgrpt.obj
 0001:0002d170       _snwprintf_s               000000018002e170 f i libucrtd:dbgrpt.obj
 0001:0002d1e0       _vsnwprintf_s_l            000000018002e1e0 f i libucrtd:dbgrpt.obj
 0001:0002d740       wcscpy_s                   000000018002e740 f   libucrtd:wcscpy_s.obj
 0001:0002ead0       ??1?$__crt_simd_cleanup_guard@$00@@QEAA@XZ 000000018002fad0 f i libucrtd:strnlen.obj
 0001:0002eae0       ??1?$__crt_simd_cleanup_guard@$0A@@@QEAA@XZ 000000018002fae0 f i libucrtd:strnlen.obj
 0001:0002eaf0       ?compare_equals@?$__crt_simd_traits@$00E@@SA?AT__m256i@@T2@0@Z 000000018002faf0 f i libucrtd:strnlen.obj
 0001:0002eb30       ?compare_equals@?$__crt_simd_traits@$00G@@SA?AT__m256i@@T2@0@Z 000000018002fb30 f i libucrtd:strnlen.obj
 0001:0002eb70       ?compare_equals@?$__crt_simd_traits@$0A@E@@SA?AT__m128i@@T2@0@Z 000000018002fb70 f i libucrtd:strnlen.obj
 0001:0002eba0       ?compare_equals@?$__crt_simd_traits@$0A@G@@SA?AT__m128i@@T2@0@Z 000000018002fba0 f i libucrtd:strnlen.obj
 0001:0002ebd0       ?compute_byte_mask@?$__crt_simd_pack_traits@$00@@SAHT__m256i@@@Z 000000018002fbd0 f i libucrtd:strnlen.obj
 0001:0002ebf0       ?compute_byte_mask@?$__crt_simd_pack_traits@$0A@@@SAHT__m128i@@@Z 000000018002fbf0 f i libucrtd:strnlen.obj
 0001:0002ec10       ?get_zero_pack@?$__crt_simd_pack_traits@$00@@SA?AT__m256i@@XZ 000000018002fc10 f i libucrtd:strnlen.obj
 0001:0002ec40       ?get_zero_pack@?$__crt_simd_pack_traits@$0A@@@SA?AT__m128i@@XZ 000000018002fc40 f i libucrtd:strnlen.obj
 0001:0002ec60       strnlen                    000000018002fc60 f   libucrtd:strnlen.obj
 0001:0002ec90       wcslen                     000000018002fc90 f   libucrtd:strnlen.obj
 0001:0002ecb0       wcsnlen                    000000018002fcb0 f   libucrtd:strnlen.obj
 0001:0002ece0       ??$?0AEBV?$stream_output_adapter@D@__crt_stdio_output@@AEB_KAEBQEBDAEBQEAU__crt_locale_pointers@@AEBQEAD@?$format_validation_base@DV?$stream_output_adapter@D@__crt_stdio_output@@@__crt_stdio_output@@IEAA@AEBV?$stream_output_adapter@D@1@AEB_KAEBQEBDAEBQEAU__crt_locale_pointers@@AEBQEAD@Z 000000018002fce0 f i libucrtd:output.obj
 0001:0002ed30       ??$?0AEBV?$stream_output_adapter@D@__crt_stdio_output@@AEB_KAEBQEBDAEBQEAU__crt_locale_pointers@@AEBQEAD@?$positional_parameter_base@DV?$stream_output_adapter@D@__crt_stdio_output@@@__crt_stdio_output@@IEAA@AEBV?$stream_output_adapter@D@1@AEB_KAEBQEBDAEBQEAU__crt_locale_pointers@@AEBQEAD@Z 000000018002fd30 f i libucrtd:output.obj
 0001:0002edd0       ??$?0AEBV?$stream_output_adapter@D@__crt_stdio_output@@AEB_KAEBQEBDAEBQEAU__crt_locale_pointers@@AEBQEAD@?$standard_base@DV?$stream_output_adapter@D@__crt_stdio_output@@@__crt_stdio_output@@IEAA@AEBV?$stream_output_adapter@D@1@AEB_KAEBQEBDAEBQEAU__crt_locale_pointers@@AEBQEAD@Z 000000018002fdd0 f i libucrtd:output.obj
 0001:0002ee40       ??$?0AEBV?$stream_output_adapter@_W@__crt_stdio_output@@AEB_KAEBQEB_WAEBQEAU__crt_locale_pointers@@AEBQEAD@?$format_validation_base@_WV?$stream_output_adapter@_W@__crt_stdio_output@@@__crt_stdio_output@@IEAA@AEBV?$stream_output_adapter@_W@1@AEB_KAEBQEB_WAEBQEAU__crt_locale_pointers@@AEBQEAD@Z 000000018002fe40 f i libucrtd:output.obj
 0001:0002ee90       ??$?0AEBV?$stream_output_adapter@_W@__crt_stdio_output@@AEB_KAEBQEB_WAEBQEAU__crt_locale_pointers@@AEBQEAD@?$positional_parameter_base@_WV?$stream_output_adapter@_W@__crt_stdio_output@@@__crt_stdio_output@@IEAA@AEBV?$stream_output_adapter@_W@1@AEB_KAEBQEB_WAEBQEAU__crt_locale_pointers@@AEBQEAD@Z 000000018002fe90 f i libucrtd:output.obj
 0001:0002ef30       ??$?0AEBV?$stream_output_adapter@_W@__crt_stdio_output@@AEB_KAEBQEB_WAEBQEAU__crt_locale_pointers@@AEBQEAD@?$standard_base@_WV?$stream_output_adapter@_W@__crt_stdio_output@@@__crt_stdio_output@@IEAA@AEBV?$stream_output_adapter@_W@1@AEB_KAEBQEB_WAEBQEAU__crt_locale_pointers@@AEBQEAD@Z 000000018002ff30 f i libucrtd:output.obj
 0001:0002efa0       ??$?0AEBV?$string_output_adapter@D@__crt_stdio_output@@AEB_KAEBQEBDAEBQEAU__crt_locale_pointers@@AEBQEAD@?$format_validation_base@DV?$string_output_adapter@D@__crt_stdio_output@@@__crt_stdio_output@@IEAA@AEBV?$string_output_adapter@D@1@AEB_KAEBQEBDAEBQEAU__crt_locale_pointers@@AEBQEAD@Z 000000018002ffa0 f i libucrtd:output.obj
 0001:0002eff0       ??$?0AEBV?$string_output_adapter@D@__crt_stdio_output@@AEB_KAEBQEBDAEBQEAU__crt_locale_pointers@@AEBQEAD@?$positional_parameter_base@DV?$string_output_adapter@D@__crt_stdio_output@@@__crt_stdio_output@@IEAA@AEBV?$string_output_adapter@D@1@AEB_KAEBQEBDAEBQEAU__crt_locale_pointers@@AEBQEAD@Z 000000018002fff0 f i libucrtd:output.obj
 0001:0002f090       ??$?0AEBV?$string_output_adapter@D@__crt_stdio_output@@AEB_KAEBQEBDAEBQEAU__crt_locale_pointers@@AEBQEAD@?$standard_base@DV?$string_output_adapter@D@__crt_stdio_output@@@__crt_stdio_output@@IEAA@AEBV?$string_output_adapter@D@1@AEB_KAEBQEBDAEBQEAU__crt_locale_pointers@@AEBQEAD@Z 0000000180030090 f i libucrtd:output.obj
 0001:0002f100       ??$?0AEBV?$string_output_adapter@_W@__crt_stdio_output@@AEB_KAEBQEB_WAEBQEAU__crt_locale_pointers@@AEBQEAD@?$format_validation_base@_WV?$string_output_adapter@_W@__crt_stdio_output@@@__crt_stdio_output@@IEAA@AEBV?$string_output_adapter@_W@1@AEB_KAEBQEB_WAEBQEAU__crt_locale_pointers@@AEBQEAD@Z 0000000180030100 f i libucrtd:output.obj
 0001:0002f150       ??$?0AEBV?$string_output_adapter@_W@__crt_stdio_output@@AEB_KAEBQEB_WAEBQEAU__crt_locale_pointers@@AEBQEAD@?$positional_parameter_base@_WV?$string_output_adapter@_W@__crt_stdio_output@@@__crt_stdio_output@@IEAA@AEBV?$string_output_adapter@_W@1@AEB_KAEBQEB_WAEBQEAU__crt_locale_pointers@@AEBQEAD@Z 0000000180030150 f i libucrtd:output.obj
 0001:0002f1f0       ??$?0AEBV?$string_output_adapter@_W@__crt_stdio_output@@AEB_KAEBQEB_WAEBQEAU__crt_locale_pointers@@AEBQEAD@?$standard_base@_WV?$string_output_adapter@_W@__crt_stdio_output@@@__crt_stdio_output@@IEAA@AEBV?$string_output_adapter@_W@1@AEB_KAEBQEB_WAEBQEAU__crt_locale_pointers@@AEBQEAD@Z 00000001800301f0 f i libucrtd:output.obj
 0001:0002f620       ??$__crt_interlocked_read@J@@YAJPEDJ@Z 0000000180030620 f i libucrtd:output.obj
 0001:00033100       ??$count@D@formatting_buffer@__crt_stdio_output@@QEBA_KXZ 0000000180034100 f i libucrtd:output.obj
 0001:00033150       ??$count@_W@formatting_buffer@__crt_stdio_output@@QEBA_KXZ 0000000180034150 f i libucrtd:output.obj
 0001:000331a0       ??$data@D@formatting_buffer@__crt_stdio_output@@QEAAPEADXZ 00000001800341a0 f i libucrtd:output.obj
 0001:000331f0       ??$data@_W@formatting_buffer@__crt_stdio_output@@QEAAPEA_WXZ 00000001800341f0 f i libucrtd:output.obj
 0001:00033240       ??$ensure_buffer_is_big_enough@D@formatting_buffer@__crt_stdio_output@@QEAA_N_K@Z 0000000180034240 f i libucrtd:output.obj
 0001:00033370       ??$ensure_buffer_is_big_enough@_W@formatting_buffer@__crt_stdio_output@@QEAA_N_K@Z 0000000180034370 f i libucrtd:output.obj
 0001:000334a0       ??$extract_argument_from_va_list@C_J@?$positional_parameter_base@DV?$stream_output_adapter@D@__crt_stdio_output@@@__crt_stdio_output@@IEAA_NAEA_J@Z 00000001800344a0 f i libucrtd:output.obj
 0001:00033620       ??$extract_argument_from_va_list@C_J@?$positional_parameter_base@DV?$string_output_adapter@D@__crt_stdio_output@@@__crt_stdio_output@@IEAA_NAEA_J@Z 0000000180034620 f i libucrtd:output.obj
 0001:000337a0       ??$extract_argument_from_va_list@C_J@?$positional_parameter_base@_WV?$stream_output_adapter@_W@__crt_stdio_output@@@__crt_stdio_output@@IEAA_NAEA_J@Z 00000001800347a0 f i libucrtd:output.obj
 0001:00033920       ??$extract_argument_from_va_list@C_J@?$positional_parameter_base@_WV?$string_output_adapter@_W@__crt_stdio_output@@@__crt_stdio_output@@IEAA_NAEA_J@Z 0000000180034920 f i libucrtd:output.obj
 0001:00033aa0       ??$extract_argument_from_va_list@C_J@?$standard_base@DV?$stream_output_adapter@D@__crt_stdio_output@@@__crt_stdio_output@@IEAA_NAEA_J@Z 0000000180034aa0 f i libucrtd:output.obj
 0001:00033ae0       ??$extract_argument_from_va_list@C_J@?$standard_base@DV?$string_output_adapter@D@__crt_stdio_output@@@__crt_stdio_output@@IEAA_NAEA_J@Z 0000000180034ae0 f i libucrtd:output.obj
 0001:00033b20       ??$extract_argument_from_va_list@C_J@?$standard_base@_WV?$stream_output_adapter@_W@__crt_stdio_output@@@__crt_stdio_output@@IEAA_NAEA_J@Z 0000000180034b20 f i libucrtd:output.obj
 0001:00033b60       ??$extract_argument_from_va_list@C_J@?$standard_base@_WV?$string_output_adapter@_W@__crt_stdio_output@@@__crt_stdio_output@@IEAA_NAEA_J@Z 0000000180034b60 f i libucrtd:output.obj
 0001:00033ba0       ??$extract_argument_from_va_list@E_J@?$positional_parameter_base@DV?$stream_output_adapter@D@__crt_stdio_output@@@__crt_stdio_output@@IEAA_NAEA_J@Z 0000000180034ba0 f i libucrtd:output.obj
 0001:00033d20       ??$extract_argument_from_va_list@E_J@?$positional_parameter_base@DV?$string_output_adapter@D@__crt_stdio_output@@@__crt_stdio_output@@IEAA_NAEA_J@Z 0000000180034d20 f i libucrtd:output.obj
 0001:00033ea0       ??$extract_argument_from_va_list@E_J@?$positional_parameter_base@_WV?$stream_output_adapter@_W@__crt_stdio_output@@@__crt_stdio_output@@IEAA_NAEA_J@Z 0000000180034ea0 f i libucrtd:output.obj
 0001:00034020       ??$extract_argument_from_va_list@E_J@?$positional_parameter_base@_WV?$string_output_adapter@_W@__crt_stdio_output@@@__crt_stdio_output@@IEAA_NAEA_J@Z 0000000180035020 f i libucrtd:output.obj
 0001:000341a0       ??$extract_argument_from_va_list@E_J@?$standard_base@DV?$stream_output_adapter@D@__crt_stdio_output@@@__crt_stdio_output@@IEAA_NAEA_J@Z 00000001800351a0 f i libucrtd:output.obj
 0001:000341e0       ??$extract_argument_from_va_list@E_J@?$standard_base@DV?$string_output_adapter@D@__crt_stdio_output@@@__crt_stdio_output@@IEAA_NAEA_J@Z 00000001800351e0 f i libucrtd:output.obj
 0001:00034220       ??$extract_argument_from_va_list@E_J@?$standard_base@_WV?$stream_output_adapter@_W@__crt_stdio_output@@@__crt_stdio_output@@IEAA_NAEA_J@Z 0000000180035220 f i libucrtd:output.obj
 0001:00034260       ??$extract_argument_from_va_list@E_J@?$standard_base@_WV?$string_output_adapter@_W@__crt_stdio_output@@@__crt_stdio_output@@IEAA_NAEA_J@Z 0000000180035260 f i libucrtd:output.obj
 0001:000342a0       ??$extract_argument_from_va_list@F_J@?$positional_parameter_base@DV?$stream_output_adapter@D@__crt_stdio_output@@@__crt_stdio_output@@IEAA_NAEA_J@Z 00000001800352a0 f i libucrtd:output.obj
 0001:00034420       ??$extract_argument_from_va_list@F_J@?$positional_parameter_base@DV?$string_output_adapter@D@__crt_stdio_output@@@__crt_stdio_output@@IEAA_NAEA_J@Z 0000000180035420 f i libucrtd:output.obj
 0001:000345a0       ??$extract_argument_from_va_list@F_J@?$positional_parameter_base@_WV?$stream_output_adapter@_W@__crt_stdio_output@@@__crt_stdio_output@@IEAA_NAEA_J@Z 00000001800355a0 f i libucrtd:output.obj
 0001:00034720       ??$extract_argument_from_va_list@F_J@?$positional_parameter_base@_WV?$string_output_adapter@_W@__crt_stdio_output@@@__crt_stdio_output@@IEAA_NAEA_J@Z 0000000180035720 f i libucrtd:output.obj
 0001:000348a0       ??$extract_argument_from_va_list@F_J@?$standard_base@DV?$stream_output_adapter@D@__crt_stdio_output@@@__crt_stdio_output@@IEAA_NAEA_J@Z 00000001800358a0 f i libucrtd:output.obj
 0001:000348e0       ??$extract_argument_from_va_list@F_J@?$standard_base@DV?$string_output_adapter@D@__crt_stdio_output@@@__crt_stdio_output@@IEAA_NAEA_J@Z 00000001800358e0 f i libucrtd:output.obj
 0001:00034920       ??$extract_argument_from_va_list@F_J@?$standard_base@_WV?$stream_output_adapter@_W@__crt_stdio_output@@@__crt_stdio_output@@IEAA_NAEA_J@Z 0000000180035920 f i libucrtd:output.obj
 0001:00034960       ??$extract_argument_from_va_list@F_J@?$standard_base@_WV?$string_output_adapter@_W@__crt_stdio_output@@@__crt_stdio_output@@IEAA_NAEA_J@Z 0000000180035960 f i libucrtd:output.obj
 0001:000349a0       ??$extract_argument_from_va_list@GD@?$positional_parameter_base@DV?$stream_output_adapter@D@__crt_stdio_output@@@__crt_stdio_output@@IEAA_NAEAD@Z 00000001800359a0 f i libucrtd:output.obj
 0001:00034b20       ??$extract_argument_from_va_list@GD@?$positional_parameter_base@DV?$string_output_adapter@D@__crt_stdio_output@@@__crt_stdio_output@@IEAA_NAEAD@Z 0000000180035b20 f i libucrtd:output.obj
 0001:00034ca0       ??$extract_argument_from_va_list@GD@?$standard_base@DV?$stream_output_adapter@D@__crt_stdio_output@@@__crt_stdio_output@@IEAA_NAEAD@Z 0000000180035ca0 f i libucrtd:output.obj
 0001:00034cd0       ??$extract_argument_from_va_list@GD@?$standard_base@DV?$string_output_adapter@D@__crt_stdio_output@@@__crt_stdio_output@@IEAA_NAEAD@Z 0000000180035cd0 f i libucrtd:output.obj
 0001:00034d00       ??$extract_argument_from_va_list@G_J@?$positional_parameter_base@DV?$stream_output_adapter@D@__crt_stdio_output@@@__crt_stdio_output@@IEAA_NAEA_J@Z 0000000180035d00 f i libucrtd:output.obj
 0001:00034e80       ??$extract_argument_from_va_list@G_J@?$positional_parameter_base@DV?$string_output_adapter@D@__crt_stdio_output@@@__crt_stdio_output@@IEAA_NAEA_J@Z 0000000180035e80 f i libucrtd:output.obj
 0001:00035000       ??$extract_argument_from_va_list@G_J@?$positional_parameter_base@_WV?$stream_output_adapter@_W@__crt_stdio_output@@@__crt_stdio_output@@IEAA_NAEA_J@Z 0000000180036000 f i libucrtd:output.obj
 0001:00035180       ??$extract_argument_from_va_list@G_J@?$positional_parameter_base@_WV?$string_output_adapter@_W@__crt_stdio_output@@@__crt_stdio_output@@IEAA_NAEA_J@Z 0000000180036180 f i libucrtd:output.obj
 0001:00035300       ??$extract_argument_from_va_list@G_J@?$standard_base@DV?$stream_output_adapter@D@__crt_stdio_output@@@__crt_stdio_output@@IEAA_NAEA_J@Z 0000000180036300 f i libucrtd:output.obj
 0001:00035340       ??$extract_argument_from_va_list@G_J@?$standard_base@DV?$string_output_adapter@D@__crt_stdio_output@@@__crt_stdio_output@@IEAA_NAEA_J@Z 0000000180036340 f i libucrtd:output.obj
 0001:00035380       ??$extract_argument_from_va_list@G_J@?$standard_base@_WV?$stream_output_adapter@_W@__crt_stdio_output@@@__crt_stdio_output@@IEAA_NAEA_J@Z 0000000180036380 f i libucrtd:output.obj
 0001:000353c0       ??$extract_argument_from_va_list@G_J@?$standard_base@_WV?$string_output_adapter@_W@__crt_stdio_output@@@__crt_stdio_output@@IEAA_NAEA_J@Z 00000001800363c0 f i libucrtd:output.obj
 0001:00035400       ??$extract_argument_from_va_list@H_J@?$positional_parameter_base@DV?$stream_output_adapter@D@__crt_stdio_output@@@__crt_stdio_output@@IEAA_NAEA_J@Z 0000000180036400 f i libucrtd:output.obj
 0001:00035580       ??$extract_argument_from_va_list@H_J@?$positional_parameter_base@DV?$string_output_adapter@D@__crt_stdio_output@@@__crt_stdio_output@@IEAA_NAEA_J@Z 0000000180036580 f i libucrtd:output.obj
 0001:00035700       ??$extract_argument_from_va_list@H_J@?$positional_parameter_base@_WV?$stream_output_adapter@_W@__crt_stdio_output@@@__crt_stdio_output@@IEAA_NAEA_J@Z 0000000180036700 f i libucrtd:output.obj
 0001:00035880       ??$extract_argument_from_va_list@H_J@?$positional_parameter_base@_WV?$string_output_adapter@_W@__crt_stdio_output@@@__crt_stdio_output@@IEAA_NAEA_J@Z 0000000180036880 f i libucrtd:output.obj
 0001:00035a00       ??$extract_argument_from_va_list@H_J@?$standard_base@DV?$stream_output_adapter@D@__crt_stdio_output@@@__crt_stdio_output@@IEAA_NAEA_J@Z 0000000180036a00 f i libucrtd:output.obj
 0001:00035a30       ??$extract_argument_from_va_list@H_J@?$standard_base@DV?$string_output_adapter@D@__crt_stdio_output@@@__crt_stdio_output@@IEAA_NAEA_J@Z 0000000180036a30 f i libucrtd:output.obj
 0001:00035a60       ??$extract_argument_from_va_list@H_J@?$standard_base@_WV?$stream_output_adapter@_W@__crt_stdio_output@@@__crt_stdio_output@@IEAA_NAEA_J@Z 0000000180036a60 f i libucrtd:output.obj
 0001:00035a90       ??$extract_argument_from_va_list@H_J@?$standard_base@_WV?$string_output_adapter@_W@__crt_stdio_output@@@__crt_stdio_output@@IEAA_NAEA_J@Z 0000000180036a90 f i libucrtd:output.obj
 0001:00035ac0       ??$extract_argument_from_va_list@I_J@?$positional_parameter_base@DV?$stream_output_adapter@D@__crt_stdio_output@@@__crt_stdio_output@@IEAA_NAEA_J@Z 0000000180036ac0 f i libucrtd:output.obj
 0001:00035c40       ??$extract_argument_from_va_list@I_J@?$positional_parameter_base@DV?$string_output_adapter@D@__crt_stdio_output@@@__crt_stdio_output@@IEAA_NAEA_J@Z 0000000180036c40 f i libucrtd:output.obj
 0001:00035dc0       ??$extract_argument_from_va_list@I_J@?$positional_parameter_base@_WV?$stream_output_adapter@_W@__crt_stdio_output@@@__crt_stdio_output@@IEAA_NAEA_J@Z 0000000180036dc0 f i libucrtd:output.obj
 0001:00035f40       ??$extract_argument_from_va_list@I_J@?$positional_parameter_base@_WV?$string_output_adapter@_W@__crt_stdio_output@@@__crt_stdio_output@@IEAA_NAEA_J@Z 0000000180036f40 f i libucrtd:output.obj
 0001:000360c0       ??$extract_argument_from_va_list@I_J@?$standard_base@DV?$stream_output_adapter@D@__crt_stdio_output@@@__crt_stdio_output@@IEAA_NAEA_J@Z 00000001800370c0 f i libucrtd:output.obj
 0001:000360f0       ??$extract_argument_from_va_list@I_J@?$standard_base@DV?$string_output_adapter@D@__crt_stdio_output@@@__crt_stdio_output@@IEAA_NAEA_J@Z 00000001800370f0 f i libucrtd:output.obj
 0001:00036120       ??$extract_argument_from_va_list@I_J@?$standard_base@_WV?$stream_output_adapter@_W@__crt_stdio_output@@@__crt_stdio_output@@IEAA_NAEA_J@Z 0000000180037120 f i libucrtd:output.obj
 0001:00036150       ??$extract_argument_from_va_list@I_J@?$standard_base@_WV?$string_output_adapter@_W@__crt_stdio_output@@@__crt_stdio_output@@IEAA_NAEA_J@Z 0000000180037150 f i libucrtd:output.obj
 0001:00036180       ??$extract_argument_from_va_list@PEADPEAD@?$positional_parameter_base@DV?$stream_output_adapter@D@__crt_stdio_output@@@__crt_stdio_output@@IEAA_NAEAPEAD@Z 0000000180037180 f i libucrtd:output.obj
 0001:00036300       ??$extract_argument_from_va_list@PEADPEAD@?$positional_parameter_base@DV?$string_output_adapter@D@__crt_stdio_output@@@__crt_stdio_output@@IEAA_NAEAPEAD@Z 0000000180037300 f i libucrtd:output.obj
 0001:00036480       ??$extract_argument_from_va_list@PEADPEAD@?$positional_parameter_base@_WV?$stream_output_adapter@_W@__crt_stdio_output@@@__crt_stdio_output@@IEAA_NAEAPEAD@Z 0000000180037480 f i libucrtd:output.obj
 0001:00036600       ??$extract_argument_from_va_list@PEADPEAD@?$positional_parameter_base@_WV?$string_output_adapter@_W@__crt_stdio_output@@@__crt_stdio_output@@IEAA_NAEAPEAD@Z 0000000180037600 f i libucrtd:output.obj
 0001:00036780       ??$extract_argument_from_va_list@PEADPEAD@?$standard_base@DV?$stream_output_adapter@D@__crt_stdio_output@@@__crt_stdio_output@@IEAA_NAEAPEAD@Z 0000000180037780 f i libucrtd:output.obj
 0001:000367b0       ??$extract_argument_from_va_list@PEADPEAD@?$standard_base@DV?$string_output_adapter@D@__crt_stdio_output@@@__crt_stdio_output@@IEAA_NAEAPEAD@Z 00000001800377b0 f i libucrtd:output.obj
 0001:000367e0       ??$extract_argument_from_va_list@PEADPEAD@?$standard_base@_WV?$stream_output_adapter@_W@__crt_stdio_output@@@__crt_stdio_output@@IEAA_NAEAPEAD@Z 00000001800377e0 f i libucrtd:output.obj
 0001:00036810       ??$extract_argument_from_va_list@PEADPEAD@?$standard_base@_WV?$string_output_adapter@_W@__crt_stdio_output@@@__crt_stdio_output@@IEAA_NAEAPEAD@Z 0000000180037810 f i libucrtd:output.obj
 0001:00036840       ??$extract_argument_from_va_list@PEAUansi_string@?1??type_case_Z@?$output_processor@DV?$stream_output_adapter@D@__crt_stdio_output@@V?$format_validation_base@DV?$stream_output_adapter@D@__crt_stdio_output@@@2@@__crt_stdio_output@@AEAA_NXZ@PEAU1?1??234@AEAA_NXZ@@?$standard_base@DV?$stream_output_adapter@D@__crt_stdio_output@@@__crt_stdio_output@@IEAA_NAEAPEAUansi_string@?1??type_case_Z@?$output_processor@DV?$stream_output_adapter@D@__crt_stdio_output@@V?$format_validation_base@DV?$stream_output_adapter@D@__crt_stdio_output@@@2@@1@AEAA_NXZ@@Z 0000000180037840 f i libucrtd:output.obj
 0001:00036870       ??$extract_argument_from_va_list@PEAUansi_string@?1??type_case_Z@?$output_processor@DV?$stream_output_adapter@D@__crt_stdio_output@@V?$positional_parameter_base@DV?$stream_output_adapter@D@__crt_stdio_output@@@2@@__crt_stdio_output@@AEAA_NXZ@PEAU1?1??234@AEAA_NXZ@@?$positional_parameter_base@DV?$stream_output_adapter@D@__crt_stdio_output@@@__crt_stdio_output@@IEAA_NAEAPEAUansi_string@?1??type_case_Z@?$output_processor@DV?$stream_output_adapter@D@__crt_stdio_output@@V?$positional_parameter_base@DV?$stream_output_adapter@D@__crt_stdio_output@@@2@@1@AEAA_NXZ@@Z 0000000180037870 f i libucrtd:output.obj
 0001:000369f0       ??$extract_argument_from_va_list@PEAUansi_string@?1??type_case_Z@?$output_processor@DV?$stream_output_adapter@D@__crt_stdio_output@@V?$positional_parameter_base@DV?$stream_output_adapter@D@__crt_stdio_output@@@2@@__crt_stdio_output@@AEAA_NXZ@PEAU1?1??234@AEAA_NXZ@@?$standard_base@DV?$stream_output_adapter@D@__crt_stdio_output@@@__crt_stdio_output@@IEAA_NAEAPEAUansi_string@?1??type_case_Z@?$output_processor@DV?$stream_output_adapter@D@__crt_stdio_output@@V?$positional_parameter_base@DV?$stream_output_adapter@D@__crt_stdio_output@@@2@@1@AEAA_NXZ@@Z 00000001800379f0 f i libucrtd:output.obj
 0001:00036a20       ??$extract_argument_from_va_list@PEAUansi_string@?1??type_case_Z@?$output_processor@DV?$stream_output_adapter@D@__crt_stdio_output@@V?$standard_base@DV?$stream_output_adapter@D@__crt_stdio_output@@@2@@__crt_stdio_output@@AEAA_NXZ@PEAU1?1??234@AEAA_NXZ@@?$standard_base@DV?$stream_output_adapter@D@__crt_stdio_output@@@__crt_stdio_output@@IEAA_NAEAPEAUansi_string@?1??type_case_Z@?$output_processor@DV?$stream_output_adapter@D@__crt_stdio_output@@V?$standard_base@DV?$stream_output_adapter@D@__crt_stdio_output@@@2@@1@AEAA_NXZ@@Z 0000000180037a20 f i libucrtd:output.obj
 0001:00036a50       ??$extract_argument_from_va_list@PEAUansi_string@?1??type_case_Z@?$output_processor@DV?$string_output_adapter@D@__crt_stdio_output@@V?$format_validation_base@DV?$string_output_adapter@D@__crt_stdio_output@@@2@@__crt_stdio_output@@AEAA_NXZ@PEAU1?1??234@AEAA_NXZ@@?$standard_base@DV?$string_output_adapter@D@__crt_stdio_output@@@__crt_stdio_output@@IEAA_NAEAPEAUansi_string@?1??type_case_Z@?$output_processor@DV?$string_output_adapter@D@__crt_stdio_output@@V?$format_validation_base@DV?$string_output_adapter@D@__crt_stdio_output@@@2@@1@AEAA_NXZ@@Z 0000000180037a50 f i libucrtd:output.obj
 0001:00036a80       ??$extract_argument_from_va_list@PEAUansi_string@?1??type_case_Z@?$output_processor@DV?$string_output_adapter@D@__crt_stdio_output@@V?$positional_parameter_base@DV?$string_output_adapter@D@__crt_stdio_output@@@2@@__crt_stdio_output@@AEAA_NXZ@PEAU1?1??234@AEAA_NXZ@@?$positional_parameter_base@DV?$string_output_adapter@D@__crt_stdio_output@@@__crt_stdio_output@@IEAA_NAEAPEAUansi_string@?1??type_case_Z@?$output_processor@DV?$string_output_adapter@D@__crt_stdio_output@@V?$positional_parameter_base@DV?$string_output_adapter@D@__crt_stdio_output@@@2@@1@AEAA_NXZ@@Z 0000000180037a80 f i libucrtd:output.obj
 0001:00036c00       ??$extract_argument_from_va_list@PEAUansi_string@?1??type_case_Z@?$output_processor@DV?$string_output_adapter@D@__crt_stdio_output@@V?$positional_parameter_base@DV?$string_output_adapter@D@__crt_stdio_output@@@2@@__crt_stdio_output@@AEAA_NXZ@PEAU1?1??234@AEAA_NXZ@@?$standard_base@DV?$string_output_adapter@D@__crt_stdio_output@@@__crt_stdio_output@@IEAA_NAEAPEAUansi_string@?1??type_case_Z@?$output_processor@DV?$string_output_adapter@D@__crt_stdio_output@@V?$positional_parameter_base@DV?$string_output_adapter@D@__crt_stdio_output@@@2@@1@AEAA_NXZ@@Z 0000000180037c00 f i libucrtd:output.obj
 0001:00036c30       ??$extract_argument_from_va_list@PEAUansi_string@?1??type_case_Z@?$output_processor@DV?$string_output_adapter@D@__crt_stdio_output@@V?$standard_base@DV?$string_output_adapter@D@__crt_stdio_output@@@2@@__crt_stdio_output@@AEAA_NXZ@PEAU1?1??234@AEAA_NXZ@@?$standard_base@DV?$string_output_adapter@D@__crt_stdio_output@@@__crt_stdio_output@@IEAA_NAEAPEAUansi_string@?1??type_case_Z@?$output_processor@DV?$string_output_adapter@D@__crt_stdio_output@@V?$standard_base@DV?$string_output_adapter@D@__crt_stdio_output@@@2@@1@AEAA_NXZ@@Z 0000000180037c30 f i libucrtd:output.obj
 0001:00036c60       ??$extract_argument_from_va_list@PEAUansi_string@?1??type_case_Z@?$output_processor@_WV?$stream_output_adapter@_W@__crt_stdio_output@@V?$format_validation_base@_WV?$stream_output_adapter@_W@__crt_stdio_output@@@2@@__crt_stdio_output@@AEAA_NXZ@PEAU1?1??234@AEAA_NXZ@@?$standard_base@_WV?$stream_output_adapter@_W@__crt_stdio_output@@@__crt_stdio_output@@IEAA_NAEAPEAUansi_string@?1??type_case_Z@?$output_processor@_WV?$stream_output_adapter@_W@__crt_stdio_output@@V?$format_validation_base@_WV?$stream_output_adapter@_W@__crt_stdio_output@@@2@@1@AEAA_NXZ@@Z 0000000180037c60 f i libucrtd:output.obj
 0001:00036c90       ??$extract_argument_from_va_list@PEAUansi_string@?1??type_case_Z@?$output_processor@_WV?$stream_output_adapter@_W@__crt_stdio_output@@V?$positional_parameter_base@_WV?$stream_output_adapter@_W@__crt_stdio_output@@@2@@__crt_stdio_output@@AEAA_NXZ@PEAU1?1??234@AEAA_NXZ@@?$positional_parameter_base@_WV?$stream_output_adapter@_W@__crt_stdio_output@@@__crt_stdio_output@@IEAA_NAEAPEAUansi_string@?1??type_case_Z@?$output_processor@_WV?$stream_output_adapter@_W@__crt_stdio_output@@V?$positional_parameter_base@_WV?$stream_output_adapter@_W@__crt_stdio_output@@@2@@1@AEAA_NXZ@@Z 0000000180037c90 f i libucrtd:output.obj
 0001:00036e10       ??$extract_argument_from_va_list@PEAUansi_string@?1??type_case_Z@?$output_processor@_WV?$stream_output_adapter@_W@__crt_stdio_output@@V?$positional_parameter_base@_WV?$stream_output_adapter@_W@__crt_stdio_output@@@2@@__crt_stdio_output@@AEAA_NXZ@PEAU1?1??234@AEAA_NXZ@@?$standard_base@_WV?$stream_output_adapter@_W@__crt_stdio_output@@@__crt_stdio_output@@IEAA_NAEAPEAUansi_string@?1??type_case_Z@?$output_processor@_WV?$stream_output_adapter@_W@__crt_stdio_output@@V?$positional_parameter_base@_WV?$stream_output_adapter@_W@__crt_stdio_output@@@2@@1@AEAA_NXZ@@Z 0000000180037e10 f i libucrtd:output.obj
 0001:00036e40       ??$extract_argument_from_va_list@PEAUansi_string@?1??type_case_Z@?$output_processor@_WV?$stream_output_adapter@_W@__crt_stdio_output@@V?$standard_base@_WV?$stream_output_adapter@_W@__crt_stdio_output@@@2@@__crt_stdio_output@@AEAA_NXZ@PEAU1?1??234@AEAA_NXZ@@?$standard_base@_WV?$stream_output_adapter@_W@__crt_stdio_output@@@__crt_stdio_output@@IEAA_NAEAPEAUansi_string@?1??type_case_Z@?$output_processor@_WV?$stream_output_adapter@_W@__crt_stdio_output@@V?$standard_base@_WV?$stream_output_adapter@_W@__crt_stdio_output@@@2@@1@AEAA_NXZ@@Z 0000000180037e40 f i libucrtd:output.obj
 0001:00036e70       ??$extract_argument_from_va_list@PEAUansi_string@?1??type_case_Z@?$output_processor@_WV?$string_output_adapter@_W@__crt_stdio_output@@V?$format_validation_base@_WV?$string_output_adapter@_W@__crt_stdio_output@@@2@@__crt_stdio_output@@AEAA_NXZ@PEAU1?1??234@AEAA_NXZ@@?$standard_base@_WV?$string_output_adapter@_W@__crt_stdio_output@@@__crt_stdio_output@@IEAA_NAEAPEAUansi_string@?1??type_case_Z@?$output_processor@_WV?$string_output_adapter@_W@__crt_stdio_output@@V?$format_validation_base@_WV?$string_output_adapter@_W@__crt_stdio_output@@@2@@1@AEAA_NXZ@@Z 0000000180037e70 f i libucrtd:output.obj
 0001:00036ea0       ??$extract_argument_from_va_list@PEAUansi_string@?1??type_case_Z@?$output_processor@_WV?$string_output_adapter@_W@__crt_stdio_output@@V?$positional_parameter_base@_WV?$string_output_adapter@_W@__crt_stdio_output@@@2@@__crt_stdio_output@@AEAA_NXZ@PEAU1?1??234@AEAA_NXZ@@?$positional_parameter_base@_WV?$string_output_adapter@_W@__crt_stdio_output@@@__crt_stdio_output@@IEAA_NAEAPEAUansi_string@?1??type_case_Z@?$output_processor@_WV?$string_output_adapter@_W@__crt_stdio_output@@V?$positional_parameter_base@_WV?$string_output_adapter@_W@__crt_stdio_output@@@2@@1@AEAA_NXZ@@Z 0000000180037ea0 f i libucrtd:output.obj
 0001:00037020       ??$extract_argument_from_va_list@PEAUansi_string@?1??type_case_Z@?$output_processor@_WV?$string_output_adapter@_W@__crt_stdio_output@@V?$positional_parameter_base@_WV?$string_output_adapter@_W@__crt_stdio_output@@@2@@__crt_stdio_output@@AEAA_NXZ@PEAU1?1??234@AEAA_NXZ@@?$standard_base@_WV?$string_output_adapter@_W@__crt_stdio_output@@@__crt_stdio_output@@IEAA_NAEAPEAUansi_string@?1??type_case_Z@?$output_processor@_WV?$string_output_adapter@_W@__crt_stdio_output@@V?$positional_parameter_base@_WV?$string_output_adapter@_W@__crt_stdio_output@@@2@@1@AEAA_NXZ@@Z 0000000180038020 f i libucrtd:output.obj
 0001:00037050       ??$extract_argument_from_va_list@PEAUansi_string@?1??type_case_Z@?$output_processor@_WV?$string_output_adapter@_W@__crt_stdio_output@@V?$standard_base@_WV?$string_output_adapter@_W@__crt_stdio_output@@@2@@__crt_stdio_output@@AEAA_NXZ@PEAU1?1??234@AEAA_NXZ@@?$standard_base@_WV?$string_output_adapter@_W@__crt_stdio_output@@@__crt_stdio_output@@IEAA_NAEAPEAUansi_string@?1??type_case_Z@?$output_processor@_WV?$string_output_adapter@_W@__crt_stdio_output@@V?$standard_base@_WV?$string_output_adapter@_W@__crt_stdio_output@@@2@@1@AEAA_NXZ@@Z 0000000180038050 f i libucrtd:output.obj
 0001:00037080       ??$extract_argument_from_va_list@PEAXPEAX@?$positional_parameter_base@DV?$stream_output_adapter@D@__crt_stdio_output@@@__crt_stdio_output@@IEAA_NAEAPEAX@Z 0000000180038080 f i libucrtd:output.obj
 0001:00037200       ??$extract_argument_from_va_list@PEAXPEAX@?$positional_parameter_base@DV?$string_output_adapter@D@__crt_stdio_output@@@__crt_stdio_output@@IEAA_NAEAPEAX@Z 0000000180038200 f i libucrtd:output.obj
 0001:00037380       ??$extract_argument_from_va_list@PEAXPEAX@?$positional_parameter_base@_WV?$stream_output_adapter@_W@__crt_stdio_output@@@__crt_stdio_output@@IEAA_NAEAPEAX@Z 0000000180038380 f i libucrtd:output.obj
 0001:00037500       ??$extract_argument_from_va_list@PEAXPEAX@?$positional_parameter_base@_WV?$string_output_adapter@_W@__crt_stdio_output@@@__crt_stdio_output@@IEAA_NAEAPEAX@Z 0000000180038500 f i libucrtd:output.obj
 0001:00037680       ??$extract_argument_from_va_list@PEAXPEAX@?$standard_base@DV?$stream_output_adapter@D@__crt_stdio_output@@@__crt_stdio_output@@IEAA_NAEAPEAX@Z 0000000180038680 f i libucrtd:output.obj
 0001:000376b0       ??$extract_argument_from_va_list@PEAXPEAX@?$standard_base@DV?$string_output_adapter@D@__crt_stdio_output@@@__crt_stdio_output@@IEAA_NAEAPEAX@Z 00000001800386b0 f i libucrtd:output.obj
 0001:000376e0       ??$extract_argument_from_va_list@PEAXPEAX@?$standard_base@_WV?$stream_output_adapter@_W@__crt_stdio_output@@@__crt_stdio_output@@IEAA_NAEAPEAX@Z 00000001800386e0 f i libucrtd:output.obj
 0001:00037710       ??$extract_argument_from_va_list@PEAXPEAX@?$standard_base@_WV?$string_output_adapter@_W@__crt_stdio_output@@@__crt_stdio_output@@IEAA_NAEAPEAX@Z 0000000180038710 f i libucrtd:output.obj
 0001:00037740       ??$extract_argument_from_va_list@U_CRT_DOUBLE@@U1@@?$positional_parameter_base@DV?$stream_output_adapter@D@__crt_stdio_output@@@__crt_stdio_output@@IEAA_NAEAU_CRT_DOUBLE@@@Z 0000000180038740 f i libucrtd:output.obj
 0001:000378e0       ??$extract_argument_from_va_list@U_CRT_DOUBLE@@U1@@?$positional_parameter_base@DV?$string_output_adapter@D@__crt_stdio_output@@@__crt_stdio_output@@IEAA_NAEAU_CRT_DOUBLE@@@Z 00000001800388e0 f i libucrtd:output.obj
 0001:00037a80       ??$extract_argument_from_va_list@U_CRT_DOUBLE@@U1@@?$positional_parameter_base@_WV?$stream_output_adapter@_W@__crt_stdio_output@@@__crt_stdio_output@@IEAA_NAEAU_CRT_DOUBLE@@@Z 0000000180038a80 f i libucrtd:output.obj
 0001:00037c20       ??$extract_argument_from_va_list@U_CRT_DOUBLE@@U1@@?$positional_parameter_base@_WV?$string_output_adapter@_W@__crt_stdio_output@@@__crt_stdio_output@@IEAA_NAEAU_CRT_DOUBLE@@@Z 0000000180038c20 f i libucrtd:output.obj
 0001:00037dc0       ??$extract_argument_from_va_list@U_CRT_DOUBLE@@U1@@?$standard_base@DV?$stream_output_adapter@D@__crt_stdio_output@@@__crt_stdio_output@@IEAA_NAEAU_CRT_DOUBLE@@@Z 0000000180038dc0 f i libucrtd:output.obj
 0001:00037e10       ??$extract_argument_from_va_list@U_CRT_DOUBLE@@U1@@?$standard_base@DV?$string_output_adapter@D@__crt_stdio_output@@@__crt_stdio_output@@IEAA_NAEAU_CRT_DOUBLE@@@Z 0000000180038e10 f i libucrtd:output.obj
 0001:00037e60       ??$extract_argument_from_va_list@U_CRT_DOUBLE@@U1@@?$standard_base@_WV?$stream_output_adapter@_W@__crt_stdio_output@@@__crt_stdio_output@@IEAA_NAEAU_CRT_DOUBLE@@@Z 0000000180038e60 f i libucrtd:output.obj
 0001:00037eb0       ??$extract_argument_from_va_list@U_CRT_DOUBLE@@U1@@?$standard_base@_WV?$string_output_adapter@_W@__crt_stdio_output@@@__crt_stdio_output@@IEAA_NAEAU_CRT_DOUBLE@@@Z 0000000180038eb0 f i libucrtd:output.obj
 0001:00037f00       ??$extract_argument_from_va_list@_J_J@?$positional_parameter_base@DV?$stream_output_adapter@D@__crt_stdio_output@@@__crt_stdio_output@@IEAA_NAEA_J@Z 0000000180038f00 f i libucrtd:output.obj
 0001:00038080       ??$extract_argument_from_va_list@_J_J@?$positional_parameter_base@DV?$string_output_adapter@D@__crt_stdio_output@@@__crt_stdio_output@@IEAA_NAEA_J@Z 0000000180039080 f i libucrtd:output.obj
 0001:00038200       ??$extract_argument_from_va_list@_J_J@?$positional_parameter_base@_WV?$stream_output_adapter@_W@__crt_stdio_output@@@__crt_stdio_output@@IEAA_NAEA_J@Z 0000000180039200 f i libucrtd:output.obj
 0001:00038380       ??$extract_argument_from_va_list@_J_J@?$positional_parameter_base@_WV?$string_output_adapter@_W@__crt_stdio_output@@@__crt_stdio_output@@IEAA_NAEA_J@Z 0000000180039380 f i libucrtd:output.obj
 0001:00038500       ??$extract_argument_from_va_list@_J_J@?$standard_base@DV?$stream_output_adapter@D@__crt_stdio_output@@@__crt_stdio_output@@IEAA_NAEA_J@Z 0000000180039500 f i libucrtd:output.obj
 0001:00038530       ??$extract_argument_from_va_list@_J_J@?$standard_base@DV?$string_output_adapter@D@__crt_stdio_output@@@__crt_stdio_output@@IEAA_NAEA_J@Z 0000000180039530 f i libucrtd:output.obj
 0001:00038560       ??$extract_argument_from_va_list@_J_J@?$standard_base@_WV?$stream_output_adapter@_W@__crt_stdio_output@@@__crt_stdio_output@@IEAA_NAEA_J@Z 0000000180039560 f i libucrtd:output.obj
 0001:00038590       ??$extract_argument_from_va_list@_J_J@?$standard_base@_WV?$string_output_adapter@_W@__crt_stdio_output@@@__crt_stdio_output@@IEAA_NAEA_J@Z 0000000180039590 f i libucrtd:output.obj
 0001:000385c0       ??$extract_argument_from_va_list@_K_J@?$positional_parameter_base@DV?$stream_output_adapter@D@__crt_stdio_output@@@__crt_stdio_output@@IEAA_NAEA_J@Z 00000001800395c0 f i libucrtd:output.obj
 0001:00038740       ??$extract_argument_from_va_list@_K_J@?$positional_parameter_base@DV?$string_output_adapter@D@__crt_stdio_output@@@__crt_stdio_output@@IEAA_NAEA_J@Z 0000000180039740 f i libucrtd:output.obj
 0001:000388c0       ??$extract_argument_from_va_list@_K_J@?$positional_parameter_base@_WV?$stream_output_adapter@_W@__crt_stdio_output@@@__crt_stdio_output@@IEAA_NAEA_J@Z 00000001800398c0 f i libucrtd:output.obj
 0001:00038a40       ??$extract_argument_from_va_list@_K_J@?$positional_parameter_base@_WV?$string_output_adapter@_W@__crt_stdio_output@@@__crt_stdio_output@@IEAA_NAEA_J@Z 0000000180039a40 f i libucrtd:output.obj
 0001:00038bc0       ??$extract_argument_from_va_list@_K_J@?$standard_base@DV?$stream_output_adapter@D@__crt_stdio_output@@@__crt_stdio_output@@IEAA_NAEA_J@Z 0000000180039bc0 f i libucrtd:output.obj
 0001:00038bf0       ??$extract_argument_from_va_list@_K_J@?$standard_base@DV?$string_output_adapter@D@__crt_stdio_output@@@__crt_stdio_output@@IEAA_NAEA_J@Z 0000000180039bf0 f i libucrtd:output.obj
 0001:00038c20       ??$extract_argument_from_va_list@_K_J@?$standard_base@_WV?$stream_output_adapter@_W@__crt_stdio_output@@@__crt_stdio_output@@IEAA_NAEA_J@Z 0000000180039c20 f i libucrtd:output.obj
 0001:00038c50       ??$extract_argument_from_va_list@_K_J@?$standard_base@_WV?$string_output_adapter@_W@__crt_stdio_output@@@__crt_stdio_output@@IEAA_NAEA_J@Z 0000000180039c50 f i libucrtd:output.obj
 0001:00038c80       ??$extract_argument_from_va_list@_W_W@?$positional_parameter_base@DV?$stream_output_adapter@D@__crt_stdio_output@@@__crt_stdio_output@@IEAA_NAEA_W@Z 0000000180039c80 f i libucrtd:output.obj
 0001:00038e00       ??$extract_argument_from_va_list@_W_W@?$positional_parameter_base@DV?$string_output_adapter@D@__crt_stdio_output@@@__crt_stdio_output@@IEAA_NAEA_W@Z 0000000180039e00 f i libucrtd:output.obj
 0001:00038f80       ??$extract_argument_from_va_list@_W_W@?$positional_parameter_base@_WV?$stream_output_adapter@_W@__crt_stdio_output@@@__crt_stdio_output@@IEAA_NAEA_W@Z 0000000180039f80 f i libucrtd:output.obj
 0001:00039100       ??$extract_argument_from_va_list@_W_W@?$positional_parameter_base@_WV?$string_output_adapter@_W@__crt_stdio_output@@@__crt_stdio_output@@IEAA_NAEA_W@Z 000000018003a100 f i libucrtd:output.obj
 0001:00039280       ??$extract_argument_from_va_list@_W_W@?$standard_base@DV?$stream_output_adapter@D@__crt_stdio_output@@@__crt_stdio_output@@IEAA_NAEA_W@Z 000000018003a280 f i libucrtd:output.obj
 0001:000392b0       ??$extract_argument_from_va_list@_W_W@?$standard_base@DV?$string_output_adapter@D@__crt_stdio_output@@@__crt_stdio_output@@IEAA_NAEA_W@Z 000000018003a2b0 f i libucrtd:output.obj
 0001:000392e0       ??$extract_argument_from_va_list@_W_W@?$standard_base@_WV?$stream_output_adapter@_W@__crt_stdio_output@@@__crt_stdio_output@@IEAA_NAEA_W@Z 000000018003a2e0 f i libucrtd:output.obj
 0001:00039310       ??$extract_argument_from_va_list@_W_W@?$standard_base@_WV?$string_output_adapter@_W@__crt_stdio_output@@@__crt_stdio_output@@IEAA_NAEA_W@Z 000000018003a310 f i libucrtd:output.obj
 0001:00039340       ??$get_parameter_type@D@?$positional_parameter_base@DV?$stream_output_adapter@D@__crt_stdio_output@@@__crt_stdio_output@@CA?AW4parameter_type@01@PEAD@Z 000000018003a340 f i libucrtd:output.obj
 0001:00039350       ??$get_parameter_type@D@?$positional_parameter_base@DV?$string_output_adapter@D@__crt_stdio_output@@@__crt_stdio_output@@CA?AW4parameter_type@01@PEAD@Z 000000018003a350 f i libucrtd:output.obj
 0001:00039360       ??$get_parameter_type@D@?$positional_parameter_base@_WV?$stream_output_adapter@_W@__crt_stdio_output@@@__crt_stdio_output@@CA?AW4parameter_type@01@PEAD@Z 000000018003a360 f i libucrtd:output.obj
 0001:00039370       ??$get_parameter_type@D@?$positional_parameter_base@_WV?$string_output_adapter@_W@__crt_stdio_output@@@__crt_stdio_output@@CA?AW4parameter_type@01@PEAD@Z 000000018003a370 f i libucrtd:output.obj
 0001:00039380       ??$get_parameter_type@Uansi_string@?1??type_case_Z@?$output_processor@DV?$stream_output_adapter@D@__crt_stdio_output@@V?$positional_parameter_base@DV?$stream_output_adapter@D@__crt_stdio_output@@@2@@__crt_stdio_output@@AEAA_NXZ@@?$positional_parameter_base@DV?$stream_output_adapter@D@__crt_stdio_output@@@__crt_stdio_output@@CA?AW4parameter_type@01@PEAUansi_string@?1??type_case_Z@?$output_processor@DV?$stream_output_adapter@D@__crt_stdio_output@@V?$positional_parameter_base@DV?$stream_output_adapter@D@__crt_stdio_output@@@2@@1@AEAA_NXZ@@Z 000000018003a380 f i libucrtd:output.obj
 0001:00039390       ??$get_parameter_type@Uansi_string@?1??type_case_Z@?$output_processor@DV?$string_output_adapter@D@__crt_stdio_output@@V?$positional_parameter_base@DV?$string_output_adapter@D@__crt_stdio_output@@@2@@__crt_stdio_output@@AEAA_NXZ@@?$positional_parameter_base@DV?$string_output_adapter@D@__crt_stdio_output@@@__crt_stdio_output@@CA?AW4parameter_type@01@PEAUansi_string@?1??type_case_Z@?$output_processor@DV?$string_output_adapter@D@__crt_stdio_output@@V?$positional_parameter_base@DV?$string_output_adapter@D@__crt_stdio_output@@@2@@1@AEAA_NXZ@@Z 000000018003a390 f i libucrtd:output.obj
 0001:000393a0       ??$get_parameter_type@Uansi_string@?1??type_case_Z@?$output_processor@_WV?$stream_output_adapter@_W@__crt_stdio_output@@V?$positional_parameter_base@_WV?$stream_output_adapter@_W@__crt_stdio_output@@@2@@__crt_stdio_output@@AEAA_NXZ@@?$positional_parameter_base@_WV?$stream_output_adapter@_W@__crt_stdio_output@@@__crt_stdio_output@@CA?AW4parameter_type@01@PEAUansi_string@?1??type_case_Z@?$output_processor@_WV?$stream_output_adapter@_W@__crt_stdio_output@@V?$positional_parameter_base@_WV?$stream_output_adapter@_W@__crt_stdio_output@@@2@@1@AEAA_NXZ@@Z 000000018003a3a0 f i libucrtd:output.obj
 0001:000393b0       ??$get_parameter_type@Uansi_string@?1??type_case_Z@?$output_processor@_WV?$string_output_adapter@_W@__crt_stdio_output@@V?$positional_parameter_base@_WV?$string_output_adapter@_W@__crt_stdio_output@@@2@@__crt_stdio_output@@AEAA_NXZ@@?$positional_parameter_base@_WV?$string_output_adapter@_W@__crt_stdio_output@@@__crt_stdio_output@@CA?AW4parameter_type@01@PEAUansi_string@?1??type_case_Z@?$output_processor@_WV?$string_output_adapter@_W@__crt_stdio_output@@V?$positional_parameter_base@_WV?$string_output_adapter@_W@__crt_stdio_output@@@2@@1@AEAA_NXZ@@Z 000000018003a3b0 f i libucrtd:output.obj
 0001:000393c0       ??$get_parameter_type@X@?$positional_parameter_base@DV?$stream_output_adapter@D@__crt_stdio_output@@@__crt_stdio_output@@CA?AW4parameter_type@01@PEAX@Z 000000018003a3c0 f i libucrtd:output.obj
 0001:000393d0       ??$get_parameter_type@X@?$positional_parameter_base@DV?$string_output_adapter@D@__crt_stdio_output@@@__crt_stdio_output@@CA?AW4parameter_type@01@PEAX@Z 000000018003a3d0 f i libucrtd:output.obj
 0001:000393e0       ??$get_parameter_type@X@?$positional_parameter_base@_WV?$stream_output_adapter@_W@__crt_stdio_output@@@__crt_stdio_output@@CA?AW4parameter_type@01@PEAX@Z 000000018003a3e0 f i libucrtd:output.obj
 0001:000393f0       ??$get_parameter_type@X@?$positional_parameter_base@_WV?$string_output_adapter@_W@__crt_stdio_output@@@__crt_stdio_output@@CA?AW4parameter_type@01@PEAX@Z 000000018003a3f0 f i libucrtd:output.obj
 0001:00039400       ??$is_character_specifier@D@?$positional_parameter_base@DV?$stream_output_adapter@D@__crt_stdio_output@@@__crt_stdio_output@@CA_ND@Z 000000018003a400 f i libucrtd:output.obj
 0001:00039440       ??$is_character_specifier@D@?$positional_parameter_base@DV?$string_output_adapter@D@__crt_stdio_output@@@__crt_stdio_output@@CA_ND@Z 000000018003a440 f i libucrtd:output.obj
 0001:00039480       ??$is_character_specifier@_W@?$positional_parameter_base@_WV?$stream_output_adapter@_W@__crt_stdio_output@@@__crt_stdio_output@@CA_N_W@Z 000000018003a480 f i libucrtd:output.obj
 0001:000394c0       ??$is_character_specifier@_W@?$positional_parameter_base@_WV?$string_output_adapter@_W@__crt_stdio_output@@@__crt_stdio_output@@CA_N_W@Z 000000018003a4c0 f i libucrtd:output.obj
 0001:00039500       ??$is_integral_specifier@D@?$positional_parameter_base@DV?$stream_output_adapter@D@__crt_stdio_output@@@__crt_stdio_output@@CA_ND@Z 000000018003a500 f i libucrtd:output.obj
 0001:00039570       ??$is_integral_specifier@D@?$positional_parameter_base@DV?$string_output_adapter@D@__crt_stdio_output@@@__crt_stdio_output@@CA_ND@Z 000000018003a570 f i libucrtd:output.obj
 0001:000395e0       ??$is_integral_specifier@_W@?$positional_parameter_base@_WV?$stream_output_adapter@_W@__crt_stdio_output@@@__crt_stdio_output@@CA_N_W@Z 000000018003a5e0 f i libucrtd:output.obj
 0001:00039650       ??$is_integral_specifier@_W@?$positional_parameter_base@_WV?$string_output_adapter@_W@__crt_stdio_output@@@__crt_stdio_output@@CA_N_W@Z 000000018003a650 f i libucrtd:output.obj
 0001:000396c0       ??$is_pointer_specifier@D@?$positional_parameter_base@DV?$stream_output_adapter@D@__crt_stdio_output@@@__crt_stdio_output@@CA_ND@Z 000000018003a6c0 f i libucrtd:output.obj
 0001:000396f0       ??$is_pointer_specifier@D@?$positional_parameter_base@DV?$string_output_adapter@D@__crt_stdio_output@@@__crt_stdio_output@@CA_ND@Z 000000018003a6f0 f i libucrtd:output.obj
 0001:00039720       ??$is_pointer_specifier@_W@?$positional_parameter_base@_WV?$stream_output_adapter@_W@__crt_stdio_output@@@__crt_stdio_output@@CA_N_W@Z 000000018003a720 f i libucrtd:output.obj
 0001:00039750       ??$is_pointer_specifier@_W@?$positional_parameter_base@_WV?$string_output_adapter@_W@__crt_stdio_output@@@__crt_stdio_output@@CA_N_W@Z 000000018003a750 f i libucrtd:output.obj
 0001:00039780       ??$is_string_specifier@D@?$positional_parameter_base@DV?$stream_output_adapter@D@__crt_stdio_output@@@__crt_stdio_output@@CA_ND@Z 000000018003a780 f i libucrtd:output.obj
 0001:000397c0       ??$is_string_specifier@D@?$positional_parameter_base@DV?$string_output_adapter@D@__crt_stdio_output@@@__crt_stdio_output@@CA_ND@Z 000000018003a7c0 f i libucrtd:output.obj
 0001:00039800       ??$is_string_specifier@_W@?$positional_parameter_base@_WV?$stream_output_adapter@_W@__crt_stdio_output@@@__crt_stdio_output@@CA_N_W@Z 000000018003a800 f i libucrtd:output.obj
 0001:00039840       ??$is_string_specifier@_W@?$positional_parameter_base@_WV?$string_output_adapter@_W@__crt_stdio_output@@@__crt_stdio_output@@CA_N_W@Z 000000018003a840 f i libucrtd:output.obj
 0001:00039880       ??$is_wide_character_specifier@D@__crt_stdio_output@@YA_N_KDW4length_modifier@0@@Z 000000018003a880 f i libucrtd:output.obj
 0001:00039920       ??$is_wide_character_specifier@_W@__crt_stdio_output@@YA_N_K_WW4length_modifier@0@@Z 000000018003a920 f i libucrtd:output.obj
 0001:000399f0       ??$peek_va_arg@C@__crt_stdio_output@@YACPEAD@Z 000000018003a9f0 f i libucrtd:output.obj
 0001:00039a50       ??$peek_va_arg@E@__crt_stdio_output@@YAEPEAD@Z 000000018003aa50 f i libucrtd:output.obj
 0001:00039ab0       ??$peek_va_arg@F@__crt_stdio_output@@YAFPEAD@Z 000000018003aab0 f i libucrtd:output.obj
 0001:00039b10       ??$peek_va_arg@G@__crt_stdio_output@@YAGPEAD@Z 000000018003ab10 f i libucrtd:output.obj
 0001:00039b70       ??$peek_va_arg@H@__crt_stdio_output@@YAHPEAD@Z 000000018003ab70 f i libucrtd:output.obj
 0001:00039bc0       ??$peek_va_arg@I@__crt_stdio_output@@YAIPEAD@Z 000000018003abc0 f i libucrtd:output.obj
 0001:00039c10       ??$peek_va_arg@PEAD@__crt_stdio_output@@YAPEADPEAD@Z 000000018003ac10 f i libucrtd:output.obj
 0001:00039c70       ??$peek_va_arg@PEAUansi_string@?1??type_case_Z@?$output_processor@DV?$stream_output_adapter@D@__crt_stdio_output@@V?$positional_parameter_base@DV?$stream_output_adapter@D@__crt_stdio_output@@@2@@__crt_stdio_output@@AEAA_NXZ@@__crt_stdio_output@@YAPEAUansi_string@?1??type_case_Z@?$output_processor@DV?$stream_output_adapter@D@__crt_stdio_output@@V?$positional_parameter_base@DV?$stream_output_adapter@D@__crt_stdio_output@@@2@@0@AEAA_NXZ@PEAD@Z 000000018003ac70 f i libucrtd:output.obj
 0001:00039cd0       ??$peek_va_arg@PEAUansi_string@?1??type_case_Z@?$output_processor@DV?$string_output_adapter@D@__crt_stdio_output@@V?$positional_parameter_base@DV?$string_output_adapter@D@__crt_stdio_output@@@2@@__crt_stdio_output@@AEAA_NXZ@@__crt_stdio_output@@YAPEAUansi_string@?1??type_case_Z@?$output_processor@DV?$string_output_adapter@D@__crt_stdio_output@@V?$positional_parameter_base@DV?$string_output_adapter@D@__crt_stdio_output@@@2@@0@AEAA_NXZ@PEAD@Z 000000018003acd0 f i libucrtd:output.obj
 0001:00039d30       ??$peek_va_arg@PEAUansi_string@?1??type_case_Z@?$output_processor@_WV?$stream_output_adapter@_W@__crt_stdio_output@@V?$positional_parameter_base@_WV?$stream_output_adapter@_W@__crt_stdio_output@@@2@@__crt_stdio_output@@AEAA_NXZ@@__crt_stdio_output@@YAPEAUansi_string@?1??type_case_Z@?$output_processor@_WV?$stream_output_adapter@_W@__crt_stdio_output@@V?$positional_parameter_base@_WV?$stream_output_adapter@_W@__crt_stdio_output@@@2@@0@AEAA_NXZ@PEAD@Z 000000018003ad30 f i libucrtd:output.obj
 0001:00039d90       ??$peek_va_arg@PEAUansi_string@?1??type_case_Z@?$output_processor@_WV?$string_output_adapter@_W@__crt_stdio_output@@V?$positional_parameter_base@_WV?$string_output_adapter@_W@__crt_stdio_output@@@2@@__crt_stdio_output@@AEAA_NXZ@@__crt_stdio_output@@YAPEAUansi_string@?1??type_case_Z@?$output_processor@_WV?$string_output_adapter@_W@__crt_stdio_output@@V?$positional_parameter_base@_WV?$string_output_adapter@_W@__crt_stdio_output@@@2@@0@AEAA_NXZ@PEAD@Z 000000018003ad90 f i libucrtd:output.obj
 0001:00039df0       ??$peek_va_arg@PEAX@__crt_stdio_output@@YAPEAXPEAD@Z 000000018003adf0 f i libucrtd:output.obj
 0001:00039e50       ??$peek_va_arg@U_CRT_DOUBLE@@@__crt_stdio_output@@YA?AU_CRT_DOUBLE@@PEAD@Z 000000018003ae50 f i libucrtd:output.obj
 0001:00039eb0       ??$peek_va_arg@_J@__crt_stdio_output@@YA_JPEAD@Z 000000018003aeb0 f i libucrtd:output.obj
 0001:00039f10       ??$peek_va_arg@_K@__crt_stdio_output@@YA_KPEAD@Z 000000018003af10 f i libucrtd:output.obj
 0001:00039f70       ??$peek_va_arg@_W@__crt_stdio_output@@YA_WPEAD@Z 000000018003af70 f i libucrtd:output.obj
 0001:00039fd0       ??$puttc_nolock@AEBDPEAU_iobuf@@@?$__crt_char_traits@D@@SAHAEBD$$QEAPEAU_iobuf@@@Z 000000018003afd0 f i libucrtd:output.obj
 0001:0003a000       ??$puttc_nolock@AEB_WPEAU_iobuf@@@?$__crt_char_traits@_W@@SAGAEB_W$$QEAPEAU_iobuf@@@Z 000000018003b000 f i libucrtd:output.obj
 0001:0003a030       ??$read_va_arg@C@__crt_stdio_output@@YACAEAPEAD@Z 000000018003b030 f i libucrtd:output.obj
 0001:0003a0a0       ??$read_va_arg@E@__crt_stdio_output@@YAEAEAPEAD@Z 000000018003b0a0 f i libucrtd:output.obj
 0001:0003a110       ??$read_va_arg@F@__crt_stdio_output@@YAFAEAPEAD@Z 000000018003b110 f i libucrtd:output.obj
 0001:0003a180       ??$read_va_arg@G@__crt_stdio_output@@YAGAEAPEAD@Z 000000018003b180 f i libucrtd:output.obj
 0001:0003a1f0       ??$read_va_arg@H@__crt_stdio_output@@YAHAEAPEAD@Z 000000018003b1f0 f i libucrtd:output.obj
 0001:0003a250       ??$read_va_arg@I@__crt_stdio_output@@YAIAEAPEAD@Z 000000018003b250 f i libucrtd:output.obj
 0001:0003a2b0       ??$read_va_arg@PEAD@__crt_stdio_output@@YAPEADAEAPEAD@Z 000000018003b2b0 f i libucrtd:output.obj
 0001:0003a320       ??$read_va_arg@PEAUansi_string@?1??type_case_Z@?$output_processor@DV?$stream_output_adapter@D@__crt_stdio_output@@V?$format_validation_base@DV?$stream_output_adapter@D@__crt_stdio_output@@@2@@__crt_stdio_output@@AEAA_NXZ@@__crt_stdio_output@@YAPEAUansi_string@?1??type_case_Z@?$output_processor@DV?$stream_output_adapter@D@__crt_stdio_output@@V?$format_validation_base@DV?$stream_output_adapter@D@__crt_stdio_output@@@2@@0@AEAA_NXZ@AEAPEAD@Z 000000018003b320 f i libucrtd:output.obj
 0001:0003a390       ??$read_va_arg@PEAUansi_string@?1??type_case_Z@?$output_processor@DV?$stream_output_adapter@D@__crt_stdio_output@@V?$positional_parameter_base@DV?$stream_output_adapter@D@__crt_stdio_output@@@2@@__crt_stdio_output@@AEAA_NXZ@@__crt_stdio_output@@YAPEAUansi_string@?1??type_case_Z@?$output_processor@DV?$stream_output_adapter@D@__crt_stdio_output@@V?$positional_parameter_base@DV?$stream_output_adapter@D@__crt_stdio_output@@@2@@0@AEAA_NXZ@AEAPEAD@Z 000000018003b390 f i libucrtd:output.obj
 0001:0003a400       ??$read_va_arg@PEAUansi_string@?1??type_case_Z@?$output_processor@DV?$stream_output_adapter@D@__crt_stdio_output@@V?$standard_base@DV?$stream_output_adapter@D@__crt_stdio_output@@@2@@__crt_stdio_output@@AEAA_NXZ@@__crt_stdio_output@@YAPEAUansi_string@?1??type_case_Z@?$output_processor@DV?$stream_output_adapter@D@__crt_stdio_output@@V?$standard_base@DV?$stream_output_adapter@D@__crt_stdio_output@@@2@@0@AEAA_NXZ@AEAPEAD@Z 000000018003b400 f i libucrtd:output.obj
 0001:0003a470       ??$read_va_arg@PEAUansi_string@?1??type_case_Z@?$output_processor@DV?$string_output_adapter@D@__crt_stdio_output@@V?$format_validation_base@DV?$string_output_adapter@D@__crt_stdio_output@@@2@@__crt_stdio_output@@AEAA_NXZ@@__crt_stdio_output@@YAPEAUansi_string@?1??type_case_Z@?$output_processor@DV?$string_output_adapter@D@__crt_stdio_output@@V?$format_validation_base@DV?$string_output_adapter@D@__crt_stdio_output@@@2@@0@AEAA_NXZ@AEAPEAD@Z 000000018003b470 f i libucrtd:output.obj
 0001:0003a4e0       ??$read_va_arg@PEAUansi_string@?1??type_case_Z@?$output_processor@DV?$string_output_adapter@D@__crt_stdio_output@@V?$positional_parameter_base@DV?$string_output_adapter@D@__crt_stdio_output@@@2@@__crt_stdio_output@@AEAA_NXZ@@__crt_stdio_output@@YAPEAUansi_string@?1??type_case_Z@?$output_processor@DV?$string_output_adapter@D@__crt_stdio_output@@V?$positional_parameter_base@DV?$string_output_adapter@D@__crt_stdio_output@@@2@@0@AEAA_NXZ@AEAPEAD@Z 000000018003b4e0 f i libucrtd:output.obj
 0001:0003a550       ??$read_va_arg@PEAUansi_string@?1??type_case_Z@?$output_processor@DV?$string_output_adapter@D@__crt_stdio_output@@V?$standard_base@DV?$string_output_adapter@D@__crt_stdio_output@@@2@@__crt_stdio_output@@AEAA_NXZ@@__crt_stdio_output@@YAPEAUansi_string@?1??type_case_Z@?$output_processor@DV?$string_output_adapter@D@__crt_stdio_output@@V?$standard_base@DV?$string_output_adapter@D@__crt_stdio_output@@@2@@0@AEAA_NXZ@AEAPEAD@Z 000000018003b550 f i libucrtd:output.obj
 0001:0003a5c0       ??$read_va_arg@PEAUansi_string@?1??type_case_Z@?$output_processor@_WV?$stream_output_adapter@_W@__crt_stdio_output@@V?$format_validation_base@_WV?$stream_output_adapter@_W@__crt_stdio_output@@@2@@__crt_stdio_output@@AEAA_NXZ@@__crt_stdio_output@@YAPEAUansi_string@?1??type_case_Z@?$output_processor@_WV?$stream_output_adapter@_W@__crt_stdio_output@@V?$format_validation_base@_WV?$stream_output_adapter@_W@__crt_stdio_output@@@2@@0@AEAA_NXZ@AEAPEAD@Z 000000018003b5c0 f i libucrtd:output.obj
 0001:0003a630       ??$read_va_arg@PEAUansi_string@?1??type_case_Z@?$output_processor@_WV?$stream_output_adapter@_W@__crt_stdio_output@@V?$positional_parameter_base@_WV?$stream_output_adapter@_W@__crt_stdio_output@@@2@@__crt_stdio_output@@AEAA_NXZ@@__crt_stdio_output@@YAPEAUansi_string@?1??type_case_Z@?$output_processor@_WV?$stream_output_adapter@_W@__crt_stdio_output@@V?$positional_parameter_base@_WV?$stream_output_adapter@_W@__crt_stdio_output@@@2@@0@AEAA_NXZ@AEAPEAD@Z 000000018003b630 f i libucrtd:output.obj
 0001:0003a6a0       ??$read_va_arg@PEAUansi_string@?1??type_case_Z@?$output_processor@_WV?$stream_output_adapter@_W@__crt_stdio_output@@V?$standard_base@_WV?$stream_output_adapter@_W@__crt_stdio_output@@@2@@__crt_stdio_output@@AEAA_NXZ@@__crt_stdio_output@@YAPEAUansi_string@?1??type_case_Z@?$output_processor@_WV?$stream_output_adapter@_W@__crt_stdio_output@@V?$standard_base@_WV?$stream_output_adapter@_W@__crt_stdio_output@@@2@@0@AEAA_NXZ@AEAPEAD@Z 000000018003b6a0 f i libucrtd:output.obj
 0001:0003a710       ??$read_va_arg@PEAUansi_string@?1??type_case_Z@?$output_processor@_WV?$string_output_adapter@_W@__crt_stdio_output@@V?$format_validation_base@_WV?$string_output_adapter@_W@__crt_stdio_output@@@2@@__crt_stdio_output@@AEAA_NXZ@@__crt_stdio_output@@YAPEAUansi_string@?1??type_case_Z@?$output_processor@_WV?$string_output_adapter@_W@__crt_stdio_output@@V?$format_validation_base@_WV?$string_output_adapter@_W@__crt_stdio_output@@@2@@0@AEAA_NXZ@AEAPEAD@Z 000000018003b710 f i libucrtd:output.obj
 0001:0003a780       ??$read_va_arg@PEAUansi_string@?1??type_case_Z@?$output_processor@_WV?$string_output_adapter@_W@__crt_stdio_output@@V?$positional_parameter_base@_WV?$string_output_adapter@_W@__crt_stdio_output@@@2@@__crt_stdio_output@@AEAA_NXZ@@__crt_stdio_output@@YAPEAUansi_string@?1??type_case_Z@?$output_processor@_WV?$string_output_adapter@_W@__crt_stdio_output@@V?$positional_parameter_base@_WV?$string_output_adapter@_W@__crt_stdio_output@@@2@@0@AEAA_NXZ@AEAPEAD@Z 000000018003b780 f i libucrtd:output.obj
 0001:0003a7f0       ??$read_va_arg@PEAUansi_string@?1??type_case_Z@?$output_processor@_WV?$string_output_adapter@_W@__crt_stdio_output@@V?$standard_base@_WV?$string_output_adapter@_W@__crt_stdio_output@@@2@@__crt_stdio_output@@AEAA_NXZ@@__crt_stdio_output@@YAPEAUansi_string@?1??type_case_Z@?$output_processor@_WV?$string_output_adapter@_W@__crt_stdio_output@@V?$standard_base@_WV?$string_output_adapter@_W@__crt_stdio_output@@@2@@0@AEAA_NXZ@AEAPEAD@Z 000000018003b7f0 f i libucrtd:output.obj
 0001:0003a860       ??$read_va_arg@PEAX@__crt_stdio_output@@YAPEAXAEAPEAD@Z 000000018003b860 f i libucrtd:output.obj
 0001:0003a8d0       ??$read_va_arg@U_CRT_DOUBLE@@@__crt_stdio_output@@YA?AU_CRT_DOUBLE@@AEAPEAD@Z 000000018003b8d0 f i libucrtd:output.obj
 0001:0003a940       ??$read_va_arg@_J@__crt_stdio_output@@YA_JAEAPEAD@Z 000000018003b940 f i libucrtd:output.obj
 0001:0003a9b0       ??$read_va_arg@_K@__crt_stdio_output@@YA_KAEAPEAD@Z 000000018003b9b0 f i libucrtd:output.obj
 0001:0003aa20       ??$read_va_arg@_W@__crt_stdio_output@@YA_WAEAPEAD@Z 000000018003ba20 f i libucrtd:output.obj
 0001:0003aa90       ??$scratch_count@D@formatting_buffer@__crt_stdio_output@@QEBA_KXZ 000000018003ba90 f i libucrtd:output.obj
 0001:0003aab0       ??$scratch_data@D@formatting_buffer@__crt_stdio_output@@QEAAPEADXZ 000000018003bab0 f i libucrtd:output.obj
 0001:0003ab20       ??$tcstol@AEAPEBDPEAPEADH@?$__crt_char_traits@D@@SAJAEAPEBD$$QEAPEAPEAD$$QEAH@Z 000000018003bb20 f i libucrtd:output.obj
 0001:0003ab60       ??$tcstol@AEAPEB_WPEAPEA_WH@?$__crt_char_traits@_W@@SAJAEAPEB_W$$QEAPEAPEA_W$$QEAH@Z 000000018003bb60 f i libucrtd:output.obj
 0001:0003aba0       ??$tcstol@PEBDPEAPEADH@?$__crt_char_traits@D@@SAJ$$QEAPEBD$$QEAPEAPEAD$$QEAH@Z 000000018003bba0 f i libucrtd:output.obj
 0001:0003abe0       ??$tcstol@PEB_WPEAPEA_WH@?$__crt_char_traits@_W@@SAJ$$QEAPEB_W$$QEAPEAPEA_W$$QEAH@Z 000000018003bbe0 f i libucrtd:output.obj
 0001:0003ac20       ??$type_case_integer_parse_into_buffer@I@?$output_processor@DV?$stream_output_adapter@D@__crt_stdio_output@@V?$format_validation_base@DV?$stream_output_adapter@D@__crt_stdio_output@@@2@@__crt_stdio_output@@AEAAXII_N@Z 000000018003bc20 f i libucrtd:output.obj
 0001:0003ad50       ??$type_case_integer_parse_into_buffer@I@?$output_processor@DV?$stream_output_adapter@D@__crt_stdio_output@@V?$positional_parameter_base@DV?$stream_output_adapter@D@__crt_stdio_output@@@2@@__crt_stdio_output@@AEAAXII_N@Z 000000018003bd50 f i libucrtd:output.obj
 0001:0003ae80       ??$type_case_integer_parse_into_buffer@I@?$output_processor@DV?$stream_output_adapter@D@__crt_stdio_output@@V?$standard_base@DV?$stream_output_adapter@D@__crt_stdio_output@@@2@@__crt_stdio_output@@AEAAXII_N@Z 000000018003be80 f i libucrtd:output.obj
 0001:0003afb0       ??$type_case_integer_parse_into_buffer@I@?$output_processor@DV?$string_output_adapter@D@__crt_stdio_output@@V?$format_validation_base@DV?$string_output_adapter@D@__crt_stdio_output@@@2@@__crt_stdio_output@@AEAAXII_N@Z 000000018003bfb0 f i libucrtd:output.obj
 0001:0003b0e0       ??$type_case_integer_parse_into_buffer@I@?$output_processor@DV?$string_output_adapter@D@__crt_stdio_output@@V?$positional_parameter_base@DV?$string_output_adapter@D@__crt_stdio_output@@@2@@__crt_stdio_output@@AEAAXII_N@Z 000000018003c0e0 f i libucrtd:output.obj
 0001:0003b210       ??$type_case_integer_parse_into_buffer@I@?$output_processor@DV?$string_output_adapter@D@__crt_stdio_output@@V?$standard_base@DV?$string_output_adapter@D@__crt_stdio_output@@@2@@__crt_stdio_output@@AEAAXII_N@Z 000000018003c210 f i libucrtd:output.obj
 0001:0003b340       ??$type_case_integer_parse_into_buffer@I@?$output_processor@_WV?$stream_output_adapter@_W@__crt_stdio_output@@V?$format_validation_base@_WV?$stream_output_adapter@_W@__crt_stdio_output@@@2@@__crt_stdio_output@@AEAAXII_N@Z 000000018003c340 f i libucrtd:output.obj
 0001:0003b480       ??$type_case_integer_parse_into_buffer@I@?$output_processor@_WV?$stream_output_adapter@_W@__crt_stdio_output@@V?$positional_parameter_base@_WV?$stream_output_adapter@_W@__crt_stdio_output@@@2@@__crt_stdio_output@@AEAAXII_N@Z 000000018003c480 f i libucrtd:output.obj
 0001:0003b5c0       ??$type_case_integer_parse_into_buffer@I@?$output_processor@_WV?$stream_output_adapter@_W@__crt_stdio_output@@V?$standard_base@_WV?$stream_output_adapter@_W@__crt_stdio_output@@@2@@__crt_stdio_output@@AEAAXII_N@Z 000000018003c5c0 f i libucrtd:output.obj
 0001:0003b700       ??$type_case_integer_parse_into_buffer@I@?$output_processor@_WV?$string_output_adapter@_W@__crt_stdio_output@@V?$format_validation_base@_WV?$string_output_adapter@_W@__crt_stdio_output@@@2@@__crt_stdio_output@@AEAAXII_N@Z 000000018003c700 f i libucrtd:output.obj
 0001:0003b840       ??$type_case_integer_parse_into_buffer@I@?$output_processor@_WV?$string_output_adapter@_W@__crt_stdio_output@@V?$positional_parameter_base@_WV?$string_output_adapter@_W@__crt_stdio_output@@@2@@__crt_stdio_output@@AEAAXII_N@Z 000000018003c840 f i libucrtd:output.obj
 0001:0003b980       ??$type_case_integer_parse_into_buffer@I@?$output_processor@_WV?$string_output_adapter@_W@__crt_stdio_output@@V?$standard_base@_WV?$string_output_adapter@_W@__crt_stdio_output@@@2@@__crt_stdio_output@@AEAAXII_N@Z 000000018003c980 f i libucrtd:output.obj
 0001:0003bac0       ??$type_case_integer_parse_into_buffer@_K@?$output_processor@DV?$stream_output_adapter@D@__crt_stdio_output@@V?$format_validation_base@DV?$stream_output_adapter@D@__crt_stdio_output@@@2@@__crt_stdio_output@@AEAAX_KI_N@Z 000000018003cac0 f i libucrtd:output.obj
 0001:0003bc10       ??$type_case_integer_parse_into_buffer@_K@?$output_processor@DV?$stream_output_adapter@D@__crt_stdio_output@@V?$positional_parameter_base@DV?$stream_output_adapter@D@__crt_stdio_output@@@2@@__crt_stdio_output@@AEAAX_KI_N@Z 000000018003cc10 f i libucrtd:output.obj
 0001:0003bd60       ??$type_case_integer_parse_into_buffer@_K@?$output_processor@DV?$stream_output_adapter@D@__crt_stdio_output@@V?$standard_base@DV?$stream_output_adapter@D@__crt_stdio_output@@@2@@__crt_stdio_output@@AEAAX_KI_N@Z 000000018003cd60 f i libucrtd:output.obj
 0001:0003beb0       ??$type_case_integer_parse_into_buffer@_K@?$output_processor@DV?$string_output_adapter@D@__crt_stdio_output@@V?$format_validation_base@DV?$string_output_adapter@D@__crt_stdio_output@@@2@@__crt_stdio_output@@AEAAX_KI_N@Z 000000018003ceb0 f i libucrtd:output.obj
 0001:0003c000       ??$type_case_integer_parse_into_buffer@_K@?$output_processor@DV?$string_output_adapter@D@__crt_stdio_output@@V?$positional_parameter_base@DV?$string_output_adapter@D@__crt_stdio_output@@@2@@__crt_stdio_output@@AEAAX_KI_N@Z 000000018003d000 f i libucrtd:output.obj
 0001:0003c150       ??$type_case_integer_parse_into_buffer@_K@?$output_processor@DV?$string_output_adapter@D@__crt_stdio_output@@V?$standard_base@DV?$string_output_adapter@D@__crt_stdio_output@@@2@@__crt_stdio_output@@AEAAX_KI_N@Z 000000018003d150 f i libucrtd:output.obj
 0001:0003c2a0       ??$type_case_integer_parse_into_buffer@_K@?$output_processor@_WV?$stream_output_adapter@_W@__crt_stdio_output@@V?$format_validation_base@_WV?$stream_output_adapter@_W@__crt_stdio_output@@@2@@__crt_stdio_output@@AEAAX_KI_N@Z 000000018003d2a0 f i libucrtd:output.obj
 0001:0003c400       ??$type_case_integer_parse_into_buffer@_K@?$output_processor@_WV?$stream_output_adapter@_W@__crt_stdio_output@@V?$positional_parameter_base@_WV?$stream_output_adapter@_W@__crt_stdio_output@@@2@@__crt_stdio_output@@AEAAX_KI_N@Z 000000018003d400 f i libucrtd:output.obj
 0001:0003c560       ??$type_case_integer_parse_into_buffer@_K@?$output_processor@_WV?$stream_output_adapter@_W@__crt_stdio_output@@V?$standard_base@_WV?$stream_output_adapter@_W@__crt_stdio_output@@@2@@__crt_stdio_output@@AEAAX_KI_N@Z 000000018003d560 f i libucrtd:output.obj
 0001:0003c6c0       ??$type_case_integer_parse_into_buffer@_K@?$output_processor@_WV?$string_output_adapter@_W@__crt_stdio_output@@V?$format_validation_base@_WV?$string_output_adapter@_W@__crt_stdio_output@@@2@@__crt_stdio_output@@AEAAX_KI_N@Z 000000018003d6c0 f i libucrtd:output.obj
 0001:0003c820       ??$type_case_integer_parse_into_buffer@_K@?$output_processor@_WV?$string_output_adapter@_W@__crt_stdio_output@@V?$positional_parameter_base@_WV?$string_output_adapter@_W@__crt_stdio_output@@@2@@__crt_stdio_output@@AEAAX_KI_N@Z 000000018003d820 f i libucrtd:output.obj
 0001:0003c980       ??$type_case_integer_parse_into_buffer@_K@?$output_processor@_WV?$string_output_adapter@_W@__crt_stdio_output@@V?$standard_base@_WV?$string_output_adapter@_W@__crt_stdio_output@@@2@@__crt_stdio_output@@AEAAX_KI_N@Z 000000018003d980 f i libucrtd:output.obj
 0001:0003cae0       ??$write_multiple_characters@V?$stream_output_adapter@D@__crt_stdio_output@@D@__crt_stdio_output@@YAXAEBV?$stream_output_adapter@D@0@DHQEAH@Z 000000018003dae0 f i libucrtd:output.obj
 0001:0003cb40       ??$write_multiple_characters@V?$stream_output_adapter@_W@__crt_stdio_output@@D@__crt_stdio_output@@YAXAEBV?$stream_output_adapter@_W@0@DHQEAH@Z 000000018003db40 f i libucrtd:output.obj
 0001:0003cba0       ??$write_multiple_characters@V?$string_output_adapter@D@__crt_stdio_output@@D@__crt_stdio_output@@YAXAEBV?$string_output_adapter@D@0@DHQEAH@Z 000000018003dba0 f i libucrtd:output.obj
 0001:0003cc00       ??$write_multiple_characters@V?$string_output_adapter@_W@__crt_stdio_output@@D@__crt_stdio_output@@YAXAEBV?$string_output_adapter@_W@0@DHQEAH@Z 000000018003dc00 f i libucrtd:output.obj
 0001:0003d020       ??0?$common_data@D@__crt_stdio_output@@IEAA@XZ 000000018003e020 f i libucrtd:output.obj
 0001:0003d0f0       ??0?$common_data@_W@__crt_stdio_output@@IEAA@XZ 000000018003e0f0 f i libucrtd:output.obj
 0001:0003d1c0       ??0?$output_adapter_data@DV?$stream_output_adapter@D@__crt_stdio_output@@@__crt_stdio_output@@IEAA@AEBV?$stream_output_adapter@D@1@_KQEBDQEAU__crt_locale_pointers@@QEAD@Z 000000018003e1c0 f i libucrtd:output.obj
 0001:0003d240       ??0?$output_adapter_data@DV?$string_output_adapter@D@__crt_stdio_output@@@__crt_stdio_output@@IEAA@AEBV?$string_output_adapter@D@1@_KQEBDQEAU__crt_locale_pointers@@QEAD@Z 000000018003e240 f i libucrtd:output.obj
 0001:0003d2c0       ??0?$output_adapter_data@_WV?$stream_output_adapter@_W@__crt_stdio_output@@@__crt_stdio_output@@IEAA@AEBV?$stream_output_adapter@_W@1@_KQEB_WQEAU__crt_locale_pointers@@QEAD@Z 000000018003e2c0 f i libucrtd:output.obj
 0001:0003d340       ??0?$output_adapter_data@_WV?$string_output_adapter@_W@__crt_stdio_output@@@__crt_stdio_output@@IEAA@AEBV?$string_output_adapter@_W@1@_KQEB_WQEAU__crt_locale_pointers@@QEAD@Z 000000018003e340 f i libucrtd:output.obj
 0001:0003d3c0       ??0?$output_processor@DV?$stream_output_adapter@D@__crt_stdio_output@@V?$format_validation_base@DV?$stream_output_adapter@D@__crt_stdio_output@@@2@@__crt_stdio_output@@QEAA@AEBV?$stream_output_adapter@D@1@_KQEBDQEAU__crt_locale_pointers@@QEAD@Z 000000018003e3c0 f i libucrtd:output.obj
 0001:0003d410       ??0?$output_processor@DV?$stream_output_adapter@D@__crt_stdio_output@@V?$positional_parameter_base@DV?$stream_output_adapter@D@__crt_stdio_output@@@2@@__crt_stdio_output@@QEAA@AEBV?$stream_output_adapter@D@1@_KQEBDQEAU__crt_locale_pointers@@QEAD@Z 000000018003e410 f i libucrtd:output.obj
 0001:0003d460       ??0?$output_processor@DV?$stream_output_adapter@D@__crt_stdio_output@@V?$standard_base@DV?$stream_output_adapter@D@__crt_stdio_output@@@2@@__crt_stdio_output@@QEAA@AEBV?$stream_output_adapter@D@1@_KQEBDQEAU__crt_locale_pointers@@QEAD@Z 000000018003e460 f i libucrtd:output.obj
 0001:0003d4b0       ??0?$output_processor@DV?$string_output_adapter@D@__crt_stdio_output@@V?$format_validation_base@DV?$string_output_adapter@D@__crt_stdio_output@@@2@@__crt_stdio_output@@QEAA@AEBV?$string_output_adapter@D@1@_KQEBDQEAU__crt_locale_pointers@@QEAD@Z 000000018003e4b0 f i libucrtd:output.obj
 0001:0003d500       ??0?$output_processor@DV?$string_output_adapter@D@__crt_stdio_output@@V?$positional_parameter_base@DV?$string_output_adapter@D@__crt_stdio_output@@@2@@__crt_stdio_output@@QEAA@AEBV?$string_output_adapter@D@1@_KQEBDQEAU__crt_locale_pointers@@QEAD@Z 000000018003e500 f i libucrtd:output.obj
 0001:0003d550       ??0?$output_processor@DV?$string_output_adapter@D@__crt_stdio_output@@V?$standard_base@DV?$string_output_adapter@D@__crt_stdio_output@@@2@@__crt_stdio_output@@QEAA@AEBV?$string_output_adapter@D@1@_KQEBDQEAU__crt_locale_pointers@@QEAD@Z 000000018003e550 f i libucrtd:output.obj
 0001:0003d5a0       ??0?$output_processor@_WV?$stream_output_adapter@_W@__crt_stdio_output@@V?$format_validation_base@_WV?$stream_output_adapter@_W@__crt_stdio_output@@@2@@__crt_stdio_output@@QEAA@AEBV?$stream_output_adapter@_W@1@_KQEB_WQEAU__crt_locale_pointers@@QEAD@Z 000000018003e5a0 f i libucrtd:output.obj
 0001:0003d5f0       ??0?$output_processor@_WV?$stream_output_adapter@_W@__crt_stdio_output@@V?$positional_parameter_base@_WV?$stream_output_adapter@_W@__crt_stdio_output@@@2@@__crt_stdio_output@@QEAA@AEBV?$stream_output_adapter@_W@1@_KQEB_WQEAU__crt_locale_pointers@@QEAD@Z 000000018003e5f0 f i libucrtd:output.obj
 0001:0003d640       ??0?$output_processor@_WV?$stream_output_adapter@_W@__crt_stdio_output@@V?$standard_base@_WV?$stream_output_adapter@_W@__crt_stdio_output@@@2@@__crt_stdio_output@@QEAA@AEBV?$stream_output_adapter@_W@1@_KQEB_WQEAU__crt_locale_pointers@@QEAD@Z 000000018003e640 f i libucrtd:output.obj
 0001:0003d690       ??0?$output_processor@_WV?$string_output_adapter@_W@__crt_stdio_output@@V?$format_validation_base@_WV?$string_output_adapter@_W@__crt_stdio_output@@@2@@__crt_stdio_output@@QEAA@AEBV?$string_output_adapter@_W@1@_KQEB_WQEAU__crt_locale_pointers@@QEAD@Z 000000018003e690 f i libucrtd:output.obj
 0001:0003d6e0       ??0?$output_processor@_WV?$string_output_adapter@_W@__crt_stdio_output@@V?$positional_parameter_base@_WV?$string_output_adapter@_W@__crt_stdio_output@@@2@@__crt_stdio_output@@QEAA@AEBV?$string_output_adapter@_W@1@_KQEB_WQEAU__crt_locale_pointers@@QEAD@Z 000000018003e6e0 f i libucrtd:output.obj
 0001:0003d730       ??0?$output_processor@_WV?$string_output_adapter@_W@__crt_stdio_output@@V?$standard_base@_WV?$string_output_adapter@_W@__crt_stdio_output@@@2@@__crt_stdio_output@@QEAA@AEBV?$string_output_adapter@_W@1@_KQEB_WQEAU__crt_locale_pointers@@QEAD@Z 000000018003e730 f i libucrtd:output.obj
 0001:0003d780       ??0?$stream_output_adapter@D@__crt_stdio_output@@QEAA@QEAU_iobuf@@@Z 000000018003e780 f i libucrtd:output.obj
 0001:0003d7b0       ??0?$stream_output_adapter@_W@__crt_stdio_output@@QEAA@QEAU_iobuf@@@Z 000000018003e7b0 f i libucrtd:output.obj
 0001:0003d7e0       ??0?$string_output_adapter@D@__crt_stdio_output@@QEAA@QEAU?$string_output_adapter_context@D@1@@Z 000000018003e7e0 f i libucrtd:output.obj
 0001:0003d800       ??0?$string_output_adapter@_W@__crt_stdio_output@@QEAA@QEAU?$string_output_adapter_context@_W@1@@Z 000000018003e800 f i libucrtd:output.obj
 0001:0003d820       ??0_LocaleUpdate@@QEAA@QEAU__crt_locale_pointers@@@Z 000000018003e820 f i libucrtd:output.obj
 0001:0003d940       ??0__acrt_stdio_temporary_buffering_guard@@QEAA@QEAU_iobuf@@@Z 000000018003e940 f i libucrtd:output.obj
 0001:0003d980       ??0__crt_deferred_errno_cache@@QEAA@XZ 000000018003e980 f i libucrtd:output.obj
 0001:0003d9a0       ??0__crt_errno_guard@@QEAA@QEAH@Z 000000018003e9a0 f i libucrtd:output.obj
 0001:0003d9e0       ??0__crt_stdio_stream@@QEAA@QEAU_iobuf@@@Z 000000018003e9e0 f i libucrtd:output.obj
 0001:0003da00       ??0formatting_buffer@__crt_stdio_output@@QEAA@XZ 000000018003ea00 f i libucrtd:output.obj
 0001:0003da40       ??1?$common_data@D@__crt_stdio_output@@QEAA@XZ 000000018003ea40 f i libucrtd:output.obj
 0001:0003da60       ??1?$common_data@_W@__crt_stdio_output@@QEAA@XZ 000000018003ea60 f i libucrtd:output.obj
 0001:0003da80       ??1?$format_validation_base@DV?$stream_output_adapter@D@__crt_stdio_output@@@__crt_stdio_output@@QEAA@XZ 000000018003ea80 f i libucrtd:output.obj
 0001:0003daa0       ??1?$format_validation_base@DV?$string_output_adapter@D@__crt_stdio_output@@@__crt_stdio_output@@QEAA@XZ 000000018003eaa0 f i libucrtd:output.obj
 0001:0003dac0       ??1?$format_validation_base@_WV?$stream_output_adapter@_W@__crt_stdio_output@@@__crt_stdio_output@@QEAA@XZ 000000018003eac0 f i libucrtd:output.obj
 0001:0003dae0       ??1?$format_validation_base@_WV?$string_output_adapter@_W@__crt_stdio_output@@@__crt_stdio_output@@QEAA@XZ 000000018003eae0 f i libucrtd:output.obj
 0001:0003db00       ??1?$output_adapter_data@DV?$stream_output_adapter@D@__crt_stdio_output@@@__crt_stdio_output@@QEAA@XZ 000000018003eb00 f i libucrtd:output.obj
 0001:0003db20       ??1?$output_adapter_data@DV?$string_output_adapter@D@__crt_stdio_output@@@__crt_stdio_output@@QEAA@XZ 000000018003eb20 f i libucrtd:output.obj
 0001:0003db40       ??1?$output_adapter_data@_WV?$stream_output_adapter@_W@__crt_stdio_output@@@__crt_stdio_output@@QEAA@XZ 000000018003eb40 f i libucrtd:output.obj
 0001:0003db60       ??1?$output_adapter_data@_WV?$string_output_adapter@_W@__crt_stdio_output@@@__crt_stdio_output@@QEAA@XZ 000000018003eb60 f i libucrtd:output.obj
 0001:0003db80       ??1?$output_processor@DV?$stream_output_adapter@D@__crt_stdio_output@@V?$format_validation_base@DV?$stream_output_adapter@D@__crt_stdio_output@@@2@@__crt_stdio_output@@QEAA@XZ 000000018003eb80 f i libucrtd:output.obj
 0001:0003dba0       ??1?$output_processor@DV?$stream_output_adapter@D@__crt_stdio_output@@V?$positional_parameter_base@DV?$stream_output_adapter@D@__crt_stdio_output@@@2@@__crt_stdio_output@@QEAA@XZ 000000018003eba0 f i libucrtd:output.obj
 0001:0003dbc0       ??1?$output_processor@DV?$stream_output_adapter@D@__crt_stdio_output@@V?$standard_base@DV?$stream_output_adapter@D@__crt_stdio_output@@@2@@__crt_stdio_output@@QEAA@XZ 000000018003ebc0 f i libucrtd:output.obj
 0001:0003dbe0       ??1?$output_processor@DV?$string_output_adapter@D@__crt_stdio_output@@V?$format_validation_base@DV?$string_output_adapter@D@__crt_stdio_output@@@2@@__crt_stdio_output@@QEAA@XZ 000000018003ebe0 f i libucrtd:output.obj
 0001:0003dc00       ??1?$output_processor@DV?$string_output_adapter@D@__crt_stdio_output@@V?$positional_parameter_base@DV?$string_output_adapter@D@__crt_stdio_output@@@2@@__crt_stdio_output@@QEAA@XZ 000000018003ec00 f i libucrtd:output.obj
 0001:0003dc20       ??1?$output_processor@DV?$string_output_adapter@D@__crt_stdio_output@@V?$standard_base@DV?$string_output_adapter@D@__crt_stdio_output@@@2@@__crt_stdio_output@@QEAA@XZ 000000018003ec20 f i libucrtd:output.obj
 0001:0003dc40       ??1?$output_processor@_WV?$stream_output_adapter@_W@__crt_stdio_output@@V?$format_validation_base@_WV?$stream_output_adapter@_W@__crt_stdio_output@@@2@@__crt_stdio_output@@QEAA@XZ 000000018003ec40 f i libucrtd:output.obj
 0001:0003dc60       ??1?$output_processor@_WV?$stream_output_adapter@_W@__crt_stdio_output@@V?$positional_parameter_base@_WV?$stream_output_adapter@_W@__crt_stdio_output@@@2@@__crt_stdio_output@@QEAA@XZ 000000018003ec60 f i libucrtd:output.obj
 0001:0003dc80       ??1?$output_processor@_WV?$stream_output_adapter@_W@__crt_stdio_output@@V?$standard_base@_WV?$stream_output_adapter@_W@__crt_stdio_output@@@2@@__crt_stdio_output@@QEAA@XZ 000000018003ec80 f i libucrtd:output.obj
 0001:0003dca0       ??1?$output_processor@_WV?$string_output_adapter@_W@__crt_stdio_output@@V?$format_validation_base@_WV?$string_output_adapter@_W@__crt_stdio_output@@@2@@__crt_stdio_output@@QEAA@XZ 000000018003eca0 f i libucrtd:output.obj
 0001:0003dcc0       ??1?$output_processor@_WV?$string_output_adapter@_W@__crt_stdio_output@@V?$positional_parameter_base@_WV?$string_output_adapter@_W@__crt_stdio_output@@@2@@__crt_stdio_output@@QEAA@XZ 000000018003ecc0 f i libucrtd:output.obj
 0001:0003dce0       ??1?$output_processor@_WV?$string_output_adapter@_W@__crt_stdio_output@@V?$standard_base@_WV?$string_output_adapter@_W@__crt_stdio_output@@@2@@__crt_stdio_output@@QEAA@XZ 000000018003ece0 f i libucrtd:output.obj
 0001:0003dd00       ??1?$positional_parameter_base@DV?$stream_output_adapter@D@__crt_stdio_output@@@__crt_stdio_output@@QEAA@XZ 000000018003ed00 f i libucrtd:output.obj
 0001:0003dd20       ??1?$positional_parameter_base@DV?$string_output_adapter@D@__crt_stdio_output@@@__crt_stdio_output@@QEAA@XZ 000000018003ed20 f i libucrtd:output.obj
 0001:0003dd40       ??1?$positional_parameter_base@_WV?$stream_output_adapter@_W@__crt_stdio_output@@@__crt_stdio_output@@QEAA@XZ 000000018003ed40 f i libucrtd:output.obj
 0001:0003dd60       ??1?$positional_parameter_base@_WV?$string_output_adapter@_W@__crt_stdio_output@@@__crt_stdio_output@@QEAA@XZ 000000018003ed60 f i libucrtd:output.obj
 0001:0003dd80       ??1?$standard_base@DV?$stream_output_adapter@D@__crt_stdio_output@@@__crt_stdio_output@@QEAA@XZ 000000018003ed80 f i libucrtd:output.obj
 0001:0003dda0       ??1?$standard_base@DV?$string_output_adapter@D@__crt_stdio_output@@@__crt_stdio_output@@QEAA@XZ 000000018003eda0 f i libucrtd:output.obj
 0001:0003ddc0       ??1?$standard_base@_WV?$stream_output_adapter@_W@__crt_stdio_output@@@__crt_stdio_output@@QEAA@XZ 000000018003edc0 f i libucrtd:output.obj
 0001:0003dde0       ??1?$standard_base@_WV?$string_output_adapter@_W@__crt_stdio_output@@@__crt_stdio_output@@QEAA@XZ 000000018003ede0 f i libucrtd:output.obj
 0001:0003de00       ??1_LocaleUpdate@@QEAA@XZ  000000018003ee00 f i libucrtd:output.obj
 0001:0003de30       ??1__acrt_stdio_temporary_buffering_guard@@QEAA@XZ 000000018003ee30 f i libucrtd:output.obj
 0001:0003de60       ??1__crt_errno_guard@@QEAA@XZ 000000018003ee60 f i libucrtd:output.obj
 0001:0003de90       ??1formatting_buffer@__crt_stdio_output@@QEAA@XZ 000000018003ee90 f i libucrtd:output.obj
 0001:0003dec0       ??4?$__crt_unique_heap_ptr@DU__crt_internal_free_policy@@@@QEAAAEAV0@$$QEAV0@@Z 000000018003eec0 f i libucrtd:output.obj
 0001:0003df00       ??A?$spectre_mitigated_lookup_table@Ustate_transition_pair@__crt_stdio_output@@$0IA@@__crt_stdio_output@@QEBAAEBUstate_transition_pair@1@_K@Z 000000018003ef00 f i libucrtd:output.obj
 0001:0003df20       ??C__crt_stdio_stream@@QEBAPEAU__crt_stdio_stream_data@@XZ 000000018003ef20 f i libucrtd:output.obj
 0001:0003e7d0       ?GetLocaleT@_LocaleUpdate@@QEAAPEAU__crt_locale_pointers@@XZ 000000018003f7d0 f i libucrtd:output.obj
 0001:0003e7e0       ?__crt_interlocked_read_32@@YAHPEDH@Z 000000018003f7e0 f i libucrtd:output.obj
 0001:0003e800       ?adjust_hexit@?$output_processor@DV?$stream_output_adapter@D@__crt_stdio_output@@V?$format_validation_base@DV?$stream_output_adapter@D@__crt_stdio_output@@@2@@__crt_stdio_output@@CADH_N@Z 000000018003f800 f i libucrtd:output.obj
 0001:0003e850       ?adjust_hexit@?$output_processor@DV?$stream_output_adapter@D@__crt_stdio_output@@V?$positional_parameter_base@DV?$stream_output_adapter@D@__crt_stdio_output@@@2@@__crt_stdio_output@@CADH_N@Z 000000018003f850 f i libucrtd:output.obj
 0001:0003e8a0       ?adjust_hexit@?$output_processor@DV?$stream_output_adapter@D@__crt_stdio_output@@V?$standard_base@DV?$stream_output_adapter@D@__crt_stdio_output@@@2@@__crt_stdio_output@@CADH_N@Z 000000018003f8a0 f i libucrtd:output.obj
 0001:0003e8f0       ?adjust_hexit@?$output_processor@DV?$string_output_adapter@D@__crt_stdio_output@@V?$format_validation_base@DV?$string_output_adapter@D@__crt_stdio_output@@@2@@__crt_stdio_output@@CADH_N@Z 000000018003f8f0 f i libucrtd:output.obj
 0001:0003e940       ?adjust_hexit@?$output_processor@DV?$string_output_adapter@D@__crt_stdio_output@@V?$positional_parameter_base@DV?$string_output_adapter@D@__crt_stdio_output@@@2@@__crt_stdio_output@@CADH_N@Z 000000018003f940 f i libucrtd:output.obj
 0001:0003e990       ?adjust_hexit@?$output_processor@DV?$string_output_adapter@D@__crt_stdio_output@@V?$standard_base@DV?$string_output_adapter@D@__crt_stdio_output@@@2@@__crt_stdio_output@@CADH_N@Z 000000018003f990 f i libucrtd:output.obj
 0001:0003e9e0       ?adjust_hexit@?$output_processor@_WV?$stream_output_adapter@_W@__crt_stdio_output@@V?$format_validation_base@_WV?$stream_output_adapter@_W@__crt_stdio_output@@@2@@__crt_stdio_output@@CADH_N@Z 000000018003f9e0 f i libucrtd:output.obj
 0001:0003ea30       ?adjust_hexit@?$output_processor@_WV?$stream_output_adapter@_W@__crt_stdio_output@@V?$positional_parameter_base@_WV?$stream_output_adapter@_W@__crt_stdio_output@@@2@@__crt_stdio_output@@CADH_N@Z 000000018003fa30 f i libucrtd:output.obj
 0001:0003ea80       ?adjust_hexit@?$output_processor@_WV?$stream_output_adapter@_W@__crt_stdio_output@@V?$standard_base@_WV?$stream_output_adapter@_W@__crt_stdio_output@@@2@@__crt_stdio_output@@CADH_N@Z 000000018003fa80 f i libucrtd:output.obj
 0001:0003ead0       ?adjust_hexit@?$output_processor@_WV?$string_output_adapter@_W@__crt_stdio_output@@V?$format_validation_base@_WV?$string_output_adapter@_W@__crt_stdio_output@@@2@@__crt_stdio_output@@CADH_N@Z 000000018003fad0 f i libucrtd:output.obj
 0001:0003eb20       ?adjust_hexit@?$output_processor@_WV?$string_output_adapter@_W@__crt_stdio_output@@V?$positional_parameter_base@_WV?$string_output_adapter@_W@__crt_stdio_output@@@2@@__crt_stdio_output@@CADH_N@Z 000000018003fb20 f i libucrtd:output.obj
 0001:0003eb70       ?adjust_hexit@?$output_processor@_WV?$string_output_adapter@_W@__crt_stdio_output@@V?$standard_base@_WV?$string_output_adapter@_W@__crt_stdio_output@@@2@@__crt_stdio_output@@CADH_N@Z 000000018003fb70 f i libucrtd:output.obj
 0001:0003ebc0       ?advance_to_next_pass@?$positional_parameter_base@DV?$stream_output_adapter@D@__crt_stdio_output@@@__crt_stdio_output@@IEAA_NXZ 000000018003fbc0 f i libucrtd:output.obj
 0001:0003ec70       ?advance_to_next_pass@?$positional_parameter_base@DV?$string_output_adapter@D@__crt_stdio_output@@@__crt_stdio_output@@IEAA_NXZ 000000018003fc70 f i libucrtd:output.obj
 0001:0003ed20       ?advance_to_next_pass@?$positional_parameter_base@_WV?$stream_output_adapter@_W@__crt_stdio_output@@@__crt_stdio_output@@IEAA_NXZ 000000018003fd20 f i libucrtd:output.obj
 0001:0003edd0       ?advance_to_next_pass@?$positional_parameter_base@_WV?$string_output_adapter@_W@__crt_stdio_output@@@__crt_stdio_output@@IEAA_NXZ 000000018003fdd0 f i libucrtd:output.obj
 0001:0003ee80       ?advance_to_next_pass@?$standard_base@DV?$stream_output_adapter@D@__crt_stdio_output@@@__crt_stdio_output@@IEAA_NXZ 000000018003fe80 f i libucrtd:output.obj
 0001:0003eed0       ?advance_to_next_pass@?$standard_base@DV?$string_output_adapter@D@__crt_stdio_output@@@__crt_stdio_output@@IEAA_NXZ 000000018003fed0 f i libucrtd:output.obj
 0001:0003ef20       ?advance_to_next_pass@?$standard_base@_WV?$stream_output_adapter@_W@__crt_stdio_output@@@__crt_stdio_output@@IEAA_NXZ 000000018003ff20 f i libucrtd:output.obj
 0001:0003ef70       ?advance_to_next_pass@?$standard_base@_WV?$string_output_adapter@_W@__crt_stdio_output@@@__crt_stdio_output@@IEAA_NXZ 000000018003ff70 f i libucrtd:output.obj
 0001:0003efc0       ?crop_zeroes@__crt_stdio_output@@YAXPEADQEAU__crt_locale_pointers@@@Z 000000018003ffc0 f i libucrtd:output.obj
 0001:0003f100       ?find_next_state@?$output_processor@DV?$stream_output_adapter@D@__crt_stdio_output@@V?$format_validation_base@DV?$stream_output_adapter@D@__crt_stdio_output@@@2@@__crt_stdio_output@@AEBA?AW4state@2@DW432@@Z 0000000180040100 f i libucrtd:output.obj
 0001:0003f190       ?find_next_state@?$output_processor@DV?$stream_output_adapter@D@__crt_stdio_output@@V?$positional_parameter_base@DV?$stream_output_adapter@D@__crt_stdio_output@@@2@@__crt_stdio_output@@AEBA?AW4state@2@DW432@@Z 0000000180040190 f i libucrtd:output.obj
 0001:0003f220       ?find_next_state@?$output_processor@DV?$stream_output_adapter@D@__crt_stdio_output@@V?$standard_base@DV?$stream_output_adapter@D@__crt_stdio_output@@@2@@__crt_stdio_output@@AEBA?AW4state@2@DW432@@Z 0000000180040220 f i libucrtd:output.obj
 0001:0003f2b0       ?find_next_state@?$output_processor@DV?$string_output_adapter@D@__crt_stdio_output@@V?$format_validation_base@DV?$string_output_adapter@D@__crt_stdio_output@@@2@@__crt_stdio_output@@AEBA?AW4state@2@DW432@@Z 00000001800402b0 f i libucrtd:output.obj
 0001:0003f340       ?find_next_state@?$output_processor@DV?$string_output_adapter@D@__crt_stdio_output@@V?$positional_parameter_base@DV?$string_output_adapter@D@__crt_stdio_output@@@2@@__crt_stdio_output@@AEBA?AW4state@2@DW432@@Z 0000000180040340 f i libucrtd:output.obj
 0001:0003f3d0       ?find_next_state@?$output_processor@DV?$string_output_adapter@D@__crt_stdio_output@@V?$standard_base@DV?$string_output_adapter@D@__crt_stdio_output@@@2@@__crt_stdio_output@@AEBA?AW4state@2@DW432@@Z 00000001800403d0 f i libucrtd:output.obj
 0001:0003f460       ?find_next_state@?$output_processor@_WV?$stream_output_adapter@_W@__crt_stdio_output@@V?$format_validation_base@_WV?$stream_output_adapter@_W@__crt_stdio_output@@@2@@__crt_stdio_output@@AEBA?AW4state@2@_WW432@@Z 0000000180040460 f i libucrtd:output.obj
 0001:0003f4f0       ?find_next_state@?$output_processor@_WV?$stream_output_adapter@_W@__crt_stdio_output@@V?$positional_parameter_base@_WV?$stream_output_adapter@_W@__crt_stdio_output@@@2@@__crt_stdio_output@@AEBA?AW4state@2@_WW432@@Z 00000001800404f0 f i libucrtd:output.obj
 0001:0003f580       ?find_next_state@?$output_processor@_WV?$stream_output_adapter@_W@__crt_stdio_output@@V?$standard_base@_WV?$stream_output_adapter@_W@__crt_stdio_output@@@2@@__crt_stdio_output@@AEBA?AW4state@2@_WW432@@Z 0000000180040580 f i libucrtd:output.obj
 0001:0003f610       ?find_next_state@?$output_processor@_WV?$string_output_adapter@_W@__crt_stdio_output@@V?$format_validation_base@_WV?$string_output_adapter@_W@__crt_stdio_output@@@2@@__crt_stdio_output@@AEBA?AW4state@2@_WW432@@Z 0000000180040610 f i libucrtd:output.obj
 0001:0003f6a0       ?find_next_state@?$output_processor@_WV?$string_output_adapter@_W@__crt_stdio_output@@V?$positional_parameter_base@_WV?$string_output_adapter@_W@__crt_stdio_output@@@2@@__crt_stdio_output@@AEBA?AW4state@2@_WW432@@Z 00000001800406a0 f i libucrtd:output.obj
 0001:0003f730       ?find_next_state@?$output_processor@_WV?$string_output_adapter@_W@__crt_stdio_output@@V?$standard_base@_WV?$string_output_adapter@_W@__crt_stdio_output@@@2@@__crt_stdio_output@@AEBA?AW4state@2@_WW432@@Z 0000000180040730 f i libucrtd:output.obj
 0001:0003f7c0       ?force_decimal_point@__crt_stdio_output@@YAXPEADQEAU__crt_locale_pointers@@@Z 00000001800407c0 f i libucrtd:output.obj
 0001:0003f8c0       ?get@__crt_deferred_errno_cache@@QEAAAEAHXZ 00000001800408c0 f i libucrtd:output.obj
 0001:0003f8f0       ?get_flags@__crt_stdio_stream@@QEBAJXZ 00000001800408f0 f i libucrtd:output.obj
 0001:0003f920       ?get_parameter_type@?$positional_parameter_base@DV?$stream_output_adapter@D@__crt_stdio_output@@@__crt_stdio_output@@CA?AW4parameter_type@12@F@Z 0000000180040920 f i libucrtd:output.obj
 0001:0003f930       ?get_parameter_type@?$positional_parameter_base@DV?$stream_output_adapter@D@__crt_stdio_output@@@__crt_stdio_output@@CA?AW4parameter_type@12@G@Z 0000000180040930 f i libucrtd:output.obj
 0001:0003f940       ?get_parameter_type@?$positional_parameter_base@DV?$stream_output_adapter@D@__crt_stdio_output@@@__crt_stdio_output@@CA?AW4parameter_type@12@H@Z 0000000180040940 f i libucrtd:output.obj
 0001:0003f950       ?get_parameter_type@?$positional_parameter_base@DV?$stream_output_adapter@D@__crt_stdio_output@@@__crt_stdio_output@@CA?AW4parameter_type@12@I@Z 0000000180040950 f i libucrtd:output.obj
 0001:0003f960       ?get_parameter_type@?$positional_parameter_base@DV?$stream_output_adapter@D@__crt_stdio_output@@@__crt_stdio_output@@CA?AW4parameter_type@12@U_CRT_DOUBLE@@@Z 0000000180040960 f i libucrtd:output.obj
 0001:0003f970       ?get_parameter_type@?$positional_parameter_base@DV?$stream_output_adapter@D@__crt_stdio_output@@@__crt_stdio_output@@CA?AW4parameter_type@12@_J@Z 0000000180040970 f i libucrtd:output.obj
 0001:0003f980       ?get_parameter_type@?$positional_parameter_base@DV?$stream_output_adapter@D@__crt_stdio_output@@@__crt_stdio_output@@CA?AW4parameter_type@12@_K@Z 0000000180040980 f i libucrtd:output.obj
 0001:0003f990       ?get_parameter_type@?$positional_parameter_base@DV?$stream_output_adapter@D@__crt_stdio_output@@@__crt_stdio_output@@CA?AW4parameter_type@12@_W@Z 0000000180040990 f i libucrtd:output.obj
 0001:0003f9a0       ?get_parameter_type@?$positional_parameter_base@DV?$string_output_adapter@D@__crt_stdio_output@@@__crt_stdio_output@@CA?AW4parameter_type@12@F@Z 00000001800409a0 f i libucrtd:output.obj
 0001:0003f9b0       ?get_parameter_type@?$positional_parameter_base@DV?$string_output_adapter@D@__crt_stdio_output@@@__crt_stdio_output@@CA?AW4parameter_type@12@G@Z 00000001800409b0 f i libucrtd:output.obj
 0001:0003f9c0       ?get_parameter_type@?$positional_parameter_base@DV?$string_output_adapter@D@__crt_stdio_output@@@__crt_stdio_output@@CA?AW4parameter_type@12@H@Z 00000001800409c0 f i libucrtd:output.obj
 0001:0003f9d0       ?get_parameter_type@?$positional_parameter_base@DV?$string_output_adapter@D@__crt_stdio_output@@@__crt_stdio_output@@CA?AW4parameter_type@12@I@Z 00000001800409d0 f i libucrtd:output.obj
 0001:0003f9e0       ?get_parameter_type@?$positional_parameter_base@DV?$string_output_adapter@D@__crt_stdio_output@@@__crt_stdio_output@@CA?AW4parameter_type@12@U_CRT_DOUBLE@@@Z 00000001800409e0 f i libucrtd:output.obj
 0001:0003f9f0       ?get_parameter_type@?$positional_parameter_base@DV?$string_output_adapter@D@__crt_stdio_output@@@__crt_stdio_output@@CA?AW4parameter_type@12@_J@Z 00000001800409f0 f i libucrtd:output.obj
 0001:0003fa00       ?get_parameter_type@?$positional_parameter_base@DV?$string_output_adapter@D@__crt_stdio_output@@@__crt_stdio_output@@CA?AW4parameter_type@12@_K@Z 0000000180040a00 f i libucrtd:output.obj
 0001:0003fa10       ?get_parameter_type@?$positional_parameter_base@DV?$string_output_adapter@D@__crt_stdio_output@@@__crt_stdio_output@@CA?AW4parameter_type@12@_W@Z 0000000180040a10 f i libucrtd:output.obj
 0001:0003fa20       ?get_parameter_type@?$positional_parameter_base@_WV?$stream_output_adapter@_W@__crt_stdio_output@@@__crt_stdio_output@@CA?AW4parameter_type@12@F@Z 0000000180040a20 f i libucrtd:output.obj
 0001:0003fa30       ?get_parameter_type@?$positional_parameter_base@_WV?$stream_output_adapter@_W@__crt_stdio_output@@@__crt_stdio_output@@CA?AW4parameter_type@12@G@Z 0000000180040a30 f i libucrtd:output.obj
 0001:0003fa40       ?get_parameter_type@?$positional_parameter_base@_WV?$stream_output_adapter@_W@__crt_stdio_output@@@__crt_stdio_output@@CA?AW4parameter_type@12@H@Z 0000000180040a40 f i libucrtd:output.obj
 0001:0003fa50       ?get_parameter_type@?$positional_parameter_base@_WV?$stream_output_adapter@_W@__crt_stdio_output@@@__crt_stdio_output@@CA?AW4parameter_type@12@I@Z 0000000180040a50 f i libucrtd:output.obj
 0001:0003fa60       ?get_parameter_type@?$positional_parameter_base@_WV?$stream_output_adapter@_W@__crt_stdio_output@@@__crt_stdio_output@@CA?AW4parameter_type@12@U_CRT_DOUBLE@@@Z 0000000180040a60 f i libucrtd:output.obj
 0001:0003fa70       ?get_parameter_type@?$positional_parameter_base@_WV?$stream_output_adapter@_W@__crt_stdio_output@@@__crt_stdio_output@@CA?AW4parameter_type@12@_J@Z 0000000180040a70 f i libucrtd:output.obj
 0001:0003fa80       ?get_parameter_type@?$positional_parameter_base@_WV?$stream_output_adapter@_W@__crt_stdio_output@@@__crt_stdio_output@@CA?AW4parameter_type@12@_K@Z 0000000180040a80 f i libucrtd:output.obj
 0001:0003fa90       ?get_parameter_type@?$positional_parameter_base@_WV?$stream_output_adapter@_W@__crt_stdio_output@@@__crt_stdio_output@@CA?AW4parameter_type@12@_W@Z 0000000180040a90 f i libucrtd:output.obj
 0001:0003faa0       ?get_parameter_type@?$positional_parameter_base@_WV?$string_output_adapter@_W@__crt_stdio_output@@@__crt_stdio_output@@CA?AW4parameter_type@12@F@Z 0000000180040aa0 f i libucrtd:output.obj
 0001:0003fab0       ?get_parameter_type@?$positional_parameter_base@_WV?$string_output_adapter@_W@__crt_stdio_output@@@__crt_stdio_output@@CA?AW4parameter_type@12@G@Z 0000000180040ab0 f i libucrtd:output.obj
 0001:0003fac0       ?get_parameter_type@?$positional_parameter_base@_WV?$string_output_adapter@_W@__crt_stdio_output@@@__crt_stdio_output@@CA?AW4parameter_type@12@H@Z 0000000180040ac0 f i libucrtd:output.obj
 0001:0003fad0       ?get_parameter_type@?$positional_parameter_base@_WV?$string_output_adapter@_W@__crt_stdio_output@@@__crt_stdio_output@@CA?AW4parameter_type@12@I@Z 0000000180040ad0 f i libucrtd:output.obj
 0001:0003fae0       ?get_parameter_type@?$positional_parameter_base@_WV?$string_output_adapter@_W@__crt_stdio_output@@@__crt_stdio_output@@CA?AW4parameter_type@12@U_CRT_DOUBLE@@@Z 0000000180040ae0 f i libucrtd:output.obj
 0001:0003faf0       ?get_parameter_type@?$positional_parameter_base@_WV?$string_output_adapter@_W@__crt_stdio_output@@@__crt_stdio_output@@CA?AW4parameter_type@12@_J@Z 0000000180040af0 f i libucrtd:output.obj
 0001:0003fb00       ?get_parameter_type@?$positional_parameter_base@_WV?$string_output_adapter@_W@__crt_stdio_output@@@__crt_stdio_output@@CA?AW4parameter_type@12@_K@Z 0000000180040b00 f i libucrtd:output.obj
 0001:0003fb10       ?get_parameter_type@?$positional_parameter_base@_WV?$string_output_adapter@_W@__crt_stdio_output@@@__crt_stdio_output@@CA?AW4parameter_type@12@_W@Z 0000000180040b10 f i libucrtd:output.obj
 0001:0003fb20       ?has_flag@?$output_processor@DV?$stream_output_adapter@D@__crt_stdio_output@@V?$format_validation_base@DV?$stream_output_adapter@D@__crt_stdio_output@@@2@@__crt_stdio_output@@AEBA_NI@Z 0000000180040b20 f i libucrtd:output.obj
 0001:0003fb60       ?has_flag@?$output_processor@DV?$stream_output_adapter@D@__crt_stdio_output@@V?$positional_parameter_base@DV?$stream_output_adapter@D@__crt_stdio_output@@@2@@__crt_stdio_output@@AEBA_NI@Z 0000000180040b60 f i libucrtd:output.obj
 0001:0003fba0       ?has_flag@?$output_processor@DV?$stream_output_adapter@D@__crt_stdio_output@@V?$standard_base@DV?$stream_output_adapter@D@__crt_stdio_output@@@2@@__crt_stdio_output@@AEBA_NI@Z 0000000180040ba0 f i libucrtd:output.obj
 0001:0003fbe0       ?has_flag@?$output_processor@DV?$string_output_adapter@D@__crt_stdio_output@@V?$format_validation_base@DV?$string_output_adapter@D@__crt_stdio_output@@@2@@__crt_stdio_output@@AEBA_NI@Z 0000000180040be0 f i libucrtd:output.obj
 0001:0003fc20       ?has_flag@?$output_processor@DV?$string_output_adapter@D@__crt_stdio_output@@V?$positional_parameter_base@DV?$string_output_adapter@D@__crt_stdio_output@@@2@@__crt_stdio_output@@AEBA_NI@Z 0000000180040c20 f i libucrtd:output.obj
 0001:0003fc60       ?has_flag@?$output_processor@DV?$string_output_adapter@D@__crt_stdio_output@@V?$standard_base@DV?$string_output_adapter@D@__crt_stdio_output@@@2@@__crt_stdio_output@@AEBA_NI@Z 0000000180040c60 f i libucrtd:output.obj
 0001:0003fca0       ?has_flag@?$output_processor@_WV?$stream_output_adapter@_W@__crt_stdio_output@@V?$format_validation_base@_WV?$stream_output_adapter@_W@__crt_stdio_output@@@2@@__crt_stdio_output@@AEBA_NI@Z 0000000180040ca0 f i libucrtd:output.obj
 0001:0003fce0       ?has_flag@?$output_processor@_WV?$stream_output_adapter@_W@__crt_stdio_output@@V?$positional_parameter_base@_WV?$stream_output_adapter@_W@__crt_stdio_output@@@2@@__crt_stdio_output@@AEBA_NI@Z 0000000180040ce0 f i libucrtd:output.obj
 0001:0003fd20       ?has_flag@?$output_processor@_WV?$stream_output_adapter@_W@__crt_stdio_output@@V?$standard_base@_WV?$stream_output_adapter@_W@__crt_stdio_output@@@2@@__crt_stdio_output@@AEBA_NI@Z 0000000180040d20 f i libucrtd:output.obj
 0001:0003fd60       ?has_flag@?$output_processor@_WV?$string_output_adapter@_W@__crt_stdio_output@@V?$format_validation_base@_WV?$string_output_adapter@_W@__crt_stdio_output@@@2@@__crt_stdio_output@@AEBA_NI@Z 0000000180040d60 f i libucrtd:output.obj
 0001:0003fda0       ?has_flag@?$output_processor@_WV?$string_output_adapter@_W@__crt_stdio_output@@V?$positional_parameter_base@_WV?$string_output_adapter@_W@__crt_stdio_output@@@2@@__crt_stdio_output@@AEBA_NI@Z 0000000180040da0 f i libucrtd:output.obj
 0001:0003fde0       ?has_flag@?$output_processor@_WV?$string_output_adapter@_W@__crt_stdio_output@@V?$standard_base@_WV?$string_output_adapter@_W@__crt_stdio_output@@@2@@__crt_stdio_output@@AEBA_NI@Z 0000000180040de0 f i libucrtd:output.obj
 0001:0003fe20       ?is_positional_parameter_reappearance_consistent@?$positional_parameter_base@DV?$stream_output_adapter@D@__crt_stdio_output@@@__crt_stdio_output@@AEAA_NAEBUparameter_data@12@W4parameter_type@12@DW4length_modifier@2@@Z 0000000180040e20 f i libucrtd:output.obj
 0001:00040080       ?is_positional_parameter_reappearance_consistent@?$positional_parameter_base@DV?$string_output_adapter@D@__crt_stdio_output@@@__crt_stdio_output@@AEAA_NAEBUparameter_data@12@W4parameter_type@12@DW4length_modifier@2@@Z 0000000180041080 f i libucrtd:output.obj
 0001:000402e0       ?is_positional_parameter_reappearance_consistent@?$positional_parameter_base@_WV?$stream_output_adapter@_W@__crt_stdio_output@@@__crt_stdio_output@@AEAA_NAEBUparameter_data@12@W4parameter_type@12@_WW4length_modifier@2@@Z 00000001800412e0 f i libucrtd:output.obj
 0001:00040540       ?is_positional_parameter_reappearance_consistent@?$positional_parameter_base@_WV?$string_output_adapter@_W@__crt_stdio_output@@@__crt_stdio_output@@AEAA_NAEBUparameter_data@12@W4parameter_type@12@_WW4length_modifier@2@@Z 0000000180041540 f i libucrtd:output.obj
 0001:000407a0       ?is_string_backed@__crt_stdio_stream@@QEBA_NXZ 00000001800417a0 f i libucrtd:output.obj
 0001:000407e0       ?narrow_null_string@?$output_processor@DV?$stream_output_adapter@D@__crt_stdio_output@@V?$format_validation_base@DV?$stream_output_adapter@D@__crt_stdio_output@@@2@@__crt_stdio_output@@CAPEADXZ 00000001800417e0 f i libucrtd:output.obj
 0001:000407f0       ?narrow_null_string@?$output_processor@DV?$stream_output_adapter@D@__crt_stdio_output@@V?$positional_parameter_base@DV?$stream_output_adapter@D@__crt_stdio_output@@@2@@__crt_stdio_output@@CAPEADXZ 00000001800417f0 f i libucrtd:output.obj
 0001:00040800       ?narrow_null_string@?$output_processor@DV?$stream_output_adapter@D@__crt_stdio_output@@V?$standard_base@DV?$stream_output_adapter@D@__crt_stdio_output@@@2@@__crt_stdio_output@@CAPEADXZ 0000000180041800 f i libucrtd:output.obj
 0001:00040810       ?narrow_null_string@?$output_processor@DV?$string_output_adapter@D@__crt_stdio_output@@V?$format_validation_base@DV?$string_output_adapter@D@__crt_stdio_output@@@2@@__crt_stdio_output@@CAPEADXZ 0000000180041810 f i libucrtd:output.obj
 0001:00040820       ?narrow_null_string@?$output_processor@DV?$string_output_adapter@D@__crt_stdio_output@@V?$positional_parameter_base@DV?$string_output_adapter@D@__crt_stdio_output@@@2@@__crt_stdio_output@@CAPEADXZ 0000000180041820 f i libucrtd:output.obj
 0001:00040830       ?narrow_null_string@?$output_processor@DV?$string_output_adapter@D@__crt_stdio_output@@V?$standard_base@DV?$string_output_adapter@D@__crt_stdio_output@@@2@@__crt_stdio_output@@CAPEADXZ 0000000180041830 f i libucrtd:output.obj
 0001:00040840       ?narrow_null_string@?$output_processor@_WV?$stream_output_adapter@_W@__crt_stdio_output@@V?$format_validation_base@_WV?$stream_output_adapter@_W@__crt_stdio_output@@@2@@__crt_stdio_output@@CAPEADXZ 0000000180041840 f i libucrtd:output.obj
 0001:00040850       ?narrow_null_string@?$output_processor@_WV?$stream_output_adapter@_W@__crt_stdio_output@@V?$positional_parameter_base@_WV?$stream_output_adapter@_W@__crt_stdio_output@@@2@@__crt_stdio_output@@CAPEADXZ 0000000180041850 f i libucrtd:output.obj
 0001:00040860       ?narrow_null_string@?$output_processor@_WV?$stream_output_adapter@_W@__crt_stdio_output@@V?$standard_base@_WV?$stream_output_adapter@_W@__crt_stdio_output@@@2@@__crt_stdio_output@@CAPEADXZ 0000000180041860 f i libucrtd:output.obj
 0001:00040870       ?narrow_null_string@?$output_processor@_WV?$string_output_adapter@_W@__crt_stdio_output@@V?$format_validation_base@_WV?$string_output_adapter@_W@__crt_stdio_output@@@2@@__crt_stdio_output@@CAPEADXZ 0000000180041870 f i libucrtd:output.obj
 0001:00040880       ?narrow_null_string@?$output_processor@_WV?$string_output_adapter@_W@__crt_stdio_output@@V?$positional_parameter_base@_WV?$string_output_adapter@_W@__crt_stdio_output@@@2@@__crt_stdio_output@@CAPEADXZ 0000000180041880 f i libucrtd:output.obj
 0001:00040890       ?narrow_null_string@?$output_processor@_WV?$string_output_adapter@_W@__crt_stdio_output@@V?$standard_base@_WV?$string_output_adapter@_W@__crt_stdio_output@@@2@@__crt_stdio_output@@CAPEADXZ 0000000180041890 f i libucrtd:output.obj
 0001:000408a0       ?parse_int_from_format_string@?$output_processor@DV?$stream_output_adapter@D@__crt_stdio_output@@V?$format_validation_base@DV?$stream_output_adapter@D@__crt_stdio_output@@@2@@__crt_stdio_output@@AEAA_NQEAH@Z 00000001800418a0 f i libucrtd:output.obj
 0001:00040990       ?parse_int_from_format_string@?$output_processor@DV?$stream_output_adapter@D@__crt_stdio_output@@V?$positional_parameter_base@DV?$stream_output_adapter@D@__crt_stdio_output@@@2@@__crt_stdio_output@@AEAA_NQEAH@Z 0000000180041990 f i libucrtd:output.obj
 0001:00040a80       ?parse_int_from_format_string@?$output_processor@DV?$stream_output_adapter@D@__crt_stdio_output@@V?$standard_base@DV?$stream_output_adapter@D@__crt_stdio_output@@@2@@__crt_stdio_output@@AEAA_NQEAH@Z 0000000180041a80 f i libucrtd:output.obj
 0001:00040b70       ?parse_int_from_format_string@?$output_processor@DV?$string_output_adapter@D@__crt_stdio_output@@V?$format_validation_base@DV?$string_output_adapter@D@__crt_stdio_output@@@2@@__crt_stdio_output@@AEAA_NQEAH@Z 0000000180041b70 f i libucrtd:output.obj
 0001:00040c60       ?parse_int_from_format_string@?$output_processor@DV?$string_output_adapter@D@__crt_stdio_output@@V?$positional_parameter_base@DV?$string_output_adapter@D@__crt_stdio_output@@@2@@__crt_stdio_output@@AEAA_NQEAH@Z 0000000180041c60 f i libucrtd:output.obj
 0001:00040d50       ?parse_int_from_format_string@?$output_processor@DV?$string_output_adapter@D@__crt_stdio_output@@V?$standard_base@DV?$string_output_adapter@D@__crt_stdio_output@@@2@@__crt_stdio_output@@AEAA_NQEAH@Z 0000000180041d50 f i libucrtd:output.obj
 0001:00040e40       ?parse_int_from_format_string@?$output_processor@_WV?$stream_output_adapter@_W@__crt_stdio_output@@V?$format_validation_base@_WV?$stream_output_adapter@_W@__crt_stdio_output@@@2@@__crt_stdio_output@@AEAA_NQEAH@Z 0000000180041e40 f i libucrtd:output.obj
 0001:00040f30       ?parse_int_from_format_string@?$output_processor@_WV?$stream_output_adapter@_W@__crt_stdio_output@@V?$positional_parameter_base@_WV?$stream_output_adapter@_W@__crt_stdio_output@@@2@@__crt_stdio_output@@AEAA_NQEAH@Z 0000000180041f30 f i libucrtd:output.obj
 0001:00041020       ?parse_int_from_format_string@?$output_processor@_WV?$stream_output_adapter@_W@__crt_stdio_output@@V?$standard_base@_WV?$stream_output_adapter@_W@__crt_stdio_output@@@2@@__crt_stdio_output@@AEAA_NQEAH@Z 0000000180042020 f i libucrtd:output.obj
 0001:00041110       ?parse_int_from_format_string@?$output_processor@_WV?$string_output_adapter@_W@__crt_stdio_output@@V?$format_validation_base@_WV?$string_output_adapter@_W@__crt_stdio_output@@@2@@__crt_stdio_output@@AEAA_NQEAH@Z 0000000180042110 f i libucrtd:output.obj
 0001:00041200       ?parse_int_from_format_string@?$output_processor@_WV?$string_output_adapter@_W@__crt_stdio_output@@V?$positional_parameter_base@_WV?$string_output_adapter@_W@__crt_stdio_output@@@2@@__crt_stdio_output@@AEAA_NQEAH@Z 0000000180042200 f i libucrtd:output.obj
 0001:000412f0       ?parse_int_from_format_string@?$output_processor@_WV?$string_output_adapter@_W@__crt_stdio_output@@V?$standard_base@_WV?$string_output_adapter@_W@__crt_stdio_output@@@2@@__crt_stdio_output@@AEAA_NQEAH@Z 00000001800422f0 f i libucrtd:output.obj
 0001:000413e0       ?process@?$output_processor@DV?$stream_output_adapter@D@__crt_stdio_output@@V?$format_validation_base@DV?$stream_output_adapter@D@__crt_stdio_output@@@2@@__crt_stdio_output@@QEAAHXZ 00000001800423e0 f i libucrtd:output.obj
 0001:00041740       ?process@?$output_processor@DV?$stream_output_adapter@D@__crt_stdio_output@@V?$positional_parameter_base@DV?$stream_output_adapter@D@__crt_stdio_output@@@2@@__crt_stdio_output@@QEAAHXZ 0000000180042740 f i libucrtd:output.obj
 0001:00041aa0       ?process@?$output_processor@DV?$stream_output_adapter@D@__crt_stdio_output@@V?$standard_base@DV?$stream_output_adapter@D@__crt_stdio_output@@@2@@__crt_stdio_output@@QEAAHXZ 0000000180042aa0 f i libucrtd:output.obj
 0001:00041e00       ?process@?$output_processor@DV?$string_output_adapter@D@__crt_stdio_output@@V?$format_validation_base@DV?$string_output_adapter@D@__crt_stdio_output@@@2@@__crt_stdio_output@@QEAAHXZ 0000000180042e00 f i libucrtd:output.obj
 0001:00042160       ?process@?$output_processor@DV?$string_output_adapter@D@__crt_stdio_output@@V?$positional_parameter_base@DV?$string_output_adapter@D@__crt_stdio_output@@@2@@__crt_stdio_output@@QEAAHXZ 0000000180043160 f i libucrtd:output.obj
 0001:000424c0       ?process@?$output_processor@DV?$string_output_adapter@D@__crt_stdio_output@@V?$standard_base@DV?$string_output_adapter@D@__crt_stdio_output@@@2@@__crt_stdio_output@@QEAAHXZ 00000001800434c0 f i libucrtd:output.obj
 0001:00042820       ?process@?$output_processor@_WV?$stream_output_adapter@_W@__crt_stdio_output@@V?$format_validation_base@_WV?$stream_output_adapter@_W@__crt_stdio_output@@@2@@__crt_stdio_output@@QEAAHXZ 0000000180043820 f i libucrtd:output.obj
 0001:00042b80       ?process@?$output_processor@_WV?$stream_output_adapter@_W@__crt_stdio_output@@V?$positional_parameter_base@_WV?$stream_output_adapter@_W@__crt_stdio_output@@@2@@__crt_stdio_output@@QEAAHXZ 0000000180043b80 f i libucrtd:output.obj
 0001:00042ee0       ?process@?$output_processor@_WV?$stream_output_adapter@_W@__crt_stdio_output@@V?$standard_base@_WV?$stream_output_adapter@_W@__crt_stdio_output@@@2@@__crt_stdio_output@@QEAAHXZ 0000000180043ee0 f i libucrtd:output.obj
 0001:00043240       ?process@?$output_processor@_WV?$string_output_adapter@_W@__crt_stdio_output@@V?$format_validation_base@_WV?$string_output_adapter@_W@__crt_stdio_output@@@2@@__crt_stdio_output@@QEAAHXZ 0000000180044240 f i libucrtd:output.obj
 0001:000435a0       ?process@?$output_processor@_WV?$string_output_adapter@_W@__crt_stdio_output@@V?$positional_parameter_base@_WV?$string_output_adapter@_W@__crt_stdio_output@@@2@@__crt_stdio_output@@QEAAHXZ 00000001800445a0 f i libucrtd:output.obj
 0001:00043900       ?process@?$output_processor@_WV?$string_output_adapter@_W@__crt_stdio_output@@V?$standard_base@_WV?$string_output_adapter@_W@__crt_stdio_output@@@2@@__crt_stdio_output@@QEAAHXZ 0000000180044900 f i libucrtd:output.obj
 0001:00043c60       ?public_stream@__crt_stdio_stream@@QEBAPEAU_iobuf@@XZ 0000000180044c60 f i libucrtd:output.obj
 0001:00043c70       ?set_flag@?$output_processor@DV?$stream_output_adapter@D@__crt_stdio_output@@V?$format_validation_base@DV?$stream_output_adapter@D@__crt_stdio_output@@@2@@__crt_stdio_output@@AEAAXI@Z 0000000180044c70 f i libucrtd:output.obj
 0001:00043c90       ?set_flag@?$output_processor@DV?$stream_output_adapter@D@__crt_stdio_output@@V?$positional_parameter_base@DV?$stream_output_adapter@D@__crt_stdio_output@@@2@@__crt_stdio_output@@AEAAXI@Z 0000000180044c90 f i libucrtd:output.obj
 0001:00043cb0       ?set_flag@?$output_processor@DV?$stream_output_adapter@D@__crt_stdio_output@@V?$standard_base@DV?$stream_output_adapter@D@__crt_stdio_output@@@2@@__crt_stdio_output@@AEAAXI@Z 0000000180044cb0 f i libucrtd:output.obj
 0001:00043cd0       ?set_flag@?$output_processor@DV?$string_output_adapter@D@__crt_stdio_output@@V?$format_validation_base@DV?$string_output_adapter@D@__crt_stdio_output@@@2@@__crt_stdio_output@@AEAAXI@Z 0000000180044cd0 f i libucrtd:output.obj
 0001:00043cf0       ?set_flag@?$output_processor@DV?$string_output_adapter@D@__crt_stdio_output@@V?$positional_parameter_base@DV?$string_output_adapter@D@__crt_stdio_output@@@2@@__crt_stdio_output@@AEAAXI@Z 0000000180044cf0 f i libucrtd:output.obj
 0001:00043d10       ?set_flag@?$output_processor@DV?$string_output_adapter@D@__crt_stdio_output@@V?$standard_base@DV?$string_output_adapter@D@__crt_stdio_output@@@2@@__crt_stdio_output@@AEAAXI@Z 0000000180044d10 f i libucrtd:output.obj
 0001:00043d30       ?set_flag@?$output_processor@_WV?$stream_output_adapter@_W@__crt_stdio_output@@V?$format_validation_base@_WV?$stream_output_adapter@_W@__crt_stdio_output@@@2@@__crt_stdio_output@@AEAAXI@Z 0000000180044d30 f i libucrtd:output.obj
 0001:00043d50       ?set_flag@?$output_processor@_WV?$stream_output_adapter@_W@__crt_stdio_output@@V?$positional_parameter_base@_WV?$stream_output_adapter@_W@__crt_stdio_output@@@2@@__crt_stdio_output@@AEAAXI@Z 0000000180044d50 f i libucrtd:output.obj
 0001:00043d70       ?set_flag@?$output_processor@_WV?$stream_output_adapter@_W@__crt_stdio_output@@V?$standard_base@_WV?$stream_output_adapter@_W@__crt_stdio_output@@@2@@__crt_stdio_output@@AEAAXI@Z 0000000180044d70 f i libucrtd:output.obj
 0001:00043d90       ?set_flag@?$output_processor@_WV?$string_output_adapter@_W@__crt_stdio_output@@V?$format_validation_base@_WV?$string_output_adapter@_W@__crt_stdio_output@@@2@@__crt_stdio_output@@AEAAXI@Z 0000000180044d90 f i libucrtd:output.obj
 0001:00043db0       ?set_flag@?$output_processor@_WV?$string_output_adapter@_W@__crt_stdio_output@@V?$positional_parameter_base@_WV?$string_output_adapter@_W@__crt_stdio_output@@@2@@__crt_stdio_output@@AEAAXI@Z 0000000180044db0 f i libucrtd:output.obj
 0001:00043dd0       ?set_flag@?$output_processor@_WV?$string_output_adapter@_W@__crt_stdio_output@@V?$standard_base@_WV?$string_output_adapter@_W@__crt_stdio_output@@@2@@__crt_stdio_output@@AEAAXI@Z 0000000180044dd0 f i libucrtd:output.obj
 0001:00043df0       ?should_format@?$positional_parameter_base@DV?$stream_output_adapter@D@__crt_stdio_output@@@__crt_stdio_output@@IEAA_NXZ 0000000180044df0 f i libucrtd:output.obj
 0001:00043e30       ?should_format@?$positional_parameter_base@DV?$string_output_adapter@D@__crt_stdio_output@@@__crt_stdio_output@@IEAA_NXZ 0000000180044e30 f i libucrtd:output.obj
 0001:00043e70       ?should_format@?$positional_parameter_base@_WV?$stream_output_adapter@_W@__crt_stdio_output@@@__crt_stdio_output@@IEAA_NXZ 0000000180044e70 f i libucrtd:output.obj
 0001:00043eb0       ?should_format@?$positional_parameter_base@_WV?$string_output_adapter@_W@__crt_stdio_output@@@__crt_stdio_output@@IEAA_NXZ 0000000180044eb0 f i libucrtd:output.obj
 0001:00043ef0       ?should_format@?$standard_base@DV?$stream_output_adapter@D@__crt_stdio_output@@@__crt_stdio_output@@IEAA_NXZ 0000000180044ef0 f i libucrtd:output.obj
 0001:00043f00       ?should_format@?$standard_base@DV?$string_output_adapter@D@__crt_stdio_output@@@__crt_stdio_output@@IEAA_NXZ 0000000180044f00 f i libucrtd:output.obj
 0001:00043f10       ?should_format@?$standard_base@_WV?$stream_output_adapter@_W@__crt_stdio_output@@@__crt_stdio_output@@IEAA_NXZ 0000000180044f10 f i libucrtd:output.obj
 0001:00043f20       ?should_format@?$standard_base@_WV?$string_output_adapter@_W@__crt_stdio_output@@@__crt_stdio_output@@IEAA_NXZ 0000000180044f20 f i libucrtd:output.obj
 0001:00043f30       ?should_skip_normal_state_processing@?$positional_parameter_base@DV?$stream_output_adapter@D@__crt_stdio_output@@@__crt_stdio_output@@IEAA_NXZ 0000000180044f30 f i libucrtd:output.obj
 0001:00043f80       ?should_skip_normal_state_processing@?$positional_parameter_base@DV?$string_output_adapter@D@__crt_stdio_output@@@__crt_stdio_output@@IEAA_NXZ 0000000180044f80 f i libucrtd:output.obj
 0001:00043fd0       ?should_skip_normal_state_processing@?$positional_parameter_base@_WV?$stream_output_adapter@_W@__crt_stdio_output@@@__crt_stdio_output@@IEAA_NXZ 0000000180044fd0 f i libucrtd:output.obj
 0001:00044020       ?should_skip_normal_state_processing@?$positional_parameter_base@_WV?$string_output_adapter@_W@__crt_stdio_output@@@__crt_stdio_output@@IEAA_NXZ 0000000180045020 f i libucrtd:output.obj
 0001:00044070       ?should_skip_normal_state_processing@?$standard_base@DV?$stream_output_adapter@D@__crt_stdio_output@@@__crt_stdio_output@@IEAA_NXZ 0000000180045070 f i libucrtd:output.obj
 0001:00044080       ?should_skip_normal_state_processing@?$standard_base@DV?$string_output_adapter@D@__crt_stdio_output@@@__crt_stdio_output@@IEAA_NXZ 0000000180045080 f i libucrtd:output.obj
 0001:00044090       ?should_skip_normal_state_processing@?$standard_base@_WV?$stream_output_adapter@_W@__crt_stdio_output@@@__crt_stdio_output@@IEAA_NXZ 0000000180045090 f i libucrtd:output.obj
 0001:000440a0       ?should_skip_normal_state_processing@?$standard_base@_WV?$string_output_adapter@_W@__crt_stdio_output@@@__crt_stdio_output@@IEAA_NXZ 00000001800450a0 f i libucrtd:output.obj
 0001:000440b0       ?should_skip_type_state_output@?$positional_parameter_base@DV?$stream_output_adapter@D@__crt_stdio_output@@@__crt_stdio_output@@IEBA_NXZ 00000001800450b0 f i libucrtd:output.obj
 0001:000440f0       ?should_skip_type_state_output@?$positional_parameter_base@DV?$string_output_adapter@D@__crt_stdio_output@@@__crt_stdio_output@@IEBA_NXZ 00000001800450f0 f i libucrtd:output.obj
 0001:00044130       ?should_skip_type_state_output@?$positional_parameter_base@_WV?$stream_output_adapter@_W@__crt_stdio_output@@@__crt_stdio_output@@IEBA_NXZ 0000000180045130 f i libucrtd:output.obj
 0001:00044170       ?should_skip_type_state_output@?$positional_parameter_base@_WV?$string_output_adapter@_W@__crt_stdio_output@@@__crt_stdio_output@@IEBA_NXZ 0000000180045170 f i libucrtd:output.obj
 0001:000441b0       ?should_skip_type_state_output@?$standard_base@DV?$stream_output_adapter@D@__crt_stdio_output@@@__crt_stdio_output@@IEBA_NXZ 00000001800451b0 f i libucrtd:output.obj
 0001:000441c0       ?should_skip_type_state_output@?$standard_base@DV?$string_output_adapter@D@__crt_stdio_output@@@__crt_stdio_output@@IEBA_NXZ 00000001800451c0 f i libucrtd:output.obj
 0001:000441d0       ?should_skip_type_state_output@?$standard_base@_WV?$stream_output_adapter@_W@__crt_stdio_output@@@__crt_stdio_output@@IEBA_NXZ 00000001800451d0 f i libucrtd:output.obj
 0001:000441e0       ?should_skip_type_state_output@?$standard_base@_WV?$string_output_adapter@_W@__crt_stdio_output@@@__crt_stdio_output@@IEBA_NXZ 00000001800451e0 f i libucrtd:output.obj
 0001:000441f0       ?state_case_dot@?$output_processor@DV?$stream_output_adapter@D@__crt_stdio_output@@V?$format_validation_base@DV?$stream_output_adapter@D@__crt_stdio_output@@@2@@__crt_stdio_output@@AEAA_NXZ 00000001800451f0 f i libucrtd:output.obj
 0001:00044210       ?state_case_dot@?$output_processor@DV?$stream_output_adapter@D@__crt_stdio_output@@V?$positional_parameter_base@DV?$stream_output_adapter@D@__crt_stdio_output@@@2@@__crt_stdio_output@@AEAA_NXZ 0000000180045210 f i libucrtd:output.obj
 0001:00044230       ?state_case_dot@?$output_processor@DV?$stream_output_adapter@D@__crt_stdio_output@@V?$standard_base@DV?$stream_output_adapter@D@__crt_stdio_output@@@2@@__crt_stdio_output@@AEAA_NXZ 0000000180045230 f i libucrtd:output.obj
 0001:00044250       ?state_case_dot@?$output_processor@DV?$string_output_adapter@D@__crt_stdio_output@@V?$format_validation_base@DV?$string_output_adapter@D@__crt_stdio_output@@@2@@__crt_stdio_output@@AEAA_NXZ 0000000180045250 f i libucrtd:output.obj
 0001:00044270       ?state_case_dot@?$output_processor@DV?$string_output_adapter@D@__crt_stdio_output@@V?$positional_parameter_base@DV?$string_output_adapter@D@__crt_stdio_output@@@2@@__crt_stdio_output@@AEAA_NXZ 0000000180045270 f i libucrtd:output.obj
 0001:00044290       ?state_case_dot@?$output_processor@DV?$string_output_adapter@D@__crt_stdio_output@@V?$standard_base@DV?$string_output_adapter@D@__crt_stdio_output@@@2@@__crt_stdio_output@@AEAA_NXZ 0000000180045290 f i libucrtd:output.obj
 0001:000442b0       ?state_case_dot@?$output_processor@_WV?$stream_output_adapter@_W@__crt_stdio_output@@V?$format_validation_base@_WV?$stream_output_adapter@_W@__crt_stdio_output@@@2@@__crt_stdio_output@@AEAA_NXZ 00000001800452b0 f i libucrtd:output.obj
 0001:000442d0       ?state_case_dot@?$output_processor@_WV?$stream_output_adapter@_W@__crt_stdio_output@@V?$positional_parameter_base@_WV?$stream_output_adapter@_W@__crt_stdio_output@@@2@@__crt_stdio_output@@AEAA_NXZ 00000001800452d0 f i libucrtd:output.obj
 0001:000442f0       ?state_case_dot@?$output_processor@_WV?$stream_output_adapter@_W@__crt_stdio_output@@V?$standard_base@_WV?$stream_output_adapter@_W@__crt_stdio_output@@@2@@__crt_stdio_output@@AEAA_NXZ 00000001800452f0 f i libucrtd:output.obj
 0001:00044310       ?state_case_dot@?$output_processor@_WV?$string_output_adapter@_W@__crt_stdio_output@@V?$format_validation_base@_WV?$string_output_adapter@_W@__crt_stdio_output@@@2@@__crt_stdio_output@@AEAA_NXZ 0000000180045310 f i libucrtd:output.obj
 0001:00044330       ?state_case_dot@?$output_processor@_WV?$string_output_adapter@_W@__crt_stdio_output@@V?$positional_parameter_base@_WV?$string_output_adapter@_W@__crt_stdio_output@@@2@@__crt_stdio_output@@AEAA_NXZ 0000000180045330 f i libucrtd:output.obj
 0001:00044350       ?state_case_dot@?$output_processor@_WV?$string_output_adapter@_W@__crt_stdio_output@@V?$standard_base@_WV?$string_output_adapter@_W@__crt_stdio_output@@@2@@__crt_stdio_output@@AEAA_NXZ 0000000180045350 f i libucrtd:output.obj
 0001:00044370       ?state_case_flag@?$output_processor@DV?$stream_output_adapter@D@__crt_stdio_output@@V?$format_validation_base@DV?$stream_output_adapter@D@__crt_stdio_output@@@2@@__crt_stdio_output@@AEAA_NXZ 0000000180045370 f i libucrtd:output.obj
 0001:00044410       ?state_case_flag@?$output_processor@DV?$stream_output_adapter@D@__crt_stdio_output@@V?$positional_parameter_base@DV?$stream_output_adapter@D@__crt_stdio_output@@@2@@__crt_stdio_output@@AEAA_NXZ 0000000180045410 f i libucrtd:output.obj
 0001:000444b0       ?state_case_flag@?$output_processor@DV?$stream_output_adapter@D@__crt_stdio_output@@V?$standard_base@DV?$stream_output_adapter@D@__crt_stdio_output@@@2@@__crt_stdio_output@@AEAA_NXZ 00000001800454b0 f i libucrtd:output.obj
 0001:00044550       ?state_case_flag@?$output_processor@DV?$string_output_adapter@D@__crt_stdio_output@@V?$format_validation_base@DV?$string_output_adapter@D@__crt_stdio_output@@@2@@__crt_stdio_output@@AEAA_NXZ 0000000180045550 f i libucrtd:output.obj
 0001:000445f0       ?state_case_flag@?$output_processor@DV?$string_output_adapter@D@__crt_stdio_output@@V?$positional_parameter_base@DV?$string_output_adapter@D@__crt_stdio_output@@@2@@__crt_stdio_output@@AEAA_NXZ 00000001800455f0 f i libucrtd:output.obj
 0001:00044690       ?state_case_flag@?$output_processor@DV?$string_output_adapter@D@__crt_stdio_output@@V?$standard_base@DV?$string_output_adapter@D@__crt_stdio_output@@@2@@__crt_stdio_output@@AEAA_NXZ 0000000180045690 f i libucrtd:output.obj
 0001:00044730       ?state_case_flag@?$output_processor@_WV?$stream_output_adapter@_W@__crt_stdio_output@@V?$format_validation_base@_WV?$stream_output_adapter@_W@__crt_stdio_output@@@2@@__crt_stdio_output@@AEAA_NXZ 0000000180045730 f i libucrtd:output.obj
 0001:000447d0       ?state_case_flag@?$output_processor@_WV?$stream_output_adapter@_W@__crt_stdio_output@@V?$positional_parameter_base@_WV?$stream_output_adapter@_W@__crt_stdio_output@@@2@@__crt_stdio_output@@AEAA_NXZ 00000001800457d0 f i libucrtd:output.obj
 0001:00044870       ?state_case_flag@?$output_processor@_WV?$stream_output_adapter@_W@__crt_stdio_output@@V?$standard_base@_WV?$stream_output_adapter@_W@__crt_stdio_output@@@2@@__crt_stdio_output@@AEAA_NXZ 0000000180045870 f i libucrtd:output.obj
 0001:00044910       ?state_case_flag@?$output_processor@_WV?$string_output_adapter@_W@__crt_stdio_output@@V?$format_validation_base@_WV?$string_output_adapter@_W@__crt_stdio_output@@@2@@__crt_stdio_output@@AEAA_NXZ 0000000180045910 f i libucrtd:output.obj
 0001:000449b0       ?state_case_flag@?$output_processor@_WV?$string_output_adapter@_W@__crt_stdio_output@@V?$positional_parameter_base@_WV?$string_output_adapter@_W@__crt_stdio_output@@@2@@__crt_stdio_output@@AEAA_NXZ 00000001800459b0 f i libucrtd:output.obj
 0001:00044a50       ?state_case_flag@?$output_processor@_WV?$string_output_adapter@_W@__crt_stdio_output@@V?$standard_base@_WV?$string_output_adapter@_W@__crt_stdio_output@@@2@@__crt_stdio_output@@AEAA_NXZ 0000000180045a50 f i libucrtd:output.obj
 0001:00044af0       ?state_case_normal@?$output_processor@DV?$stream_output_adapter@D@__crt_stdio_output@@V?$format_validation_base@DV?$stream_output_adapter@D@__crt_stdio_output@@@2@@__crt_stdio_output@@AEAA_NXZ 0000000180045af0 f i libucrtd:output.obj
 0001:00044bd0       ?state_case_normal@?$output_processor@DV?$stream_output_adapter@D@__crt_stdio_output@@V?$positional_parameter_base@DV?$stream_output_adapter@D@__crt_stdio_output@@@2@@__crt_stdio_output@@AEAA_NXZ 0000000180045bd0 f i libucrtd:output.obj
 0001:00044cb0       ?state_case_normal@?$output_processor@DV?$stream_output_adapter@D@__crt_stdio_output@@V?$standard_base@DV?$stream_output_adapter@D@__crt_stdio_output@@@2@@__crt_stdio_output@@AEAA_NXZ 0000000180045cb0 f i libucrtd:output.obj
 0001:00044d90       ?state_case_normal@?$output_processor@DV?$string_output_adapter@D@__crt_stdio_output@@V?$format_validation_base@DV?$string_output_adapter@D@__crt_stdio_output@@@2@@__crt_stdio_output@@AEAA_NXZ 0000000180045d90 f i libucrtd:output.obj
 0001:00044e70       ?state_case_normal@?$output_processor@DV?$string_output_adapter@D@__crt_stdio_output@@V?$positional_parameter_base@DV?$string_output_adapter@D@__crt_stdio_output@@@2@@__crt_stdio_output@@AEAA_NXZ 0000000180045e70 f i libucrtd:output.obj
 0001:00044f50       ?state_case_normal@?$output_processor@DV?$string_output_adapter@D@__crt_stdio_output@@V?$standard_base@DV?$string_output_adapter@D@__crt_stdio_output@@@2@@__crt_stdio_output@@AEAA_NXZ 0000000180045f50 f i libucrtd:output.obj
 0001:00045030       ?state_case_normal@?$output_processor@_WV?$stream_output_adapter@_W@__crt_stdio_output@@V?$format_validation_base@_WV?$stream_output_adapter@_W@__crt_stdio_output@@@2@@__crt_stdio_output@@AEAA_NXZ 0000000180046030 f i libucrtd:output.obj
 0001:00045110       ?state_case_normal@?$output_processor@_WV?$stream_output_adapter@_W@__crt_stdio_output@@V?$positional_parameter_base@_WV?$stream_output_adapter@_W@__crt_stdio_output@@@2@@__crt_stdio_output@@AEAA_NXZ 0000000180046110 f i libucrtd:output.obj
 0001:000451f0       ?state_case_normal@?$output_processor@_WV?$stream_output_adapter@_W@__crt_stdio_output@@V?$standard_base@_WV?$stream_output_adapter@_W@__crt_stdio_output@@@2@@__crt_stdio_output@@AEAA_NXZ 00000001800461f0 f i libucrtd:output.obj
 0001:000452d0       ?state_case_normal@?$output_processor@_WV?$string_output_adapter@_W@__crt_stdio_output@@V?$format_validation_base@_WV?$string_output_adapter@_W@__crt_stdio_output@@@2@@__crt_stdio_output@@AEAA_NXZ 00000001800462d0 f i libucrtd:output.obj
 0001:000453b0       ?state_case_normal@?$output_processor@_WV?$string_output_adapter@_W@__crt_stdio_output@@V?$positional_parameter_base@_WV?$string_output_adapter@_W@__crt_stdio_output@@@2@@__crt_stdio_output@@AEAA_NXZ 00000001800463b0 f i libucrtd:output.obj
 0001:00045490       ?state_case_normal@?$output_processor@_WV?$string_output_adapter@_W@__crt_stdio_output@@V?$standard_base@_WV?$string_output_adapter@_W@__crt_stdio_output@@@2@@__crt_stdio_output@@AEAA_NXZ 0000000180046490 f i libucrtd:output.obj
 0001:00045570       ?state_case_normal_common@?$output_processor@DV?$stream_output_adapter@D@__crt_stdio_output@@V?$format_validation_base@DV?$stream_output_adapter@D@__crt_stdio_output@@@2@@__crt_stdio_output@@AEAA_NXZ 0000000180046570 f i libucrtd:output.obj
 0001:000455c0       ?state_case_normal_common@?$output_processor@DV?$stream_output_adapter@D@__crt_stdio_output@@V?$positional_parameter_base@DV?$stream_output_adapter@D@__crt_stdio_output@@@2@@__crt_stdio_output@@AEAA_NXZ 00000001800465c0 f i libucrtd:output.obj
 0001:00045610       ?state_case_normal_common@?$output_processor@DV?$stream_output_adapter@D@__crt_stdio_output@@V?$standard_base@DV?$stream_output_adapter@D@__crt_stdio_output@@@2@@__crt_stdio_output@@AEAA_NXZ 0000000180046610 f i libucrtd:output.obj
 0001:00045660       ?state_case_normal_common@?$output_processor@DV?$string_output_adapter@D@__crt_stdio_output@@V?$format_validation_base@DV?$string_output_adapter@D@__crt_stdio_output@@@2@@__crt_stdio_output@@AEAA_NXZ 0000000180046660 f i libucrtd:output.obj
 0001:000456b0       ?state_case_normal_common@?$output_processor@DV?$string_output_adapter@D@__crt_stdio_output@@V?$positional_parameter_base@DV?$string_output_adapter@D@__crt_stdio_output@@@2@@__crt_stdio_output@@AEAA_NXZ 00000001800466b0 f i libucrtd:output.obj
 0001:00045700       ?state_case_normal_common@?$output_processor@DV?$string_output_adapter@D@__crt_stdio_output@@V?$standard_base@DV?$string_output_adapter@D@__crt_stdio_output@@@2@@__crt_stdio_output@@AEAA_NXZ 0000000180046700 f i libucrtd:output.obj
 0001:00045750       ?state_case_normal_common@?$output_processor@_WV?$stream_output_adapter@_W@__crt_stdio_output@@V?$format_validation_base@_WV?$stream_output_adapter@_W@__crt_stdio_output@@@2@@__crt_stdio_output@@AEAA_NXZ 0000000180046750 f i libucrtd:output.obj
 0001:000457a0       ?state_case_normal_common@?$output_processor@_WV?$stream_output_adapter@_W@__crt_stdio_output@@V?$positional_parameter_base@_WV?$stream_output_adapter@_W@__crt_stdio_output@@@2@@__crt_stdio_output@@AEAA_NXZ 00000001800467a0 f i libucrtd:output.obj
 0001:000457f0       ?state_case_normal_common@?$output_processor@_WV?$stream_output_adapter@_W@__crt_stdio_output@@V?$standard_base@_WV?$stream_output_adapter@_W@__crt_stdio_output@@@2@@__crt_stdio_output@@AEAA_NXZ 00000001800467f0 f i libucrtd:output.obj
 0001:00045840       ?state_case_normal_common@?$output_processor@_WV?$string_output_adapter@_W@__crt_stdio_output@@V?$format_validation_base@_WV?$string_output_adapter@_W@__crt_stdio_output@@@2@@__crt_stdio_output@@AEAA_NXZ 0000000180046840 f i libucrtd:output.obj
 0001:00045890       ?state_case_normal_common@?$output_processor@_WV?$string_output_adapter@_W@__crt_stdio_output@@V?$positional_parameter_base@_WV?$string_output_adapter@_W@__crt_stdio_output@@@2@@__crt_stdio_output@@AEAA_NXZ 0000000180046890 f i libucrtd:output.obj
 0001:000458e0       ?state_case_normal_common@?$output_processor@_WV?$string_output_adapter@_W@__crt_stdio_output@@V?$standard_base@_WV?$string_output_adapter@_W@__crt_stdio_output@@@2@@__crt_stdio_output@@AEAA_NXZ 00000001800468e0 f i libucrtd:output.obj
 0001:00045930       ?state_case_normal_tchar@?$output_processor@DV?$stream_output_adapter@D@__crt_stdio_output@@V?$format_validation_base@DV?$stream_output_adapter@D@__crt_stdio_output@@@2@@__crt_stdio_output@@AEAA_ND@Z 0000000180046930 f i libucrtd:output.obj
 0001:00045a70       ?state_case_normal_tchar@?$output_processor@DV?$stream_output_adapter@D@__crt_stdio_output@@V?$positional_parameter_base@DV?$stream_output_adapter@D@__crt_stdio_output@@@2@@__crt_stdio_output@@AEAA_ND@Z 0000000180046a70 f i libucrtd:output.obj
 0001:00045bb0       ?state_case_normal_tchar@?$output_processor@DV?$stream_output_adapter@D@__crt_stdio_output@@V?$standard_base@DV?$stream_output_adapter@D@__crt_stdio_output@@@2@@__crt_stdio_output@@AEAA_ND@Z 0000000180046bb0 f i libucrtd:output.obj
 0001:00045cf0       ?state_case_normal_tchar@?$output_processor@DV?$string_output_adapter@D@__crt_stdio_output@@V?$format_validation_base@DV?$string_output_adapter@D@__crt_stdio_output@@@2@@__crt_stdio_output@@AEAA_ND@Z 0000000180046cf0 f i libucrtd:output.obj
 0001:00045e30       ?state_case_normal_tchar@?$output_processor@DV?$string_output_adapter@D@__crt_stdio_output@@V?$positional_parameter_base@DV?$string_output_adapter@D@__crt_stdio_output@@@2@@__crt_stdio_output@@AEAA_ND@Z 0000000180046e30 f i libucrtd:output.obj
 0001:00045f70       ?state_case_normal_tchar@?$output_processor@DV?$string_output_adapter@D@__crt_stdio_output@@V?$standard_base@DV?$string_output_adapter@D@__crt_stdio_output@@@2@@__crt_stdio_output@@AEAA_ND@Z 0000000180046f70 f i libucrtd:output.obj
 0001:000460b0       ?state_case_normal_tchar@?$output_processor@_WV?$stream_output_adapter@_W@__crt_stdio_output@@V?$format_validation_base@_WV?$stream_output_adapter@_W@__crt_stdio_output@@@2@@__crt_stdio_output@@AEAA_N_W@Z 00000001800470b0 f i libucrtd:output.obj
 0001:000460d0       ?state_case_normal_tchar@?$output_processor@_WV?$stream_output_adapter@_W@__crt_stdio_output@@V?$positional_parameter_base@_WV?$stream_output_adapter@_W@__crt_stdio_output@@@2@@__crt_stdio_output@@AEAA_N_W@Z 00000001800470d0 f i libucrtd:output.obj
 0001:000460f0       ?state_case_normal_tchar@?$output_processor@_WV?$stream_output_adapter@_W@__crt_stdio_output@@V?$standard_base@_WV?$stream_output_adapter@_W@__crt_stdio_output@@@2@@__crt_stdio_output@@AEAA_N_W@Z 00000001800470f0 f i libucrtd:output.obj
 0001:00046110       ?state_case_normal_tchar@?$output_processor@_WV?$string_output_adapter@_W@__crt_stdio_output@@V?$format_validation_base@_WV?$string_output_adapter@_W@__crt_stdio_output@@@2@@__crt_stdio_output@@AEAA_N_W@Z 0000000180047110 f i libucrtd:output.obj
 0001:00046130       ?state_case_normal_tchar@?$output_processor@_WV?$string_output_adapter@_W@__crt_stdio_output@@V?$positional_parameter_base@_WV?$string_output_adapter@_W@__crt_stdio_output@@@2@@__crt_stdio_output@@AEAA_N_W@Z 0000000180047130 f i libucrtd:output.obj
 0001:00046150       ?state_case_normal_tchar@?$output_processor@_WV?$string_output_adapter@_W@__crt_stdio_output@@V?$standard_base@_WV?$string_output_adapter@_W@__crt_stdio_output@@@2@@__crt_stdio_output@@AEAA_N_W@Z 0000000180047150 f i libucrtd:output.obj
 0001:00046170       ?state_case_percent@?$output_processor@DV?$stream_output_adapter@D@__crt_stdio_output@@V?$format_validation_base@DV?$stream_output_adapter@D@__crt_stdio_output@@@2@@__crt_stdio_output@@AEAA_NXZ 0000000180047170 f i libucrtd:output.obj
 0001:000461c0       ?state_case_percent@?$output_processor@DV?$stream_output_adapter@D@__crt_stdio_output@@V?$positional_parameter_base@DV?$stream_output_adapter@D@__crt_stdio_output@@@2@@__crt_stdio_output@@AEAA_NXZ 00000001800471c0 f i libucrtd:output.obj
 0001:00046210       ?state_case_percent@?$output_processor@DV?$stream_output_adapter@D@__crt_stdio_output@@V?$standard_base@DV?$stream_output_adapter@D@__crt_stdio_output@@@2@@__crt_stdio_output@@AEAA_NXZ 0000000180047210 f i libucrtd:output.obj
 0001:00046260       ?state_case_percent@?$output_processor@DV?$string_output_adapter@D@__crt_stdio_output@@V?$format_validation_base@DV?$string_output_adapter@D@__crt_stdio_output@@@2@@__crt_stdio_output@@AEAA_NXZ 0000000180047260 f i libucrtd:output.obj
 0001:000462b0       ?state_case_percent@?$output_processor@DV?$string_output_adapter@D@__crt_stdio_output@@V?$positional_parameter_base@DV?$string_output_adapter@D@__crt_stdio_output@@@2@@__crt_stdio_output@@AEAA_NXZ 00000001800472b0 f i libucrtd:output.obj
 0001:00046300       ?state_case_percent@?$output_processor@DV?$string_output_adapter@D@__crt_stdio_output@@V?$standard_base@DV?$string_output_adapter@D@__crt_stdio_output@@@2@@__crt_stdio_output@@AEAA_NXZ 0000000180047300 f i libucrtd:output.obj
 0001:00046350       ?state_case_percent@?$output_processor@_WV?$stream_output_adapter@_W@__crt_stdio_output@@V?$format_validation_base@_WV?$stream_output_adapter@_W@__crt_stdio_output@@@2@@__crt_stdio_output@@AEAA_NXZ 0000000180047350 f i libucrtd:output.obj
 0001:000463a0       ?state_case_percent@?$output_processor@_WV?$stream_output_adapter@_W@__crt_stdio_output@@V?$positional_parameter_base@_WV?$stream_output_adapter@_W@__crt_stdio_output@@@2@@__crt_stdio_output@@AEAA_NXZ 00000001800473a0 f i libucrtd:output.obj
 0001:000463f0       ?state_case_percent@?$output_processor@_WV?$stream_output_adapter@_W@__crt_stdio_output@@V?$standard_base@_WV?$stream_output_adapter@_W@__crt_stdio_output@@@2@@__crt_stdio_output@@AEAA_NXZ 00000001800473f0 f i libucrtd:output.obj
 0001:00046440       ?state_case_percent@?$output_processor@_WV?$string_output_adapter@_W@__crt_stdio_output@@V?$format_validation_base@_WV?$string_output_adapter@_W@__crt_stdio_output@@@2@@__crt_stdio_output@@AEAA_NXZ 0000000180047440 f i libucrtd:output.obj
 0001:00046490       ?state_case_percent@?$output_processor@_WV?$string_output_adapter@_W@__crt_stdio_output@@V?$positional_parameter_base@_WV?$string_output_adapter@_W@__crt_stdio_output@@@2@@__crt_stdio_output@@AEAA_NXZ 0000000180047490 f i libucrtd:output.obj
 0001:000464e0       ?state_case_percent@?$output_processor@_WV?$string_output_adapter@_W@__crt_stdio_output@@V?$standard_base@_WV?$string_output_adapter@_W@__crt_stdio_output@@@2@@__crt_stdio_output@@AEAA_NXZ 00000001800474e0 f i libucrtd:output.obj
 0001:00046530       ?state_case_precision@?$output_processor@DV?$stream_output_adapter@D@__crt_stdio_output@@V?$format_validation_base@DV?$stream_output_adapter@D@__crt_stdio_output@@@2@@__crt_stdio_output@@AEAA_NXZ 0000000180047530 f i libucrtd:output.obj
 0001:000465b0       ?state_case_precision@?$output_processor@DV?$stream_output_adapter@D@__crt_stdio_output@@V?$positional_parameter_base@DV?$stream_output_adapter@D@__crt_stdio_output@@@2@@__crt_stdio_output@@AEAA_NXZ 00000001800475b0 f i libucrtd:output.obj
 0001:00046630       ?state_case_precision@?$output_processor@DV?$stream_output_adapter@D@__crt_stdio_output@@V?$standard_base@DV?$stream_output_adapter@D@__crt_stdio_output@@@2@@__crt_stdio_output@@AEAA_NXZ 0000000180047630 f i libucrtd:output.obj
 0001:000466b0       ?state_case_precision@?$output_processor@DV?$string_output_adapter@D@__crt_stdio_output@@V?$format_validation_base@DV?$string_output_adapter@D@__crt_stdio_output@@@2@@__crt_stdio_output@@AEAA_NXZ 00000001800476b0 f i libucrtd:output.obj
 0001:00046730       ?state_case_precision@?$output_processor@DV?$string_output_adapter@D@__crt_stdio_output@@V?$positional_parameter_base@DV?$string_output_adapter@D@__crt_stdio_output@@@2@@__crt_stdio_output@@AEAA_NXZ 0000000180047730 f i libucrtd:output.obj
 0001:000467b0       ?state_case_precision@?$output_processor@DV?$string_output_adapter@D@__crt_stdio_output@@V?$standard_base@DV?$string_output_adapter@D@__crt_stdio_output@@@2@@__crt_stdio_output@@AEAA_NXZ 00000001800477b0 f i libucrtd:output.obj
 0001:00046830       ?state_case_precision@?$output_processor@_WV?$stream_output_adapter@_W@__crt_stdio_output@@V?$format_validation_base@_WV?$stream_output_adapter@_W@__crt_stdio_output@@@2@@__crt_stdio_output@@AEAA_NXZ 0000000180047830 f i libucrtd:output.obj
 0001:000468b0       ?state_case_precision@?$output_processor@_WV?$stream_output_adapter@_W@__crt_stdio_output@@V?$positional_parameter_base@_WV?$stream_output_adapter@_W@__crt_stdio_output@@@2@@__crt_stdio_output@@AEAA_NXZ 00000001800478b0 f i libucrtd:output.obj
 0001:00046930       ?state_case_precision@?$output_processor@_WV?$stream_output_adapter@_W@__crt_stdio_output@@V?$standard_base@_WV?$stream_output_adapter@_W@__crt_stdio_output@@@2@@__crt_stdio_output@@AEAA_NXZ 0000000180047930 f i libucrtd:output.obj
 0001:000469b0       ?state_case_precision@?$output_processor@_WV?$string_output_adapter@_W@__crt_stdio_output@@V?$format_validation_base@_WV?$string_output_adapter@_W@__crt_stdio_output@@@2@@__crt_stdio_output@@AEAA_NXZ 00000001800479b0 f i libucrtd:output.obj
 0001:00046a30       ?state_case_precision@?$output_processor@_WV?$string_output_adapter@_W@__crt_stdio_output@@V?$positional_parameter_base@_WV?$string_output_adapter@_W@__crt_stdio_output@@@2@@__crt_stdio_output@@AEAA_NXZ 0000000180047a30 f i libucrtd:output.obj
 0001:00046ab0       ?state_case_precision@?$output_processor@_WV?$string_output_adapter@_W@__crt_stdio_output@@V?$standard_base@_WV?$string_output_adapter@_W@__crt_stdio_output@@@2@@__crt_stdio_output@@AEAA_NXZ 0000000180047ab0 f i libucrtd:output.obj
 0001:00046b30       ?state_case_size@?$output_processor@DV?$stream_output_adapter@D@__crt_stdio_output@@V?$format_validation_base@DV?$stream_output_adapter@D@__crt_stdio_output@@@2@@__crt_stdio_output@@AEAA_NXZ 0000000180047b30 f i libucrtd:output.obj
 0001:00046fb0       ?state_case_size@?$output_processor@DV?$stream_output_adapter@D@__crt_stdio_output@@V?$positional_parameter_base@DV?$stream_output_adapter@D@__crt_stdio_output@@@2@@__crt_stdio_output@@AEAA_NXZ 0000000180047fb0 f i libucrtd:output.obj
 0001:00047430       ?state_case_size@?$output_processor@DV?$stream_output_adapter@D@__crt_stdio_output@@V?$standard_base@DV?$stream_output_adapter@D@__crt_stdio_output@@@2@@__crt_stdio_output@@AEAA_NXZ 0000000180048430 f i libucrtd:output.obj
 0001:000478b0       ?state_case_size@?$output_processor@DV?$string_output_adapter@D@__crt_stdio_output@@V?$format_validation_base@DV?$string_output_adapter@D@__crt_stdio_output@@@2@@__crt_stdio_output@@AEAA_NXZ 00000001800488b0 f i libucrtd:output.obj
 0001:00047d30       ?state_case_size@?$output_processor@DV?$string_output_adapter@D@__crt_stdio_output@@V?$positional_parameter_base@DV?$string_output_adapter@D@__crt_stdio_output@@@2@@__crt_stdio_output@@AEAA_NXZ 0000000180048d30 f i libucrtd:output.obj
 0001:000481b0       ?state_case_size@?$output_processor@DV?$string_output_adapter@D@__crt_stdio_output@@V?$standard_base@DV?$string_output_adapter@D@__crt_stdio_output@@@2@@__crt_stdio_output@@AEAA_NXZ 00000001800491b0 f i libucrtd:output.obj
 0001:00048630       ?state_case_size@?$output_processor@_WV?$stream_output_adapter@_W@__crt_stdio_output@@V?$format_validation_base@_WV?$stream_output_adapter@_W@__crt_stdio_output@@@2@@__crt_stdio_output@@AEAA_NXZ 0000000180049630 f i libucrtd:output.obj
 0001:00048ab0       ?state_case_size@?$output_processor@_WV?$stream_output_adapter@_W@__crt_stdio_output@@V?$positional_parameter_base@_WV?$stream_output_adapter@_W@__crt_stdio_output@@@2@@__crt_stdio_output@@AEAA_NXZ 0000000180049ab0 f i libucrtd:output.obj
 0001:00048f30       ?state_case_size@?$output_processor@_WV?$stream_output_adapter@_W@__crt_stdio_output@@V?$standard_base@_WV?$stream_output_adapter@_W@__crt_stdio_output@@@2@@__crt_stdio_output@@AEAA_NXZ 0000000180049f30 f i libucrtd:output.obj
 0001:000493b0       ?state_case_size@?$output_processor@_WV?$string_output_adapter@_W@__crt_stdio_output@@V?$format_validation_base@_WV?$string_output_adapter@_W@__crt_stdio_output@@@2@@__crt_stdio_output@@AEAA_NXZ 000000018004a3b0 f i libucrtd:output.obj
 0001:00049830       ?state_case_size@?$output_processor@_WV?$string_output_adapter@_W@__crt_stdio_output@@V?$positional_parameter_base@_WV?$string_output_adapter@_W@__crt_stdio_output@@@2@@__crt_stdio_output@@AEAA_NXZ 000000018004a830 f i libucrtd:output.obj
 0001:00049cb0       ?state_case_size@?$output_processor@_WV?$string_output_adapter@_W@__crt_stdio_output@@V?$standard_base@_WV?$string_output_adapter@_W@__crt_stdio_output@@@2@@__crt_stdio_output@@AEAA_NXZ 000000018004acb0 f i libucrtd:output.obj
 0001:0004a130       ?state_case_type@?$output_processor@DV?$stream_output_adapter@D@__crt_stdio_output@@V?$format_validation_base@DV?$stream_output_adapter@D@__crt_stdio_output@@@2@@__crt_stdio_output@@AEAA_NXZ 000000018004b130 f i libucrtd:output.obj
 0001:0004a5d0       ?state_case_type@?$output_processor@DV?$stream_output_adapter@D@__crt_stdio_output@@V?$positional_parameter_base@DV?$stream_output_adapter@D@__crt_stdio_output@@@2@@__crt_stdio_output@@AEAA_NXZ 000000018004b5d0 f i libucrtd:output.obj
 0001:0004aa70       ?state_case_type@?$output_processor@DV?$stream_output_adapter@D@__crt_stdio_output@@V?$standard_base@DV?$stream_output_adapter@D@__crt_stdio_output@@@2@@__crt_stdio_output@@AEAA_NXZ 000000018004ba70 f i libucrtd:output.obj
 0001:0004af10       ?state_case_type@?$output_processor@DV?$string_output_adapter@D@__crt_stdio_output@@V?$format_validation_base@DV?$string_output_adapter@D@__crt_stdio_output@@@2@@__crt_stdio_output@@AEAA_NXZ 000000018004bf10 f i libucrtd:output.obj
 0001:0004b3b0       ?state_case_type@?$output_processor@DV?$string_output_adapter@D@__crt_stdio_output@@V?$positional_parameter_base@DV?$string_output_adapter@D@__crt_stdio_output@@@2@@__crt_stdio_output@@AEAA_NXZ 000000018004c3b0 f i libucrtd:output.obj
 0001:0004b850       ?state_case_type@?$output_processor@DV?$string_output_adapter@D@__crt_stdio_output@@V?$standard_base@DV?$string_output_adapter@D@__crt_stdio_output@@@2@@__crt_stdio_output@@AEAA_NXZ 000000018004c850 f i libucrtd:output.obj
 0001:0004bcf0       ?state_case_type@?$output_processor@_WV?$stream_output_adapter@_W@__crt_stdio_output@@V?$format_validation_base@_WV?$stream_output_adapter@_W@__crt_stdio_output@@@2@@__crt_stdio_output@@AEAA_NXZ 000000018004ccf0 f i libucrtd:output.obj
 0001:0004c250       ?state_case_type@?$output_processor@_WV?$stream_output_adapter@_W@__crt_stdio_output@@V?$positional_parameter_base@_WV?$stream_output_adapter@_W@__crt_stdio_output@@@2@@__crt_stdio_output@@AEAA_NXZ 000000018004d250 f i libucrtd:output.obj
 0001:0004c7b0       ?state_case_type@?$output_processor@_WV?$stream_output_adapter@_W@__crt_stdio_output@@V?$standard_base@_WV?$stream_output_adapter@_W@__crt_stdio_output@@@2@@__crt_stdio_output@@AEAA_NXZ 000000018004d7b0 f i libucrtd:output.obj
 0001:0004cd10       ?state_case_type@?$output_processor@_WV?$string_output_adapter@_W@__crt_stdio_output@@V?$format_validation_base@_WV?$string_output_adapter@_W@__crt_stdio_output@@@2@@__crt_stdio_output@@AEAA_NXZ 000000018004dd10 f i libucrtd:output.obj
 0001:0004d270       ?state_case_type@?$output_processor@_WV?$string_output_adapter@_W@__crt_stdio_output@@V?$positional_parameter_base@_WV?$string_output_adapter@_W@__crt_stdio_output@@@2@@__crt_stdio_output@@AEAA_NXZ 000000018004e270 f i libucrtd:output.obj
 0001:0004d7d0       ?state_case_type@?$output_processor@_WV?$string_output_adapter@_W@__crt_stdio_output@@V?$standard_base@_WV?$string_output_adapter@_W@__crt_stdio_output@@@2@@__crt_stdio_output@@AEAA_NXZ 000000018004e7d0 f i libucrtd:output.obj
 0001:0004dd30       ?state_case_width@?$output_processor@DV?$stream_output_adapter@D@__crt_stdio_output@@V?$format_validation_base@DV?$stream_output_adapter@D@__crt_stdio_output@@@2@@__crt_stdio_output@@AEAA_NXZ 000000018004ed30 f i libucrtd:output.obj
 0001:0004ddc0       ?state_case_width@?$output_processor@DV?$stream_output_adapter@D@__crt_stdio_output@@V?$positional_parameter_base@DV?$stream_output_adapter@D@__crt_stdio_output@@@2@@__crt_stdio_output@@AEAA_NXZ 000000018004edc0 f i libucrtd:output.obj
 0001:0004de50       ?state_case_width@?$output_processor@DV?$stream_output_adapter@D@__crt_stdio_output@@V?$standard_base@DV?$stream_output_adapter@D@__crt_stdio_output@@@2@@__crt_stdio_output@@AEAA_NXZ 000000018004ee50 f i libucrtd:output.obj
 0001:0004dee0       ?state_case_width@?$output_processor@DV?$string_output_adapter@D@__crt_stdio_output@@V?$format_validation_base@DV?$string_output_adapter@D@__crt_stdio_output@@@2@@__crt_stdio_output@@AEAA_NXZ 000000018004eee0 f i libucrtd:output.obj
 0001:0004df70       ?state_case_width@?$output_processor@DV?$string_output_adapter@D@__crt_stdio_output@@V?$positional_parameter_base@DV?$string_output_adapter@D@__crt_stdio_output@@@2@@__crt_stdio_output@@AEAA_NXZ 000000018004ef70 f i libucrtd:output.obj
 0001:0004e000       ?state_case_width@?$output_processor@DV?$string_output_adapter@D@__crt_stdio_output@@V?$standard_base@DV?$string_output_adapter@D@__crt_stdio_output@@@2@@__crt_stdio_output@@AEAA_NXZ 000000018004f000 f i libucrtd:output.obj
 0001:0004e090       ?state_case_width@?$output_processor@_WV?$stream_output_adapter@_W@__crt_stdio_output@@V?$format_validation_base@_WV?$stream_output_adapter@_W@__crt_stdio_output@@@2@@__crt_stdio_output@@AEAA_NXZ 000000018004f090 f i libucrtd:output.obj
 0001:0004e120       ?state_case_width@?$output_processor@_WV?$stream_output_adapter@_W@__crt_stdio_output@@V?$positional_parameter_base@_WV?$stream_output_adapter@_W@__crt_stdio_output@@@2@@__crt_stdio_output@@AEAA_NXZ 000000018004f120 f i libucrtd:output.obj
 0001:0004e1b0       ?state_case_width@?$output_processor@_WV?$stream_output_adapter@_W@__crt_stdio_output@@V?$standard_base@_WV?$stream_output_adapter@_W@__crt_stdio_output@@@2@@__crt_stdio_output@@AEAA_NXZ 000000018004f1b0 f i libucrtd:output.obj
 0001:0004e240       ?state_case_width@?$output_processor@_WV?$string_output_adapter@_W@__crt_stdio_output@@V?$format_validation_base@_WV?$string_output_adapter@_W@__crt_stdio_output@@@2@@__crt_stdio_output@@AEAA_NXZ 000000018004f240 f i libucrtd:output.obj
 0001:0004e2d0       ?state_case_width@?$output_processor@_WV?$string_output_adapter@_W@__crt_stdio_output@@V?$positional_parameter_base@_WV?$string_output_adapter@_W@__crt_stdio_output@@@2@@__crt_stdio_output@@AEAA_NXZ 000000018004f2d0 f i libucrtd:output.obj
 0001:0004e360       ?state_case_width@?$output_processor@_WV?$string_output_adapter@_W@__crt_stdio_output@@V?$standard_base@_WV?$string_output_adapter@_W@__crt_stdio_output@@@2@@__crt_stdio_output@@AEAA_NXZ 000000018004f360 f i libucrtd:output.obj
 0001:0004e3f0       ?state_count@?$format_validation_base@DV?$stream_output_adapter@D@__crt_stdio_output@@@__crt_stdio_output@@KAIXZ 000000018004f3f0 f i libucrtd:output.obj
 0001:0004e400       ?state_count@?$format_validation_base@DV?$string_output_adapter@D@__crt_stdio_output@@@__crt_stdio_output@@KAIXZ 000000018004f400 f i libucrtd:output.obj
 0001:0004e410       ?state_count@?$format_validation_base@_WV?$stream_output_adapter@_W@__crt_stdio_output@@@__crt_stdio_output@@KAIXZ 000000018004f410 f i libucrtd:output.obj
 0001:0004e420       ?state_count@?$format_validation_base@_WV?$string_output_adapter@_W@__crt_stdio_output@@@__crt_stdio_output@@KAIXZ 000000018004f420 f i libucrtd:output.obj
 0001:0004e430       ?state_count@?$standard_base@DV?$stream_output_adapter@D@__crt_stdio_output@@@__crt_stdio_output@@KAIXZ 000000018004f430 f i libucrtd:output.obj
 0001:0004e440       ?state_count@?$standard_base@DV?$string_output_adapter@D@__crt_stdio_output@@@__crt_stdio_output@@KAIXZ 000000018004f440 f i libucrtd:output.obj
 0001:0004e450       ?state_count@?$standard_base@_WV?$stream_output_adapter@_W@__crt_stdio_output@@@__crt_stdio_output@@KAIXZ 000000018004f450 f i libucrtd:output.obj
 0001:0004e460       ?state_count@?$standard_base@_WV?$string_output_adapter@_W@__crt_stdio_output@@@__crt_stdio_output@@KAIXZ 000000018004f460 f i libucrtd:output.obj
 0001:0004e470       ?state_transition_table@?$format_validation_base@DV?$stream_output_adapter@D@__crt_stdio_output@@@__crt_stdio_output@@KAAEBV?$spectre_mitigated_lookup_table@Ustate_transition_pair@__crt_stdio_output@@$0IA@@2@XZ 000000018004f470 f i libucrtd:output.obj
 0001:0004e480       ?state_transition_table@?$format_validation_base@DV?$string_output_adapter@D@__crt_stdio_output@@@__crt_stdio_output@@KAAEBV?$spectre_mitigated_lookup_table@Ustate_transition_pair@__crt_stdio_output@@$0IA@@2@XZ 000000018004f480 f i libucrtd:output.obj
 0001:0004e490       ?state_transition_table@?$format_validation_base@_WV?$stream_output_adapter@_W@__crt_stdio_output@@@__crt_stdio_output@@KAAEBV?$spectre_mitigated_lookup_table@Ustate_transition_pair@__crt_stdio_output@@$0IA@@2@XZ 000000018004f490 f i libucrtd:output.obj
 0001:0004e4a0       ?state_transition_table@?$format_validation_base@_WV?$string_output_adapter@_W@__crt_stdio_output@@@__crt_stdio_output@@KAAEBV?$spectre_mitigated_lookup_table@Ustate_transition_pair@__crt_stdio_output@@$0IA@@2@XZ 000000018004f4a0 f i libucrtd:output.obj
 0001:0004e4b0       ?state_transition_table@?$standard_base@DV?$stream_output_adapter@D@__crt_stdio_output@@@__crt_stdio_output@@KAAEBV?$spectre_mitigated_lookup_table@Ustate_transition_pair@__crt_stdio_output@@$0IA@@2@XZ 000000018004f4b0 f i libucrtd:output.obj
 0001:0004e4c0       ?state_transition_table@?$standard_base@DV?$string_output_adapter@D@__crt_stdio_output@@@__crt_stdio_output@@KAAEBV?$spectre_mitigated_lookup_table@Ustate_transition_pair@__crt_stdio_output@@$0IA@@2@XZ 000000018004f4c0 f i libucrtd:output.obj
 0001:0004e4d0       ?state_transition_table@?$standard_base@_WV?$stream_output_adapter@_W@__crt_stdio_output@@@__crt_stdio_output@@KAAEBV?$spectre_mitigated_lookup_table@Ustate_transition_pair@__crt_stdio_output@@$0IA@@2@XZ 000000018004f4d0 f i libucrtd:output.obj
 0001:0004e4e0       ?state_transition_table@?$standard_base@_WV?$string_output_adapter@_W@__crt_stdio_output@@@__crt_stdio_output@@KAAEBV?$spectre_mitigated_lookup_table@Ustate_transition_pair@__crt_stdio_output@@$0IA@@2@XZ 000000018004f4e0 f i libucrtd:output.obj
 0001:0004e4f0       ?tchar_string@?$common_data@D@__crt_stdio_output@@IEAAAEAPEADD@Z 000000018004f4f0 f i libucrtd:output.obj
 0001:0004e510       ?tchar_string@?$common_data@D@__crt_stdio_output@@IEAAAEAPEADXZ 000000018004f510 f i libucrtd:output.obj
 0001:0004e530       ?tchar_string@?$common_data@_W@__crt_stdio_output@@IEAAAEAPEA_WXZ 000000018004f530 f i libucrtd:output.obj
 0001:0004e550       ?tchar_string@?$common_data@_W@__crt_stdio_output@@IEAAAEAPEA_W_W@Z 000000018004f550 f i libucrtd:output.obj
 0001:0004e570       ?to_integer_size@__crt_stdio_output@@YA_KW4length_modifier@1@@Z 000000018004f570 f i libucrtd:output.obj
 0001:0004e620       ?type_case_X@?$output_processor@DV?$stream_output_adapter@D@__crt_stdio_output@@V?$format_validation_base@DV?$stream_output_adapter@D@__crt_stdio_output@@@2@@__crt_stdio_output@@AEAA_NXZ 000000018004f620 f i libucrtd:output.obj
 0001:0004e640       ?type_case_X@?$output_processor@DV?$stream_output_adapter@D@__crt_stdio_output@@V?$positional_parameter_base@DV?$stream_output_adapter@D@__crt_stdio_output@@@2@@__crt_stdio_output@@AEAA_NXZ 000000018004f640 f i libucrtd:output.obj
 0001:0004e660       ?type_case_X@?$output_processor@DV?$stream_output_adapter@D@__crt_stdio_output@@V?$standard_base@DV?$stream_output_adapter@D@__crt_stdio_output@@@2@@__crt_stdio_output@@AEAA_NXZ 000000018004f660 f i libucrtd:output.obj
 0001:0004e680       ?type_case_X@?$output_processor@DV?$string_output_adapter@D@__crt_stdio_output@@V?$format_validation_base@DV?$string_output_adapter@D@__crt_stdio_output@@@2@@__crt_stdio_output@@AEAA_NXZ 000000018004f680 f i libucrtd:output.obj
 0001:0004e6a0       ?type_case_X@?$output_processor@DV?$string_output_adapter@D@__crt_stdio_output@@V?$positional_parameter_base@DV?$string_output_adapter@D@__crt_stdio_output@@@2@@__crt_stdio_output@@AEAA_NXZ 000000018004f6a0 f i libucrtd:output.obj
 0001:0004e6c0       ?type_case_X@?$output_processor@DV?$string_output_adapter@D@__crt_stdio_output@@V?$standard_base@DV?$string_output_adapter@D@__crt_stdio_output@@@2@@__crt_stdio_output@@AEAA_NXZ 000000018004f6c0 f i libucrtd:output.obj
 0001:0004e6e0       ?type_case_X@?$output_processor@_WV?$stream_output_adapter@_W@__crt_stdio_output@@V?$format_validation_base@_WV?$stream_output_adapter@_W@__crt_stdio_output@@@2@@__crt_stdio_output@@AEAA_NXZ 000000018004f6e0 f i libucrtd:output.obj
 0001:0004e700       ?type_case_X@?$output_processor@_WV?$stream_output_adapter@_W@__crt_stdio_output@@V?$positional_parameter_base@_WV?$stream_output_adapter@_W@__crt_stdio_output@@@2@@__crt_stdio_output@@AEAA_NXZ 000000018004f700 f i libucrtd:output.obj
 0001:0004e720       ?type_case_X@?$output_processor@_WV?$stream_output_adapter@_W@__crt_stdio_output@@V?$standard_base@_WV?$stream_output_adapter@_W@__crt_stdio_output@@@2@@__crt_stdio_output@@AEAA_NXZ 000000018004f720 f i libucrtd:output.obj
 0001:0004e740       ?type_case_X@?$output_processor@_WV?$string_output_adapter@_W@__crt_stdio_output@@V?$format_validation_base@_WV?$string_output_adapter@_W@__crt_stdio_output@@@2@@__crt_stdio_output@@AEAA_NXZ 000000018004f740 f i libucrtd:output.obj
 0001:0004e760       ?type_case_X@?$output_processor@_WV?$string_output_adapter@_W@__crt_stdio_output@@V?$positional_parameter_base@_WV?$string_output_adapter@_W@__crt_stdio_output@@@2@@__crt_stdio_output@@AEAA_NXZ 000000018004f760 f i libucrtd:output.obj
 0001:0004e780       ?type_case_X@?$output_processor@_WV?$string_output_adapter@_W@__crt_stdio_output@@V?$standard_base@_WV?$string_output_adapter@_W@__crt_stdio_output@@@2@@__crt_stdio_output@@AEAA_NXZ 000000018004f780 f i libucrtd:output.obj
 0001:0004e7a0       ?type_case_Z@?$output_processor@DV?$stream_output_adapter@D@__crt_stdio_output@@V?$format_validation_base@DV?$stream_output_adapter@D@__crt_stdio_output@@@2@@__crt_stdio_output@@AEAA_NXZ 000000018004f7a0 f i libucrtd:output.obj
 0001:0004e8c0       ?type_case_Z@?$output_processor@DV?$stream_output_adapter@D@__crt_stdio_output@@V?$positional_parameter_base@DV?$stream_output_adapter@D@__crt_stdio_output@@@2@@__crt_stdio_output@@AEAA_NXZ 000000018004f8c0 f i libucrtd:output.obj
 0001:0004e9e0       ?type_case_Z@?$output_processor@DV?$stream_output_adapter@D@__crt_stdio_output@@V?$standard_base@DV?$stream_output_adapter@D@__crt_stdio_output@@@2@@__crt_stdio_output@@AEAA_NXZ 000000018004f9e0 f i libucrtd:output.obj
 0001:0004eb00       ?type_case_Z@?$output_processor@DV?$string_output_adapter@D@__crt_stdio_output@@V?$format_validation_base@DV?$string_output_adapter@D@__crt_stdio_output@@@2@@__crt_stdio_output@@AEAA_NXZ 000000018004fb00 f i libucrtd:output.obj
 0001:0004ec20       ?type_case_Z@?$output_processor@DV?$string_output_adapter@D@__crt_stdio_output@@V?$positional_parameter_base@DV?$string_output_adapter@D@__crt_stdio_output@@@2@@__crt_stdio_output@@AEAA_NXZ 000000018004fc20 f i libucrtd:output.obj
 0001:0004ed40       ?type_case_Z@?$output_processor@DV?$string_output_adapter@D@__crt_stdio_output@@V?$standard_base@DV?$string_output_adapter@D@__crt_stdio_output@@@2@@__crt_stdio_output@@AEAA_NXZ 000000018004fd40 f i libucrtd:output.obj
 0001:0004ee60       ?type_case_Z@?$output_processor@_WV?$stream_output_adapter@_W@__crt_stdio_output@@V?$format_validation_base@_WV?$stream_output_adapter@_W@__crt_stdio_output@@@2@@__crt_stdio_output@@AEAA_NXZ 000000018004fe60 f i libucrtd:output.obj
 0001:0004ef80       ?type_case_Z@?$output_processor@_WV?$stream_output_adapter@_W@__crt_stdio_output@@V?$positional_parameter_base@_WV?$stream_output_adapter@_W@__crt_stdio_output@@@2@@__crt_stdio_output@@AEAA_NXZ 000000018004ff80 f i libucrtd:output.obj
 0001:0004f0a0       ?type_case_Z@?$output_processor@_WV?$stream_output_adapter@_W@__crt_stdio_output@@V?$standard_base@_WV?$stream_output_adapter@_W@__crt_stdio_output@@@2@@__crt_stdio_output@@AEAA_NXZ 00000001800500a0 f i libucrtd:output.obj
 0001:0004f1c0       ?type_case_Z@?$output_processor@_WV?$string_output_adapter@_W@__crt_stdio_output@@V?$format_validation_base@_WV?$string_output_adapter@_W@__crt_stdio_output@@@2@@__crt_stdio_output@@AEAA_NXZ 00000001800501c0 f i libucrtd:output.obj
 0001:0004f2e0       ?type_case_Z@?$output_processor@_WV?$string_output_adapter@_W@__crt_stdio_output@@V?$positional_parameter_base@_WV?$string_output_adapter@_W@__crt_stdio_output@@@2@@__crt_stdio_output@@AEAA_NXZ 00000001800502e0 f i libucrtd:output.obj
 0001:0004f400       ?type_case_Z@?$output_processor@_WV?$string_output_adapter@_W@__crt_stdio_output@@V?$standard_base@_WV?$string_output_adapter@_W@__crt_stdio_output@@@2@@__crt_stdio_output@@AEAA_NXZ 0000000180050400 f i libucrtd:output.obj
 0001:0004f520       ?type_case_a@?$output_processor@DV?$stream_output_adapter@D@__crt_stdio_output@@V?$format_validation_base@DV?$stream_output_adapter@D@__crt_stdio_output@@@2@@__crt_stdio_output@@AEAA_NXZ 0000000180050520 f i libucrtd:output.obj
 0001:0004f8f0       ?type_case_a@?$output_processor@DV?$stream_output_adapter@D@__crt_stdio_output@@V?$positional_parameter_base@DV?$stream_output_adapter@D@__crt_stdio_output@@@2@@__crt_stdio_output@@AEAA_NXZ 00000001800508f0 f i libucrtd:output.obj
 0001:0004fcc0       ?type_case_a@?$output_processor@DV?$stream_output_adapter@D@__crt_stdio_output@@V?$standard_base@DV?$stream_output_adapter@D@__crt_stdio_output@@@2@@__crt_stdio_output@@AEAA_NXZ 0000000180050cc0 f i libucrtd:output.obj
 0001:00050090       ?type_case_a@?$output_processor@DV?$string_output_adapter@D@__crt_stdio_output@@V?$format_validation_base@DV?$string_output_adapter@D@__crt_stdio_output@@@2@@__crt_stdio_output@@AEAA_NXZ 0000000180051090 f i libucrtd:output.obj
 0001:00050460       ?type_case_a@?$output_processor@DV?$string_output_adapter@D@__crt_stdio_output@@V?$positional_parameter_base@DV?$string_output_adapter@D@__crt_stdio_output@@@2@@__crt_stdio_output@@AEAA_NXZ 0000000180051460 f i libucrtd:output.obj
 0001:00050830       ?type_case_a@?$output_processor@DV?$string_output_adapter@D@__crt_stdio_output@@V?$standard_base@DV?$string_output_adapter@D@__crt_stdio_output@@@2@@__crt_stdio_output@@AEAA_NXZ 0000000180051830 f i libucrtd:output.obj
 0001:00050c00       ?type_case_a@?$output_processor@_WV?$stream_output_adapter@_W@__crt_stdio_output@@V?$format_validation_base@_WV?$stream_output_adapter@_W@__crt_stdio_output@@@2@@__crt_stdio_output@@AEAA_NXZ 0000000180051c00 f i libucrtd:output.obj
 0001:00050fd0       ?type_case_a@?$output_processor@_WV?$stream_output_adapter@_W@__crt_stdio_output@@V?$positional_parameter_base@_WV?$stream_output_adapter@_W@__crt_stdio_output@@@2@@__crt_stdio_output@@AEAA_NXZ 0000000180051fd0 f i libucrtd:output.obj
 0001:000513a0       ?type_case_a@?$output_processor@_WV?$stream_output_adapter@_W@__crt_stdio_output@@V?$standard_base@_WV?$stream_output_adapter@_W@__crt_stdio_output@@@2@@__crt_stdio_output@@AEAA_NXZ 00000001800523a0 f i libucrtd:output.obj
 0001:00051770       ?type_case_a@?$output_processor@_WV?$string_output_adapter@_W@__crt_stdio_output@@V?$format_validation_base@_WV?$string_output_adapter@_W@__crt_stdio_output@@@2@@__crt_stdio_output@@AEAA_NXZ 0000000180052770 f i libucrtd:output.obj
 0001:00051b40       ?type_case_a@?$output_processor@_WV?$string_output_adapter@_W@__crt_stdio_output@@V?$positional_parameter_base@_WV?$string_output_adapter@_W@__crt_stdio_output@@@2@@__crt_stdio_output@@AEAA_NXZ 0000000180052b40 f i libucrtd:output.obj
 0001:00051f10       ?type_case_a@?$output_processor@_WV?$string_output_adapter@_W@__crt_stdio_output@@V?$standard_base@_WV?$string_output_adapter@_W@__crt_stdio_output@@@2@@__crt_stdio_output@@AEAA_NXZ 0000000180052f10 f i libucrtd:output.obj
 0001:000522e0       ?type_case_c@?$output_processor@DV?$stream_output_adapter@D@__crt_stdio_output@@V?$format_validation_base@DV?$stream_output_adapter@D@__crt_stdio_output@@@2@@__crt_stdio_output@@AEAA_NXZ 00000001800532e0 f i libucrtd:output.obj
 0001:00052300       ?type_case_c@?$output_processor@DV?$stream_output_adapter@D@__crt_stdio_output@@V?$positional_parameter_base@DV?$stream_output_adapter@D@__crt_stdio_output@@@2@@__crt_stdio_output@@AEAA_NXZ 0000000180053300 f i libucrtd:output.obj
 0001:00052320       ?type_case_c@?$output_processor@DV?$stream_output_adapter@D@__crt_stdio_output@@V?$standard_base@DV?$stream_output_adapter@D@__crt_stdio_output@@@2@@__crt_stdio_output@@AEAA_NXZ 0000000180053320 f i libucrtd:output.obj
 0001:00052340       ?type_case_c@?$output_processor@DV?$string_output_adapter@D@__crt_stdio_output@@V?$format_validation_base@DV?$string_output_adapter@D@__crt_stdio_output@@@2@@__crt_stdio_output@@AEAA_NXZ 0000000180053340 f i libucrtd:output.obj
 0001:00052360       ?type_case_c@?$output_processor@DV?$string_output_adapter@D@__crt_stdio_output@@V?$positional_parameter_base@DV?$string_output_adapter@D@__crt_stdio_output@@@2@@__crt_stdio_output@@AEAA_NXZ 0000000180053360 f i libucrtd:output.obj
 0001:00052380       ?type_case_c@?$output_processor@DV?$string_output_adapter@D@__crt_stdio_output@@V?$standard_base@DV?$string_output_adapter@D@__crt_stdio_output@@@2@@__crt_stdio_output@@AEAA_NXZ 0000000180053380 f i libucrtd:output.obj
 0001:000523a0       ?type_case_c@?$output_processor@_WV?$stream_output_adapter@_W@__crt_stdio_output@@V?$format_validation_base@_WV?$stream_output_adapter@_W@__crt_stdio_output@@@2@@__crt_stdio_output@@AEAA_NXZ 00000001800533a0 f i libucrtd:output.obj
 0001:000523c0       ?type_case_c@?$output_processor@_WV?$stream_output_adapter@_W@__crt_stdio_output@@V?$positional_parameter_base@_WV?$stream_output_adapter@_W@__crt_stdio_output@@@2@@__crt_stdio_output@@AEAA_NXZ 00000001800533c0 f i libucrtd:output.obj
 0001:000523e0       ?type_case_c@?$output_processor@_WV?$stream_output_adapter@_W@__crt_stdio_output@@V?$standard_base@_WV?$stream_output_adapter@_W@__crt_stdio_output@@@2@@__crt_stdio_output@@AEAA_NXZ 00000001800533e0 f i libucrtd:output.obj
 0001:00052400       ?type_case_c@?$output_processor@_WV?$string_output_adapter@_W@__crt_stdio_output@@V?$format_validation_base@_WV?$string_output_adapter@_W@__crt_stdio_output@@@2@@__crt_stdio_output@@AEAA_NXZ 0000000180053400 f i libucrtd:output.obj
 0001:00052420       ?type_case_c@?$output_processor@_WV?$string_output_adapter@_W@__crt_stdio_output@@V?$positional_parameter_base@_WV?$string_output_adapter@_W@__crt_stdio_output@@@2@@__crt_stdio_output@@AEAA_NXZ 0000000180053420 f i libucrtd:output.obj
 0001:00052440       ?type_case_c@?$output_processor@_WV?$string_output_adapter@_W@__crt_stdio_output@@V?$standard_base@_WV?$string_output_adapter@_W@__crt_stdio_output@@@2@@__crt_stdio_output@@AEAA_NXZ 0000000180053440 f i libucrtd:output.obj
 0001:00052460       ?type_case_c_tchar@?$output_processor@DV?$stream_output_adapter@D@__crt_stdio_output@@V?$format_validation_base@DV?$stream_output_adapter@D@__crt_stdio_output@@@2@@__crt_stdio_output@@AEAA_ND@Z 0000000180053460 f i libucrtd:output.obj
 0001:000525c0       ?type_case_c_tchar@?$output_processor@DV?$stream_output_adapter@D@__crt_stdio_output@@V?$positional_parameter_base@DV?$stream_output_adapter@D@__crt_stdio_output@@@2@@__crt_stdio_output@@AEAA_ND@Z 00000001800535c0 f i libucrtd:output.obj
 0001:00052720       ?type_case_c_tchar@?$output_processor@DV?$stream_output_adapter@D@__crt_stdio_output@@V?$standard_base@DV?$stream_output_adapter@D@__crt_stdio_output@@@2@@__crt_stdio_output@@AEAA_ND@Z 0000000180053720 f i libucrtd:output.obj
 0001:00052880       ?type_case_c_tchar@?$output_processor@DV?$string_output_adapter@D@__crt_stdio_output@@V?$format_validation_base@DV?$string_output_adapter@D@__crt_stdio_output@@@2@@__crt_stdio_output@@AEAA_ND@Z 0000000180053880 f i libucrtd:output.obj
 0001:000529e0       ?type_case_c_tchar@?$output_processor@DV?$string_output_adapter@D@__crt_stdio_output@@V?$positional_parameter_base@DV?$string_output_adapter@D@__crt_stdio_output@@@2@@__crt_stdio_output@@AEAA_ND@Z 00000001800539e0 f i libucrtd:output.obj
 0001:00052b40       ?type_case_c_tchar@?$output_processor@DV?$string_output_adapter@D@__crt_stdio_output@@V?$standard_base@DV?$string_output_adapter@D@__crt_stdio_output@@@2@@__crt_stdio_output@@AEAA_ND@Z 0000000180053b40 f i libucrtd:output.obj
 0001:00052ca0       ?type_case_c_tchar@?$output_processor@_WV?$stream_output_adapter@_W@__crt_stdio_output@@V?$format_validation_base@_WV?$stream_output_adapter@_W@__crt_stdio_output@@@2@@__crt_stdio_output@@AEAA_N_W@Z 0000000180053ca0 f i libucrtd:output.obj
 0001:00052dd0       ?type_case_c_tchar@?$output_processor@_WV?$stream_output_adapter@_W@__crt_stdio_output@@V?$positional_parameter_base@_WV?$stream_output_adapter@_W@__crt_stdio_output@@@2@@__crt_stdio_output@@AEAA_N_W@Z 0000000180053dd0 f i libucrtd:output.obj
 0001:00052f00       ?type_case_c_tchar@?$output_processor@_WV?$stream_output_adapter@_W@__crt_stdio_output@@V?$standard_base@_WV?$stream_output_adapter@_W@__crt_stdio_output@@@2@@__crt_stdio_output@@AEAA_N_W@Z 0000000180053f00 f i libucrtd:output.obj
 0001:00053030       ?type_case_c_tchar@?$output_processor@_WV?$string_output_adapter@_W@__crt_stdio_output@@V?$format_validation_base@_WV?$string_output_adapter@_W@__crt_stdio_output@@@2@@__crt_stdio_output@@AEAA_N_W@Z 0000000180054030 f i libucrtd:output.obj
 0001:00053160       ?type_case_c_tchar@?$output_processor@_WV?$string_output_adapter@_W@__crt_stdio_output@@V?$positional_parameter_base@_WV?$string_output_adapter@_W@__crt_stdio_output@@@2@@__crt_stdio_output@@AEAA_N_W@Z 0000000180054160 f i libucrtd:output.obj
 0001:00053290       ?type_case_c_tchar@?$output_processor@_WV?$string_output_adapter@_W@__crt_stdio_output@@V?$standard_base@_WV?$string_output_adapter@_W@__crt_stdio_output@@@2@@__crt_stdio_output@@AEAA_N_W@Z 0000000180054290 f i libucrtd:output.obj
 0001:000533c0       ?type_case_d@?$output_processor@DV?$stream_output_adapter@D@__crt_stdio_output@@V?$format_validation_base@DV?$stream_output_adapter@D@__crt_stdio_output@@@2@@__crt_stdio_output@@AEAA_NXZ 00000001800543c0 f i libucrtd:output.obj
 0001:000533f0       ?type_case_d@?$output_processor@DV?$stream_output_adapter@D@__crt_stdio_output@@V?$positional_parameter_base@DV?$stream_output_adapter@D@__crt_stdio_output@@@2@@__crt_stdio_output@@AEAA_NXZ 00000001800543f0 f i libucrtd:output.obj
 0001:00053420       ?type_case_d@?$output_processor@DV?$stream_output_adapter@D@__crt_stdio_output@@V?$standard_base@DV?$stream_output_adapter@D@__crt_stdio_output@@@2@@__crt_stdio_output@@AEAA_NXZ 0000000180054420 f i libucrtd:output.obj
 0001:00053450       ?type_case_d@?$output_processor@DV?$string_output_adapter@D@__crt_stdio_output@@V?$format_validation_base@DV?$string_output_adapter@D@__crt_stdio_output@@@2@@__crt_stdio_output@@AEAA_NXZ 0000000180054450 f i libucrtd:output.obj
 0001:00053480       ?type_case_d@?$output_processor@DV?$string_output_adapter@D@__crt_stdio_output@@V?$positional_parameter_base@DV?$string_output_adapter@D@__crt_stdio_output@@@2@@__crt_stdio_output@@AEAA_NXZ 0000000180054480 f i libucrtd:output.obj
 0001:000534b0       ?type_case_d@?$output_processor@DV?$string_output_adapter@D@__crt_stdio_output@@V?$standard_base@DV?$string_output_adapter@D@__crt_stdio_output@@@2@@__crt_stdio_output@@AEAA_NXZ 00000001800544b0 f i libucrtd:output.obj
 0001:000534e0       ?type_case_d@?$output_processor@_WV?$stream_output_adapter@_W@__crt_stdio_output@@V?$format_validation_base@_WV?$stream_output_adapter@_W@__crt_stdio_output@@@2@@__crt_stdio_output@@AEAA_NXZ 00000001800544e0 f i libucrtd:output.obj
 0001:00053510       ?type_case_d@?$output_processor@_WV?$stream_output_adapter@_W@__crt_stdio_output@@V?$positional_parameter_base@_WV?$stream_output_adapter@_W@__crt_stdio_output@@@2@@__crt_stdio_output@@AEAA_NXZ 0000000180054510 f i libucrtd:output.obj
 0001:00053540       ?type_case_d@?$output_processor@_WV?$stream_output_adapter@_W@__crt_stdio_output@@V?$standard_base@_WV?$stream_output_adapter@_W@__crt_stdio_output@@@2@@__crt_stdio_output@@AEAA_NXZ 0000000180054540 f i libucrtd:output.obj
 0001:00053570       ?type_case_d@?$output_processor@_WV?$string_output_adapter@_W@__crt_stdio_output@@V?$format_validation_base@_WV?$string_output_adapter@_W@__crt_stdio_output@@@2@@__crt_stdio_output@@AEAA_NXZ 0000000180054570 f i libucrtd:output.obj
 0001:000535a0       ?type_case_d@?$output_processor@_WV?$string_output_adapter@_W@__crt_stdio_output@@V?$positional_parameter_base@_WV?$string_output_adapter@_W@__crt_stdio_output@@@2@@__crt_stdio_output@@AEAA_NXZ 00000001800545a0 f i libucrtd:output.obj
 0001:000535d0       ?type_case_d@?$output_processor@_WV?$string_output_adapter@_W@__crt_stdio_output@@V?$standard_base@_WV?$string_output_adapter@_W@__crt_stdio_output@@@2@@__crt_stdio_output@@AEAA_NXZ 00000001800545d0 f i libucrtd:output.obj
 0001:00053600       ?type_case_integer@?$output_processor@DV?$stream_output_adapter@D@__crt_stdio_output@@V?$format_validation_base@DV?$stream_output_adapter@D@__crt_stdio_output@@@2@@__crt_stdio_output@@AEAA_NI_N@Z 0000000180054600 f i libucrtd:output.obj
 0001:00053a50       ?type_case_integer@?$output_processor@DV?$stream_output_adapter@D@__crt_stdio_output@@V?$positional_parameter_base@DV?$stream_output_adapter@D@__crt_stdio_output@@@2@@__crt_stdio_output@@AEAA_NI_N@Z 0000000180054a50 f i libucrtd:output.obj
 0001:00053ea0       ?type_case_integer@?$output_processor@DV?$stream_output_adapter@D@__crt_stdio_output@@V?$standard_base@DV?$stream_output_adapter@D@__crt_stdio_output@@@2@@__crt_stdio_output@@AEAA_NI_N@Z 0000000180054ea0 f i libucrtd:output.obj
 0001:000542f0       ?type_case_integer@?$output_processor@DV?$string_output_adapter@D@__crt_stdio_output@@V?$format_validation_base@DV?$string_output_adapter@D@__crt_stdio_output@@@2@@__crt_stdio_output@@AEAA_NI_N@Z 00000001800552f0 f i libucrtd:output.obj
 0001:00054740       ?type_case_integer@?$output_processor@DV?$string_output_adapter@D@__crt_stdio_output@@V?$positional_parameter_base@DV?$string_output_adapter@D@__crt_stdio_output@@@2@@__crt_stdio_output@@AEAA_NI_N@Z 0000000180055740 f i libucrtd:output.obj
 0001:00054b90       ?type_case_integer@?$output_processor@DV?$string_output_adapter@D@__crt_stdio_output@@V?$standard_base@DV?$string_output_adapter@D@__crt_stdio_output@@@2@@__crt_stdio_output@@AEAA_NI_N@Z 0000000180055b90 f i libucrtd:output.obj
 0001:00054fe0       ?type_case_integer@?$output_processor@_WV?$stream_output_adapter@_W@__crt_stdio_output@@V?$format_validation_base@_WV?$stream_output_adapter@_W@__crt_stdio_output@@@2@@__crt_stdio_output@@AEAA_NI_N@Z 0000000180055fe0 f i libucrtd:output.obj
 0001:00055430       ?type_case_integer@?$output_processor@_WV?$stream_output_adapter@_W@__crt_stdio_output@@V?$positional_parameter_base@_WV?$stream_output_adapter@_W@__crt_stdio_output@@@2@@__crt_stdio_output@@AEAA_NI_N@Z 0000000180056430 f i libucrtd:output.obj
 0001:00055880       ?type_case_integer@?$output_processor@_WV?$stream_output_adapter@_W@__crt_stdio_output@@V?$standard_base@_WV?$stream_output_adapter@_W@__crt_stdio_output@@@2@@__crt_stdio_output@@AEAA_NI_N@Z 0000000180056880 f i libucrtd:output.obj
 0001:00055cd0       ?type_case_integer@?$output_processor@_WV?$string_output_adapter@_W@__crt_stdio_output@@V?$format_validation_base@_WV?$string_output_adapter@_W@__crt_stdio_output@@@2@@__crt_stdio_output@@AEAA_NI_N@Z 0000000180056cd0 f i libucrtd:output.obj
 0001:00056120       ?type_case_integer@?$output_processor@_WV?$string_output_adapter@_W@__crt_stdio_output@@V?$positional_parameter_base@_WV?$string_output_adapter@_W@__crt_stdio_output@@@2@@__crt_stdio_output@@AEAA_NI_N@Z 0000000180057120 f i libucrtd:output.obj
 0001:00056570       ?type_case_integer@?$output_processor@_WV?$string_output_adapter@_W@__crt_stdio_output@@V?$standard_base@_WV?$string_output_adapter@_W@__crt_stdio_output@@@2@@__crt_stdio_output@@AEAA_NI_N@Z 0000000180057570 f i libucrtd:output.obj
 0001:000569c0       ?type_case_n@?$output_processor@DV?$stream_output_adapter@D@__crt_stdio_output@@V?$format_validation_base@DV?$stream_output_adapter@D@__crt_stdio_output@@@2@@__crt_stdio_output@@AEAA_NXZ 00000001800579c0 f i libucrtd:output.obj
 0001:00056c00       ?type_case_n@?$output_processor@DV?$stream_output_adapter@D@__crt_stdio_output@@V?$positional_parameter_base@DV?$stream_output_adapter@D@__crt_stdio_output@@@2@@__crt_stdio_output@@AEAA_NXZ 0000000180057c00 f i libucrtd:output.obj
 0001:00056e40       ?type_case_n@?$output_processor@DV?$stream_output_adapter@D@__crt_stdio_output@@V?$standard_base@DV?$stream_output_adapter@D@__crt_stdio_output@@@2@@__crt_stdio_output@@AEAA_NXZ 0000000180057e40 f i libucrtd:output.obj
 0001:00057080       ?type_case_n@?$output_processor@DV?$string_output_adapter@D@__crt_stdio_output@@V?$format_validation_base@DV?$string_output_adapter@D@__crt_stdio_output@@@2@@__crt_stdio_output@@AEAA_NXZ 0000000180058080 f i libucrtd:output.obj
 0001:000572c0       ?type_case_n@?$output_processor@DV?$string_output_adapter@D@__crt_stdio_output@@V?$positional_parameter_base@DV?$string_output_adapter@D@__crt_stdio_output@@@2@@__crt_stdio_output@@AEAA_NXZ 00000001800582c0 f i libucrtd:output.obj
 0001:00057500       ?type_case_n@?$output_processor@DV?$string_output_adapter@D@__crt_stdio_output@@V?$standard_base@DV?$string_output_adapter@D@__crt_stdio_output@@@2@@__crt_stdio_output@@AEAA_NXZ 0000000180058500 f i libucrtd:output.obj
 0001:00057740       ?type_case_n@?$output_processor@_WV?$stream_output_adapter@_W@__crt_stdio_output@@V?$format_validation_base@_WV?$stream_output_adapter@_W@__crt_stdio_output@@@2@@__crt_stdio_output@@AEAA_NXZ 0000000180058740 f i libucrtd:output.obj
 0001:00057980       ?type_case_n@?$output_processor@_WV?$stream_output_adapter@_W@__crt_stdio_output@@V?$positional_parameter_base@_WV?$stream_output_adapter@_W@__crt_stdio_output@@@2@@__crt_stdio_output@@AEAA_NXZ 0000000180058980 f i libucrtd:output.obj
 0001:00057bc0       ?type_case_n@?$output_processor@_WV?$stream_output_adapter@_W@__crt_stdio_output@@V?$standard_base@_WV?$stream_output_adapter@_W@__crt_stdio_output@@@2@@__crt_stdio_output@@AEAA_NXZ 0000000180058bc0 f i libucrtd:output.obj
 0001:00057e00       ?type_case_n@?$output_processor@_WV?$string_output_adapter@_W@__crt_stdio_output@@V?$format_validation_base@_WV?$string_output_adapter@_W@__crt_stdio_output@@@2@@__crt_stdio_output@@AEAA_NXZ 0000000180058e00 f i libucrtd:output.obj
 0001:00058040       ?type_case_n@?$output_processor@_WV?$string_output_adapter@_W@__crt_stdio_output@@V?$positional_parameter_base@_WV?$string_output_adapter@_W@__crt_stdio_output@@@2@@__crt_stdio_output@@AEAA_NXZ 0000000180059040 f i libucrtd:output.obj
 0001:00058280       ?type_case_n@?$output_processor@_WV?$string_output_adapter@_W@__crt_stdio_output@@V?$standard_base@_WV?$string_output_adapter@_W@__crt_stdio_output@@@2@@__crt_stdio_output@@AEAA_NXZ 0000000180059280 f i libucrtd:output.obj
 0001:000584c0       ?type_case_o@?$output_processor@DV?$stream_output_adapter@D@__crt_stdio_output@@V?$format_validation_base@DV?$stream_output_adapter@D@__crt_stdio_output@@@2@@__crt_stdio_output@@AEAA_NXZ 00000001800594c0 f i libucrtd:output.obj
 0001:00058510       ?type_case_o@?$output_processor@DV?$stream_output_adapter@D@__crt_stdio_output@@V?$positional_parameter_base@DV?$stream_output_adapter@D@__crt_stdio_output@@@2@@__crt_stdio_output@@AEAA_NXZ 0000000180059510 f i libucrtd:output.obj
 0001:00058560       ?type_case_o@?$output_processor@DV?$stream_output_adapter@D@__crt_stdio_output@@V?$standard_base@DV?$stream_output_adapter@D@__crt_stdio_output@@@2@@__crt_stdio_output@@AEAA_NXZ 0000000180059560 f i libucrtd:output.obj
 0001:000585b0       ?type_case_o@?$output_processor@DV?$string_output_adapter@D@__crt_stdio_output@@V?$format_validation_base@DV?$string_output_adapter@D@__crt_stdio_output@@@2@@__crt_stdio_output@@AEAA_NXZ 00000001800595b0 f i libucrtd:output.obj
 0001:00058600       ?type_case_o@?$output_processor@DV?$string_output_adapter@D@__crt_stdio_output@@V?$positional_parameter_base@DV?$string_output_adapter@D@__crt_stdio_output@@@2@@__crt_stdio_output@@AEAA_NXZ 0000000180059600 f i libucrtd:output.obj
 0001:00058650       ?type_case_o@?$output_processor@DV?$string_output_adapter@D@__crt_stdio_output@@V?$standard_base@DV?$string_output_adapter@D@__crt_stdio_output@@@2@@__crt_stdio_output@@AEAA_NXZ 0000000180059650 f i libucrtd:output.obj
 0001:000586a0       ?type_case_o@?$output_processor@_WV?$stream_output_adapter@_W@__crt_stdio_output@@V?$format_validation_base@_WV?$stream_output_adapter@_W@__crt_stdio_output@@@2@@__crt_stdio_output@@AEAA_NXZ 00000001800596a0 f i libucrtd:output.obj
 0001:000586f0       ?type_case_o@?$output_processor@_WV?$stream_output_adapter@_W@__crt_stdio_output@@V?$positional_parameter_base@_WV?$stream_output_adapter@_W@__crt_stdio_output@@@2@@__crt_stdio_output@@AEAA_NXZ 00000001800596f0 f i libucrtd:output.obj
 0001:00058740       ?type_case_o@?$output_processor@_WV?$stream_output_adapter@_W@__crt_stdio_output@@V?$standard_base@_WV?$stream_output_adapter@_W@__crt_stdio_output@@@2@@__crt_stdio_output@@AEAA_NXZ 0000000180059740 f i libucrtd:output.obj
 0001:00058790       ?type_case_o@?$output_processor@_WV?$string_output_adapter@_W@__crt_stdio_output@@V?$format_validation_base@_WV?$string_output_adapter@_W@__crt_stdio_output@@@2@@__crt_stdio_output@@AEAA_NXZ 0000000180059790 f i libucrtd:output.obj
 0001:000587e0       ?type_case_o@?$output_processor@_WV?$string_output_adapter@_W@__crt_stdio_output@@V?$positional_parameter_base@_WV?$string_output_adapter@_W@__crt_stdio_output@@@2@@__crt_stdio_output@@AEAA_NXZ 00000001800597e0 f i libucrtd:output.obj
 0001:00058830       ?type_case_o@?$output_processor@_WV?$string_output_adapter@_W@__crt_stdio_output@@V?$standard_base@_WV?$string_output_adapter@_W@__crt_stdio_output@@@2@@__crt_stdio_output@@AEAA_NXZ 0000000180059830 f i libucrtd:output.obj
 0001:00058880       ?type_case_p@?$output_processor@DV?$stream_output_adapter@D@__crt_stdio_output@@V?$format_validation_base@DV?$stream_output_adapter@D@__crt_stdio_output@@@2@@__crt_stdio_output@@AEAA_NXZ 0000000180059880 f i libucrtd:output.obj
 0001:000588c0       ?type_case_p@?$output_processor@DV?$stream_output_adapter@D@__crt_stdio_output@@V?$positional_parameter_base@DV?$stream_output_adapter@D@__crt_stdio_output@@@2@@__crt_stdio_output@@AEAA_NXZ 00000001800598c0 f i libucrtd:output.obj
 0001:00058900       ?type_case_p@?$output_processor@DV?$stream_output_adapter@D@__crt_stdio_output@@V?$standard_base@DV?$stream_output_adapter@D@__crt_stdio_output@@@2@@__crt_stdio_output@@AEAA_NXZ 0000000180059900 f i libucrtd:output.obj
 0001:00058940       ?type_case_p@?$output_processor@DV?$string_output_adapter@D@__crt_stdio_output@@V?$format_validation_base@DV?$string_output_adapter@D@__crt_stdio_output@@@2@@__crt_stdio_output@@AEAA_NXZ 0000000180059940 f i libucrtd:output.obj
 0001:00058980       ?type_case_p@?$output_processor@DV?$string_output_adapter@D@__crt_stdio_output@@V?$positional_parameter_base@DV?$string_output_adapter@D@__crt_stdio_output@@@2@@__crt_stdio_output@@AEAA_NXZ 0000000180059980 f i libucrtd:output.obj
 0001:000589c0       ?type_case_p@?$output_processor@DV?$string_output_adapter@D@__crt_stdio_output@@V?$standard_base@DV?$string_output_adapter@D@__crt_stdio_output@@@2@@__crt_stdio_output@@AEAA_NXZ 00000001800599c0 f i libucrtd:output.obj
 0001:00058a00       ?type_case_p@?$output_processor@_WV?$stream_output_adapter@_W@__crt_stdio_output@@V?$format_validation_base@_WV?$stream_output_adapter@_W@__crt_stdio_output@@@2@@__crt_stdio_output@@AEAA_NXZ 0000000180059a00 f i libucrtd:output.obj
 0001:00058a40       ?type_case_p@?$output_processor@_WV?$stream_output_adapter@_W@__crt_stdio_output@@V?$positional_parameter_base@_WV?$stream_output_adapter@_W@__crt_stdio_output@@@2@@__crt_stdio_output@@AEAA_NXZ 0000000180059a40 f i libucrtd:output.obj
 0001:00058a80       ?type_case_p@?$output_processor@_WV?$stream_output_adapter@_W@__crt_stdio_output@@V?$standard_base@_WV?$stream_output_adapter@_W@__crt_stdio_output@@@2@@__crt_stdio_output@@AEAA_NXZ 0000000180059a80 f i libucrtd:output.obj
 0001:00058ac0       ?type_case_p@?$output_processor@_WV?$string_output_adapter@_W@__crt_stdio_output@@V?$format_validation_base@_WV?$string_output_adapter@_W@__crt_stdio_output@@@2@@__crt_stdio_output@@AEAA_NXZ 0000000180059ac0 f i libucrtd:output.obj
 0001:00058b00       ?type_case_p@?$output_processor@_WV?$string_output_adapter@_W@__crt_stdio_output@@V?$positional_parameter_base@_WV?$string_output_adapter@_W@__crt_stdio_output@@@2@@__crt_stdio_output@@AEAA_NXZ 0000000180059b00 f i libucrtd:output.obj
 0001:00058b40       ?type_case_p@?$output_processor@_WV?$string_output_adapter@_W@__crt_stdio_output@@V?$standard_base@_WV?$string_output_adapter@_W@__crt_stdio_output@@@2@@__crt_stdio_output@@AEAA_NXZ 0000000180059b40 f i libucrtd:output.obj
 0001:00058b80       ?type_case_s@?$output_processor@DV?$stream_output_adapter@D@__crt_stdio_output@@V?$format_validation_base@DV?$stream_output_adapter@D@__crt_stdio_output@@@2@@__crt_stdio_output@@AEAA_NXZ 0000000180059b80 f i libucrtd:output.obj
 0001:00058ca0       ?type_case_s@?$output_processor@DV?$stream_output_adapter@D@__crt_stdio_output@@V?$positional_parameter_base@DV?$stream_output_adapter@D@__crt_stdio_output@@@2@@__crt_stdio_output@@AEAA_NXZ 0000000180059ca0 f i libucrtd:output.obj
 0001:00058dc0       ?type_case_s@?$output_processor@DV?$stream_output_adapter@D@__crt_stdio_output@@V?$standard_base@DV?$stream_output_adapter@D@__crt_stdio_output@@@2@@__crt_stdio_output@@AEAA_NXZ 0000000180059dc0 f i libucrtd:output.obj
 0001:00058ee0       ?type_case_s@?$output_processor@DV?$string_output_adapter@D@__crt_stdio_output@@V?$format_validation_base@DV?$string_output_adapter@D@__crt_stdio_output@@@2@@__crt_stdio_output@@AEAA_NXZ 0000000180059ee0 f i libucrtd:output.obj
 0001:00059000       ?type_case_s@?$output_processor@DV?$string_output_adapter@D@__crt_stdio_output@@V?$positional_parameter_base@DV?$string_output_adapter@D@__crt_stdio_output@@@2@@__crt_stdio_output@@AEAA_NXZ 000000018005a000 f i libucrtd:output.obj
 0001:00059120       ?type_case_s@?$output_processor@DV?$string_output_adapter@D@__crt_stdio_output@@V?$standard_base@DV?$string_output_adapter@D@__crt_stdio_output@@@2@@__crt_stdio_output@@AEAA_NXZ 000000018005a120 f i libucrtd:output.obj
 0001:00059240       ?type_case_s@?$output_processor@_WV?$stream_output_adapter@_W@__crt_stdio_output@@V?$format_validation_base@_WV?$stream_output_adapter@_W@__crt_stdio_output@@@2@@__crt_stdio_output@@AEAA_NXZ 000000018005a240 f i libucrtd:output.obj
 0001:00059360       ?type_case_s@?$output_processor@_WV?$stream_output_adapter@_W@__crt_stdio_output@@V?$positional_parameter_base@_WV?$stream_output_adapter@_W@__crt_stdio_output@@@2@@__crt_stdio_output@@AEAA_NXZ 000000018005a360 f i libucrtd:output.obj
 0001:00059480       ?type_case_s@?$output_processor@_WV?$stream_output_adapter@_W@__crt_stdio_output@@V?$standard_base@_WV?$stream_output_adapter@_W@__crt_stdio_output@@@2@@__crt_stdio_output@@AEAA_NXZ 000000018005a480 f i libucrtd:output.obj
 0001:000595a0       ?type_case_s@?$output_processor@_WV?$string_output_adapter@_W@__crt_stdio_output@@V?$format_validation_base@_WV?$string_output_adapter@_W@__crt_stdio_output@@@2@@__crt_stdio_output@@AEAA_NXZ 000000018005a5a0 f i libucrtd:output.obj
 0001:000596c0       ?type_case_s@?$output_processor@_WV?$string_output_adapter@_W@__crt_stdio_output@@V?$positional_parameter_base@_WV?$string_output_adapter@_W@__crt_stdio_output@@@2@@__crt_stdio_output@@AEAA_NXZ 000000018005a6c0 f i libucrtd:output.obj
 0001:000597e0       ?type_case_s@?$output_processor@_WV?$string_output_adapter@_W@__crt_stdio_output@@V?$standard_base@_WV?$string_output_adapter@_W@__crt_stdio_output@@@2@@__crt_stdio_output@@AEAA_NXZ 000000018005a7e0 f i libucrtd:output.obj
 0001:00059900       ?type_case_s_compute_narrow_string_length@?$output_processor@DV?$stream_output_adapter@D@__crt_stdio_output@@V?$format_validation_base@DV?$stream_output_adapter@D@__crt_stdio_output@@@2@@__crt_stdio_output@@AEBAHHD@Z 000000018005a900 f i libucrtd:output.obj
 0001:00059930       ?type_case_s_compute_narrow_string_length@?$output_processor@DV?$stream_output_adapter@D@__crt_stdio_output@@V?$positional_parameter_base@DV?$stream_output_adapter@D@__crt_stdio_output@@@2@@__crt_stdio_output@@AEBAHHD@Z 000000018005a930 f i libucrtd:output.obj
 0001:00059960       ?type_case_s_compute_narrow_string_length@?$output_processor@DV?$stream_output_adapter@D@__crt_stdio_output@@V?$standard_base@DV?$stream_output_adapter@D@__crt_stdio_output@@@2@@__crt_stdio_output@@AEBAHHD@Z 000000018005a960 f i libucrtd:output.obj
 0001:00059990       ?type_case_s_compute_narrow_string_length@?$output_processor@DV?$string_output_adapter@D@__crt_stdio_output@@V?$format_validation_base@DV?$string_output_adapter@D@__crt_stdio_output@@@2@@__crt_stdio_output@@AEBAHHD@Z 000000018005a990 f i libucrtd:output.obj
 0001:000599c0       ?type_case_s_compute_narrow_string_length@?$output_processor@DV?$string_output_adapter@D@__crt_stdio_output@@V?$positional_parameter_base@DV?$string_output_adapter@D@__crt_stdio_output@@@2@@__crt_stdio_output@@AEBAHHD@Z 000000018005a9c0 f i libucrtd:output.obj
 0001:000599f0       ?type_case_s_compute_narrow_string_length@?$output_processor@DV?$string_output_adapter@D@__crt_stdio_output@@V?$standard_base@DV?$string_output_adapter@D@__crt_stdio_output@@@2@@__crt_stdio_output@@AEBAHHD@Z 000000018005a9f0 f i libucrtd:output.obj
 0001:00059a20       ?type_case_s_compute_narrow_string_length@?$output_processor@_WV?$stream_output_adapter@_W@__crt_stdio_output@@V?$format_validation_base@_WV?$stream_output_adapter@_W@__crt_stdio_output@@@2@@__crt_stdio_output@@AEBAHH_W@Z 000000018005aa20 f i libucrtd:output.obj
 0001:00059ab0       ?type_case_s_compute_narrow_string_length@?$output_processor@_WV?$stream_output_adapter@_W@__crt_stdio_output@@V?$positional_parameter_base@_WV?$stream_output_adapter@_W@__crt_stdio_output@@@2@@__crt_stdio_output@@AEBAHH_W@Z 000000018005aab0 f i libucrtd:output.obj
 0001:00059b40       ?type_case_s_compute_narrow_string_length@?$output_processor@_WV?$stream_output_adapter@_W@__crt_stdio_output@@V?$standard_base@_WV?$stream_output_adapter@_W@__crt_stdio_output@@@2@@__crt_stdio_output@@AEBAHH_W@Z 000000018005ab40 f i libucrtd:output.obj
 0001:00059bd0       ?type_case_s_compute_narrow_string_length@?$output_processor@_WV?$string_output_adapter@_W@__crt_stdio_output@@V?$format_validation_base@_WV?$string_output_adapter@_W@__crt_stdio_output@@@2@@__crt_stdio_output@@AEBAHH_W@Z 000000018005abd0 f i libucrtd:output.obj
 0001:00059c60       ?type_case_s_compute_narrow_string_length@?$output_processor@_WV?$string_output_adapter@_W@__crt_stdio_output@@V?$positional_parameter_base@_WV?$string_output_adapter@_W@__crt_stdio_output@@@2@@__crt_stdio_output@@AEBAHH_W@Z 000000018005ac60 f i libucrtd:output.obj
 0001:00059cf0       ?type_case_s_compute_narrow_string_length@?$output_processor@_WV?$string_output_adapter@_W@__crt_stdio_output@@V?$standard_base@_WV?$string_output_adapter@_W@__crt_stdio_output@@@2@@__crt_stdio_output@@AEBAHH_W@Z 000000018005acf0 f i libucrtd:output.obj
 0001:00059d80       ?type_case_u@?$output_processor@DV?$stream_output_adapter@D@__crt_stdio_output@@V?$format_validation_base@DV?$stream_output_adapter@D@__crt_stdio_output@@@2@@__crt_stdio_output@@AEAA_NXZ 000000018005ad80 f i libucrtd:output.obj
 0001:00059da0       ?type_case_u@?$output_processor@DV?$stream_output_adapter@D@__crt_stdio_output@@V?$positional_parameter_base@DV?$stream_output_adapter@D@__crt_stdio_output@@@2@@__crt_stdio_output@@AEAA_NXZ 000000018005ada0 f i libucrtd:output.obj
 0001:00059dc0       ?type_case_u@?$output_processor@DV?$stream_output_adapter@D@__crt_stdio_output@@V?$standard_base@DV?$stream_output_adapter@D@__crt_stdio_output@@@2@@__crt_stdio_output@@AEAA_NXZ 000000018005adc0 f i libucrtd:output.obj
 0001:00059de0       ?type_case_u@?$output_processor@DV?$string_output_adapter@D@__crt_stdio_output@@V?$format_validation_base@DV?$string_output_adapter@D@__crt_stdio_output@@@2@@__crt_stdio_output@@AEAA_NXZ 000000018005ade0 f i libucrtd:output.obj
 0001:00059e00       ?type_case_u@?$output_processor@DV?$string_output_adapter@D@__crt_stdio_output@@V?$positional_parameter_base@DV?$string_output_adapter@D@__crt_stdio_output@@@2@@__crt_stdio_output@@AEAA_NXZ 000000018005ae00 f i libucrtd:output.obj
 0001:00059e20       ?type_case_u@?$output_processor@DV?$string_output_adapter@D@__crt_stdio_output@@V?$standard_base@DV?$string_output_adapter@D@__crt_stdio_output@@@2@@__crt_stdio_output@@AEAA_NXZ 000000018005ae20 f i libucrtd:output.obj
 0001:00059e40       ?type_case_u@?$output_processor@_WV?$stream_output_adapter@_W@__crt_stdio_output@@V?$format_validation_base@_WV?$stream_output_adapter@_W@__crt_stdio_output@@@2@@__crt_stdio_output@@AEAA_NXZ 000000018005ae40 f i libucrtd:output.obj
 0001:00059e60       ?type_case_u@?$output_processor@_WV?$stream_output_adapter@_W@__crt_stdio_output@@V?$positional_parameter_base@_WV?$stream_output_adapter@_W@__crt_stdio_output@@@2@@__crt_stdio_output@@AEAA_NXZ 000000018005ae60 f i libucrtd:output.obj
 0001:00059e80       ?type_case_u@?$output_processor@_WV?$stream_output_adapter@_W@__crt_stdio_output@@V?$standard_base@_WV?$stream_output_adapter@_W@__crt_stdio_output@@@2@@__crt_stdio_output@@AEAA_NXZ 000000018005ae80 f i libucrtd:output.obj
 0001:00059ea0       ?type_case_u@?$output_processor@_WV?$string_output_adapter@_W@__crt_stdio_output@@V?$format_validation_base@_WV?$string_output_adapter@_W@__crt_stdio_output@@@2@@__crt_stdio_output@@AEAA_NXZ 000000018005aea0 f i libucrtd:output.obj
 0001:00059ec0       ?type_case_u@?$output_processor@_WV?$string_output_adapter@_W@__crt_stdio_output@@V?$positional_parameter_base@_WV?$string_output_adapter@_W@__crt_stdio_output@@@2@@__crt_stdio_output@@AEAA_NXZ 000000018005aec0 f i libucrtd:output.obj
 0001:00059ee0       ?type_case_u@?$output_processor@_WV?$string_output_adapter@_W@__crt_stdio_output@@V?$standard_base@_WV?$string_output_adapter@_W@__crt_stdio_output@@@2@@__crt_stdio_output@@AEAA_NXZ 000000018005aee0 f i libucrtd:output.obj
 0001:00059f00       ?type_case_x@?$output_processor@DV?$stream_output_adapter@D@__crt_stdio_output@@V?$format_validation_base@DV?$stream_output_adapter@D@__crt_stdio_output@@@2@@__crt_stdio_output@@AEAA_NXZ 000000018005af00 f i libucrtd:output.obj
 0001:00059f20       ?type_case_x@?$output_processor@DV?$stream_output_adapter@D@__crt_stdio_output@@V?$positional_parameter_base@DV?$stream_output_adapter@D@__crt_stdio_output@@@2@@__crt_stdio_output@@AEAA_NXZ 000000018005af20 f i libucrtd:output.obj
 0001:00059f40       ?type_case_x@?$output_processor@DV?$stream_output_adapter@D@__crt_stdio_output@@V?$standard_base@DV?$stream_output_adapter@D@__crt_stdio_output@@@2@@__crt_stdio_output@@AEAA_NXZ 000000018005af40 f i libucrtd:output.obj
 0001:00059f60       ?type_case_x@?$output_processor@DV?$string_output_adapter@D@__crt_stdio_output@@V?$format_validation_base@DV?$string_output_adapter@D@__crt_stdio_output@@@2@@__crt_stdio_output@@AEAA_NXZ 000000018005af60 f i libucrtd:output.obj
 0001:00059f80       ?type_case_x@?$output_processor@DV?$string_output_adapter@D@__crt_stdio_output@@V?$positional_parameter_base@DV?$string_output_adapter@D@__crt_stdio_output@@@2@@__crt_stdio_output@@AEAA_NXZ 000000018005af80 f i libucrtd:output.obj
 0001:00059fa0       ?type_case_x@?$output_processor@DV?$string_output_adapter@D@__crt_stdio_output@@V?$standard_base@DV?$string_output_adapter@D@__crt_stdio_output@@@2@@__crt_stdio_output@@AEAA_NXZ 000000018005afa0 f i libucrtd:output.obj
 0001:00059fc0       ?type_case_x@?$output_processor@_WV?$stream_output_adapter@_W@__crt_stdio_output@@V?$format_validation_base@_WV?$stream_output_adapter@_W@__crt_stdio_output@@@2@@__crt_stdio_output@@AEAA_NXZ 000000018005afc0 f i libucrtd:output.obj
 0001:00059fe0       ?type_case_x@?$output_processor@_WV?$stream_output_adapter@_W@__crt_stdio_output@@V?$positional_parameter_base@_WV?$stream_output_adapter@_W@__crt_stdio_output@@@2@@__crt_stdio_output@@AEAA_NXZ 000000018005afe0 f i libucrtd:output.obj
 0001:0005a000       ?type_case_x@?$output_processor@_WV?$stream_output_adapter@_W@__crt_stdio_output@@V?$standard_base@_WV?$stream_output_adapter@_W@__crt_stdio_output@@@2@@__crt_stdio_output@@AEAA_NXZ 000000018005b000 f i libucrtd:output.obj
 0001:0005a020       ?type_case_x@?$output_processor@_WV?$string_output_adapter@_W@__crt_stdio_output@@V?$format_validation_base@_WV?$string_output_adapter@_W@__crt_stdio_output@@@2@@__crt_stdio_output@@AEAA_NXZ 000000018005b020 f i libucrtd:output.obj
 0001:0005a040       ?type_case_x@?$output_processor@_WV?$string_output_adapter@_W@__crt_stdio_output@@V?$positional_parameter_base@_WV?$string_output_adapter@_W@__crt_stdio_output@@@2@@__crt_stdio_output@@AEAA_NXZ 000000018005b040 f i libucrtd:output.obj
 0001:0005a060       ?type_case_x@?$output_processor@_WV?$string_output_adapter@_W@__crt_stdio_output@@V?$standard_base@_WV?$string_output_adapter@_W@__crt_stdio_output@@@2@@__crt_stdio_output@@AEAA_NXZ 000000018005b060 f i libucrtd:output.obj
 0001:0005a080       ?unset_flag@?$output_processor@DV?$stream_output_adapter@D@__crt_stdio_output@@V?$format_validation_base@DV?$stream_output_adapter@D@__crt_stdio_output@@@2@@__crt_stdio_output@@AEAAXI@Z 000000018005b080 f i libucrtd:output.obj
 0001:0005a0b0       ?unset_flag@?$output_processor@DV?$stream_output_adapter@D@__crt_stdio_output@@V?$positional_parameter_base@DV?$stream_output_adapter@D@__crt_stdio_output@@@2@@__crt_stdio_output@@AEAAXI@Z 000000018005b0b0 f i libucrtd:output.obj
 0001:0005a0e0       ?unset_flag@?$output_processor@DV?$stream_output_adapter@D@__crt_stdio_output@@V?$standard_base@DV?$stream_output_adapter@D@__crt_stdio_output@@@2@@__crt_stdio_output@@AEAAXI@Z 000000018005b0e0 f i libucrtd:output.obj
 0001:0005a110       ?unset_flag@?$output_processor@DV?$string_output_adapter@D@__crt_stdio_output@@V?$format_validation_base@DV?$string_output_adapter@D@__crt_stdio_output@@@2@@__crt_stdio_output@@AEAAXI@Z 000000018005b110 f i libucrtd:output.obj
 0001:0005a140       ?unset_flag@?$output_processor@DV?$string_output_adapter@D@__crt_stdio_output@@V?$positional_parameter_base@DV?$string_output_adapter@D@__crt_stdio_output@@@2@@__crt_stdio_output@@AEAAXI@Z 000000018005b140 f i libucrtd:output.obj
 0001:0005a170       ?unset_flag@?$output_processor@DV?$string_output_adapter@D@__crt_stdio_output@@V?$standard_base@DV?$string_output_adapter@D@__crt_stdio_output@@@2@@__crt_stdio_output@@AEAAXI@Z 000000018005b170 f i libucrtd:output.obj
 0001:0005a1a0       ?unset_flag@?$output_processor@_WV?$stream_output_adapter@_W@__crt_stdio_output@@V?$format_validation_base@_WV?$stream_output_adapter@_W@__crt_stdio_output@@@2@@__crt_stdio_output@@AEAAXI@Z 000000018005b1a0 f i libucrtd:output.obj
 0001:0005a1d0       ?unset_flag@?$output_processor@_WV?$stream_output_adapter@_W@__crt_stdio_output@@V?$positional_parameter_base@_WV?$stream_output_adapter@_W@__crt_stdio_output@@@2@@__crt_stdio_output@@AEAAXI@Z 000000018005b1d0 f i libucrtd:output.obj
 0001:0005a200       ?unset_flag@?$output_processor@_WV?$stream_output_adapter@_W@__crt_stdio_output@@V?$standard_base@_WV?$stream_output_adapter@_W@__crt_stdio_output@@@2@@__crt_stdio_output@@AEAAXI@Z 000000018005b200 f i libucrtd:output.obj
 0001:0005a230       ?unset_flag@?$output_processor@_WV?$string_output_adapter@_W@__crt_stdio_output@@V?$format_validation_base@_WV?$string_output_adapter@_W@__crt_stdio_output@@@2@@__crt_stdio_output@@AEAAXI@Z 000000018005b230 f i libucrtd:output.obj
 0001:0005a260       ?unset_flag@?$output_processor@_WV?$string_output_adapter@_W@__crt_stdio_output@@V?$positional_parameter_base@_WV?$string_output_adapter@_W@__crt_stdio_output@@@2@@__crt_stdio_output@@AEAAXI@Z 000000018005b260 f i libucrtd:output.obj
 0001:0005a290       ?unset_flag@?$output_processor@_WV?$string_output_adapter@_W@__crt_stdio_output@@V?$standard_base@_WV?$string_output_adapter@_W@__crt_stdio_output@@@2@@__crt_stdio_output@@AEAAXI@Z 000000018005b290 f i libucrtd:output.obj
 0001:0005a2c0       ?update_field_width@?$positional_parameter_base@DV?$stream_output_adapter@D@__crt_stdio_output@@@__crt_stdio_output@@IEAA_NXZ 000000018005b2c0 f i libucrtd:output.obj
 0001:0005a4b0       ?update_field_width@?$positional_parameter_base@DV?$string_output_adapter@D@__crt_stdio_output@@@__crt_stdio_output@@IEAA_NXZ 000000018005b4b0 f i libucrtd:output.obj
 0001:0005a6a0       ?update_field_width@?$positional_parameter_base@_WV?$stream_output_adapter@_W@__crt_stdio_output@@@__crt_stdio_output@@IEAA_NXZ 000000018005b6a0 f i libucrtd:output.obj
 0001:0005a890       ?update_field_width@?$positional_parameter_base@_WV?$string_output_adapter@_W@__crt_stdio_output@@@__crt_stdio_output@@IEAA_NXZ 000000018005b890 f i libucrtd:output.obj
 0001:0005aa80       ?update_field_width@?$standard_base@DV?$stream_output_adapter@D@__crt_stdio_output@@@__crt_stdio_output@@IEAA_NXZ 000000018005ba80 f i libucrtd:output.obj
 0001:0005aab0       ?update_field_width@?$standard_base@DV?$string_output_adapter@D@__crt_stdio_output@@@__crt_stdio_output@@IEAA_NXZ 000000018005bab0 f i libucrtd:output.obj
 0001:0005aae0       ?update_field_width@?$standard_base@_WV?$stream_output_adapter@_W@__crt_stdio_output@@@__crt_stdio_output@@IEAA_NXZ 000000018005bae0 f i libucrtd:output.obj
 0001:0005ab10       ?update_field_width@?$standard_base@_WV?$string_output_adapter@_W@__crt_stdio_output@@@__crt_stdio_output@@IEAA_NXZ 000000018005bb10 f i libucrtd:output.obj
 0001:0005ab40       ?update_precision@?$positional_parameter_base@DV?$stream_output_adapter@D@__crt_stdio_output@@@__crt_stdio_output@@IEAA_NXZ 000000018005bb40 f i libucrtd:output.obj
 0001:0005ad30       ?update_precision@?$positional_parameter_base@DV?$string_output_adapter@D@__crt_stdio_output@@@__crt_stdio_output@@IEAA_NXZ 000000018005bd30 f i libucrtd:output.obj
 0001:0005af20       ?update_precision@?$positional_parameter_base@_WV?$stream_output_adapter@_W@__crt_stdio_output@@@__crt_stdio_output@@IEAA_NXZ 000000018005bf20 f i libucrtd:output.obj
 0001:0005b110       ?update_precision@?$positional_parameter_base@_WV?$string_output_adapter@_W@__crt_stdio_output@@@__crt_stdio_output@@IEAA_NXZ 000000018005c110 f i libucrtd:output.obj
 0001:0005b300       ?update_precision@?$standard_base@DV?$stream_output_adapter@D@__crt_stdio_output@@@__crt_stdio_output@@IEAA_NXZ 000000018005c300 f i libucrtd:output.obj
 0001:0005b330       ?update_precision@?$standard_base@DV?$string_output_adapter@D@__crt_stdio_output@@@__crt_stdio_output@@IEAA_NXZ 000000018005c330 f i libucrtd:output.obj
 0001:0005b360       ?update_precision@?$standard_base@_WV?$stream_output_adapter@_W@__crt_stdio_output@@@__crt_stdio_output@@IEAA_NXZ 000000018005c360 f i libucrtd:output.obj
 0001:0005b390       ?update_precision@?$standard_base@_WV?$string_output_adapter@_W@__crt_stdio_output@@@__crt_stdio_output@@IEAA_NXZ 000000018005c390 f i libucrtd:output.obj
 0001:0005b3c0       ?valid@__crt_stdio_stream@@QEBA_NXZ 000000018005c3c0 f i libucrtd:output.obj
 0001:0005b3f0       ?validate@?$stream_output_adapter@D@__crt_stdio_output@@QEBA_NXZ 000000018005c3f0 f i libucrtd:output.obj
 0001:0005b4d0       ?validate@?$stream_output_adapter@_W@__crt_stdio_output@@QEBA_NXZ 000000018005c4d0 f i libucrtd:output.obj
 0001:0005b5b0       ?validate@?$string_output_adapter@D@__crt_stdio_output@@QEBA_NXZ 000000018005c5b0 f i libucrtd:output.obj
 0001:0005b670       ?validate@?$string_output_adapter@_W@__crt_stdio_output@@QEBA_NXZ 000000018005c670 f i libucrtd:output.obj
 0001:0005b730       ?validate_and_store_parameter_data@?$positional_parameter_base@DV?$stream_output_adapter@D@__crt_stdio_output@@@__crt_stdio_output@@AEAA_NAEAUparameter_data@12@W4parameter_type@12@DW4length_modifier@2@@Z 000000018005c730 f i libucrtd:output.obj
 0001:0005b850       ?validate_and_store_parameter_data@?$positional_parameter_base@DV?$string_output_adapter@D@__crt_stdio_output@@@__crt_stdio_output@@AEAA_NAEAUparameter_data@12@W4parameter_type@12@DW4length_modifier@2@@Z 000000018005c850 f i libucrtd:output.obj
 0001:0005b970       ?validate_and_store_parameter_data@?$positional_parameter_base@_WV?$stream_output_adapter@_W@__crt_stdio_output@@@__crt_stdio_output@@AEAA_NAEAUparameter_data@12@W4parameter_type@12@_WW4length_modifier@2@@Z 000000018005c970 f i libucrtd:output.obj
 0001:0005ba90       ?validate_and_store_parameter_data@?$positional_parameter_base@_WV?$string_output_adapter@_W@__crt_stdio_output@@@__crt_stdio_output@@AEAA_NAEAUparameter_data@12@W4parameter_type@12@_WW4length_modifier@2@@Z 000000018005ca90 f i libucrtd:output.obj
 0001:0005bbb0       ?validate_and_update_state_at_beginning_of_format_character@?$positional_parameter_base@DV?$stream_output_adapter@D@__crt_stdio_output@@@__crt_stdio_output@@IEAA_NXZ 000000018005cbb0 f i libucrtd:output.obj
 0001:0005be90       ?validate_and_update_state_at_beginning_of_format_character@?$positional_parameter_base@DV?$string_output_adapter@D@__crt_stdio_output@@@__crt_stdio_output@@IEAA_NXZ 000000018005ce90 f i libucrtd:output.obj
 0001:0005c170       ?validate_and_update_state_at_beginning_of_format_character@?$positional_parameter_base@_WV?$stream_output_adapter@_W@__crt_stdio_output@@@__crt_stdio_output@@IEAA_NXZ 000000018005d170 f i libucrtd:output.obj
 0001:0005c450       ?validate_and_update_state_at_beginning_of_format_character@?$positional_parameter_base@_WV?$string_output_adapter@_W@__crt_stdio_output@@@__crt_stdio_output@@IEAA_NXZ 000000018005d450 f i libucrtd:output.obj
 0001:0005c730       ?validate_and_update_state_at_beginning_of_format_character@?$standard_base@DV?$stream_output_adapter@D@__crt_stdio_output@@@__crt_stdio_output@@IEAA_NXZ 000000018005d730 f i libucrtd:output.obj
 0001:0005c740       ?validate_and_update_state_at_beginning_of_format_character@?$standard_base@DV?$string_output_adapter@D@__crt_stdio_output@@@__crt_stdio_output@@IEAA_NXZ 000000018005d740 f i libucrtd:output.obj
 0001:0005c750       ?validate_and_update_state_at_beginning_of_format_character@?$standard_base@_WV?$stream_output_adapter@_W@__crt_stdio_output@@@__crt_stdio_output@@IEAA_NXZ 000000018005d750 f i libucrtd:output.obj
 0001:0005c760       ?validate_and_update_state_at_beginning_of_format_character@?$standard_base@_WV?$string_output_adapter@_W@__crt_stdio_output@@@__crt_stdio_output@@IEAA_NXZ 000000018005d760 f i libucrtd:output.obj
 0001:0005c770       ?validate_and_update_state_at_end_of_format_string@?$format_validation_base@DV?$stream_output_adapter@D@__crt_stdio_output@@@__crt_stdio_output@@IEBA_NXZ 000000018005d770 f i libucrtd:output.obj
 0001:0005c830       ?validate_and_update_state_at_end_of_format_string@?$format_validation_base@DV?$string_output_adapter@D@__crt_stdio_output@@@__crt_stdio_output@@IEBA_NXZ 000000018005d830 f i libucrtd:output.obj
 0001:0005c8f0       ?validate_and_update_state_at_end_of_format_string@?$format_validation_base@_WV?$stream_output_adapter@_W@__crt_stdio_output@@@__crt_stdio_output@@IEBA_NXZ 000000018005d8f0 f i libucrtd:output.obj
 0001:0005c9b0       ?validate_and_update_state_at_end_of_format_string@?$format_validation_base@_WV?$string_output_adapter@_W@__crt_stdio_output@@@__crt_stdio_output@@IEBA_NXZ 000000018005d9b0 f i libucrtd:output.obj
 0001:0005ca70       ?validate_and_update_state_at_end_of_format_string@?$positional_parameter_base@DV?$stream_output_adapter@D@__crt_stdio_output@@@__crt_stdio_output@@IEAA_NXZ 000000018005da70 f i libucrtd:output.obj
 0001:0005cc60       ?validate_and_update_state_at_end_of_format_string@?$positional_parameter_base@DV?$string_output_adapter@D@__crt_stdio_output@@@__crt_stdio_output@@IEAA_NXZ 000000018005dc60 f i libucrtd:output.obj
 0001:0005ce50       ?validate_and_update_state_at_end_of_format_string@?$positional_parameter_base@_WV?$stream_output_adapter@_W@__crt_stdio_output@@@__crt_stdio_output@@IEAA_NXZ 000000018005de50 f i libucrtd:output.obj
 0001:0005d040       ?validate_and_update_state_at_end_of_format_string@?$positional_parameter_base@_WV?$string_output_adapter@_W@__crt_stdio_output@@@__crt_stdio_output@@IEAA_NXZ 000000018005e040 f i libucrtd:output.obj
 0001:0005d230       ?validate_and_update_state_at_end_of_format_string@?$standard_base@DV?$stream_output_adapter@D@__crt_stdio_output@@@__crt_stdio_output@@IEBA_NXZ 000000018005e230 f i libucrtd:output.obj
 0001:0005d240       ?validate_and_update_state_at_end_of_format_string@?$standard_base@DV?$string_output_adapter@D@__crt_stdio_output@@@__crt_stdio_output@@IEBA_NXZ 000000018005e240 f i libucrtd:output.obj
 0001:0005d250       ?validate_and_update_state_at_end_of_format_string@?$standard_base@_WV?$stream_output_adapter@_W@__crt_stdio_output@@@__crt_stdio_output@@IEBA_NXZ 000000018005e250 f i libucrtd:output.obj
 0001:0005d260       ?validate_and_update_state_at_end_of_format_string@?$standard_base@_WV?$string_output_adapter@_W@__crt_stdio_output@@@__crt_stdio_output@@IEBA_NXZ 000000018005e260 f i libucrtd:output.obj
 0001:0005d270       ?validate_state_for_type_case_a@?$positional_parameter_base@DV?$stream_output_adapter@D@__crt_stdio_output@@@__crt_stdio_output@@IEAA_NXZ 000000018005e270 f i libucrtd:output.obj
 0001:0005d3b0       ?validate_state_for_type_case_a@?$positional_parameter_base@DV?$string_output_adapter@D@__crt_stdio_output@@@__crt_stdio_output@@IEAA_NXZ 000000018005e3b0 f i libucrtd:output.obj
 0001:0005d4f0       ?validate_state_for_type_case_a@?$positional_parameter_base@_WV?$stream_output_adapter@_W@__crt_stdio_output@@@__crt_stdio_output@@IEAA_NXZ 000000018005e4f0 f i libucrtd:output.obj
 0001:0005d630       ?validate_state_for_type_case_a@?$positional_parameter_base@_WV?$string_output_adapter@_W@__crt_stdio_output@@@__crt_stdio_output@@IEAA_NXZ 000000018005e630 f i libucrtd:output.obj
 0001:0005d770       ?validate_state_for_type_case_a@?$standard_base@DV?$stream_output_adapter@D@__crt_stdio_output@@@__crt_stdio_output@@IEBA_NXZ 000000018005e770 f i libucrtd:output.obj
 0001:0005d780       ?validate_state_for_type_case_a@?$standard_base@DV?$string_output_adapter@D@__crt_stdio_output@@@__crt_stdio_output@@IEBA_NXZ 000000018005e780 f i libucrtd:output.obj
 0001:0005d790       ?validate_state_for_type_case_a@?$standard_base@_WV?$stream_output_adapter@_W@__crt_stdio_output@@@__crt_stdio_output@@IEBA_NXZ 000000018005e790 f i libucrtd:output.obj
 0001:0005d7a0       ?validate_state_for_type_case_a@?$standard_base@_WV?$string_output_adapter@_W@__crt_stdio_output@@@__crt_stdio_output@@IEBA_NXZ 000000018005e7a0 f i libucrtd:output.obj
 0001:0005d7b0       ?validate_stream_is_ansi_if_required@?$__acrt_stdio_char_traits@D@@SA_NQEAU_iobuf@@@Z 000000018005e7b0 f i libucrtd:output.obj
 0001:0005d940       ?validate_stream_is_ansi_if_required@?$__acrt_stdio_char_traits@_W@@SA_NQEAU_iobuf@@@Z 000000018005e940 f i libucrtd:output.obj
 0001:0005d950       ?wide_null_string@?$output_processor@DV?$stream_output_adapter@D@__crt_stdio_output@@V?$format_validation_base@DV?$stream_output_adapter@D@__crt_stdio_output@@@2@@__crt_stdio_output@@CAPEA_WXZ 000000018005e950 f i libucrtd:output.obj
 0001:0005d960       ?wide_null_string@?$output_processor@DV?$stream_output_adapter@D@__crt_stdio_output@@V?$positional_parameter_base@DV?$stream_output_adapter@D@__crt_stdio_output@@@2@@__crt_stdio_output@@CAPEA_WXZ 000000018005e960 f i libucrtd:output.obj
 0001:0005d970       ?wide_null_string@?$output_processor@DV?$stream_output_adapter@D@__crt_stdio_output@@V?$standard_base@DV?$stream_output_adapter@D@__crt_stdio_output@@@2@@__crt_stdio_output@@CAPEA_WXZ 000000018005e970 f i libucrtd:output.obj
 0001:0005d980       ?wide_null_string@?$output_processor@DV?$string_output_adapter@D@__crt_stdio_output@@V?$format_validation_base@DV?$string_output_adapter@D@__crt_stdio_output@@@2@@__crt_stdio_output@@CAPEA_WXZ 000000018005e980 f i libucrtd:output.obj
 0001:0005d990       ?wide_null_string@?$output_processor@DV?$string_output_adapter@D@__crt_stdio_output@@V?$positional_parameter_base@DV?$string_output_adapter@D@__crt_stdio_output@@@2@@__crt_stdio_output@@CAPEA_WXZ 000000018005e990 f i libucrtd:output.obj
 0001:0005d9a0       ?wide_null_string@?$output_processor@DV?$string_output_adapter@D@__crt_stdio_output@@V?$standard_base@DV?$string_output_adapter@D@__crt_stdio_output@@@2@@__crt_stdio_output@@CAPEA_WXZ 000000018005e9a0 f i libucrtd:output.obj
 0001:0005d9b0       ?wide_null_string@?$output_processor@_WV?$stream_output_adapter@_W@__crt_stdio_output@@V?$format_validation_base@_WV?$stream_output_adapter@_W@__crt_stdio_output@@@2@@__crt_stdio_output@@CAPEA_WXZ 000000018005e9b0 f i libucrtd:output.obj
 0001:0005d9c0       ?wide_null_string@?$output_processor@_WV?$stream_output_adapter@_W@__crt_stdio_output@@V?$positional_parameter_base@_WV?$stream_output_adapter@_W@__crt_stdio_output@@@2@@__crt_stdio_output@@CAPEA_WXZ 000000018005e9c0 f i libucrtd:output.obj
 0001:0005d9d0       ?wide_null_string@?$output_processor@_WV?$stream_output_adapter@_W@__crt_stdio_output@@V?$standard_base@_WV?$stream_output_adapter@_W@__crt_stdio_output@@@2@@__crt_stdio_output@@CAPEA_WXZ 000000018005e9d0 f i libucrtd:output.obj
 0001:0005d9e0       ?wide_null_string@?$output_processor@_WV?$string_output_adapter@_W@__crt_stdio_output@@V?$format_validation_base@_WV?$string_output_adapter@_W@__crt_stdio_output@@@2@@__crt_stdio_output@@CAPEA_WXZ 000000018005e9e0 f i libucrtd:output.obj
 0001:0005d9f0       ?wide_null_string@?$output_processor@_WV?$string_output_adapter@_W@__crt_stdio_output@@V?$positional_parameter_base@_WV?$string_output_adapter@_W@__crt_stdio_output@@@2@@__crt_stdio_output@@CAPEA_WXZ 000000018005e9f0 f i libucrtd:output.obj
 0001:0005da00       ?wide_null_string@?$output_processor@_WV?$string_output_adapter@_W@__crt_stdio_output@@V?$standard_base@_WV?$string_output_adapter@_W@__crt_stdio_output@@@2@@__crt_stdio_output@@CAPEA_WXZ 000000018005ea00 f i libucrtd:output.obj
 0001:0005da10       ?write_character@?$output_adapter_common@DV?$stream_output_adapter@D@__crt_stdio_output@@@__crt_stdio_output@@QEBAXDQEAH@Z 000000018005ea10 f i libucrtd:output.obj
 0001:0005da60       ?write_character@?$output_adapter_common@_WV?$stream_output_adapter@_W@__crt_stdio_output@@@__crt_stdio_output@@QEBAX_WQEAH@Z 000000018005ea60 f i libucrtd:output.obj
 0001:0005dab0       ?write_character@?$string_output_adapter@D@__crt_stdio_output@@QEBA_NDQEAH@Z 000000018005eab0 f i libucrtd:output.obj
 0001:0005db70       ?write_character@?$string_output_adapter@_W@__crt_stdio_output@@QEBA_N_WQEAH@Z 000000018005eb70 f i libucrtd:output.obj
 0001:0005dc30       ?write_character_without_count_update@?$stream_output_adapter@D@__crt_stdio_output@@QEBA_ND@Z 000000018005ec30 f i libucrtd:output.obj
 0001:0005dcb0       ?write_character_without_count_update@?$stream_output_adapter@_W@__crt_stdio_output@@QEBA_N_W@Z 000000018005ecb0 f i libucrtd:output.obj
 0001:0005dd40       ?write_stored_string_tchar@?$output_processor@DV?$stream_output_adapter@D@__crt_stdio_output@@V?$format_validation_base@DV?$stream_output_adapter@D@__crt_stdio_output@@@2@@__crt_stdio_output@@AEAA_ND@Z 000000018005ed40 f i libucrtd:output.obj
 0001:0005df00       ?write_stored_string_tchar@?$output_processor@DV?$stream_output_adapter@D@__crt_stdio_output@@V?$positional_parameter_base@DV?$stream_output_adapter@D@__crt_stdio_output@@@2@@__crt_stdio_output@@AEAA_ND@Z 000000018005ef00 f i libucrtd:output.obj
 0001:0005e0c0       ?write_stored_string_tchar@?$output_processor@DV?$stream_output_adapter@D@__crt_stdio_output@@V?$standard_base@DV?$stream_output_adapter@D@__crt_stdio_output@@@2@@__crt_stdio_output@@AEAA_ND@Z 000000018005f0c0 f i libucrtd:output.obj
 0001:0005e280       ?write_stored_string_tchar@?$output_processor@DV?$string_output_adapter@D@__crt_stdio_output@@V?$format_validation_base@DV?$string_output_adapter@D@__crt_stdio_output@@@2@@__crt_stdio_output@@AEAA_ND@Z 000000018005f280 f i libucrtd:output.obj
 0001:0005e440       ?write_stored_string_tchar@?$output_processor@DV?$string_output_adapter@D@__crt_stdio_output@@V?$positional_parameter_base@DV?$string_output_adapter@D@__crt_stdio_output@@@2@@__crt_stdio_output@@AEAA_ND@Z 000000018005f440 f i libucrtd:output.obj
 0001:0005e600       ?write_stored_string_tchar@?$output_processor@DV?$string_output_adapter@D@__crt_stdio_output@@V?$standard_base@DV?$string_output_adapter@D@__crt_stdio_output@@@2@@__crt_stdio_output@@AEAA_ND@Z 000000018005f600 f i libucrtd:output.obj
 0001:0005e7c0       ?write_stored_string_tchar@?$output_processor@_WV?$stream_output_adapter@_W@__crt_stdio_output@@V?$format_validation_base@_WV?$stream_output_adapter@_W@__crt_stdio_output@@@2@@__crt_stdio_output@@AEAA_N_W@Z 000000018005f7c0 f i libucrtd:output.obj
 0001:0005e910       ?write_stored_string_tchar@?$output_processor@_WV?$stream_output_adapter@_W@__crt_stdio_output@@V?$positional_parameter_base@_WV?$stream_output_adapter@_W@__crt_stdio_output@@@2@@__crt_stdio_output@@AEAA_N_W@Z 000000018005f910 f i libucrtd:output.obj
 0001:0005ea60       ?write_stored_string_tchar@?$output_processor@_WV?$stream_output_adapter@_W@__crt_stdio_output@@V?$standard_base@_WV?$stream_output_adapter@_W@__crt_stdio_output@@@2@@__crt_stdio_output@@AEAA_N_W@Z 000000018005fa60 f i libucrtd:output.obj
 0001:0005ebb0       ?write_stored_string_tchar@?$output_processor@_WV?$string_output_adapter@_W@__crt_stdio_output@@V?$format_validation_base@_WV?$string_output_adapter@_W@__crt_stdio_output@@@2@@__crt_stdio_output@@AEAA_N_W@Z 000000018005fbb0 f i libucrtd:output.obj
 0001:0005ed00       ?write_stored_string_tchar@?$output_processor@_WV?$string_output_adapter@_W@__crt_stdio_output@@V?$positional_parameter_base@_WV?$string_output_adapter@_W@__crt_stdio_output@@@2@@__crt_stdio_output@@AEAA_N_W@Z 000000018005fd00 f i libucrtd:output.obj
 0001:0005ee50       ?write_stored_string_tchar@?$output_processor@_WV?$string_output_adapter@_W@__crt_stdio_output@@V?$standard_base@_WV?$string_output_adapter@_W@__crt_stdio_output@@@2@@__crt_stdio_output@@AEAA_N_W@Z 000000018005fe50 f i libucrtd:output.obj
 0001:0005efa0       ?write_string@?$stream_output_adapter@D@__crt_stdio_output@@QEBAXQEBDHQEAHAEAV__crt_deferred_errno_cache@@@Z 000000018005ffa0 f i libucrtd:output.obj
 0001:0005f020       ?write_string@?$stream_output_adapter@_W@__crt_stdio_output@@QEBAXQEB_WHQEAHAEAV__crt_deferred_errno_cache@@@Z 0000000180060020 f i libucrtd:output.obj
 0001:0005f0a0       ?write_string@?$string_output_adapter@D@__crt_stdio_output@@QEBAXQEBDHQEAHAEAV__crt_deferred_errno_cache@@@Z 00000001800600a0 f i libucrtd:output.obj
 0001:0005f210       ?write_string@?$string_output_adapter@_W@__crt_stdio_output@@QEBAXQEB_WHQEAHAEAV__crt_deferred_errno_cache@@@Z 0000000180060210 f i libucrtd:output.obj
 0001:0005f380       ?write_string_impl@?$output_adapter_common@DV?$stream_output_adapter@D@__crt_stdio_output@@@__crt_stdio_output@@IEBAXQEBDHQEAHAEAV__crt_deferred_errno_cache@@@Z 0000000180060380 f i libucrtd:output.obj
 0001:0005f460       ?write_string_impl@?$output_adapter_common@_WV?$stream_output_adapter@_W@__crt_stdio_output@@@__crt_stdio_output@@IEBAXQEB_WHQEAHAEAV__crt_deferred_errno_cache@@@Z 0000000180060460 f i libucrtd:output.obj
 0001:0005f540       __acrt_disable_global_locale_sync 0000000180060540 f i libucrtd:output.obj
 0001:0005f570       __acrt_enable_global_locale_sync 0000000180060570 f i libucrtd:output.obj
 0001:0005f5a0       __acrt_isleadbyte_l_noupdate 00000001800605a0 f i libucrtd:output.obj
 0001:0005f5d0       __acrt_locale_changed      00000001800605d0 f i libucrtd:output.obj
 0001:0005f600       __acrt_locale_get_ctype_array_value 0000000180060600 f i libucrtd:output.obj
 0001:0005f640       __stdio_common_vfprintf    0000000180060640 f   libucrtd:output.obj
 0001:0005f680       __stdio_common_vfprintf_p  0000000180060680 f   libucrtd:output.obj
 0001:0005f6c0       __stdio_common_vfprintf_s  00000001800606c0 f   libucrtd:output.obj
 0001:0005f700       __stdio_common_vfwprintf   0000000180060700 f   libucrtd:output.obj
 0001:0005f740       __stdio_common_vfwprintf_p 0000000180060740 f   libucrtd:output.obj
 0001:0005f780       __stdio_common_vfwprintf_s 0000000180060780 f   libucrtd:output.obj
 0001:0005f7c0       __stdio_common_vsnprintf_s 00000001800607c0 f   libucrtd:output.obj
 0001:0005f820       __stdio_common_vsnwprintf_s 0000000180060820 f   libucrtd:output.obj
 0001:0005f880       __stdio_common_vsprintf    0000000180060880 f   libucrtd:output.obj
 0001:0005f8d0       __stdio_common_vsprintf_p  00000001800608d0 f   libucrtd:output.obj
 0001:0005f920       __stdio_common_vsprintf_s  0000000180060920 f   libucrtd:output.obj
 0001:0005f970       __stdio_common_vswprintf   0000000180060970 f   libucrtd:output.obj
 0001:0005f9c0       __stdio_common_vswprintf_p 00000001800609c0 f   libucrtd:output.obj
 0001:0005fa10       __stdio_common_vswprintf_s 0000000180060a10 f   libucrtd:output.obj
 0001:0005fa60       _ctype_fast_check_internal 0000000180060a60 f i libucrtd:output.obj
 0001:0005fa90       _isdigit_fast_internal     0000000180060a90 f i libucrtd:output.obj
 0001:0005fac0       _tolower_fast_internal     0000000180060ac0 f i libucrtd:output.obj
 0001:0005faf0       ??$__crt_fast_decode_pointer@P6AXPEB_W00I_K@Z@@YAP6AXPEB_W00I_K@ZQ6AX000I1@Z@Z 0000000180060af0 f i libucrtd:invalid_parameter.obj
 0001:0005fb30       ??$__crt_fast_encode_pointer@P6AXPEB_W00I_K@Z@@YAP6AXPEB_W00I_K@ZQ6AX000I1@Z@Z 0000000180060b30 f i libucrtd:invalid_parameter.obj
 0001:0005fb70       ??$initialize_from_array@$$BY00Q6AXPEB_W00I_K@Z@?$dual_state_global@P6AXPEB_W00I_K@Z@__crt_state_management@@QEAAXAEAY00Q6AXPEB_W00I_K@Z@Z 0000000180060b70 f i libucrtd:invalid_parameter.obj
 0001:0005fbd0       ?__crt_rotate_pointer_value@@YA_K_KH@Z 0000000180060bd0 f i libucrtd:invalid_parameter.obj
 0001:0005fc90       ?dangerous_get_state_array@?$dual_state_global@P6AXPEB_W00I_K@Z@__crt_state_management@@QEAAPEAP6AXPEB_W00I_K@ZXZ 0000000180060c90 f i libucrtd:invalid_parameter.obj
 0001:0005fca0       ?get_current_state_index@__crt_state_management@@YA_KXZ 0000000180060ca0 f i libucrtd:invalid_parameter.obj
 0001:0005fcb0       ?value@?$dual_state_global@P6AXPEB_W00I_K@Z@__crt_state_management@@QEAAAEAP6AXPEB_W00I_K@ZXZ 0000000180060cb0 f i libucrtd:invalid_parameter.obj
 0001:0005fcd0       __acrt_call_reportfault    0000000180060cd0 f   libucrtd:invalid_parameter.obj
 0001:0005fe00       __acrt_initialize_invalid_parameter_handler 0000000180060e00 f   libucrtd:invalid_parameter.obj
 0001:0005fe30       _get_invalid_parameter_handler 0000000180060e30 f   libucrtd:invalid_parameter.obj
 0001:0005fe50       _get_thread_local_invalid_parameter_handler 0000000180060e50 f   libucrtd:invalid_parameter.obj
 0001:0005fe80       _invalid_parameter         0000000180060e80 f   libucrtd:invalid_parameter.obj
 0001:0005ff80       _invalid_parameter_noinfo  0000000180060f80 f   libucrtd:invalid_parameter.obj
 0001:0005ffb0       _invalid_parameter_noinfo_noreturn 0000000180060fb0 f   libucrtd:invalid_parameter.obj
 0001:0005fff0       _invoke_watson             0000000180060ff0 f   libucrtd:invalid_parameter.obj
 0001:00060050       _set_invalid_parameter_handler 0000000180061050 f   libucrtd:invalid_parameter.obj
 0001:000600a0       _set_thread_local_invalid_parameter_handler 00000001800610a0 f   libucrtd:invalid_parameter.obj
 0001:000600e0       __acrt_errno_from_os_error 00000001800610e0 f   libucrtd:errno.obj
 0001:00060170       __acrt_errno_map_os_error  0000000180061170 f   libucrtd:errno.obj
 0001:000601a0       __doserrno                 00000001800611a0 f   libucrtd:errno.obj
 0001:000601d0       _errno                     00000001800611d0 f   libucrtd:errno.obj
 0001:00060200       _get_doserrno              0000000180061200 f   libucrtd:errno.obj
 0001:000602c0       _get_errno                 00000001800612c0 f   libucrtd:errno.obj
 0001:00060380       _set_doserrno              0000000180061380 f   libucrtd:errno.obj
 0001:000603c0       _set_errno                 00000001800613c0 f   libucrtd:errno.obj
 0001:00060400       _recalloc                  0000000180061400 f   libucrtd:recalloc.obj
 0001:00060450       _recalloc_base             0000000180061450 f   libucrtd:recalloc.obj
 0001:00060bb0       wcscat_s                   0000000180061bb0 f   libucrtd:wcscat_s.obj
 0001:00061280       wcsncpy_s                  0000000180062280 f   libucrtd:wcsncpy_s.obj
 0001:00061330       _seh_filter_dll            0000000180062330 f   libucrtd:exception_filter.obj
 0001:00061360       _seh_filter_exe            0000000180062360 f   libucrtd:exception_filter.obj
 0001:00061600       ??$?B$$A6AXPEAXK0@Z@__crt_fast_encoded_nullptr_t@@QEBAP6AXPEAXK0@ZXZ 0000000180062600 f i libucrtd:exit.obj
 0001:000616b0       ??$__crt_fast_decode_pointer@P6AXPEAXK0@Z@@YAP6AXPEAXK0@ZQ6AX0K0@Z@Z 00000001800626b0 f i libucrtd:exit.obj
 0001:000616f0       ??$__crt_fast_encode_pointer@P6AXPEAXK0@Z@@YAP6AXPEAXK0@ZQ6AX0K0@Z@Z 00000001800626f0 f i libucrtd:exit.obj
 0001:00061730       ??$__crt_get_proc_address@P6AXI@Z@@YAP6AXI@ZQEAUHINSTANCE__@@QEBD@Z 0000000180062730 f i libucrtd:exit.obj
 0001:000617f0       ??0?$__crt_unique_handle_t@U__crt_hmodule_traits@@@@QEAA@QEAUHINSTANCE__@@@Z 00000001800627f0 f i libucrtd:exit.obj
 0001:00061810       ??1?$__crt_unique_handle_t@U__crt_hmodule_traits@@@@QEAA@XZ 0000000180062810 f i libucrtd:exit.obj
 0001:00061970       ?__acrt_select_exit_lock@@YA?AW4__acrt_lock_id@@XZ 0000000180062970 f i libucrtd:exit.obj
 0001:00061980       ?__crt_fast_encode_pointer@@YA?AU__crt_fast_encoded_nullptr_t@@$$T@Z 0000000180062980 f i libucrtd:exit.obj
 0001:000619c0       ?close@?$__crt_unique_handle_t@U__crt_hmodule_traits@@@@QEAAXXZ 00000001800629c0 f i libucrtd:exit.obj
 0001:00061a00       ?close@__crt_hmodule_traits@@SA_NPEAUHINSTANCE__@@@Z 0000000180062a00 f i libucrtd:exit.obj
 0001:00061b10       ?get@?$__crt_unique_handle_t@U__crt_hmodule_traits@@@@QEBAPEAUHINSTANCE__@@XZ 0000000180062b10 f i libucrtd:exit.obj
 0001:00061b20       ?get_address_of@?$__crt_unique_handle_t@U__crt_hmodule_traits@@@@QEAAPEAPEAUHINSTANCE__@@XZ 0000000180062b20 f i libucrtd:exit.obj
 0001:00061b30       ?get_invalid_value@__crt_hmodule_traits@@SAPEAUHINSTANCE__@@XZ 0000000180062b30 f i libucrtd:exit.obj
 0001:00061cf0       _Exit                      0000000180062cf0 f   libucrtd:exit.obj
 0001:00061d10       __acrt_initialize_thread_local_exit_callback 0000000180062d10 f   libucrtd:exit.obj
 0001:00061d30       _c_exit                    0000000180062d30 f   libucrtd:exit.obj
 0001:00061d50       _cexit                     0000000180062d50 f   libucrtd:exit.obj
 0001:00061d70       _exit                      0000000180062d70 f   libucrtd:exit.obj
 0001:00061d90       _is_c_termination_complete 0000000180062d90 f   libucrtd:exit.obj
 0001:00061db0       _register_thread_local_exe_atexit_callback 0000000180062db0 f   libucrtd:exit.obj
 0001:00061e00       exit                       0000000180062e00 f   libucrtd:exit.obj
 0001:00061e20       quick_exit                 0000000180062e20 f   libucrtd:exit.obj
 0001:00061e40       ??$?RE@__crt_internal_free_policy@@QEBAXQEBE@Z 0000000180062e40 f i libucrtd:argv_parsing.obj
 0001:00061e70       ??$?RPEAD@__crt_internal_free_policy@@QEBAXQEBQEAD@Z 0000000180062e70 f i libucrtd:argv_parsing.obj
 0001:00061ea0       ??$?RPEA_W@__crt_internal_free_policy@@QEBAXQEBQEA_W@Z 0000000180062ea0 f i libucrtd:argv_parsing.obj
 0001:000625f0       ??$get_module_file_name@$$TAEAY0BAF@DH@?$__crt_char_traits@D@@SAK$$QEA$$TAEAY0BAF@D$$QEAH@Z 00000001800635f0 f i libucrtd:argv_parsing.obj
 0001:00062630       ??$get_module_file_name@$$TAEAY0BAF@_WH@?$__crt_char_traits@_W@@SAK$$QEA$$TAEAY0BAF@_W$$QEAH@Z 0000000180063630 f i libucrtd:argv_parsing.obj
 0001:00062fe0       ??$set_program_name@PEAD@?$__crt_char_traits@D@@SAX$$QEAPEAD@Z 0000000180063fe0 f i libucrtd:argv_parsing.obj
 0001:00063000       ??$set_program_name@PEA_W@?$__crt_char_traits@_W@@SAX$$QEAPEA_W@Z 0000000180064000 f i libucrtd:argv_parsing.obj
 0001:00063060       ??0?$__crt_unique_heap_ptr@EU__crt_internal_free_policy@@@@QEAA@QEAE@Z 0000000180064060 f i libucrtd:argv_parsing.obj
 0001:00063080       ??0?$__crt_unique_heap_ptr@PEADU__crt_internal_free_policy@@@@QEAA@QEAPEAD@Z 0000000180064080 f i libucrtd:argv_parsing.obj
 0001:000630a0       ??0?$__crt_unique_heap_ptr@PEA_WU__crt_internal_free_policy@@@@QEAA@QEAPEA_W@Z 00000001800640a0 f i libucrtd:argv_parsing.obj
 0001:000630c0       ??1?$__crt_unique_heap_ptr@EU__crt_internal_free_policy@@@@QEAA@XZ 00000001800640c0 f i libucrtd:argv_parsing.obj
 0001:000630e0       ??1?$__crt_unique_heap_ptr@PEADU__crt_internal_free_policy@@@@QEAA@XZ 00000001800640e0 f i libucrtd:argv_parsing.obj
 0001:00063100       ??1?$__crt_unique_heap_ptr@PEA_WU__crt_internal_free_policy@@@@QEAA@XZ 0000000180064100 f i libucrtd:argv_parsing.obj
 0001:00063120       ??B?$__crt_unique_heap_ptr@EU__crt_internal_free_policy@@@@QEBA_NXZ 0000000180064120 f i libucrtd:argv_parsing.obj
 0001:00063200       ?detach@?$__crt_unique_heap_ptr@EU__crt_internal_free_policy@@@@QEAAPEAEXZ 0000000180064200 f i libucrtd:argv_parsing.obj
 0001:00063230       ?detach@?$__crt_unique_heap_ptr@PEADU__crt_internal_free_policy@@@@QEAAPEAPEADXZ 0000000180064230 f i libucrtd:argv_parsing.obj
 0001:00063260       ?detach@?$__crt_unique_heap_ptr@PEA_WU__crt_internal_free_policy@@@@QEAAPEAPEA_WXZ 0000000180064260 f i libucrtd:argv_parsing.obj
 0001:00063320       ?get@?$__crt_unique_heap_ptr@EU__crt_internal_free_policy@@@@QEBAPEAEXZ 0000000180064320 f i libucrtd:argv_parsing.obj
 0001:00063330       ?get@?$__crt_unique_heap_ptr@PEADU__crt_internal_free_policy@@@@QEBAPEAPEADXZ 0000000180064330 f i libucrtd:argv_parsing.obj
 0001:00063340       ?get@?$__crt_unique_heap_ptr@PEA_WU__crt_internal_free_policy@@@@QEBAPEAPEA_WXZ 0000000180064340 f i libucrtd:argv_parsing.obj
 0001:00063350       ?get_address_of@?$__crt_unique_heap_ptr@PEADU__crt_internal_free_policy@@@@QEAAPEAPEAPEADXZ 0000000180064350 f i libucrtd:argv_parsing.obj
 0001:00063360       ?get_address_of@?$__crt_unique_heap_ptr@PEA_WU__crt_internal_free_policy@@@@QEAAPEAPEAPEA_WXZ 0000000180064360 f i libucrtd:argv_parsing.obj
 0001:000633b0       ?is_valid@?$__crt_unique_heap_ptr@EU__crt_internal_free_policy@@@@QEBA_NXZ 00000001800643b0 f i libucrtd:argv_parsing.obj
 0001:000633e0       ?release@?$__crt_unique_heap_ptr@EU__crt_internal_free_policy@@@@QEAAXXZ 00000001800643e0 f i libucrtd:argv_parsing.obj
 0001:00063410       ?release@?$__crt_unique_heap_ptr@PEADU__crt_internal_free_policy@@@@QEAAXXZ 0000000180064410 f i libucrtd:argv_parsing.obj
 0001:00063440       ?release@?$__crt_unique_heap_ptr@PEA_WU__crt_internal_free_policy@@@@QEAAXXZ 0000000180064440 f i libucrtd:argv_parsing.obj
 0001:000634c0       __acrt_allocate_buffer_for_argv 00000001800644c0 f   libucrtd:argv_parsing.obj
 0001:000635e0       _configure_narrow_argv     00000001800645e0 f   libucrtd:argv_parsing.obj
 0001:00063600       _configure_wide_argv       0000000180064600 f   libucrtd:argv_parsing.obj
 0001:00063620       _set_pgmptr                0000000180064620 f i libucrtd:argv_parsing.obj
 0001:00063640       _set_wpgmptr               0000000180064640 f i libucrtd:argv_parsing.obj
 0001:00063654       ??$?R_W@__crt_internal_free_policy@@QEBAXQEB_W@Z 0000000180064654 f i libucrtd:environment_initialization.obj
 0001:00063c2c       ??$get_environment_from_os@$$V@?$__crt_char_traits@D@@SAPEADXZ 0000000180064c2c f i libucrtd:environment_initialization.obj
 0001:00063c34       ??$get_environment_from_os@$$V@?$__crt_char_traits@_W@@SAPEA_WXZ 0000000180064c34 f i libucrtd:environment_initialization.obj
 0001:00063e04       ??$set_variable_in_environment_nolock@PEADH@?$__crt_char_traits@D@@SAH$$QEAPEAD$$QEAH@Z 0000000180064e04 f i libucrtd:environment_initialization.obj
 0001:00063e10       ??$set_variable_in_environment_nolock@PEA_WH@?$__crt_char_traits@_W@@SAH$$QEAPEA_W$$QEAH@Z 0000000180064e10 f i libucrtd:environment_initialization.obj
 0001:00063e1c       ??$tcscpy_s@PEADAEB_KAEAPEAD@?$__crt_char_traits@D@@SAH$$QEAPEADAEB_KAEAPEAD@Z 0000000180064e1c f i libucrtd:environment_initialization.obj
 0001:00063e2c       ??$tcscpy_s@PEA_WAEB_KAEAPEA_W@?$__crt_char_traits@_W@@SAH$$QEAPEA_WAEB_KAEAPEA_W@Z 0000000180064e2c f i libucrtd:environment_initialization.obj
 0001:00063e3c       ??$tcslen@AEAPEAD@?$__crt_char_traits@D@@SA_KAEAPEAD@Z 0000000180064e3c f i libucrtd:environment_initialization.obj
 0001:00063e50       ??$tcslen@AEAPEA_W@?$__crt_char_traits@_W@@SA_KAEAPEA_W@Z 0000000180064e50 f i libucrtd:environment_initialization.obj
 0001:00063e64       ??$uninitialize@A6AXAEAPEAPEAD@Z@?$dual_state_global@PEAPEAD@__crt_state_management@@QEAAXA6AXAEAPEAPEAD@Z@Z 0000000180064e64 f i libucrtd:environment_initialization.obj
 0001:00063ea8       ??$uninitialize@A6AXAEAPEAPEA_W@Z@?$dual_state_global@PEAPEA_W@__crt_state_management@@QEAAXA6AXAEAPEAPEA_W@Z@Z 0000000180064ea8 f i libucrtd:environment_initialization.obj
 0001:00063f24       ??0?$__crt_unique_heap_ptr@_WU__crt_internal_free_policy@@@@QEAA@QEA_W@Z 0000000180064f24 f i libucrtd:environment_initialization.obj
 0001:00063f2c       ??1?$__crt_unique_heap_ptr@_WU__crt_internal_free_policy@@@@QEAA@XZ 0000000180064f2c f i libucrtd:environment_initialization.obj
 0001:00063f4c       ??B?$__crt_unique_heap_ptr@PEADU__crt_internal_free_policy@@@@QEBA_NXZ 0000000180064f4c f i libucrtd:environment_initialization.obj
 0001:00063f54       ??B?$__crt_unique_heap_ptr@PEA_WU__crt_internal_free_policy@@@@QEBA_NXZ 0000000180064f54 f i libucrtd:environment_initialization.obj
 0001:00063f5c       ??B?$__crt_unique_heap_ptr@_WU__crt_internal_free_policy@@@@QEBA_NXZ 0000000180064f5c f i libucrtd:environment_initialization.obj
 0001:00063f64       ?__crt_compute_required_transform_buffer_count@@YA_KIQEBD@Z 0000000180064f64 f i libucrtd:environment_initialization.obj
 0001:00063f88       ?__crt_compute_required_transform_buffer_count@@YA_KIQEB_W@Z 0000000180064f88 f i libucrtd:environment_initialization.obj
 0001:00063fb8       ?__crt_transform_string@@YA_KIQEBDQEA_W_K@Z 0000000180064fb8 f i libucrtd:environment_initialization.obj
 0001:00063fdc       ?__crt_transform_string@@YA_KIQEB_WQEAD_K@Z 0000000180064fdc f i libucrtd:environment_initialization.obj
 0001:0006400c       ?detach@?$__crt_unique_heap_ptr@DU__crt_internal_free_policy@@@@QEAAPEADXZ 000000018006500c f i libucrtd:environment_initialization.obj
 0001:00064014       ?detach@?$__crt_unique_heap_ptr@_WU__crt_internal_free_policy@@@@QEAAPEA_WXZ 0000000180065014 f i libucrtd:environment_initialization.obj
 0001:0006401c       ?get@?$__crt_unique_heap_ptr@_WU__crt_internal_free_policy@@@@QEBAPEA_WXZ 000000018006501c f i libucrtd:environment_initialization.obj
 0001:00064050       ?initialize@?$dual_state_global@PEAPEAD@__crt_state_management@@QEAAXQEAPEAD@Z 0000000180065050 f i libucrtd:environment_initialization.obj
 0001:00064078       ?initialize@?$dual_state_global@PEAPEA_W@__crt_state_management@@QEAAXQEAPEA_W@Z 0000000180065078 f i libucrtd:environment_initialization.obj
 0001:000640a0       ?is_valid@?$__crt_unique_heap_ptr@PEADU__crt_internal_free_policy@@@@QEBA_NXZ 00000001800650a0 f i libucrtd:environment_initialization.obj
 0001:000640a8       ?is_valid@?$__crt_unique_heap_ptr@PEA_WU__crt_internal_free_policy@@@@QEBA_NXZ 00000001800650a8 f i libucrtd:environment_initialization.obj
 0001:000640b0       ?is_valid@?$__crt_unique_heap_ptr@_WU__crt_internal_free_policy@@@@QEBA_NXZ 00000001800650b0 f i libucrtd:environment_initialization.obj
 0001:000640c4       ?release@?$__crt_unique_heap_ptr@_WU__crt_internal_free_policy@@@@QEAAXXZ 00000001800650c4 f i libucrtd:environment_initialization.obj
 0001:000640e4       ?value@?$dual_state_global@PEAPEAD@__crt_state_management@@QEAAAEAPEAPEADXZ 00000001800650e4 f i libucrtd:environment_initialization.obj
 0001:000640e8       ?value@?$dual_state_global@PEAPEA_W@__crt_state_management@@QEAAAEAPEAPEA_WXZ 00000001800650e8 f i libucrtd:environment_initialization.obj
 0001:000640ec       __dcrt_get_or_create_narrow_environment_nolock 00000001800650ec f   libucrtd:environment_initialization.obj
 0001:00064128       __dcrt_get_or_create_wide_environment_nolock 0000000180065128 f   libucrtd:environment_initialization.obj
 0001:00064164       __dcrt_uninitialize_environments_nolock 0000000180065164 f   libucrtd:environment_initialization.obj
 0001:0006419c       __p__environ               000000018006519c f   libucrtd:environment_initialization.obj
 0001:000641a4       __p__wenviron              00000001800651a4 f   libucrtd:environment_initialization.obj
 0001:000641ac       _get_initial_narrow_environment 00000001800651ac f   libucrtd:environment_initialization.obj
 0001:000641fc       _get_initial_wide_environment 00000001800651fc f   libucrtd:environment_initialization.obj
 0001:0006424c       _initialize_narrow_environment 000000018006524c f   libucrtd:environment_initialization.obj
 0001:00064254       _initialize_wide_environment 0000000180065254 f   libucrtd:environment_initialization.obj
 0001:00064260       ??$?B$$A6AXXZ@__crt_fast_encoded_nullptr_t@@QEBAP6AXXZXZ 0000000180065260 f i libucrtd:onexit.obj
 0001:00064280       ??$?BP6AXXZ@__crt_fast_encoded_nullptr_t@@QEBAPEAP6AXXZXZ 0000000180065280 f i libucrtd:onexit.obj
 0001:000642a0       ??$?RP6AXXZ@__crt_internal_free_policy@@QEBAXQEBQ6AXXZ@Z 00000001800652a0 f i libucrtd:onexit.obj
 0001:00064410       ??$__crt_fast_decode_pointer@P6AXXZ@@YAP6AXXZQ6AXXZ@Z 0000000180065410 f i libucrtd:onexit.obj
 0001:00064450       ??$__crt_fast_decode_pointer@PEAP6AXXZ@@YAPEAP6AXXZQEAP6AXXZ@Z 0000000180065450 f i libucrtd:onexit.obj
 0001:00064490       ??$__crt_fast_encode_pointer@P6AHXZ@@YAP6AHXZQ6AHXZ@Z 0000000180065490 f i libucrtd:onexit.obj
 0001:000644d0       ??$__crt_fast_encode_pointer@P6AXXZ@@YAP6AXXZQ6AXXZ@Z 00000001800654d0 f i libucrtd:onexit.obj
 0001:00064510       ??$__crt_fast_encode_pointer@PEAP6AXXZ@@YAPEAP6AXXZQEAP6AXXZ@Z 0000000180065510 f i libucrtd:onexit.obj
 0001:00064620       ??0?$__crt_unique_heap_ptr@P6AXXZU__crt_internal_free_policy@@@@QEAA@QEAP6AXXZ@Z 0000000180065620 f i libucrtd:onexit.obj
 0001:00064640       ??1?$__crt_unique_heap_ptr@P6AXXZU__crt_internal_free_policy@@@@QEAA@XZ 0000000180065640 f i libucrtd:onexit.obj
 0001:00064660       ??1scoped_global_state_reset@__crt_state_management@@QEAA@XZ 0000000180065660 f i libucrtd:onexit.obj
 0001:00064c30       ?detach@?$__crt_unique_heap_ptr@P6AXXZU__crt_internal_free_policy@@@@QEAAPEAP6AXXZXZ 0000000180065c30 f i libucrtd:onexit.obj
 0001:00064c60       ?release@?$__crt_unique_heap_ptr@P6AXXZU__crt_internal_free_policy@@@@QEAAXXZ 0000000180065c60 f i libucrtd:onexit.obj
 0001:00064c90       _crt_at_quick_exit         0000000180065c90 f   libucrtd:onexit.obj
 0001:00064cb0       _crt_atexit                0000000180065cb0 f   libucrtd:onexit.obj
 0001:00064cd0       _execute_onexit_table      0000000180065cd0 f   libucrtd:onexit.obj
 0001:00064d10       _initialize_onexit_table   0000000180065d10 f   libucrtd:onexit.obj
 0001:00064d90       _register_onexit_function  0000000180065d90 f   libucrtd:onexit.obj
 0001:00065000       ??$?BX@__crt_fast_encoded_nullptr_t@@QEBAPEAXXZ 0000000180066000 f i libucrtd:initialization.obj
 0001:00065020       ??$__crt_fast_encode_pointer@PEAX@@YAPEAXQEAX@Z 0000000180066020 f i libucrtd:initialization.obj
 0001:00065110       ?initialize@?$dual_state_global@PEAU__crt_locale_data@@@__crt_state_management@@QEAAXQEAU__crt_locale_data@@@Z 0000000180066110 f i libucrtd:initialization.obj
 0001:00065160       __acrt_initialize          0000000180066160 f   libucrtd:initialization.obj
 0001:00065190       __acrt_thread_attach       0000000180066190 f   libucrtd:initialization.obj
 0001:000651b0       __acrt_thread_detach       00000001800661b0 f   libucrtd:initialization.obj
 0001:000651c0       __acrt_uninitialize        00000001800661c0 f   libucrtd:initialization.obj
 0001:000651f0       __acrt_uninitialize_critical 00000001800661f0 f   libucrtd:initialization.obj
 0001:000671e0       _CrtCheckMemory            00000001800681e0 f   libucrtd:debug_heap.obj
 0001:00067370       _CrtDoForAllClientObjects  0000000180068370 f   libucrtd:debug_heap.obj
 0001:000674a0       _CrtDumpMemoryLeaks        00000001800684a0 f   libucrtd:debug_heap.obj
 0001:00067560       _CrtGetAllocHook           0000000180068560 f   libucrtd:debug_heap.obj
 0001:00067570       _CrtGetDumpClient          0000000180068570 f   libucrtd:debug_heap.obj
 0001:00067580       _CrtIsMemoryBlock          0000000180068580 f   libucrtd:debug_heap.obj
 0001:000676c0       _CrtIsValidHeapPointer     00000001800686c0 f   libucrtd:debug_heap.obj
 0001:00067700       _CrtIsValidPointer         0000000180068700 f   libucrtd:debug_heap.obj
 0001:00067740       _CrtMemCheckpoint          0000000180068740 f   libucrtd:debug_heap.obj
 0001:000679c0       _CrtMemDifference          00000001800689c0 f   libucrtd:debug_heap.obj
 0001:00067d20       _CrtMemDumpAllObjectsSince 0000000180068d20 f   libucrtd:debug_heap.obj
 0001:00067d80       _CrtMemDumpStatistics      0000000180068d80 f   libucrtd:debug_heap.obj
 0001:00067f20       _CrtReportBlockType        0000000180068f20 f   libucrtd:debug_heap.obj
 0001:00067f50       _CrtSetAllocHook           0000000180068f50 f   libucrtd:debug_heap.obj
 0001:00067f80       _CrtSetBreakAlloc          0000000180068f80 f   libucrtd:debug_heap.obj
 0001:00067fb0       _CrtSetDbgBlockType        0000000180068fb0 f   libucrtd:debug_heap.obj
 0001:00068050       _CrtSetDbgFlag             0000000180069050 f   libucrtd:debug_heap.obj
 0001:000681b0       _CrtSetDumpClient          00000001800691b0 f   libucrtd:debug_heap.obj
 0001:000681e0       __acrt_get_locale_data_prefix 00000001800691e0 f i libucrtd:debug_heap.obj
 0001:00068200       __p__crtBreakAlloc         0000000180069200 f   libucrtd:debug_heap.obj
 0001:00068210       __p__crtDbgFlag            0000000180069210 f   libucrtd:debug_heap.obj
 0001:00068220       _aligned_free_dbg          0000000180069220 f   libucrtd:debug_heap.obj
 0001:00068310       _aligned_malloc_dbg        0000000180069310 f   libucrtd:debug_heap.obj
 0001:00068350       _aligned_msize_dbg         0000000180069350 f   libucrtd:debug_heap.obj
 0001:00068520       _aligned_offset_malloc_dbg 0000000180069520 f   libucrtd:debug_heap.obj
 0001:00068810       _aligned_offset_realloc_dbg 0000000180069810 f   libucrtd:debug_heap.obj
 0001:00068cc0       _aligned_offset_recalloc_dbg 0000000180069cc0 f   libucrtd:debug_heap.obj
 0001:00068de0       _aligned_realloc_dbg       0000000180069de0 f   libucrtd:debug_heap.obj
 0001:00068e30       _aligned_recalloc_dbg      0000000180069e30 f   libucrtd:debug_heap.obj
 0001:00068e90       _calloc_dbg                0000000180069e90 f   libucrtd:debug_heap.obj
 0001:00068f30       _chvalidchk_l              0000000180069f30 f i libucrtd:debug_heap.obj
 0001:00068f60       _expand_dbg                0000000180069f60 f   libucrtd:debug_heap.obj
 0001:00069090       _free_dbg                  000000018006a090 f   libucrtd:debug_heap.obj
 0001:00069100       _ischartype_l              000000018006a100 f i libucrtd:debug_heap.obj
 0001:00069190       _malloc_dbg                000000018006a190 f   libucrtd:debug_heap.obj
 0001:000691d0       _msize_dbg                 000000018006a1d0 f   libucrtd:debug_heap.obj
 0001:00069370       _realloc_dbg               000000018006a370 f   libucrtd:debug_heap.obj
 0001:000693e0       _recalloc_dbg              000000018006a3e0 f   libucrtd:debug_heap.obj
 0001:000694e0       _initterm                  000000018006a4e0 f   libucrtd:initterm.obj
 0001:00069540       _initterm_e                000000018006a540 f   libucrtd:initterm.obj
 0001:00069600       _get_terminate             000000018006a600 f   libucrtd:terminate.obj
 0001:00069620       set_terminate              000000018006a620 f   libucrtd:terminate.obj
 0001:00069660       terminate                  000000018006a660 f   libucrtd:terminate.obj
 0001:00069b70       strcpy_s                   000000018006ab70 f   libucrtd:strcpy_s.obj
 0001:0006a210       strcat_s                   000000018006b210 f   libucrtd:strcat_s.obj
 0001:0006b000       _makepath                  000000018006c000 f   libucrtd:makepath.obj
 0001:0006b050       _makepath_s                000000018006c050 f   libucrtd:makepath.obj
 0001:0006b0a0       _wmakepath                 000000018006c0a0 f   libucrtd:makepath.obj
 0001:0006b0f0       _wmakepath_s               000000018006c0f0 f   libucrtd:makepath.obj
 0001:0006d720       ??$tcsncpy_s@AEAPEAD_KAEAPEBDAEB_K@?$__crt_char_traits@D@@SAHAEAPEAD$$QEA_KAEAPEBDAEB_K@Z 000000018006e720 f i libucrtd:splitpath.obj
 0001:0006d770       ??$tcsncpy_s@AEAPEAD_KAEAPEBDH@?$__crt_char_traits@D@@SAHAEAPEAD$$QEA_KAEAPEBD$$QEAH@Z 000000018006e770 f i libucrtd:splitpath.obj
 0001:0006d7c0       ??$tcsncpy_s@AEAPEA_W_KAEAPEB_WAEB_K@?$__crt_char_traits@_W@@SAHAEAPEA_W$$QEA_KAEAPEB_WAEB_K@Z 000000018006e7c0 f i libucrtd:splitpath.obj
 0001:0006d810       ??$tcsncpy_s@AEAPEA_W_KAEAPEB_WH@?$__crt_char_traits@_W@@SAHAEAPEA_W$$QEA_KAEAPEB_W$$QEAH@Z 000000018006e810 f i libucrtd:splitpath.obj
 0001:0006dac0       _splitpath                 000000018006eac0 f   libucrtd:splitpath.obj
 0001:0006db00       _splitpath_s               000000018006eb00 f   libucrtd:splitpath.obj
 0001:0006dba0       _wsplitpath                000000018006eba0 f   libucrtd:splitpath.obj
 0001:0006dbe0       _wsplitpath_s              000000018006ebe0 f   libucrtd:splitpath.obj
 0001:0006dc80       ??$?B$$A6AH_K@Z@__crt_fast_encoded_nullptr_t@@QEBAP6AH_K@ZXZ 000000018006ec80 f i libucrtd:new_handler.obj
 0001:0006dca0       ??$__crt_fast_decode_pointer@P6AH_K@Z@@YAP6AH_K@ZQ6AH0@Z@Z 000000018006eca0 f i libucrtd:new_handler.obj
 0001:0006dce0       ??$__crt_fast_encode_pointer@P6AH_K@Z@@YAP6AH_K@ZQ6AH0@Z@Z 000000018006ece0 f i libucrtd:new_handler.obj
 0001:0006dd20       ?_set_new_handler@@YAP6AH_K@ZH@Z 000000018006ed20 f   libucrtd:new_handler.obj
 0001:0006dd90       ?initialize@?$dual_state_global@P6AH_K@Z@__crt_state_management@@QEAAXQ6AH_K@Z@Z 000000018006ed90 f i libucrtd:new_handler.obj
 0001:0006dde0       ?value@?$dual_state_global@P6AH_K@Z@__crt_state_management@@QEAAAEAP6AH_K@ZXZ 000000018006ede0 f i libucrtd:new_handler.obj
 0001:0006de00       __acrt_initialize_new_handler 000000018006ee00 f   libucrtd:new_handler.obj
 0001:0006de20       _callnewh                  000000018006ee20 f   libucrtd:new_handler.obj
 0001:0006de70       _query_new_handler         000000018006ee70 f   libucrtd:new_handler.obj
 0001:0006deb0       _set_new_handler           000000018006eeb0 f   libucrtd:new_handler.obj
 0001:0006df20       _set_abort_behavior        000000018006ef20 f   libucrtd:abort.obj
 0001:0006df60       abort                      000000018006ef60 f   libucrtd:abort.obj
 0001:0006dff0       strcmp                     000000018006eff0 f   libucrtd:strcmp.obj
 0001:0006e070       strlen                     000000018006f070 f   libucrtd:strlen.obj
 0001:0006e120       ??$is_overflow_condition@K@__crt_strtox@@YA_NIK@Z 000000018006f120 f i libucrtd:atox.obj
 0001:0006e190       ??$is_overflow_condition@_K@__crt_strtox@@YA_NI_K@Z 000000018006f190 f i libucrtd:atox.obj
 0001:0006e200       ??$make_c_string_character_source@D$$T@__crt_strtox@@YA?AV?$c_string_character_source@D@0@QEBD$$T@Z 000000018006f200 f i libucrtd:atox.obj
 0001:0006e240       ??$make_c_string_character_source@_W$$T@__crt_strtox@@YA?AV?$c_string_character_source@_W@0@QEB_W$$T@Z 000000018006f240 f i libucrtd:atox.obj
 0001:0006e280       ??$parse_integer@KV?$c_string_character_source@D@__crt_strtox@@@__crt_strtox@@YAKQEAU__crt_locale_pointers@@V?$c_string_character_source@D@0@H_N@Z 000000018006f280 f i libucrtd:atox.obj
 0001:0006e710       ??$parse_integer@KV?$c_string_character_source@_W@__crt_strtox@@@__crt_strtox@@YAKQEAU__crt_locale_pointers@@V?$c_string_character_source@_W@0@H_N@Z 000000018006f710 f i libucrtd:atox.obj
 0001:0006ebc0       ??$parse_integer@_KV?$c_string_character_source@D@__crt_strtox@@@__crt_strtox@@YA_KQEAU__crt_locale_pointers@@V?$c_string_character_source@D@0@H_N@Z 000000018006fbc0 f i libucrtd:atox.obj
 0001:0006f0e0       ??$parse_integer@_KV?$c_string_character_source@_W@__crt_strtox@@@__crt_strtox@@YA_KQEAU__crt_locale_pointers@@V?$c_string_character_source@_W@0@H_N@Z 00000001800700e0 f i libucrtd:atox.obj
 0001:0006f600       ??$parse_integer_from_string@JD$$T@__crt_strtox@@YAJQEBD$$THQEAU__crt_locale_pointers@@@Z 0000000180070600 f i libucrtd:atox.obj
 0001:0006f650       ??$parse_integer_from_string@J_W$$T@__crt_strtox@@YAJQEB_W$$THQEAU__crt_locale_pointers@@@Z 0000000180070650 f i libucrtd:atox.obj
 0001:0006f6a0       ??$parse_integer_from_string@_JD$$T@__crt_strtox@@YA_JQEBD$$THQEAU__crt_locale_pointers@@@Z 00000001800706a0 f i libucrtd:atox.obj
 0001:0006f6f0       ??$parse_integer_from_string@_J_W$$T@__crt_strtox@@YA_JQEB_W$$THQEAU__crt_locale_pointers@@@Z 00000001800706f0 f i libucrtd:atox.obj
 0001:0006f740       ??0?$c_string_character_source@D@__crt_strtox@@QEAA@QEBDQEAPEBD@Z 0000000180070740 f i libucrtd:atox.obj
 0001:0006f790       ??0?$c_string_character_source@_W@__crt_strtox@@QEAA@QEB_WQEAPEB_W@Z 0000000180070790 f i libucrtd:atox.obj
 0001:0006f7e0       ??1?$c_string_character_source@D@__crt_strtox@@QEAA@XZ 00000001800707e0 f i libucrtd:atox.obj
 0001:0006f810       ??1?$c_string_character_source@_W@__crt_strtox@@QEAA@XZ 0000000180070810 f i libucrtd:atox.obj
 0001:0006f840       ?get@?$c_string_character_source@D@__crt_strtox@@QEAADXZ 0000000180070840 f i libucrtd:atox.obj
 0001:0006f880       ?get@?$c_string_character_source@_W@__crt_strtox@@QEAA_WXZ 0000000180070880 f i libucrtd:atox.obj
 0001:0006f8c0       ?is_space@__crt_strtox@@YA_NDQEAU__crt_locale_pointers@@@Z 00000001800708c0 f i libucrtd:atox.obj
 0001:0006f910       ?is_space@__crt_strtox@@YA_N_WPEAU__crt_locale_pointers@@@Z 0000000180070910 f i libucrtd:atox.obj
 0001:0006f950       ?maximum_signed_value@__crt_strtox@@YAJK@Z 0000000180070950 f i libucrtd:atox.obj
 0001:0006f960       ?maximum_signed_value@__crt_strtox@@YA_J_K@Z 0000000180070960 f i libucrtd:atox.obj
 0001:0006f970       ?minimum_signed_value@__crt_strtox@@YAJK@Z 0000000180070970 f i libucrtd:atox.obj
 0001:0006f980       ?minimum_signed_value@__crt_strtox@@YA_J_K@Z 0000000180070980 f i libucrtd:atox.obj
 0001:0006f990       ?parse_digit@__crt_strtox@@YAID@Z 0000000180070990 f i libucrtd:atox.obj
 0001:0006fa00       ?parse_digit@__crt_strtox@@YAI_W@Z 0000000180070a00 f i libucrtd:atox.obj
 0001:0006fa50       ?restore_state@?$c_string_character_source@D@__crt_strtox@@QEAA_NQEBD@Z 0000000180070a50 f i libucrtd:atox.obj
 0001:0006fa70       ?restore_state@?$c_string_character_source@_W@__crt_strtox@@QEAA_NQEB_W@Z 0000000180070a70 f i libucrtd:atox.obj
 0001:0006fa90       ?save_state@?$c_string_character_source@D@__crt_strtox@@QEBAPEBDXZ 0000000180070a90 f i libucrtd:atox.obj
 0001:0006faa0       ?save_state@?$c_string_character_source@_W@__crt_strtox@@QEBAPEB_WXZ 0000000180070aa0 f i libucrtd:atox.obj
 0001:0006fab0       ?unget@?$c_string_character_source@D@__crt_strtox@@QEAAXD@Z 0000000180070ab0 f i libucrtd:atox.obj
 0001:0006fb90       ?unget@?$c_string_character_source@_W@__crt_strtox@@QEAAX_W@Z 0000000180070b90 f i libucrtd:atox.obj
 0001:0006fc70       ?validate@?$c_string_character_source@D@__crt_strtox@@QEBA_NXZ 0000000180070c70 f i libucrtd:atox.obj
 0001:0006fd30       ?validate@?$c_string_character_source@_W@__crt_strtox@@QEBA_NXZ 0000000180070d30 f i libucrtd:atox.obj
 0001:0006fdf0       ?wide_character_to_digit@__crt_strtox@@YAH_W@Z 0000000180070df0 f i libucrtd:atox.obj
 0001:00070160       __ascii_iswalpha           0000000180071160 f i libucrtd:atox.obj
 0001:000701a0       __ascii_toupper            00000001800711a0 f i libucrtd:atox.obj
 0001:000701c0       __ascii_towupper           00000001800711c0 f i libucrtd:atox.obj
 0001:000701e0       _atoi64                    00000001800711e0 f   libucrtd:atox.obj
 0001:00070210       _atoi64_l                  0000000180071210 f   libucrtd:atox.obj
 0001:00070240       _atoi_l                    0000000180071240 f   libucrtd:atox.obj
 0001:00070270       _atol_l                    0000000180071270 f   libucrtd:atox.obj
 0001:000702a0       _atoll_l                   00000001800712a0 f   libucrtd:atox.obj
 0001:000702d0       _wtoi                      00000001800712d0 f   libucrtd:atox.obj
 0001:00070300       _wtoi64                    0000000180071300 f   libucrtd:atox.obj
 0001:00070330       _wtoi64_l                  0000000180071330 f   libucrtd:atox.obj
 0001:00070360       _wtoi_l                    0000000180071360 f   libucrtd:atox.obj
 0001:00070390       _wtol                      0000000180071390 f   libucrtd:atox.obj
 0001:000703c0       _wtol_l                    00000001800713c0 f   libucrtd:atox.obj
 0001:000703f0       _wtoll                     00000001800713f0 f   libucrtd:atox.obj
 0001:00070420       _wtoll_l                   0000000180071420 f   libucrtd:atox.obj
 0001:00070450       atoi                       0000000180071450 f   libucrtd:atox.obj
 0001:00070480       atol                       0000000180071480 f   libucrtd:atox.obj
 0001:000704b0       atoll                      00000001800714b0 f   libucrtd:atox.obj
 0001:000704f0       strncmp                    00000001800714f0 f   libucrtd:strncmp.obj
 0001:00070570       wcsncmp                    0000000180071570 f   libucrtd:wcsncmp.obj
 0001:00070600       _CrtGetReportHook          0000000180071600 f   libucrtd:dbgrptt.obj
 0001:00070610       _CrtSetReportFile          0000000180071610 f   libucrtd:dbgrptt.obj
 0001:00070770       _CrtSetReportHook          0000000180071770 f   libucrtd:dbgrptt.obj
 0001:000707a0       _CrtSetReportMode          00000001800717a0 f   libucrtd:dbgrptt.obj
 0001:00070950       _VCrtDbgReportA            0000000180071950 f   libucrtd:dbgrptt.obj
 0001:00071330       _VCrtDbgReportW            0000000180072330 f   libucrtd:dbgrptt.obj
 0001:00071eb0       _snprintf_s                0000000180072eb0 f i libucrtd:dbgrptt.obj
 0001:00071f20       _vsnprintf_s               0000000180072f20 f i libucrtd:dbgrptt.obj
 0001:00071f70       _vsnprintf_s_l             0000000180072f70 f i libucrtd:dbgrptt.obj
 0001:00072190       ??$__acrt_wcs_to_mbs_cp@U__crt_win32_buffer_no_resizing@@@@YAHQEB_WAEAV?$__crt_win32_buffer@DU__crt_win32_buffer_no_resizing@@@@I@Z 0000000180073190 f i libucrtd:getmodulefilenamea.obj
 0001:000721e0       ??0?$__crt_win32_buffer@DU__crt_win32_buffer_no_resizing@@@@QEAA@QEAD_K@Z 00000001800731e0 f i libucrtd:getmodulefilenamea.obj
 0001:00072250       ??1?$__crt_win32_buffer@DU__crt_win32_buffer_no_resizing@@@@QEAA@XZ 0000000180073250 f i libucrtd:getmodulefilenamea.obj
 0001:000722e0       ?__acrt_get_utf8_acp_compatibility_codepage@@YAIXZ 00000001800732e0 f i libucrtd:getmodulefilenamea.obj
 0001:00072380       ?_deallocate@?$__crt_win32_buffer@DU__crt_win32_buffer_no_resizing@@@@AEAAXXZ 0000000180073380 f i libucrtd:getmodulefilenamea.obj
 0001:000723c0       ?allocate@?$__crt_win32_buffer@DU__crt_win32_buffer_no_resizing@@@@QEAAH_K@Z 00000001800733c0 f i libucrtd:getmodulefilenamea.obj
 0001:00072440       ?allocate@__crt_win32_buffer_no_resizing@@SAHQEAPEAX_KAEBV__crt_win32_buffer_empty_debug_info@@@Z 0000000180073440 f i libucrtd:getmodulefilenamea.obj
 0001:00072470       ?capacity@?$__crt_win32_buffer@DU__crt_win32_buffer_no_resizing@@@@QEBA_KXZ 0000000180073470 f i libucrtd:getmodulefilenamea.obj
 0001:00072480       ?data@?$__crt_win32_buffer@DU__crt_win32_buffer_no_resizing@@@@QEAAPEADXZ 0000000180073480 f i libucrtd:getmodulefilenamea.obj
 0001:00072490       ?deallocate@__crt_win32_buffer_no_resizing@@SAXQEAXAEBV__crt_win32_buffer_empty_debug_info@@@Z 0000000180073490 f i libucrtd:getmodulefilenamea.obj
 0001:000724a0       ?debug_info@?$__crt_win32_buffer@DU__crt_win32_buffer_no_resizing@@@@QEBAAEBV__crt_win32_buffer_empty_debug_info@@XZ 00000001800734a0 f i libucrtd:getmodulefilenamea.obj
 0001:000724b0       ?set_to_nullptr@?$__crt_win32_buffer@DU__crt_win32_buffer_no_resizing@@@@QEAAXXZ 00000001800734b0 f i libucrtd:getmodulefilenamea.obj
 0001:000724f0       ?size@?$__crt_win32_buffer@DU__crt_win32_buffer_no_resizing@@@@QEAAX_K@Z 00000001800734f0 f i libucrtd:getmodulefilenamea.obj
 0001:00072510       ?size@?$__crt_win32_buffer@DU__crt_win32_buffer_no_resizing@@@@QEBA_KXZ 0000000180073510 f i libucrtd:getmodulefilenamea.obj
 0001:00072520       __acrt_GetModuleFileNameA  0000000180073520 f   libucrtd:getmodulefilenamea.obj
 0001:00072880       ??$message_box@$$TAEBQEBDAEBQEBDK@?$__crt_char_traits@D@@SAH$$QEA$$TAEBQEBD1$$QEAK@Z 0000000180073880 f i libucrtd:crtmbox.obj
 0001:000728d0       ??$message_box@$$TAEBQEB_WAEBQEB_WK@?$__crt_char_traits@_W@@SAH$$QEA$$TAEBQEB_W1$$QEAK@Z 00000001800738d0 f i libucrtd:crtmbox.obj
 0001:00072920       ??$message_box@PEAUHWND__@@AEBQEBDAEBQEBDAEBI@?$__crt_char_traits@D@@SAH$$QEAPEAUHWND__@@AEBQEBD1AEBI@Z 0000000180073920 f i libucrtd:crtmbox.obj
 0001:00072970       ??$message_box@PEAUHWND__@@AEBQEB_WAEBQEB_WAEBI@?$__crt_char_traits@_W@@SAH$$QEAPEAUHWND__@@AEBQEB_W1AEBI@Z 0000000180073970 f i libucrtd:crtmbox.obj
 0001:000729c0       ??$output_debug_string@AEBQEBD@?$__crt_char_traits@D@@SAXAEBQEBD@Z 00000001800739c0 f i libucrtd:crtmbox.obj
 0001:000729e0       ??$output_debug_string@AEBQEB_W@?$__crt_char_traits@_W@@SAXAEBQEB_W@Z 00000001800739e0 f i libucrtd:crtmbox.obj
 0001:00072a00       __acrt_show_narrow_message_box 0000000180073a00 f   libucrtd:crtmbox.obj
 0001:00072a30       __acrt_show_wide_message_box 0000000180073a30 f   libucrtd:crtmbox.obj
 0001:00072a60       __acrt_initialize_locks    0000000180073a60 f   libucrtd:locks.obj
 0001:00072ad0       __acrt_lock                0000000180073ad0 f   libucrtd:locks.obj
 0001:00072b00       __acrt_uninitialize_locks  0000000180073b00 f   libucrtd:locks.obj
 0001:00072b60       __acrt_unlock              0000000180073b60 f   libucrtd:locks.obj
 0001:00072b90       _lock_locales              0000000180073b90 f   libucrtd:locks.obj
 0001:00072bb0       _unlock_locales            0000000180073bb0 f   libucrtd:locks.obj
 0001:00072bd0       ??$?B$$A6AXH@Z@__crt_fast_encoded_nullptr_t@@QEBAP6AXH@ZXZ 0000000180073bd0 f i libucrtd:signal.obj
 0001:00072c90       ??$__crt_fast_decode_pointer@P6AXH@Z@@YAP6AXH@ZQ6AXH@Z@Z 0000000180073c90 f i libucrtd:signal.obj
 0001:00072cd0       ??$__crt_fast_encode_pointer@P6AXH@Z@@YAP6AXH@ZQ6AXH@Z@Z 0000000180073cd0 f i libucrtd:signal.obj
 0001:00072f50       ?initialize@?$dual_state_global@P6AXH@Z@__crt_state_management@@QEAAXQ6AXH@Z@Z 0000000180073f50 f i libucrtd:signal.obj
 0001:000730d0       ?value@?$dual_state_global@P6AXH@Z@__crt_state_management@@QEAAAEAP6AXH@ZXZ 00000001800740d0 f i libucrtd:signal.obj
 0001:000730f0       __acrt_get_sigabrt_handler 00000001800740f0 f   libucrtd:signal.obj
 0001:00073120       __acrt_initialize_signal_handlers 0000000180074120 f   libucrtd:signal.obj
 0001:00073180       __fpecode                  0000000180074180 f   libucrtd:signal.obj
 0001:000731a0       __pxcptinfoptrs            00000001800741a0 f   libucrtd:signal.obj
 0001:000731c0       raise                      00000001800741c0 f   libucrtd:signal.obj
 0001:00073680       signal                     0000000180074680 f   libucrtd:signal.obj
 0001:00073950       _CrtGetDebugFillThreshold  0000000180074950 f   libucrtd:debug_fill_threshold.obj
 0001:00073960       _CrtSetDebugFillThreshold  0000000180074960 f   libucrtd:debug_fill_threshold.obj
 0001:00073990       ??$make_c_string_character_source@DPEAPEAD@__crt_strtox@@YA?AV?$c_string_character_source@D@0@QEBDQEAPEAD@Z 0000000180074990 f i libucrtd:strtox.obj
 0001:000739d0       ??$make_c_string_character_source@_WPEAPEA_W@__crt_strtox@@YA?AV?$c_string_character_source@_W@0@QEB_WQEAPEA_W@Z 00000001800749d0 f i libucrtd:strtox.obj
 0001:00073a10       ??$parse_integer_from_string@JDPEAPEAD@__crt_strtox@@YAJQEBDQEAPEADHQEAU__crt_locale_pointers@@@Z 0000000180074a10 f i libucrtd:strtox.obj
 0001:00073a60       ??$parse_integer_from_string@J_WPEAPEA_W@__crt_strtox@@YAJQEB_WQEAPEA_WHQEAU__crt_locale_pointers@@@Z 0000000180074a60 f i libucrtd:strtox.obj
 0001:00073ab0       ??$parse_integer_from_string@KDPEAPEAD@__crt_strtox@@YAKQEBDQEAPEADHQEAU__crt_locale_pointers@@@Z 0000000180074ab0 f i libucrtd:strtox.obj
 0001:00073b00       ??$parse_integer_from_string@K_WPEAPEA_W@__crt_strtox@@YAKQEB_WQEAPEA_WHQEAU__crt_locale_pointers@@@Z 0000000180074b00 f i libucrtd:strtox.obj
 0001:00073b50       ??$parse_integer_from_string@_JDPEAPEAD@__crt_strtox@@YA_JQEBDQEAPEADHQEAU__crt_locale_pointers@@@Z 0000000180074b50 f i libucrtd:strtox.obj
 0001:00073ba0       ??$parse_integer_from_string@_J_WPEAPEA_W@__crt_strtox@@YA_JQEB_WQEAPEA_WHQEAU__crt_locale_pointers@@@Z 0000000180074ba0 f i libucrtd:strtox.obj
 0001:00073bf0       ??$parse_integer_from_string@_KDPEAPEAD@__crt_strtox@@YA_KQEBDQEAPEADHQEAU__crt_locale_pointers@@@Z 0000000180074bf0 f i libucrtd:strtox.obj
 0001:00073c40       ??$parse_integer_from_string@_K_WPEAPEA_W@__crt_strtox@@YA_KQEB_WQEAPEA_WHQEAU__crt_locale_pointers@@@Z 0000000180074c40 f i libucrtd:strtox.obj
 0001:00073c90       _strtoi64                  0000000180074c90 f   libucrtd:strtox.obj
 0001:00073cc0       _strtoi64_l                0000000180074cc0 f   libucrtd:strtox.obj
 0001:00073d00       _strtoimax_l               0000000180074d00 f   libucrtd:strtox.obj
 0001:00073d40       _strtol_l                  0000000180074d40 f   libucrtd:strtox.obj
 0001:00073d80       _strtoll_l                 0000000180074d80 f   libucrtd:strtox.obj
 0001:00073dc0       _strtoui64                 0000000180074dc0 f   libucrtd:strtox.obj
 0001:00073df0       _strtoui64_l               0000000180074df0 f   libucrtd:strtox.obj
 0001:00073e30       _strtoul_l                 0000000180074e30 f   libucrtd:strtox.obj
 0001:00073e70       _strtoull_l                0000000180074e70 f   libucrtd:strtox.obj
 0001:00073eb0       _strtoumax_l               0000000180074eb0 f   libucrtd:strtox.obj
 0001:00073ef0       _wcstoi64                  0000000180074ef0 f   libucrtd:strtox.obj
 0001:00073f20       _wcstoi64_l                0000000180074f20 f   libucrtd:strtox.obj
 0001:00073f60       _wcstoimax_l               0000000180074f60 f   libucrtd:strtox.obj
 0001:00073fa0       _wcstol_l                  0000000180074fa0 f   libucrtd:strtox.obj
 0001:00073fe0       _wcstoll_l                 0000000180074fe0 f   libucrtd:strtox.obj
 0001:00074020       _wcstoui64                 0000000180075020 f   libucrtd:strtox.obj
 0001:00074050       _wcstoui64_l               0000000180075050 f   libucrtd:strtox.obj
 0001:00074090       _wcstoul_l                 0000000180075090 f   libucrtd:strtox.obj
 0001:000740d0       _wcstoull_l                00000001800750d0 f   libucrtd:strtox.obj
 0001:00074110       _wcstoumax_l               0000000180075110 f   libucrtd:strtox.obj
 0001:00074150       strtoimax                  0000000180075150 f   libucrtd:strtox.obj
 0001:00074180       strtol                     0000000180075180 f   libucrtd:strtox.obj
 0001:000741b0       strtoll                    00000001800751b0 f   libucrtd:strtox.obj
 0001:000741e0       strtoul                    00000001800751e0 f   libucrtd:strtox.obj
 0001:00074210       strtoull                   0000000180075210 f   libucrtd:strtox.obj
 0001:00074240       strtoumax                  0000000180075240 f   libucrtd:strtox.obj
 0001:00074270       wcstoimax                  0000000180075270 f   libucrtd:strtox.obj
 0001:000742a0       wcstol                     00000001800752a0 f   libucrtd:strtox.obj
 0001:000742d0       wcstoll                    00000001800752d0 f   libucrtd:strtox.obj
 0001:00074300       wcstoul                    0000000180075300 f   libucrtd:strtox.obj
 0001:00074330       wcstoull                   0000000180075330 f   libucrtd:strtox.obj
 0001:00074360       wcstoumax                  0000000180075360 f   libucrtd:strtox.obj
 0001:00074390       _mbtowc_l                  0000000180075390 f   libucrtd:mbtowc.obj
 0001:000747f0       mbtowc                     00000001800757f0 f   libucrtd:mbtowc.obj
 0001:00074820       _wctomb_l                  0000000180075820 f   libucrtd:wctomb.obj
 0001:000748e0       _wctomb_s_l                00000001800758e0 f   libucrtd:wctomb.obj
 0001:00074e60       wctomb                     0000000180075e60 f   libucrtd:wctomb.obj
 0001:00074ec0       wctomb_s                   0000000180075ec0 f   libucrtd:wctomb.obj
 0001:00074f10       ??$?RU__acrt_ptd@@@__crt_internal_free_policy@@QEBAXQEBU__acrt_ptd@@@Z 0000000180075f10 f i libucrtd:per_thread_data.obj
 0001:00075310       ??0?$__crt_unique_heap_ptr@U__acrt_ptd@@U__crt_internal_free_policy@@@@QEAA@QEAU__acrt_ptd@@@Z 0000000180076310 f i libucrtd:per_thread_data.obj
 0001:00075330       ??0__crt_scoped_get_last_error_reset@@QEAA@XZ 0000000180076330 f i libucrtd:per_thread_data.obj
 0001:00075350       ??1?$__crt_unique_heap_ptr@U__acrt_ptd@@U__crt_internal_free_policy@@@@QEAA@XZ 0000000180076350 f i libucrtd:per_thread_data.obj
 0001:00075370       ??1__crt_scoped_get_last_error_reset@@QEAA@XZ 0000000180076370 f i libucrtd:per_thread_data.obj
 0001:00075390       ??B?$__crt_unique_heap_ptr@U__acrt_ptd@@U__crt_internal_free_policy@@@@QEBA_NXZ 0000000180076390 f i libucrtd:per_thread_data.obj
 0001:000756e0       ?dangerous_get_state_array@?$dual_state_global@PEAU__crt_locale_data@@@__crt_state_management@@QEAAPEAPEAU__crt_locale_data@@XZ 00000001800766e0 f i libucrtd:per_thread_data.obj
 0001:000758a0       ?detach@?$__crt_unique_heap_ptr@U__acrt_ptd@@U__crt_internal_free_policy@@@@QEAAPEAU__acrt_ptd@@XZ 00000001800768a0 f i libucrtd:per_thread_data.obj
 0001:000758d0       ?get@?$__crt_unique_heap_ptr@U__acrt_ptd@@U__crt_internal_free_policy@@@@QEBAPEAU__acrt_ptd@@XZ 00000001800768d0 f i libucrtd:per_thread_data.obj
 0001:000758e0       ?get_current_state_index@__crt_state_management@@YA_KAEBV__crt_scoped_get_last_error_reset@@@Z 00000001800768e0 f i libucrtd:per_thread_data.obj
 0001:00075a90       ?is_valid@?$__crt_unique_heap_ptr@U__acrt_ptd@@U__crt_internal_free_policy@@@@QEBA_NXZ 0000000180076a90 f i libucrtd:per_thread_data.obj
 0001:00075ac0       ?release@?$__crt_unique_heap_ptr@U__acrt_ptd@@U__crt_internal_free_policy@@@@QEAAXXZ 0000000180076ac0 f i libucrtd:per_thread_data.obj
 0001:00075bf0       ?value@?$dual_state_global@PEAU__crt_locale_data@@@__crt_state_management@@QEAAAEAPEAU__crt_locale_data@@XZ 0000000180076bf0 f i libucrtd:per_thread_data.obj
 0001:00075c10       __acrt_freeptd             0000000180076c10 f   libucrtd:per_thread_data.obj
 0001:00075c50       __acrt_getptd              0000000180076c50 f   libucrtd:per_thread_data.obj
 0001:00075c80       __acrt_getptd_head         0000000180076c80 f   libucrtd:per_thread_data.obj
 0001:00075cb0       __acrt_getptd_noexit       0000000180076cb0 f   libucrtd:per_thread_data.obj
 0001:00075cc0       __acrt_initialize_ptd      0000000180076cc0 f   libucrtd:per_thread_data.obj
 0001:00075d00       __acrt_uninitialize_ptd    0000000180076d00 f   libucrtd:per_thread_data.obj
 0001:00075d30       __threadhandle             0000000180076d30 f   libucrtd:per_thread_data.obj
 0001:00075d40       __threadid                 0000000180076d40 f   libucrtd:per_thread_data.obj
 0001:00075d50       ?value@?$dual_state_global@PEAU__crt_multibyte_data@@@__crt_state_management@@QEAAAEAPEAU__crt_multibyte_data@@XZ 0000000180076d50 f i libucrtd:locale_update.obj
 0001:00075d70       __acrt_should_sync_with_global_locale 0000000180076d70 f i libucrtd:locale_update.obj
 0001:00075db0       __acrt_update_locale_info  0000000180076db0 f   libucrtd:locale_update.obj
 0001:00075e00       __acrt_update_multibyte_info 0000000180076e00 f   libucrtd:locale_update.obj
 0001:00075e50       ?__acrt_fp_classify@@YA?AW4__acrt_fp_class@@AEBN@Z 0000000180076e50 f i libucrtd:cvt.obj
 0001:00075f50       ?__acrt_fp_is_negative@@YA_NAEBN@Z 0000000180076f50 f i libucrtd:cvt.obj
 0001:00077910       ?strrchr@@YAPEADQEADH@Z    0000000180078910 f i libucrtd:cvt.obj
 0001:00077930       __acrt_fp_format           0000000180078930 f   libucrtd:cvt.obj
 0001:00077fe0       _fputwc_nolock             0000000180078fe0 f   libucrtd:fputwc.obj
 0001:00078250       _fputwchar                 0000000180079250 f   libucrtd:fputwc.obj
 0001:00078280       _putwc_nolock              0000000180079280 f   libucrtd:fputwc.obj
 0001:000782b0       fputwc                     00000001800792b0 f   libucrtd:fputwc.obj
 0001:000783a0       putwc                      00000001800793a0 f   libucrtd:fputwc.obj
 0001:000783d0       putwchar                   00000001800793d0 f   libucrtd:fputwc.obj
 0001:000783f0       ?lowio_handle@__crt_stdio_stream@@QEBAHXZ 00000001800793f0 f i libucrtd:fileno.obj
 0001:00078420       _fileno                    0000000180079420 f   libucrtd:fileno.obj
 0001:00078500       ??$?RPEAU__crt_stdio_stream_data@@@__crt_internal_free_policy@@QEBAXQEBQEAU__crt_stdio_stream_data@@@Z 0000000180079500 f i libucrtd:_file.obj
 0001:00078530       ??0?$__crt_unique_heap_ptr@PEAU__crt_stdio_stream_data@@U__crt_internal_free_policy@@@@QEAA@QEAPEAU__crt_stdio_stream_data@@@Z 0000000180079530 f i libucrtd:_file.obj
 0001:00078550       ??1?$__crt_unique_heap_ptr@PEAU__crt_stdio_stream_data@@U__crt_internal_free_policy@@@@QEAA@XZ 0000000180079550 f i libucrtd:_file.obj
 0001:00078570       ?detach@?$__crt_unique_heap_ptr@PEAU__crt_stdio_stream_data@@U__crt_internal_free_policy@@@@QEAAPEAPEAU__crt_stdio_stream_data@@XZ 0000000180079570 f i libucrtd:_file.obj
 0001:000785a0       ?release@?$__crt_unique_heap_ptr@PEAU__crt_stdio_stream_data@@U__crt_internal_free_policy@@@@QEAAXXZ 00000001800795a0 f i libucrtd:_file.obj
 0001:000785d0       __acrt_initialize_stdio    00000001800795d0 f   libucrtd:_file.obj
 0001:000787c0       __acrt_iob_func            00000001800797c0 f   libucrtd:_file.obj
 0001:000787e0       __acrt_uninitialize_stdio  00000001800797e0 f   libucrtd:_file.obj
 0001:00078870       _get_stream_buffer_pointers 0000000180079870 f   libucrtd:_file.obj
 0001:000789a0       _lock_file                 00000001800799a0 f   libucrtd:_file.obj
 0001:000789e0       _unlock_file               00000001800799e0 f   libucrtd:_file.obj
 0001:00078a20       _fputc_nolock              0000000180079a20 f   libucrtd:fputc.obj
 0001:00078ad0       _fputchar                  0000000180079ad0 f   libucrtd:fputc.obj
 0001:00078b00       _putc_nolock               0000000180079b00 f   libucrtd:fputc.obj
 0001:00078b20       fputc                      0000000180079b20 f   libucrtd:fputc.obj
 0001:00078dc0       putc                       0000000180079dc0 f   libucrtd:fputc.obj
 0001:00078de0       putchar                    0000000180079de0 f   libucrtd:fputc.obj
 0001:00078e00       _get_printf_count_output   0000000180079e00 f   libucrtd:printf_count_output.obj
 0001:00078e30       _set_printf_count_output   0000000180079e30 f   libucrtd:printf_count_output.obj
 0001:00078ea0       ?has_any_buffer@__crt_stdio_stream@@QEBA_NXZ 0000000180079ea0 f i libucrtd:_sftbuf.obj
 0001:00078ec0       ?has_any_of@__crt_stdio_stream@@QEBA_NJ@Z 0000000180079ec0 f i libucrtd:_sftbuf.obj
 0001:00078f00       ?has_temporary_buffer@__crt_stdio_stream@@QEBA_NXZ 0000000180079f00 f i libucrtd:_sftbuf.obj
 0001:00078f20       ?set_flags@__crt_stdio_stream@@QEBA_NJ@Z 0000000180079f20 f i libucrtd:_sftbuf.obj
 0001:00078f90       ?unset_flags@__crt_stdio_stream@@QEBA_NJ@Z 0000000180079f90 f i libucrtd:_sftbuf.obj
 0001:00078ff0       __acrt_should_use_temporary_buffer 0000000180079ff0 f   libucrtd:_sftbuf.obj
 0001:00079040       __acrt_stdio_begin_temporary_buffering_nolock 000000018007a040 f   libucrtd:_sftbuf.obj
 0001:00079280       __acrt_stdio_end_temporary_buffering_nolock 000000018007a280 f   libucrtd:_sftbuf.obj
 0001:00079330       ??$?RU__crt_locale_data@@@__crt_internal_free_policy@@QEBAXQEBU__crt_locale_data@@@Z 000000018007a330 f i libucrtd:wsetlocale.obj
 0001:00079360       ??$?RU__crt_locale_pointers@@@__crt_internal_free_policy@@QEBAXQEBU__crt_locale_pointers@@@Z 000000018007a360 f i libucrtd:wsetlocale.obj
 0001:00079390       ??$?RU__crt_multibyte_data@@@__crt_internal_free_policy@@QEBAXQEBU__crt_multibyte_data@@@Z 000000018007a390 f i libucrtd:wsetlocale.obj
 0001:000798f0       ??0?$__crt_unique_heap_ptr@U__crt_locale_data@@U__crt_internal_free_policy@@@@QEAA@QEAU__crt_locale_data@@@Z 000000018007a8f0 f i libucrtd:wsetlocale.obj
 0001:00079910       ??0?$__crt_unique_heap_ptr@U__crt_locale_pointers@@U__crt_internal_free_policy@@@@QEAA@QEAU__crt_locale_pointers@@@Z 000000018007a910 f i libucrtd:wsetlocale.obj
 0001:00079930       ??0?$__crt_unique_heap_ptr@U__crt_multibyte_data@@U__crt_internal_free_policy@@@@QEAA@QEAU__crt_multibyte_data@@@Z 000000018007a930 f i libucrtd:wsetlocale.obj
 0001:00079950       ??0_expandlocale_locale_name_cache@@QEAA@QEA_W_KQEAU__crt_qualified_locale_data@@@Z 000000018007a950 f i libucrtd:wsetlocale.obj
 0001:00079a00       ??1?$__crt_unique_heap_ptr@U__crt_locale_data@@U__crt_internal_free_policy@@@@QEAA@XZ 000000018007aa00 f i libucrtd:wsetlocale.obj
 0001:00079a20       ??1?$__crt_unique_heap_ptr@U__crt_locale_pointers@@U__crt_internal_free_policy@@@@QEAA@XZ 000000018007aa20 f i libucrtd:wsetlocale.obj
 0001:00079a40       ??1?$__crt_unique_heap_ptr@U__crt_multibyte_data@@U__crt_internal_free_policy@@@@QEAA@XZ 000000018007aa40 f i libucrtd:wsetlocale.obj
 0001:00079a60       ??1_expandlocale_locale_name_cache@@QEAA@XZ 000000018007aa60 f i libucrtd:wsetlocale.obj
 0001:00079ae0       ??B?$__crt_unique_heap_ptr@U__crt_locale_data@@U__crt_internal_free_policy@@@@QEBA_NXZ 000000018007aae0 f i libucrtd:wsetlocale.obj
 0001:00079b00       ??B?$__crt_unique_heap_ptr@U__crt_locale_pointers@@U__crt_internal_free_policy@@@@QEBA_NXZ 000000018007ab00 f i libucrtd:wsetlocale.obj
 0001:00079b20       ??B?$__crt_unique_heap_ptr@U__crt_multibyte_data@@U__crt_internal_free_policy@@@@QEBA_NXZ 000000018007ab20 f i libucrtd:wsetlocale.obj
 0001:00079fd0       ?commit_locale_name@_expandlocale_locale_name_cache@@QEAAXQEB_W_K@Z 000000018007afd0 f i libucrtd:wsetlocale.obj
 0001:0007a050       ?commit_locale_name_cache_already_updated@_expandlocale_locale_name_cache@@QEAAXQEB_W_K@Z 000000018007b050 f i libucrtd:wsetlocale.obj
 0001:0007a0c0       ?detach@?$__crt_unique_heap_ptr@U__crt_locale_data@@U__crt_internal_free_policy@@@@QEAAPEAU__crt_locale_data@@XZ 000000018007b0c0 f i libucrtd:wsetlocale.obj
 0001:0007a0f0       ?detach@?$__crt_unique_heap_ptr@U__crt_locale_pointers@@U__crt_internal_free_policy@@@@QEAAPEAU__crt_locale_pointers@@XZ 000000018007b0f0 f i libucrtd:wsetlocale.obj
 0001:0007a120       ?detach@?$__crt_unique_heap_ptr@U__crt_multibyte_data@@U__crt_internal_free_policy@@@@QEAAPEAU__crt_multibyte_data@@XZ 000000018007b120 f i libucrtd:wsetlocale.obj
 0001:0007a150       ?get@?$__crt_unique_heap_ptr@U__crt_locale_data@@U__crt_internal_free_policy@@@@QEBAPEAU__crt_locale_data@@XZ 000000018007b150 f i libucrtd:wsetlocale.obj
 0001:0007a160       ?get@?$__crt_unique_heap_ptr@U__crt_locale_pointers@@U__crt_internal_free_policy@@@@QEBAPEAU__crt_locale_pointers@@XZ 000000018007b160 f i libucrtd:wsetlocale.obj
 0001:0007a170       ?get@?$__crt_unique_heap_ptr@U__crt_multibyte_data@@U__crt_internal_free_policy@@@@QEBAPEAU__crt_multibyte_data@@XZ 000000018007b170 f i libucrtd:wsetlocale.obj
 0001:0007a180       ?is_valid@?$__crt_unique_heap_ptr@U__crt_locale_data@@U__crt_internal_free_policy@@@@QEBA_NXZ 000000018007b180 f i libucrtd:wsetlocale.obj
 0001:0007a1b0       ?is_valid@?$__crt_unique_heap_ptr@U__crt_locale_pointers@@U__crt_internal_free_policy@@@@QEBA_NXZ 000000018007b1b0 f i libucrtd:wsetlocale.obj
 0001:0007a1e0       ?is_valid@?$__crt_unique_heap_ptr@U__crt_multibyte_data@@U__crt_internal_free_policy@@@@QEBA_NXZ 000000018007b1e0 f i libucrtd:wsetlocale.obj
 0001:0007a210       ?release@?$__crt_unique_heap_ptr@U__crt_locale_data@@U__crt_internal_free_policy@@@@QEAAXXZ 000000018007b210 f i libucrtd:wsetlocale.obj
 0001:0007a240       ?release@?$__crt_unique_heap_ptr@U__crt_locale_pointers@@U__crt_internal_free_policy@@@@QEAAXXZ 000000018007b240 f i libucrtd:wsetlocale.obj
 0001:0007a270       ?release@?$__crt_unique_heap_ptr@U__crt_multibyte_data@@U__crt_internal_free_policy@@@@QEAAXXZ 000000018007b270 f i libucrtd:wsetlocale.obj
 0001:0007a2a0       __acrt_copy_locale_name    000000018007b2a0 f   libucrtd:wsetlocale.obj
 0001:0007a370       __acrt_set_locale_changed  000000018007b370 f   libucrtd:wsetlocale.obj
 0001:0007a380       __acrt_uninitialize_locale 000000018007b380 f   libucrtd:wsetlocale.obj
 0001:0007a3b0       __ascii_tolower            000000018007b3b0 f i libucrtd:wsetlocale.obj
 0001:0007a3d0       __ascii_towlower           000000018007b3d0 f i libucrtd:wsetlocale.obj
 0001:0007a3f0       __lc_lctowcs               000000018007b3f0 f   libucrtd:wsetlocale.obj
 0001:0007a4e0       __lc_wcstolc               000000018007b4e0 f   libucrtd:wsetlocale.obj
 0001:0007a7a0       _configthreadlocale        000000018007b7a0 f   libucrtd:wsetlocale.obj
 0001:0007a960       _create_locale             000000018007b960 f   libucrtd:wsetlocale.obj
 0001:0007b060       _free_locale               000000018007c060 f   libucrtd:wsetlocale.obj
 0001:0007b150       _get_current_locale        000000018007c150 f   libucrtd:wsetlocale.obj
 0001:0007b260       _wcreate_locale            000000018007c260 f   libucrtd:wsetlocale.obj
 0001:0007b550       _wcscats                   000000018007c550 f   libucrtd:wsetlocale.obj
 0001:0007b630       _wsetlocale                000000018007c630 f   libucrtd:wsetlocale.obj
 0001:0007d240       __p___mb_cur_max           000000018007e240 f   libucrtd:nlsdata.obj
 0001:0007d620       __acrt_initialize_lowio    000000018007e620 f   libucrtd:ioinit.obj
 0001:0007d670       __acrt_uninitialize_lowio  000000018007e670 f   libucrtd:ioinit.obj
 0001:0007d6f0       _msize                     000000018007e6f0 f   libucrtd:msize.obj
 0001:0007d710       _msize_base                000000018007e710 f   libucrtd:msize.obj
 0001:0007d7e0       _realloc_base              000000018007e7e0 f   libucrtd:realloc_base.obj
 0001:0007dc80       __acrt_get_begin_thread_init_policy 000000018007ec80 f   libucrtd:win_policies.obj
 0001:0007dc90       __acrt_get_developer_information_policy 000000018007ec90 f   libucrtd:win_policies.obj
 0001:0007dcb0       __acrt_get_process_end_policy 000000018007ecb0 f   libucrtd:win_policies.obj
 0001:0007dcc0       __acrt_get_windowing_model_policy 000000018007ecc0 f   libucrtd:win_policies.obj
 0001:0007e080       ??$__acrt_mbs_to_wcs_cp@U__crt_win32_buffer_internal_dynamic_resizing@@@@YAHQEBDAEAV?$__crt_win32_buffer@_WU__crt_win32_buffer_internal_dynamic_resizing@@@@I@Z 000000018007f080 f i libucrtd:argv_wildcards.obj
 0001:0007e0d0       ??$__acrt_wcs_to_mbs_cp@U__crt_win32_buffer_internal_dynamic_resizing@@@@YAHQEB_WAEAV?$__crt_win32_buffer@DU__crt_win32_buffer_internal_dynamic_resizing@@@@I@Z 000000018007f0d0 f i libucrtd:argv_wildcards.obj
 0001:0007f550       ??$tcsncpy_s@AEAPEAD_KAEAPEADAEB_K@?$__crt_char_traits@D@@SAHAEAPEAD$$QEA_K0AEB_K@Z 0000000180080550 f i libucrtd:argv_wildcards.obj
 0001:0007f5a0       ??$tcsncpy_s@AEAPEA_W_KAEAPEA_WAEB_K@?$__crt_char_traits@_W@@SAHAEAPEA_W$$QEA_K0AEB_K@Z 00000001800805a0 f i libucrtd:argv_wildcards.obj
 0001:0007f5f0       ??$tcsncpy_s@PEADAEB_KAEBQEBDAEB_K@?$__crt_char_traits@D@@SAH$$QEAPEADAEB_KAEBQEBD1@Z 00000001800805f0 f i libucrtd:argv_wildcards.obj
 0001:0007f640       ??$tcsncpy_s@PEAD_KAEBQEBDAEB_K@?$__crt_char_traits@D@@SAH$$QEAPEAD$$QEA_KAEBQEBDAEB_K@Z 0000000180080640 f i libucrtd:argv_wildcards.obj
 0001:0007f690       ??$tcsncpy_s@PEA_WAEB_KAEBQEB_WAEB_K@?$__crt_char_traits@_W@@SAH$$QEAPEA_WAEB_KAEBQEB_W1@Z 0000000180080690 f i libucrtd:argv_wildcards.obj
 0001:0007f6e0       ??$tcsncpy_s@PEA_W_KAEBQEB_WAEB_K@?$__crt_char_traits@_W@@SAH$$QEAPEA_W$$QEA_KAEBQEB_WAEB_K@Z 00000001800806e0 f i libucrtd:argv_wildcards.obj
 0001:0007f730       ??$tcspbrk@AEAPEADAEAY02$$CBD@?$__crt_char_traits@D@@SAPEADAEAPEADAEAY02$$CBD@Z 0000000180080730 f i libucrtd:argv_wildcards.obj
 0001:0007f760       ??$tcspbrk@AEAPEA_WAEAY02$$CB_W@?$__crt_char_traits@_W@@SAPEA_WAEAPEA_WAEAY02$$CB_W@Z 0000000180080760 f i libucrtd:argv_wildcards.obj
 0001:0007f790       ??0?$__crt_unique_handle_t@U__crt_findfile_traits@@@@QEAA@QEAX@Z 0000000180080790 f i libucrtd:argv_wildcards.obj
 0001:0007f7b0       ??0?$__crt_win32_buffer@DU__crt_win32_buffer_internal_dynamic_resizing@@@@QEAA@XZ 00000001800807b0 f i libucrtd:argv_wildcards.obj
 0001:0007f810       ??0?$__crt_win32_buffer@_WU__crt_win32_buffer_internal_dynamic_resizing@@@@QEAA@XZ 0000000180080810 f i libucrtd:argv_wildcards.obj
 0001:0007f8f0       ??1?$__crt_unique_handle_t@U__crt_findfile_traits@@@@QEAA@XZ 00000001800808f0 f i libucrtd:argv_wildcards.obj
 0001:0007f910       ??1?$__crt_win32_buffer@DU__crt_win32_buffer_internal_dynamic_resizing@@@@QEAA@XZ 0000000180080910 f i libucrtd:argv_wildcards.obj
 0001:0007f940       ??1?$__crt_win32_buffer@_WU__crt_win32_buffer_internal_dynamic_resizing@@@@QEAA@XZ 0000000180080940 f i libucrtd:argv_wildcards.obj
 0001:0007fc40       ?_deallocate@?$__crt_win32_buffer@DU__crt_win32_buffer_internal_dynamic_resizing@@@@AEAAXXZ 0000000180080c40 f i libucrtd:argv_wildcards.obj
 0001:0007fc80       ?_deallocate@?$__crt_win32_buffer@_WU__crt_win32_buffer_internal_dynamic_resizing@@@@AEAAXXZ 0000000180080c80 f i libucrtd:argv_wildcards.obj
 0001:0007fcc0       ?allocate@?$__crt_win32_buffer@DU__crt_win32_buffer_internal_dynamic_resizing@@@@QEAAH_K@Z 0000000180080cc0 f i libucrtd:argv_wildcards.obj
 0001:0007fd40       ?allocate@?$__crt_win32_buffer@_WU__crt_win32_buffer_internal_dynamic_resizing@@@@QEAAH_K@Z 0000000180080d40 f i libucrtd:argv_wildcards.obj
 0001:0007fdd0       ?allocate@__crt_win32_buffer_internal_dynamic_resizing@@SAHQEAPEAX_KAEBV__crt_win32_buffer_empty_debug_info@@@Z 0000000180080dd0 f i libucrtd:argv_wildcards.obj
 0001:0007ff30       ?capacity@?$__crt_win32_buffer@DU__crt_win32_buffer_internal_dynamic_resizing@@@@QEBA_KXZ 0000000180080f30 f i libucrtd:argv_wildcards.obj
 0001:0007ff40       ?capacity@?$__crt_win32_buffer@_WU__crt_win32_buffer_internal_dynamic_resizing@@@@QEBA_KXZ 0000000180080f40 f i libucrtd:argv_wildcards.obj
 0001:0007ff50       ?close@?$__crt_unique_handle_t@U__crt_findfile_traits@@@@QEAAXXZ 0000000180080f50 f i libucrtd:argv_wildcards.obj
 0001:0007ff90       ?close@__crt_findfile_traits@@SA_NPEAX@Z 0000000180080f90 f i libucrtd:argv_wildcards.obj
 0001:0007ffd0       ?data@?$__crt_win32_buffer@DU__crt_win32_buffer_internal_dynamic_resizing@@@@QEAAPEADXZ 0000000180080fd0 f i libucrtd:argv_wildcards.obj
 0001:0007ffe0       ?data@?$__crt_win32_buffer@_WU__crt_win32_buffer_internal_dynamic_resizing@@@@QEAAPEA_WXZ 0000000180080fe0 f i libucrtd:argv_wildcards.obj
 0001:0007fff0       ?deallocate@__crt_win32_buffer_internal_dynamic_resizing@@SAXQEAXAEBV__crt_win32_buffer_empty_debug_info@@@Z 0000000180080ff0 f i libucrtd:argv_wildcards.obj
 0001:00080020       ?debug_info@?$__crt_win32_buffer@DU__crt_win32_buffer_internal_dynamic_resizing@@@@QEBAAEBV__crt_win32_buffer_empty_debug_info@@XZ 0000000180081020 f i libucrtd:argv_wildcards.obj
 0001:00080030       ?debug_info@?$__crt_win32_buffer@_WU__crt_win32_buffer_internal_dynamic_resizing@@@@QEBAAEBV__crt_win32_buffer_empty_debug_info@@XZ 0000000180081030 f i libucrtd:argv_wildcards.obj
 0001:00080420       ?get@?$__crt_unique_handle_t@U__crt_findfile_traits@@@@QEBAPEAXXZ 0000000180081420 f i libucrtd:argv_wildcards.obj
 0001:00080490       ?get_invalid_value@__crt_findfile_traits@@SAPEAXXZ 0000000180081490 f i libucrtd:argv_wildcards.obj
 0001:00080550       ?set_to_nullptr@?$__crt_win32_buffer@DU__crt_win32_buffer_internal_dynamic_resizing@@@@QEAAXXZ 0000000180081550 f i libucrtd:argv_wildcards.obj
 0001:00080590       ?set_to_nullptr@?$__crt_win32_buffer@_WU__crt_win32_buffer_internal_dynamic_resizing@@@@QEAAXXZ 0000000180081590 f i libucrtd:argv_wildcards.obj
 0001:000805d0       ?size@?$__crt_win32_buffer@DU__crt_win32_buffer_internal_dynamic_resizing@@@@QEAAX_K@Z 00000001800815d0 f i libucrtd:argv_wildcards.obj
 0001:000805f0       ?size@?$__crt_win32_buffer@_WU__crt_win32_buffer_internal_dynamic_resizing@@@@QEAAX_K@Z 00000001800815f0 f i libucrtd:argv_wildcards.obj
 0001:00080650       ?strpbrk@@YAPEADQEADQEBD@Z 0000000180081650 f i libucrtd:argv_wildcards.obj
 0001:00080680       ?wcspbrk@@YAPEA_WPEA_WPEB_W@Z 0000000180081680 f i libucrtd:argv_wildcards.obj
 0001:000806b0       __acrt_expand_narrow_argv_wildcards 00000001800816b0 f   libucrtd:argv_wildcards.obj
 0001:000806e0       __acrt_expand_wide_argv_wildcards 00000001800816e0 f   libucrtd:argv_wildcards.obj
 0001:000807a0       ??$initialize_from_array@$$BY10BAA@E@?$dual_state_global@PEAE@__crt_state_management@@QEAAXAEAY10BAA@E@Z 00000001800817a0 f i libucrtd:mbctype.obj
 0001:00080810       ??$initialize_from_array@$$BY10BAB@E@?$dual_state_global@PEAE@__crt_state_management@@QEAAXAEAY10BAB@E@Z 0000000180081810 f i libucrtd:mbctype.obj
 0001:00080af0       ?dangerous_get_state_array@?$dual_state_global@PEAE@__crt_state_management@@QEAAPEAPEAEXZ 0000000180081af0 f i libucrtd:mbctype.obj
 0001:00080b00       ?dangerous_get_state_array@?$dual_state_global@PEAU__crt_multibyte_data@@@__crt_state_management@@QEAAPEAPEAU__crt_multibyte_data@@XZ 0000000180081b00 f i libucrtd:mbctype.obj
 0001:00080bf0       ?initialize@?$dual_state_global@PEAU__crt_multibyte_data@@@__crt_state_management@@QEAAXQEAU__crt_multibyte_data@@@Z 0000000180081bf0 f i libucrtd:mbctype.obj
 0001:000814a0       ?value@?$dual_state_global@PEAE@__crt_state_management@@QEAAAEAPEAEXZ 00000001800824a0 f i libucrtd:mbctype.obj
 0001:000814c0       __acrt_initialize_multibyte 00000001800824c0 f   libucrtd:mbctype.obj
 0001:00081590       __acrt_update_thread_multibyte_data 0000000180082590 f   libucrtd:mbctype.obj
 0001:000815c0       __p__mbcasemap             00000001800825c0 f   libucrtd:mbctype.obj
 0001:000815e0       __p__mbctype               00000001800825e0 f   libucrtd:mbctype.obj
 0001:00081600       _getmbcp                   0000000180082600 f   libucrtd:mbctype.obj
 0001:00081680       _setmbcp                   0000000180082680 f   libucrtd:mbctype.obj
 0001:000816c0       _setmbcp_nolock            00000001800826c0 f   libucrtd:mbctype.obj
 0001:00081d64       _ismbbalnum                0000000180082d64 f   libucrtd:ismbbyte.obj
 0001:00081d7c       _ismbbalnum_l              0000000180082d7c f   libucrtd:ismbbyte.obj
 0001:00081d98       _ismbbalpha                0000000180082d98 f   libucrtd:ismbbyte.obj
 0001:00081db0       _ismbbalpha_l              0000000180082db0 f   libucrtd:ismbbyte.obj
 0001:00081dcc       _ismbbblank                0000000180082dcc f   libucrtd:ismbbyte.obj
 0001:00081de8       _ismbbblank_l              0000000180082de8 f   libucrtd:ismbbyte.obj
 0001:00081e08       _ismbbgraph                0000000180082e08 f   libucrtd:ismbbyte.obj
 0001:00081e20       _ismbbgraph_l              0000000180082e20 f   libucrtd:ismbbyte.obj
 0001:00081e3c       _ismbbkalnum               0000000180082e3c f   libucrtd:ismbbyte.obj
 0001:00081e50       _ismbbkalnum_l             0000000180082e50 f   libucrtd:ismbbyte.obj
 0001:00081e68       _ismbbkana                 0000000180082e68 f   libucrtd:ismbbyte.obj
 0001:00081e70       _ismbbkana_l               0000000180082e70 f   libucrtd:ismbbyte.obj
 0001:00081ed8       _ismbbkprint               0000000180082ed8 f   libucrtd:ismbbyte.obj
 0001:00081eec       _ismbbkprint_l             0000000180082eec f   libucrtd:ismbbyte.obj
 0001:00081f04       _ismbbkpunct               0000000180082f04 f   libucrtd:ismbbyte.obj
 0001:00081f18       _ismbbkpunct_l             0000000180082f18 f   libucrtd:ismbbyte.obj
 0001:00081f30       _ismbblead                 0000000180082f30 f   libucrtd:ismbbyte.obj
 0001:00081f44       _ismbblead_l               0000000180082f44 f   libucrtd:ismbbyte.obj
 0001:00081f5c       _ismbbprint                0000000180082f5c f   libucrtd:ismbbyte.obj
 0001:00081f74       _ismbbprint_l              0000000180082f74 f   libucrtd:ismbbyte.obj
 0001:00081f90       _ismbbpunct                0000000180082f90 f   libucrtd:ismbbyte.obj
 0001:00081fa4       _ismbbpunct_l              0000000180082fa4 f   libucrtd:ismbbyte.obj
 0001:00081fbc       _ismbbtrail                0000000180082fbc f   libucrtd:ismbbyte.obj
 0001:00081fd0       _ismbbtrail_l              0000000180082fd0 f   libucrtd:ismbbyte.obj
 0001:00081ff0       __acrt_initialize_command_line 0000000180082ff0 f   libucrtd:argv_data.obj
 0001:00082020       __acrt_uninitialize_command_line 0000000180083020 f   libucrtd:argv_data.obj
 0001:00082030       __p___argc                 0000000180083030 f   libucrtd:argv_data.obj
 0001:00082040       __p___argv                 0000000180083040 f   libucrtd:argv_data.obj
 0001:00082050       __p___wargv                0000000180083050 f   libucrtd:argv_data.obj
 0001:00082060       __p__acmdln                0000000180083060 f   libucrtd:argv_data.obj
 0001:00082070       __p__pgmptr                0000000180083070 f   libucrtd:argv_data.obj
 0001:00082080       __p__wcmdln                0000000180083080 f   libucrtd:argv_data.obj
 0001:00082090       __p__wpgmptr               0000000180083090 f   libucrtd:argv_data.obj
 0001:000820a0       _get_pgmptr                00000001800830a0 f   libucrtd:argv_data.obj
 0001:00082210       _get_wpgmptr               0000000180083210 f   libucrtd:argv_data.obj
 0001:00082420       __acrt_MultiByteToWideChar 0000000180083420 f   libucrtd:multibytetowidechar.obj
 0001:00082520       __acrt_WideCharToMultiByte 0000000180083520 f   libucrtd:widechartomultibyte.obj
 0001:000826f0       __dcrt_get_narrow_environment_from_os 00000001800836f0 f   libucrtd:get_environment_from_os.obj
 0001:00082808       __dcrt_get_wide_environment_from_os 0000000180083808 f   libucrtd:get_environment_from_os.obj
 0001:0008359c       ??$get_or_create_environment_nolock@$$V@?$__crt_char_traits@D@@SAPEAPEADXZ 000000018008459c f i libucrtd:setenv.obj
 0001:000835a4       ??$get_or_create_environment_nolock@$$V@?$__crt_char_traits@_W@@SAPEAPEA_WXZ 00000001800845a4 f i libucrtd:setenv.obj
 0001:000835ac       ??$set_environment_variable@AEBQEADQEAD@?$__crt_char_traits@D@@SAHAEBQEAD$$QEBQEAD@Z 00000001800845ac f i libucrtd:setenv.obj
 0001:000835b8       ??$set_environment_variable@AEBQEA_WQEA_W@?$__crt_char_traits@_W@@SAHAEBQEA_W$$QEBQEA_W@Z 00000001800845b8 f i libucrtd:setenv.obj
 0001:000835c8       ??$tcschr@AEBQEADD@?$__crt_char_traits@D@@SAPEADAEBQEAD$$QEAD@Z 00000001800845c8 f i libucrtd:setenv.obj
 0001:000835d4       ??$tcschr@AEBQEA_WD@?$__crt_char_traits@_W@@SAPEA_WAEBQEA_W$$QEAD@Z 00000001800845d4 f i libucrtd:setenv.obj
 0001:000835e0       ??$tcscpy_s@AEAPEADAEB_KAEAPEAD@?$__crt_char_traits@D@@SAHAEAPEADAEB_K0@Z 00000001800845e0 f i libucrtd:setenv.obj
 0001:000835f0       ??$tcscpy_s@AEAPEA_WAEB_KAEAPEA_W@?$__crt_char_traits@_W@@SAHAEAPEA_WAEB_K0@Z 00000001800845f0 f i libucrtd:setenv.obj
 0001:00083600       ??$tcscpy_s@AEBQEADAEB_KAEBQEAD@?$__crt_char_traits@D@@SAHAEBQEADAEB_K0@Z 0000000180084600 f i libucrtd:setenv.obj
 0001:00083610       ??$tcscpy_s@AEBQEA_WAEB_KAEBQEA_W@?$__crt_char_traits@_W@@SAHAEBQEA_WAEB_K0@Z 0000000180084610 f i libucrtd:setenv.obj
 0001:00083620       ??$tcslen@AEBQEAD@?$__crt_char_traits@D@@SA_KAEBQEAD@Z 0000000180084620 f i libucrtd:setenv.obj
 0001:00083634       ??$tcslen@AEBQEA_W@?$__crt_char_traits@_W@@SA_KAEBQEA_W@Z 0000000180084634 f i libucrtd:setenv.obj
 0001:00083648       ??$tcsnicoll@AEBQEBDAEAPEADAEB_K@?$__crt_char_traits@D@@SAHAEBQEBDAEAPEADAEB_K@Z 0000000180084648 f i libucrtd:setenv.obj
 0001:00083658       ??$tcsnicoll@AEBQEB_WAEAPEA_WAEB_K@?$__crt_char_traits@_W@@SAHAEBQEB_WAEAPEA_WAEB_K@Z 0000000180084658 f i libucrtd:setenv.obj
 0001:00083668       ??$tcsnlen@PEADH@?$__crt_char_traits@D@@SA_K$$QEAPEAD$$QEAH@Z 0000000180084668 f i libucrtd:setenv.obj
 0001:00083674       ??$tcsnlen@PEA_WH@?$__crt_char_traits@_W@@SA_K$$QEAPEA_W$$QEAH@Z 0000000180084674 f i libucrtd:setenv.obj
 0001:000836b0       ?strchr@@YAPEADQEADH@Z     00000001800846b0 f i libucrtd:setenv.obj
 0001:000836b8       ?wcschr@@YAPEA_WPEA_W_W@Z  00000001800846b8 f i libucrtd:setenv.obj
 0001:000836c0       __dcrt_set_variable_in_narrow_environment_nolock 00000001800846c0 f   libucrtd:setenv.obj
 0001:000836c8       __dcrt_set_variable_in_wide_environment_nolock 00000001800846c8 f   libucrtd:setenv.obj
 0001:000836f0       ??$?B$$A6AHPEA_WK_J@Z@__crt_fast_encoded_nullptr_t@@QEBAP6AHPEA_WK_J@ZXZ 00000001800846f0 f i libucrtd:winapi_thunks.obj
 0001:000837b0       ??$__crt_fast_decode_pointer@P6AHPEA_WK_J@Z@@YAP6AHPEA_WK_J@ZQ6AH0K1@Z@Z 00000001800847b0 f i libucrtd:winapi_thunks.obj
 0001:000837f0       ??$__crt_fast_decode_pointer@PEAX@@YAPEAXQEAX@Z 00000001800847f0 f i libucrtd:winapi_thunks.obj
 0001:00083830       ??$__crt_fast_encode_pointer@P6AHPEA_WK_J@Z@@YAP6AHPEA_WK_J@ZQ6AH0K1@Z@Z 0000000180084830 f i libucrtd:winapi_thunks.obj
 0001:000844a0       GetCurrentThreadEffectiveToken 00000001800854a0 f i libucrtd:winapi_thunks.obj
 0001:000844b0       __acrt_AppPolicyGetProcessTerminationMethodInternal 00000001800854b0 f   libucrtd:winapi_thunks.obj
 0001:00084500       __acrt_AppPolicyGetShowDeveloperDiagnosticInternal 0000000180085500 f   libucrtd:winapi_thunks.obj
 0001:00084550       __acrt_AppPolicyGetThreadInitializationTypeInternal 0000000180085550 f   libucrtd:winapi_thunks.obj
 0001:000845a0       __acrt_AppPolicyGetWindowingModelInternal 00000001800855a0 f   libucrtd:winapi_thunks.obj
 0001:000845f0       __acrt_AreFileApisANSI     00000001800855f0 f   libucrtd:winapi_thunks.obj
 0001:00084630       __acrt_CompareStringEx     0000000180085630 f   libucrtd:winapi_thunks.obj
 0001:00084710       __acrt_EnumSystemLocalesEx 0000000180085710 f   libucrtd:winapi_thunks.obj
 0001:00084790       __acrt_FlsAlloc            0000000180085790 f   libucrtd:winapi_thunks.obj
 0001:000847e0       __acrt_FlsFree             00000001800857e0 f   libucrtd:winapi_thunks.obj
 0001:00084830       __acrt_FlsGetValue         0000000180085830 f   libucrtd:winapi_thunks.obj
 0001:00084880       __acrt_FlsSetValue         0000000180085880 f   libucrtd:winapi_thunks.obj
 0001:000848e0       __acrt_GetDateFormatEx     00000001800858e0 f   libucrtd:winapi_thunks.obj
 0001:000849a0       __acrt_GetEnabledXStateFeatures 00000001800859a0 f   libucrtd:winapi_thunks.obj
 0001:000849e0       __acrt_GetLocaleInfoEx     00000001800859e0 f   libucrtd:winapi_thunks.obj
 0001:00084a60       __acrt_GetSystemTimePreciseAsFileTime 0000000180085a60 f   libucrtd:winapi_thunks.obj
 0001:00084ab0       __acrt_GetTimeFormatEx     0000000180085ab0 f   libucrtd:winapi_thunks.obj
 0001:00084b60       __acrt_GetUserDefaultLocaleName 0000000180085b60 f   libucrtd:winapi_thunks.obj
 0001:00084bc0       __acrt_GetXStateFeaturesMask 0000000180085bc0 f   libucrtd:winapi_thunks.obj
 0001:00084c10       __acrt_InitializeCriticalSectionEx 0000000180085c10 f   libucrtd:winapi_thunks.obj
 0001:00084c70       __acrt_IsValidLocaleName   0000000180085c70 f   libucrtd:winapi_thunks.obj
 0001:00084cd0       __acrt_LCIDToLocaleName    0000000180085cd0 f   libucrtd:winapi_thunks.obj
 0001:00084d40       __acrt_LCMapStringEx       0000000180085d40 f   libucrtd:winapi_thunks.obj
 0001:00084e20       __acrt_LocaleNameToLCID    0000000180085e20 f   libucrtd:winapi_thunks.obj
 0001:00084e70       __acrt_LocateXStateFeature 0000000180085e70 f   libucrtd:winapi_thunks.obj
 0001:00084ed0       __acrt_MessageBoxA         0000000180085ed0 f   libucrtd:winapi_thunks.obj
 0001:00084f30       __acrt_MessageBoxW         0000000180085f30 f   libucrtd:winapi_thunks.obj
 0001:00084f90       __acrt_RoInitialize        0000000180085f90 f   libucrtd:winapi_thunks.obj
 0001:00084fd0       __acrt_RoUninitialize      0000000180085fd0 f   libucrtd:winapi_thunks.obj
 0001:00085000       __acrt_RtlGenRandom        0000000180086000 f   libucrtd:winapi_thunks.obj
 0001:00085050       __acrt_SetThreadStackGuarantee 0000000180086050 f   libucrtd:winapi_thunks.obj
 0001:00085090       __acrt_can_show_message_box 0000000180086090 f   libucrtd:winapi_thunks.obj
 0001:000850d0       __acrt_can_use_vista_locale_apis 00000001800860d0 f   libucrtd:winapi_thunks.obj
 0001:00085100       __acrt_can_use_xstate_apis 0000000180086100 f   libucrtd:winapi_thunks.obj
 0001:00085130       __acrt_eagerly_load_locale_apis 0000000180086130 f   libucrtd:winapi_thunks.obj
 0001:00085170       __acrt_get_parent_window   0000000180086170 f   libucrtd:winapi_thunks.obj
 0001:000851f0       __acrt_initialize_winapi_thunks 00000001800861f0 f   libucrtd:winapi_thunks.obj
 0001:00085270       __acrt_is_interactive      0000000180086270 f   libucrtd:winapi_thunks.obj
 0001:00085350       __acrt_uninitialize_winapi_thunks 0000000180086350 f   libucrtd:winapi_thunks.obj
 0001:000853f0       __acrt_getheap             00000001800863f0 f   libucrtd:heap_handle.obj
 0001:00085450       __acrt_initialize_heap     0000000180086450 f   libucrtd:heap_handle.obj
 0001:00085480       __acrt_uninitialize_heap   0000000180086480 f   libucrtd:heap_handle.obj
 0001:000854a0       _get_heap_handle           00000001800864a0 f   libucrtd:heap_handle.obj
 0001:00085500       __acrt_execute_initializers 0000000180086500 f   libucrtd:shared_initialization.obj
 0001:000855f0       __acrt_execute_uninitializers 00000001800865f0 f   libucrtd:shared_initialization.obj
 0001:00085670       ??$__crt_fast_decode_pointer@P6AHPEAU_exception@@@Z@@YAP6AHPEAU_exception@@@ZQ6AH0@Z@Z 0000000180086670 f i libucrtd:matherr.obj
 0001:000856b0       ??$__crt_fast_encode_pointer@P6AHPEAU_exception@@@Z@@YAP6AHPEAU_exception@@@ZQ6AH0@Z@Z 00000001800866b0 f i libucrtd:matherr.obj
 0001:000856f0       ?initialize@?$dual_state_global@P6AHPEAU_exception@@@Z@__crt_state_management@@QEAAXQ6AHPEAU_exception@@@Z@Z 00000001800866f0 f i libucrtd:matherr.obj
 0001:00085740       ?value@?$dual_state_global@P6AHPEAU_exception@@@Z@__crt_state_management@@QEAAAEAP6AHPEAU_exception@@@ZXZ 0000000180086740 f i libucrtd:matherr.obj
 0001:00085760       __acrt_has_user_matherr    0000000180086760 f   libucrtd:matherr.obj
 0001:000857a0       __acrt_initialize_user_matherr 00000001800867a0 f   libucrtd:matherr.obj
 0001:000857c0       __acrt_invoke_user_matherr 00000001800867c0 f   libucrtd:matherr.obj
 0001:00085810       __setusermatherr           0000000180086810 f   libucrtd:matherr.obj
 0001:00085850       _chvalidator               0000000180086850 f   libucrtd:isctype.obj
 0001:000858c0       _chvalidator_l             00000001800868c0 f   libucrtd:isctype.obj
 0001:00085970       _isctype                   0000000180086970 f   libucrtd:isctype.obj
 0001:000859c0       _isctype_l                 00000001800869c0 f   libucrtd:isctype.obj
 0001:00085bf0       _isleadbyte_fast_internal  0000000180086bf0 f i libucrtd:isctype.obj
 0001:00085c30       _free_base                 0000000180086c30 f   libucrtd:free_base.obj
 0001:00085d00       _expand                    0000000180086d00 f   libucrtd:expand.obj
 0001:00085d40       _expand_base               0000000180086d40 f   libucrtd:expand.obj
 0001:00085ed0       ?value@?$dual_state_global@J@__crt_state_management@@QEAAAEAJXZ 0000000180086ed0 f i libucrtd:new_mode.obj
 0001:00085ef0       _query_new_mode            0000000180086ef0 f   libucrtd:new_mode.obj
 0001:00085f10       _set_new_mode              0000000180086f10 f   libucrtd:new_mode.obj
 0001:00085fe0       _CrtDefaultAllocHook       0000000180086fe0 f   libucrtd:debug_heap_hook.obj
 0001:00085ffc       _mbsdec                    0000000180086ffc f   libucrtd:mbsdec.obj
 0001:00086004       _mbsdec_l                  0000000180087004 f   libucrtd:mbsdec.obj
 0001:00086780       strncpy_s                  0000000180087780 f   libucrtd:strncpy_s.obj
 0001:00086990       __acrt_report_runtime_error 0000000180087990 f   libucrtd:report_runtime_error.obj
 0001:00086c10       _query_app_type            0000000180087c10 f   libucrtd:report_runtime_error.obj
 0001:00086c20       _set_app_type              0000000180087c20 f   libucrtd:report_runtime_error.obj
 0001:00086c30       _iswctype_l                0000000180087c30 f   libucrtd:iswctype.obj
 0001:00086c60       iswctype                   0000000180087c60 f   libucrtd:iswctype.obj
 0001:00088530       _i64toa                    0000000180089530 f   libucrtd:xtoa.obj
 0001:000885a0       _i64toa_s                  00000001800895a0 f   libucrtd:xtoa.obj
 0001:00088610       _i64tow                    0000000180089610 f   libucrtd:xtoa.obj
 0001:00088680       _i64tow_s                  0000000180089680 f   libucrtd:xtoa.obj
 0001:000886f0       _itoa                      00000001800896f0 f   libucrtd:xtoa.obj
 0001:00088760       _itoa_s                    0000000180089760 f   libucrtd:xtoa.obj
 0001:000887c0       _itow                      00000001800897c0 f   libucrtd:xtoa.obj
 0001:00088830       _itow_s                    0000000180089830 f   libucrtd:xtoa.obj
 0001:00088890       _ltoa                      0000000180089890 f   libucrtd:xtoa.obj
 0001:00088900       _ltoa_s                    0000000180089900 f   libucrtd:xtoa.obj
 0001:00088960       _ltow                      0000000180089960 f   libucrtd:xtoa.obj
 0001:000889d0       _ltow_s                    00000001800899d0 f   libucrtd:xtoa.obj
 0001:00088a30       _ui64toa                   0000000180089a30 f   libucrtd:xtoa.obj
 0001:00088a70       _ui64toa_s                 0000000180089a70 f   libucrtd:xtoa.obj
 0001:00088ab0       _ui64tow                   0000000180089ab0 f   libucrtd:xtoa.obj
 0001:00088af0       _ui64tow_s                 0000000180089af0 f   libucrtd:xtoa.obj
 0001:00088b30       _ultoa                     0000000180089b30 f   libucrtd:xtoa.obj
 0001:00088b70       _ultoa_s                   0000000180089b70 f   libucrtd:xtoa.obj
 0001:00088bb0       _ultow                     0000000180089bb0 f   libucrtd:xtoa.obj
 0001:00088bf0       _ultow_s                   0000000180089bf0 f   libucrtd:xtoa.obj
 0001:00089210       _mbstowcs_l                000000018008a210 f   libucrtd:mbstowcs.obj
 0001:00089250       _mbstowcs_s_l              000000018008a250 f   libucrtd:mbstowcs.obj
 0001:00089820       mbstowcs                   000000018008a820 f   libucrtd:mbstowcs.obj
 0001:00089880       mbstowcs_s                 000000018008a880 f   libucrtd:mbstowcs.obj
 0001:0008a210       _wcstombs_l                000000018008b210 f   libucrtd:wcstombs.obj
 0001:0008a250       _wcstombs_s_l              000000018008b250 f   libucrtd:wcstombs.obj
 0001:0008a790       wcstombs                   000000018008b790 f   libucrtd:wcstombs.obj
 0001:0008a7c0       wcstombs_s                 000000018008b7c0 f   libucrtd:wcstombs.obj
 0001:0008a810       __acrt_OutputDebugStringA  000000018008b810 f   libucrtd:outputdebugstringa.obj
 0001:0008a8d0       __iswcsym                  000000018008b8d0 f i libucrtd:_wctype.obj
 0001:0008a910       __iswcsymf                 000000018008b910 f i libucrtd:_wctype.obj
 0001:0008a950       _isleadbyte_l              000000018008b950 f i libucrtd:_wctype.obj
 0001:0008a9b0       _iswalnum_l                000000018008b9b0 f i libucrtd:_wctype.obj
 0001:0008a9e0       _iswalpha_l                000000018008b9e0 f i libucrtd:_wctype.obj
 0001:0008aa10       _iswblank_l                000000018008ba10 f i libucrtd:_wctype.obj
 0001:0008aa50       _iswcntrl_l                000000018008ba50 f i libucrtd:_wctype.obj
 0001:0008aa80       _iswcsym_l                 000000018008ba80 f i libucrtd:_wctype.obj
 0001:0008aad0       _iswcsymf_l                000000018008bad0 f i libucrtd:_wctype.obj
 0001:0008ab20       _iswdigit_l                000000018008bb20 f i libucrtd:_wctype.obj
 0001:0008ab50       _iswgraph_l                000000018008bb50 f i libucrtd:_wctype.obj
 0001:0008ab80       _iswlower_l                000000018008bb80 f i libucrtd:_wctype.obj
 0001:0008abb0       _iswprint_l                000000018008bbb0 f i libucrtd:_wctype.obj
 0001:0008abe0       _iswpunct_l                000000018008bbe0 f i libucrtd:_wctype.obj
 0001:0008ac10       _iswspace_l                000000018008bc10 f i libucrtd:_wctype.obj
 0001:0008ac40       _iswupper_l                000000018008bc40 f i libucrtd:_wctype.obj
 0001:0008ac70       _iswxdigit_l               000000018008bc70 f i libucrtd:_wctype.obj
 0001:0008aca0       isleadbyte                 000000018008bca0 f i libucrtd:_wctype.obj
 0001:0008acc0       iswalnum                   000000018008bcc0 f i libucrtd:_wctype.obj
 0001:0008ace0       iswalpha                   000000018008bce0 f i libucrtd:_wctype.obj
 0001:0008ad00       iswascii                   000000018008bd00 f i libucrtd:_wctype.obj
 0001:0008ad30       iswblank                   000000018008bd30 f i libucrtd:_wctype.obj
 0001:0008ad70       iswcntrl                   000000018008bd70 f i libucrtd:_wctype.obj
 0001:0008ad90       iswdigit                   000000018008bd90 f i libucrtd:_wctype.obj
 0001:0008adb0       iswgraph                   000000018008bdb0 f i libucrtd:_wctype.obj
 0001:0008add0       iswlower                   000000018008bdd0 f i libucrtd:_wctype.obj
 0001:0008adf0       iswprint                   000000018008bdf0 f i libucrtd:_wctype.obj
 0001:0008ae10       iswpunct                   000000018008be10 f i libucrtd:_wctype.obj
 0001:0008ae30       iswspace                   000000018008be30 f i libucrtd:_wctype.obj
 0001:0008ae50       iswupper                   000000018008be50 f i libucrtd:_wctype.obj
 0001:0008ae70       iswxdigit                  000000018008be70 f i libucrtd:_wctype.obj
 0001:0008af00       ?__mbrtowc_utf8@__crt_mbstring@@YA_KPEA_WPEBD_KPEAU_Mbstatet@@@Z 000000018008bf00 f   libucrtd:mbrtowc.obj
 0001:0008af70       ?__mbsrtowcs_utf8@__crt_mbstring@@YA_KPEA_WPEAPEBD_KPEAU_Mbstatet@@@Z 000000018008bf70 f   libucrtd:mbrtowc.obj
 0001:0008bbe0       btowc                      000000018008cbe0 f   libucrtd:mbrtowc.obj
 0001:0008bc80       mbrlen                     000000018008cc80 f   libucrtd:mbrtowc.obj
 0001:0008bcf0       mbrtowc                    000000018008ccf0 f   libucrtd:mbrtowc.obj
 0001:0008bdc0       mbsrtowcs                  000000018008cdc0 f   libucrtd:mbrtowc.obj
 0001:0008be00       mbsrtowcs_s                000000018008ce00 f   libucrtd:mbrtowc.obj
 0001:0008c300       ??$?RG@__crt_internal_free_policy@@QEBAXQEBG@Z 000000018008d300 f i libucrtd:initctype.obj
 0001:0008c330       ??$?RJ@__crt_internal_free_policy@@QEBAXQEBJ@Z 000000018008d330 f i libucrtd:initctype.obj
 0001:0008c360       ??0?$__crt_unique_heap_ptr@GU__crt_internal_free_policy@@@@QEAA@QEAG@Z 000000018008d360 f i libucrtd:initctype.obj
 0001:0008c380       ??0?$__crt_unique_heap_ptr@JU__crt_internal_free_policy@@@@QEAA@QEAJ@Z 000000018008d380 f i libucrtd:initctype.obj
 0001:0008c3a0       ??1?$__crt_unique_heap_ptr@GU__crt_internal_free_policy@@@@QEAA@XZ 000000018008d3a0 f i libucrtd:initctype.obj
 0001:0008c3c0       ??1?$__crt_unique_heap_ptr@JU__crt_internal_free_policy@@@@QEAA@XZ 000000018008d3c0 f i libucrtd:initctype.obj
 0001:0008c3e0       ?detach@?$__crt_unique_heap_ptr@GU__crt_internal_free_policy@@@@QEAAPEAGXZ 000000018008d3e0 f i libucrtd:initctype.obj
 0001:0008c410       ?detach@?$__crt_unique_heap_ptr@JU__crt_internal_free_policy@@@@QEAAPEAJXZ 000000018008d410 f i libucrtd:initctype.obj
 0001:0008c440       ?release@?$__crt_unique_heap_ptr@GU__crt_internal_free_policy@@@@QEAAXXZ 000000018008d440 f i libucrtd:initctype.obj
 0001:0008c470       ?release@?$__crt_unique_heap_ptr@JU__crt_internal_free_policy@@@@QEAAXXZ 000000018008d470 f i libucrtd:initctype.obj
 0001:0008c4a0       ___lc_codepage_func        000000018008d4a0 f   libucrtd:initctype.obj
 0001:0008c4e0       ___lc_collate_cp_func      000000018008d4e0 f   libucrtd:initctype.obj
 0001:0008c520       ___lc_locale_name_func     000000018008d520 f   libucrtd:initctype.obj
 0001:0008c560       ___mb_cur_max_func         000000018008d560 f   libucrtd:initctype.obj
 0001:0008c5a0       ___mb_cur_max_l_func       000000018008d5a0 f   libucrtd:initctype.obj
 0001:0008c5e0       __acrt_locale_initialize_ctype 000000018008d5e0 f   libucrtd:initctype.obj
 0001:0008d090       ?__c32rtomb_utf8@__crt_mbstring@@YA_KPEAD_UPEAU_Mbstatet@@@Z 000000018008e090 f   libucrtd:c32rtomb.obj
 0001:0008d310       ?reset_and_return@__crt_mbstring@@YA_K_KPEAU_Mbstatet@@@Z 000000018008e310 f i libucrtd:c32rtomb.obj
 0001:0008d350       ?return_illegal_sequence@__crt_mbstring@@YA_KPEAU_Mbstatet@@@Z 000000018008e350 f i libucrtd:c32rtomb.obj
 0001:0008d390       c32rtomb                   000000018008e390 f   libucrtd:c32rtomb.obj
 0001:0008d3c0       __acrt_add_locale_ref      000000018008e3c0 f   libucrtd:locale_refcounting.obj
 0001:0008d520       __acrt_free_locale         000000018008e520 f   libucrtd:locale_refcounting.obj
 0001:0008d8a0       __acrt_locale_add_lc_time_reference 000000018008e8a0 f   libucrtd:locale_refcounting.obj
 0001:0008d8e0       __acrt_locale_free_lc_time_if_unreferenced 000000018008e8e0 f   libucrtd:locale_refcounting.obj
 0001:0008d940       __acrt_locale_release_lc_time_reference 000000018008e940 f   libucrtd:locale_refcounting.obj
 0001:0008d980       __acrt_release_locale_ref  000000018008e980 f   libucrtd:locale_refcounting.obj
 0001:0008daf0       __acrt_update_thread_locale_data 000000018008eaf0 f   libucrtd:locale_refcounting.obj
 0001:0008db90       _updatetlocinfoEx_nolock   000000018008eb90 f   libucrtd:locale_refcounting.obj
 0001:0008dd60       __acrt_fp_strflt_to_string 000000018008ed60 f   libucrtd:_fptostr.obj
 0001:0008e860       ??0big_integer@__crt_strtox@@QEAA@AEBU01@@Z 000000018008f860 f i libucrtd:cfout.obj
 0001:0008e8c0       ??0big_integer@__crt_strtox@@QEAA@XZ 000000018008f8c0 f i libucrtd:cfout.obj
 0001:0008e980       ??4big_integer@__crt_strtox@@QEAAAEAU01@AEBU01@@Z 000000018008f980 f i libucrtd:cfout.obj
 0001:0008e9e0       ??8__crt_strtox@@YA_NAEBUbig_integer@0@0@Z 000000018008f9e0 f i libucrtd:cfout.obj
 0001:0008ea50       ??9__crt_strtox@@YA_NAEBUbig_integer@0@0@Z 000000018008fa50 f i libucrtd:cfout.obj
 0001:0008ea90       ?add_carry@__crt_strtox@@YAIAEAIII@Z 000000018008fa90 f i libucrtd:cfout.obj
 0001:0008eae0       ?add_multiply_carry@__crt_strtox@@YAIAEAIIII@Z 000000018008fae0 f i libucrtd:cfout.obj
 0001:0008eb40       ?bit_scan_reverse@__crt_strtox@@YAII@Z 000000018008fb40 f i libucrtd:cfout.obj
 0001:0008eb80       ?count_sequential_high_zeroes@__crt_strtox@@YAII@Z 000000018008fb80 f i libucrtd:cfout.obj
 0001:0008ebc0       ?divide@__crt_strtox@@YA_KAEAUbig_integer@1@AEBU21@@Z 000000018008fbc0 f i libucrtd:cfout.obj
 0001:0008f590       ?is_zero@__crt_strtox@@YA_NAEBUbig_integer@1@@Z 0000000180090590 f i libucrtd:cfout.obj
 0001:0008f5c0       ?make_big_integer@__crt_strtox@@YA?AUbig_integer@1@_K@Z 00000001800905c0 f i libucrtd:cfout.obj
 0001:0008f690       ?make_big_integer_power_of_two@__crt_strtox@@YA?AUbig_integer@1@I@Z 0000000180090690 f i libucrtd:cfout.obj
 0001:0008f760       ?multiply@__crt_strtox@@YA_NAEAUbig_integer@1@AEBU21@@Z 0000000180090760 f i libucrtd:cfout.obj
 0001:0008fae0       ?multiply@__crt_strtox@@YA_NAEAUbig_integer@1@I@Z 0000000180090ae0 f i libucrtd:cfout.obj
 0001:0008fc00       ?multiply_64_32@__crt_strtox@@YA_K_KI@Z 0000000180090c00 f i libucrtd:cfout.obj
 0001:0008fc20       ?multiply_by_power_of_ten@__crt_strtox@@YA_NAEAUbig_integer@1@I@Z 0000000180090c20 f i libucrtd:cfout.obj
 0001:0008fdd0       ?multiply_core@__crt_strtox@@YAIQEAIII@Z 0000000180090dd0 f i libucrtd:cfout.obj
 0001:0008fe50       ?shift_left@__crt_strtox@@YA_NAEAUbig_integer@1@I@Z 0000000180090e50 f i libucrtd:cfout.obj
 0001:00090130       __acrt_fltout              0000000180091130 f   libucrtd:cfout.obj
 0001:00090620       __fpe_flt_rounds           0000000180091620 f   libucrtd:fegetround.obj
 0001:00090680       fegetround                 0000000180091680 f   libucrtd:fegetround.obj
 0001:00090fd0       ?has_big_buffer@__crt_stdio_stream@@QEBA_NXZ 0000000180091fd0 f i libucrtd:_flsbuf.obj
 0001:000910f0       __acrt_stdio_flush_and_write_narrow_nolock 00000001800920f0 f   libucrtd:_flsbuf.obj
 0001:00091120       __acrt_stdio_flush_and_write_wide_nolock 0000000180092120 f   libucrtd:_flsbuf.obj
 0001:00091150       ??0__crt_stdio_stream@@QEAA@QEAU__crt_stdio_stream_data@@@Z 0000000180092150 f i libucrtd:closeall.obj
 0001:00091170       ?is_in_use@__crt_stdio_stream@@QEBA_NXZ 0000000180092170 f i libucrtd:closeall.obj
 0001:000911b0       _fcloseall                 00000001800921b0 f   libucrtd:closeall.obj
 0001:00091890       ?__acrt_stdio_reset_buffer@@YAXV__crt_stdio_stream@@@Z 0000000180092890 f i libucrtd:fflush.obj
 0001:000919c0       ?has_all_of@__crt_stdio_stream@@QEBA_NJ@Z 00000001800929c0 f i libucrtd:fflush.obj
 0001:00091aa0       __acrt_stdio_flush_nolock  0000000180092aa0 f   libucrtd:fflush.obj
 0001:00091bb0       _fflush_nolock             0000000180092bb0 f   libucrtd:fflush.obj
 0001:00091c40       _flushall                  0000000180092c40 f   libucrtd:fflush.obj
 0001:00091c50       fflush                     0000000180092c50 f   libucrtd:fflush.obj
 0001:00091ce0       ?has_crt_buffer@__crt_stdio_stream@@QEBA_NXZ 0000000180092ce0 f i libucrtd:_freebuf.obj
 0001:00091d00       __acrt_stdio_free_buffer_nolock 0000000180092d00 f   libucrtd:_freebuf.obj
 0001:00091de0       _isatty                    0000000180092de0 f   libucrtd:isatty.obj
 0001:00091ef0       ??$?RUlconv@@@__crt_internal_free_policy@@QEBAXQEBUlconv@@@Z 0000000180092ef0 f i libucrtd:initmon.obj
 0001:00091f20       ??0?$__crt_unique_heap_ptr@Ulconv@@U__crt_internal_free_policy@@@@QEAA@QEAUlconv@@@Z 0000000180092f20 f i libucrtd:initmon.obj
 0001:00091f40       ??1?$__crt_unique_heap_ptr@Ulconv@@U__crt_internal_free_policy@@@@QEAA@XZ 0000000180092f40 f i libucrtd:initmon.obj
 0001:00091f60       ?detach@?$__crt_unique_heap_ptr@Ulconv@@U__crt_internal_free_policy@@@@QEAAPEAUlconv@@XZ 0000000180092f60 f i libucrtd:initmon.obj
 0001:00091f90       ?release@?$__crt_unique_heap_ptr@Ulconv@@U__crt_internal_free_policy@@@@QEAAXXZ 0000000180092f90 f i libucrtd:initmon.obj
 0001:00091fc0       __acrt_locale_free_monetary 0000000180092fc0 f   libucrtd:initmon.obj
 0001:000921d0       __acrt_locale_initialize_monetary 00000001800931d0 f   libucrtd:initmon.obj
 0001:00092b80       __acrt_locale_free_numeric 0000000180093b80 f   libucrtd:initnum.obj
 0001:00092c60       __acrt_locale_initialize_numeric 0000000180093c60 f   libucrtd:initnum.obj
 0001:00093270       ??$?RU__crt_lc_time_data@@@__crt_internal_free_policy@@QEBAXQEBU__crt_lc_time_data@@@Z 0000000180094270 f i libucrtd:inittime.obj
 0001:00093360       ??0?$__crt_unique_heap_ptr@U__crt_lc_time_data@@U__crt_internal_free_policy@@@@QEAA@QEAU__crt_lc_time_data@@@Z 0000000180094360 f i libucrtd:inittime.obj
 0001:00093380       ??1?$__crt_unique_heap_ptr@U__crt_lc_time_data@@U__crt_internal_free_policy@@@@QEAA@XZ 0000000180094380 f i libucrtd:inittime.obj
 0001:000933a0       ??B?$__crt_unique_heap_ptr@U__crt_lc_time_data@@U__crt_internal_free_policy@@@@QEBA_NXZ 00000001800943a0 f i libucrtd:inittime.obj
 0001:000933c0       ?detach@?$__crt_unique_heap_ptr@U__crt_lc_time_data@@U__crt_internal_free_policy@@@@QEAAPEAU__crt_lc_time_data@@XZ 00000001800943c0 f i libucrtd:inittime.obj
 0001:00093450       ?get@?$__crt_unique_heap_ptr@U__crt_lc_time_data@@U__crt_internal_free_policy@@@@QEBAPEAU__crt_lc_time_data@@XZ 0000000180094450 f i libucrtd:inittime.obj
 0001:00093ac0       ?is_valid@?$__crt_unique_heap_ptr@U__crt_lc_time_data@@U__crt_internal_free_policy@@@@QEBA_NXZ 0000000180094ac0 f i libucrtd:inittime.obj
 0001:00093af0       ?release@?$__crt_unique_heap_ptr@U__crt_lc_time_data@@U__crt_internal_free_policy@@@@QEAAXXZ 0000000180094af0 f i libucrtd:inittime.obj
 0001:00093b20       __acrt_locale_free_time    0000000180094b20 f   libucrtd:inittime.obj
 0001:00093c90       __acrt_locale_initialize_time 0000000180094c90 f   libucrtd:inittime.obj
 0001:00093d30       __pctype_func              0000000180094d30 f   libucrtd:ctype.obj
 0001:00093d70       __pwctype_func             0000000180094d70 f   libucrtd:ctype.obj
 0001:00094510       wcsncat_s                  0000000180095510 f   libucrtd:wcsncat_s.obj
 0001:00094550       wcscmp                     0000000180095550 f   libucrtd:wcscmp.obj
 0001:000945f0       wcscspn                    00000001800955f0 f   libucrtd:wcscspn.obj
 0001:00094690       wcspbrk                    0000000180095690 f   libucrtd:wcspbrk.obj
 0001:00094710       ??0?$__crt_scoped_stack_ptr@_W@@QEAA@U?$__crt_scoped_stack_ptr_tag@_W@@@Z 0000000180095710 f i libucrtd:getstringtypea.obj
 0001:00094730       ??0?$__crt_scoped_stack_ptr_tag@_W@@QEAA@QEA_W@Z 0000000180095730 f i libucrtd:getstringtypea.obj
 0001:00094750       ??1?$__crt_scoped_stack_ptr@_W@@QEAA@XZ 0000000180095750 f i libucrtd:getstringtypea.obj
 0001:00094770       ?get@?$__crt_scoped_stack_ptr@_W@@QEBAPEA_WXZ 0000000180095770 f i libucrtd:getstringtypea.obj
 0001:00094780       _MallocaComputeSize        0000000180095780 f i libucrtd:getstringtypea.obj
 0001:000947c0       _MarkAllocaS               00000001800957c0 f i libucrtd:getstringtypea.obj
 0001:000947f0       __acrt_GetStringTypeA      00000001800957f0 f   libucrtd:getstringtypea.obj
 0001:00094a50       _freea_crt                 0000000180095a50 f i libucrtd:getstringtypea.obj
 0001:000957d0       __acrt_get_qualified_locale 00000001800967d0 f   libucrtd:get_qualified_locale.obj
 0001:000968f0       __acrt_get_qualified_locale_downlevel 00000001800978f0 f   libucrtd:getqloc_downlevel.obj
 0001:00096c50       localeconv                 0000000180097c50 f   libucrtd:localeconv.obj
 0001:00096c90       ??$?RU__crt_lowio_handle_data@@@__crt_internal_free_policy@@QEBAXQEBU__crt_lowio_handle_data@@@Z 0000000180097c90 f i libucrtd:osfinfo.obj
 0001:00096cc0       ??0?$__crt_unique_heap_ptr@U__crt_lowio_handle_data@@U__crt_internal_free_policy@@@@QEAA@QEAU__crt_lowio_handle_data@@@Z 0000000180097cc0 f i libucrtd:osfinfo.obj
 0001:00096ce0       ??1?$__crt_unique_heap_ptr@U__crt_lowio_handle_data@@U__crt_internal_free_policy@@@@QEAA@XZ 0000000180097ce0 f i libucrtd:osfinfo.obj
 0001:00096d00       ??B?$__crt_unique_heap_ptr@U__crt_lowio_handle_data@@U__crt_internal_free_policy@@@@QEBA_NXZ 0000000180097d00 f i libucrtd:osfinfo.obj
 0001:00096d20       ?detach@?$__crt_unique_heap_ptr@U__crt_lowio_handle_data@@U__crt_internal_free_policy@@@@QEAAPEAU__crt_lowio_handle_data@@XZ 0000000180097d20 f i libucrtd:osfinfo.obj
 0001:00096d50       ?get@?$__crt_unique_heap_ptr@U__crt_lowio_handle_data@@U__crt_internal_free_policy@@@@QEBAPEAU__crt_lowio_handle_data@@XZ 0000000180097d50 f i libucrtd:osfinfo.obj
 0001:00096d60       ?is_valid@?$__crt_unique_heap_ptr@U__crt_lowio_handle_data@@U__crt_internal_free_policy@@@@QEBA_NXZ 0000000180097d60 f i libucrtd:osfinfo.obj
 0001:00096d90       ?release@?$__crt_unique_heap_ptr@U__crt_lowio_handle_data@@U__crt_internal_free_policy@@@@QEAAXXZ 0000000180097d90 f i libucrtd:osfinfo.obj
 0001:00096dc0       __acrt_lowio_create_handle_array 0000000180097dc0 f   libucrtd:osfinfo.obj
 0001:00096f80       __acrt_lowio_destroy_handle_array 0000000180097f80 f   libucrtd:osfinfo.obj
 0001:00097000       __acrt_lowio_ensure_fh_exists 0000000180098000 f   libucrtd:osfinfo.obj
 0001:00097160       __acrt_lowio_lock_fh       0000000180098160 f   libucrtd:osfinfo.obj
 0001:000971a0       __acrt_lowio_set_os_handle 00000001800981a0 f   libucrtd:osfinfo.obj
 0001:000972b0       __acrt_lowio_unlock_fh     00000001800982b0 f   libucrtd:osfinfo.obj
 0001:000972f0       _alloc_osfhnd              00000001800982f0 f   libucrtd:osfinfo.obj
 0001:00097500       _free_osfhnd               0000000180098500 f   libucrtd:osfinfo.obj
 0001:00097630       _get_osfhandle             0000000180098630 f   libucrtd:osfinfo.obj
 0001:00097830       _open_osfhandle            0000000180098830 f   libucrtd:osfinfo.obj
 0001:00097a50       _malloc_base               0000000180098a50 f   libucrtd:malloc_base.obj
 0001:00097c60       qsort                      0000000180098c60 f   libucrtd:qsort.obj
 0001:000984a0       strpbrk                    00000001800994a0 f   libucrtd:strpbrk.obj
 0001:00098d90       ??B?$__crt_scoped_stack_ptr@_W@@QEBA_NXZ 0000000180099d90 f i libucrtd:lcmapstringa.obj
 0001:000993b0       __acrt_LCMapStringA        000000018009a3b0 f   libucrtd:lcmapstringa.obj
 0001:00099490       _wcsnicoll                 000000018009a490 f   libucrtd:wcsnicol.obj
 0001:000996e0       _wcsnicoll_l               000000018009a6e0 f   libucrtd:wcsnicol.obj
 0001:00099a20       _strnicoll                 000000018009aa20 f   libucrtd:strnicol.obj
 0001:00099a80       _strnicoll_l               000000018009aa80 f   libucrtd:strnicol.obj
 0001:0009a050       __acrt_SetEnvironmentVariableA 000000018009b050 f   libucrtd:setenvironmentvariablea.obj
 0001:0009a2a0       __acrt_DownlevelLCIDToLocaleName 000000018009b2a0 f   libucrtd:lcidtoname_downlevel.obj
 0001:0009a3a0       __acrt_DownlevelLocaleNameToLCID 000000018009b3a0 f   libucrtd:lcidtoname_downlevel.obj
 0001:0009a400       _set_error_mode            000000018009b400 f   libucrtd:set_error_mode.obj
 0001:0009a500       __acrt_GetStringTypeW      000000018009b500 f   libucrtd:getstringtypew.obj
 0001:0009a540       ?__wcsrtombs_utf8@__crt_mbstring@@YA_KPEADPEAPEB_W_KPEAU_Mbstatet@@@Z 000000018009b540 f   libucrtd:wcrtomb.obj
 0001:0009b090       wcrtomb                    000000018009c090 f   libucrtd:wcrtomb.obj
 0001:0009b100       wcrtomb_s                  000000018009c100 f   libucrtd:wcrtomb.obj
 0001:0009b290       wcsrtombs                  000000018009c290 f   libucrtd:wcrtomb.obj
 0001:0009b2d0       wcsrtombs_s                000000018009c2d0 f   libucrtd:wcrtomb.obj
 0001:0009b7d0       wctob                      000000018009c7d0 f   libucrtd:wcrtomb.obj
 0001:0009b880       ?__mbrtoc32_utf8@__crt_mbstring@@YA_KPEA_UPEBD_KPEAU_Mbstatet@@@Z 000000018009c880 f   libucrtd:mbrtoc32.obj
 0001:0009bc40       mbrtoc32                   000000018009cc40 f   libucrtd:mbrtoc32.obj
 0001:0009be90       __acrt_GetLocaleInfoA      000000018009ce90 f   libucrtd:getlocaleinfoa.obj
 0001:0009c2f0       log10                      000000018009d2f0 f   libucrtd:log10.obj
 0001:0009c8a0       ceil                       000000018009d8a0 f   libucrtd:ceil.obj
 0001:0009ca70       _controlfp_s               000000018009da70 f   libucrtd:contrlfp.obj
 0001:0009cba0       fegetenv                   000000018009dba0 f   libucrtd:fegetenv.obj
 0001:0009cbd0       fesetenv                   000000018009dbd0 f   libucrtd:fesetenv.obj
 0001:0009cc50       feholdexcept               000000018009dc50 f   libucrtd:feholdexcept.obj
 0001:0009ccc0       ??$__acrt_fenv_shift_bits@W4__acrt_fenv_abstract_control@@@@YA?AW4__acrt_fenv_abstract_control@@W40@0I@Z 000000018009dcc0 f i libucrtd:_fenvutils.obj
 0001:0009ccf0       ??$__acrt_fenv_shift_bits@W4__acrt_fenv_abstract_status@@@@YA?AW4__acrt_fenv_abstract_status@@W40@0I@Z 000000018009dcf0 f i libucrtd:_fenvutils.obj
 0001:0009cd20       ??$__acrt_fenv_translate_bit@W4__acrt_fenv_abstract_control@@W4__acrt_fenv_machine_sse_control@@@@YA?AW4__acrt_fenv_abstract_control@@W4__acrt_fenv_machine_sse_control@@0W40@1@Z 000000018009dd20 f i libucrtd:_fenvutils.obj
 0001:0009cd80       ??$__acrt_fenv_translate_bit@W4__acrt_fenv_abstract_status@@W4__acrt_fenv_machine_sse_status@@@@YA?AW4__acrt_fenv_abstract_status@@W4__acrt_fenv_machine_sse_status@@0W40@1@Z 000000018009dd80 f i libucrtd:_fenvutils.obj
 0001:0009cdd0       ??$__acrt_fenv_translate_bit@W4__acrt_fenv_machine_sse_control@@W4__acrt_fenv_abstract_control@@@@YA?AW4__acrt_fenv_machine_sse_control@@W4__acrt_fenv_abstract_control@@0W40@1@Z 000000018009ddd0 f i libucrtd:_fenvutils.obj
 0001:0009ce30       ??$__acrt_fenv_translate_bit@W4__acrt_fenv_machine_sse_status@@W4__acrt_fenv_abstract_status@@@@YA?AW4__acrt_fenv_machine_sse_status@@W4__acrt_fenv_abstract_status@@0W40@1@Z 000000018009de30 f i libucrtd:_fenvutils.obj
 0001:0009ce80       ??$__acrt_fenv_unshift_bits@W4__acrt_fenv_abstract_control@@@@YA?AW4__acrt_fenv_abstract_control@@W40@0I@Z 000000018009de80 f i libucrtd:_fenvutils.obj
 0001:0009ceb0       ??$__acrt_fenv_unshift_bits@W4__acrt_fenv_abstract_status@@@@YA?AW4__acrt_fenv_abstract_status@@W40@0I@Z 000000018009deb0 f i libucrtd:_fenvutils.obj
 0001:0009d3a0       ??I@YA?AW4__acrt_fenv_abstract_control@@W40@0@Z 000000018009e3a0 f i libucrtd:_fenvutils.obj
 0001:0009d3c0       ??I@YA?AW4__acrt_fenv_abstract_status@@W40@0@Z 000000018009e3c0 f i libucrtd:_fenvutils.obj
 0001:0009d3e0       ??I@YA?AW4__acrt_fenv_machine_sse_control@@W40@0@Z 000000018009e3e0 f i libucrtd:_fenvutils.obj
 0001:0009d400       ??I@YA?AW4__acrt_fenv_machine_sse_status@@W40@0@Z 000000018009e400 f i libucrtd:_fenvutils.obj
 0001:0009d420       ??U@YA?AW4__acrt_fenv_abstract_control@@W40@0@Z 000000018009e420 f i libucrtd:_fenvutils.obj
 0001:0009d440       ??U@YA?AW4__acrt_fenv_abstract_status@@W40@0@Z 000000018009e440 f i libucrtd:_fenvutils.obj
 0001:0009d460       ??U@YA?AW4__acrt_fenv_machine_sse_control@@W40@0@Z 000000018009e460 f i libucrtd:_fenvutils.obj
 0001:0009d480       ??_5@YAAEAW4__acrt_fenv_abstract_control@@AEAW40@W40@@Z 000000018009e480 f i libucrtd:_fenvutils.obj
 0001:0009d4b0       ??_5@YAAEAW4__acrt_fenv_abstract_status@@AEAW40@W40@@Z 000000018009e4b0 f i libucrtd:_fenvutils.obj
 0001:0009d4e0       ??_5@YAAEAW4__acrt_fenv_machine_sse_control@@AEAW40@W40@@Z 000000018009e4e0 f i libucrtd:_fenvutils.obj
 0001:0009d510       ??_5@YAAEAW4__acrt_fenv_machine_sse_status@@AEAW40@W40@@Z 000000018009e510 f i libucrtd:_fenvutils.obj
 0001:0009d540       ?__acrt_fenv_shift_abstract_sse_control@@YA?AW4__acrt_fenv_abstract_control@@W41@@Z 000000018009e540 f i libucrtd:_fenvutils.obj
 0001:0009d590       ?__acrt_fenv_shift_abstract_sse_status@@YA?AW4__acrt_fenv_abstract_status@@W41@@Z 000000018009e590 f i libucrtd:_fenvutils.obj
 0001:0009d5c0       ?__acrt_fenv_unshift_abstract_sse_control@@YA?AW4__acrt_fenv_abstract_control@@W41@@Z 000000018009e5c0 f i libucrtd:_fenvutils.obj
 0001:0009d610       ?__acrt_fenv_unshift_abstract_sse_status@@YA?AW4__acrt_fenv_abstract_status@@W41@@Z 000000018009e610 f i libucrtd:_fenvutils.obj
 0001:0009d8e0       __acrt_fenv_expand_round_control 000000018009e8e0 f   libucrtd:_fenvutils.obj
 0001:0009d910       __acrt_fenv_get_common_round_control 000000018009e910 f   libucrtd:_fenvutils.obj
 0001:0009d930       __acrt_fenv_get_control    000000018009e930 f   libucrtd:_fenvutils.obj
 0001:0009d960       __acrt_fenv_get_fp_status_word_from_exception_mask 000000018009e960 f   libucrtd:_fenvutils.obj
 0001:0009d990       __acrt_fenv_get_status     000000018009e990 f   libucrtd:_fenvutils.obj
 0001:0009d9c0       __acrt_fenv_set_control    000000018009e9c0 f   libucrtd:_fenvutils.obj
 0001:0009d9e0       __acrt_fenv_set_status     000000018009e9e0 f   libucrtd:_fenvutils.obj
 0001:0009f410       _utf8_no_of_trailbytes     00000001800a0410 f i libucrtd:write.obj
 0001:0009f430       _write                     00000001800a0430 f   libucrtd:write.obj
 0001:0009f6d0       _write_nolock              00000001800a06d0 f   libucrtd:write.obj
 0001:000a0560       _lseek                     00000001800a1560 f   libucrtd:lseek.obj
 0001:000a0590       _lseek_nolock              00000001800a1590 f   libucrtd:lseek.obj
 0001:000a05c0       _lseeki64                  00000001800a15c0 f   libucrtd:lseek.obj
 0001:000a05f0       _lseeki64_nolock           00000001800a15f0 f   libucrtd:lseek.obj
 0001:000a0620       __acrt_stdio_allocate_buffer_nolock 00000001800a1620 f   libucrtd:_getbuf.obj
 0001:000a07a0       _fclose_nolock             00000001800a17a0 f   libucrtd:fclose.obj
 0001:000a0930       fclose                     00000001800a1930 f   libucrtd:fclose.obj
 0001:000a0c80       _commit                    00000001800a1c80 f   libucrtd:commit.obj
 0001:000a0e50       __ascii_wcsicmp            00000001800a1e50 f   libucrtd:wcsicmp.obj
 0001:000a0ef0       _towlower_fast_internal    00000001800a1ef0 f i libucrtd:wcsicmp.obj
 0001:000a0f40       _towlower_internal         00000001800a1f40 f i libucrtd:wcsicmp.obj
 0001:000a0f80       _wcsicmp                   00000001800a1f80 f   libucrtd:wcsicmp.obj
 0001:000a1120       _wcsicmp_l                 00000001800a2120 f   libucrtd:wcsicmp.obj
 0001:000a13c0       __ascii_wcsnicmp           00000001800a23c0 f   libucrtd:wcsnicmp.obj
 0001:000a1490       _wcsnicmp                  00000001800a2490 f   libucrtd:wcsnicmp.obj
 0001:000a1640       _wcsnicmp_l                00000001800a2640 f   libucrtd:wcsnicmp.obj
 0001:000a1920       __strncnt                  00000001800a2920 f   libucrtd:strncnt.obj
 0001:000a1980       __acrt_CompareStringW      00000001800a2980 f   libucrtd:comparestringw.obj
 0001:000a1ab0       __ascii_strnicmp           00000001800a2ab0 f   libucrtd:strnicmp.obj
 0001:000a1b80       _strnicmp                  00000001800a2b80 f   libucrtd:strnicmp.obj
 0001:000a1dd0       _strnicmp_l                00000001800a2dd0 f   libucrtd:strnicmp.obj
 0001:000a27a0       __acrt_CompareStringA      00000001800a37a0 f   libucrtd:comparestringa.obj
 0001:000a2840       ?__c16rtomb_utf8@__crt_mbstring@@YA_KPEAD_SPEAU_Mbstatet@@@Z 00000001800a3840 f   libucrtd:c16rtomb.obj
 0001:000a2a60       c16rtomb                   00000001800a3a60 f   libucrtd:c16rtomb.obj
 0001:000a2a90       __acrt_initialize_fma3     00000001800a3a90 f   libucrtd:fma3_available.obj
 0001:000a2b40       _get_FMA3_enable           00000001800a3b40 f   libucrtd:fma3_available.obj
 0001:000a2b50       _set_FMA3_enable           00000001800a3b50 f   libucrtd:fma3_available.obj
 0001:000a2b70       _log10_special             00000001800a3b70 f   libucrtd:log_special.obj
 0001:000a2bc0       _log10f_special            00000001800a3bc0 f   libucrtd:log_special.obj
 0001:000a2c10       _log_special               00000001800a3c10 f   libucrtd:log_special.obj
 0001:000a2d80       _logf_special              00000001800a3d80 f   libucrtd:log_special.obj
 0001:000a30f0       _handle_error              00000001800a40f0 f   libucrtd:libm_error.obj
 0001:000a3280       _handle_errorf             00000001800a4280 f   libucrtd:libm_error.obj
 0001:000a3410       _handle_nan                00000001800a4410 f   libucrtd:libm_error.obj
 0001:000a3460       _handle_nanf               00000001800a4460 f   libucrtd:libm_error.obj
 0001:000a3690       _clearfp                   00000001800a4690 f   libucrtd:ieee.obj
 0001:000a36b0       _control87                 00000001800a46b0 f   libucrtd:ieee.obj
 0001:000a36d0       _controlfp                 00000001800a46d0 f   libucrtd:ieee.obj
 0001:000a3700       _fpreset                   00000001800a4700 f   libucrtd:ieee.obj
 0001:000a3870       _set_controlfp             00000001800a4870 f   libucrtd:ieee.obj
 0001:000a38d0       _statusfp                  00000001800a48d0 f   libucrtd:ieee.obj
 0001:000a3aa0       _putwch                    00000001800a4aa0 f   libucrtd:putwch.obj
 0001:000a3adc       _putwch_nolock             00000001800a4adc f   libucrtd:putwch.obj
 0001:000a4920       _read                      00000001800a5920 f   libucrtd:read.obj
 0001:000a4c70       _read_nolock               00000001800a5c70 f   libucrtd:read.obj
 0001:000a5cf0       _close                     00000001800a6cf0 f   libucrtd:close.obj
 0001:000a5ee0       _close_nolock              00000001800a6ee0 f   libucrtd:close.obj
 0001:000a5f50       ??$?RU__crt_stdio_stream_data@@@__crt_internal_free_policy@@QEBAXQEBU__crt_stdio_stream_data@@@Z 00000001800a6f50 f i libucrtd:stream.obj
 0001:000a5f80       ??0?$__crt_unique_heap_ptr@U__crt_stdio_stream_data@@U__crt_internal_free_policy@@@@QEAA@QEAU__crt_stdio_stream_data@@@Z 00000001800a6f80 f i libucrtd:stream.obj
 0001:000a5fa0       ??0__crt_stdio_stream@@QEAA@XZ 00000001800a6fa0 f i libucrtd:stream.obj
 0001:000a5fc0       ??1?$__crt_unique_heap_ptr@U__crt_stdio_stream_data@@U__crt_internal_free_policy@@@@QEAA@XZ 00000001800a6fc0 f i libucrtd:stream.obj
 0001:000a5fe0       ?__acrt_stdio_allocate_stream@@YA?AV__crt_stdio_stream@@XZ 00000001800a6fe0 f   libucrtd:stream.obj
 0001:000a60a0       ?__acrt_stdio_free_stream@@YAXV__crt_stdio_stream@@@Z 00000001800a70a0 f   libucrtd:stream.obj
 0001:000a6140       ?deallocate@__crt_stdio_stream@@QEAAXXZ 00000001800a7140 f i libucrtd:stream.obj
 0001:000a6160       ?detach@?$__crt_unique_heap_ptr@U__crt_stdio_stream_data@@U__crt_internal_free_policy@@@@QEAAPEAU__crt_stdio_stream_data@@XZ 00000001800a7160 f i libucrtd:stream.obj
 0001:000a6340       ?lock@__crt_stdio_stream@@QEBAXXZ 00000001800a7340 f i libucrtd:stream.obj
 0001:000a6360       ?release@?$__crt_unique_heap_ptr@U__crt_stdio_stream_data@@U__crt_internal_free_policy@@@@QEAAXXZ 00000001800a7360 f i libucrtd:stream.obj
 0001:000a6390       ?try_allocate@__crt_stdio_stream@@QEAA_NXZ 00000001800a7390 f i libucrtd:stream.obj
 0001:000a6400       ?unlock@__crt_stdio_stream@@QEBAXXZ 00000001800a7400 f i libucrtd:stream.obj
 0001:000a6420       _towlower_l                00000001800a7420 f   libucrtd:towlower.obj
 0001:000a6550       towlower                   00000001800a7550 f   libucrtd:towlower.obj
 0001:000a6570       _errcode                   00000001800a7570 f   libucrtd:fpexcept.obj
 0001:000a65f0       _except1                   00000001800a75f0 f   libucrtd:fpexcept.obj
 0001:000a6730       _except2                   00000001800a7730 f   libucrtd:fpexcept.obj
 0001:000a68f0       _handle_exc                00000001800a78f0 f   libucrtd:fpexcept.obj
 0001:000a6d50       _handle_qnan2              00000001800a7d50 f   libucrtd:fpexcept.obj
 0001:000a6d80       _raise_exc                 00000001800a7d80 f   libucrtd:fpexcept.obj
 0001:000a6de0       _raise_exc_ex              00000001800a7de0 f   libucrtd:fpexcept.obj
 0001:000a7460       _raise_excf                00000001800a8460 f   libucrtd:fpexcept.obj
 0001:000a74c0       _set_errno_from_matherr    00000001800a84c0 f   libucrtd:fpexcept.obj
 0001:000a7510       _umatherr                  00000001800a8510 f   libucrtd:fpexcept.obj
 0001:000a75e0       _clrfp                     00000001800a85e0 f   libucrtd:fpctrl.obj
 0001:000a7610       _ctrlfp                    00000001800a8610 f   libucrtd:fpctrl.obj
 0001:000a76c0       _set_statfp                00000001800a86c0 f   libucrtd:fpctrl.obj
 0001:000a7700       _statfp                    00000001800a8700 f   libucrtd:fpctrl.obj
 0001:000a7740       _get_fpsr                  00000001800a8740 f   libucrtd:fpsr.obj
 0001:000a7750       _set_fpsr                  00000001800a8750 f   libucrtd:fpsr.obj
 0001:000a775a       _fclrf                     00000001800a875a f   libucrtd:fpsr.obj
 0001:000a776e       _frnd                      00000001800a876e f   libucrtd:fpsr.obj
 0001:000a78b8       __dcrt_lowio_ensure_console_output_initialized 00000001800a88b8 f   libucrtd:initcon.obj
 0001:000a790c       __dcrt_terminate_console_output 00000001800a890c f   libucrtd:initcon.obj
 0001:000a7928       __dcrt_write_console       00000001800a8928 f   libucrtd:initcon.obj
 0001:000a79f0       __acrt_LCMapStringW        00000001800a89f0 f   libucrtd:lcmapstringw.obj
 0001:000a7ab0       _add_exp                   00000001800a8ab0 f   libucrtd:util.obj
 0001:000a7af0       _decomp                    00000001800a8af0 f   libucrtd:util.obj
 0001:000a7c40       _get_exp                   00000001800a8c40 f   libucrtd:util.obj
 0001:000a7c80       _set_bexp                  00000001800a8c80 f   libucrtd:util.obj
 0001:000a7cc0       _set_exp                   00000001800a8cc0 f   libucrtd:util.obj
 0001:000a7d10       _sptype                    00000001800a8d10 f   libucrtd:util.obj
 0001:000a7d8b       IsDebuggerPresent          00000001800a8d8b f   kernel32:KERNEL32.dll
 0001:000a7d91       OutputDebugStringW         00000001800a8d91 f   kernel32:KERNEL32.dll
 0001:000a7d97       RtlCaptureContext          00000001800a8d97 f   kernel32:KERNEL32.dll
 0001:000a7d9d       RtlLookupFunctionEntry     00000001800a8d9d f   kernel32:KERNEL32.dll
 0001:000a7da3       RtlVirtualUnwind           00000001800a8da3 f   kernel32:KERNEL32.dll
 0001:000a7da9       UnhandledExceptionFilter   00000001800a8da9 f   kernel32:KERNEL32.dll
 0001:000a7daf       SetUnhandledExceptionFilter 00000001800a8daf f   kernel32:KERNEL32.dll
 0001:000a7db5       GetCurrentProcess          00000001800a8db5 f   kernel32:KERNEL32.dll
 0001:000a7dbb       TerminateProcess           00000001800a8dbb f   kernel32:KERNEL32.dll
 0001:000a7dc1       IsProcessorFeaturePresent  00000001800a8dc1 f   kernel32:KERNEL32.dll
 0001:000a7dc7       GetStartupInfoW            00000001800a8dc7 f   kernel32:KERNEL32.dll
 0001:000a7dcd       WideCharToMultiByte        00000001800a8dcd f   kernel32:KERNEL32.dll
 0001:000a7dd3       QueryPerformanceCounter    00000001800a8dd3 f   kernel32:KERNEL32.dll
 0001:000a7dd9       GetCurrentProcessId        00000001800a8dd9 f   kernel32:KERNEL32.dll
 0001:000a7ddf       GetCurrentThreadId         00000001800a8ddf f   kernel32:KERNEL32.dll
 0001:000a7de5       GetSystemTimeAsFileTime    00000001800a8de5 f   kernel32:KERNEL32.dll
 0001:000a7deb       InitializeSListHead        00000001800a8deb f   kernel32:KERNEL32.dll
 0001:000a7df1       HeapAlloc                  00000001800a8df1 f   kernel32:KERNEL32.dll
 0001:000a7df7       HeapFree                   00000001800a8df7 f   kernel32:KERNEL32.dll
 0001:000a7dfd       GetProcessHeap             00000001800a8dfd f   kernel32:KERNEL32.dll
 0001:000a7e03       VirtualQuery               00000001800a8e03 f   kernel32:KERNEL32.dll
 0001:000a7e09       RtlUnwindEx                00000001800a8e09 f   kernel32:KERNEL32.dll
 0001:000a7e0f       InterlockedPushEntrySList  00000001800a8e0f f   kernel32:KERNEL32.dll
 0001:000a7e15       InterlockedFlushSList      00000001800a8e15 f   kernel32:KERNEL32.dll
 0001:000a7e1b       RtlPcToFileHeader          00000001800a8e1b f   kernel32:KERNEL32.dll
 0001:000a7e21       InitializeCriticalSectionAndSpinCount 00000001800a8e21 f   kernel32:KERNEL32.dll
 0001:000a7e27       TlsAlloc                   00000001800a8e27 f   kernel32:KERNEL32.dll
 0001:000a7e2d       TlsGetValue                00000001800a8e2d f   kernel32:KERNEL32.dll
 0001:000a7e33       TlsSetValue                00000001800a8e33 f   kernel32:KERNEL32.dll
 0001:000a7e39       TlsFree                    00000001800a8e39 f   kernel32:KERNEL32.dll
 0001:000a7e3f       GetModuleHandleExW         00000001800a8e3f f   kernel32:KERNEL32.dll
 0001:000a7e45       ExitProcess                00000001800a8e45 f   kernel32:KERNEL32.dll
 0001:000a7e4b       HeapSize                   00000001800a8e4b f   kernel32:KERNEL32.dll
 0001:000a7e51       HeapValidate               00000001800a8e51 f   kernel32:KERNEL32.dll
 0001:000a7e57       GetSystemInfo              00000001800a8e57 f   kernel32:KERNEL32.dll
 0001:000a7e5d       GetStdHandle               00000001800a8e5d f   kernel32:KERNEL32.dll
 0001:000a7e63       GetFileType                00000001800a8e63 f   kernel32:KERNEL32.dll
 0001:000a7e69       WriteFile                  00000001800a8e69 f   kernel32:KERNEL32.dll
 0001:000a7e6f       WriteConsoleW              00000001800a8e6f f   kernel32:KERNEL32.dll
 0001:000a7e75       SetConsoleCtrlHandler      00000001800a8e75 f   kernel32:KERNEL32.dll
 0001:000a7e7b       GetCurrentThread           00000001800a8e7b f   kernel32:KERNEL32.dll
 0001:000a7e81       HeapReAlloc                00000001800a8e81 f   kernel32:KERNEL32.dll
 0001:000a7e87       FindClose                  00000001800a8e87 f   kernel32:KERNEL32.dll
 0001:000a7e8d       FindFirstFileExW           00000001800a8e8d f   kernel32:KERNEL32.dll
 0001:000a7e93       FindNextFileW              00000001800a8e93 f   kernel32:KERNEL32.dll
 0001:000a7e99       IsValidCodePage            00000001800a8e99 f   kernel32:KERNEL32.dll
 0001:000a7e9f       GetACP                     00000001800a8e9f f   kernel32:KERNEL32.dll
 0001:000a7ea5       GetOEMCP                   00000001800a8ea5 f   kernel32:KERNEL32.dll
 0001:000a7eab       GetCPInfo                  00000001800a8eab f   kernel32:KERNEL32.dll
 0001:000a7eb1       GetCommandLineA            00000001800a8eb1 f   kernel32:KERNEL32.dll
 0001:000a7eb7       GetCommandLineW            00000001800a8eb7 f   kernel32:KERNEL32.dll
 0001:000a7ebd       GetEnvironmentStringsW     00000001800a8ebd f   kernel32:KERNEL32.dll
 0001:000a7ec3       FreeEnvironmentStringsW    00000001800a8ec3 f   kernel32:KERNEL32.dll
 0001:000a7ec9       SetEnvironmentVariableW    00000001800a8ec9 f   kernel32:KERNEL32.dll
 0001:000a7ecf       GetDateFormatW             00000001800a8ecf f   kernel32:KERNEL32.dll
 0001:000a7ed5       GetTimeFormatW             00000001800a8ed5 f   kernel32:KERNEL32.dll
 0001:000a7edb       CompareStringW             00000001800a8edb f   kernel32:KERNEL32.dll
 0001:000a7ee1       LCMapStringW               00000001800a8ee1 f   kernel32:KERNEL32.dll
 0001:000a7ee7       GetLocaleInfoW             00000001800a8ee7 f   kernel32:KERNEL32.dll
 0001:000a7eed       IsValidLocale              00000001800a8eed f   kernel32:KERNEL32.dll
 0001:000a7ef3       GetUserDefaultLCID         00000001800a8ef3 f   kernel32:KERNEL32.dll
 0001:000a7ef9       EnumSystemLocalesW         00000001800a8ef9 f   kernel32:KERNEL32.dll
 0001:000a7eff       HeapQueryInformation       00000001800a8eff f   kernel32:KERNEL32.dll
 0001:000a7f05       GetFileSizeEx              00000001800a8f05 f   kernel32:KERNEL32.dll
 0001:000a7f0b       SetFilePointerEx           00000001800a8f0b f   kernel32:KERNEL32.dll
 0001:000a7f11       GetStringTypeW             00000001800a8f11 f   kernel32:KERNEL32.dll
 0001:000a7f17       SetStdHandle               00000001800a8f17 f   kernel32:KERNEL32.dll
 0001:000a7f1d       GetConsoleOutputCP         00000001800a8f1d f   kernel32:KERNEL32.dll
 0001:000a7f23       GetConsoleMode             00000001800a8f23 f   kernel32:KERNEL32.dll
 0001:000a7f29       FlushFileBuffers           00000001800a8f29 f   kernel32:KERNEL32.dll
 0001:000a7f2f       ReadFile                   00000001800a8f2f f   kernel32:KERNEL32.dll
 0001:000a7f35       ReadConsoleW               00000001800a8f35 f   kernel32:KERNEL32.dll
 0001:000a7f3b       CloseHandle                00000001800a8f3b f   kernel32:KERNEL32.dll
 0001:000a7f41       CreateFileW                00000001800a8f41 f   kernel32:KERNEL32.dll
 0001:000a7f50       _FindPESection             00000001800a8f50 f   LIBCMTD:pesect.obj
 0001:000a8000       _IsNonwritableInCurrentImage 00000001800a9000 f   LIBCMTD:pesect.obj
 0001:000a8090       _ValidateImageBase         00000001800a9090 f   LIBCMTD:pesect.obj
 0001:000a8110       __GSHandlerCheck_SEH       00000001800a9110 f   LIBCMTD:gshandlerseh.obj
 0001:000a81d0       __GSHandlerCheck_EH        00000001800a91d0 f   LIBCMTD:gshandlereh.obj
 0001:000a8280       strrchr                    00000001800a9280 f   libvcruntimed:strrchr.obj
 0001:000a86a0       _local_unwind              00000001800a96a0 f   libvcruntimed:jmpuwind.obj
 0001:000a86d0       strchr                     00000001800a96d0 f   libvcruntimed:strchr.obj
 0001:000a8860       wcschr                     00000001800a9860 f   libvcruntimed:wcschr.obj
 0001:000a89b1       RtlUnwind                  00000001800a99b1 f   kernel32:KERNEL32.dll
 0001:000a89d0       _guard_dispatch_icall_nop  00000001800a99d0 f   LIBCMTD:guard_dispatch.obj
 0001:000a89f0       _guard_xfg_dispatch_icall_nop 00000001800a99f0 f   LIBCMTD:guard_xfg_dispatch.obj
 0002:00000000       __imp_RegQueryInfoKeyW     00000001800ab000     advapi32:ADVAPI32.dll
 0002:00000008       __imp_RegOpenKeyExW        00000001800ab008     advapi32:ADVAPI32.dll
 0002:00000010       __imp_RegEnumKeyExW        00000001800ab010     advapi32:ADVAPI32.dll
 0002:00000018       __imp_RegDeleteValueW      00000001800ab018     advapi32:ADVAPI32.dll
 0002:00000020       __imp_RegDeleteKeyW        00000001800ab020     advapi32:ADVAPI32.dll
 0002:00000028       __imp_RegCreateKeyExW      00000001800ab028     advapi32:ADVAPI32.dll
 0002:00000030       __imp_RegCloseKey          00000001800ab030     advapi32:ADVAPI32.dll
 0002:00000038       __imp_RegSetValueExW       00000001800ab038     advapi32:ADVAPI32.dll
 0002:00000040       \177ADVAPI32_NULL_THUNK_DATA 00000001800ab040     advapi32:ADVAPI32.dll
 0002:00000048       __imp_DisableThreadLibraryCalls 00000001800ab048     kernel32:KERNEL32.dll
 0002:00000050       __imp_FreeLibrary          00000001800ab050     kernel32:KERNEL32.dll
 0002:00000058       __imp_GetModuleFileNameW   00000001800ab058     kernel32:KERNEL32.dll
 0002:00000060       __imp_GetModuleHandleW     00000001800ab060     kernel32:KERNEL32.dll
 0002:00000068       __imp_GetProcAddress       00000001800ab068     kernel32:KERNEL32.dll
 0002:00000070       __imp_LoadLibraryExW       00000001800ab070     kernel32:KERNEL32.dll
 0002:00000078       __imp_LoadResource         00000001800ab078     kernel32:KERNEL32.dll
 0002:00000080       __imp_LeaveCriticalSection 00000001800ab080     kernel32:KERNEL32.dll
 0002:00000088       __imp_FindResourceW        00000001800ab088     kernel32:KERNEL32.dll
 0002:00000090       __imp_lstrcmpiW            00000001800ab090     kernel32:KERNEL32.dll
 0002:00000098       __imp_MultiByteToWideChar  00000001800ab098     kernel32:KERNEL32.dll
 0002:000000a0       __imp_CreateFileW          00000001800ab0a0     kernel32:KERNEL32.dll
 0002:000000a8       __imp_CloseHandle          00000001800ab0a8     kernel32:KERNEL32.dll
 0002:000000b0       __imp_ReadConsoleW         00000001800ab0b0     kernel32:KERNEL32.dll
 0002:000000b8       __imp_ReadFile             00000001800ab0b8     kernel32:KERNEL32.dll
 0002:000000c0       __imp_EnterCriticalSection 00000001800ab0c0     kernel32:KERNEL32.dll
 0002:000000c8       __imp_EncodePointer        00000001800ab0c8     kernel32:KERNEL32.dll
 0002:000000d0       __imp_DeleteCriticalSection 00000001800ab0d0     kernel32:KERNEL32.dll
 0002:000000d8       __imp_InitializeCriticalSectionEx 00000001800ab0d8     kernel32:KERNEL32.dll
 0002:000000e0       __imp_SetLastError         00000001800ab0e0     kernel32:KERNEL32.dll
 0002:000000e8       __imp_GetLastError         00000001800ab0e8     kernel32:KERNEL32.dll
 0002:000000f0       __imp_RaiseException       00000001800ab0f0     kernel32:KERNEL32.dll
 0002:000000f8       __imp_SizeofResource       00000001800ab0f8     kernel32:KERNEL32.dll
 0002:00000100       __imp_DecodePointer        00000001800ab100     kernel32:KERNEL32.dll
 0002:00000108       __imp_FlushFileBuffers     00000001800ab108     kernel32:KERNEL32.dll
 0002:00000110       __imp_GetConsoleMode       00000001800ab110     kernel32:KERNEL32.dll
 0002:00000118       __imp_GetConsoleOutputCP   00000001800ab118     kernel32:KERNEL32.dll
 0002:00000120       __imp_SetStdHandle         00000001800ab120     kernel32:KERNEL32.dll
 0002:00000128       __imp_GetStringTypeW       00000001800ab128     kernel32:KERNEL32.dll
 0002:00000130       __imp_SetFilePointerEx     00000001800ab130     kernel32:KERNEL32.dll
 0002:00000138       __imp_GetFileSizeEx        00000001800ab138     kernel32:KERNEL32.dll
 0002:00000140       __imp_HeapQueryInformation 00000001800ab140     kernel32:KERNEL32.dll
 0002:00000148       __imp_EnumSystemLocalesW   00000001800ab148     kernel32:KERNEL32.dll
 0002:00000150       __imp_GetUserDefaultLCID   00000001800ab150     kernel32:KERNEL32.dll
 0002:00000158       __imp_IsValidLocale        00000001800ab158     kernel32:KERNEL32.dll
 0002:00000160       __imp_GetLocaleInfoW       00000001800ab160     kernel32:KERNEL32.dll
 0002:00000168       __imp_LCMapStringW         00000001800ab168     kernel32:KERNEL32.dll
 0002:00000170       __imp_CompareStringW       00000001800ab170     kernel32:KERNEL32.dll
 0002:00000178       __imp_IsDebuggerPresent    00000001800ab178     kernel32:KERNEL32.dll
 0002:00000180       __imp_OutputDebugStringW   00000001800ab180     kernel32:KERNEL32.dll
 0002:00000188       __imp_RtlCaptureContext    00000001800ab188     kernel32:KERNEL32.dll
 0002:00000190       __imp_RtlLookupFunctionEntry 00000001800ab190     kernel32:KERNEL32.dll
 0002:00000198       __imp_RtlVirtualUnwind     00000001800ab198     kernel32:KERNEL32.dll
 0002:000001a0       __imp_UnhandledExceptionFilter 00000001800ab1a0     kernel32:KERNEL32.dll
 0002:000001a8       __imp_SetUnhandledExceptionFilter 00000001800ab1a8     kernel32:KERNEL32.dll
 0002:000001b0       __imp_GetCurrentProcess    00000001800ab1b0     kernel32:KERNEL32.dll
 0002:000001b8       __imp_TerminateProcess     00000001800ab1b8     kernel32:KERNEL32.dll
 0002:000001c0       __imp_IsProcessorFeaturePresent 00000001800ab1c0     kernel32:KERNEL32.dll
 0002:000001c8       __imp_GetStartupInfoW      00000001800ab1c8     kernel32:KERNEL32.dll
 0002:000001d0       __imp_WideCharToMultiByte  00000001800ab1d0     kernel32:KERNEL32.dll
 0002:000001d8       __imp_QueryPerformanceCounter 00000001800ab1d8     kernel32:KERNEL32.dll
 0002:000001e0       __imp_GetCurrentProcessId  00000001800ab1e0     kernel32:KERNEL32.dll
 0002:000001e8       __imp_GetCurrentThreadId   00000001800ab1e8     kernel32:KERNEL32.dll
 0002:000001f0       __imp_GetSystemTimeAsFileTime 00000001800ab1f0     kernel32:KERNEL32.dll
 0002:000001f8       __imp_InitializeSListHead  00000001800ab1f8     kernel32:KERNEL32.dll
 0002:00000200       __imp_HeapAlloc            00000001800ab200     kernel32:KERNEL32.dll
 0002:00000208       __imp_HeapFree             00000001800ab208     kernel32:KERNEL32.dll
 0002:00000210       __imp_GetProcessHeap       00000001800ab210     kernel32:KERNEL32.dll
 0002:00000218       __imp_VirtualQuery         00000001800ab218     kernel32:KERNEL32.dll
 0002:00000220       __imp_RtlUnwindEx          00000001800ab220     kernel32:KERNEL32.dll
 0002:00000228       __imp_InterlockedPushEntrySList 00000001800ab228     kernel32:KERNEL32.dll
 0002:00000230       __imp_InterlockedFlushSList 00000001800ab230     kernel32:KERNEL32.dll
 0002:00000238       __imp_RtlPcToFileHeader    00000001800ab238     kernel32:KERNEL32.dll
 0002:00000240       __imp_InitializeCriticalSectionAndSpinCount 00000001800ab240     kernel32:KERNEL32.dll
 0002:00000248       __imp_TlsAlloc             00000001800ab248     kernel32:KERNEL32.dll
 0002:00000250       __imp_TlsGetValue          00000001800ab250     kernel32:KERNEL32.dll
 0002:00000258       __imp_TlsSetValue          00000001800ab258     kernel32:KERNEL32.dll
 0002:00000260       __imp_TlsFree              00000001800ab260     kernel32:KERNEL32.dll
 0002:00000268       __imp_GetModuleHandleExW   00000001800ab268     kernel32:KERNEL32.dll
 0002:00000270       __imp_ExitProcess          00000001800ab270     kernel32:KERNEL32.dll
 0002:00000278       __imp_HeapSize             00000001800ab278     kernel32:KERNEL32.dll
 0002:00000280       __imp_HeapValidate         00000001800ab280     kernel32:KERNEL32.dll
 0002:00000288       __imp_GetSystemInfo        00000001800ab288     kernel32:KERNEL32.dll
 0002:00000290       __imp_GetStdHandle         00000001800ab290     kernel32:KERNEL32.dll
 0002:00000298       __imp_GetFileType          00000001800ab298     kernel32:KERNEL32.dll
 0002:000002a0       __imp_WriteFile            00000001800ab2a0     kernel32:KERNEL32.dll
 0002:000002a8       __imp_WriteConsoleW        00000001800ab2a8     kernel32:KERNEL32.dll
 0002:000002b0       __imp_SetConsoleCtrlHandler 00000001800ab2b0     kernel32:KERNEL32.dll
 0002:000002b8       __imp_GetCurrentThread     00000001800ab2b8     kernel32:KERNEL32.dll
 0002:000002c0       __imp_HeapReAlloc          00000001800ab2c0     kernel32:KERNEL32.dll
 0002:000002c8       __imp_FindClose            00000001800ab2c8     kernel32:KERNEL32.dll
 0002:000002d0       __imp_FindFirstFileExW     00000001800ab2d0     kernel32:KERNEL32.dll
 0002:000002d8       __imp_FindNextFileW        00000001800ab2d8     kernel32:KERNEL32.dll
 0002:000002e0       __imp_IsValidCodePage      00000001800ab2e0     kernel32:KERNEL32.dll
 0002:000002e8       __imp_GetACP               00000001800ab2e8     kernel32:KERNEL32.dll
 0002:000002f0       __imp_GetOEMCP             00000001800ab2f0     kernel32:KERNEL32.dll
 0002:000002f8       __imp_GetCPInfo            00000001800ab2f8     kernel32:KERNEL32.dll
 0002:00000300       __imp_GetCommandLineA      00000001800ab300     kernel32:KERNEL32.dll
 0002:00000308       __imp_GetCommandLineW      00000001800ab308     kernel32:KERNEL32.dll
 0002:00000310       __imp_GetEnvironmentStringsW 00000001800ab310     kernel32:KERNEL32.dll
 0002:00000318       __imp_FreeEnvironmentStringsW 00000001800ab318     kernel32:KERNEL32.dll
 0002:00000320       __imp_SetEnvironmentVariableW 00000001800ab320     kernel32:KERNEL32.dll
 0002:00000328       __imp_GetDateFormatW       00000001800ab328     kernel32:KERNEL32.dll
 0002:00000330       __imp_GetTimeFormatW       00000001800ab330     kernel32:KERNEL32.dll
 0002:00000338       __imp_RtlUnwind            00000001800ab338     kernel32:KERNEL32.dll
 0002:00000340       \177KERNEL32_NULL_THUNK_DATA 00000001800ab340     kernel32:KERNEL32.dll
 0002:00000348       __imp_LoadTypeLib          00000001800ab348     oleaut32:OLEAUT32.dll
 0002:00000350       __imp_UnRegisterTypeLib    00000001800ab350     oleaut32:OLEAUT32.dll
 0002:00000358       __imp_SysStringLen         00000001800ab358     oleaut32:OLEAUT32.dll
 0002:00000360       __imp_SysAllocString       00000001800ab360     oleaut32:OLEAUT32.dll
 0002:00000368       __imp_SysFreeString        00000001800ab368     oleaut32:OLEAUT32.dll
 0002:00000370       __imp_VarUI4FromStr        00000001800ab370     oleaut32:OLEAUT32.dll
 0002:00000378       __imp_RegisterTypeLib      00000001800ab378     oleaut32:OLEAUT32.dll
 0002:00000380       \177OLEAUT32_NULL_THUNK_DATA 00000001800ab380     oleaut32:OLEAUT32.dll
 0002:00000388       __imp_UnregisterClassW     00000001800ab388     user32:USER32.dll
 0002:00000390       __imp_CharNextW            00000001800ab390     user32:USER32.dll
 0002:00000398       \177USER32_NULL_THUNK_DATA 00000001800ab398     user32:USER32.dll
 0002:000003a0       __imp_CoTaskMemRealloc     00000001800ab3a0     ole32:ole32.dll
 0002:000003a8       __imp_CoCreateInstance     00000001800ab3a8     ole32:ole32.dll
 0002:000003b0       __imp_StringFromGUID2      00000001800ab3b0     ole32:ole32.dll
 0002:000003b8       __imp_CoTaskMemAlloc       00000001800ab3b8     ole32:ole32.dll
 0002:000003c0       __imp_CoTaskMemFree        00000001800ab3c0     ole32:ole32.dll
 0002:000003c8       \177ole32_NULL_THUNK_DATA  00000001800ab3c8     ole32:ole32.dll
 0002:000003d0       __guard_check_icall_fptr   00000001800ab3d0     LIBCMTD:guard_support.obj
 0002:000003d8       __guard_xfg_check_icall_fptr 00000001800ab3d8     LIBCMTD:guard_support.obj
 0002:000003e0       __guard_dispatch_icall_fptr 00000001800ab3e0     LIBCMTD:guard_support.obj
 0002:000003e8       __guard_xfg_dispatch_icall_fptr 00000001800ab3e8     LIBCMTD:guard_support.obj
 0002:000003f0       __guard_xfg_table_dispatch_icall_fptr 00000001800ab3f0     LIBCMTD:guard_support.obj
 0002:000003f8       __xc_a                     00000001800ab3f8     LIBCMTD:initializers.obj
 0002:000004d8       __xc_z                     00000001800ab4d8     LIBCMTD:initializers.obj
 0002:000004e0       __xi_a                     00000001800ab4e0     LIBCMTD:initializers.obj
 0002:000004e8       __acrt_stdio_initializer   00000001800ab4e8     libucrtd:stdio_initializer.obj
 0002:000004f0       __acrt_multibyte_initializer 00000001800ab4f0     libucrtd:multibyte_initializer.obj
 0002:000004f8       __acrt_tran_fma3_initializer 00000001800ab4f8     libucrtd:fma3_initializer.obj
 0002:00000500       __xi_z                     00000001800ab500     LIBCMTD:initializers.obj
 0002:00000508       __xp_a                     00000001800ab508     LIBCMTD:initializers.obj
 0002:00000510       __acrt_locale_terminator   00000001800ab510     libucrtd:locale_initializer.obj
 0002:00000518       __dcrt_console_output_terminator 00000001800ab518     libucrtd:console_output_initializer.obj
 0002:00000520       __acrt_stdio_terminator    00000001800ab520     libucrtd:stdio_initializer.obj
 0002:00000528       __xp_z                     00000001800ab528     LIBCMTD:initializers.obj
 0002:00000530       __xt_a                     00000001800ab530     LIBCMTD:initializers.obj
 0002:00000538       __xt_z                     00000001800ab538     LIBCMTD:initializers.obj
 0002:00002418       LIBID_ATLLib               00000001800ad418     StdAfx.obj
 0002:00002428       ?chDirSep@ATL@@3_WB        00000001800ad428     StdAfx.obj
 0002:0000242c       ?chRightBracket@ATL@@3_WB  00000001800ad42c     StdAfx.obj
 0002:00002430       ?chLeftBracket@ATL@@3_WB   00000001800ad430     StdAfx.obj
 0002:00002434       ?chQuote@ATL@@3_WB         00000001800ad434     StdAfx.obj
 0002:00002438       ?chEquals@ATL@@3_WB        00000001800ad438     StdAfx.obj
 0002:00002440       ?szStringVal@ATL@@3QEB_WEB 00000001800ad440     StdAfx.obj
 0002:00002448       ?multiszStringVal@ATL@@3QEB_WEB 00000001800ad448     StdAfx.obj
 0002:00002450       ?szDwordVal@ATL@@3QEB_WEB  00000001800ad450     StdAfx.obj
 0002:00002458       ?szBinaryVal@ATL@@3QEB_WEB 00000001800ad458     StdAfx.obj
 0002:00002460       ?szValToken@ATL@@3QEB_WEB  00000001800ad460     StdAfx.obj
 0002:00002468       ?szForceRemove@ATL@@3QEB_WEB 00000001800ad468     StdAfx.obj
 0002:00002470       ?szNoRemove@ATL@@3QEB_WEB  00000001800ad470     StdAfx.obj
 0002:00002478       ?szDelete@ATL@@3QEB_WEB    00000001800ad478     StdAfx.obj
 0002:00002480       CLSID_Registrar            00000001800ad480     StdAfx.obj
 0002:00002490       IID_IRegistrar             00000001800ad490     StdAfx.obj
 0002:000024a0       IID_IDocHostUIHandlerDispatch 00000001800ad4a0     StdAfx.obj
 0002:000024b0       IID_IAxWinHostWindow       00000001800ad4b0     StdAfx.obj
 0002:000024c0       IID_IAxWinHostWindowLic    00000001800ad4c0     StdAfx.obj
 0002:000024d0       IID_IAxWinAmbientDispatch  00000001800ad4d0     StdAfx.obj
 0002:000024e0       IID_IAxWinAmbientDispatchEx 00000001800ad4e0     StdAfx.obj
 0002:000024f0       IID_IInternalConnection    00000001800ad4f0     StdAfx.obj
 0002:000027c0       ??_C@_13COJANIEC@?$AA0@    00000001800ad7c0     StdAfx.obj
 0002:000027c8       ??_C@_17CNPHIMPH@?$AA?$CF?$AAl?$AAs@ 00000001800ad7c8     StdAfx.obj
 0002:000027d0       ??_C@_1OE@GJDIMHLK@?$AAC?$AA?3?$AA?2?$AAP?$AAr?$AAo?$AAg?$AAr?$AAa?$AAm?$AA?5?$AAF?$AAi?$AAl?$AAe@ 00000001800ad7d0     StdAfx.obj
 0002:000028b8       ??_C@_1O@LFNDFEBP@?$AA?$CF?$AAl?$AAs?$AA?5?$AA?9?$AA?5@ 00000001800ad8b8     StdAfx.obj
 0002:000028c8       ??_C@_1M@PGKOAACE@?$AA?$CF?$AAu?$AA?5?$AA?9?$AA?5@ 00000001800ad8c8     StdAfx.obj
 0002:000028d8       ??_C@_1O@OAIPCDPO@?$AA?$CF?$AAl?$AAs?$AA?$CF?$AAl?$AAs@ 00000001800ad8d8     StdAfx.obj
 0002:000028e8       ??_C@_17LGGGMOOB@?$AA?$CF?$AAh?$AAs@ 00000001800ad8e8     StdAfx.obj
 0002:000028f0       ??_C@_1EO@EBPPKGOM@?$AAf?$AAa?$AAl?$AAs?$AAe?$AA?5?$AA?$CG?$AA?$CG?$AA?5?$AA?$CC?$AAT?$AAo?$AAo?$AA?5?$AAm@ 00000001800ad8f0     StdAfx.obj
 0002:00002940       ??_C@_1OE@BKJDKFDJ@?$AAC?$AA?3?$AA?2?$AAP?$AAr?$AAo?$AAg?$AAr?$AAa?$AAm?$AA?5?$AAF?$AAi?$AAl?$AAe@ 00000001800ad940     StdAfx.obj
 0002:00002a30       ??_C@_1OC@GOAFFFID@?$AAC?$AA?3?$AA?2?$AAP?$AAr?$AAo?$AAg?$AAr?$AAa?$AAm?$AA?5?$AAF?$AAi?$AAl?$AAe@ 00000001800ada30     StdAfx.obj
 0002:00002b20       ??_C@_0HB@JGKFPIBI@C?3?2Program?5Files?5?$CIx86?$CJ?2Microsof@ 00000001800adb20     StdAfx.obj
 0002:00002ba0       ??_C@_1IA@KEEOONGN@?$AAE?$AAR?$AAR?$AAO?$AAR?$AA?5?$AA?3?$AA?5?$AAU?$AAn?$AAa?$AAb?$AAl?$AAe?$AA?5@ 00000001800adba0     StdAfx.obj
 0002:00002c20       ??_C@_1IG@OPJAFKJH@?$AAE?$AAR?$AAR?$AAO?$AAR?$AA?5?$AA?3?$AA?5?$AAU?$AAn?$AAa?$AAb?$AAl?$AAe?$AA?5@ 00000001800adc20     StdAfx.obj
 0002:00002cb0       ??_C@_1EA@JHMKKLFC@?$AAn?$AAI?$AAn?$AAd?$AAe?$AAx?$AA?5?$AA?$DO?$AA?$DN?$AA?5?$AA0?$AA?5?$AA?$CG?$AA?$CG?$AA?5@ 00000001800adcb0     StdAfx.obj
 0002:00002cf0       ??_C@_1OK@FPBCMNBJ@?$AAC?$AA?3?$AA?2?$AAP?$AAr?$AAo?$AAg?$AAr?$AAa?$AAm?$AA?5?$AAF?$AAi?$AAl?$AAe@ 00000001800adcf0     StdAfx.obj
 0002:00002de0       ??_C@_1BK@NHECDDNK@?$AAm?$AA_?$AAp?$AAD?$AAa?$AAt?$AAa?$AA?5?$AA?$DN?$AA?$DN?$AA?5?$AA0@ 00000001800adde0     StdAfx.obj
 0002:00004cd8       LIBID_OPOSINTERFACESLib    00000001800afcd8     OposInterfaces.obj
 0002:00004ce8       DIID_IOPOSBeltSO           00000001800afce8     OposInterfaces.obj
 0002:00004cf8       DIID_IOPOSBillAcceptorSO   00000001800afcf8     OposInterfaces.obj
 0002:00004d08       DIID_IOPOSBillDispenserSO  00000001800afd08     OposInterfaces.obj
 0002:00004d18       DIID_IOPOSBiometricsSO     00000001800afd18     OposInterfaces.obj
 0002:00004d28       DIID_IOPOSBumpBarSO        00000001800afd28     OposInterfaces.obj
 0002:00004d38       DIID_IOPOSCashChangerSO    00000001800afd38     OposInterfaces.obj
 0002:00004d48       DIID_IOPOSCashDrawerSO     00000001800afd48     OposInterfaces.obj
 0002:00004d58       DIID_IOPOSCATSO            00000001800afd58     OposInterfaces.obj
 0002:00004d68       DIID_IOPOSCheckScannerSO   00000001800afd68     OposInterfaces.obj
 0002:00004d78       DIID_IOPOSCoinAcceptorSO   00000001800afd78     OposInterfaces.obj
 0002:00004d88       DIID_IOPOSCoinDispenserSO  00000001800afd88     OposInterfaces.obj
 0002:00004d98       DIID_IOPOSElectronicJournalSO 00000001800afd98     OposInterfaces.obj
 0002:00004da8       DIID_IOPOSElectronicValueRWSO 00000001800afda8     OposInterfaces.obj
 0002:00004db8       DIID_IOPOSElectronicValueRWSO_1_15 00000001800afdb8     OposInterfaces.obj
 0002:00004dc8       DIID_IOPOSFiscalPrinterSO  00000001800afdc8     OposInterfaces.obj
 0002:00004dd8       DIID_IOPOSGateSO           00000001800afdd8     OposInterfaces.obj
 0002:00004de8       DIID_IOPOSImageScannerSO   00000001800afde8     OposInterfaces.obj
 0002:00004df8       DIID_IOPOSItemDispenserSO  00000001800afdf8     OposInterfaces.obj
 0002:00004e08       DIID_IOPOSKeylockSO        00000001800afe08     OposInterfaces.obj
 0002:00004e18       DIID_IOPOSLightsSO         00000001800afe18     OposInterfaces.obj
 0002:00004e28       DIID_IOPOSLineDisplaySO    00000001800afe28     OposInterfaces.obj
 0002:00004e38       DIID_IOPOSMICRSO           00000001800afe38     OposInterfaces.obj
 0002:00004e48       DIID_IOPOSMotionSensorSO   00000001800afe48     OposInterfaces.obj
 0002:00004e58       DIID_IOPOSMSRSO            00000001800afe58     OposInterfaces.obj
 0002:00004e68       DIID_IOPOSPINPadSO         00000001800afe68     OposInterfaces.obj
 0002:00004e78       DIID_IOPOSPointCardRWSO    00000001800afe78     OposInterfaces.obj
 0002:00004e88       DIID_IOPOSPOSKeyboardSO    00000001800afe88     OposInterfaces.obj
 0002:00004e98       DIID_IOPOSPOSPowerSO       00000001800afe98     OposInterfaces.obj
 0002:00004ea8       DIID_IOPOSPOSPrinterSO     00000001800afea8     OposInterfaces.obj
 0002:00004eb8       DIID_IOPOSRemoteOrderDisplaySO 00000001800afeb8     OposInterfaces.obj
 0002:00004ec8       DIID_IOPOSRFIDScannerSO    00000001800afec8     OposInterfaces.obj
 0002:00004ed8       DIID_IOPOSScaleSO          00000001800afed8     OposInterfaces.obj
 0002:00004ee8       DIID_IOPOSScannerSO        00000001800afee8     OposInterfaces.obj
 0002:00004ef8       DIID_IOPOSSignatureCaptureSO 00000001800afef8     OposInterfaces.obj
 0002:00004f08       DIID_IOPOSSmartCardRWSO    00000001800aff08     OposInterfaces.obj
 0002:00004f18       DIID_IOPOSToneIndicatorSO  00000001800aff18     OposInterfaces.obj
 0002:00004f28       DIID_IOPOSHardTotalsSO     00000001800aff28     OposInterfaces.obj
 0002:00006890       ??_C@_0HD@FDCNLMBN@C?3?2Program?5Files?5?$CIx86?$CJ?2Microsof@ 00000001800b1890     OposInterfaces.obj
 0002:00006908       ??_C@_1CK@DFMKPFAK@?$AAA?$AAt?$AAl?$AAT?$AAh?$AAr?$AAo?$AAw?$AA?3?$AA?5?$AAh?$AAr?$AA?5?$AA?$DN?$AA?5@ 00000001800b1908     OposInterfaces.obj
 0002:00006938       ??_C@_1M@HLGKFCJM@?$AAf?$AAa?$AAl?$AAs?$AAe@ 00000001800b1938     OposInterfaces.obj
 0002:00006950       ??_C@_1OG@LBNLGCOJ@?$AAC?$AA?3?$AA?2?$AAP?$AAr?$AAo?$AAg?$AAr?$AAa?$AAm?$AA?5?$AAF?$AAi?$AAl?$AAe@ 00000001800b1950     OposInterfaces.obj
 0002:00006a38       ??_C@_1BM@GBBOFEAE@?$AA_?$AA_?$AAa?$AAt?$AAl?$AA_?$AAc?$AAo?$AAn?$AAd?$AAV?$AAa?$AAl@ 00000001800b1a38     OposInterfaces.obj
 0002:00006a60       ??_C@_1OG@FKPDKNHL@?$AAC?$AA?3?$AA?2?$AAP?$AAr?$AAo?$AAg?$AAr?$AAa?$AAm?$AA?5?$AAF?$AAi?$AAl?$AAe@ 00000001800b1a60     OposInterfaces.obj
 0002:00006b48       _GUID_00000000_0000_0000_c000_000000000046 00000001800b1b48     OposInterfaces.obj
 0002:00006b58       ??_C@_1BG@ILBPLEEF@?$AAn?$AAN?$AAu?$AAl?$AAl?$AA?5?$AA?$DN?$AA?$DN?$AA?5?$AA0@ 00000001800b1b58     OposInterfaces.obj
 0002:00006b70       ??_C@_1PO@PBIPDBDK@?$AAC?$AA?3?$AA?2?$AAP?$AAr?$AAo?$AAg?$AAr?$AAa?$AAm?$AA?5?$AAF?$AAi?$AAl?$AAe@ 00000001800b1b70     OposInterfaces.obj
 0002:00006c70       ??_C@_1BK@BIGILECK@?$AAA?$AAd?$AAv?$AAa?$AAp?$AAi?$AA3?$AA2?$AA?4?$AAd?$AAl?$AAl@ 00000001800b1c70     OposInterfaces.obj
 0002:00006c90       ??_C@_1BO@KNMGNOCJ@?$AAh?$AAA?$AAd?$AAv?$AAA?$AAP?$AAI?$AA3?$AA2?$AA?5?$AA?$CB?$AA?$DN?$AA?5?$AA0@ 00000001800b1c90     OposInterfaces.obj
 0002:00006cb0       ??_C@_0BG@EKFFMJIO@RegOpenKeyTransactedW@ 00000001800b1cb0     OposInterfaces.obj
 0002:00006cc8       ??_C@_0BI@MNCFCPFK@RegCreateKeyTransactedW@ 00000001800b1cc8     OposInterfaces.obj
 0002:00006ce0       ??_C@_0BI@HAKLOOGP@RegDeleteKeyTransactedW@ 00000001800b1ce0     OposInterfaces.obj
 0002:00006cf8       ??_C@_1BG@OHCCAGNO@?$AA?$CB?$AAm?$AA_?$AAb?$AAL?$AAo?$AAc?$AAk?$AAe?$AAd@ 00000001800b1cf8     OposInterfaces.obj
 0002:00006d10       ??_C@_1BE@NPGJNKLA@?$AAm?$AA_?$AAb?$AAL?$AAo?$AAc?$AAk?$AAe?$AAd@ 00000001800b1d10     OposInterfaces.obj
 0002:00006d28       ??_C@_1CC@DNHFMIHP@?$AA_?$AAp?$AAA?$AAt?$AAl?$AAM?$AAo?$AAd?$AAu?$AAl?$AAe?$AA?5?$AA?$DN?$AA?$DN?$AA?5@ 00000001800b1d28     OposInterfaces.obj
 0002:00006d50       ??_C@_1HK@DFMOIGDB@?$AAE?$AAR?$AAR?$AAO?$AAR?$AA?5?$AA?3?$AA?5?$AAU?$AAn?$AAa?$AAb?$AAl?$AAe?$AA?5@ 00000001800b1d50     OposInterfaces.obj
 0002:00006dd0       _GUID_00000146_0000_0000_c000_000000000046 00000001800b1dd0     OposInterfaces.obj
 0002:00006de0       ??_C@_1BG@LENCCAOJ@?$AAp?$AAp?$AAG?$AAI?$AAT?$AA?5?$AA?$CB?$AA?$DN?$AA?5?$AA0@ 00000001800b1de0     OposInterfaces.obj
 0002:00006df8       ??_C@_1BI@JBLBCKD@?$AAm?$AA_?$AAp?$AAG?$AAI?$AAT?$AA?5?$AA?$CB?$AA?$DN?$AA?5?$AA0@ 00000001800b1df8     OposInterfaces.obj
 0002:00006e10       ??_7CComModule@ATL@@6B@    00000001800b1e10     OposInterfaces.obj
 0002:00006e60       ??_C@_1BM@NFPICFEL@?$AA_?$AAp?$AAM?$AAo?$AAd?$AAu?$AAl?$AAe?$AA?5?$AA?$DN?$AA?$DN?$AA?5?$AA0@ 00000001800b1e60     OposInterfaces.obj
 0002:00006e80       ??_C@_1BI@JPOONHGO@?$AAm?$AA_?$AAh?$AAK?$AAe?$AAy?$AA?5?$AA?$DN?$AA?$DN?$AA?5?$AA0@ 00000001800b1e80     OposInterfaces.obj
 0002:00006e98       ??_C@_1BI@KCHMLGAI@?$AAm?$AA_?$AAh?$AAK?$AAe?$AAy?$AA?5?$AA?$CB?$AA?$DN?$AA?5?$AA0@ 00000001800b1e98     OposInterfaces.obj
 0002:00006eb0       ??_C@_0BA@LILAPHGE@RegDeleteKeyExW@ 00000001800b1eb0     OposInterfaces.obj
 0002:00006ec0       ??_C@_1CA@JAHJEEHI@?$AAh?$AAK?$AAe?$AAy?$AAP?$AAa?$AAr?$AAe?$AAn?$AAt?$AA?5?$AA?$CB?$AA?$DN?$AA?5?$AA0@ 00000001800b1ec0     OposInterfaces.obj
 0002:00006ee0       ??_C@_1BG@OMKLFNDM@?$AAl?$AAR?$AAe?$AAs?$AA?5?$AA?$DN?$AA?$DN?$AA?5?$AA0?$AAL@ 00000001800b1ee0     OposInterfaces.obj
 0002:00006f00       ??_C@_1FG@MAMCHIIA@?$AA?$CI?$AAd?$AAw?$AAT?$AAy?$AAp?$AAe?$AA?5?$AA?$DN?$AA?$DN?$AA?5?$AA?$CI?$AA?5?$AA1?$AAu@ 00000001800b1f00     OposInterfaces.obj
 0002:00006f60       ??_C@_1IA@CIKBLAHF@?$AAC?$AAR?$AAe?$AAg?$AAK?$AAe?$AAy?$AA?3?$AA?3?$AAR?$AAe?$AAc?$AAu?$AAr?$AAs@ 00000001800b1f60     OposInterfaces.obj
 0002:00006fe0       ??_C@_1DO@EIGOLNAA@?$AAl?$AAp?$AAs?$AAz?$AAK?$AAe?$AAy?$AA?5?$AA?$CB?$AA?$DN?$AA?5?$AA0?$AA?5?$AA?$CG?$AA?$CG@ 00000001800b1fe0     OposInterfaces.obj
 0002:00007020       ??_C@_1OC@MACEHEHH@?$AAC?$AA?3?$AA?2?$AAP?$AAr?$AAo?$AAg?$AAr?$AAa?$AAm?$AA?5?$AAF?$AAi?$AAl?$AAe@ 00000001800b2020     OposInterfaces.obj
 0002:00007108       ??_C@_1BG@MMFPEKL@?$AAs?$AAz?$AAK?$AAe?$AAy?$AA?5?$AA?$CB?$AA?$DN?$AA?5?$AA0@ 00000001800b2108     OposInterfaces.obj
 0002:00007120       ??_C@_1BK@LDPHGFPN@?$AAs?$AAz?$AAV?$AAa?$AAl?$AAu?$AAe?$AA?5?$AA?$CB?$AA?$DN?$AA?5?$AA0@ 00000001800b2120     OposInterfaces.obj
 0002:00007140       ?rgszNeverDelete@CRegParser@ATL@@1QBQEB_WB 00000001800b2140     OposInterfaces.obj
 0002:000071a0       ??_C@_1O@JFMKDNFA@?$AAp?$AA?5?$AA?$CB?$AA?$DN?$AA?5?$AA0@ 00000001800b21a0     OposInterfaces.obj
 0002:000071b0       ??_7CRegObject@ATL@@6B@    00000001800b21b0     OposInterfaces.obj
 0002:000071e0       ??_C@_1JM@PMKLGAKF@?$AAs?$AAt?$AAa?$AAt?$AAi?$AAc?$AAa?$AAl?$AAl?$AAy?$AA?5?$AAl?$AAi?$AAn?$AAk@ 00000001800b21e0     OposInterfaces.obj
 0002:00007280       ??_C@_1KC@MLBIPPDL@?$AAL?$AA?$CC?$AAs?$AAt?$AAa?$AAt?$AAi?$AAc?$AAa?$AAl?$AAl?$AAy?$AA?5?$AAl?$AAi@ 00000001800b2280     OposInterfaces.obj
 0002:00007330       ??_C@_0HB@OKBOMPHE@C?3?2Program?5Files?5?$CIx86?$CJ?2Microsof@ 00000001800b2330     OposInterfaces.obj
 0002:000073a8       ??_C@_1DM@JBIDINMA@?$AAF?$AAa?$AAi?$AAl?$AAe?$AAd?$AA?5?$AAt?$AAo?$AA?5?$AAL?$AAo?$AAa?$AAd?$AAL@ 00000001800b23a8     OposInterfaces.obj
 0002:000073f0       ??_C@_1FE@HJDAOHJE@?$AAF?$AAa?$AAi?$AAl?$AAe?$AAd?$AA?5?$AAt?$AAo?$AA?5?$AAF?$AAi?$AAn?$AAd?$AAR@ 00000001800b23f0     OposInterfaces.obj
 0002:00007450       ??_C@_1FG@BBJFPKL@?$AAF?$AAa?$AAi?$AAl?$AAe?$AAd?$AA?5?$AAt?$AAo?$AA?5?$AAF?$AAi?$AAn?$AAd?$AAR@ 00000001800b2450     OposInterfaces.obj
 0002:000074a8       ??_C@_1DA@KJKEAFMD@?$AAF?$AAa?$AAi?$AAl?$AAe?$AAd?$AA?5?$AAt?$AAo?$AA?5?$AAL?$AAo?$AAa?$AAd?$AAR@ 00000001800b24a8     OposInterfaces.obj
 0002:000074d8       ??_C@_1CK@BCPDHANH@?$AAM?$AAa?$AAp?$AA?5?$AAE?$AAn?$AAt?$AAr?$AAy?$AA?5?$AAn?$AAo?$AAt?$AA?5?$AAf@ 00000001800b24d8     OposInterfaces.obj
 0002:00007510       ??_C@_1FI@KMIOGKOO@?$AAB?$AAo?$AAg?$AAu?$AAs?$AA?5?$AAv?$AAa?$AAl?$AAu?$AAe?$AA?5?$AA?$CF?$AAT?$AAc@ 00000001800b2510     OposInterfaces.obj
 0002:00007570       ?map@?1??HKeyFromString@CRegParser@ATL@@KAPEAUHKEY__@@PEA_W@Z@4QBUkeymap@?1??123@KAPEAU4@0@Z@B 00000001800b2570     OposInterfaces.obj
 0002:00007650       ??_C@_19NCHLBIN@?$AAH?$AAK?$AAC?$AAR@ 00000001800b2650     OposInterfaces.obj
 0002:00007660       ??_C@_19JAPAIJDE@?$AAH?$AAK?$AAC?$AAU@ 00000001800b2660     OposInterfaces.obj
 0002:00007670       ??_C@_19PEALEEJB@?$AAH?$AAK?$AAL?$AAM@ 00000001800b2670     OposInterfaces.obj
 0002:00007680       ??_C@_17PJOJPMPB@?$AAH?$AAK?$AAU@ 00000001800b2680     OposInterfaces.obj
 0002:00007688       ??_C@_19PNBHMJPL@?$AAH?$AAK?$AAP?$AAD@ 00000001800b2688     OposInterfaces.obj
 0002:00007698       ??_C@_19GFFAIJHG@?$AAH?$AAK?$AAD?$AAD@ 00000001800b2698     OposInterfaces.obj
 0002:000076a8       ??_C@_19OFICIBHH@?$AAH?$AAK?$AAC?$AAC@ 00000001800b26a8     OposInterfaces.obj
 0002:000076b8       ??_C@_1CE@PACHPJFI@?$AAH?$AAK?$AAE?$AAY?$AA_?$AAC?$AAL?$AAA?$AAS?$AAS?$AAE?$AAS?$AA_?$AAR?$AAO@ 00000001800b26b8     OposInterfaces.obj
 0002:000076e0       ??_C@_1CE@HLHNCBPM@?$AAH?$AAK?$AAE?$AAY?$AA_?$AAC?$AAU?$AAR?$AAR?$AAE?$AAN?$AAT?$AA_?$AAU?$AAS@ 00000001800b26e0     OposInterfaces.obj
 0002:00007708       ??_C@_1CG@GFBEANJL@?$AAH?$AAK?$AAE?$AAY?$AA_?$AAL?$AAO?$AAC?$AAA?$AAL?$AA_?$AAM?$AAA?$AAC?$AAH@ 00000001800b2708     OposInterfaces.obj
 0002:00007730       ??_C@_1BG@BGODANIO@?$AAH?$AAK?$AAE?$AAY?$AA_?$AAU?$AAS?$AAE?$AAR?$AAS@ 00000001800b2730     OposInterfaces.obj
 0002:00007748       ??_C@_1CM@KHNNAOIC@?$AAH?$AAK?$AAE?$AAY?$AA_?$AAP?$AAE?$AAR?$AAF?$AAO?$AAR?$AAM?$AAA?$AAN?$AAC@ 00000001800b2748     OposInterfaces.obj
 0002:00007778       ??_C@_1BM@HAGMMHIA@?$AAH?$AAK?$AAE?$AAY?$AA_?$AAD?$AAY?$AAN?$AA_?$AAD?$AAA?$AAT?$AAA@ 00000001800b2778     OposInterfaces.obj
 0002:00007798       ??_C@_1CI@BBJOACGG@?$AAH?$AAK?$AAE?$AAY?$AA_?$AAC?$AAU?$AAR?$AAR?$AAE?$AAN?$AAT?$AA_?$AAC?$AAO@ 00000001800b2798     OposInterfaces.obj
 0002:000077c0       ??_C@_1EI@CDDJHMMA@?$AAN?$AAe?$AAx?$AAt?$AAT?$AAo?$AAk?$AAe?$AAn?$AA?5?$AA?3?$AA?5?$AAU?$AAn?$AAe@ 00000001800b27c0     OposInterfaces.obj
 0002:00007808       ??_C@_1DA@BDBPEMM@?$AA?$CF?$AAT?$AAs?$AA?5?$AAT?$AAy?$AAp?$AAe?$AA?5?$AAn?$AAo?$AAt?$AA?5?$AAs?$AAu@ 00000001800b2808     OposInterfaces.obj
 0002:00007838       ??_C@_1BA@HANLFFFG@?$AAd?$AAe?$AAf?$AAa?$AAu?$AAl?$AAt@ 00000001800b2838     OposInterfaces.obj
 0002:00007848       ??_C@_1DE@GENBDOHF@?$AAS?$AAe?$AAt?$AAt?$AAi?$AAn?$AAg?$AA?5?$AAV?$AAa?$AAl?$AAu?$AAe?$AA?5?$AA?$CF@ 00000001800b2848     OposInterfaces.obj
 0002:00007880       ??_C@_1DC@OPMJCKIB@?$AAS?$AAe?$AAt?$AAt?$AAi?$AAn?$AAg?$AA?5?$AAV?$AAa?$AAl?$AAu?$AAe?$AA?5?$AA?$CF@ 00000001800b2880     OposInterfaces.obj
 0002:000078c0       ??_C@_1FK@OIDGAAMP@?$AAB?$AAi?$AAn?$AAa?$AAr?$AAy?$AA?5?$AAD?$AAa?$AAt?$AAa?$AA?5?$AAd?$AAo?$AAe@ 00000001800b28c0     OposInterfaces.obj
 0002:00007920       ??_C@_1CM@LNIALBHN@?$AAS?$AAh?$AAo?$AAu?$AAl?$AAd?$AA?5?$AAn?$AAo?$AAt?$AA?5?$AAb?$AAe?$AA?5?$AAh@ 00000001800b2920     OposInterfaces.obj
 0002:00007950       ??_C@_1BK@ODFKMBGC@?$AAl?$AAp?$AAs?$AAz?$AAR?$AAe?$AAg?$AA?5?$AA?$CB?$AA?$DN?$AA?5?$AA0@ 00000001800b2950     OposInterfaces.obj
 0002:00007970       ??_C@_1BK@DGLFCBHI@?$AAp?$AAp?$AAs?$AAz?$AAR?$AAe?$AAg?$AA?5?$AA?$CB?$AA?$DN?$AA?5?$AA0@ 00000001800b2970     OposInterfaces.obj
 0002:00007990       ??_C@_1EA@NHKLICFA@?$AAH?$AAK?$AAC?$AAU?$AA?$AN?$AA?6?$AA?$HL?$AA?7?$AAS?$AAo?$AAf?$AAt?$AAw?$AAa?$AAr@ 00000001800b2990     OposInterfaces.obj
 0002:000079d0       ??_C@_1BE@LJOLIMEM@?$AA?$AN?$AA?6?$AA?7?$AA?$HN?$AA?$AN?$AA?6?$AA?$HN?$AA?$AN?$AA?6@ 00000001800b29d0     OposInterfaces.obj
 0002:000079e8       ??_C@_1DG@KOLNJMBJ@?$AAE?$AAr?$AAr?$AAo?$AAr?$AA?5?$AAn?$AAo?$AA?5?$AAc?$AAl?$AAo?$AAs?$AAi?$AAn@ 00000001800b29e8     OposInterfaces.obj
 0002:00007a20       ??_C@_19IGGGDNCK@?$AA?$CF?$AAT?$AAs?$AA?6@ 00000001800b2a20     OposInterfaces.obj
 0002:00007a30       ??_C@_1DM@JFHAPNGI@?$AAH?$AAK?$AAe?$AAy?$AAF?$AAr?$AAo?$AAm?$AAS?$AAt?$AAr?$AAi?$AAn?$AAg?$AA?5@ 00000001800b2a30     OposInterfaces.obj
 0002:00007a70       ??_C@_1FE@MCPBFDLN@?$AAS?$AAy?$AAn?$AAt?$AAa?$AAx?$AA?5?$AAe?$AAr?$AAr?$AAo?$AAr?$AA?0?$AA?5?$AAe@ 00000001800b2a70     OposInterfaces.obj
 0002:00007ad0       ??_C@_1EE@EMAKHHOG@?$AAF?$AAa?$AAi?$AAl?$AAe?$AAd?$AA?5?$AAt?$AAo?$AA?5?$AAr?$AAe?$AAg?$AAi?$AAs@ 00000001800b2ad0     OposInterfaces.obj
 0002:00007b18       ??_C@_1BM@KJDIPNJ@?$AAN?$AAu?$AAm?$AA?5?$AAE?$AAl?$AAs?$AA?5?$AA?$DN?$AA?5?$AA?$CF?$AAd?$AA?6@ 00000001800b2b18     OposInterfaces.obj
 0002:00007b38       ??_C@_1BM@BEOOHDFB@?$AAD?$AAe?$AAl?$AAe?$AAt?$AAi?$AAn?$AAg?$AA?5?$AA?$CF?$AAT?$AAs?$AA?6@ 00000001800b2b38     OposInterfaces.obj
 0002:00007b58       ??_C@_1CE@NOBELHPC@?$AAC?$AAr?$AAe?$AAa?$AAt?$AAi?$AAn?$AAg?$AA?5?$AAk?$AAe?$AAy?$AA?5?$AA?$CF?$AAT@ 00000001800b2b58     OposInterfaces.obj
 0002:00007b80       ??_C@_1CA@MKECKMBH@?$AAO?$AAp?$AAe?$AAn?$AAe?$AAd?$AA?5?$AAK?$AAe?$AAy?$AA?5?$AA?$CF?$AAT?$AAs?$AA?6@ 00000001800b2b80     OposInterfaces.obj
 0002:00007ba0       ??_C@_1FK@OAJHMKAA@?$AAI?$AAg?$AAn?$AAo?$AAr?$AAi?$AAn?$AAg?$AA?5?$AAO?$AAp?$AAe?$AAn?$AA?5?$AAk@ 00000001800b2ba0     OposInterfaces.obj
 0002:00007c00       ??_C@_1CM@OHCCCDHD@?$AAE?$AAn?$AAd?$AAi?$AAn?$AAg?$AA?5?$AAR?$AAe?$AAc?$AAo?$AAv?$AAe?$AAr?$AAy@ 00000001800b2c00     OposInterfaces.obj
 0002:00007c30       ??_C@_1FA@ECAJCMBE@?$AAD?$AAe?$AAl?$AAe?$AAt?$AAi?$AAn?$AAg?$AA?5?$AAn?$AAo?$AAn?$AA?9?$AAe?$AAm@ 00000001800b2c30     OposInterfaces.obj
 0002:00007c80       ??_C@_1CE@OGJGDPFE@?$AAD?$AAe?$AAl?$AAe?$AAt?$AAi?$AAn?$AAg?$AA?5?$AAK?$AAe?$AAy?$AA?5?$AA?$CF?$AAT@ 00000001800b2c80     OposInterfaces.obj
 0002:00007ca8       ??_C@_1DC@HEJCCJC@?$AA0?$AA?5?$AA?$CB?$AA?$DN?$AA?5?$AAp?$AAM?$AAa?$AAp?$AAE?$AAn?$AAt?$AAr?$AAi?$AAe@ 00000001800b2ca8     OposInterfaces.obj
 0002:00007ce0       ??_C@_1O@MNLDABAF@?$AAM?$AAo?$AAd?$AAu?$AAl?$AAe@ 00000001800b2ce0     OposInterfaces.obj
 0002:00007cf0       ??_C@_1BG@JBACFMF@?$AAM?$AAo?$AAd?$AAu?$AAl?$AAe?$AA_?$AAR?$AAa?$AAw@ 00000001800b2cf0     OposInterfaces.obj
 0002:00007d08       ??_C@_1BC@KAILKFFG@?$AAR?$AAE?$AAG?$AAI?$AAS?$AAT?$AAR?$AAY@ 00000001800b2d08     OposInterfaces.obj
 0002:00007d1c       ??_C@_11LOCGONAA@@         00000001800b2d1c     OposInterfaces.obj
 0002:00007d20       ??_C@_1EC@GOCPDDCL@?$AAp?$AAb?$AAs?$AAt?$AAr?$AAP?$AAa?$AAt?$AAh?$AA?5?$AA?$CB?$AA?$DN?$AA?5?$AA0?$AA?5@ 00000001800b2d20     OposInterfaces.obj
 0002:00007d68       ??_C@_1CE@MNLFIKHJ@?$AAh?$AAI?$AAn?$AAs?$AAt?$AAT?$AAy?$AAp?$AAe?$AAL?$AAi?$AAb?$AA?5?$AA?$CB?$AA?$DN@ 00000001800b2d68     OposInterfaces.obj
 0002:00007d90       ??_C@_19ILOCMLCJ@?$AA?4?$AAt?$AAl?$AAb@ 00000001800b2d90     OposInterfaces.obj
 0002:00007da0       _GUID_0002e012_0000_0000_c000_000000000046 00000001800b2da0     OposInterfaces.obj
 0002:00007db0       ??_C@_1OK@NEECLFPA@?$AA0?$AA?5?$AA?$CG?$AA?$CG?$AA?5?$AAL?$AA?$CC?$AAU?$AAs?$AAe?$AA?5?$AAO?$AAB?$AAJ?$AAE@ 00000001800b2db0     OposInterfaces.obj
 0002:00007ea0       ??_C@_1CG@IDMIONOG@?$AAp?$AAE?$AAn?$AAt?$AAr?$AAy?$AA?9?$AA?$DO?$AAi?$AAT?$AAy?$AAp?$AAe?$AA?5?$AA?$DN@ 00000001800b2ea0     OposInterfaces.obj
 0002:00007ec8       ??_C@_1O@FHBGLCIO@?$AAC?$AAL?$AAS?$AAI?$AAD?$AA?2@ 00000001800b2ec8     OposInterfaces.obj
 0002:00007ed8       ??_C@_1CK@IFBKBFAA@?$AA?2?$AAR?$AAe?$AAq?$AAu?$AAi?$AAr?$AAe?$AAd?$AA?5?$AAC?$AAa?$AAt?$AAe?$AAg@ 00000001800b2ed8     OposInterfaces.obj
 0002:00007f08       ??_C@_1DA@BIHALFED@?$AA?2?$AAI?$AAm?$AAp?$AAl?$AAe?$AAm?$AAe?$AAn?$AAt?$AAe?$AAd?$AA?5?$AAC?$AAa@ 00000001800b2f08     OposInterfaces.obj
 0002:00007f38       ??_C@_1BK@EDKOLFBJ@?$AAO?$AAL?$AAE?$AAA?$AAU?$AAT?$AA3?$AA2?$AA?4?$AAD?$AAL?$AAL@ 00000001800b2f38     OposInterfaces.obj
 0002:00007f58       ??_C@_0BJ@CNLFOMHB@UnRegisterTypeLibForUser@ 00000001800b2f58     OposInterfaces.obj
 0002:00007f78       ??_C@_0BH@LBOMMKPJ@RegisterTypeLibForUser@ 00000001800b2f78     OposInterfaces.obj
 0002:00007f90       ??_C@_1CA@GAOMIJFK@?$AAp?$AAC?$AAo?$AAm?$AAM?$AAo?$AAd?$AAu?$AAl?$AAe?$AA?5?$AA?$CB?$AA?$DN?$AA?5?$AA0@ 00000001800b2f90     OposInterfaces.obj
 0002:00007fb0       ??_C@_1EA@JIHAIGJA@?$AAp?$AAC?$AAo?$AAm?$AAM?$AAo?$AAd?$AAu?$AAl?$AAe?$AA?9?$AA?$DO?$AAm?$AA_?$AAh@ 00000001800b2fb0     OposInterfaces.obj
 0002:00007ff0       ??_C@_1IO@OONIPMJC@?$AAE?$AAR?$AAR?$AAO?$AAR?$AA?5?$AA?3?$AA?5?$AAU?$AAn?$AAa?$AAb?$AAl?$AAe?$AA?5@ 00000001800b2ff0     OposInterfaces.obj
 0002:00008080       ??_C@_1IO@BDEIDBOP@?$AAE?$AAR?$AAR?$AAO?$AAR?$AA?5?$AA?3?$AA?5?$AAU?$AAn?$AAa?$AAb?$AAl?$AAe?$AA?5@ 00000001800b3080     OposInterfaces.obj
 0002:00008110       ??_C@_19LMDLLIGP@?$AAp?$AA?$DN?$AA?$DN?$AA0@ 00000001800b3110     OposInterfaces.obj
 0002:00008120       ??_C@_19JHCPJMAL@?$AAp?$AA?$CB?$AA?$DN?$AA0@ 00000001800b3120     OposInterfaces.obj
 0002:00008130       ??_C@_1BC@EMCLECFJ@?$AAm?$AA_?$AAp?$AA?5?$AA?$DN?$AA?$DN?$AA?5?$AA0@ 00000001800b3130     OposInterfaces.obj
 0002:00008148       ??_C@_1M@PPPPCDEP@?$AAA?$AAP?$AAP?$AAI?$AAD@ 00000001800b3148     OposInterfaces.obj
 0002:00008158       GUID_NULL                  00000001800b3158     uuid:cguid_i.obj
 0002:00008168       CATID_MARSHALER            00000001800b3168     uuid:cguid_i.obj
 0002:00008178       IID_IRpcChannel            00000001800b3178     uuid:cguid_i.obj
 0002:00008188       IID_IRpcStub               00000001800b3188     uuid:cguid_i.obj
 0002:00008198       IID_IStubManager           00000001800b3198     uuid:cguid_i.obj
 0002:000081a8       IID_IRpcProxy              00000001800b31a8     uuid:cguid_i.obj
 0002:000081b8       IID_IProxyManager          00000001800b31b8     uuid:cguid_i.obj
 0002:000081c8       IID_IPSFactory             00000001800b31c8     uuid:cguid_i.obj
 0002:000081d8       IID_IInternalMoniker       00000001800b31d8     uuid:cguid_i.obj
 0002:000081e8       IID_IDfReserved1           00000001800b31e8     uuid:cguid_i.obj
 0002:000081f8       IID_IDfReserved2           00000001800b31f8     uuid:cguid_i.obj
 0002:00008208       IID_IDfReserved3           00000001800b3208     uuid:cguid_i.obj
 0002:00008218       CLSID_StdMarshal           00000001800b3218     uuid:cguid_i.obj
 0002:00008228       IID_IStub                  00000001800b3228     uuid:cguid_i.obj
 0002:00008238       IID_IProxy                 00000001800b3238     uuid:cguid_i.obj
 0002:00008248       IID_IEnumGeneric           00000001800b3248     uuid:cguid_i.obj
 0002:00008258       IID_IEnumHolder            00000001800b3258     uuid:cguid_i.obj
 0002:00008268       IID_IEnumCallback          00000001800b3268     uuid:cguid_i.obj
 0002:00008278       IID_IOleManager            00000001800b3278     uuid:cguid_i.obj
 0002:00008288       IID_IOlePresObj            00000001800b3288     uuid:cguid_i.obj
 0002:00008298       IID_IDebug                 00000001800b3298     uuid:cguid_i.obj
 0002:000082a8       IID_IDebugStream           00000001800b32a8     uuid:cguid_i.obj
 0002:000082b8       CLSID_PSGenObject          00000001800b32b8     uuid:cguid_i.obj
 0002:000082c8       CLSID_PSClientSite         00000001800b32c8     uuid:cguid_i.obj
 0002:000082d8       CLSID_PSClassObject        00000001800b32d8     uuid:cguid_i.obj
 0002:000082e8       CLSID_PSInPlaceActive      00000001800b32e8     uuid:cguid_i.obj
 0002:000082f8       CLSID_PSInPlaceFrame       00000001800b32f8     uuid:cguid_i.obj
 0002:00008308       CLSID_PSDragDrop           00000001800b3308     uuid:cguid_i.obj
 0002:00008318       CLSID_PSBindCtx            00000001800b3318     uuid:cguid_i.obj
 0002:00008328       CLSID_PSEnumerators        00000001800b3328     uuid:cguid_i.obj
 0002:00008338       CLSID_StaticMetafile       00000001800b3338     uuid:cguid_i.obj
 0002:00008348       CLSID_StaticDib            00000001800b3348     uuid:cguid_i.obj
 0002:00008358       CLSID_Picture_Metafile     00000001800b3358     uuid:cguid_i.obj
 0002:00008368       CLSID_Picture_EnhMetafile  00000001800b3368     uuid:cguid_i.obj
 0002:00008378       CLSID_Picture_Dib          00000001800b3378     uuid:cguid_i.obj
 0002:00008388       CLSID_DCOMAccessControl    00000001800b3388     uuid:cguid_i.obj
 0002:00008398       CLSID_StdGlobalInterfaceTable 00000001800b3398     uuid:cguid_i.obj
 0002:000083a8       CLSID_ManualResetEvent     00000001800b33a8     uuid:cguid_i.obj
 0002:000083b8       CLSID_StdEvent             00000001800b33b8     uuid:cguid_i.obj
 0002:000083c8       CLSID_SynchronizeContainer 00000001800b33c8     uuid:cguid_i.obj
 0002:000083d8       CLSID_ComBinding           00000001800b33d8     uuid:cguid_i.obj
 0002:000083e8       CLSID_StdAsyncActManager   00000001800b33e8     uuid:cguid_i.obj
 0002:000083f8       CLSID_InProcFreeMarshaler  00000001800b33f8     uuid:cguid_i.obj
 0002:00008408       CLSID_RemoteUnknownPSFactory 00000001800b3408     uuid:cguid_i.obj
 0002:00008418       IID_IRichEditOle           00000001800b3418     uuid:cguid_i.obj
 0002:00008428       IID_IRichEditOleCallback   00000001800b3428     uuid:cguid_i.obj
 0002:00008438       CLSID_AllClasses           00000001800b3438     uuid:cguid_i.obj
 0002:00008448       CLSID_LocalMachineClasses  00000001800b3448     uuid:cguid_i.obj
 0002:00008458       CLSID_CurrentUserClasses   00000001800b3458     uuid:cguid_i.obj
 0002:00008468       CLSID_AddrControl          00000001800b3468     uuid:cguid_i.obj
 0002:00008478       CLSID_GlobalOptions        00000001800b3478     uuid:cguid_i.obj
 0002:00008488       CLSID_SurrogateManager     00000001800b3488     uuid:cguid_i.obj
 0002:00008498       CLSID_ContextSwitcher      00000001800b3498     uuid:cguid_i.obj
 0002:000084a8       CLSID_ActivationStore      00000001800b34a8     uuid:cguid_i.obj
 0002:000084b8       IID_IPropertyFrame         00000001800b34b8     uuid:cguid_i.obj
 0002:000084c8       CLSID_CFontPropPage        00000001800b34c8     uuid:cguid_i.obj
 0002:000084d8       CLSID_CColorPropPage       00000001800b34d8     uuid:cguid_i.obj
 0002:000084e8       CLSID_CPicturePropPage     00000001800b34e8     uuid:cguid_i.obj
 0002:000084f8       CLSID_StockFontPage        00000001800b34f8     uuid:cguid_i.obj
 0002:00008508       CLSID_StockColorPage       00000001800b3508     uuid:cguid_i.obj
 0002:00008518       CLSID_StockPicturePage     00000001800b3518     uuid:cguid_i.obj
 0002:00008528       CLSID_PersistPropset       00000001800b3528     uuid:cguid_i.obj
 0002:00008538       CLSID_ConvertVBX           00000001800b3538     uuid:cguid_i.obj
 0002:00008548       CLSID_StdFont              00000001800b3548     uuid:cguid_i.obj
 0002:00008558       CLSID_StdPicture           00000001800b3558     uuid:cguid_i.obj
 0002:00008568       GUID_HIMETRIC              00000001800b3568     uuid:cguid_i.obj
 0002:00008578       GUID_COLOR                 00000001800b3578     uuid:cguid_i.obj
 0002:00008588       GUID_XPOSPIXEL             00000001800b3588     uuid:cguid_i.obj
 0002:00008598       GUID_YPOSPIXEL             00000001800b3598     uuid:cguid_i.obj
 0002:000085a8       GUID_XSIZEPIXEL            00000001800b35a8     uuid:cguid_i.obj
 0002:000085b8       GUID_YSIZEPIXEL            00000001800b35b8     uuid:cguid_i.obj
 0002:000085c8       GUID_XPOS                  00000001800b35c8     uuid:cguid_i.obj
 0002:000085d8       GUID_YPOS                  00000001800b35d8     uuid:cguid_i.obj
 0002:000085e8       GUID_XSIZE                 00000001800b35e8     uuid:cguid_i.obj
 0002:000085f8       GUID_YSIZE                 00000001800b35f8     uuid:cguid_i.obj
 0002:00008608       GUID_TRISTATE              00000001800b3608     uuid:cguid_i.obj
 0002:00008618       GUID_OPTIONVALUEEXCLUSIVE  00000001800b3618     uuid:cguid_i.obj
 0002:00008628       GUID_CHECKVALUEEXCLUSIVE   00000001800b3628     uuid:cguid_i.obj
 0002:00008638       GUID_FONTNAME              00000001800b3638     uuid:cguid_i.obj
 0002:00008648       GUID_FONTSIZE              00000001800b3648     uuid:cguid_i.obj
 0002:00008658       GUID_FONTBOLD              00000001800b3658     uuid:cguid_i.obj
 0002:00008668       GUID_FONTITALIC            00000001800b3668     uuid:cguid_i.obj
 0002:00008678       GUID_FONTUNDERSCORE        00000001800b3678     uuid:cguid_i.obj
 0002:00008688       GUID_FONTSTRIKETHROUGH     00000001800b3688     uuid:cguid_i.obj
 0002:00008698       GUID_HANDLE                00000001800b3698     uuid:cguid_i.obj
 0002:000086a8       IID_StdOle                 00000001800b36a8     uuid:cguid_i.obj
 0002:000086b8       IID_ICursor                00000001800b36b8     uuid:cguid_i.obj
 0002:000086c8       IID_ICursorMove            00000001800b36c8     uuid:cguid_i.obj
 0002:000086d8       IID_ICursorScroll          00000001800b36d8     uuid:cguid_i.obj
 0002:000086e8       IID_ICursorUpdateARow      00000001800b36e8     uuid:cguid_i.obj
 0002:000086f8       IID_INotifyDBEvents        00000001800b36f8     uuid:cguid_i.obj
 0002:00008708       IID_ICursorFind            00000001800b3708     uuid:cguid_i.obj
 0002:00008718       IID_IEntryID               00000001800b3718     uuid:cguid_i.obj
 0002:00008728       _GUID_NAMEONLY             00000001800b3728     uuid:cguid_i.obj
 0002:00008738       _DBBMKGUID                 00000001800b3738     uuid:cguid_i.obj
 0002:00008748       _DBCIDGUID                 00000001800b3748     uuid:cguid_i.obj
 0002:00008758       IID_IBoundObject           00000001800b3758     uuid:cguid_i.obj
 0002:00008768       IID_IBoundObjectSite       00000001800b3768     uuid:cguid_i.obj
 0002:00008778       CLSID_GblComponentCategoriesMgr 00000001800b3778     uuid:cguid_i.obj
 0002:00008788       CLSID_ThumbnailFCNHandler  00000001800b3788     uuid:cguid_i.obj
 0002:00008798       CLSID_ThumbnailUpdater     00000001800b3798     uuid:cguid_i.obj
 0002:000087a8       IID_ICallbackWithNoReentrancyToApplicationSTA 00000001800b37a8     uuid:cguid_i.obj
 0002:000087b8       CLSID_TypeLibRegistrationReader 00000001800b37b8     uuid:cguid_i.obj
 0002:000087c8       GUID_DEVCLASS_1394         00000001800b37c8     uuid:cguid_i.obj
 0002:000087d8       GUID_DEVCLASS_1394DEBUG    00000001800b37d8     uuid:cguid_i.obj
 0002:000087e8       GUID_DEVCLASS_61883        00000001800b37e8     uuid:cguid_i.obj
 0002:000087f8       GUID_DEVCLASS_ADAPTER      00000001800b37f8     uuid:cguid_i.obj
 0002:00008808       GUID_DEVCLASS_APMSUPPORT   00000001800b3808     uuid:cguid_i.obj
 0002:00008818       GUID_DEVCLASS_AVC          00000001800b3818     uuid:cguid_i.obj
 0002:00008828       GUID_DEVCLASS_BATTERY      00000001800b3828     uuid:cguid_i.obj
 0002:00008838       GUID_DEVCLASS_BIOMETRIC    00000001800b3838     uuid:cguid_i.obj
 0002:00008848       GUID_DEVCLASS_BLUETOOTH    00000001800b3848     uuid:cguid_i.obj
 0002:00008858       GUID_DEVCLASS_CAMERA       00000001800b3858     uuid:cguid_i.obj
 0002:00008868       GUID_DEVCLASS_CDROM        00000001800b3868     uuid:cguid_i.obj
 0002:00008878       GUID_DEVCLASS_COMPUTEACCELERATOR 00000001800b3878     uuid:cguid_i.obj
 0002:00008888       GUID_DEVCLASS_COMPUTER     00000001800b3888     uuid:cguid_i.obj
 0002:00008898       GUID_DEVCLASS_DECODER      00000001800b3898     uuid:cguid_i.obj
 0002:000088a8       GUID_DEVCLASS_DISKDRIVE    00000001800b38a8     uuid:cguid_i.obj
 0002:000088b8       GUID_DEVCLASS_DISPLAY      00000001800b38b8     uuid:cguid_i.obj
 0002:000088c8       GUID_DEVCLASS_DOT4         00000001800b38c8     uuid:cguid_i.obj
 0002:000088d8       GUID_DEVCLASS_DOT4PRINT    00000001800b38d8     uuid:cguid_i.obj
 0002:000088e8       GUID_DEVCLASS_EHSTORAGESILO 00000001800b38e8     uuid:cguid_i.obj
 0002:000088f8       GUID_DEVCLASS_ENUM1394     00000001800b38f8     uuid:cguid_i.obj
 0002:00008908       GUID_DEVCLASS_EXTENSION    00000001800b3908     uuid:cguid_i.obj
 0002:00008918       GUID_DEVCLASS_FDC          00000001800b3918     uuid:cguid_i.obj
 0002:00008928       GUID_DEVCLASS_FIRMWARE     00000001800b3928     uuid:cguid_i.obj
 0002:00008938       GUID_DEVCLASS_FLOPPYDISK   00000001800b3938     uuid:cguid_i.obj
 0002:00008948       GUID_DEVCLASS_GPS          00000001800b3948     uuid:cguid_i.obj
 0002:00008958       GUID_DEVCLASS_HDC          00000001800b3958     uuid:cguid_i.obj
 0002:00008968       GUID_DEVCLASS_HIDCLASS     00000001800b3968     uuid:cguid_i.obj
 0002:00008978       GUID_DEVCLASS_HOLOGRAPHIC  00000001800b3978     uuid:cguid_i.obj
 0002:00008988       GUID_DEVCLASS_IMAGE        00000001800b3988     uuid:cguid_i.obj
 0002:00008998       GUID_DEVCLASS_INFINIBAND   00000001800b3998     uuid:cguid_i.obj
 0002:000089a8       GUID_DEVCLASS_INFRARED     00000001800b39a8     uuid:cguid_i.obj
 0002:000089b8       GUID_DEVCLASS_KEYBOARD     00000001800b39b8     uuid:cguid_i.obj
 0002:000089c8       GUID_DEVCLASS_LEGACYDRIVER 00000001800b39c8     uuid:cguid_i.obj
 0002:000089d8       GUID_DEVCLASS_MEDIA        00000001800b39d8     uuid:cguid_i.obj
 0002:000089e8       GUID_DEVCLASS_MEDIUM_CHANGER 00000001800b39e8     uuid:cguid_i.obj
 0002:000089f8       GUID_DEVCLASS_MEMORY       00000001800b39f8     uuid:cguid_i.obj
 0002:00008a08       GUID_DEVCLASS_MODEM        00000001800b3a08     uuid:cguid_i.obj
 0002:00008a18       GUID_DEVCLASS_MONITOR      00000001800b3a18     uuid:cguid_i.obj
 0002:00008a28       GUID_DEVCLASS_MOUSE        00000001800b3a28     uuid:cguid_i.obj
 0002:00008a38       GUID_DEVCLASS_MTD          00000001800b3a38     uuid:cguid_i.obj
 0002:00008a48       GUID_DEVCLASS_MULTIFUNCTION 00000001800b3a48     uuid:cguid_i.obj
 0002:00008a58       GUID_DEVCLASS_MULTIPORTSERIAL 00000001800b3a58     uuid:cguid_i.obj
 0002:00008a68       GUID_DEVCLASS_NET          00000001800b3a68     uuid:cguid_i.obj
 0002:00008a78       GUID_DEVCLASS_NETCLIENT    00000001800b3a78     uuid:cguid_i.obj
 0002:00008a88       GUID_DEVCLASS_NETDRIVER    00000001800b3a88     uuid:cguid_i.obj
 0002:00008a98       GUID_DEVCLASS_NETSERVICE   00000001800b3a98     uuid:cguid_i.obj
 0002:00008aa8       GUID_DEVCLASS_NETTRANS     00000001800b3aa8     uuid:cguid_i.obj
 0002:00008ab8       GUID_DEVCLASS_NODRIVER     00000001800b3ab8     uuid:cguid_i.obj
 0002:00008ac8       GUID_DEVCLASS_PCMCIA       00000001800b3ac8     uuid:cguid_i.obj
 0002:00008ad8       GUID_DEVCLASS_PNPPRINTERS  00000001800b3ad8     uuid:cguid_i.obj
 0002:00008ae8       GUID_DEVCLASS_PORTS        00000001800b3ae8     uuid:cguid_i.obj
 0002:00008af8       GUID_DEVCLASS_PRINTER      00000001800b3af8     uuid:cguid_i.obj
 0002:00008b08       GUID_DEVCLASS_PRINTERUPGRADE 00000001800b3b08     uuid:cguid_i.obj
 0002:00008b18       GUID_DEVCLASS_PRINTQUEUE   00000001800b3b18     uuid:cguid_i.obj
 0002:00008b28       GUID_DEVCLASS_PROCESSOR    00000001800b3b28     uuid:cguid_i.obj
 0002:00008b38       GUID_DEVCLASS_SBP2         00000001800b3b38     uuid:cguid_i.obj
 0002:00008b48       GUID_DEVCLASS_SCMDISK      00000001800b3b48     uuid:cguid_i.obj
 0002:00008b58       GUID_DEVCLASS_SCMVOLUME    00000001800b3b58     uuid:cguid_i.obj
 0002:00008b68       GUID_DEVCLASS_SCSIADAPTER  00000001800b3b68     uuid:cguid_i.obj
 0002:00008b78       GUID_DEVCLASS_SECURITYACCELERATOR 00000001800b3b78     uuid:cguid_i.obj
 0002:00008b88       GUID_DEVCLASS_SENSOR       00000001800b3b88     uuid:cguid_i.obj
 0002:00008b98       GUID_DEVCLASS_SIDESHOW     00000001800b3b98     uuid:cguid_i.obj
 0002:00008ba8       GUID_DEVCLASS_SMARTCARDREADER 00000001800b3ba8     uuid:cguid_i.obj
 0002:00008bb8       GUID_DEVCLASS_SMRDISK      00000001800b3bb8     uuid:cguid_i.obj
 0002:00008bc8       GUID_DEVCLASS_SMRVOLUME    00000001800b3bc8     uuid:cguid_i.obj
 0002:00008bd8       GUID_DEVCLASS_SOFTWARECOMPONENT 00000001800b3bd8     uuid:cguid_i.obj
 0002:00008be8       GUID_DEVCLASS_SOUND        00000001800b3be8     uuid:cguid_i.obj
 0002:00008bf8       GUID_DEVCLASS_SYSTEM       00000001800b3bf8     uuid:cguid_i.obj
 0002:00008c08       GUID_DEVCLASS_TAPEDRIVE    00000001800b3c08     uuid:cguid_i.obj
 0002:00008c18       GUID_DEVCLASS_UNKNOWN      00000001800b3c18     uuid:cguid_i.obj
 0002:00008c28       GUID_DEVCLASS_UCM          00000001800b3c28     uuid:cguid_i.obj
 0002:00008c38       GUID_DEVCLASS_USB          00000001800b3c38     uuid:cguid_i.obj
 0002:00008c48       GUID_DEVCLASS_VOLUME       00000001800b3c48     uuid:cguid_i.obj
 0002:00008c58       GUID_DEVCLASS_VOLUMESNAPSHOT 00000001800b3c58     uuid:cguid_i.obj
 0002:00008c68       GUID_DEVCLASS_WCEUSBS      00000001800b3c68     uuid:cguid_i.obj
 0002:00008c78       GUID_DEVCLASS_WPD          00000001800b3c78     uuid:cguid_i.obj
 0002:00008c88       GUID_DEVCLASS_FSFILTER_TOP 00000001800b3c88     uuid:cguid_i.obj
 0002:00008c98       GUID_DEVCLASS_FSFILTER_ACTIVITYMONITOR 00000001800b3c98     uuid:cguid_i.obj
 0002:00008ca8       GUID_DEVCLASS_FSFILTER_UNDELETE 00000001800b3ca8     uuid:cguid_i.obj
 0002:00008cb8       GUID_DEVCLASS_FSFILTER_ANTIVIRUS 00000001800b3cb8     uuid:cguid_i.obj
 0002:00008cc8       GUID_DEVCLASS_FSFILTER_REPLICATION 00000001800b3cc8     uuid:cguid_i.obj
 0002:00008cd8       GUID_DEVCLASS_FSFILTER_CONTINUOUSBACKUP 00000001800b3cd8     uuid:cguid_i.obj
 0002:00008ce8       GUID_DEVCLASS_FSFILTER_CONTENTSCREENER 00000001800b3ce8     uuid:cguid_i.obj
 0002:00008cf8       GUID_DEVCLASS_FSFILTER_QUOTAMANAGEMENT 00000001800b3cf8     uuid:cguid_i.obj
 0002:00008d08       GUID_DEVCLASS_FSFILTER_SYSTEMRECOVERY 00000001800b3d08     uuid:cguid_i.obj
 0002:00008d18       GUID_DEVCLASS_FSFILTER_CFSMETADATASERVER 00000001800b3d18     uuid:cguid_i.obj
 0002:00008d28       GUID_DEVCLASS_FSFILTER_HSM 00000001800b3d28     uuid:cguid_i.obj
 0002:00008d38       GUID_DEVCLASS_FSFILTER_COMPRESSION 00000001800b3d38     uuid:cguid_i.obj
 0002:00008d48       GUID_DEVCLASS_FSFILTER_ENCRYPTION 00000001800b3d48     uuid:cguid_i.obj
 0002:00008d58       GUID_DEVCLASS_FSFILTER_VIRTUALIZATION 00000001800b3d58     uuid:cguid_i.obj
