 OPOSSoundRecorder

 Timestamp is 600f7bd6 (Tue Jan 26 11:17:58 2021)

 Preferred load address is 0000000180000000

 Start         Length     Name                   Class
 0001:00000000 00001400H .text$di                CODE
 0001:00001400 000d55f0H .text$mn                CODE
 0001:000d69f0 00000040H .text$mn$00             CODE
 0001:000d6a30 00001390H .text$x                 CODE
 0001:000d7dc0 000001b4H .text$yd                CODE
 0002:00000000 000006d8H .idata$5                DATA
 0002:000006d8 00000028H .00cfg                  DATA
 0002:00000700 00000008H .CRT$XCA                DATA
 0002:00000708 00000008H .CRT$XCL                DATA
 0002:00000710 000000d8H .CRT$XCU                DATA
 0002:000007e8 00000008H .CRT$XCZ                DATA
 0002:000007f0 00000008H .CRT$XIA                DATA
 0002:000007f8 00000028H .CRT$XIC                DATA
 0002:00000820 00000008H .CRT$XIZ                DATA
 0002:00000828 00000008H .CRT$XLA                DATA
 0002:00000830 00000008H .CRT$XLZ                DATA
 0002:00000838 00000008H .CRT$XPA                DATA
 0002:00000840 00000010H .CRT$XPX                DATA
 0002:00000850 00000008H .CRT$XPXA               DATA
 0002:00000858 00000008H .CRT$XPZ                DATA
 0002:00000860 00000008H .CRT$XTA                DATA
 0002:00000868 00000008H .CRT$XTZ                DATA
 0002:00000870 00000000H .gehcont$y              DATA
 0002:00000870 00000000H .gfids$y                DATA
 0002:00000870 0003bb90H .rdata                  DATA
 0002:0003c400 00000008H .rdata$CastGuardVftablesA DATA
 0002:0003c408 00000008H .rdata$CastGuardVftablesC DATA
 0002:0003c410 00000028H .rdata$T                DATA
 0002:0003c438 0000056cH .rdata$r                DATA
 0002:0003c9a4 0000047cH .rdata$zzzdbg           DATA
 0002:0003ce20 00000008H .rtc$IAA                DATA
 0002:0003ce28 00000030H .rtc$IMZ                DATA
 0002:0003ce58 00000008H .rtc$IZZ                DATA
 0002:0003ce60 00000008H .rtc$TAA                DATA
 0002:0003ce68 00000030H .rtc$TMZ                DATA
 0002:0003ce98 00000008H .rtc$TZZ                DATA
 0002:0003cea0 00000004H .tls                    DATA
 0002:0003cea4 00000004H .tls$                   DATA
 0002:0003cea8 00000008H .tls$ZZZ                DATA
 0002:0003ceb0 00009858H .xdata                  DATA
 0002:00046708 00000150H .xdata$x                DATA
 0002:00046858 00000008H ATL$__a                 DATA
 0002:00046860 00000010H ATL$__z                 DATA
 0002:00046870 000000b0H .edata                  DATA
 0002:00046920 00000078H .idata$2                DATA
 0002:00046998 00000018H .idata$3                DATA
 0002:000469b0 000006d8H .idata$4                DATA
 0002:00047088 00000dbeH .idata$6                DATA
 0003:00000000 00000ea8H .data                   DATA
 0003:00000ea8 00000198H .data$r                 DATA
 0003:00001040 00003e9cH .bss                    DATA
 0004:00000000 0000c228H .pdata                  DATA
 0005:00000000 00000094H _RDATA                  DATA
 0006:00000000 00000220H .rsrc$01                DATA
 0006:00000220 00004260H .rsrc$02                DATA

  Address         Publics by Value              Rva+Base               Lib:Object

 0000:00000000       ___safe_se_handler_table   0000000000000000     <absolute>
 0000:00000000       __arm64x_redirection_metadata_count 0000000000000000     <absolute>
 0000:00000000       __arm64x_extra_rfe_table   0000000000000000     <absolute>
 0000:00000000       __hybrid_code_map_count    0000000000000000     <absolute>
 0000:00000000       __guard_fids_count         0000000000000000     <absolute>
 0000:00000000       ___safe_se_handler_count   0000000000000000     <absolute>
 0000:00000000       __guard_iat_table          0000000000000000     <absolute>
 0000:00000000       __arm64x_redirection_metadata 0000000000000000     <absolute>
 0000:00000000       __guard_fids_table         0000000000000000     <absolute>
 0000:00000000       __guard_longjmp_count      0000000000000000     <absolute>
 0000:00000000       __hybrid_auxiliary_iat     0000000000000000     <absolute>
 0000:00000000       __guard_longjmp_table      0000000000000000     <absolute>
 0000:00000000       __arm64x_extra_rfe_table_size 0000000000000000     <absolute>
 0000:00000000       __enclave_config           0000000000000000     <absolute>
 0000:00000000       __x64_code_ranges_to_entry_points_count 0000000000000000     <absolute>
 0000:00000000       __guard_eh_cont_count      0000000000000000     <absolute>
 0000:00000000       __volatile_metadata        0000000000000000     <absolute>
 0000:00000000       __dynamic_value_reloc_table 0000000000000000     <absolute>
 0000:00000000       __hybrid_code_map          0000000000000000     <absolute>
 0000:00000000       __guard_iat_count          0000000000000000     <absolute>
 0000:00000000       __x64_code_ranges_to_entry_points 0000000000000000     <absolute>
 0000:00000000       __arm64x_native_entrypoint 0000000000000000     <absolute>
 0000:00000000       __guard_eh_cont_table      0000000000000000     <absolute>
 0000:00000000       __AbsoluteZero             0000000000000000     <absolute>
 0000:00000100       __guard_flags              0000000000000100     <absolute>
 0000:00000000       __ImageBase                0000000180000000     <linker-defined>
 0001:00001400       ?_assert@@YAXPEB_W0I@Z     0000000180002400 f   Assert.obj
 0001:00001500       __local_stdio_printf_options 0000000180002500 f i Assert.obj
 0001:00001510       __vswprintf_l              0000000180002510 f i Assert.obj
 0001:00001570       _swprintf                  0000000180002570 f i Assert.obj
 0001:000015f0       _vswprintf_c_l             00000001800025f0 f i Assert.obj
 0001:00001680       _vswprintf_l               0000000180002680 f i Assert.obj
 0001:000016e0       ?cw_memcpy@@YAHPEADPEB_WH@Z 00000001800026e0 f   CWString.obj
 0001:00001770       ?cw_memcpy@@YAHPEA_WPEBDH@Z 0000000180002770 f   CWString.obj
 0001:000017f0       ?cw_memcpy@@YAHPEADPEBDH@Z 00000001800027f0 f   CWString.obj
 0001:00001890       ?cw_memcpy@@YAHPEA_WPEB_WH@Z 0000000180002890 f   CWString.obj
 0001:00001900       ?cw_memset@@YAXPEADDH@Z    0000000180002900 f   CWString.obj
 0001:00001970       ?cw_memset@@YAXPEA_W_WH@Z  0000000180002970 f   CWString.obj
 0001:00001a10       ?cw_strlen@@YAHPEBD@Z      0000000180002a10 f   CWString.obj
 0001:00001a80       ?cw_strlen@@YAHPEB_W@Z     0000000180002a80 f   CWString.obj
 0001:00001af0       ?cw_strcpy@@YAHPEADPEB_W@Z 0000000180002af0 f   CWString.obj
 0001:00001b40       ?cw_strcpy@@YAHPEA_WPEBD@Z 0000000180002b40 f   CWString.obj
 0001:00001b90       ?cw_strcpy@@YAHPEADPEBD@Z  0000000180002b90 f   CWString.obj
 0001:00001be0       ?cw_strcpy@@YAHPEA_WPEB_W@Z 0000000180002be0 f   CWString.obj
 0001:00001c30       ?cw_strcat@@YAHPEADPEB_W@Z 0000000180002c30 f   CWString.obj
 0001:00001c90       ?cw_strcat@@YAHPEA_WPEBD@Z 0000000180002c90 f   CWString.obj
 0001:00001cf0       ?cw_strcat@@YAHPEADPEBD@Z  0000000180002cf0 f   CWString.obj
 0001:00001d50       ?cw_strcat@@YAHPEA_WPEB_W@Z 0000000180002d50 f   CWString.obj
 0001:00001db0       ?cw_dup@@YAXPEBDAEAHAEAPEA_W1@Z 0000000180002db0 f   CWString.obj
 0001:00001ec0       ?cw_dup@@YAXPEB_WAEAHAEAPEAD1@Z 0000000180002ec0 f   CWString.obj
 0001:00001fb0       ?DupChar@_CW@@AEAAXXZ      0000000180002fb0 f   CWString.obj
 0001:00002010       ?DupWide@_CW@@AEAAXXZ      0000000180003010 f   CWString.obj
 0001:00002080       ?GetCharsMbcs@_CW@@QEAAHXZ 0000000180003080 f   CWString.obj
 0001:000020f0       ?GetCharsWide@_CW@@QEAAHXZ 00000001800030f0 f   CWString.obj
 0001:00002160       ?SetVARIANT_BOOL@OposVariant@@QEAAXF@Z 0000000180003160 f   OposVariant.obj
 0001:000021d0       ?SetVARIANT_BOOL_Ptr@OposVariant@@QEAAXPEAFAEAJ@Z 00000001800031d0 f   OposVariant.obj
 0001:00002240       ?GetLONG@OposVariant@@QEAAJXZ 0000000180003240 f   OposVariant.obj
 0001:000022a0       ?ChangeLONG@OposVariant@@QEAAXPEAJAEAJ@Z 00000001800032a0 f   OposVariant.obj
 0001:00002350       ?SetLONG@OposVariant@@QEAAXJ@Z 0000000180003350 f   OposVariant.obj
 0001:000023b0       ?SetLONG_Ptr@OposVariant@@QEAAXPEAJAEAJ@Z 00000001800033b0 f   OposVariant.obj
 0001:00002420       ?ChangeCURRENCY@OposVariant@@QEAAXPEATtagCY@@AEAJ@Z 0000000180003420 f   OposVariant.obj
 0001:000024d0       ?SetCURRENCY@OposVariant@@QEAAXTtagCY@@@Z 00000001800034d0 f   OposVariant.obj
 0001:00002530       ?SetCURRENCY_Ptr@OposVariant@@QEAAXPEATtagCY@@AEAJ@Z 0000000180003530 f   OposVariant.obj
 0001:000025a0       ?ChangeBSTR@OposVariant@@QEAAXPEAPEA_WAEAJ@Z 00000001800035a0 f   OposVariant.obj
 0001:00002650       ?SetBSTR@OposVariant@@QEAAXPEA_WAEAJ@Z 0000000180003650 f   OposVariant.obj
 0001:000026d0       ?SetBSTR_Copy@OposVariant@@QEAAXPEA_WAEAJ@Z 00000001800036d0 f   OposVariant.obj
 0001:00002780       ?SetBSTR_OutPtr@OposVariant@@QEAA_NPEAPEA_WAEAJ@Z 0000000180003780 f   OposVariant.obj
 0001:000027f0       ?SetBSTR_InOutPtr@OposVariant@@QEAA_NPEAPEA_WAEAJ@Z 00000001800037f0 f   OposVariant.obj
 0001:00002870       ?SetVARIANT@OposVariant@@QEAAXAEAUtagVARIANT@@GAEAJ@Z 0000000180003870 f   OposVariant.obj
 0001:00002910       ?SetVARIANT_Ptr@OposVariant@@QEAAXAEAPEAUtagVARIANT@@GAEAJ@Z 0000000180003910 f   OposVariant.obj
 0001:000029c0       ?SetString@OposVariant@@QEAAXPEB_WAEAJ@Z 00000001800039c0 f   OposVariant.obj
 0001:00002a70       ?SetDispatch_Ptr@OposVariant@@QEAAXPEAUIDispatch@@AEAJ@Z 0000000180003a70 f   OposVariant.obj
 0001:00002b00       ??0OposDispParms@@QEAA@PEAVOposVariant@@H@Z 0000000180003b00 f   OposVariant.obj
 0001:00002c10       ??1OposDispParms@@QEAA@XZ  0000000180003c10 f   OposVariant.obj
 0001:00002c60       ??$AtlMultiply@_K@ATL@@YAJPEA_K_K1@Z 0000000180003c60 f i OposVariant.obj
 0001:00002ce0       ??0?$CHeapPtr@_WVCCRTAllocator@ATL@@@ATL@@QEAA@XZ 0000000180003ce0 f i OposVariant.obj
 0001:00002d20       ??0?$CHeapPtrBase@_WVCCRTAllocator@ATL@@@ATL@@IEAA@XZ 0000000180003d20 f i OposVariant.obj
 0001:00002d40       ??0?$CSimpleArray@GV?$CSimpleArrayEqualHelper@G@ATL@@@ATL@@QEAA@XZ 0000000180003d40 f i OposVariant.obj
 0001:00002d80       ??0?$CTraceCategoryEx@$00$0A@@ATL@@QEAA@PEB_W@Z 0000000180003d80 f i OposVariant.obj
 0001:00002dc0       ??0?$CTraceCategoryEx@$01$0A@@ATL@@QEAA@PEB_W@Z 0000000180003dc0 f i OposVariant.obj
 0001:00002e00       ??0?$CTraceCategoryEx@$03$0A@@ATL@@QEAA@PEB_W@Z 0000000180003e00 f i OposVariant.obj
 0001:00002e40       ??0?$CTraceCategoryEx@$07$0A@@ATL@@QEAA@PEB_W@Z 0000000180003e40 f i OposVariant.obj
 0001:00002e80       ??0?$CTraceCategoryEx@$0BA@$0A@@ATL@@QEAA@PEB_W@Z 0000000180003e80 f i OposVariant.obj
 0001:00002ec0       ??0?$CTraceCategoryEx@$0BAA@$0A@@ATL@@QEAA@PEB_W@Z 0000000180003ec0 f i OposVariant.obj
 0001:00002f00       ??0?$CTraceCategoryEx@$0BAAA@$0A@@ATL@@QEAA@PEB_W@Z 0000000180003f00 f i OposVariant.obj
 0001:00002f40       ??0?$CTraceCategoryEx@$0BAAAA@$0A@@ATL@@QEAA@PEB_W@Z 0000000180003f40 f i OposVariant.obj
 0001:00002f80       ??0?$CTraceCategoryEx@$0BAAAAA@$0A@@ATL@@QEAA@PEB_W@Z 0000000180003f80 f i OposVariant.obj
 0001:00002fc0       ??0?$CTraceCategoryEx@$0CA@$0A@@ATL@@QEAA@PEB_W@Z 0000000180003fc0 f i OposVariant.obj
 0001:00003000       ??0?$CTraceCategoryEx@$0CAA@$0A@@ATL@@QEAA@PEB_W@Z 0000000180004000 f i OposVariant.obj
 0001:00003040       ??0?$CTraceCategoryEx@$0CAAA@$0A@@ATL@@QEAA@PEB_W@Z 0000000180004040 f i OposVariant.obj
 0001:00003080       ??0?$CTraceCategoryEx@$0CAAAA@$0A@@ATL@@QEAA@PEB_W@Z 0000000180004080 f i OposVariant.obj
 0001:000030c0       ??0?$CTraceCategoryEx@$0CAAAAA@$0A@@ATL@@QEAA@PEB_W@Z 00000001800040c0 f i OposVariant.obj
 0001:00003100       ??0?$CTraceCategoryEx@$0EA@$0A@@ATL@@QEAA@PEB_W@Z 0000000180004100 f i OposVariant.obj
 0001:00003140       ??0?$CTraceCategoryEx@$0EAA@$0A@@ATL@@QEAA@PEB_W@Z 0000000180004140 f i OposVariant.obj
 0001:00003180       ??0?$CTraceCategoryEx@$0EAAA@$0A@@ATL@@QEAA@PEB_W@Z 0000000180004180 f i OposVariant.obj
 0001:000031c0       ??0?$CTraceCategoryEx@$0EAAAA@$0A@@ATL@@QEAA@PEB_W@Z 00000001800041c0 f i OposVariant.obj
 0001:00003200       ??0?$CTraceCategoryEx@$0EAAAAA@$0A@@ATL@@QEAA@PEB_W@Z 0000000180004200 f i OposVariant.obj
 0001:00003240       ??0?$CTraceCategoryEx@$0IA@$0A@@ATL@@QEAA@PEB_W@Z 0000000180004240 f i OposVariant.obj
 0001:00003280       ??0?$CTraceCategoryEx@$0IAA@$0A@@ATL@@QEAA@PEB_W@Z 0000000180004280 f i OposVariant.obj
 0001:000032c0       ??0?$CTraceCategoryEx@$0IAAA@$0A@@ATL@@QEAA@PEB_W@Z 00000001800042c0 f i OposVariant.obj
 0001:00003300       ??0?$CTraceCategoryEx@$0IAAAA@$0A@@ATL@@QEAA@PEB_W@Z 0000000180004300 f i OposVariant.obj
 0001:00003340       ??0CAtlComModule@ATL@@QEAA@XZ 0000000180004340 f i OposVariant.obj
 0001:00003460       ??0CAtlWinModule@ATL@@QEAA@XZ 0000000180004460 f i OposVariant.obj
 0001:00003510       ??0CComCriticalSection@ATL@@QEAA@XZ 0000000180004510 f i OposVariant.obj
 0001:00003550       ??0CPreserveLastError@ATL@@QEAA@XZ 0000000180004550 f i OposVariant.obj
 0001:00003590       ??0CTraceFileAndLineInfo@ATL@@QEAA@PEBDH@Z 0000000180004590 f i OposVariant.obj
 0001:000035c0       ??0_ATL_COM_MODULE70@ATL@@QEAA@XZ 00000001800045c0 f i OposVariant.obj
 0001:00003600       ??0_ATL_WIN_MODULE70@ATL@@QEAA@XZ 0000000180004600 f i OposVariant.obj
 0001:00003650       ??1?$CHeapPtr@_WVCCRTAllocator@ATL@@@ATL@@QEAA@XZ 0000000180004650 f i OposVariant.obj
 0001:00003680       ??1?$CHeapPtrBase@_WVCCRTAllocator@ATL@@@ATL@@QEAA@XZ 0000000180004680 f i OposVariant.obj
 0001:000036b0       ??1?$CSimpleArray@GV?$CSimpleArrayEqualHelper@G@ATL@@@ATL@@QEAA@XZ 00000001800046b0 f i OposVariant.obj
 0001:000036e0       ??1CAtlComModule@ATL@@QEAA@XZ 00000001800046e0 f i OposVariant.obj
 0001:00003720       ??1CAtlWinModule@ATL@@QEAA@XZ 0000000180004720 f i OposVariant.obj
 0001:00003760       ??1CComBSTR@ATL@@QEAA@XZ   0000000180004760 f i OposVariant.obj
 0001:000037a0       ??1CComCriticalSection@ATL@@QEAA@XZ 00000001800047a0 f i OposVariant.obj
 0001:000037b0       ??1CPreserveLastError@ATL@@QEAA@XZ 00000001800047b0 f i OposVariant.obj
 0001:000037f0       ??1_ATL_COM_MODULE70@ATL@@QEAA@XZ 00000001800047f0 f i OposVariant.obj
 0001:00003830       ??1_ATL_WIN_MODULE70@ATL@@QEAA@XZ 0000000180004830 f i OposVariant.obj
 0001:00003880       ??1stringdispid@CComTypeInfoHolder@ATL@@QEAA@XZ 0000000180004880 f i OposVariant.obj
 0001:000038c0       ??A?$CSimpleArray@GV?$CSimpleArrayEqualHelper@G@ATL@@@ATL@@QEAAAEAGH@Z 00000001800048c0 f i OposVariant.obj
 0001:00003970       ??B?$CHeapPtrBase@_WVCCRTAllocator@ATL@@@ATL@@QEBAPEA_WXZ 0000000180004970 f i OposVariant.obj
 0001:00003980       ??B?$CTraceCategoryEx@$01$0A@@ATL@@QEAAIXZ 0000000180004980 f i OposVariant.obj
 0001:00003990       ??B?$CTraceCategoryEx@$0CA@$0A@@ATL@@QEAAIXZ 0000000180004990 f i OposVariant.obj
 0001:000039a0       ??RCTraceFileAndLineInfo@ATL@@QEBAXHIPEB_WZZ 00000001800049a0 f i OposVariant.obj
 0001:00003a50       ??_Estringdispid@CComTypeInfoHolder@ATL@@QEAAPEAXI@Z 0000000180004a50 f i OposVariant.obj
 0001:00003b00       ??_H@YAXPEAX_K1P6APEAX0@Z@Z 0000000180004b00 f i OposVariant.obj
 0001:00003b90       ??_I@YAXPEAX_K1P6AX0@Z@Z   0000000180004b90 f i OposVariant.obj
 0001:00003c40       ?Allocate@?$CHeapPtr@_WVCCRTAllocator@ATL@@@ATL@@QEAA_N_K@Z 0000000180004c40 f i OposVariant.obj
 0001:00003cc0       ?Allocate@CCRTAllocator@ATL@@SAPEAX_K@Z 0000000180004cc0 f i OposVariant.obj
 0001:00003cf0       ?AllocateBytes@?$CHeapPtrBase@_WVCCRTAllocator@ATL@@@ATL@@QEAA_N_K@Z 0000000180004cf0 f i OposVariant.obj
 0001:00003d90       ?AtlWinModuleInit@ATL@@YAJPEAU_ATL_WIN_MODULE70@1@@Z 0000000180004d90 f i OposVariant.obj
 0001:00003e90       ?AtlWinModuleTerm@ATL@@YAJPEAU_ATL_WIN_MODULE70@1@PEAUHINSTANCE__@@@Z 0000000180004e90 f i OposVariant.obj
 0001:00003f80       ?Clear@OposVariant@@QEAAJXZ 0000000180004f80 f i OposVariant.obj
 0001:00003fc0       ?Free@?$CHeapPtrBase@_WVCCRTAllocator@ATL@@@ATL@@QEAAXXZ 0000000180004fc0 f i OposVariant.obj
 0001:00004000       ?Free@CCRTAllocator@ATL@@SAXPEAX@Z 0000000180005000 f i OposVariant.obj
 0001:00004030       ?GetCategoryName@CTrace@ATL@@CAPEA_WI@Z 0000000180005030 f i OposVariant.obj
 0001:000040b0       ?GetModuleInstance@CAtlBaseModule@ATL@@QEAAPEAUHINSTANCE__@@XZ 00000001800050b0 f i OposVariant.obj
 0001:000040d0       ?GetSize@?$CSimpleArray@GV?$CSimpleArrayEqualHelper@G@ATL@@@ATL@@QEBAHXZ 00000001800050d0 f i OposVariant.obj
 0001:000040e0       ?Init@CComCriticalSection@ATL@@QEAAJXZ 00000001800050e0 f i OposVariant.obj
 0001:00004140       ?RegisterCategory@CTrace@ATL@@SAXPEB_WI@Z 0000000180005140 f i OposVariant.obj
 0001:00004220       ?RemoveAll@?$CSimpleArray@GV?$CSimpleArrayEqualHelper@G@ATL@@@ATL@@QEAAXXZ 0000000180005220 f i OposVariant.obj
 0001:000042b0       ?Term@CAtlComModule@ATL@@QEAAXXZ 00000001800052b0 f i OposVariant.obj
 0001:00004390       ?Term@CAtlWinModule@ATL@@QEAAXXZ 0000000180005390 f i OposVariant.obj
 0001:000043d0       ?Term@CComCriticalSection@ATL@@QEAAJXZ 00000001800053d0 f i OposVariant.obj
 0001:00004410       ?TraceV@CTrace@ATL@@CAXPEBDHIIPEB_W@Z 0000000180005410 f i OposVariant.obj
 0001:000046c0       ?TraceV@CTrace@ATL@@SAXPEBDHIIPEB_WPEAD@Z 00000001800056c0 f i OposVariant.obj
 0001:00004870       ?_AtlInitializeCriticalSectionEx@ATL@@YAHPEAU_RTL_CRITICAL_SECTION@@KK@Z 0000000180005870 f i OposVariant.obj
 0001:000048c0       ?_AtlRaiseException@ATL@@YAXKK@Z 00000001800058c0 f i OposVariant.obj
 0001:00004900       HRESULT_FROM_WIN32         0000000180005900 f i OposVariant.obj
 0001:00004950       _vswprintf_s_l             0000000180005950 f i OposVariant.obj
 0001:000049e0       swprintf_s                 00000001800059e0 f i OposVariant.obj
 0001:00004a70       ?ObjectMain@CComObjectRootBase@ATL@@SAX_N@Z 0000000180005a70 f i SoundRecorder.obj
 0001:00004a80       ?GetCategoryMap@CComObjectRootBase@ATL@@SAPEBU_ATL_CATMAP_ENTRY@2@XZ 0000000180005a80 f i SoundRecorder.obj
 0001:00004a90       ?GetObjectDescription@?$CComCoClass@VCOPOSSoundRecorder@@$1?CLSID_OPOSSoundRecorder@@3U_GUID@@B@ATL@@SAPEB_WXZ 0000000180005a90 f i SoundRecorder.obj
 0001:00004aa0       ?UpdateRegistry@COPOSSoundRecorder@@SAJH@Z 0000000180005aa0 f i SoundRecorder.obj
 0001:00004ae0       ?CreateInstance@?$CComCreator@V?$CComObjectCached@VCComClassFactory@ATL@@@ATL@@@ATL@@SAJPEAXAEBU_GUID@@PEAPEAX@Z 0000000180005ae0 f i SoundRecorder.obj
 0001:00004cd0       ?CreateInstance@?$CComCreator2@V?$CComCreator@V?$CComObject@VCOPOSSoundRecorder@@@ATL@@@ATL@@V?$CComCreator@V?$CComAggObject@VCOPOSSoundRecorder@@@ATL@@@2@@ATL@@SAJPEAXAEBU_GUID@@PEAPEAX@Z 0000000180005cd0 f i SoundRecorder.obj
 0001:00004ee0       DllGetClassObject          0000000180005ee0 f   SoundRecorder.obj
 0001:00004f30       DllCanUnloadNow            0000000180005f30 f   SoundRecorder.obj
 0001:00004f80       DllRegisterServer          0000000180005f80 f   SoundRecorder.obj
 0001:00004fc0       DllUnregisterServer        0000000180005fc0 f   SoundRecorder.obj
 0001:000051c0       DllMain                    00000001800061c0 f   SoundRecorder.obj
 0001:00005240       ??$?2G@Wrapper@?$CSimpleArray@GV?$CSimpleArrayEqualHelper@G@ATL@@@ATL@@SAPEAX_KPEAG@Z 0000000180006240 f i SoundRecorder.obj
 0001:00005260       ??$?2PEA_W@?$Wrapper@PEA_W@?$CSimpleMap@PEA_WPEA_WVCExpansionVectorEqualHelper@ATL@@@ATL@@SAPEAX_KPEAPEA_W@Z 0000000180006260 f i SoundRecorder.obj
 0001:00005280       ??$?4UITypeInfo2@@@?$CComPtr@UITypeInfo@@@ATL@@QEAAPEAUITypeInfo@@AEBV?$CComPtr@UITypeInfo2@@@1@@Z 0000000180006280 f i SoundRecorder.obj
 0001:000052f0       ??$AtlAdd@_K@ATL@@YAJPEA_K_K1@Z 00000001800062f0 f i SoundRecorder.obj
 0001:00005360       ??$AtlAddThrow@_K@ATL@@YA_K_K0@Z 0000000180006360 f i SoundRecorder.obj
 0001:000053d0       ??$AtlModuleRegisterWndClassInfoT@VAtlModuleRegisterWndClassInfoParamW@ATL@@@ATL@@YAGPEAU_ATL_BASE_MODULE70@0@PEAU_ATL_WIN_MODULE70@0@PEAU_ATL_WNDCLASSINFOW@0@PEAP6A_JPEAUHWND__@@I_K_J@ZVAtlModuleRegisterWndClassInfoParamW@0@@Z 00000001800063d0 f i SoundRecorder.obj
 0001:000059a0       ??$AtlMultiply@H@ATL@@YAJPEAHHH@Z 00000001800069a0 f i SoundRecorder.obj
 0001:00005a10       ??$AtlMultiply@K@ATL@@YAJPEAKKK@Z 0000000180006a10 f i SoundRecorder.obj
 0001:00005a80       ??$AtlMultiplyThrow@_K@ATL@@YA_K_K0@Z 0000000180006a80 f i SoundRecorder.obj
 0001:00005af0       ??$QueryInterface@UIPersistStream@@@IUnknown@@QEAAJPEAPEAUIPersistStream@@@Z 0000000180006af0 f i SoundRecorder.obj
 0001:00005b40       ??$QueryInterface@UITypeInfo2@@@IUnknown@@QEAAJPEAPEAUITypeInfo2@@@Z 0000000180006b40 f i SoundRecorder.obj
 0001:00005b90       ??0?$CAtlModuleT@VCComModule@ATL@@@ATL@@QEAA@XZ 0000000180006b90 f i SoundRecorder.obj
 0001:00005bd0       ??0?$CAtlSafeAllocBufferManager@VCCRTAllocator@ATL@@@_ATL_SAFE_ALLOCA_IMPL@ATL@@QEAA@XZ 0000000180006bd0 f i SoundRecorder.obj
 0001:00005bf0       ??0?$CAutoVectorPtr@_W@ATL@@QEAA@XZ 0000000180006bf0 f i SoundRecorder.obj
 0001:00005c10       ??0?$CComAggObject@VCOPOSSoundRecorder@@@ATL@@QEAA@PEAX@Z 0000000180006c10 f i SoundRecorder.obj
 0001:00005ca0       ??0?$CComContainedObject@VCOPOSSoundRecorder@@@ATL@@QEAA@PEAX@Z 0000000180006ca0 f i SoundRecorder.obj
 0001:00005e40       ??0?$CComCritSecLock@VCComCriticalSection@ATL@@@ATL@@QEAA@AEAVCComCriticalSection@1@_N@Z 0000000180006e40 f i SoundRecorder.obj
 0001:00005eb0       ??0?$CComEnum@UIEnumConnectionPoints@@$1?_GUID_b196b285_bab4_101a_b69c_00aa00341d07@@3U__s_GUID@@BPEAUIConnectionPoint@@V?$_CopyInterface@UIConnectionPoint@@@ATL@@VCComSingleThreadModel@6@@ATL@@QEAA@XZ 0000000180006eb0 f i SoundRecorder.obj
 0001:00005f00       ??0?$CComEnum@UIEnumConnections@@$1?_GUID_b196b287_bab4_101a_b69c_00aa00341d07@@3U__s_GUID@@BUtagCONNECTDATA@@V?$_Copy@UtagCONNECTDATA@@@ATL@@VCComSingleThreadModel@6@@ATL@@QEAA@XZ 0000000180006f00 f i SoundRecorder.obj
 0001:00005f50       ??0?$CComEnumImpl@UIEnumConnectionPoints@@$1?_GUID_b196b285_bab4_101a_b69c_00aa00341d07@@3U__s_GUID@@BPEAUIConnectionPoint@@V?$_CopyInterface@UIConnectionPoint@@@ATL@@@ATL@@QEAA@XZ 0000000180006f50 f i SoundRecorder.obj
 0001:00005fd0       ??0?$CComEnumImpl@UIEnumConnections@@$1?_GUID_b196b287_bab4_101a_b69c_00aa00341d07@@3U__s_GUID@@BUtagCONNECTDATA@@V?$_Copy@UtagCONNECTDATA@@@ATL@@@ATL@@QEAA@XZ 0000000180006fd0 f i SoundRecorder.obj
 0001:00006050       ??0?$CComObject@V?$CComEnum@UIEnumConnectionPoints@@$1?_GUID_b196b285_bab4_101a_b69c_00aa00341d07@@3U__s_GUID@@BPEAUIConnectionPoint@@V?$_CopyInterface@UIConnectionPoint@@@ATL@@VCComSingleThreadModel@6@@ATL@@@ATL@@QEAA@PEAX@Z 0000000180007050 f i SoundRecorder.obj
 0001:000060b0       ??0?$CComObject@V?$CComEnum@UIEnumConnections@@$1?_GUID_b196b287_bab4_101a_b69c_00aa00341d07@@3U__s_GUID@@BUtagCONNECTDATA@@V?$_Copy@UtagCONNECTDATA@@@ATL@@VCComSingleThreadModel@6@@ATL@@@ATL@@QEAA@PEAX@Z 00000001800070b0 f i SoundRecorder.obj
 0001:00006110       ??0?$CComObject@VCOPOSSoundRecorder@@@ATL@@QEAA@PEAX@Z 0000000180007110 f i SoundRecorder.obj
 0001:000062b0       ??0?$CComObjectCached@VCComClassFactory@ATL@@@ATL@@QEAA@PEAX@Z 00000001800072b0 f i SoundRecorder.obj
 0001:00006300       ??0?$CComObjectRootEx@VCComMultiThreadModel@ATL@@@ATL@@QEAA@XZ 0000000180007300 f i SoundRecorder.obj
 0001:00006350       ??0?$CComObjectRootEx@VCComSingleThreadModel@ATL@@@ATL@@QEAA@XZ 0000000180007350 f i SoundRecorder.obj
 0001:00006390       ??0?$CComPtr@UIAdviseSink@@@ATL@@QEAA@PEAUIAdviseSink@@@Z 0000000180007390 f i SoundRecorder.obj
 0001:000063d0       ??0?$CComPtr@UICatRegister@@@ATL@@QEAA@XZ 00000001800073d0 f i SoundRecorder.obj
 0001:00006410       ??0?$CComPtr@UIConnectionPoint@@@ATL@@QEAA@XZ 0000000180007410 f i SoundRecorder.obj
 0001:00006450       ??0?$CComPtr@UIConnectionPointContainer@@@ATL@@QEAA@XZ 0000000180007450 f i SoundRecorder.obj
 0001:00006490       ??0?$CComPtr@UIDataObject@@@ATL@@QEAA@XZ 0000000180007490 f i SoundRecorder.obj
 0001:000064d0       ??0?$CComPtr@UIDispatch@@@ATL@@QEAA@XZ 00000001800074d0 f i SoundRecorder.obj
 0001:00006510       ??0?$CComPtr@UIOleClientSite@@@ATL@@QEAA@PEAUIOleClientSite@@@Z 0000000180007510 f i SoundRecorder.obj
 0001:00006550       ??0?$CComPtr@UIOleControlSite@@@ATL@@QEAA@XZ 0000000180007550 f i SoundRecorder.obj
 0001:00006590       ??0?$CComPtr@UIOleInPlaceActiveObject@@@ATL@@QEAA@XZ 0000000180007590 f i SoundRecorder.obj
 0001:000065d0       ??0?$CComPtr@UIOleInPlaceFrame@@@ATL@@QEAA@XZ 00000001800075d0 f i SoundRecorder.obj
 0001:00006610       ??0?$CComPtr@UIOleInPlaceObject@@@ATL@@QEAA@XZ 0000000180007610 f i SoundRecorder.obj
 0001:00006650       ??0?$CComPtr@UIOleInPlaceUIWindow@@@ATL@@QEAA@XZ 0000000180007650 f i SoundRecorder.obj
 0001:00006690       ??0?$CComPtr@UIOleObject@@@ATL@@QEAA@XZ 0000000180007690 f i SoundRecorder.obj
 0001:000066d0       ??0?$CComPtr@UIPersistStream@@@ATL@@QEAA@XZ 00000001800076d0 f i SoundRecorder.obj
 0001:00006710       ??0?$CComPtr@UIPersistStreamInit@@@ATL@@QEAA@XZ 0000000180007710 f i SoundRecorder.obj
 0001:00006750       ??0?$CComPtr@UIPointerInactive@@@ATL@@QEAA@XZ 0000000180007750 f i SoundRecorder.obj
 0001:00006790       ??0?$CComPtr@UIProvideClassInfo2@@@ATL@@QEAA@XZ 0000000180007790 f i SoundRecorder.obj
 0001:000067d0       ??0?$CComPtr@UISpecifyPropertyPages@@@ATL@@QEAA@XZ 00000001800077d0 f i SoundRecorder.obj
 0001:00006810       ??0?$CComPtr@UIStream@@@ATL@@QEAA@XZ 0000000180007810 f i SoundRecorder.obj
 0001:00006850       ??0?$CComPtr@UITypeInfo2@@@ATL@@QEAA@XZ 0000000180007850 f i SoundRecorder.obj
 0001:00006890       ??0?$CComPtr@UITypeInfo@@@ATL@@QEAA@AEBV01@@Z 0000000180007890 f i SoundRecorder.obj
 0001:000068d0       ??0?$CComPtr@UITypeInfo@@@ATL@@QEAA@XZ 00000001800078d0 f i SoundRecorder.obj
 0001:00006910       ??0?$CComPtr@UITypeLib@@@ATL@@QEAA@XZ 0000000180007910 f i SoundRecorder.obj
 0001:00006950       ??0?$CComPtr@UIUnknown@@@ATL@@QEAA@AEBV01@@Z 0000000180007950 f i SoundRecorder.obj
 0001:00006990       ??0?$CComPtr@UIUnknown@@@ATL@@QEAA@PEAUIUnknown@@@Z 0000000180007990 f i SoundRecorder.obj
 0001:000069d0       ??0?$CComPtr@UIUnknown@@@ATL@@QEAA@XZ 00000001800079d0 f i SoundRecorder.obj
 0001:00006a10       ??0?$CComPtr@UIViewObjectEx@@@ATL@@QEAA@XZ 0000000180007a10 f i SoundRecorder.obj
 0001:00006a50       ??0?$CComPtrBase@UIAdviseSink@@@ATL@@IEAA@PEAUIAdviseSink@@@Z 0000000180007a50 f i SoundRecorder.obj
 0001:00006ab0       ??0?$CComPtrBase@UICatRegister@@@ATL@@IEAA@XZ 0000000180007ab0 f i SoundRecorder.obj
 0001:00006ad0       ??0?$CComPtrBase@UIConnectionPoint@@@ATL@@IEAA@XZ 0000000180007ad0 f i SoundRecorder.obj
 0001:00006af0       ??0?$CComPtrBase@UIConnectionPointContainer@@@ATL@@IEAA@XZ 0000000180007af0 f i SoundRecorder.obj
 0001:00006b10       ??0?$CComPtrBase@UIDataObject@@@ATL@@IEAA@XZ 0000000180007b10 f i SoundRecorder.obj
 0001:00006b30       ??0?$CComPtrBase@UIDispatch@@@ATL@@IEAA@XZ 0000000180007b30 f i SoundRecorder.obj
 0001:00006b50       ??0?$CComPtrBase@UIOleClientSite@@@ATL@@IEAA@PEAUIOleClientSite@@@Z 0000000180007b50 f i SoundRecorder.obj
 0001:00006bb0       ??0?$CComPtrBase@UIOleControlSite@@@ATL@@IEAA@XZ 0000000180007bb0 f i SoundRecorder.obj
 0001:00006bd0       ??0?$CComPtrBase@UIOleInPlaceActiveObject@@@ATL@@IEAA@XZ 0000000180007bd0 f i SoundRecorder.obj
 0001:00006bf0       ??0?$CComPtrBase@UIOleInPlaceFrame@@@ATL@@IEAA@XZ 0000000180007bf0 f i SoundRecorder.obj
 0001:00006c10       ??0?$CComPtrBase@UIOleInPlaceObject@@@ATL@@IEAA@XZ 0000000180007c10 f i SoundRecorder.obj
 0001:00006c30       ??0?$CComPtrBase@UIOleInPlaceUIWindow@@@ATL@@IEAA@XZ 0000000180007c30 f i SoundRecorder.obj
 0001:00006c50       ??0?$CComPtrBase@UIOleObject@@@ATL@@IEAA@XZ 0000000180007c50 f i SoundRecorder.obj
 0001:00006c70       ??0?$CComPtrBase@UIPersistStream@@@ATL@@IEAA@XZ 0000000180007c70 f i SoundRecorder.obj
 0001:00006c90       ??0?$CComPtrBase@UIPersistStreamInit@@@ATL@@IEAA@XZ 0000000180007c90 f i SoundRecorder.obj
 0001:00006cb0       ??0?$CComPtrBase@UIPointerInactive@@@ATL@@IEAA@XZ 0000000180007cb0 f i SoundRecorder.obj
 0001:00006cd0       ??0?$CComPtrBase@UIProvideClassInfo2@@@ATL@@IEAA@XZ 0000000180007cd0 f i SoundRecorder.obj
 0001:00006cf0       ??0?$CComPtrBase@UISpecifyPropertyPages@@@ATL@@IEAA@XZ 0000000180007cf0 f i SoundRecorder.obj
 0001:00006d10       ??0?$CComPtrBase@UIStream@@@ATL@@IEAA@XZ 0000000180007d10 f i SoundRecorder.obj
 0001:00006d30       ??0?$CComPtrBase@UITypeInfo2@@@ATL@@IEAA@XZ 0000000180007d30 f i SoundRecorder.obj
 0001:00006d50       ??0?$CComPtrBase@UITypeInfo@@@ATL@@IEAA@PEAUITypeInfo@@@Z 0000000180007d50 f i SoundRecorder.obj
 0001:00006db0       ??0?$CComPtrBase@UITypeInfo@@@ATL@@IEAA@XZ 0000000180007db0 f i SoundRecorder.obj
 0001:00006dd0       ??0?$CComPtrBase@UITypeLib@@@ATL@@IEAA@XZ 0000000180007dd0 f i SoundRecorder.obj
 0001:00006df0       ??0?$CComPtrBase@UIUnknown@@@ATL@@IEAA@PEAUIUnknown@@@Z 0000000180007df0 f i SoundRecorder.obj
 0001:00006e50       ??0?$CComPtrBase@UIUnknown@@@ATL@@IEAA@XZ 0000000180007e50 f i SoundRecorder.obj
 0001:00006e70       ??0?$CComPtrBase@UIViewObjectEx@@@ATL@@IEAA@XZ 0000000180007e70 f i SoundRecorder.obj
 0001:00006e90       ??0?$CComQIPtr@UIOleControlSite@@$1?_GUID_b196b289_bab4_101a_b69c_00aa00341d07@@3U__s_GUID@@B@ATL@@QEAA@PEAUIUnknown@@@Z 0000000180007e90 f i SoundRecorder.obj
 0001:00006f00       ??0?$CComQIPtr@UIOleObject@@$1?_GUID_00000112_0000_0000_c000_000000000046@@3U__s_GUID@@B@ATL@@QEAA@XZ 0000000180007f00 f i SoundRecorder.obj
 0001:00006f40       ??0?$CComQIPtr@UISpecifyPropertyPages@@$1?_GUID_b196b28b_bab4_101a_b69c_00aa00341d07@@3U__s_GUID@@B@ATL@@QEAA@XZ 0000000180007f40 f i SoundRecorder.obj
 0001:00006f80       ??0?$CSimpleMap@PEA_WPEA_WVCExpansionVectorEqualHelper@ATL@@@ATL@@QEAA@XZ 0000000180007f80 f i SoundRecorder.obj
 0001:00006fc0       ??0?$CTempBuffer@E$0BAA@VCCRTAllocator@ATL@@@ATL@@QEAA@XZ 0000000180007fc0 f i SoundRecorder.obj
 0001:00006fe0       ??0?$CTempBuffer@_W$0BAA@VCCRTAllocator@ATL@@@ATL@@QEAA@XZ 0000000180007fe0 f i SoundRecorder.obj
 0001:00007000       ??0?$CTempBuffer@_W$0EAA@VCCRTAllocator@ATL@@@ATL@@QEAA@XZ 0000000180008000 f i SoundRecorder.obj
 0001:00007020       ??0?$Wrapper@PEA_W@?$CSimpleMap@PEA_WPEA_WVCExpansionVectorEqualHelper@ATL@@@ATL@@QEAA@AEBQEA_W@Z 0000000180008020 f i SoundRecorder.obj
 0001:00007050       ??0CAtlModule@ATL@@QEAA@XZ 0000000180008050 f i SoundRecorder.obj
 0001:000071c0       ??0CComAutoDeleteCriticalSection@ATL@@QEAA@XZ 00000001800081c0 f i SoundRecorder.obj
 0001:00007200       ??0CComBSTR@ATL@@QEAA@XZ   0000000180008200 f i SoundRecorder.obj
 0001:00007220       ??0CComClassFactory@ATL@@QEAA@XZ 0000000180008220 f i SoundRecorder.obj
 0001:00007280       ??0CComModule@ATL@@QEAA@XZ 0000000180008280 f i SoundRecorder.obj
 0001:00007320       ??0CComObjectRootBase@ATL@@QEAA@XZ 0000000180008320 f i SoundRecorder.obj
 0001:00007340       ??0CComSafeDeleteCriticalSection@ATL@@QEAA@XZ 0000000180008340 f i SoundRecorder.obj
 0001:00007380       ??0CComVariant@ATL@@QEAA@XZ 0000000180008380 f i SoundRecorder.obj
 0001:000073d0       ??0CExpansionVector@ATL@@QEAA@XZ 00000001800083d0 f i SoundRecorder.obj
 0001:00007410       ??0CParseBuffer@CRegParser@ATL@@QEAA@H@Z 0000000180008410 f i SoundRecorder.obj
 0001:000074a0       ??0CRegKey@ATL@@QEAA@PEAUHKEY__@@@Z 00000001800084a0 f i SoundRecorder.obj
 0001:000074e0       ??0CRegKey@ATL@@QEAA@PEAVCAtlTransactionManager@1@@Z 00000001800084e0 f i SoundRecorder.obj
 0001:00007520       ??0CRegObject@ATL@@QEAA@XZ 0000000180008520 f i SoundRecorder.obj
 0001:00007580       ??0CRegParser@ATL@@QEAA@PEAVCRegObject@1@@Z 0000000180008580 f i SoundRecorder.obj
 0001:000075b0       ??0IClassFactory@@QEAA@XZ  00000001800085b0 f i SoundRecorder.obj
 0001:000075f0       ??0IEnumConnectionPoints@@QEAA@XZ 00000001800085f0 f i SoundRecorder.obj
 0001:00007630       ??0IEnumConnections@@QEAA@XZ 0000000180008630 f i SoundRecorder.obj
 0001:00007670       ??0IRegistrarBase@@QEAA@XZ 0000000180008670 f i SoundRecorder.obj
 0001:000076b0       ??0IUnknown@@QEAA@XZ       00000001800086b0 f i SoundRecorder.obj
 0001:000076c0       ??0ModuleLockHelper@ATL@@QEAA@XZ 00000001800086c0 f i SoundRecorder.obj
 0001:00007700       ??0OposVariant@@QEAA@XZ    0000000180008700 f i SoundRecorder.obj
 0001:00007720       ??0Wrapper@?$CSimpleArray@GV?$CSimpleArrayEqualHelper@G@ATL@@@ATL@@QEAA@AEBG@Z 0000000180008720 f i SoundRecorder.obj
 0001:00007750       ??0_ATL_MODULE70@ATL@@QEAA@XZ 0000000180008750 f i SoundRecorder.obj
 0001:00007790       ??0_ATL_MSG@ATL@@QEAA@PEAUHWND__@@I_K_JH@Z 0000000180008790 f i SoundRecorder.obj
 0001:00007820       ??0_U_MENUorID@ATL@@QEAA@I@Z 0000000180008820 f i SoundRecorder.obj
 0001:00007840       ??0_U_RECT@ATL@@QEAA@AEAUtagRECT@@@Z 0000000180008840 f i SoundRecorder.obj
 0001:00007860       ??0stringdispid@CComTypeInfoHolder@ATL@@QEAA@XZ 0000000180008860 f i SoundRecorder.obj
 0001:000078b0       ??1?$CAtlModuleT@VCComModule@ATL@@@ATL@@UEAA@XZ 00000001800088b0 f i SoundRecorder.obj
 0001:000078e0       ??1?$CAtlSafeAllocBufferManager@VCCRTAllocator@ATL@@@_ATL_SAFE_ALLOCA_IMPL@ATL@@QEAA@XZ 00000001800088e0 f i SoundRecorder.obj
 0001:00007940       ??1?$CAutoVectorPtr@_W@ATL@@QEAA@XZ 0000000180008940 f i SoundRecorder.obj
 0001:00007970       ??1?$CComAggObject@VCOPOSSoundRecorder@@@ATL@@UEAA@XZ 0000000180008970 f i SoundRecorder.obj
 0001:000079f0       ??1?$CComContainedObject@VCOPOSSoundRecorder@@@ATL@@UEAA@XZ 00000001800089f0 f i SoundRecorder.obj
 0001:00007a20       ??1?$CComCritSecLock@VCComCriticalSection@ATL@@@ATL@@QEAA@XZ 0000000180008a20 f i SoundRecorder.obj
 0001:00007a60       ??1?$CComEnum@UIEnumConnectionPoints@@$1?_GUID_b196b285_bab4_101a_b69c_00aa00341d07@@3U__s_GUID@@BPEAUIConnectionPoint@@V?$_CopyInterface@UIConnectionPoint@@@ATL@@VCComSingleThreadModel@6@@ATL@@UEAA@XZ 0000000180008a60 f i SoundRecorder.obj
 0001:00007aa0       ??1?$CComEnum@UIEnumConnections@@$1?_GUID_b196b287_bab4_101a_b69c_00aa00341d07@@3U__s_GUID@@BUtagCONNECTDATA@@V?$_Copy@UtagCONNECTDATA@@@ATL@@VCComSingleThreadModel@6@@ATL@@UEAA@XZ 0000000180008aa0 f i SoundRecorder.obj
 0001:00007ae0       ??1?$CComEnumImpl@UIEnumConnectionPoints@@$1?_GUID_b196b285_bab4_101a_b69c_00aa00341d07@@3U__s_GUID@@BPEAUIConnectionPoint@@V?$_CopyInterface@UIConnectionPoint@@@ATL@@@ATL@@UEAA@XZ 0000000180008ae0 f i SoundRecorder.obj
 0001:00007b80       ??1?$CComEnumImpl@UIEnumConnections@@$1?_GUID_b196b287_bab4_101a_b69c_00aa00341d07@@3U__s_GUID@@BUtagCONNECTDATA@@V?$_Copy@UtagCONNECTDATA@@@ATL@@@ATL@@UEAA@XZ 0000000180008b80 f i SoundRecorder.obj
 0001:00007c20       ??1?$CComObject@V?$CComEnum@UIEnumConnectionPoints@@$1?_GUID_b196b285_bab4_101a_b69c_00aa00341d07@@3U__s_GUID@@BPEAUIConnectionPoint@@V?$_CopyInterface@UIConnectionPoint@@@ATL@@VCComSingleThreadModel@6@@ATL@@@ATL@@UEAA@XZ 0000000180008c20 f i SoundRecorder.obj
 0001:00007c90       ??1?$CComObject@V?$CComEnum@UIEnumConnections@@$1?_GUID_b196b287_bab4_101a_b69c_00aa00341d07@@3U__s_GUID@@BUtagCONNECTDATA@@V?$_Copy@UtagCONNECTDATA@@@ATL@@VCComSingleThreadModel@6@@ATL@@@ATL@@UEAA@XZ 0000000180008c90 f i SoundRecorder.obj
 0001:00007d00       ??1?$CComObject@VCOPOSSoundRecorder@@@ATL@@UEAA@XZ 0000000180008d00 f i SoundRecorder.obj
 0001:00007eb0       ??1?$CComObjectCached@VCComClassFactory@ATL@@@ATL@@UEAA@XZ 0000000180008eb0 f i SoundRecorder.obj
 0001:00007f10       ??1?$CComObjectRootEx@VCComMultiThreadModel@ATL@@@ATL@@QEAA@XZ 0000000180008f10 f i SoundRecorder.obj
 0001:00007f50       ??1?$CComObjectRootEx@VCComSingleThreadModel@ATL@@@ATL@@QEAA@XZ 0000000180008f50 f i SoundRecorder.obj
 0001:00007f80       ??1?$CComPtr@UIAdviseSink@@@ATL@@QEAA@XZ 0000000180008f80 f i SoundRecorder.obj
 0001:00007fb0       ??1?$CComPtr@UICatRegister@@@ATL@@QEAA@XZ 0000000180008fb0 f i SoundRecorder.obj
 0001:00007fe0       ??1?$CComPtr@UIConnectionPoint@@@ATL@@QEAA@XZ 0000000180008fe0 f i SoundRecorder.obj
 0001:00008010       ??1?$CComPtr@UIConnectionPointContainer@@@ATL@@QEAA@XZ 0000000180009010 f i SoundRecorder.obj
 0001:00008040       ??1?$CComPtr@UIDataObject@@@ATL@@QEAA@XZ 0000000180009040 f i SoundRecorder.obj
 0001:00008070       ??1?$CComPtr@UIDispatch@@@ATL@@QEAA@XZ 0000000180009070 f i SoundRecorder.obj
 0001:000080a0       ??1?$CComPtr@UIOleClientSite@@@ATL@@QEAA@XZ 00000001800090a0 f i SoundRecorder.obj
 0001:000080d0       ??1?$CComPtr@UIOleControlSite@@@ATL@@QEAA@XZ 00000001800090d0 f i SoundRecorder.obj
 0001:00008100       ??1?$CComPtr@UIOleInPlaceActiveObject@@@ATL@@QEAA@XZ 0000000180009100 f i SoundRecorder.obj
 0001:00008130       ??1?$CComPtr@UIOleInPlaceFrame@@@ATL@@QEAA@XZ 0000000180009130 f i SoundRecorder.obj
 0001:00008160       ??1?$CComPtr@UIOleInPlaceObject@@@ATL@@QEAA@XZ 0000000180009160 f i SoundRecorder.obj
 0001:00008190       ??1?$CComPtr@UIOleInPlaceUIWindow@@@ATL@@QEAA@XZ 0000000180009190 f i SoundRecorder.obj
 0001:000081c0       ??1?$CComPtr@UIOleObject@@@ATL@@QEAA@XZ 00000001800091c0 f i SoundRecorder.obj
 0001:000081f0       ??1?$CComPtr@UIPersistStream@@@ATL@@QEAA@XZ 00000001800091f0 f i SoundRecorder.obj
 0001:00008220       ??1?$CComPtr@UIPersistStreamInit@@@ATL@@QEAA@XZ 0000000180009220 f i SoundRecorder.obj
 0001:00008250       ??1?$CComPtr@UIPointerInactive@@@ATL@@QEAA@XZ 0000000180009250 f i SoundRecorder.obj
 0001:00008280       ??1?$CComPtr@UIProvideClassInfo2@@@ATL@@QEAA@XZ 0000000180009280 f i SoundRecorder.obj
 0001:000082b0       ??1?$CComPtr@UISpecifyPropertyPages@@@ATL@@QEAA@XZ 00000001800092b0 f i SoundRecorder.obj
 0001:000082e0       ??1?$CComPtr@UIStream@@@ATL@@QEAA@XZ 00000001800092e0 f i SoundRecorder.obj
 0001:00008310       ??1?$CComPtr@UITypeInfo2@@@ATL@@QEAA@XZ 0000000180009310 f i SoundRecorder.obj
 0001:00008340       ??1?$CComPtr@UITypeInfo@@@ATL@@QEAA@XZ 0000000180009340 f i SoundRecorder.obj
 0001:00008370       ??1?$CComPtr@UITypeLib@@@ATL@@QEAA@XZ 0000000180009370 f i SoundRecorder.obj
 0001:000083a0       ??1?$CComPtr@UIUnknown@@@ATL@@QEAA@XZ 00000001800093a0 f i SoundRecorder.obj
 0001:000083d0       ??1?$CComPtr@UIViewObjectEx@@@ATL@@QEAA@XZ 00000001800093d0 f i SoundRecorder.obj
 0001:00008400       ??1?$CComPtrBase@UIAdviseSink@@@ATL@@QEAA@XZ 0000000180009400 f i SoundRecorder.obj
 0001:00008450       ??1?$CComPtrBase@UICatRegister@@@ATL@@QEAA@XZ 0000000180009450 f i SoundRecorder.obj
 0001:000084a0       ??1?$CComPtrBase@UIConnectionPoint@@@ATL@@QEAA@XZ 00000001800094a0 f i SoundRecorder.obj
 0001:000084f0       ??1?$CComPtrBase@UIConnectionPointContainer@@@ATL@@QEAA@XZ 00000001800094f0 f i SoundRecorder.obj
 0001:00008540       ??1?$CComPtrBase@UIDataObject@@@ATL@@QEAA@XZ 0000000180009540 f i SoundRecorder.obj
 0001:00008590       ??1?$CComPtrBase@UIDispatch@@@ATL@@QEAA@XZ 0000000180009590 f i SoundRecorder.obj
 0001:000085e0       ??1?$CComPtrBase@UIOleClientSite@@@ATL@@QEAA@XZ 00000001800095e0 f i SoundRecorder.obj
 0001:00008630       ??1?$CComPtrBase@UIOleControlSite@@@ATL@@QEAA@XZ 0000000180009630 f i SoundRecorder.obj
 0001:00008680       ??1?$CComPtrBase@UIOleInPlaceActiveObject@@@ATL@@QEAA@XZ 0000000180009680 f i SoundRecorder.obj
 0001:000086d0       ??1?$CComPtrBase@UIOleInPlaceFrame@@@ATL@@QEAA@XZ 00000001800096d0 f i SoundRecorder.obj
 0001:00008720       ??1?$CComPtrBase@UIOleInPlaceObject@@@ATL@@QEAA@XZ 0000000180009720 f i SoundRecorder.obj
 0001:00008770       ??1?$CComPtrBase@UIOleInPlaceUIWindow@@@ATL@@QEAA@XZ 0000000180009770 f i SoundRecorder.obj
 0001:000087c0       ??1?$CComPtrBase@UIOleObject@@@ATL@@QEAA@XZ 00000001800097c0 f i SoundRecorder.obj
 0001:00008810       ??1?$CComPtrBase@UIPersistStream@@@ATL@@QEAA@XZ 0000000180009810 f i SoundRecorder.obj
 0001:00008860       ??1?$CComPtrBase@UIPersistStreamInit@@@ATL@@QEAA@XZ 0000000180009860 f i SoundRecorder.obj
 0001:000088b0       ??1?$CComPtrBase@UIPointerInactive@@@ATL@@QEAA@XZ 00000001800098b0 f i SoundRecorder.obj
 0001:00008900       ??1?$CComPtrBase@UIProvideClassInfo2@@@ATL@@QEAA@XZ 0000000180009900 f i SoundRecorder.obj
 0001:00008950       ??1?$CComPtrBase@UISpecifyPropertyPages@@@ATL@@QEAA@XZ 0000000180009950 f i SoundRecorder.obj
 0001:000089a0       ??1?$CComPtrBase@UIStream@@@ATL@@QEAA@XZ 00000001800099a0 f i SoundRecorder.obj
 0001:000089f0       ??1?$CComPtrBase@UITypeInfo2@@@ATL@@QEAA@XZ 00000001800099f0 f i SoundRecorder.obj
 0001:00008a40       ??1?$CComPtrBase@UITypeInfo@@@ATL@@QEAA@XZ 0000000180009a40 f i SoundRecorder.obj
 0001:00008a90       ??1?$CComPtrBase@UITypeLib@@@ATL@@QEAA@XZ 0000000180009a90 f i SoundRecorder.obj
 0001:00008ae0       ??1?$CComPtrBase@UIUnknown@@@ATL@@QEAA@XZ 0000000180009ae0 f i SoundRecorder.obj
 0001:00008b30       ??1?$CComPtrBase@UIViewObjectEx@@@ATL@@QEAA@XZ 0000000180009b30 f i SoundRecorder.obj
 0001:00008b80       ??1?$CComQIPtr@UIOleControlSite@@$1?_GUID_b196b289_bab4_101a_b69c_00aa00341d07@@3U__s_GUID@@B@ATL@@QEAA@XZ 0000000180009b80 f i SoundRecorder.obj
 0001:00008bb0       ??1?$CComQIPtr@UIOleObject@@$1?_GUID_00000112_0000_0000_c000_000000000046@@3U__s_GUID@@B@ATL@@QEAA@XZ 0000000180009bb0 f i SoundRecorder.obj
 0001:00008be0       ??1?$CComQIPtr@UISpecifyPropertyPages@@$1?_GUID_b196b28b_bab4_101a_b69c_00aa00341d07@@3U__s_GUID@@B@ATL@@QEAA@XZ 0000000180009be0 f i SoundRecorder.obj
 0001:00008c10       ??1?$CSimpleMap@PEA_WPEA_WVCExpansionVectorEqualHelper@ATL@@@ATL@@QEAA@XZ 0000000180009c10 f i SoundRecorder.obj
 0001:00008c40       ??1?$CTempBuffer@E$0BAA@VCCRTAllocator@ATL@@@ATL@@QEAA@XZ 0000000180009c40 f i SoundRecorder.obj
 0001:00008c90       ??1?$CTempBuffer@_W$0BAA@VCCRTAllocator@ATL@@@ATL@@QEAA@XZ 0000000180009c90 f i SoundRecorder.obj
 0001:00008ce0       ??1?$CTempBuffer@_W$0EAA@VCCRTAllocator@ATL@@@ATL@@QEAA@XZ 0000000180009ce0 f i SoundRecorder.obj
 0001:00008d30       ??1CAtlModule@ATL@@UEAA@XZ 0000000180009d30 f i SoundRecorder.obj
 0001:00008d70       ??1CComAutoDeleteCriticalSection@ATL@@QEAA@XZ 0000000180009d70 f i SoundRecorder.obj
 0001:00008da0       ??1CComClassFactory@ATL@@UEAA@XZ 0000000180009da0 f i SoundRecorder.obj
 0001:00008df0       ??1CComModule@ATL@@UEAA@XZ 0000000180009df0 f i SoundRecorder.obj
 0001:00008e30       ??1CComObjectRootBase@ATL@@QEAA@XZ 0000000180009e30 f i SoundRecorder.obj
 0001:00008e40       ??1CComSafeDeleteCriticalSection@ATL@@QEAA@XZ 0000000180009e40 f i SoundRecorder.obj
 0001:00008e90       ??1CComVariant@ATL@@QEAA@XZ 0000000180009e90 f i SoundRecorder.obj
 0001:00008f10       ??1CExpansionVector@ATL@@QEAA@XZ 0000000180009f10 f i SoundRecorder.obj
 0001:00008f50       ??1CParseBuffer@CRegParser@ATL@@QEAA@XZ 0000000180009f50 f i SoundRecorder.obj
 0001:00008f90       ??1CRegKey@ATL@@QEAA@XZ    0000000180009f90 f i SoundRecorder.obj
 0001:00008fc0       ??1CRegObject@ATL@@UEAA@XZ 0000000180009fc0 f i SoundRecorder.obj
 0001:00009010       ??1ModuleLockHelper@ATL@@QEAA@XZ 000000018000a010 f i SoundRecorder.obj
 0001:00009050       ??1OposVariant@@QEAA@XZ    000000018000a050 f i SoundRecorder.obj
 0001:00009090       ??1_ATL_MODULE70@ATL@@QEAA@XZ 000000018000a090 f i SoundRecorder.obj
 0001:000090d0       ??4?$CComPtr@UIAdviseSink@@@ATL@@QEAAPEAUIAdviseSink@@PEAU2@@Z 000000018000a0d0 f i SoundRecorder.obj
 0001:00009140       ??4?$CComPtr@UIOleClientSite@@@ATL@@QEAAPEAUIOleClientSite@@PEAU2@@Z 000000018000a140 f i SoundRecorder.obj
 0001:000091b0       ??4?$CComPtr@UIUnknown@@@ATL@@QEAAPEAUIUnknown@@PEAU2@@Z 000000018000a1b0 f i SoundRecorder.obj
 0001:00009220       ??4?$CComQIPtr@UIOleObject@@$1?_GUID_00000112_0000_0000_c000_000000000046@@3U__s_GUID@@B@ATL@@QEAAPEAUIOleObject@@PEAUIUnknown@@@Z 000000018000a220 f i SoundRecorder.obj
 0001:00009280       ??4?$CComQIPtr@UISpecifyPropertyPages@@$1?_GUID_b196b28b_bab4_101a_b69c_00aa00341d07@@3U__s_GUID@@B@ATL@@QEAAPEAUISpecifyPropertyPages@@PEAUIUnknown@@@Z 000000018000a280 f i SoundRecorder.obj
 0001:000092e0       ??7?$CComPtrBase@UIOleClientSite@@@ATL@@QEBA_NXZ 000000018000a2e0 f i SoundRecorder.obj
 0001:00009330       ??7?$CComPtrBase@UIOleInPlaceSiteWindowless@@@ATL@@QEBA_NXZ 000000018000a330 f i SoundRecorder.obj
 0001:00009380       ??7CComBSTR@ATL@@QEBA_NXZ  000000018000a380 f i SoundRecorder.obj
 0001:000093d0       ??8?$CComPtrBase@UIConnectionPointContainer@@@ATL@@QEBA_NPEAUIConnectionPointContainer@@@Z 000000018000a3d0 f i SoundRecorder.obj
 0001:00009420       ??8?$CComPtrBase@UIDataAdviseHolder@@@ATL@@QEBA_NPEAUIDataAdviseHolder@@@Z 000000018000a420 f i SoundRecorder.obj
 0001:00009470       ??8?$CComPtrBase@UIOleAdviseHolder@@@ATL@@QEBA_NPEAUIOleAdviseHolder@@@Z 000000018000a470 f i SoundRecorder.obj
 0001:000094c0       ??8?$CComPtrBase@UIOleClientSite@@@ATL@@QEBA_NPEAUIOleClientSite@@@Z 000000018000a4c0 f i SoundRecorder.obj
 0001:00009510       ??8?$CComPtrBase@UIOleControlSite@@@ATL@@QEBA_NPEAUIOleControlSite@@@Z 000000018000a510 f i SoundRecorder.obj
 0001:00009560       ??8?$CComPtrBase@UIOleInPlaceObject@@@ATL@@QEBA_NPEAUIOleInPlaceObject@@@Z 000000018000a560 f i SoundRecorder.obj
 0001:000095b0       ??8?$CComPtrBase@UIOleInPlaceSiteWindowless@@@ATL@@QEBA_NPEAUIOleInPlaceSiteWindowless@@@Z 000000018000a5b0 f i SoundRecorder.obj
 0001:00009600       ??8?$CComPtrBase@UIOleObject@@@ATL@@QEBA_NPEAUIOleObject@@@Z 000000018000a600 f i SoundRecorder.obj
 0001:00009650       ??8?$CComPtrBase@UIPersistStream@@@ATL@@QEBA_NPEAUIPersistStream@@@Z 000000018000a650 f i SoundRecorder.obj
 0001:000096a0       ??8?$CComPtrBase@UIPersistStreamInit@@@ATL@@QEBA_NPEAUIPersistStreamInit@@@Z 000000018000a6a0 f i SoundRecorder.obj
 0001:000096f0       ??8?$CComPtrBase@UIPointerInactive@@@ATL@@QEBA_NPEAUIPointerInactive@@@Z 000000018000a6f0 f i SoundRecorder.obj
 0001:00009740       ??8?$CComPtrBase@UIUnknown@@@ATL@@QEBA_NPEAUIUnknown@@@Z 000000018000a740 f i SoundRecorder.obj
 0001:00009790       ??8?$CComPtrBase@UIViewObjectEx@@@ATL@@QEBA_NPEAUIViewObjectEx@@@Z 000000018000a790 f i SoundRecorder.obj
 0001:000097e0       ??8CComBSTR@ATL@@QEBA_NH@Z 000000018000a7e0 f i SoundRecorder.obj
 0001:00009860       ??9?$CComPtrBase@UIConnectionPointContainer@@@ATL@@QEBA_NPEAUIConnectionPointContainer@@@Z 000000018000a860 f i SoundRecorder.obj
 0001:000098c0       ??9?$CComPtrBase@UIDataAdviseHolder@@@ATL@@QEBA_NPEAUIDataAdviseHolder@@@Z 000000018000a8c0 f i SoundRecorder.obj
 0001:00009920       ??9?$CComPtrBase@UIOleAdviseHolder@@@ATL@@QEBA_NPEAUIOleAdviseHolder@@@Z 000000018000a920 f i SoundRecorder.obj
 0001:00009980       ??9?$CComPtrBase@UIOleClientSite@@@ATL@@QEBA_NPEAUIOleClientSite@@@Z 000000018000a980 f i SoundRecorder.obj
 0001:000099e0       ??9?$CComPtrBase@UIOleControlSite@@@ATL@@QEBA_NPEAUIOleControlSite@@@Z 000000018000a9e0 f i SoundRecorder.obj
 0001:00009a40       ??9?$CComPtrBase@UIOleInPlaceObject@@@ATL@@QEBA_NPEAUIOleInPlaceObject@@@Z 000000018000aa40 f i SoundRecorder.obj
 0001:00009aa0       ??9?$CComPtrBase@UIOleInPlaceSiteWindowless@@@ATL@@QEBA_NPEAUIOleInPlaceSiteWindowless@@@Z 000000018000aaa0 f i SoundRecorder.obj
 0001:00009b00       ??9?$CComPtrBase@UIOleObject@@@ATL@@QEBA_NPEAUIOleObject@@@Z 000000018000ab00 f i SoundRecorder.obj
 0001:00009b60       ??9?$CComPtrBase@UIPersistStream@@@ATL@@QEBA_NPEAUIPersistStream@@@Z 000000018000ab60 f i SoundRecorder.obj
 0001:00009bc0       ??9?$CComPtrBase@UIPersistStreamInit@@@ATL@@QEBA_NPEAUIPersistStreamInit@@@Z 000000018000abc0 f i SoundRecorder.obj
 0001:00009c20       ??9?$CComPtrBase@UIPointerInactive@@@ATL@@QEBA_NPEAUIPointerInactive@@@Z 000000018000ac20 f i SoundRecorder.obj
 0001:00009c80       ??9?$CComPtrBase@UIUnknown@@@ATL@@QEBA_NPEAUIUnknown@@@Z 000000018000ac80 f i SoundRecorder.obj
 0001:00009ce0       ??9?$CComPtrBase@UIViewObjectEx@@@ATL@@QEBA_NPEAUIViewObjectEx@@@Z 000000018000ace0 f i SoundRecorder.obj
 0001:00009d40       ??9CComBSTR@ATL@@QEBA_NH@Z 000000018000ad40 f i SoundRecorder.obj
 0001:00009da0       ??B?$CComPtrBase@UIAdviseSink@@@ATL@@QEBAPEAUIAdviseSink@@XZ 000000018000ada0 f i SoundRecorder.obj
 0001:00009db0       ??B?$CComPtrBase@UIDataAdviseHolder@@@ATL@@QEBAPEAUIDataAdviseHolder@@XZ 000000018000adb0 f i SoundRecorder.obj
 0001:00009dc0       ??B?$CComPtrBase@UIDataObject@@@ATL@@QEBAPEAUIDataObject@@XZ 000000018000adc0 f i SoundRecorder.obj
 0001:00009dd0       ??B?$CComPtrBase@UIOleAdviseHolder@@@ATL@@QEBAPEAUIOleAdviseHolder@@XZ 000000018000add0 f i SoundRecorder.obj
 0001:00009de0       ??B?$CComPtrBase@UIOleClientSite@@@ATL@@QEBAPEAUIOleClientSite@@XZ 000000018000ade0 f i SoundRecorder.obj
 0001:00009df0       ??B?$CComPtrBase@UIOleControlSite@@@ATL@@QEBAPEAUIOleControlSite@@XZ 000000018000adf0 f i SoundRecorder.obj
 0001:00009e00       ??B?$CComPtrBase@UIOleInPlaceActiveObject@@@ATL@@QEBAPEAUIOleInPlaceActiveObject@@XZ 000000018000ae00 f i SoundRecorder.obj
 0001:00009e10       ??B?$CComPtrBase@UIOleInPlaceFrame@@@ATL@@QEBAPEAUIOleInPlaceFrame@@XZ 000000018000ae10 f i SoundRecorder.obj
 0001:00009e20       ??B?$CComPtrBase@UIOleInPlaceSiteWindowless@@@ATL@@QEBAPEAUIOleInPlaceSiteWindowless@@XZ 000000018000ae20 f i SoundRecorder.obj
 0001:00009e30       ??B?$CComPtrBase@UIOleInPlaceUIWindow@@@ATL@@QEBAPEAUIOleInPlaceUIWindow@@XZ 000000018000ae30 f i SoundRecorder.obj
 0001:00009e40       ??B?$CComPtrBase@UIOleObject@@@ATL@@QEBAPEAUIOleObject@@XZ 000000018000ae40 f i SoundRecorder.obj
 0001:00009e50       ??B?$CComPtrBase@UIPersistStream@@@ATL@@QEBAPEAUIPersistStream@@XZ 000000018000ae50 f i SoundRecorder.obj
 0001:00009e60       ??B?$CComPtrBase@UIProvideClassInfo2@@@ATL@@QEBAPEAUIProvideClassInfo2@@XZ 000000018000ae60 f i SoundRecorder.obj
 0001:00009e70       ??B?$CComPtrBase@UISpecifyPropertyPages@@@ATL@@QEBAPEAUISpecifyPropertyPages@@XZ 000000018000ae70 f i SoundRecorder.obj
 0001:00009e80       ??B?$CComPtrBase@UIStream@@@ATL@@QEBAPEAUIStream@@XZ 000000018000ae80 f i SoundRecorder.obj
 0001:00009e90       ??B?$CComPtrBase@UITypeInfo2@@@ATL@@QEBAPEAUITypeInfo2@@XZ 000000018000ae90 f i SoundRecorder.obj
 0001:00009ea0       ??B?$CComPtrBase@UITypeInfo@@@ATL@@QEBAPEAUITypeInfo@@XZ 000000018000aea0 f i SoundRecorder.obj
 0001:00009eb0       ??B?$CComPtrBase@UITypeLib@@@ATL@@QEBAPEAUITypeLib@@XZ 000000018000aeb0 f i SoundRecorder.obj
 0001:00009ec0       ??B?$CComPtrBase@UIUnknown@@@ATL@@QEBAPEAUIUnknown@@XZ 000000018000aec0 f i SoundRecorder.obj
 0001:00009ed0       ??B?$CTempBuffer@E$0BAA@VCCRTAllocator@ATL@@@ATL@@QEBAPEAEXZ 000000018000aed0 f i SoundRecorder.obj
 0001:00009ee0       ??B?$CTempBuffer@_W$0BAA@VCCRTAllocator@ATL@@@ATL@@QEBAPEA_WXZ 000000018000aee0 f i SoundRecorder.obj
 0001:00009ef0       ??B?$CTempBuffer@_W$0EAA@VCCRTAllocator@ATL@@@ATL@@QEBAPEA_WXZ 000000018000aef0 f i SoundRecorder.obj
 0001:00009f00       ??B?$CTraceCategoryEx@$00$0A@@ATL@@QEAAIXZ 000000018000af00 f i SoundRecorder.obj
 0001:00009f10       ??B?$CTraceCategoryEx@$07$0A@@ATL@@QEAAIXZ 000000018000af10 f i SoundRecorder.obj
 0001:00009f20       ??B?$CTraceCategoryEx@$0CAAA@$0A@@ATL@@QEAAIXZ 000000018000af20 f i SoundRecorder.obj
 0001:00009f30       ??B?$CTraceCategoryEx@$0EA@$0A@@ATL@@QEAAIXZ 000000018000af30 f i SoundRecorder.obj
 0001:00009f40       ??B?$CTraceCategoryEx@$0IAA@$0A@@ATL@@QEAAIXZ 000000018000af40 f i SoundRecorder.obj
 0001:00009f50       ??BCComBSTR@ATL@@QEBAPEA_WXZ 000000018000af50 f i SoundRecorder.obj
 0001:00009f60       ??BCRegKey@ATL@@QEBAPEAUHKEY__@@XZ 000000018000af60 f i SoundRecorder.obj
 0001:00009f70       ??C?$CComPtrBase@UIAdviseSink@@@ATL@@QEBAPEAV?$_NoAddRefReleaseOnCComPtr@UIAdviseSink@@@1@XZ 000000018000af70 f i SoundRecorder.obj
 0001:00009ff0       ??C?$CComPtrBase@UICatRegister@@@ATL@@QEBAPEAV?$_NoAddRefReleaseOnCComPtr@UICatRegister@@@1@XZ 000000018000aff0 f i SoundRecorder.obj
 0001:0000a070       ??C?$CComPtrBase@UIConnectionPoint@@@ATL@@QEBAPEAV?$_NoAddRefReleaseOnCComPtr@UIConnectionPoint@@@1@XZ 000000018000b070 f i SoundRecorder.obj
 0001:0000a0f0       ??C?$CComPtrBase@UIConnectionPointContainer@@@ATL@@QEBAPEAV?$_NoAddRefReleaseOnCComPtr@UIConnectionPointContainer@@@1@XZ 000000018000b0f0 f i SoundRecorder.obj
 0001:0000a170       ??C?$CComPtrBase@UIDataAdviseHolder@@@ATL@@QEBAPEAV?$_NoAddRefReleaseOnCComPtr@UIDataAdviseHolder@@@1@XZ 000000018000b170 f i SoundRecorder.obj
 0001:0000a1f0       ??C?$CComPtrBase@UIOleAdviseHolder@@@ATL@@QEBAPEAV?$_NoAddRefReleaseOnCComPtr@UIOleAdviseHolder@@@1@XZ 000000018000b1f0 f i SoundRecorder.obj
 0001:0000a270       ??C?$CComPtrBase@UIOleClientSite@@@ATL@@QEBAPEAV?$_NoAddRefReleaseOnCComPtr@UIOleClientSite@@@1@XZ 000000018000b270 f i SoundRecorder.obj
 0001:0000a2f0       ??C?$CComPtrBase@UIOleControlSite@@@ATL@@QEBAPEAV?$_NoAddRefReleaseOnCComPtr@UIOleControlSite@@@1@XZ 000000018000b2f0 f i SoundRecorder.obj
 0001:0000a370       ??C?$CComPtrBase@UIOleInPlaceFrame@@@ATL@@QEBAPEAV?$_NoAddRefReleaseOnCComPtr@UIOleInPlaceFrame@@@1@XZ 000000018000b370 f i SoundRecorder.obj
 0001:0000a3f0       ??C?$CComPtrBase@UIOleInPlaceObject@@@ATL@@QEBAPEAV?$_NoAddRefReleaseOnCComPtr@UIOleInPlaceObject@@@1@XZ 000000018000b3f0 f i SoundRecorder.obj
 0001:0000a470       ??C?$CComPtrBase@UIOleInPlaceSiteWindowless@@@ATL@@QEBAPEAV?$_NoAddRefReleaseOnCComPtr@UIOleInPlaceSiteWindowless@@@1@XZ 000000018000b470 f i SoundRecorder.obj
 0001:0000a4f0       ??C?$CComPtrBase@UIOleInPlaceUIWindow@@@ATL@@QEBAPEAV?$_NoAddRefReleaseOnCComPtr@UIOleInPlaceUIWindow@@@1@XZ 000000018000b4f0 f i SoundRecorder.obj
 0001:0000a570       ??C?$CComPtrBase@UIOleObject@@@ATL@@QEBAPEAV?$_NoAddRefReleaseOnCComPtr@UIOleObject@@@1@XZ 000000018000b570 f i SoundRecorder.obj
 0001:0000a5f0       ??C?$CComPtrBase@UIPersistStream@@@ATL@@QEBAPEAV?$_NoAddRefReleaseOnCComPtr@UIPersistStream@@@1@XZ 000000018000b5f0 f i SoundRecorder.obj
 0001:0000a670       ??C?$CComPtrBase@UIPersistStreamInit@@@ATL@@QEBAPEAV?$_NoAddRefReleaseOnCComPtr@UIPersistStreamInit@@@1@XZ 000000018000b670 f i SoundRecorder.obj
 0001:0000a6f0       ??C?$CComPtrBase@UIPointerInactive@@@ATL@@QEBAPEAV?$_NoAddRefReleaseOnCComPtr@UIPointerInactive@@@1@XZ 000000018000b6f0 f i SoundRecorder.obj
 0001:0000a770       ??C?$CComPtrBase@UIProvideClassInfo2@@@ATL@@QEBAPEAV?$_NoAddRefReleaseOnCComPtr@UIProvideClassInfo2@@@1@XZ 000000018000b770 f i SoundRecorder.obj
 0001:0000a7f0       ??C?$CComPtrBase@UISpecifyPropertyPages@@@ATL@@QEBAPEAV?$_NoAddRefReleaseOnCComPtr@UISpecifyPropertyPages@@@1@XZ 000000018000b7f0 f i SoundRecorder.obj
 0001:0000a870       ??C?$CComPtrBase@UITypeInfo@@@ATL@@QEBAPEAV?$_NoAddRefReleaseOnCComPtr@UITypeInfo@@@1@XZ 000000018000b870 f i SoundRecorder.obj
 0001:0000a8f0       ??C?$CComPtrBase@UITypeLib@@@ATL@@QEBAPEAV?$_NoAddRefReleaseOnCComPtr@UITypeLib@@@1@XZ 000000018000b8f0 f i SoundRecorder.obj
 0001:0000a970       ??C?$CComPtrBase@UIUnknown@@@ATL@@QEBAPEAV?$_NoAddRefReleaseOnCComPtr@UIUnknown@@@1@XZ 000000018000b970 f i SoundRecorder.obj
 0001:0000a9f0       ??C?$CComPtrBase@UIViewObjectEx@@@ATL@@QEBAPEAV?$_NoAddRefReleaseOnCComPtr@UIViewObjectEx@@@1@XZ 000000018000b9f0 f i SoundRecorder.obj
 0001:0000aa70       ??I?$CComPtrBase@UICatRegister@@@ATL@@QEAAPEAPEAUICatRegister@@XZ 000000018000ba70 f i SoundRecorder.obj
 0001:0000aae0       ??I?$CComPtrBase@UIConnectionPoint@@@ATL@@QEAAPEAPEAUIConnectionPoint@@XZ 000000018000bae0 f i SoundRecorder.obj
 0001:0000ab50       ??I?$CComPtrBase@UIConnectionPointContainer@@@ATL@@QEAAPEAPEAUIConnectionPointContainer@@XZ 000000018000bb50 f i SoundRecorder.obj
 0001:0000abc0       ??I?$CComPtrBase@UIDataAdviseHolder@@@ATL@@QEAAPEAPEAUIDataAdviseHolder@@XZ 000000018000bbc0 f i SoundRecorder.obj
 0001:0000ac30       ??I?$CComPtrBase@UIDataObject@@@ATL@@QEAAPEAPEAUIDataObject@@XZ 000000018000bc30 f i SoundRecorder.obj
 0001:0000aca0       ??I?$CComPtrBase@UIDispatch@@@ATL@@QEAAPEAPEAUIDispatch@@XZ 000000018000bca0 f i SoundRecorder.obj
 0001:0000ad10       ??I?$CComPtrBase@UIOleAdviseHolder@@@ATL@@QEAAPEAPEAUIOleAdviseHolder@@XZ 000000018000bd10 f i SoundRecorder.obj
 0001:0000ad80       ??I?$CComPtrBase@UIOleControlSite@@@ATL@@QEAAPEAPEAUIOleControlSite@@XZ 000000018000bd80 f i SoundRecorder.obj
 0001:0000adf0       ??I?$CComPtrBase@UIOleInPlaceActiveObject@@@ATL@@QEAAPEAPEAUIOleInPlaceActiveObject@@XZ 000000018000bdf0 f i SoundRecorder.obj
 0001:0000ae60       ??I?$CComPtrBase@UIOleInPlaceFrame@@@ATL@@QEAAPEAPEAUIOleInPlaceFrame@@XZ 000000018000be60 f i SoundRecorder.obj
 0001:0000aed0       ??I?$CComPtrBase@UIOleInPlaceObject@@@ATL@@QEAAPEAPEAUIOleInPlaceObject@@XZ 000000018000bed0 f i SoundRecorder.obj
 0001:0000af40       ??I?$CComPtrBase@UIOleInPlaceSiteWindowless@@@ATL@@QEAAPEAPEAUIOleInPlaceSiteWindowless@@XZ 000000018000bf40 f i SoundRecorder.obj
 0001:0000afb0       ??I?$CComPtrBase@UIOleInPlaceUIWindow@@@ATL@@QEAAPEAPEAUIOleInPlaceUIWindow@@XZ 000000018000bfb0 f i SoundRecorder.obj
 0001:0000b020       ??I?$CComPtrBase@UIOleObject@@@ATL@@QEAAPEAPEAUIOleObject@@XZ 000000018000c020 f i SoundRecorder.obj
 0001:0000b090       ??I?$CComPtrBase@UIPersistStream@@@ATL@@QEAAPEAPEAUIPersistStream@@XZ 000000018000c090 f i SoundRecorder.obj
 0001:0000b100       ??I?$CComPtrBase@UIPointerInactive@@@ATL@@QEAAPEAPEAUIPointerInactive@@XZ 000000018000c100 f i SoundRecorder.obj
 0001:0000b170       ??I?$CComPtrBase@UIProvideClassInfo2@@@ATL@@QEAAPEAPEAUIProvideClassInfo2@@XZ 000000018000c170 f i SoundRecorder.obj
 0001:0000b1e0       ??I?$CComPtrBase@UIStream@@@ATL@@QEAAPEAPEAUIStream@@XZ 000000018000c1e0 f i SoundRecorder.obj
 0001:0000b250       ??I?$CComPtrBase@UITypeInfo2@@@ATL@@QEAAPEAPEAUITypeInfo2@@XZ 000000018000c250 f i SoundRecorder.obj
 0001:0000b2c0       ??I?$CComPtrBase@UITypeInfo@@@ATL@@QEAAPEAPEAUITypeInfo@@XZ 000000018000c2c0 f i SoundRecorder.obj
 0001:0000b330       ??I?$CComPtrBase@UITypeLib@@@ATL@@QEAAPEAPEAUITypeLib@@XZ 000000018000c330 f i SoundRecorder.obj
 0001:0000b3a0       ??I?$CComPtrBase@UIUnknown@@@ATL@@QEAAPEAPEAUIUnknown@@XZ 000000018000c3a0 f i SoundRecorder.obj
 0001:0000b410       ??I?$CComPtrBase@UIViewObjectEx@@@ATL@@QEAAPEAPEAUIViewObjectEx@@XZ 000000018000c410 f i SoundRecorder.obj
 0001:0000b480       ??ICComBSTR@ATL@@QEAAPEAPEA_WXZ 000000018000c480 f i SoundRecorder.obj
 0001:0000b490       ??_E?$CComContainedObject@VCOPOSSoundRecorder@@@ATL@@W7EAAPEAXI@Z 000000018000c490 f i SoundRecorder.obj
 0001:0000b49c       ??_E?$CComContainedObject@VCOPOSSoundRecorder@@@ATL@@WHA@EAAPEAXI@Z 000000018000c49c f i SoundRecorder.obj
 0001:0000b4a8       ??_E?$CComObject@VCOPOSSoundRecorder@@@ATL@@W7EAAPEAXI@Z 000000018000c4a8 f i SoundRecorder.obj
 0001:0000b4b4       ??_E?$CComObject@VCOPOSSoundRecorder@@@ATL@@WHA@EAAPEAXI@Z 000000018000c4b4 f i SoundRecorder.obj
 0001:0000b4c0       ??_G?$CComAggObject@VCOPOSSoundRecorder@@@ATL@@UEAAPEAXI@Z 000000018000c4c0 f i SoundRecorder.obj
 0001:0000b4c0       ??_E?$CComAggObject@VCOPOSSoundRecorder@@@ATL@@UEAAPEAXI@Z 000000018000c4c0 f i SoundRecorder.obj
 0001:0000b520       ??_E?$CComContainedObject@VCOPOSSoundRecorder@@@ATL@@UEAAPEAXI@Z 000000018000c520 f i SoundRecorder.obj
 0001:0000b520       ??_G?$CComContainedObject@VCOPOSSoundRecorder@@@ATL@@UEAAPEAXI@Z 000000018000c520 f i SoundRecorder.obj
 0001:0000b580       ??_G?$CComObject@V?$CComEnum@UIEnumConnectionPoints@@$1?_GUID_b196b285_bab4_101a_b69c_00aa00341d07@@3U__s_GUID@@BPEAUIConnectionPoint@@V?$_CopyInterface@UIConnectionPoint@@@ATL@@VCComSingleThreadModel@6@@ATL@@@ATL@@UEAAPEAXI@Z 000000018000c580 f i SoundRecorder.obj
 0001:0000b580       ??_E?$CComObject@V?$CComEnum@UIEnumConnectionPoints@@$1?_GUID_b196b285_bab4_101a_b69c_00aa00341d07@@3U__s_GUID@@BPEAUIConnectionPoint@@V?$_CopyInterface@UIConnectionPoint@@@ATL@@VCComSingleThreadModel@6@@ATL@@@ATL@@UEAAPEAXI@Z 000000018000c580 f i SoundRecorder.obj
 0001:0000b5e0       ??_G?$CComObject@V?$CComEnum@UIEnumConnections@@$1?_GUID_b196b287_bab4_101a_b69c_00aa00341d07@@3U__s_GUID@@BUtagCONNECTDATA@@V?$_Copy@UtagCONNECTDATA@@@ATL@@VCComSingleThreadModel@6@@ATL@@@ATL@@UEAAPEAXI@Z 000000018000c5e0 f i SoundRecorder.obj
 0001:0000b5e0       ??_E?$CComObject@V?$CComEnum@UIEnumConnections@@$1?_GUID_b196b287_bab4_101a_b69c_00aa00341d07@@3U__s_GUID@@BUtagCONNECTDATA@@V?$_Copy@UtagCONNECTDATA@@@ATL@@VCComSingleThreadModel@6@@ATL@@@ATL@@UEAAPEAXI@Z 000000018000c5e0 f i SoundRecorder.obj
 0001:0000b640       ??_E?$CComObject@VCOPOSSoundRecorder@@@ATL@@UEAAPEAXI@Z 000000018000c640 f i SoundRecorder.obj
 0001:0000b640       ??_G?$CComObject@VCOPOSSoundRecorder@@@ATL@@UEAAPEAXI@Z 000000018000c640 f i SoundRecorder.obj
 0001:0000b6a0       ??_E?$CComObjectCached@VCComClassFactory@ATL@@@ATL@@UEAAPEAXI@Z 000000018000c6a0 f i SoundRecorder.obj
 0001:0000b6a0       ??_G?$CComObjectCached@VCComClassFactory@ATL@@@ATL@@UEAAPEAXI@Z 000000018000c6a0 f i SoundRecorder.obj
 0001:0000b700       ??_GCComClassFactory@ATL@@UEAAPEAXI@Z 000000018000c700 f i SoundRecorder.obj
 0001:0000b700       ??_ECComClassFactory@ATL@@UEAAPEAXI@Z 000000018000c700 f i SoundRecorder.obj
 0001:0000b760       ??_GCComModule@ATL@@UEAAPEAXI@Z 000000018000c760 f i SoundRecorder.obj
 0001:0000b760       ??_ECComModule@ATL@@UEAAPEAXI@Z 000000018000c760 f i SoundRecorder.obj
 0001:0000b7c0       ??_ECRegObject@ATL@@UEAAPEAXI@Z 000000018000c7c0 f i SoundRecorder.obj
 0001:0000b7c0       ??_GCRegObject@ATL@@UEAAPEAXI@Z 000000018000c7c0 f i SoundRecorder.obj
 0001:0000b820       ?Add@?$CSimpleArray@GV?$CSimpleArrayEqualHelper@G@ATL@@@ATL@@QEAAHAEBG@Z 000000018000c820 f i SoundRecorder.obj
 0001:0000b9c0       ?Add@?$CSimpleMap@PEA_WPEA_WVCExpansionVectorEqualHelper@ATL@@@ATL@@QEAAHAEBQEA_W0@Z 000000018000c9c0 f i SoundRecorder.obj
 0001:0000bab0       ?Add@CComDynamicUnkArray@ATL@@QEAAKPEAUIUnknown@@@Z 000000018000cab0 f i SoundRecorder.obj
 0001:0000bc90       ?Add@CExpansionVector@ATL@@QEAAHPEB_W0@Z 000000018000cc90 f i SoundRecorder.obj
 0001:0000bfc0       ?AddChar@CParseBuffer@CRegParser@ATL@@QEAAHPEB_W@Z 000000018000cfc0 f i SoundRecorder.obj
 0001:0000c010       ?AddCommonRGSReplacements@?$CAtlModuleT@VCComModule@ATL@@@ATL@@UEAAJPEAUIRegistrarBase@@@Z 000000018000d010 f i SoundRecorder.obj
 0001:0000c070       ?AddCreateWndData@CAtlWinModule@ATL@@QEAAXPEAU_AtlCreateWndData@2@PEAX@Z 000000018000d070 f i SoundRecorder.obj
 0001:0000c0c0       ?AddRef@?$CComAggObject@VCOPOSSoundRecorder@@@ATL@@UEAAKXZ 000000018000d0c0 f i SoundRecorder.obj
 0001:0000c100       ?AddRef@?$CComContainedObject@VCOPOSSoundRecorder@@@ATL@@UEAAKXZ 000000018000d100 f i SoundRecorder.obj
 0001:0000c138       ?AddRef@?$CComContainedObject@VCOPOSSoundRecorder@@@ATL@@WBAA@EAAKXZ 000000018000d138 f i SoundRecorder.obj
 0001:0000c144       ?AddRef@?$CComContainedObject@VCOPOSSoundRecorder@@@ATL@@WBAI@EAAKXZ 000000018000d144 f i SoundRecorder.obj
 0001:0000c150       ?AddRef@?$CComContainedObject@VCOPOSSoundRecorder@@@ATL@@WBBA@EAAKXZ 000000018000d150 f i SoundRecorder.obj
 0001:0000c15c       ?AddRef@?$CComContainedObject@VCOPOSSoundRecorder@@@ATL@@WBBI@EAAKXZ 000000018000d15c f i SoundRecorder.obj
 0001:0000c168       ?AddRef@?$CComContainedObject@VCOPOSSoundRecorder@@@ATL@@WBCI@EAAKXZ 000000018000d168 f i SoundRecorder.obj
 0001:0000c174       ?AddRef@?$CComContainedObject@VCOPOSSoundRecorder@@@ATL@@WBEA@EAAKXZ 000000018000d174 f i SoundRecorder.obj
 0001:0000c180       ?AddRef@?$CComContainedObject@VCOPOSSoundRecorder@@@ATL@@WLI@EAAKXZ 000000018000d180 f i SoundRecorder.obj
 0001:0000c18c       ?AddRef@?$CComContainedObject@VCOPOSSoundRecorder@@@ATL@@WMA@EAAKXZ 000000018000d18c f i SoundRecorder.obj
 0001:0000c198       ?AddRef@?$CComContainedObject@VCOPOSSoundRecorder@@@ATL@@WMI@EAAKXZ 000000018000d198 f i SoundRecorder.obj
 0001:0000c1a4       ?AddRef@?$CComContainedObject@VCOPOSSoundRecorder@@@ATL@@WNA@EAAKXZ 000000018000d1a4 f i SoundRecorder.obj
 0001:0000c1b0       ?AddRef@?$CComContainedObject@VCOPOSSoundRecorder@@@ATL@@WNI@EAAKXZ 000000018000d1b0 f i SoundRecorder.obj
 0001:0000c1bc       ?AddRef@?$CComContainedObject@VCOPOSSoundRecorder@@@ATL@@WOA@EAAKXZ 000000018000d1bc f i SoundRecorder.obj
 0001:0000c1c8       ?AddRef@?$CComContainedObject@VCOPOSSoundRecorder@@@ATL@@WOI@EAAKXZ 000000018000d1c8 f i SoundRecorder.obj
 0001:0000c1d4       ?AddRef@?$CComContainedObject@VCOPOSSoundRecorder@@@ATL@@WPA@EAAKXZ 000000018000d1d4 f i SoundRecorder.obj
 0001:0000c1e0       ?AddRef@?$CComContainedObject@VCOPOSSoundRecorder@@@ATL@@WPI@EAAKXZ 000000018000d1e0 f i SoundRecorder.obj
 0001:0000c1f0       ?AddRef@?$CComObject@V?$CComEnum@UIEnumConnectionPoints@@$1?_GUID_b196b285_bab4_101a_b69c_00aa00341d07@@3U__s_GUID@@BPEAUIConnectionPoint@@V?$_CopyInterface@UIConnectionPoint@@@ATL@@VCComSingleThreadModel@6@@ATL@@@ATL@@UEAAKXZ 000000018000d1f0 f i SoundRecorder.obj
 0001:0000c230       ?AddRef@?$CComObject@V?$CComEnum@UIEnumConnections@@$1?_GUID_b196b287_bab4_101a_b69c_00aa00341d07@@3U__s_GUID@@BUtagCONNECTDATA@@V?$_Copy@UtagCONNECTDATA@@@ATL@@VCComSingleThreadModel@6@@ATL@@@ATL@@UEAAKXZ 000000018000d230 f i SoundRecorder.obj
 0001:0000c270       ?AddRef@?$CComObject@VCOPOSSoundRecorder@@@ATL@@UEAAKXZ 000000018000d270 f i SoundRecorder.obj
 0001:0000c2a8       ?AddRef@?$CComObject@VCOPOSSoundRecorder@@@ATL@@WBAA@EAAKXZ 000000018000d2a8 f i SoundRecorder.obj
 0001:0000c2b4       ?AddRef@?$CComObject@VCOPOSSoundRecorder@@@ATL@@WBAI@EAAKXZ 000000018000d2b4 f i SoundRecorder.obj
 0001:0000c2c0       ?AddRef@?$CComObject@VCOPOSSoundRecorder@@@ATL@@WBBA@EAAKXZ 000000018000d2c0 f i SoundRecorder.obj
 0001:0000c2cc       ?AddRef@?$CComObject@VCOPOSSoundRecorder@@@ATL@@WBBI@EAAKXZ 000000018000d2cc f i SoundRecorder.obj
 0001:0000c2d8       ?AddRef@?$CComObject@VCOPOSSoundRecorder@@@ATL@@WBCI@EAAKXZ 000000018000d2d8 f i SoundRecorder.obj
 0001:0000c2e4       ?AddRef@?$CComObject@VCOPOSSoundRecorder@@@ATL@@WBEA@EAAKXZ 000000018000d2e4 f i SoundRecorder.obj
 0001:0000c2f0       ?AddRef@?$CComObject@VCOPOSSoundRecorder@@@ATL@@WLI@EAAKXZ 000000018000d2f0 f i SoundRecorder.obj
 0001:0000c2fc       ?AddRef@?$CComObject@VCOPOSSoundRecorder@@@ATL@@WMA@EAAKXZ 000000018000d2fc f i SoundRecorder.obj
 0001:0000c308       ?AddRef@?$CComObject@VCOPOSSoundRecorder@@@ATL@@WMI@EAAKXZ 000000018000d308 f i SoundRecorder.obj
 0001:0000c314       ?AddRef@?$CComObject@VCOPOSSoundRecorder@@@ATL@@WNA@EAAKXZ 000000018000d314 f i SoundRecorder.obj
 0001:0000c320       ?AddRef@?$CComObject@VCOPOSSoundRecorder@@@ATL@@WNI@EAAKXZ 000000018000d320 f i SoundRecorder.obj
 0001:0000c32c       ?AddRef@?$CComObject@VCOPOSSoundRecorder@@@ATL@@WOA@EAAKXZ 000000018000d32c f i SoundRecorder.obj
 0001:0000c338       ?AddRef@?$CComObject@VCOPOSSoundRecorder@@@ATL@@WOI@EAAKXZ 000000018000d338 f i SoundRecorder.obj
 0001:0000c344       ?AddRef@?$CComObject@VCOPOSSoundRecorder@@@ATL@@WPA@EAAKXZ 000000018000d344 f i SoundRecorder.obj
 0001:0000c350       ?AddRef@?$CComObject@VCOPOSSoundRecorder@@@ATL@@WPI@EAAKXZ 000000018000d350 f i SoundRecorder.obj
 0001:0000c360       ?AddRef@?$CComObjectCached@VCComClassFactory@ATL@@@ATL@@UEAAKXZ 000000018000d360 f i SoundRecorder.obj
 0001:0000c3c0       ?AddRef@CRegObject@ATL@@UEAAKXZ 000000018000d3c0 f i SoundRecorder.obj
 0001:0000c430       ?AddReplacement@CRegObject@ATL@@UEAAJPEB_W0@Z 000000018000d430 f i SoundRecorder.obj
 0001:0000c560       ?AddString@CParseBuffer@CRegParser@ATL@@QEAAHPEB_W@Z 000000018000d560 f i SoundRecorder.obj
 0001:0000c650       ?AddTermFunc@CAtlModule@ATL@@QEAAJP6AX_K@Z0@Z 000000018000d650 f i SoundRecorder.obj
 0001:0000c6c0       ?AddValue@CRegParser@ATL@@IEAAJAEAVCRegKey@2@PEB_WPEA_W@Z 000000018000d6c0 f i SoundRecorder.obj
 0001:0000cf90       ?Advise@?$CProxy_IOPOSEvents@VCOPOSSoundRecorder@@@@UEAAJPEAUIUnknown@@PEAK@Z 000000018000df90 f i SoundRecorder.obj
 0001:0000d000       ?Advise@?$IConnectionPointImpl@VCOPOSSoundRecorder@@$1?DIID__IOPOSSoundRecorderEvents@@3U_GUID@@BVCComDynamicUnkArray@ATL@@@ATL@@UEAAJPEAUIUnknown@@PEAK@Z 000000018000e000 f i SoundRecorder.obj
 0001:0000d200       ?Advise@?$IConnectionPointImpl@VCOPOSSoundRecorder@@$1?IID_IPropertyNotifySink@@3U_GUID@@BVCComDynamicUnkArray@ATL@@@ATL@@UEAAJPEAUIUnknown@@PEAK@Z 000000018000e200 f i SoundRecorder.obj
 0001:0000d400       ?Advise@?$IOleObjectImpl@VCOPOSSoundRecorder@@@ATL@@UEAAJPEAUIAdviseSink@@PEAK@Z 000000018000e400 f i SoundRecorder.obj
 0001:0000d4c0       ?Allocate@?$CAtlSafeAllocBufferManager@VCCRTAllocator@ATL@@@_ATL_SAFE_ALLOCA_IMPL@ATL@@QEAAPEAX_K@Z 000000018000e4c0 f i SoundRecorder.obj
 0001:0000d540       ?Allocate@?$CTempBuffer@E$0BAA@VCCRTAllocator@ATL@@@ATL@@QEAAPEAE_K@Z 000000018000e540 f i SoundRecorder.obj
 0001:0000d590       ?Allocate@?$CTempBuffer@_W$0BAA@VCCRTAllocator@ATL@@@ATL@@QEAAPEA_W_K@Z 000000018000e590 f i SoundRecorder.obj
 0001:0000d5e0       ?Allocate@?$CTempBuffer@_W$0EAA@VCCRTAllocator@ATL@@@ATL@@QEAAPEA_W_K@Z 000000018000e5e0 f i SoundRecorder.obj
 0001:0000d630       ?AllocateBytes@?$CTempBuffer@E$0BAA@VCCRTAllocator@ATL@@@ATL@@QEAAPEAE_K@Z 000000018000e630 f i SoundRecorder.obj
 0001:0000d6e0       ?AllocateBytes@?$CTempBuffer@_W$0BAA@VCCRTAllocator@ATL@@@ATL@@QEAAPEA_W_K@Z 000000018000e6e0 f i SoundRecorder.obj
 0001:0000d790       ?AllocateBytes@?$CTempBuffer@_W$0EAA@VCCRTAllocator@ATL@@@ATL@@QEAAPEA_W_K@Z 000000018000e790 f i SoundRecorder.obj
 0001:0000d840       ?AllocateHeap@?$CTempBuffer@E$0BAA@VCCRTAllocator@ATL@@@ATL@@AEAAX_K@Z 000000018000e840 f i SoundRecorder.obj
 0001:0000d8a0       ?AllocateHeap@?$CTempBuffer@_W$0BAA@VCCRTAllocator@ATL@@@ATL@@AEAAX_K@Z 000000018000e8a0 f i SoundRecorder.obj
 0001:0000d900       ?AllocateHeap@?$CTempBuffer@_W$0EAA@VCCRTAllocator@ATL@@@ATL@@AEAAX_K@Z 000000018000e900 f i SoundRecorder.obj
 0001:0000d960       ?Append@CParseBuffer@CRegParser@ATL@@QEAAHPEB_WH@Z 000000018000e960 f i SoundRecorder.obj
 0001:0000db90       ?AtlCallTermFunc@ATL@@YAXPEAU_ATL_MODULE70@1@@Z 000000018000eb90 f i SoundRecorder.obj
 0001:0000dc40       ?AtlCoTaskMemCAlloc@ATL@@YAPEAXKK@Z 000000018000ec40 f i SoundRecorder.obj
 0001:0000dcc0       ?AtlCoTaskMemRecalloc@ATL@@YAPEAXPEAXKK@Z 000000018000ecc0 f i SoundRecorder.obj
 0001:0000dd40       ?AtlComModuleGetClassObject@ATL@@YAJPEAU_ATL_COM_MODULE70@1@AEBU_GUID@@1PEAPEAX@Z 000000018000ed40 f i SoundRecorder.obj
 0001:0000e070       ?AtlComModuleRegisterServer@ATL@@YAJPEAU_ATL_COM_MODULE70@1@HPEBU_GUID@@@Z 000000018000f070 f i SoundRecorder.obj
 0001:0000e270       ?AtlComModuleUnregisterServer@ATL@@YAJPEAU_ATL_COM_MODULE70@1@HPEBU_GUID@@@Z 000000018000f270 f i SoundRecorder.obj
 0001:0000e3d0       ?AtlComQIPtrAssign2@ATL@@YAXPEAPEAUIUnknown@@PEAU2@AEBU_GUID@@@Z 000000018000f3d0 f i SoundRecorder.obj
 0001:0000e460       ?AtlCreateTargetDC@ATL@@YAPEAUHDC__@@PEAU2@PEAUtagDVTARGETDEVICE@@@Z 000000018000f460 f i SoundRecorder.obj
 0001:0000e690       ?AtlCrtErrorCheck@ATL@@YAHH@Z 000000018000f690 f i SoundRecorder.obj
 0001:0000e710       ?AtlGetPerUserRegistration@ATL@@YAJPEA_N@Z 000000018000f710 f i SoundRecorder.obj
 0001:0000e740       ?AtlHiMetricToPixel@ATL@@YAXPEBUtagSIZE@@PEAU2@@Z 000000018000f740 f i SoundRecorder.obj
 0001:0000e940       ?AtlHresultFromLastError@ATL@@YAJXZ 000000018000f940 f i SoundRecorder.obj
 0001:0000e970       ?AtlHresultFromWin32@ATL@@YAJK@Z 000000018000f970 f i SoundRecorder.obj
 0001:0000e9a0       ?AtlIPersistStreamInit_Load@ATL@@YAJPEAUIStream@@PEBUATL_PROPMAP_ENTRY@1@PEAXPEAUIUnknown@@@Z 000000018000f9a0 f i SoundRecorder.obj
 0001:0000f010       ?AtlIPersistStreamInit_Save@ATL@@YAJPEAUIStream@@HPEBUATL_PROPMAP_ENTRY@1@PEAXPEAUIUnknown@@@Z 0000000180010010 f i SoundRecorder.obj
 0001:0000f5a0       ?AtlInternalOleLoadFromStream@ATL@@YAJPEAUIStream@@AEBU_GUID@@PEAPEAXTClassesAllowedInStream@1@K@Z 00000001800105a0 f i SoundRecorder.obj
 0001:0000f8e0       ?AtlInternalQueryInterface@ATL@@YAJPEAXPEBU_ATL_INTMAP_ENTRY@1@AEBU_GUID@@PEAPEAX@Z 00000001800108e0 f i SoundRecorder.obj
 0001:0000fba0       ?AtlLoadTypeLib@ATL@@YAJPEAUHINSTANCE__@@PEB_WPEAPEA_WPEAPEAUITypeLib@@@Z 0000000180010ba0 f i SoundRecorder.obj
 0001:00010070       ?AtlModuleAddTermFunc@ATL@@YAJPEAU_ATL_MODULE70@1@P6AX_K@Z1@Z 0000000180011070 f i SoundRecorder.obj
 0001:00010240       ?AtlRegisterClassCategoriesHelper@ATL@@YAJAEBU_GUID@@PEBU_ATL_CATMAP_ENTRY@1@H@Z 0000000180011240 f i SoundRecorder.obj
 0001:00010a10       ?AtlRegisterTypeLib@ATL@@YAJPEAUHINSTANCE__@@PEB_W@Z 0000000180011a10 f i SoundRecorder.obj
 0001:00010d70       ?AtlThrowImpl@ATL@@YAXJ@Z  0000000180011d70 f i SoundRecorder.obj
 0001:00010e50       ?AtlUnRegisterTypeLib@ATL@@YAJPEAUHINSTANCE__@@PEB_W@Z 0000000180011e50 f i SoundRecorder.obj
 0001:00011080       ?AtlWinModuleAddCreateWndData@ATL@@YAXPEAU_ATL_WIN_MODULE70@1@PEAU_AtlCreateWndData@1@PEAX@Z 0000000180012080 f i SoundRecorder.obj
 0001:00011270       ?AtlWinModuleExtractCreateWndData@ATL@@YAPEAXPEAU_ATL_WIN_MODULE70@1@@Z 0000000180012270 f i SoundRecorder.obj
 0001:00011470       ?AtlWinModuleRegisterClassExW@ATL@@YAGPEAU_ATL_WIN_MODULE70@1@PEBUtagWNDCLASSEXW@@@Z 0000000180012470 f i SoundRecorder.obj
 0001:00011540       ?AtlWinModuleRegisterWndClassInfoW@ATL@@YAGPEAU_ATL_WIN_MODULE70@1@PEAU_ATL_BASE_MODULE70@1@PEAU_ATL_WNDCLASSINFOW@1@PEAP6A_JPEAUHWND__@@I_K_J@Z@Z 0000000180012540 f i SoundRecorder.obj
 0001:000115b0       ?Attach@?$CAutoVectorPtr@_W@ATL@@QEAAXPEA_W@Z 00000001800125b0 f i SoundRecorder.obj
 0001:00011640       ?Attach@CComBSTR@ATL@@QEAAXPEA_W@Z 0000000180012640 f i SoundRecorder.obj
 0001:000116a0       ?Attach@CRegKey@ATL@@QEAAXPEAUHKEY__@@@Z 00000001800126a0 f i SoundRecorder.obj
 0001:00011740       ?CanForceRemoveKey@CRegParser@ATL@@IEAAHPEB_W@Z 0000000180012740 f i SoundRecorder.obj
 0001:000117b0       ?ChToByte@CRegParser@ATL@@KAE_W@Z 00000001800127b0 f i SoundRecorder.obj
 0001:00011910       ?ChangeType@CComVariant@ATL@@QEAAJGPEBUtagVARIANT@@@Z 0000000180012910 f i SoundRecorder.obj
 0001:00011980       ?Cleanup@CComTypeInfoHolder@ATL@@SAX_K@Z 0000000180012980 f i SoundRecorder.obj
 0001:00011a70       ?Clear@CComVariant@ATL@@QEAAJXZ 0000000180012a70 f i SoundRecorder.obj
 0001:00011aa0       ?ClearReplacements@CExpansionVector@ATL@@QEAAJXZ 0000000180012aa0 f i SoundRecorder.obj
 0001:00011b40       ?ClearReplacements@CRegObject@ATL@@UEAAJXZ 0000000180012b40 f i SoundRecorder.obj
 0001:00011ba0       ?Clone@?$CComEnumImpl@UIEnumConnectionPoints@@$1?_GUID_b196b285_bab4_101a_b69c_00aa00341d07@@3U__s_GUID@@BPEAUIConnectionPoint@@V?$_CopyInterface@UIConnectionPoint@@@ATL@@@ATL@@UEAAJPEAPEAUIEnumConnectionPoints@@@Z 0000000180012ba0 f i SoundRecorder.obj
 0001:00011d90       ?Clone@?$CComEnumImpl@UIEnumConnections@@$1?_GUID_b196b287_bab4_101a_b69c_00aa00341d07@@3U__s_GUID@@BUtagCONNECTDATA@@V?$_Copy@UtagCONNECTDATA@@@ATL@@@ATL@@UEAAJPEAPEAUIEnumConnections@@@Z 0000000180012d90 f i SoundRecorder.obj
 0001:00011f80       ?Close@?$IOleObjectImpl@VCOPOSSoundRecorder@@@ATL@@UEAAJK@Z 0000000180012f80 f i SoundRecorder.obj
 0001:00012030       ?Close@CRegKey@ATL@@QEAAJXZ 0000000180013030 f i SoundRecorder.obj
 0001:000120a0       ?ContextSensitiveHelp@?$IOleInPlaceActiveObjectImpl@VCOPOSSoundRecorder@@@ATL@@UEAAJH@Z 00000001800130a0 f i SoundRecorder.obj
 0001:00012120       ?ContextSensitiveHelp@?$IOleInPlaceObjectWindowlessImpl@VCOPOSSoundRecorder@@@ATL@@UEAAJH@Z 0000000180013120 f i SoundRecorder.obj
 0001:000121a0       ?ControlQueryInterface@?$CComControl@VCOPOSSoundRecorder@@V?$CWindowImpl@VCOPOSSoundRecorder@@VCWindow@ATL@@V?$CWinTraits@$0FGAAAAAA@$0A@@3@@ATL@@@ATL@@UEAAJAEBU_GUID@@PEAPEAX@Z 00000001800131a0 f i SoundRecorder.obj
 0001:00012230       ?CreateControlWindow@?$CComControl@VCOPOSSoundRecorder@@V?$CWindowImpl@VCOPOSSoundRecorder@@VCWindow@ATL@@V?$CWinTraits@$0FGAAAAAA@$0A@@3@@ATL@@@ATL@@UEAAPEAUHWND__@@PEAU3@AEAUtagRECT@@@Z 0000000180013230 f i SoundRecorder.obj
 0001:00012320       ?CreateInstance@?$CComCreator@V?$CComAggObject@VCOPOSSoundRecorder@@@ATL@@@ATL@@SAJPEAXAEBU_GUID@@PEAPEAX@Z 0000000180013320 f i SoundRecorder.obj
 0001:00012500       ?CreateInstance@?$CComCreator@V?$CComObject@VCOPOSSoundRecorder@@@ATL@@@ATL@@SAJPEAXAEBU_GUID@@PEAPEAX@Z 0000000180013500 f i SoundRecorder.obj
 0001:00012700       ?CreateInstance@?$CComObject@V?$CComEnum@UIEnumConnectionPoints@@$1?_GUID_b196b285_bab4_101a_b69c_00aa00341d07@@3U__s_GUID@@BPEAUIConnectionPoint@@V?$_CopyInterface@UIConnectionPoint@@@ATL@@VCComSingleThreadModel@6@@ATL@@@ATL@@SAJPEAPEAV12@@Z 0000000180013700 f i SoundRecorder.obj
 0001:000128c0       ?CreateInstance@?$CComObject@V?$CComEnum@UIEnumConnections@@$1?_GUID_b196b287_bab4_101a_b69c_00aa00341d07@@3U__s_GUID@@BUtagCONNECTDATA@@V?$_Copy@UtagCONNECTDATA@@@ATL@@VCComSingleThreadModel@6@@ATL@@@ATL@@SAJPEAPEAV12@@Z 00000001800138c0 f i SoundRecorder.obj
 0001:00012a80       ?CreateInstance@CComClassFactory@ATL@@UEAAJPEAUIUnknown@@AEBU_GUID@@PEAPEAX@Z 0000000180013a80 f i SoundRecorder.obj
 0001:00012ba0       ?DAdvise@?$IDataObjectImpl@VCOPOSSoundRecorder@@@ATL@@UEAAJPEAUtagFORMATETC@@KPEAUIAdviseSink@@PEAK@Z 0000000180013ba0 f i SoundRecorder.obj
 0001:00012d00       ?DEVMODEOLE2T_EX@@YAPEAU_devicemodeW@@PEAU1@@Z 0000000180013d00 f i SoundRecorder.obj
 0001:00012d10       ?DUnadvise@?$IDataObjectImpl@VCOPOSSoundRecorder@@@ATL@@UEAAJK@Z 0000000180013d10 f i SoundRecorder.obj
 0001:00012e10       ?Decrement@CComMultiThreadModel@ATL@@SAKPEAJ@Z 0000000180013e10 f i SoundRecorder.obj
 0001:00012e30       ?Decrement@CComSingleThreadModel@ATL@@SAKPEAJ@Z 0000000180013e30 f i SoundRecorder.obj
 0001:00012e50       ?DefWindowProcW@?$CWindowImplBaseT@VCWindow@ATL@@V?$CWinTraits@$0FGAAAAAA@$0A@@2@@ATL@@QEAA_JI_K_J@Z 0000000180013e50 f i SoundRecorder.obj
 0001:00012eb0       ?DefaultReflectionHandler@?$CWindowImplRoot@VCWindow@ATL@@@ATL@@SAHPEAUHWND__@@I_K_JAEA_J@Z 0000000180013eb0 f i SoundRecorder.obj
 0001:00012fa0       ?DeleteSubKey@CRegKey@ATL@@QEAAJPEB_W@Z 0000000180013fa0 f i SoundRecorder.obj
 0001:000130d0       ?DeleteValue@CRegKey@ATL@@QEAAJPEB_W@Z 00000001800140d0 f i SoundRecorder.obj
 0001:00013160       ?Detach@?$CAutoVectorPtr@_W@ATL@@QEAAPEA_WXZ 0000000180014160 f i SoundRecorder.obj
 0001:000131a0       ?Detach@?$CComPtrBase@UIPersistStream@@@ATL@@QEAAPEAUIPersistStream@@XZ 00000001800141a0 f i SoundRecorder.obj
 0001:000131e0       ?Detach@?$CComPtrBase@UITypeInfo@@@ATL@@QEAAPEAUITypeInfo@@XZ 00000001800141e0 f i SoundRecorder.obj
 0001:00013220       ?Detach@?$CComPtrBase@UIUnknown@@@ATL@@QEAAPEAUIUnknown@@XZ 0000000180014220 f i SoundRecorder.obj
 0001:00013260       ?Detach@CComBSTR@ATL@@QEAAPEA_WXZ 0000000180014260 f i SoundRecorder.obj
 0001:000132a0       ?Detach@CParseBuffer@CRegParser@ATL@@QEAAPEA_WXZ 00000001800142a0 f i SoundRecorder.obj
 0001:00013300       ?Detach@CRegKey@ATL@@QEAAPEAUHKEY__@@XZ 0000000180014300 f i SoundRecorder.obj
 0001:00013360       ?DoEvent@COPOSSoundRecorder@@IEAAXI_K_J@Z 0000000180014360 f i SoundRecorder.obj
 0001:000134a0       ?DoVerb@?$IOleObjectImpl@VCOPOSSoundRecorder@@@ATL@@UEAAJJPEAUtagMSG@@PEAUIOleClientSite@@JPEAUHWND__@@PEBUtagRECT@@@Z 00000001800144a0 f i SoundRecorder.obj
 0001:000137b0       ?DoVerbDiscardUndo@?$IOleObjectImpl@VCOPOSSoundRecorder@@@ATL@@QEAAJPEBUtagRECT@@PEAUHWND__@@@Z 00000001800147b0 f i SoundRecorder.obj
 0001:00013850       ?DoVerbHide@?$IOleObjectImpl@VCOPOSSoundRecorder@@@ATL@@QEAAJPEBUtagRECT@@PEAUHWND__@@@Z 0000000180014850 f i SoundRecorder.obj
 0001:00013930       ?DoVerbInPlaceActivate@?$IOleObjectImpl@VCOPOSSoundRecorder@@@ATL@@QEAAJPEBUtagRECT@@PEAUHWND__@@@Z 0000000180014930 f i SoundRecorder.obj
 0001:00013a10       ?DoVerbOpen@?$IOleObjectImpl@VCOPOSSoundRecorder@@@ATL@@QEAAJPEBUtagRECT@@PEAUHWND__@@@Z 0000000180014a10 f i SoundRecorder.obj
 0001:00013ab0       ?DoVerbPrimary@?$IOleObjectImpl@VCOPOSSoundRecorder@@@ATL@@QEAAJPEBUtagRECT@@PEAUHWND__@@@Z 0000000180014ab0 f i SoundRecorder.obj
 0001:00013bf0       ?DoVerbProperties@CComControlBase@ATL@@QEAAJPEBUtagRECT@@PEAUHWND__@@@Z 0000000180014bf0 f i SoundRecorder.obj
 0001:00013fa0       ?DoVerbShow@?$IOleObjectImpl@VCOPOSSoundRecorder@@@ATL@@QEAAJPEBUtagRECT@@PEAUHWND__@@@Z 0000000180014fa0 f i SoundRecorder.obj
 0001:00014060       ?DoVerbUIActivate@?$IOleObjectImpl@VCOPOSSoundRecorder@@@ATL@@QEAAJPEBUtagRECT@@PEAUHWND__@@@Z 0000000180015060 f i SoundRecorder.obj
 0001:00014140       ?DoesVerbActivate@CComControlBase@ATL@@QEAAHJ@Z 0000000180015140 f i SoundRecorder.obj
 0001:000141a0       ?DoesVerbUIActivate@CComControlBase@ATL@@QEAAHJ@Z 00000001800151a0 f i SoundRecorder.obj
 0001:00014220       ?Draw@?$IViewObjectExImpl@VCOPOSSoundRecorder@@@ATL@@UEAAJKJPEAXPEAUtagDVTARGETDEVICE@@PEAUHDC__@@2PEBU_RECTL@@3P6AH_K@Z4@Z 0000000180015220 f i SoundRecorder.obj
 0001:00014340       ?Empty@CComBSTR@ATL@@QEAAXXZ 0000000180015340 f i SoundRecorder.obj
 0001:00014380       ?EnableModeless@?$IOleInPlaceActiveObjectImpl@VCOPOSSoundRecorder@@@ATL@@UEAAJH@Z 0000000180015380 f i SoundRecorder.obj
 0001:000143f0       ?EndOfVar@CRegParser@ATL@@IEAAHXZ 00000001800153f0 f i SoundRecorder.obj
 0001:00014450       ?EnsureTI@CComTypeInfoHolder@ATL@@QEAAJK@Z 0000000180015450 f i SoundRecorder.obj
 0001:000144b0       ?EnumAdvise@?$IOleObjectImpl@VCOPOSSoundRecorder@@@ATL@@UEAAJPEAPEAUIEnumSTATDATA@@@Z 00000001800154b0 f i SoundRecorder.obj
 0001:00014610       ?EnumConnectionPoints@?$IConnectionPointContainerImpl@VCOPOSSoundRecorder@@@ATL@@UEAAJPEAPEAUIEnumConnectionPoints@@@Z 0000000180015610 f i SoundRecorder.obj
 0001:00014b00       ?EnumConnections@?$IConnectionPointImpl@VCOPOSSoundRecorder@@$1?DIID__IOPOSSoundRecorderEvents@@3U_GUID@@BVCComDynamicUnkArray@ATL@@@ATL@@UEAAJPEAPEAUIEnumConnections@@@Z 0000000180015b00 f i SoundRecorder.obj
 0001:00014e50       ?EnumConnections@?$IConnectionPointImpl@VCOPOSSoundRecorder@@$1?IID_IPropertyNotifySink@@3U_GUID@@BVCComDynamicUnkArray@ATL@@@ATL@@UEAAJPEAPEAUIEnumConnections@@@Z 0000000180015e50 f i SoundRecorder.obj
 0001:000151a0       ?EnumDAdvise@?$IDataObjectImpl@VCOPOSSoundRecorder@@@ATL@@UEAAJPEAPEAUIEnumSTATDATA@@@Z 00000001800161a0 f i SoundRecorder.obj
 0001:000152f0       ?EnumFormatEtc@?$IDataObjectImpl@VCOPOSSoundRecorder@@@ATL@@UEAAJKPEAPEAUIEnumFORMATETC@@@Z 00000001800162f0 f i SoundRecorder.obj
 0001:00015380       ?EnumVerbs@?$IOleObjectImpl@VCOPOSSoundRecorder@@@ATL@@UEAAJPEAPEAUIEnumOLEVERB@@@Z 0000000180016380 f i SoundRecorder.obj
 0001:00015450       ?EscapeSingleQuote@CAtlModule@ATL@@SAXPEA_W_KPEB_W@Z 0000000180016450 f i SoundRecorder.obj
 0001:00015550       ?ExtractCreateWndData@CAtlWinModule@ATL@@QEAAPEAXXZ 0000000180016550 f i SoundRecorder.obj
 0001:00015580       ?FAccessAllowed@?$IObjectSafetyImpl@VCOPOSSoundRecorder@@$02@ATL@@MEAAHXZ 0000000180016580 f i SoundRecorder.obj
 0001:00015590       ?FinalConstruct@?$CComAggObject@VCOPOSSoundRecorder@@@ATL@@QEAAJXZ 0000000180016590 f i SoundRecorder.obj
 0001:000155e0       ?FinalConstruct@CComObjectRootBase@ATL@@QEAAJXZ 00000001800165e0 f i SoundRecorder.obj
 0001:000155f0       ?FinalConstruct@CRegObject@ATL@@QEAAJXZ 00000001800165f0 f i SoundRecorder.obj
 0001:00015630       ?FinalRelease@?$CComAggObject@VCOPOSSoundRecorder@@@ATL@@QEAAXXZ 0000000180016630 f i SoundRecorder.obj
 0001:00015680       ?FinalRelease@CComObjectRootBase@ATL@@QEAAXXZ 0000000180016680 f i SoundRecorder.obj
 0001:00015690       ?FindConnectionPoint@?$IConnectionPointContainerImpl@VCOPOSSoundRecorder@@@ATL@@UEAAJAEBU_GUID@@PEAPEAUIConnectionPoint@@@Z 0000000180016690 f i SoundRecorder.obj
 0001:00015800       ?FindKey@?$CSimpleMap@PEA_WPEA_WVCExpansionVectorEqualHelper@ATL@@@ATL@@QEBAHAEBQEA_W@Z 0000000180016800 f i SoundRecorder.obj
 0001:00015880       ?FireTheEvent@?$CProxy_IOPOSEvents@VCOPOSSoundRecorder@@@@IEAAXPEAUIUnknown@@PEAVOposVariant@@IAEAJPEB_WJ@Z 0000000180016880 f i SoundRecorder.obj
 0001:00015a60       ?FireViewChange@CComControlBase@ATL@@QEAAJXZ 0000000180016a60 f i SoundRecorder.obj
 0001:00015b40       ?Fire_DataEvent@?$CProxy_IOPOSEvents@VCOPOSSoundRecorder@@@@QEAAXJ@Z 0000000180016b40 f i SoundRecorder.obj
 0001:00015d30       ?Fire_DirectIOEvent@?$CProxy_IOPOSEvents@VCOPOSSoundRecorder@@@@QEAAXJPEAJPEAPEA_W@Z 0000000180016d30 f i SoundRecorder.obj
 0001:00015fc0       ?Fire_ErrorEvent@?$CProxy_IOPOSEvents@VCOPOSSoundRecorder@@@@QEAAXJJJPEAJ@Z 0000000180016fc0 f i SoundRecorder.obj
 0001:00016270       ?Fire_StatusUpdateEvent@?$CProxy_IOPOSEvents@VCOPOSSoundRecorder@@@@QEAAXJ@Z 0000000180017270 f i SoundRecorder.obj
 0001:00016460       ?FormatWindowClassName@AtlModuleRegisterWndClassInfoParamW@ATL@@SAXPEA_WKPEAX@Z 0000000180017460 f i SoundRecorder.obj
 0001:000164b0       ?Free@?$CAutoVectorPtr@_W@ATL@@QEAAXXZ 00000001800174b0 f i SoundRecorder.obj
 0001:00016500       ?FreeHeap@?$CTempBuffer@E$0BAA@VCCRTAllocator@ATL@@@ATL@@AEAAXXZ 0000000180017500 f i SoundRecorder.obj
 0001:00016540       ?FreeHeap@?$CTempBuffer@_W$0BAA@VCCRTAllocator@ATL@@@ATL@@AEAAXXZ 0000000180017540 f i SoundRecorder.obj
 0001:00016580       ?FreeHeap@?$CTempBuffer@_W$0EAA@VCCRTAllocator@ATL@@@ATL@@AEAAXXZ 0000000180017580 f i SoundRecorder.obj
 0001:000165c0       ?Freeze@?$IViewObjectExImpl@VCOPOSSoundRecorder@@@ATL@@UEAAJKJPEAXPEAK@Z 00000001800175c0 f i SoundRecorder.obj
 0001:00016650       ?GenerateError@CRegParser@ATL@@IEAAJI@Z 0000000180017650 f i SoundRecorder.obj
 0001:00016670       ?GetAdvise@?$IViewObjectExImpl@VCOPOSSoundRecorder@@@ATL@@UEAAJPEAK0PEAPEAUIAdviseSink@@@Z 0000000180017670 f i SoundRecorder.obj
 0001:000167c0       ?GetAmbientLocaleID@CComControlBase@ATL@@QEAAJAEAK@Z 00000001800177c0 f i SoundRecorder.obj
 0001:000168a0       ?GetAmbientProperty@CComControlBase@ATL@@QEAAJJAEAUtagVARIANT@@@Z 00000001800178a0 f i SoundRecorder.obj
 0001:00016910       ?GetAmbientUserMode@CComControlBase@ATL@@QEAAJAEAH@Z 0000000180017910 f i SoundRecorder.obj
 0001:00016a30       ?GetAppId@?$CAtlModuleT@VCComModule@ATL@@@ATL@@SAPEB_WXZ 0000000180017a30 f i SoundRecorder.obj
 0001:00016a40       ?GetAt@CComDynamicUnkArray@ATL@@QEAAPEAUIUnknown@@H@Z 0000000180017a40 f i SoundRecorder.obj
 0001:00016af0       ?GetCanonicalFormatEtc@?$IDataObjectImpl@VCOPOSSoundRecorder@@@ATL@@UEAAJPEAUtagFORMATETC@@0@Z 0000000180017af0 f i SoundRecorder.obj
 0001:00016b80       ?GetClassID@?$IPersistStorageImpl@VCOPOSSoundRecorder@@@ATL@@UEAAJPEAU_GUID@@@Z 0000000180017b80 f i SoundRecorder.obj
 0001:00016c20       ?GetClassID@?$IPersistStreamInitImpl@VCOPOSSoundRecorder@@@ATL@@UEAAJPEAU_GUID@@@Z 0000000180017c20 f i SoundRecorder.obj
 0001:00016cc0       ?GetClassInfoExW@AtlModuleRegisterWndClassInfoParamW@ATL@@SAHPEAUHINSTANCE__@@PEB_WPEAUtagWNDCLASSEXW@@@Z 0000000180017cc0 f i SoundRecorder.obj
 0001:00016d10       ?GetClassInfoW@?$IProvideClassInfo2Impl@$1?CLSID_OPOSSoundRecorder@@3U_GUID@@B$1?DIID__IOPOSSoundRecorderEvents@@3U2@B$1?LIBID_OposSoundRecorder_CCO@@3U2@B$00$0A@VCComTypeInfoHolder@ATL@@@ATL@@UEAAJPEAPEAUITypeInfo@@@Z 0000000180017d10 f i SoundRecorder.obj
 0001:00016d50       ?GetClassObject@CComModule@ATL@@QEAAJAEBU_GUID@@0PEAPEAX@Z 0000000180017d50 f i SoundRecorder.obj
 0001:00016fc0       ?GetClientSite@?$IOleObjectImpl@VCOPOSSoundRecorder@@@ATL@@UEAAJPEAPEAUIOleClientSite@@@Z 0000000180017fc0 f i SoundRecorder.obj
 0001:00017070       ?GetClipboardData@?$IOleObjectImpl@VCOPOSSoundRecorder@@@ATL@@UEAAJKPEAPEAUIDataObject@@@Z 0000000180018070 f i SoundRecorder.obj
 0001:00017100       ?GetCodeAddress@CDynamicStdCallThunk2@ATL@@QEAAPEAXXZ 0000000180018100 f i SoundRecorder.obj
 0001:00017140       ?GetColorSet@?$IViewObjectExImpl@VCOPOSSoundRecorder@@@ATL@@UEAAJKJPEAXPEAUtagDVTARGETDEVICE@@PEAUHDC__@@PEAPEAUtagLOGPALETTE@@@Z 0000000180018140 f i SoundRecorder.obj
 0001:000171d0       ?GetConnMap@COPOSSoundRecorder@@SAPEBU_ATL_CONNMAP_ENTRY@ATL@@PEAH@Z 00000001800181d0 f i SoundRecorder.obj
 0001:00017330       ?GetConnectionInterface@?$IConnectionPointImpl@VCOPOSSoundRecorder@@$1?DIID__IOPOSSoundRecorderEvents@@3U_GUID@@BVCComDynamicUnkArray@ATL@@@ATL@@UEAAJPEAU_GUID@@@Z 0000000180018330 f i SoundRecorder.obj
 0001:00017370       ?GetConnectionInterface@?$IConnectionPointImpl@VCOPOSSoundRecorder@@$1?IID_IPropertyNotifySink@@3U_GUID@@BVCComDynamicUnkArray@ATL@@@ATL@@UEAAJPEAU_GUID@@@Z 0000000180018370 f i SoundRecorder.obj
 0001:000173b0       ?GetConnectionPointContainer@?$IConnectionPointImpl@VCOPOSSoundRecorder@@$1?DIID__IOPOSSoundRecorderEvents@@3U_GUID@@BVCComDynamicUnkArray@ATL@@@ATL@@UEAAJPEAPEAUIConnectionPointContainer@@@Z 00000001800183b0 f i SoundRecorder.obj
 0001:00017430       ?GetConnectionPointContainer@?$IConnectionPointImpl@VCOPOSSoundRecorder@@$1?IID_IPropertyNotifySink@@3U_GUID@@BVCComDynamicUnkArray@ATL@@@ATL@@UEAAJPEAPEAUIConnectionPointContainer@@@Z 0000000180018430 f i SoundRecorder.obj
 0001:000174b0       ?GetContentExtent@?$IQuickActivateImpl@VCOPOSSoundRecorder@@@ATL@@UEAAJPEAUtagSIZE@@@Z 00000001800184b0 f i SoundRecorder.obj
 0001:00017570       ?GetControlInfo@?$IOleControlImpl@VCOPOSSoundRecorder@@@ATL@@UEAAJPEAUtagCONTROLINFO@@@Z 0000000180018570 f i SoundRecorder.obj
 0001:00017600       ?GetCookie@CComDynamicUnkArray@ATL@@QEAAKPEAPEAUIUnknown@@@Z 0000000180018600 f i SoundRecorder.obj
 0001:000176f0       ?GetData@?$IDataObjectImpl@VCOPOSSoundRecorder@@@ATL@@UEAAJPEAUtagFORMATETC@@PEAUtagSTGMEDIUM@@@Z 00000001800186f0 f i SoundRecorder.obj
 0001:000177b0       ?GetData@CAtlSafeAllocBufferNode@?$CAtlSafeAllocBufferManager@VCCRTAllocator@ATL@@@_ATL_SAFE_ALLOCA_IMPL@ATL@@QEAAPEAXXZ 00000001800187b0 f i SoundRecorder.obj
 0001:000177d0       ?GetDataHere@?$IDataObjectImpl@VCOPOSSoundRecorder@@@ATL@@UEAAJPEAUtagFORMATETC@@PEAUtagSTGMEDIUM@@@Z 00000001800187d0 f i SoundRecorder.obj
 0001:00017860       ?GetDropTarget@?$IOleInPlaceObjectWindowlessImpl@VCOPOSSoundRecorder@@@ATL@@UEAAJPEAPEAUIDropTarget@@@Z 0000000180018860 f i SoundRecorder.obj
 0001:000178f0       ?GetExtent@?$IOleObjectImpl@VCOPOSSoundRecorder@@@ATL@@UEAAJKPEAUtagSIZE@@@Z 00000001800188f0 f i SoundRecorder.obj
 0001:000179c0       ?GetExtent@?$IViewObjectExImpl@VCOPOSSoundRecorder@@@ATL@@UEAAJKJPEAUtagDVTARGETDEVICE@@PEAUtagSIZE@@@Z 00000001800189c0 f i SoundRecorder.obj
 0001:00017ad0       ?GetGITPtr@CAtlModule@ATL@@UEAAJPEAPEAUIGlobalInterfaceTable@@@Z 0000000180018ad0 f i SoundRecorder.obj
 0001:00017c10       ?GetGUID@?$IProvideClassInfo2Impl@$1?CLSID_OPOSSoundRecorder@@3U_GUID@@B$1?DIID__IOPOSSoundRecorderEvents@@3U2@B$1?LIBID_OposSoundRecorder_CCO@@3U2@B$00$0A@VCComTypeInfoHolder@ATL@@@ATL@@UEAAJKPEAU_GUID@@@Z 0000000180018c10 f i SoundRecorder.obj
 0001:00017c90       ?GetIDsOfNames@?$IDispatchImpl@UIOPOSSoundRecorder@@$1?IID_IOPOSSoundRecorder@@3U_GUID@@B$1?LIBID_OposSoundRecorder_CCO@@3U3@B$00$0A@VCComTypeInfoHolder@ATL@@@ATL@@UEAAJAEBU_GUID@@PEAPEA_WIKPEAJ@Z 0000000180018c90 f i SoundRecorder.obj
 0001:00017cf0       ?GetIDsOfNames@CComTypeInfoHolder@ATL@@QEAAJAEBU_GUID@@PEAPEA_WIKPEAJ@Z 0000000180018cf0 f i SoundRecorder.obj
 0001:00017f10       ?GetInterfaceSafetyOptions@?$IObjectSafetyImpl@VCOPOSSoundRecorder@@$02@ATL@@UEAAJAEBU_GUID@@PEAK1@Z 0000000180018f10 f i SoundRecorder.obj
 0001:000180b0       ?GetKeyAt@?$CSimpleMap@PEA_WPEA_WVCExpansionVectorEqualHelper@ATL@@@ATL@@QEBAAEAPEA_WH@Z 00000001800190b0 f i SoundRecorder.obj
 0001:00018160       ?GetLockCount@CAtlModule@ATL@@UEAAJXZ 0000000180019160 f i SoundRecorder.obj
 0001:00018170       ?GetMiscStatus@?$IOleObjectImpl@VCOPOSSoundRecorder@@@ATL@@UEAAJKPEAK@Z 0000000180019170 f i SoundRecorder.obj
 0001:00018200       ?GetMoniker@?$IOleObjectImpl@VCOPOSSoundRecorder@@@ATL@@UEAAJKKPEAPEAUIMoniker@@@Z 0000000180019200 f i SoundRecorder.obj
 0001:00018290       ?GetNaturalExtent@?$IViewObjectExImpl@VCOPOSSoundRecorder@@@ATL@@UEAAJKJPEAUtagDVTARGETDEVICE@@PEAUHDC__@@PEAUtagExtentInfo@@PEAUtagSIZE@@@Z 0000000180019290 f i SoundRecorder.obj
 0001:00018420       ?GetObjectCLSID@?$CComCoClass@VCOPOSSoundRecorder@@$1?CLSID_OPOSSoundRecorder@@3U_GUID@@B@ATL@@SAAEBU_GUID@@XZ 0000000180019420 f i SoundRecorder.obj
 0001:00018430       ?GetPages@?$ISpecifyPropertyPagesImpl@VCOPOSSoundRecorder@@@ATL@@UEAAJPEAUtagCAUUID@@@Z 0000000180019430 f i SoundRecorder.obj
 0001:000184c0       ?GetPagesHelper@?$ISpecifyPropertyPagesImpl@VCOPOSSoundRecorder@@@ATL@@IEAAJPEAUtagCAUUID@@PEBUATL_PROPMAP_ENTRY@2@@Z 00000001800194c0 f i SoundRecorder.obj
 0001:00018730       ?GetProperty@?$CComPtr@UIDispatch@@@ATL@@QEAAJJPEAUtagVARIANT@@@Z 0000000180019730 f i SoundRecorder.obj
 0001:00018780       ?GetProperty@?$CComPtr@UIDispatch@@@ATL@@SAJPEAUIDispatch@@JPEAUtagVARIANT@@@Z 0000000180019780 f i SoundRecorder.obj
 0001:00018950       ?GetPropertyMap@COPOSSoundRecorder@@SAPEBUATL_PROPMAP_ENTRY@ATL@@XZ 0000000180019950 f i SoundRecorder.obj
 0001:00018960       ?GetRect@?$IViewObjectExImpl@VCOPOSSoundRecorder@@@ATL@@UEAAJKPEAU_RECTL@@@Z 0000000180019960 f i SoundRecorder.obj
 0001:000189f0       ?GetSize@?$CSimpleMap@PEA_WPEA_WVCExpansionVectorEqualHelper@ATL@@@ATL@@QEBAHXZ 00000001800199f0 f i SoundRecorder.obj
 0001:00018a00       ?GetSize@CComDynamicUnkArray@ATL@@QEBAHXZ 0000000180019a00 f i SoundRecorder.obj
 0001:00018a10       ?GetSizeMax@?$IPersistStreamInitImpl@VCOPOSSoundRecorder@@@ATL@@UEAAJPEAT_ULARGE_INTEGER@@@Z 0000000180019a10 f i SoundRecorder.obj
 0001:000191a0       ?GetSizeMax@CComVariant@ATL@@QEBAJPEAT_ULARGE_INTEGER@@@Z 000000018001a1a0 f i SoundRecorder.obj
 0001:000195d0       ?GetStreamSize@CComBSTR@ATL@@SAKPEA_W@Z 000000018001a5d0 f i SoundRecorder.obj
 0001:00019630       ?GetTI@CComTypeInfoHolder@ATL@@QEAAJK@Z 000000018001a630 f i SoundRecorder.obj
 0001:00019f00       ?GetTI@CComTypeInfoHolder@ATL@@QEAAJKPEAPEAUITypeInfo@@@Z 000000018001af00 f i SoundRecorder.obj
 0001:00019ff0       ?GetTypeInfo@?$IDispatchImpl@UIOPOSSoundRecorder@@$1?IID_IOPOSSoundRecorder@@3U_GUID@@B$1?LIBID_OposSoundRecorder_CCO@@3U3@B$00$0A@VCComTypeInfoHolder@ATL@@@ATL@@UEAAJIKPEAPEAUITypeInfo@@@Z 000000018001aff0 f i SoundRecorder.obj
 0001:0001a040       ?GetTypeInfo@CComTypeInfoHolder@ATL@@QEAAJIKPEAPEAUITypeInfo@@@Z 000000018001b040 f i SoundRecorder.obj
 0001:0001a0a0       ?GetTypeInfoCount@?$IDispatchImpl@UIOPOSSoundRecorder@@$1?IID_IOPOSSoundRecorder@@3U_GUID@@B$1?LIBID_OposSoundRecorder_CCO@@3U3@B$00$0A@VCComTypeInfoHolder@ATL@@@ATL@@UEAAJPEAI@Z 000000018001b0a0 f i SoundRecorder.obj
 0001:0001a0d0       ?GetUnknown@CComDynamicUnkArray@ATL@@QEAAPEAUIUnknown@@K@Z 000000018001b0d0 f i SoundRecorder.obj
 0001:0001a180       ?GetUnknown@COPOSSoundRecorder@@QEAAPEAUIUnknown@@XZ 000000018001b180 f i SoundRecorder.obj
 0001:0001a1b0       ?GetUserClassID@?$IOleObjectImpl@VCOPOSSoundRecorder@@@ATL@@UEAAJPEAU_GUID@@@Z 000000018001b1b0 f i SoundRecorder.obj
 0001:0001a290       ?GetUserType@?$IOleObjectImpl@VCOPOSSoundRecorder@@@ATL@@UEAAJKPEAPEA_W@Z 000000018001b290 f i SoundRecorder.obj
 0001:0001a320       ?GetValueAt@?$CSimpleMap@PEA_WPEA_WVCExpansionVectorEqualHelper@ATL@@@ATL@@QEBAAEAPEA_WH@Z 000000018001b320 f i SoundRecorder.obj
 0001:0001a3d0       ?GetViewStatus@?$IViewObjectExImpl@VCOPOSSoundRecorder@@@ATL@@UEAAJPEAK@Z 000000018001b3d0 f i SoundRecorder.obj
 0001:0001a4d0       ?GetWNDPROC@CWndProcThunk@ATL@@QEAAP6A_JPEAUHWND__@@I_K_J@ZXZ 000000018001b4d0 f i SoundRecorder.obj
 0001:0001a510       ?GetWindow@?$IOleInPlaceActiveObjectImpl@VCOPOSSoundRecorder@@@ATL@@UEAAJPEAPEAUHWND__@@@Z 000000018001b510 f i SoundRecorder.obj
 0001:0001a610       ?GetWindow@?$IOleInPlaceObjectWindowlessImpl@VCOPOSSoundRecorder@@@ATL@@UEAAJPEAPEAUHWND__@@@Z 000000018001b610 f i SoundRecorder.obj
 0001:0001a710       ?GetWindowProc@?$CWindowImplBaseT@VCWindow@ATL@@V?$CWinTraits@$0FGAAAAAA@$0A@@2@@ATL@@UEAAP6A_JPEAUHWND__@@I_K_J@ZXZ 000000018001b710 f i SoundRecorder.obj
 0001:0001a720       ?GetWndCaption@?$CWindowImpl@VCOPOSSoundRecorder@@VCWindow@ATL@@V?$CWinTraits@$0FGAAAAAA@$0A@@3@@ATL@@SAPEB_WXZ 000000018001b720 f i SoundRecorder.obj
 0001:0001a730       ?GetWndClassInfo@?$CWindowImpl@VCOPOSSoundRecorder@@VCWindow@ATL@@V?$CWinTraits@$0FGAAAAAA@$0A@@3@@ATL@@SAAEAU_ATL_WNDCLASSINFOW@2@XZ 000000018001b730 f i SoundRecorder.obj
 0001:0001a740       ?GetWndClassName@CWindow@ATL@@SAPEB_WXZ 000000018001b740 f i SoundRecorder.obj
 0001:0001a750       ?GetWndExStyle@?$CWinTraits@$0FGAAAAAA@$0A@@ATL@@SAKK@Z 000000018001b750 f i SoundRecorder.obj
 0001:0001a790       ?GetWndExStyle@?$CWindowImplBaseT@VCWindow@ATL@@V?$CWinTraits@$0FGAAAAAA@$0A@@2@@ATL@@SAKK@Z 000000018001b790 f i SoundRecorder.obj
 0001:0001a7c0       ?GetWndStyle@?$CWinTraits@$0FGAAAAAA@$0A@@ATL@@SAKK@Z 000000018001b7c0 f i SoundRecorder.obj
 0001:0001a800       ?GetWndStyle@?$CWindowImplBaseT@VCWindow@ATL@@V?$CWinTraits@$0FGAAAAAA@$0A@@2@@ATL@@SAKK@Z 000000018001b800 f i SoundRecorder.obj
 0001:0001a830       ?GetZoomInfo@CComControlBase@ATL@@QEAAXAEAUATL_DRAWINFO@@@Z 000000018001b830 f i SoundRecorder.obj
 0001:0001a9e0       ?HKeyFromString@CRegParser@ATL@@KAPEAUHKEY__@@PEA_W@Z 000000018001b9e0 f i SoundRecorder.obj
 0001:0001aa70       ?HandsOffStorage@?$IPersistStorageImpl@VCOPOSSoundRecorder@@@ATL@@UEAAJXZ 000000018001ba70 f i SoundRecorder.obj
 0001:0001aae0       ?HasSubKeys@CRegParser@ATL@@IEAAHPEAUHKEY__@@@Z 000000018001bae0 f i SoundRecorder.obj
 0001:0001ac50       ?IDataObject_GetData@CComControlBase@ATL@@QEAAJPEAUtagFORMATETC@@PEAUtagSTGMEDIUM@@@Z 000000018001bc50 f i SoundRecorder.obj
 0001:0001b100       ?IOleInPlaceObject_InPlaceDeactivate@CComControlBase@ATL@@QEAAJXZ 000000018001c100 f i SoundRecorder.obj
 0001:0001b370       ?IOleInPlaceObject_SetObjectRects@CComControlBase@ATL@@QEAAJPEBUtagRECT@@0@Z 000000018001c370 f i SoundRecorder.obj
 0001:0001b550       ?IOleInPlaceObject_UIDeactivate@CComControlBase@ATL@@QEAAJXZ 000000018001c550 f i SoundRecorder.obj
 0001:0001b7c0       ?IOleObject_Advise@CComControlBase@ATL@@QEAAJPEAUIAdviseSink@@PEAK@Z 000000018001c7c0 f i SoundRecorder.obj
 0001:0001b870       ?IOleObject_Close@CComControlBase@ATL@@QEAAJK@Z 000000018001c870 f i SoundRecorder.obj
 0001:0001bbe0       ?IOleObject_GetClientSite@CComControlBase@ATL@@QEAAJPEAPEAUIOleClientSite@@@Z 000000018001cbe0 f i SoundRecorder.obj
 0001:0001bcb0       ?IOleObject_SetClientSite@CComControlBase@ATL@@QEAAJPEAUIOleClientSite@@@Z 000000018001ccb0 f i SoundRecorder.obj
 0001:0001bdc0       ?IOleObject_SetExtent@CComControlBase@ATL@@QEAAJKPEAUtagSIZE@@@Z 000000018001cdc0 f i SoundRecorder.obj
 0001:0001bf30       ?IPSI_GetIPersistStreamInit@?$IPersistStorageImpl@VCOPOSSoundRecorder@@@ATL@@AEAAPEAUIPersistStreamInit@@XZ 000000018001cf30 f i SoundRecorder.obj
 0001:0001bff0       ?IPersistStreamInit_Load@?$IPersistStreamInitImpl@VCOPOSSoundRecorder@@@ATL@@QEAAJPEAUIStream@@PEBUATL_PROPMAP_ENTRY@2@@Z 000000018001cff0 f i SoundRecorder.obj
 0001:0001c090       ?IPersistStreamInit_Save@?$IPersistStreamInitImpl@VCOPOSSoundRecorder@@@ATL@@QEAAJPEAUIStream@@HPEBUATL_PROPMAP_ENTRY@2@@Z 000000018001d090 f i SoundRecorder.obj
 0001:0001c150       ?IQuickActivate_QuickActivate@CComControlBase@ATL@@QEAAJPEAUtagQACONTAINER@@PEAUtagQACONTROL@@@Z 000000018001d150 f i SoundRecorder.obj
 0001:0001c990       ?IViewObject_Draw@CComControlBase@ATL@@QEAAJKJPEAXPEAUtagDVTARGETDEVICE@@PEAUHDC__@@2PEBU_RECTL@@3@Z 000000018001d990 f i SoundRecorder.obj
 0001:0001cde0       ?InPlaceActivate@CComControlBase@ATL@@QEAAJJPEBUtagRECT@@@Z 000000018001dde0 f i SoundRecorder.obj
 0001:0001d980       ?InPlaceDeactivate@?$IOleInPlaceObjectWindowlessImpl@VCOPOSSoundRecorder@@@ATL@@UEAAJXZ 000000018001e980 f i SoundRecorder.obj
 0001:0001da30       ?Increment@CComMultiThreadModel@ATL@@SAKPEAJ@Z 000000018001ea30 f i SoundRecorder.obj
 0001:0001da50       ?Increment@CComSingleThreadModel@ATL@@SAKPEAJ@Z 000000018001ea50 f i SoundRecorder.obj
 0001:0001da70       ?Init@?$CComEnumImpl@UIEnumConnectionPoints@@$1?_GUID_b196b285_bab4_101a_b69c_00aa00341d07@@3U__s_GUID@@BPEAUIConnectionPoint@@V?$_CopyInterface@UIConnectionPoint@@@ATL@@@ATL@@QEAAJPEAPEAUIConnectionPoint@@0PEAUIUnknown@@W4CComEnumFlags@2@@Z 000000018001ea70 f i SoundRecorder.obj
 0001:0001dd60       ?Init@?$CComEnumImpl@UIEnumConnections@@$1?_GUID_b196b287_bab4_101a_b69c_00aa00341d07@@3U__s_GUID@@BUtagCONNECTDATA@@V?$_Copy@UtagCONNECTDATA@@@ATL@@@ATL@@QEAAJPEAUtagCONNECTDATA@@0PEAUIUnknown@@W4CComEnumFlags@2@@Z 000000018001ed60 f i SoundRecorder.obj
 0001:0001e050       ?Init@CComFakeCriticalSection@ATL@@QEAAJXZ 000000018001f050 f i SoundRecorder.obj
 0001:0001e060       ?Init@CComModule@ATL@@QEAAJPEAU_ATL_OBJMAP_ENTRY30@2@PEAUHINSTANCE__@@PEBU_GUID@@@Z 000000018001f060 f i SoundRecorder.obj
 0001:0001e150       ?Init@CComSafeDeleteCriticalSection@ATL@@QEAAJXZ 000000018001f150 f i SoundRecorder.obj
 0001:0001e1e0       ?Init@CDynamicStdCallThunk2@ATL@@QEAAH_KPEAX@Z 000000018001f1e0 f i SoundRecorder.obj
 0001:0001e260       ?Init@CWndProcThunk@ATL@@QEAAHP6A_JPEAUHWND__@@I_K_J@ZPEAX@Z 000000018001f260 f i SoundRecorder.obj
 0001:0001e2b0       ?InitFromData@?$IOleObjectImpl@VCOPOSSoundRecorder@@@ATL@@UEAAJPEAUIDataObject@@HK@Z 000000018001f2b0 f i SoundRecorder.obj
 0001:0001e340       ?InitLibId@?$CAtlModuleT@VCComModule@ATL@@@ATL@@SAXXZ 000000018001f340 f i SoundRecorder.obj
 0001:0001e350       ?InitNew@?$IPersistStorageImpl@VCOPOSSoundRecorder@@@ATL@@UEAAJPEAUIStorage@@@Z 000000018001f350 f i SoundRecorder.obj
 0001:0001e440       ?InitNew@?$IPersistStreamInitImpl@VCOPOSSoundRecorder@@@ATL@@UEAAJXZ 000000018001f440 f i SoundRecorder.obj
 0001:0001e4f0       ?InlineIsEqualUnknown@ATL@@YAHAEBU_GUID@@@Z 000000018001f4f0 f i SoundRecorder.obj
 0001:0001e580       ?InternalAddRef@?$CComObjectRootEx@VCComMultiThreadModel@ATL@@@ATL@@QEAAKXZ 000000018001f580 f i SoundRecorder.obj
 0001:0001e600       ?InternalAddRef@?$CComObjectRootEx@VCComSingleThreadModel@ATL@@@ATL@@QEAAKXZ 000000018001f600 f i SoundRecorder.obj
 0001:0001e680       ?InternalFinalConstructAddRef@CComObjectRootBase@ATL@@QEAAXXZ 000000018001f680 f i SoundRecorder.obj
 0001:0001e690       ?InternalFinalConstructAddRef@COPOSSoundRecorder@@QEAAXXZ 000000018001f690 f i SoundRecorder.obj
 0001:0001e6d0       ?InternalFinalConstructRelease@CComObjectRootBase@ATL@@QEAAXXZ 000000018001f6d0 f i SoundRecorder.obj
 0001:0001e740       ?InternalFinalConstructRelease@COPOSSoundRecorder@@QEAAXXZ 000000018001f740 f i SoundRecorder.obj
 0001:0001e780       ?InternalGetSite@CComControlBase@ATL@@QEAAJAEBU_GUID@@PEAPEAX@Z 000000018001f780 f i SoundRecorder.obj
 0001:0001e860       ?InternalQueryInterface@CComObjectRootBase@ATL@@SAJPEAXPEBU_ATL_INTMAP_ENTRY@2@AEBU_GUID@@PEAPEAX@Z 000000018001f860 f i SoundRecorder.obj
 0001:0001e980       ?InternalRelease@?$CComObjectRootEx@VCComMultiThreadModel@ATL@@@ATL@@QEAAKXZ 000000018001f980 f i SoundRecorder.obj
 0001:0001ea00       ?InternalRelease@?$CComObjectRootEx@VCComSingleThreadModel@ATL@@@ATL@@QEAAKXZ 000000018001fa00 f i SoundRecorder.obj
 0001:0001ea80       ?InternalSetAtIndex@?$CSimpleArray@GV?$CSimpleArrayEqualHelper@G@ATL@@@ATL@@QEAAXHAEBG@Z 000000018001fa80 f i SoundRecorder.obj
 0001:0001eb00       ?InternalSetAtIndex@?$CSimpleMap@PEA_WPEA_WVCExpansionVectorEqualHelper@ATL@@@ATL@@QEAAXHAEBQEA_W0@Z 000000018001fb00 f i SoundRecorder.obj
 0001:0001ebd0       ?Invoke@?$IDispatchImpl@UIOPOSSoundRecorder@@$1?IID_IOPOSSoundRecorder@@3U_GUID@@B$1?LIBID_OposSoundRecorder_CCO@@3U3@B$00$0A@VCComTypeInfoHolder@ATL@@@ATL@@UEAAJJAEBU_GUID@@KGPEAUtagDISPPARAMS@@PEAUtagVARIANT@@PEAUtagEXCEPINFO@@PEAI@Z 000000018001fbd0 f i SoundRecorder.obj
 0001:0001ec70       ?Invoke@CComTypeInfoHolder@ATL@@QEAAJPEAUIDispatch@@JAEBU_GUID@@KGPEAUtagDISPPARAMS@@PEAUtagVARIANT@@PEAUtagEXCEPINFO@@PEAI@Z 000000018001fc70 f i SoundRecorder.obj
 0001:0001ed30       ?IsDirty@?$IPersistStorageImpl@VCOPOSSoundRecorder@@@ATL@@UEAAJXZ 000000018001fd30 f i SoundRecorder.obj
 0001:0001ee20       ?IsDirty@?$IPersistStreamInitImpl@VCOPOSSoundRecorder@@@ATL@@UEAAJXZ 000000018001fe20 f i SoundRecorder.obj
 0001:0001eee0       ?IsEqualKey@CExpansionVectorEqualHelper@ATL@@SA_NQEA_W0@Z 000000018001fee0 f i SoundRecorder.obj
 0001:0001ef30       ?IsEqualObject@?$CComPtrBase@UIOleClientSite@@@ATL@@QEAA_NPEAUIUnknown@@@Z 000000018001ff30 f i SoundRecorder.obj
 0001:0001f080       ?IsEqualObject@?$CComPtrBase@UITypeInfo@@@ATL@@QEAA_NPEAUIUnknown@@@Z 0000000180020080 f i SoundRecorder.obj
 0001:0001f1d0       ?IsSpace@CRegParser@ATL@@IEAAH_W@Z 00000001800201d0 f i SoundRecorder.obj
 0001:0001f230       ?IsUpToDate@?$IOleObjectImpl@VCOPOSSoundRecorder@@@ATL@@UEAAJXZ 0000000180020230 f i SoundRecorder.obj
 0001:0001f2a0       ?Length@CComBSTR@ATL@@QEBAIXZ 00000001800202a0 f i SoundRecorder.obj
 0001:0001f2e0       ?Load@?$IPersistStorageImpl@VCOPOSSoundRecorder@@@ATL@@UEAAJPEAUIStorage@@@Z 00000001800202e0 f i SoundRecorder.obj
 0001:0001f490       ?Load@?$IPersistStreamInitImpl@VCOPOSSoundRecorder@@@ATL@@UEAAJPEAUIStream@@@Z 0000000180020490 f i SoundRecorder.obj
 0001:0001f550       ?LoadCursorW@AtlModuleRegisterWndClassInfoParamW@ATL@@SAPEAUHICON__@@PEAUHINSTANCE__@@PEB_W@Z 0000000180020550 f i SoundRecorder.obj
 0001:0001f590       ?LoadNameCache@CComTypeInfoHolder@ATL@@QEAAJPEAUITypeInfo@@@Z 0000000180020590 f i SoundRecorder.obj
 0001:0001f8d0       ?Lock@?$CComCritSecLock@VCComCriticalSection@ATL@@@ATL@@QEAAJXZ 00000001800208d0 f i SoundRecorder.obj
 0001:0001f9c0       ?Lock@?$CComObjectRootEx@VCComSingleThreadModel@ATL@@@ATL@@QEAAXXZ 00000001800209c0 f i SoundRecorder.obj
 0001:0001f9d0       ?Lock@CAtlModule@ATL@@UEAAJXZ 00000001800209d0 f i SoundRecorder.obj
 0001:0001fa10       ?Lock@CComCriticalSection@ATL@@QEAAJXZ 0000000180020a10 f i SoundRecorder.obj
 0001:0001fa50       ?Lock@CComFakeCriticalSection@ATL@@QEAAJXZ 0000000180020a50 f i SoundRecorder.obj
 0001:0001fa60       ?LockServer@CComClassFactory@ATL@@UEAAJH@Z 0000000180020a60 f i SoundRecorder.obj
 0001:0001fac0       ?Lookup@?$CSimpleMap@PEA_WPEA_WVCExpansionVectorEqualHelper@ATL@@@ATL@@QEBAPEA_WAEBQEA_W@Z 0000000180020ac0 f i SoundRecorder.obj
 0001:0001fb20       ?Next@?$CComEnumImpl@UIEnumConnectionPoints@@$1?_GUID_b196b285_bab4_101a_b69c_00aa00341d07@@3U__s_GUID@@BPEAUIConnectionPoint@@V?$_CopyInterface@UIConnectionPoint@@@ATL@@@ATL@@UEAAJKPEAPEAUIConnectionPoint@@PEAK@Z 0000000180020b20 f i SoundRecorder.obj
 0001:0001fce0       ?Next@?$CComEnumImpl@UIEnumConnections@@$1?_GUID_b196b287_bab4_101a_b69c_00aa00341d07@@3U__s_GUID@@BUtagCONNECTDATA@@V?$_Copy@UtagCONNECTDATA@@@ATL@@@ATL@@UEAAJKPEAUtagCONNECTDATA@@PEAK@Z 0000000180020ce0 f i SoundRecorder.obj
 0001:0001fea0       ?NextToken@CRegParser@ATL@@IEAAJPEA_W@Z 0000000180020ea0 f i SoundRecorder.obj
 0001:00020230       ?OLE2CT_EX@@YAPEB_WPEB_WI@Z 0000000180021230 f i SoundRecorder.obj
 0001:00020250       ?OLE2CT_EX_DEF@@YAPEB_WPEB_W@Z 0000000180021250 f i SoundRecorder.obj
 0001:00020260       ?OLE2T_EX@@YAPEA_WPEA_WI@Z 0000000180021260 f i SoundRecorder.obj
 0001:00020280       ?OnAmbientPropertyChange@?$IOleControlImpl@VCOPOSSoundRecorder@@@ATL@@UEAAJJ@Z 0000000180021280 f i SoundRecorder.obj
 0001:00020340       ?OnDocWindowActivate@?$IOleInPlaceActiveObjectImpl@VCOPOSSoundRecorder@@@ATL@@UEAAJH@Z 0000000180021340 f i SoundRecorder.obj
 0001:00020400       ?OnDrawAdvanced@CComControlBase@ATL@@UEAAJAEAUATL_DRAWINFO@@@Z 0000000180021400 f i SoundRecorder.obj
 0001:00020650       ?OnFinalMessage@?$CWindowImplBaseT@VCWindow@ATL@@V?$CWinTraits@$0FGAAAAAA@$0A@@2@@ATL@@UEAAXPEAUHWND__@@@Z 0000000180021650 f i SoundRecorder.obj
 0001:00020660       ?OnFrameWindowActivate@?$IOleInPlaceActiveObjectImpl@VCOPOSSoundRecorder@@@ATL@@UEAAJH@Z 0000000180021660 f i SoundRecorder.obj
 0001:000206d0       ?OnKillFocus@CComControlBase@ATL@@QEAA_JI_K_JAEAH@Z 00000001800216d0 f i SoundRecorder.obj
 0001:000207c0       ?OnMnemonic@?$IOleControlImpl@VCOPOSSoundRecorder@@@ATL@@UEAAJPEAUtagMSG@@@Z 00000001800217c0 f i SoundRecorder.obj
 0001:00020850       ?OnMouseActivate@CComControlBase@ATL@@QEAA_JI_K_JAEAH@Z 0000000180021850 f i SoundRecorder.obj
 0001:000209f0       ?OnPaint@CComControlBase@ATL@@QEAA_JI_K_JAEAH@Z 00000001800219f0 f i SoundRecorder.obj
 0001:00020b80       ?OnPostVerbDiscardUndo@?$IOleObjectImpl@VCOPOSSoundRecorder@@@ATL@@QEAAJXZ 0000000180021b80 f i SoundRecorder.obj
 0001:00020b90       ?OnPostVerbHide@?$IOleObjectImpl@VCOPOSSoundRecorder@@@ATL@@QEAAJXZ 0000000180021b90 f i SoundRecorder.obj
 0001:00020ba0       ?OnPostVerbInPlaceActivate@?$IOleObjectImpl@VCOPOSSoundRecorder@@@ATL@@QEAAJXZ 0000000180021ba0 f i SoundRecorder.obj
 0001:00020bb0       ?OnPostVerbOpen@?$IOleObjectImpl@VCOPOSSoundRecorder@@@ATL@@QEAAJXZ 0000000180021bb0 f i SoundRecorder.obj
 0001:00020bc0       ?OnPostVerbShow@?$IOleObjectImpl@VCOPOSSoundRecorder@@@ATL@@QEAAJXZ 0000000180021bc0 f i SoundRecorder.obj
 0001:00020bd0       ?OnPostVerbUIActivate@?$IOleObjectImpl@VCOPOSSoundRecorder@@@ATL@@QEAAJXZ 0000000180021bd0 f i SoundRecorder.obj
 0001:00020be0       ?OnPreVerbDiscardUndo@?$IOleObjectImpl@VCOPOSSoundRecorder@@@ATL@@QEAAJXZ 0000000180021be0 f i SoundRecorder.obj
 0001:00020bf0       ?OnPreVerbHide@?$IOleObjectImpl@VCOPOSSoundRecorder@@@ATL@@QEAAJXZ 0000000180021bf0 f i SoundRecorder.obj
 0001:00020c00       ?OnPreVerbInPlaceActivate@?$IOleObjectImpl@VCOPOSSoundRecorder@@@ATL@@QEAAJXZ 0000000180021c00 f i SoundRecorder.obj
 0001:00020c10       ?OnPreVerbOpen@?$IOleObjectImpl@VCOPOSSoundRecorder@@@ATL@@QEAAJXZ 0000000180021c10 f i SoundRecorder.obj
 0001:00020c20       ?OnPreVerbShow@?$IOleObjectImpl@VCOPOSSoundRecorder@@@ATL@@QEAAJXZ 0000000180021c20 f i SoundRecorder.obj
 0001:00020c30       ?OnPreVerbUIActivate@?$IOleObjectImpl@VCOPOSSoundRecorder@@@ATL@@QEAAJXZ 0000000180021c30 f i SoundRecorder.obj
 0001:00020c40       ?OnSetFocus@CComControlBase@ATL@@QEAA_JI_K_JAEAH@Z 0000000180021c40 f i SoundRecorder.obj
 0001:00020e40       ?OnWindowMessage@?$IOleInPlaceObjectWindowlessImpl@VCOPOSSoundRecorder@@@ATL@@UEAAJI_K_JPEA_J@Z 0000000180021e40 f i SoundRecorder.obj
 0001:00021060       ?Open@CRegKey@ATL@@QEAAJPEAUHKEY__@@PEB_WK@Z 0000000180022060 f i SoundRecorder.obj
 0001:000211e0       ?OuterAddRef@CComObjectRootBase@ATL@@QEAAKXZ 00000001800221e0 f i SoundRecorder.obj
 0001:00021220       ?OuterQueryInterface@CComObjectRootBase@ATL@@QEAAJAEBU_GUID@@PEAPEAX@Z 0000000180022220 f i SoundRecorder.obj
 0001:00021270       ?OuterRelease@CComObjectRootBase@ATL@@QEAAKXZ 0000000180022270 f i SoundRecorder.obj
 0001:000212b0       ?PreProcessBuffer@CRegParser@ATL@@QEAAJPEA_WPEAPEA_W@Z 00000001800222b0 f i SoundRecorder.obj
 0001:00021990       ?PreTranslateAccelerator@CComControlBase@ATL@@QEAAHPEAUtagMSG@@AEAJ@Z 0000000180022990 f i SoundRecorder.obj
 0001:000219b0       ?ProcessWindowMessage@?$CComControl@VCOPOSSoundRecorder@@V?$CWindowImpl@VCOPOSSoundRecorder@@VCWindow@ATL@@V?$CWinTraits@$0FGAAAAAA@$0A@@3@@ATL@@@ATL@@UEAAHPEAUHWND__@@I_K_JAEA_JK@Z 00000001800229b0 f i SoundRecorder.obj
 0001:00021c30       ?ProcessWindowMessage@COPOSSoundRecorder@@UEAAHPEAUHWND__@@I_K_JAEA_JK@Z 0000000180022c30 f i SoundRecorder.obj
 0001:00021db0       ?PutProperty@?$CComPtr@UIDispatch@@@ATL@@QEAAJJPEAUtagVARIANT@@@Z 0000000180022db0 f i SoundRecorder.obj
 0001:00021e00       ?PutProperty@?$CComPtr@UIDispatch@@@ATL@@SAJPEAUIDispatch@@JPEAUtagVARIANT@@@Z 0000000180022e00 f i SoundRecorder.obj
 0001:000220a0       ?QueryGetData@?$IDataObjectImpl@VCOPOSSoundRecorder@@@ATL@@UEAAJPEAUtagFORMATETC@@@Z 00000001800230a0 f i SoundRecorder.obj
 0001:00022130       ?QueryHitPoint@?$IViewObjectExImpl@VCOPOSSoundRecorder@@@ATL@@UEAAJKPEBUtagRECT@@UtagPOINT@@JPEAK@Z 0000000180023130 f i SoundRecorder.obj
 0001:000222a0       ?QueryHitRect@?$IViewObjectExImpl@VCOPOSSoundRecorder@@@ATL@@UEAAJKPEBUtagRECT@@0JPEAK@Z 00000001800232a0 f i SoundRecorder.obj
 0001:00022470       ?QueryInterface@?$CComAggObject@VCOPOSSoundRecorder@@@ATL@@UEAAJAEBU_GUID@@PEAPEAX@Z 0000000180023470 f i SoundRecorder.obj
 0001:00022560       ?QueryInterface@?$CComContainedObject@VCOPOSSoundRecorder@@@ATL@@UEAAJAEBU_GUID@@PEAPEAX@Z 0000000180023560 f i SoundRecorder.obj
 0001:000225ac       ?QueryInterface@?$CComContainedObject@VCOPOSSoundRecorder@@@ATL@@WBAA@EAAJAEBU_GUID@@PEAPEAX@Z 00000001800235ac f i SoundRecorder.obj
 0001:000225b8       ?QueryInterface@?$CComContainedObject@VCOPOSSoundRecorder@@@ATL@@WBAI@EAAJAEBU_GUID@@PEAPEAX@Z 00000001800235b8 f i SoundRecorder.obj
 0001:000225c4       ?QueryInterface@?$CComContainedObject@VCOPOSSoundRecorder@@@ATL@@WBBA@EAAJAEBU_GUID@@PEAPEAX@Z 00000001800235c4 f i SoundRecorder.obj
 0001:000225d0       ?QueryInterface@?$CComContainedObject@VCOPOSSoundRecorder@@@ATL@@WBBI@EAAJAEBU_GUID@@PEAPEAX@Z 00000001800235d0 f i SoundRecorder.obj
 0001:000225dc       ?QueryInterface@?$CComContainedObject@VCOPOSSoundRecorder@@@ATL@@WLI@EAAJAEBU_GUID@@PEAPEAX@Z 00000001800235dc f i SoundRecorder.obj
 0001:000225e8       ?QueryInterface@?$CComContainedObject@VCOPOSSoundRecorder@@@ATL@@WMA@EAAJAEBU_GUID@@PEAPEAX@Z 00000001800235e8 f i SoundRecorder.obj
 0001:000225f4       ?QueryInterface@?$CComContainedObject@VCOPOSSoundRecorder@@@ATL@@WMI@EAAJAEBU_GUID@@PEAPEAX@Z 00000001800235f4 f i SoundRecorder.obj
 0001:00022600       ?QueryInterface@?$CComContainedObject@VCOPOSSoundRecorder@@@ATL@@WNA@EAAJAEBU_GUID@@PEAPEAX@Z 0000000180023600 f i SoundRecorder.obj
 0001:0002260c       ?QueryInterface@?$CComContainedObject@VCOPOSSoundRecorder@@@ATL@@WNI@EAAJAEBU_GUID@@PEAPEAX@Z 000000018002360c f i SoundRecorder.obj
 0001:00022618       ?QueryInterface@?$CComContainedObject@VCOPOSSoundRecorder@@@ATL@@WOA@EAAJAEBU_GUID@@PEAPEAX@Z 0000000180023618 f i SoundRecorder.obj
 0001:00022624       ?QueryInterface@?$CComContainedObject@VCOPOSSoundRecorder@@@ATL@@WOI@EAAJAEBU_GUID@@PEAPEAX@Z 0000000180023624 f i SoundRecorder.obj
 0001:00022630       ?QueryInterface@?$CComContainedObject@VCOPOSSoundRecorder@@@ATL@@WPA@EAAJAEBU_GUID@@PEAPEAX@Z 0000000180023630 f i SoundRecorder.obj
 0001:0002263c       ?QueryInterface@?$CComContainedObject@VCOPOSSoundRecorder@@@ATL@@WPI@EAAJAEBU_GUID@@PEAPEAX@Z 000000018002363c f i SoundRecorder.obj
 0001:00022650       ?QueryInterface@?$CComObject@V?$CComEnum@UIEnumConnectionPoints@@$1?_GUID_b196b285_bab4_101a_b69c_00aa00341d07@@3U__s_GUID@@BPEAUIConnectionPoint@@V?$_CopyInterface@UIConnectionPoint@@@ATL@@VCComSingleThreadModel@6@@ATL@@@ATL@@UEAAJAEBU_GUID@@PEAPEAX@Z 0000000180023650 f i SoundRecorder.obj
 0001:000226a0       ?QueryInterface@?$CComObject@V?$CComEnum@UIEnumConnections@@$1?_GUID_b196b287_bab4_101a_b69c_00aa00341d07@@3U__s_GUID@@BUtagCONNECTDATA@@V?$_Copy@UtagCONNECTDATA@@@ATL@@VCComSingleThreadModel@6@@ATL@@@ATL@@UEAAJAEBU_GUID@@PEAPEAX@Z 00000001800236a0 f i SoundRecorder.obj
 0001:000226f0       ?QueryInterface@?$CComObject@VCOPOSSoundRecorder@@@ATL@@UEAAJAEBU_GUID@@PEAPEAX@Z 00000001800236f0 f i SoundRecorder.obj
 0001:00022734       ?QueryInterface@?$CComObject@VCOPOSSoundRecorder@@@ATL@@WBAA@EAAJAEBU_GUID@@PEAPEAX@Z 0000000180023734 f i SoundRecorder.obj
 0001:00022740       ?QueryInterface@?$CComObject@VCOPOSSoundRecorder@@@ATL@@WBAI@EAAJAEBU_GUID@@PEAPEAX@Z 0000000180023740 f i SoundRecorder.obj
 0001:0002274c       ?QueryInterface@?$CComObject@VCOPOSSoundRecorder@@@ATL@@WBBA@EAAJAEBU_GUID@@PEAPEAX@Z 000000018002374c f i SoundRecorder.obj
 0001:00022758       ?QueryInterface@?$CComObject@VCOPOSSoundRecorder@@@ATL@@WBBI@EAAJAEBU_GUID@@PEAPEAX@Z 0000000180023758 f i SoundRecorder.obj
 0001:00022764       ?QueryInterface@?$CComObject@VCOPOSSoundRecorder@@@ATL@@WLI@EAAJAEBU_GUID@@PEAPEAX@Z 0000000180023764 f i SoundRecorder.obj
 0001:00022770       ?QueryInterface@?$CComObject@VCOPOSSoundRecorder@@@ATL@@WMA@EAAJAEBU_GUID@@PEAPEAX@Z 0000000180023770 f i SoundRecorder.obj
 0001:0002277c       ?QueryInterface@?$CComObject@VCOPOSSoundRecorder@@@ATL@@WMI@EAAJAEBU_GUID@@PEAPEAX@Z 000000018002377c f i SoundRecorder.obj
 0001:00022788       ?QueryInterface@?$CComObject@VCOPOSSoundRecorder@@@ATL@@WNA@EAAJAEBU_GUID@@PEAPEAX@Z 0000000180023788 f i SoundRecorder.obj
 0001:00022794       ?QueryInterface@?$CComObject@VCOPOSSoundRecorder@@@ATL@@WNI@EAAJAEBU_GUID@@PEAPEAX@Z 0000000180023794 f i SoundRecorder.obj
 0001:000227a0       ?QueryInterface@?$CComObject@VCOPOSSoundRecorder@@@ATL@@WOA@EAAJAEBU_GUID@@PEAPEAX@Z 00000001800237a0 f i SoundRecorder.obj
 0001:000227ac       ?QueryInterface@?$CComObject@VCOPOSSoundRecorder@@@ATL@@WOI@EAAJAEBU_GUID@@PEAPEAX@Z 00000001800237ac f i SoundRecorder.obj
 0001:000227b8       ?QueryInterface@?$CComObject@VCOPOSSoundRecorder@@@ATL@@WPA@EAAJAEBU_GUID@@PEAPEAX@Z 00000001800237b8 f i SoundRecorder.obj
 0001:000227c4       ?QueryInterface@?$CComObject@VCOPOSSoundRecorder@@@ATL@@WPI@EAAJAEBU_GUID@@PEAPEAX@Z 00000001800237c4 f i SoundRecorder.obj
 0001:000227d0       ?QueryInterface@?$CComObjectCached@VCComClassFactory@ATL@@@ATL@@UEAAJAEBU_GUID@@PEAPEAX@Z 00000001800237d0 f i SoundRecorder.obj
 0001:00022820       ?QueryInterface@CRegObject@ATL@@UEAAJAEBU_GUID@@PEAPEAX@Z 0000000180023820 f i SoundRecorder.obj
 0001:000228a0       ?QuickActivate@?$IQuickActivateImpl@VCOPOSSoundRecorder@@@ATL@@UEAAJPEAUtagQACONTAINER@@PEAUtagQACONTROL@@@Z 00000001800238a0 f i SoundRecorder.obj
 0001:00022960       ?ReactivateAndUndo@?$IOleInPlaceObjectWindowlessImpl@VCOPOSSoundRecorder@@@ATL@@UEAAJXZ 0000000180023960 f i SoundRecorder.obj
 0001:000229e0       ?ReadFromStream@CComBSTR@ATL@@QEAAJPEAUIStream@@@Z 00000001800239e0 f i SoundRecorder.obj
 0001:00022ec0       ?ReadFromStream@CComVariant@ATL@@QEAAJPEAUIStream@@GTClassesAllowedInStream@2@K@Z 0000000180023ec0 f i SoundRecorder.obj
 0001:000232f0       ?RecurseDeleteKey@CRegKey@ATL@@QEAAJPEB_W@Z 00000001800242f0 f i SoundRecorder.obj
 0001:00023510       ?RegCreateKeyExW@CAtlTransactionManager@ATL@@QEAAJPEAUHKEY__@@PEB_WKPEA_WKKQEAU_SECURITY_ATTRIBUTES@@PEAPEAU3@PEAK@Z 0000000180024510 f i SoundRecorder.obj
 0001:000236e0       ?RegDeleteKeyW@CAtlTransactionManager@ATL@@QEAAJPEAUHKEY__@@PEB_W@Z 00000001800246e0 f i SoundRecorder.obj
 0001:000237f0       ?RegOpenKeyExW@CAtlTransactionManager@ATL@@QEAAJPEAUHKEY__@@PEB_WKKPEAPEAU3@@Z 00000001800247f0 f i SoundRecorder.obj
 0001:00023940       ?Register@_ATL_WNDCLASSINFOW@ATL@@QEAAGPEAP6A_JPEAUHWND__@@I_K_J@Z@Z 0000000180024940 f i SoundRecorder.obj
 0001:00023990       ?RegisterBuffer@CRegParser@ATL@@QEAAJPEA_WH@Z 0000000180024990 f i SoundRecorder.obj
 0001:00023d80       ?RegisterClassExW@AtlModuleRegisterWndClassInfoParamW@ATL@@SAGPEAU_ATL_WIN_MODULE70@2@PEBUtagWNDCLASSEXW@@@Z 0000000180024d80 f i SoundRecorder.obj
 0001:00023dc0       ?RegisterFromResource@CRegObject@ATL@@IEAAJPEB_W00H@Z 0000000180024dc0 f i SoundRecorder.obj
 0001:00024220       ?RegisterServer@?$CAtlModuleT@VCComModule@ATL@@@ATL@@QEAAJHPEBU_GUID@@@Z 0000000180025220 f i SoundRecorder.obj
 0001:000242a0       ?RegisterServer@CAtlComModule@ATL@@QEAAJHPEBU_GUID@@@Z 00000001800252a0 f i SoundRecorder.obj
 0001:000242e0       ?RegisterServer@CComModule@ATL@@QEAAJHPEBU_GUID@@@Z 00000001800252e0 f i SoundRecorder.obj
 0001:000243e0       ?RegisterSubkeys@CRegParser@ATL@@IEAAJPEA_WPEAUHKEY__@@HH@Z 00000001800253e0 f i SoundRecorder.obj
 0001:000251c0       ?Release@?$CComAggObject@VCOPOSSoundRecorder@@@ATL@@UEAAKXZ 00000001800261c0 f i SoundRecorder.obj
 0001:00025270       ?Release@?$CComContainedObject@VCOPOSSoundRecorder@@@ATL@@UEAAKXZ 0000000180026270 f i SoundRecorder.obj
 0001:000252a8       ?Release@?$CComContainedObject@VCOPOSSoundRecorder@@@ATL@@WBAA@EAAKXZ 00000001800262a8 f i SoundRecorder.obj
 0001:000252b4       ?Release@?$CComContainedObject@VCOPOSSoundRecorder@@@ATL@@WBAI@EAAKXZ 00000001800262b4 f i SoundRecorder.obj
 0001:000252c0       ?Release@?$CComContainedObject@VCOPOSSoundRecorder@@@ATL@@WBBA@EAAKXZ 00000001800262c0 f i SoundRecorder.obj
 0001:000252cc       ?Release@?$CComContainedObject@VCOPOSSoundRecorder@@@ATL@@WBBI@EAAKXZ 00000001800262cc f i SoundRecorder.obj
 0001:000252d8       ?Release@?$CComContainedObject@VCOPOSSoundRecorder@@@ATL@@WBCI@EAAKXZ 00000001800262d8 f i SoundRecorder.obj
 0001:000252e4       ?Release@?$CComContainedObject@VCOPOSSoundRecorder@@@ATL@@WBEA@EAAKXZ 00000001800262e4 f i SoundRecorder.obj
 0001:000252f0       ?Release@?$CComContainedObject@VCOPOSSoundRecorder@@@ATL@@WLI@EAAKXZ 00000001800262f0 f i SoundRecorder.obj
 0001:000252fc       ?Release@?$CComContainedObject@VCOPOSSoundRecorder@@@ATL@@WMA@EAAKXZ 00000001800262fc f i SoundRecorder.obj
 0001:00025308       ?Release@?$CComContainedObject@VCOPOSSoundRecorder@@@ATL@@WMI@EAAKXZ 0000000180026308 f i SoundRecorder.obj
 0001:00025314       ?Release@?$CComContainedObject@VCOPOSSoundRecorder@@@ATL@@WNA@EAAKXZ 0000000180026314 f i SoundRecorder.obj
 0001:00025320       ?Release@?$CComContainedObject@VCOPOSSoundRecorder@@@ATL@@WNI@EAAKXZ 0000000180026320 f i SoundRecorder.obj
 0001:0002532c       ?Release@?$CComContainedObject@VCOPOSSoundRecorder@@@ATL@@WOA@EAAKXZ 000000018002632c f i SoundRecorder.obj
 0001:00025338       ?Release@?$CComContainedObject@VCOPOSSoundRecorder@@@ATL@@WOI@EAAKXZ 0000000180026338 f i SoundRecorder.obj
 0001:00025344       ?Release@?$CComContainedObject@VCOPOSSoundRecorder@@@ATL@@WPA@EAAKXZ 0000000180026344 f i SoundRecorder.obj
 0001:00025350       ?Release@?$CComContainedObject@VCOPOSSoundRecorder@@@ATL@@WPI@EAAKXZ 0000000180026350 f i SoundRecorder.obj
 0001:00025360       ?Release@?$CComObject@V?$CComEnum@UIEnumConnectionPoints@@$1?_GUID_b196b285_bab4_101a_b69c_00aa00341d07@@3U__s_GUID@@BPEAUIConnectionPoint@@V?$_CopyInterface@UIConnectionPoint@@@ATL@@VCComSingleThreadModel@6@@ATL@@@ATL@@UEAAKXZ 0000000180026360 f i SoundRecorder.obj
 0001:00025410       ?Release@?$CComObject@V?$CComEnum@UIEnumConnections@@$1?_GUID_b196b287_bab4_101a_b69c_00aa00341d07@@3U__s_GUID@@BUtagCONNECTDATA@@V?$_Copy@UtagCONNECTDATA@@@ATL@@VCComSingleThreadModel@6@@ATL@@@ATL@@UEAAKXZ 0000000180026410 f i SoundRecorder.obj
 0001:000254c0       ?Release@?$CComObject@VCOPOSSoundRecorder@@@ATL@@UEAAKXZ 00000001800264c0 f i SoundRecorder.obj
 0001:00025578       ?Release@?$CComObject@VCOPOSSoundRecorder@@@ATL@@WBAA@EAAKXZ 0000000180026578 f i SoundRecorder.obj
 0001:00025584       ?Release@?$CComObject@VCOPOSSoundRecorder@@@ATL@@WBAI@EAAKXZ 0000000180026584 f i SoundRecorder.obj
 0001:00025590       ?Release@?$CComObject@VCOPOSSoundRecorder@@@ATL@@WBBA@EAAKXZ 0000000180026590 f i SoundRecorder.obj
 0001:0002559c       ?Release@?$CComObject@VCOPOSSoundRecorder@@@ATL@@WBBI@EAAKXZ 000000018002659c f i SoundRecorder.obj
 0001:000255a8       ?Release@?$CComObject@VCOPOSSoundRecorder@@@ATL@@WBCI@EAAKXZ 00000001800265a8 f i SoundRecorder.obj
 0001:000255b4       ?Release@?$CComObject@VCOPOSSoundRecorder@@@ATL@@WBEA@EAAKXZ 00000001800265b4 f i SoundRecorder.obj
 0001:000255c0       ?Release@?$CComObject@VCOPOSSoundRecorder@@@ATL@@WLI@EAAKXZ 00000001800265c0 f i SoundRecorder.obj
 0001:000255cc       ?Release@?$CComObject@VCOPOSSoundRecorder@@@ATL@@WMA@EAAKXZ 00000001800265cc f i SoundRecorder.obj
 0001:000255d8       ?Release@?$CComObject@VCOPOSSoundRecorder@@@ATL@@WMI@EAAKXZ 00000001800265d8 f i SoundRecorder.obj
 0001:000255e4       ?Release@?$CComObject@VCOPOSSoundRecorder@@@ATL@@WNA@EAAKXZ 00000001800265e4 f i SoundRecorder.obj
 0001:000255f0       ?Release@?$CComObject@VCOPOSSoundRecorder@@@ATL@@WNI@EAAKXZ 00000001800265f0 f i SoundRecorder.obj
 0001:000255fc       ?Release@?$CComObject@VCOPOSSoundRecorder@@@ATL@@WOA@EAAKXZ 00000001800265fc f i SoundRecorder.obj
 0001:00025608       ?Release@?$CComObject@VCOPOSSoundRecorder@@@ATL@@WOI@EAAKXZ 0000000180026608 f i SoundRecorder.obj
 0001:00025614       ?Release@?$CComObject@VCOPOSSoundRecorder@@@ATL@@WPA@EAAKXZ 0000000180026614 f i SoundRecorder.obj
 0001:00025620       ?Release@?$CComObject@VCOPOSSoundRecorder@@@ATL@@WPI@EAAKXZ 0000000180026620 f i SoundRecorder.obj
 0001:00025630       ?Release@?$CComObjectCached@VCComClassFactory@ATL@@@ATL@@UEAAKXZ 0000000180026630 f i SoundRecorder.obj
 0001:000256d0       ?Release@?$CComPtrBase@UIAdviseSink@@@ATL@@QEAAXXZ 00000001800266d0 f i SoundRecorder.obj
 0001:00025730       ?Release@?$CComPtrBase@UIDispatch@@@ATL@@QEAAXXZ 0000000180026730 f i SoundRecorder.obj
 0001:00025790       ?Release@?$CComPtrBase@UIOleInPlaceSiteWindowless@@@ATL@@QEAAXXZ 0000000180026790 f i SoundRecorder.obj
 0001:000257f0       ?Release@CRegObject@ATL@@UEAAKXZ 00000001800267f0 f i SoundRecorder.obj
 0001:00025860       ?Remove@CComDynamicUnkArray@ATL@@QEAAHK@Z 0000000180026860 f i SoundRecorder.obj
 0001:00025940       ?RemoveAll@?$CSimpleMap@PEA_WPEA_WVCExpansionVectorEqualHelper@ATL@@@ATL@@QEAAXXZ 0000000180026940 f i SoundRecorder.obj
 0001:000259e0       ?Reset@?$CComEnumImpl@UIEnumConnectionPoints@@$1?_GUID_b196b285_bab4_101a_b69c_00aa00341d07@@3U__s_GUID@@BPEAUIConnectionPoint@@V?$_CopyInterface@UIConnectionPoint@@@ATL@@@ATL@@UEAAJXZ 00000001800269e0 f i SoundRecorder.obj
 0001:00025a00       ?Reset@?$CComEnumImpl@UIEnumConnections@@$1?_GUID_b196b287_bab4_101a_b69c_00aa00341d07@@3U__s_GUID@@BUtagCONNECTDATA@@V?$_Copy@UtagCONNECTDATA@@@ATL@@@ATL@@UEAAJXZ 0000000180026a00 f i SoundRecorder.obj
 0001:00025a20       ?ResizeBorder@?$IOleInPlaceActiveObjectImpl@VCOPOSSoundRecorder@@@ATL@@UEAAJPEBUtagRECT@@PEAUIOleInPlaceUIWindow@@H@Z 0000000180026a20 f i SoundRecorder.obj
 0001:00025aa0       ?ResourceRegister@CRegObject@ATL@@QEAAJPEB_WI0@Z 0000000180026aa0 f i SoundRecorder.obj
 0001:00025b80       ?ResourceRegisterSz@CRegObject@ATL@@QEAAJPEB_W00@Z 0000000180026b80 f i SoundRecorder.obj
 0001:00025ca0       ?ResourceUnregister@CRegObject@ATL@@QEAAJPEB_WI0@Z 0000000180026ca0 f i SoundRecorder.obj
 0001:00025d80       ?ResourceUnregisterSz@CRegObject@ATL@@QEAAJPEB_W00@Z 0000000180026d80 f i SoundRecorder.obj
 0001:00025ea0       ?SOData@COPOSSoundRecorder@@MEAAJJ@Z 0000000180026ea0 f i SoundRecorder.obj
 0001:00025f40       ?SODirectIO@COPOSSoundRecorder@@MEAAJJPEAJPEAPEA_W@Z 0000000180026f40 f i SoundRecorder.obj
 0001:00026180       ?SOError@COPOSSoundRecorder@@MEAAJJJJPEAJ@Z 0000000180027180 f i SoundRecorder.obj
 0001:00026290       ?SOOutputCompleteDummy@COPOSSoundRecorder@@MEAAJJ@Z 0000000180027290 f i SoundRecorder.obj
 0001:000262b0       ?SOStatusUpdate@COPOSSoundRecorder@@MEAAJJ@Z 00000001800272b0 f i SoundRecorder.obj
 0001:00026350       ?Save@?$IPersistStorageImpl@VCOPOSSoundRecorder@@@ATL@@UEAAJPEAUIStorage@@H@Z 0000000180027350 f i SoundRecorder.obj
 0001:00026510       ?Save@?$IPersistStreamInitImpl@VCOPOSSoundRecorder@@@ATL@@UEAAJPEAUIStream@@H@Z 0000000180027510 f i SoundRecorder.obj
 0001:000265d0       ?SaveCompleted@?$IPersistStorageImpl@VCOPOSSoundRecorder@@@ATL@@UEAAJPEAUIStorage@@@Z 00000001800275d0 f i SoundRecorder.obj
 0001:00026640       ?SendOnDataChange@CComControlBase@ATL@@QEAAJK@Z 0000000180027640 f i SoundRecorder.obj
 0001:00026730       ?SendOnSave@CComControlBase@ATL@@QEAAJXZ 0000000180027730 f i SoundRecorder.obj
 0001:000267a0       ?SendOnViewChange@CComControlBase@ATL@@QEAAJKJ@Z 00000001800277a0 f i SoundRecorder.obj
 0001:00026820       ?SetAdvise@?$IViewObjectExImpl@VCOPOSSoundRecorder@@@ATL@@UEAAJKKPEAUIAdviseSink@@@Z 0000000180027820 f i SoundRecorder.obj
 0001:000268e0       ?SetClientSite@?$IOleObjectImpl@VCOPOSSoundRecorder@@@ATL@@UEAAJPEAUIOleClientSite@@@Z 00000001800278e0 f i SoundRecorder.obj
 0001:00026990       ?SetColorScheme@?$IOleObjectImpl@VCOPOSSoundRecorder@@@ATL@@UEAAJPEAUtagLOGPALETTE@@@Z 0000000180027990 f i SoundRecorder.obj
 0001:00026a20       ?SetContentExtent@?$IQuickActivateImpl@VCOPOSSoundRecorder@@@ATL@@UEAAJPEAUtagSIZE@@@Z 0000000180027a20 f i SoundRecorder.obj
 0001:00026ae0       ?SetControlFocus@CComControlBase@ATL@@QEAAHH@Z 0000000180027ae0 f i SoundRecorder.obj
 0001:00026c70       ?SetDWORDValue@CRegKey@ATL@@QEAAJPEB_WK@Z 0000000180027c70 f i SoundRecorder.obj
 0001:00026d20       ?SetData@?$IDataObjectImpl@VCOPOSSoundRecorder@@@ATL@@UEAAJPEAUtagFORMATETC@@PEAUtagSTGMEDIUM@@H@Z 0000000180027d20 f i SoundRecorder.obj
 0001:00026db0       ?SetExtent@?$IOleObjectImpl@VCOPOSSoundRecorder@@@ATL@@UEAAJKPEAUtagSIZE@@@Z 0000000180027db0 f i SoundRecorder.obj
 0001:00026e70       ?SetHostNames@?$IOleObjectImpl@VCOPOSSoundRecorder@@@ATL@@UEAAJPEB_W0@Z 0000000180027e70 f i SoundRecorder.obj
 0001:00026ef0       ?SetInterfaceSafetyOptions@?$IObjectSafetyImpl@VCOPOSSoundRecorder@@$02@ATL@@UEAAJAEBU_GUID@@KK@Z 0000000180027ef0 f i SoundRecorder.obj
 0001:00027090       ?SetMoniker@?$IOleObjectImpl@VCOPOSSoundRecorder@@@ATL@@UEAAJKPEAUIMoniker@@@Z 0000000180028090 f i SoundRecorder.obj
 0001:00027120       ?SetMultiStringValue@CRegKey@ATL@@QEAAJPEB_W0@Z 0000000180028120 f i SoundRecorder.obj
 0001:00027290       ?SetObjectRects@?$IOleInPlaceObjectWindowlessImpl@VCOPOSSoundRecorder@@@ATL@@UEAAJPEBUtagRECT@@0@Z 0000000180028290 f i SoundRecorder.obj
 0001:00027350       ?SetStringValue@CRegKey@ATL@@QEAAJPEB_W0K@Z 0000000180028350 f i SoundRecorder.obj
 0001:000274d0       ?SetVoid@CComClassFactory@ATL@@QEAAXPEAX@Z 00000001800284d0 f i SoundRecorder.obj
 0001:000274f0       ?SetVoid@CComObjectRootBase@ATL@@QEAAXPEAX@Z 00000001800284f0 f i SoundRecorder.obj
 0001:00027500       ?ShowWindow@CWindow@ATL@@QEAAHH@Z 0000000180028500 f i SoundRecorder.obj
 0001:00027590       ?Skip@?$CComEnumImpl@UIEnumConnectionPoints@@$1?_GUID_b196b285_bab4_101a_b69c_00aa00341d07@@3U__s_GUID@@BPEAUIConnectionPoint@@V?$_CopyInterface@UIConnectionPoint@@@ATL@@@ATL@@UEAAJK@Z 0000000180028590 f i SoundRecorder.obj
 0001:00027630       ?Skip@?$CComEnumImpl@UIEnumConnections@@$1?_GUID_b196b287_bab4_101a_b69c_00aa00341d07@@3U__s_GUID@@BUtagCONNECTDATA@@V?$_Copy@UtagCONNECTDATA@@@ATL@@@ATL@@UEAAJK@Z 0000000180028630 f i SoundRecorder.obj
 0001:000276d0       ?SkipAssignment@CRegParser@ATL@@IEAAJPEA_W@Z 00000001800286d0 f i SoundRecorder.obj
 0001:000277d0       ?SkipWhiteSpace@CRegParser@ATL@@IEAAXXZ 00000001800287d0 f i SoundRecorder.obj
 0001:00027830       ?StartWindowProc@?$CWindowImplBaseT@VCWindow@ATL@@V?$CWinTraits@$0FGAAAAAA@$0A@@2@@ATL@@SA_JPEAUHWND__@@I_K_J@Z 0000000180028830 f i SoundRecorder.obj
 0001:000279a0       ?StrChrW@CRegParser@ATL@@KAPEA_WPEA_W_W@Z 00000001800289a0 f i SoundRecorder.obj
 0001:00027a20       ?StrFromMap@CRegObject@ATL@@QEAAPEB_WPEA_W@Z 0000000180028a20 f i SoundRecorder.obj
 0001:00027ae0       ?Swap@?$CComPtrBase@UIAdviseSink@@@ATL@@IEAAXAEAV12@@Z 0000000180028ae0 f i SoundRecorder.obj
 0001:00027b40       ?Swap@?$CComPtrBase@UIOleClientSite@@@ATL@@IEAAXAEAV12@@Z 0000000180028b40 f i SoundRecorder.obj
 0001:00027ba0       ?Swap@?$CComPtrBase@UIUnknown@@@ATL@@IEAAXAEAV12@@Z 0000000180028ba0 f i SoundRecorder.obj
 0001:00027c00       ?T2COLE_EX@@YAPEB_WPEB_WI@Z 0000000180028c00 f i SoundRecorder.obj
 0001:00027c20       ?T2OLE_EX@@YAPEA_WPEA_WI@Z 0000000180028c20 f i SoundRecorder.obj
 0001:00027c40       ?Term@CAtlModule@ATL@@QEAAXXZ 0000000180028c40 f i SoundRecorder.obj
 0001:00027d00       ?Term@CComModule@ATL@@QEAAXXZ 0000000180028d00 f i SoundRecorder.obj
 0001:00027df0       ?TranslateAcceleratorW@?$IOleInPlaceActiveObjectImpl@VCOPOSSoundRecorder@@@ATL@@UEAAJPEAUtagMSG@@@Z 0000000180028df0 f i SoundRecorder.obj
 0001:00028060       ?UIDeactivate@?$IOleInPlaceObjectWindowlessImpl@VCOPOSSoundRecorder@@@ATL@@UEAAJXZ 0000000180029060 f i SoundRecorder.obj
 0001:00028110       ?Unadvise@?$CProxy_IOPOSEvents@VCOPOSSoundRecorder@@@@UEAAJK@Z 0000000180029110 f i SoundRecorder.obj
 0001:00028160       ?Unadvise@?$IConnectionPointImpl@VCOPOSSoundRecorder@@$1?DIID__IOPOSSoundRecorderEvents@@3U_GUID@@BVCComDynamicUnkArray@ATL@@@ATL@@UEAAJK@Z 0000000180029160 f i SoundRecorder.obj
 0001:00028250       ?Unadvise@?$IConnectionPointImpl@VCOPOSSoundRecorder@@$1?IID_IPropertyNotifySink@@3U_GUID@@BVCComDynamicUnkArray@ATL@@@ATL@@UEAAJK@Z 0000000180029250 f i SoundRecorder.obj
 0001:00028340       ?Unadvise@?$IOleObjectImpl@VCOPOSSoundRecorder@@@ATL@@UEAAJK@Z 0000000180029340 f i SoundRecorder.obj
 0001:00028430       ?Unfreeze@?$IViewObjectExImpl@VCOPOSSoundRecorder@@@ATL@@UEAAJK@Z 0000000180029430 f i SoundRecorder.obj
 0001:000284b0       ?Unlock@?$CComCritSecLock@VCComCriticalSection@ATL@@@ATL@@QEAAXXZ 00000001800294b0 f i SoundRecorder.obj
 0001:00028540       ?Unlock@?$CComObjectRootEx@VCComSingleThreadModel@ATL@@@ATL@@QEAAXXZ 0000000180029540 f i SoundRecorder.obj
 0001:00028550       ?Unlock@CAtlModule@ATL@@UEAAJXZ 0000000180029550 f i SoundRecorder.obj
 0001:00028590       ?Unlock@CComCriticalSection@ATL@@QEAAJXZ 0000000180029590 f i SoundRecorder.obj
 0001:000285d0       ?Unlock@CComFakeCriticalSection@ATL@@QEAAJXZ 00000001800295d0 f i SoundRecorder.obj
 0001:000285e0       ?UnregisterServer@?$CAtlModuleT@VCComModule@ATL@@@ATL@@QEAAJHPEBU_GUID@@@Z 00000001800295e0 f i SoundRecorder.obj
 0001:00028650       ?UnregisterServer@CAtlComModule@ATL@@QEAAJHPEBU_GUID@@@Z 0000000180029650 f i SoundRecorder.obj
 0001:00028690       ?UnregisterServer@CComModule@ATL@@QEAAJHPEBU_GUID@@@Z 0000000180029690 f i SoundRecorder.obj
 0001:00028780       ?Update@?$IOleObjectImpl@VCOPOSSoundRecorder@@@ATL@@UEAAJXZ 0000000180029780 f i SoundRecorder.obj
 0001:000287f0       ?UpdateRegistryFromResource@CAtlModule@ATL@@QEAAJIHPEAU_ATL_REGMAP_ENTRY@2@@Z 00000001800297f0 f i SoundRecorder.obj
 0001:00028d20       ?UpdateRegistryFromResource@CAtlModule@ATL@@QEAAJPEB_WHPEAU_ATL_REGMAP_ENTRY@2@@Z 0000000180029d20 f i SoundRecorder.obj
 0001:00029270       ?UpdateRegistryFromResource@CComModule@ATL@@UEAAJIHPEAU_ATL_REGMAP_ENTRY@2@@Z 000000018002a270 f i SoundRecorder.obj
 0001:000292c0       ?UpdateRegistryFromResource@CComModule@ATL@@UEAAJPEB_WHPEAU_ATL_REGMAP_ENTRY@2@@Z 000000018002a2c0 f i SoundRecorder.obj
 0001:00029310       ?UpdateRegistryFromResourceD@CComModule@ATL@@UEAAJIHPEAU_ATL_REGMAP_ENTRY@2@@Z 000000018002a310 f i SoundRecorder.obj
 0001:00029330       ?UpdateRegistryFromResourceD@CComModule@ATL@@UEAAJPEB_WHPEAU_ATL_REGMAP_ENTRY@2@@Z 000000018002a330 f i SoundRecorder.obj
 0001:00029350       ?VTFromRegType@CRegParser@ATL@@KAHPEB_WAEAG@Z 000000018002a350 f i SoundRecorder.obj
 0001:00029430       ?WindowProc@?$CWindowImplBaseT@VCWindow@ATL@@V?$CWinTraits@$0FGAAAAAA@$0A@@2@@ATL@@SA_JPEAUHWND__@@I_K_J@Z 000000018002a430 f i SoundRecorder.obj
 0001:00029710       ?WriteToStream@CComBSTR@ATL@@QEAAJPEAUIStream@@@Z 000000018002a710 f i SoundRecorder.obj
 0001:00029880       ?WriteToStream@CComVariant@ATL@@QEAAJPEAUIStream@@@Z 000000018002a880 f i SoundRecorder.obj
 0001:00029c90       ?WriteToStream@CComVariant@ATL@@QEAAJPEAUIStream@@G@Z 000000018002ac90 f i SoundRecorder.obj
 0001:00029d70       ?_AtlFinalConstruct@CComObjectRootBase@ATL@@QEAAJXZ 000000018002ad70 f i SoundRecorder.obj
 0001:00029d80       ?_AtlGetConversionACP@ATL@@YAIXZ 000000018002ad80 f i SoundRecorder.obj
 0001:00029d90       ?_AtlInitialConstruct@?$CComAggObject@VCOPOSSoundRecorder@@@ATL@@QEAAJXZ 000000018002ad90 f i SoundRecorder.obj
 0001:00029df0       ?_AtlInitialConstruct@?$CComObjectRootEx@VCComMultiThreadModel@ATL@@@ATL@@QEAAJXZ 000000018002adf0 f i SoundRecorder.obj
 0001:00029e30       ?_AtlInitialConstruct@?$CComObjectRootEx@VCComSingleThreadModel@ATL@@@ATL@@QEAAJXZ 000000018002ae30 f i SoundRecorder.obj
 0001:00029e40       ?_AtlVerifyStackAvailable@_ATL_SAFE_ALLOCA_IMPL@ATL@@YA_N_K@Z 000000018002ae40 f i SoundRecorder.obj
 0001:00029fa0       ?_GetEntries@?$CComEnum@UIEnumConnectionPoints@@$1?_GUID_b196b285_bab4_101a_b69c_00aa00341d07@@3U__s_GUID@@BPEAUIConnectionPoint@@V?$_CopyInterface@UIConnectionPoint@@@ATL@@VCComSingleThreadModel@6@@ATL@@SAPEBU_ATL_INTMAP_ENTRY@2@XZ 000000018002afa0 f i SoundRecorder.obj
 0001:00029fc0       ?_GetEntries@?$CComEnum@UIEnumConnections@@$1?_GUID_b196b287_bab4_101a_b69c_00aa00341d07@@3U__s_GUID@@BUtagCONNECTDATA@@V?$_Copy@UtagCONNECTDATA@@@ATL@@VCComSingleThreadModel@6@@ATL@@SAPEBU_ATL_INTMAP_ENTRY@2@XZ 000000018002afc0 f i SoundRecorder.obj
 0001:00029fe0       ?_GetEntries@CComClassFactory@ATL@@SAPEBU_ATL_INTMAP_ENTRY@2@XZ 000000018002afe0 f i SoundRecorder.obj
 0001:0002a000       ?_GetEntries@COPOSSoundRecorder@@SAPEBU_ATL_INTMAP_ENTRY@ATL@@XZ 000000018002b000 f i SoundRecorder.obj
 0001:0002a020       ?_GetRawUnknown@COPOSSoundRecorder@@QEAAPEAUIUnknown@@XZ 000000018002b020 f i SoundRecorder.obj
 0001:0002a0b0       ?_GetViewStatus@COPOSSoundRecorder@@QEAAKXZ 000000018002b0b0 f i SoundRecorder.obj
 0001:0002a0c0       ?_InternalQueryInterface@?$CComEnum@UIEnumConnectionPoints@@$1?_GUID_b196b285_bab4_101a_b69c_00aa00341d07@@3U__s_GUID@@BPEAUIConnectionPoint@@V?$_CopyInterface@UIConnectionPoint@@@ATL@@VCComSingleThreadModel@6@@ATL@@QEAAJAEBU_GUID@@PEAPEAX@Z 000000018002b0c0 f i SoundRecorder.obj
 0001:0002a110       ?_InternalQueryInterface@?$CComEnum@UIEnumConnections@@$1?_GUID_b196b287_bab4_101a_b69c_00aa00341d07@@3U__s_GUID@@BUtagCONNECTDATA@@V?$_Copy@UtagCONNECTDATA@@@ATL@@VCComSingleThreadModel@6@@ATL@@QEAAJAEBU_GUID@@PEAPEAX@Z 000000018002b110 f i SoundRecorder.obj
 0001:0002a160       ?_InternalQueryInterface@CComClassFactory@ATL@@QEAAJAEBU_GUID@@PEAPEAX@Z 000000018002b160 f i SoundRecorder.obj
 0001:0002a1b0       ?_InternalQueryInterface@COPOSSoundRecorder@@QEAAJAEBU_GUID@@PEAPEAX@Z 000000018002b1b0 f i SoundRecorder.obj
 0001:0002a200       ?_LocCPQueryInterface@?$IConnectionPointImpl@VCOPOSSoundRecorder@@$1?DIID__IOPOSSoundRecorderEvents@@3U_GUID@@BVCComDynamicUnkArray@ATL@@@ATL@@UEAAJAEBU_GUID@@PEAPEAX@Z 000000018002b200 f i SoundRecorder.obj
 0001:0002a2e0       ?_LocCPQueryInterface@?$IConnectionPointImpl@VCOPOSSoundRecorder@@$1?IID_IPropertyNotifySink@@3U_GUID@@BVCComDynamicUnkArray@ATL@@@ATL@@UEAAJAEBU_GUID@@PEAPEAX@Z 000000018002b2e0 f i SoundRecorder.obj
 0001:0002a3c0       ?atlCreate@?$CWindowImpl@VCOPOSSoundRecorder@@VCWindow@ATL@@V?$CWinTraits@$0FGAAAAAA@$0A@@3@@ATL@@QEAAPEAUHWND__@@PEAU3@V_U_RECT@2@PEB_WKKV_U_MENUorID@2@PEAX@Z 000000018002b3c0 f i SoundRecorder.obj
 0001:0002a4f0       ?atlCreate@?$CWindowImplBaseT@VCWindow@ATL@@V?$CWinTraits@$0FGAAAAAA@$0A@@2@@ATL@@QEAAPEAUHWND__@@PEAU3@V_U_RECT@2@PEB_WKKV_U_MENUorID@2@GPEAX@Z 000000018002b4f0 f i SoundRecorder.obj
 0001:0002a750       ?atlCreate@CRegKey@ATL@@QEAAJPEAUHKEY__@@PEB_WPEA_WKKPEAU_SECURITY_ATTRIBUTES@@PEAK@Z 000000018002b750 f i SoundRecorder.obj
 0001:0002a940       ?begin@CComDynamicUnkArray@ATL@@QEAAPEAPEAUIUnknown@@XZ 000000018002b940 f i SoundRecorder.obj
 0001:0002a950       ?copy@?$_Copy@UtagCONNECTDATA@@@ATL@@SAJPEAUtagCONNECTDATA@@PEBU3@@Z 000000018002b950 f i SoundRecorder.obj
 0001:0002aa40       ?copy@?$_CopyInterface@UIConnectionPoint@@@ATL@@SAJPEAPEAUIConnectionPoint@@PEBQEAU3@@Z 000000018002ba40 f i SoundRecorder.obj
 0001:0002ab30       ?destroy@?$_Copy@UtagCONNECTDATA@@@ATL@@SAXPEAUtagCONNECTDATA@@@Z 000000018002bb30 f i SoundRecorder.obj
 0001:0002ab80       ?destroy@?$_CopyInterface@UIConnectionPoint@@@ATL@@SAXPEAPEAUIConnectionPoint@@@Z 000000018002bb80 f i SoundRecorder.obj
 0001:0002abd0       ?end@CComDynamicUnkArray@ATL@@QEAAPEAPEAUIUnknown@@XZ 000000018002bbd0 f i SoundRecorder.obj
 0001:0002abf0       ?init@?$_Copy@UtagCONNECTDATA@@@ATL@@SAXPEAUtagCONNECTDATA@@@Z 000000018002bbf0 f i SoundRecorder.obj
 0001:0002ac00       ?init@?$_CopyInterface@UIConnectionPoint@@@ATL@@SAXPEAPEAUIConnectionPoint@@@Z 000000018002bc00 f i SoundRecorder.obj
 0001:0002ac10       ?memcpy_s@Checked@ATL@@YAXPEAX_KPEBX1@Z 000000018002bc10 f i SoundRecorder.obj
 0001:0002ac70       ?ocscpy_s@@YA_NPEA_W_KPEB_W@Z 000000018002bc70 f i SoundRecorder.obj
 0001:0002acf0       ?ocslen@@YAHPEB_W@Z        000000018002bcf0 f i SoundRecorder.obj
 0001:0002ad30       ?tcsncpy_s@Checked@ATL@@YAHPEA_W_KPEB_W1@Z 000000018002bd30 f i SoundRecorder.obj
 0001:0002ad90       ?wcscat_s@Checked@ATL@@YAXPEA_W_KPEB_W@Z 000000018002bd90 f i SoundRecorder.obj
 0001:0002ade0       ?wcscpy_s@Checked@ATL@@YAXPEA_W_KPEB_W@Z 000000018002bde0 f i SoundRecorder.obj
 0001:0002ae30       ?wcsncpy_s@Checked@ATL@@YAHPEA_W_KPEB_W1@Z 000000018002be30 f i SoundRecorder.obj
 0001:0002ae90       ?wcsstr@@YAPEA_WPEA_WPEB_W@Z 000000018002be90 f i SoundRecorder.obj
 0001:0002aed0       InlineIsEqualGUID          000000018002bed0 f i SoundRecorder.obj
 0001:0002afa0       IsEqualGUID                000000018002bfa0 f i SoundRecorder.obj
 0001:0002b000       ??0COPOSSoundRecorder@@QEAA@XZ 000000018002c000 f   SoundRecorderImpl.obj
 0001:0002b180       ?FinalConstruct@COPOSSoundRecorder@@QEAAJXZ 000000018002c180 f   SoundRecorderImpl.obj
 0001:0002b270       ??1COPOSSoundRecorder@@UEAA@XZ 000000018002c270 f   SoundRecorderImpl.obj
 0001:0002b350       ?WriteTrace@COPOSSoundRecorder@@QEAAXPEB_WZZ 000000018002c350 f   SoundRecorderImpl.obj
 0001:0002b410       ?WriteTraceString@COPOSSoundRecorder@@QEAAXPEB_WPEA_W@Z 000000018002c410 f   SoundRecorderImpl.obj
 0001:0002b850       ?WriteTraceString@COPOSSoundRecorder@@QEAAXPEAXHHHPEB_WZZ 000000018002c850 f   SoundRecorderImpl.obj
 0001:0002bae0       ?WriteTraceError@COPOSSoundRecorder@@QEAAXPEB_WK@Z 000000018002cae0 f   SoundRecorderImpl.obj
 0001:0002bbe0       ?WriteTraceMethods@COPOSSoundRecorder@@QEAAXPEAJH@Z 000000018002cbe0 f   SoundRecorderImpl.obj
 0001:0002bc70       ?GetOposProp@COPOSSoundRecorder@@IEAAJPEBDJPEAJJ@Z 000000018002cc70 f   SoundRecorderImpl.obj
 0001:0002bf90       ?SetOposProp@COPOSSoundRecorder@@IEAAJPEBDJJJ@Z 000000018002cf90 f   SoundRecorderImpl.obj
 0001:0002c2f0       ?GetOposProp@COPOSSoundRecorder@@IEAAJPEBDJPEAFJ@Z 000000018002d2f0 f   SoundRecorderImpl.obj
 0001:0002c390       ?SetOposProp@COPOSSoundRecorder@@IEAAJPEBDJFJ@Z 000000018002d390 f   SoundRecorderImpl.obj
 0001:0002c410       ?GetOposProp@COPOSSoundRecorder@@IEAAJPEBDJPEAPEA_WJ@Z 000000018002d410 f   SoundRecorderImpl.obj
 0001:0002c730       ?SetOposProp@COPOSSoundRecorder@@IEAAJPEBDJPEA_WJ@Z 000000018002d730 f   SoundRecorderImpl.obj
 0001:0002cb10       ?DoInvoke@COPOSSoundRecorder@@IEAAJPEBDJPEAVOposVariant@@IHPEAJ_N@Z 000000018002db10 f   SoundRecorderImpl.obj
 0001:0002d660       ?SetCOFreezeEvents@COPOSSoundRecorder@@IEAAXF@Z 000000018002e660 f   SoundRecorderImpl.obj
 0001:0002d7f0       ?FreezeEvents@COPOSSoundRecorder@@MEAAJH@Z 000000018002e7f0 f   SoundRecorderImpl.obj
 0001:0002d920       ?OnDraw@COPOSSoundRecorder@@MEAAJAEAUATL_DRAWINFO@@@Z 000000018002e920 f   SoundRecorderImpl.obj
 0001:0002daf0       ?SOProcessID@COPOSSoundRecorder@@UEAAJPEAJ@Z 000000018002eaf0 f   SoundRecorderImpl.obj
 0001:0002db50       ?get_OpenResult@COPOSSoundRecorder@@UEAAJPEAJ@Z 000000018002eb50 f   SoundRecorderImpl.obj
 0001:0002dbb0       ?get_AutoDisable@COPOSSoundRecorder@@UEAAJPEAF@Z 000000018002ebb0 f   SoundRecorderImpl.obj
 0001:0002dc10       ?put_AutoDisable@COPOSSoundRecorder@@UEAAJF@Z 000000018002ec10 f   SoundRecorderImpl.obj
 0001:0002dc70       ?get_BinaryConversion@COPOSSoundRecorder@@UEAAJPEAJ@Z 000000018002ec70 f   SoundRecorderImpl.obj
 0001:0002dcd0       ?put_BinaryConversion@COPOSSoundRecorder@@UEAAJJ@Z 000000018002ecd0 f   SoundRecorderImpl.obj
 0001:0002dd40       ?get_CapPowerReporting@COPOSSoundRecorder@@UEAAJPEAJ@Z 000000018002ed40 f   SoundRecorderImpl.obj
 0001:0002dda0       ?get_CheckHealthText@COPOSSoundRecorder@@UEAAJPEAPEA_W@Z 000000018002eda0 f   SoundRecorderImpl.obj
 0001:0002de00       ?get_Claimed@COPOSSoundRecorder@@UEAAJPEAF@Z 000000018002ee00 f   SoundRecorderImpl.obj
 0001:0002de60       ?get_DataCount@COPOSSoundRecorder@@UEAAJPEAJ@Z 000000018002ee60 f   SoundRecorderImpl.obj
 0001:0002dec0       ?get_DataEventEnabled@COPOSSoundRecorder@@UEAAJPEAF@Z 000000018002eec0 f   SoundRecorderImpl.obj
 0001:0002df20       ?put_DataEventEnabled@COPOSSoundRecorder@@UEAAJF@Z 000000018002ef20 f   SoundRecorderImpl.obj
 0001:0002df80       ?get_DeviceEnabled@COPOSSoundRecorder@@UEAAJPEAF@Z 000000018002ef80 f   SoundRecorderImpl.obj
 0001:0002dfe0       ?put_DeviceEnabled@COPOSSoundRecorder@@UEAAJF@Z 000000018002efe0 f   SoundRecorderImpl.obj
 0001:0002e040       ?get_FreezeEvents@COPOSSoundRecorder@@UEAAJPEAF@Z 000000018002f040 f   SoundRecorderImpl.obj
 0001:0002e0a0       ?put_FreezeEvents@COPOSSoundRecorder@@UEAAJF@Z 000000018002f0a0 f   SoundRecorderImpl.obj
 0001:0002e180       ?get_PowerNotify@COPOSSoundRecorder@@UEAAJPEAJ@Z 000000018002f180 f   SoundRecorderImpl.obj
 0001:0002e1e0       ?put_PowerNotify@COPOSSoundRecorder@@UEAAJJ@Z 000000018002f1e0 f   SoundRecorderImpl.obj
 0001:0002e240       ?get_PowerState@COPOSSoundRecorder@@UEAAJPEAJ@Z 000000018002f240 f   SoundRecorderImpl.obj
 0001:0002e2a0       ?get_ResultCode@COPOSSoundRecorder@@UEAAJPEAJ@Z 000000018002f2a0 f   SoundRecorderImpl.obj
 0001:0002e370       ?get_ResultCodeExtended@COPOSSoundRecorder@@UEAAJPEAJ@Z 000000018002f370 f   SoundRecorderImpl.obj
 0001:0002e3d0       ?get_State@COPOSSoundRecorder@@UEAAJPEAJ@Z 000000018002f3d0 f   SoundRecorderImpl.obj
 0001:0002e460       ?get_ControlObjectDescription@COPOSSoundRecorder@@UEAAJPEAPEA_W@Z 000000018002f460 f   SoundRecorderImpl.obj
 0001:0002e4e0       ?get_ControlObjectVersion@COPOSSoundRecorder@@UEAAJPEAJ@Z 000000018002f4e0 f   SoundRecorderImpl.obj
 0001:0002e540       ?get_ServiceObjectDescription@COPOSSoundRecorder@@UEAAJPEAPEA_W@Z 000000018002f540 f   SoundRecorderImpl.obj
 0001:0002e5a0       ?get_ServiceObjectVersion@COPOSSoundRecorder@@UEAAJPEAJ@Z 000000018002f5a0 f   SoundRecorderImpl.obj
 0001:0002e600       ?get_DeviceDescription@COPOSSoundRecorder@@UEAAJPEAPEA_W@Z 000000018002f600 f   SoundRecorderImpl.obj
 0001:0002e660       ?get_DeviceName@COPOSSoundRecorder@@UEAAJPEAPEA_W@Z 000000018002f660 f   SoundRecorderImpl.obj
 0001:0002e6c0       ?get_CapStatisticsReporting@COPOSSoundRecorder@@UEAAJPEAF@Z 000000018002f6c0 f   SoundRecorderImpl.obj
 0001:0002e720       ?get_CapUpdateStatistics@COPOSSoundRecorder@@UEAAJPEAF@Z 000000018002f720 f   SoundRecorderImpl.obj
 0001:0002e780       ?get_CapCompareFirmwareVersion@COPOSSoundRecorder@@UEAAJPEAF@Z 000000018002f780 f   SoundRecorderImpl.obj
 0001:0002e7e0       ?get_CapUpdateFirmware@COPOSSoundRecorder@@UEAAJPEAF@Z 000000018002f7e0 f   SoundRecorderImpl.obj
 0001:0002e840       ?CheckHealth@COPOSSoundRecorder@@UEAAJJPEAJ@Z 000000018002f840 f   SoundRecorderImpl.obj
 0001:0002e900       ?ClaimDevice@COPOSSoundRecorder@@UEAAJJPEAJ@Z 000000018002f900 f   SoundRecorderImpl.obj
 0001:0002ea20       ?ClearInput@COPOSSoundRecorder@@UEAAJPEAJ@Z 000000018002fa20 f   SoundRecorderImpl.obj
 0001:0002ea90       ?Close@COPOSSoundRecorder@@UEAAJPEAJ@Z 000000018002fa90 f   SoundRecorderImpl.obj
 0001:0002eba0       ?DirectIO@COPOSSoundRecorder@@UEAAJJPEAJPEAPEA_W0@Z 000000018002fba0 f   SoundRecorderImpl.obj
 0001:0002ed20       ?Open@COPOSSoundRecorder@@UEAAJPEA_WPEAJ@Z 000000018002fd20 f   SoundRecorderImpl.obj
 0001:00030200       ?ReleaseDevice@COPOSSoundRecorder@@UEAAJPEAJ@Z 0000000180031200 f   SoundRecorderImpl.obj
 0001:000302b0       ?ResetStatistics@COPOSSoundRecorder@@UEAAJPEA_WPEAJ@Z 00000001800312b0 f   SoundRecorderImpl.obj
 0001:00030390       ?RetrieveStatistics@COPOSSoundRecorder@@UEAAJPEAPEA_WPEAJ@Z 0000000180031390 f   SoundRecorderImpl.obj
 0001:00030470       ?UpdateStatistics@COPOSSoundRecorder@@UEAAJPEA_WPEAJ@Z 0000000180031470 f   SoundRecorderImpl.obj
 0001:00030550       ?CompareFirmwareVersion@COPOSSoundRecorder@@UEAAJPEA_WPEAJ1@Z 0000000180031550 f   SoundRecorderImpl.obj
 0001:00030690       ?UpdateFirmware@COPOSSoundRecorder@@UEAAJPEA_WPEAJ@Z 0000000180031690 f   SoundRecorderImpl.obj
 0001:00030770       ?ClearInputProperties@COPOSSoundRecorder@@UEAAJPEAJ@Z 0000000180031770 f   SoundRecorderImpl.obj
 0001:000307e0       ?get_CapAssociatedHardTotalsDevice@COPOSSoundRecorder@@UEAAJPEAPEA_W@Z 00000001800317e0 f   SoundRecorderImpl.obj
 0001:00030840       ?get_CapChannel@COPOSSoundRecorder@@UEAAJPEAF@Z 0000000180031840 f   SoundRecorderImpl.obj
 0001:000308a0       ?get_CapRecordingLevel@COPOSSoundRecorder@@UEAAJPEAF@Z 00000001800318a0 f   SoundRecorderImpl.obj
 0001:00030900       ?get_CapSamplingRate@COPOSSoundRecorder@@UEAAJPEAF@Z 0000000180031900 f   SoundRecorderImpl.obj
 0001:00030960       ?get_CapSoundType@COPOSSoundRecorder@@UEAAJPEAF@Z 0000000180031960 f   SoundRecorderImpl.obj
 0001:000309c0       ?get_CapStorage@COPOSSoundRecorder@@UEAAJPEAJ@Z 00000001800319c0 f   SoundRecorderImpl.obj
 0001:00030a20       ?get_Channel@COPOSSoundRecorder@@UEAAJPEAPEA_W@Z 0000000180031a20 f   SoundRecorderImpl.obj
 0001:00030a80       ?put_Channel@COPOSSoundRecorder@@UEAAJPEA_W@Z 0000000180031a80 f   SoundRecorderImpl.obj
 0001:00030ae0       ?get_ChannelList@COPOSSoundRecorder@@UEAAJPEAPEA_W@Z 0000000180031ae0 f   SoundRecorderImpl.obj
 0001:00030b40       ?get_RecordingLevel@COPOSSoundRecorder@@UEAAJPEAJ@Z 0000000180031b40 f   SoundRecorderImpl.obj
 0001:00030ba0       ?put_RecordingLevel@COPOSSoundRecorder@@UEAAJJ@Z 0000000180031ba0 f   SoundRecorderImpl.obj
 0001:00030c00       ?get_RemainingRecordingTimeInSec@COPOSSoundRecorder@@UEAAJPEAJ@Z 0000000180031c00 f   SoundRecorderImpl.obj
 0001:00030c60       ?get_SamplingRate@COPOSSoundRecorder@@UEAAJPEAPEA_W@Z 0000000180031c60 f   SoundRecorderImpl.obj
 0001:00030cc0       ?put_SamplingRate@COPOSSoundRecorder@@UEAAJPEA_W@Z 0000000180031cc0 f   SoundRecorderImpl.obj
 0001:00030d20       ?get_SamplingRateList@COPOSSoundRecorder@@UEAAJPEAPEA_W@Z 0000000180031d20 f   SoundRecorderImpl.obj
 0001:00030d80       ?get_SoundData@COPOSSoundRecorder@@UEAAJPEAPEA_W@Z 0000000180031d80 f   SoundRecorderImpl.obj
 0001:00030de0       ?get_SoundType@COPOSSoundRecorder@@UEAAJPEAPEA_W@Z 0000000180031de0 f   SoundRecorderImpl.obj
 0001:00030e40       ?put_SoundType@COPOSSoundRecorder@@UEAAJPEA_W@Z 0000000180031e40 f   SoundRecorderImpl.obj
 0001:00030ea0       ?get_SoundTypeList@COPOSSoundRecorder@@UEAAJPEAPEA_W@Z 0000000180031ea0 f   SoundRecorderImpl.obj
 0001:00030f00       ?get_Storage@COPOSSoundRecorder@@UEAAJPEAJ@Z 0000000180031f00 f   SoundRecorderImpl.obj
 0001:00030f60       ?put_Storage@COPOSSoundRecorder@@UEAAJJ@Z 0000000180031f60 f   SoundRecorderImpl.obj
 0001:00030fc0       ?StartRecording@COPOSSoundRecorder@@UEAAJPEA_WFJPEAJ@Z 0000000180031fc0 f   SoundRecorderImpl.obj
 0001:00031130       ?StopRecording@COPOSSoundRecorder@@UEAAJPEAJ@Z 0000000180032130 f   SoundRecorderImpl.obj
 0001:00031190       ??0?$CComControl@VCOPOSSoundRecorder@@V?$CWindowImpl@VCOPOSSoundRecorder@@VCWindow@ATL@@V?$CWinTraits@$0FGAAAAAA@$0A@@3@@ATL@@@ATL@@QEAA@XZ 0000000180032190 f i SoundRecorderImpl.obj
 0001:000311e0       ??0?$CComPtr@UIAdviseSink@@@ATL@@QEAA@XZ 00000001800321e0 f i SoundRecorderImpl.obj
 0001:00031220       ??0?$CComPtr@UIDataAdviseHolder@@@ATL@@QEAA@XZ 0000000180032220 f i SoundRecorderImpl.obj
 0001:00031260       ??0?$CComPtr@UIOleAdviseHolder@@@ATL@@QEAA@XZ 0000000180032260 f i SoundRecorderImpl.obj
 0001:000312a0       ??0?$CComPtr@UIOleClientSite@@@ATL@@QEAA@XZ 00000001800322a0 f i SoundRecorderImpl.obj
 0001:000312e0       ??0?$CComPtr@UIOleInPlaceSiteWindowless@@@ATL@@QEAA@XZ 00000001800322e0 f i SoundRecorderImpl.obj
 0001:00031320       ??0?$CComPtrBase@UIAdviseSink@@@ATL@@IEAA@XZ 0000000180032320 f i SoundRecorderImpl.obj
 0001:00031340       ??0?$CComPtrBase@UIDataAdviseHolder@@@ATL@@IEAA@XZ 0000000180032340 f i SoundRecorderImpl.obj
 0001:00031360       ??0?$CComPtrBase@UIOleAdviseHolder@@@ATL@@IEAA@XZ 0000000180032360 f i SoundRecorderImpl.obj
 0001:00031380       ??0?$CComPtrBase@UIOleClientSite@@@ATL@@IEAA@XZ 0000000180032380 f i SoundRecorderImpl.obj
 0001:000313a0       ??0?$CComPtrBase@UIOleInPlaceSiteWindowless@@@ATL@@IEAA@XZ 00000001800323a0 f i SoundRecorderImpl.obj
 0001:000313c0       ??0?$CComQIPtr@UIDispatch@@$1?_GUID_00020400_0000_0000_c000_000000000046@@3U__s_GUID@@B@ATL@@QEAA@XZ 00000001800323c0 f i SoundRecorderImpl.obj
 0001:00031400       ??0?$CProxy_IOPOSEvents@VCOPOSSoundRecorder@@@@QEAA@PEAVCOPOSSoundRecorder@@@Z 0000000180032400 f i SoundRecorderImpl.obj
 0001:000314a0       ??0?$CWindowImpl@VCOPOSSoundRecorder@@VCWindow@ATL@@V?$CWinTraits@$0FGAAAAAA@$0A@@3@@ATL@@QEAA@XZ 00000001800324a0 f i SoundRecorderImpl.obj
 0001:000314e0       ??0?$CWindowImplBaseT@VCWindow@ATL@@V?$CWinTraits@$0FGAAAAAA@$0A@@2@@ATL@@QEAA@XZ 00000001800324e0 f i SoundRecorderImpl.obj
 0001:00031530       ??0?$CWindowImplRoot@VCWindow@ATL@@@ATL@@QEAA@XZ 0000000180032530 f i SoundRecorderImpl.obj
 0001:000315a0       ??0?$IConnectionPointContainerImpl@VCOPOSSoundRecorder@@@ATL@@QEAA@XZ 00000001800325a0 f i SoundRecorderImpl.obj
 0001:000315e0       ??0?$IConnectionPointImpl@VCOPOSSoundRecorder@@$1?DIID__IOPOSSoundRecorderEvents@@3U_GUID@@BVCComDynamicUnkArray@ATL@@@ATL@@QEAA@XZ 00000001800325e0 f i SoundRecorderImpl.obj
 0001:00031630       ??0?$IConnectionPointImpl@VCOPOSSoundRecorder@@$1?IID_IPropertyNotifySink@@3U_GUID@@BVCComDynamicUnkArray@ATL@@@ATL@@QEAA@XZ 0000000180032630 f i SoundRecorderImpl.obj
 0001:00031680       ??0?$IDataObjectImpl@VCOPOSSoundRecorder@@@ATL@@QEAA@XZ 0000000180032680 f i SoundRecorderImpl.obj
 0001:000316c0       ??0?$IDispatchImpl@UIOPOSSoundRecorder@@$1?IID_IOPOSSoundRecorder@@3U_GUID@@B$1?LIBID_OposSoundRecorder_CCO@@3U3@B$00$0A@VCComTypeInfoHolder@ATL@@@ATL@@QEAA@XZ 00000001800326c0 f i SoundRecorderImpl.obj
 0001:00031700       ??0?$IObjectSafetyImpl@VCOPOSSoundRecorder@@$02@ATL@@QEAA@XZ 0000000180032700 f i SoundRecorderImpl.obj
 0001:00031740       ??0?$IOleControlImpl@VCOPOSSoundRecorder@@@ATL@@QEAA@XZ 0000000180032740 f i SoundRecorderImpl.obj
 0001:00031780       ??0?$IOleInPlaceActiveObjectImpl@VCOPOSSoundRecorder@@@ATL@@QEAA@XZ 0000000180032780 f i SoundRecorderImpl.obj
 0001:000317c0       ??0?$IOleInPlaceObjectWindowlessImpl@VCOPOSSoundRecorder@@@ATL@@QEAA@XZ 00000001800327c0 f i SoundRecorderImpl.obj
 0001:00031800       ??0?$IOleObjectImpl@VCOPOSSoundRecorder@@@ATL@@QEAA@XZ 0000000180032800 f i SoundRecorderImpl.obj
 0001:00031840       ??0?$IPersistStorageImpl@VCOPOSSoundRecorder@@@ATL@@QEAA@XZ 0000000180032840 f i SoundRecorderImpl.obj
 0001:00031880       ??0?$IPersistStreamInitImpl@VCOPOSSoundRecorder@@@ATL@@QEAA@XZ 0000000180032880 f i SoundRecorderImpl.obj
 0001:000318c0       ??0?$IPropertyNotifySinkCP@VCOPOSSoundRecorder@@VCComDynamicUnkArray@ATL@@@ATL@@QEAA@XZ 00000001800328c0 f i SoundRecorderImpl.obj
 0001:00031900       ??0?$IProvideClassInfo2Impl@$1?CLSID_OPOSSoundRecorder@@3U_GUID@@B$1?DIID__IOPOSSoundRecorderEvents@@3U2@B$1?LIBID_OposSoundRecorder_CCO@@3U2@B$00$0A@VCComTypeInfoHolder@ATL@@@ATL@@QEAA@XZ 0000000180032900 f i SoundRecorderImpl.obj
 0001:00031940       ??0?$IQuickActivateImpl@VCOPOSSoundRecorder@@@ATL@@QEAA@XZ 0000000180032940 f i SoundRecorderImpl.obj
 0001:00031980       ??0?$ISpecifyPropertyPagesImpl@VCOPOSSoundRecorder@@@ATL@@QEAA@XZ 0000000180032980 f i SoundRecorderImpl.obj
 0001:000319c0       ??0?$IViewObjectExImpl@VCOPOSSoundRecorder@@@ATL@@QEAA@XZ 00000001800329c0 f i SoundRecorderImpl.obj
 0001:00031a00       ??0?$_ICPLocator@$1?DIID__IOPOSSoundRecorderEvents@@3U_GUID@@B@ATL@@QEAA@XZ 0000000180032a00 f i SoundRecorderImpl.obj
 0001:00031a10       ??0?$_ICPLocator@$1?IID_IPropertyNotifySink@@3U_GUID@@B@ATL@@QEAA@XZ 0000000180032a10 f i SoundRecorderImpl.obj
 0001:00031a20       ??0CComControlBase@ATL@@QEAA@AEAPEAUHWND__@@@Z 0000000180032a20 f i SoundRecorderImpl.obj
 0001:00031c40       ??0CComDynamicUnkArray@ATL@@QEAA@XZ 0000000180032c40 f i SoundRecorderImpl.obj
 0001:00031c70       ??0CDynamicStdCallThunk2@ATL@@QEAA@XZ 0000000180032c70 f i SoundRecorderImpl.obj
 0001:00031c90       ??0CMessageMap@ATL@@QEAA@XZ 0000000180032c90 f i SoundRecorderImpl.obj
 0001:00031ca0       ??0CWindow@ATL@@QEAA@PEAUHWND__@@@Z 0000000180032ca0 f i SoundRecorderImpl.obj
 0001:00031cc0       ??0CWndProcThunk@ATL@@QEAA@XZ 0000000180032cc0 f i SoundRecorderImpl.obj
 0001:00031d00       ??0IConnectionPointContainer@@QEAA@XZ 0000000180032d00 f i SoundRecorderImpl.obj
 0001:00031d40       ??0IDataObject@@QEAA@XZ    0000000180032d40 f i SoundRecorderImpl.obj
 0001:00031d80       ??0IDispatch@@QEAA@XZ      0000000180032d80 f i SoundRecorderImpl.obj
 0001:00031dc0       ??0IOPOSSoundRecorder@@QEAA@XZ 0000000180032dc0 f i SoundRecorderImpl.obj
 0001:00031e00       ??0IOPOSSoundRecorder_1_16@@QEAA@XZ 0000000180032e00 f i SoundRecorderImpl.obj
 0001:00031e40       ??0IObjectSafety@@QEAA@XZ  0000000180032e40 f i SoundRecorderImpl.obj
 0001:00031e80       ??0IOleControl@@QEAA@XZ    0000000180032e80 f i SoundRecorderImpl.obj
 0001:00031ec0       ??0IOleInPlaceActiveObject@@QEAA@XZ 0000000180032ec0 f i SoundRecorderImpl.obj
 0001:00031f00       ??0IOleInPlaceObject@@QEAA@XZ 0000000180032f00 f i SoundRecorderImpl.obj
 0001:00031f40       ??0IOleInPlaceObjectWindowless@@QEAA@XZ 0000000180032f40 f i SoundRecorderImpl.obj
 0001:00031f80       ??0IOleObject@@QEAA@XZ     0000000180032f80 f i SoundRecorderImpl.obj
 0001:00031fc0       ??0IOleWindow@@QEAA@XZ     0000000180032fc0 f i SoundRecorderImpl.obj
 0001:00032000       ??0IPersist@@QEAA@XZ       0000000180033000 f i SoundRecorderImpl.obj
 0001:00032040       ??0IPersistStorage@@QEAA@XZ 0000000180033040 f i SoundRecorderImpl.obj
 0001:00032080       ??0IPersistStreamInit@@QEAA@XZ 0000000180033080 f i SoundRecorderImpl.obj
 0001:000320c0       ??0IProvideClassInfo2@@QEAA@XZ 00000001800330c0 f i SoundRecorderImpl.obj
 0001:00032100       ??0IProvideClassInfo@@QEAA@XZ 0000000180033100 f i SoundRecorderImpl.obj
 0001:00032140       ??0IQuickActivate@@QEAA@XZ 0000000180033140 f i SoundRecorderImpl.obj
 0001:00032180       ??0ISpecifyPropertyPages@@QEAA@XZ 0000000180033180 f i SoundRecorderImpl.obj
 0001:000321c0       ??0IViewObject2@@QEAA@XZ   00000001800331c0 f i SoundRecorderImpl.obj
 0001:00032200       ??0IViewObject@@QEAA@XZ    0000000180033200 f i SoundRecorderImpl.obj
 0001:00032240       ??0IViewObjectEx@@QEAA@XZ  0000000180033240 f i SoundRecorderImpl.obj
 0001:00032280       ??0OposVariantResult@@QEAA@XZ 0000000180033280 f i SoundRecorderImpl.obj
 0001:000322c0       ??0_CW@@QEAA@PEBD@Z        00000001800332c0 f i SoundRecorderImpl.obj
 0001:00032310       ??0_CW@@QEAA@PEB_W@Z       0000000180033310 f i SoundRecorderImpl.obj
 0001:00032360       ??0_CWNCC@@QEAA@PEBD@Z     0000000180033360 f i SoundRecorderImpl.obj
 0001:000323a0       ??1?$CComControl@VCOPOSSoundRecorder@@V?$CWindowImpl@VCOPOSSoundRecorder@@VCWindow@ATL@@V?$CWinTraits@$0FGAAAAAA@$0A@@3@@ATL@@@ATL@@UEAA@XZ 00000001800333a0 f i SoundRecorderImpl.obj
 0001:000323e0       ??1?$CComPtr@UIDataAdviseHolder@@@ATL@@QEAA@XZ 00000001800333e0 f i SoundRecorderImpl.obj
 0001:00032410       ??1?$CComPtr@UIOleAdviseHolder@@@ATL@@QEAA@XZ 0000000180033410 f i SoundRecorderImpl.obj
 0001:00032440       ??1?$CComPtr@UIOleInPlaceSiteWindowless@@@ATL@@QEAA@XZ 0000000180033440 f i SoundRecorderImpl.obj
 0001:00032470       ??1?$CComPtrBase@UIDataAdviseHolder@@@ATL@@QEAA@XZ 0000000180033470 f i SoundRecorderImpl.obj
 0001:000324c0       ??1?$CComPtrBase@UIOleAdviseHolder@@@ATL@@QEAA@XZ 00000001800334c0 f i SoundRecorderImpl.obj
 0001:00032510       ??1?$CComPtrBase@UIOleInPlaceSiteWindowless@@@ATL@@QEAA@XZ 0000000180033510 f i SoundRecorderImpl.obj
 0001:00032560       ??1?$CComQIPtr@UIDispatch@@$1?_GUID_00020400_0000_0000_c000_000000000046@@3U__s_GUID@@B@ATL@@QEAA@XZ 0000000180033560 f i SoundRecorderImpl.obj
 0001:00032590       ??1?$CProxy_IOPOSEvents@VCOPOSSoundRecorder@@@@QEAA@XZ 0000000180033590 f i SoundRecorderImpl.obj
 0001:000325c0       ??1?$CWindowImpl@VCOPOSSoundRecorder@@VCWindow@ATL@@V?$CWinTraits@$0FGAAAAAA@$0A@@3@@ATL@@UEAA@XZ 00000001800335c0 f i SoundRecorderImpl.obj
 0001:000325f0       ??1?$CWindowImplBaseT@VCWindow@ATL@@V?$CWinTraits@$0FGAAAAAA@$0A@@2@@ATL@@UEAA@XZ 00000001800335f0 f i SoundRecorderImpl.obj
 0001:00032620       ??1?$CWindowImplRoot@VCWindow@ATL@@@ATL@@UEAA@XZ 0000000180033620 f i SoundRecorderImpl.obj
 0001:000326e0       ??1?$IConnectionPointImpl@VCOPOSSoundRecorder@@$1?DIID__IOPOSSoundRecorderEvents@@3U_GUID@@BVCComDynamicUnkArray@ATL@@@ATL@@QEAA@XZ 00000001800336e0 f i SoundRecorderImpl.obj
 0001:00032780       ??1?$IConnectionPointImpl@VCOPOSSoundRecorder@@$1?IID_IPropertyNotifySink@@3U_GUID@@BVCComDynamicUnkArray@ATL@@@ATL@@QEAA@XZ 0000000180033780 f i SoundRecorderImpl.obj
 0001:00032820       ??1?$IPropertyNotifySinkCP@VCOPOSSoundRecorder@@VCComDynamicUnkArray@ATL@@@ATL@@QEAA@XZ 0000000180033820 f i SoundRecorderImpl.obj
 0001:00032850       ??1CComControlBase@ATL@@UEAA@XZ 0000000180033850 f i SoundRecorderImpl.obj
 0001:00032940       ??1CComDynamicUnkArray@ATL@@QEAA@XZ 0000000180033940 f i SoundRecorderImpl.obj
 0001:00032980       ??1CDynamicStdCallThunk2@ATL@@QEAA@XZ 0000000180033980 f i SoundRecorderImpl.obj
 0001:000329c0       ??1CWndProcThunk@ATL@@QEAA@XZ 00000001800339c0 f i SoundRecorderImpl.obj
 0001:00032a00       ??1OposVariantResult@@QEAA@XZ 0000000180033a00 f i SoundRecorderImpl.obj
 0001:00032a40       ??1_CW@@QEAA@XZ            0000000180033a40 f i SoundRecorderImpl.obj
 0001:00032ac0       ??1_CWNCC@@QEAA@XZ         0000000180033ac0 f i SoundRecorderImpl.obj
 0001:00032af0       ??B_CW@@QEAAPEB_WXZ        0000000180033af0 f i SoundRecorderImpl.obj
 0001:00032b40       ??B_CWNCC@@QEAAPEA_WXZ     0000000180033b40 f i SoundRecorderImpl.obj
 0001:00032b70       ??_EOposVariant@@QEAAPEAXI@Z 0000000180033b70 f i SoundRecorderImpl.obj
 0001:00032c20       ?EventClaim@COPOSSoundRecorder@@IEAAXXZ 0000000180033c20 f i SoundRecorderImpl.obj
 0001:00032c70       ?EventClose@COPOSSoundRecorder@@IEAAXXZ 0000000180033c70 f i SoundRecorderImpl.obj
 0001:00032d10       ?EventInit@COPOSSoundRecorder@@IEAAJXZ 0000000180033d10 f i SoundRecorderImpl.obj
 0001:00032fc0       ?EventOpen@COPOSSoundRecorder@@IEAAXXZ 0000000180033fc0 f i SoundRecorderImpl.obj
 0001:00033000       ?EventPreCloseRelease@COPOSSoundRecorder@@IEAAXXZ 0000000180034000 f i SoundRecorderImpl.obj
 0001:00033080       ?EventUninit@COPOSSoundRecorder@@IEAAXXZ 0000000180034080 f i SoundRecorderImpl.obj
 0001:000331b0       ?EventWindowProc@COPOSSoundRecorder@@IEAA_JI_K_J@Z 00000001800341b0 f i SoundRecorderImpl.obj
 0001:00033380       ?FireEventCleanup@COPOSSoundRecorder@@IEAAXXZ 0000000180034380 f i SoundRecorderImpl.obj
 0001:000333d0       ?FireEventSetup@COPOSSoundRecorder@@IEAA_NXZ 00000001800343d0 f i SoundRecorderImpl.obj
 0001:00033450       ?GetModuleInstance@CComModule@ATL@@QEAAPEAUHINSTANCE__@@XZ 0000000180034450 f i SoundRecorderImpl.obj
 0001:00033460       ?SetRC@COPOSSoundRecorder@@IEAAJJ@Z 0000000180034460 f i SoundRecorderImpl.obj
 0001:00033480       ?s_EventWindowProc@COPOSSoundRecorder@@KA_JPEAUHWND__@@I_K_J@Z 0000000180034480 f i SoundRecorderImpl.obj
 0001:00033530       _snwprintf                 0000000180034530 f i SoundRecorderImpl.obj
 0001:000335c0       _vfwprintf_l               00000001800345c0 f i SoundRecorderImpl.obj
 0001:00033620       _vsnwprintf                0000000180034620 f i SoundRecorderImpl.obj
 0001:00033680       _vsnwprintf_l              0000000180034680 f i SoundRecorderImpl.obj
 0001:00033710       vfwprintf                  0000000180034710 f i SoundRecorderImpl.obj
 0001:00033755       DebugBreak                 0000000180034755 f   kernel32:KERNEL32.dll
 0001:0003375b       Sleep                      000000018003475b f   kernel32:KERNEL32.dll
 0001:00033761       GetCurrentProcess          0000000180034761 f   kernel32:KERNEL32.dll
 0001:00033767       TerminateProcess           0000000180034767 f   kernel32:KERNEL32.dll
 0001:0003376d       MultiByteToWideChar        000000018003476d f   kernel32:KERNEL32.dll
 0001:00033773       WideCharToMultiByte        0000000180034773 f   kernel32:KERNEL32.dll
 0001:00033779       DecodePointer              0000000180034779 f   kernel32:KERNEL32.dll
 0001:0003377f       RaiseException             000000018003477f f   kernel32:KERNEL32.dll
 0001:00033785       GetLastError               0000000180034785 f   kernel32:KERNEL32.dll
 0001:0003378b       SetLastError               000000018003478b f   kernel32:KERNEL32.dll
 0001:00033791       InitializeCriticalSectionEx 0000000180034791 f   kernel32:KERNEL32.dll
 0001:00033797       DeleteCriticalSection      0000000180034797 f   kernel32:KERNEL32.dll
 0001:0003379d       EncodePointer              000000018003479d f   kernel32:KERNEL32.dll
 0001:000337a3       EnterCriticalSection       00000001800347a3 f   kernel32:KERNEL32.dll
 0001:000337a9       LeaveCriticalSection       00000001800347a9 f   kernel32:KERNEL32.dll
 0001:000337af       ResetEvent                 00000001800347af f   kernel32:KERNEL32.dll
 0001:000337b5       ReleaseMutex               00000001800347b5 f   kernel32:KERNEL32.dll
 0001:000337bb       WaitForSingleObject        00000001800347bb f   kernel32:KERNEL32.dll
 0001:000337c1       GetCurrentThreadId         00000001800347c1 f   kernel32:KERNEL32.dll
 0001:000337c7       DisableThreadLibraryCalls  00000001800347c7 f   kernel32:KERNEL32.dll
 0001:000337cd       FreeLibrary                00000001800347cd f   kernel32:KERNEL32.dll
 0001:000337d3       GetModuleFileNameW         00000001800347d3 f   kernel32:KERNEL32.dll
 0001:000337d9       GetModuleHandleW           00000001800347d9 f   kernel32:KERNEL32.dll
 0001:000337df       GetProcAddress             00000001800347df f   kernel32:KERNEL32.dll
 0001:000337e5       LoadLibraryExW             00000001800347e5 f   kernel32:KERNEL32.dll
 0001:000337eb       LoadResource               00000001800347eb f   kernel32:KERNEL32.dll
 0001:000337f1       SizeofResource             00000001800347f1 f   kernel32:KERNEL32.dll
 0001:000337f7       FindResourceW              00000001800347f7 f   kernel32:KERNEL32.dll
 0001:000337fd       GlobalAlloc                00000001800347fd f   kernel32:KERNEL32.dll
 0001:00033803       GlobalUnlock               0000000180034803 f   kernel32:KERNEL32.dll
 0001:00033809       GlobalLock                 0000000180034809 f   kernel32:KERNEL32.dll
 0001:0003380f       MulDiv                     000000018003480f f   kernel32:KERNEL32.dll
 0001:00033815       lstrcmpiW                  0000000180034815 f   kernel32:KERNEL32.dll
 0001:0003381b       DeleteFileW                000000018003481b f   kernel32:KERNEL32.dll
 0001:00033821       CloseHandle                0000000180034821 f   kernel32:KERNEL32.dll
 0001:00033827       SetEvent                   0000000180034827 f   kernel32:KERNEL32.dll
 0001:0003382d       CreateMutexW               000000018003482d f   kernel32:KERNEL32.dll
 0001:00033833       CreateEventW               0000000180034833 f   kernel32:KERNEL32.dll
 0001:00033839       GetCurrentProcessId        0000000180034839 f   kernel32:KERNEL32.dll
 0001:0003383f       LocalFree                  000000018003483f f   kernel32:KERNEL32.dll
 0001:00033845       FormatMessageW             0000000180034845 f   kernel32:KERNEL32.dll
 0001:0003384b       GetActiveWindow            000000018003484b f   user32:USER32.dll
 0001:00033851       MessageBoxW                0000000180034851 f   user32:USER32.dll
 0001:00033857       UnregisterClassW           0000000180034857 f   user32:USER32.dll
 0001:0003385d       PostMessageW               000000018003485d f   user32:USER32.dll
 0001:00033863       DefWindowProcW             0000000180034863 f   user32:USER32.dll
 0001:00033869       CallWindowProcW            0000000180034869 f   user32:USER32.dll
 0001:0003386f       RegisterClassExW           000000018003486f f   user32:USER32.dll
 0001:00033875       GetClassInfoExW            0000000180034875 f   user32:USER32.dll
 0001:0003387b       CreateWindowExW            000000018003487b f   user32:USER32.dll
 0001:00033881       IsWindow                   0000000180034881 f   user32:USER32.dll
 0001:00033887       IsChild                    0000000180034887 f   user32:USER32.dll
 0001:0003388d       DestroyWindow              000000018003488d f   user32:USER32.dll
 0001:00033893       ShowWindow                 0000000180034893 f   user32:USER32.dll
 0001:00033899       SetWindowPos               0000000180034899 f   user32:USER32.dll
 0001:0003389f       CharNextW                  000000018003489f f   user32:USER32.dll
 0001:000338a5       SetFocus                   00000001800348a5 f   user32:USER32.dll
 0001:000338ab       GetFocus                   00000001800348ab f   user32:USER32.dll
 0001:000338b1       GetKeyState                00000001800348b1 f   user32:USER32.dll
 0001:000338b7       GetDC                      00000001800348b7 f   user32:USER32.dll
 0001:000338bd       ReleaseDC                  00000001800348bd f   user32:USER32.dll
 0001:000338c3       BeginPaint                 00000001800348c3 f   user32:USER32.dll
 0001:000338c9       EndPaint                   00000001800348c9 f   user32:USER32.dll
 0001:000338cf       SetWindowRgn               00000001800348cf f   user32:USER32.dll
 0001:000338d5       InvalidateRect             00000001800348d5 f   user32:USER32.dll
 0001:000338db       GetClientRect              00000001800348db f   user32:USER32.dll
 0001:000338e1       IntersectRect              00000001800348e1 f   user32:USER32.dll
 0001:000338e7       UnionRect                  00000001800348e7 f   user32:USER32.dll
 0001:000338ed       OffsetRect                 00000001800348ed f   user32:USER32.dll
 0001:000338f3       EqualRect                  00000001800348f3 f   user32:USER32.dll
 0001:000338f9       PtInRect                   00000001800348f9 f   user32:USER32.dll
 0001:000338ff       GetWindowLongPtrW          00000001800348ff f   user32:USER32.dll
 0001:00033905       SetWindowLongPtrW          0000000180034905 f   user32:USER32.dll
 0001:0003390b       GetParent                  000000018003490b f   user32:USER32.dll
 0001:00033911       LoadCursorW                0000000180034911 f   user32:USER32.dll
 0001:00033917       PeekMessageW               0000000180034917 f   user32:USER32.dll
 0001:0003391d       RegisterClassW             000000018003491d f   user32:USER32.dll
 0001:00033923       LoadBitmapW                0000000180034923 f   user32:USER32.dll
 0001:00033929       CloseMetaFile              0000000180034929 f   gdi32:GDI32.dll
 0001:0003392f       CreateDCW                  000000018003492f f   gdi32:GDI32.dll
 0001:00033935       CreateMetaFileW            0000000180034935 f   gdi32:GDI32.dll
 0001:0003393b       CreateRectRgnIndirect      000000018003493b f   gdi32:GDI32.dll
 0001:00033941       DeleteDC                   0000000180034941 f   gdi32:GDI32.dll
 0001:00033947       DeleteMetaFile             0000000180034947 f   gdi32:GDI32.dll
 0001:0003394d       GetDeviceCaps              000000018003494d f   gdi32:GDI32.dll
 0001:00033953       RestoreDC                  0000000180034953 f   gdi32:GDI32.dll
 0001:00033959       SaveDC                     0000000180034959 f   gdi32:GDI32.dll
 0001:0003395f       SetMapMode                 000000018003495f f   gdi32:GDI32.dll
 0001:00033965       LPtoDP                     0000000180034965 f   gdi32:GDI32.dll
 0001:0003396b       SetViewportOrgEx           000000018003496b f   gdi32:GDI32.dll
 0001:00033971       SetWindowExtEx             0000000180034971 f   gdi32:GDI32.dll
 0001:00033977       SetWindowOrgEx             0000000180034977 f   gdi32:GDI32.dll
 0001:0003397d       BitBlt                     000000018003497d f   gdi32:GDI32.dll
 0001:00033983       CreateCompatibleDC         0000000180034983 f   gdi32:GDI32.dll
 0001:00033989       DeleteObject               0000000180034989 f   gdi32:GDI32.dll
 0001:0003398f       SelectObject               000000018003498f f   gdi32:GDI32.dll
 0001:00033995       GetObjectW                 0000000180034995 f   gdi32:GDI32.dll
 0001:0003399b       RegCloseKey                000000018003499b f   advapi32:ADVAPI32.dll
 0001:000339a1       RegCreateKeyExW            00000001800349a1 f   advapi32:ADVAPI32.dll
 0001:000339a7       RegDeleteKeyW              00000001800349a7 f   advapi32:ADVAPI32.dll
 0001:000339ad       RegDeleteValueW            00000001800349ad f   advapi32:ADVAPI32.dll
 0001:000339b3       RegEnumKeyExW              00000001800349b3 f   advapi32:ADVAPI32.dll
 0001:000339b9       RegOpenKeyExW              00000001800349b9 f   advapi32:ADVAPI32.dll
 0001:000339bf       RegQueryInfoKeyW           00000001800349bf f   advapi32:ADVAPI32.dll
 0001:000339c5       RegSetValueExW             00000001800349c5 f   advapi32:ADVAPI32.dll
 0001:000339cb       RegQueryValueExW           00000001800349cb f   advapi32:ADVAPI32.dll
 0001:000339d1       CoCreateInstance           00000001800349d1 f   ole32:ole32.dll
 0001:000339d7       StringFromGUID2            00000001800349d7 f   ole32:ole32.dll
 0001:000339dd       CoTaskMemAlloc             00000001800349dd f   ole32:ole32.dll
 0001:000339e3       CoTaskMemRealloc           00000001800349e3 f   ole32:ole32.dll
 0001:000339e9       CoTaskMemFree              00000001800349e9 f   ole32:ole32.dll
 0001:000339ef       ReadClassStm               00000001800349ef f   ole32:ole32.dll
 0001:000339f5       WriteClassStm              00000001800349f5 f   ole32:ole32.dll
 0001:000339fb       CreateDataAdviseHolder     00000001800349fb f   ole32:ole32.dll
 0001:00033a01       OleSaveToStream            0000000180034a01 f   ole32:ole32.dll
 0001:00033a07       CreateOleAdviseHolder      0000000180034a07 f   ole32:ole32.dll
 0001:00033a0d       OleRegGetUserType          0000000180034a0d f   ole32:ole32.dll
 0001:00033a13       OleRegGetMiscStatus        0000000180034a13 f   ole32:ole32.dll
 0001:00033a19       OleRegEnumVerbs            0000000180034a19 f   ole32:ole32.dll
 0001:00033a1f       CLSIDFromProgID            0000000180034a1f f   ole32:ole32.dll
 0001:00033a25       SysAllocString             0000000180034a25 f   oleaut32:OLEAUT32.dll
 0001:00033a2b       SysAllocStringLen          0000000180034a2b f   oleaut32:OLEAUT32.dll
 0001:00033a31       SysFreeString              0000000180034a31 f   oleaut32:OLEAUT32.dll
 0001:00033a37       SysStringLen               0000000180034a37 f   oleaut32:OLEAUT32.dll
 0001:00033a3d       VariantClear               0000000180034a3d f   oleaut32:OLEAUT32.dll
 0001:00033a43       VariantCopyInd             0000000180034a43 f   oleaut32:OLEAUT32.dll
 0001:00033a49       VariantChangeType          0000000180034a49 f   oleaut32:OLEAUT32.dll
 0001:00033a4f       SysStringByteLen           0000000180034a4f f   oleaut32:OLEAUT32.dll
 0001:00033a55       SysAllocStringByteLen      0000000180034a55 f   oleaut32:OLEAUT32.dll
 0001:00033a5b       VariantInit                0000000180034a5b f   oleaut32:OLEAUT32.dll
 0001:00033a61       VarUI4FromStr              0000000180034a61 f   oleaut32:OLEAUT32.dll
 0001:00033a67       LoadTypeLib                0000000180034a67 f   oleaut32:OLEAUT32.dll
 0001:00033a6d       LoadRegTypeLib             0000000180034a6d f   oleaut32:OLEAUT32.dll
 0001:00033a73       RegisterTypeLib            0000000180034a73 f   oleaut32:OLEAUT32.dll
 0001:00033a79       UnRegisterTypeLib          0000000180034a79 f   oleaut32:OLEAUT32.dll
 0001:00033a7f       OleCreatePropertyFrame     0000000180034a7f f   oleaut32:OLEAUT32.dll
 0001:00033a90       _RTC_AllocaHelper          0000000180034a90 f   LIBCMTD:stack.obj
 0001:00033ad0       _RTC_CheckStackVars        0000000180034ad0 f   LIBCMTD:stack.obj
 0001:00033b60       _RTC_CheckStackVars2       0000000180034b60 f   LIBCMTD:stack.obj
 0001:00033c70       _CRT_RTC_INIT              0000000180034c70 f   LIBCMTD:init.obj
 0001:00033c80       _CRT_RTC_INITW             0000000180034c80 f   LIBCMTD:init.obj
 0001:00033c90       _RTC_InitBase              0000000180034c90 f   LIBCMTD:init.obj
 0001:00033cd0       _RTC_Shutdown              0000000180034cd0 f   LIBCMTD:init.obj
 0001:00033d00       __GSHandlerCheck           0000000180034d00 f   LIBCMTD:gshandler.obj
 0001:00033d40       __GSHandlerCheckCommon     0000000180034d40 f   LIBCMTD:gshandler.obj
 0001:00033e50       __security_check_cookie    0000000180034e50 f   LIBCMTD:amdsecgs.obj
 0001:00033e80       ??_U@YAPEAX_K@Z            0000000180034e80 f   LIBCMTD:new_array.obj
 0001:00033ea0       ??3@YAXPEAX_K@Z            0000000180034ea0 f   LIBCMTD:delete_scalar_size.obj
 0001:00033ec0       ??_V@YAXPEAX@Z             0000000180034ec0 f   LIBCMTD:delete_array.obj
 0001:00033ee0       ??_V@YAXPEAX_K@Z           0000000180034ee0 f   LIBCMTD:delete_array_size.obj
 0001:00033f00       ?configure_argv@__scrt_narrow_argv_policy@@SAHXZ 0000000180034f00 f i LIBCMTD:utility.obj
 0001:00033ff0       ?initialize_environment@__scrt_narrow_environment_policy@@SAHXZ 0000000180034ff0 f i LIBCMTD:utility.obj
 0001:00034090       NtCurrentTeb               0000000180035090 f i LIBCMTD:utility.obj
 0001:000340a0       __scrt_acquire_startup_lock 00000001800350a0 f   LIBCMTD:utility.obj
 0001:00034110       __scrt_dllmain_after_initialize_c 0000000180035110 f   LIBCMTD:utility.obj
 0001:00034140       __scrt_dllmain_before_initialize_c 0000000180035140 f   LIBCMTD:utility.obj
 0001:00034160       __scrt_dllmain_crt_thread_attach 0000000180035160 f   LIBCMTD:utility.obj
 0001:00034190       __scrt_dllmain_crt_thread_detach 0000000180035190 f   LIBCMTD:utility.obj
 0001:000341b0       __scrt_dllmain_exception_filter 00000001800351b0 f   LIBCMTD:utility.obj
 0001:00034220       __scrt_dllmain_uninitialize_c 0000000180035220 f   LIBCMTD:utility.obj
 0001:00034250       __scrt_dllmain_uninitialize_critical 0000000180035250 f   LIBCMTD:utility.obj
 0001:00034270       __scrt_initialize_crt      0000000180035270 f   LIBCMTD:utility.obj
 0001:000342c0       __scrt_initialize_onexit_tables 00000001800352c0 f   LIBCMTD:utility.obj
 0001:000343d0       __scrt_is_nonwritable_in_current_image 00000001800353d0 f   LIBCMTD:utility.obj
 0001:00034460       __scrt_release_startup_lock 0000000180035460 f   LIBCMTD:utility.obj
 0001:00034490       __scrt_uninitialize_crt    0000000180035490 f   LIBCMTD:utility.obj
 0001:000344d0       _onexit                    00000001800354d0 f   LIBCMTD:utility.obj
 0001:00034550       at_quick_exit              0000000180035550 f   LIBCMTD:utility.obj
 0001:000345a0       atexit                     00000001800355a0 f   LIBCMTD:utility.obj
 0001:000345e0       ??3@YAXPEAX@Z              00000001800355e0 f   LIBCMTD:delete_scalar.obj
 0001:00034600       __raise_securityfailure    0000000180035600 f   LIBCMTD:gs_report.obj
 0001:00034640       __report_gsfailure         0000000180035640 f   LIBCMTD:gs_report.obj
 0001:00034720       __report_rangecheckfailure 0000000180035720 f   LIBCMTD:gs_report.obj
 0001:00034740       __report_securityfailure   0000000180035740 f   LIBCMTD:gs_report.obj
 0001:000347e0       __report_securityfailureEx 00000001800357e0 f   LIBCMTD:gs_report.obj
 0001:00034ba0       _Init_thread_abort         0000000180035ba0 f   LIBCMTD:thread_safe_statics.obj
 0001:00034bd0       _Init_thread_footer        0000000180035bd0 f   LIBCMTD:thread_safe_statics.obj
 0001:00034c30       _Init_thread_header        0000000180035c30 f   LIBCMTD:thread_safe_statics.obj
 0001:00034cc0       _Init_thread_lock          0000000180035cc0 f   LIBCMTD:thread_safe_statics.obj
 0001:00034ce0       _Init_thread_notify        0000000180035ce0 f   LIBCMTD:thread_safe_statics.obj
 0001:00034d40       _Init_thread_unlock        0000000180035d40 f   LIBCMTD:thread_safe_statics.obj
 0001:00034d60       _Init_thread_wait          0000000180035d60 f   LIBCMTD:thread_safe_statics.obj
 0001:00034e10       ??2@YAPEAX_KAEBUnothrow_t@std@@@Z 0000000180035e10 f   LIBCMTD:new_scalar_nothrow.obj
 0001:00034e50       ??_U@YAPEAX_KAEBUnothrow_t@std@@@Z 0000000180035e50 f   LIBCMTD:new_array_nothrow.obj
 0001:00034e80       __GSHandlerCheck_SEH       0000000180035e80 f   LIBCMTD:gshandlerseh.obj
 0001:00034f50       __chkstk                   0000000180035f50 f   LIBCMTD:chkstk.obj
 0001:00034f50       _alloca_probe              0000000180035f50 f   LIBCMTD:chkstk.obj
 0001:000353c0       _CRT_INIT                  00000001800363c0 f   LIBCMTD:dll_dllmain.obj
 0001:000353f0       _DllMainCRTStartup         00000001800363f0 f   LIBCMTD:dll_dllmain.obj
 0001:000354c0       ?_RTC_AllocaFailure@@YAXPEAXPEAU_RTC_ALLOCA_NODE@@H@Z 00000001800364c0 f   LIBCMTD:error.obj
 0001:00035620       ?_RTC_Failure@@YAXPEAXH@Z  0000000180036620 f   LIBCMTD:error.obj
 0001:00035670       ?_RTC_StackFailure@@YAXPEAXPEBD@Z 0000000180036670 f   LIBCMTD:error.obj
 0001:00035aa0       _RTC_UninitUse             0000000180036aa0 f   LIBCMTD:error.obj
 0001:00035b70       _vsprintf_s_l              0000000180036b70 f i LIBCMTD:error.obj
 0001:00035be0       sprintf_s                  0000000180036be0 f i LIBCMTD:error.obj
 0001:00035c10       ?_RTC_GetErrorFunc@@YAP6AHHPEBDH00ZZPEBX@Z 0000000180036c10 f   LIBCMTD:userapi.obj
 0001:00035c20       ?_RTC_GetErrorFuncW@@YAP6AHHPEB_WH00ZZPEBX@Z 0000000180036c20 f   LIBCMTD:userapi.obj
 0001:00035c30       _RTC_GetErrDesc            0000000180036c30 f   LIBCMTD:userapi.obj
 0001:00035c50       _RTC_NumErrors             0000000180036c50 f   LIBCMTD:userapi.obj
 0001:00035c60       _RTC_SetErrorFunc          0000000180036c60 f   LIBCMTD:userapi.obj
 0001:00035c80       _RTC_SetErrorFuncW         0000000180036c80 f   LIBCMTD:userapi.obj
 0001:00035ca0       _RTC_SetErrorType          0000000180036ca0 f   LIBCMTD:userapi.obj
 0001:00035cc0       ??2@YAPEAX_K@Z             0000000180036cc0 f   LIBCMTD:new_scalar.obj
 0001:00035d10       __isa_available_init       0000000180036d10 f   LIBCMTD:cpu_disp.obj
 0001:000360b0       _get_startup_argv_mode     00000001800370b0 f   LIBCMTD:argv_mode.obj
 0001:000360c0       __scrt_is_ucrt_dll_in_use  00000001800370c0 f   LIBCMTD:ucrt_detection.obj
 0001:000360f0       __crt_debugger_hook        00000001800370f0 f   LIBCMTD:utility_desktop.obj
 0001:00036100       __scrt_fastfail            0000000180037100 f   LIBCMTD:utility_desktop.obj
 0001:000362a0       __scrt_get_show_window_mode 00000001800372a0 f   LIBCMTD:utility_desktop.obj
 0001:00036300       __scrt_initialize_mta      0000000180037300 f   LIBCMTD:utility_desktop.obj
 0001:00036310       __scrt_initialize_winrt    0000000180037310 f   LIBCMTD:utility_desktop.obj
 0001:00036320       __scrt_is_managed_app      0000000180037320 f   LIBCMTD:utility_desktop.obj
 0001:000363d0       __scrt_set_unhandled_exception_filter 00000001800373d0 f   LIBCMTD:utility_desktop.obj
 0001:000363f0       __scrt_stub_for_initialize_mta 00000001800373f0 f   LIBCMTD:utility_desktop.obj
 0001:000363f0       __scrt_exe_initialize_mta  00000001800373f0 f   LIBCMTD:utility_desktop.obj
 0001:00036400       __scrt_unhandled_exception_filter 0000000180037400 f   LIBCMTD:utility_desktop.obj
 0001:000364a0       _guard_check_icall_nop     00000001800374a0 f i LIBCMTD:guard_support.obj
 0001:000364b0       ReadNoFence64              00000001800374b0 f i LIBCMTD:guard_support.obj
 0001:000364d0       ReadPointerNoFence         00000001800374d0 f i LIBCMTD:guard_support.obj
 0001:000364f0       __castguard_check_failure_debugbreak 00000001800374f0 f i LIBCMTD:guard_support.obj
 0001:00036510       __castguard_check_failure_fastfail 0000000180037510 f i LIBCMTD:guard_support.obj
 0001:00036540       __castguard_check_failure_nop 0000000180037540 f i LIBCMTD:guard_support.obj
 0001:00036550       __castguard_check_failure_os_handled 0000000180037550 f i LIBCMTD:guard_support.obj
 0001:00036610       __castguard_slow_path_check_debugbreak 0000000180037610 f i LIBCMTD:guard_support.obj
 0001:00036650       __castguard_slow_path_check_fastfail 0000000180037650 f i LIBCMTD:guard_support.obj
 0001:000366a0       __castguard_slow_path_check_nop 00000001800376a0 f i LIBCMTD:guard_support.obj
 0001:000366b0       __castguard_slow_path_check_os_handled 00000001800376b0 f i LIBCMTD:guard_support.obj
 0001:00036790       _guard_icall_checks_enforced 0000000180037790 f i LIBCMTD:guard_support.obj
 0001:000367d0       _guard_rf_checks_enforced  00000001800377d0 f i LIBCMTD:guard_support.obj
 0001:000368a0       __security_init_cookie     00000001800378a0 f   LIBCMTD:gs_support.obj
 0001:00036920       ?__scrt_initialize_type_info@@YAXXZ 0000000180037920 f   LIBCMTD:tncleanup.obj
 0001:00036940       ?__scrt_uninitialize_type_info@@YAXXZ 0000000180037940 f   LIBCMTD:tncleanup.obj
 0001:00036960       __local_stdio_scanf_options 0000000180037960 f i LIBCMTD:default_local_stdio_options.obj
 0001:00036970       __scrt_initialize_default_local_stdio_options 0000000180037970 f   LIBCMTD:default_local_stdio_options.obj
 0001:000369c0       __scrt_get_dyn_tls_init_callback 00000001800379c0 f   LIBCMTD:dyn_tls_init.obj
 0001:000369d0       _RTC_Initialize            00000001800379d0 f   LIBCMTD:initsect.obj
 0001:00036a20       _RTC_Terminate             0000000180037a20 f   LIBCMTD:initsect.obj
 0001:00036f80       ?_RTC_GetSrcLine@@YAHPEAEPEA_WKPEAH1K@Z 0000000180037f80 f   LIBCMTD:pdblkup.obj
 0001:00037350       ??0bad_alloc@std@@AEAA@QEBD@Z 0000000180038350 f i LIBCMTD:throw_bad_alloc.obj
 0001:00037390       ??0bad_alloc@std@@QEAA@AEBV01@@Z 0000000180038390 f i LIBCMTD:throw_bad_alloc.obj
 0001:000373d0       ??0bad_alloc@std@@QEAA@XZ  00000001800383d0 f i LIBCMTD:throw_bad_alloc.obj
 0001:00037410       ??0bad_array_new_length@std@@QEAA@AEBV01@@Z 0000000180038410 f i LIBCMTD:throw_bad_alloc.obj
 0001:00037450       ??0bad_array_new_length@std@@QEAA@XZ 0000000180038450 f i LIBCMTD:throw_bad_alloc.obj
 0001:00037490       ??0exception@std@@QEAA@AEBV01@@Z 0000000180038490 f i LIBCMTD:throw_bad_alloc.obj
 0001:000374f0       ??0exception@std@@QEAA@QEBDH@Z 00000001800384f0 f i LIBCMTD:throw_bad_alloc.obj
 0001:00037540       ??1bad_alloc@std@@UEAA@XZ  0000000180038540 f i LIBCMTD:throw_bad_alloc.obj
 0001:00037560       ??1bad_array_new_length@std@@UEAA@XZ 0000000180038560 f i LIBCMTD:throw_bad_alloc.obj
 0001:00037580       ??1exception@std@@UEAA@XZ  0000000180038580 f i LIBCMTD:throw_bad_alloc.obj
 0001:000375b0       ??_Ebad_alloc@std@@UEAAPEAXI@Z 00000001800385b0 f i LIBCMTD:throw_bad_alloc.obj
 0001:000375b0       ??_Gbad_alloc@std@@UEAAPEAXI@Z 00000001800385b0 f i LIBCMTD:throw_bad_alloc.obj
 0001:000375f0       ??_Ebad_array_new_length@std@@UEAAPEAXI@Z 00000001800385f0 f i LIBCMTD:throw_bad_alloc.obj
 0001:000375f0       ??_Gbad_array_new_length@std@@UEAAPEAXI@Z 00000001800385f0 f i LIBCMTD:throw_bad_alloc.obj
 0001:00037630       ??_Gexception@std@@UEAAPEAXI@Z 0000000180038630 f i LIBCMTD:throw_bad_alloc.obj
 0001:00037630       ??_Eexception@std@@UEAAPEAXI@Z 0000000180038630 f i LIBCMTD:throw_bad_alloc.obj
 0001:00037670       ?__scrt_throw_std_bad_alloc@@YAXXZ 0000000180038670 f   LIBCMTD:throw_bad_alloc.obj
 0001:000376a0       ?__scrt_throw_std_bad_array_new_length@@YAXXZ 00000001800386a0 f   LIBCMTD:throw_bad_alloc.obj
 0001:000376d0       ?what@exception@std@@UEBAPEBDXZ 00000001800386d0 f i LIBCMTD:throw_bad_alloc.obj
 0001:00037710       ??1type_info@@UEAA@XZ      0000000180038710 f   LIBCMTD:std_type_info_static.obj
 0001:00037730       ??_Gtype_info@@UEAAPEAXI@Z 0000000180038730 f i LIBCMTD:std_type_info_static.obj
 0001:00037730       ??_Etype_info@@UEAAPEAXI@Z 0000000180038730 f i LIBCMTD:std_type_info_static.obj
 0001:0003776c       ??$?2PEAUHINSTANCE__@@@Wrapper@?$CSimpleArray@PEAUHINSTANCE__@@V?$CSimpleArrayEqualHelper@PEAUHINSTANCE__@@@ATL@@@ATL@@SAPEAX_KPEAPEAUHINSTANCE__@@@Z 000000018003876c f i atls:atlbase.obj
 0001:00037770       ??0?$CSimpleArray@PEAUHINSTANCE__@@V?$CSimpleArrayEqualHelper@PEAUHINSTANCE__@@@ATL@@@ATL@@QEAA@XZ 0000000180038770 f i atls:atlbase.obj
 0001:00037780       ??0CAtlBaseModule@ATL@@QEAA@XZ 0000000180038780 f   atls:atlbase.obj
 0001:00037828       ??0Wrapper@?$CSimpleArray@PEAUHINSTANCE__@@V?$CSimpleArrayEqualHelper@PEAUHINSTANCE__@@@ATL@@@ATL@@QEAA@AEBQEAUHINSTANCE__@@@Z 0000000180038828 f i atls:atlbase.obj
 0001:00037834       ??0_ATL_BASE_MODULE70@ATL@@QEAA@XZ 0000000180038834 f i atls:atlbase.obj
 0001:00037860       ??1?$CSimpleArray@PEAUHINSTANCE__@@V?$CSimpleArrayEqualHelper@PEAUHINSTANCE__@@@ATL@@@ATL@@QEAA@XZ 0000000180038860 f i atls:atlbase.obj
 0001:00037888       ??1CAtlBaseModule@ATL@@QEAA@XZ 0000000180038888 f   atls:atlbase.obj
 0001:000378bc       ??1_ATL_BASE_MODULE70@ATL@@QEAA@XZ 00000001800388bc f i atls:atlbase.obj
 0001:000378e8       ??A?$CSimpleArray@PEAUHINSTANCE__@@V?$CSimpleArrayEqualHelper@PEAUHINSTANCE__@@@ATL@@@ATL@@QEAAAEAPEAUHINSTANCE__@@H@Z 00000001800388e8 f i atls:atlbase.obj
 0001:00037914       ?Add@?$CSimpleArray@PEAUHINSTANCE__@@V?$CSimpleArrayEqualHelper@PEAUHINSTANCE__@@@ATL@@@ATL@@QEAAHAEBQEAUHINSTANCE__@@@Z 0000000180038914 f i atls:atlbase.obj
 0001:000379c8       ?AddResourceInstance@CAtlBaseModule@ATL@@QEAA_NPEAUHINSTANCE__@@@Z 00000001800389c8 f   atls:atlbase.obj
 0001:00037a10       ?GetHInstanceAt@CAtlBaseModule@ATL@@QEAAPEAUHINSTANCE__@@H@Z 0000000180038a10 f   atls:atlbase.obj
 0001:00037a88       ?GetSize@?$CSimpleArray@PEAUHINSTANCE__@@V?$CSimpleArrayEqualHelper@PEAUHINSTANCE__@@@ATL@@@ATL@@QEBAHXZ 0000000180038a88 f i atls:atlbase.obj
 0001:00037a8c       ?InternalSetAtIndex@?$CSimpleArray@PEAUHINSTANCE__@@V?$CSimpleArrayEqualHelper@PEAUHINSTANCE__@@@ATL@@@ATL@@QEAAXHAEBQEAUHINSTANCE__@@@Z 0000000180038a8c f i atls:atlbase.obj
 0001:00037aa4       ?RemoveAll@?$CSimpleArray@PEAUHINSTANCE__@@V?$CSimpleArrayEqualHelper@PEAUHINSTANCE__@@@ATL@@@ATL@@QEAAXXZ 0000000180038aa4 f i atls:atlbase.obj
 0001:00037acc       ?RemoveAt@?$CSimpleArray@PEAUHINSTANCE__@@V?$CSimpleArrayEqualHelper@PEAUHINSTANCE__@@@ATL@@@ATL@@QEAAHH@Z 0000000180038acc f i atls:atlbase.obj
 0001:00037b70       ?RemoveResourceInstance@CAtlBaseModule@ATL@@QEAA_NPEAUHINSTANCE__@@@Z 0000000180038b70 f   atls:atlbase.obj
 0001:00037bf0       ?memmove_s@Checked@ATL@@YAXPEAX_KPEBX1@Z 0000000180038bf0 f i atls:atlbase.obj
 0001:00038098       ?GetCodeAddress@_stdcallthunk@ATL@@QEAAPEAXXZ 0000000180039098 f i atls:atlthunk.obj
 0001:000380c4       ?Init@_stdcallthunk@ATL@@QEAAH_KPEAX@Z 00000001800390c4 f i atls:atlthunk.obj
 0001:00038114       ?__AllocStdCallThunk@@YAPEAXXZ 0000000180039114 f   atls:atlthunk.obj
 0001:0003811c       ?__AllocStdCallThunk@ATL@@YAPEAXXZ 000000018003911c f   atls:atlthunk.obj
 0001:00038124       ?__AllocStdCallThunk_cmn@@YAPEAXXZ 0000000180039124 f   atls:atlthunk.obj
 0001:000381fc       ?__FreeStdCallThunk@@YAXPEAX@Z 00000001800391fc f   atls:atlthunk.obj
 0001:0003821c       ?__FreeStdCallThunk@ATL@@YAXPEAX@Z 000000018003921c f   atls:atlthunk.obj
 0001:0003823c       ?__FreeStdCallThunk_cmn@@YAXPEAX@Z 000000018003923c f   atls:atlthunk.obj
 0001:000382dc       AtlThunk_AllocateData      00000001800392dc f   atls:atlthunk.obj
 0001:00038358       AtlThunk_DataToCode        0000000180039358 f   atls:atlthunk.obj
 0001:000383ac       AtlThunk_FreeData          00000001800393ac f   atls:atlthunk.obj
 0001:0003840c       AtlThunk_InitData          000000018003940c f   atls:atlthunk.obj
 0001:000384d0       memset_repmovs             00000001800394d0 f   libvcruntimed:memset.obj
 0001:000384f0       memset                     00000001800394f0 f   libvcruntimed:memset.obj
 0001:00038680       ??$__crt_interlocked_exchange_pointer@$$A6AXXZP6AXXZ@@YAP6AXXZPEDS6AXXZQ6AXXZ@Z 0000000180039680 f i libvcruntimed:purevirt.obj
 0001:000386a0       ??$__crt_interlocked_read_pointer@$$A6AXXZ@@YAP6AXXZPEDS6AXXZ@Z 00000001800396a0 f i libvcruntimed:purevirt.obj
 0001:000386c0       ?__crt_interlocked_read_64@@YA_JPED_J@Z 00000001800396c0 f i libvcruntimed:purevirt.obj
 0001:000386e0       _get_purecall_handler      00000001800396e0 f   libvcruntimed:purevirt.obj
 0001:00038700       _purecall                  0000000180039700 f   libvcruntimed:purevirt.obj
 0001:00038740       _set_purecall_handler      0000000180039740 f   libvcruntimed:purevirt.obj
 0001:00038770       memcmp                     0000000180039770 f   libvcruntimed:memcmp.obj
 0001:00038850       memcpy_repmovs             0000000180039850 f   libvcruntimed:memcpy.obj
 0001:00038870       memmove                    0000000180039870 f   libvcruntimed:memcpy.obj
 0001:00038870       memcpy                     0000000180039870 f   libvcruntimed:memcpy.obj
 0001:00038c50       wcsstr                     0000000180039c50 f   libvcruntimed:wcsstr.obj
 0001:000392b0       __vcrt_initialize          000000018003a2b0 f   libvcruntimed:initialization.obj
 0001:000392f0       __vcrt_thread_attach       000000018003a2f0 f   libvcruntimed:initialization.obj
 0001:00039310       __vcrt_thread_detach       000000018003a310 f   libvcruntimed:initialization.obj
 0001:00039330       __vcrt_uninitialize        000000018003a330 f   libvcruntimed:initialization.obj
 0001:00039350       __vcrt_uninitialize_critical 000000018003a350 f   libvcruntimed:initialization.obj
 0001:00039370       __C_specific_handler       000000018003a370 f   libvcruntimed:riscchandler.obj
 0001:000397e0       ??$?0AEAViterator@TryBlockMap4@FH4@@AEAV012@$0A@@?$pair@Viterator@TryBlockMap4@FH4@@V123@@std@@QEAA@AEAViterator@TryBlockMap4@FH4@@0@Z 000000018003a7e0 f i libvcruntimed:risctrnsctrl.obj
 0001:00039840       ??$?0AEAViterator@TryBlockMap@__FrameHandler3@@AEAV012@$0A@@?$pair@Viterator@TryBlockMap@__FrameHandler3@@V123@@std@@QEAA@AEAViterator@TryBlockMap@__FrameHandler3@@0@Z 000000018003a840 f i libvcruntimed:risctrnsctrl.obj
 0001:00039a10       ??$_CallSETranslator@V__FrameHandler3@@@@YAHPEAUEHExceptionRecord@@PEA_KPEAU_CONTEXT@@PEAU_xDISPATCHER_CONTEXT@@PEBU_s_FuncInfo@@K1H@Z 000000018003aa10 f i libvcruntimed:risctrnsctrl.obj
 0001:00039aa0       ??$_CallSETranslator@V__FrameHandler4@@@@YAHPEAUEHExceptionRecord@@PEA_KPEAU_CONTEXT@@PEAU_xDISPATCHER_CONTEXT@@PEAUFuncInfo4@FH4@@K1H@Z 000000018003aaa0 f i libvcruntimed:risctrnsctrl.obj
 0001:00039b30       ??$forward@AEAViterator@TryBlockMap4@FH4@@@std@@YAAEAViterator@TryBlockMap4@FH4@@AEAV123@@Z 000000018003ab30 f i libvcruntimed:risctrnsctrl.obj
 0001:00039b40       ??$forward@AEAViterator@TryBlockMap@__FrameHandler3@@@std@@YAAEAViterator@TryBlockMap@__FrameHandler3@@AEAV123@@Z 000000018003ab40 f i libvcruntimed:risctrnsctrl.obj
 0001:00039b50       ??0FuncInfo4@FH4@@QEAA@XZ  000000018003ab50 f i libvcruntimed:risctrnsctrl.obj
 0001:00039bc0       ??0FuncInfoHeader@FH4@@QEAA@XZ 000000018003abc0 f i libvcruntimed:risctrnsctrl.obj
 0001:00039be0       ??0iterator@TryBlockMap4@FH4@@QEAA@AEAV12@I@Z 000000018003abe0 f i libvcruntimed:risctrnsctrl.obj
 0001:00039c10       ??0iterator@TryBlockMap@__FrameHandler3@@QEAA@AEAV12@I@Z 000000018003ac10 f i libvcruntimed:risctrnsctrl.obj
 0001:00039c40       ??4iterator@TryBlockMap4@FH4@@QEAAAEAV012@AEBV012@@Z 000000018003ac40 f i libvcruntimed:risctrnsctrl.obj
 0001:00039c60       ??9iterator@TryBlockMap4@FH4@@QEBA_NAEBV012@@Z 000000018003ac60 f i libvcruntimed:risctrnsctrl.obj
 0001:00039ca0       ??Diterator@TryBlockMap4@FH4@@QEAA?AUTryBlockMapEntry4@2@XZ 000000018003aca0 f i libvcruntimed:risctrnsctrl.obj
 0001:00039cd0       ??Eiterator@TryBlockMap4@FH4@@QEAAAEAV012@XZ 000000018003acd0 f i libvcruntimed:risctrnsctrl.obj
 0001:00039d10       ?CatchTryBlock@__FrameHandler3@@SAPEBU_s_TryBlockMapEntry@@PEBU_s_FuncInfo@@H@Z 000000018003ad10 f   libvcruntimed:risctrnsctrl.obj
 0001:00039da0       ?DecompFuncInfo@FH4@@YA_JPEAEAEAUFuncInfo4@1@_KH@Z 000000018003ada0 f i libvcruntimed:risctrnsctrl.obj
 0001:00039de0       ?DecompFuncInfo@FH4@@YA_JPEAEAEAUFuncInfo4@1@_KH_N@Z 000000018003ade0 f i libvcruntimed:risctrnsctrl.obj
 0001:00039fb0       ?DecompTryBlock@TryBlockMap4@FH4@@AEAAXXZ 000000018003afb0 f i libvcruntimed:risctrnsctrl.obj
 0001:0003a030       ?ExecutionInCatch@__FrameHandler3@@SA_NPEAU_xDISPATCHER_CONTEXT@@PEBU_s_FuncInfo@@@Z 000000018003b030 f   libvcruntimed:risctrnsctrl.obj
 0001:0003a080       ?ExecutionInCatch@__FrameHandler4@@SA_NPEAU_xDISPATCHER_CONTEXT@@PEAUFuncInfo4@FH4@@@Z 000000018003b080 f   libvcruntimed:risctrnsctrl.obj
 0001:0003a0a0       ?FrameUnwindToEmptyState@__FrameHandler3@@SAXPEA_KPEAU_xDISPATCHER_CONTEXT@@PEBU_s_FuncInfo@@@Z 000000018003b0a0 f   libvcruntimed:risctrnsctrl.obj
 0001:0003a140       ?FrameUnwindToEmptyState@__FrameHandler4@@SAXPEA_KPEAU_xDISPATCHER_CONTEXT@@PEAUFuncInfo4@FH4@@@Z 000000018003b140 f   libvcruntimed:risctrnsctrl.obj
 0001:0003a190       ?GetEstablisherFrame@__FrameHandler3@@SAPEA_KPEA_KPEAU_xDISPATCHER_CONTEXT@@PEBU_s_FuncInfo@@0@Z 000000018003b190 f   libvcruntimed:risctrnsctrl.obj
 0001:0003a300       ?GetEstablisherFrame@__FrameHandler4@@SAPEA_KPEA_KPEAU_xDISPATCHER_CONTEXT@@PEAUFuncInfo4@FH4@@0@Z 000000018003b300 f   libvcruntimed:risctrnsctrl.obj
 0001:0003a370       ?GetRangeOfTrysToCheck@__FrameHandler3@@SA?AU?$pair@Viterator@TryBlockMap@__FrameHandler3@@V123@@std@@AEAVTryBlockMap@1@HPEAU_xDISPATCHER_CONTEXT@@PEBU_s_FuncInfo@@H@Z 000000018003b370 f   libvcruntimed:risctrnsctrl.obj
 0001:0003a5b0       ?GetRangeOfTrysToCheck@__FrameHandler4@@SA?AU?$pair@Viterator@TryBlockMap4@FH4@@V123@@std@@AEAVTryBlockMap4@FH4@@HPEAU_xDISPATCHER_CONTEXT@@PEAUFuncInfo4@5@H@Z 000000018003b5b0 f   libvcruntimed:risctrnsctrl.obj
 0001:0003a760       ?ReadInt@FH4@@YAHPEAPEAE@Z 000000018003b760 f i libvcruntimed:risctrnsctrl.obj
 0001:0003a7a0       ?ReadUnsigned@FH4@@YAIPEAPEAE@Z 000000018003b7a0 f i libvcruntimed:risctrnsctrl.obj
 0001:0003a830       ?UnwindNestedFrames@__FrameHandler3@@SAXPEA_KPEAUEHExceptionRecord@@PEAU_CONTEXT@@0PEAXPEBU_s_FuncInfo@@HHPEBU_s_HandlerType@@PEAU_xDISPATCHER_CONTEXT@@E@Z 000000018003b830 f   libvcruntimed:risctrnsctrl.obj
 0001:0003a9a0       ?UnwindNestedFrames@__FrameHandler4@@SAXPEA_KPEAUEHExceptionRecord@@PEAU_CONTEXT@@0PEAXPEAUFuncInfo4@FH4@@HHPEAUHandlerType4@5@PEAU_xDISPATCHER_CONTEXT@@E@Z 000000018003b9a0 f   libvcruntimed:risctrnsctrl.obj
 0001:0003ab70       ?begin@TryBlockMap4@FH4@@QEAA?AViterator@12@XZ 000000018003bb70 f i libvcruntimed:risctrnsctrl.obj
 0001:0003aba0       ?end@TryBlockMap4@FH4@@QEAA?AViterator@12@XZ 000000018003bba0 f i libvcruntimed:risctrnsctrl.obj
 0001:0003abd0       ?imageRelToByteBuffer@FH4@@YAPEAE_KH@Z 000000018003bbd0 f i libvcruntimed:risctrnsctrl.obj
 0001:0003abf0       ?incrementToSentinel@iterator@TryBlockMap4@FH4@@QEAAXXZ 000000018003bbf0 f i libvcruntimed:risctrnsctrl.obj
 0001:0003ac10       ?setBuffer@TryBlockMap4@FH4@@QEAAXViterator@12@@Z 000000018003bc10 f i libvcruntimed:risctrnsctrl.obj
 0001:0003ac80       _CreateFrameInfo           000000018003bc80 f   libvcruntimed:risctrnsctrl.obj
 0001:0003acf0       _FindAndUnlinkFrame        000000018003bcf0 f   libvcruntimed:risctrnsctrl.obj
 0001:0003ad70       _GetImageBase              000000018003bd70 f   libvcruntimed:risctrnsctrl.obj
 0001:0003ad90       _GetThrowImageBase         000000018003bd90 f   libvcruntimed:risctrnsctrl.obj
 0001:0003adb0       _SetImageBase              000000018003bdb0 f   libvcruntimed:risctrnsctrl.obj
 0001:0003add0       _SetThrowImageBase         000000018003bdd0 f   libvcruntimed:risctrnsctrl.obj
 0001:0003adf0       __CxxFrameHandler          000000018003bdf0 f   libvcruntimed:risctrnsctrl.obj
 0001:0003ae30       __CxxFrameHandler2         000000018003be30 f   libvcruntimed:risctrnsctrl.obj
 0001:0003ae70       __CxxFrameHandler3         000000018003be70 f   libvcruntimed:risctrnsctrl.obj
 0001:0003af50       __CxxFrameHandler4         000000018003bf50 f   libvcruntimed:risctrnsctrl.obj
 0001:0003b060       __C_specific_handler_noexcept 000000018003c060 f   libvcruntimed:chandler_noexcept.obj
 0001:0003b0f0       __DestructExceptionObject  000000018003c0f0 f   libvcruntimed:ehhelpers.obj
 0001:0003b1f0       ?_CallMemberFunction0@@YAXQEAX0@Z 000000018003c1f0 f i libvcruntimed:ehhelpers.obj
 0001:0003b2c0       ?raw_name@type_info@@QEBAPEBDXZ 000000018003c2c0 f i libvcruntimed:ehhelpers.obj
 0001:0003b2d0       _IsExceptionObjectToBeDestroyed 000000018003c2d0 f   libvcruntimed:ehhelpers.obj
 0001:0003b320       _SetWinRTOutOfMemoryExceptionCallback 000000018003c320 f   libvcruntimed:ehhelpers.obj
 0001:0003b340       __AdjustPointer            000000018003c340 f   libvcruntimed:ehhelpers.obj
 0001:0003b3c0       __FrameUnwindFilter        000000018003c3c0 f   libvcruntimed:ehhelpers.obj
 0001:0003b470       __GetPlatformExceptionInfo 000000018003c470 f   libvcruntimed:ehhelpers.obj
 0001:0003b520       __current_exception        000000018003c520 f   libvcruntimed:ehhelpers.obj
 0001:0003b540       __current_exception_context 000000018003c540 f   libvcruntimed:ehhelpers.obj
 0001:0003b560       __processing_throw         000000018003c560 f   libvcruntimed:ehhelpers.obj
 0001:0003b580       __std_terminate            000000018003c580 f   libvcruntimed:ehhelpers.obj
 0001:0003b590       _is_exception_typeof       000000018003c590 f   libvcruntimed:ehhelpers.obj
 0001:0003b720       ??$?RD@__crt_internal_free_policy@@QEBAXQEBD@Z 000000018003c720 f i libvcruntimed:std_type_info.obj
 0001:0003b750       ??$?RX@__crt_internal_free_policy@@QEBAXQEBX@Z 000000018003c750 f i libvcruntimed:std_type_info.obj
 0001:0003b780       ??$__crt_interlocked_compare_exchange_pointer@$$CBDPEAD$$T@@YAPEBDPEDSEBDQEAD$$T@Z 000000018003c780 f i libvcruntimed:std_type_info.obj
 0001:0003b7c0       ??$__crt_interlocked_read_pointer@$$CBD@@YAPEBDPEDSEBD@Z 000000018003c7c0 f i libvcruntimed:std_type_info.obj
 0001:0003b7e0       ??0?$__crt_unique_heap_ptr@DU__crt_internal_free_policy@@@@QEAA@QEAD@Z 000000018003c7e0 f i libvcruntimed:std_type_info.obj
 0001:0003b800       ??0?$__crt_unique_heap_ptr@XU__crt_internal_free_policy@@@@QEAA@QEAX@Z 000000018003c800 f i libvcruntimed:std_type_info.obj
 0001:0003b820       ??1?$__crt_unique_heap_ptr@DU__crt_internal_free_policy@@@@QEAA@XZ 000000018003c820 f i libvcruntimed:std_type_info.obj
 0001:0003b840       ??1?$__crt_unique_heap_ptr@XU__crt_internal_free_policy@@@@QEAA@XZ 000000018003c840 f i libvcruntimed:std_type_info.obj
 0001:0003b860       ??B?$__crt_unique_heap_ptr@DU__crt_internal_free_policy@@@@QEBA_NXZ 000000018003c860 f i libvcruntimed:std_type_info.obj
 0001:0003b880       ??B?$__crt_unique_heap_ptr@XU__crt_internal_free_policy@@@@QEBA_NXZ 000000018003c880 f i libvcruntimed:std_type_info.obj
 0001:0003b920       ?detach@?$__crt_unique_heap_ptr@XU__crt_internal_free_policy@@@@QEAAPEAXXZ 000000018003c920 f i libvcruntimed:std_type_info.obj
 0001:0003b950       ?get@?$__crt_unique_heap_ptr@DU__crt_internal_free_policy@@@@QEBAPEADXZ 000000018003c950 f i libvcruntimed:std_type_info.obj
 0001:0003b960       ?get@?$__crt_unique_heap_ptr@XU__crt_internal_free_policy@@@@QEBAPEAXXZ 000000018003c960 f i libvcruntimed:std_type_info.obj
 0001:0003b970       ?is_valid@?$__crt_unique_heap_ptr@DU__crt_internal_free_policy@@@@QEBA_NXZ 000000018003c970 f i libvcruntimed:std_type_info.obj
 0001:0003b9a0       ?is_valid@?$__crt_unique_heap_ptr@XU__crt_internal_free_policy@@@@QEBA_NXZ 000000018003c9a0 f i libvcruntimed:std_type_info.obj
 0001:0003b9d0       ?release@?$__crt_unique_heap_ptr@DU__crt_internal_free_policy@@@@QEAAXXZ 000000018003c9d0 f i libvcruntimed:std_type_info.obj
 0001:0003ba00       ?release@?$__crt_unique_heap_ptr@XU__crt_internal_free_policy@@@@QEAAXXZ 000000018003ca00 f i libvcruntimed:std_type_info.obj
 0001:0003ba30       __std_type_info_compare    000000018003ca30 f   libvcruntimed:std_type_info.obj
 0001:0003ba70       __std_type_info_destroy_list 000000018003ca70 f   libvcruntimed:std_type_info.obj
 0001:0003bad0       __std_type_info_hash       000000018003cad0 f   libvcruntimed:std_type_info.obj
 0001:0003bb80       __std_type_info_name       000000018003cb80 f   libvcruntimed:std_type_info.obj
 0001:0003be30       __vcrt_GetModuleFileNameW  000000018003ce30 f   libvcruntimed:winapi_thunks.obj
 0001:0003be60       __vcrt_GetModuleHandleW    000000018003ce60 f   libvcruntimed:winapi_thunks.obj
 0001:0003be80       __vcrt_LoadLibraryExW      000000018003ce80 f   libvcruntimed:winapi_thunks.obj
 0001:0003beb0       ??$?RD@__crt_public_free_policy@@QEBAXQEBD@Z 000000018003ceb0 f i libvcruntimed:std_exception.obj
 0001:0003bed0       ??0?$__crt_unique_heap_ptr@DU__crt_public_free_policy@@@@QEAA@QEAD@Z 000000018003ced0 f i libvcruntimed:std_exception.obj
 0001:0003bef0       ??1?$__crt_unique_heap_ptr@DU__crt_public_free_policy@@@@QEAA@XZ 000000018003cef0 f i libvcruntimed:std_exception.obj
 0001:0003bf10       ??B?$__crt_unique_heap_ptr@DU__crt_public_free_policy@@@@QEBA_NXZ 000000018003cf10 f i libvcruntimed:std_exception.obj
 0001:0003bf30       ?detach@?$__crt_unique_heap_ptr@DU__crt_public_free_policy@@@@QEAAPEADXZ 000000018003cf30 f i libvcruntimed:std_exception.obj
 0001:0003bf60       ?get@?$__crt_unique_heap_ptr@DU__crt_public_free_policy@@@@QEBAPEADXZ 000000018003cf60 f i libvcruntimed:std_exception.obj
 0001:0003bf70       ?is_valid@?$__crt_unique_heap_ptr@DU__crt_public_free_policy@@@@QEBA_NXZ 000000018003cf70 f i libvcruntimed:std_exception.obj
 0001:0003bfa0       ?release@?$__crt_unique_heap_ptr@DU__crt_public_free_policy@@@@QEAAXXZ 000000018003cfa0 f i libvcruntimed:std_exception.obj
 0001:0003bfd0       __std_exception_copy       000000018003cfd0 f   libvcruntimed:std_exception.obj
 0001:0003c110       __std_exception_destroy    000000018003d110 f   libvcruntimed:std_exception.obj
 0001:0003c150       _CxxThrowException         000000018003d150 f   libvcruntimed:throw.obj
 0001:0003c280       ??$?RU__vcrt_ptd@@@__crt_internal_free_policy@@QEBAXQEBU__vcrt_ptd@@@Z 000000018003d280 f i libvcruntimed:per_thread_data.obj
 0001:0003c2b0       ??0?$__crt_unique_heap_ptr@U__vcrt_ptd@@U__crt_internal_free_policy@@@@QEAA@QEAU__vcrt_ptd@@@Z 000000018003d2b0 f i libvcruntimed:per_thread_data.obj
 0001:0003c2f0       ??1?$__crt_unique_heap_ptr@U__vcrt_ptd@@U__crt_internal_free_policy@@@@QEAA@XZ 000000018003d2f0 f i libvcruntimed:per_thread_data.obj
 0001:0003c330       ??B?$__crt_unique_heap_ptr@U__vcrt_ptd@@U__crt_internal_free_policy@@@@QEBA_NXZ 000000018003d330 f i libvcruntimed:per_thread_data.obj
 0001:0003c350       ?detach@?$__crt_unique_heap_ptr@U__vcrt_ptd@@U__crt_internal_free_policy@@@@QEAAPEAU__vcrt_ptd@@XZ 000000018003d350 f i libvcruntimed:per_thread_data.obj
 0001:0003c380       ?get@?$__crt_unique_heap_ptr@U__vcrt_ptd@@U__crt_internal_free_policy@@@@QEBAPEAU__vcrt_ptd@@XZ 000000018003d380 f i libvcruntimed:per_thread_data.obj
 0001:0003c390       ?is_valid@?$__crt_unique_heap_ptr@U__vcrt_ptd@@U__crt_internal_free_policy@@@@QEBA_NXZ 000000018003d390 f i libvcruntimed:per_thread_data.obj
 0001:0003c3c0       ?release@?$__crt_unique_heap_ptr@U__vcrt_ptd@@U__crt_internal_free_policy@@@@QEAAXXZ 000000018003d3c0 f i libvcruntimed:per_thread_data.obj
 0001:0003c430       __vcrt_freefls             000000018003d430 f   libvcruntimed:per_thread_data.obj
 0001:0003c470       __vcrt_freeptd             000000018003d470 f   libvcruntimed:per_thread_data.obj
 0001:0003c4d0       __vcrt_getptd              000000018003d4d0 f   libvcruntimed:per_thread_data.obj
 0001:0003c500       __vcrt_getptd_noexit       000000018003d500 f   libvcruntimed:per_thread_data.obj
 0001:0003c6a0       __vcrt_getptd_noinit       000000018003d6a0 f   libvcruntimed:per_thread_data.obj
 0001:0003c700       __vcrt_initialize_ptd      000000018003d700 f   libvcruntimed:per_thread_data.obj
 0001:0003c750       __vcrt_uninitialize_ptd    000000018003d750 f   libvcruntimed:per_thread_data.obj
 0001:0003c780       __vcrt_initialize_locks    000000018003d780 f   libvcruntimed:locks.obj
 0001:0003c7f0       __vcrt_lock                000000018003d7f0 f   libvcruntimed:locks.obj
 0001:0003c820       __vcrt_uninitialize_locks  000000018003d820 f   libvcruntimed:locks.obj
 0001:0003c880       __vcrt_unlock              000000018003d880 f   libvcruntimed:locks.obj
 0001:0003c8c0       _NLG_Notify                000000018003d8c0 f   libvcruntimed:notify.obj
 0001:0003c8e0       __NLG_Dispatch2            000000018003d8e0 f   libvcruntimed:notify.obj
 0001:0003c8f0       __NLG_Return2              000000018003d8f0 f   libvcruntimed:notify.obj
 0001:0003c910       __except_validate_context_record 000000018003d910 f   libvcruntimed:jbcxrval.obj
 0001:0003c970       __except_validate_jump_buffer 000000018003d970 f   libvcruntimed:jbcxrval.obj
 0001:0003c990       __except_validate_jump_buffer_common 000000018003d990 f i libvcruntimed:jbcxrval.obj
 0001:0003ca10       ?GetCurrentState@__FrameHandler3@@SAHPEA_KPEAU_xDISPATCHER_CONTEXT@@PEBU_s_FuncInfo@@@Z 000000018003da10 f   libvcruntimed:ehstate.obj
 0001:0003ca70       ?GetUnwindTryBlock@__FrameHandler3@@SAHPEA_KPEAU_xDISPATCHER_CONTEXT@@PEBU_s_FuncInfo@@@Z 000000018003da70 f   libvcruntimed:ehstate.obj
 0001:0003cac0       ?SetState@__FrameHandler3@@SAXPEA_KPEBU_s_FuncInfo@@H@Z 000000018003dac0 f   libvcruntimed:ehstate.obj
 0001:0003caf0       ?SetUnwindTryBlock@__FrameHandler3@@SAXPEA_KPEAU_xDISPATCHER_CONTEXT@@PEBU_s_FuncInfo@@H@Z 000000018003daf0 f   libvcruntimed:ehstate.obj
 0001:0003cb60       ?StateFromControlPc@__FrameHandler3@@SAHPEBU_s_FuncInfo@@PEAU_xDISPATCHER_CONTEXT@@@Z 000000018003db60 f   libvcruntimed:ehstate.obj
 0001:0003cba0       ?StateFromControlPc@__FrameHandler4@@SAHPEAUFuncInfo4@FH4@@PEAU_xDISPATCHER_CONTEXT@@@Z 000000018003dba0 f   libvcruntimed:ehstate.obj
 0001:0003cbe0       ?StateFromIp@__FrameHandler3@@SAHPEBU_s_FuncInfo@@PEAU_xDISPATCHER_CONTEXT@@_K@Z 000000018003dbe0 f   libvcruntimed:ehstate.obj
 0001:0003ccd0       ?StateFromIp@__FrameHandler4@@SAHPEAUFuncInfo4@FH4@@PEAU_xDISPATCHER_CONTEXT@@_K@Z 000000018003dcd0 f   libvcruntimed:ehstate.obj
 0001:0003cdc0       ?__FuncRelToRealOffset@@YA_KPEAU_xDISPATCHER_CONTEXT@@I@Z 000000018003ddc0 f i libvcruntimed:ehstate.obj
 0001:0003cdf0       ?__RVAtoRealOffset@@YA_KPEAU_xDISPATCHER_CONTEXT@@H@Z 000000018003ddf0 f i libvcruntimed:ehstate.obj
 0001:0003f070       ??$TypeMatchHelper@V__FrameHandler3@@@@YAHPEBU_s_HandlerType@@PEBU_s_CatchableType@@PEBU_s_ThrowInfo@@@Z 0000000180040070 f i libvcruntimed:frame.obj
 0001:0003f270       ??$TypeMatchHelper@V__FrameHandler4@@@@YAHPEAUHandlerType4@FH4@@PEBU_s_CatchableType@@PEBU_s_ThrowInfo@@@Z 0000000180040270 f i libvcruntimed:frame.obj
 0001:0003f480       ??$__InternalCxxFrameHandler@V__FrameHandler3@@@@YA?AW4_EXCEPTION_DISPOSITION@@PEAUEHExceptionRecord@@PEA_KPEAU_CONTEXT@@PEAU_xDISPATCHER_CONTEXT@@PEBU_s_FuncInfo@@H1E@Z 0000000180040480 f i libvcruntimed:frame.obj
 0001:0003f8f0       ??$__InternalCxxFrameHandler@V__FrameHandler4@@@@YA?AW4_EXCEPTION_DISPOSITION@@PEAUEHExceptionRecord@@PEA_KPEAU_CONTEXT@@PEAU_xDISPATCHER_CONTEXT@@PEAUFuncInfo4@FH4@@H1E@Z 00000001800408f0 f i libvcruntimed:frame.obj
 0001:0003fd80       ??0HandlerMap4@FH4@@QEAA@PEBUTryBlockMapEntry4@1@_KH@Z 0000000180040d80 f i libvcruntimed:frame.obj
 0001:0003fe40       ??0HandlerMap@__FrameHandler3@@QEAA@PEBU_s_TryBlockMapEntry@@_KI@Z 0000000180040e40 f i libvcruntimed:frame.obj
 0001:0003fe90       ??0HandlerType4@FH4@@QEAA@XZ 0000000180040e90 f i libvcruntimed:frame.obj
 0001:0003feb0       ??0TryBlockMap4@FH4@@QEAA@PEBUFuncInfo4@1@_K@Z 0000000180040eb0 f i libvcruntimed:frame.obj
 0001:0003ff40       ??0TryBlockMap@__FrameHandler3@@QEAA@PEBU_s_FuncInfo@@_K@Z 0000000180040f40 f i libvcruntimed:frame.obj
 0001:0003ff70       ??0UWMap4@FH4@@QEAA@PEBUFuncInfo4@1@_K@Z 0000000180040f70 f i libvcruntimed:frame.obj
 0001:0003ffe0       ??0bad_exception@std@@QEAA@AEBV01@@Z 0000000180040fe0 f i libvcruntimed:frame.obj
 0001:00040020       ??0bad_exception@std@@QEAA@XZ 0000000180041020 f i libvcruntimed:frame.obj
 0001:00040060       ??0iterator@HandlerMap4@FH4@@QEAA@AEAV12@I@Z 0000000180041060 f i libvcruntimed:frame.obj
 0001:00040090       ??0iterator@HandlerMap@__FrameHandler3@@QEAA@AEAV12@I@Z 0000000180041090 f i libvcruntimed:frame.obj
 0001:000400c0       ??0iterator@UWMap4@FH4@@QEAA@AEAV12@PEAE@Z 00000001800410c0 f i libvcruntimed:frame.obj
 0001:000400f0       ??1bad_exception@std@@UEAA@XZ 00000001800410f0 f i libvcruntimed:frame.obj
 0001:00040110       ??4iterator@UWMap4@FH4@@QEAAAEAV012@AEBV012@@Z 0000000180041110 f i libvcruntimed:frame.obj
 0001:00040160       ??8iterator@HandlerMap4@FH4@@QEBA_NAEBV012@@Z 0000000180041160 f i libvcruntimed:frame.obj
 0001:000401a0       ??8iterator@HandlerMap@__FrameHandler3@@QEBA_NAEBV012@@Z 00000001800411a0 f i libvcruntimed:frame.obj
 0001:000401e0       ??8type_info@@QEBA_NAEBV0@@Z 00000001800411e0 f i libvcruntimed:frame.obj
 0001:00040230       ??9iterator@HandlerMap4@FH4@@QEBA_NAEBV012@@Z 0000000180041230 f i libvcruntimed:frame.obj
 0001:00040270       ??9iterator@HandlerMap@__FrameHandler3@@QEBA_NAEBV012@@Z 0000000180041270 f i libvcruntimed:frame.obj
 0001:000402b0       ??Diterator@HandlerMap4@FH4@@QEAA?AUHandlerType4@2@XZ 00000001800412b0 f i libvcruntimed:frame.obj
 0001:000402e0       ??Diterator@HandlerMap@__FrameHandler3@@QEAA?BU_s_HandlerType@@XZ 00000001800412e0 f i libvcruntimed:frame.obj
 0001:00040320       ??Diterator@TryBlockMap@__FrameHandler3@@QEAA?BU_s_TryBlockMapEntry@@XZ 0000000180041320 f i libvcruntimed:frame.obj
 0001:00040370       ??Diterator@UWMap4@FH4@@QEAA?AUUnwindMapEntry4@2@XZ 0000000180041370 f i libvcruntimed:frame.obj
 0001:000403f0       ??Eiterator@HandlerMap4@FH4@@QEAAAEAV012@XZ 00000001800413f0 f i libvcruntimed:frame.obj
 0001:00040430       ??Eiterator@HandlerMap@__FrameHandler3@@QEAAAEAV012@XZ 0000000180041430 f i libvcruntimed:frame.obj
 0001:00040450       ??Eiterator@TryBlockMap@__FrameHandler3@@QEAAAEAV012@XZ 0000000180041450 f i libvcruntimed:frame.obj
 0001:00040470       ??Eiterator@UWMap4@FH4@@QEAAAEAV012@XZ 0000000180041470 f i libvcruntimed:frame.obj
 0001:000404b0       ??Giterator@UWMap4@FH4@@QEBA_JAEBV012@@Z 00000001800414b0 f i libvcruntimed:frame.obj
 0001:000404d0       ??Miterator@TryBlockMap4@FH4@@QEBA_NAEBV012@@Z 00000001800414d0 f i libvcruntimed:frame.obj
 0001:00040510       ??Miterator@TryBlockMap@__FrameHandler3@@QEBA_NAEBV012@@Z 0000000180041510 f i libvcruntimed:frame.obj
 0001:00040550       ??Oiterator@UWMap4@FH4@@QEBA_NAEBV012@@Z 0000000180041550 f i libvcruntimed:frame.obj
 0001:00040590       ??Piterator@UWMap4@FH4@@QEBA_NAEBV012@@Z 0000000180041590 f i libvcruntimed:frame.obj
 0001:000405d0       ??_Gbad_exception@std@@UEAAPEAXI@Z 00000001800415d0 f i libvcruntimed:frame.obj
 0001:000405d0       ??_Ebad_exception@std@@UEAAPEAXI@Z 00000001800415d0 f i libvcruntimed:frame.obj
 0001:00040610       ?BuildCatchObject@__FrameHandler3@@SAXPEAUEHExceptionRecord@@PEAXPEBU_s_HandlerType@@PEBU_s_CatchableType@@@Z 0000000180041610 f   libvcruntimed:frame.obj
 0001:00040650       ?BuildCatchObject@__FrameHandler4@@SAXPEAUEHExceptionRecord@@PEAXPEAUHandlerType4@FH4@@PEBU_s_CatchableType@@@Z 0000000180041650 f   libvcruntimed:frame.obj
 0001:00040690       ?BuildCatchObjectHelper@__FrameHandler3@@SAHPEAUEHExceptionRecord@@PEAXPEBU_s_HandlerType@@PEBU_s_CatchableType@@@Z 0000000180041690 f   libvcruntimed:frame.obj
 0001:000406d0       ?BuildCatchObjectHelper@__FrameHandler4@@SAHPEAUEHExceptionRecord@@PEAXPEAUHandlerType4@FH4@@PEBU_s_CatchableType@@@Z 00000001800416d0 f   libvcruntimed:frame.obj
 0001:00040710       ?CxxCallCatchBlock@__FrameHandler3@@SAPEAXPEAU_EXCEPTION_RECORD@@@Z 0000000180041710 f   libvcruntimed:frame.obj
 0001:00040970       ?CxxCallCatchBlock@__FrameHandler4@@SAPEAXPEAU_EXCEPTION_RECORD@@@Z 0000000180041970 f   libvcruntimed:frame.obj
 0001:00040ca0       ?DecompHandler@HandlerMap4@FH4@@AEAAXXZ 0000000180041ca0 f i libvcruntimed:frame.obj
 0001:00041070       ?FrameUnwindToState@__FrameHandler3@@SAXPEA_KPEAU_xDISPATCHER_CONTEXT@@PEBU_s_FuncInfo@@H@Z 0000000180042070 f   libvcruntimed:frame.obj
 0001:000412c0       ?FrameUnwindToState@__FrameHandler4@@SAXPEA_KPEAU_xDISPATCHER_CONTEXT@@PEAUFuncInfo4@FH4@@H@Z 00000001800422c0 f   libvcruntimed:frame.obj
 0001:000415d0       ?GetHandlerSearchState@__FrameHandler3@@SAHPEA_KPEAU_xDISPATCHER_CONTEXT@@PEBU_s_FuncInfo@@@Z 00000001800425d0 f i libvcruntimed:frame.obj
 0001:00041680       ?GetHandlerSearchState@__FrameHandler4@@SAHPEA_KPEAU_xDISPATCHER_CONTEXT@@PEAUFuncInfo4@FH4@@@Z 0000000180042680 f i libvcruntimed:frame.obj
 0001:00041700       ?GetMaxState@__FrameHandler3@@SAHPEAU_xDISPATCHER_CONTEXT@@PEBU_s_FuncInfo@@@Z 0000000180042700 f i libvcruntimed:frame.obj
 0001:00041720       ?GetMaxState@__FrameHandler4@@SAHPEAU_xDISPATCHER_CONTEXT@@PEAUFuncInfo4@FH4@@@Z 0000000180042720 f i libvcruntimed:frame.obj
 0001:00041950       ?ReadEntry@UWMap4@FH4@@AEAAXPEAPEAE@Z 0000000180042950 f i libvcruntimed:frame.obj
 0001:00041a00       ?TypeMatch@__FrameHandler3@@SAHPEBU_s_HandlerType@@PEBU_s_CatchableType@@PEBU_s_ThrowInfo@@@Z 0000000180042a00 f   libvcruntimed:frame.obj
 0001:00041a30       ?TypeMatch@__FrameHandler4@@SAHPEAUHandlerType4@FH4@@PEBU_s_CatchableType@@PEBU_s_ThrowInfo@@@Z 0000000180042a30 f   libvcruntimed:frame.obj
 0001:00041a60       ?WalkBack@UWMap4@FH4@@AEAAXPEAPEAE@Z 0000000180042a60 f i libvcruntimed:frame.obj
 0001:00041ab0       ?WalkBack@iterator@UWMap4@FH4@@QEAAXXZ 0000000180042ab0 f i libvcruntimed:frame.obj
 0001:00041af0       ?WalkForward@UWMap4@FH4@@AEAAXPEAPEAE@Z 0000000180042af0 f i libvcruntimed:frame.obj
 0001:00041b20       ?_CallMemberFunction1@@YAXQEAX00@Z 0000000180042b20 f i libvcruntimed:frame.obj
 0001:00041b60       ?_CallMemberFunction2@@YAXQEAX00H@Z 0000000180042b60 f i libvcruntimed:frame.obj
 0001:00041bf0       ?begin@HandlerMap4@FH4@@QEAA?AViterator@12@XZ 0000000180042bf0 f i libvcruntimed:frame.obj
 0001:00041c20       ?begin@HandlerMap@__FrameHandler3@@QEAA?AViterator@12@XZ 0000000180042c20 f i libvcruntimed:frame.obj
 0001:00041c50       ?begin@UWMap4@FH4@@QEAA?AViterator@12@XZ 0000000180042c50 f i libvcruntimed:frame.obj
 0001:00041c80       ?end@HandlerMap4@FH4@@QEAA?AViterator@12@XZ 0000000180042c80 f i libvcruntimed:frame.obj
 0001:00041cb0       ?end@HandlerMap@__FrameHandler3@@QEAA?AViterator@12@XZ 0000000180042cb0 f i libvcruntimed:frame.obj
 0001:00041ce0       ?getESTypes@__FrameHandler3@@SAPEBU_s_ESTypeList@@PEBU_s_FuncInfo@@@Z 0000000180042ce0 f i libvcruntimed:frame.obj
 0001:00041d20       ?getESTypes@__FrameHandler4@@SAPEBU_s_ESTypeList@@PEAUFuncInfo4@FH4@@@Z 0000000180042d20 f i libvcruntimed:frame.obj
 0001:00041d30       ?getLastEntry@HandlerMap4@FH4@@QEAAPEAUHandlerType4@2@XZ 0000000180042d30 f i libvcruntimed:frame.obj
 0001:00041d70       ?getLastEntry@HandlerMap@__FrameHandler3@@QEAAPEBU_s_HandlerType@@XZ 0000000180042d70 f i libvcruntimed:frame.obj
 0001:00041d90       ?getMagicNum@__FrameHandler3@@SAIPEBU_s_FuncInfo@@@Z 0000000180042d90 f i libvcruntimed:frame.obj
 0001:00041db0       ?getMagicNum@__FrameHandler4@@SAIPEAUFuncInfo4@FH4@@@Z 0000000180042db0 f i libvcruntimed:frame.obj
 0001:00041dc0       ?getNumTryBlocks@TryBlockMap4@FH4@@QEAAIXZ 0000000180042dc0 f i libvcruntimed:frame.obj
 0001:00041dd0       ?getNumTryBlocks@TryBlockMap@__FrameHandler3@@QEAAIXZ 0000000180042dd0 f i libvcruntimed:frame.obj
 0001:00041df0       ?getStartStop@UWMap4@FH4@@QEAAXHHAEAViterator@12@0@Z 0000000180042df0 f i libvcruntimed:frame.obj
 0001:00041f10       ?getStateFromIterators@UWMap4@FH4@@SAHAEBViterator@12@H0H0@Z 0000000180042f10 f i libvcruntimed:frame.obj
 0001:00042050       ?isEHs@__FrameHandler3@@SA_NPEBU_s_FuncInfo@@@Z 0000000180043050 f i libvcruntimed:frame.obj
 0001:00042090       ?isEHs@__FrameHandler4@@SA_NPEAUFuncInfo4@FH4@@@Z 0000000180043090 f i libvcruntimed:frame.obj
 0001:000420b0       ?isNoExcept@__FrameHandler3@@SA_NPEBU_s_FuncInfo@@@Z 00000001800430b0 f i libvcruntimed:frame.obj
 0001:000420f0       ?isNoExcept@__FrameHandler4@@SA_NPEAUFuncInfo4@FH4@@@Z 00000001800430f0 f i libvcruntimed:frame.obj
 0001:00042110       ?reset@HandlerType4@FH4@@QEAAXXZ 0000000180043110 f i libvcruntimed:frame.obj
 0001:00042170       ?resetBuffer@HandlerMap4@FH4@@QEAAXXZ 0000000180043170 f i libvcruntimed:frame.obj
 0001:00042190       ?setBuffer@HandlerMap4@FH4@@QEAAXI@Z 0000000180043190 f i libvcruntimed:frame.obj
 0001:000421f0       __BuildCatchObject         00000001800431f0 f   libvcruntimed:frame.obj
 0001:00042230       __BuildCatchObjectHelper   0000000180043230 f   libvcruntimed:frame.obj
 0001:00042270       __TypeMatch                0000000180043270 f   libvcruntimed:frame.obj
 0001:000422a0       __vcrt_EncodePointer       00000001800432a0 f i libvcruntimed:frame.obj
 0001:000422c0       ??$?0$00@DName@@QEAA@PEBDU?$StringLifeSelector@$00@@@Z 00000001800432c0 f i libvcruntimed:undname.obj
 0001:00042330       ??$?0$00@pcharNode@@QEAA@PEBDHU?$StringLifeSelector@$00@@@Z 0000000180043330 f i libvcruntimed:undname.obj
 0001:00042390       ??$?0$01@DName@@QEAA@PEBDU?$StringLifeSelector@$01@@@Z 0000000180043390 f i libvcruntimed:undname.obj
 0001:00042400       ??$?0$01@pcharNode@@QEAA@PEBDHU?$StringLifeSelector@$01@@@Z 0000000180043400 f i libvcruntimed:undname.obj
 0001:000424b0       ??$?0$0A@@DName@@QEAA@PEBDU?$StringLifeSelector@$0A@@@@Z 00000001800434b0 f i libvcruntimed:undname.obj
 0001:00042520       ??$?0$0A@@pcharNode@@QEAA@PEBDHU?$StringLifeSelector@$0A@@@@Z 0000000180043520 f i libvcruntimed:undname.obj
 0001:000425d0       ??$?0_K$0A@@?$optional@_K@std@@QEAA@$$QEA_K@Z 00000001800435d0 f i libvcruntimed:undname.obj
 0001:00042620       ??$?0_K@?$_Optional_construct_base@_K@std@@QEAA@Uin_place_t@1@$$QEA_K@Z 0000000180043620 f i libvcruntimed:undname.obj
 0001:00042650       ??$?0_K@?$_Optional_destruct_base@_K$00@std@@QEAA@Uin_place_t@1@$$QEA_K@Z 0000000180043650 f i libvcruntimed:undname.obj
 0001:00042690       ??$append@VDNameNode@@@DName@@AEAAXPEBVDNameNode@@@Z 0000000180043690 f i libvcruntimed:undname.obj
 0001:00042740       ??$append@VDNameStatusNode@@@DName@@AEAAXPEBVDNameStatusNode@@@Z 0000000180043740 f i libvcruntimed:undname.obj
 0001:000427f0       ??$append@VcharNode@@@DName@@AEAAXPEBVcharNode@@@Z 00000001800437f0 f i libvcruntimed:undname.obj
 0001:000428a0       ??$append@VpDNameNode@@@DName@@AEAAXPEBVpDNameNode@@@Z 00000001800438a0 f i libvcruntimed:undname.obj
 0001:00042950       ??$append@VpcharNode@@@DName@@AEAAXPEBVpcharNode@@@Z 0000000180043950 f i libvcruntimed:undname.obj
 0001:00042a00       ??$doPchar@$00@DName@@AEAAXPEBDH@Z 0000000180043a00 f i libvcruntimed:undname.obj
 0001:00042b60       ??$doPchar@$01@DName@@AEAAXPEBDH@Z 0000000180043b60 f i libvcruntimed:undname.obj
 0001:00042cc0       ??$doPchar@$0A@@DName@@AEAAXPEBDH@Z 0000000180043cc0 f i libvcruntimed:undname.obj
 0001:00042e20       ??$forward@_K@std@@YA$$QEA_KAEA_K@Z 0000000180043e20 f i libvcruntimed:undname.obj
 0001:00042e30       ??$size@D$04@std@@YA_KAEAY04$$CBD@Z 0000000180043e30 f i libvcruntimed:undname.obj
 0001:00042e40       ??$size@D$0EB@@std@@YA_KAEAY0EB@$$CBD@Z 0000000180043e40 f i libvcruntimed:undname.obj
 0001:00042e50       ??0?$_Optional_construct_base@_K@std@@QEAA@XZ 0000000180043e50 f i libvcruntimed:undname.obj
 0001:00042e70       ??0?$_Optional_destruct_base@_K$00@std@@QEAA@XZ 0000000180043e70 f i libvcruntimed:undname.obj
 0001:00042ea0       ??0?$optional@_K@std@@QEAA@XZ 0000000180043ea0 f i libvcruntimed:undname.obj
 0001:00042ec0       ??0Block@_HeapManager@@QEAA@XZ 0000000180043ec0 f i libvcruntimed:undname.obj
 0001:00042ee0       ??0DName@@QEAA@AEAPEBDD@Z  0000000180043ee0 f   libvcruntimed:undname.obj
 0001:000430b0       ??0DName@@QEAA@AEBUStringLiteral@@@Z 00000001800440b0 f   libvcruntimed:undname.obj
 0001:00043110       ??0DName@@QEAA@AEBV0@@Z    0000000180044110 f i libvcruntimed:undname.obj
 0001:00043140       ??0DName@@QEAA@D@Z         0000000180044140 f   libvcruntimed:undname.obj
 0001:00043180       ??0DName@@QEAA@PEAV0@@Z    0000000180044180 f   libvcruntimed:undname.obj
 0001:00043260       ??0DName@@QEAA@W4DNameStatus@@@Z 0000000180044260 f   libvcruntimed:undname.obj
 0001:00043310       ??0DName@@QEAA@XZ          0000000180044310 f i libvcruntimed:undname.obj
 0001:00043340       ??0DName@@QEAA@_J@Z        0000000180044340 f   libvcruntimed:undname.obj
 0001:00043450       ??0DName@@QEAA@_K@Z        0000000180044450 f   libvcruntimed:undname.obj
 0001:00043520       ??0DNameNode@@IEAA@XZ      0000000180044520 f i libvcruntimed:undname.obj
 0001:00043540       ??0Replicator@@QEAA@XZ     0000000180044540 f i libvcruntimed:undname.obj
 0001:00043580       ??0UnDecorator@@QEAA@PEBDP6APEADJ@ZK@Z 0000000180044580 f i libvcruntimed:undname.obj
 0001:00043630       ??0_Nontrivial_dummy_type@std@@QEAA@XZ 0000000180044630 f i libvcruntimed:undname.obj
 0001:00043640       ??0charNode@@QEAA@D@Z      0000000180044640 f i libvcruntimed:undname.obj
 0001:00043680       ??0pDNameNode@@QEAA@PEAVDName@@@Z 0000000180044680 f   libvcruntimed:undname.obj
 0001:00043700       ??0pairNode@@QEAA@PEBVDNameNode@@0@Z 0000000180044700 f i libvcruntimed:undname.obj
 0001:00043780       ??2@YAPEAX_KAEAV_HeapManager@@H@Z 0000000180044780 f   libvcruntimed:undname.obj
 0001:000437e0       ??4DName@@QEAAAEAV0@AEBUStringLiteral@@@Z 00000001800447e0 f   libvcruntimed:undname.obj
 0001:00043830       ??4DName@@QEAAAEAV0@AEBV0@@Z 0000000180044830 f   libvcruntimed:undname.obj
 0001:00043860       ??4DName@@QEAAAEAV0@D@Z    0000000180044860 f i libvcruntimed:undname.obj
 0001:000438a0       ??4DName@@QEAAAEAV0@PEAV0@@Z 00000001800448a0 f   libvcruntimed:undname.obj
 0001:00043970       ??4DName@@QEAAAEAV0@W4DNameStatus@@@Z 0000000180044970 f   libvcruntimed:undname.obj
 0001:00043a00       ??AReplicator@@QEBA?AVDName@@H@Z 0000000180044a00 f   libvcruntimed:undname.obj
 0001:00043a90       ??B?$optional@_K@std@@QEBA_NXZ 0000000180044a90 f i libvcruntimed:undname.obj
 0001:00043aa0       ??D?$optional@_K@std@@QEGAAAEA_KXZ 0000000180044aa0 f i libvcruntimed:undname.obj
 0001:00043ab0       ??H@YA?AVDName@@AEBUStringLiteral@@AEBV0@@Z 0000000180044ab0 f i libvcruntimed:undname.obj
 0001:00043b00       ??H@YA?AVDName@@DAEBV0@@Z  0000000180044b00 f i libvcruntimed:undname.obj
 0001:00043b50       ??H@YA?AVDName@@W4DNameStatus@@AEBV0@@Z 0000000180044b50 f i libvcruntimed:undname.obj
 0001:00043ba0       ??HDName@@QEBA?AV0@AEBUStringLiteral@@@Z 0000000180044ba0 f   libvcruntimed:undname.obj
 0001:00043bf0       ??HDName@@QEBA?AV0@AEBV0@@Z 0000000180044bf0 f   libvcruntimed:undname.obj
 0001:00043c40       ??HDName@@QEBA?AV0@D@Z     0000000180044c40 f   libvcruntimed:undname.obj
 0001:00043c90       ??HDName@@QEBA?AV0@PEAV0@@Z 0000000180044c90 f   libvcruntimed:undname.obj
 0001:00043ce0       ??HDName@@QEBA?AV0@W4DNameStatus@@@Z 0000000180044ce0 f   libvcruntimed:undname.obj
 0001:00043d30       ??HStringLiteral@@QEBA?AU0@H@Z 0000000180044d30 f i libvcruntimed:undname.obj
 0001:00043d70       ??YDName@@QEAAAEAV0@AEBUStringLiteral@@@Z 0000000180044d70 f   libvcruntimed:undname.obj
 0001:00043e40       ??YDName@@QEAAAEAV0@AEBV0@@Z 0000000180044e40 f   libvcruntimed:undname.obj
 0001:00043f00       ??YDName@@QEAAAEAV0@D@Z    0000000180044f00 f   libvcruntimed:undname.obj
 0001:00043fa0       ??YDName@@QEAAAEAV0@PEAV0@@Z 0000000180044fa0 f   libvcruntimed:undname.obj
 0001:00044080       ??YDName@@QEAAAEAV0@W4DNameStatus@@@Z 0000000180045080 f   libvcruntimed:undname.obj
 0001:000440f0       ??YReplicator@@QEAAAEAV0@AEBVDName@@@Z 00000001800450f0 f   libvcruntimed:undname.obj
 0001:000441b0       ??_5DName@@QEAAAEAV0@AEBV0@@Z 00000001800451b0 f   libvcruntimed:undname.obj
 0001:00044220       ??__K_l@@YA?AUStringLiteral@@PEBD_K@Z 0000000180045220 f i libvcruntimed:undname.obj
 0001:00044270       ?Constructor@_HeapManager@@QEAAXP6APEAX_K@ZP6AXPEAX@Z@Z 0000000180045270 f i libvcruntimed:undname.obj
 0001:000442d0       ?Destructor@_HeapManager@@QEAAXXZ 00000001800452d0 f i libvcruntimed:undname.obj
 0001:00044370       ?UScore@UnDecorator@@SA?AUStringLiteral@@W4Tokens@@@Z 0000000180045370 f   libvcruntimed:undname.obj
 0001:00044400       ?composeDeclaration@UnDecorator@@CA?AVDName@@AEBV2@@Z 0000000180045400 f i libvcruntimed:undname.obj
 0001:00046900       ?dbGetString@DName@@QEBAPEADXZ 0000000180047900 f   libvcruntimed:undname.obj
 0001:00046930       ?doAccessSpecifiers@UnDecorator@@SAHXZ 0000000180047930 f i libvcruntimed:undname.obj
 0001:00046960       ?doAllocationLanguage@UnDecorator@@SAHXZ 0000000180047960 f i libvcruntimed:undname.obj
 0001:00046990       ?doAllocationModel@UnDecorator@@SAHXZ 0000000180047990 f i libvcruntimed:undname.obj
 0001:000469c0       ?doEcsu@UnDecorator@@SAHXZ 00000001800479c0 f i libvcruntimed:undname.obj
 0001:000469f0       ?doEllipsis@UnDecorator@@SAHXZ 00000001800479f0 f i libvcruntimed:undname.obj
 0001:00046a20       ?doFunctionReturns@UnDecorator@@SAHXZ 0000000180047a20 f i libvcruntimed:undname.obj
 0001:00046a50       ?doMSKeywords@UnDecorator@@SAHXZ 0000000180047a50 f i libvcruntimed:undname.obj
 0001:00046a80       ?doMemberTypes@UnDecorator@@SAHXZ 0000000180047a80 f i libvcruntimed:undname.obj
 0001:00046ab0       ?doNameOnly@UnDecorator@@SAHXZ 0000000180047ab0 f i libvcruntimed:undname.obj
 0001:00046ac0       ?doNoIdentCharCheck@UnDecorator@@SAHXZ 0000000180047ac0 f i libvcruntimed:undname.obj
 0001:00046ad0       ?doPchar@DName@@AEAAXD@Z   0000000180047ad0 f   libvcruntimed:undname.obj
 0001:00046b60       ?doPtr64@UnDecorator@@SAHXZ 0000000180047b60 f i libvcruntimed:undname.obj
 0001:00046b90       ?doRestrictionSpec@UnDecorator@@SAHXZ 0000000180047b90 f i libvcruntimed:undname.obj
 0001:00046bc0       ?doThisTypes@UnDecorator@@SAHXZ 0000000180047bc0 f i libvcruntimed:undname.obj
 0001:00046bf0       ?doThrowTypes@UnDecorator@@SAHXZ 0000000180047bf0 f i libvcruntimed:undname.obj
 0001:00046c20       ?doTypeOnly@UnDecorator@@SAHXZ 0000000180047c20 f i libvcruntimed:undname.obj
 0001:00046c30       ?doUnderScore@UnDecorator@@SAHXZ 0000000180047c30 f i libvcruntimed:undname.obj
 0001:00046c60       ?getArgumentList@UnDecorator@@CA?AVDName@@XZ 0000000180047c60 f   libvcruntimed:undname.obj
 0001:00046e00       ?getArgumentTypes@UnDecorator@@CA?AVDName@@XZ 0000000180047e00 f   libvcruntimed:undname.obj
 0001:00047160       ?getArrayObject@UnDecorator@@CA?AVDName@@XZ 0000000180048160 f   libvcruntimed:undname.obj
 0001:00047280       ?getArrayType@UnDecorator@@CA?AVDName@@AEBV2@@Z 0000000180048280 f i libvcruntimed:undname.obj
 0001:00047640       ?getBasedType@UnDecorator@@CA?AVDName@@XZ 0000000180048640 f   libvcruntimed:undname.obj
 0001:000477b0       ?getBasicDataType@UnDecorator@@CA?AVDName@@AEBV2@@Z 00000001800487b0 f   libvcruntimed:undname.obj
 0001:00048480       ?getCHPEName@UnDecorator@@QEAAPEADPEADH@Z 0000000180049480 f i libvcruntimed:undname.obj
 0001:00048650       ?getCallIndex@UnDecorator@@CA?AVDName@@XZ 0000000180049650 f i libvcruntimed:undname.obj
 0001:00048670       ?getCallingConvention@UnDecorator@@CA?AVDName@@XZ 0000000180049670 f   libvcruntimed:undname.obj
 0001:00048a10       ?getDataIndirectType@UnDecorator@@CA?AVDName@@AEBV2@W4IndirectionKind@@0H@Z 0000000180049a10 f   libvcruntimed:undname.obj
 0001:000496b0       ?getDataIndirectType@UnDecorator@@CA?AVDName@@XZ 000000018004a6b0 f i libvcruntimed:undname.obj
 0001:00049700       ?getDataType@UnDecorator@@CA?AVDName@@PEAV2@@Z 000000018004a700 f   libvcruntimed:undname.obj
 0001:000498e0       ?getDecoratedName@UnDecorator@@CA?AVDName@@XZ 000000018004a8e0 f   libvcruntimed:undname.obj
 0001:00049dd0       ?getDimension@UnDecorator@@CA?AVDName@@_N@Z 000000018004add0 f   libvcruntimed:undname.obj
 0001:0004a0e0       ?getDispatchTarget@UnDecorator@@CA?AVDName@@XZ 000000018004b0e0 f   libvcruntimed:undname.obj
 0001:0004a1b0       ?getDisplacement@UnDecorator@@CA?AVDName@@XZ 000000018004b1b0 f i libvcruntimed:undname.obj
 0001:0004a1d0       ?getECSUDataType@UnDecorator@@CA?AVDName@@XZ 000000018004b1d0 f   libvcruntimed:undname.obj
 0001:0004a560       ?getECSUName@UnDecorator@@CA?AVDName@@XZ 000000018004b560 f i libvcruntimed:undname.obj
 0001:0004a580       ?getEnumType@UnDecorator@@CA?AVDName@@XZ 000000018004b580 f i libvcruntimed:undname.obj
 0001:0004a810       ?getExtendedDataIndirectType@UnDecorator@@CA?AVDName@@AEAW4IndirectionKind@@AEA_NH@Z 000000018004b810 f   libvcruntimed:undname.obj
 0001:0004ab30       ?getExternalDataType@UnDecorator@@CA?AVDName@@AEBV2@@Z 000000018004bb30 f i libvcruntimed:undname.obj
 0001:0004ac10       ?getFloatingPoint@UnDecorator@@CA?AVDName@@H@Z 000000018004bc10 f   libvcruntimed:undname.obj
 0001:0004ae80       ?getFunctionIndirectType@UnDecorator@@CA?AVDName@@AEBV2@@Z 000000018004be80 f   libvcruntimed:undname.obj
 0001:0004b4b0       ?getGuardNumber@UnDecorator@@CA?AVDName@@XZ 000000018004c4b0 f i libvcruntimed:undname.obj
 0001:0004b4d0       ?getLastChar@DName@@QEBADXZ 000000018004c4d0 f i libvcruntimed:undname.obj
 0001:0004b520       ?getLastChar@DNameStatusNode@@UEBADXZ 000000018004c520 f i libvcruntimed:undname.obj
 0001:0004b560       ?getLastChar@charNode@@UEBADXZ 000000018004c560 f i libvcruntimed:undname.obj
 0001:0004b570       ?getLastChar@pDNameNode@@UEBADXZ 000000018004c570 f i libvcruntimed:undname.obj
 0001:0004b5b0       ?getLastChar@pairNode@@UEBADXZ 000000018004c5b0 f i libvcruntimed:undname.obj
 0001:0004b630       ?getLastChar@pcharNode@@UEBADXZ 000000018004c630 f i libvcruntimed:undname.obj
 0001:0004b670       ?getLexicalFrame@UnDecorator@@CA?AVDName@@XZ 000000018004c670 f i libvcruntimed:undname.obj
 0001:0004b6c0       ?getMemoryWithBuffer@_HeapManager@@QEAAPEAX_K@Z 000000018004c6c0 f   libvcruntimed:undname.obj
 0001:0004b810       ?getMemoryWithoutBuffer@_HeapManager@@QEAAPEAX_K@Z 000000018004c810 f   libvcruntimed:undname.obj
 0001:0004b860       ?getNoexcept@UnDecorator@@CA?AVDName@@XZ 000000018004c860 f   libvcruntimed:undname.obj
 0001:0004b910       ?getNumberOfDimensions@UnDecorator@@CAHXZ 000000018004c910 f   libvcruntimed:undname.obj
 0001:0004ba30       ?getOperatorName@UnDecorator@@CA?AVDName@@_NPEA_N@Z 000000018004ca30 f i libvcruntimed:undname.obj
 0001:0004c940       ?getPointerType@UnDecorator@@CA?AVDName@@AEBV2@0@Z 000000018004d940 f i libvcruntimed:undname.obj
 0001:0004c980       ?getPointerTypeArray@UnDecorator@@CA?AVDName@@AEBV2@0@Z 000000018004d980 f i libvcruntimed:undname.obj
 0001:0004c9c0       ?getPrimaryDataType@UnDecorator@@CA?AVDName@@AEBV2@@Z 000000018004d9c0 f   libvcruntimed:undname.obj
 0001:0004cff0       ?getPtrRefDataType@UnDecorator@@CA?AVDName@@AEBV2@H@Z 000000018004dff0 f   libvcruntimed:undname.obj
 0001:0004d3e0       ?getPtrRefType@UnDecorator@@CA?AVDName@@AEBV2@0W4IndirectionKind@@@Z 000000018004e3e0 f   libvcruntimed:undname.obj
 0001:0004d620       ?getReferenceType@UnDecorator@@CA?AVDName@@AEBV2@0W4IndirectionKind@@@Z 000000018004e620 f i libvcruntimed:undname.obj
 0001:0004d660       ?getRestrictionSpec@UnDecorator@@CA?AVDName@@XZ 000000018004e660 f   libvcruntimed:undname.obj
 0001:0004d8f0       ?getReturnType@UnDecorator@@CA?AVDName@@PEAV2@@Z 000000018004e8f0 f   libvcruntimed:undname.obj
 0001:0004d950       ?getScope@UnDecorator@@CA?AVDName@@XZ 000000018004e950 f   libvcruntimed:undname.obj
 0001:0004e0a0       ?getScopedName@UnDecorator@@CA?AVDName@@XZ 000000018004f0a0 f   libvcruntimed:undname.obj
 0001:0004e2a0       ?getSignedDimension@UnDecorator@@CA?AVDName@@XZ 000000018004f2a0 f   libvcruntimed:undname.obj
 0001:0004e330       ?getStorageConvention@UnDecorator@@CA?AVDName@@XZ 000000018004f330 f i libvcruntimed:undname.obj
 0001:0004e350       ?getString@DName@@QEBAPEADPEAD0@Z 000000018004f350 f i libvcruntimed:undname.obj
 0001:0004e3d0       ?getString@DName@@QEBAPEADPEADH@Z 000000018004f3d0 f i libvcruntimed:undname.obj
 0001:0004e490       ?getString@DNameStatusNode@@UEBAPEADPEAD0@Z 000000018004f490 f i libvcruntimed:undname.obj
 0001:0004e4e0       ?getString@charNode@@UEBAPEADPEAD0@Z 000000018004f4e0 f i libvcruntimed:undname.obj
 0001:0004e520       ?getString@pDNameNode@@UEBAPEADPEAD0@Z 000000018004f520 f i libvcruntimed:undname.obj
 0001:0004e580       ?getString@pairNode@@UEBAPEADPEAD0@Z 000000018004f580 f i libvcruntimed:undname.obj
 0001:0004e650       ?getString@pcharNode@@UEBAPEADPEAD0@Z 000000018004f650 f i libvcruntimed:undname.obj
 0001:0004e690       ?getStringEncoding@UnDecorator@@CA?AVDName@@W4PrefixKind@@H@Z 000000018004f690 f   libvcruntimed:undname.obj
 0001:0004e7f0       ?getStringHelper@@YAPEADPEADPEBD1H@Z 000000018004f7f0 f i libvcruntimed:undname.obj
 0001:0004e860       ?getStringObject@UnDecorator@@CA?AVDName@@XZ 000000018004f860 f   libvcruntimed:undname.obj
 0001:0004e940       ?getSymbolName@UnDecorator@@CA?AVDName@@XZ 000000018004f940 f i libvcruntimed:undname.obj
 0001:0004e9e0       ?getTemplateArgumentList@UnDecorator@@CA?AVDName@@XZ 000000018004f9e0 f   libvcruntimed:undname.obj
 0001:0004ed20       ?getTemplateName@UnDecorator@@CA?AVDName@@_N@Z 000000018004fd20 f   libvcruntimed:undname.obj
 0001:0004ef60       ?getTemplateNonTypeArgument@UnDecorator@@CA?AVDName@@XZ 000000018004ff60 f   libvcruntimed:undname.obj
 0001:0004f680       ?getTemplateTypeArgument@UnDecorator@@CA?AVDName@@XZ 0000000180050680 f   libvcruntimed:undname.obj
 0001:0004f8f0       ?getThisType@UnDecorator@@CA?AVDName@@XZ 00000001800508f0 f i libvcruntimed:undname.obj
 0001:0004f940       ?getThrowTypes@UnDecorator@@CA?AVDName@@XZ 0000000180050940 f   libvcruntimed:undname.obj
 0001:0004f990       ?getTypeEncoding@UnDecorator@@CAHXZ 0000000180050990 f i libvcruntimed:undname.obj
 0001:000505c0       ?getUndecoratedName@UnDecorator@@QEAAPEADPEADH@Z 00000001800515c0 f i libvcruntimed:undname.obj
 0001:000507b0       ?getVCallThunkType@UnDecorator@@CA?AVDName@@XZ 00000001800517b0 f i libvcruntimed:undname.obj
 0001:00050860       ?getValue@UnDecorator@@CA?AV?$optional@_K@std@@XZ 0000000180051860 f   libvcruntimed:undname.obj
 0001:00050930       ?getValueObject@UnDecorator@@CA?AVDName@@XZ 0000000180051930 f   libvcruntimed:undname.obj
 0001:00050b20       ?getVbTableType@UnDecorator@@CA?AVDName@@AEBV2@@Z 0000000180051b20 f i libvcruntimed:undname.obj
 0001:00050b50       ?getVdispMapType@UnDecorator@@CA?AVDName@@AEBV2@@Z 0000000180051b50 f i libvcruntimed:undname.obj
 0001:00050c10       ?getVfTableType@UnDecorator@@CA?AVDName@@AEBV2@@Z 0000000180051c10 f i libvcruntimed:undname.obj
 0001:00050eb0       ?getZName@UnDecorator@@CA?AVDName@@_N0@Z 0000000180051eb0 f   libvcruntimed:undname.obj
 0001:00051340       ?haveTemplateParameters@UnDecorator@@SAHXZ 0000000180052340 f i libvcruntimed:undname.obj
 0001:00051350       ?isArray@DName@@QEBAHXZ    0000000180052350 f i libvcruntimed:undname.obj
 0001:00051370       ?isComArray@DName@@QEBAHXZ 0000000180052370 f i libvcruntimed:undname.obj
 0001:00051390       ?isEmpty@DName@@QEBAHXZ    0000000180052390 f i libvcruntimed:undname.obj
 0001:000513c0       ?isFull@Replicator@@QEBAHXZ 00000001800523c0 f i libvcruntimed:undname.obj
 0001:000513f0       ?isNoTE@DName@@QEBAHXZ     00000001800523f0 f i libvcruntimed:undname.obj
 0001:00051410       ?isPinPtr@DName@@QEBAHXZ   0000000180052410 f i libvcruntimed:undname.obj
 0001:00051430       ?isPtrRef@DName@@QEBAHXZ   0000000180052430 f i libvcruntimed:undname.obj
 0001:00051450       ?isUDC@DName@@QEBAHXZ      0000000180052450 f i libvcruntimed:undname.obj
 0001:000514a0       ?isUDTThunk@DName@@QEBAHXZ 00000001800524a0 f i libvcruntimed:undname.obj
 0001:000514f0       ?isVCallThunk@DName@@QEBAHXZ 00000001800524f0 f i libvcruntimed:undname.obj
 0001:00051510       ?isValid@DName@@QEBAHXZ    0000000180052510 f i libvcruntimed:undname.obj
 0001:00051550       ?length@DName@@QEBAHXZ     0000000180052550 f i libvcruntimed:undname.obj
 0001:000515a0       ?length@DNameStatusNode@@UEBAHXZ 00000001800525a0 f i libvcruntimed:undname.obj
 0001:000515b0       ?length@charNode@@UEBAHXZ  00000001800525b0 f i libvcruntimed:undname.obj
 0001:000515c0       ?length@pDNameNode@@UEBAHXZ 00000001800525c0 f i libvcruntimed:undname.obj
 0001:00051600       ?length@pairNode@@UEBAHXZ  0000000180052600 f i libvcruntimed:undname.obj
 0001:00051690       ?length@pcharNode@@UEBAHXZ 0000000180052690 f i libvcruntimed:undname.obj
 0001:000516a0       ?make@DNameStatusNode@@SAPEBV1@W4DNameStatus@@@Z 00000001800526a0 f i libvcruntimed:undname.obj
 0001:000516f0       ?parseDecoratedName@UnDecorator@@CA?AVDName@@XZ 00000001800526f0 f   libvcruntimed:undname.obj
 0001:000518e0       ?raw_length@DNameStatusNode@@UEBAHXZ 00000001800528e0 f i libvcruntimed:undname.obj
 0001:00051900       ?raw_length@charNode@@UEBAHXZ 0000000180052900 f i libvcruntimed:undname.obj
 0001:00051920       ?raw_length@pDNameNode@@UEBAHXZ 0000000180052920 f i libvcruntimed:undname.obj
 0001:00051930       ?raw_length@pairNode@@UEBAHXZ 0000000180052930 f i libvcruntimed:undname.obj
 0001:00051940       ?raw_length@pcharNode@@UEBAHXZ 0000000180052940 f i libvcruntimed:undname.obj
 0001:00051960       ?setIsArray@DName@@QEAAXXZ 0000000180052960 f i libvcruntimed:undname.obj
 0001:00051980       ?setIsComArray@DName@@QEAAXXZ 0000000180052980 f i libvcruntimed:undname.obj
 0001:000519a0       ?setIsNoTE@DName@@QEAAXXZ  00000001800529a0 f i libvcruntimed:undname.obj
 0001:000519c0       ?setIsPinPtr@DName@@QEAAXXZ 00000001800529c0 f i libvcruntimed:undname.obj
 0001:000519e0       ?setIsUDC@DName@@QEAAXXZ   00000001800529e0 f i libvcruntimed:undname.obj
 0001:00051a10       ?setIsVCallThunk@DName@@QEAAXXZ 0000000180052a10 f i libvcruntimed:undname.obj
 0001:00051a30       ?setPtrRef@DName@@QEAAAEAV1@XZ 0000000180052a30 f i libvcruntimed:undname.obj
 0001:00051a50       ?status@DName@@QEBA?AW4DNameStatus@@XZ 0000000180052a50 f i libvcruntimed:undname.obj
 0001:00051b80       __unDName                  0000000180052b80 f   libvcruntimed:undname.obj
 0001:00051be0       __unDNameEx                0000000180052be0 f   libvcruntimed:undname.obj
 0001:00051ca0       unDNameGenerateCHPE        0000000180052ca0 f   libvcruntimed:undname.obj
 0001:00051d50       ??$__crt_interlocked_exchange_pointer@UHINSTANCE__@@PEAU1@@@YAPEAUHINSTANCE__@@PEDSEAU0@QEAU0@@Z 0000000180052d50 f i libvcruntimed:winapi_downlevel.obj
 0001:00051d70       ??$__crt_interlocked_exchange_pointer@UHINSTANCE__@@PEAX@@YAPEAUHINSTANCE__@@PEDSEAU0@QEAX@Z 0000000180052d70 f i libvcruntimed:winapi_downlevel.obj
 0001:00051d90       ??$__crt_interlocked_exchange_pointer@XPEAX@@YAPEAXPEDSEAXQEAX@Z 0000000180052d90 f i libvcruntimed:winapi_downlevel.obj
 0001:00051db0       ??$__crt_interlocked_read_pointer@UHINSTANCE__@@@@YAPEAUHINSTANCE__@@PEDSEAU0@@Z 0000000180052db0 f i libvcruntimed:winapi_downlevel.obj
 0001:00051dd0       ??$__crt_interlocked_read_pointer@X@@YAPEAXPEDSEAX@Z 0000000180052dd0 f i libvcruntimed:winapi_downlevel.obj
 0001:000522e0       __vcrt_FlsAlloc            00000001800532e0 f   libvcruntimed:winapi_downlevel.obj
 0001:00052330       __vcrt_FlsFree             0000000180053330 f   libvcruntimed:winapi_downlevel.obj
 0001:00052380       __vcrt_FlsGetValue         0000000180053380 f   libvcruntimed:winapi_downlevel.obj
 0001:000523d0       __vcrt_FlsSetValue         00000001800533d0 f   libvcruntimed:winapi_downlevel.obj
 0001:00052430       __vcrt_InitializeCriticalSectionEx 0000000180053430 f   libvcruntimed:winapi_downlevel.obj
 0001:000524b0       _CallSettingFrame          00000001800534b0 f   libvcruntimed:handlers.obj
 0001:00052500       _CallSettingFrame_LookupContinuationIndex 0000000180053500 f   libvcruntimed:handlers.obj
 0001:00052530       _CallSettingFrame_NotifyContinuationAddr 0000000180053530 f   libvcruntimed:handlers.obj
 0001:00052560       _CallSettingFrameEncoded   0000000180053560 f   libvcruntimed:handlers.obj
 0001:000525b0       ??$?0AEBV?$stream_output_adapter@D@__crt_stdio_output@@AEB_KAEBQEBDAEBQEAU__crt_locale_pointers@@AEBQEAD@?$format_validation_base@DV?$stream_output_adapter@D@__crt_stdio_output@@@__crt_stdio_output@@IEAA@AEBV?$stream_output_adapter@D@1@AEB_KAEBQEBDAEBQEAU__crt_locale_pointers@@AEBQEAD@Z 00000001800535b0 f i libucrtd:output.obj
 0001:00052600       ??$?0AEBV?$stream_output_adapter@D@__crt_stdio_output@@AEB_KAEBQEBDAEBQEAU__crt_locale_pointers@@AEBQEAD@?$positional_parameter_base@DV?$stream_output_adapter@D@__crt_stdio_output@@@__crt_stdio_output@@IEAA@AEBV?$stream_output_adapter@D@1@AEB_KAEBQEBDAEBQEAU__crt_locale_pointers@@AEBQEAD@Z 0000000180053600 f i libucrtd:output.obj
 0001:000526a0       ??$?0AEBV?$stream_output_adapter@D@__crt_stdio_output@@AEB_KAEBQEBDAEBQEAU__crt_locale_pointers@@AEBQEAD@?$standard_base@DV?$stream_output_adapter@D@__crt_stdio_output@@@__crt_stdio_output@@IEAA@AEBV?$stream_output_adapter@D@1@AEB_KAEBQEBDAEBQEAU__crt_locale_pointers@@AEBQEAD@Z 00000001800536a0 f i libucrtd:output.obj
 0001:00052710       ??$?0AEBV?$stream_output_adapter@_W@__crt_stdio_output@@AEB_KAEBQEB_WAEBQEAU__crt_locale_pointers@@AEBQEAD@?$format_validation_base@_WV?$stream_output_adapter@_W@__crt_stdio_output@@@__crt_stdio_output@@IEAA@AEBV?$stream_output_adapter@_W@1@AEB_KAEBQEB_WAEBQEAU__crt_locale_pointers@@AEBQEAD@Z 0000000180053710 f i libucrtd:output.obj
 0001:00052760       ??$?0AEBV?$stream_output_adapter@_W@__crt_stdio_output@@AEB_KAEBQEB_WAEBQEAU__crt_locale_pointers@@AEBQEAD@?$positional_parameter_base@_WV?$stream_output_adapter@_W@__crt_stdio_output@@@__crt_stdio_output@@IEAA@AEBV?$stream_output_adapter@_W@1@AEB_KAEBQEB_WAEBQEAU__crt_locale_pointers@@AEBQEAD@Z 0000000180053760 f i libucrtd:output.obj
 0001:00052800       ??$?0AEBV?$stream_output_adapter@_W@__crt_stdio_output@@AEB_KAEBQEB_WAEBQEAU__crt_locale_pointers@@AEBQEAD@?$standard_base@_WV?$stream_output_adapter@_W@__crt_stdio_output@@@__crt_stdio_output@@IEAA@AEBV?$stream_output_adapter@_W@1@AEB_KAEBQEB_WAEBQEAU__crt_locale_pointers@@AEBQEAD@Z 0000000180053800 f i libucrtd:output.obj
 0001:00052870       ??$?0AEBV?$string_output_adapter@D@__crt_stdio_output@@AEB_KAEBQEBDAEBQEAU__crt_locale_pointers@@AEBQEAD@?$format_validation_base@DV?$string_output_adapter@D@__crt_stdio_output@@@__crt_stdio_output@@IEAA@AEBV?$string_output_adapter@D@1@AEB_KAEBQEBDAEBQEAU__crt_locale_pointers@@AEBQEAD@Z 0000000180053870 f i libucrtd:output.obj
 0001:000528c0       ??$?0AEBV?$string_output_adapter@D@__crt_stdio_output@@AEB_KAEBQEBDAEBQEAU__crt_locale_pointers@@AEBQEAD@?$positional_parameter_base@DV?$string_output_adapter@D@__crt_stdio_output@@@__crt_stdio_output@@IEAA@AEBV?$string_output_adapter@D@1@AEB_KAEBQEBDAEBQEAU__crt_locale_pointers@@AEBQEAD@Z 00000001800538c0 f i libucrtd:output.obj
 0001:00052960       ??$?0AEBV?$string_output_adapter@D@__crt_stdio_output@@AEB_KAEBQEBDAEBQEAU__crt_locale_pointers@@AEBQEAD@?$standard_base@DV?$string_output_adapter@D@__crt_stdio_output@@@__crt_stdio_output@@IEAA@AEBV?$string_output_adapter@D@1@AEB_KAEBQEBDAEBQEAU__crt_locale_pointers@@AEBQEAD@Z 0000000180053960 f i libucrtd:output.obj
 0001:000529d0       ??$?0AEBV?$string_output_adapter@_W@__crt_stdio_output@@AEB_KAEBQEB_WAEBQEAU__crt_locale_pointers@@AEBQEAD@?$format_validation_base@_WV?$string_output_adapter@_W@__crt_stdio_output@@@__crt_stdio_output@@IEAA@AEBV?$string_output_adapter@_W@1@AEB_KAEBQEB_WAEBQEAU__crt_locale_pointers@@AEBQEAD@Z 00000001800539d0 f i libucrtd:output.obj
 0001:00052a20       ??$?0AEBV?$string_output_adapter@_W@__crt_stdio_output@@AEB_KAEBQEB_WAEBQEAU__crt_locale_pointers@@AEBQEAD@?$positional_parameter_base@_WV?$string_output_adapter@_W@__crt_stdio_output@@@__crt_stdio_output@@IEAA@AEBV?$string_output_adapter@_W@1@AEB_KAEBQEB_WAEBQEAU__crt_locale_pointers@@AEBQEAD@Z 0000000180053a20 f i libucrtd:output.obj
 0001:00052ac0       ??$?0AEBV?$string_output_adapter@_W@__crt_stdio_output@@AEB_KAEBQEB_WAEBQEAU__crt_locale_pointers@@AEBQEAD@?$standard_base@_WV?$string_output_adapter@_W@__crt_stdio_output@@@__crt_stdio_output@@IEAA@AEBV?$string_output_adapter@_W@1@AEB_KAEBQEB_WAEBQEAU__crt_locale_pointers@@AEBQEAD@Z 0000000180053ac0 f i libucrtd:output.obj
 0001:00052ef0       ??$__crt_interlocked_read@J@@YAJPEDJ@Z 0000000180053ef0 f i libucrtd:output.obj
 0001:000569d0       ??$count@D@formatting_buffer@__crt_stdio_output@@QEBA_KXZ 00000001800579d0 f i libucrtd:output.obj
 0001:00056a20       ??$count@_W@formatting_buffer@__crt_stdio_output@@QEBA_KXZ 0000000180057a20 f i libucrtd:output.obj
 0001:00056a70       ??$data@D@formatting_buffer@__crt_stdio_output@@QEAAPEADXZ 0000000180057a70 f i libucrtd:output.obj
 0001:00056ac0       ??$data@_W@formatting_buffer@__crt_stdio_output@@QEAAPEA_WXZ 0000000180057ac0 f i libucrtd:output.obj
 0001:00056b10       ??$ensure_buffer_is_big_enough@D@formatting_buffer@__crt_stdio_output@@QEAA_N_K@Z 0000000180057b10 f i libucrtd:output.obj
 0001:00056c40       ??$ensure_buffer_is_big_enough@_W@formatting_buffer@__crt_stdio_output@@QEAA_N_K@Z 0000000180057c40 f i libucrtd:output.obj
 0001:00056d70       ??$extract_argument_from_va_list@C_J@?$positional_parameter_base@DV?$stream_output_adapter@D@__crt_stdio_output@@@__crt_stdio_output@@IEAA_NAEA_J@Z 0000000180057d70 f i libucrtd:output.obj
 0001:00056ef0       ??$extract_argument_from_va_list@C_J@?$positional_parameter_base@DV?$string_output_adapter@D@__crt_stdio_output@@@__crt_stdio_output@@IEAA_NAEA_J@Z 0000000180057ef0 f i libucrtd:output.obj
 0001:00057070       ??$extract_argument_from_va_list@C_J@?$positional_parameter_base@_WV?$stream_output_adapter@_W@__crt_stdio_output@@@__crt_stdio_output@@IEAA_NAEA_J@Z 0000000180058070 f i libucrtd:output.obj
 0001:000571f0       ??$extract_argument_from_va_list@C_J@?$positional_parameter_base@_WV?$string_output_adapter@_W@__crt_stdio_output@@@__crt_stdio_output@@IEAA_NAEA_J@Z 00000001800581f0 f i libucrtd:output.obj
 0001:00057370       ??$extract_argument_from_va_list@C_J@?$standard_base@DV?$stream_output_adapter@D@__crt_stdio_output@@@__crt_stdio_output@@IEAA_NAEA_J@Z 0000000180058370 f i libucrtd:output.obj
 0001:000573b0       ??$extract_argument_from_va_list@C_J@?$standard_base@DV?$string_output_adapter@D@__crt_stdio_output@@@__crt_stdio_output@@IEAA_NAEA_J@Z 00000001800583b0 f i libucrtd:output.obj
 0001:000573f0       ??$extract_argument_from_va_list@C_J@?$standard_base@_WV?$stream_output_adapter@_W@__crt_stdio_output@@@__crt_stdio_output@@IEAA_NAEA_J@Z 00000001800583f0 f i libucrtd:output.obj
 0001:00057430       ??$extract_argument_from_va_list@C_J@?$standard_base@_WV?$string_output_adapter@_W@__crt_stdio_output@@@__crt_stdio_output@@IEAA_NAEA_J@Z 0000000180058430 f i libucrtd:output.obj
 0001:00057470       ??$extract_argument_from_va_list@E_J@?$positional_parameter_base@DV?$stream_output_adapter@D@__crt_stdio_output@@@__crt_stdio_output@@IEAA_NAEA_J@Z 0000000180058470 f i libucrtd:output.obj
 0001:000575f0       ??$extract_argument_from_va_list@E_J@?$positional_parameter_base@DV?$string_output_adapter@D@__crt_stdio_output@@@__crt_stdio_output@@IEAA_NAEA_J@Z 00000001800585f0 f i libucrtd:output.obj
 0001:00057770       ??$extract_argument_from_va_list@E_J@?$positional_parameter_base@_WV?$stream_output_adapter@_W@__crt_stdio_output@@@__crt_stdio_output@@IEAA_NAEA_J@Z 0000000180058770 f i libucrtd:output.obj
 0001:000578f0       ??$extract_argument_from_va_list@E_J@?$positional_parameter_base@_WV?$string_output_adapter@_W@__crt_stdio_output@@@__crt_stdio_output@@IEAA_NAEA_J@Z 00000001800588f0 f i libucrtd:output.obj
 0001:00057a70       ??$extract_argument_from_va_list@E_J@?$standard_base@DV?$stream_output_adapter@D@__crt_stdio_output@@@__crt_stdio_output@@IEAA_NAEA_J@Z 0000000180058a70 f i libucrtd:output.obj
 0001:00057ab0       ??$extract_argument_from_va_list@E_J@?$standard_base@DV?$string_output_adapter@D@__crt_stdio_output@@@__crt_stdio_output@@IEAA_NAEA_J@Z 0000000180058ab0 f i libucrtd:output.obj
 0001:00057af0       ??$extract_argument_from_va_list@E_J@?$standard_base@_WV?$stream_output_adapter@_W@__crt_stdio_output@@@__crt_stdio_output@@IEAA_NAEA_J@Z 0000000180058af0 f i libucrtd:output.obj
 0001:00057b30       ??$extract_argument_from_va_list@E_J@?$standard_base@_WV?$string_output_adapter@_W@__crt_stdio_output@@@__crt_stdio_output@@IEAA_NAEA_J@Z 0000000180058b30 f i libucrtd:output.obj
 0001:00057b70       ??$extract_argument_from_va_list@F_J@?$positional_parameter_base@DV?$stream_output_adapter@D@__crt_stdio_output@@@__crt_stdio_output@@IEAA_NAEA_J@Z 0000000180058b70 f i libucrtd:output.obj
 0001:00057cf0       ??$extract_argument_from_va_list@F_J@?$positional_parameter_base@DV?$string_output_adapter@D@__crt_stdio_output@@@__crt_stdio_output@@IEAA_NAEA_J@Z 0000000180058cf0 f i libucrtd:output.obj
 0001:00057e70       ??$extract_argument_from_va_list@F_J@?$positional_parameter_base@_WV?$stream_output_adapter@_W@__crt_stdio_output@@@__crt_stdio_output@@IEAA_NAEA_J@Z 0000000180058e70 f i libucrtd:output.obj
 0001:00057ff0       ??$extract_argument_from_va_list@F_J@?$positional_parameter_base@_WV?$string_output_adapter@_W@__crt_stdio_output@@@__crt_stdio_output@@IEAA_NAEA_J@Z 0000000180058ff0 f i libucrtd:output.obj
 0001:00058170       ??$extract_argument_from_va_list@F_J@?$standard_base@DV?$stream_output_adapter@D@__crt_stdio_output@@@__crt_stdio_output@@IEAA_NAEA_J@Z 0000000180059170 f i libucrtd:output.obj
 0001:000581b0       ??$extract_argument_from_va_list@F_J@?$standard_base@DV?$string_output_adapter@D@__crt_stdio_output@@@__crt_stdio_output@@IEAA_NAEA_J@Z 00000001800591b0 f i libucrtd:output.obj
 0001:000581f0       ??$extract_argument_from_va_list@F_J@?$standard_base@_WV?$stream_output_adapter@_W@__crt_stdio_output@@@__crt_stdio_output@@IEAA_NAEA_J@Z 00000001800591f0 f i libucrtd:output.obj
 0001:00058230       ??$extract_argument_from_va_list@F_J@?$standard_base@_WV?$string_output_adapter@_W@__crt_stdio_output@@@__crt_stdio_output@@IEAA_NAEA_J@Z 0000000180059230 f i libucrtd:output.obj
 0001:00058270       ??$extract_argument_from_va_list@GD@?$positional_parameter_base@DV?$stream_output_adapter@D@__crt_stdio_output@@@__crt_stdio_output@@IEAA_NAEAD@Z 0000000180059270 f i libucrtd:output.obj
 0001:000583f0       ??$extract_argument_from_va_list@GD@?$positional_parameter_base@DV?$string_output_adapter@D@__crt_stdio_output@@@__crt_stdio_output@@IEAA_NAEAD@Z 00000001800593f0 f i libucrtd:output.obj
 0001:00058570       ??$extract_argument_from_va_list@GD@?$standard_base@DV?$stream_output_adapter@D@__crt_stdio_output@@@__crt_stdio_output@@IEAA_NAEAD@Z 0000000180059570 f i libucrtd:output.obj
 0001:000585a0       ??$extract_argument_from_va_list@GD@?$standard_base@DV?$string_output_adapter@D@__crt_stdio_output@@@__crt_stdio_output@@IEAA_NAEAD@Z 00000001800595a0 f i libucrtd:output.obj
 0001:000585d0       ??$extract_argument_from_va_list@G_J@?$positional_parameter_base@DV?$stream_output_adapter@D@__crt_stdio_output@@@__crt_stdio_output@@IEAA_NAEA_J@Z 00000001800595d0 f i libucrtd:output.obj
 0001:00058750       ??$extract_argument_from_va_list@G_J@?$positional_parameter_base@DV?$string_output_adapter@D@__crt_stdio_output@@@__crt_stdio_output@@IEAA_NAEA_J@Z 0000000180059750 f i libucrtd:output.obj
 0001:000588d0       ??$extract_argument_from_va_list@G_J@?$positional_parameter_base@_WV?$stream_output_adapter@_W@__crt_stdio_output@@@__crt_stdio_output@@IEAA_NAEA_J@Z 00000001800598d0 f i libucrtd:output.obj
 0001:00058a50       ??$extract_argument_from_va_list@G_J@?$positional_parameter_base@_WV?$string_output_adapter@_W@__crt_stdio_output@@@__crt_stdio_output@@IEAA_NAEA_J@Z 0000000180059a50 f i libucrtd:output.obj
 0001:00058bd0       ??$extract_argument_from_va_list@G_J@?$standard_base@DV?$stream_output_adapter@D@__crt_stdio_output@@@__crt_stdio_output@@IEAA_NAEA_J@Z 0000000180059bd0 f i libucrtd:output.obj
 0001:00058c10       ??$extract_argument_from_va_list@G_J@?$standard_base@DV?$string_output_adapter@D@__crt_stdio_output@@@__crt_stdio_output@@IEAA_NAEA_J@Z 0000000180059c10 f i libucrtd:output.obj
 0001:00058c50       ??$extract_argument_from_va_list@G_J@?$standard_base@_WV?$stream_output_adapter@_W@__crt_stdio_output@@@__crt_stdio_output@@IEAA_NAEA_J@Z 0000000180059c50 f i libucrtd:output.obj
 0001:00058c90       ??$extract_argument_from_va_list@G_J@?$standard_base@_WV?$string_output_adapter@_W@__crt_stdio_output@@@__crt_stdio_output@@IEAA_NAEA_J@Z 0000000180059c90 f i libucrtd:output.obj
 0001:00058cd0       ??$extract_argument_from_va_list@H_J@?$positional_parameter_base@DV?$stream_output_adapter@D@__crt_stdio_output@@@__crt_stdio_output@@IEAA_NAEA_J@Z 0000000180059cd0 f i libucrtd:output.obj
 0001:00058e50       ??$extract_argument_from_va_list@H_J@?$positional_parameter_base@DV?$string_output_adapter@D@__crt_stdio_output@@@__crt_stdio_output@@IEAA_NAEA_J@Z 0000000180059e50 f i libucrtd:output.obj
 0001:00058fd0       ??$extract_argument_from_va_list@H_J@?$positional_parameter_base@_WV?$stream_output_adapter@_W@__crt_stdio_output@@@__crt_stdio_output@@IEAA_NAEA_J@Z 0000000180059fd0 f i libucrtd:output.obj
 0001:00059150       ??$extract_argument_from_va_list@H_J@?$positional_parameter_base@_WV?$string_output_adapter@_W@__crt_stdio_output@@@__crt_stdio_output@@IEAA_NAEA_J@Z 000000018005a150 f i libucrtd:output.obj
 0001:000592d0       ??$extract_argument_from_va_list@H_J@?$standard_base@DV?$stream_output_adapter@D@__crt_stdio_output@@@__crt_stdio_output@@IEAA_NAEA_J@Z 000000018005a2d0 f i libucrtd:output.obj
 0001:00059300       ??$extract_argument_from_va_list@H_J@?$standard_base@DV?$string_output_adapter@D@__crt_stdio_output@@@__crt_stdio_output@@IEAA_NAEA_J@Z 000000018005a300 f i libucrtd:output.obj
 0001:00059330       ??$extract_argument_from_va_list@H_J@?$standard_base@_WV?$stream_output_adapter@_W@__crt_stdio_output@@@__crt_stdio_output@@IEAA_NAEA_J@Z 000000018005a330 f i libucrtd:output.obj
 0001:00059360       ??$extract_argument_from_va_list@H_J@?$standard_base@_WV?$string_output_adapter@_W@__crt_stdio_output@@@__crt_stdio_output@@IEAA_NAEA_J@Z 000000018005a360 f i libucrtd:output.obj
 0001:00059390       ??$extract_argument_from_va_list@I_J@?$positional_parameter_base@DV?$stream_output_adapter@D@__crt_stdio_output@@@__crt_stdio_output@@IEAA_NAEA_J@Z 000000018005a390 f i libucrtd:output.obj
 0001:00059510       ??$extract_argument_from_va_list@I_J@?$positional_parameter_base@DV?$string_output_adapter@D@__crt_stdio_output@@@__crt_stdio_output@@IEAA_NAEA_J@Z 000000018005a510 f i libucrtd:output.obj
 0001:00059690       ??$extract_argument_from_va_list@I_J@?$positional_parameter_base@_WV?$stream_output_adapter@_W@__crt_stdio_output@@@__crt_stdio_output@@IEAA_NAEA_J@Z 000000018005a690 f i libucrtd:output.obj
 0001:00059810       ??$extract_argument_from_va_list@I_J@?$positional_parameter_base@_WV?$string_output_adapter@_W@__crt_stdio_output@@@__crt_stdio_output@@IEAA_NAEA_J@Z 000000018005a810 f i libucrtd:output.obj
 0001:00059990       ??$extract_argument_from_va_list@I_J@?$standard_base@DV?$stream_output_adapter@D@__crt_stdio_output@@@__crt_stdio_output@@IEAA_NAEA_J@Z 000000018005a990 f i libucrtd:output.obj
 0001:000599c0       ??$extract_argument_from_va_list@I_J@?$standard_base@DV?$string_output_adapter@D@__crt_stdio_output@@@__crt_stdio_output@@IEAA_NAEA_J@Z 000000018005a9c0 f i libucrtd:output.obj
 0001:000599f0       ??$extract_argument_from_va_list@I_J@?$standard_base@_WV?$stream_output_adapter@_W@__crt_stdio_output@@@__crt_stdio_output@@IEAA_NAEA_J@Z 000000018005a9f0 f i libucrtd:output.obj
 0001:00059a20       ??$extract_argument_from_va_list@I_J@?$standard_base@_WV?$string_output_adapter@_W@__crt_stdio_output@@@__crt_stdio_output@@IEAA_NAEA_J@Z 000000018005aa20 f i libucrtd:output.obj
 0001:00059a50       ??$extract_argument_from_va_list@PEADPEAD@?$positional_parameter_base@DV?$stream_output_adapter@D@__crt_stdio_output@@@__crt_stdio_output@@IEAA_NAEAPEAD@Z 000000018005aa50 f i libucrtd:output.obj
 0001:00059bd0       ??$extract_argument_from_va_list@PEADPEAD@?$positional_parameter_base@DV?$string_output_adapter@D@__crt_stdio_output@@@__crt_stdio_output@@IEAA_NAEAPEAD@Z 000000018005abd0 f i libucrtd:output.obj
 0001:00059d50       ??$extract_argument_from_va_list@PEADPEAD@?$positional_parameter_base@_WV?$stream_output_adapter@_W@__crt_stdio_output@@@__crt_stdio_output@@IEAA_NAEAPEAD@Z 000000018005ad50 f i libucrtd:output.obj
 0001:00059ed0       ??$extract_argument_from_va_list@PEADPEAD@?$positional_parameter_base@_WV?$string_output_adapter@_W@__crt_stdio_output@@@__crt_stdio_output@@IEAA_NAEAPEAD@Z 000000018005aed0 f i libucrtd:output.obj
 0001:0005a050       ??$extract_argument_from_va_list@PEADPEAD@?$standard_base@DV?$stream_output_adapter@D@__crt_stdio_output@@@__crt_stdio_output@@IEAA_NAEAPEAD@Z 000000018005b050 f i libucrtd:output.obj
 0001:0005a080       ??$extract_argument_from_va_list@PEADPEAD@?$standard_base@DV?$string_output_adapter@D@__crt_stdio_output@@@__crt_stdio_output@@IEAA_NAEAPEAD@Z 000000018005b080 f i libucrtd:output.obj
 0001:0005a0b0       ??$extract_argument_from_va_list@PEADPEAD@?$standard_base@_WV?$stream_output_adapter@_W@__crt_stdio_output@@@__crt_stdio_output@@IEAA_NAEAPEAD@Z 000000018005b0b0 f i libucrtd:output.obj
 0001:0005a0e0       ??$extract_argument_from_va_list@PEADPEAD@?$standard_base@_WV?$string_output_adapter@_W@__crt_stdio_output@@@__crt_stdio_output@@IEAA_NAEAPEAD@Z 000000018005b0e0 f i libucrtd:output.obj
 0001:0005a110       ??$extract_argument_from_va_list@PEAUansi_string@?1??type_case_Z@?$output_processor@DV?$stream_output_adapter@D@__crt_stdio_output@@V?$format_validation_base@DV?$stream_output_adapter@D@__crt_stdio_output@@@2@@__crt_stdio_output@@AEAA_NXZ@PEAU1?1??234@AEAA_NXZ@@?$standard_base@DV?$stream_output_adapter@D@__crt_stdio_output@@@__crt_stdio_output@@IEAA_NAEAPEAUansi_string@?1??type_case_Z@?$output_processor@DV?$stream_output_adapter@D@__crt_stdio_output@@V?$format_validation_base@DV?$stream_output_adapter@D@__crt_stdio_output@@@2@@1@AEAA_NXZ@@Z 000000018005b110 f i libucrtd:output.obj
 0001:0005a140       ??$extract_argument_from_va_list@PEAUansi_string@?1??type_case_Z@?$output_processor@DV?$stream_output_adapter@D@__crt_stdio_output@@V?$positional_parameter_base@DV?$stream_output_adapter@D@__crt_stdio_output@@@2@@__crt_stdio_output@@AEAA_NXZ@PEAU1?1??234@AEAA_NXZ@@?$positional_parameter_base@DV?$stream_output_adapter@D@__crt_stdio_output@@@__crt_stdio_output@@IEAA_NAEAPEAUansi_string@?1??type_case_Z@?$output_processor@DV?$stream_output_adapter@D@__crt_stdio_output@@V?$positional_parameter_base@DV?$stream_output_adapter@D@__crt_stdio_output@@@2@@1@AEAA_NXZ@@Z 000000018005b140 f i libucrtd:output.obj
 0001:0005a2c0       ??$extract_argument_from_va_list@PEAUansi_string@?1??type_case_Z@?$output_processor@DV?$stream_output_adapter@D@__crt_stdio_output@@V?$positional_parameter_base@DV?$stream_output_adapter@D@__crt_stdio_output@@@2@@__crt_stdio_output@@AEAA_NXZ@PEAU1?1??234@AEAA_NXZ@@?$standard_base@DV?$stream_output_adapter@D@__crt_stdio_output@@@__crt_stdio_output@@IEAA_NAEAPEAUansi_string@?1??type_case_Z@?$output_processor@DV?$stream_output_adapter@D@__crt_stdio_output@@V?$positional_parameter_base@DV?$stream_output_adapter@D@__crt_stdio_output@@@2@@1@AEAA_NXZ@@Z 000000018005b2c0 f i libucrtd:output.obj
 0001:0005a2f0       ??$extract_argument_from_va_list@PEAUansi_string@?1??type_case_Z@?$output_processor@DV?$stream_output_adapter@D@__crt_stdio_output@@V?$standard_base@DV?$stream_output_adapter@D@__crt_stdio_output@@@2@@__crt_stdio_output@@AEAA_NXZ@PEAU1?1??234@AEAA_NXZ@@?$standard_base@DV?$stream_output_adapter@D@__crt_stdio_output@@@__crt_stdio_output@@IEAA_NAEAPEAUansi_string@?1??type_case_Z@?$output_processor@DV?$stream_output_adapter@D@__crt_stdio_output@@V?$standard_base@DV?$stream_output_adapter@D@__crt_stdio_output@@@2@@1@AEAA_NXZ@@Z 000000018005b2f0 f i libucrtd:output.obj
 0001:0005a320       ??$extract_argument_from_va_list@PEAUansi_string@?1??type_case_Z@?$output_processor@DV?$string_output_adapter@D@__crt_stdio_output@@V?$format_validation_base@DV?$string_output_adapter@D@__crt_stdio_output@@@2@@__crt_stdio_output@@AEAA_NXZ@PEAU1?1??234@AEAA_NXZ@@?$standard_base@DV?$string_output_adapter@D@__crt_stdio_output@@@__crt_stdio_output@@IEAA_NAEAPEAUansi_string@?1??type_case_Z@?$output_processor@DV?$string_output_adapter@D@__crt_stdio_output@@V?$format_validation_base@DV?$string_output_adapter@D@__crt_stdio_output@@@2@@1@AEAA_NXZ@@Z 000000018005b320 f i libucrtd:output.obj
 0001:0005a350       ??$extract_argument_from_va_list@PEAUansi_string@?1??type_case_Z@?$output_processor@DV?$string_output_adapter@D@__crt_stdio_output@@V?$positional_parameter_base@DV?$string_output_adapter@D@__crt_stdio_output@@@2@@__crt_stdio_output@@AEAA_NXZ@PEAU1?1??234@AEAA_NXZ@@?$positional_parameter_base@DV?$string_output_adapter@D@__crt_stdio_output@@@__crt_stdio_output@@IEAA_NAEAPEAUansi_string@?1??type_case_Z@?$output_processor@DV?$string_output_adapter@D@__crt_stdio_output@@V?$positional_parameter_base@DV?$string_output_adapter@D@__crt_stdio_output@@@2@@1@AEAA_NXZ@@Z 000000018005b350 f i libucrtd:output.obj
 0001:0005a4d0       ??$extract_argument_from_va_list@PEAUansi_string@?1??type_case_Z@?$output_processor@DV?$string_output_adapter@D@__crt_stdio_output@@V?$positional_parameter_base@DV?$string_output_adapter@D@__crt_stdio_output@@@2@@__crt_stdio_output@@AEAA_NXZ@PEAU1?1??234@AEAA_NXZ@@?$standard_base@DV?$string_output_adapter@D@__crt_stdio_output@@@__crt_stdio_output@@IEAA_NAEAPEAUansi_string@?1??type_case_Z@?$output_processor@DV?$string_output_adapter@D@__crt_stdio_output@@V?$positional_parameter_base@DV?$string_output_adapter@D@__crt_stdio_output@@@2@@1@AEAA_NXZ@@Z 000000018005b4d0 f i libucrtd:output.obj
 0001:0005a500       ??$extract_argument_from_va_list@PEAUansi_string@?1??type_case_Z@?$output_processor@DV?$string_output_adapter@D@__crt_stdio_output@@V?$standard_base@DV?$string_output_adapter@D@__crt_stdio_output@@@2@@__crt_stdio_output@@AEAA_NXZ@PEAU1?1??234@AEAA_NXZ@@?$standard_base@DV?$string_output_adapter@D@__crt_stdio_output@@@__crt_stdio_output@@IEAA_NAEAPEAUansi_string@?1??type_case_Z@?$output_processor@DV?$string_output_adapter@D@__crt_stdio_output@@V?$standard_base@DV?$string_output_adapter@D@__crt_stdio_output@@@2@@1@AEAA_NXZ@@Z 000000018005b500 f i libucrtd:output.obj
 0001:0005a530       ??$extract_argument_from_va_list@PEAUansi_string@?1??type_case_Z@?$output_processor@_WV?$stream_output_adapter@_W@__crt_stdio_output@@V?$format_validation_base@_WV?$stream_output_adapter@_W@__crt_stdio_output@@@2@@__crt_stdio_output@@AEAA_NXZ@PEAU1?1??234@AEAA_NXZ@@?$standard_base@_WV?$stream_output_adapter@_W@__crt_stdio_output@@@__crt_stdio_output@@IEAA_NAEAPEAUansi_string@?1??type_case_Z@?$output_processor@_WV?$stream_output_adapter@_W@__crt_stdio_output@@V?$format_validation_base@_WV?$stream_output_adapter@_W@__crt_stdio_output@@@2@@1@AEAA_NXZ@@Z 000000018005b530 f i libucrtd:output.obj
 0001:0005a560       ??$extract_argument_from_va_list@PEAUansi_string@?1??type_case_Z@?$output_processor@_WV?$stream_output_adapter@_W@__crt_stdio_output@@V?$positional_parameter_base@_WV?$stream_output_adapter@_W@__crt_stdio_output@@@2@@__crt_stdio_output@@AEAA_NXZ@PEAU1?1??234@AEAA_NXZ@@?$positional_parameter_base@_WV?$stream_output_adapter@_W@__crt_stdio_output@@@__crt_stdio_output@@IEAA_NAEAPEAUansi_string@?1??type_case_Z@?$output_processor@_WV?$stream_output_adapter@_W@__crt_stdio_output@@V?$positional_parameter_base@_WV?$stream_output_adapter@_W@__crt_stdio_output@@@2@@1@AEAA_NXZ@@Z 000000018005b560 f i libucrtd:output.obj
 0001:0005a6e0       ??$extract_argument_from_va_list@PEAUansi_string@?1??type_case_Z@?$output_processor@_WV?$stream_output_adapter@_W@__crt_stdio_output@@V?$positional_parameter_base@_WV?$stream_output_adapter@_W@__crt_stdio_output@@@2@@__crt_stdio_output@@AEAA_NXZ@PEAU1?1??234@AEAA_NXZ@@?$standard_base@_WV?$stream_output_adapter@_W@__crt_stdio_output@@@__crt_stdio_output@@IEAA_NAEAPEAUansi_string@?1??type_case_Z@?$output_processor@_WV?$stream_output_adapter@_W@__crt_stdio_output@@V?$positional_parameter_base@_WV?$stream_output_adapter@_W@__crt_stdio_output@@@2@@1@AEAA_NXZ@@Z 000000018005b6e0 f i libucrtd:output.obj
 0001:0005a710       ??$extract_argument_from_va_list@PEAUansi_string@?1??type_case_Z@?$output_processor@_WV?$stream_output_adapter@_W@__crt_stdio_output@@V?$standard_base@_WV?$stream_output_adapter@_W@__crt_stdio_output@@@2@@__crt_stdio_output@@AEAA_NXZ@PEAU1?1??234@AEAA_NXZ@@?$standard_base@_WV?$stream_output_adapter@_W@__crt_stdio_output@@@__crt_stdio_output@@IEAA_NAEAPEAUansi_string@?1??type_case_Z@?$output_processor@_WV?$stream_output_adapter@_W@__crt_stdio_output@@V?$standard_base@_WV?$stream_output_adapter@_W@__crt_stdio_output@@@2@@1@AEAA_NXZ@@Z 000000018005b710 f i libucrtd:output.obj
 0001:0005a740       ??$extract_argument_from_va_list@PEAUansi_string@?1??type_case_Z@?$output_processor@_WV?$string_output_adapter@_W@__crt_stdio_output@@V?$format_validation_base@_WV?$string_output_adapter@_W@__crt_stdio_output@@@2@@__crt_stdio_output@@AEAA_NXZ@PEAU1?1??234@AEAA_NXZ@@?$standard_base@_WV?$string_output_adapter@_W@__crt_stdio_output@@@__crt_stdio_output@@IEAA_NAEAPEAUansi_string@?1??type_case_Z@?$output_processor@_WV?$string_output_adapter@_W@__crt_stdio_output@@V?$format_validation_base@_WV?$string_output_adapter@_W@__crt_stdio_output@@@2@@1@AEAA_NXZ@@Z 000000018005b740 f i libucrtd:output.obj
 0001:0005a770       ??$extract_argument_from_va_list@PEAUansi_string@?1??type_case_Z@?$output_processor@_WV?$string_output_adapter@_W@__crt_stdio_output@@V?$positional_parameter_base@_WV?$string_output_adapter@_W@__crt_stdio_output@@@2@@__crt_stdio_output@@AEAA_NXZ@PEAU1?1??234@AEAA_NXZ@@?$positional_parameter_base@_WV?$string_output_adapter@_W@__crt_stdio_output@@@__crt_stdio_output@@IEAA_NAEAPEAUansi_string@?1??type_case_Z@?$output_processor@_WV?$string_output_adapter@_W@__crt_stdio_output@@V?$positional_parameter_base@_WV?$string_output_adapter@_W@__crt_stdio_output@@@2@@1@AEAA_NXZ@@Z 000000018005b770 f i libucrtd:output.obj
 0001:0005a8f0       ??$extract_argument_from_va_list@PEAUansi_string@?1??type_case_Z@?$output_processor@_WV?$string_output_adapter@_W@__crt_stdio_output@@V?$positional_parameter_base@_WV?$string_output_adapter@_W@__crt_stdio_output@@@2@@__crt_stdio_output@@AEAA_NXZ@PEAU1?1??234@AEAA_NXZ@@?$standard_base@_WV?$string_output_adapter@_W@__crt_stdio_output@@@__crt_stdio_output@@IEAA_NAEAPEAUansi_string@?1??type_case_Z@?$output_processor@_WV?$string_output_adapter@_W@__crt_stdio_output@@V?$positional_parameter_base@_WV?$string_output_adapter@_W@__crt_stdio_output@@@2@@1@AEAA_NXZ@@Z 000000018005b8f0 f i libucrtd:output.obj
 0001:0005a920       ??$extract_argument_from_va_list@PEAUansi_string@?1??type_case_Z@?$output_processor@_WV?$string_output_adapter@_W@__crt_stdio_output@@V?$standard_base@_WV?$string_output_adapter@_W@__crt_stdio_output@@@2@@__crt_stdio_output@@AEAA_NXZ@PEAU1?1??234@AEAA_NXZ@@?$standard_base@_WV?$string_output_adapter@_W@__crt_stdio_output@@@__crt_stdio_output@@IEAA_NAEAPEAUansi_string@?1??type_case_Z@?$output_processor@_WV?$string_output_adapter@_W@__crt_stdio_output@@V?$standard_base@_WV?$string_output_adapter@_W@__crt_stdio_output@@@2@@1@AEAA_NXZ@@Z 000000018005b920 f i libucrtd:output.obj
 0001:0005a950       ??$extract_argument_from_va_list@PEAXPEAX@?$positional_parameter_base@DV?$stream_output_adapter@D@__crt_stdio_output@@@__crt_stdio_output@@IEAA_NAEAPEAX@Z 000000018005b950 f i libucrtd:output.obj
 0001:0005aad0       ??$extract_argument_from_va_list@PEAXPEAX@?$positional_parameter_base@DV?$string_output_adapter@D@__crt_stdio_output@@@__crt_stdio_output@@IEAA_NAEAPEAX@Z 000000018005bad0 f i libucrtd:output.obj
 0001:0005ac50       ??$extract_argument_from_va_list@PEAXPEAX@?$positional_parameter_base@_WV?$stream_output_adapter@_W@__crt_stdio_output@@@__crt_stdio_output@@IEAA_NAEAPEAX@Z 000000018005bc50 f i libucrtd:output.obj
 0001:0005add0       ??$extract_argument_from_va_list@PEAXPEAX@?$positional_parameter_base@_WV?$string_output_adapter@_W@__crt_stdio_output@@@__crt_stdio_output@@IEAA_NAEAPEAX@Z 000000018005bdd0 f i libucrtd:output.obj
 0001:0005af50       ??$extract_argument_from_va_list@PEAXPEAX@?$standard_base@DV?$stream_output_adapter@D@__crt_stdio_output@@@__crt_stdio_output@@IEAA_NAEAPEAX@Z 000000018005bf50 f i libucrtd:output.obj
 0001:0005af80       ??$extract_argument_from_va_list@PEAXPEAX@?$standard_base@DV?$string_output_adapter@D@__crt_stdio_output@@@__crt_stdio_output@@IEAA_NAEAPEAX@Z 000000018005bf80 f i libucrtd:output.obj
 0001:0005afb0       ??$extract_argument_from_va_list@PEAXPEAX@?$standard_base@_WV?$stream_output_adapter@_W@__crt_stdio_output@@@__crt_stdio_output@@IEAA_NAEAPEAX@Z 000000018005bfb0 f i libucrtd:output.obj
 0001:0005afe0       ??$extract_argument_from_va_list@PEAXPEAX@?$standard_base@_WV?$string_output_adapter@_W@__crt_stdio_output@@@__crt_stdio_output@@IEAA_NAEAPEAX@Z 000000018005bfe0 f i libucrtd:output.obj
 0001:0005b010       ??$extract_argument_from_va_list@U_CRT_DOUBLE@@U1@@?$positional_parameter_base@DV?$stream_output_adapter@D@__crt_stdio_output@@@__crt_stdio_output@@IEAA_NAEAU_CRT_DOUBLE@@@Z 000000018005c010 f i libucrtd:output.obj
 0001:0005b1b0       ??$extract_argument_from_va_list@U_CRT_DOUBLE@@U1@@?$positional_parameter_base@DV?$string_output_adapter@D@__crt_stdio_output@@@__crt_stdio_output@@IEAA_NAEAU_CRT_DOUBLE@@@Z 000000018005c1b0 f i libucrtd:output.obj
 0001:0005b350       ??$extract_argument_from_va_list@U_CRT_DOUBLE@@U1@@?$positional_parameter_base@_WV?$stream_output_adapter@_W@__crt_stdio_output@@@__crt_stdio_output@@IEAA_NAEAU_CRT_DOUBLE@@@Z 000000018005c350 f i libucrtd:output.obj
 0001:0005b4f0       ??$extract_argument_from_va_list@U_CRT_DOUBLE@@U1@@?$positional_parameter_base@_WV?$string_output_adapter@_W@__crt_stdio_output@@@__crt_stdio_output@@IEAA_NAEAU_CRT_DOUBLE@@@Z 000000018005c4f0 f i libucrtd:output.obj
 0001:0005b690       ??$extract_argument_from_va_list@U_CRT_DOUBLE@@U1@@?$standard_base@DV?$stream_output_adapter@D@__crt_stdio_output@@@__crt_stdio_output@@IEAA_NAEAU_CRT_DOUBLE@@@Z 000000018005c690 f i libucrtd:output.obj
 0001:0005b6e0       ??$extract_argument_from_va_list@U_CRT_DOUBLE@@U1@@?$standard_base@DV?$string_output_adapter@D@__crt_stdio_output@@@__crt_stdio_output@@IEAA_NAEAU_CRT_DOUBLE@@@Z 000000018005c6e0 f i libucrtd:output.obj
 0001:0005b730       ??$extract_argument_from_va_list@U_CRT_DOUBLE@@U1@@?$standard_base@_WV?$stream_output_adapter@_W@__crt_stdio_output@@@__crt_stdio_output@@IEAA_NAEAU_CRT_DOUBLE@@@Z 000000018005c730 f i libucrtd:output.obj
 0001:0005b780       ??$extract_argument_from_va_list@U_CRT_DOUBLE@@U1@@?$standard_base@_WV?$string_output_adapter@_W@__crt_stdio_output@@@__crt_stdio_output@@IEAA_NAEAU_CRT_DOUBLE@@@Z 000000018005c780 f i libucrtd:output.obj
 0001:0005b7d0       ??$extract_argument_from_va_list@_J_J@?$positional_parameter_base@DV?$stream_output_adapter@D@__crt_stdio_output@@@__crt_stdio_output@@IEAA_NAEA_J@Z 000000018005c7d0 f i libucrtd:output.obj
 0001:0005b950       ??$extract_argument_from_va_list@_J_J@?$positional_parameter_base@DV?$string_output_adapter@D@__crt_stdio_output@@@__crt_stdio_output@@IEAA_NAEA_J@Z 000000018005c950 f i libucrtd:output.obj
 0001:0005bad0       ??$extract_argument_from_va_list@_J_J@?$positional_parameter_base@_WV?$stream_output_adapter@_W@__crt_stdio_output@@@__crt_stdio_output@@IEAA_NAEA_J@Z 000000018005cad0 f i libucrtd:output.obj
 0001:0005bc50       ??$extract_argument_from_va_list@_J_J@?$positional_parameter_base@_WV?$string_output_adapter@_W@__crt_stdio_output@@@__crt_stdio_output@@IEAA_NAEA_J@Z 000000018005cc50 f i libucrtd:output.obj
 0001:0005bdd0       ??$extract_argument_from_va_list@_J_J@?$standard_base@DV?$stream_output_adapter@D@__crt_stdio_output@@@__crt_stdio_output@@IEAA_NAEA_J@Z 000000018005cdd0 f i libucrtd:output.obj
 0001:0005be00       ??$extract_argument_from_va_list@_J_J@?$standard_base@DV?$string_output_adapter@D@__crt_stdio_output@@@__crt_stdio_output@@IEAA_NAEA_J@Z 000000018005ce00 f i libucrtd:output.obj
 0001:0005be30       ??$extract_argument_from_va_list@_J_J@?$standard_base@_WV?$stream_output_adapter@_W@__crt_stdio_output@@@__crt_stdio_output@@IEAA_NAEA_J@Z 000000018005ce30 f i libucrtd:output.obj
 0001:0005be60       ??$extract_argument_from_va_list@_J_J@?$standard_base@_WV?$string_output_adapter@_W@__crt_stdio_output@@@__crt_stdio_output@@IEAA_NAEA_J@Z 000000018005ce60 f i libucrtd:output.obj
 0001:0005be90       ??$extract_argument_from_va_list@_K_J@?$positional_parameter_base@DV?$stream_output_adapter@D@__crt_stdio_output@@@__crt_stdio_output@@IEAA_NAEA_J@Z 000000018005ce90 f i libucrtd:output.obj
 0001:0005c010       ??$extract_argument_from_va_list@_K_J@?$positional_parameter_base@DV?$string_output_adapter@D@__crt_stdio_output@@@__crt_stdio_output@@IEAA_NAEA_J@Z 000000018005d010 f i libucrtd:output.obj
 0001:0005c190       ??$extract_argument_from_va_list@_K_J@?$positional_parameter_base@_WV?$stream_output_adapter@_W@__crt_stdio_output@@@__crt_stdio_output@@IEAA_NAEA_J@Z 000000018005d190 f i libucrtd:output.obj
 0001:0005c310       ??$extract_argument_from_va_list@_K_J@?$positional_parameter_base@_WV?$string_output_adapter@_W@__crt_stdio_output@@@__crt_stdio_output@@IEAA_NAEA_J@Z 000000018005d310 f i libucrtd:output.obj
 0001:0005c490       ??$extract_argument_from_va_list@_K_J@?$standard_base@DV?$stream_output_adapter@D@__crt_stdio_output@@@__crt_stdio_output@@IEAA_NAEA_J@Z 000000018005d490 f i libucrtd:output.obj
 0001:0005c4c0       ??$extract_argument_from_va_list@_K_J@?$standard_base@DV?$string_output_adapter@D@__crt_stdio_output@@@__crt_stdio_output@@IEAA_NAEA_J@Z 000000018005d4c0 f i libucrtd:output.obj
 0001:0005c4f0       ??$extract_argument_from_va_list@_K_J@?$standard_base@_WV?$stream_output_adapter@_W@__crt_stdio_output@@@__crt_stdio_output@@IEAA_NAEA_J@Z 000000018005d4f0 f i libucrtd:output.obj
 0001:0005c520       ??$extract_argument_from_va_list@_K_J@?$standard_base@_WV?$string_output_adapter@_W@__crt_stdio_output@@@__crt_stdio_output@@IEAA_NAEA_J@Z 000000018005d520 f i libucrtd:output.obj
 0001:0005c550       ??$extract_argument_from_va_list@_W_W@?$positional_parameter_base@DV?$stream_output_adapter@D@__crt_stdio_output@@@__crt_stdio_output@@IEAA_NAEA_W@Z 000000018005d550 f i libucrtd:output.obj
 0001:0005c6d0       ??$extract_argument_from_va_list@_W_W@?$positional_parameter_base@DV?$string_output_adapter@D@__crt_stdio_output@@@__crt_stdio_output@@IEAA_NAEA_W@Z 000000018005d6d0 f i libucrtd:output.obj
 0001:0005c850       ??$extract_argument_from_va_list@_W_W@?$positional_parameter_base@_WV?$stream_output_adapter@_W@__crt_stdio_output@@@__crt_stdio_output@@IEAA_NAEA_W@Z 000000018005d850 f i libucrtd:output.obj
 0001:0005c9d0       ??$extract_argument_from_va_list@_W_W@?$positional_parameter_base@_WV?$string_output_adapter@_W@__crt_stdio_output@@@__crt_stdio_output@@IEAA_NAEA_W@Z 000000018005d9d0 f i libucrtd:output.obj
 0001:0005cb50       ??$extract_argument_from_va_list@_W_W@?$standard_base@DV?$stream_output_adapter@D@__crt_stdio_output@@@__crt_stdio_output@@IEAA_NAEA_W@Z 000000018005db50 f i libucrtd:output.obj
 0001:0005cb80       ??$extract_argument_from_va_list@_W_W@?$standard_base@DV?$string_output_adapter@D@__crt_stdio_output@@@__crt_stdio_output@@IEAA_NAEA_W@Z 000000018005db80 f i libucrtd:output.obj
 0001:0005cbb0       ??$extract_argument_from_va_list@_W_W@?$standard_base@_WV?$stream_output_adapter@_W@__crt_stdio_output@@@__crt_stdio_output@@IEAA_NAEA_W@Z 000000018005dbb0 f i libucrtd:output.obj
 0001:0005cbe0       ??$extract_argument_from_va_list@_W_W@?$standard_base@_WV?$string_output_adapter@_W@__crt_stdio_output@@@__crt_stdio_output@@IEAA_NAEA_W@Z 000000018005dbe0 f i libucrtd:output.obj
 0001:0005cc10       ??$get_parameter_type@D@?$positional_parameter_base@DV?$stream_output_adapter@D@__crt_stdio_output@@@__crt_stdio_output@@CA?AW4parameter_type@01@PEAD@Z 000000018005dc10 f i libucrtd:output.obj
 0001:0005cc20       ??$get_parameter_type@D@?$positional_parameter_base@DV?$string_output_adapter@D@__crt_stdio_output@@@__crt_stdio_output@@CA?AW4parameter_type@01@PEAD@Z 000000018005dc20 f i libucrtd:output.obj
 0001:0005cc30       ??$get_parameter_type@D@?$positional_parameter_base@_WV?$stream_output_adapter@_W@__crt_stdio_output@@@__crt_stdio_output@@CA?AW4parameter_type@01@PEAD@Z 000000018005dc30 f i libucrtd:output.obj
 0001:0005cc40       ??$get_parameter_type@D@?$positional_parameter_base@_WV?$string_output_adapter@_W@__crt_stdio_output@@@__crt_stdio_output@@CA?AW4parameter_type@01@PEAD@Z 000000018005dc40 f i libucrtd:output.obj
 0001:0005cc50       ??$get_parameter_type@Uansi_string@?1??type_case_Z@?$output_processor@DV?$stream_output_adapter@D@__crt_stdio_output@@V?$positional_parameter_base@DV?$stream_output_adapter@D@__crt_stdio_output@@@2@@__crt_stdio_output@@AEAA_NXZ@@?$positional_parameter_base@DV?$stream_output_adapter@D@__crt_stdio_output@@@__crt_stdio_output@@CA?AW4parameter_type@01@PEAUansi_string@?1??type_case_Z@?$output_processor@DV?$stream_output_adapter@D@__crt_stdio_output@@V?$positional_parameter_base@DV?$stream_output_adapter@D@__crt_stdio_output@@@2@@1@AEAA_NXZ@@Z 000000018005dc50 f i libucrtd:output.obj
 0001:0005cc60       ??$get_parameter_type@Uansi_string@?1??type_case_Z@?$output_processor@DV?$string_output_adapter@D@__crt_stdio_output@@V?$positional_parameter_base@DV?$string_output_adapter@D@__crt_stdio_output@@@2@@__crt_stdio_output@@AEAA_NXZ@@?$positional_parameter_base@DV?$string_output_adapter@D@__crt_stdio_output@@@__crt_stdio_output@@CA?AW4parameter_type@01@PEAUansi_string@?1??type_case_Z@?$output_processor@DV?$string_output_adapter@D@__crt_stdio_output@@V?$positional_parameter_base@DV?$string_output_adapter@D@__crt_stdio_output@@@2@@1@AEAA_NXZ@@Z 000000018005dc60 f i libucrtd:output.obj
 0001:0005cc70       ??$get_parameter_type@Uansi_string@?1??type_case_Z@?$output_processor@_WV?$stream_output_adapter@_W@__crt_stdio_output@@V?$positional_parameter_base@_WV?$stream_output_adapter@_W@__crt_stdio_output@@@2@@__crt_stdio_output@@AEAA_NXZ@@?$positional_parameter_base@_WV?$stream_output_adapter@_W@__crt_stdio_output@@@__crt_stdio_output@@CA?AW4parameter_type@01@PEAUansi_string@?1??type_case_Z@?$output_processor@_WV?$stream_output_adapter@_W@__crt_stdio_output@@V?$positional_parameter_base@_WV?$stream_output_adapter@_W@__crt_stdio_output@@@2@@1@AEAA_NXZ@@Z 000000018005dc70 f i libucrtd:output.obj
 0001:0005cc80       ??$get_parameter_type@Uansi_string@?1??type_case_Z@?$output_processor@_WV?$string_output_adapter@_W@__crt_stdio_output@@V?$positional_parameter_base@_WV?$string_output_adapter@_W@__crt_stdio_output@@@2@@__crt_stdio_output@@AEAA_NXZ@@?$positional_parameter_base@_WV?$string_output_adapter@_W@__crt_stdio_output@@@__crt_stdio_output@@CA?AW4parameter_type@01@PEAUansi_string@?1??type_case_Z@?$output_processor@_WV?$string_output_adapter@_W@__crt_stdio_output@@V?$positional_parameter_base@_WV?$string_output_adapter@_W@__crt_stdio_output@@@2@@1@AEAA_NXZ@@Z 000000018005dc80 f i libucrtd:output.obj
 0001:0005cc90       ??$get_parameter_type@X@?$positional_parameter_base@DV?$stream_output_adapter@D@__crt_stdio_output@@@__crt_stdio_output@@CA?AW4parameter_type@01@PEAX@Z 000000018005dc90 f i libucrtd:output.obj
 0001:0005cca0       ??$get_parameter_type@X@?$positional_parameter_base@DV?$string_output_adapter@D@__crt_stdio_output@@@__crt_stdio_output@@CA?AW4parameter_type@01@PEAX@Z 000000018005dca0 f i libucrtd:output.obj
 0001:0005ccb0       ??$get_parameter_type@X@?$positional_parameter_base@_WV?$stream_output_adapter@_W@__crt_stdio_output@@@__crt_stdio_output@@CA?AW4parameter_type@01@PEAX@Z 000000018005dcb0 f i libucrtd:output.obj
 0001:0005ccc0       ??$get_parameter_type@X@?$positional_parameter_base@_WV?$string_output_adapter@_W@__crt_stdio_output@@@__crt_stdio_output@@CA?AW4parameter_type@01@PEAX@Z 000000018005dcc0 f i libucrtd:output.obj
 0001:0005ccd0       ??$is_character_specifier@D@?$positional_parameter_base@DV?$stream_output_adapter@D@__crt_stdio_output@@@__crt_stdio_output@@CA_ND@Z 000000018005dcd0 f i libucrtd:output.obj
 0001:0005cd10       ??$is_character_specifier@D@?$positional_parameter_base@DV?$string_output_adapter@D@__crt_stdio_output@@@__crt_stdio_output@@CA_ND@Z 000000018005dd10 f i libucrtd:output.obj
 0001:0005cd50       ??$is_character_specifier@_W@?$positional_parameter_base@_WV?$stream_output_adapter@_W@__crt_stdio_output@@@__crt_stdio_output@@CA_N_W@Z 000000018005dd50 f i libucrtd:output.obj
 0001:0005cd90       ??$is_character_specifier@_W@?$positional_parameter_base@_WV?$string_output_adapter@_W@__crt_stdio_output@@@__crt_stdio_output@@CA_N_W@Z 000000018005dd90 f i libucrtd:output.obj
 0001:0005cdd0       ??$is_integral_specifier@D@?$positional_parameter_base@DV?$stream_output_adapter@D@__crt_stdio_output@@@__crt_stdio_output@@CA_ND@Z 000000018005ddd0 f i libucrtd:output.obj
 0001:0005ce40       ??$is_integral_specifier@D@?$positional_parameter_base@DV?$string_output_adapter@D@__crt_stdio_output@@@__crt_stdio_output@@CA_ND@Z 000000018005de40 f i libucrtd:output.obj
 0001:0005ceb0       ??$is_integral_specifier@_W@?$positional_parameter_base@_WV?$stream_output_adapter@_W@__crt_stdio_output@@@__crt_stdio_output@@CA_N_W@Z 000000018005deb0 f i libucrtd:output.obj
 0001:0005cf20       ??$is_integral_specifier@_W@?$positional_parameter_base@_WV?$string_output_adapter@_W@__crt_stdio_output@@@__crt_stdio_output@@CA_N_W@Z 000000018005df20 f i libucrtd:output.obj
 0001:0005cf90       ??$is_pointer_specifier@D@?$positional_parameter_base@DV?$stream_output_adapter@D@__crt_stdio_output@@@__crt_stdio_output@@CA_ND@Z 000000018005df90 f i libucrtd:output.obj
 0001:0005cfc0       ??$is_pointer_specifier@D@?$positional_parameter_base@DV?$string_output_adapter@D@__crt_stdio_output@@@__crt_stdio_output@@CA_ND@Z 000000018005dfc0 f i libucrtd:output.obj
 0001:0005cff0       ??$is_pointer_specifier@_W@?$positional_parameter_base@_WV?$stream_output_adapter@_W@__crt_stdio_output@@@__crt_stdio_output@@CA_N_W@Z 000000018005dff0 f i libucrtd:output.obj
 0001:0005d020       ??$is_pointer_specifier@_W@?$positional_parameter_base@_WV?$string_output_adapter@_W@__crt_stdio_output@@@__crt_stdio_output@@CA_N_W@Z 000000018005e020 f i libucrtd:output.obj
 0001:0005d050       ??$is_string_specifier@D@?$positional_parameter_base@DV?$stream_output_adapter@D@__crt_stdio_output@@@__crt_stdio_output@@CA_ND@Z 000000018005e050 f i libucrtd:output.obj
 0001:0005d090       ??$is_string_specifier@D@?$positional_parameter_base@DV?$string_output_adapter@D@__crt_stdio_output@@@__crt_stdio_output@@CA_ND@Z 000000018005e090 f i libucrtd:output.obj
 0001:0005d0d0       ??$is_string_specifier@_W@?$positional_parameter_base@_WV?$stream_output_adapter@_W@__crt_stdio_output@@@__crt_stdio_output@@CA_N_W@Z 000000018005e0d0 f i libucrtd:output.obj
 0001:0005d110       ??$is_string_specifier@_W@?$positional_parameter_base@_WV?$string_output_adapter@_W@__crt_stdio_output@@@__crt_stdio_output@@CA_N_W@Z 000000018005e110 f i libucrtd:output.obj
 0001:0005d150       ??$is_wide_character_specifier@D@__crt_stdio_output@@YA_N_KDW4length_modifier@0@@Z 000000018005e150 f i libucrtd:output.obj
 0001:0005d1f0       ??$is_wide_character_specifier@_W@__crt_stdio_output@@YA_N_K_WW4length_modifier@0@@Z 000000018005e1f0 f i libucrtd:output.obj
 0001:0005d2c0       ??$peek_va_arg@C@__crt_stdio_output@@YACPEAD@Z 000000018005e2c0 f i libucrtd:output.obj
 0001:0005d320       ??$peek_va_arg@E@__crt_stdio_output@@YAEPEAD@Z 000000018005e320 f i libucrtd:output.obj
 0001:0005d380       ??$peek_va_arg@F@__crt_stdio_output@@YAFPEAD@Z 000000018005e380 f i libucrtd:output.obj
 0001:0005d3e0       ??$peek_va_arg@G@__crt_stdio_output@@YAGPEAD@Z 000000018005e3e0 f i libucrtd:output.obj
 0001:0005d440       ??$peek_va_arg@H@__crt_stdio_output@@YAHPEAD@Z 000000018005e440 f i libucrtd:output.obj
 0001:0005d490       ??$peek_va_arg@I@__crt_stdio_output@@YAIPEAD@Z 000000018005e490 f i libucrtd:output.obj
 0001:0005d4e0       ??$peek_va_arg@PEAD@__crt_stdio_output@@YAPEADPEAD@Z 000000018005e4e0 f i libucrtd:output.obj
 0001:0005d540       ??$peek_va_arg@PEAUansi_string@?1??type_case_Z@?$output_processor@DV?$stream_output_adapter@D@__crt_stdio_output@@V?$positional_parameter_base@DV?$stream_output_adapter@D@__crt_stdio_output@@@2@@__crt_stdio_output@@AEAA_NXZ@@__crt_stdio_output@@YAPEAUansi_string@?1??type_case_Z@?$output_processor@DV?$stream_output_adapter@D@__crt_stdio_output@@V?$positional_parameter_base@DV?$stream_output_adapter@D@__crt_stdio_output@@@2@@0@AEAA_NXZ@PEAD@Z 000000018005e540 f i libucrtd:output.obj
 0001:0005d5a0       ??$peek_va_arg@PEAUansi_string@?1??type_case_Z@?$output_processor@DV?$string_output_adapter@D@__crt_stdio_output@@V?$positional_parameter_base@DV?$string_output_adapter@D@__crt_stdio_output@@@2@@__crt_stdio_output@@AEAA_NXZ@@__crt_stdio_output@@YAPEAUansi_string@?1??type_case_Z@?$output_processor@DV?$string_output_adapter@D@__crt_stdio_output@@V?$positional_parameter_base@DV?$string_output_adapter@D@__crt_stdio_output@@@2@@0@AEAA_NXZ@PEAD@Z 000000018005e5a0 f i libucrtd:output.obj
 0001:0005d600       ??$peek_va_arg@PEAUansi_string@?1??type_case_Z@?$output_processor@_WV?$stream_output_adapter@_W@__crt_stdio_output@@V?$positional_parameter_base@_WV?$stream_output_adapter@_W@__crt_stdio_output@@@2@@__crt_stdio_output@@AEAA_NXZ@@__crt_stdio_output@@YAPEAUansi_string@?1??type_case_Z@?$output_processor@_WV?$stream_output_adapter@_W@__crt_stdio_output@@V?$positional_parameter_base@_WV?$stream_output_adapter@_W@__crt_stdio_output@@@2@@0@AEAA_NXZ@PEAD@Z 000000018005e600 f i libucrtd:output.obj
 0001:0005d660       ??$peek_va_arg@PEAUansi_string@?1??type_case_Z@?$output_processor@_WV?$string_output_adapter@_W@__crt_stdio_output@@V?$positional_parameter_base@_WV?$string_output_adapter@_W@__crt_stdio_output@@@2@@__crt_stdio_output@@AEAA_NXZ@@__crt_stdio_output@@YAPEAUansi_string@?1??type_case_Z@?$output_processor@_WV?$string_output_adapter@_W@__crt_stdio_output@@V?$positional_parameter_base@_WV?$string_output_adapter@_W@__crt_stdio_output@@@2@@0@AEAA_NXZ@PEAD@Z 000000018005e660 f i libucrtd:output.obj
 0001:0005d6c0       ??$peek_va_arg@PEAX@__crt_stdio_output@@YAPEAXPEAD@Z 000000018005e6c0 f i libucrtd:output.obj
 0001:0005d720       ??$peek_va_arg@U_CRT_DOUBLE@@@__crt_stdio_output@@YA?AU_CRT_DOUBLE@@PEAD@Z 000000018005e720 f i libucrtd:output.obj
 0001:0005d780       ??$peek_va_arg@_J@__crt_stdio_output@@YA_JPEAD@Z 000000018005e780 f i libucrtd:output.obj
 0001:0005d7e0       ??$peek_va_arg@_K@__crt_stdio_output@@YA_KPEAD@Z 000000018005e7e0 f i libucrtd:output.obj
 0001:0005d840       ??$peek_va_arg@_W@__crt_stdio_output@@YA_WPEAD@Z 000000018005e840 f i libucrtd:output.obj
 0001:0005d8a0       ??$puttc_nolock@AEBDPEAU_iobuf@@@?$__crt_char_traits@D@@SAHAEBD$$QEAPEAU_iobuf@@@Z 000000018005e8a0 f i libucrtd:output.obj
 0001:0005d8d0       ??$puttc_nolock@AEB_WPEAU_iobuf@@@?$__crt_char_traits@_W@@SAGAEB_W$$QEAPEAU_iobuf@@@Z 000000018005e8d0 f i libucrtd:output.obj
 0001:0005d900       ??$read_va_arg@C@__crt_stdio_output@@YACAEAPEAD@Z 000000018005e900 f i libucrtd:output.obj
 0001:0005d970       ??$read_va_arg@E@__crt_stdio_output@@YAEAEAPEAD@Z 000000018005e970 f i libucrtd:output.obj
 0001:0005d9e0       ??$read_va_arg@F@__crt_stdio_output@@YAFAEAPEAD@Z 000000018005e9e0 f i libucrtd:output.obj
 0001:0005da50       ??$read_va_arg@G@__crt_stdio_output@@YAGAEAPEAD@Z 000000018005ea50 f i libucrtd:output.obj
 0001:0005dac0       ??$read_va_arg@H@__crt_stdio_output@@YAHAEAPEAD@Z 000000018005eac0 f i libucrtd:output.obj
 0001:0005db20       ??$read_va_arg@I@__crt_stdio_output@@YAIAEAPEAD@Z 000000018005eb20 f i libucrtd:output.obj
 0001:0005db80       ??$read_va_arg@PEAD@__crt_stdio_output@@YAPEADAEAPEAD@Z 000000018005eb80 f i libucrtd:output.obj
 0001:0005dbf0       ??$read_va_arg@PEAUansi_string@?1??type_case_Z@?$output_processor@DV?$stream_output_adapter@D@__crt_stdio_output@@V?$format_validation_base@DV?$stream_output_adapter@D@__crt_stdio_output@@@2@@__crt_stdio_output@@AEAA_NXZ@@__crt_stdio_output@@YAPEAUansi_string@?1??type_case_Z@?$output_processor@DV?$stream_output_adapter@D@__crt_stdio_output@@V?$format_validation_base@DV?$stream_output_adapter@D@__crt_stdio_output@@@2@@0@AEAA_NXZ@AEAPEAD@Z 000000018005ebf0 f i libucrtd:output.obj
 0001:0005dc60       ??$read_va_arg@PEAUansi_string@?1??type_case_Z@?$output_processor@DV?$stream_output_adapter@D@__crt_stdio_output@@V?$positional_parameter_base@DV?$stream_output_adapter@D@__crt_stdio_output@@@2@@__crt_stdio_output@@AEAA_NXZ@@__crt_stdio_output@@YAPEAUansi_string@?1??type_case_Z@?$output_processor@DV?$stream_output_adapter@D@__crt_stdio_output@@V?$positional_parameter_base@DV?$stream_output_adapter@D@__crt_stdio_output@@@2@@0@AEAA_NXZ@AEAPEAD@Z 000000018005ec60 f i libucrtd:output.obj
 0001:0005dcd0       ??$read_va_arg@PEAUansi_string@?1??type_case_Z@?$output_processor@DV?$stream_output_adapter@D@__crt_stdio_output@@V?$standard_base@DV?$stream_output_adapter@D@__crt_stdio_output@@@2@@__crt_stdio_output@@AEAA_NXZ@@__crt_stdio_output@@YAPEAUansi_string@?1??type_case_Z@?$output_processor@DV?$stream_output_adapter@D@__crt_stdio_output@@V?$standard_base@DV?$stream_output_adapter@D@__crt_stdio_output@@@2@@0@AEAA_NXZ@AEAPEAD@Z 000000018005ecd0 f i libucrtd:output.obj
 0001:0005dd40       ??$read_va_arg@PEAUansi_string@?1??type_case_Z@?$output_processor@DV?$string_output_adapter@D@__crt_stdio_output@@V?$format_validation_base@DV?$string_output_adapter@D@__crt_stdio_output@@@2@@__crt_stdio_output@@AEAA_NXZ@@__crt_stdio_output@@YAPEAUansi_string@?1??type_case_Z@?$output_processor@DV?$string_output_adapter@D@__crt_stdio_output@@V?$format_validation_base@DV?$string_output_adapter@D@__crt_stdio_output@@@2@@0@AEAA_NXZ@AEAPEAD@Z 000000018005ed40 f i libucrtd:output.obj
 0001:0005ddb0       ??$read_va_arg@PEAUansi_string@?1??type_case_Z@?$output_processor@DV?$string_output_adapter@D@__crt_stdio_output@@V?$positional_parameter_base@DV?$string_output_adapter@D@__crt_stdio_output@@@2@@__crt_stdio_output@@AEAA_NXZ@@__crt_stdio_output@@YAPEAUansi_string@?1??type_case_Z@?$output_processor@DV?$string_output_adapter@D@__crt_stdio_output@@V?$positional_parameter_base@DV?$string_output_adapter@D@__crt_stdio_output@@@2@@0@AEAA_NXZ@AEAPEAD@Z 000000018005edb0 f i libucrtd:output.obj
 0001:0005de20       ??$read_va_arg@PEAUansi_string@?1??type_case_Z@?$output_processor@DV?$string_output_adapter@D@__crt_stdio_output@@V?$standard_base@DV?$string_output_adapter@D@__crt_stdio_output@@@2@@__crt_stdio_output@@AEAA_NXZ@@__crt_stdio_output@@YAPEAUansi_string@?1??type_case_Z@?$output_processor@DV?$string_output_adapter@D@__crt_stdio_output@@V?$standard_base@DV?$string_output_adapter@D@__crt_stdio_output@@@2@@0@AEAA_NXZ@AEAPEAD@Z 000000018005ee20 f i libucrtd:output.obj
 0001:0005de90       ??$read_va_arg@PEAUansi_string@?1??type_case_Z@?$output_processor@_WV?$stream_output_adapter@_W@__crt_stdio_output@@V?$format_validation_base@_WV?$stream_output_adapter@_W@__crt_stdio_output@@@2@@__crt_stdio_output@@AEAA_NXZ@@__crt_stdio_output@@YAPEAUansi_string@?1??type_case_Z@?$output_processor@_WV?$stream_output_adapter@_W@__crt_stdio_output@@V?$format_validation_base@_WV?$stream_output_adapter@_W@__crt_stdio_output@@@2@@0@AEAA_NXZ@AEAPEAD@Z 000000018005ee90 f i libucrtd:output.obj
 0001:0005df00       ??$read_va_arg@PEAUansi_string@?1??type_case_Z@?$output_processor@_WV?$stream_output_adapter@_W@__crt_stdio_output@@V?$positional_parameter_base@_WV?$stream_output_adapter@_W@__crt_stdio_output@@@2@@__crt_stdio_output@@AEAA_NXZ@@__crt_stdio_output@@YAPEAUansi_string@?1??type_case_Z@?$output_processor@_WV?$stream_output_adapter@_W@__crt_stdio_output@@V?$positional_parameter_base@_WV?$stream_output_adapter@_W@__crt_stdio_output@@@2@@0@AEAA_NXZ@AEAPEAD@Z 000000018005ef00 f i libucrtd:output.obj
 0001:0005df70       ??$read_va_arg@PEAUansi_string@?1??type_case_Z@?$output_processor@_WV?$stream_output_adapter@_W@__crt_stdio_output@@V?$standard_base@_WV?$stream_output_adapter@_W@__crt_stdio_output@@@2@@__crt_stdio_output@@AEAA_NXZ@@__crt_stdio_output@@YAPEAUansi_string@?1??type_case_Z@?$output_processor@_WV?$stream_output_adapter@_W@__crt_stdio_output@@V?$standard_base@_WV?$stream_output_adapter@_W@__crt_stdio_output@@@2@@0@AEAA_NXZ@AEAPEAD@Z 000000018005ef70 f i libucrtd:output.obj
 0001:0005dfe0       ??$read_va_arg@PEAUansi_string@?1??type_case_Z@?$output_processor@_WV?$string_output_adapter@_W@__crt_stdio_output@@V?$format_validation_base@_WV?$string_output_adapter@_W@__crt_stdio_output@@@2@@__crt_stdio_output@@AEAA_NXZ@@__crt_stdio_output@@YAPEAUansi_string@?1??type_case_Z@?$output_processor@_WV?$string_output_adapter@_W@__crt_stdio_output@@V?$format_validation_base@_WV?$string_output_adapter@_W@__crt_stdio_output@@@2@@0@AEAA_NXZ@AEAPEAD@Z 000000018005efe0 f i libucrtd:output.obj
 0001:0005e050       ??$read_va_arg@PEAUansi_string@?1??type_case_Z@?$output_processor@_WV?$string_output_adapter@_W@__crt_stdio_output@@V?$positional_parameter_base@_WV?$string_output_adapter@_W@__crt_stdio_output@@@2@@__crt_stdio_output@@AEAA_NXZ@@__crt_stdio_output@@YAPEAUansi_string@?1??type_case_Z@?$output_processor@_WV?$string_output_adapter@_W@__crt_stdio_output@@V?$positional_parameter_base@_WV?$string_output_adapter@_W@__crt_stdio_output@@@2@@0@AEAA_NXZ@AEAPEAD@Z 000000018005f050 f i libucrtd:output.obj
 0001:0005e0c0       ??$read_va_arg@PEAUansi_string@?1??type_case_Z@?$output_processor@_WV?$string_output_adapter@_W@__crt_stdio_output@@V?$standard_base@_WV?$string_output_adapter@_W@__crt_stdio_output@@@2@@__crt_stdio_output@@AEAA_NXZ@@__crt_stdio_output@@YAPEAUansi_string@?1??type_case_Z@?$output_processor@_WV?$string_output_adapter@_W@__crt_stdio_output@@V?$standard_base@_WV?$string_output_adapter@_W@__crt_stdio_output@@@2@@0@AEAA_NXZ@AEAPEAD@Z 000000018005f0c0 f i libucrtd:output.obj
 0001:0005e130       ??$read_va_arg@PEAX@__crt_stdio_output@@YAPEAXAEAPEAD@Z 000000018005f130 f i libucrtd:output.obj
 0001:0005e1a0       ??$read_va_arg@U_CRT_DOUBLE@@@__crt_stdio_output@@YA?AU_CRT_DOUBLE@@AEAPEAD@Z 000000018005f1a0 f i libucrtd:output.obj
 0001:0005e210       ??$read_va_arg@_J@__crt_stdio_output@@YA_JAEAPEAD@Z 000000018005f210 f i libucrtd:output.obj
 0001:0005e280       ??$read_va_arg@_K@__crt_stdio_output@@YA_KAEAPEAD@Z 000000018005f280 f i libucrtd:output.obj
 0001:0005e2f0       ??$read_va_arg@_W@__crt_stdio_output@@YA_WAEAPEAD@Z 000000018005f2f0 f i libucrtd:output.obj
 0001:0005e360       ??$scratch_count@D@formatting_buffer@__crt_stdio_output@@QEBA_KXZ 000000018005f360 f i libucrtd:output.obj
 0001:0005e380       ??$scratch_data@D@formatting_buffer@__crt_stdio_output@@QEAAPEADXZ 000000018005f380 f i libucrtd:output.obj
 0001:0005e3f0       ??$tcstol@AEAPEBDPEAPEADH@?$__crt_char_traits@D@@SAJAEAPEBD$$QEAPEAPEAD$$QEAH@Z 000000018005f3f0 f i libucrtd:output.obj
 0001:0005e430       ??$tcstol@AEAPEB_WPEAPEA_WH@?$__crt_char_traits@_W@@SAJAEAPEB_W$$QEAPEAPEA_W$$QEAH@Z 000000018005f430 f i libucrtd:output.obj
 0001:0005e470       ??$tcstol@PEBDPEAPEADH@?$__crt_char_traits@D@@SAJ$$QEAPEBD$$QEAPEAPEAD$$QEAH@Z 000000018005f470 f i libucrtd:output.obj
 0001:0005e4b0       ??$tcstol@PEB_WPEAPEA_WH@?$__crt_char_traits@_W@@SAJ$$QEAPEB_W$$QEAPEAPEA_W$$QEAH@Z 000000018005f4b0 f i libucrtd:output.obj
 0001:0005e4f0       ??$type_case_integer_parse_into_buffer@I@?$output_processor@DV?$stream_output_adapter@D@__crt_stdio_output@@V?$format_validation_base@DV?$stream_output_adapter@D@__crt_stdio_output@@@2@@__crt_stdio_output@@AEAAXII_N@Z 000000018005f4f0 f i libucrtd:output.obj
 0001:0005e620       ??$type_case_integer_parse_into_buffer@I@?$output_processor@DV?$stream_output_adapter@D@__crt_stdio_output@@V?$positional_parameter_base@DV?$stream_output_adapter@D@__crt_stdio_output@@@2@@__crt_stdio_output@@AEAAXII_N@Z 000000018005f620 f i libucrtd:output.obj
 0001:0005e750       ??$type_case_integer_parse_into_buffer@I@?$output_processor@DV?$stream_output_adapter@D@__crt_stdio_output@@V?$standard_base@DV?$stream_output_adapter@D@__crt_stdio_output@@@2@@__crt_stdio_output@@AEAAXII_N@Z 000000018005f750 f i libucrtd:output.obj
 0001:0005e880       ??$type_case_integer_parse_into_buffer@I@?$output_processor@DV?$string_output_adapter@D@__crt_stdio_output@@V?$format_validation_base@DV?$string_output_adapter@D@__crt_stdio_output@@@2@@__crt_stdio_output@@AEAAXII_N@Z 000000018005f880 f i libucrtd:output.obj
 0001:0005e9b0       ??$type_case_integer_parse_into_buffer@I@?$output_processor@DV?$string_output_adapter@D@__crt_stdio_output@@V?$positional_parameter_base@DV?$string_output_adapter@D@__crt_stdio_output@@@2@@__crt_stdio_output@@AEAAXII_N@Z 000000018005f9b0 f i libucrtd:output.obj
 0001:0005eae0       ??$type_case_integer_parse_into_buffer@I@?$output_processor@DV?$string_output_adapter@D@__crt_stdio_output@@V?$standard_base@DV?$string_output_adapter@D@__crt_stdio_output@@@2@@__crt_stdio_output@@AEAAXII_N@Z 000000018005fae0 f i libucrtd:output.obj
 0001:0005ec10       ??$type_case_integer_parse_into_buffer@I@?$output_processor@_WV?$stream_output_adapter@_W@__crt_stdio_output@@V?$format_validation_base@_WV?$stream_output_adapter@_W@__crt_stdio_output@@@2@@__crt_stdio_output@@AEAAXII_N@Z 000000018005fc10 f i libucrtd:output.obj
 0001:0005ed50       ??$type_case_integer_parse_into_buffer@I@?$output_processor@_WV?$stream_output_adapter@_W@__crt_stdio_output@@V?$positional_parameter_base@_WV?$stream_output_adapter@_W@__crt_stdio_output@@@2@@__crt_stdio_output@@AEAAXII_N@Z 000000018005fd50 f i libucrtd:output.obj
 0001:0005ee90       ??$type_case_integer_parse_into_buffer@I@?$output_processor@_WV?$stream_output_adapter@_W@__crt_stdio_output@@V?$standard_base@_WV?$stream_output_adapter@_W@__crt_stdio_output@@@2@@__crt_stdio_output@@AEAAXII_N@Z 000000018005fe90 f i libucrtd:output.obj
 0001:0005efd0       ??$type_case_integer_parse_into_buffer@I@?$output_processor@_WV?$string_output_adapter@_W@__crt_stdio_output@@V?$format_validation_base@_WV?$string_output_adapter@_W@__crt_stdio_output@@@2@@__crt_stdio_output@@AEAAXII_N@Z 000000018005ffd0 f i libucrtd:output.obj
 0001:0005f110       ??$type_case_integer_parse_into_buffer@I@?$output_processor@_WV?$string_output_adapter@_W@__crt_stdio_output@@V?$positional_parameter_base@_WV?$string_output_adapter@_W@__crt_stdio_output@@@2@@__crt_stdio_output@@AEAAXII_N@Z 0000000180060110 f i libucrtd:output.obj
 0001:0005f250       ??$type_case_integer_parse_into_buffer@I@?$output_processor@_WV?$string_output_adapter@_W@__crt_stdio_output@@V?$standard_base@_WV?$string_output_adapter@_W@__crt_stdio_output@@@2@@__crt_stdio_output@@AEAAXII_N@Z 0000000180060250 f i libucrtd:output.obj
 0001:0005f390       ??$type_case_integer_parse_into_buffer@_K@?$output_processor@DV?$stream_output_adapter@D@__crt_stdio_output@@V?$format_validation_base@DV?$stream_output_adapter@D@__crt_stdio_output@@@2@@__crt_stdio_output@@AEAAX_KI_N@Z 0000000180060390 f i libucrtd:output.obj
 0001:0005f4e0       ??$type_case_integer_parse_into_buffer@_K@?$output_processor@DV?$stream_output_adapter@D@__crt_stdio_output@@V?$positional_parameter_base@DV?$stream_output_adapter@D@__crt_stdio_output@@@2@@__crt_stdio_output@@AEAAX_KI_N@Z 00000001800604e0 f i libucrtd:output.obj
 0001:0005f630       ??$type_case_integer_parse_into_buffer@_K@?$output_processor@DV?$stream_output_adapter@D@__crt_stdio_output@@V?$standard_base@DV?$stream_output_adapter@D@__crt_stdio_output@@@2@@__crt_stdio_output@@AEAAX_KI_N@Z 0000000180060630 f i libucrtd:output.obj
 0001:0005f780       ??$type_case_integer_parse_into_buffer@_K@?$output_processor@DV?$string_output_adapter@D@__crt_stdio_output@@V?$format_validation_base@DV?$string_output_adapter@D@__crt_stdio_output@@@2@@__crt_stdio_output@@AEAAX_KI_N@Z 0000000180060780 f i libucrtd:output.obj
 0001:0005f8d0       ??$type_case_integer_parse_into_buffer@_K@?$output_processor@DV?$string_output_adapter@D@__crt_stdio_output@@V?$positional_parameter_base@DV?$string_output_adapter@D@__crt_stdio_output@@@2@@__crt_stdio_output@@AEAAX_KI_N@Z 00000001800608d0 f i libucrtd:output.obj
 0001:0005fa20       ??$type_case_integer_parse_into_buffer@_K@?$output_processor@DV?$string_output_adapter@D@__crt_stdio_output@@V?$standard_base@DV?$string_output_adapter@D@__crt_stdio_output@@@2@@__crt_stdio_output@@AEAAX_KI_N@Z 0000000180060a20 f i libucrtd:output.obj
 0001:0005fb70       ??$type_case_integer_parse_into_buffer@_K@?$output_processor@_WV?$stream_output_adapter@_W@__crt_stdio_output@@V?$format_validation_base@_WV?$stream_output_adapter@_W@__crt_stdio_output@@@2@@__crt_stdio_output@@AEAAX_KI_N@Z 0000000180060b70 f i libucrtd:output.obj
 0001:0005fcd0       ??$type_case_integer_parse_into_buffer@_K@?$output_processor@_WV?$stream_output_adapter@_W@__crt_stdio_output@@V?$positional_parameter_base@_WV?$stream_output_adapter@_W@__crt_stdio_output@@@2@@__crt_stdio_output@@AEAAX_KI_N@Z 0000000180060cd0 f i libucrtd:output.obj
 0001:0005fe30       ??$type_case_integer_parse_into_buffer@_K@?$output_processor@_WV?$stream_output_adapter@_W@__crt_stdio_output@@V?$standard_base@_WV?$stream_output_adapter@_W@__crt_stdio_output@@@2@@__crt_stdio_output@@AEAAX_KI_N@Z 0000000180060e30 f i libucrtd:output.obj
 0001:0005ff90       ??$type_case_integer_parse_into_buffer@_K@?$output_processor@_WV?$string_output_adapter@_W@__crt_stdio_output@@V?$format_validation_base@_WV?$string_output_adapter@_W@__crt_stdio_output@@@2@@__crt_stdio_output@@AEAAX_KI_N@Z 0000000180060f90 f i libucrtd:output.obj
 0001:000600f0       ??$type_case_integer_parse_into_buffer@_K@?$output_processor@_WV?$string_output_adapter@_W@__crt_stdio_output@@V?$positional_parameter_base@_WV?$string_output_adapter@_W@__crt_stdio_output@@@2@@__crt_stdio_output@@AEAAX_KI_N@Z 00000001800610f0 f i libucrtd:output.obj
 0001:00060250       ??$type_case_integer_parse_into_buffer@_K@?$output_processor@_WV?$string_output_adapter@_W@__crt_stdio_output@@V?$standard_base@_WV?$string_output_adapter@_W@__crt_stdio_output@@@2@@__crt_stdio_output@@AEAAX_KI_N@Z 0000000180061250 f i libucrtd:output.obj
 0001:000603b0       ??$write_multiple_characters@V?$stream_output_adapter@D@__crt_stdio_output@@D@__crt_stdio_output@@YAXAEBV?$stream_output_adapter@D@0@DHQEAH@Z 00000001800613b0 f i libucrtd:output.obj
 0001:00060410       ??$write_multiple_characters@V?$stream_output_adapter@_W@__crt_stdio_output@@D@__crt_stdio_output@@YAXAEBV?$stream_output_adapter@_W@0@DHQEAH@Z 0000000180061410 f i libucrtd:output.obj
 0001:00060470       ??$write_multiple_characters@V?$string_output_adapter@D@__crt_stdio_output@@D@__crt_stdio_output@@YAXAEBV?$string_output_adapter@D@0@DHQEAH@Z 0000000180061470 f i libucrtd:output.obj
 0001:000604d0       ??$write_multiple_characters@V?$string_output_adapter@_W@__crt_stdio_output@@D@__crt_stdio_output@@YAXAEBV?$string_output_adapter@_W@0@DHQEAH@Z 00000001800614d0 f i libucrtd:output.obj
 0001:000608f0       ??0?$common_data@D@__crt_stdio_output@@IEAA@XZ 00000001800618f0 f i libucrtd:output.obj
 0001:000609c0       ??0?$common_data@_W@__crt_stdio_output@@IEAA@XZ 00000001800619c0 f i libucrtd:output.obj
 0001:00060a90       ??0?$output_adapter_data@DV?$stream_output_adapter@D@__crt_stdio_output@@@__crt_stdio_output@@IEAA@AEBV?$stream_output_adapter@D@1@_KQEBDQEAU__crt_locale_pointers@@QEAD@Z 0000000180061a90 f i libucrtd:output.obj
 0001:00060b10       ??0?$output_adapter_data@DV?$string_output_adapter@D@__crt_stdio_output@@@__crt_stdio_output@@IEAA@AEBV?$string_output_adapter@D@1@_KQEBDQEAU__crt_locale_pointers@@QEAD@Z 0000000180061b10 f i libucrtd:output.obj
 0001:00060b90       ??0?$output_adapter_data@_WV?$stream_output_adapter@_W@__crt_stdio_output@@@__crt_stdio_output@@IEAA@AEBV?$stream_output_adapter@_W@1@_KQEB_WQEAU__crt_locale_pointers@@QEAD@Z 0000000180061b90 f i libucrtd:output.obj
 0001:00060c10       ??0?$output_adapter_data@_WV?$string_output_adapter@_W@__crt_stdio_output@@@__crt_stdio_output@@IEAA@AEBV?$string_output_adapter@_W@1@_KQEB_WQEAU__crt_locale_pointers@@QEAD@Z 0000000180061c10 f i libucrtd:output.obj
 0001:00060c90       ??0?$output_processor@DV?$stream_output_adapter@D@__crt_stdio_output@@V?$format_validation_base@DV?$stream_output_adapter@D@__crt_stdio_output@@@2@@__crt_stdio_output@@QEAA@AEBV?$stream_output_adapter@D@1@_KQEBDQEAU__crt_locale_pointers@@QEAD@Z 0000000180061c90 f i libucrtd:output.obj
 0001:00060ce0       ??0?$output_processor@DV?$stream_output_adapter@D@__crt_stdio_output@@V?$positional_parameter_base@DV?$stream_output_adapter@D@__crt_stdio_output@@@2@@__crt_stdio_output@@QEAA@AEBV?$stream_output_adapter@D@1@_KQEBDQEAU__crt_locale_pointers@@QEAD@Z 0000000180061ce0 f i libucrtd:output.obj
 0001:00060d30       ??0?$output_processor@DV?$stream_output_adapter@D@__crt_stdio_output@@V?$standard_base@DV?$stream_output_adapter@D@__crt_stdio_output@@@2@@__crt_stdio_output@@QEAA@AEBV?$stream_output_adapter@D@1@_KQEBDQEAU__crt_locale_pointers@@QEAD@Z 0000000180061d30 f i libucrtd:output.obj
 0001:00060d80       ??0?$output_processor@DV?$string_output_adapter@D@__crt_stdio_output@@V?$format_validation_base@DV?$string_output_adapter@D@__crt_stdio_output@@@2@@__crt_stdio_output@@QEAA@AEBV?$string_output_adapter@D@1@_KQEBDQEAU__crt_locale_pointers@@QEAD@Z 0000000180061d80 f i libucrtd:output.obj
 0001:00060dd0       ??0?$output_processor@DV?$string_output_adapter@D@__crt_stdio_output@@V?$positional_parameter_base@DV?$string_output_adapter@D@__crt_stdio_output@@@2@@__crt_stdio_output@@QEAA@AEBV?$string_output_adapter@D@1@_KQEBDQEAU__crt_locale_pointers@@QEAD@Z 0000000180061dd0 f i libucrtd:output.obj
 0001:00060e20       ??0?$output_processor@DV?$string_output_adapter@D@__crt_stdio_output@@V?$standard_base@DV?$string_output_adapter@D@__crt_stdio_output@@@2@@__crt_stdio_output@@QEAA@AEBV?$string_output_adapter@D@1@_KQEBDQEAU__crt_locale_pointers@@QEAD@Z 0000000180061e20 f i libucrtd:output.obj
 0001:00060e70       ??0?$output_processor@_WV?$stream_output_adapter@_W@__crt_stdio_output@@V?$format_validation_base@_WV?$stream_output_adapter@_W@__crt_stdio_output@@@2@@__crt_stdio_output@@QEAA@AEBV?$stream_output_adapter@_W@1@_KQEB_WQEAU__crt_locale_pointers@@QEAD@Z 0000000180061e70 f i libucrtd:output.obj
 0001:00060ec0       ??0?$output_processor@_WV?$stream_output_adapter@_W@__crt_stdio_output@@V?$positional_parameter_base@_WV?$stream_output_adapter@_W@__crt_stdio_output@@@2@@__crt_stdio_output@@QEAA@AEBV?$stream_output_adapter@_W@1@_KQEB_WQEAU__crt_locale_pointers@@QEAD@Z 0000000180061ec0 f i libucrtd:output.obj
 0001:00060f10       ??0?$output_processor@_WV?$stream_output_adapter@_W@__crt_stdio_output@@V?$standard_base@_WV?$stream_output_adapter@_W@__crt_stdio_output@@@2@@__crt_stdio_output@@QEAA@AEBV?$stream_output_adapter@_W@1@_KQEB_WQEAU__crt_locale_pointers@@QEAD@Z 0000000180061f10 f i libucrtd:output.obj
 0001:00060f60       ??0?$output_processor@_WV?$string_output_adapter@_W@__crt_stdio_output@@V?$format_validation_base@_WV?$string_output_adapter@_W@__crt_stdio_output@@@2@@__crt_stdio_output@@QEAA@AEBV?$string_output_adapter@_W@1@_KQEB_WQEAU__crt_locale_pointers@@QEAD@Z 0000000180061f60 f i libucrtd:output.obj
 0001:00060fb0       ??0?$output_processor@_WV?$string_output_adapter@_W@__crt_stdio_output@@V?$positional_parameter_base@_WV?$string_output_adapter@_W@__crt_stdio_output@@@2@@__crt_stdio_output@@QEAA@AEBV?$string_output_adapter@_W@1@_KQEB_WQEAU__crt_locale_pointers@@QEAD@Z 0000000180061fb0 f i libucrtd:output.obj
 0001:00061000       ??0?$output_processor@_WV?$string_output_adapter@_W@__crt_stdio_output@@V?$standard_base@_WV?$string_output_adapter@_W@__crt_stdio_output@@@2@@__crt_stdio_output@@QEAA@AEBV?$string_output_adapter@_W@1@_KQEB_WQEAU__crt_locale_pointers@@QEAD@Z 0000000180062000 f i libucrtd:output.obj
 0001:00061050       ??0?$stream_output_adapter@D@__crt_stdio_output@@QEAA@QEAU_iobuf@@@Z 0000000180062050 f i libucrtd:output.obj
 0001:00061080       ??0?$stream_output_adapter@_W@__crt_stdio_output@@QEAA@QEAU_iobuf@@@Z 0000000180062080 f i libucrtd:output.obj
 0001:000610b0       ??0?$string_output_adapter@D@__crt_stdio_output@@QEAA@QEAU?$string_output_adapter_context@D@1@@Z 00000001800620b0 f i libucrtd:output.obj
 0001:000610d0       ??0?$string_output_adapter@_W@__crt_stdio_output@@QEAA@QEAU?$string_output_adapter_context@_W@1@@Z 00000001800620d0 f i libucrtd:output.obj
 0001:000610f0       ??0_LocaleUpdate@@QEAA@QEAU__crt_locale_pointers@@@Z 00000001800620f0 f i libucrtd:output.obj
 0001:00061210       ??0__acrt_stdio_temporary_buffering_guard@@QEAA@QEAU_iobuf@@@Z 0000000180062210 f i libucrtd:output.obj
 0001:00061250       ??0__crt_deferred_errno_cache@@QEAA@XZ 0000000180062250 f i libucrtd:output.obj
 0001:00061270       ??0__crt_errno_guard@@QEAA@QEAH@Z 0000000180062270 f i libucrtd:output.obj
 0001:000612b0       ??0__crt_stdio_stream@@QEAA@QEAU_iobuf@@@Z 00000001800622b0 f i libucrtd:output.obj
 0001:000612d0       ??0formatting_buffer@__crt_stdio_output@@QEAA@XZ 00000001800622d0 f i libucrtd:output.obj
 0001:00061310       ??1?$common_data@D@__crt_stdio_output@@QEAA@XZ 0000000180062310 f i libucrtd:output.obj
 0001:00061330       ??1?$common_data@_W@__crt_stdio_output@@QEAA@XZ 0000000180062330 f i libucrtd:output.obj
 0001:00061350       ??1?$format_validation_base@DV?$stream_output_adapter@D@__crt_stdio_output@@@__crt_stdio_output@@QEAA@XZ 0000000180062350 f i libucrtd:output.obj
 0001:00061370       ??1?$format_validation_base@DV?$string_output_adapter@D@__crt_stdio_output@@@__crt_stdio_output@@QEAA@XZ 0000000180062370 f i libucrtd:output.obj
 0001:00061390       ??1?$format_validation_base@_WV?$stream_output_adapter@_W@__crt_stdio_output@@@__crt_stdio_output@@QEAA@XZ 0000000180062390 f i libucrtd:output.obj
 0001:000613b0       ??1?$format_validation_base@_WV?$string_output_adapter@_W@__crt_stdio_output@@@__crt_stdio_output@@QEAA@XZ 00000001800623b0 f i libucrtd:output.obj
 0001:000613d0       ??1?$output_adapter_data@DV?$stream_output_adapter@D@__crt_stdio_output@@@__crt_stdio_output@@QEAA@XZ 00000001800623d0 f i libucrtd:output.obj
 0001:000613f0       ??1?$output_adapter_data@DV?$string_output_adapter@D@__crt_stdio_output@@@__crt_stdio_output@@QEAA@XZ 00000001800623f0 f i libucrtd:output.obj
 0001:00061410       ??1?$output_adapter_data@_WV?$stream_output_adapter@_W@__crt_stdio_output@@@__crt_stdio_output@@QEAA@XZ 0000000180062410 f i libucrtd:output.obj
 0001:00061430       ??1?$output_adapter_data@_WV?$string_output_adapter@_W@__crt_stdio_output@@@__crt_stdio_output@@QEAA@XZ 0000000180062430 f i libucrtd:output.obj
 0001:00061450       ??1?$output_processor@DV?$stream_output_adapter@D@__crt_stdio_output@@V?$format_validation_base@DV?$stream_output_adapter@D@__crt_stdio_output@@@2@@__crt_stdio_output@@QEAA@XZ 0000000180062450 f i libucrtd:output.obj
 0001:00061470       ??1?$output_processor@DV?$stream_output_adapter@D@__crt_stdio_output@@V?$positional_parameter_base@DV?$stream_output_adapter@D@__crt_stdio_output@@@2@@__crt_stdio_output@@QEAA@XZ 0000000180062470 f i libucrtd:output.obj
 0001:00061490       ??1?$output_processor@DV?$stream_output_adapter@D@__crt_stdio_output@@V?$standard_base@DV?$stream_output_adapter@D@__crt_stdio_output@@@2@@__crt_stdio_output@@QEAA@XZ 0000000180062490 f i libucrtd:output.obj
 0001:000614b0       ??1?$output_processor@DV?$string_output_adapter@D@__crt_stdio_output@@V?$format_validation_base@DV?$string_output_adapter@D@__crt_stdio_output@@@2@@__crt_stdio_output@@QEAA@XZ 00000001800624b0 f i libucrtd:output.obj
 0001:000614d0       ??1?$output_processor@DV?$string_output_adapter@D@__crt_stdio_output@@V?$positional_parameter_base@DV?$string_output_adapter@D@__crt_stdio_output@@@2@@__crt_stdio_output@@QEAA@XZ 00000001800624d0 f i libucrtd:output.obj
 0001:000614f0       ??1?$output_processor@DV?$string_output_adapter@D@__crt_stdio_output@@V?$standard_base@DV?$string_output_adapter@D@__crt_stdio_output@@@2@@__crt_stdio_output@@QEAA@XZ 00000001800624f0 f i libucrtd:output.obj
 0001:00061510       ??1?$output_processor@_WV?$stream_output_adapter@_W@__crt_stdio_output@@V?$format_validation_base@_WV?$stream_output_adapter@_W@__crt_stdio_output@@@2@@__crt_stdio_output@@QEAA@XZ 0000000180062510 f i libucrtd:output.obj
 0001:00061530       ??1?$output_processor@_WV?$stream_output_adapter@_W@__crt_stdio_output@@V?$positional_parameter_base@_WV?$stream_output_adapter@_W@__crt_stdio_output@@@2@@__crt_stdio_output@@QEAA@XZ 0000000180062530 f i libucrtd:output.obj
 0001:00061550       ??1?$output_processor@_WV?$stream_output_adapter@_W@__crt_stdio_output@@V?$standard_base@_WV?$stream_output_adapter@_W@__crt_stdio_output@@@2@@__crt_stdio_output@@QEAA@XZ 0000000180062550 f i libucrtd:output.obj
 0001:00061570       ??1?$output_processor@_WV?$string_output_adapter@_W@__crt_stdio_output@@V?$format_validation_base@_WV?$string_output_adapter@_W@__crt_stdio_output@@@2@@__crt_stdio_output@@QEAA@XZ 0000000180062570 f i libucrtd:output.obj
 0001:00061590       ??1?$output_processor@_WV?$string_output_adapter@_W@__crt_stdio_output@@V?$positional_parameter_base@_WV?$string_output_adapter@_W@__crt_stdio_output@@@2@@__crt_stdio_output@@QEAA@XZ 0000000180062590 f i libucrtd:output.obj
 0001:000615b0       ??1?$output_processor@_WV?$string_output_adapter@_W@__crt_stdio_output@@V?$standard_base@_WV?$string_output_adapter@_W@__crt_stdio_output@@@2@@__crt_stdio_output@@QEAA@XZ 00000001800625b0 f i libucrtd:output.obj
 0001:000615d0       ??1?$positional_parameter_base@DV?$stream_output_adapter@D@__crt_stdio_output@@@__crt_stdio_output@@QEAA@XZ 00000001800625d0 f i libucrtd:output.obj
 0001:000615f0       ??1?$positional_parameter_base@DV?$string_output_adapter@D@__crt_stdio_output@@@__crt_stdio_output@@QEAA@XZ 00000001800625f0 f i libucrtd:output.obj
 0001:00061610       ??1?$positional_parameter_base@_WV?$stream_output_adapter@_W@__crt_stdio_output@@@__crt_stdio_output@@QEAA@XZ 0000000180062610 f i libucrtd:output.obj
 0001:00061630       ??1?$positional_parameter_base@_WV?$string_output_adapter@_W@__crt_stdio_output@@@__crt_stdio_output@@QEAA@XZ 0000000180062630 f i libucrtd:output.obj
 0001:00061650       ??1?$standard_base@DV?$stream_output_adapter@D@__crt_stdio_output@@@__crt_stdio_output@@QEAA@XZ 0000000180062650 f i libucrtd:output.obj
 0001:00061670       ??1?$standard_base@DV?$string_output_adapter@D@__crt_stdio_output@@@__crt_stdio_output@@QEAA@XZ 0000000180062670 f i libucrtd:output.obj
 0001:00061690       ??1?$standard_base@_WV?$stream_output_adapter@_W@__crt_stdio_output@@@__crt_stdio_output@@QEAA@XZ 0000000180062690 f i libucrtd:output.obj
 0001:000616b0       ??1?$standard_base@_WV?$string_output_adapter@_W@__crt_stdio_output@@@__crt_stdio_output@@QEAA@XZ 00000001800626b0 f i libucrtd:output.obj
 0001:000616d0       ??1_LocaleUpdate@@QEAA@XZ  00000001800626d0 f i libucrtd:output.obj
 0001:00061700       ??1__acrt_stdio_temporary_buffering_guard@@QEAA@XZ 0000000180062700 f i libucrtd:output.obj
 0001:00061730       ??1__crt_errno_guard@@QEAA@XZ 0000000180062730 f i libucrtd:output.obj
 0001:00061760       ??1formatting_buffer@__crt_stdio_output@@QEAA@XZ 0000000180062760 f i libucrtd:output.obj
 0001:00061790       ??4?$__crt_unique_heap_ptr@DU__crt_internal_free_policy@@@@QEAAAEAV0@$$QEAV0@@Z 0000000180062790 f i libucrtd:output.obj
 0001:000617d0       ??A?$spectre_mitigated_lookup_table@Ustate_transition_pair@__crt_stdio_output@@$0IA@@__crt_stdio_output@@QEBAAEBUstate_transition_pair@1@_K@Z 00000001800627d0 f i libucrtd:output.obj
 0001:000617f0       ??C__crt_stdio_stream@@QEBAPEAU__crt_stdio_stream_data@@XZ 00000001800627f0 f i libucrtd:output.obj
 0001:000620a0       ?GetLocaleT@_LocaleUpdate@@QEAAPEAU__crt_locale_pointers@@XZ 00000001800630a0 f i libucrtd:output.obj
 0001:000620b0       ?__crt_interlocked_read_32@@YAHPEDH@Z 00000001800630b0 f i libucrtd:output.obj
 0001:000620d0       ?adjust_hexit@?$output_processor@DV?$stream_output_adapter@D@__crt_stdio_output@@V?$format_validation_base@DV?$stream_output_adapter@D@__crt_stdio_output@@@2@@__crt_stdio_output@@CADH_N@Z 00000001800630d0 f i libucrtd:output.obj
 0001:00062120       ?adjust_hexit@?$output_processor@DV?$stream_output_adapter@D@__crt_stdio_output@@V?$positional_parameter_base@DV?$stream_output_adapter@D@__crt_stdio_output@@@2@@__crt_stdio_output@@CADH_N@Z 0000000180063120 f i libucrtd:output.obj
 0001:00062170       ?adjust_hexit@?$output_processor@DV?$stream_output_adapter@D@__crt_stdio_output@@V?$standard_base@DV?$stream_output_adapter@D@__crt_stdio_output@@@2@@__crt_stdio_output@@CADH_N@Z 0000000180063170 f i libucrtd:output.obj
 0001:000621c0       ?adjust_hexit@?$output_processor@DV?$string_output_adapter@D@__crt_stdio_output@@V?$format_validation_base@DV?$string_output_adapter@D@__crt_stdio_output@@@2@@__crt_stdio_output@@CADH_N@Z 00000001800631c0 f i libucrtd:output.obj
 0001:00062210       ?adjust_hexit@?$output_processor@DV?$string_output_adapter@D@__crt_stdio_output@@V?$positional_parameter_base@DV?$string_output_adapter@D@__crt_stdio_output@@@2@@__crt_stdio_output@@CADH_N@Z 0000000180063210 f i libucrtd:output.obj
 0001:00062260       ?adjust_hexit@?$output_processor@DV?$string_output_adapter@D@__crt_stdio_output@@V?$standard_base@DV?$string_output_adapter@D@__crt_stdio_output@@@2@@__crt_stdio_output@@CADH_N@Z 0000000180063260 f i libucrtd:output.obj
 0001:000622b0       ?adjust_hexit@?$output_processor@_WV?$stream_output_adapter@_W@__crt_stdio_output@@V?$format_validation_base@_WV?$stream_output_adapter@_W@__crt_stdio_output@@@2@@__crt_stdio_output@@CADH_N@Z 00000001800632b0 f i libucrtd:output.obj
 0001:00062300       ?adjust_hexit@?$output_processor@_WV?$stream_output_adapter@_W@__crt_stdio_output@@V?$positional_parameter_base@_WV?$stream_output_adapter@_W@__crt_stdio_output@@@2@@__crt_stdio_output@@CADH_N@Z 0000000180063300 f i libucrtd:output.obj
 0001:00062350       ?adjust_hexit@?$output_processor@_WV?$stream_output_adapter@_W@__crt_stdio_output@@V?$standard_base@_WV?$stream_output_adapter@_W@__crt_stdio_output@@@2@@__crt_stdio_output@@CADH_N@Z 0000000180063350 f i libucrtd:output.obj
 0001:000623a0       ?adjust_hexit@?$output_processor@_WV?$string_output_adapter@_W@__crt_stdio_output@@V?$format_validation_base@_WV?$string_output_adapter@_W@__crt_stdio_output@@@2@@__crt_stdio_output@@CADH_N@Z 00000001800633a0 f i libucrtd:output.obj
 0001:000623f0       ?adjust_hexit@?$output_processor@_WV?$string_output_adapter@_W@__crt_stdio_output@@V?$positional_parameter_base@_WV?$string_output_adapter@_W@__crt_stdio_output@@@2@@__crt_stdio_output@@CADH_N@Z 00000001800633f0 f i libucrtd:output.obj
 0001:00062440       ?adjust_hexit@?$output_processor@_WV?$string_output_adapter@_W@__crt_stdio_output@@V?$standard_base@_WV?$string_output_adapter@_W@__crt_stdio_output@@@2@@__crt_stdio_output@@CADH_N@Z 0000000180063440 f i libucrtd:output.obj
 0001:00062490       ?advance_to_next_pass@?$positional_parameter_base@DV?$stream_output_adapter@D@__crt_stdio_output@@@__crt_stdio_output@@IEAA_NXZ 0000000180063490 f i libucrtd:output.obj
 0001:00062540       ?advance_to_next_pass@?$positional_parameter_base@DV?$string_output_adapter@D@__crt_stdio_output@@@__crt_stdio_output@@IEAA_NXZ 0000000180063540 f i libucrtd:output.obj
 0001:000625f0       ?advance_to_next_pass@?$positional_parameter_base@_WV?$stream_output_adapter@_W@__crt_stdio_output@@@__crt_stdio_output@@IEAA_NXZ 00000001800635f0 f i libucrtd:output.obj
 0001:000626a0       ?advance_to_next_pass@?$positional_parameter_base@_WV?$string_output_adapter@_W@__crt_stdio_output@@@__crt_stdio_output@@IEAA_NXZ 00000001800636a0 f i libucrtd:output.obj
 0001:00062750       ?advance_to_next_pass@?$standard_base@DV?$stream_output_adapter@D@__crt_stdio_output@@@__crt_stdio_output@@IEAA_NXZ 0000000180063750 f i libucrtd:output.obj
 0001:000627a0       ?advance_to_next_pass@?$standard_base@DV?$string_output_adapter@D@__crt_stdio_output@@@__crt_stdio_output@@IEAA_NXZ 00000001800637a0 f i libucrtd:output.obj
 0001:000627f0       ?advance_to_next_pass@?$standard_base@_WV?$stream_output_adapter@_W@__crt_stdio_output@@@__crt_stdio_output@@IEAA_NXZ 00000001800637f0 f i libucrtd:output.obj
 0001:00062840       ?advance_to_next_pass@?$standard_base@_WV?$string_output_adapter@_W@__crt_stdio_output@@@__crt_stdio_output@@IEAA_NXZ 0000000180063840 f i libucrtd:output.obj
 0001:00062890       ?crop_zeroes@__crt_stdio_output@@YAXPEADQEAU__crt_locale_pointers@@@Z 0000000180063890 f i libucrtd:output.obj
 0001:000629d0       ?find_next_state@?$output_processor@DV?$stream_output_adapter@D@__crt_stdio_output@@V?$format_validation_base@DV?$stream_output_adapter@D@__crt_stdio_output@@@2@@__crt_stdio_output@@AEBA?AW4state@2@DW432@@Z 00000001800639d0 f i libucrtd:output.obj
 0001:00062a60       ?find_next_state@?$output_processor@DV?$stream_output_adapter@D@__crt_stdio_output@@V?$positional_parameter_base@DV?$stream_output_adapter@D@__crt_stdio_output@@@2@@__crt_stdio_output@@AEBA?AW4state@2@DW432@@Z 0000000180063a60 f i libucrtd:output.obj
 0001:00062af0       ?find_next_state@?$output_processor@DV?$stream_output_adapter@D@__crt_stdio_output@@V?$standard_base@DV?$stream_output_adapter@D@__crt_stdio_output@@@2@@__crt_stdio_output@@AEBA?AW4state@2@DW432@@Z 0000000180063af0 f i libucrtd:output.obj
 0001:00062b80       ?find_next_state@?$output_processor@DV?$string_output_adapter@D@__crt_stdio_output@@V?$format_validation_base@DV?$string_output_adapter@D@__crt_stdio_output@@@2@@__crt_stdio_output@@AEBA?AW4state@2@DW432@@Z 0000000180063b80 f i libucrtd:output.obj
 0001:00062c10       ?find_next_state@?$output_processor@DV?$string_output_adapter@D@__crt_stdio_output@@V?$positional_parameter_base@DV?$string_output_adapter@D@__crt_stdio_output@@@2@@__crt_stdio_output@@AEBA?AW4state@2@DW432@@Z 0000000180063c10 f i libucrtd:output.obj
 0001:00062ca0       ?find_next_state@?$output_processor@DV?$string_output_adapter@D@__crt_stdio_output@@V?$standard_base@DV?$string_output_adapter@D@__crt_stdio_output@@@2@@__crt_stdio_output@@AEBA?AW4state@2@DW432@@Z 0000000180063ca0 f i libucrtd:output.obj
 0001:00062d30       ?find_next_state@?$output_processor@_WV?$stream_output_adapter@_W@__crt_stdio_output@@V?$format_validation_base@_WV?$stream_output_adapter@_W@__crt_stdio_output@@@2@@__crt_stdio_output@@AEBA?AW4state@2@_WW432@@Z 0000000180063d30 f i libucrtd:output.obj
 0001:00062dc0       ?find_next_state@?$output_processor@_WV?$stream_output_adapter@_W@__crt_stdio_output@@V?$positional_parameter_base@_WV?$stream_output_adapter@_W@__crt_stdio_output@@@2@@__crt_stdio_output@@AEBA?AW4state@2@_WW432@@Z 0000000180063dc0 f i libucrtd:output.obj
 0001:00062e50       ?find_next_state@?$output_processor@_WV?$stream_output_adapter@_W@__crt_stdio_output@@V?$standard_base@_WV?$stream_output_adapter@_W@__crt_stdio_output@@@2@@__crt_stdio_output@@AEBA?AW4state@2@_WW432@@Z 0000000180063e50 f i libucrtd:output.obj
 0001:00062ee0       ?find_next_state@?$output_processor@_WV?$string_output_adapter@_W@__crt_stdio_output@@V?$format_validation_base@_WV?$string_output_adapter@_W@__crt_stdio_output@@@2@@__crt_stdio_output@@AEBA?AW4state@2@_WW432@@Z 0000000180063ee0 f i libucrtd:output.obj
 0001:00062f70       ?find_next_state@?$output_processor@_WV?$string_output_adapter@_W@__crt_stdio_output@@V?$positional_parameter_base@_WV?$string_output_adapter@_W@__crt_stdio_output@@@2@@__crt_stdio_output@@AEBA?AW4state@2@_WW432@@Z 0000000180063f70 f i libucrtd:output.obj
 0001:00063000       ?find_next_state@?$output_processor@_WV?$string_output_adapter@_W@__crt_stdio_output@@V?$standard_base@_WV?$string_output_adapter@_W@__crt_stdio_output@@@2@@__crt_stdio_output@@AEBA?AW4state@2@_WW432@@Z 0000000180064000 f i libucrtd:output.obj
 0001:00063090       ?force_decimal_point@__crt_stdio_output@@YAXPEADQEAU__crt_locale_pointers@@@Z 0000000180064090 f i libucrtd:output.obj
 0001:00063190       ?get@__crt_deferred_errno_cache@@QEAAAEAHXZ 0000000180064190 f i libucrtd:output.obj
 0001:000631c0       ?get_flags@__crt_stdio_stream@@QEBAJXZ 00000001800641c0 f i libucrtd:output.obj
 0001:000631f0       ?get_parameter_type@?$positional_parameter_base@DV?$stream_output_adapter@D@__crt_stdio_output@@@__crt_stdio_output@@CA?AW4parameter_type@12@F@Z 00000001800641f0 f i libucrtd:output.obj
 0001:00063200       ?get_parameter_type@?$positional_parameter_base@DV?$stream_output_adapter@D@__crt_stdio_output@@@__crt_stdio_output@@CA?AW4parameter_type@12@G@Z 0000000180064200 f i libucrtd:output.obj
 0001:00063210       ?get_parameter_type@?$positional_parameter_base@DV?$stream_output_adapter@D@__crt_stdio_output@@@__crt_stdio_output@@CA?AW4parameter_type@12@H@Z 0000000180064210 f i libucrtd:output.obj
 0001:00063220       ?get_parameter_type@?$positional_parameter_base@DV?$stream_output_adapter@D@__crt_stdio_output@@@__crt_stdio_output@@CA?AW4parameter_type@12@I@Z 0000000180064220 f i libucrtd:output.obj
 0001:00063230       ?get_parameter_type@?$positional_parameter_base@DV?$stream_output_adapter@D@__crt_stdio_output@@@__crt_stdio_output@@CA?AW4parameter_type@12@U_CRT_DOUBLE@@@Z 0000000180064230 f i libucrtd:output.obj
 0001:00063240       ?get_parameter_type@?$positional_parameter_base@DV?$stream_output_adapter@D@__crt_stdio_output@@@__crt_stdio_output@@CA?AW4parameter_type@12@_J@Z 0000000180064240 f i libucrtd:output.obj
 0001:00063250       ?get_parameter_type@?$positional_parameter_base@DV?$stream_output_adapter@D@__crt_stdio_output@@@__crt_stdio_output@@CA?AW4parameter_type@12@_K@Z 0000000180064250 f i libucrtd:output.obj
 0001:00063260       ?get_parameter_type@?$positional_parameter_base@DV?$stream_output_adapter@D@__crt_stdio_output@@@__crt_stdio_output@@CA?AW4parameter_type@12@_W@Z 0000000180064260 f i libucrtd:output.obj
 0001:00063270       ?get_parameter_type@?$positional_parameter_base@DV?$string_output_adapter@D@__crt_stdio_output@@@__crt_stdio_output@@CA?AW4parameter_type@12@F@Z 0000000180064270 f i libucrtd:output.obj
 0001:00063280       ?get_parameter_type@?$positional_parameter_base@DV?$string_output_adapter@D@__crt_stdio_output@@@__crt_stdio_output@@CA?AW4parameter_type@12@G@Z 0000000180064280 f i libucrtd:output.obj
 0001:00063290       ?get_parameter_type@?$positional_parameter_base@DV?$string_output_adapter@D@__crt_stdio_output@@@__crt_stdio_output@@CA?AW4parameter_type@12@H@Z 0000000180064290 f i libucrtd:output.obj
 0001:000632a0       ?get_parameter_type@?$positional_parameter_base@DV?$string_output_adapter@D@__crt_stdio_output@@@__crt_stdio_output@@CA?AW4parameter_type@12@I@Z 00000001800642a0 f i libucrtd:output.obj
 0001:000632b0       ?get_parameter_type@?$positional_parameter_base@DV?$string_output_adapter@D@__crt_stdio_output@@@__crt_stdio_output@@CA?AW4parameter_type@12@U_CRT_DOUBLE@@@Z 00000001800642b0 f i libucrtd:output.obj
 0001:000632c0       ?get_parameter_type@?$positional_parameter_base@DV?$string_output_adapter@D@__crt_stdio_output@@@__crt_stdio_output@@CA?AW4parameter_type@12@_J@Z 00000001800642c0 f i libucrtd:output.obj
 0001:000632d0       ?get_parameter_type@?$positional_parameter_base@DV?$string_output_adapter@D@__crt_stdio_output@@@__crt_stdio_output@@CA?AW4parameter_type@12@_K@Z 00000001800642d0 f i libucrtd:output.obj
 0001:000632e0       ?get_parameter_type@?$positional_parameter_base@DV?$string_output_adapter@D@__crt_stdio_output@@@__crt_stdio_output@@CA?AW4parameter_type@12@_W@Z 00000001800642e0 f i libucrtd:output.obj
 0001:000632f0       ?get_parameter_type@?$positional_parameter_base@_WV?$stream_output_adapter@_W@__crt_stdio_output@@@__crt_stdio_output@@CA?AW4parameter_type@12@F@Z 00000001800642f0 f i libucrtd:output.obj
 0001:00063300       ?get_parameter_type@?$positional_parameter_base@_WV?$stream_output_adapter@_W@__crt_stdio_output@@@__crt_stdio_output@@CA?AW4parameter_type@12@G@Z 0000000180064300 f i libucrtd:output.obj
 0001:00063310       ?get_parameter_type@?$positional_parameter_base@_WV?$stream_output_adapter@_W@__crt_stdio_output@@@__crt_stdio_output@@CA?AW4parameter_type@12@H@Z 0000000180064310 f i libucrtd:output.obj
 0001:00063320       ?get_parameter_type@?$positional_parameter_base@_WV?$stream_output_adapter@_W@__crt_stdio_output@@@__crt_stdio_output@@CA?AW4parameter_type@12@I@Z 0000000180064320 f i libucrtd:output.obj
 0001:00063330       ?get_parameter_type@?$positional_parameter_base@_WV?$stream_output_adapter@_W@__crt_stdio_output@@@__crt_stdio_output@@CA?AW4parameter_type@12@U_CRT_DOUBLE@@@Z 0000000180064330 f i libucrtd:output.obj
 0001:00063340       ?get_parameter_type@?$positional_parameter_base@_WV?$stream_output_adapter@_W@__crt_stdio_output@@@__crt_stdio_output@@CA?AW4parameter_type@12@_J@Z 0000000180064340 f i libucrtd:output.obj
 0001:00063350       ?get_parameter_type@?$positional_parameter_base@_WV?$stream_output_adapter@_W@__crt_stdio_output@@@__crt_stdio_output@@CA?AW4parameter_type@12@_K@Z 0000000180064350 f i libucrtd:output.obj
 0001:00063360       ?get_parameter_type@?$positional_parameter_base@_WV?$stream_output_adapter@_W@__crt_stdio_output@@@__crt_stdio_output@@CA?AW4parameter_type@12@_W@Z 0000000180064360 f i libucrtd:output.obj
 0001:00063370       ?get_parameter_type@?$positional_parameter_base@_WV?$string_output_adapter@_W@__crt_stdio_output@@@__crt_stdio_output@@CA?AW4parameter_type@12@F@Z 0000000180064370 f i libucrtd:output.obj
 0001:00063380       ?get_parameter_type@?$positional_parameter_base@_WV?$string_output_adapter@_W@__crt_stdio_output@@@__crt_stdio_output@@CA?AW4parameter_type@12@G@Z 0000000180064380 f i libucrtd:output.obj
 0001:00063390       ?get_parameter_type@?$positional_parameter_base@_WV?$string_output_adapter@_W@__crt_stdio_output@@@__crt_stdio_output@@CA?AW4parameter_type@12@H@Z 0000000180064390 f i libucrtd:output.obj
 0001:000633a0       ?get_parameter_type@?$positional_parameter_base@_WV?$string_output_adapter@_W@__crt_stdio_output@@@__crt_stdio_output@@CA?AW4parameter_type@12@I@Z 00000001800643a0 f i libucrtd:output.obj
 0001:000633b0       ?get_parameter_type@?$positional_parameter_base@_WV?$string_output_adapter@_W@__crt_stdio_output@@@__crt_stdio_output@@CA?AW4parameter_type@12@U_CRT_DOUBLE@@@Z 00000001800643b0 f i libucrtd:output.obj
 0001:000633c0       ?get_parameter_type@?$positional_parameter_base@_WV?$string_output_adapter@_W@__crt_stdio_output@@@__crt_stdio_output@@CA?AW4parameter_type@12@_J@Z 00000001800643c0 f i libucrtd:output.obj
 0001:000633d0       ?get_parameter_type@?$positional_parameter_base@_WV?$string_output_adapter@_W@__crt_stdio_output@@@__crt_stdio_output@@CA?AW4parameter_type@12@_K@Z 00000001800643d0 f i libucrtd:output.obj
 0001:000633e0       ?get_parameter_type@?$positional_parameter_base@_WV?$string_output_adapter@_W@__crt_stdio_output@@@__crt_stdio_output@@CA?AW4parameter_type@12@_W@Z 00000001800643e0 f i libucrtd:output.obj
 0001:000633f0       ?has_flag@?$output_processor@DV?$stream_output_adapter@D@__crt_stdio_output@@V?$format_validation_base@DV?$stream_output_adapter@D@__crt_stdio_output@@@2@@__crt_stdio_output@@AEBA_NI@Z 00000001800643f0 f i libucrtd:output.obj
 0001:00063430       ?has_flag@?$output_processor@DV?$stream_output_adapter@D@__crt_stdio_output@@V?$positional_parameter_base@DV?$stream_output_adapter@D@__crt_stdio_output@@@2@@__crt_stdio_output@@AEBA_NI@Z 0000000180064430 f i libucrtd:output.obj
 0001:00063470       ?has_flag@?$output_processor@DV?$stream_output_adapter@D@__crt_stdio_output@@V?$standard_base@DV?$stream_output_adapter@D@__crt_stdio_output@@@2@@__crt_stdio_output@@AEBA_NI@Z 0000000180064470 f i libucrtd:output.obj
 0001:000634b0       ?has_flag@?$output_processor@DV?$string_output_adapter@D@__crt_stdio_output@@V?$format_validation_base@DV?$string_output_adapter@D@__crt_stdio_output@@@2@@__crt_stdio_output@@AEBA_NI@Z 00000001800644b0 f i libucrtd:output.obj
 0001:000634f0       ?has_flag@?$output_processor@DV?$string_output_adapter@D@__crt_stdio_output@@V?$positional_parameter_base@DV?$string_output_adapter@D@__crt_stdio_output@@@2@@__crt_stdio_output@@AEBA_NI@Z 00000001800644f0 f i libucrtd:output.obj
 0001:00063530       ?has_flag@?$output_processor@DV?$string_output_adapter@D@__crt_stdio_output@@V?$standard_base@DV?$string_output_adapter@D@__crt_stdio_output@@@2@@__crt_stdio_output@@AEBA_NI@Z 0000000180064530 f i libucrtd:output.obj
 0001:00063570       ?has_flag@?$output_processor@_WV?$stream_output_adapter@_W@__crt_stdio_output@@V?$format_validation_base@_WV?$stream_output_adapter@_W@__crt_stdio_output@@@2@@__crt_stdio_output@@AEBA_NI@Z 0000000180064570 f i libucrtd:output.obj
 0001:000635b0       ?has_flag@?$output_processor@_WV?$stream_output_adapter@_W@__crt_stdio_output@@V?$positional_parameter_base@_WV?$stream_output_adapter@_W@__crt_stdio_output@@@2@@__crt_stdio_output@@AEBA_NI@Z 00000001800645b0 f i libucrtd:output.obj
 0001:000635f0       ?has_flag@?$output_processor@_WV?$stream_output_adapter@_W@__crt_stdio_output@@V?$standard_base@_WV?$stream_output_adapter@_W@__crt_stdio_output@@@2@@__crt_stdio_output@@AEBA_NI@Z 00000001800645f0 f i libucrtd:output.obj
 0001:00063630       ?has_flag@?$output_processor@_WV?$string_output_adapter@_W@__crt_stdio_output@@V?$format_validation_base@_WV?$string_output_adapter@_W@__crt_stdio_output@@@2@@__crt_stdio_output@@AEBA_NI@Z 0000000180064630 f i libucrtd:output.obj
 0001:00063670       ?has_flag@?$output_processor@_WV?$string_output_adapter@_W@__crt_stdio_output@@V?$positional_parameter_base@_WV?$string_output_adapter@_W@__crt_stdio_output@@@2@@__crt_stdio_output@@AEBA_NI@Z 0000000180064670 f i libucrtd:output.obj
 0001:000636b0       ?has_flag@?$output_processor@_WV?$string_output_adapter@_W@__crt_stdio_output@@V?$standard_base@_WV?$string_output_adapter@_W@__crt_stdio_output@@@2@@__crt_stdio_output@@AEBA_NI@Z 00000001800646b0 f i libucrtd:output.obj
 0001:000636f0       ?is_positional_parameter_reappearance_consistent@?$positional_parameter_base@DV?$stream_output_adapter@D@__crt_stdio_output@@@__crt_stdio_output@@AEAA_NAEBUparameter_data@12@W4parameter_type@12@DW4length_modifier@2@@Z 00000001800646f0 f i libucrtd:output.obj
 0001:00063950       ?is_positional_parameter_reappearance_consistent@?$positional_parameter_base@DV?$string_output_adapter@D@__crt_stdio_output@@@__crt_stdio_output@@AEAA_NAEBUparameter_data@12@W4parameter_type@12@DW4length_modifier@2@@Z 0000000180064950 f i libucrtd:output.obj
 0001:00063bb0       ?is_positional_parameter_reappearance_consistent@?$positional_parameter_base@_WV?$stream_output_adapter@_W@__crt_stdio_output@@@__crt_stdio_output@@AEAA_NAEBUparameter_data@12@W4parameter_type@12@_WW4length_modifier@2@@Z 0000000180064bb0 f i libucrtd:output.obj
 0001:00063e10       ?is_positional_parameter_reappearance_consistent@?$positional_parameter_base@_WV?$string_output_adapter@_W@__crt_stdio_output@@@__crt_stdio_output@@AEAA_NAEBUparameter_data@12@W4parameter_type@12@_WW4length_modifier@2@@Z 0000000180064e10 f i libucrtd:output.obj
 0001:00064070       ?is_string_backed@__crt_stdio_stream@@QEBA_NXZ 0000000180065070 f i libucrtd:output.obj
 0001:000640b0       ?narrow_null_string@?$output_processor@DV?$stream_output_adapter@D@__crt_stdio_output@@V?$format_validation_base@DV?$stream_output_adapter@D@__crt_stdio_output@@@2@@__crt_stdio_output@@CAPEADXZ 00000001800650b0 f i libucrtd:output.obj
 0001:000640c0       ?narrow_null_string@?$output_processor@DV?$stream_output_adapter@D@__crt_stdio_output@@V?$positional_parameter_base@DV?$stream_output_adapter@D@__crt_stdio_output@@@2@@__crt_stdio_output@@CAPEADXZ 00000001800650c0 f i libucrtd:output.obj
 0001:000640d0       ?narrow_null_string@?$output_processor@DV?$stream_output_adapter@D@__crt_stdio_output@@V?$standard_base@DV?$stream_output_adapter@D@__crt_stdio_output@@@2@@__crt_stdio_output@@CAPEADXZ 00000001800650d0 f i libucrtd:output.obj
 0001:000640e0       ?narrow_null_string@?$output_processor@DV?$string_output_adapter@D@__crt_stdio_output@@V?$format_validation_base@DV?$string_output_adapter@D@__crt_stdio_output@@@2@@__crt_stdio_output@@CAPEADXZ 00000001800650e0 f i libucrtd:output.obj
 0001:000640f0       ?narrow_null_string@?$output_processor@DV?$string_output_adapter@D@__crt_stdio_output@@V?$positional_parameter_base@DV?$string_output_adapter@D@__crt_stdio_output@@@2@@__crt_stdio_output@@CAPEADXZ 00000001800650f0 f i libucrtd:output.obj
 0001:00064100       ?narrow_null_string@?$output_processor@DV?$string_output_adapter@D@__crt_stdio_output@@V?$standard_base@DV?$string_output_adapter@D@__crt_stdio_output@@@2@@__crt_stdio_output@@CAPEADXZ 0000000180065100 f i libucrtd:output.obj
 0001:00064110       ?narrow_null_string@?$output_processor@_WV?$stream_output_adapter@_W@__crt_stdio_output@@V?$format_validation_base@_WV?$stream_output_adapter@_W@__crt_stdio_output@@@2@@__crt_stdio_output@@CAPEADXZ 0000000180065110 f i libucrtd:output.obj
 0001:00064120       ?narrow_null_string@?$output_processor@_WV?$stream_output_adapter@_W@__crt_stdio_output@@V?$positional_parameter_base@_WV?$stream_output_adapter@_W@__crt_stdio_output@@@2@@__crt_stdio_output@@CAPEADXZ 0000000180065120 f i libucrtd:output.obj
 0001:00064130       ?narrow_null_string@?$output_processor@_WV?$stream_output_adapter@_W@__crt_stdio_output@@V?$standard_base@_WV?$stream_output_adapter@_W@__crt_stdio_output@@@2@@__crt_stdio_output@@CAPEADXZ 0000000180065130 f i libucrtd:output.obj
 0001:00064140       ?narrow_null_string@?$output_processor@_WV?$string_output_adapter@_W@__crt_stdio_output@@V?$format_validation_base@_WV?$string_output_adapter@_W@__crt_stdio_output@@@2@@__crt_stdio_output@@CAPEADXZ 0000000180065140 f i libucrtd:output.obj
 0001:00064150       ?narrow_null_string@?$output_processor@_WV?$string_output_adapter@_W@__crt_stdio_output@@V?$positional_parameter_base@_WV?$string_output_adapter@_W@__crt_stdio_output@@@2@@__crt_stdio_output@@CAPEADXZ 0000000180065150 f i libucrtd:output.obj
 0001:00064160       ?narrow_null_string@?$output_processor@_WV?$string_output_adapter@_W@__crt_stdio_output@@V?$standard_base@_WV?$string_output_adapter@_W@__crt_stdio_output@@@2@@__crt_stdio_output@@CAPEADXZ 0000000180065160 f i libucrtd:output.obj
 0001:00064170       ?parse_int_from_format_string@?$output_processor@DV?$stream_output_adapter@D@__crt_stdio_output@@V?$format_validation_base@DV?$stream_output_adapter@D@__crt_stdio_output@@@2@@__crt_stdio_output@@AEAA_NQEAH@Z 0000000180065170 f i libucrtd:output.obj
 0001:00064260       ?parse_int_from_format_string@?$output_processor@DV?$stream_output_adapter@D@__crt_stdio_output@@V?$positional_parameter_base@DV?$stream_output_adapter@D@__crt_stdio_output@@@2@@__crt_stdio_output@@AEAA_NQEAH@Z 0000000180065260 f i libucrtd:output.obj
 0001:00064350       ?parse_int_from_format_string@?$output_processor@DV?$stream_output_adapter@D@__crt_stdio_output@@V?$standard_base@DV?$stream_output_adapter@D@__crt_stdio_output@@@2@@__crt_stdio_output@@AEAA_NQEAH@Z 0000000180065350 f i libucrtd:output.obj
 0001:00064440       ?parse_int_from_format_string@?$output_processor@DV?$string_output_adapter@D@__crt_stdio_output@@V?$format_validation_base@DV?$string_output_adapter@D@__crt_stdio_output@@@2@@__crt_stdio_output@@AEAA_NQEAH@Z 0000000180065440 f i libucrtd:output.obj
 0001:00064530       ?parse_int_from_format_string@?$output_processor@DV?$string_output_adapter@D@__crt_stdio_output@@V?$positional_parameter_base@DV?$string_output_adapter@D@__crt_stdio_output@@@2@@__crt_stdio_output@@AEAA_NQEAH@Z 0000000180065530 f i libucrtd:output.obj
 0001:00064620       ?parse_int_from_format_string@?$output_processor@DV?$string_output_adapter@D@__crt_stdio_output@@V?$standard_base@DV?$string_output_adapter@D@__crt_stdio_output@@@2@@__crt_stdio_output@@AEAA_NQEAH@Z 0000000180065620 f i libucrtd:output.obj
 0001:00064710       ?parse_int_from_format_string@?$output_processor@_WV?$stream_output_adapter@_W@__crt_stdio_output@@V?$format_validation_base@_WV?$stream_output_adapter@_W@__crt_stdio_output@@@2@@__crt_stdio_output@@AEAA_NQEAH@Z 0000000180065710 f i libucrtd:output.obj
 0001:00064800       ?parse_int_from_format_string@?$output_processor@_WV?$stream_output_adapter@_W@__crt_stdio_output@@V?$positional_parameter_base@_WV?$stream_output_adapter@_W@__crt_stdio_output@@@2@@__crt_stdio_output@@AEAA_NQEAH@Z 0000000180065800 f i libucrtd:output.obj
 0001:000648f0       ?parse_int_from_format_string@?$output_processor@_WV?$stream_output_adapter@_W@__crt_stdio_output@@V?$standard_base@_WV?$stream_output_adapter@_W@__crt_stdio_output@@@2@@__crt_stdio_output@@AEAA_NQEAH@Z 00000001800658f0 f i libucrtd:output.obj
 0001:000649e0       ?parse_int_from_format_string@?$output_processor@_WV?$string_output_adapter@_W@__crt_stdio_output@@V?$format_validation_base@_WV?$string_output_adapter@_W@__crt_stdio_output@@@2@@__crt_stdio_output@@AEAA_NQEAH@Z 00000001800659e0 f i libucrtd:output.obj
 0001:00064ad0       ?parse_int_from_format_string@?$output_processor@_WV?$string_output_adapter@_W@__crt_stdio_output@@V?$positional_parameter_base@_WV?$string_output_adapter@_W@__crt_stdio_output@@@2@@__crt_stdio_output@@AEAA_NQEAH@Z 0000000180065ad0 f i libucrtd:output.obj
 0001:00064bc0       ?parse_int_from_format_string@?$output_processor@_WV?$string_output_adapter@_W@__crt_stdio_output@@V?$standard_base@_WV?$string_output_adapter@_W@__crt_stdio_output@@@2@@__crt_stdio_output@@AEAA_NQEAH@Z 0000000180065bc0 f i libucrtd:output.obj
 0001:00064cb0       ?process@?$output_processor@DV?$stream_output_adapter@D@__crt_stdio_output@@V?$format_validation_base@DV?$stream_output_adapter@D@__crt_stdio_output@@@2@@__crt_stdio_output@@QEAAHXZ 0000000180065cb0 f i libucrtd:output.obj
 0001:00065010       ?process@?$output_processor@DV?$stream_output_adapter@D@__crt_stdio_output@@V?$positional_parameter_base@DV?$stream_output_adapter@D@__crt_stdio_output@@@2@@__crt_stdio_output@@QEAAHXZ 0000000180066010 f i libucrtd:output.obj
 0001:00065370       ?process@?$output_processor@DV?$stream_output_adapter@D@__crt_stdio_output@@V?$standard_base@DV?$stream_output_adapter@D@__crt_stdio_output@@@2@@__crt_stdio_output@@QEAAHXZ 0000000180066370 f i libucrtd:output.obj
 0001:000656d0       ?process@?$output_processor@DV?$string_output_adapter@D@__crt_stdio_output@@V?$format_validation_base@DV?$string_output_adapter@D@__crt_stdio_output@@@2@@__crt_stdio_output@@QEAAHXZ 00000001800666d0 f i libucrtd:output.obj
 0001:00065a30       ?process@?$output_processor@DV?$string_output_adapter@D@__crt_stdio_output@@V?$positional_parameter_base@DV?$string_output_adapter@D@__crt_stdio_output@@@2@@__crt_stdio_output@@QEAAHXZ 0000000180066a30 f i libucrtd:output.obj
 0001:00065d90       ?process@?$output_processor@DV?$string_output_adapter@D@__crt_stdio_output@@V?$standard_base@DV?$string_output_adapter@D@__crt_stdio_output@@@2@@__crt_stdio_output@@QEAAHXZ 0000000180066d90 f i libucrtd:output.obj
 0001:000660f0       ?process@?$output_processor@_WV?$stream_output_adapter@_W@__crt_stdio_output@@V?$format_validation_base@_WV?$stream_output_adapter@_W@__crt_stdio_output@@@2@@__crt_stdio_output@@QEAAHXZ 00000001800670f0 f i libucrtd:output.obj
 0001:00066450       ?process@?$output_processor@_WV?$stream_output_adapter@_W@__crt_stdio_output@@V?$positional_parameter_base@_WV?$stream_output_adapter@_W@__crt_stdio_output@@@2@@__crt_stdio_output@@QEAAHXZ 0000000180067450 f i libucrtd:output.obj
 0001:000667b0       ?process@?$output_processor@_WV?$stream_output_adapter@_W@__crt_stdio_output@@V?$standard_base@_WV?$stream_output_adapter@_W@__crt_stdio_output@@@2@@__crt_stdio_output@@QEAAHXZ 00000001800677b0 f i libucrtd:output.obj
 0001:00066b10       ?process@?$output_processor@_WV?$string_output_adapter@_W@__crt_stdio_output@@V?$format_validation_base@_WV?$string_output_adapter@_W@__crt_stdio_output@@@2@@__crt_stdio_output@@QEAAHXZ 0000000180067b10 f i libucrtd:output.obj
 0001:00066e70       ?process@?$output_processor@_WV?$string_output_adapter@_W@__crt_stdio_output@@V?$positional_parameter_base@_WV?$string_output_adapter@_W@__crt_stdio_output@@@2@@__crt_stdio_output@@QEAAHXZ 0000000180067e70 f i libucrtd:output.obj
 0001:000671d0       ?process@?$output_processor@_WV?$string_output_adapter@_W@__crt_stdio_output@@V?$standard_base@_WV?$string_output_adapter@_W@__crt_stdio_output@@@2@@__crt_stdio_output@@QEAAHXZ 00000001800681d0 f i libucrtd:output.obj
 0001:00067530       ?public_stream@__crt_stdio_stream@@QEBAPEAU_iobuf@@XZ 0000000180068530 f i libucrtd:output.obj
 0001:00067540       ?set_flag@?$output_processor@DV?$stream_output_adapter@D@__crt_stdio_output@@V?$format_validation_base@DV?$stream_output_adapter@D@__crt_stdio_output@@@2@@__crt_stdio_output@@AEAAXI@Z 0000000180068540 f i libucrtd:output.obj
 0001:00067560       ?set_flag@?$output_processor@DV?$stream_output_adapter@D@__crt_stdio_output@@V?$positional_parameter_base@DV?$stream_output_adapter@D@__crt_stdio_output@@@2@@__crt_stdio_output@@AEAAXI@Z 0000000180068560 f i libucrtd:output.obj
 0001:00067580       ?set_flag@?$output_processor@DV?$stream_output_adapter@D@__crt_stdio_output@@V?$standard_base@DV?$stream_output_adapter@D@__crt_stdio_output@@@2@@__crt_stdio_output@@AEAAXI@Z 0000000180068580 f i libucrtd:output.obj
 0001:000675a0       ?set_flag@?$output_processor@DV?$string_output_adapter@D@__crt_stdio_output@@V?$format_validation_base@DV?$string_output_adapter@D@__crt_stdio_output@@@2@@__crt_stdio_output@@AEAAXI@Z 00000001800685a0 f i libucrtd:output.obj
 0001:000675c0       ?set_flag@?$output_processor@DV?$string_output_adapter@D@__crt_stdio_output@@V?$positional_parameter_base@DV?$string_output_adapter@D@__crt_stdio_output@@@2@@__crt_stdio_output@@AEAAXI@Z 00000001800685c0 f i libucrtd:output.obj
 0001:000675e0       ?set_flag@?$output_processor@DV?$string_output_adapter@D@__crt_stdio_output@@V?$standard_base@DV?$string_output_adapter@D@__crt_stdio_output@@@2@@__crt_stdio_output@@AEAAXI@Z 00000001800685e0 f i libucrtd:output.obj
 0001:00067600       ?set_flag@?$output_processor@_WV?$stream_output_adapter@_W@__crt_stdio_output@@V?$format_validation_base@_WV?$stream_output_adapter@_W@__crt_stdio_output@@@2@@__crt_stdio_output@@AEAAXI@Z 0000000180068600 f i libucrtd:output.obj
 0001:00067620       ?set_flag@?$output_processor@_WV?$stream_output_adapter@_W@__crt_stdio_output@@V?$positional_parameter_base@_WV?$stream_output_adapter@_W@__crt_stdio_output@@@2@@__crt_stdio_output@@AEAAXI@Z 0000000180068620 f i libucrtd:output.obj
 0001:00067640       ?set_flag@?$output_processor@_WV?$stream_output_adapter@_W@__crt_stdio_output@@V?$standard_base@_WV?$stream_output_adapter@_W@__crt_stdio_output@@@2@@__crt_stdio_output@@AEAAXI@Z 0000000180068640 f i libucrtd:output.obj
 0001:00067660       ?set_flag@?$output_processor@_WV?$string_output_adapter@_W@__crt_stdio_output@@V?$format_validation_base@_WV?$string_output_adapter@_W@__crt_stdio_output@@@2@@__crt_stdio_output@@AEAAXI@Z 0000000180068660 f i libucrtd:output.obj
 0001:00067680       ?set_flag@?$output_processor@_WV?$string_output_adapter@_W@__crt_stdio_output@@V?$positional_parameter_base@_WV?$string_output_adapter@_W@__crt_stdio_output@@@2@@__crt_stdio_output@@AEAAXI@Z 0000000180068680 f i libucrtd:output.obj
 0001:000676a0       ?set_flag@?$output_processor@_WV?$string_output_adapter@_W@__crt_stdio_output@@V?$standard_base@_WV?$string_output_adapter@_W@__crt_stdio_output@@@2@@__crt_stdio_output@@AEAAXI@Z 00000001800686a0 f i libucrtd:output.obj
 0001:000676c0       ?should_format@?$positional_parameter_base@DV?$stream_output_adapter@D@__crt_stdio_output@@@__crt_stdio_output@@IEAA_NXZ 00000001800686c0 f i libucrtd:output.obj
 0001:00067700       ?should_format@?$positional_parameter_base@DV?$string_output_adapter@D@__crt_stdio_output@@@__crt_stdio_output@@IEAA_NXZ 0000000180068700 f i libucrtd:output.obj
 0001:00067740       ?should_format@?$positional_parameter_base@_WV?$stream_output_adapter@_W@__crt_stdio_output@@@__crt_stdio_output@@IEAA_NXZ 0000000180068740 f i libucrtd:output.obj
 0001:00067780       ?should_format@?$positional_parameter_base@_WV?$string_output_adapter@_W@__crt_stdio_output@@@__crt_stdio_output@@IEAA_NXZ 0000000180068780 f i libucrtd:output.obj
 0001:000677c0       ?should_format@?$standard_base@DV?$stream_output_adapter@D@__crt_stdio_output@@@__crt_stdio_output@@IEAA_NXZ 00000001800687c0 f i libucrtd:output.obj
 0001:000677d0       ?should_format@?$standard_base@DV?$string_output_adapter@D@__crt_stdio_output@@@__crt_stdio_output@@IEAA_NXZ 00000001800687d0 f i libucrtd:output.obj
 0001:000677e0       ?should_format@?$standard_base@_WV?$stream_output_adapter@_W@__crt_stdio_output@@@__crt_stdio_output@@IEAA_NXZ 00000001800687e0 f i libucrtd:output.obj
 0001:000677f0       ?should_format@?$standard_base@_WV?$string_output_adapter@_W@__crt_stdio_output@@@__crt_stdio_output@@IEAA_NXZ 00000001800687f0 f i libucrtd:output.obj
 0001:00067800       ?should_skip_normal_state_processing@?$positional_parameter_base@DV?$stream_output_adapter@D@__crt_stdio_output@@@__crt_stdio_output@@IEAA_NXZ 0000000180068800 f i libucrtd:output.obj
 0001:00067850       ?should_skip_normal_state_processing@?$positional_parameter_base@DV?$string_output_adapter@D@__crt_stdio_output@@@__crt_stdio_output@@IEAA_NXZ 0000000180068850 f i libucrtd:output.obj
 0001:000678a0       ?should_skip_normal_state_processing@?$positional_parameter_base@_WV?$stream_output_adapter@_W@__crt_stdio_output@@@__crt_stdio_output@@IEAA_NXZ 00000001800688a0 f i libucrtd:output.obj
 0001:000678f0       ?should_skip_normal_state_processing@?$positional_parameter_base@_WV?$string_output_adapter@_W@__crt_stdio_output@@@__crt_stdio_output@@IEAA_NXZ 00000001800688f0 f i libucrtd:output.obj
 0001:00067940       ?should_skip_normal_state_processing@?$standard_base@DV?$stream_output_adapter@D@__crt_stdio_output@@@__crt_stdio_output@@IEAA_NXZ 0000000180068940 f i libucrtd:output.obj
 0001:00067950       ?should_skip_normal_state_processing@?$standard_base@DV?$string_output_adapter@D@__crt_stdio_output@@@__crt_stdio_output@@IEAA_NXZ 0000000180068950 f i libucrtd:output.obj
 0001:00067960       ?should_skip_normal_state_processing@?$standard_base@_WV?$stream_output_adapter@_W@__crt_stdio_output@@@__crt_stdio_output@@IEAA_NXZ 0000000180068960 f i libucrtd:output.obj
 0001:00067970       ?should_skip_normal_state_processing@?$standard_base@_WV?$string_output_adapter@_W@__crt_stdio_output@@@__crt_stdio_output@@IEAA_NXZ 0000000180068970 f i libucrtd:output.obj
 0001:00067980       ?should_skip_type_state_output@?$positional_parameter_base@DV?$stream_output_adapter@D@__crt_stdio_output@@@__crt_stdio_output@@IEBA_NXZ 0000000180068980 f i libucrtd:output.obj
 0001:000679c0       ?should_skip_type_state_output@?$positional_parameter_base@DV?$string_output_adapter@D@__crt_stdio_output@@@__crt_stdio_output@@IEBA_NXZ 00000001800689c0 f i libucrtd:output.obj
 0001:00067a00       ?should_skip_type_state_output@?$positional_parameter_base@_WV?$stream_output_adapter@_W@__crt_stdio_output@@@__crt_stdio_output@@IEBA_NXZ 0000000180068a00 f i libucrtd:output.obj
 0001:00067a40       ?should_skip_type_state_output@?$positional_parameter_base@_WV?$string_output_adapter@_W@__crt_stdio_output@@@__crt_stdio_output@@IEBA_NXZ 0000000180068a40 f i libucrtd:output.obj
 0001:00067a80       ?should_skip_type_state_output@?$standard_base@DV?$stream_output_adapter@D@__crt_stdio_output@@@__crt_stdio_output@@IEBA_NXZ 0000000180068a80 f i libucrtd:output.obj
 0001:00067a90       ?should_skip_type_state_output@?$standard_base@DV?$string_output_adapter@D@__crt_stdio_output@@@__crt_stdio_output@@IEBA_NXZ 0000000180068a90 f i libucrtd:output.obj
 0001:00067aa0       ?should_skip_type_state_output@?$standard_base@_WV?$stream_output_adapter@_W@__crt_stdio_output@@@__crt_stdio_output@@IEBA_NXZ 0000000180068aa0 f i libucrtd:output.obj
 0001:00067ab0       ?should_skip_type_state_output@?$standard_base@_WV?$string_output_adapter@_W@__crt_stdio_output@@@__crt_stdio_output@@IEBA_NXZ 0000000180068ab0 f i libucrtd:output.obj
 0001:00067ac0       ?state_case_dot@?$output_processor@DV?$stream_output_adapter@D@__crt_stdio_output@@V?$format_validation_base@DV?$stream_output_adapter@D@__crt_stdio_output@@@2@@__crt_stdio_output@@AEAA_NXZ 0000000180068ac0 f i libucrtd:output.obj
 0001:00067ae0       ?state_case_dot@?$output_processor@DV?$stream_output_adapter@D@__crt_stdio_output@@V?$positional_parameter_base@DV?$stream_output_adapter@D@__crt_stdio_output@@@2@@__crt_stdio_output@@AEAA_NXZ 0000000180068ae0 f i libucrtd:output.obj
 0001:00067b00       ?state_case_dot@?$output_processor@DV?$stream_output_adapter@D@__crt_stdio_output@@V?$standard_base@DV?$stream_output_adapter@D@__crt_stdio_output@@@2@@__crt_stdio_output@@AEAA_NXZ 0000000180068b00 f i libucrtd:output.obj
 0001:00067b20       ?state_case_dot@?$output_processor@DV?$string_output_adapter@D@__crt_stdio_output@@V?$format_validation_base@DV?$string_output_adapter@D@__crt_stdio_output@@@2@@__crt_stdio_output@@AEAA_NXZ 0000000180068b20 f i libucrtd:output.obj
 0001:00067b40       ?state_case_dot@?$output_processor@DV?$string_output_adapter@D@__crt_stdio_output@@V?$positional_parameter_base@DV?$string_output_adapter@D@__crt_stdio_output@@@2@@__crt_stdio_output@@AEAA_NXZ 0000000180068b40 f i libucrtd:output.obj
 0001:00067b60       ?state_case_dot@?$output_processor@DV?$string_output_adapter@D@__crt_stdio_output@@V?$standard_base@DV?$string_output_adapter@D@__crt_stdio_output@@@2@@__crt_stdio_output@@AEAA_NXZ 0000000180068b60 f i libucrtd:output.obj
 0001:00067b80       ?state_case_dot@?$output_processor@_WV?$stream_output_adapter@_W@__crt_stdio_output@@V?$format_validation_base@_WV?$stream_output_adapter@_W@__crt_stdio_output@@@2@@__crt_stdio_output@@AEAA_NXZ 0000000180068b80 f i libucrtd:output.obj
 0001:00067ba0       ?state_case_dot@?$output_processor@_WV?$stream_output_adapter@_W@__crt_stdio_output@@V?$positional_parameter_base@_WV?$stream_output_adapter@_W@__crt_stdio_output@@@2@@__crt_stdio_output@@AEAA_NXZ 0000000180068ba0 f i libucrtd:output.obj
 0001:00067bc0       ?state_case_dot@?$output_processor@_WV?$stream_output_adapter@_W@__crt_stdio_output@@V?$standard_base@_WV?$stream_output_adapter@_W@__crt_stdio_output@@@2@@__crt_stdio_output@@AEAA_NXZ 0000000180068bc0 f i libucrtd:output.obj
 0001:00067be0       ?state_case_dot@?$output_processor@_WV?$string_output_adapter@_W@__crt_stdio_output@@V?$format_validation_base@_WV?$string_output_adapter@_W@__crt_stdio_output@@@2@@__crt_stdio_output@@AEAA_NXZ 0000000180068be0 f i libucrtd:output.obj
 0001:00067c00       ?state_case_dot@?$output_processor@_WV?$string_output_adapter@_W@__crt_stdio_output@@V?$positional_parameter_base@_WV?$string_output_adapter@_W@__crt_stdio_output@@@2@@__crt_stdio_output@@AEAA_NXZ 0000000180068c00 f i libucrtd:output.obj
 0001:00067c20       ?state_case_dot@?$output_processor@_WV?$string_output_adapter@_W@__crt_stdio_output@@V?$standard_base@_WV?$string_output_adapter@_W@__crt_stdio_output@@@2@@__crt_stdio_output@@AEAA_NXZ 0000000180068c20 f i libucrtd:output.obj
 0001:00067c40       ?state_case_flag@?$output_processor@DV?$stream_output_adapter@D@__crt_stdio_output@@V?$format_validation_base@DV?$stream_output_adapter@D@__crt_stdio_output@@@2@@__crt_stdio_output@@AEAA_NXZ 0000000180068c40 f i libucrtd:output.obj
 0001:00067ce0       ?state_case_flag@?$output_processor@DV?$stream_output_adapter@D@__crt_stdio_output@@V?$positional_parameter_base@DV?$stream_output_adapter@D@__crt_stdio_output@@@2@@__crt_stdio_output@@AEAA_NXZ 0000000180068ce0 f i libucrtd:output.obj
 0001:00067d80       ?state_case_flag@?$output_processor@DV?$stream_output_adapter@D@__crt_stdio_output@@V?$standard_base@DV?$stream_output_adapter@D@__crt_stdio_output@@@2@@__crt_stdio_output@@AEAA_NXZ 0000000180068d80 f i libucrtd:output.obj
 0001:00067e20       ?state_case_flag@?$output_processor@DV?$string_output_adapter@D@__crt_stdio_output@@V?$format_validation_base@DV?$string_output_adapter@D@__crt_stdio_output@@@2@@__crt_stdio_output@@AEAA_NXZ 0000000180068e20 f i libucrtd:output.obj
 0001:00067ec0       ?state_case_flag@?$output_processor@DV?$string_output_adapter@D@__crt_stdio_output@@V?$positional_parameter_base@DV?$string_output_adapter@D@__crt_stdio_output@@@2@@__crt_stdio_output@@AEAA_NXZ 0000000180068ec0 f i libucrtd:output.obj
 0001:00067f60       ?state_case_flag@?$output_processor@DV?$string_output_adapter@D@__crt_stdio_output@@V?$standard_base@DV?$string_output_adapter@D@__crt_stdio_output@@@2@@__crt_stdio_output@@AEAA_NXZ 0000000180068f60 f i libucrtd:output.obj
 0001:00068000       ?state_case_flag@?$output_processor@_WV?$stream_output_adapter@_W@__crt_stdio_output@@V?$format_validation_base@_WV?$stream_output_adapter@_W@__crt_stdio_output@@@2@@__crt_stdio_output@@AEAA_NXZ 0000000180069000 f i libucrtd:output.obj
 0001:000680a0       ?state_case_flag@?$output_processor@_WV?$stream_output_adapter@_W@__crt_stdio_output@@V?$positional_parameter_base@_WV?$stream_output_adapter@_W@__crt_stdio_output@@@2@@__crt_stdio_output@@AEAA_NXZ 00000001800690a0 f i libucrtd:output.obj
 0001:00068140       ?state_case_flag@?$output_processor@_WV?$stream_output_adapter@_W@__crt_stdio_output@@V?$standard_base@_WV?$stream_output_adapter@_W@__crt_stdio_output@@@2@@__crt_stdio_output@@AEAA_NXZ 0000000180069140 f i libucrtd:output.obj
 0001:000681e0       ?state_case_flag@?$output_processor@_WV?$string_output_adapter@_W@__crt_stdio_output@@V?$format_validation_base@_WV?$string_output_adapter@_W@__crt_stdio_output@@@2@@__crt_stdio_output@@AEAA_NXZ 00000001800691e0 f i libucrtd:output.obj
 0001:00068280       ?state_case_flag@?$output_processor@_WV?$string_output_adapter@_W@__crt_stdio_output@@V?$positional_parameter_base@_WV?$string_output_adapter@_W@__crt_stdio_output@@@2@@__crt_stdio_output@@AEAA_NXZ 0000000180069280 f i libucrtd:output.obj
 0001:00068320       ?state_case_flag@?$output_processor@_WV?$string_output_adapter@_W@__crt_stdio_output@@V?$standard_base@_WV?$string_output_adapter@_W@__crt_stdio_output@@@2@@__crt_stdio_output@@AEAA_NXZ 0000000180069320 f i libucrtd:output.obj
 0001:000683c0       ?state_case_normal@?$output_processor@DV?$stream_output_adapter@D@__crt_stdio_output@@V?$format_validation_base@DV?$stream_output_adapter@D@__crt_stdio_output@@@2@@__crt_stdio_output@@AEAA_NXZ 00000001800693c0 f i libucrtd:output.obj
 0001:000684a0       ?state_case_normal@?$output_processor@DV?$stream_output_adapter@D@__crt_stdio_output@@V?$positional_parameter_base@DV?$stream_output_adapter@D@__crt_stdio_output@@@2@@__crt_stdio_output@@AEAA_NXZ 00000001800694a0 f i libucrtd:output.obj
 0001:00068580       ?state_case_normal@?$output_processor@DV?$stream_output_adapter@D@__crt_stdio_output@@V?$standard_base@DV?$stream_output_adapter@D@__crt_stdio_output@@@2@@__crt_stdio_output@@AEAA_NXZ 0000000180069580 f i libucrtd:output.obj
 0001:00068660       ?state_case_normal@?$output_processor@DV?$string_output_adapter@D@__crt_stdio_output@@V?$format_validation_base@DV?$string_output_adapter@D@__crt_stdio_output@@@2@@__crt_stdio_output@@AEAA_NXZ 0000000180069660 f i libucrtd:output.obj
 0001:00068740       ?state_case_normal@?$output_processor@DV?$string_output_adapter@D@__crt_stdio_output@@V?$positional_parameter_base@DV?$string_output_adapter@D@__crt_stdio_output@@@2@@__crt_stdio_output@@AEAA_NXZ 0000000180069740 f i libucrtd:output.obj
 0001:00068820       ?state_case_normal@?$output_processor@DV?$string_output_adapter@D@__crt_stdio_output@@V?$standard_base@DV?$string_output_adapter@D@__crt_stdio_output@@@2@@__crt_stdio_output@@AEAA_NXZ 0000000180069820 f i libucrtd:output.obj
 0001:00068900       ?state_case_normal@?$output_processor@_WV?$stream_output_adapter@_W@__crt_stdio_output@@V?$format_validation_base@_WV?$stream_output_adapter@_W@__crt_stdio_output@@@2@@__crt_stdio_output@@AEAA_NXZ 0000000180069900 f i libucrtd:output.obj
 0001:000689e0       ?state_case_normal@?$output_processor@_WV?$stream_output_adapter@_W@__crt_stdio_output@@V?$positional_parameter_base@_WV?$stream_output_adapter@_W@__crt_stdio_output@@@2@@__crt_stdio_output@@AEAA_NXZ 00000001800699e0 f i libucrtd:output.obj
 0001:00068ac0       ?state_case_normal@?$output_processor@_WV?$stream_output_adapter@_W@__crt_stdio_output@@V?$standard_base@_WV?$stream_output_adapter@_W@__crt_stdio_output@@@2@@__crt_stdio_output@@AEAA_NXZ 0000000180069ac0 f i libucrtd:output.obj
 0001:00068ba0       ?state_case_normal@?$output_processor@_WV?$string_output_adapter@_W@__crt_stdio_output@@V?$format_validation_base@_WV?$string_output_adapter@_W@__crt_stdio_output@@@2@@__crt_stdio_output@@AEAA_NXZ 0000000180069ba0 f i libucrtd:output.obj
 0001:00068c80       ?state_case_normal@?$output_processor@_WV?$string_output_adapter@_W@__crt_stdio_output@@V?$positional_parameter_base@_WV?$string_output_adapter@_W@__crt_stdio_output@@@2@@__crt_stdio_output@@AEAA_NXZ 0000000180069c80 f i libucrtd:output.obj
 0001:00068d60       ?state_case_normal@?$output_processor@_WV?$string_output_adapter@_W@__crt_stdio_output@@V?$standard_base@_WV?$string_output_adapter@_W@__crt_stdio_output@@@2@@__crt_stdio_output@@AEAA_NXZ 0000000180069d60 f i libucrtd:output.obj
 0001:00068e40       ?state_case_normal_common@?$output_processor@DV?$stream_output_adapter@D@__crt_stdio_output@@V?$format_validation_base@DV?$stream_output_adapter@D@__crt_stdio_output@@@2@@__crt_stdio_output@@AEAA_NXZ 0000000180069e40 f i libucrtd:output.obj
 0001:00068e90       ?state_case_normal_common@?$output_processor@DV?$stream_output_adapter@D@__crt_stdio_output@@V?$positional_parameter_base@DV?$stream_output_adapter@D@__crt_stdio_output@@@2@@__crt_stdio_output@@AEAA_NXZ 0000000180069e90 f i libucrtd:output.obj
 0001:00068ee0       ?state_case_normal_common@?$output_processor@DV?$stream_output_adapter@D@__crt_stdio_output@@V?$standard_base@DV?$stream_output_adapter@D@__crt_stdio_output@@@2@@__crt_stdio_output@@AEAA_NXZ 0000000180069ee0 f i libucrtd:output.obj
 0001:00068f30       ?state_case_normal_common@?$output_processor@DV?$string_output_adapter@D@__crt_stdio_output@@V?$format_validation_base@DV?$string_output_adapter@D@__crt_stdio_output@@@2@@__crt_stdio_output@@AEAA_NXZ 0000000180069f30 f i libucrtd:output.obj
 0001:00068f80       ?state_case_normal_common@?$output_processor@DV?$string_output_adapter@D@__crt_stdio_output@@V?$positional_parameter_base@DV?$string_output_adapter@D@__crt_stdio_output@@@2@@__crt_stdio_output@@AEAA_NXZ 0000000180069f80 f i libucrtd:output.obj
 0001:00068fd0       ?state_case_normal_common@?$output_processor@DV?$string_output_adapter@D@__crt_stdio_output@@V?$standard_base@DV?$string_output_adapter@D@__crt_stdio_output@@@2@@__crt_stdio_output@@AEAA_NXZ 0000000180069fd0 f i libucrtd:output.obj
 0001:00069020       ?state_case_normal_common@?$output_processor@_WV?$stream_output_adapter@_W@__crt_stdio_output@@V?$format_validation_base@_WV?$stream_output_adapter@_W@__crt_stdio_output@@@2@@__crt_stdio_output@@AEAA_NXZ 000000018006a020 f i libucrtd:output.obj
 0001:00069070       ?state_case_normal_common@?$output_processor@_WV?$stream_output_adapter@_W@__crt_stdio_output@@V?$positional_parameter_base@_WV?$stream_output_adapter@_W@__crt_stdio_output@@@2@@__crt_stdio_output@@AEAA_NXZ 000000018006a070 f i libucrtd:output.obj
 0001:000690c0       ?state_case_normal_common@?$output_processor@_WV?$stream_output_adapter@_W@__crt_stdio_output@@V?$standard_base@_WV?$stream_output_adapter@_W@__crt_stdio_output@@@2@@__crt_stdio_output@@AEAA_NXZ 000000018006a0c0 f i libucrtd:output.obj
 0001:00069110       ?state_case_normal_common@?$output_processor@_WV?$string_output_adapter@_W@__crt_stdio_output@@V?$format_validation_base@_WV?$string_output_adapter@_W@__crt_stdio_output@@@2@@__crt_stdio_output@@AEAA_NXZ 000000018006a110 f i libucrtd:output.obj
 0001:00069160       ?state_case_normal_common@?$output_processor@_WV?$string_output_adapter@_W@__crt_stdio_output@@V?$positional_parameter_base@_WV?$string_output_adapter@_W@__crt_stdio_output@@@2@@__crt_stdio_output@@AEAA_NXZ 000000018006a160 f i libucrtd:output.obj
 0001:000691b0       ?state_case_normal_common@?$output_processor@_WV?$string_output_adapter@_W@__crt_stdio_output@@V?$standard_base@_WV?$string_output_adapter@_W@__crt_stdio_output@@@2@@__crt_stdio_output@@AEAA_NXZ 000000018006a1b0 f i libucrtd:output.obj
 0001:00069200       ?state_case_normal_tchar@?$output_processor@DV?$stream_output_adapter@D@__crt_stdio_output@@V?$format_validation_base@DV?$stream_output_adapter@D@__crt_stdio_output@@@2@@__crt_stdio_output@@AEAA_ND@Z 000000018006a200 f i libucrtd:output.obj
 0001:00069340       ?state_case_normal_tchar@?$output_processor@DV?$stream_output_adapter@D@__crt_stdio_output@@V?$positional_parameter_base@DV?$stream_output_adapter@D@__crt_stdio_output@@@2@@__crt_stdio_output@@AEAA_ND@Z 000000018006a340 f i libucrtd:output.obj
 0001:00069480       ?state_case_normal_tchar@?$output_processor@DV?$stream_output_adapter@D@__crt_stdio_output@@V?$standard_base@DV?$stream_output_adapter@D@__crt_stdio_output@@@2@@__crt_stdio_output@@AEAA_ND@Z 000000018006a480 f i libucrtd:output.obj
 0001:000695c0       ?state_case_normal_tchar@?$output_processor@DV?$string_output_adapter@D@__crt_stdio_output@@V?$format_validation_base@DV?$string_output_adapter@D@__crt_stdio_output@@@2@@__crt_stdio_output@@AEAA_ND@Z 000000018006a5c0 f i libucrtd:output.obj
 0001:00069700       ?state_case_normal_tchar@?$output_processor@DV?$string_output_adapter@D@__crt_stdio_output@@V?$positional_parameter_base@DV?$string_output_adapter@D@__crt_stdio_output@@@2@@__crt_stdio_output@@AEAA_ND@Z 000000018006a700 f i libucrtd:output.obj
 0001:00069840       ?state_case_normal_tchar@?$output_processor@DV?$string_output_adapter@D@__crt_stdio_output@@V?$standard_base@DV?$string_output_adapter@D@__crt_stdio_output@@@2@@__crt_stdio_output@@AEAA_ND@Z 000000018006a840 f i libucrtd:output.obj
 0001:00069980       ?state_case_normal_tchar@?$output_processor@_WV?$stream_output_adapter@_W@__crt_stdio_output@@V?$format_validation_base@_WV?$stream_output_adapter@_W@__crt_stdio_output@@@2@@__crt_stdio_output@@AEAA_N_W@Z 000000018006a980 f i libucrtd:output.obj
 0001:000699a0       ?state_case_normal_tchar@?$output_processor@_WV?$stream_output_adapter@_W@__crt_stdio_output@@V?$positional_parameter_base@_WV?$stream_output_adapter@_W@__crt_stdio_output@@@2@@__crt_stdio_output@@AEAA_N_W@Z 000000018006a9a0 f i libucrtd:output.obj
 0001:000699c0       ?state_case_normal_tchar@?$output_processor@_WV?$stream_output_adapter@_W@__crt_stdio_output@@V?$standard_base@_WV?$stream_output_adapter@_W@__crt_stdio_output@@@2@@__crt_stdio_output@@AEAA_N_W@Z 000000018006a9c0 f i libucrtd:output.obj
 0001:000699e0       ?state_case_normal_tchar@?$output_processor@_WV?$string_output_adapter@_W@__crt_stdio_output@@V?$format_validation_base@_WV?$string_output_adapter@_W@__crt_stdio_output@@@2@@__crt_stdio_output@@AEAA_N_W@Z 000000018006a9e0 f i libucrtd:output.obj
 0001:00069a00       ?state_case_normal_tchar@?$output_processor@_WV?$string_output_adapter@_W@__crt_stdio_output@@V?$positional_parameter_base@_WV?$string_output_adapter@_W@__crt_stdio_output@@@2@@__crt_stdio_output@@AEAA_N_W@Z 000000018006aa00 f i libucrtd:output.obj
 0001:00069a20       ?state_case_normal_tchar@?$output_processor@_WV?$string_output_adapter@_W@__crt_stdio_output@@V?$standard_base@_WV?$string_output_adapter@_W@__crt_stdio_output@@@2@@__crt_stdio_output@@AEAA_N_W@Z 000000018006aa20 f i libucrtd:output.obj
 0001:00069a40       ?state_case_percent@?$output_processor@DV?$stream_output_adapter@D@__crt_stdio_output@@V?$format_validation_base@DV?$stream_output_adapter@D@__crt_stdio_output@@@2@@__crt_stdio_output@@AEAA_NXZ 000000018006aa40 f i libucrtd:output.obj
 0001:00069a90       ?state_case_percent@?$output_processor@DV?$stream_output_adapter@D@__crt_stdio_output@@V?$positional_parameter_base@DV?$stream_output_adapter@D@__crt_stdio_output@@@2@@__crt_stdio_output@@AEAA_NXZ 000000018006aa90 f i libucrtd:output.obj
 0001:00069ae0       ?state_case_percent@?$output_processor@DV?$stream_output_adapter@D@__crt_stdio_output@@V?$standard_base@DV?$stream_output_adapter@D@__crt_stdio_output@@@2@@__crt_stdio_output@@AEAA_NXZ 000000018006aae0 f i libucrtd:output.obj
 0001:00069b30       ?state_case_percent@?$output_processor@DV?$string_output_adapter@D@__crt_stdio_output@@V?$format_validation_base@DV?$string_output_adapter@D@__crt_stdio_output@@@2@@__crt_stdio_output@@AEAA_NXZ 000000018006ab30 f i libucrtd:output.obj
 0001:00069b80       ?state_case_percent@?$output_processor@DV?$string_output_adapter@D@__crt_stdio_output@@V?$positional_parameter_base@DV?$string_output_adapter@D@__crt_stdio_output@@@2@@__crt_stdio_output@@AEAA_NXZ 000000018006ab80 f i libucrtd:output.obj
 0001:00069bd0       ?state_case_percent@?$output_processor@DV?$string_output_adapter@D@__crt_stdio_output@@V?$standard_base@DV?$string_output_adapter@D@__crt_stdio_output@@@2@@__crt_stdio_output@@AEAA_NXZ 000000018006abd0 f i libucrtd:output.obj
 0001:00069c20       ?state_case_percent@?$output_processor@_WV?$stream_output_adapter@_W@__crt_stdio_output@@V?$format_validation_base@_WV?$stream_output_adapter@_W@__crt_stdio_output@@@2@@__crt_stdio_output@@AEAA_NXZ 000000018006ac20 f i libucrtd:output.obj
 0001:00069c70       ?state_case_percent@?$output_processor@_WV?$stream_output_adapter@_W@__crt_stdio_output@@V?$positional_parameter_base@_WV?$stream_output_adapter@_W@__crt_stdio_output@@@2@@__crt_stdio_output@@AEAA_NXZ 000000018006ac70 f i libucrtd:output.obj
 0001:00069cc0       ?state_case_percent@?$output_processor@_WV?$stream_output_adapter@_W@__crt_stdio_output@@V?$standard_base@_WV?$stream_output_adapter@_W@__crt_stdio_output@@@2@@__crt_stdio_output@@AEAA_NXZ 000000018006acc0 f i libucrtd:output.obj
 0001:00069d10       ?state_case_percent@?$output_processor@_WV?$string_output_adapter@_W@__crt_stdio_output@@V?$format_validation_base@_WV?$string_output_adapter@_W@__crt_stdio_output@@@2@@__crt_stdio_output@@AEAA_NXZ 000000018006ad10 f i libucrtd:output.obj
 0001:00069d60       ?state_case_percent@?$output_processor@_WV?$string_output_adapter@_W@__crt_stdio_output@@V?$positional_parameter_base@_WV?$string_output_adapter@_W@__crt_stdio_output@@@2@@__crt_stdio_output@@AEAA_NXZ 000000018006ad60 f i libucrtd:output.obj
 0001:00069db0       ?state_case_percent@?$output_processor@_WV?$string_output_adapter@_W@__crt_stdio_output@@V?$standard_base@_WV?$string_output_adapter@_W@__crt_stdio_output@@@2@@__crt_stdio_output@@AEAA_NXZ 000000018006adb0 f i libucrtd:output.obj
 0001:00069e00       ?state_case_precision@?$output_processor@DV?$stream_output_adapter@D@__crt_stdio_output@@V?$format_validation_base@DV?$stream_output_adapter@D@__crt_stdio_output@@@2@@__crt_stdio_output@@AEAA_NXZ 000000018006ae00 f i libucrtd:output.obj
 0001:00069e80       ?state_case_precision@?$output_processor@DV?$stream_output_adapter@D@__crt_stdio_output@@V?$positional_parameter_base@DV?$stream_output_adapter@D@__crt_stdio_output@@@2@@__crt_stdio_output@@AEAA_NXZ 000000018006ae80 f i libucrtd:output.obj
 0001:00069f00       ?state_case_precision@?$output_processor@DV?$stream_output_adapter@D@__crt_stdio_output@@V?$standard_base@DV?$stream_output_adapter@D@__crt_stdio_output@@@2@@__crt_stdio_output@@AEAA_NXZ 000000018006af00 f i libucrtd:output.obj
 0001:00069f80       ?state_case_precision@?$output_processor@DV?$string_output_adapter@D@__crt_stdio_output@@V?$format_validation_base@DV?$string_output_adapter@D@__crt_stdio_output@@@2@@__crt_stdio_output@@AEAA_NXZ 000000018006af80 f i libucrtd:output.obj
 0001:0006a000       ?state_case_precision@?$output_processor@DV?$string_output_adapter@D@__crt_stdio_output@@V?$positional_parameter_base@DV?$string_output_adapter@D@__crt_stdio_output@@@2@@__crt_stdio_output@@AEAA_NXZ 000000018006b000 f i libucrtd:output.obj
 0001:0006a080       ?state_case_precision@?$output_processor@DV?$string_output_adapter@D@__crt_stdio_output@@V?$standard_base@DV?$string_output_adapter@D@__crt_stdio_output@@@2@@__crt_stdio_output@@AEAA_NXZ 000000018006b080 f i libucrtd:output.obj
 0001:0006a100       ?state_case_precision@?$output_processor@_WV?$stream_output_adapter@_W@__crt_stdio_output@@V?$format_validation_base@_WV?$stream_output_adapter@_W@__crt_stdio_output@@@2@@__crt_stdio_output@@AEAA_NXZ 000000018006b100 f i libucrtd:output.obj
 0001:0006a180       ?state_case_precision@?$output_processor@_WV?$stream_output_adapter@_W@__crt_stdio_output@@V?$positional_parameter_base@_WV?$stream_output_adapter@_W@__crt_stdio_output@@@2@@__crt_stdio_output@@AEAA_NXZ 000000018006b180 f i libucrtd:output.obj
 0001:0006a200       ?state_case_precision@?$output_processor@_WV?$stream_output_adapter@_W@__crt_stdio_output@@V?$standard_base@_WV?$stream_output_adapter@_W@__crt_stdio_output@@@2@@__crt_stdio_output@@AEAA_NXZ 000000018006b200 f i libucrtd:output.obj
 0001:0006a280       ?state_case_precision@?$output_processor@_WV?$string_output_adapter@_W@__crt_stdio_output@@V?$format_validation_base@_WV?$string_output_adapter@_W@__crt_stdio_output@@@2@@__crt_stdio_output@@AEAA_NXZ 000000018006b280 f i libucrtd:output.obj
 0001:0006a300       ?state_case_precision@?$output_processor@_WV?$string_output_adapter@_W@__crt_stdio_output@@V?$positional_parameter_base@_WV?$string_output_adapter@_W@__crt_stdio_output@@@2@@__crt_stdio_output@@AEAA_NXZ 000000018006b300 f i libucrtd:output.obj
 0001:0006a380       ?state_case_precision@?$output_processor@_WV?$string_output_adapter@_W@__crt_stdio_output@@V?$standard_base@_WV?$string_output_adapter@_W@__crt_stdio_output@@@2@@__crt_stdio_output@@AEAA_NXZ 000000018006b380 f i libucrtd:output.obj
 0001:0006a400       ?state_case_size@?$output_processor@DV?$stream_output_adapter@D@__crt_stdio_output@@V?$format_validation_base@DV?$stream_output_adapter@D@__crt_stdio_output@@@2@@__crt_stdio_output@@AEAA_NXZ 000000018006b400 f i libucrtd:output.obj
 0001:0006a880       ?state_case_size@?$output_processor@DV?$stream_output_adapter@D@__crt_stdio_output@@V?$positional_parameter_base@DV?$stream_output_adapter@D@__crt_stdio_output@@@2@@__crt_stdio_output@@AEAA_NXZ 000000018006b880 f i libucrtd:output.obj
 0001:0006ad00       ?state_case_size@?$output_processor@DV?$stream_output_adapter@D@__crt_stdio_output@@V?$standard_base@DV?$stream_output_adapter@D@__crt_stdio_output@@@2@@__crt_stdio_output@@AEAA_NXZ 000000018006bd00 f i libucrtd:output.obj
 0001:0006b180       ?state_case_size@?$output_processor@DV?$string_output_adapter@D@__crt_stdio_output@@V?$format_validation_base@DV?$string_output_adapter@D@__crt_stdio_output@@@2@@__crt_stdio_output@@AEAA_NXZ 000000018006c180 f i libucrtd:output.obj
 0001:0006b600       ?state_case_size@?$output_processor@DV?$string_output_adapter@D@__crt_stdio_output@@V?$positional_parameter_base@DV?$string_output_adapter@D@__crt_stdio_output@@@2@@__crt_stdio_output@@AEAA_NXZ 000000018006c600 f i libucrtd:output.obj
 0001:0006ba80       ?state_case_size@?$output_processor@DV?$string_output_adapter@D@__crt_stdio_output@@V?$standard_base@DV?$string_output_adapter@D@__crt_stdio_output@@@2@@__crt_stdio_output@@AEAA_NXZ 000000018006ca80 f i libucrtd:output.obj
 0001:0006bf00       ?state_case_size@?$output_processor@_WV?$stream_output_adapter@_W@__crt_stdio_output@@V?$format_validation_base@_WV?$stream_output_adapter@_W@__crt_stdio_output@@@2@@__crt_stdio_output@@AEAA_NXZ 000000018006cf00 f i libucrtd:output.obj
 0001:0006c380       ?state_case_size@?$output_processor@_WV?$stream_output_adapter@_W@__crt_stdio_output@@V?$positional_parameter_base@_WV?$stream_output_adapter@_W@__crt_stdio_output@@@2@@__crt_stdio_output@@AEAA_NXZ 000000018006d380 f i libucrtd:output.obj
 0001:0006c800       ?state_case_size@?$output_processor@_WV?$stream_output_adapter@_W@__crt_stdio_output@@V?$standard_base@_WV?$stream_output_adapter@_W@__crt_stdio_output@@@2@@__crt_stdio_output@@AEAA_NXZ 000000018006d800 f i libucrtd:output.obj
 0001:0006cc80       ?state_case_size@?$output_processor@_WV?$string_output_adapter@_W@__crt_stdio_output@@V?$format_validation_base@_WV?$string_output_adapter@_W@__crt_stdio_output@@@2@@__crt_stdio_output@@AEAA_NXZ 000000018006dc80 f i libucrtd:output.obj
 0001:0006d100       ?state_case_size@?$output_processor@_WV?$string_output_adapter@_W@__crt_stdio_output@@V?$positional_parameter_base@_WV?$string_output_adapter@_W@__crt_stdio_output@@@2@@__crt_stdio_output@@AEAA_NXZ 000000018006e100 f i libucrtd:output.obj
 0001:0006d580       ?state_case_size@?$output_processor@_WV?$string_output_adapter@_W@__crt_stdio_output@@V?$standard_base@_WV?$string_output_adapter@_W@__crt_stdio_output@@@2@@__crt_stdio_output@@AEAA_NXZ 000000018006e580 f i libucrtd:output.obj
 0001:0006da00       ?state_case_type@?$output_processor@DV?$stream_output_adapter@D@__crt_stdio_output@@V?$format_validation_base@DV?$stream_output_adapter@D@__crt_stdio_output@@@2@@__crt_stdio_output@@AEAA_NXZ 000000018006ea00 f i libucrtd:output.obj
 0001:0006dea0       ?state_case_type@?$output_processor@DV?$stream_output_adapter@D@__crt_stdio_output@@V?$positional_parameter_base@DV?$stream_output_adapter@D@__crt_stdio_output@@@2@@__crt_stdio_output@@AEAA_NXZ 000000018006eea0 f i libucrtd:output.obj
 0001:0006e340       ?state_case_type@?$output_processor@DV?$stream_output_adapter@D@__crt_stdio_output@@V?$standard_base@DV?$stream_output_adapter@D@__crt_stdio_output@@@2@@__crt_stdio_output@@AEAA_NXZ 000000018006f340 f i libucrtd:output.obj
 0001:0006e7e0       ?state_case_type@?$output_processor@DV?$string_output_adapter@D@__crt_stdio_output@@V?$format_validation_base@DV?$string_output_adapter@D@__crt_stdio_output@@@2@@__crt_stdio_output@@AEAA_NXZ 000000018006f7e0 f i libucrtd:output.obj
 0001:0006ec80       ?state_case_type@?$output_processor@DV?$string_output_adapter@D@__crt_stdio_output@@V?$positional_parameter_base@DV?$string_output_adapter@D@__crt_stdio_output@@@2@@__crt_stdio_output@@AEAA_NXZ 000000018006fc80 f i libucrtd:output.obj
 0001:0006f120       ?state_case_type@?$output_processor@DV?$string_output_adapter@D@__crt_stdio_output@@V?$standard_base@DV?$string_output_adapter@D@__crt_stdio_output@@@2@@__crt_stdio_output@@AEAA_NXZ 0000000180070120 f i libucrtd:output.obj
 0001:0006f5c0       ?state_case_type@?$output_processor@_WV?$stream_output_adapter@_W@__crt_stdio_output@@V?$format_validation_base@_WV?$stream_output_adapter@_W@__crt_stdio_output@@@2@@__crt_stdio_output@@AEAA_NXZ 00000001800705c0 f i libucrtd:output.obj
 0001:0006fb20       ?state_case_type@?$output_processor@_WV?$stream_output_adapter@_W@__crt_stdio_output@@V?$positional_parameter_base@_WV?$stream_output_adapter@_W@__crt_stdio_output@@@2@@__crt_stdio_output@@AEAA_NXZ 0000000180070b20 f i libucrtd:output.obj
 0001:00070080       ?state_case_type@?$output_processor@_WV?$stream_output_adapter@_W@__crt_stdio_output@@V?$standard_base@_WV?$stream_output_adapter@_W@__crt_stdio_output@@@2@@__crt_stdio_output@@AEAA_NXZ 0000000180071080 f i libucrtd:output.obj
 0001:000705e0       ?state_case_type@?$output_processor@_WV?$string_output_adapter@_W@__crt_stdio_output@@V?$format_validation_base@_WV?$string_output_adapter@_W@__crt_stdio_output@@@2@@__crt_stdio_output@@AEAA_NXZ 00000001800715e0 f i libucrtd:output.obj
 0001:00070b40       ?state_case_type@?$output_processor@_WV?$string_output_adapter@_W@__crt_stdio_output@@V?$positional_parameter_base@_WV?$string_output_adapter@_W@__crt_stdio_output@@@2@@__crt_stdio_output@@AEAA_NXZ 0000000180071b40 f i libucrtd:output.obj
 0001:000710a0       ?state_case_type@?$output_processor@_WV?$string_output_adapter@_W@__crt_stdio_output@@V?$standard_base@_WV?$string_output_adapter@_W@__crt_stdio_output@@@2@@__crt_stdio_output@@AEAA_NXZ 00000001800720a0 f i libucrtd:output.obj
 0001:00071600       ?state_case_width@?$output_processor@DV?$stream_output_adapter@D@__crt_stdio_output@@V?$format_validation_base@DV?$stream_output_adapter@D@__crt_stdio_output@@@2@@__crt_stdio_output@@AEAA_NXZ 0000000180072600 f i libucrtd:output.obj
 0001:00071690       ?state_case_width@?$output_processor@DV?$stream_output_adapter@D@__crt_stdio_output@@V?$positional_parameter_base@DV?$stream_output_adapter@D@__crt_stdio_output@@@2@@__crt_stdio_output@@AEAA_NXZ 0000000180072690 f i libucrtd:output.obj
 0001:00071720       ?state_case_width@?$output_processor@DV?$stream_output_adapter@D@__crt_stdio_output@@V?$standard_base@DV?$stream_output_adapter@D@__crt_stdio_output@@@2@@__crt_stdio_output@@AEAA_NXZ 0000000180072720 f i libucrtd:output.obj
 0001:000717b0       ?state_case_width@?$output_processor@DV?$string_output_adapter@D@__crt_stdio_output@@V?$format_validation_base@DV?$string_output_adapter@D@__crt_stdio_output@@@2@@__crt_stdio_output@@AEAA_NXZ 00000001800727b0 f i libucrtd:output.obj
 0001:00071840       ?state_case_width@?$output_processor@DV?$string_output_adapter@D@__crt_stdio_output@@V?$positional_parameter_base@DV?$string_output_adapter@D@__crt_stdio_output@@@2@@__crt_stdio_output@@AEAA_NXZ 0000000180072840 f i libucrtd:output.obj
 0001:000718d0       ?state_case_width@?$output_processor@DV?$string_output_adapter@D@__crt_stdio_output@@V?$standard_base@DV?$string_output_adapter@D@__crt_stdio_output@@@2@@__crt_stdio_output@@AEAA_NXZ 00000001800728d0 f i libucrtd:output.obj
 0001:00071960       ?state_case_width@?$output_processor@_WV?$stream_output_adapter@_W@__crt_stdio_output@@V?$format_validation_base@_WV?$stream_output_adapter@_W@__crt_stdio_output@@@2@@__crt_stdio_output@@AEAA_NXZ 0000000180072960 f i libucrtd:output.obj
 0001:000719f0       ?state_case_width@?$output_processor@_WV?$stream_output_adapter@_W@__crt_stdio_output@@V?$positional_parameter_base@_WV?$stream_output_adapter@_W@__crt_stdio_output@@@2@@__crt_stdio_output@@AEAA_NXZ 00000001800729f0 f i libucrtd:output.obj
 0001:00071a80       ?state_case_width@?$output_processor@_WV?$stream_output_adapter@_W@__crt_stdio_output@@V?$standard_base@_WV?$stream_output_adapter@_W@__crt_stdio_output@@@2@@__crt_stdio_output@@AEAA_NXZ 0000000180072a80 f i libucrtd:output.obj
 0001:00071b10       ?state_case_width@?$output_processor@_WV?$string_output_adapter@_W@__crt_stdio_output@@V?$format_validation_base@_WV?$string_output_adapter@_W@__crt_stdio_output@@@2@@__crt_stdio_output@@AEAA_NXZ 0000000180072b10 f i libucrtd:output.obj
 0001:00071ba0       ?state_case_width@?$output_processor@_WV?$string_output_adapter@_W@__crt_stdio_output@@V?$positional_parameter_base@_WV?$string_output_adapter@_W@__crt_stdio_output@@@2@@__crt_stdio_output@@AEAA_NXZ 0000000180072ba0 f i libucrtd:output.obj
 0001:00071c30       ?state_case_width@?$output_processor@_WV?$string_output_adapter@_W@__crt_stdio_output@@V?$standard_base@_WV?$string_output_adapter@_W@__crt_stdio_output@@@2@@__crt_stdio_output@@AEAA_NXZ 0000000180072c30 f i libucrtd:output.obj
 0001:00071cc0       ?state_count@?$format_validation_base@DV?$stream_output_adapter@D@__crt_stdio_output@@@__crt_stdio_output@@KAIXZ 0000000180072cc0 f i libucrtd:output.obj
 0001:00071cd0       ?state_count@?$format_validation_base@DV?$string_output_adapter@D@__crt_stdio_output@@@__crt_stdio_output@@KAIXZ 0000000180072cd0 f i libucrtd:output.obj
 0001:00071ce0       ?state_count@?$format_validation_base@_WV?$stream_output_adapter@_W@__crt_stdio_output@@@__crt_stdio_output@@KAIXZ 0000000180072ce0 f i libucrtd:output.obj
 0001:00071cf0       ?state_count@?$format_validation_base@_WV?$string_output_adapter@_W@__crt_stdio_output@@@__crt_stdio_output@@KAIXZ 0000000180072cf0 f i libucrtd:output.obj
 0001:00071d00       ?state_count@?$standard_base@DV?$stream_output_adapter@D@__crt_stdio_output@@@__crt_stdio_output@@KAIXZ 0000000180072d00 f i libucrtd:output.obj
 0001:00071d10       ?state_count@?$standard_base@DV?$string_output_adapter@D@__crt_stdio_output@@@__crt_stdio_output@@KAIXZ 0000000180072d10 f i libucrtd:output.obj
 0001:00071d20       ?state_count@?$standard_base@_WV?$stream_output_adapter@_W@__crt_stdio_output@@@__crt_stdio_output@@KAIXZ 0000000180072d20 f i libucrtd:output.obj
 0001:00071d30       ?state_count@?$standard_base@_WV?$string_output_adapter@_W@__crt_stdio_output@@@__crt_stdio_output@@KAIXZ 0000000180072d30 f i libucrtd:output.obj
 0001:00071d40       ?state_transition_table@?$format_validation_base@DV?$stream_output_adapter@D@__crt_stdio_output@@@__crt_stdio_output@@KAAEBV?$spectre_mitigated_lookup_table@Ustate_transition_pair@__crt_stdio_output@@$0IA@@2@XZ 0000000180072d40 f i libucrtd:output.obj
 0001:00071d50       ?state_transition_table@?$format_validation_base@DV?$string_output_adapter@D@__crt_stdio_output@@@__crt_stdio_output@@KAAEBV?$spectre_mitigated_lookup_table@Ustate_transition_pair@__crt_stdio_output@@$0IA@@2@XZ 0000000180072d50 f i libucrtd:output.obj
 0001:00071d60       ?state_transition_table@?$format_validation_base@_WV?$stream_output_adapter@_W@__crt_stdio_output@@@__crt_stdio_output@@KAAEBV?$spectre_mitigated_lookup_table@Ustate_transition_pair@__crt_stdio_output@@$0IA@@2@XZ 0000000180072d60 f i libucrtd:output.obj
 0001:00071d70       ?state_transition_table@?$format_validation_base@_WV?$string_output_adapter@_W@__crt_stdio_output@@@__crt_stdio_output@@KAAEBV?$spectre_mitigated_lookup_table@Ustate_transition_pair@__crt_stdio_output@@$0IA@@2@XZ 0000000180072d70 f i libucrtd:output.obj
 0001:00071d80       ?state_transition_table@?$standard_base@DV?$stream_output_adapter@D@__crt_stdio_output@@@__crt_stdio_output@@KAAEBV?$spectre_mitigated_lookup_table@Ustate_transition_pair@__crt_stdio_output@@$0IA@@2@XZ 0000000180072d80 f i libucrtd:output.obj
 0001:00071d90       ?state_transition_table@?$standard_base@DV?$string_output_adapter@D@__crt_stdio_output@@@__crt_stdio_output@@KAAEBV?$spectre_mitigated_lookup_table@Ustate_transition_pair@__crt_stdio_output@@$0IA@@2@XZ 0000000180072d90 f i libucrtd:output.obj
 0001:00071da0       ?state_transition_table@?$standard_base@_WV?$stream_output_adapter@_W@__crt_stdio_output@@@__crt_stdio_output@@KAAEBV?$spectre_mitigated_lookup_table@Ustate_transition_pair@__crt_stdio_output@@$0IA@@2@XZ 0000000180072da0 f i libucrtd:output.obj
 0001:00071db0       ?state_transition_table@?$standard_base@_WV?$string_output_adapter@_W@__crt_stdio_output@@@__crt_stdio_output@@KAAEBV?$spectre_mitigated_lookup_table@Ustate_transition_pair@__crt_stdio_output@@$0IA@@2@XZ 0000000180072db0 f i libucrtd:output.obj
 0001:00071dc0       ?tchar_string@?$common_data@D@__crt_stdio_output@@IEAAAEAPEADD@Z 0000000180072dc0 f i libucrtd:output.obj
 0001:00071de0       ?tchar_string@?$common_data@D@__crt_stdio_output@@IEAAAEAPEADXZ 0000000180072de0 f i libucrtd:output.obj
 0001:00071e00       ?tchar_string@?$common_data@_W@__crt_stdio_output@@IEAAAEAPEA_WXZ 0000000180072e00 f i libucrtd:output.obj
 0001:00071e20       ?tchar_string@?$common_data@_W@__crt_stdio_output@@IEAAAEAPEA_W_W@Z 0000000180072e20 f i libucrtd:output.obj
 0001:00071e40       ?to_integer_size@__crt_stdio_output@@YA_KW4length_modifier@1@@Z 0000000180072e40 f i libucrtd:output.obj
 0001:00071ef0       ?type_case_X@?$output_processor@DV?$stream_output_adapter@D@__crt_stdio_output@@V?$format_validation_base@DV?$stream_output_adapter@D@__crt_stdio_output@@@2@@__crt_stdio_output@@AEAA_NXZ 0000000180072ef0 f i libucrtd:output.obj
 0001:00071f10       ?type_case_X@?$output_processor@DV?$stream_output_adapter@D@__crt_stdio_output@@V?$positional_parameter_base@DV?$stream_output_adapter@D@__crt_stdio_output@@@2@@__crt_stdio_output@@AEAA_NXZ 0000000180072f10 f i libucrtd:output.obj
 0001:00071f30       ?type_case_X@?$output_processor@DV?$stream_output_adapter@D@__crt_stdio_output@@V?$standard_base@DV?$stream_output_adapter@D@__crt_stdio_output@@@2@@__crt_stdio_output@@AEAA_NXZ 0000000180072f30 f i libucrtd:output.obj
 0001:00071f50       ?type_case_X@?$output_processor@DV?$string_output_adapter@D@__crt_stdio_output@@V?$format_validation_base@DV?$string_output_adapter@D@__crt_stdio_output@@@2@@__crt_stdio_output@@AEAA_NXZ 0000000180072f50 f i libucrtd:output.obj
 0001:00071f70       ?type_case_X@?$output_processor@DV?$string_output_adapter@D@__crt_stdio_output@@V?$positional_parameter_base@DV?$string_output_adapter@D@__crt_stdio_output@@@2@@__crt_stdio_output@@AEAA_NXZ 0000000180072f70 f i libucrtd:output.obj
 0001:00071f90       ?type_case_X@?$output_processor@DV?$string_output_adapter@D@__crt_stdio_output@@V?$standard_base@DV?$string_output_adapter@D@__crt_stdio_output@@@2@@__crt_stdio_output@@AEAA_NXZ 0000000180072f90 f i libucrtd:output.obj
 0001:00071fb0       ?type_case_X@?$output_processor@_WV?$stream_output_adapter@_W@__crt_stdio_output@@V?$format_validation_base@_WV?$stream_output_adapter@_W@__crt_stdio_output@@@2@@__crt_stdio_output@@AEAA_NXZ 0000000180072fb0 f i libucrtd:output.obj
 0001:00071fd0       ?type_case_X@?$output_processor@_WV?$stream_output_adapter@_W@__crt_stdio_output@@V?$positional_parameter_base@_WV?$stream_output_adapter@_W@__crt_stdio_output@@@2@@__crt_stdio_output@@AEAA_NXZ 0000000180072fd0 f i libucrtd:output.obj
 0001:00071ff0       ?type_case_X@?$output_processor@_WV?$stream_output_adapter@_W@__crt_stdio_output@@V?$standard_base@_WV?$stream_output_adapter@_W@__crt_stdio_output@@@2@@__crt_stdio_output@@AEAA_NXZ 0000000180072ff0 f i libucrtd:output.obj
 0001:00072010       ?type_case_X@?$output_processor@_WV?$string_output_adapter@_W@__crt_stdio_output@@V?$format_validation_base@_WV?$string_output_adapter@_W@__crt_stdio_output@@@2@@__crt_stdio_output@@AEAA_NXZ 0000000180073010 f i libucrtd:output.obj
 0001:00072030       ?type_case_X@?$output_processor@_WV?$string_output_adapter@_W@__crt_stdio_output@@V?$positional_parameter_base@_WV?$string_output_adapter@_W@__crt_stdio_output@@@2@@__crt_stdio_output@@AEAA_NXZ 0000000180073030 f i libucrtd:output.obj
 0001:00072050       ?type_case_X@?$output_processor@_WV?$string_output_adapter@_W@__crt_stdio_output@@V?$standard_base@_WV?$string_output_adapter@_W@__crt_stdio_output@@@2@@__crt_stdio_output@@AEAA_NXZ 0000000180073050 f i libucrtd:output.obj
 0001:00072070       ?type_case_Z@?$output_processor@DV?$stream_output_adapter@D@__crt_stdio_output@@V?$format_validation_base@DV?$stream_output_adapter@D@__crt_stdio_output@@@2@@__crt_stdio_output@@AEAA_NXZ 0000000180073070 f i libucrtd:output.obj
 0001:00072190       ?type_case_Z@?$output_processor@DV?$stream_output_adapter@D@__crt_stdio_output@@V?$positional_parameter_base@DV?$stream_output_adapter@D@__crt_stdio_output@@@2@@__crt_stdio_output@@AEAA_NXZ 0000000180073190 f i libucrtd:output.obj
 0001:000722b0       ?type_case_Z@?$output_processor@DV?$stream_output_adapter@D@__crt_stdio_output@@V?$standard_base@DV?$stream_output_adapter@D@__crt_stdio_output@@@2@@__crt_stdio_output@@AEAA_NXZ 00000001800732b0 f i libucrtd:output.obj
 0001:000723d0       ?type_case_Z@?$output_processor@DV?$string_output_adapter@D@__crt_stdio_output@@V?$format_validation_base@DV?$string_output_adapter@D@__crt_stdio_output@@@2@@__crt_stdio_output@@AEAA_NXZ 00000001800733d0 f i libucrtd:output.obj
 0001:000724f0       ?type_case_Z@?$output_processor@DV?$string_output_adapter@D@__crt_stdio_output@@V?$positional_parameter_base@DV?$string_output_adapter@D@__crt_stdio_output@@@2@@__crt_stdio_output@@AEAA_NXZ 00000001800734f0 f i libucrtd:output.obj
 0001:00072610       ?type_case_Z@?$output_processor@DV?$string_output_adapter@D@__crt_stdio_output@@V?$standard_base@DV?$string_output_adapter@D@__crt_stdio_output@@@2@@__crt_stdio_output@@AEAA_NXZ 0000000180073610 f i libucrtd:output.obj
 0001:00072730       ?type_case_Z@?$output_processor@_WV?$stream_output_adapter@_W@__crt_stdio_output@@V?$format_validation_base@_WV?$stream_output_adapter@_W@__crt_stdio_output@@@2@@__crt_stdio_output@@AEAA_NXZ 0000000180073730 f i libucrtd:output.obj
 0001:00072850       ?type_case_Z@?$output_processor@_WV?$stream_output_adapter@_W@__crt_stdio_output@@V?$positional_parameter_base@_WV?$stream_output_adapter@_W@__crt_stdio_output@@@2@@__crt_stdio_output@@AEAA_NXZ 0000000180073850 f i libucrtd:output.obj
 0001:00072970       ?type_case_Z@?$output_processor@_WV?$stream_output_adapter@_W@__crt_stdio_output@@V?$standard_base@_WV?$stream_output_adapter@_W@__crt_stdio_output@@@2@@__crt_stdio_output@@AEAA_NXZ 0000000180073970 f i libucrtd:output.obj
 0001:00072a90       ?type_case_Z@?$output_processor@_WV?$string_output_adapter@_W@__crt_stdio_output@@V?$format_validation_base@_WV?$string_output_adapter@_W@__crt_stdio_output@@@2@@__crt_stdio_output@@AEAA_NXZ 0000000180073a90 f i libucrtd:output.obj
 0001:00072bb0       ?type_case_Z@?$output_processor@_WV?$string_output_adapter@_W@__crt_stdio_output@@V?$positional_parameter_base@_WV?$string_output_adapter@_W@__crt_stdio_output@@@2@@__crt_stdio_output@@AEAA_NXZ 0000000180073bb0 f i libucrtd:output.obj
 0001:00072cd0       ?type_case_Z@?$output_processor@_WV?$string_output_adapter@_W@__crt_stdio_output@@V?$standard_base@_WV?$string_output_adapter@_W@__crt_stdio_output@@@2@@__crt_stdio_output@@AEAA_NXZ 0000000180073cd0 f i libucrtd:output.obj
 0001:00072df0       ?type_case_a@?$output_processor@DV?$stream_output_adapter@D@__crt_stdio_output@@V?$format_validation_base@DV?$stream_output_adapter@D@__crt_stdio_output@@@2@@__crt_stdio_output@@AEAA_NXZ 0000000180073df0 f i libucrtd:output.obj
 0001:000731c0       ?type_case_a@?$output_processor@DV?$stream_output_adapter@D@__crt_stdio_output@@V?$positional_parameter_base@DV?$stream_output_adapter@D@__crt_stdio_output@@@2@@__crt_stdio_output@@AEAA_NXZ 00000001800741c0 f i libucrtd:output.obj
 0001:00073590       ?type_case_a@?$output_processor@DV?$stream_output_adapter@D@__crt_stdio_output@@V?$standard_base@DV?$stream_output_adapter@D@__crt_stdio_output@@@2@@__crt_stdio_output@@AEAA_NXZ 0000000180074590 f i libucrtd:output.obj
 0001:00073960       ?type_case_a@?$output_processor@DV?$string_output_adapter@D@__crt_stdio_output@@V?$format_validation_base@DV?$string_output_adapter@D@__crt_stdio_output@@@2@@__crt_stdio_output@@AEAA_NXZ 0000000180074960 f i libucrtd:output.obj
 0001:00073d30       ?type_case_a@?$output_processor@DV?$string_output_adapter@D@__crt_stdio_output@@V?$positional_parameter_base@DV?$string_output_adapter@D@__crt_stdio_output@@@2@@__crt_stdio_output@@AEAA_NXZ 0000000180074d30 f i libucrtd:output.obj
 0001:00074100       ?type_case_a@?$output_processor@DV?$string_output_adapter@D@__crt_stdio_output@@V?$standard_base@DV?$string_output_adapter@D@__crt_stdio_output@@@2@@__crt_stdio_output@@AEAA_NXZ 0000000180075100 f i libucrtd:output.obj
 0001:000744d0       ?type_case_a@?$output_processor@_WV?$stream_output_adapter@_W@__crt_stdio_output@@V?$format_validation_base@_WV?$stream_output_adapter@_W@__crt_stdio_output@@@2@@__crt_stdio_output@@AEAA_NXZ 00000001800754d0 f i libucrtd:output.obj
 0001:000748a0       ?type_case_a@?$output_processor@_WV?$stream_output_adapter@_W@__crt_stdio_output@@V?$positional_parameter_base@_WV?$stream_output_adapter@_W@__crt_stdio_output@@@2@@__crt_stdio_output@@AEAA_NXZ 00000001800758a0 f i libucrtd:output.obj
 0001:00074c70       ?type_case_a@?$output_processor@_WV?$stream_output_adapter@_W@__crt_stdio_output@@V?$standard_base@_WV?$stream_output_adapter@_W@__crt_stdio_output@@@2@@__crt_stdio_output@@AEAA_NXZ 0000000180075c70 f i libucrtd:output.obj
 0001:00075040       ?type_case_a@?$output_processor@_WV?$string_output_adapter@_W@__crt_stdio_output@@V?$format_validation_base@_WV?$string_output_adapter@_W@__crt_stdio_output@@@2@@__crt_stdio_output@@AEAA_NXZ 0000000180076040 f i libucrtd:output.obj
 0001:00075410       ?type_case_a@?$output_processor@_WV?$string_output_adapter@_W@__crt_stdio_output@@V?$positional_parameter_base@_WV?$string_output_adapter@_W@__crt_stdio_output@@@2@@__crt_stdio_output@@AEAA_NXZ 0000000180076410 f i libucrtd:output.obj
 0001:000757e0       ?type_case_a@?$output_processor@_WV?$string_output_adapter@_W@__crt_stdio_output@@V?$standard_base@_WV?$string_output_adapter@_W@__crt_stdio_output@@@2@@__crt_stdio_output@@AEAA_NXZ 00000001800767e0 f i libucrtd:output.obj
 0001:00075bb0       ?type_case_c@?$output_processor@DV?$stream_output_adapter@D@__crt_stdio_output@@V?$format_validation_base@DV?$stream_output_adapter@D@__crt_stdio_output@@@2@@__crt_stdio_output@@AEAA_NXZ 0000000180076bb0 f i libucrtd:output.obj
 0001:00075bd0       ?type_case_c@?$output_processor@DV?$stream_output_adapter@D@__crt_stdio_output@@V?$positional_parameter_base@DV?$stream_output_adapter@D@__crt_stdio_output@@@2@@__crt_stdio_output@@AEAA_NXZ 0000000180076bd0 f i libucrtd:output.obj
 0001:00075bf0       ?type_case_c@?$output_processor@DV?$stream_output_adapter@D@__crt_stdio_output@@V?$standard_base@DV?$stream_output_adapter@D@__crt_stdio_output@@@2@@__crt_stdio_output@@AEAA_NXZ 0000000180076bf0 f i libucrtd:output.obj
 0001:00075c10       ?type_case_c@?$output_processor@DV?$string_output_adapter@D@__crt_stdio_output@@V?$format_validation_base@DV?$string_output_adapter@D@__crt_stdio_output@@@2@@__crt_stdio_output@@AEAA_NXZ 0000000180076c10 f i libucrtd:output.obj
 0001:00075c30       ?type_case_c@?$output_processor@DV?$string_output_adapter@D@__crt_stdio_output@@V?$positional_parameter_base@DV?$string_output_adapter@D@__crt_stdio_output@@@2@@__crt_stdio_output@@AEAA_NXZ 0000000180076c30 f i libucrtd:output.obj
 0001:00075c50       ?type_case_c@?$output_processor@DV?$string_output_adapter@D@__crt_stdio_output@@V?$standard_base@DV?$string_output_adapter@D@__crt_stdio_output@@@2@@__crt_stdio_output@@AEAA_NXZ 0000000180076c50 f i libucrtd:output.obj
 0001:00075c70       ?type_case_c@?$output_processor@_WV?$stream_output_adapter@_W@__crt_stdio_output@@V?$format_validation_base@_WV?$stream_output_adapter@_W@__crt_stdio_output@@@2@@__crt_stdio_output@@AEAA_NXZ 0000000180076c70 f i libucrtd:output.obj
 0001:00075c90       ?type_case_c@?$output_processor@_WV?$stream_output_adapter@_W@__crt_stdio_output@@V?$positional_parameter_base@_WV?$stream_output_adapter@_W@__crt_stdio_output@@@2@@__crt_stdio_output@@AEAA_NXZ 0000000180076c90 f i libucrtd:output.obj
 0001:00075cb0       ?type_case_c@?$output_processor@_WV?$stream_output_adapter@_W@__crt_stdio_output@@V?$standard_base@_WV?$stream_output_adapter@_W@__crt_stdio_output@@@2@@__crt_stdio_output@@AEAA_NXZ 0000000180076cb0 f i libucrtd:output.obj
 0001:00075cd0       ?type_case_c@?$output_processor@_WV?$string_output_adapter@_W@__crt_stdio_output@@V?$format_validation_base@_WV?$string_output_adapter@_W@__crt_stdio_output@@@2@@__crt_stdio_output@@AEAA_NXZ 0000000180076cd0 f i libucrtd:output.obj
 0001:00075cf0       ?type_case_c@?$output_processor@_WV?$string_output_adapter@_W@__crt_stdio_output@@V?$positional_parameter_base@_WV?$string_output_adapter@_W@__crt_stdio_output@@@2@@__crt_stdio_output@@AEAA_NXZ 0000000180076cf0 f i libucrtd:output.obj
 0001:00075d10       ?type_case_c@?$output_processor@_WV?$string_output_adapter@_W@__crt_stdio_output@@V?$standard_base@_WV?$string_output_adapter@_W@__crt_stdio_output@@@2@@__crt_stdio_output@@AEAA_NXZ 0000000180076d10 f i libucrtd:output.obj
 0001:00075d30       ?type_case_c_tchar@?$output_processor@DV?$stream_output_adapter@D@__crt_stdio_output@@V?$format_validation_base@DV?$stream_output_adapter@D@__crt_stdio_output@@@2@@__crt_stdio_output@@AEAA_ND@Z 0000000180076d30 f i libucrtd:output.obj
 0001:00075e90       ?type_case_c_tchar@?$output_processor@DV?$stream_output_adapter@D@__crt_stdio_output@@V?$positional_parameter_base@DV?$stream_output_adapter@D@__crt_stdio_output@@@2@@__crt_stdio_output@@AEAA_ND@Z 0000000180076e90 f i libucrtd:output.obj
 0001:00075ff0       ?type_case_c_tchar@?$output_processor@DV?$stream_output_adapter@D@__crt_stdio_output@@V?$standard_base@DV?$stream_output_adapter@D@__crt_stdio_output@@@2@@__crt_stdio_output@@AEAA_ND@Z 0000000180076ff0 f i libucrtd:output.obj
 0001:00076150       ?type_case_c_tchar@?$output_processor@DV?$string_output_adapter@D@__crt_stdio_output@@V?$format_validation_base@DV?$string_output_adapter@D@__crt_stdio_output@@@2@@__crt_stdio_output@@AEAA_ND@Z 0000000180077150 f i libucrtd:output.obj
 0001:000762b0       ?type_case_c_tchar@?$output_processor@DV?$string_output_adapter@D@__crt_stdio_output@@V?$positional_parameter_base@DV?$string_output_adapter@D@__crt_stdio_output@@@2@@__crt_stdio_output@@AEAA_ND@Z 00000001800772b0 f i libucrtd:output.obj
 0001:00076410       ?type_case_c_tchar@?$output_processor@DV?$string_output_adapter@D@__crt_stdio_output@@V?$standard_base@DV?$string_output_adapter@D@__crt_stdio_output@@@2@@__crt_stdio_output@@AEAA_ND@Z 0000000180077410 f i libucrtd:output.obj
 0001:00076570       ?type_case_c_tchar@?$output_processor@_WV?$stream_output_adapter@_W@__crt_stdio_output@@V?$format_validation_base@_WV?$stream_output_adapter@_W@__crt_stdio_output@@@2@@__crt_stdio_output@@AEAA_N_W@Z 0000000180077570 f i libucrtd:output.obj
 0001:000766a0       ?type_case_c_tchar@?$output_processor@_WV?$stream_output_adapter@_W@__crt_stdio_output@@V?$positional_parameter_base@_WV?$stream_output_adapter@_W@__crt_stdio_output@@@2@@__crt_stdio_output@@AEAA_N_W@Z 00000001800776a0 f i libucrtd:output.obj
 0001:000767d0       ?type_case_c_tchar@?$output_processor@_WV?$stream_output_adapter@_W@__crt_stdio_output@@V?$standard_base@_WV?$stream_output_adapter@_W@__crt_stdio_output@@@2@@__crt_stdio_output@@AEAA_N_W@Z 00000001800777d0 f i libucrtd:output.obj
 0001:00076900       ?type_case_c_tchar@?$output_processor@_WV?$string_output_adapter@_W@__crt_stdio_output@@V?$format_validation_base@_WV?$string_output_adapter@_W@__crt_stdio_output@@@2@@__crt_stdio_output@@AEAA_N_W@Z 0000000180077900 f i libucrtd:output.obj
 0001:00076a30       ?type_case_c_tchar@?$output_processor@_WV?$string_output_adapter@_W@__crt_stdio_output@@V?$positional_parameter_base@_WV?$string_output_adapter@_W@__crt_stdio_output@@@2@@__crt_stdio_output@@AEAA_N_W@Z 0000000180077a30 f i libucrtd:output.obj
 0001:00076b60       ?type_case_c_tchar@?$output_processor@_WV?$string_output_adapter@_W@__crt_stdio_output@@V?$standard_base@_WV?$string_output_adapter@_W@__crt_stdio_output@@@2@@__crt_stdio_output@@AEAA_N_W@Z 0000000180077b60 f i libucrtd:output.obj
 0001:00076c90       ?type_case_d@?$output_processor@DV?$stream_output_adapter@D@__crt_stdio_output@@V?$format_validation_base@DV?$stream_output_adapter@D@__crt_stdio_output@@@2@@__crt_stdio_output@@AEAA_NXZ 0000000180077c90 f i libucrtd:output.obj
 0001:00076cc0       ?type_case_d@?$output_processor@DV?$stream_output_adapter@D@__crt_stdio_output@@V?$positional_parameter_base@DV?$stream_output_adapter@D@__crt_stdio_output@@@2@@__crt_stdio_output@@AEAA_NXZ 0000000180077cc0 f i libucrtd:output.obj
 0001:00076cf0       ?type_case_d@?$output_processor@DV?$stream_output_adapter@D@__crt_stdio_output@@V?$standard_base@DV?$stream_output_adapter@D@__crt_stdio_output@@@2@@__crt_stdio_output@@AEAA_NXZ 0000000180077cf0 f i libucrtd:output.obj
 0001:00076d20       ?type_case_d@?$output_processor@DV?$string_output_adapter@D@__crt_stdio_output@@V?$format_validation_base@DV?$string_output_adapter@D@__crt_stdio_output@@@2@@__crt_stdio_output@@AEAA_NXZ 0000000180077d20 f i libucrtd:output.obj
 0001:00076d50       ?type_case_d@?$output_processor@DV?$string_output_adapter@D@__crt_stdio_output@@V?$positional_parameter_base@DV?$string_output_adapter@D@__crt_stdio_output@@@2@@__crt_stdio_output@@AEAA_NXZ 0000000180077d50 f i libucrtd:output.obj
 0001:00076d80       ?type_case_d@?$output_processor@DV?$string_output_adapter@D@__crt_stdio_output@@V?$standard_base@DV?$string_output_adapter@D@__crt_stdio_output@@@2@@__crt_stdio_output@@AEAA_NXZ 0000000180077d80 f i libucrtd:output.obj
 0001:00076db0       ?type_case_d@?$output_processor@_WV?$stream_output_adapter@_W@__crt_stdio_output@@V?$format_validation_base@_WV?$stream_output_adapter@_W@__crt_stdio_output@@@2@@__crt_stdio_output@@AEAA_NXZ 0000000180077db0 f i libucrtd:output.obj
 0001:00076de0       ?type_case_d@?$output_processor@_WV?$stream_output_adapter@_W@__crt_stdio_output@@V?$positional_parameter_base@_WV?$stream_output_adapter@_W@__crt_stdio_output@@@2@@__crt_stdio_output@@AEAA_NXZ 0000000180077de0 f i libucrtd:output.obj
 0001:00076e10       ?type_case_d@?$output_processor@_WV?$stream_output_adapter@_W@__crt_stdio_output@@V?$standard_base@_WV?$stream_output_adapter@_W@__crt_stdio_output@@@2@@__crt_stdio_output@@AEAA_NXZ 0000000180077e10 f i libucrtd:output.obj
 0001:00076e40       ?type_case_d@?$output_processor@_WV?$string_output_adapter@_W@__crt_stdio_output@@V?$format_validation_base@_WV?$string_output_adapter@_W@__crt_stdio_output@@@2@@__crt_stdio_output@@AEAA_NXZ 0000000180077e40 f i libucrtd:output.obj
 0001:00076e70       ?type_case_d@?$output_processor@_WV?$string_output_adapter@_W@__crt_stdio_output@@V?$positional_parameter_base@_WV?$string_output_adapter@_W@__crt_stdio_output@@@2@@__crt_stdio_output@@AEAA_NXZ 0000000180077e70 f i libucrtd:output.obj
 0001:00076ea0       ?type_case_d@?$output_processor@_WV?$string_output_adapter@_W@__crt_stdio_output@@V?$standard_base@_WV?$string_output_adapter@_W@__crt_stdio_output@@@2@@__crt_stdio_output@@AEAA_NXZ 0000000180077ea0 f i libucrtd:output.obj
 0001:00076ed0       ?type_case_integer@?$output_processor@DV?$stream_output_adapter@D@__crt_stdio_output@@V?$format_validation_base@DV?$stream_output_adapter@D@__crt_stdio_output@@@2@@__crt_stdio_output@@AEAA_NI_N@Z 0000000180077ed0 f i libucrtd:output.obj
 0001:00077320       ?type_case_integer@?$output_processor@DV?$stream_output_adapter@D@__crt_stdio_output@@V?$positional_parameter_base@DV?$stream_output_adapter@D@__crt_stdio_output@@@2@@__crt_stdio_output@@AEAA_NI_N@Z 0000000180078320 f i libucrtd:output.obj
 0001:00077770       ?type_case_integer@?$output_processor@DV?$stream_output_adapter@D@__crt_stdio_output@@V?$standard_base@DV?$stream_output_adapter@D@__crt_stdio_output@@@2@@__crt_stdio_output@@AEAA_NI_N@Z 0000000180078770 f i libucrtd:output.obj
 0001:00077bc0       ?type_case_integer@?$output_processor@DV?$string_output_adapter@D@__crt_stdio_output@@V?$format_validation_base@DV?$string_output_adapter@D@__crt_stdio_output@@@2@@__crt_stdio_output@@AEAA_NI_N@Z 0000000180078bc0 f i libucrtd:output.obj
 0001:00078010       ?type_case_integer@?$output_processor@DV?$string_output_adapter@D@__crt_stdio_output@@V?$positional_parameter_base@DV?$string_output_adapter@D@__crt_stdio_output@@@2@@__crt_stdio_output@@AEAA_NI_N@Z 0000000180079010 f i libucrtd:output.obj
 0001:00078460       ?type_case_integer@?$output_processor@DV?$string_output_adapter@D@__crt_stdio_output@@V?$standard_base@DV?$string_output_adapter@D@__crt_stdio_output@@@2@@__crt_stdio_output@@AEAA_NI_N@Z 0000000180079460 f i libucrtd:output.obj
 0001:000788b0       ?type_case_integer@?$output_processor@_WV?$stream_output_adapter@_W@__crt_stdio_output@@V?$format_validation_base@_WV?$stream_output_adapter@_W@__crt_stdio_output@@@2@@__crt_stdio_output@@AEAA_NI_N@Z 00000001800798b0 f i libucrtd:output.obj
 0001:00078d00       ?type_case_integer@?$output_processor@_WV?$stream_output_adapter@_W@__crt_stdio_output@@V?$positional_parameter_base@_WV?$stream_output_adapter@_W@__crt_stdio_output@@@2@@__crt_stdio_output@@AEAA_NI_N@Z 0000000180079d00 f i libucrtd:output.obj
 0001:00079150       ?type_case_integer@?$output_processor@_WV?$stream_output_adapter@_W@__crt_stdio_output@@V?$standard_base@_WV?$stream_output_adapter@_W@__crt_stdio_output@@@2@@__crt_stdio_output@@AEAA_NI_N@Z 000000018007a150 f i libucrtd:output.obj
 0001:000795a0       ?type_case_integer@?$output_processor@_WV?$string_output_adapter@_W@__crt_stdio_output@@V?$format_validation_base@_WV?$string_output_adapter@_W@__crt_stdio_output@@@2@@__crt_stdio_output@@AEAA_NI_N@Z 000000018007a5a0 f i libucrtd:output.obj
 0001:000799f0       ?type_case_integer@?$output_processor@_WV?$string_output_adapter@_W@__crt_stdio_output@@V?$positional_parameter_base@_WV?$string_output_adapter@_W@__crt_stdio_output@@@2@@__crt_stdio_output@@AEAA_NI_N@Z 000000018007a9f0 f i libucrtd:output.obj
 0001:00079e40       ?type_case_integer@?$output_processor@_WV?$string_output_adapter@_W@__crt_stdio_output@@V?$standard_base@_WV?$string_output_adapter@_W@__crt_stdio_output@@@2@@__crt_stdio_output@@AEAA_NI_N@Z 000000018007ae40 f i libucrtd:output.obj
 0001:0007a290       ?type_case_n@?$output_processor@DV?$stream_output_adapter@D@__crt_stdio_output@@V?$format_validation_base@DV?$stream_output_adapter@D@__crt_stdio_output@@@2@@__crt_stdio_output@@AEAA_NXZ 000000018007b290 f i libucrtd:output.obj
 0001:0007a4d0       ?type_case_n@?$output_processor@DV?$stream_output_adapter@D@__crt_stdio_output@@V?$positional_parameter_base@DV?$stream_output_adapter@D@__crt_stdio_output@@@2@@__crt_stdio_output@@AEAA_NXZ 000000018007b4d0 f i libucrtd:output.obj
 0001:0007a710       ?type_case_n@?$output_processor@DV?$stream_output_adapter@D@__crt_stdio_output@@V?$standard_base@DV?$stream_output_adapter@D@__crt_stdio_output@@@2@@__crt_stdio_output@@AEAA_NXZ 000000018007b710 f i libucrtd:output.obj
 0001:0007a950       ?type_case_n@?$output_processor@DV?$string_output_adapter@D@__crt_stdio_output@@V?$format_validation_base@DV?$string_output_adapter@D@__crt_stdio_output@@@2@@__crt_stdio_output@@AEAA_NXZ 000000018007b950 f i libucrtd:output.obj
 0001:0007ab90       ?type_case_n@?$output_processor@DV?$string_output_adapter@D@__crt_stdio_output@@V?$positional_parameter_base@DV?$string_output_adapter@D@__crt_stdio_output@@@2@@__crt_stdio_output@@AEAA_NXZ 000000018007bb90 f i libucrtd:output.obj
 0001:0007add0       ?type_case_n@?$output_processor@DV?$string_output_adapter@D@__crt_stdio_output@@V?$standard_base@DV?$string_output_adapter@D@__crt_stdio_output@@@2@@__crt_stdio_output@@AEAA_NXZ 000000018007bdd0 f i libucrtd:output.obj
 0001:0007b010       ?type_case_n@?$output_processor@_WV?$stream_output_adapter@_W@__crt_stdio_output@@V?$format_validation_base@_WV?$stream_output_adapter@_W@__crt_stdio_output@@@2@@__crt_stdio_output@@AEAA_NXZ 000000018007c010 f i libucrtd:output.obj
 0001:0007b250       ?type_case_n@?$output_processor@_WV?$stream_output_adapter@_W@__crt_stdio_output@@V?$positional_parameter_base@_WV?$stream_output_adapter@_W@__crt_stdio_output@@@2@@__crt_stdio_output@@AEAA_NXZ 000000018007c250 f i libucrtd:output.obj
 0001:0007b490       ?type_case_n@?$output_processor@_WV?$stream_output_adapter@_W@__crt_stdio_output@@V?$standard_base@_WV?$stream_output_adapter@_W@__crt_stdio_output@@@2@@__crt_stdio_output@@AEAA_NXZ 000000018007c490 f i libucrtd:output.obj
 0001:0007b6d0       ?type_case_n@?$output_processor@_WV?$string_output_adapter@_W@__crt_stdio_output@@V?$format_validation_base@_WV?$string_output_adapter@_W@__crt_stdio_output@@@2@@__crt_stdio_output@@AEAA_NXZ 000000018007c6d0 f i libucrtd:output.obj
 0001:0007b910       ?type_case_n@?$output_processor@_WV?$string_output_adapter@_W@__crt_stdio_output@@V?$positional_parameter_base@_WV?$string_output_adapter@_W@__crt_stdio_output@@@2@@__crt_stdio_output@@AEAA_NXZ 000000018007c910 f i libucrtd:output.obj
 0001:0007bb50       ?type_case_n@?$output_processor@_WV?$string_output_adapter@_W@__crt_stdio_output@@V?$standard_base@_WV?$string_output_adapter@_W@__crt_stdio_output@@@2@@__crt_stdio_output@@AEAA_NXZ 000000018007cb50 f i libucrtd:output.obj
 0001:0007bd90       ?type_case_o@?$output_processor@DV?$stream_output_adapter@D@__crt_stdio_output@@V?$format_validation_base@DV?$stream_output_adapter@D@__crt_stdio_output@@@2@@__crt_stdio_output@@AEAA_NXZ 000000018007cd90 f i libucrtd:output.obj
 0001:0007bde0       ?type_case_o@?$output_processor@DV?$stream_output_adapter@D@__crt_stdio_output@@V?$positional_parameter_base@DV?$stream_output_adapter@D@__crt_stdio_output@@@2@@__crt_stdio_output@@AEAA_NXZ 000000018007cde0 f i libucrtd:output.obj
 0001:0007be30       ?type_case_o@?$output_processor@DV?$stream_output_adapter@D@__crt_stdio_output@@V?$standard_base@DV?$stream_output_adapter@D@__crt_stdio_output@@@2@@__crt_stdio_output@@AEAA_NXZ 000000018007ce30 f i libucrtd:output.obj
 0001:0007be80       ?type_case_o@?$output_processor@DV?$string_output_adapter@D@__crt_stdio_output@@V?$format_validation_base@DV?$string_output_adapter@D@__crt_stdio_output@@@2@@__crt_stdio_output@@AEAA_NXZ 000000018007ce80 f i libucrtd:output.obj
 0001:0007bed0       ?type_case_o@?$output_processor@DV?$string_output_adapter@D@__crt_stdio_output@@V?$positional_parameter_base@DV?$string_output_adapter@D@__crt_stdio_output@@@2@@__crt_stdio_output@@AEAA_NXZ 000000018007ced0 f i libucrtd:output.obj
 0001:0007bf20       ?type_case_o@?$output_processor@DV?$string_output_adapter@D@__crt_stdio_output@@V?$standard_base@DV?$string_output_adapter@D@__crt_stdio_output@@@2@@__crt_stdio_output@@AEAA_NXZ 000000018007cf20 f i libucrtd:output.obj
 0001:0007bf70       ?type_case_o@?$output_processor@_WV?$stream_output_adapter@_W@__crt_stdio_output@@V?$format_validation_base@_WV?$stream_output_adapter@_W@__crt_stdio_output@@@2@@__crt_stdio_output@@AEAA_NXZ 000000018007cf70 f i libucrtd:output.obj
 0001:0007bfc0       ?type_case_o@?$output_processor@_WV?$stream_output_adapter@_W@__crt_stdio_output@@V?$positional_parameter_base@_WV?$stream_output_adapter@_W@__crt_stdio_output@@@2@@__crt_stdio_output@@AEAA_NXZ 000000018007cfc0 f i libucrtd:output.obj
 0001:0007c010       ?type_case_o@?$output_processor@_WV?$stream_output_adapter@_W@__crt_stdio_output@@V?$standard_base@_WV?$stream_output_adapter@_W@__crt_stdio_output@@@2@@__crt_stdio_output@@AEAA_NXZ 000000018007d010 f i libucrtd:output.obj
 0001:0007c060       ?type_case_o@?$output_processor@_WV?$string_output_adapter@_W@__crt_stdio_output@@V?$format_validation_base@_WV?$string_output_adapter@_W@__crt_stdio_output@@@2@@__crt_stdio_output@@AEAA_NXZ 000000018007d060 f i libucrtd:output.obj
 0001:0007c0b0       ?type_case_o@?$output_processor@_WV?$string_output_adapter@_W@__crt_stdio_output@@V?$positional_parameter_base@_WV?$string_output_adapter@_W@__crt_stdio_output@@@2@@__crt_stdio_output@@AEAA_NXZ 000000018007d0b0 f i libucrtd:output.obj
 0001:0007c100       ?type_case_o@?$output_processor@_WV?$string_output_adapter@_W@__crt_stdio_output@@V?$standard_base@_WV?$string_output_adapter@_W@__crt_stdio_output@@@2@@__crt_stdio_output@@AEAA_NXZ 000000018007d100 f i libucrtd:output.obj
 0001:0007c150       ?type_case_p@?$output_processor@DV?$stream_output_adapter@D@__crt_stdio_output@@V?$format_validation_base@DV?$stream_output_adapter@D@__crt_stdio_output@@@2@@__crt_stdio_output@@AEAA_NXZ 000000018007d150 f i libucrtd:output.obj
 0001:0007c190       ?type_case_p@?$output_processor@DV?$stream_output_adapter@D@__crt_stdio_output@@V?$positional_parameter_base@DV?$stream_output_adapter@D@__crt_stdio_output@@@2@@__crt_stdio_output@@AEAA_NXZ 000000018007d190 f i libucrtd:output.obj
 0001:0007c1d0       ?type_case_p@?$output_processor@DV?$stream_output_adapter@D@__crt_stdio_output@@V?$standard_base@DV?$stream_output_adapter@D@__crt_stdio_output@@@2@@__crt_stdio_output@@AEAA_NXZ 000000018007d1d0 f i libucrtd:output.obj
 0001:0007c210       ?type_case_p@?$output_processor@DV?$string_output_adapter@D@__crt_stdio_output@@V?$format_validation_base@DV?$string_output_adapter@D@__crt_stdio_output@@@2@@__crt_stdio_output@@AEAA_NXZ 000000018007d210 f i libucrtd:output.obj
 0001:0007c250       ?type_case_p@?$output_processor@DV?$string_output_adapter@D@__crt_stdio_output@@V?$positional_parameter_base@DV?$string_output_adapter@D@__crt_stdio_output@@@2@@__crt_stdio_output@@AEAA_NXZ 000000018007d250 f i libucrtd:output.obj
 0001:0007c290       ?type_case_p@?$output_processor@DV?$string_output_adapter@D@__crt_stdio_output@@V?$standard_base@DV?$string_output_adapter@D@__crt_stdio_output@@@2@@__crt_stdio_output@@AEAA_NXZ 000000018007d290 f i libucrtd:output.obj
 0001:0007c2d0       ?type_case_p@?$output_processor@_WV?$stream_output_adapter@_W@__crt_stdio_output@@V?$format_validation_base@_WV?$stream_output_adapter@_W@__crt_stdio_output@@@2@@__crt_stdio_output@@AEAA_NXZ 000000018007d2d0 f i libucrtd:output.obj
 0001:0007c310       ?type_case_p@?$output_processor@_WV?$stream_output_adapter@_W@__crt_stdio_output@@V?$positional_parameter_base@_WV?$stream_output_adapter@_W@__crt_stdio_output@@@2@@__crt_stdio_output@@AEAA_NXZ 000000018007d310 f i libucrtd:output.obj
 0001:0007c350       ?type_case_p@?$output_processor@_WV?$stream_output_adapter@_W@__crt_stdio_output@@V?$standard_base@_WV?$stream_output_adapter@_W@__crt_stdio_output@@@2@@__crt_stdio_output@@AEAA_NXZ 000000018007d350 f i libucrtd:output.obj
 0001:0007c390       ?type_case_p@?$output_processor@_WV?$string_output_adapter@_W@__crt_stdio_output@@V?$format_validation_base@_WV?$string_output_adapter@_W@__crt_stdio_output@@@2@@__crt_stdio_output@@AEAA_NXZ 000000018007d390 f i libucrtd:output.obj
 0001:0007c3d0       ?type_case_p@?$output_processor@_WV?$string_output_adapter@_W@__crt_stdio_output@@V?$positional_parameter_base@_WV?$string_output_adapter@_W@__crt_stdio_output@@@2@@__crt_stdio_output@@AEAA_NXZ 000000018007d3d0 f i libucrtd:output.obj
 0001:0007c410       ?type_case_p@?$output_processor@_WV?$string_output_adapter@_W@__crt_stdio_output@@V?$standard_base@_WV?$string_output_adapter@_W@__crt_stdio_output@@@2@@__crt_stdio_output@@AEAA_NXZ 000000018007d410 f i libucrtd:output.obj
 0001:0007c450       ?type_case_s@?$output_processor@DV?$stream_output_adapter@D@__crt_stdio_output@@V?$format_validation_base@DV?$stream_output_adapter@D@__crt_stdio_output@@@2@@__crt_stdio_output@@AEAA_NXZ 000000018007d450 f i libucrtd:output.obj
 0001:0007c570       ?type_case_s@?$output_processor@DV?$stream_output_adapter@D@__crt_stdio_output@@V?$positional_parameter_base@DV?$stream_output_adapter@D@__crt_stdio_output@@@2@@__crt_stdio_output@@AEAA_NXZ 000000018007d570 f i libucrtd:output.obj
 0001:0007c690       ?type_case_s@?$output_processor@DV?$stream_output_adapter@D@__crt_stdio_output@@V?$standard_base@DV?$stream_output_adapter@D@__crt_stdio_output@@@2@@__crt_stdio_output@@AEAA_NXZ 000000018007d690 f i libucrtd:output.obj
 0001:0007c7b0       ?type_case_s@?$output_processor@DV?$string_output_adapter@D@__crt_stdio_output@@V?$format_validation_base@DV?$string_output_adapter@D@__crt_stdio_output@@@2@@__crt_stdio_output@@AEAA_NXZ 000000018007d7b0 f i libucrtd:output.obj
 0001:0007c8d0       ?type_case_s@?$output_processor@DV?$string_output_adapter@D@__crt_stdio_output@@V?$positional_parameter_base@DV?$string_output_adapter@D@__crt_stdio_output@@@2@@__crt_stdio_output@@AEAA_NXZ 000000018007d8d0 f i libucrtd:output.obj
 0001:0007c9f0       ?type_case_s@?$output_processor@DV?$string_output_adapter@D@__crt_stdio_output@@V?$standard_base@DV?$string_output_adapter@D@__crt_stdio_output@@@2@@__crt_stdio_output@@AEAA_NXZ 000000018007d9f0 f i libucrtd:output.obj
 0001:0007cb10       ?type_case_s@?$output_processor@_WV?$stream_output_adapter@_W@__crt_stdio_output@@V?$format_validation_base@_WV?$stream_output_adapter@_W@__crt_stdio_output@@@2@@__crt_stdio_output@@AEAA_NXZ 000000018007db10 f i libucrtd:output.obj
 0001:0007cc30       ?type_case_s@?$output_processor@_WV?$stream_output_adapter@_W@__crt_stdio_output@@V?$positional_parameter_base@_WV?$stream_output_adapter@_W@__crt_stdio_output@@@2@@__crt_stdio_output@@AEAA_NXZ 000000018007dc30 f i libucrtd:output.obj
 0001:0007cd50       ?type_case_s@?$output_processor@_WV?$stream_output_adapter@_W@__crt_stdio_output@@V?$standard_base@_WV?$stream_output_adapter@_W@__crt_stdio_output@@@2@@__crt_stdio_output@@AEAA_NXZ 000000018007dd50 f i libucrtd:output.obj
 0001:0007ce70       ?type_case_s@?$output_processor@_WV?$string_output_adapter@_W@__crt_stdio_output@@V?$format_validation_base@_WV?$string_output_adapter@_W@__crt_stdio_output@@@2@@__crt_stdio_output@@AEAA_NXZ 000000018007de70 f i libucrtd:output.obj
 0001:0007cf90       ?type_case_s@?$output_processor@_WV?$string_output_adapter@_W@__crt_stdio_output@@V?$positional_parameter_base@_WV?$string_output_adapter@_W@__crt_stdio_output@@@2@@__crt_stdio_output@@AEAA_NXZ 000000018007df90 f i libucrtd:output.obj
 0001:0007d0b0       ?type_case_s@?$output_processor@_WV?$string_output_adapter@_W@__crt_stdio_output@@V?$standard_base@_WV?$string_output_adapter@_W@__crt_stdio_output@@@2@@__crt_stdio_output@@AEAA_NXZ 000000018007e0b0 f i libucrtd:output.obj
 0001:0007d1d0       ?type_case_s_compute_narrow_string_length@?$output_processor@DV?$stream_output_adapter@D@__crt_stdio_output@@V?$format_validation_base@DV?$stream_output_adapter@D@__crt_stdio_output@@@2@@__crt_stdio_output@@AEBAHHD@Z 000000018007e1d0 f i libucrtd:output.obj
 0001:0007d200       ?type_case_s_compute_narrow_string_length@?$output_processor@DV?$stream_output_adapter@D@__crt_stdio_output@@V?$positional_parameter_base@DV?$stream_output_adapter@D@__crt_stdio_output@@@2@@__crt_stdio_output@@AEBAHHD@Z 000000018007e200 f i libucrtd:output.obj
 0001:0007d230       ?type_case_s_compute_narrow_string_length@?$output_processor@DV?$stream_output_adapter@D@__crt_stdio_output@@V?$standard_base@DV?$stream_output_adapter@D@__crt_stdio_output@@@2@@__crt_stdio_output@@AEBAHHD@Z 000000018007e230 f i libucrtd:output.obj
 0001:0007d260       ?type_case_s_compute_narrow_string_length@?$output_processor@DV?$string_output_adapter@D@__crt_stdio_output@@V?$format_validation_base@DV?$string_output_adapter@D@__crt_stdio_output@@@2@@__crt_stdio_output@@AEBAHHD@Z 000000018007e260 f i libucrtd:output.obj
 0001:0007d290       ?type_case_s_compute_narrow_string_length@?$output_processor@DV?$string_output_adapter@D@__crt_stdio_output@@V?$positional_parameter_base@DV?$string_output_adapter@D@__crt_stdio_output@@@2@@__crt_stdio_output@@AEBAHHD@Z 000000018007e290 f i libucrtd:output.obj
 0001:0007d2c0       ?type_case_s_compute_narrow_string_length@?$output_processor@DV?$string_output_adapter@D@__crt_stdio_output@@V?$standard_base@DV?$string_output_adapter@D@__crt_stdio_output@@@2@@__crt_stdio_output@@AEBAHHD@Z 000000018007e2c0 f i libucrtd:output.obj
 0001:0007d2f0       ?type_case_s_compute_narrow_string_length@?$output_processor@_WV?$stream_output_adapter@_W@__crt_stdio_output@@V?$format_validation_base@_WV?$stream_output_adapter@_W@__crt_stdio_output@@@2@@__crt_stdio_output@@AEBAHH_W@Z 000000018007e2f0 f i libucrtd:output.obj
 0001:0007d380       ?type_case_s_compute_narrow_string_length@?$output_processor@_WV?$stream_output_adapter@_W@__crt_stdio_output@@V?$positional_parameter_base@_WV?$stream_output_adapter@_W@__crt_stdio_output@@@2@@__crt_stdio_output@@AEBAHH_W@Z 000000018007e380 f i libucrtd:output.obj
 0001:0007d410       ?type_case_s_compute_narrow_string_length@?$output_processor@_WV?$stream_output_adapter@_W@__crt_stdio_output@@V?$standard_base@_WV?$stream_output_adapter@_W@__crt_stdio_output@@@2@@__crt_stdio_output@@AEBAHH_W@Z 000000018007e410 f i libucrtd:output.obj
 0001:0007d4a0       ?type_case_s_compute_narrow_string_length@?$output_processor@_WV?$string_output_adapter@_W@__crt_stdio_output@@V?$format_validation_base@_WV?$string_output_adapter@_W@__crt_stdio_output@@@2@@__crt_stdio_output@@AEBAHH_W@Z 000000018007e4a0 f i libucrtd:output.obj
 0001:0007d530       ?type_case_s_compute_narrow_string_length@?$output_processor@_WV?$string_output_adapter@_W@__crt_stdio_output@@V?$positional_parameter_base@_WV?$string_output_adapter@_W@__crt_stdio_output@@@2@@__crt_stdio_output@@AEBAHH_W@Z 000000018007e530 f i libucrtd:output.obj
 0001:0007d5c0       ?type_case_s_compute_narrow_string_length@?$output_processor@_WV?$string_output_adapter@_W@__crt_stdio_output@@V?$standard_base@_WV?$string_output_adapter@_W@__crt_stdio_output@@@2@@__crt_stdio_output@@AEBAHH_W@Z 000000018007e5c0 f i libucrtd:output.obj
 0001:0007d650       ?type_case_u@?$output_processor@DV?$stream_output_adapter@D@__crt_stdio_output@@V?$format_validation_base@DV?$stream_output_adapter@D@__crt_stdio_output@@@2@@__crt_stdio_output@@AEAA_NXZ 000000018007e650 f i libucrtd:output.obj
 0001:0007d670       ?type_case_u@?$output_processor@DV?$stream_output_adapter@D@__crt_stdio_output@@V?$positional_parameter_base@DV?$stream_output_adapter@D@__crt_stdio_output@@@2@@__crt_stdio_output@@AEAA_NXZ 000000018007e670 f i libucrtd:output.obj
 0001:0007d690       ?type_case_u@?$output_processor@DV?$stream_output_adapter@D@__crt_stdio_output@@V?$standard_base@DV?$stream_output_adapter@D@__crt_stdio_output@@@2@@__crt_stdio_output@@AEAA_NXZ 000000018007e690 f i libucrtd:output.obj
 0001:0007d6b0       ?type_case_u@?$output_processor@DV?$string_output_adapter@D@__crt_stdio_output@@V?$format_validation_base@DV?$string_output_adapter@D@__crt_stdio_output@@@2@@__crt_stdio_output@@AEAA_NXZ 000000018007e6b0 f i libucrtd:output.obj
 0001:0007d6d0       ?type_case_u@?$output_processor@DV?$string_output_adapter@D@__crt_stdio_output@@V?$positional_parameter_base@DV?$string_output_adapter@D@__crt_stdio_output@@@2@@__crt_stdio_output@@AEAA_NXZ 000000018007e6d0 f i libucrtd:output.obj
 0001:0007d6f0       ?type_case_u@?$output_processor@DV?$string_output_adapter@D@__crt_stdio_output@@V?$standard_base@DV?$string_output_adapter@D@__crt_stdio_output@@@2@@__crt_stdio_output@@AEAA_NXZ 000000018007e6f0 f i libucrtd:output.obj
 0001:0007d710       ?type_case_u@?$output_processor@_WV?$stream_output_adapter@_W@__crt_stdio_output@@V?$format_validation_base@_WV?$stream_output_adapter@_W@__crt_stdio_output@@@2@@__crt_stdio_output@@AEAA_NXZ 000000018007e710 f i libucrtd:output.obj
 0001:0007d730       ?type_case_u@?$output_processor@_WV?$stream_output_adapter@_W@__crt_stdio_output@@V?$positional_parameter_base@_WV?$stream_output_adapter@_W@__crt_stdio_output@@@2@@__crt_stdio_output@@AEAA_NXZ 000000018007e730 f i libucrtd:output.obj
 0001:0007d750       ?type_case_u@?$output_processor@_WV?$stream_output_adapter@_W@__crt_stdio_output@@V?$standard_base@_WV?$stream_output_adapter@_W@__crt_stdio_output@@@2@@__crt_stdio_output@@AEAA_NXZ 000000018007e750 f i libucrtd:output.obj
 0001:0007d770       ?type_case_u@?$output_processor@_WV?$string_output_adapter@_W@__crt_stdio_output@@V?$format_validation_base@_WV?$string_output_adapter@_W@__crt_stdio_output@@@2@@__crt_stdio_output@@AEAA_NXZ 000000018007e770 f i libucrtd:output.obj
 0001:0007d790       ?type_case_u@?$output_processor@_WV?$string_output_adapter@_W@__crt_stdio_output@@V?$positional_parameter_base@_WV?$string_output_adapter@_W@__crt_stdio_output@@@2@@__crt_stdio_output@@AEAA_NXZ 000000018007e790 f i libucrtd:output.obj
 0001:0007d7b0       ?type_case_u@?$output_processor@_WV?$string_output_adapter@_W@__crt_stdio_output@@V?$standard_base@_WV?$string_output_adapter@_W@__crt_stdio_output@@@2@@__crt_stdio_output@@AEAA_NXZ 000000018007e7b0 f i libucrtd:output.obj
 0001:0007d7d0       ?type_case_x@?$output_processor@DV?$stream_output_adapter@D@__crt_stdio_output@@V?$format_validation_base@DV?$stream_output_adapter@D@__crt_stdio_output@@@2@@__crt_stdio_output@@AEAA_NXZ 000000018007e7d0 f i libucrtd:output.obj
 0001:0007d7f0       ?type_case_x@?$output_processor@DV?$stream_output_adapter@D@__crt_stdio_output@@V?$positional_parameter_base@DV?$stream_output_adapter@D@__crt_stdio_output@@@2@@__crt_stdio_output@@AEAA_NXZ 000000018007e7f0 f i libucrtd:output.obj
 0001:0007d810       ?type_case_x@?$output_processor@DV?$stream_output_adapter@D@__crt_stdio_output@@V?$standard_base@DV?$stream_output_adapter@D@__crt_stdio_output@@@2@@__crt_stdio_output@@AEAA_NXZ 000000018007e810 f i libucrtd:output.obj
 0001:0007d830       ?type_case_x@?$output_processor@DV?$string_output_adapter@D@__crt_stdio_output@@V?$format_validation_base@DV?$string_output_adapter@D@__crt_stdio_output@@@2@@__crt_stdio_output@@AEAA_NXZ 000000018007e830 f i libucrtd:output.obj
 0001:0007d850       ?type_case_x@?$output_processor@DV?$string_output_adapter@D@__crt_stdio_output@@V?$positional_parameter_base@DV?$string_output_adapter@D@__crt_stdio_output@@@2@@__crt_stdio_output@@AEAA_NXZ 000000018007e850 f i libucrtd:output.obj
 0001:0007d870       ?type_case_x@?$output_processor@DV?$string_output_adapter@D@__crt_stdio_output@@V?$standard_base@DV?$string_output_adapter@D@__crt_stdio_output@@@2@@__crt_stdio_output@@AEAA_NXZ 000000018007e870 f i libucrtd:output.obj
 0001:0007d890       ?type_case_x@?$output_processor@_WV?$stream_output_adapter@_W@__crt_stdio_output@@V?$format_validation_base@_WV?$stream_output_adapter@_W@__crt_stdio_output@@@2@@__crt_stdio_output@@AEAA_NXZ 000000018007e890 f i libucrtd:output.obj
 0001:0007d8b0       ?type_case_x@?$output_processor@_WV?$stream_output_adapter@_W@__crt_stdio_output@@V?$positional_parameter_base@_WV?$stream_output_adapter@_W@__crt_stdio_output@@@2@@__crt_stdio_output@@AEAA_NXZ 000000018007e8b0 f i libucrtd:output.obj
 0001:0007d8d0       ?type_case_x@?$output_processor@_WV?$stream_output_adapter@_W@__crt_stdio_output@@V?$standard_base@_WV?$stream_output_adapter@_W@__crt_stdio_output@@@2@@__crt_stdio_output@@AEAA_NXZ 000000018007e8d0 f i libucrtd:output.obj
 0001:0007d8f0       ?type_case_x@?$output_processor@_WV?$string_output_adapter@_W@__crt_stdio_output@@V?$format_validation_base@_WV?$string_output_adapter@_W@__crt_stdio_output@@@2@@__crt_stdio_output@@AEAA_NXZ 000000018007e8f0 f i libucrtd:output.obj
 0001:0007d910       ?type_case_x@?$output_processor@_WV?$string_output_adapter@_W@__crt_stdio_output@@V?$positional_parameter_base@_WV?$string_output_adapter@_W@__crt_stdio_output@@@2@@__crt_stdio_output@@AEAA_NXZ 000000018007e910 f i libucrtd:output.obj
 0001:0007d930       ?type_case_x@?$output_processor@_WV?$string_output_adapter@_W@__crt_stdio_output@@V?$standard_base@_WV?$string_output_adapter@_W@__crt_stdio_output@@@2@@__crt_stdio_output@@AEAA_NXZ 000000018007e930 f i libucrtd:output.obj
 0001:0007d950       ?unset_flag@?$output_processor@DV?$stream_output_adapter@D@__crt_stdio_output@@V?$format_validation_base@DV?$stream_output_adapter@D@__crt_stdio_output@@@2@@__crt_stdio_output@@AEAAXI@Z 000000018007e950 f i libucrtd:output.obj
 0001:0007d980       ?unset_flag@?$output_processor@DV?$stream_output_adapter@D@__crt_stdio_output@@V?$positional_parameter_base@DV?$stream_output_adapter@D@__crt_stdio_output@@@2@@__crt_stdio_output@@AEAAXI@Z 000000018007e980 f i libucrtd:output.obj
 0001:0007d9b0       ?unset_flag@?$output_processor@DV?$stream_output_adapter@D@__crt_stdio_output@@V?$standard_base@DV?$stream_output_adapter@D@__crt_stdio_output@@@2@@__crt_stdio_output@@AEAAXI@Z 000000018007e9b0 f i libucrtd:output.obj
 0001:0007d9e0       ?unset_flag@?$output_processor@DV?$string_output_adapter@D@__crt_stdio_output@@V?$format_validation_base@DV?$string_output_adapter@D@__crt_stdio_output@@@2@@__crt_stdio_output@@AEAAXI@Z 000000018007e9e0 f i libucrtd:output.obj
 0001:0007da10       ?unset_flag@?$output_processor@DV?$string_output_adapter@D@__crt_stdio_output@@V?$positional_parameter_base@DV?$string_output_adapter@D@__crt_stdio_output@@@2@@__crt_stdio_output@@AEAAXI@Z 000000018007ea10 f i libucrtd:output.obj
 0001:0007da40       ?unset_flag@?$output_processor@DV?$string_output_adapter@D@__crt_stdio_output@@V?$standard_base@DV?$string_output_adapter@D@__crt_stdio_output@@@2@@__crt_stdio_output@@AEAAXI@Z 000000018007ea40 f i libucrtd:output.obj
 0001:0007da70       ?unset_flag@?$output_processor@_WV?$stream_output_adapter@_W@__crt_stdio_output@@V?$format_validation_base@_WV?$stream_output_adapter@_W@__crt_stdio_output@@@2@@__crt_stdio_output@@AEAAXI@Z 000000018007ea70 f i libucrtd:output.obj
 0001:0007daa0       ?unset_flag@?$output_processor@_WV?$stream_output_adapter@_W@__crt_stdio_output@@V?$positional_parameter_base@_WV?$stream_output_adapter@_W@__crt_stdio_output@@@2@@__crt_stdio_output@@AEAAXI@Z 000000018007eaa0 f i libucrtd:output.obj
 0001:0007dad0       ?unset_flag@?$output_processor@_WV?$stream_output_adapter@_W@__crt_stdio_output@@V?$standard_base@_WV?$stream_output_adapter@_W@__crt_stdio_output@@@2@@__crt_stdio_output@@AEAAXI@Z 000000018007ead0 f i libucrtd:output.obj
 0001:0007db00       ?unset_flag@?$output_processor@_WV?$string_output_adapter@_W@__crt_stdio_output@@V?$format_validation_base@_WV?$string_output_adapter@_W@__crt_stdio_output@@@2@@__crt_stdio_output@@AEAAXI@Z 000000018007eb00 f i libucrtd:output.obj
 0001:0007db30       ?unset_flag@?$output_processor@_WV?$string_output_adapter@_W@__crt_stdio_output@@V?$positional_parameter_base@_WV?$string_output_adapter@_W@__crt_stdio_output@@@2@@__crt_stdio_output@@AEAAXI@Z 000000018007eb30 f i libucrtd:output.obj
 0001:0007db60       ?unset_flag@?$output_processor@_WV?$string_output_adapter@_W@__crt_stdio_output@@V?$standard_base@_WV?$string_output_adapter@_W@__crt_stdio_output@@@2@@__crt_stdio_output@@AEAAXI@Z 000000018007eb60 f i libucrtd:output.obj
 0001:0007db90       ?update_field_width@?$positional_parameter_base@DV?$stream_output_adapter@D@__crt_stdio_output@@@__crt_stdio_output@@IEAA_NXZ 000000018007eb90 f i libucrtd:output.obj
 0001:0007dd80       ?update_field_width@?$positional_parameter_base@DV?$string_output_adapter@D@__crt_stdio_output@@@__crt_stdio_output@@IEAA_NXZ 000000018007ed80 f i libucrtd:output.obj
 0001:0007df70       ?update_field_width@?$positional_parameter_base@_WV?$stream_output_adapter@_W@__crt_stdio_output@@@__crt_stdio_output@@IEAA_NXZ 000000018007ef70 f i libucrtd:output.obj
 0001:0007e160       ?update_field_width@?$positional_parameter_base@_WV?$string_output_adapter@_W@__crt_stdio_output@@@__crt_stdio_output@@IEAA_NXZ 000000018007f160 f i libucrtd:output.obj
 0001:0007e350       ?update_field_width@?$standard_base@DV?$stream_output_adapter@D@__crt_stdio_output@@@__crt_stdio_output@@IEAA_NXZ 000000018007f350 f i libucrtd:output.obj
 0001:0007e380       ?update_field_width@?$standard_base@DV?$string_output_adapter@D@__crt_stdio_output@@@__crt_stdio_output@@IEAA_NXZ 000000018007f380 f i libucrtd:output.obj
 0001:0007e3b0       ?update_field_width@?$standard_base@_WV?$stream_output_adapter@_W@__crt_stdio_output@@@__crt_stdio_output@@IEAA_NXZ 000000018007f3b0 f i libucrtd:output.obj
 0001:0007e3e0       ?update_field_width@?$standard_base@_WV?$string_output_adapter@_W@__crt_stdio_output@@@__crt_stdio_output@@IEAA_NXZ 000000018007f3e0 f i libucrtd:output.obj
 0001:0007e410       ?update_precision@?$positional_parameter_base@DV?$stream_output_adapter@D@__crt_stdio_output@@@__crt_stdio_output@@IEAA_NXZ 000000018007f410 f i libucrtd:output.obj
 0001:0007e600       ?update_precision@?$positional_parameter_base@DV?$string_output_adapter@D@__crt_stdio_output@@@__crt_stdio_output@@IEAA_NXZ 000000018007f600 f i libucrtd:output.obj
 0001:0007e7f0       ?update_precision@?$positional_parameter_base@_WV?$stream_output_adapter@_W@__crt_stdio_output@@@__crt_stdio_output@@IEAA_NXZ 000000018007f7f0 f i libucrtd:output.obj
 0001:0007e9e0       ?update_precision@?$positional_parameter_base@_WV?$string_output_adapter@_W@__crt_stdio_output@@@__crt_stdio_output@@IEAA_NXZ 000000018007f9e0 f i libucrtd:output.obj
 0001:0007ebd0       ?update_precision@?$standard_base@DV?$stream_output_adapter@D@__crt_stdio_output@@@__crt_stdio_output@@IEAA_NXZ 000000018007fbd0 f i libucrtd:output.obj
 0001:0007ec00       ?update_precision@?$standard_base@DV?$string_output_adapter@D@__crt_stdio_output@@@__crt_stdio_output@@IEAA_NXZ 000000018007fc00 f i libucrtd:output.obj
 0001:0007ec30       ?update_precision@?$standard_base@_WV?$stream_output_adapter@_W@__crt_stdio_output@@@__crt_stdio_output@@IEAA_NXZ 000000018007fc30 f i libucrtd:output.obj
 0001:0007ec60       ?update_precision@?$standard_base@_WV?$string_output_adapter@_W@__crt_stdio_output@@@__crt_stdio_output@@IEAA_NXZ 000000018007fc60 f i libucrtd:output.obj
 0001:0007ec90       ?valid@__crt_stdio_stream@@QEBA_NXZ 000000018007fc90 f i libucrtd:output.obj
 0001:0007ecc0       ?validate@?$stream_output_adapter@D@__crt_stdio_output@@QEBA_NXZ 000000018007fcc0 f i libucrtd:output.obj
 0001:0007eda0       ?validate@?$stream_output_adapter@_W@__crt_stdio_output@@QEBA_NXZ 000000018007fda0 f i libucrtd:output.obj
 0001:0007ee80       ?validate@?$string_output_adapter@D@__crt_stdio_output@@QEBA_NXZ 000000018007fe80 f i libucrtd:output.obj
 0001:0007ef40       ?validate@?$string_output_adapter@_W@__crt_stdio_output@@QEBA_NXZ 000000018007ff40 f i libucrtd:output.obj
 0001:0007f000       ?validate_and_store_parameter_data@?$positional_parameter_base@DV?$stream_output_adapter@D@__crt_stdio_output@@@__crt_stdio_output@@AEAA_NAEAUparameter_data@12@W4parameter_type@12@DW4length_modifier@2@@Z 0000000180080000 f i libucrtd:output.obj
 0001:0007f120       ?validate_and_store_parameter_data@?$positional_parameter_base@DV?$string_output_adapter@D@__crt_stdio_output@@@__crt_stdio_output@@AEAA_NAEAUparameter_data@12@W4parameter_type@12@DW4length_modifier@2@@Z 0000000180080120 f i libucrtd:output.obj
 0001:0007f240       ?validate_and_store_parameter_data@?$positional_parameter_base@_WV?$stream_output_adapter@_W@__crt_stdio_output@@@__crt_stdio_output@@AEAA_NAEAUparameter_data@12@W4parameter_type@12@_WW4length_modifier@2@@Z 0000000180080240 f i libucrtd:output.obj
 0001:0007f360       ?validate_and_store_parameter_data@?$positional_parameter_base@_WV?$string_output_adapter@_W@__crt_stdio_output@@@__crt_stdio_output@@AEAA_NAEAUparameter_data@12@W4parameter_type@12@_WW4length_modifier@2@@Z 0000000180080360 f i libucrtd:output.obj
 0001:0007f480       ?validate_and_update_state_at_beginning_of_format_character@?$positional_parameter_base@DV?$stream_output_adapter@D@__crt_stdio_output@@@__crt_stdio_output@@IEAA_NXZ 0000000180080480 f i libucrtd:output.obj
 0001:0007f760       ?validate_and_update_state_at_beginning_of_format_character@?$positional_parameter_base@DV?$string_output_adapter@D@__crt_stdio_output@@@__crt_stdio_output@@IEAA_NXZ 0000000180080760 f i libucrtd:output.obj
 0001:0007fa40       ?validate_and_update_state_at_beginning_of_format_character@?$positional_parameter_base@_WV?$stream_output_adapter@_W@__crt_stdio_output@@@__crt_stdio_output@@IEAA_NXZ 0000000180080a40 f i libucrtd:output.obj
 0001:0007fd20       ?validate_and_update_state_at_beginning_of_format_character@?$positional_parameter_base@_WV?$string_output_adapter@_W@__crt_stdio_output@@@__crt_stdio_output@@IEAA_NXZ 0000000180080d20 f i libucrtd:output.obj
 0001:00080000       ?validate_and_update_state_at_beginning_of_format_character@?$standard_base@DV?$stream_output_adapter@D@__crt_stdio_output@@@__crt_stdio_output@@IEAA_NXZ 0000000180081000 f i libucrtd:output.obj
 0001:00080010       ?validate_and_update_state_at_beginning_of_format_character@?$standard_base@DV?$string_output_adapter@D@__crt_stdio_output@@@__crt_stdio_output@@IEAA_NXZ 0000000180081010 f i libucrtd:output.obj
 0001:00080020       ?validate_and_update_state_at_beginning_of_format_character@?$standard_base@_WV?$stream_output_adapter@_W@__crt_stdio_output@@@__crt_stdio_output@@IEAA_NXZ 0000000180081020 f i libucrtd:output.obj
 0001:00080030       ?validate_and_update_state_at_beginning_of_format_character@?$standard_base@_WV?$string_output_adapter@_W@__crt_stdio_output@@@__crt_stdio_output@@IEAA_NXZ 0000000180081030 f i libucrtd:output.obj
 0001:00080040       ?validate_and_update_state_at_end_of_format_string@?$format_validation_base@DV?$stream_output_adapter@D@__crt_stdio_output@@@__crt_stdio_output@@IEBA_NXZ 0000000180081040 f i libucrtd:output.obj
 0001:00080100       ?validate_and_update_state_at_end_of_format_string@?$format_validation_base@DV?$string_output_adapter@D@__crt_stdio_output@@@__crt_stdio_output@@IEBA_NXZ 0000000180081100 f i libucrtd:output.obj
 0001:000801c0       ?validate_and_update_state_at_end_of_format_string@?$format_validation_base@_WV?$stream_output_adapter@_W@__crt_stdio_output@@@__crt_stdio_output@@IEBA_NXZ 00000001800811c0 f i libucrtd:output.obj
 0001:00080280       ?validate_and_update_state_at_end_of_format_string@?$format_validation_base@_WV?$string_output_adapter@_W@__crt_stdio_output@@@__crt_stdio_output@@IEBA_NXZ 0000000180081280 f i libucrtd:output.obj
 0001:00080340       ?validate_and_update_state_at_end_of_format_string@?$positional_parameter_base@DV?$stream_output_adapter@D@__crt_stdio_output@@@__crt_stdio_output@@IEAA_NXZ 0000000180081340 f i libucrtd:output.obj
 0001:00080530       ?validate_and_update_state_at_end_of_format_string@?$positional_parameter_base@DV?$string_output_adapter@D@__crt_stdio_output@@@__crt_stdio_output@@IEAA_NXZ 0000000180081530 f i libucrtd:output.obj
 0001:00080720       ?validate_and_update_state_at_end_of_format_string@?$positional_parameter_base@_WV?$stream_output_adapter@_W@__crt_stdio_output@@@__crt_stdio_output@@IEAA_NXZ 0000000180081720 f i libucrtd:output.obj
 0001:00080910       ?validate_and_update_state_at_end_of_format_string@?$positional_parameter_base@_WV?$string_output_adapter@_W@__crt_stdio_output@@@__crt_stdio_output@@IEAA_NXZ 0000000180081910 f i libucrtd:output.obj
 0001:00080b00       ?validate_and_update_state_at_end_of_format_string@?$standard_base@DV?$stream_output_adapter@D@__crt_stdio_output@@@__crt_stdio_output@@IEBA_NXZ 0000000180081b00 f i libucrtd:output.obj
 0001:00080b10       ?validate_and_update_state_at_end_of_format_string@?$standard_base@DV?$string_output_adapter@D@__crt_stdio_output@@@__crt_stdio_output@@IEBA_NXZ 0000000180081b10 f i libucrtd:output.obj
 0001:00080b20       ?validate_and_update_state_at_end_of_format_string@?$standard_base@_WV?$stream_output_adapter@_W@__crt_stdio_output@@@__crt_stdio_output@@IEBA_NXZ 0000000180081b20 f i libucrtd:output.obj
 0001:00080b30       ?validate_and_update_state_at_end_of_format_string@?$standard_base@_WV?$string_output_adapter@_W@__crt_stdio_output@@@__crt_stdio_output@@IEBA_NXZ 0000000180081b30 f i libucrtd:output.obj
 0001:00080b40       ?validate_state_for_type_case_a@?$positional_parameter_base@DV?$stream_output_adapter@D@__crt_stdio_output@@@__crt_stdio_output@@IEAA_NXZ 0000000180081b40 f i libucrtd:output.obj
 0001:00080c80       ?validate_state_for_type_case_a@?$positional_parameter_base@DV?$string_output_adapter@D@__crt_stdio_output@@@__crt_stdio_output@@IEAA_NXZ 0000000180081c80 f i libucrtd:output.obj
 0001:00080dc0       ?validate_state_for_type_case_a@?$positional_parameter_base@_WV?$stream_output_adapter@_W@__crt_stdio_output@@@__crt_stdio_output@@IEAA_NXZ 0000000180081dc0 f i libucrtd:output.obj
 0001:00080f00       ?validate_state_for_type_case_a@?$positional_parameter_base@_WV?$string_output_adapter@_W@__crt_stdio_output@@@__crt_stdio_output@@IEAA_NXZ 0000000180081f00 f i libucrtd:output.obj
 0001:00081040       ?validate_state_for_type_case_a@?$standard_base@DV?$stream_output_adapter@D@__crt_stdio_output@@@__crt_stdio_output@@IEBA_NXZ 0000000180082040 f i libucrtd:output.obj
 0001:00081050       ?validate_state_for_type_case_a@?$standard_base@DV?$string_output_adapter@D@__crt_stdio_output@@@__crt_stdio_output@@IEBA_NXZ 0000000180082050 f i libucrtd:output.obj
 0001:00081060       ?validate_state_for_type_case_a@?$standard_base@_WV?$stream_output_adapter@_W@__crt_stdio_output@@@__crt_stdio_output@@IEBA_NXZ 0000000180082060 f i libucrtd:output.obj
 0001:00081070       ?validate_state_for_type_case_a@?$standard_base@_WV?$string_output_adapter@_W@__crt_stdio_output@@@__crt_stdio_output@@IEBA_NXZ 0000000180082070 f i libucrtd:output.obj
 0001:00081080       ?validate_stream_is_ansi_if_required@?$__acrt_stdio_char_traits@D@@SA_NQEAU_iobuf@@@Z 0000000180082080 f i libucrtd:output.obj
 0001:00081210       ?validate_stream_is_ansi_if_required@?$__acrt_stdio_char_traits@_W@@SA_NQEAU_iobuf@@@Z 0000000180082210 f i libucrtd:output.obj
 0001:00081220       ?wide_null_string@?$output_processor@DV?$stream_output_adapter@D@__crt_stdio_output@@V?$format_validation_base@DV?$stream_output_adapter@D@__crt_stdio_output@@@2@@__crt_stdio_output@@CAPEA_WXZ 0000000180082220 f i libucrtd:output.obj
 0001:00081230       ?wide_null_string@?$output_processor@DV?$stream_output_adapter@D@__crt_stdio_output@@V?$positional_parameter_base@DV?$stream_output_adapter@D@__crt_stdio_output@@@2@@__crt_stdio_output@@CAPEA_WXZ 0000000180082230 f i libucrtd:output.obj
 0001:00081240       ?wide_null_string@?$output_processor@DV?$stream_output_adapter@D@__crt_stdio_output@@V?$standard_base@DV?$stream_output_adapter@D@__crt_stdio_output@@@2@@__crt_stdio_output@@CAPEA_WXZ 0000000180082240 f i libucrtd:output.obj
 0001:00081250       ?wide_null_string@?$output_processor@DV?$string_output_adapter@D@__crt_stdio_output@@V?$format_validation_base@DV?$string_output_adapter@D@__crt_stdio_output@@@2@@__crt_stdio_output@@CAPEA_WXZ 0000000180082250 f i libucrtd:output.obj
 0001:00081260       ?wide_null_string@?$output_processor@DV?$string_output_adapter@D@__crt_stdio_output@@V?$positional_parameter_base@DV?$string_output_adapter@D@__crt_stdio_output@@@2@@__crt_stdio_output@@CAPEA_WXZ 0000000180082260 f i libucrtd:output.obj
 0001:00081270       ?wide_null_string@?$output_processor@DV?$string_output_adapter@D@__crt_stdio_output@@V?$standard_base@DV?$string_output_adapter@D@__crt_stdio_output@@@2@@__crt_stdio_output@@CAPEA_WXZ 0000000180082270 f i libucrtd:output.obj
 0001:00081280       ?wide_null_string@?$output_processor@_WV?$stream_output_adapter@_W@__crt_stdio_output@@V?$format_validation_base@_WV?$stream_output_adapter@_W@__crt_stdio_output@@@2@@__crt_stdio_output@@CAPEA_WXZ 0000000180082280 f i libucrtd:output.obj
 0001:00081290       ?wide_null_string@?$output_processor@_WV?$stream_output_adapter@_W@__crt_stdio_output@@V?$positional_parameter_base@_WV?$stream_output_adapter@_W@__crt_stdio_output@@@2@@__crt_stdio_output@@CAPEA_WXZ 0000000180082290 f i libucrtd:output.obj
 0001:000812a0       ?wide_null_string@?$output_processor@_WV?$stream_output_adapter@_W@__crt_stdio_output@@V?$standard_base@_WV?$stream_output_adapter@_W@__crt_stdio_output@@@2@@__crt_stdio_output@@CAPEA_WXZ 00000001800822a0 f i libucrtd:output.obj
 0001:000812b0       ?wide_null_string@?$output_processor@_WV?$string_output_adapter@_W@__crt_stdio_output@@V?$format_validation_base@_WV?$string_output_adapter@_W@__crt_stdio_output@@@2@@__crt_stdio_output@@CAPEA_WXZ 00000001800822b0 f i libucrtd:output.obj
 0001:000812c0       ?wide_null_string@?$output_processor@_WV?$string_output_adapter@_W@__crt_stdio_output@@V?$positional_parameter_base@_WV?$string_output_adapter@_W@__crt_stdio_output@@@2@@__crt_stdio_output@@CAPEA_WXZ 00000001800822c0 f i libucrtd:output.obj
 0001:000812d0       ?wide_null_string@?$output_processor@_WV?$string_output_adapter@_W@__crt_stdio_output@@V?$standard_base@_WV?$string_output_adapter@_W@__crt_stdio_output@@@2@@__crt_stdio_output@@CAPEA_WXZ 00000001800822d0 f i libucrtd:output.obj
 0001:000812e0       ?write_character@?$output_adapter_common@DV?$stream_output_adapter@D@__crt_stdio_output@@@__crt_stdio_output@@QEBAXDQEAH@Z 00000001800822e0 f i libucrtd:output.obj
 0001:00081330       ?write_character@?$output_adapter_common@_WV?$stream_output_adapter@_W@__crt_stdio_output@@@__crt_stdio_output@@QEBAX_WQEAH@Z 0000000180082330 f i libucrtd:output.obj
 0001:00081380       ?write_character@?$string_output_adapter@D@__crt_stdio_output@@QEBA_NDQEAH@Z 0000000180082380 f i libucrtd:output.obj
 0001:00081440       ?write_character@?$string_output_adapter@_W@__crt_stdio_output@@QEBA_N_WQEAH@Z 0000000180082440 f i libucrtd:output.obj
 0001:00081500       ?write_character_without_count_update@?$stream_output_adapter@D@__crt_stdio_output@@QEBA_ND@Z 0000000180082500 f i libucrtd:output.obj
 0001:00081580       ?write_character_without_count_update@?$stream_output_adapter@_W@__crt_stdio_output@@QEBA_N_W@Z 0000000180082580 f i libucrtd:output.obj
 0001:00081610       ?write_stored_string_tchar@?$output_processor@DV?$stream_output_adapter@D@__crt_stdio_output@@V?$format_validation_base@DV?$stream_output_adapter@D@__crt_stdio_output@@@2@@__crt_stdio_output@@AEAA_ND@Z 0000000180082610 f i libucrtd:output.obj
 0001:000817d0       ?write_stored_string_tchar@?$output_processor@DV?$stream_output_adapter@D@__crt_stdio_output@@V?$positional_parameter_base@DV?$stream_output_adapter@D@__crt_stdio_output@@@2@@__crt_stdio_output@@AEAA_ND@Z 00000001800827d0 f i libucrtd:output.obj
 0001:00081990       ?write_stored_string_tchar@?$output_processor@DV?$stream_output_adapter@D@__crt_stdio_output@@V?$standard_base@DV?$stream_output_adapter@D@__crt_stdio_output@@@2@@__crt_stdio_output@@AEAA_ND@Z 0000000180082990 f i libucrtd:output.obj
 0001:00081b50       ?write_stored_string_tchar@?$output_processor@DV?$string_output_adapter@D@__crt_stdio_output@@V?$format_validation_base@DV?$string_output_adapter@D@__crt_stdio_output@@@2@@__crt_stdio_output@@AEAA_ND@Z 0000000180082b50 f i libucrtd:output.obj
 0001:00081d10       ?write_stored_string_tchar@?$output_processor@DV?$string_output_adapter@D@__crt_stdio_output@@V?$positional_parameter_base@DV?$string_output_adapter@D@__crt_stdio_output@@@2@@__crt_stdio_output@@AEAA_ND@Z 0000000180082d10 f i libucrtd:output.obj
 0001:00081ed0       ?write_stored_string_tchar@?$output_processor@DV?$string_output_adapter@D@__crt_stdio_output@@V?$standard_base@DV?$string_output_adapter@D@__crt_stdio_output@@@2@@__crt_stdio_output@@AEAA_ND@Z 0000000180082ed0 f i libucrtd:output.obj
 0001:00082090       ?write_stored_string_tchar@?$output_processor@_WV?$stream_output_adapter@_W@__crt_stdio_output@@V?$format_validation_base@_WV?$stream_output_adapter@_W@__crt_stdio_output@@@2@@__crt_stdio_output@@AEAA_N_W@Z 0000000180083090 f i libucrtd:output.obj
 0001:000821e0       ?write_stored_string_tchar@?$output_processor@_WV?$stream_output_adapter@_W@__crt_stdio_output@@V?$positional_parameter_base@_WV?$stream_output_adapter@_W@__crt_stdio_output@@@2@@__crt_stdio_output@@AEAA_N_W@Z 00000001800831e0 f i libucrtd:output.obj
 0001:00082330       ?write_stored_string_tchar@?$output_processor@_WV?$stream_output_adapter@_W@__crt_stdio_output@@V?$standard_base@_WV?$stream_output_adapter@_W@__crt_stdio_output@@@2@@__crt_stdio_output@@AEAA_N_W@Z 0000000180083330 f i libucrtd:output.obj
 0001:00082480       ?write_stored_string_tchar@?$output_processor@_WV?$string_output_adapter@_W@__crt_stdio_output@@V?$format_validation_base@_WV?$string_output_adapter@_W@__crt_stdio_output@@@2@@__crt_stdio_output@@AEAA_N_W@Z 0000000180083480 f i libucrtd:output.obj
 0001:000825d0       ?write_stored_string_tchar@?$output_processor@_WV?$string_output_adapter@_W@__crt_stdio_output@@V?$positional_parameter_base@_WV?$string_output_adapter@_W@__crt_stdio_output@@@2@@__crt_stdio_output@@AEAA_N_W@Z 00000001800835d0 f i libucrtd:output.obj
 0001:00082720       ?write_stored_string_tchar@?$output_processor@_WV?$string_output_adapter@_W@__crt_stdio_output@@V?$standard_base@_WV?$string_output_adapter@_W@__crt_stdio_output@@@2@@__crt_stdio_output@@AEAA_N_W@Z 0000000180083720 f i libucrtd:output.obj
 0001:00082870       ?write_string@?$stream_output_adapter@D@__crt_stdio_output@@QEBAXQEBDHQEAHAEAV__crt_deferred_errno_cache@@@Z 0000000180083870 f i libucrtd:output.obj
 0001:000828f0       ?write_string@?$stream_output_adapter@_W@__crt_stdio_output@@QEBAXQEB_WHQEAHAEAV__crt_deferred_errno_cache@@@Z 00000001800838f0 f i libucrtd:output.obj
 0001:00082970       ?write_string@?$string_output_adapter@D@__crt_stdio_output@@QEBAXQEBDHQEAHAEAV__crt_deferred_errno_cache@@@Z 0000000180083970 f i libucrtd:output.obj
 0001:00082ae0       ?write_string@?$string_output_adapter@_W@__crt_stdio_output@@QEBAXQEB_WHQEAHAEAV__crt_deferred_errno_cache@@@Z 0000000180083ae0 f i libucrtd:output.obj
 0001:00082c50       ?write_string_impl@?$output_adapter_common@DV?$stream_output_adapter@D@__crt_stdio_output@@@__crt_stdio_output@@IEBAXQEBDHQEAHAEAV__crt_deferred_errno_cache@@@Z 0000000180083c50 f i libucrtd:output.obj
 0001:00082d30       ?write_string_impl@?$output_adapter_common@_WV?$stream_output_adapter@_W@__crt_stdio_output@@@__crt_stdio_output@@IEBAXQEB_WHQEAHAEAV__crt_deferred_errno_cache@@@Z 0000000180083d30 f i libucrtd:output.obj
 0001:00082e10       __acrt_disable_global_locale_sync 0000000180083e10 f i libucrtd:output.obj
 0001:00082e40       __acrt_enable_global_locale_sync 0000000180083e40 f i libucrtd:output.obj
 0001:00082e70       __acrt_isleadbyte_l_noupdate 0000000180083e70 f i libucrtd:output.obj
 0001:00082ea0       __acrt_locale_changed      0000000180083ea0 f i libucrtd:output.obj
 0001:00082ed0       __acrt_locale_get_ctype_array_value 0000000180083ed0 f i libucrtd:output.obj
 0001:00082f10       __stdio_common_vfprintf    0000000180083f10 f   libucrtd:output.obj
 0001:00082f50       __stdio_common_vfprintf_p  0000000180083f50 f   libucrtd:output.obj
 0001:00082f90       __stdio_common_vfprintf_s  0000000180083f90 f   libucrtd:output.obj
 0001:00082fd0       __stdio_common_vfwprintf   0000000180083fd0 f   libucrtd:output.obj
 0001:00083010       __stdio_common_vfwprintf_p 0000000180084010 f   libucrtd:output.obj
 0001:00083050       __stdio_common_vfwprintf_s 0000000180084050 f   libucrtd:output.obj
 0001:00083090       __stdio_common_vsnprintf_s 0000000180084090 f   libucrtd:output.obj
 0001:000830f0       __stdio_common_vsnwprintf_s 00000001800840f0 f   libucrtd:output.obj
 0001:00083150       __stdio_common_vsprintf    0000000180084150 f   libucrtd:output.obj
 0001:000831a0       __stdio_common_vsprintf_p  00000001800841a0 f   libucrtd:output.obj
 0001:000831f0       __stdio_common_vsprintf_s  00000001800841f0 f   libucrtd:output.obj
 0001:00083240       __stdio_common_vswprintf   0000000180084240 f   libucrtd:output.obj
 0001:00083290       __stdio_common_vswprintf_p 0000000180084290 f   libucrtd:output.obj
 0001:000832e0       __stdio_common_vswprintf_s 00000001800842e0 f   libucrtd:output.obj
 0001:00083330       _ctype_fast_check_internal 0000000180084330 f i libucrtd:output.obj
 0001:00083360       _isdigit_fast_internal     0000000180084360 f i libucrtd:output.obj
 0001:00083390       _tolower_fast_internal     0000000180084390 f i libucrtd:output.obj
 0001:000833c0       free                       00000001800843c0 f   libucrtd:free.obj
 0001:000833f0       malloc                     00000001800843f0 f   libucrtd:malloc.obj
 0001:00083420       ??$?RU?$__crt_report_hook_node@D@@@__crt_internal_free_policy@@QEBAXQEBU?$__crt_report_hook_node@D@@@Z 0000000180084420 f i libucrtd:dbgrpt.obj
 0001:00083450       ??$?RU?$__crt_report_hook_node@_W@@@__crt_internal_free_policy@@QEBAXQEBU?$__crt_report_hook_node@_W@@@Z 0000000180084450 f i libucrtd:dbgrpt.obj
 0001:00084690       ??$get_module_file_name@AEAPEAUHINSTANCE__@@AEAY0BAF@DK@?$__crt_char_traits@D@@SAKAEAPEAUHINSTANCE__@@AEAY0BAF@D$$QEAK@Z 0000000180085690 f i libucrtd:dbgrpt.obj
 0001:000846d0       ??$get_module_file_name@AEAPEAUHINSTANCE__@@AEAY0BAF@_WK@?$__crt_char_traits@_W@@SAKAEAPEAUHINSTANCE__@@AEAY0BAF@_W$$QEAK@Z 00000001800856d0 f i libucrtd:dbgrpt.obj
 0001:00084710       ??$tcscpy_s@AEAY0BAF@D_KPEBD@?$__crt_char_traits@D@@SAHAEAY0BAF@D$$QEA_K$$QEAPEBD@Z 0000000180085710 f i libucrtd:dbgrpt.obj
 0001:00084750       ??$tcscpy_s@AEAY0BAF@_W_KPEB_W@?$__crt_char_traits@_W@@SAHAEAY0BAF@_W$$QEA_K$$QEAPEB_W@Z 0000000180085750 f i libucrtd:dbgrpt.obj
 0001:00084790       ??$tcslen@AEAY0BAF@D@?$__crt_char_traits@D@@SA_KAEAY0BAF@D@Z 0000000180085790 f i libucrtd:dbgrpt.obj
 0001:000847b0       ??$tcslen@AEAY0BAF@_W@?$__crt_char_traits@_W@@SA_KAEAY0BAF@_W@Z 00000001800857b0 f i libucrtd:dbgrpt.obj
 0001:000847d0       ??$tcslen@AEBQEBD@?$__crt_char_traits@D@@SA_KAEBQEBD@Z 00000001800857d0 f i libucrtd:dbgrpt.obj
 0001:000847f0       ??$tcslen@AEBQEB_W@?$__crt_char_traits@_W@@SA_KAEBQEB_W@Z 00000001800857f0 f i libucrtd:dbgrpt.obj
 0001:000848f0       ??0?$__crt_unique_heap_ptr@U?$__crt_report_hook_node@D@@U__crt_internal_free_policy@@@@QEAA@QEAU?$__crt_report_hook_node@D@@@Z 00000001800858f0 f i libucrtd:dbgrpt.obj
 0001:00084910       ??0?$__crt_unique_heap_ptr@U?$__crt_report_hook_node@_W@@U__crt_internal_free_policy@@@@QEAA@QEAU?$__crt_report_hook_node@_W@@@Z 0000000180085910 f i libucrtd:dbgrpt.obj
 0001:00084930       ??1?$__crt_unique_heap_ptr@U?$__crt_report_hook_node@D@@U__crt_internal_free_policy@@@@QEAA@XZ 0000000180085930 f i libucrtd:dbgrpt.obj
 0001:00084950       ??1?$__crt_unique_heap_ptr@U?$__crt_report_hook_node@_W@@U__crt_internal_free_policy@@@@QEAA@XZ 0000000180085950 f i libucrtd:dbgrpt.obj
 0001:00084970       ??B?$__crt_unique_heap_ptr@U?$__crt_report_hook_node@D@@U__crt_internal_free_policy@@@@QEBA_NXZ 0000000180085970 f i libucrtd:dbgrpt.obj
 0001:00084990       ??B?$__crt_unique_heap_ptr@U?$__crt_report_hook_node@_W@@U__crt_internal_free_policy@@@@QEBA_NXZ 0000000180085990 f i libucrtd:dbgrpt.obj
 0001:00085070       ?detach@?$__crt_unique_heap_ptr@U?$__crt_report_hook_node@D@@U__crt_internal_free_policy@@@@QEAAPEAU?$__crt_report_hook_node@D@@XZ 0000000180086070 f i libucrtd:dbgrpt.obj
 0001:000850a0       ?detach@?$__crt_unique_heap_ptr@U?$__crt_report_hook_node@_W@@U__crt_internal_free_policy@@@@QEAAPEAU?$__crt_report_hook_node@_W@@XZ 00000001800860a0 f i libucrtd:dbgrpt.obj
 0001:000850d0       ?get@?$__crt_unique_heap_ptr@U?$__crt_report_hook_node@D@@U__crt_internal_free_policy@@@@QEBAPEAU?$__crt_report_hook_node@D@@XZ 00000001800860d0 f i libucrtd:dbgrpt.obj
 0001:000850e0       ?get@?$__crt_unique_heap_ptr@U?$__crt_report_hook_node@_W@@U__crt_internal_free_policy@@@@QEBAPEAU?$__crt_report_hook_node@_W@@XZ 00000001800860e0 f i libucrtd:dbgrpt.obj
 0001:00085150       ?is_valid@?$__crt_unique_heap_ptr@U?$__crt_report_hook_node@D@@U__crt_internal_free_policy@@@@QEBA_NXZ 0000000180086150 f i libucrtd:dbgrpt.obj
 0001:00085180       ?is_valid@?$__crt_unique_heap_ptr@U?$__crt_report_hook_node@_W@@U__crt_internal_free_policy@@@@QEBA_NXZ 0000000180086180 f i libucrtd:dbgrpt.obj
 0001:000851b0       ?release@?$__crt_unique_heap_ptr@U?$__crt_report_hook_node@D@@U__crt_internal_free_policy@@@@QEAAXXZ 00000001800861b0 f i libucrtd:dbgrpt.obj
 0001:000851e0       ?release@?$__crt_unique_heap_ptr@U?$__crt_report_hook_node@_W@@U__crt_internal_free_policy@@@@QEAAXXZ 00000001800861e0 f i libucrtd:dbgrpt.obj
 0001:00085210       _CrtDbgReport              0000000180086210 f   libucrtd:dbgrpt.obj
 0001:00085290       _CrtDbgReportW             0000000180086290 f   libucrtd:dbgrpt.obj
 0001:00085310       _CrtSetReportHook2         0000000180086310 f   libucrtd:dbgrpt.obj
 0001:00085330       _CrtSetReportHookW2        0000000180086330 f   libucrtd:dbgrpt.obj
 0001:00085350       __acrt_MessageWindowA      0000000180086350 f   libucrtd:dbgrpt.obj
 0001:000853a0       __acrt_MessageWindowW      00000001800863a0 f   libucrtd:dbgrpt.obj
 0001:000853f0       _invoke_watson_if_error    00000001800863f0 f i libucrtd:dbgrpt.obj
 0001:00085440       _invoke_watson_if_oneof    0000000180086440 f i libucrtd:dbgrpt.obj
 0001:000854a0       _snwprintf_s               00000001800864a0 f i libucrtd:dbgrpt.obj
 0001:00085510       _vsnwprintf_s_l            0000000180086510 f i libucrtd:dbgrpt.obj
 0001:00085a70       wcscpy_s                   0000000180086a70 f   libucrtd:wcscpy_s.obj
 0001:00086e00       ??1?$__crt_simd_cleanup_guard@$00@@QEAA@XZ 0000000180087e00 f i libucrtd:strnlen.obj
 0001:00086e10       ??1?$__crt_simd_cleanup_guard@$0A@@@QEAA@XZ 0000000180087e10 f i libucrtd:strnlen.obj
 0001:00086e20       ?compare_equals@?$__crt_simd_traits@$00E@@SA?AT__m256i@@T2@0@Z 0000000180087e20 f i libucrtd:strnlen.obj
 0001:00086e60       ?compare_equals@?$__crt_simd_traits@$00G@@SA?AT__m256i@@T2@0@Z 0000000180087e60 f i libucrtd:strnlen.obj
 0001:00086ea0       ?compare_equals@?$__crt_simd_traits@$0A@E@@SA?AT__m128i@@T2@0@Z 0000000180087ea0 f i libucrtd:strnlen.obj
 0001:00086ed0       ?compare_equals@?$__crt_simd_traits@$0A@G@@SA?AT__m128i@@T2@0@Z 0000000180087ed0 f i libucrtd:strnlen.obj
 0001:00086f00       ?compute_byte_mask@?$__crt_simd_pack_traits@$00@@SAHT__m256i@@@Z 0000000180087f00 f i libucrtd:strnlen.obj
 0001:00086f20       ?compute_byte_mask@?$__crt_simd_pack_traits@$0A@@@SAHT__m128i@@@Z 0000000180087f20 f i libucrtd:strnlen.obj
 0001:00086f40       ?get_zero_pack@?$__crt_simd_pack_traits@$00@@SA?AT__m256i@@XZ 0000000180087f40 f i libucrtd:strnlen.obj
 0001:00086f70       ?get_zero_pack@?$__crt_simd_pack_traits@$0A@@@SA?AT__m128i@@XZ 0000000180087f70 f i libucrtd:strnlen.obj
 0001:00086f90       strnlen                    0000000180087f90 f   libucrtd:strnlen.obj
 0001:00086fc0       wcslen                     0000000180087fc0 f   libucrtd:strnlen.obj
 0001:00086fe0       wcsnlen                    0000000180087fe0 f   libucrtd:strnlen.obj
 0001:00087010       ??$__crt_fast_decode_pointer@P6AXPEB_W00I_K@Z@@YAP6AXPEB_W00I_K@ZQ6AX000I1@Z@Z 0000000180088010 f i libucrtd:invalid_parameter.obj
 0001:00087050       ??$__crt_fast_encode_pointer@P6AXPEB_W00I_K@Z@@YAP6AXPEB_W00I_K@ZQ6AX000I1@Z@Z 0000000180088050 f i libucrtd:invalid_parameter.obj
 0001:00087090       ??$initialize_from_array@$$BY00Q6AXPEB_W00I_K@Z@?$dual_state_global@P6AXPEB_W00I_K@Z@__crt_state_management@@QEAAXAEAY00Q6AXPEB_W00I_K@Z@Z 0000000180088090 f i libucrtd:invalid_parameter.obj
 0001:000870f0       ?__crt_rotate_pointer_value@@YA_K_KH@Z 00000001800880f0 f i libucrtd:invalid_parameter.obj
 0001:000871b0       ?dangerous_get_state_array@?$dual_state_global@P6AXPEB_W00I_K@Z@__crt_state_management@@QEAAPEAP6AXPEB_W00I_K@ZXZ 00000001800881b0 f i libucrtd:invalid_parameter.obj
 0001:000871c0       ?get_current_state_index@__crt_state_management@@YA_KXZ 00000001800881c0 f i libucrtd:invalid_parameter.obj
 0001:000871d0       ?value@?$dual_state_global@P6AXPEB_W00I_K@Z@__crt_state_management@@QEAAAEAP6AXPEB_W00I_K@ZXZ 00000001800881d0 f i libucrtd:invalid_parameter.obj
 0001:000871f0       __acrt_call_reportfault    00000001800881f0 f   libucrtd:invalid_parameter.obj
 0001:00087320       __acrt_initialize_invalid_parameter_handler 0000000180088320 f   libucrtd:invalid_parameter.obj
 0001:00087350       _get_invalid_parameter_handler 0000000180088350 f   libucrtd:invalid_parameter.obj
 0001:00087370       _get_thread_local_invalid_parameter_handler 0000000180088370 f   libucrtd:invalid_parameter.obj
 0001:000873a0       _invalid_parameter         00000001800883a0 f   libucrtd:invalid_parameter.obj
 0001:000874a0       _invalid_parameter_noinfo  00000001800884a0 f   libucrtd:invalid_parameter.obj
 0001:000874d0       _invalid_parameter_noinfo_noreturn 00000001800884d0 f   libucrtd:invalid_parameter.obj
 0001:00087510       _invoke_watson             0000000180088510 f   libucrtd:invalid_parameter.obj
 0001:00087570       _set_invalid_parameter_handler 0000000180088570 f   libucrtd:invalid_parameter.obj
 0001:000875c0       _set_thread_local_invalid_parameter_handler 00000001800885c0 f   libucrtd:invalid_parameter.obj
 0001:00087600       __acrt_errno_from_os_error 0000000180088600 f   libucrtd:errno.obj
 0001:00087690       __acrt_errno_map_os_error  0000000180088690 f   libucrtd:errno.obj
 0001:000876c0       __doserrno                 00000001800886c0 f   libucrtd:errno.obj
 0001:000876f0       _errno                     00000001800886f0 f   libucrtd:errno.obj
 0001:00087720       _get_doserrno              0000000180088720 f   libucrtd:errno.obj
 0001:000877e0       _get_errno                 00000001800887e0 f   libucrtd:errno.obj
 0001:000878a0       _set_doserrno              00000001800888a0 f   libucrtd:errno.obj
 0001:000878e0       _set_errno                 00000001800888e0 f   libucrtd:errno.obj
 0001:00087920       calloc                     0000000180088920 f   libucrtd:calloc.obj
 0001:00087960       _recalloc                  0000000180088960 f   libucrtd:recalloc.obj
 0001:000879b0       _recalloc_base             00000001800889b0 f   libucrtd:recalloc.obj
 0001:00087a8c       _resetstkoflw              0000000180088a8c f   libucrtd:resetstk.obj
 0001:00088240       wcscat_s                   0000000180089240 f   libucrtd:wcscat_s.obj
 0001:00088910       wcsncpy_s                  0000000180089910 f   libucrtd:wcsncpy_s.obj
 0001:00088a90       __isascii                  0000000180089a90 f   libucrtd:_ctype.obj
 0001:00088ac0       __iscsym                   0000000180089ac0 f   libucrtd:_ctype.obj
 0001:00088b00       __iscsymf                  0000000180089b00 f   libucrtd:_ctype.obj
 0001:00088b40       __toascii                  0000000180089b40 f   libucrtd:_ctype.obj
 0001:00088b50       _isalnum_l                 0000000180089b50 f   libucrtd:_ctype.obj
 0001:00088b80       _isalpha_l                 0000000180089b80 f   libucrtd:_ctype.obj
 0001:00088bb0       _isblank_l                 0000000180089bb0 f   libucrtd:_ctype.obj
 0001:00088be0       _iscntrl_l                 0000000180089be0 f   libucrtd:_ctype.obj
 0001:00088c10       _iscsym_l                  0000000180089c10 f   libucrtd:_ctype.obj
 0001:00088c60       _iscsymf_l                 0000000180089c60 f   libucrtd:_ctype.obj
 0001:00088cb0       _isdigit_l                 0000000180089cb0 f   libucrtd:_ctype.obj
 0001:00088ce0       _isgraph_l                 0000000180089ce0 f   libucrtd:_ctype.obj
 0001:00088d10       _islower_l                 0000000180089d10 f   libucrtd:_ctype.obj
 0001:00088d40       _isprint_l                 0000000180089d40 f   libucrtd:_ctype.obj
 0001:00088d70       _ispunct_l                 0000000180089d70 f   libucrtd:_ctype.obj
 0001:00088da0       _isspace_l                 0000000180089da0 f   libucrtd:_ctype.obj
 0001:00088dd0       _isupper_l                 0000000180089dd0 f   libucrtd:_ctype.obj
 0001:00088e00       _isxdigit_l                0000000180089e00 f   libucrtd:_ctype.obj
 0001:00088e30       isalnum                    0000000180089e30 f   libucrtd:_ctype.obj
 0001:00088e50       isalpha                    0000000180089e50 f   libucrtd:_ctype.obj
 0001:00088e70       isblank                    0000000180089e70 f   libucrtd:_ctype.obj
 0001:00088ea0       iscntrl                    0000000180089ea0 f   libucrtd:_ctype.obj
 0001:00088ec0       isdigit                    0000000180089ec0 f   libucrtd:_ctype.obj
 0001:00088ee0       isgraph                    0000000180089ee0 f   libucrtd:_ctype.obj
 0001:00088f00       islower                    0000000180089f00 f   libucrtd:_ctype.obj
 0001:00088f20       isprint                    0000000180089f20 f   libucrtd:_ctype.obj
 0001:00088f40       ispunct                    0000000180089f40 f   libucrtd:_ctype.obj
 0001:00088f60       isspace                    0000000180089f60 f   libucrtd:_ctype.obj
 0001:00088f80       isupper                    0000000180089f80 f   libucrtd:_ctype.obj
 0001:00088fa0       isxdigit                   0000000180089fa0 f   libucrtd:_ctype.obj
 0001:00088fc0       wcscat                     0000000180089fc0 f   libucrtd:wcscat.obj
 0001:00089040       wcscpy                     000000018008a040 f   libucrtd:wcscpy.obj
 0001:000897f0       ??$open_file@AEBQEBDAEBQEBDAEBHPEAU_iobuf@@@?$__crt_char_traits@D@@SAPEAU_iobuf@@AEBQEBD0AEBH$$QEAPEAU1@@Z 000000018008a7f0 f i libucrtd:fopen.obj
 0001:00089840       ??$open_file@AEBQEB_WAEBQEB_WAEBHPEAU_iobuf@@@?$__crt_char_traits@_W@@SAPEAU_iobuf@@AEBQEB_W0AEBH$$QEAPEAU1@@Z 000000018008a840 f i libucrtd:fopen.obj
 0001:00089890       ?unlock@__crt_stdio_stream@@QEBAXXZ 000000018008a890 f i libucrtd:fopen.obj
 0001:000898b0       _fsopen                    000000018008a8b0 f   libucrtd:fopen.obj
 0001:000898e0       _wfopen                    000000018008a8e0 f   libucrtd:fopen.obj
 0001:00089910       _wfopen_s                  000000018008a910 f   libucrtd:fopen.obj
 0001:00089940       _wfsopen                   000000018008a940 f   libucrtd:fopen.obj
 0001:00089970       fopen                      000000018008a970 f   libucrtd:fopen.obj
 0001:000899a0       fopen_s                    000000018008a9a0 f   libucrtd:fopen.obj
 0001:000899d0       ?is_in_use@__crt_stdio_stream@@QEBA_NXZ 000000018008a9d0 f i libucrtd:fclose.obj
 0001:00089a10       _fclose_nolock             000000018008aa10 f   libucrtd:fclose.obj
 0001:00089ba0       fclose                     000000018008aba0 f   libucrtd:fclose.obj
 0001:00089ce0       _fputc_nolock              000000018008ace0 f   libucrtd:fputc.obj
 0001:00089d90       _fputchar                  000000018008ad90 f   libucrtd:fputc.obj
 0001:00089dc0       _putc_nolock               000000018008adc0 f   libucrtd:fputc.obj
 0001:00089de0       fputc                      000000018008ade0 f   libucrtd:fputc.obj
 0001:0008a080       putc                       000000018008b080 f   libucrtd:fputc.obj
 0001:0008a0a0       putchar                    000000018008b0a0 f   libucrtd:fputc.obj
 0001:0008a130       _seh_filter_dll            000000018008b130 f   libucrtd:exception_filter.obj
 0001:0008a160       _seh_filter_exe            000000018008b160 f   libucrtd:exception_filter.obj
 0001:0008a400       ??$?B$$A6AXPEAXK0@Z@__crt_fast_encoded_nullptr_t@@QEBAP6AXPEAXK0@ZXZ 000000018008b400 f i libucrtd:exit.obj
 0001:0008a4b0       ??$__crt_fast_decode_pointer@P6AXPEAXK0@Z@@YAP6AXPEAXK0@ZQ6AX0K0@Z@Z 000000018008b4b0 f i libucrtd:exit.obj
 0001:0008a4f0       ??$__crt_fast_encode_pointer@P6AXPEAXK0@Z@@YAP6AXPEAXK0@ZQ6AX0K0@Z@Z 000000018008b4f0 f i libucrtd:exit.obj
 0001:0008a530       ??$__crt_get_proc_address@P6AXI@Z@@YAP6AXI@ZQEAUHINSTANCE__@@QEBD@Z 000000018008b530 f i libucrtd:exit.obj
 0001:0008a5f0       ??0?$__crt_unique_handle_t@U__crt_hmodule_traits@@@@QEAA@QEAUHINSTANCE__@@@Z 000000018008b5f0 f i libucrtd:exit.obj
 0001:0008a610       ??1?$__crt_unique_handle_t@U__crt_hmodule_traits@@@@QEAA@XZ 000000018008b610 f i libucrtd:exit.obj
 0001:0008a770       ?__acrt_select_exit_lock@@YA?AW4__acrt_lock_id@@XZ 000000018008b770 f i libucrtd:exit.obj
 0001:0008a780       ?__crt_fast_encode_pointer@@YA?AU__crt_fast_encoded_nullptr_t@@$$T@Z 000000018008b780 f i libucrtd:exit.obj
 0001:0008a7c0       ?close@?$__crt_unique_handle_t@U__crt_hmodule_traits@@@@QEAAXXZ 000000018008b7c0 f i libucrtd:exit.obj
 0001:0008a800       ?close@__crt_hmodule_traits@@SA_NPEAUHINSTANCE__@@@Z 000000018008b800 f i libucrtd:exit.obj
 0001:0008a910       ?get@?$__crt_unique_handle_t@U__crt_hmodule_traits@@@@QEBAPEAUHINSTANCE__@@XZ 000000018008b910 f i libucrtd:exit.obj
 0001:0008a920       ?get_address_of@?$__crt_unique_handle_t@U__crt_hmodule_traits@@@@QEAAPEAPEAUHINSTANCE__@@XZ 000000018008b920 f i libucrtd:exit.obj
 0001:0008a930       ?get_invalid_value@__crt_hmodule_traits@@SAPEAUHINSTANCE__@@XZ 000000018008b930 f i libucrtd:exit.obj
 0001:0008aaf0       _Exit                      000000018008baf0 f   libucrtd:exit.obj
 0001:0008ab10       __acrt_initialize_thread_local_exit_callback 000000018008bb10 f   libucrtd:exit.obj
 0001:0008ab30       _c_exit                    000000018008bb30 f   libucrtd:exit.obj
 0001:0008ab50       _cexit                     000000018008bb50 f   libucrtd:exit.obj
 0001:0008ab70       _exit                      000000018008bb70 f   libucrtd:exit.obj
 0001:0008ab90       _is_c_termination_complete 000000018008bb90 f   libucrtd:exit.obj
 0001:0008abb0       _register_thread_local_exe_atexit_callback 000000018008bbb0 f   libucrtd:exit.obj
 0001:0008ac00       exit                       000000018008bc00 f   libucrtd:exit.obj
 0001:0008ac20       quick_exit                 000000018008bc20 f   libucrtd:exit.obj
 0001:0008ac40       ??$?RE@__crt_internal_free_policy@@QEBAXQEBE@Z 000000018008bc40 f i libucrtd:argv_parsing.obj
 0001:0008ac70       ??$?RPEAD@__crt_internal_free_policy@@QEBAXQEBQEAD@Z 000000018008bc70 f i libucrtd:argv_parsing.obj
 0001:0008aca0       ??$?RPEA_W@__crt_internal_free_policy@@QEBAXQEBQEA_W@Z 000000018008bca0 f i libucrtd:argv_parsing.obj
 0001:0008b3f0       ??$get_module_file_name@$$TAEAY0BAF@DH@?$__crt_char_traits@D@@SAK$$QEA$$TAEAY0BAF@D$$QEAH@Z 000000018008c3f0 f i libucrtd:argv_parsing.obj
 0001:0008b430       ??$get_module_file_name@$$TAEAY0BAF@_WH@?$__crt_char_traits@_W@@SAK$$QEA$$TAEAY0BAF@_W$$QEAH@Z 000000018008c430 f i libucrtd:argv_parsing.obj
 0001:0008bde0       ??$set_program_name@PEAD@?$__crt_char_traits@D@@SAX$$QEAPEAD@Z 000000018008cde0 f i libucrtd:argv_parsing.obj
 0001:0008be00       ??$set_program_name@PEA_W@?$__crt_char_traits@_W@@SAX$$QEAPEA_W@Z 000000018008ce00 f i libucrtd:argv_parsing.obj
 0001:0008be60       ??0?$__crt_unique_heap_ptr@EU__crt_internal_free_policy@@@@QEAA@QEAE@Z 000000018008ce60 f i libucrtd:argv_parsing.obj
 0001:0008be80       ??0?$__crt_unique_heap_ptr@PEADU__crt_internal_free_policy@@@@QEAA@QEAPEAD@Z 000000018008ce80 f i libucrtd:argv_parsing.obj
 0001:0008bea0       ??0?$__crt_unique_heap_ptr@PEA_WU__crt_internal_free_policy@@@@QEAA@QEAPEA_W@Z 000000018008cea0 f i libucrtd:argv_parsing.obj
 0001:0008bec0       ??1?$__crt_unique_heap_ptr@EU__crt_internal_free_policy@@@@QEAA@XZ 000000018008cec0 f i libucrtd:argv_parsing.obj
 0001:0008bee0       ??1?$__crt_unique_heap_ptr@PEADU__crt_internal_free_policy@@@@QEAA@XZ 000000018008cee0 f i libucrtd:argv_parsing.obj
 0001:0008bf00       ??1?$__crt_unique_heap_ptr@PEA_WU__crt_internal_free_policy@@@@QEAA@XZ 000000018008cf00 f i libucrtd:argv_parsing.obj
 0001:0008bf20       ??B?$__crt_unique_heap_ptr@EU__crt_internal_free_policy@@@@QEBA_NXZ 000000018008cf20 f i libucrtd:argv_parsing.obj
 0001:0008c000       ?detach@?$__crt_unique_heap_ptr@EU__crt_internal_free_policy@@@@QEAAPEAEXZ 000000018008d000 f i libucrtd:argv_parsing.obj
 0001:0008c030       ?detach@?$__crt_unique_heap_ptr@PEADU__crt_internal_free_policy@@@@QEAAPEAPEADXZ 000000018008d030 f i libucrtd:argv_parsing.obj
 0001:0008c060       ?detach@?$__crt_unique_heap_ptr@PEA_WU__crt_internal_free_policy@@@@QEAAPEAPEA_WXZ 000000018008d060 f i libucrtd:argv_parsing.obj
 0001:0008c120       ?get@?$__crt_unique_heap_ptr@EU__crt_internal_free_policy@@@@QEBAPEAEXZ 000000018008d120 f i libucrtd:argv_parsing.obj
 0001:0008c130       ?get@?$__crt_unique_heap_ptr@PEADU__crt_internal_free_policy@@@@QEBAPEAPEADXZ 000000018008d130 f i libucrtd:argv_parsing.obj
 0001:0008c140       ?get@?$__crt_unique_heap_ptr@PEA_WU__crt_internal_free_policy@@@@QEBAPEAPEA_WXZ 000000018008d140 f i libucrtd:argv_parsing.obj
 0001:0008c150       ?get_address_of@?$__crt_unique_heap_ptr@PEADU__crt_internal_free_policy@@@@QEAAPEAPEAPEADXZ 000000018008d150 f i libucrtd:argv_parsing.obj
 0001:0008c160       ?get_address_of@?$__crt_unique_heap_ptr@PEA_WU__crt_internal_free_policy@@@@QEAAPEAPEAPEA_WXZ 000000018008d160 f i libucrtd:argv_parsing.obj
 0001:0008c1b0       ?is_valid@?$__crt_unique_heap_ptr@EU__crt_internal_free_policy@@@@QEBA_NXZ 000000018008d1b0 f i libucrtd:argv_parsing.obj
 0001:0008c1e0       ?release@?$__crt_unique_heap_ptr@EU__crt_internal_free_policy@@@@QEAAXXZ 000000018008d1e0 f i libucrtd:argv_parsing.obj
 0001:0008c210       ?release@?$__crt_unique_heap_ptr@PEADU__crt_internal_free_policy@@@@QEAAXXZ 000000018008d210 f i libucrtd:argv_parsing.obj
 0001:0008c240       ?release@?$__crt_unique_heap_ptr@PEA_WU__crt_internal_free_policy@@@@QEAAXXZ 000000018008d240 f i libucrtd:argv_parsing.obj
 0001:0008c2c0       __acrt_allocate_buffer_for_argv 000000018008d2c0 f   libucrtd:argv_parsing.obj
 0001:0008c3e0       _configure_narrow_argv     000000018008d3e0 f   libucrtd:argv_parsing.obj
 0001:0008c400       _configure_wide_argv       000000018008d400 f   libucrtd:argv_parsing.obj
 0001:0008c420       _set_pgmptr                000000018008d420 f i libucrtd:argv_parsing.obj
 0001:0008c440       _set_wpgmptr               000000018008d440 f i libucrtd:argv_parsing.obj
 0001:0008c454       ??$?R_W@__crt_internal_free_policy@@QEBAXQEB_W@Z 000000018008d454 f i libucrtd:environment_initialization.obj
 0001:0008ca2c       ??$get_environment_from_os@$$V@?$__crt_char_traits@D@@SAPEADXZ 000000018008da2c f i libucrtd:environment_initialization.obj
 0001:0008ca34       ??$get_environment_from_os@$$V@?$__crt_char_traits@_W@@SAPEA_WXZ 000000018008da34 f i libucrtd:environment_initialization.obj
 0001:0008cc04       ??$set_variable_in_environment_nolock@PEADH@?$__crt_char_traits@D@@SAH$$QEAPEAD$$QEAH@Z 000000018008dc04 f i libucrtd:environment_initialization.obj
 0001:0008cc10       ??$set_variable_in_environment_nolock@PEA_WH@?$__crt_char_traits@_W@@SAH$$QEAPEA_W$$QEAH@Z 000000018008dc10 f i libucrtd:environment_initialization.obj
 0001:0008cc1c       ??$tcscpy_s@PEADAEB_KAEAPEAD@?$__crt_char_traits@D@@SAH$$QEAPEADAEB_KAEAPEAD@Z 000000018008dc1c f i libucrtd:environment_initialization.obj
 0001:0008cc2c       ??$tcscpy_s@PEA_WAEB_KAEAPEA_W@?$__crt_char_traits@_W@@SAH$$QEAPEA_WAEB_KAEAPEA_W@Z 000000018008dc2c f i libucrtd:environment_initialization.obj
 0001:0008cc3c       ??$tcslen@AEAPEAD@?$__crt_char_traits@D@@SA_KAEAPEAD@Z 000000018008dc3c f i libucrtd:environment_initialization.obj
 0001:0008cc50       ??$tcslen@AEAPEA_W@?$__crt_char_traits@_W@@SA_KAEAPEA_W@Z 000000018008dc50 f i libucrtd:environment_initialization.obj
 0001:0008cc64       ??$uninitialize@A6AXAEAPEAPEAD@Z@?$dual_state_global@PEAPEAD@__crt_state_management@@QEAAXA6AXAEAPEAPEAD@Z@Z 000000018008dc64 f i libucrtd:environment_initialization.obj
 0001:0008cca8       ??$uninitialize@A6AXAEAPEAPEA_W@Z@?$dual_state_global@PEAPEA_W@__crt_state_management@@QEAAXA6AXAEAPEAPEA_W@Z@Z 000000018008dca8 f i libucrtd:environment_initialization.obj
 0001:0008cd24       ??0?$__crt_unique_heap_ptr@_WU__crt_internal_free_policy@@@@QEAA@QEA_W@Z 000000018008dd24 f i libucrtd:environment_initialization.obj
 0001:0008cd2c       ??1?$__crt_unique_heap_ptr@_WU__crt_internal_free_policy@@@@QEAA@XZ 000000018008dd2c f i libucrtd:environment_initialization.obj
 0001:0008cd4c       ??B?$__crt_unique_heap_ptr@PEADU__crt_internal_free_policy@@@@QEBA_NXZ 000000018008dd4c f i libucrtd:environment_initialization.obj
 0001:0008cd54       ??B?$__crt_unique_heap_ptr@PEA_WU__crt_internal_free_policy@@@@QEBA_NXZ 000000018008dd54 f i libucrtd:environment_initialization.obj
 0001:0008cd5c       ??B?$__crt_unique_heap_ptr@_WU__crt_internal_free_policy@@@@QEBA_NXZ 000000018008dd5c f i libucrtd:environment_initialization.obj
 0001:0008cd64       ?__crt_compute_required_transform_buffer_count@@YA_KIQEBD@Z 000000018008dd64 f i libucrtd:environment_initialization.obj
 0001:0008cd88       ?__crt_compute_required_transform_buffer_count@@YA_KIQEB_W@Z 000000018008dd88 f i libucrtd:environment_initialization.obj
 0001:0008cdb8       ?__crt_transform_string@@YA_KIQEBDQEA_W_K@Z 000000018008ddb8 f i libucrtd:environment_initialization.obj
 0001:0008cddc       ?__crt_transform_string@@YA_KIQEB_WQEAD_K@Z 000000018008dddc f i libucrtd:environment_initialization.obj
 0001:0008ce0c       ?detach@?$__crt_unique_heap_ptr@DU__crt_internal_free_policy@@@@QEAAPEADXZ 000000018008de0c f i libucrtd:environment_initialization.obj
 0001:0008ce14       ?detach@?$__crt_unique_heap_ptr@_WU__crt_internal_free_policy@@@@QEAAPEA_WXZ 000000018008de14 f i libucrtd:environment_initialization.obj
 0001:0008ce1c       ?get@?$__crt_unique_heap_ptr@_WU__crt_internal_free_policy@@@@QEBAPEA_WXZ 000000018008de1c f i libucrtd:environment_initialization.obj
 0001:0008ce50       ?initialize@?$dual_state_global@PEAPEAD@__crt_state_management@@QEAAXQEAPEAD@Z 000000018008de50 f i libucrtd:environment_initialization.obj
 0001:0008ce78       ?initialize@?$dual_state_global@PEAPEA_W@__crt_state_management@@QEAAXQEAPEA_W@Z 000000018008de78 f i libucrtd:environment_initialization.obj
 0001:0008cea0       ?is_valid@?$__crt_unique_heap_ptr@PEADU__crt_internal_free_policy@@@@QEBA_NXZ 000000018008dea0 f i libucrtd:environment_initialization.obj
 0001:0008cea8       ?is_valid@?$__crt_unique_heap_ptr@PEA_WU__crt_internal_free_policy@@@@QEBA_NXZ 000000018008dea8 f i libucrtd:environment_initialization.obj
 0001:0008ceb0       ?is_valid@?$__crt_unique_heap_ptr@_WU__crt_internal_free_policy@@@@QEBA_NXZ 000000018008deb0 f i libucrtd:environment_initialization.obj
 0001:0008cec4       ?release@?$__crt_unique_heap_ptr@_WU__crt_internal_free_policy@@@@QEAAXXZ 000000018008dec4 f i libucrtd:environment_initialization.obj
 0001:0008cee4       ?value@?$dual_state_global@PEAPEAD@__crt_state_management@@QEAAAEAPEAPEADXZ 000000018008dee4 f i libucrtd:environment_initialization.obj
 0001:0008cee8       ?value@?$dual_state_global@PEAPEA_W@__crt_state_management@@QEAAAEAPEAPEA_WXZ 000000018008dee8 f i libucrtd:environment_initialization.obj
 0001:0008ceec       __dcrt_get_or_create_narrow_environment_nolock 000000018008deec f   libucrtd:environment_initialization.obj
 0001:0008cf28       __dcrt_get_or_create_wide_environment_nolock 000000018008df28 f   libucrtd:environment_initialization.obj
 0001:0008cf64       __dcrt_uninitialize_environments_nolock 000000018008df64 f   libucrtd:environment_initialization.obj
 0001:0008cf9c       __p__environ               000000018008df9c f   libucrtd:environment_initialization.obj
 0001:0008cfa4       __p__wenviron              000000018008dfa4 f   libucrtd:environment_initialization.obj
 0001:0008cfac       _get_initial_narrow_environment 000000018008dfac f   libucrtd:environment_initialization.obj
 0001:0008cffc       _get_initial_wide_environment 000000018008dffc f   libucrtd:environment_initialization.obj
 0001:0008d04c       _initialize_narrow_environment 000000018008e04c f   libucrtd:environment_initialization.obj
 0001:0008d054       _initialize_wide_environment 000000018008e054 f   libucrtd:environment_initialization.obj
 0001:0008d060       ??$?B$$A6AXXZ@__crt_fast_encoded_nullptr_t@@QEBAP6AXXZXZ 000000018008e060 f i libucrtd:onexit.obj
 0001:0008d080       ??$?BP6AXXZ@__crt_fast_encoded_nullptr_t@@QEBAPEAP6AXXZXZ 000000018008e080 f i libucrtd:onexit.obj
 0001:0008d0a0       ??$?RP6AXXZ@__crt_internal_free_policy@@QEBAXQEBQ6AXXZ@Z 000000018008e0a0 f i libucrtd:onexit.obj
 0001:0008d210       ??$__crt_fast_decode_pointer@P6AXXZ@@YAP6AXXZQ6AXXZ@Z 000000018008e210 f i libucrtd:onexit.obj
 0001:0008d250       ??$__crt_fast_decode_pointer@PEAP6AXXZ@@YAPEAP6AXXZQEAP6AXXZ@Z 000000018008e250 f i libucrtd:onexit.obj
 0001:0008d290       ??$__crt_fast_encode_pointer@P6AHXZ@@YAP6AHXZQ6AHXZ@Z 000000018008e290 f i libucrtd:onexit.obj
 0001:0008d2d0       ??$__crt_fast_encode_pointer@P6AXXZ@@YAP6AXXZQ6AXXZ@Z 000000018008e2d0 f i libucrtd:onexit.obj
 0001:0008d310       ??$__crt_fast_encode_pointer@PEAP6AXXZ@@YAPEAP6AXXZQEAP6AXXZ@Z 000000018008e310 f i libucrtd:onexit.obj
 0001:0008d420       ??0?$__crt_unique_heap_ptr@P6AXXZU__crt_internal_free_policy@@@@QEAA@QEAP6AXXZ@Z 000000018008e420 f i libucrtd:onexit.obj
 0001:0008d440       ??1?$__crt_unique_heap_ptr@P6AXXZU__crt_internal_free_policy@@@@QEAA@XZ 000000018008e440 f i libucrtd:onexit.obj
 0001:0008d460       ??1scoped_global_state_reset@__crt_state_management@@QEAA@XZ 000000018008e460 f i libucrtd:onexit.obj
 0001:0008da30       ?detach@?$__crt_unique_heap_ptr@P6AXXZU__crt_internal_free_policy@@@@QEAAPEAP6AXXZXZ 000000018008ea30 f i libucrtd:onexit.obj
 0001:0008da60       ?release@?$__crt_unique_heap_ptr@P6AXXZU__crt_internal_free_policy@@@@QEAAXXZ 000000018008ea60 f i libucrtd:onexit.obj
 0001:0008da90       _crt_at_quick_exit         000000018008ea90 f   libucrtd:onexit.obj
 0001:0008dab0       _crt_atexit                000000018008eab0 f   libucrtd:onexit.obj
 0001:0008dad0       _execute_onexit_table      000000018008ead0 f   libucrtd:onexit.obj
 0001:0008db10       _initialize_onexit_table   000000018008eb10 f   libucrtd:onexit.obj
 0001:0008db90       _register_onexit_function  000000018008eb90 f   libucrtd:onexit.obj
 0001:0008de00       ??$?BX@__crt_fast_encoded_nullptr_t@@QEBAPEAXXZ 000000018008ee00 f i libucrtd:initialization.obj
 0001:0008de20       ??$__crt_fast_encode_pointer@PEAX@@YAPEAXQEAX@Z 000000018008ee20 f i libucrtd:initialization.obj
 0001:0008df10       ?initialize@?$dual_state_global@PEAU__crt_locale_data@@@__crt_state_management@@QEAAXQEAU__crt_locale_data@@@Z 000000018008ef10 f i libucrtd:initialization.obj
 0001:0008df60       __acrt_initialize          000000018008ef60 f   libucrtd:initialization.obj
 0001:0008df90       __acrt_thread_attach       000000018008ef90 f   libucrtd:initialization.obj
 0001:0008dfb0       __acrt_thread_detach       000000018008efb0 f   libucrtd:initialization.obj
 0001:0008dfc0       __acrt_uninitialize        000000018008efc0 f   libucrtd:initialization.obj
 0001:0008dff0       __acrt_uninitialize_critical 000000018008eff0 f   libucrtd:initialization.obj
 0001:0008ffe0       _CrtCheckMemory            0000000180090fe0 f   libucrtd:debug_heap.obj
 0001:00090170       _CrtDoForAllClientObjects  0000000180091170 f   libucrtd:debug_heap.obj
 0001:000902a0       _CrtDumpMemoryLeaks        00000001800912a0 f   libucrtd:debug_heap.obj
 0001:00090360       _CrtGetAllocHook           0000000180091360 f   libucrtd:debug_heap.obj
 0001:00090370       _CrtGetDumpClient          0000000180091370 f   libucrtd:debug_heap.obj
 0001:00090380       _CrtIsMemoryBlock          0000000180091380 f   libucrtd:debug_heap.obj
 0001:000904c0       _CrtIsValidHeapPointer     00000001800914c0 f   libucrtd:debug_heap.obj
 0001:00090500       _CrtIsValidPointer         0000000180091500 f   libucrtd:debug_heap.obj
 0001:00090540       _CrtMemCheckpoint          0000000180091540 f   libucrtd:debug_heap.obj
 0001:000907c0       _CrtMemDifference          00000001800917c0 f   libucrtd:debug_heap.obj
 0001:00090b20       _CrtMemDumpAllObjectsSince 0000000180091b20 f   libucrtd:debug_heap.obj
 0001:00090b80       _CrtMemDumpStatistics      0000000180091b80 f   libucrtd:debug_heap.obj
 0001:00090d20       _CrtReportBlockType        0000000180091d20 f   libucrtd:debug_heap.obj
 0001:00090d50       _CrtSetAllocHook           0000000180091d50 f   libucrtd:debug_heap.obj
 0001:00090d80       _CrtSetBreakAlloc          0000000180091d80 f   libucrtd:debug_heap.obj
 0001:00090db0       _CrtSetDbgBlockType        0000000180091db0 f   libucrtd:debug_heap.obj
 0001:00090e50       _CrtSetDbgFlag             0000000180091e50 f   libucrtd:debug_heap.obj
 0001:00090fb0       _CrtSetDumpClient          0000000180091fb0 f   libucrtd:debug_heap.obj
 0001:00090fe0       __acrt_get_locale_data_prefix 0000000180091fe0 f i libucrtd:debug_heap.obj
 0001:00091000       __p__crtBreakAlloc         0000000180092000 f   libucrtd:debug_heap.obj
 0001:00091010       __p__crtDbgFlag            0000000180092010 f   libucrtd:debug_heap.obj
 0001:00091020       _aligned_free_dbg          0000000180092020 f   libucrtd:debug_heap.obj
 0001:00091110       _aligned_malloc_dbg        0000000180092110 f   libucrtd:debug_heap.obj
 0001:00091150       _aligned_msize_dbg         0000000180092150 f   libucrtd:debug_heap.obj
 0001:00091320       _aligned_offset_malloc_dbg 0000000180092320 f   libucrtd:debug_heap.obj
 0001:00091610       _aligned_offset_realloc_dbg 0000000180092610 f   libucrtd:debug_heap.obj
 0001:00091ac0       _aligned_offset_recalloc_dbg 0000000180092ac0 f   libucrtd:debug_heap.obj
 0001:00091be0       _aligned_realloc_dbg       0000000180092be0 f   libucrtd:debug_heap.obj
 0001:00091c30       _aligned_recalloc_dbg      0000000180092c30 f   libucrtd:debug_heap.obj
 0001:00091c90       _calloc_dbg                0000000180092c90 f   libucrtd:debug_heap.obj
 0001:00091d30       _chvalidchk_l              0000000180092d30 f i libucrtd:debug_heap.obj
 0001:00091d60       _expand_dbg                0000000180092d60 f   libucrtd:debug_heap.obj
 0001:00091e90       _free_dbg                  0000000180092e90 f   libucrtd:debug_heap.obj
 0001:00091f00       _ischartype_l              0000000180092f00 f i libucrtd:debug_heap.obj
 0001:00091f90       _malloc_dbg                0000000180092f90 f   libucrtd:debug_heap.obj
 0001:00091fd0       _msize_dbg                 0000000180092fd0 f   libucrtd:debug_heap.obj
 0001:00092170       _realloc_dbg               0000000180093170 f   libucrtd:debug_heap.obj
 0001:000921e0       _recalloc_dbg              00000001800931e0 f   libucrtd:debug_heap.obj
 0001:000922e0       _initterm                  00000001800932e0 f   libucrtd:initterm.obj
 0001:00092340       _initterm_e                0000000180093340 f   libucrtd:initterm.obj
 0001:00092890       strcpy_s                   0000000180093890 f   libucrtd:strcpy_s.obj
 0001:00092f30       strcat_s                   0000000180093f30 f   libucrtd:strcat_s.obj
 0001:00092f60       ??$?B$$A6AH_K@Z@__crt_fast_encoded_nullptr_t@@QEBAP6AH_K@ZXZ 0000000180093f60 f i libucrtd:new_handler.obj
 0001:00092f80       ??$__crt_fast_decode_pointer@P6AH_K@Z@@YAP6AH_K@ZQ6AH0@Z@Z 0000000180093f80 f i libucrtd:new_handler.obj
 0001:00092fc0       ??$__crt_fast_encode_pointer@P6AH_K@Z@@YAP6AH_K@ZQ6AH0@Z@Z 0000000180093fc0 f i libucrtd:new_handler.obj
 0001:00093000       ?_set_new_handler@@YAP6AH_K@ZH@Z 0000000180094000 f   libucrtd:new_handler.obj
 0001:00093070       ?initialize@?$dual_state_global@P6AH_K@Z@__crt_state_management@@QEAAXQ6AH_K@Z@Z 0000000180094070 f i libucrtd:new_handler.obj
 0001:000930c0       ?value@?$dual_state_global@P6AH_K@Z@__crt_state_management@@QEAAAEAP6AH_K@ZXZ 00000001800940c0 f i libucrtd:new_handler.obj
 0001:000930e0       __acrt_initialize_new_handler 00000001800940e0 f   libucrtd:new_handler.obj
 0001:00093100       _callnewh                  0000000180094100 f   libucrtd:new_handler.obj
 0001:00093150       _query_new_handler         0000000180094150 f   libucrtd:new_handler.obj
 0001:00093190       _set_new_handler           0000000180094190 f   libucrtd:new_handler.obj
 0001:00093240       _get_terminate             0000000180094240 f   libucrtd:terminate.obj
 0001:00093260       set_terminate              0000000180094260 f   libucrtd:terminate.obj
 0001:000932a0       terminate                  00000001800942a0 f   libucrtd:terminate.obj
 0001:000940a0       _makepath                  00000001800950a0 f   libucrtd:makepath.obj
 0001:000940f0       _makepath_s                00000001800950f0 f   libucrtd:makepath.obj
 0001:00094140       _wmakepath                 0000000180095140 f   libucrtd:makepath.obj
 0001:00094190       _wmakepath_s               0000000180095190 f   libucrtd:makepath.obj
 0001:000967c0       ??$tcsncpy_s@AEAPEAD_KAEAPEBDAEB_K@?$__crt_char_traits@D@@SAHAEAPEAD$$QEA_KAEAPEBDAEB_K@Z 00000001800977c0 f i libucrtd:splitpath.obj
 0001:00096810       ??$tcsncpy_s@AEAPEAD_KAEAPEBDH@?$__crt_char_traits@D@@SAHAEAPEAD$$QEA_KAEAPEBD$$QEAH@Z 0000000180097810 f i libucrtd:splitpath.obj
 0001:00096860       ??$tcsncpy_s@AEAPEA_W_KAEAPEB_WAEB_K@?$__crt_char_traits@_W@@SAHAEAPEA_W$$QEA_KAEAPEB_WAEB_K@Z 0000000180097860 f i libucrtd:splitpath.obj
 0001:000968b0       ??$tcsncpy_s@AEAPEA_W_KAEAPEB_WH@?$__crt_char_traits@_W@@SAHAEAPEA_W$$QEA_KAEAPEB_W$$QEAH@Z 00000001800978b0 f i libucrtd:splitpath.obj
 0001:00096b60       _splitpath                 0000000180097b60 f   libucrtd:splitpath.obj
 0001:00096ba0       _splitpath_s               0000000180097ba0 f   libucrtd:splitpath.obj
 0001:00096c40       _wsplitpath                0000000180097c40 f   libucrtd:splitpath.obj
 0001:00096c80       _wsplitpath_s              0000000180097c80 f   libucrtd:splitpath.obj
 0001:00096d20       _set_abort_behavior        0000000180097d20 f   libucrtd:abort.obj
 0001:00096d60       abort                      0000000180097d60 f   libucrtd:abort.obj
 0001:00096df0       strcmp                     0000000180097df0 f   libucrtd:strcmp.obj
 0001:00096e70       strlen                     0000000180097e70 f   libucrtd:strlen.obj
 0001:00096f20       ??$is_overflow_condition@K@__crt_strtox@@YA_NIK@Z 0000000180097f20 f i libucrtd:atox.obj
 0001:00096f90       ??$is_overflow_condition@_K@__crt_strtox@@YA_NI_K@Z 0000000180097f90 f i libucrtd:atox.obj
 0001:00097000       ??$make_c_string_character_source@D$$T@__crt_strtox@@YA?AV?$c_string_character_source@D@0@QEBD$$T@Z 0000000180098000 f i libucrtd:atox.obj
 0001:00097040       ??$make_c_string_character_source@_W$$T@__crt_strtox@@YA?AV?$c_string_character_source@_W@0@QEB_W$$T@Z 0000000180098040 f i libucrtd:atox.obj
 0001:00097080       ??$parse_integer@KV?$c_string_character_source@D@__crt_strtox@@@__crt_strtox@@YAKQEAU__crt_locale_pointers@@V?$c_string_character_source@D@0@H_N@Z 0000000180098080 f i libucrtd:atox.obj
 0001:00097510       ??$parse_integer@KV?$c_string_character_source@_W@__crt_strtox@@@__crt_strtox@@YAKQEAU__crt_locale_pointers@@V?$c_string_character_source@_W@0@H_N@Z 0000000180098510 f i libucrtd:atox.obj
 0001:000979c0       ??$parse_integer@_KV?$c_string_character_source@D@__crt_strtox@@@__crt_strtox@@YA_KQEAU__crt_locale_pointers@@V?$c_string_character_source@D@0@H_N@Z 00000001800989c0 f i libucrtd:atox.obj
 0001:00097ee0       ??$parse_integer@_KV?$c_string_character_source@_W@__crt_strtox@@@__crt_strtox@@YA_KQEAU__crt_locale_pointers@@V?$c_string_character_source@_W@0@H_N@Z 0000000180098ee0 f i libucrtd:atox.obj
 0001:00098400       ??$parse_integer_from_string@JD$$T@__crt_strtox@@YAJQEBD$$THQEAU__crt_locale_pointers@@@Z 0000000180099400 f i libucrtd:atox.obj
 0001:00098450       ??$parse_integer_from_string@J_W$$T@__crt_strtox@@YAJQEB_W$$THQEAU__crt_locale_pointers@@@Z 0000000180099450 f i libucrtd:atox.obj
 0001:000984a0       ??$parse_integer_from_string@_JD$$T@__crt_strtox@@YA_JQEBD$$THQEAU__crt_locale_pointers@@@Z 00000001800994a0 f i libucrtd:atox.obj
 0001:000984f0       ??$parse_integer_from_string@_J_W$$T@__crt_strtox@@YA_JQEB_W$$THQEAU__crt_locale_pointers@@@Z 00000001800994f0 f i libucrtd:atox.obj
 0001:00098540       ??0?$c_string_character_source@D@__crt_strtox@@QEAA@QEBDQEAPEBD@Z 0000000180099540 f i libucrtd:atox.obj
 0001:00098590       ??0?$c_string_character_source@_W@__crt_strtox@@QEAA@QEB_WQEAPEB_W@Z 0000000180099590 f i libucrtd:atox.obj
 0001:000985e0       ??1?$c_string_character_source@D@__crt_strtox@@QEAA@XZ 00000001800995e0 f i libucrtd:atox.obj
 0001:00098610       ??1?$c_string_character_source@_W@__crt_strtox@@QEAA@XZ 0000000180099610 f i libucrtd:atox.obj
 0001:00098640       ?get@?$c_string_character_source@D@__crt_strtox@@QEAADXZ 0000000180099640 f i libucrtd:atox.obj
 0001:00098680       ?get@?$c_string_character_source@_W@__crt_strtox@@QEAA_WXZ 0000000180099680 f i libucrtd:atox.obj
 0001:000986c0       ?is_space@__crt_strtox@@YA_NDQEAU__crt_locale_pointers@@@Z 00000001800996c0 f i libucrtd:atox.obj
 0001:00098710       ?is_space@__crt_strtox@@YA_N_WPEAU__crt_locale_pointers@@@Z 0000000180099710 f i libucrtd:atox.obj
 0001:00098750       ?maximum_signed_value@__crt_strtox@@YAJK@Z 0000000180099750 f i libucrtd:atox.obj
 0001:00098760       ?maximum_signed_value@__crt_strtox@@YA_J_K@Z 0000000180099760 f i libucrtd:atox.obj
 0001:00098770       ?minimum_signed_value@__crt_strtox@@YAJK@Z 0000000180099770 f i libucrtd:atox.obj
 0001:00098780       ?minimum_signed_value@__crt_strtox@@YA_J_K@Z 0000000180099780 f i libucrtd:atox.obj
 0001:00098790       ?parse_digit@__crt_strtox@@YAID@Z 0000000180099790 f i libucrtd:atox.obj
 0001:00098800       ?parse_digit@__crt_strtox@@YAI_W@Z 0000000180099800 f i libucrtd:atox.obj
 0001:00098850       ?restore_state@?$c_string_character_source@D@__crt_strtox@@QEAA_NQEBD@Z 0000000180099850 f i libucrtd:atox.obj
 0001:00098870       ?restore_state@?$c_string_character_source@_W@__crt_strtox@@QEAA_NQEB_W@Z 0000000180099870 f i libucrtd:atox.obj
 0001:00098890       ?save_state@?$c_string_character_source@D@__crt_strtox@@QEBAPEBDXZ 0000000180099890 f i libucrtd:atox.obj
 0001:000988a0       ?save_state@?$c_string_character_source@_W@__crt_strtox@@QEBAPEB_WXZ 00000001800998a0 f i libucrtd:atox.obj
 0001:000988b0       ?unget@?$c_string_character_source@D@__crt_strtox@@QEAAXD@Z 00000001800998b0 f i libucrtd:atox.obj
 0001:00098990       ?unget@?$c_string_character_source@_W@__crt_strtox@@QEAAX_W@Z 0000000180099990 f i libucrtd:atox.obj
 0001:00098a70       ?validate@?$c_string_character_source@D@__crt_strtox@@QEBA_NXZ 0000000180099a70 f i libucrtd:atox.obj
 0001:00098b30       ?validate@?$c_string_character_source@_W@__crt_strtox@@QEBA_NXZ 0000000180099b30 f i libucrtd:atox.obj
 0001:00098bf0       ?wide_character_to_digit@__crt_strtox@@YAH_W@Z 0000000180099bf0 f i libucrtd:atox.obj
 0001:00098f60       __ascii_iswalpha           0000000180099f60 f i libucrtd:atox.obj
 0001:00098fa0       __ascii_toupper            0000000180099fa0 f i libucrtd:atox.obj
 0001:00098fc0       __ascii_towupper           0000000180099fc0 f i libucrtd:atox.obj
 0001:00098fe0       _atoi64                    0000000180099fe0 f   libucrtd:atox.obj
 0001:00099010       _atoi64_l                  000000018009a010 f   libucrtd:atox.obj
 0001:00099040       _atoi_l                    000000018009a040 f   libucrtd:atox.obj
 0001:00099070       _atol_l                    000000018009a070 f   libucrtd:atox.obj
 0001:000990a0       _atoll_l                   000000018009a0a0 f   libucrtd:atox.obj
 0001:000990d0       _wtoi                      000000018009a0d0 f   libucrtd:atox.obj
 0001:00099100       _wtoi64                    000000018009a100 f   libucrtd:atox.obj
 0001:00099130       _wtoi64_l                  000000018009a130 f   libucrtd:atox.obj
 0001:00099160       _wtoi_l                    000000018009a160 f   libucrtd:atox.obj
 0001:00099190       _wtol                      000000018009a190 f   libucrtd:atox.obj
 0001:000991c0       _wtol_l                    000000018009a1c0 f   libucrtd:atox.obj
 0001:000991f0       _wtoll                     000000018009a1f0 f   libucrtd:atox.obj
 0001:00099220       _wtoll_l                   000000018009a220 f   libucrtd:atox.obj
 0001:00099250       atoi                       000000018009a250 f   libucrtd:atox.obj
 0001:00099280       atol                       000000018009a280 f   libucrtd:atox.obj
 0001:000992b0       atoll                      000000018009a2b0 f   libucrtd:atox.obj
 0001:000992f0       strncmp                    000000018009a2f0 f   libucrtd:strncmp.obj
 0001:00099370       wcsncmp                    000000018009a370 f   libucrtd:wcsncmp.obj
 0001:00099400       _CrtGetDebugFillThreshold  000000018009a400 f   libucrtd:debug_fill_threshold.obj
 0001:00099410       _CrtSetDebugFillThreshold  000000018009a410 f   libucrtd:debug_fill_threshold.obj
 0001:00099440       ??$make_c_string_character_source@DPEAPEAD@__crt_strtox@@YA?AV?$c_string_character_source@D@0@QEBDQEAPEAD@Z 000000018009a440 f i libucrtd:strtox.obj
 0001:00099480       ??$make_c_string_character_source@_WPEAPEA_W@__crt_strtox@@YA?AV?$c_string_character_source@_W@0@QEB_WQEAPEA_W@Z 000000018009a480 f i libucrtd:strtox.obj
 0001:000994c0       ??$parse_integer_from_string@JDPEAPEAD@__crt_strtox@@YAJQEBDQEAPEADHQEAU__crt_locale_pointers@@@Z 000000018009a4c0 f i libucrtd:strtox.obj
 0001:00099510       ??$parse_integer_from_string@J_WPEAPEA_W@__crt_strtox@@YAJQEB_WQEAPEA_WHQEAU__crt_locale_pointers@@@Z 000000018009a510 f i libucrtd:strtox.obj
