 OPOSToneIndicator

 Timestamp is 5ed45a20 (Mon Jun  1 10:30:08 2020)

 Preferred load address is 0000000180000000

 Start         Length     Name                   Class
 0001:00000000 00001400H .text$di                CODE
 0001:00001400 000d51f0H .text$mn                CODE
 0001:000d65f0 00000040H .text$mn$00             CODE
 0001:000d6630 00001390H .text$x                 CODE
 0001:000d79c0 000001b4H .text$yd                CODE
 0002:00000000 000006d8H .idata$5                DATA
 0002:000006d8 00000028H .00cfg                  DATA
 0002:00000700 00000008H .CRT$XCA                DATA
 0002:00000708 00000008H .CRT$XCL                DATA
 0002:00000710 000000d8H .CRT$XCU                DATA
 0002:000007e8 00000008H .CRT$XCZ                DATA
 0002:000007f0 00000008H .CRT$XIA                DATA
 0002:000007f8 00000028H .CRT$XIC                DATA
 0002:00000820 00000008H .CRT$XIZ                DATA
 0002:00000828 00000008H .CRT$XLA                DATA
 0002:00000830 00000008H .CRT$XLZ                DATA
 0002:00000838 00000008H .CRT$XPA                DATA
 0002:00000840 00000010H .CRT$XPX                DATA
 0002:00000850 00000008H .CRT$XPXA               DATA
 0002:00000858 00000008H .CRT$XPZ                DATA
 0002:00000860 00000008H .CRT$XTA                DATA
 0002:00000868 00000008H .CRT$XTZ                DATA
 0002:00000870 00000000H .gfids$y                DATA
 0002:00000870 0003bb40H .rdata                  DATA
 0002:0003c3b0 00000028H .rdata$T                DATA
 0002:0003c3d8 0000056cH .rdata$r                DATA
 0002:0003c944 00000434H .rdata$zzzdbg           DATA
 0002:0003cd78 00000008H .rtc$IAA                DATA
 0002:0003cd80 00000030H .rtc$IMZ                DATA
 0002:0003cdb0 00000008H .rtc$IZZ                DATA
 0002:0003cdb8 00000008H .rtc$TAA                DATA
 0002:0003cdc0 00000030H .rtc$TMZ                DATA
 0002:0003cdf0 00000008H .rtc$TZZ                DATA
 0002:0003cdf8 00000004H .tls                    DATA
 0002:0003cdfc 00000004H .tls$                   DATA
 0002:0003ce00 00000010H .tls$ZZZ                DATA
 0002:0003ce10 00009808H .xdata                  DATA
 0002:00046618 00000150H .xdata$x                DATA
 0002:00046768 00000008H ATL$__a                 DATA
 0002:00046770 00000010H ATL$__z                 DATA
 0002:00046780 000000b0H .edata                  DATA
 0002:00046830 00000078H .idata$2                DATA
 0002:000468a8 00000018H .idata$3                DATA
 0002:000468c0 000006d8H .idata$4                DATA
 0002:00046f98 00000dbeH .idata$6                DATA
 0003:00000000 00000ed8H .data                   DATA
 0003:00000ed8 00000198H .data$r                 DATA
 0003:00001070 00003e9cH .bss                    DATA
 0004:00000000 0000c1c8H .pdata                  DATA
 0005:00000000 00000094H _RDATA                  DATA
 0006:00000000 00000220H .rsrc$01                DATA
 0006:00000220 00004368H .rsrc$02                DATA

  Address         Publics by Value              Rva+Base               Lib:Object

 0000:00000000       ___safe_se_handler_count   0000000000000000     <absolute>
 0000:00000000       __AbsoluteZero             0000000000000000     <absolute>
 0000:00000000       __guard_eh_cont_count      0000000000000000     <absolute>
 0000:00000000       __guard_iat_table          0000000000000000     <absolute>
 0000:00000000       __arm64x_native_entrypoint 0000000000000000     <absolute>
 0000:00000000       __volatile_metadata        0000000000000000     <absolute>
 0000:00000000       __hybrid_auxiliary_iat     0000000000000000     <absolute>
 0000:00000000       __guard_eh_cont_table      0000000000000000     <absolute>
 0000:00000000       __guard_iat_count          0000000000000000     <absolute>
 0000:00000000       __arm64x_redirection_metadata 0000000000000000     <absolute>
 0000:00000000       __guard_longjmp_table      0000000000000000     <absolute>
 0000:00000000       ___safe_se_handler_table   0000000000000000     <absolute>
 0000:00000000       __enclave_config           0000000000000000     <absolute>
 0000:00000000       __guard_fids_table         0000000000000000     <absolute>
 0000:00000000       __hybrid_code_map          0000000000000000     <absolute>
 0000:00000000       __guard_longjmp_count      0000000000000000     <absolute>
 0000:00000000       __x64_code_ranges_to_entry_points 0000000000000000     <absolute>
 0000:00000000       __dynamic_value_reloc_table 0000000000000000     <absolute>
 0000:00000000       __guard_fids_count         0000000000000000     <absolute>
 0000:00000000       __hybrid_code_map_count    0000000000000000     <absolute>
 0000:00000100       __guard_flags              0000000000000100     <absolute>
 0000:00000000       __ImageBase                0000000180000000     <linker-defined>
 0001:00001400       ?_assert@@YAXPEB_W0I@Z     0000000180002400 f   Assert.obj
 0001:00001500       __local_stdio_printf_options 0000000180002500 f i Assert.obj
 0001:00001510       __vswprintf_l              0000000180002510 f i Assert.obj
 0001:00001570       _swprintf                  0000000180002570 f i Assert.obj
 0001:000015f0       _vswprintf_c_l             00000001800025f0 f i Assert.obj
 0001:00001680       _vswprintf_l               0000000180002680 f i Assert.obj
 0001:000016e0       ?cw_memcpy@@YAHPEADPEB_WH@Z 00000001800026e0 f   CWString.obj
 0001:00001770       ?cw_memcpy@@YAHPEA_WPEBDH@Z 0000000180002770 f   CWString.obj
 0001:000017f0       ?cw_memcpy@@YAHPEADPEBDH@Z 00000001800027f0 f   CWString.obj
 0001:00001890       ?cw_memcpy@@YAHPEA_WPEB_WH@Z 0000000180002890 f   CWString.obj
 0001:00001900       ?cw_memset@@YAXPEADDH@Z    0000000180002900 f   CWString.obj
 0001:00001970       ?cw_memset@@YAXPEA_W_WH@Z  0000000180002970 f   CWString.obj
 0001:00001a10       ?cw_strlen@@YAHPEBD@Z      0000000180002a10 f   CWString.obj
 0001:00001a80       ?cw_strlen@@YAHPEB_W@Z     0000000180002a80 f   CWString.obj
 0001:00001af0       ?cw_strcpy@@YAHPEADPEB_W@Z 0000000180002af0 f   CWString.obj
 0001:00001b40       ?cw_strcpy@@YAHPEA_WPEBD@Z 0000000180002b40 f   CWString.obj
 0001:00001b90       ?cw_strcpy@@YAHPEADPEBD@Z  0000000180002b90 f   CWString.obj
 0001:00001be0       ?cw_strcpy@@YAHPEA_WPEB_W@Z 0000000180002be0 f   CWString.obj
 0001:00001c30       ?cw_strcat@@YAHPEADPEB_W@Z 0000000180002c30 f   CWString.obj
 0001:00001c90       ?cw_strcat@@YAHPEA_WPEBD@Z 0000000180002c90 f   CWString.obj
 0001:00001cf0       ?cw_strcat@@YAHPEADPEBD@Z  0000000180002cf0 f   CWString.obj
 0001:00001d50       ?cw_strcat@@YAHPEA_WPEB_W@Z 0000000180002d50 f   CWString.obj
 0001:00001db0       ?cw_dup@@YAXPEBDAEAHAEAPEA_W1@Z 0000000180002db0 f   CWString.obj
 0001:00001ec0       ?cw_dup@@YAXPEB_WAEAHAEAPEAD1@Z 0000000180002ec0 f   CWString.obj
 0001:00001fb0       ?DupChar@_CW@@AEAAXXZ      0000000180002fb0 f   CWString.obj
 0001:00002010       ?DupWide@_CW@@AEAAXXZ      0000000180003010 f   CWString.obj
 0001:00002080       ?GetCharsMbcs@_CW@@QEAAHXZ 0000000180003080 f   CWString.obj
 0001:000020f0       ?GetCharsWide@_CW@@QEAAHXZ 00000001800030f0 f   CWString.obj
 0001:00002160       ?SetVARIANT_BOOL@OposVariant@@QEAAXF@Z 0000000180003160 f   OposVariant.obj
 0001:000021d0       ?SetVARIANT_BOOL_Ptr@OposVariant@@QEAAXPEAFAEAJ@Z 00000001800031d0 f   OposVariant.obj
 0001:00002240       ?GetLONG@OposVariant@@QEAAJXZ 0000000180003240 f   OposVariant.obj
 0001:000022a0       ?ChangeLONG@OposVariant@@QEAAXPEAJAEAJ@Z 00000001800032a0 f   OposVariant.obj
 0001:00002350       ?SetLONG@OposVariant@@QEAAXJ@Z 0000000180003350 f   OposVariant.obj
 0001:000023b0       ?SetLONG_Ptr@OposVariant@@QEAAXPEAJAEAJ@Z 00000001800033b0 f   OposVariant.obj
 0001:00002420       ?ChangeCURRENCY@OposVariant@@QEAAXPEATtagCY@@AEAJ@Z 0000000180003420 f   OposVariant.obj
 0001:000024d0       ?SetCURRENCY@OposVariant@@QEAAXTtagCY@@@Z 00000001800034d0 f   OposVariant.obj
 0001:00002530       ?SetCURRENCY_Ptr@OposVariant@@QEAAXPEATtagCY@@AEAJ@Z 0000000180003530 f   OposVariant.obj
 0001:000025a0       ?ChangeBSTR@OposVariant@@QEAAXPEAPEA_WAEAJ@Z 00000001800035a0 f   OposVariant.obj
 0001:00002650       ?SetBSTR@OposVariant@@QEAAXPEA_WAEAJ@Z 0000000180003650 f   OposVariant.obj
 0001:000026d0       ?SetBSTR_Copy@OposVariant@@QEAAXPEA_WAEAJ@Z 00000001800036d0 f   OposVariant.obj
 0001:00002780       ?SetBSTR_OutPtr@OposVariant@@QEAA_NPEAPEA_WAEAJ@Z 0000000180003780 f   OposVariant.obj
 0001:000027f0       ?SetBSTR_InOutPtr@OposVariant@@QEAA_NPEAPEA_WAEAJ@Z 00000001800037f0 f   OposVariant.obj
 0001:00002870       ?SetVARIANT@OposVariant@@QEAAXAEAUtagVARIANT@@GAEAJ@Z 0000000180003870 f   OposVariant.obj
 0001:00002910       ?SetVARIANT_Ptr@OposVariant@@QEAAXAEAPEAUtagVARIANT@@GAEAJ@Z 0000000180003910 f   OposVariant.obj
 0001:000029c0       ?SetString@OposVariant@@QEAAXPEB_WAEAJ@Z 00000001800039c0 f   OposVariant.obj
 0001:00002a70       ?SetDispatch_Ptr@OposVariant@@QEAAXPEAUIDispatch@@AEAJ@Z 0000000180003a70 f   OposVariant.obj
 0001:00002b00       ??0OposDispParms@@QEAA@PEAVOposVariant@@H@Z 0000000180003b00 f   OposVariant.obj
 0001:00002c10       ??1OposDispParms@@QEAA@XZ  0000000180003c10 f   OposVariant.obj
 0001:00002c60       ??$AtlMultiply@_K@ATL@@YAJPEA_K_K1@Z 0000000180003c60 f i OposVariant.obj
 0001:00002ce0       ??0?$CHeapPtr@_WVCCRTAllocator@ATL@@@ATL@@QEAA@XZ 0000000180003ce0 f i OposVariant.obj
 0001:00002d20       ??0?$CHeapPtrBase@_WVCCRTAllocator@ATL@@@ATL@@IEAA@XZ 0000000180003d20 f i OposVariant.obj
 0001:00002d40       ??0?$CSimpleArray@GV?$CSimpleArrayEqualHelper@G@ATL@@@ATL@@QEAA@XZ 0000000180003d40 f i OposVariant.obj
 0001:00002d80       ??0?$CTraceCategoryEx@$00$0A@@ATL@@QEAA@PEB_W@Z 0000000180003d80 f i OposVariant.obj
 0001:00002dc0       ??0?$CTraceCategoryEx@$01$0A@@ATL@@QEAA@PEB_W@Z 0000000180003dc0 f i OposVariant.obj
 0001:00002e00       ??0?$CTraceCategoryEx@$03$0A@@ATL@@QEAA@PEB_W@Z 0000000180003e00 f i OposVariant.obj
 0001:00002e40       ??0?$CTraceCategoryEx@$07$0A@@ATL@@QEAA@PEB_W@Z 0000000180003e40 f i OposVariant.obj
 0001:00002e80       ??0?$CTraceCategoryEx@$0BA@$0A@@ATL@@QEAA@PEB_W@Z 0000000180003e80 f i OposVariant.obj
 0001:00002ec0       ??0?$CTraceCategoryEx@$0BAA@$0A@@ATL@@QEAA@PEB_W@Z 0000000180003ec0 f i OposVariant.obj
 0001:00002f00       ??0?$CTraceCategoryEx@$0BAAA@$0A@@ATL@@QEAA@PEB_W@Z 0000000180003f00 f i OposVariant.obj
 0001:00002f40       ??0?$CTraceCategoryEx@$0BAAAA@$0A@@ATL@@QEAA@PEB_W@Z 0000000180003f40 f i OposVariant.obj
 0001:00002f80       ??0?$CTraceCategoryEx@$0BAAAAA@$0A@@ATL@@QEAA@PEB_W@Z 0000000180003f80 f i OposVariant.obj
 0001:00002fc0       ??0?$CTraceCategoryEx@$0CA@$0A@@ATL@@QEAA@PEB_W@Z 0000000180003fc0 f i OposVariant.obj
 0001:00003000       ??0?$CTraceCategoryEx@$0CAA@$0A@@ATL@@QEAA@PEB_W@Z 0000000180004000 f i OposVariant.obj
 0001:00003040       ??0?$CTraceCategoryEx@$0CAAA@$0A@@ATL@@QEAA@PEB_W@Z 0000000180004040 f i OposVariant.obj
 0001:00003080       ??0?$CTraceCategoryEx@$0CAAAA@$0A@@ATL@@QEAA@PEB_W@Z 0000000180004080 f i OposVariant.obj
 0001:000030c0       ??0?$CTraceCategoryEx@$0CAAAAA@$0A@@ATL@@QEAA@PEB_W@Z 00000001800040c0 f i OposVariant.obj
 0001:00003100       ??0?$CTraceCategoryEx@$0EA@$0A@@ATL@@QEAA@PEB_W@Z 0000000180004100 f i OposVariant.obj
 0001:00003140       ??0?$CTraceCategoryEx@$0EAA@$0A@@ATL@@QEAA@PEB_W@Z 0000000180004140 f i OposVariant.obj
 0001:00003180       ??0?$CTraceCategoryEx@$0EAAA@$0A@@ATL@@QEAA@PEB_W@Z 0000000180004180 f i OposVariant.obj
 0001:000031c0       ??0?$CTraceCategoryEx@$0EAAAA@$0A@@ATL@@QEAA@PEB_W@Z 00000001800041c0 f i OposVariant.obj
 0001:00003200       ??0?$CTraceCategoryEx@$0EAAAAA@$0A@@ATL@@QEAA@PEB_W@Z 0000000180004200 f i OposVariant.obj
 0001:00003240       ??0?$CTraceCategoryEx@$0IA@$0A@@ATL@@QEAA@PEB_W@Z 0000000180004240 f i OposVariant.obj
 0001:00003280       ??0?$CTraceCategoryEx@$0IAA@$0A@@ATL@@QEAA@PEB_W@Z 0000000180004280 f i OposVariant.obj
 0001:000032c0       ??0?$CTraceCategoryEx@$0IAAA@$0A@@ATL@@QEAA@PEB_W@Z 00000001800042c0 f i OposVariant.obj
 0001:00003300       ??0?$CTraceCategoryEx@$0IAAAA@$0A@@ATL@@QEAA@PEB_W@Z 0000000180004300 f i OposVariant.obj
 0001:00003340       ??0CAtlComModule@ATL@@QEAA@XZ 0000000180004340 f i OposVariant.obj
 0001:00003460       ??0CAtlWinModule@ATL@@QEAA@XZ 0000000180004460 f i OposVariant.obj
 0001:00003510       ??0CComCriticalSection@ATL@@QEAA@XZ 0000000180004510 f i OposVariant.obj
 0001:00003550       ??0CPreserveLastError@ATL@@QEAA@XZ 0000000180004550 f i OposVariant.obj
 0001:00003590       ??0CTraceFileAndLineInfo@ATL@@QEAA@PEBDH@Z 0000000180004590 f i OposVariant.obj
 0001:000035c0       ??0_ATL_COM_MODULE70@ATL@@QEAA@XZ 00000001800045c0 f i OposVariant.obj
 0001:00003600       ??0_ATL_WIN_MODULE70@ATL@@QEAA@XZ 0000000180004600 f i OposVariant.obj
 0001:00003650       ??1?$CHeapPtr@_WVCCRTAllocator@ATL@@@ATL@@QEAA@XZ 0000000180004650 f i OposVariant.obj
 0001:00003680       ??1?$CHeapPtrBase@_WVCCRTAllocator@ATL@@@ATL@@QEAA@XZ 0000000180004680 f i OposVariant.obj
 0001:000036b0       ??1?$CSimpleArray@GV?$CSimpleArrayEqualHelper@G@ATL@@@ATL@@QEAA@XZ 00000001800046b0 f i OposVariant.obj
 0001:000036e0       ??1CAtlComModule@ATL@@QEAA@XZ 00000001800046e0 f i OposVariant.obj
 0001:00003720       ??1CAtlWinModule@ATL@@QEAA@XZ 0000000180004720 f i OposVariant.obj
 0001:00003760       ??1CComBSTR@ATL@@QEAA@XZ   0000000180004760 f i OposVariant.obj
 0001:000037a0       ??1CComCriticalSection@ATL@@QEAA@XZ 00000001800047a0 f i OposVariant.obj
 0001:000037b0       ??1CPreserveLastError@ATL@@QEAA@XZ 00000001800047b0 f i OposVariant.obj
 0001:000037f0       ??1_ATL_COM_MODULE70@ATL@@QEAA@XZ 00000001800047f0 f i OposVariant.obj
 0001:00003830       ??1_ATL_WIN_MODULE70@ATL@@QEAA@XZ 0000000180004830 f i OposVariant.obj
 0001:00003880       ??1stringdispid@CComTypeInfoHolder@ATL@@QEAA@XZ 0000000180004880 f i OposVariant.obj
 0001:000038c0       ??A?$CSimpleArray@GV?$CSimpleArrayEqualHelper@G@ATL@@@ATL@@QEAAAEAGH@Z 00000001800048c0 f i OposVariant.obj
 0001:00003970       ??B?$CHeapPtrBase@_WVCCRTAllocator@ATL@@@ATL@@QEBAPEA_WXZ 0000000180004970 f i OposVariant.obj
 0001:00003980       ??B?$CTraceCategoryEx@$01$0A@@ATL@@QEAAIXZ 0000000180004980 f i OposVariant.obj
 0001:00003990       ??B?$CTraceCategoryEx@$0CA@$0A@@ATL@@QEAAIXZ 0000000180004990 f i OposVariant.obj
 0001:000039a0       ??RCTraceFileAndLineInfo@ATL@@QEBAXHIPEB_WZZ 00000001800049a0 f i OposVariant.obj
 0001:00003a50       ??_Estringdispid@CComTypeInfoHolder@ATL@@QEAAPEAXI@Z 0000000180004a50 f i OposVariant.obj
 0001:00003b00       ??_H@YAXPEAX_K1P6APEAX0@Z@Z 0000000180004b00 f i OposVariant.obj
 0001:00003b90       ??_I@YAXPEAX_K1P6AX0@Z@Z   0000000180004b90 f i OposVariant.obj
 0001:00003c40       ?Allocate@?$CHeapPtr@_WVCCRTAllocator@ATL@@@ATL@@QEAA_N_K@Z 0000000180004c40 f i OposVariant.obj
 0001:00003cc0       ?Allocate@CCRTAllocator@ATL@@SAPEAX_K@Z 0000000180004cc0 f i OposVariant.obj
 0001:00003cf0       ?AllocateBytes@?$CHeapPtrBase@_WVCCRTAllocator@ATL@@@ATL@@QEAA_N_K@Z 0000000180004cf0 f i OposVariant.obj
 0001:00003d90       ?AtlWinModuleInit@ATL@@YAJPEAU_ATL_WIN_MODULE70@1@@Z 0000000180004d90 f i OposVariant.obj
 0001:00003e90       ?AtlWinModuleTerm@ATL@@YAJPEAU_ATL_WIN_MODULE70@1@PEAUHINSTANCE__@@@Z 0000000180004e90 f i OposVariant.obj
 0001:00003f80       ?Clear@OposVariant@@QEAAJXZ 0000000180004f80 f i OposVariant.obj
 0001:00003fc0       ?Free@?$CHeapPtrBase@_WVCCRTAllocator@ATL@@@ATL@@QEAAXXZ 0000000180004fc0 f i OposVariant.obj
 0001:00004000       ?Free@CCRTAllocator@ATL@@SAXPEAX@Z 0000000180005000 f i OposVariant.obj
 0001:00004030       ?GetCategoryName@CTrace@ATL@@CAPEA_WI@Z 0000000180005030 f i OposVariant.obj
 0001:000040b0       ?GetModuleInstance@CAtlBaseModule@ATL@@QEAAPEAUHINSTANCE__@@XZ 00000001800050b0 f i OposVariant.obj
 0001:000040d0       ?GetSize@?$CSimpleArray@GV?$CSimpleArrayEqualHelper@G@ATL@@@ATL@@QEBAHXZ 00000001800050d0 f i OposVariant.obj
 0001:000040e0       ?Init@CComCriticalSection@ATL@@QEAAJXZ 00000001800050e0 f i OposVariant.obj
 0001:00004140       ?RegisterCategory@CTrace@ATL@@SAXPEB_WI@Z 0000000180005140 f i OposVariant.obj
 0001:00004220       ?RemoveAll@?$CSimpleArray@GV?$CSimpleArrayEqualHelper@G@ATL@@@ATL@@QEAAXXZ 0000000180005220 f i OposVariant.obj
 0001:000042b0       ?Term@CAtlComModule@ATL@@QEAAXXZ 00000001800052b0 f i OposVariant.obj
 0001:00004390       ?Term@CAtlWinModule@ATL@@QEAAXXZ 0000000180005390 f i OposVariant.obj
 0001:000043d0       ?Term@CComCriticalSection@ATL@@QEAAJXZ 00000001800053d0 f i OposVariant.obj
 0001:00004410       ?TraceV@CTrace@ATL@@CAXPEBDHIIPEB_W@Z 0000000180005410 f i OposVariant.obj
 0001:000046c0       ?TraceV@CTrace@ATL@@SAXPEBDHIIPEB_WPEAD@Z 00000001800056c0 f i OposVariant.obj
 0001:00004870       ?_AtlInitializeCriticalSectionEx@ATL@@YAHPEAU_RTL_CRITICAL_SECTION@@KK@Z 0000000180005870 f i OposVariant.obj
 0001:000048c0       ?_AtlRaiseException@ATL@@YAXKK@Z 00000001800058c0 f i OposVariant.obj
 0001:00004900       HRESULT_FROM_WIN32         0000000180005900 f i OposVariant.obj
 0001:00004950       _vswprintf_s_l             0000000180005950 f i OposVariant.obj
 0001:000049e0       swprintf_s                 00000001800059e0 f i OposVariant.obj
 0001:00004a70       ?ObjectMain@CComObjectRootBase@ATL@@SAX_N@Z 0000000180005a70 f i ToneIndicator.obj
 0001:00004a80       ?GetCategoryMap@CComObjectRootBase@ATL@@SAPEBU_ATL_CATMAP_ENTRY@2@XZ 0000000180005a80 f i ToneIndicator.obj
 0001:00004a90       ?GetObjectDescription@?$CComCoClass@VCOPOSToneIndicator@@$1?CLSID_OPOSToneIndicator@@3U_GUID@@B@ATL@@SAPEB_WXZ 0000000180005a90 f i ToneIndicator.obj
 0001:00004aa0       ?UpdateRegistry@COPOSToneIndicator@@SAJH@Z 0000000180005aa0 f i ToneIndicator.obj
 0001:00004ae0       ?CreateInstance@?$CComCreator@V?$CComObjectCached@VCComClassFactory@ATL@@@ATL@@@ATL@@SAJPEAXAEBU_GUID@@PEAPEAX@Z 0000000180005ae0 f i ToneIndicator.obj
 0001:00004cd0       ?CreateInstance@?$CComCreator2@V?$CComCreator@V?$CComObject@VCOPOSToneIndicator@@@ATL@@@ATL@@V?$CComCreator@V?$CComAggObject@VCOPOSToneIndicator@@@ATL@@@2@@ATL@@SAJPEAXAEBU_GUID@@PEAPEAX@Z 0000000180005cd0 f i ToneIndicator.obj
 0001:00004ee0       DllGetClassObject          0000000180005ee0 f   ToneIndicator.obj
 0001:00004f30       DllCanUnloadNow            0000000180005f30 f   ToneIndicator.obj
 0001:00004f80       DllRegisterServer          0000000180005f80 f   ToneIndicator.obj
 0001:00004fc0       DllUnregisterServer        0000000180005fc0 f   ToneIndicator.obj
 0001:000051c0       DllMain                    00000001800061c0 f   ToneIndicator.obj
 0001:00005240       ??$?2G@Wrapper@?$CSimpleArray@GV?$CSimpleArrayEqualHelper@G@ATL@@@ATL@@SAPEAX_KPEAG@Z 0000000180006240 f i ToneIndicator.obj
 0001:00005260       ??$?2PEA_W@?$Wrapper@PEA_W@?$CSimpleMap@PEA_WPEA_WVCExpansionVectorEqualHelper@ATL@@@ATL@@SAPEAX_KPEAPEA_W@Z 0000000180006260 f i ToneIndicator.obj
 0001:00005280       ??$?4UITypeInfo2@@@?$CComPtr@UITypeInfo@@@ATL@@QEAAPEAUITypeInfo@@AEBV?$CComPtr@UITypeInfo2@@@1@@Z 0000000180006280 f i ToneIndicator.obj
 0001:000052f0       ??$AtlAdd@_K@ATL@@YAJPEA_K_K1@Z 00000001800062f0 f i ToneIndicator.obj
 0001:00005360       ??$AtlAddThrow@_K@ATL@@YA_K_K0@Z 0000000180006360 f i ToneIndicator.obj
 0001:000053d0       ??$AtlModuleRegisterWndClassInfoT@VAtlModuleRegisterWndClassInfoParamW@ATL@@@ATL@@YAGPEAU_ATL_BASE_MODULE70@0@PEAU_ATL_WIN_MODULE70@0@PEAU_ATL_WNDCLASSINFOW@0@PEAP6A_JPEAUHWND__@@I_K_J@ZVAtlModuleRegisterWndClassInfoParamW@0@@Z 00000001800063d0 f i ToneIndicator.obj
 0001:000059a0       ??$AtlMultiply@H@ATL@@YAJPEAHHH@Z 00000001800069a0 f i ToneIndicator.obj
 0001:00005a10       ??$AtlMultiply@K@ATL@@YAJPEAKKK@Z 0000000180006a10 f i ToneIndicator.obj
 0001:00005a80       ??$AtlMultiplyThrow@_K@ATL@@YA_K_K0@Z 0000000180006a80 f i ToneIndicator.obj
 0001:00005af0       ??$QueryInterface@UIPersistStream@@@IUnknown@@QEAAJPEAPEAUIPersistStream@@@Z 0000000180006af0 f i ToneIndicator.obj
 0001:00005b40       ??$QueryInterface@UITypeInfo2@@@IUnknown@@QEAAJPEAPEAUITypeInfo2@@@Z 0000000180006b40 f i ToneIndicator.obj
 0001:00005b90       ??0?$CAtlModuleT@VCComModule@ATL@@@ATL@@QEAA@XZ 0000000180006b90 f i ToneIndicator.obj
 0001:00005bd0       ??0?$CAtlSafeAllocBufferManager@VCCRTAllocator@ATL@@@_ATL_SAFE_ALLOCA_IMPL@ATL@@QEAA@XZ 0000000180006bd0 f i ToneIndicator.obj
 0001:00005bf0       ??0?$CAutoVectorPtr@_W@ATL@@QEAA@XZ 0000000180006bf0 f i ToneIndicator.obj
 0001:00005c10       ??0?$CComAggObject@VCOPOSToneIndicator@@@ATL@@QEAA@PEAX@Z 0000000180006c10 f i ToneIndicator.obj
 0001:00005ca0       ??0?$CComContainedObject@VCOPOSToneIndicator@@@ATL@@QEAA@PEAX@Z 0000000180006ca0 f i ToneIndicator.obj
 0001:00005e40       ??0?$CComCritSecLock@VCComCriticalSection@ATL@@@ATL@@QEAA@AEAVCComCriticalSection@1@_N@Z 0000000180006e40 f i ToneIndicator.obj
 0001:00005eb0       ??0?$CComEnum@UIEnumConnectionPoints@@$1?_GUID_b196b285_bab4_101a_b69c_00aa00341d07@@3U__s_GUID@@BPEAUIConnectionPoint@@V?$_CopyInterface@UIConnectionPoint@@@ATL@@VCComSingleThreadModel@6@@ATL@@QEAA@XZ 0000000180006eb0 f i ToneIndicator.obj
 0001:00005f00       ??0?$CComEnum@UIEnumConnections@@$1?_GUID_b196b287_bab4_101a_b69c_00aa00341d07@@3U__s_GUID@@BUtagCONNECTDATA@@V?$_Copy@UtagCONNECTDATA@@@ATL@@VCComSingleThreadModel@6@@ATL@@QEAA@XZ 0000000180006f00 f i ToneIndicator.obj
 0001:00005f50       ??0?$CComEnumImpl@UIEnumConnectionPoints@@$1?_GUID_b196b285_bab4_101a_b69c_00aa00341d07@@3U__s_GUID@@BPEAUIConnectionPoint@@V?$_CopyInterface@UIConnectionPoint@@@ATL@@@ATL@@QEAA@XZ 0000000180006f50 f i ToneIndicator.obj
 0001:00005fd0       ??0?$CComEnumImpl@UIEnumConnections@@$1?_GUID_b196b287_bab4_101a_b69c_00aa00341d07@@3U__s_GUID@@BUtagCONNECTDATA@@V?$_Copy@UtagCONNECTDATA@@@ATL@@@ATL@@QEAA@XZ 0000000180006fd0 f i ToneIndicator.obj
 0001:00006050       ??0?$CComObject@V?$CComEnum@UIEnumConnectionPoints@@$1?_GUID_b196b285_bab4_101a_b69c_00aa00341d07@@3U__s_GUID@@BPEAUIConnectionPoint@@V?$_CopyInterface@UIConnectionPoint@@@ATL@@VCComSingleThreadModel@6@@ATL@@@ATL@@QEAA@PEAX@Z 0000000180007050 f i ToneIndicator.obj
 0001:000060b0       ??0?$CComObject@V?$CComEnum@UIEnumConnections@@$1?_GUID_b196b287_bab4_101a_b69c_00aa00341d07@@3U__s_GUID@@BUtagCONNECTDATA@@V?$_Copy@UtagCONNECTDATA@@@ATL@@VCComSingleThreadModel@6@@ATL@@@ATL@@QEAA@PEAX@Z 00000001800070b0 f i ToneIndicator.obj
 0001:00006110       ??0?$CComObject@VCOPOSToneIndicator@@@ATL@@QEAA@PEAX@Z 0000000180007110 f i ToneIndicator.obj
 0001:000062b0       ??0?$CComObjectCached@VCComClassFactory@ATL@@@ATL@@QEAA@PEAX@Z 00000001800072b0 f i ToneIndicator.obj
 0001:00006300       ??0?$CComObjectRootEx@VCComMultiThreadModel@ATL@@@ATL@@QEAA@XZ 0000000180007300 f i ToneIndicator.obj
 0001:00006350       ??0?$CComObjectRootEx@VCComSingleThreadModel@ATL@@@ATL@@QEAA@XZ 0000000180007350 f i ToneIndicator.obj
 0001:00006390       ??0?$CComPtr@UIAdviseSink@@@ATL@@QEAA@PEAUIAdviseSink@@@Z 0000000180007390 f i ToneIndicator.obj
 0001:000063d0       ??0?$CComPtr@UICatRegister@@@ATL@@QEAA@XZ 00000001800073d0 f i ToneIndicator.obj
 0001:00006410       ??0?$CComPtr@UIConnectionPoint@@@ATL@@QEAA@XZ 0000000180007410 f i ToneIndicator.obj
 0001:00006450       ??0?$CComPtr@UIConnectionPointContainer@@@ATL@@QEAA@XZ 0000000180007450 f i ToneIndicator.obj
 0001:00006490       ??0?$CComPtr@UIDataObject@@@ATL@@QEAA@XZ 0000000180007490 f i ToneIndicator.obj
 0001:000064d0       ??0?$CComPtr@UIDispatch@@@ATL@@QEAA@XZ 00000001800074d0 f i ToneIndicator.obj
 0001:00006510       ??0?$CComPtr@UIOleClientSite@@@ATL@@QEAA@PEAUIOleClientSite@@@Z 0000000180007510 f i ToneIndicator.obj
 0001:00006550       ??0?$CComPtr@UIOleControlSite@@@ATL@@QEAA@XZ 0000000180007550 f i ToneIndicator.obj
 0001:00006590       ??0?$CComPtr@UIOleInPlaceActiveObject@@@ATL@@QEAA@XZ 0000000180007590 f i ToneIndicator.obj
 0001:000065d0       ??0?$CComPtr@UIOleInPlaceFrame@@@ATL@@QEAA@XZ 00000001800075d0 f i ToneIndicator.obj
 0001:00006610       ??0?$CComPtr@UIOleInPlaceObject@@@ATL@@QEAA@XZ 0000000180007610 f i ToneIndicator.obj
 0001:00006650       ??0?$CComPtr@UIOleInPlaceUIWindow@@@ATL@@QEAA@XZ 0000000180007650 f i ToneIndicator.obj
 0001:00006690       ??0?$CComPtr@UIOleObject@@@ATL@@QEAA@XZ 0000000180007690 f i ToneIndicator.obj
 0001:000066d0       ??0?$CComPtr@UIPersistStream@@@ATL@@QEAA@XZ 00000001800076d0 f i ToneIndicator.obj
 0001:00006710       ??0?$CComPtr@UIPersistStreamInit@@@ATL@@QEAA@XZ 0000000180007710 f i ToneIndicator.obj
 0001:00006750       ??0?$CComPtr@UIPointerInactive@@@ATL@@QEAA@XZ 0000000180007750 f i ToneIndicator.obj
 0001:00006790       ??0?$CComPtr@UIProvideClassInfo2@@@ATL@@QEAA@XZ 0000000180007790 f i ToneIndicator.obj
 0001:000067d0       ??0?$CComPtr@UISpecifyPropertyPages@@@ATL@@QEAA@XZ 00000001800077d0 f i ToneIndicator.obj
 0001:00006810       ??0?$CComPtr@UIStream@@@ATL@@QEAA@XZ 0000000180007810 f i ToneIndicator.obj
 0001:00006850       ??0?$CComPtr@UITypeInfo2@@@ATL@@QEAA@XZ 0000000180007850 f i ToneIndicator.obj
 0001:00006890       ??0?$CComPtr@UITypeInfo@@@ATL@@QEAA@AEBV01@@Z 0000000180007890 f i ToneIndicator.obj
 0001:000068d0       ??0?$CComPtr@UITypeInfo@@@ATL@@QEAA@XZ 00000001800078d0 f i ToneIndicator.obj
 0001:00006910       ??0?$CComPtr@UITypeLib@@@ATL@@QEAA@XZ 0000000180007910 f i ToneIndicator.obj
 0001:00006950       ??0?$CComPtr@UIUnknown@@@ATL@@QEAA@AEBV01@@Z 0000000180007950 f i ToneIndicator.obj
 0001:00006990       ??0?$CComPtr@UIUnknown@@@ATL@@QEAA@PEAUIUnknown@@@Z 0000000180007990 f i ToneIndicator.obj
 0001:000069d0       ??0?$CComPtr@UIUnknown@@@ATL@@QEAA@XZ 00000001800079d0 f i ToneIndicator.obj
 0001:00006a10       ??0?$CComPtr@UIViewObjectEx@@@ATL@@QEAA@XZ 0000000180007a10 f i ToneIndicator.obj
 0001:00006a50       ??0?$CComPtrBase@UIAdviseSink@@@ATL@@IEAA@PEAUIAdviseSink@@@Z 0000000180007a50 f i ToneIndicator.obj
 0001:00006ab0       ??0?$CComPtrBase@UICatRegister@@@ATL@@IEAA@XZ 0000000180007ab0 f i ToneIndicator.obj
 0001:00006ad0       ??0?$CComPtrBase@UIConnectionPoint@@@ATL@@IEAA@XZ 0000000180007ad0 f i ToneIndicator.obj
 0001:00006af0       ??0?$CComPtrBase@UIConnectionPointContainer@@@ATL@@IEAA@XZ 0000000180007af0 f i ToneIndicator.obj
 0001:00006b10       ??0?$CComPtrBase@UIDataObject@@@ATL@@IEAA@XZ 0000000180007b10 f i ToneIndicator.obj
 0001:00006b30       ??0?$CComPtrBase@UIDispatch@@@ATL@@IEAA@XZ 0000000180007b30 f i ToneIndicator.obj
 0001:00006b50       ??0?$CComPtrBase@UIOleClientSite@@@ATL@@IEAA@PEAUIOleClientSite@@@Z 0000000180007b50 f i ToneIndicator.obj
 0001:00006bb0       ??0?$CComPtrBase@UIOleControlSite@@@ATL@@IEAA@XZ 0000000180007bb0 f i ToneIndicator.obj
 0001:00006bd0       ??0?$CComPtrBase@UIOleInPlaceActiveObject@@@ATL@@IEAA@XZ 0000000180007bd0 f i ToneIndicator.obj
 0001:00006bf0       ??0?$CComPtrBase@UIOleInPlaceFrame@@@ATL@@IEAA@XZ 0000000180007bf0 f i ToneIndicator.obj
 0001:00006c10       ??0?$CComPtrBase@UIOleInPlaceObject@@@ATL@@IEAA@XZ 0000000180007c10 f i ToneIndicator.obj
 0001:00006c30       ??0?$CComPtrBase@UIOleInPlaceUIWindow@@@ATL@@IEAA@XZ 0000000180007c30 f i ToneIndicator.obj
 0001:00006c50       ??0?$CComPtrBase@UIOleObject@@@ATL@@IEAA@XZ 0000000180007c50 f i ToneIndicator.obj
 0001:00006c70       ??0?$CComPtrBase@UIPersistStream@@@ATL@@IEAA@XZ 0000000180007c70 f i ToneIndicator.obj
 0001:00006c90       ??0?$CComPtrBase@UIPersistStreamInit@@@ATL@@IEAA@XZ 0000000180007c90 f i ToneIndicator.obj
 0001:00006cb0       ??0?$CComPtrBase@UIPointerInactive@@@ATL@@IEAA@XZ 0000000180007cb0 f i ToneIndicator.obj
 0001:00006cd0       ??0?$CComPtrBase@UIProvideClassInfo2@@@ATL@@IEAA@XZ 0000000180007cd0 f i ToneIndicator.obj
 0001:00006cf0       ??0?$CComPtrBase@UISpecifyPropertyPages@@@ATL@@IEAA@XZ 0000000180007cf0 f i ToneIndicator.obj
 0001:00006d10       ??0?$CComPtrBase@UIStream@@@ATL@@IEAA@XZ 0000000180007d10 f i ToneIndicator.obj
 0001:00006d30       ??0?$CComPtrBase@UITypeInfo2@@@ATL@@IEAA@XZ 0000000180007d30 f i ToneIndicator.obj
 0001:00006d50       ??0?$CComPtrBase@UITypeInfo@@@ATL@@IEAA@PEAUITypeInfo@@@Z 0000000180007d50 f i ToneIndicator.obj
 0001:00006db0       ??0?$CComPtrBase@UITypeInfo@@@ATL@@IEAA@XZ 0000000180007db0 f i ToneIndicator.obj
 0001:00006dd0       ??0?$CComPtrBase@UITypeLib@@@ATL@@IEAA@XZ 0000000180007dd0 f i ToneIndicator.obj
 0001:00006df0       ??0?$CComPtrBase@UIUnknown@@@ATL@@IEAA@PEAUIUnknown@@@Z 0000000180007df0 f i ToneIndicator.obj
 0001:00006e50       ??0?$CComPtrBase@UIUnknown@@@ATL@@IEAA@XZ 0000000180007e50 f i ToneIndicator.obj
 0001:00006e70       ??0?$CComPtrBase@UIViewObjectEx@@@ATL@@IEAA@XZ 0000000180007e70 f i ToneIndicator.obj
 0001:00006e90       ??0?$CComQIPtr@UIOleControlSite@@$1?_GUID_b196b289_bab4_101a_b69c_00aa00341d07@@3U__s_GUID@@B@ATL@@QEAA@PEAUIUnknown@@@Z 0000000180007e90 f i ToneIndicator.obj
 0001:00006f00       ??0?$CComQIPtr@UIOleObject@@$1?_GUID_00000112_0000_0000_c000_000000000046@@3U__s_GUID@@B@ATL@@QEAA@XZ 0000000180007f00 f i ToneIndicator.obj
 0001:00006f40       ??0?$CComQIPtr@UISpecifyPropertyPages@@$1?_GUID_b196b28b_bab4_101a_b69c_00aa00341d07@@3U__s_GUID@@B@ATL@@QEAA@XZ 0000000180007f40 f i ToneIndicator.obj
 0001:00006f80       ??0?$CSimpleMap@PEA_WPEA_WVCExpansionVectorEqualHelper@ATL@@@ATL@@QEAA@XZ 0000000180007f80 f i ToneIndicator.obj
 0001:00006fc0       ??0?$CTempBuffer@E$0BAA@VCCRTAllocator@ATL@@@ATL@@QEAA@XZ 0000000180007fc0 f i ToneIndicator.obj
 0001:00006fe0       ??0?$CTempBuffer@_W$0BAA@VCCRTAllocator@ATL@@@ATL@@QEAA@XZ 0000000180007fe0 f i ToneIndicator.obj
 0001:00007000       ??0?$CTempBuffer@_W$0EAA@VCCRTAllocator@ATL@@@ATL@@QEAA@XZ 0000000180008000 f i ToneIndicator.obj
 0001:00007020       ??0?$Wrapper@PEA_W@?$CSimpleMap@PEA_WPEA_WVCExpansionVectorEqualHelper@ATL@@@ATL@@QEAA@AEBQEA_W@Z 0000000180008020 f i ToneIndicator.obj
 0001:00007050       ??0CAtlModule@ATL@@QEAA@XZ 0000000180008050 f i ToneIndicator.obj
 0001:000071c0       ??0CComAutoDeleteCriticalSection@ATL@@QEAA@XZ 00000001800081c0 f i ToneIndicator.obj
 0001:00007200       ??0CComBSTR@ATL@@QEAA@XZ   0000000180008200 f i ToneIndicator.obj
 0001:00007220       ??0CComClassFactory@ATL@@QEAA@XZ 0000000180008220 f i ToneIndicator.obj
 0001:00007280       ??0CComModule@ATL@@QEAA@XZ 0000000180008280 f i ToneIndicator.obj
 0001:00007320       ??0CComObjectRootBase@ATL@@QEAA@XZ 0000000180008320 f i ToneIndicator.obj
 0001:00007340       ??0CComSafeDeleteCriticalSection@ATL@@QEAA@XZ 0000000180008340 f i ToneIndicator.obj
 0001:00007380       ??0CComVariant@ATL@@QEAA@XZ 0000000180008380 f i ToneIndicator.obj
 0001:000073d0       ??0CExpansionVector@ATL@@QEAA@XZ 00000001800083d0 f i ToneIndicator.obj
 0001:00007410       ??0CParseBuffer@CRegParser@ATL@@QEAA@H@Z 0000000180008410 f i ToneIndicator.obj
 0001:000074a0       ??0CRegKey@ATL@@QEAA@PEAUHKEY__@@@Z 00000001800084a0 f i ToneIndicator.obj
 0001:000074e0       ??0CRegKey@ATL@@QEAA@PEAVCAtlTransactionManager@1@@Z 00000001800084e0 f i ToneIndicator.obj
 0001:00007520       ??0CRegObject@ATL@@QEAA@XZ 0000000180008520 f i ToneIndicator.obj
 0001:00007580       ??0CRegParser@ATL@@QEAA@PEAVCRegObject@1@@Z 0000000180008580 f i ToneIndicator.obj
 0001:000075b0       ??0IClassFactory@@QEAA@XZ  00000001800085b0 f i ToneIndicator.obj
 0001:000075f0       ??0IEnumConnectionPoints@@QEAA@XZ 00000001800085f0 f i ToneIndicator.obj
 0001:00007630       ??0IEnumConnections@@QEAA@XZ 0000000180008630 f i ToneIndicator.obj
 0001:00007670       ??0IRegistrarBase@@QEAA@XZ 0000000180008670 f i ToneIndicator.obj
 0001:000076b0       ??0IUnknown@@QEAA@XZ       00000001800086b0 f i ToneIndicator.obj
 0001:000076c0       ??0ModuleLockHelper@ATL@@QEAA@XZ 00000001800086c0 f i ToneIndicator.obj
 0001:00007700       ??0OposVariant@@QEAA@XZ    0000000180008700 f i ToneIndicator.obj
 0001:00007720       ??0Wrapper@?$CSimpleArray@GV?$CSimpleArrayEqualHelper@G@ATL@@@ATL@@QEAA@AEBG@Z 0000000180008720 f i ToneIndicator.obj
 0001:00007750       ??0_ATL_MODULE70@ATL@@QEAA@XZ 0000000180008750 f i ToneIndicator.obj
 0001:00007790       ??0_ATL_MSG@ATL@@QEAA@PEAUHWND__@@I_K_JH@Z 0000000180008790 f i ToneIndicator.obj
 0001:00007820       ??0_U_MENUorID@ATL@@QEAA@I@Z 0000000180008820 f i ToneIndicator.obj
 0001:00007840       ??0_U_RECT@ATL@@QEAA@AEAUtagRECT@@@Z 0000000180008840 f i ToneIndicator.obj
 0001:00007860       ??0stringdispid@CComTypeInfoHolder@ATL@@QEAA@XZ 0000000180008860 f i ToneIndicator.obj
 0001:000078b0       ??1?$CAtlModuleT@VCComModule@ATL@@@ATL@@UEAA@XZ 00000001800088b0 f i ToneIndicator.obj
 0001:000078e0       ??1?$CAtlSafeAllocBufferManager@VCCRTAllocator@ATL@@@_ATL_SAFE_ALLOCA_IMPL@ATL@@QEAA@XZ 00000001800088e0 f i ToneIndicator.obj
 0001:00007940       ??1?$CAutoVectorPtr@_W@ATL@@QEAA@XZ 0000000180008940 f i ToneIndicator.obj
 0001:00007970       ??1?$CComAggObject@VCOPOSToneIndicator@@@ATL@@UEAA@XZ 0000000180008970 f i ToneIndicator.obj
 0001:000079f0       ??1?$CComContainedObject@VCOPOSToneIndicator@@@ATL@@UEAA@XZ 00000001800089f0 f i ToneIndicator.obj
 0001:00007a20       ??1?$CComCritSecLock@VCComCriticalSection@ATL@@@ATL@@QEAA@XZ 0000000180008a20 f i ToneIndicator.obj
 0001:00007a60       ??1?$CComEnum@UIEnumConnectionPoints@@$1?_GUID_b196b285_bab4_101a_b69c_00aa00341d07@@3U__s_GUID@@BPEAUIConnectionPoint@@V?$_CopyInterface@UIConnectionPoint@@@ATL@@VCComSingleThreadModel@6@@ATL@@UEAA@XZ 0000000180008a60 f i ToneIndicator.obj
 0001:00007aa0       ??1?$CComEnum@UIEnumConnections@@$1?_GUID_b196b287_bab4_101a_b69c_00aa00341d07@@3U__s_GUID@@BUtagCONNECTDATA@@V?$_Copy@UtagCONNECTDATA@@@ATL@@VCComSingleThreadModel@6@@ATL@@UEAA@XZ 0000000180008aa0 f i ToneIndicator.obj
 0001:00007ae0       ??1?$CComEnumImpl@UIEnumConnectionPoints@@$1?_GUID_b196b285_bab4_101a_b69c_00aa00341d07@@3U__s_GUID@@BPEAUIConnectionPoint@@V?$_CopyInterface@UIConnectionPoint@@@ATL@@@ATL@@UEAA@XZ 0000000180008ae0 f i ToneIndicator.obj
 0001:00007b80       ??1?$CComEnumImpl@UIEnumConnections@@$1?_GUID_b196b287_bab4_101a_b69c_00aa00341d07@@3U__s_GUID@@BUtagCONNECTDATA@@V?$_Copy@UtagCONNECTDATA@@@ATL@@@ATL@@UEAA@XZ 0000000180008b80 f i ToneIndicator.obj
 0001:00007c20       ??1?$CComObject@V?$CComEnum@UIEnumConnectionPoints@@$1?_GUID_b196b285_bab4_101a_b69c_00aa00341d07@@3U__s_GUID@@BPEAUIConnectionPoint@@V?$_CopyInterface@UIConnectionPoint@@@ATL@@VCComSingleThreadModel@6@@ATL@@@ATL@@UEAA@XZ 0000000180008c20 f i ToneIndicator.obj
 0001:00007c90       ??1?$CComObject@V?$CComEnum@UIEnumConnections@@$1?_GUID_b196b287_bab4_101a_b69c_00aa00341d07@@3U__s_GUID@@BUtagCONNECTDATA@@V?$_Copy@UtagCONNECTDATA@@@ATL@@VCComSingleThreadModel@6@@ATL@@@ATL@@UEAA@XZ 0000000180008c90 f i ToneIndicator.obj
 0001:00007d00       ??1?$CComObject@VCOPOSToneIndicator@@@ATL@@UEAA@XZ 0000000180008d00 f i ToneIndicator.obj
 0001:00007eb0       ??1?$CComObjectCached@VCComClassFactory@ATL@@@ATL@@UEAA@XZ 0000000180008eb0 f i ToneIndicator.obj
 0001:00007f10       ??1?$CComObjectRootEx@VCComMultiThreadModel@ATL@@@ATL@@QEAA@XZ 0000000180008f10 f i ToneIndicator.obj
 0001:00007f50       ??1?$CComObjectRootEx@VCComSingleThreadModel@ATL@@@ATL@@QEAA@XZ 0000000180008f50 f i ToneIndicator.obj
 0001:00007f80       ??1?$CComPtr@UIAdviseSink@@@ATL@@QEAA@XZ 0000000180008f80 f i ToneIndicator.obj
 0001:00007fb0       ??1?$CComPtr@UICatRegister@@@ATL@@QEAA@XZ 0000000180008fb0 f i ToneIndicator.obj
 0001:00007fe0       ??1?$CComPtr@UIConnectionPoint@@@ATL@@QEAA@XZ 0000000180008fe0 f i ToneIndicator.obj
 0001:00008010       ??1?$CComPtr@UIConnectionPointContainer@@@ATL@@QEAA@XZ 0000000180009010 f i ToneIndicator.obj
 0001:00008040       ??1?$CComPtr@UIDataObject@@@ATL@@QEAA@XZ 0000000180009040 f i ToneIndicator.obj
 0001:00008070       ??1?$CComPtr@UIDispatch@@@ATL@@QEAA@XZ 0000000180009070 f i ToneIndicator.obj
 0001:000080a0       ??1?$CComPtr@UIOleClientSite@@@ATL@@QEAA@XZ 00000001800090a0 f i ToneIndicator.obj
 0001:000080d0       ??1?$CComPtr@UIOleControlSite@@@ATL@@QEAA@XZ 00000001800090d0 f i ToneIndicator.obj
 0001:00008100       ??1?$CComPtr@UIOleInPlaceActiveObject@@@ATL@@QEAA@XZ 0000000180009100 f i ToneIndicator.obj
 0001:00008130       ??1?$CComPtr@UIOleInPlaceFrame@@@ATL@@QEAA@XZ 0000000180009130 f i ToneIndicator.obj
 0001:00008160       ??1?$CComPtr@UIOleInPlaceObject@@@ATL@@QEAA@XZ 0000000180009160 f i ToneIndicator.obj
 0001:00008190       ??1?$CComPtr@UIOleInPlaceUIWindow@@@ATL@@QEAA@XZ 0000000180009190 f i ToneIndicator.obj
 0001:000081c0       ??1?$CComPtr@UIOleObject@@@ATL@@QEAA@XZ 00000001800091c0 f i ToneIndicator.obj
 0001:000081f0       ??1?$CComPtr@UIPersistStream@@@ATL@@QEAA@XZ 00000001800091f0 f i ToneIndicator.obj
 0001:00008220       ??1?$CComPtr@UIPersistStreamInit@@@ATL@@QEAA@XZ 0000000180009220 f i ToneIndicator.obj
 0001:00008250       ??1?$CComPtr@UIPointerInactive@@@ATL@@QEAA@XZ 0000000180009250 f i ToneIndicator.obj
 0001:00008280       ??1?$CComPtr@UIProvideClassInfo2@@@ATL@@QEAA@XZ 0000000180009280 f i ToneIndicator.obj
 0001:000082b0       ??1?$CComPtr@UISpecifyPropertyPages@@@ATL@@QEAA@XZ 00000001800092b0 f i ToneIndicator.obj
 0001:000082e0       ??1?$CComPtr@UIStream@@@ATL@@QEAA@XZ 00000001800092e0 f i ToneIndicator.obj
 0001:00008310       ??1?$CComPtr@UITypeInfo2@@@ATL@@QEAA@XZ 0000000180009310 f i ToneIndicator.obj
 0001:00008340       ??1?$CComPtr@UITypeInfo@@@ATL@@QEAA@XZ 0000000180009340 f i ToneIndicator.obj
 0001:00008370       ??1?$CComPtr@UITypeLib@@@ATL@@QEAA@XZ 0000000180009370 f i ToneIndicator.obj
 0001:000083a0       ??1?$CComPtr@UIUnknown@@@ATL@@QEAA@XZ 00000001800093a0 f i ToneIndicator.obj
 0001:000083d0       ??1?$CComPtr@UIViewObjectEx@@@ATL@@QEAA@XZ 00000001800093d0 f i ToneIndicator.obj
 0001:00008400       ??1?$CComPtrBase@UIAdviseSink@@@ATL@@QEAA@XZ 0000000180009400 f i ToneIndicator.obj
 0001:00008450       ??1?$CComPtrBase@UICatRegister@@@ATL@@QEAA@XZ 0000000180009450 f i ToneIndicator.obj
 0001:000084a0       ??1?$CComPtrBase@UIConnectionPoint@@@ATL@@QEAA@XZ 00000001800094a0 f i ToneIndicator.obj
 0001:000084f0       ??1?$CComPtrBase@UIConnectionPointContainer@@@ATL@@QEAA@XZ 00000001800094f0 f i ToneIndicator.obj
 0001:00008540       ??1?$CComPtrBase@UIDataObject@@@ATL@@QEAA@XZ 0000000180009540 f i ToneIndicator.obj
 0001:00008590       ??1?$CComPtrBase@UIDispatch@@@ATL@@QEAA@XZ 0000000180009590 f i ToneIndicator.obj
 0001:000085e0       ??1?$CComPtrBase@UIOleClientSite@@@ATL@@QEAA@XZ 00000001800095e0 f i ToneIndicator.obj
 0001:00008630       ??1?$CComPtrBase@UIOleControlSite@@@ATL@@QEAA@XZ 0000000180009630 f i ToneIndicator.obj
 0001:00008680       ??1?$CComPtrBase@UIOleInPlaceActiveObject@@@ATL@@QEAA@XZ 0000000180009680 f i ToneIndicator.obj
 0001:000086d0       ??1?$CComPtrBase@UIOleInPlaceFrame@@@ATL@@QEAA@XZ 00000001800096d0 f i ToneIndicator.obj
 0001:00008720       ??1?$CComPtrBase@UIOleInPlaceObject@@@ATL@@QEAA@XZ 0000000180009720 f i ToneIndicator.obj
 0001:00008770       ??1?$CComPtrBase@UIOleInPlaceUIWindow@@@ATL@@QEAA@XZ 0000000180009770 f i ToneIndicator.obj
 0001:000087c0       ??1?$CComPtrBase@UIOleObject@@@ATL@@QEAA@XZ 00000001800097c0 f i ToneIndicator.obj
 0001:00008810       ??1?$CComPtrBase@UIPersistStream@@@ATL@@QEAA@XZ 0000000180009810 f i ToneIndicator.obj
 0001:00008860       ??1?$CComPtrBase@UIPersistStreamInit@@@ATL@@QEAA@XZ 0000000180009860 f i ToneIndicator.obj
 0001:000088b0       ??1?$CComPtrBase@UIPointerInactive@@@ATL@@QEAA@XZ 00000001800098b0 f i ToneIndicator.obj
 0001:00008900       ??1?$CComPtrBase@UIProvideClassInfo2@@@ATL@@QEAA@XZ 0000000180009900 f i ToneIndicator.obj
 0001:00008950       ??1?$CComPtrBase@UISpecifyPropertyPages@@@ATL@@QEAA@XZ 0000000180009950 f i ToneIndicator.obj
 0001:000089a0       ??1?$CComPtrBase@UIStream@@@ATL@@QEAA@XZ 00000001800099a0 f i ToneIndicator.obj
 0001:000089f0       ??1?$CComPtrBase@UITypeInfo2@@@ATL@@QEAA@XZ 00000001800099f0 f i ToneIndicator.obj
 0001:00008a40       ??1?$CComPtrBase@UITypeInfo@@@ATL@@QEAA@XZ 0000000180009a40 f i ToneIndicator.obj
 0001:00008a90       ??1?$CComPtrBase@UITypeLib@@@ATL@@QEAA@XZ 0000000180009a90 f i ToneIndicator.obj
 0001:00008ae0       ??1?$CComPtrBase@UIUnknown@@@ATL@@QEAA@XZ 0000000180009ae0 f i ToneIndicator.obj
 0001:00008b30       ??1?$CComPtrBase@UIViewObjectEx@@@ATL@@QEAA@XZ 0000000180009b30 f i ToneIndicator.obj
 0001:00008b80       ??1?$CComQIPtr@UIOleControlSite@@$1?_GUID_b196b289_bab4_101a_b69c_00aa00341d07@@3U__s_GUID@@B@ATL@@QEAA@XZ 0000000180009b80 f i ToneIndicator.obj
 0001:00008bb0       ??1?$CComQIPtr@UIOleObject@@$1?_GUID_00000112_0000_0000_c000_000000000046@@3U__s_GUID@@B@ATL@@QEAA@XZ 0000000180009bb0 f i ToneIndicator.obj
 0001:00008be0       ??1?$CComQIPtr@UISpecifyPropertyPages@@$1?_GUID_b196b28b_bab4_101a_b69c_00aa00341d07@@3U__s_GUID@@B@ATL@@QEAA@XZ 0000000180009be0 f i ToneIndicator.obj
 0001:00008c10       ??1?$CSimpleMap@PEA_WPEA_WVCExpansionVectorEqualHelper@ATL@@@ATL@@QEAA@XZ 0000000180009c10 f i ToneIndicator.obj
 0001:00008c40       ??1?$CTempBuffer@E$0BAA@VCCRTAllocator@ATL@@@ATL@@QEAA@XZ 0000000180009c40 f i ToneIndicator.obj
 0001:00008c90       ??1?$CTempBuffer@_W$0BAA@VCCRTAllocator@ATL@@@ATL@@QEAA@XZ 0000000180009c90 f i ToneIndicator.obj
 0001:00008ce0       ??1?$CTempBuffer@_W$0EAA@VCCRTAllocator@ATL@@@ATL@@QEAA@XZ 0000000180009ce0 f i ToneIndicator.obj
 0001:00008d30       ??1CAtlModule@ATL@@UEAA@XZ 0000000180009d30 f i ToneIndicator.obj
 0001:00008d70       ??1CComAutoDeleteCriticalSection@ATL@@QEAA@XZ 0000000180009d70 f i ToneIndicator.obj
 0001:00008da0       ??1CComClassFactory@ATL@@UEAA@XZ 0000000180009da0 f i ToneIndicator.obj
 0001:00008df0       ??1CComModule@ATL@@UEAA@XZ 0000000180009df0 f i ToneIndicator.obj
 0001:00008e30       ??1CComObjectRootBase@ATL@@QEAA@XZ 0000000180009e30 f i ToneIndicator.obj
 0001:00008e40       ??1CComSafeDeleteCriticalSection@ATL@@QEAA@XZ 0000000180009e40 f i ToneIndicator.obj
 0001:00008e90       ??1CComVariant@ATL@@QEAA@XZ 0000000180009e90 f i ToneIndicator.obj
 0001:00008f10       ??1CExpansionVector@ATL@@QEAA@XZ 0000000180009f10 f i ToneIndicator.obj
 0001:00008f50       ??1CParseBuffer@CRegParser@ATL@@QEAA@XZ 0000000180009f50 f i ToneIndicator.obj
 0001:00008f90       ??1CRegKey@ATL@@QEAA@XZ    0000000180009f90 f i ToneIndicator.obj
 0001:00008fc0       ??1CRegObject@ATL@@UEAA@XZ 0000000180009fc0 f i ToneIndicator.obj
 0001:00009010       ??1ModuleLockHelper@ATL@@QEAA@XZ 000000018000a010 f i ToneIndicator.obj
 0001:00009050       ??1OposVariant@@QEAA@XZ    000000018000a050 f i ToneIndicator.obj
 0001:00009090       ??1_ATL_MODULE70@ATL@@QEAA@XZ 000000018000a090 f i ToneIndicator.obj
 0001:000090d0       ??4?$CComPtr@UIAdviseSink@@@ATL@@QEAAPEAUIAdviseSink@@PEAU2@@Z 000000018000a0d0 f i ToneIndicator.obj
 0001:00009140       ??4?$CComPtr@UIOleClientSite@@@ATL@@QEAAPEAUIOleClientSite@@PEAU2@@Z 000000018000a140 f i ToneIndicator.obj
 0001:000091b0       ??4?$CComPtr@UIUnknown@@@ATL@@QEAAPEAUIUnknown@@PEAU2@@Z 000000018000a1b0 f i ToneIndicator.obj
 0001:00009220       ??4?$CComQIPtr@UIOleObject@@$1?_GUID_00000112_0000_0000_c000_000000000046@@3U__s_GUID@@B@ATL@@QEAAPEAUIOleObject@@PEAUIUnknown@@@Z 000000018000a220 f i ToneIndicator.obj
 0001:00009280       ??4?$CComQIPtr@UISpecifyPropertyPages@@$1?_GUID_b196b28b_bab4_101a_b69c_00aa00341d07@@3U__s_GUID@@B@ATL@@QEAAPEAUISpecifyPropertyPages@@PEAUIUnknown@@@Z 000000018000a280 f i ToneIndicator.obj
 0001:000092e0       ??7?$CComPtrBase@UIOleClientSite@@@ATL@@QEBA_NXZ 000000018000a2e0 f i ToneIndicator.obj
 0001:00009330       ??7?$CComPtrBase@UIOleInPlaceSiteWindowless@@@ATL@@QEBA_NXZ 000000018000a330 f i ToneIndicator.obj
 0001:00009380       ??7CComBSTR@ATL@@QEBA_NXZ  000000018000a380 f i ToneIndicator.obj
 0001:000093d0       ??8?$CComPtrBase@UIAdviseSink@@@ATL@@QEBA_NPEAUIAdviseSink@@@Z 000000018000a3d0 f i ToneIndicator.obj
 0001:00009420       ??8?$CComPtrBase@UIConnectionPointContainer@@@ATL@@QEBA_NPEAUIConnectionPointContainer@@@Z 000000018000a420 f i ToneIndicator.obj
 0001:00009470       ??8?$CComPtrBase@UIDataAdviseHolder@@@ATL@@QEBA_NPEAUIDataAdviseHolder@@@Z 000000018000a470 f i ToneIndicator.obj
 0001:000094c0       ??8?$CComPtrBase@UIOleAdviseHolder@@@ATL@@QEBA_NPEAUIOleAdviseHolder@@@Z 000000018000a4c0 f i ToneIndicator.obj
 0001:00009510       ??8?$CComPtrBase@UIOleClientSite@@@ATL@@QEBA_NPEAUIOleClientSite@@@Z 000000018000a510 f i ToneIndicator.obj
 0001:00009560       ??8?$CComPtrBase@UIOleControlSite@@@ATL@@QEBA_NPEAUIOleControlSite@@@Z 000000018000a560 f i ToneIndicator.obj
 0001:000095b0       ??8?$CComPtrBase@UIOleInPlaceObject@@@ATL@@QEBA_NPEAUIOleInPlaceObject@@@Z 000000018000a5b0 f i ToneIndicator.obj
 0001:00009600       ??8?$CComPtrBase@UIOleInPlaceSiteWindowless@@@ATL@@QEBA_NPEAUIOleInPlaceSiteWindowless@@@Z 000000018000a600 f i ToneIndicator.obj
 0001:00009650       ??8?$CComPtrBase@UIOleObject@@@ATL@@QEBA_NPEAUIOleObject@@@Z 000000018000a650 f i ToneIndicator.obj
 0001:000096a0       ??8?$CComPtrBase@UIPersistStream@@@ATL@@QEBA_NPEAUIPersistStream@@@Z 000000018000a6a0 f i ToneIndicator.obj
 0001:000096f0       ??8?$CComPtrBase@UIPersistStreamInit@@@ATL@@QEBA_NPEAUIPersistStreamInit@@@Z 000000018000a6f0 f i ToneIndicator.obj
 0001:00009740       ??8?$CComPtrBase@UIPointerInactive@@@ATL@@QEBA_NPEAUIPointerInactive@@@Z 000000018000a740 f i ToneIndicator.obj
 0001:00009790       ??8?$CComPtrBase@UIUnknown@@@ATL@@QEBA_NPEAUIUnknown@@@Z 000000018000a790 f i ToneIndicator.obj
 0001:000097e0       ??8?$CComPtrBase@UIViewObjectEx@@@ATL@@QEBA_NPEAUIViewObjectEx@@@Z 000000018000a7e0 f i ToneIndicator.obj
 0001:00009830       ??8CComBSTR@ATL@@QEBA_NH@Z 000000018000a830 f i ToneIndicator.obj
 0001:000098b0       ??9?$CComPtrBase@UIAdviseSink@@@ATL@@QEBA_NPEAUIAdviseSink@@@Z 000000018000a8b0 f i ToneIndicator.obj
 0001:00009910       ??9?$CComPtrBase@UIConnectionPointContainer@@@ATL@@QEBA_NPEAUIConnectionPointContainer@@@Z 000000018000a910 f i ToneIndicator.obj
 0001:00009970       ??9?$CComPtrBase@UIDataAdviseHolder@@@ATL@@QEBA_NPEAUIDataAdviseHolder@@@Z 000000018000a970 f i ToneIndicator.obj
 0001:000099d0       ??9?$CComPtrBase@UIOleAdviseHolder@@@ATL@@QEBA_NPEAUIOleAdviseHolder@@@Z 000000018000a9d0 f i ToneIndicator.obj
 0001:00009a30       ??9?$CComPtrBase@UIOleClientSite@@@ATL@@QEBA_NPEAUIOleClientSite@@@Z 000000018000aa30 f i ToneIndicator.obj
 0001:00009a90       ??9?$CComPtrBase@UIOleControlSite@@@ATL@@QEBA_NPEAUIOleControlSite@@@Z 000000018000aa90 f i ToneIndicator.obj
 0001:00009af0       ??9?$CComPtrBase@UIOleInPlaceObject@@@ATL@@QEBA_NPEAUIOleInPlaceObject@@@Z 000000018000aaf0 f i ToneIndicator.obj
 0001:00009b50       ??9?$CComPtrBase@UIOleInPlaceSiteWindowless@@@ATL@@QEBA_NPEAUIOleInPlaceSiteWindowless@@@Z 000000018000ab50 f i ToneIndicator.obj
 0001:00009bb0       ??9?$CComPtrBase@UIOleObject@@@ATL@@QEBA_NPEAUIOleObject@@@Z 000000018000abb0 f i ToneIndicator.obj
 0001:00009c10       ??9?$CComPtrBase@UIPersistStream@@@ATL@@QEBA_NPEAUIPersistStream@@@Z 000000018000ac10 f i ToneIndicator.obj
 0001:00009c70       ??9?$CComPtrBase@UIPersistStreamInit@@@ATL@@QEBA_NPEAUIPersistStreamInit@@@Z 000000018000ac70 f i ToneIndicator.obj
 0001:00009cd0       ??9?$CComPtrBase@UIPointerInactive@@@ATL@@QEBA_NPEAUIPointerInactive@@@Z 000000018000acd0 f i ToneIndicator.obj
 0001:00009d30       ??9?$CComPtrBase@UIUnknown@@@ATL@@QEBA_NPEAUIUnknown@@@Z 000000018000ad30 f i ToneIndicator.obj
 0001:00009d90       ??9?$CComPtrBase@UIViewObjectEx@@@ATL@@QEBA_NPEAUIViewObjectEx@@@Z 000000018000ad90 f i ToneIndicator.obj
 0001:00009df0       ??9CComBSTR@ATL@@QEBA_NH@Z 000000018000adf0 f i ToneIndicator.obj
 0001:00009e50       ??B?$CComPtrBase@UIAdviseSink@@@ATL@@QEBAPEAUIAdviseSink@@XZ 000000018000ae50 f i ToneIndicator.obj
 0001:00009e60       ??B?$CComPtrBase@UIDataAdviseHolder@@@ATL@@QEBAPEAUIDataAdviseHolder@@XZ 000000018000ae60 f i ToneIndicator.obj
 0001:00009e70       ??B?$CComPtrBase@UIDataObject@@@ATL@@QEBAPEAUIDataObject@@XZ 000000018000ae70 f i ToneIndicator.obj
 0001:00009e80       ??B?$CComPtrBase@UIOleAdviseHolder@@@ATL@@QEBAPEAUIOleAdviseHolder@@XZ 000000018000ae80 f i ToneIndicator.obj
 0001:00009e90       ??B?$CComPtrBase@UIOleClientSite@@@ATL@@QEBAPEAUIOleClientSite@@XZ 000000018000ae90 f i ToneIndicator.obj
 0001:00009ea0       ??B?$CComPtrBase@UIOleControlSite@@@ATL@@QEBAPEAUIOleControlSite@@XZ 000000018000aea0 f i ToneIndicator.obj
 0001:00009eb0       ??B?$CComPtrBase@UIOleInPlaceActiveObject@@@ATL@@QEBAPEAUIOleInPlaceActiveObject@@XZ 000000018000aeb0 f i ToneIndicator.obj
 0001:00009ec0       ??B?$CComPtrBase@UIOleInPlaceFrame@@@ATL@@QEBAPEAUIOleInPlaceFrame@@XZ 000000018000aec0 f i ToneIndicator.obj
 0001:00009ed0       ??B?$CComPtrBase@UIOleInPlaceSiteWindowless@@@ATL@@QEBAPEAUIOleInPlaceSiteWindowless@@XZ 000000018000aed0 f i ToneIndicator.obj
 0001:00009ee0       ??B?$CComPtrBase@UIOleInPlaceUIWindow@@@ATL@@QEBAPEAUIOleInPlaceUIWindow@@XZ 000000018000aee0 f i ToneIndicator.obj
 0001:00009ef0       ??B?$CComPtrBase@UIOleObject@@@ATL@@QEBAPEAUIOleObject@@XZ 000000018000aef0 f i ToneIndicator.obj
 0001:00009f00       ??B?$CComPtrBase@UIPersistStream@@@ATL@@QEBAPEAUIPersistStream@@XZ 000000018000af00 f i ToneIndicator.obj
 0001:00009f10       ??B?$CComPtrBase@UIProvideClassInfo2@@@ATL@@QEBAPEAUIProvideClassInfo2@@XZ 000000018000af10 f i ToneIndicator.obj
 0001:00009f20       ??B?$CComPtrBase@UISpecifyPropertyPages@@@ATL@@QEBAPEAUISpecifyPropertyPages@@XZ 000000018000af20 f i ToneIndicator.obj
 0001:00009f30       ??B?$CComPtrBase@UIStream@@@ATL@@QEBAPEAUIStream@@XZ 000000018000af30 f i ToneIndicator.obj
 0001:00009f40       ??B?$CComPtrBase@UITypeInfo2@@@ATL@@QEBAPEAUITypeInfo2@@XZ 000000018000af40 f i ToneIndicator.obj
 0001:00009f50       ??B?$CComPtrBase@UITypeInfo@@@ATL@@QEBAPEAUITypeInfo@@XZ 000000018000af50 f i ToneIndicator.obj
 0001:00009f60       ??B?$CComPtrBase@UITypeLib@@@ATL@@QEBAPEAUITypeLib@@XZ 000000018000af60 f i ToneIndicator.obj
 0001:00009f70       ??B?$CComPtrBase@UIUnknown@@@ATL@@QEBAPEAUIUnknown@@XZ 000000018000af70 f i ToneIndicator.obj
 0001:00009f80       ??B?$CTempBuffer@E$0BAA@VCCRTAllocator@ATL@@@ATL@@QEBAPEAEXZ 000000018000af80 f i ToneIndicator.obj
 0001:00009f90       ??B?$CTempBuffer@_W$0BAA@VCCRTAllocator@ATL@@@ATL@@QEBAPEA_WXZ 000000018000af90 f i ToneIndicator.obj
 0001:00009fa0       ??B?$CTempBuffer@_W$0EAA@VCCRTAllocator@ATL@@@ATL@@QEBAPEA_WXZ 000000018000afa0 f i ToneIndicator.obj
 0001:00009fb0       ??B?$CTraceCategoryEx@$00$0A@@ATL@@QEAAIXZ 000000018000afb0 f i ToneIndicator.obj
 0001:00009fc0       ??B?$CTraceCategoryEx@$07$0A@@ATL@@QEAAIXZ 000000018000afc0 f i ToneIndicator.obj
 0001:00009fd0       ??B?$CTraceCategoryEx@$0CAAA@$0A@@ATL@@QEAAIXZ 000000018000afd0 f i ToneIndicator.obj
 0001:00009fe0       ??B?$CTraceCategoryEx@$0EA@$0A@@ATL@@QEAAIXZ 000000018000afe0 f i ToneIndicator.obj
 0001:00009ff0       ??B?$CTraceCategoryEx@$0IAA@$0A@@ATL@@QEAAIXZ 000000018000aff0 f i ToneIndicator.obj
 0001:0000a000       ??BCComBSTR@ATL@@QEBAPEA_WXZ 000000018000b000 f i ToneIndicator.obj
 0001:0000a010       ??BCRegKey@ATL@@QEBAPEAUHKEY__@@XZ 000000018000b010 f i ToneIndicator.obj
 0001:0000a020       ??C?$CComPtrBase@UIAdviseSink@@@ATL@@QEBAPEAV?$_NoAddRefReleaseOnCComPtr@UIAdviseSink@@@1@XZ 000000018000b020 f i ToneIndicator.obj
 0001:0000a0a0       ??C?$CComPtrBase@UICatRegister@@@ATL@@QEBAPEAV?$_NoAddRefReleaseOnCComPtr@UICatRegister@@@1@XZ 000000018000b0a0 f i ToneIndicator.obj
 0001:0000a120       ??C?$CComPtrBase@UIConnectionPoint@@@ATL@@QEBAPEAV?$_NoAddRefReleaseOnCComPtr@UIConnectionPoint@@@1@XZ 000000018000b120 f i ToneIndicator.obj
 0001:0000a1a0       ??C?$CComPtrBase@UIConnectionPointContainer@@@ATL@@QEBAPEAV?$_NoAddRefReleaseOnCComPtr@UIConnectionPointContainer@@@1@XZ 000000018000b1a0 f i ToneIndicator.obj
 0001:0000a220       ??C?$CComPtrBase@UIDataAdviseHolder@@@ATL@@QEBAPEAV?$_NoAddRefReleaseOnCComPtr@UIDataAdviseHolder@@@1@XZ 000000018000b220 f i ToneIndicator.obj
 0001:0000a2a0       ??C?$CComPtrBase@UIOleAdviseHolder@@@ATL@@QEBAPEAV?$_NoAddRefReleaseOnCComPtr@UIOleAdviseHolder@@@1@XZ 000000018000b2a0 f i ToneIndicator.obj
 0001:0000a320       ??C?$CComPtrBase@UIOleClientSite@@@ATL@@QEBAPEAV?$_NoAddRefReleaseOnCComPtr@UIOleClientSite@@@1@XZ 000000018000b320 f i ToneIndicator.obj
 0001:0000a3a0       ??C?$CComPtrBase@UIOleControlSite@@@ATL@@QEBAPEAV?$_NoAddRefReleaseOnCComPtr@UIOleControlSite@@@1@XZ 000000018000b3a0 f i ToneIndicator.obj
 0001:0000a420       ??C?$CComPtrBase@UIOleInPlaceFrame@@@ATL@@QEBAPEAV?$_NoAddRefReleaseOnCComPtr@UIOleInPlaceFrame@@@1@XZ 000000018000b420 f i ToneIndicator.obj
 0001:0000a4a0       ??C?$CComPtrBase@UIOleInPlaceObject@@@ATL@@QEBAPEAV?$_NoAddRefReleaseOnCComPtr@UIOleInPlaceObject@@@1@XZ 000000018000b4a0 f i ToneIndicator.obj
 0001:0000a520       ??C?$CComPtrBase@UIOleInPlaceSiteWindowless@@@ATL@@QEBAPEAV?$_NoAddRefReleaseOnCComPtr@UIOleInPlaceSiteWindowless@@@1@XZ 000000018000b520 f i ToneIndicator.obj
 0001:0000a5a0       ??C?$CComPtrBase@UIOleInPlaceUIWindow@@@ATL@@QEBAPEAV?$_NoAddRefReleaseOnCComPtr@UIOleInPlaceUIWindow@@@1@XZ 000000018000b5a0 f i ToneIndicator.obj
 0001:0000a620       ??C?$CComPtrBase@UIOleObject@@@ATL@@QEBAPEAV?$_NoAddRefReleaseOnCComPtr@UIOleObject@@@1@XZ 000000018000b620 f i ToneIndicator.obj
 0001:0000a6a0       ??C?$CComPtrBase@UIPersistStream@@@ATL@@QEBAPEAV?$_NoAddRefReleaseOnCComPtr@UIPersistStream@@@1@XZ 000000018000b6a0 f i ToneIndicator.obj
 0001:0000a720       ??C?$CComPtrBase@UIPersistStreamInit@@@ATL@@QEBAPEAV?$_NoAddRefReleaseOnCComPtr@UIPersistStreamInit@@@1@XZ 000000018000b720 f i ToneIndicator.obj
 0001:0000a7a0       ??C?$CComPtrBase@UIPointerInactive@@@ATL@@QEBAPEAV?$_NoAddRefReleaseOnCComPtr@UIPointerInactive@@@1@XZ 000000018000b7a0 f i ToneIndicator.obj
 0001:0000a820       ??C?$CComPtrBase@UIProvideClassInfo2@@@ATL@@QEBAPEAV?$_NoAddRefReleaseOnCComPtr@UIProvideClassInfo2@@@1@XZ 000000018000b820 f i ToneIndicator.obj
 0001:0000a8a0       ??C?$CComPtrBase@UISpecifyPropertyPages@@@ATL@@QEBAPEAV?$_NoAddRefReleaseOnCComPtr@UISpecifyPropertyPages@@@1@XZ 000000018000b8a0 f i ToneIndicator.obj
 0001:0000a920       ??C?$CComPtrBase@UITypeInfo@@@ATL@@QEBAPEAV?$_NoAddRefReleaseOnCComPtr@UITypeInfo@@@1@XZ 000000018000b920 f i ToneIndicator.obj
 0001:0000a9a0       ??C?$CComPtrBase@UITypeLib@@@ATL@@QEBAPEAV?$_NoAddRefReleaseOnCComPtr@UITypeLib@@@1@XZ 000000018000b9a0 f i ToneIndicator.obj
 0001:0000aa20       ??C?$CComPtrBase@UIUnknown@@@ATL@@QEBAPEAV?$_NoAddRefReleaseOnCComPtr@UIUnknown@@@1@XZ 000000018000ba20 f i ToneIndicator.obj
 0001:0000aaa0       ??C?$CComPtrBase@UIViewObjectEx@@@ATL@@QEBAPEAV?$_NoAddRefReleaseOnCComPtr@UIViewObjectEx@@@1@XZ 000000018000baa0 f i ToneIndicator.obj
 0001:0000ab20       ??I?$CComPtrBase@UICatRegister@@@ATL@@QEAAPEAPEAUICatRegister@@XZ 000000018000bb20 f i ToneIndicator.obj
 0001:0000ab90       ??I?$CComPtrBase@UIConnectionPoint@@@ATL@@QEAAPEAPEAUIConnectionPoint@@XZ 000000018000bb90 f i ToneIndicator.obj
 0001:0000ac00       ??I?$CComPtrBase@UIConnectionPointContainer@@@ATL@@QEAAPEAPEAUIConnectionPointContainer@@XZ 000000018000bc00 f i ToneIndicator.obj
 0001:0000ac70       ??I?$CComPtrBase@UIDataAdviseHolder@@@ATL@@QEAAPEAPEAUIDataAdviseHolder@@XZ 000000018000bc70 f i ToneIndicator.obj
 0001:0000ace0       ??I?$CComPtrBase@UIDataObject@@@ATL@@QEAAPEAPEAUIDataObject@@XZ 000000018000bce0 f i ToneIndicator.obj
 0001:0000ad50       ??I?$CComPtrBase@UIDispatch@@@ATL@@QEAAPEAPEAUIDispatch@@XZ 000000018000bd50 f i ToneIndicator.obj
 0001:0000adc0       ??I?$CComPtrBase@UIOleAdviseHolder@@@ATL@@QEAAPEAPEAUIOleAdviseHolder@@XZ 000000018000bdc0 f i ToneIndicator.obj
 0001:0000ae30       ??I?$CComPtrBase@UIOleControlSite@@@ATL@@QEAAPEAPEAUIOleControlSite@@XZ 000000018000be30 f i ToneIndicator.obj
 0001:0000aea0       ??I?$CComPtrBase@UIOleInPlaceActiveObject@@@ATL@@QEAAPEAPEAUIOleInPlaceActiveObject@@XZ 000000018000bea0 f i ToneIndicator.obj
 0001:0000af10       ??I?$CComPtrBase@UIOleInPlaceFrame@@@ATL@@QEAAPEAPEAUIOleInPlaceFrame@@XZ 000000018000bf10 f i ToneIndicator.obj
 0001:0000af80       ??I?$CComPtrBase@UIOleInPlaceObject@@@ATL@@QEAAPEAPEAUIOleInPlaceObject@@XZ 000000018000bf80 f i ToneIndicator.obj
 0001:0000aff0       ??I?$CComPtrBase@UIOleInPlaceSiteWindowless@@@ATL@@QEAAPEAPEAUIOleInPlaceSiteWindowless@@XZ 000000018000bff0 f i ToneIndicator.obj
 0001:0000b060       ??I?$CComPtrBase@UIOleInPlaceUIWindow@@@ATL@@QEAAPEAPEAUIOleInPlaceUIWindow@@XZ 000000018000c060 f i ToneIndicator.obj
 0001:0000b0d0       ??I?$CComPtrBase@UIOleObject@@@ATL@@QEAAPEAPEAUIOleObject@@XZ 000000018000c0d0 f i ToneIndicator.obj
 0001:0000b140       ??I?$CComPtrBase@UIPersistStream@@@ATL@@QEAAPEAPEAUIPersistStream@@XZ 000000018000c140 f i ToneIndicator.obj
 0001:0000b1b0       ??I?$CComPtrBase@UIPointerInactive@@@ATL@@QEAAPEAPEAUIPointerInactive@@XZ 000000018000c1b0 f i ToneIndicator.obj
 0001:0000b220       ??I?$CComPtrBase@UIProvideClassInfo2@@@ATL@@QEAAPEAPEAUIProvideClassInfo2@@XZ 000000018000c220 f i ToneIndicator.obj
 0001:0000b290       ??I?$CComPtrBase@UIStream@@@ATL@@QEAAPEAPEAUIStream@@XZ 000000018000c290 f i ToneIndicator.obj
 0001:0000b300       ??I?$CComPtrBase@UITypeInfo2@@@ATL@@QEAAPEAPEAUITypeInfo2@@XZ 000000018000c300 f i ToneIndicator.obj
 0001:0000b370       ??I?$CComPtrBase@UITypeInfo@@@ATL@@QEAAPEAPEAUITypeInfo@@XZ 000000018000c370 f i ToneIndicator.obj
 0001:0000b3e0       ??I?$CComPtrBase@UITypeLib@@@ATL@@QEAAPEAPEAUITypeLib@@XZ 000000018000c3e0 f i ToneIndicator.obj
 0001:0000b450       ??I?$CComPtrBase@UIUnknown@@@ATL@@QEAAPEAPEAUIUnknown@@XZ 000000018000c450 f i ToneIndicator.obj
 0001:0000b4c0       ??I?$CComPtrBase@UIViewObjectEx@@@ATL@@QEAAPEAPEAUIViewObjectEx@@XZ 000000018000c4c0 f i ToneIndicator.obj
 0001:0000b530       ??ICComBSTR@ATL@@QEAAPEAPEA_WXZ 000000018000c530 f i ToneIndicator.obj
 0001:0000b540       ??_E?$CComContainedObject@VCOPOSToneIndicator@@@ATL@@W7EAAPEAXI@Z 000000018000c540 f i ToneIndicator.obj
 0001:0000b54c       ??_E?$CComContainedObject@VCOPOSToneIndicator@@@ATL@@WHA@EAAPEAXI@Z 000000018000c54c f i ToneIndicator.obj
 0001:0000b558       ??_E?$CComObject@VCOPOSToneIndicator@@@ATL@@W7EAAPEAXI@Z 000000018000c558 f i ToneIndicator.obj
 0001:0000b564       ??_E?$CComObject@VCOPOSToneIndicator@@@ATL@@WHA@EAAPEAXI@Z 000000018000c564 f i ToneIndicator.obj
 0001:0000b570       ??_E?$CComAggObject@VCOPOSToneIndicator@@@ATL@@UEAAPEAXI@Z 000000018000c570 f i ToneIndicator.obj
 0001:0000b570       ??_G?$CComAggObject@VCOPOSToneIndicator@@@ATL@@UEAAPEAXI@Z 000000018000c570 f i ToneIndicator.obj
 0001:0000b5d0       ??_G?$CComContainedObject@VCOPOSToneIndicator@@@ATL@@UEAAPEAXI@Z 000000018000c5d0 f i ToneIndicator.obj
 0001:0000b5d0       ??_E?$CComContainedObject@VCOPOSToneIndicator@@@ATL@@UEAAPEAXI@Z 000000018000c5d0 f i ToneIndicator.obj
 0001:0000b630       ??_E?$CComObject@V?$CComEnum@UIEnumConnectionPoints@@$1?_GUID_b196b285_bab4_101a_b69c_00aa00341d07@@3U__s_GUID@@BPEAUIConnectionPoint@@V?$_CopyInterface@UIConnectionPoint@@@ATL@@VCComSingleThreadModel@6@@ATL@@@ATL@@UEAAPEAXI@Z 000000018000c630 f i ToneIndicator.obj
 0001:0000b630       ??_G?$CComObject@V?$CComEnum@UIEnumConnectionPoints@@$1?_GUID_b196b285_bab4_101a_b69c_00aa00341d07@@3U__s_GUID@@BPEAUIConnectionPoint@@V?$_CopyInterface@UIConnectionPoint@@@ATL@@VCComSingleThreadModel@6@@ATL@@@ATL@@UEAAPEAXI@Z 000000018000c630 f i ToneIndicator.obj
 0001:0000b690       ??_G?$CComObject@V?$CComEnum@UIEnumConnections@@$1?_GUID_b196b287_bab4_101a_b69c_00aa00341d07@@3U__s_GUID@@BUtagCONNECTDATA@@V?$_Copy@UtagCONNECTDATA@@@ATL@@VCComSingleThreadModel@6@@ATL@@@ATL@@UEAAPEAXI@Z 000000018000c690 f i ToneIndicator.obj
 0001:0000b690       ??_E?$CComObject@V?$CComEnum@UIEnumConnections@@$1?_GUID_b196b287_bab4_101a_b69c_00aa00341d07@@3U__s_GUID@@BUtagCONNECTDATA@@V?$_Copy@UtagCONNECTDATA@@@ATL@@VCComSingleThreadModel@6@@ATL@@@ATL@@UEAAPEAXI@Z 000000018000c690 f i ToneIndicator.obj
 0001:0000b6f0       ??_E?$CComObject@VCOPOSToneIndicator@@@ATL@@UEAAPEAXI@Z 000000018000c6f0 f i ToneIndicator.obj
 0001:0000b6f0       ??_G?$CComObject@VCOPOSToneIndicator@@@ATL@@UEAAPEAXI@Z 000000018000c6f0 f i ToneIndicator.obj
 0001:0000b750       ??_E?$CComObjectCached@VCComClassFactory@ATL@@@ATL@@UEAAPEAXI@Z 000000018000c750 f i ToneIndicator.obj
 0001:0000b750       ??_G?$CComObjectCached@VCComClassFactory@ATL@@@ATL@@UEAAPEAXI@Z 000000018000c750 f i ToneIndicator.obj
 0001:0000b7b0       ??_ECComClassFactory@ATL@@UEAAPEAXI@Z 000000018000c7b0 f i ToneIndicator.obj
 0001:0000b7b0       ??_GCComClassFactory@ATL@@UEAAPEAXI@Z 000000018000c7b0 f i ToneIndicator.obj
 0001:0000b810       ??_GCComModule@ATL@@UEAAPEAXI@Z 000000018000c810 f i ToneIndicator.obj
 0001:0000b810       ??_ECComModule@ATL@@UEAAPEAXI@Z 000000018000c810 f i ToneIndicator.obj
 0001:0000b870       ??_ECRegObject@ATL@@UEAAPEAXI@Z 000000018000c870 f i ToneIndicator.obj
 0001:0000b870       ??_GCRegObject@ATL@@UEAAPEAXI@Z 000000018000c870 f i ToneIndicator.obj
 0001:0000b8d0       ?Add@?$CSimpleArray@GV?$CSimpleArrayEqualHelper@G@ATL@@@ATL@@QEAAHAEBG@Z 000000018000c8d0 f i ToneIndicator.obj
 0001:0000ba70       ?Add@?$CSimpleMap@PEA_WPEA_WVCExpansionVectorEqualHelper@ATL@@@ATL@@QEAAHAEBQEA_W0@Z 000000018000ca70 f i ToneIndicator.obj
 0001:0000bb60       ?Add@CComDynamicUnkArray@ATL@@QEAAKPEAUIUnknown@@@Z 000000018000cb60 f i ToneIndicator.obj
 0001:0000bd40       ?Add@CExpansionVector@ATL@@QEAAHPEB_W0@Z 000000018000cd40 f i ToneIndicator.obj
 0001:0000c070       ?AddChar@CParseBuffer@CRegParser@ATL@@QEAAHPEB_W@Z 000000018000d070 f i ToneIndicator.obj
 0001:0000c0c0       ?AddCommonRGSReplacements@?$CAtlModuleT@VCComModule@ATL@@@ATL@@UEAAJPEAUIRegistrarBase@@@Z 000000018000d0c0 f i ToneIndicator.obj
 0001:0000c120       ?AddCreateWndData@CAtlWinModule@ATL@@QEAAXPEAU_AtlCreateWndData@2@PEAX@Z 000000018000d120 f i ToneIndicator.obj
 0001:0000c170       ?AddRef@?$CComAggObject@VCOPOSToneIndicator@@@ATL@@UEAAKXZ 000000018000d170 f i ToneIndicator.obj
 0001:0000c1b0       ?AddRef@?$CComContainedObject@VCOPOSToneIndicator@@@ATL@@UEAAKXZ 000000018000d1b0 f i ToneIndicator.obj
 0001:0000c1e8       ?AddRef@?$CComContainedObject@VCOPOSToneIndicator@@@ATL@@WBAA@EAAKXZ 000000018000d1e8 f i ToneIndicator.obj
 0001:0000c1f4       ?AddRef@?$CComContainedObject@VCOPOSToneIndicator@@@ATL@@WBAI@EAAKXZ 000000018000d1f4 f i ToneIndicator.obj
 0001:0000c200       ?AddRef@?$CComContainedObject@VCOPOSToneIndicator@@@ATL@@WBBA@EAAKXZ 000000018000d200 f i ToneIndicator.obj
 0001:0000c20c       ?AddRef@?$CComContainedObject@VCOPOSToneIndicator@@@ATL@@WBBI@EAAKXZ 000000018000d20c f i ToneIndicator.obj
 0001:0000c218       ?AddRef@?$CComContainedObject@VCOPOSToneIndicator@@@ATL@@WBCI@EAAKXZ 000000018000d218 f i ToneIndicator.obj
 0001:0000c224       ?AddRef@?$CComContainedObject@VCOPOSToneIndicator@@@ATL@@WBEA@EAAKXZ 000000018000d224 f i ToneIndicator.obj
 0001:0000c230       ?AddRef@?$CComContainedObject@VCOPOSToneIndicator@@@ATL@@WLI@EAAKXZ 000000018000d230 f i ToneIndicator.obj
 0001:0000c23c       ?AddRef@?$CComContainedObject@VCOPOSToneIndicator@@@ATL@@WMA@EAAKXZ 000000018000d23c f i ToneIndicator.obj
 0001:0000c248       ?AddRef@?$CComContainedObject@VCOPOSToneIndicator@@@ATL@@WMI@EAAKXZ 000000018000d248 f i ToneIndicator.obj
 0001:0000c254       ?AddRef@?$CComContainedObject@VCOPOSToneIndicator@@@ATL@@WNA@EAAKXZ 000000018000d254 f i ToneIndicator.obj
 0001:0000c260       ?AddRef@?$CComContainedObject@VCOPOSToneIndicator@@@ATL@@WNI@EAAKXZ 000000018000d260 f i ToneIndicator.obj
 0001:0000c26c       ?AddRef@?$CComContainedObject@VCOPOSToneIndicator@@@ATL@@WOA@EAAKXZ 000000018000d26c f i ToneIndicator.obj
 0001:0000c278       ?AddRef@?$CComContainedObject@VCOPOSToneIndicator@@@ATL@@WOI@EAAKXZ 000000018000d278 f i ToneIndicator.obj
 0001:0000c284       ?AddRef@?$CComContainedObject@VCOPOSToneIndicator@@@ATL@@WPA@EAAKXZ 000000018000d284 f i ToneIndicator.obj
 0001:0000c290       ?AddRef@?$CComContainedObject@VCOPOSToneIndicator@@@ATL@@WPI@EAAKXZ 000000018000d290 f i ToneIndicator.obj
 0001:0000c2a0       ?AddRef@?$CComObject@V?$CComEnum@UIEnumConnectionPoints@@$1?_GUID_b196b285_bab4_101a_b69c_00aa00341d07@@3U__s_GUID@@BPEAUIConnectionPoint@@V?$_CopyInterface@UIConnectionPoint@@@ATL@@VCComSingleThreadModel@6@@ATL@@@ATL@@UEAAKXZ 000000018000d2a0 f i ToneIndicator.obj
 0001:0000c2e0       ?AddRef@?$CComObject@V?$CComEnum@UIEnumConnections@@$1?_GUID_b196b287_bab4_101a_b69c_00aa00341d07@@3U__s_GUID@@BUtagCONNECTDATA@@V?$_Copy@UtagCONNECTDATA@@@ATL@@VCComSingleThreadModel@6@@ATL@@@ATL@@UEAAKXZ 000000018000d2e0 f i ToneIndicator.obj
 0001:0000c320       ?AddRef@?$CComObject@VCOPOSToneIndicator@@@ATL@@UEAAKXZ 000000018000d320 f i ToneIndicator.obj
 0001:0000c358       ?AddRef@?$CComObject@VCOPOSToneIndicator@@@ATL@@WBAA@EAAKXZ 000000018000d358 f i ToneIndicator.obj
 0001:0000c364       ?AddRef@?$CComObject@VCOPOSToneIndicator@@@ATL@@WBAI@EAAKXZ 000000018000d364 f i ToneIndicator.obj
 0001:0000c370       ?AddRef@?$CComObject@VCOPOSToneIndicator@@@ATL@@WBBA@EAAKXZ 000000018000d370 f i ToneIndicator.obj
 0001:0000c37c       ?AddRef@?$CComObject@VCOPOSToneIndicator@@@ATL@@WBBI@EAAKXZ 000000018000d37c f i ToneIndicator.obj
 0001:0000c388       ?AddRef@?$CComObject@VCOPOSToneIndicator@@@ATL@@WBCI@EAAKXZ 000000018000d388 f i ToneIndicator.obj
 0001:0000c394       ?AddRef@?$CComObject@VCOPOSToneIndicator@@@ATL@@WBEA@EAAKXZ 000000018000d394 f i ToneIndicator.obj
 0001:0000c3a0       ?AddRef@?$CComObject@VCOPOSToneIndicator@@@ATL@@WLI@EAAKXZ 000000018000d3a0 f i ToneIndicator.obj
 0001:0000c3ac       ?AddRef@?$CComObject@VCOPOSToneIndicator@@@ATL@@WMA@EAAKXZ 000000018000d3ac f i ToneIndicator.obj
 0001:0000c3b8       ?AddRef@?$CComObject@VCOPOSToneIndicator@@@ATL@@WMI@EAAKXZ 000000018000d3b8 f i ToneIndicator.obj
 0001:0000c3c4       ?AddRef@?$CComObject@VCOPOSToneIndicator@@@ATL@@WNA@EAAKXZ 000000018000d3c4 f i ToneIndicator.obj
 0001:0000c3d0       ?AddRef@?$CComObject@VCOPOSToneIndicator@@@ATL@@WNI@EAAKXZ 000000018000d3d0 f i ToneIndicator.obj
 0001:0000c3dc       ?AddRef@?$CComObject@VCOPOSToneIndicator@@@ATL@@WOA@EAAKXZ 000000018000d3dc f i ToneIndicator.obj
 0001:0000c3e8       ?AddRef@?$CComObject@VCOPOSToneIndicator@@@ATL@@WOI@EAAKXZ 000000018000d3e8 f i ToneIndicator.obj
 0001:0000c3f4       ?AddRef@?$CComObject@VCOPOSToneIndicator@@@ATL@@WPA@EAAKXZ 000000018000d3f4 f i ToneIndicator.obj
 0001:0000c400       ?AddRef@?$CComObject@VCOPOSToneIndicator@@@ATL@@WPI@EAAKXZ 000000018000d400 f i ToneIndicator.obj
 0001:0000c410       ?AddRef@?$CComObjectCached@VCComClassFactory@ATL@@@ATL@@UEAAKXZ 000000018000d410 f i ToneIndicator.obj
 0001:0000c470       ?AddRef@CRegObject@ATL@@UEAAKXZ 000000018000d470 f i ToneIndicator.obj
 0001:0000c4e0       ?AddReplacement@CRegObject@ATL@@UEAAJPEB_W0@Z 000000018000d4e0 f i ToneIndicator.obj
 0001:0000c610       ?AddString@CParseBuffer@CRegParser@ATL@@QEAAHPEB_W@Z 000000018000d610 f i ToneIndicator.obj
 0001:0000c700       ?AddTermFunc@CAtlModule@ATL@@QEAAJP6AX_K@Z0@Z 000000018000d700 f i ToneIndicator.obj
 0001:0000c770       ?AddValue@CRegParser@ATL@@IEAAJAEAVCRegKey@2@PEB_WPEA_W@Z 000000018000d770 f i ToneIndicator.obj
 0001:0000d040       ?Advise@?$CProxy_IOPOSEvents@VCOPOSToneIndicator@@@@UEAAJPEAUIUnknown@@PEAK@Z 000000018000e040 f i ToneIndicator.obj
 0001:0000d0b0       ?Advise@?$IConnectionPointImpl@VCOPOSToneIndicator@@$1?DIID__IOPOSToneIndicatorEvents@@3U_GUID@@BVCComDynamicUnkArray@ATL@@@ATL@@UEAAJPEAUIUnknown@@PEAK@Z 000000018000e0b0 f i ToneIndicator.obj
 0001:0000d2b0       ?Advise@?$IConnectionPointImpl@VCOPOSToneIndicator@@$1?IID_IPropertyNotifySink@@3U_GUID@@BVCComDynamicUnkArray@ATL@@@ATL@@UEAAJPEAUIUnknown@@PEAK@Z 000000018000e2b0 f i ToneIndicator.obj
 0001:0000d4b0       ?Advise@?$IOleObjectImpl@VCOPOSToneIndicator@@@ATL@@UEAAJPEAUIAdviseSink@@PEAK@Z 000000018000e4b0 f i ToneIndicator.obj
 0001:0000d570       ?Allocate@?$CAtlSafeAllocBufferManager@VCCRTAllocator@ATL@@@_ATL_SAFE_ALLOCA_IMPL@ATL@@QEAAPEAX_K@Z 000000018000e570 f i ToneIndicator.obj
 0001:0000d5f0       ?Allocate@?$CTempBuffer@E$0BAA@VCCRTAllocator@ATL@@@ATL@@QEAAPEAE_K@Z 000000018000e5f0 f i ToneIndicator.obj
 0001:0000d640       ?Allocate@?$CTempBuffer@_W$0BAA@VCCRTAllocator@ATL@@@ATL@@QEAAPEA_W_K@Z 000000018000e640 f i ToneIndicator.obj
 0001:0000d690       ?Allocate@?$CTempBuffer@_W$0EAA@VCCRTAllocator@ATL@@@ATL@@QEAAPEA_W_K@Z 000000018000e690 f i ToneIndicator.obj
 0001:0000d6e0       ?AllocateBytes@?$CTempBuffer@E$0BAA@VCCRTAllocator@ATL@@@ATL@@QEAAPEAE_K@Z 000000018000e6e0 f i ToneIndicator.obj
 0001:0000d790       ?AllocateBytes@?$CTempBuffer@_W$0BAA@VCCRTAllocator@ATL@@@ATL@@QEAAPEA_W_K@Z 000000018000e790 f i ToneIndicator.obj
 0001:0000d840       ?AllocateBytes@?$CTempBuffer@_W$0EAA@VCCRTAllocator@ATL@@@ATL@@QEAAPEA_W_K@Z 000000018000e840 f i ToneIndicator.obj
 0001:0000d8f0       ?AllocateHeap@?$CTempBuffer@E$0BAA@VCCRTAllocator@ATL@@@ATL@@AEAAX_K@Z 000000018000e8f0 f i ToneIndicator.obj
 0001:0000d950       ?AllocateHeap@?$CTempBuffer@_W$0BAA@VCCRTAllocator@ATL@@@ATL@@AEAAX_K@Z 000000018000e950 f i ToneIndicator.obj
 0001:0000d9b0       ?AllocateHeap@?$CTempBuffer@_W$0EAA@VCCRTAllocator@ATL@@@ATL@@AEAAX_K@Z 000000018000e9b0 f i ToneIndicator.obj
 0001:0000da10       ?Append@CParseBuffer@CRegParser@ATL@@QEAAHPEB_WH@Z 000000018000ea10 f i ToneIndicator.obj
 0001:0000dc40       ?AtlCallTermFunc@ATL@@YAXPEAU_ATL_MODULE70@1@@Z 000000018000ec40 f i ToneIndicator.obj
 0001:0000dcf0       ?AtlCoTaskMemCAlloc@ATL@@YAPEAXKK@Z 000000018000ecf0 f i ToneIndicator.obj
 0001:0000dd70       ?AtlCoTaskMemRecalloc@ATL@@YAPEAXPEAXKK@Z 000000018000ed70 f i ToneIndicator.obj
 0001:0000ddf0       ?AtlComModuleGetClassObject@ATL@@YAJPEAU_ATL_COM_MODULE70@1@AEBU_GUID@@1PEAPEAX@Z 000000018000edf0 f i ToneIndicator.obj
 0001:0000e120       ?AtlComModuleRegisterServer@ATL@@YAJPEAU_ATL_COM_MODULE70@1@HPEBU_GUID@@@Z 000000018000f120 f i ToneIndicator.obj
 0001:0000e320       ?AtlComModuleUnregisterServer@ATL@@YAJPEAU_ATL_COM_MODULE70@1@HPEBU_GUID@@@Z 000000018000f320 f i ToneIndicator.obj
 0001:0000e480       ?AtlComQIPtrAssign2@ATL@@YAXPEAPEAUIUnknown@@PEAU2@AEBU_GUID@@@Z 000000018000f480 f i ToneIndicator.obj
 0001:0000e510       ?AtlCreateTargetDC@ATL@@YAPEAUHDC__@@PEAU2@PEAUtagDVTARGETDEVICE@@@Z 000000018000f510 f i ToneIndicator.obj
 0001:0000e740       ?AtlCrtErrorCheck@ATL@@YAHH@Z 000000018000f740 f i ToneIndicator.obj
 0001:0000e7c0       ?AtlGetPerUserRegistration@ATL@@YAJPEA_N@Z 000000018000f7c0 f i ToneIndicator.obj
 0001:0000e7f0       ?AtlHiMetricToPixel@ATL@@YAXPEBUtagSIZE@@PEAU2@@Z 000000018000f7f0 f i ToneIndicator.obj
 0001:0000e9f0       ?AtlHresultFromLastError@ATL@@YAJXZ 000000018000f9f0 f i ToneIndicator.obj
 0001:0000ea20       ?AtlHresultFromWin32@ATL@@YAJK@Z 000000018000fa20 f i ToneIndicator.obj
 0001:0000ea50       ?AtlIPersistStreamInit_Load@ATL@@YAJPEAUIStream@@PEBUATL_PROPMAP_ENTRY@1@PEAXPEAUIUnknown@@@Z 000000018000fa50 f i ToneIndicator.obj
 0001:0000f0c0       ?AtlIPersistStreamInit_Save@ATL@@YAJPEAUIStream@@HPEBUATL_PROPMAP_ENTRY@1@PEAXPEAUIUnknown@@@Z 00000001800100c0 f i ToneIndicator.obj
 0001:0000f650       ?AtlInternalOleLoadFromStream@ATL@@YAJPEAUIStream@@AEBU_GUID@@PEAPEAXTClassesAllowedInStream@1@K@Z 0000000180010650 f i ToneIndicator.obj
 0001:0000f990       ?AtlInternalQueryInterface@ATL@@YAJPEAXPEBU_ATL_INTMAP_ENTRY@1@AEBU_GUID@@PEAPEAX@Z 0000000180010990 f i ToneIndicator.obj
 0001:0000fc50       ?AtlLoadTypeLib@ATL@@YAJPEAUHINSTANCE__@@PEB_WPEAPEA_WPEAPEAUITypeLib@@@Z 0000000180010c50 f i ToneIndicator.obj
 0001:00010120       ?AtlModuleAddTermFunc@ATL@@YAJPEAU_ATL_MODULE70@1@P6AX_K@Z1@Z 0000000180011120 f i ToneIndicator.obj
 0001:000102f0       ?AtlRegisterClassCategoriesHelper@ATL@@YAJAEBU_GUID@@PEBU_ATL_CATMAP_ENTRY@1@H@Z 00000001800112f0 f i ToneIndicator.obj
 0001:00010ac0       ?AtlRegisterTypeLib@ATL@@YAJPEAUHINSTANCE__@@PEB_W@Z 0000000180011ac0 f i ToneIndicator.obj
 0001:00010e20       ?AtlThrowImpl@ATL@@YAXJ@Z  0000000180011e20 f i ToneIndicator.obj
 0001:00010f00       ?AtlUnRegisterTypeLib@ATL@@YAJPEAUHINSTANCE__@@PEB_W@Z 0000000180011f00 f i ToneIndicator.obj
 0001:00011130       ?AtlWinModuleAddCreateWndData@ATL@@YAXPEAU_ATL_WIN_MODULE70@1@PEAU_AtlCreateWndData@1@PEAX@Z 0000000180012130 f i ToneIndicator.obj
 0001:00011320       ?AtlWinModuleExtractCreateWndData@ATL@@YAPEAXPEAU_ATL_WIN_MODULE70@1@@Z 0000000180012320 f i ToneIndicator.obj
 0001:00011520       ?AtlWinModuleRegisterClassExW@ATL@@YAGPEAU_ATL_WIN_MODULE70@1@PEBUtagWNDCLASSEXW@@@Z 0000000180012520 f i ToneIndicator.obj
 0001:000115f0       ?AtlWinModuleRegisterWndClassInfoW@ATL@@YAGPEAU_ATL_WIN_MODULE70@1@PEAU_ATL_BASE_MODULE70@1@PEAU_ATL_WNDCLASSINFOW@1@PEAP6A_JPEAUHWND__@@I_K_J@Z@Z 00000001800125f0 f i ToneIndicator.obj
 0001:00011660       ?Attach@?$CAutoVectorPtr@_W@ATL@@QEAAXPEA_W@Z 0000000180012660 f i ToneIndicator.obj
 0001:000116f0       ?Attach@CComBSTR@ATL@@QEAAXPEA_W@Z 00000001800126f0 f i ToneIndicator.obj
 0001:00011750       ?Attach@CRegKey@ATL@@QEAAXPEAUHKEY__@@@Z 0000000180012750 f i ToneIndicator.obj
 0001:000117f0       ?CanForceRemoveKey@CRegParser@ATL@@IEAAHPEB_W@Z 00000001800127f0 f i ToneIndicator.obj
 0001:00011860       ?ChToByte@CRegParser@ATL@@KAE_W@Z 0000000180012860 f i ToneIndicator.obj
 0001:000119c0       ?ChangeType@CComVariant@ATL@@QEAAJGPEBUtagVARIANT@@@Z 00000001800129c0 f i ToneIndicator.obj
 0001:00011a30       ?Cleanup@CComTypeInfoHolder@ATL@@SAX_K@Z 0000000180012a30 f i ToneIndicator.obj
 0001:00011b20       ?Clear@CComVariant@ATL@@QEAAJXZ 0000000180012b20 f i ToneIndicator.obj
 0001:00011b50       ?ClearReplacements@CExpansionVector@ATL@@QEAAJXZ 0000000180012b50 f i ToneIndicator.obj
 0001:00011bf0       ?ClearReplacements@CRegObject@ATL@@UEAAJXZ 0000000180012bf0 f i ToneIndicator.obj
 0001:00011c50       ?Clone@?$CComEnumImpl@UIEnumConnectionPoints@@$1?_GUID_b196b285_bab4_101a_b69c_00aa00341d07@@3U__s_GUID@@BPEAUIConnectionPoint@@V?$_CopyInterface@UIConnectionPoint@@@ATL@@@ATL@@UEAAJPEAPEAUIEnumConnectionPoints@@@Z 0000000180012c50 f i ToneIndicator.obj
 0001:00011e40       ?Clone@?$CComEnumImpl@UIEnumConnections@@$1?_GUID_b196b287_bab4_101a_b69c_00aa00341d07@@3U__s_GUID@@BUtagCONNECTDATA@@V?$_Copy@UtagCONNECTDATA@@@ATL@@@ATL@@UEAAJPEAPEAUIEnumConnections@@@Z 0000000180012e40 f i ToneIndicator.obj
 0001:00012030       ?Close@?$IOleObjectImpl@VCOPOSToneIndicator@@@ATL@@UEAAJK@Z 0000000180013030 f i ToneIndicator.obj
 0001:000120e0       ?Close@CRegKey@ATL@@QEAAJXZ 00000001800130e0 f i ToneIndicator.obj
 0001:00012150       ?ContextSensitiveHelp@?$IOleInPlaceActiveObjectImpl@VCOPOSToneIndicator@@@ATL@@UEAAJH@Z 0000000180013150 f i ToneIndicator.obj
 0001:000121d0       ?ContextSensitiveHelp@?$IOleInPlaceObjectWindowlessImpl@VCOPOSToneIndicator@@@ATL@@UEAAJH@Z 00000001800131d0 f i ToneIndicator.obj
 0001:00012250       ?ControlQueryInterface@?$CComControl@VCOPOSToneIndicator@@V?$CWindowImpl@VCOPOSToneIndicator@@VCWindow@ATL@@V?$CWinTraits@$0FGAAAAAA@$0A@@3@@ATL@@@ATL@@UEAAJAEBU_GUID@@PEAPEAX@Z 0000000180013250 f i ToneIndicator.obj
 0001:000122e0       ?CreateControlWindow@?$CComControl@VCOPOSToneIndicator@@V?$CWindowImpl@VCOPOSToneIndicator@@VCWindow@ATL@@V?$CWinTraits@$0FGAAAAAA@$0A@@3@@ATL@@@ATL@@UEAAPEAUHWND__@@PEAU3@AEAUtagRECT@@@Z 00000001800132e0 f i ToneIndicator.obj
 0001:000123d0       ?CreateInstance@?$CComCreator@V?$CComAggObject@VCOPOSToneIndicator@@@ATL@@@ATL@@SAJPEAXAEBU_GUID@@PEAPEAX@Z 00000001800133d0 f i ToneIndicator.obj
 0001:000125b0       ?CreateInstance@?$CComCreator@V?$CComObject@VCOPOSToneIndicator@@@ATL@@@ATL@@SAJPEAXAEBU_GUID@@PEAPEAX@Z 00000001800135b0 f i ToneIndicator.obj
 0001:000127b0       ?CreateInstance@?$CComObject@V?$CComEnum@UIEnumConnectionPoints@@$1?_GUID_b196b285_bab4_101a_b69c_00aa00341d07@@3U__s_GUID@@BPEAUIConnectionPoint@@V?$_CopyInterface@UIConnectionPoint@@@ATL@@VCComSingleThreadModel@6@@ATL@@@ATL@@SAJPEAPEAV12@@Z 00000001800137b0 f i ToneIndicator.obj
 0001:00012970       ?CreateInstance@?$CComObject@V?$CComEnum@UIEnumConnections@@$1?_GUID_b196b287_bab4_101a_b69c_00aa00341d07@@3U__s_GUID@@BUtagCONNECTDATA@@V?$_Copy@UtagCONNECTDATA@@@ATL@@VCComSingleThreadModel@6@@ATL@@@ATL@@SAJPEAPEAV12@@Z 0000000180013970 f i ToneIndicator.obj
 0001:00012b30       ?CreateInstance@CComClassFactory@ATL@@UEAAJPEAUIUnknown@@AEBU_GUID@@PEAPEAX@Z 0000000180013b30 f i ToneIndicator.obj
 0001:00012c50       ?DAdvise@?$IDataObjectImpl@VCOPOSToneIndicator@@@ATL@@UEAAJPEAUtagFORMATETC@@KPEAUIAdviseSink@@PEAK@Z 0000000180013c50 f i ToneIndicator.obj
 0001:00012db0       ?DEVMODEOLE2T_EX@@YAPEAU_devicemodeW@@PEAU1@@Z 0000000180013db0 f i ToneIndicator.obj
 0001:00012dc0       ?DUnadvise@?$IDataObjectImpl@VCOPOSToneIndicator@@@ATL@@UEAAJK@Z 0000000180013dc0 f i ToneIndicator.obj
 0001:00012ec0       ?Decrement@CComMultiThreadModel@ATL@@SAKPEAJ@Z 0000000180013ec0 f i ToneIndicator.obj
 0001:00012ee0       ?Decrement@CComSingleThreadModel@ATL@@SAKPEAJ@Z 0000000180013ee0 f i ToneIndicator.obj
 0001:00012f00       ?DefWindowProcW@?$CWindowImplBaseT@VCWindow@ATL@@V?$CWinTraits@$0FGAAAAAA@$0A@@2@@ATL@@QEAA_JI_K_J@Z 0000000180013f00 f i ToneIndicator.obj
 0001:00012f60       ?DefaultReflectionHandler@?$CWindowImplRoot@VCWindow@ATL@@@ATL@@SAHPEAUHWND__@@I_K_JAEA_J@Z 0000000180013f60 f i ToneIndicator.obj
 0001:00013050       ?DeleteSubKey@CRegKey@ATL@@QEAAJPEB_W@Z 0000000180014050 f i ToneIndicator.obj
 0001:00013180       ?DeleteValue@CRegKey@ATL@@QEAAJPEB_W@Z 0000000180014180 f i ToneIndicator.obj
 0001:00013210       ?Detach@?$CAutoVectorPtr@_W@ATL@@QEAAPEA_WXZ 0000000180014210 f i ToneIndicator.obj
 0001:00013250       ?Detach@?$CComPtrBase@UIPersistStream@@@ATL@@QEAAPEAUIPersistStream@@XZ 0000000180014250 f i ToneIndicator.obj
 0001:00013290       ?Detach@?$CComPtrBase@UITypeInfo@@@ATL@@QEAAPEAUITypeInfo@@XZ 0000000180014290 f i ToneIndicator.obj
 0001:000132d0       ?Detach@?$CComPtrBase@UIUnknown@@@ATL@@QEAAPEAUIUnknown@@XZ 00000001800142d0 f i ToneIndicator.obj
 0001:00013310       ?Detach@CComBSTR@ATL@@QEAAPEA_WXZ 0000000180014310 f i ToneIndicator.obj
 0001:00013350       ?Detach@CParseBuffer@CRegParser@ATL@@QEAAPEA_WXZ 0000000180014350 f i ToneIndicator.obj
 0001:000133b0       ?Detach@CRegKey@ATL@@QEAAPEAUHKEY__@@XZ 00000001800143b0 f i ToneIndicator.obj
 0001:00013410       ?DoEvent@COPOSToneIndicator@@IEAAXI_K_J@Z 0000000180014410 f i ToneIndicator.obj
 0001:00013550       ?DoVerb@?$IOleObjectImpl@VCOPOSToneIndicator@@@ATL@@UEAAJJPEAUtagMSG@@PEAUIOleClientSite@@JPEAUHWND__@@PEBUtagRECT@@@Z 0000000180014550 f i ToneIndicator.obj
 0001:00013860       ?DoVerbDiscardUndo@?$IOleObjectImpl@VCOPOSToneIndicator@@@ATL@@QEAAJPEBUtagRECT@@PEAUHWND__@@@Z 0000000180014860 f i ToneIndicator.obj
 0001:00013900       ?DoVerbHide@?$IOleObjectImpl@VCOPOSToneIndicator@@@ATL@@QEAAJPEBUtagRECT@@PEAUHWND__@@@Z 0000000180014900 f i ToneIndicator.obj
 0001:000139e0       ?DoVerbInPlaceActivate@?$IOleObjectImpl@VCOPOSToneIndicator@@@ATL@@QEAAJPEBUtagRECT@@PEAUHWND__@@@Z 00000001800149e0 f i ToneIndicator.obj
 0001:00013ac0       ?DoVerbOpen@?$IOleObjectImpl@VCOPOSToneIndicator@@@ATL@@QEAAJPEBUtagRECT@@PEAUHWND__@@@Z 0000000180014ac0 f i ToneIndicator.obj
 0001:00013b60       ?DoVerbPrimary@?$IOleObjectImpl@VCOPOSToneIndicator@@@ATL@@QEAAJPEBUtagRECT@@PEAUHWND__@@@Z 0000000180014b60 f i ToneIndicator.obj
 0001:00013ca0       ?DoVerbProperties@CComControlBase@ATL@@QEAAJPEBUtagRECT@@PEAUHWND__@@@Z 0000000180014ca0 f i ToneIndicator.obj
 0001:00014050       ?DoVerbShow@?$IOleObjectImpl@VCOPOSToneIndicator@@@ATL@@QEAAJPEBUtagRECT@@PEAUHWND__@@@Z 0000000180015050 f i ToneIndicator.obj
 0001:00014110       ?DoVerbUIActivate@?$IOleObjectImpl@VCOPOSToneIndicator@@@ATL@@QEAAJPEBUtagRECT@@PEAUHWND__@@@Z 0000000180015110 f i ToneIndicator.obj
 0001:000141f0       ?DoesVerbActivate@CComControlBase@ATL@@QEAAHJ@Z 00000001800151f0 f i ToneIndicator.obj
 0001:00014250       ?DoesVerbUIActivate@CComControlBase@ATL@@QEAAHJ@Z 0000000180015250 f i ToneIndicator.obj
 0001:000142d0       ?Draw@?$IViewObjectExImpl@VCOPOSToneIndicator@@@ATL@@UEAAJKJPEAXPEAUtagDVTARGETDEVICE@@PEAUHDC__@@2PEBU_RECTL@@3P6AH_K@Z4@Z 00000001800152d0 f i ToneIndicator.obj
 0001:000143f0       ?Empty@CComBSTR@ATL@@QEAAXXZ 00000001800153f0 f i ToneIndicator.obj
 0001:00014430       ?EnableModeless@?$IOleInPlaceActiveObjectImpl@VCOPOSToneIndicator@@@ATL@@UEAAJH@Z 0000000180015430 f i ToneIndicator.obj
 0001:000144a0       ?EndOfVar@CRegParser@ATL@@IEAAHXZ 00000001800154a0 f i ToneIndicator.obj
 0001:00014500       ?EnsureTI@CComTypeInfoHolder@ATL@@QEAAJK@Z 0000000180015500 f i ToneIndicator.obj
 0001:00014560       ?EnumAdvise@?$IOleObjectImpl@VCOPOSToneIndicator@@@ATL@@UEAAJPEAPEAUIEnumSTATDATA@@@Z 0000000180015560 f i ToneIndicator.obj
 0001:000146c0       ?EnumConnectionPoints@?$IConnectionPointContainerImpl@VCOPOSToneIndicator@@@ATL@@UEAAJPEAPEAUIEnumConnectionPoints@@@Z 00000001800156c0 f i ToneIndicator.obj
 0001:00014bb0       ?EnumConnections@?$IConnectionPointImpl@VCOPOSToneIndicator@@$1?DIID__IOPOSToneIndicatorEvents@@3U_GUID@@BVCComDynamicUnkArray@ATL@@@ATL@@UEAAJPEAPEAUIEnumConnections@@@Z 0000000180015bb0 f i ToneIndicator.obj
 0001:00014f00       ?EnumConnections@?$IConnectionPointImpl@VCOPOSToneIndicator@@$1?IID_IPropertyNotifySink@@3U_GUID@@BVCComDynamicUnkArray@ATL@@@ATL@@UEAAJPEAPEAUIEnumConnections@@@Z 0000000180015f00 f i ToneIndicator.obj
 0001:00015250       ?EnumDAdvise@?$IDataObjectImpl@VCOPOSToneIndicator@@@ATL@@UEAAJPEAPEAUIEnumSTATDATA@@@Z 0000000180016250 f i ToneIndicator.obj
 0001:000153a0       ?EnumFormatEtc@?$IDataObjectImpl@VCOPOSToneIndicator@@@ATL@@UEAAJKPEAPEAUIEnumFORMATETC@@@Z 00000001800163a0 f i ToneIndicator.obj
 0001:00015430       ?EnumVerbs@?$IOleObjectImpl@VCOPOSToneIndicator@@@ATL@@UEAAJPEAPEAUIEnumOLEVERB@@@Z 0000000180016430 f i ToneIndicator.obj
 0001:00015500       ?EscapeSingleQuote@CAtlModule@ATL@@SAXPEA_W_KPEB_W@Z 0000000180016500 f i ToneIndicator.obj
 0001:00015600       ?ExtractCreateWndData@CAtlWinModule@ATL@@QEAAPEAXXZ 0000000180016600 f i ToneIndicator.obj
 0001:00015630       ?FAccessAllowed@?$IObjectSafetyImpl@VCOPOSToneIndicator@@$02@ATL@@MEAAHXZ 0000000180016630 f i ToneIndicator.obj
 0001:00015640       ?FinalConstruct@?$CComAggObject@VCOPOSToneIndicator@@@ATL@@QEAAJXZ 0000000180016640 f i ToneIndicator.obj
 0001:00015690       ?FinalConstruct@CComObjectRootBase@ATL@@QEAAJXZ 0000000180016690 f i ToneIndicator.obj
 0001:000156a0       ?FinalConstruct@CRegObject@ATL@@QEAAJXZ 00000001800166a0 f i ToneIndicator.obj
 0001:000156e0       ?FinalRelease@?$CComAggObject@VCOPOSToneIndicator@@@ATL@@QEAAXXZ 00000001800166e0 f i ToneIndicator.obj
 0001:00015730       ?FinalRelease@CComObjectRootBase@ATL@@QEAAXXZ 0000000180016730 f i ToneIndicator.obj
 0001:00015740       ?FindConnectionPoint@?$IConnectionPointContainerImpl@VCOPOSToneIndicator@@@ATL@@UEAAJAEBU_GUID@@PEAPEAUIConnectionPoint@@@Z 0000000180016740 f i ToneIndicator.obj
 0001:000158b0       ?FindKey@?$CSimpleMap@PEA_WPEA_WVCExpansionVectorEqualHelper@ATL@@@ATL@@QEBAHAEBQEA_W@Z 00000001800168b0 f i ToneIndicator.obj
 0001:00015930       ?FireTheEvent@?$CProxy_IOPOSEvents@VCOPOSToneIndicator@@@@IEAAXPEAUIUnknown@@PEAVOposVariant@@IAEAJPEB_WJ@Z 0000000180016930 f i ToneIndicator.obj
 0001:00015b10       ?FireViewChange@CComControlBase@ATL@@QEAAJXZ 0000000180016b10 f i ToneIndicator.obj
 0001:00015bf0       ?Fire_DirectIOEvent@?$CProxy_IOPOSEvents@VCOPOSToneIndicator@@@@QEAAXJPEAJPEAPEA_W@Z 0000000180016bf0 f i ToneIndicator.obj
 0001:00015e80       ?Fire_ErrorEvent@?$CProxy_IOPOSEvents@VCOPOSToneIndicator@@@@QEAAXJJJPEAJ@Z 0000000180016e80 f i ToneIndicator.obj
 0001:00016130       ?Fire_OutputCompleteEvent@?$CProxy_IOPOSEvents@VCOPOSToneIndicator@@@@QEAAXJ@Z 0000000180017130 f i ToneIndicator.obj
 0001:00016320       ?Fire_StatusUpdateEvent@?$CProxy_IOPOSEvents@VCOPOSToneIndicator@@@@QEAAXJ@Z 0000000180017320 f i ToneIndicator.obj
 0001:00016510       ?FormatWindowClassName@AtlModuleRegisterWndClassInfoParamW@ATL@@SAXPEA_WKPEAX@Z 0000000180017510 f i ToneIndicator.obj
 0001:00016560       ?Free@?$CAutoVectorPtr@_W@ATL@@QEAAXXZ 0000000180017560 f i ToneIndicator.obj
 0001:000165b0       ?FreeHeap@?$CTempBuffer@E$0BAA@VCCRTAllocator@ATL@@@ATL@@AEAAXXZ 00000001800175b0 f i ToneIndicator.obj
 0001:000165f0       ?FreeHeap@?$CTempBuffer@_W$0BAA@VCCRTAllocator@ATL@@@ATL@@AEAAXXZ 00000001800175f0 f i ToneIndicator.obj
 0001:00016630       ?FreeHeap@?$CTempBuffer@_W$0EAA@VCCRTAllocator@ATL@@@ATL@@AEAAXXZ 0000000180017630 f i ToneIndicator.obj
 0001:00016670       ?Freeze@?$IViewObjectExImpl@VCOPOSToneIndicator@@@ATL@@UEAAJKJPEAXPEAK@Z 0000000180017670 f i ToneIndicator.obj
 0001:00016700       ?GenerateError@CRegParser@ATL@@IEAAJI@Z 0000000180017700 f i ToneIndicator.obj
 0001:00016720       ?GetAdvise@?$IViewObjectExImpl@VCOPOSToneIndicator@@@ATL@@UEAAJPEAK0PEAPEAUIAdviseSink@@@Z 0000000180017720 f i ToneIndicator.obj
 0001:00016870       ?GetAmbientLocaleID@CComControlBase@ATL@@QEAAJAEAK@Z 0000000180017870 f i ToneIndicator.obj
 0001:00016950       ?GetAmbientProperty@CComControlBase@ATL@@QEAAJJAEAUtagVARIANT@@@Z 0000000180017950 f i ToneIndicator.obj
 0001:000169c0       ?GetAmbientUserMode@CComControlBase@ATL@@QEAAJAEAH@Z 00000001800179c0 f i ToneIndicator.obj
 0001:00016ae0       ?GetAppId@?$CAtlModuleT@VCComModule@ATL@@@ATL@@SAPEB_WXZ 0000000180017ae0 f i ToneIndicator.obj
 0001:00016af0       ?GetAt@CComDynamicUnkArray@ATL@@QEAAPEAUIUnknown@@H@Z 0000000180017af0 f i ToneIndicator.obj
 0001:00016ba0       ?GetCanonicalFormatEtc@?$IDataObjectImpl@VCOPOSToneIndicator@@@ATL@@UEAAJPEAUtagFORMATETC@@0@Z 0000000180017ba0 f i ToneIndicator.obj
 0001:00016c30       ?GetClassID@?$IPersistStorageImpl@VCOPOSToneIndicator@@@ATL@@UEAAJPEAU_GUID@@@Z 0000000180017c30 f i ToneIndicator.obj
 0001:00016cd0       ?GetClassID@?$IPersistStreamInitImpl@VCOPOSToneIndicator@@@ATL@@UEAAJPEAU_GUID@@@Z 0000000180017cd0 f i ToneIndicator.obj
 0001:00016d70       ?GetClassInfoExW@AtlModuleRegisterWndClassInfoParamW@ATL@@SAHPEAUHINSTANCE__@@PEB_WPEAUtagWNDCLASSEXW@@@Z 0000000180017d70 f i ToneIndicator.obj
 0001:00016dc0       ?GetClassInfoW@?$IProvideClassInfo2Impl@$1?CLSID_OPOSToneIndicator@@3U_GUID@@B$1?DIID__IOPOSToneIndicatorEvents@@3U2@B$1?LIBID_OposToneIndicator_CCO@@3U2@B$00$0A@VCComTypeInfoHolder@ATL@@@ATL@@UEAAJPEAPEAUITypeInfo@@@Z 0000000180017dc0 f i ToneIndicator.obj
 0001:00016e00       ?GetClassObject@CComModule@ATL@@QEAAJAEBU_GUID@@0PEAPEAX@Z 0000000180017e00 f i ToneIndicator.obj
 0001:00017070       ?GetClientSite@?$IOleObjectImpl@VCOPOSToneIndicator@@@ATL@@UEAAJPEAPEAUIOleClientSite@@@Z 0000000180018070 f i ToneIndicator.obj
 0001:00017120       ?GetClipboardData@?$IOleObjectImpl@VCOPOSToneIndicator@@@ATL@@UEAAJKPEAPEAUIDataObject@@@Z 0000000180018120 f i ToneIndicator.obj
 0001:000171b0       ?GetCodeAddress@CDynamicStdCallThunk2@ATL@@QEAAPEAXXZ 00000001800181b0 f i ToneIndicator.obj
 0001:000171f0       ?GetColorSet@?$IViewObjectExImpl@VCOPOSToneIndicator@@@ATL@@UEAAJKJPEAXPEAUtagDVTARGETDEVICE@@PEAUHDC__@@PEAPEAUtagLOGPALETTE@@@Z 00000001800181f0 f i ToneIndicator.obj
 0001:00017280       ?GetConnMap@COPOSToneIndicator@@SAPEBU_ATL_CONNMAP_ENTRY@ATL@@PEAH@Z 0000000180018280 f i ToneIndicator.obj
 0001:000173e0       ?GetConnectionInterface@?$IConnectionPointImpl@VCOPOSToneIndicator@@$1?DIID__IOPOSToneIndicatorEvents@@3U_GUID@@BVCComDynamicUnkArray@ATL@@@ATL@@UEAAJPEAU_GUID@@@Z 00000001800183e0 f i ToneIndicator.obj
 0001:00017420       ?GetConnectionInterface@?$IConnectionPointImpl@VCOPOSToneIndicator@@$1?IID_IPropertyNotifySink@@3U_GUID@@BVCComDynamicUnkArray@ATL@@@ATL@@UEAAJPEAU_GUID@@@Z 0000000180018420 f i ToneIndicator.obj
 0001:00017460       ?GetConnectionPointContainer@?$IConnectionPointImpl@VCOPOSToneIndicator@@$1?DIID__IOPOSToneIndicatorEvents@@3U_GUID@@BVCComDynamicUnkArray@ATL@@@ATL@@UEAAJPEAPEAUIConnectionPointContainer@@@Z 0000000180018460 f i ToneIndicator.obj
 0001:000174e0       ?GetConnectionPointContainer@?$IConnectionPointImpl@VCOPOSToneIndicator@@$1?IID_IPropertyNotifySink@@3U_GUID@@BVCComDynamicUnkArray@ATL@@@ATL@@UEAAJPEAPEAUIConnectionPointContainer@@@Z 00000001800184e0 f i ToneIndicator.obj
 0001:00017560       ?GetContentExtent@?$IQuickActivateImpl@VCOPOSToneIndicator@@@ATL@@UEAAJPEAUtagSIZE@@@Z 0000000180018560 f i ToneIndicator.obj
 0001:00017620       ?GetControlInfo@?$IOleControlImpl@VCOPOSToneIndicator@@@ATL@@UEAAJPEAUtagCONTROLINFO@@@Z 0000000180018620 f i ToneIndicator.obj
 0001:000176b0       ?GetCookie@CComDynamicUnkArray@ATL@@QEAAKPEAPEAUIUnknown@@@Z 00000001800186b0 f i ToneIndicator.obj
 0001:000177a0       ?GetData@?$IDataObjectImpl@VCOPOSToneIndicator@@@ATL@@UEAAJPEAUtagFORMATETC@@PEAUtagSTGMEDIUM@@@Z 00000001800187a0 f i ToneIndicator.obj
 0001:00017860       ?GetData@CAtlSafeAllocBufferNode@?$CAtlSafeAllocBufferManager@VCCRTAllocator@ATL@@@_ATL_SAFE_ALLOCA_IMPL@ATL@@QEAAPEAXXZ 0000000180018860 f i ToneIndicator.obj
 0001:00017880       ?GetDataHere@?$IDataObjectImpl@VCOPOSToneIndicator@@@ATL@@UEAAJPEAUtagFORMATETC@@PEAUtagSTGMEDIUM@@@Z 0000000180018880 f i ToneIndicator.obj
 0001:00017910       ?GetDropTarget@?$IOleInPlaceObjectWindowlessImpl@VCOPOSToneIndicator@@@ATL@@UEAAJPEAPEAUIDropTarget@@@Z 0000000180018910 f i ToneIndicator.obj
 0001:000179a0       ?GetExtent@?$IOleObjectImpl@VCOPOSToneIndicator@@@ATL@@UEAAJKPEAUtagSIZE@@@Z 00000001800189a0 f i ToneIndicator.obj
 0001:00017a70       ?GetExtent@?$IViewObjectExImpl@VCOPOSToneIndicator@@@ATL@@UEAAJKJPEAUtagDVTARGETDEVICE@@PEAUtagSIZE@@@Z 0000000180018a70 f i ToneIndicator.obj
 0001:00017b80       ?GetGITPtr@CAtlModule@ATL@@UEAAJPEAPEAUIGlobalInterfaceTable@@@Z 0000000180018b80 f i ToneIndicator.obj
 0001:00017cc0       ?GetGUID@?$IProvideClassInfo2Impl@$1?CLSID_OPOSToneIndicator@@3U_GUID@@B$1?DIID__IOPOSToneIndicatorEvents@@3U2@B$1?LIBID_OposToneIndicator_CCO@@3U2@B$00$0A@VCComTypeInfoHolder@ATL@@@ATL@@UEAAJKPEAU_GUID@@@Z 0000000180018cc0 f i ToneIndicator.obj
 0001:00017d40       ?GetIDsOfNames@?$IDispatchImpl@UIOPOSToneIndicator@@$1?IID_IOPOSToneIndicator@@3U_GUID@@B$1?LIBID_OposToneIndicator_CCO@@3U3@B$00$0A@VCComTypeInfoHolder@ATL@@@ATL@@UEAAJAEBU_GUID@@PEAPEA_WIKPEAJ@Z 0000000180018d40 f i ToneIndicator.obj
 0001:00017da0       ?GetIDsOfNames@CComTypeInfoHolder@ATL@@QEAAJAEBU_GUID@@PEAPEA_WIKPEAJ@Z 0000000180018da0 f i ToneIndicator.obj
 0001:00017fc0       ?GetInterfaceSafetyOptions@?$IObjectSafetyImpl@VCOPOSToneIndicator@@$02@ATL@@UEAAJAEBU_GUID@@PEAK1@Z 0000000180018fc0 f i ToneIndicator.obj
 0001:00018160       ?GetKeyAt@?$CSimpleMap@PEA_WPEA_WVCExpansionVectorEqualHelper@ATL@@@ATL@@QEBAAEAPEA_WH@Z 0000000180019160 f i ToneIndicator.obj
 0001:00018210       ?GetLockCount@CAtlModule@ATL@@UEAAJXZ 0000000180019210 f i ToneIndicator.obj
 0001:00018220       ?GetMiscStatus@?$IOleObjectImpl@VCOPOSToneIndicator@@@ATL@@UEAAJKPEAK@Z 0000000180019220 f i ToneIndicator.obj
 0001:000182b0       ?GetMoniker@?$IOleObjectImpl@VCOPOSToneIndicator@@@ATL@@UEAAJKKPEAPEAUIMoniker@@@Z 00000001800192b0 f i ToneIndicator.obj
 0001:00018340       ?GetNaturalExtent@?$IViewObjectExImpl@VCOPOSToneIndicator@@@ATL@@UEAAJKJPEAUtagDVTARGETDEVICE@@PEAUHDC__@@PEAUtagExtentInfo@@PEAUtagSIZE@@@Z 0000000180019340 f i ToneIndicator.obj
 0001:000184d0       ?GetObjectCLSID@?$CComCoClass@VCOPOSToneIndicator@@$1?CLSID_OPOSToneIndicator@@3U_GUID@@B@ATL@@SAAEBU_GUID@@XZ 00000001800194d0 f i ToneIndicator.obj
 0001:000184e0       ?GetPages@?$ISpecifyPropertyPagesImpl@VCOPOSToneIndicator@@@ATL@@UEAAJPEAUtagCAUUID@@@Z 00000001800194e0 f i ToneIndicator.obj
 0001:00018570       ?GetPagesHelper@?$ISpecifyPropertyPagesImpl@VCOPOSToneIndicator@@@ATL@@IEAAJPEAUtagCAUUID@@PEBUATL_PROPMAP_ENTRY@2@@Z 0000000180019570 f i ToneIndicator.obj
 0001:000187e0       ?GetProperty@?$CComPtr@UIDispatch@@@ATL@@QEAAJJPEAUtagVARIANT@@@Z 00000001800197e0 f i ToneIndicator.obj
 0001:00018830       ?GetProperty@?$CComPtr@UIDispatch@@@ATL@@SAJPEAUIDispatch@@JPEAUtagVARIANT@@@Z 0000000180019830 f i ToneIndicator.obj
 0001:00018a00       ?GetPropertyMap@COPOSToneIndicator@@SAPEBUATL_PROPMAP_ENTRY@ATL@@XZ 0000000180019a00 f i ToneIndicator.obj
 0001:00018a10       ?GetRect@?$IViewObjectExImpl@VCOPOSToneIndicator@@@ATL@@UEAAJKPEAU_RECTL@@@Z 0000000180019a10 f i ToneIndicator.obj
 0001:00018aa0       ?GetSize@?$CSimpleMap@PEA_WPEA_WVCExpansionVectorEqualHelper@ATL@@@ATL@@QEBAHXZ 0000000180019aa0 f i ToneIndicator.obj
 0001:00018ab0       ?GetSize@CComDynamicUnkArray@ATL@@QEBAHXZ 0000000180019ab0 f i ToneIndicator.obj
 0001:00018ac0       ?GetSizeMax@?$IPersistStreamInitImpl@VCOPOSToneIndicator@@@ATL@@UEAAJPEAT_ULARGE_INTEGER@@@Z 0000000180019ac0 f i ToneIndicator.obj
 0001:00019250       ?GetSizeMax@CComVariant@ATL@@QEBAJPEAT_ULARGE_INTEGER@@@Z 000000018001a250 f i ToneIndicator.obj
 0001:00019680       ?GetStreamSize@CComBSTR@ATL@@SAKPEA_W@Z 000000018001a680 f i ToneIndicator.obj
 0001:000196e0       ?GetTI@CComTypeInfoHolder@ATL@@QEAAJK@Z 000000018001a6e0 f i ToneIndicator.obj
 0001:00019fb0       ?GetTI@CComTypeInfoHolder@ATL@@QEAAJKPEAPEAUITypeInfo@@@Z 000000018001afb0 f i ToneIndicator.obj
 0001:0001a0a0       ?GetTypeInfo@?$IDispatchImpl@UIOPOSToneIndicator@@$1?IID_IOPOSToneIndicator@@3U_GUID@@B$1?LIBID_OposToneIndicator_CCO@@3U3@B$00$0A@VCComTypeInfoHolder@ATL@@@ATL@@UEAAJIKPEAPEAUITypeInfo@@@Z 000000018001b0a0 f i ToneIndicator.obj
 0001:0001a0f0       ?GetTypeInfo@CComTypeInfoHolder@ATL@@QEAAJIKPEAPEAUITypeInfo@@@Z 000000018001b0f0 f i ToneIndicator.obj
 0001:0001a150       ?GetTypeInfoCount@?$IDispatchImpl@UIOPOSToneIndicator@@$1?IID_IOPOSToneIndicator@@3U_GUID@@B$1?LIBID_OposToneIndicator_CCO@@3U3@B$00$0A@VCComTypeInfoHolder@ATL@@@ATL@@UEAAJPEAI@Z 000000018001b150 f i ToneIndicator.obj
 0001:0001a180       ?GetUnknown@CComDynamicUnkArray@ATL@@QEAAPEAUIUnknown@@K@Z 000000018001b180 f i ToneIndicator.obj
 0001:0001a230       ?GetUnknown@COPOSToneIndicator@@QEAAPEAUIUnknown@@XZ 000000018001b230 f i ToneIndicator.obj
 0001:0001a260       ?GetUserClassID@?$IOleObjectImpl@VCOPOSToneIndicator@@@ATL@@UEAAJPEAU_GUID@@@Z 000000018001b260 f i ToneIndicator.obj
 0001:0001a340       ?GetUserType@?$IOleObjectImpl@VCOPOSToneIndicator@@@ATL@@UEAAJKPEAPEA_W@Z 000000018001b340 f i ToneIndicator.obj
 0001:0001a3d0       ?GetValueAt@?$CSimpleMap@PEA_WPEA_WVCExpansionVectorEqualHelper@ATL@@@ATL@@QEBAAEAPEA_WH@Z 000000018001b3d0 f i ToneIndicator.obj
 0001:0001a480       ?GetViewStatus@?$IViewObjectExImpl@VCOPOSToneIndicator@@@ATL@@UEAAJPEAK@Z 000000018001b480 f i ToneIndicator.obj
 0001:0001a580       ?GetWNDPROC@CWndProcThunk@ATL@@QEAAP6A_JPEAUHWND__@@I_K_J@ZXZ 000000018001b580 f i ToneIndicator.obj
 0001:0001a5c0       ?GetWindow@?$IOleInPlaceActiveObjectImpl@VCOPOSToneIndicator@@@ATL@@UEAAJPEAPEAUHWND__@@@Z 000000018001b5c0 f i ToneIndicator.obj
 0001:0001a6c0       ?GetWindow@?$IOleInPlaceObjectWindowlessImpl@VCOPOSToneIndicator@@@ATL@@UEAAJPEAPEAUHWND__@@@Z 000000018001b6c0 f i ToneIndicator.obj
 0001:0001a7c0       ?GetWindowProc@?$CWindowImplBaseT@VCWindow@ATL@@V?$CWinTraits@$0FGAAAAAA@$0A@@2@@ATL@@UEAAP6A_JPEAUHWND__@@I_K_J@ZXZ 000000018001b7c0 f i ToneIndicator.obj
 0001:0001a7d0       ?GetWndCaption@?$CWindowImpl@VCOPOSToneIndicator@@VCWindow@ATL@@V?$CWinTraits@$0FGAAAAAA@$0A@@3@@ATL@@SAPEB_WXZ 000000018001b7d0 f i ToneIndicator.obj
 0001:0001a7e0       ?GetWndClassInfo@?$CWindowImpl@VCOPOSToneIndicator@@VCWindow@ATL@@V?$CWinTraits@$0FGAAAAAA@$0A@@3@@ATL@@SAAEAU_ATL_WNDCLASSINFOW@2@XZ 000000018001b7e0 f i ToneIndicator.obj
 0001:0001a7f0       ?GetWndClassName@CWindow@ATL@@SAPEB_WXZ 000000018001b7f0 f i ToneIndicator.obj
 0001:0001a800       ?GetWndExStyle@?$CWinTraits@$0FGAAAAAA@$0A@@ATL@@SAKK@Z 000000018001b800 f i ToneIndicator.obj
 0001:0001a840       ?GetWndExStyle@?$CWindowImplBaseT@VCWindow@ATL@@V?$CWinTraits@$0FGAAAAAA@$0A@@2@@ATL@@SAKK@Z 000000018001b840 f i ToneIndicator.obj
 0001:0001a870       ?GetWndStyle@?$CWinTraits@$0FGAAAAAA@$0A@@ATL@@SAKK@Z 000000018001b870 f i ToneIndicator.obj
 0001:0001a8b0       ?GetWndStyle@?$CWindowImplBaseT@VCWindow@ATL@@V?$CWinTraits@$0FGAAAAAA@$0A@@2@@ATL@@SAKK@Z 000000018001b8b0 f i ToneIndicator.obj
 0001:0001a8e0       ?GetZoomInfo@CComControlBase@ATL@@QEAAXAEAUATL_DRAWINFO@@@Z 000000018001b8e0 f i ToneIndicator.obj
 0001:0001aa90       ?HKeyFromString@CRegParser@ATL@@KAPEAUHKEY__@@PEA_W@Z 000000018001ba90 f i ToneIndicator.obj
 0001:0001ab20       ?HandsOffStorage@?$IPersistStorageImpl@VCOPOSToneIndicator@@@ATL@@UEAAJXZ 000000018001bb20 f i ToneIndicator.obj
 0001:0001ab90       ?HasSubKeys@CRegParser@ATL@@IEAAHPEAUHKEY__@@@Z 000000018001bb90 f i ToneIndicator.obj
 0001:0001ad00       ?IDataObject_GetData@CComControlBase@ATL@@QEAAJPEAUtagFORMATETC@@PEAUtagSTGMEDIUM@@@Z 000000018001bd00 f i ToneIndicator.obj
 0001:0001b1b0       ?IOleInPlaceObject_InPlaceDeactivate@CComControlBase@ATL@@QEAAJXZ 000000018001c1b0 f i ToneIndicator.obj
 0001:0001b420       ?IOleInPlaceObject_SetObjectRects@CComControlBase@ATL@@QEAAJPEBUtagRECT@@0@Z 000000018001c420 f i ToneIndicator.obj
 0001:0001b600       ?IOleInPlaceObject_UIDeactivate@CComControlBase@ATL@@QEAAJXZ 000000018001c600 f i ToneIndicator.obj
 0001:0001b870       ?IOleObject_Advise@CComControlBase@ATL@@QEAAJPEAUIAdviseSink@@PEAK@Z 000000018001c870 f i ToneIndicator.obj
 0001:0001b920       ?IOleObject_Close@CComControlBase@ATL@@QEAAJK@Z 000000018001c920 f i ToneIndicator.obj
 0001:0001bc90       ?IOleObject_GetClientSite@CComControlBase@ATL@@QEAAJPEAPEAUIOleClientSite@@@Z 000000018001cc90 f i ToneIndicator.obj
 0001:0001bd60       ?IOleObject_SetClientSite@CComControlBase@ATL@@QEAAJPEAUIOleClientSite@@@Z 000000018001cd60 f i ToneIndicator.obj
 0001:0001be70       ?IOleObject_SetExtent@CComControlBase@ATL@@QEAAJKPEAUtagSIZE@@@Z 000000018001ce70 f i ToneIndicator.obj
 0001:0001bfe0       ?IPSI_GetIPersistStreamInit@?$IPersistStorageImpl@VCOPOSToneIndicator@@@ATL@@AEAAPEAUIPersistStreamInit@@XZ 000000018001cfe0 f i ToneIndicator.obj
 0001:0001c0a0       ?IPersistStreamInit_Load@?$IPersistStreamInitImpl@VCOPOSToneIndicator@@@ATL@@QEAAJPEAUIStream@@PEBUATL_PROPMAP_ENTRY@2@@Z 000000018001d0a0 f i ToneIndicator.obj
 0001:0001c140       ?IPersistStreamInit_Save@?$IPersistStreamInitImpl@VCOPOSToneIndicator@@@ATL@@QEAAJPEAUIStream@@HPEBUATL_PROPMAP_ENTRY@2@@Z 000000018001d140 f i ToneIndicator.obj
 0001:0001c200       ?IQuickActivate_QuickActivate@CComControlBase@ATL@@QEAAJPEAUtagQACONTAINER@@PEAUtagQACONTROL@@@Z 000000018001d200 f i ToneIndicator.obj
 0001:0001ca40       ?IViewObject_Draw@CComControlBase@ATL@@QEAAJKJPEAXPEAUtagDVTARGETDEVICE@@PEAUHDC__@@2PEBU_RECTL@@3@Z 000000018001da40 f i ToneIndicator.obj
 0001:0001ce90       ?InPlaceActivate@CComControlBase@ATL@@QEAAJJPEBUtagRECT@@@Z 000000018001de90 f i ToneIndicator.obj
 0001:0001da30       ?InPlaceDeactivate@?$IOleInPlaceObjectWindowlessImpl@VCOPOSToneIndicator@@@ATL@@UEAAJXZ 000000018001ea30 f i ToneIndicator.obj
 0001:0001dae0       ?Increment@CComMultiThreadModel@ATL@@SAKPEAJ@Z 000000018001eae0 f i ToneIndicator.obj
 0001:0001db00       ?Increment@CComSingleThreadModel@ATL@@SAKPEAJ@Z 000000018001eb00 f i ToneIndicator.obj
 0001:0001db20       ?Init@?$CComEnumImpl@UIEnumConnectionPoints@@$1?_GUID_b196b285_bab4_101a_b69c_00aa00341d07@@3U__s_GUID@@BPEAUIConnectionPoint@@V?$_CopyInterface@UIConnectionPoint@@@ATL@@@ATL@@QEAAJPEAPEAUIConnectionPoint@@0PEAUIUnknown@@W4CComEnumFlags@2@@Z 000000018001eb20 f i ToneIndicator.obj
 0001:0001de10       ?Init@?$CComEnumImpl@UIEnumConnections@@$1?_GUID_b196b287_bab4_101a_b69c_00aa00341d07@@3U__s_GUID@@BUtagCONNECTDATA@@V?$_Copy@UtagCONNECTDATA@@@ATL@@@ATL@@QEAAJPEAUtagCONNECTDATA@@0PEAUIUnknown@@W4CComEnumFlags@2@@Z 000000018001ee10 f i ToneIndicator.obj
 0001:0001e100       ?Init@CComFakeCriticalSection@ATL@@QEAAJXZ 000000018001f100 f i ToneIndicator.obj
 0001:0001e110       ?Init@CComModule@ATL@@QEAAJPEAU_ATL_OBJMAP_ENTRY30@2@PEAUHINSTANCE__@@PEBU_GUID@@@Z 000000018001f110 f i ToneIndicator.obj
 0001:0001e200       ?Init@CComSafeDeleteCriticalSection@ATL@@QEAAJXZ 000000018001f200 f i ToneIndicator.obj
 0001:0001e290       ?Init@CDynamicStdCallThunk2@ATL@@QEAAH_KPEAX@Z 000000018001f290 f i ToneIndicator.obj
 0001:0001e310       ?Init@CWndProcThunk@ATL@@QEAAHP6A_JPEAUHWND__@@I_K_J@ZPEAX@Z 000000018001f310 f i ToneIndicator.obj
 0001:0001e360       ?InitFromData@?$IOleObjectImpl@VCOPOSToneIndicator@@@ATL@@UEAAJPEAUIDataObject@@HK@Z 000000018001f360 f i ToneIndicator.obj
 0001:0001e3f0       ?InitLibId@?$CAtlModuleT@VCComModule@ATL@@@ATL@@SAXXZ 000000018001f3f0 f i ToneIndicator.obj
 0001:0001e400       ?InitNew@?$IPersistStorageImpl@VCOPOSToneIndicator@@@ATL@@UEAAJPEAUIStorage@@@Z 000000018001f400 f i ToneIndicator.obj
 0001:0001e4f0       ?InitNew@?$IPersistStreamInitImpl@VCOPOSToneIndicator@@@ATL@@UEAAJXZ 000000018001f4f0 f i ToneIndicator.obj
 0001:0001e5a0       ?InlineIsEqualUnknown@ATL@@YAHAEBU_GUID@@@Z 000000018001f5a0 f i ToneIndicator.obj
 0001:0001e630       ?InternalAddRef@?$CComObjectRootEx@VCComMultiThreadModel@ATL@@@ATL@@QEAAKXZ 000000018001f630 f i ToneIndicator.obj
 0001:0001e6b0       ?InternalAddRef@?$CComObjectRootEx@VCComSingleThreadModel@ATL@@@ATL@@QEAAKXZ 000000018001f6b0 f i ToneIndicator.obj
 0001:0001e730       ?InternalFinalConstructAddRef@CComObjectRootBase@ATL@@QEAAXXZ 000000018001f730 f i ToneIndicator.obj
 0001:0001e740       ?InternalFinalConstructAddRef@COPOSToneIndicator@@QEAAXXZ 000000018001f740 f i ToneIndicator.obj
 0001:0001e780       ?InternalFinalConstructRelease@CComObjectRootBase@ATL@@QEAAXXZ 000000018001f780 f i ToneIndicator.obj
 0001:0001e7f0       ?InternalFinalConstructRelease@COPOSToneIndicator@@QEAAXXZ 000000018001f7f0 f i ToneIndicator.obj
 0001:0001e830       ?InternalGetSite@CComControlBase@ATL@@QEAAJAEBU_GUID@@PEAPEAX@Z 000000018001f830 f i ToneIndicator.obj
 0001:0001e910       ?InternalQueryInterface@CComObjectRootBase@ATL@@SAJPEAXPEBU_ATL_INTMAP_ENTRY@2@AEBU_GUID@@PEAPEAX@Z 000000018001f910 f i ToneIndicator.obj
 0001:0001ea30       ?InternalRelease@?$CComObjectRootEx@VCComMultiThreadModel@ATL@@@ATL@@QEAAKXZ 000000018001fa30 f i ToneIndicator.obj
 0001:0001eab0       ?InternalRelease@?$CComObjectRootEx@VCComSingleThreadModel@ATL@@@ATL@@QEAAKXZ 000000018001fab0 f i ToneIndicator.obj
 0001:0001eb30       ?InternalSetAtIndex@?$CSimpleArray@GV?$CSimpleArrayEqualHelper@G@ATL@@@ATL@@QEAAXHAEBG@Z 000000018001fb30 f i ToneIndicator.obj
 0001:0001ebb0       ?InternalSetAtIndex@?$CSimpleMap@PEA_WPEA_WVCExpansionVectorEqualHelper@ATL@@@ATL@@QEAAXHAEBQEA_W0@Z 000000018001fbb0 f i ToneIndicator.obj
 0001:0001ec80       ?Invoke@?$IDispatchImpl@UIOPOSToneIndicator@@$1?IID_IOPOSToneIndicator@@3U_GUID@@B$1?LIBID_OposToneIndicator_CCO@@3U3@B$00$0A@VCComTypeInfoHolder@ATL@@@ATL@@UEAAJJAEBU_GUID@@KGPEAUtagDISPPARAMS@@PEAUtagVARIANT@@PEAUtagEXCEPINFO@@PEAI@Z 000000018001fc80 f i ToneIndicator.obj
 0001:0001ed20       ?Invoke@CComTypeInfoHolder@ATL@@QEAAJPEAUIDispatch@@JAEBU_GUID@@KGPEAUtagDISPPARAMS@@PEAUtagVARIANT@@PEAUtagEXCEPINFO@@PEAI@Z 000000018001fd20 f i ToneIndicator.obj
 0001:0001ede0       ?IsDirty@?$IPersistStorageImpl@VCOPOSToneIndicator@@@ATL@@UEAAJXZ 000000018001fde0 f i ToneIndicator.obj
 0001:0001eed0       ?IsDirty@?$IPersistStreamInitImpl@VCOPOSToneIndicator@@@ATL@@UEAAJXZ 000000018001fed0 f i ToneIndicator.obj
 0001:0001ef90       ?IsEqualKey@CExpansionVectorEqualHelper@ATL@@SA_NQEA_W0@Z 000000018001ff90 f i ToneIndicator.obj
 0001:0001efe0       ?IsEqualObject@?$CComPtrBase@UIOleClientSite@@@ATL@@QEAA_NPEAUIUnknown@@@Z 000000018001ffe0 f i ToneIndicator.obj
 0001:0001f130       ?IsEqualObject@?$CComPtrBase@UITypeInfo@@@ATL@@QEAA_NPEAUIUnknown@@@Z 0000000180020130 f i ToneIndicator.obj
 0001:0001f280       ?IsSpace@CRegParser@ATL@@IEAAH_W@Z 0000000180020280 f i ToneIndicator.obj
 0001:0001f2e0       ?IsUpToDate@?$IOleObjectImpl@VCOPOSToneIndicator@@@ATL@@UEAAJXZ 00000001800202e0 f i ToneIndicator.obj
 0001:0001f350       ?Length@CComBSTR@ATL@@QEBAIXZ 0000000180020350 f i ToneIndicator.obj
 0001:0001f390       ?Load@?$IPersistStorageImpl@VCOPOSToneIndicator@@@ATL@@UEAAJPEAUIStorage@@@Z 0000000180020390 f i ToneIndicator.obj
 0001:0001f540       ?Load@?$IPersistStreamInitImpl@VCOPOSToneIndicator@@@ATL@@UEAAJPEAUIStream@@@Z 0000000180020540 f i ToneIndicator.obj
 0001:0001f600       ?LoadCursorW@AtlModuleRegisterWndClassInfoParamW@ATL@@SAPEAUHICON__@@PEAUHINSTANCE__@@PEB_W@Z 0000000180020600 f i ToneIndicator.obj
 0001:0001f640       ?LoadNameCache@CComTypeInfoHolder@ATL@@QEAAJPEAUITypeInfo@@@Z 0000000180020640 f i ToneIndicator.obj
 0001:0001f980       ?Lock@?$CComCritSecLock@VCComCriticalSection@ATL@@@ATL@@QEAAJXZ 0000000180020980 f i ToneIndicator.obj
 0001:0001fa70       ?Lock@?$CComObjectRootEx@VCComSingleThreadModel@ATL@@@ATL@@QEAAXXZ 0000000180020a70 f i ToneIndicator.obj
 0001:0001fa80       ?Lock@CAtlModule@ATL@@UEAAJXZ 0000000180020a80 f i ToneIndicator.obj
 0001:0001fac0       ?Lock@CComCriticalSection@ATL@@QEAAJXZ 0000000180020ac0 f i ToneIndicator.obj
 0001:0001fb00       ?Lock@CComFakeCriticalSection@ATL@@QEAAJXZ 0000000180020b00 f i ToneIndicator.obj
 0001:0001fb10       ?LockServer@CComClassFactory@ATL@@UEAAJH@Z 0000000180020b10 f i ToneIndicator.obj
 0001:0001fb70       ?Lookup@?$CSimpleMap@PEA_WPEA_WVCExpansionVectorEqualHelper@ATL@@@ATL@@QEBAPEA_WAEBQEA_W@Z 0000000180020b70 f i ToneIndicator.obj
 0001:0001fbd0       ?Next@?$CComEnumImpl@UIEnumConnectionPoints@@$1?_GUID_b196b285_bab4_101a_b69c_00aa00341d07@@3U__s_GUID@@BPEAUIConnectionPoint@@V?$_CopyInterface@UIConnectionPoint@@@ATL@@@ATL@@UEAAJKPEAPEAUIConnectionPoint@@PEAK@Z 0000000180020bd0 f i ToneIndicator.obj
 0001:0001fd90       ?Next@?$CComEnumImpl@UIEnumConnections@@$1?_GUID_b196b287_bab4_101a_b69c_00aa00341d07@@3U__s_GUID@@BUtagCONNECTDATA@@V?$_Copy@UtagCONNECTDATA@@@ATL@@@ATL@@UEAAJKPEAUtagCONNECTDATA@@PEAK@Z 0000000180020d90 f i ToneIndicator.obj
 0001:0001ff50       ?NextToken@CRegParser@ATL@@IEAAJPEA_W@Z 0000000180020f50 f i ToneIndicator.obj
 0001:000202e0       ?OLE2CT_EX@@YAPEB_WPEB_WI@Z 00000001800212e0 f i ToneIndicator.obj
 0001:00020300       ?OLE2CT_EX_DEF@@YAPEB_WPEB_W@Z 0000000180021300 f i ToneIndicator.obj
 0001:00020310       ?OLE2T_EX@@YAPEA_WPEA_WI@Z 0000000180021310 f i ToneIndicator.obj
 0001:00020330       ?OnAmbientPropertyChange@?$IOleControlImpl@VCOPOSToneIndicator@@@ATL@@UEAAJJ@Z 0000000180021330 f i ToneIndicator.obj
 0001:000203f0       ?OnDocWindowActivate@?$IOleInPlaceActiveObjectImpl@VCOPOSToneIndicator@@@ATL@@UEAAJH@Z 00000001800213f0 f i ToneIndicator.obj
 0001:000204b0       ?OnDrawAdvanced@CComControlBase@ATL@@UEAAJAEAUATL_DRAWINFO@@@Z 00000001800214b0 f i ToneIndicator.obj
 0001:00020700       ?OnFinalMessage@?$CWindowImplBaseT@VCWindow@ATL@@V?$CWinTraits@$0FGAAAAAA@$0A@@2@@ATL@@UEAAXPEAUHWND__@@@Z 0000000180021700 f i ToneIndicator.obj
 0001:00020710       ?OnFrameWindowActivate@?$IOleInPlaceActiveObjectImpl@VCOPOSToneIndicator@@@ATL@@UEAAJH@Z 0000000180021710 f i ToneIndicator.obj
 0001:00020780       ?OnKillFocus@CComControlBase@ATL@@QEAA_JI_K_JAEAH@Z 0000000180021780 f i ToneIndicator.obj
 0001:00020870       ?OnMnemonic@?$IOleControlImpl@VCOPOSToneIndicator@@@ATL@@UEAAJPEAUtagMSG@@@Z 0000000180021870 f i ToneIndicator.obj
 0001:00020900       ?OnMouseActivate@CComControlBase@ATL@@QEAA_JI_K_JAEAH@Z 0000000180021900 f i ToneIndicator.obj
 0001:00020aa0       ?OnPaint@CComControlBase@ATL@@QEAA_JI_K_JAEAH@Z 0000000180021aa0 f i ToneIndicator.obj
 0001:00020c30       ?OnPostVerbDiscardUndo@?$IOleObjectImpl@VCOPOSToneIndicator@@@ATL@@QEAAJXZ 0000000180021c30 f i ToneIndicator.obj
 0001:00020c40       ?OnPostVerbHide@?$IOleObjectImpl@VCOPOSToneIndicator@@@ATL@@QEAAJXZ 0000000180021c40 f i ToneIndicator.obj
 0001:00020c50       ?OnPostVerbInPlaceActivate@?$IOleObjectImpl@VCOPOSToneIndicator@@@ATL@@QEAAJXZ 0000000180021c50 f i ToneIndicator.obj
 0001:00020c60       ?OnPostVerbOpen@?$IOleObjectImpl@VCOPOSToneIndicator@@@ATL@@QEAAJXZ 0000000180021c60 f i ToneIndicator.obj
 0001:00020c70       ?OnPostVerbShow@?$IOleObjectImpl@VCOPOSToneIndicator@@@ATL@@QEAAJXZ 0000000180021c70 f i ToneIndicator.obj
 0001:00020c80       ?OnPostVerbUIActivate@?$IOleObjectImpl@VCOPOSToneIndicator@@@ATL@@QEAAJXZ 0000000180021c80 f i ToneIndicator.obj
 0001:00020c90       ?OnPreVerbDiscardUndo@?$IOleObjectImpl@VCOPOSToneIndicator@@@ATL@@QEAAJXZ 0000000180021c90 f i ToneIndicator.obj
 0001:00020ca0       ?OnPreVerbHide@?$IOleObjectImpl@VCOPOSToneIndicator@@@ATL@@QEAAJXZ 0000000180021ca0 f i ToneIndicator.obj
 0001:00020cb0       ?OnPreVerbInPlaceActivate@?$IOleObjectImpl@VCOPOSToneIndicator@@@ATL@@QEAAJXZ 0000000180021cb0 f i ToneIndicator.obj
 0001:00020cc0       ?OnPreVerbOpen@?$IOleObjectImpl@VCOPOSToneIndicator@@@ATL@@QEAAJXZ 0000000180021cc0 f i ToneIndicator.obj
 0001:00020cd0       ?OnPreVerbShow@?$IOleObjectImpl@VCOPOSToneIndicator@@@ATL@@QEAAJXZ 0000000180021cd0 f i ToneIndicator.obj
 0001:00020ce0       ?OnPreVerbUIActivate@?$IOleObjectImpl@VCOPOSToneIndicator@@@ATL@@QEAAJXZ 0000000180021ce0 f i ToneIndicator.obj
 0001:00020cf0       ?OnSetFocus@CComControlBase@ATL@@QEAA_JI_K_JAEAH@Z 0000000180021cf0 f i ToneIndicator.obj
 0001:00020ef0       ?OnWindowMessage@?$IOleInPlaceObjectWindowlessImpl@VCOPOSToneIndicator@@@ATL@@UEAAJI_K_JPEA_J@Z 0000000180021ef0 f i ToneIndicator.obj
 0001:00021110       ?Open@CRegKey@ATL@@QEAAJPEAUHKEY__@@PEB_WK@Z 0000000180022110 f i ToneIndicator.obj
 0001:00021290       ?OuterAddRef@CComObjectRootBase@ATL@@QEAAKXZ 0000000180022290 f i ToneIndicator.obj
 0001:000212d0       ?OuterQueryInterface@CComObjectRootBase@ATL@@QEAAJAEBU_GUID@@PEAPEAX@Z 00000001800222d0 f i ToneIndicator.obj
 0001:00021320       ?OuterRelease@CComObjectRootBase@ATL@@QEAAKXZ 0000000180022320 f i ToneIndicator.obj
 0001:00021360       ?PreProcessBuffer@CRegParser@ATL@@QEAAJPEA_WPEAPEA_W@Z 0000000180022360 f i ToneIndicator.obj
 0001:00021a40       ?PreTranslateAccelerator@CComControlBase@ATL@@QEAAHPEAUtagMSG@@AEAJ@Z 0000000180022a40 f i ToneIndicator.obj
 0001:00021a60       ?ProcessWindowMessage@?$CComControl@VCOPOSToneIndicator@@V?$CWindowImpl@VCOPOSToneIndicator@@VCWindow@ATL@@V?$CWinTraits@$0FGAAAAAA@$0A@@3@@ATL@@@ATL@@UEAAHPEAUHWND__@@I_K_JAEA_JK@Z 0000000180022a60 f i ToneIndicator.obj
 0001:00021ce0       ?ProcessWindowMessage@COPOSToneIndicator@@UEAAHPEAUHWND__@@I_K_JAEA_JK@Z 0000000180022ce0 f i ToneIndicator.obj
 0001:00021e60       ?PutProperty@?$CComPtr@UIDispatch@@@ATL@@QEAAJJPEAUtagVARIANT@@@Z 0000000180022e60 f i ToneIndicator.obj
 0001:00021eb0       ?PutProperty@?$CComPtr@UIDispatch@@@ATL@@SAJPEAUIDispatch@@JPEAUtagVARIANT@@@Z 0000000180022eb0 f i ToneIndicator.obj
 0001:00022150       ?QueryGetData@?$IDataObjectImpl@VCOPOSToneIndicator@@@ATL@@UEAAJPEAUtagFORMATETC@@@Z 0000000180023150 f i ToneIndicator.obj
 0001:000221e0       ?QueryHitPoint@?$IViewObjectExImpl@VCOPOSToneIndicator@@@ATL@@UEAAJKPEBUtagRECT@@UtagPOINT@@JPEAK@Z 00000001800231e0 f i ToneIndicator.obj
 0001:00022350       ?QueryHitRect@?$IViewObjectExImpl@VCOPOSToneIndicator@@@ATL@@UEAAJKPEBUtagRECT@@0JPEAK@Z 0000000180023350 f i ToneIndicator.obj
 0001:00022520       ?QueryInterface@?$CComAggObject@VCOPOSToneIndicator@@@ATL@@UEAAJAEBU_GUID@@PEAPEAX@Z 0000000180023520 f i ToneIndicator.obj
 0001:00022610       ?QueryInterface@?$CComContainedObject@VCOPOSToneIndicator@@@ATL@@UEAAJAEBU_GUID@@PEAPEAX@Z 0000000180023610 f i ToneIndicator.obj
 0001:0002265c       ?QueryInterface@?$CComContainedObject@VCOPOSToneIndicator@@@ATL@@WBAA@EAAJAEBU_GUID@@PEAPEAX@Z 000000018002365c f i ToneIndicator.obj
 0001:00022668       ?QueryInterface@?$CComContainedObject@VCOPOSToneIndicator@@@ATL@@WBAI@EAAJAEBU_GUID@@PEAPEAX@Z 0000000180023668 f i ToneIndicator.obj
 0001:00022674       ?QueryInterface@?$CComContainedObject@VCOPOSToneIndicator@@@ATL@@WBBA@EAAJAEBU_GUID@@PEAPEAX@Z 0000000180023674 f i ToneIndicator.obj
 0001:00022680       ?QueryInterface@?$CComContainedObject@VCOPOSToneIndicator@@@ATL@@WBBI@EAAJAEBU_GUID@@PEAPEAX@Z 0000000180023680 f i ToneIndicator.obj
 0001:0002268c       ?QueryInterface@?$CComContainedObject@VCOPOSToneIndicator@@@ATL@@WLI@EAAJAEBU_GUID@@PEAPEAX@Z 000000018002368c f i ToneIndicator.obj
 0001:00022698       ?QueryInterface@?$CComContainedObject@VCOPOSToneIndicator@@@ATL@@WMA@EAAJAEBU_GUID@@PEAPEAX@Z 0000000180023698 f i ToneIndicator.obj
 0001:000226a4       ?QueryInterface@?$CComContainedObject@VCOPOSToneIndicator@@@ATL@@WMI@EAAJAEBU_GUID@@PEAPEAX@Z 00000001800236a4 f i ToneIndicator.obj
 0001:000226b0       ?QueryInterface@?$CComContainedObject@VCOPOSToneIndicator@@@ATL@@WNA@EAAJAEBU_GUID@@PEAPEAX@Z 00000001800236b0 f i ToneIndicator.obj
 0001:000226bc       ?QueryInterface@?$CComContainedObject@VCOPOSToneIndicator@@@ATL@@WNI@EAAJAEBU_GUID@@PEAPEAX@Z 00000001800236bc f i ToneIndicator.obj
 0001:000226c8       ?QueryInterface@?$CComContainedObject@VCOPOSToneIndicator@@@ATL@@WOA@EAAJAEBU_GUID@@PEAPEAX@Z 00000001800236c8 f i ToneIndicator.obj
 0001:000226d4       ?QueryInterface@?$CComContainedObject@VCOPOSToneIndicator@@@ATL@@WOI@EAAJAEBU_GUID@@PEAPEAX@Z 00000001800236d4 f i ToneIndicator.obj
 0001:000226e0       ?QueryInterface@?$CComContainedObject@VCOPOSToneIndicator@@@ATL@@WPA@EAAJAEBU_GUID@@PEAPEAX@Z 00000001800236e0 f i ToneIndicator.obj
 0001:000226ec       ?QueryInterface@?$CComContainedObject@VCOPOSToneIndicator@@@ATL@@WPI@EAAJAEBU_GUID@@PEAPEAX@Z 00000001800236ec f i ToneIndicator.obj
 0001:00022700       ?QueryInterface@?$CComObject@V?$CComEnum@UIEnumConnectionPoints@@$1?_GUID_b196b285_bab4_101a_b69c_00aa00341d07@@3U__s_GUID@@BPEAUIConnectionPoint@@V?$_CopyInterface@UIConnectionPoint@@@ATL@@VCComSingleThreadModel@6@@ATL@@@ATL@@UEAAJAEBU_GUID@@PEAPEAX@Z 0000000180023700 f i ToneIndicator.obj
 0001:00022750       ?QueryInterface@?$CComObject@V?$CComEnum@UIEnumConnections@@$1?_GUID_b196b287_bab4_101a_b69c_00aa00341d07@@3U__s_GUID@@BUtagCONNECTDATA@@V?$_Copy@UtagCONNECTDATA@@@ATL@@VCComSingleThreadModel@6@@ATL@@@ATL@@UEAAJAEBU_GUID@@PEAPEAX@Z 0000000180023750 f i ToneIndicator.obj
 0001:000227a0       ?QueryInterface@?$CComObject@VCOPOSToneIndicator@@@ATL@@UEAAJAEBU_GUID@@PEAPEAX@Z 00000001800237a0 f i ToneIndicator.obj
 0001:000227e4       ?QueryInterface@?$CComObject@VCOPOSToneIndicator@@@ATL@@WBAA@EAAJAEBU_GUID@@PEAPEAX@Z 00000001800237e4 f i ToneIndicator.obj
 0001:000227f0       ?QueryInterface@?$CComObject@VCOPOSToneIndicator@@@ATL@@WBAI@EAAJAEBU_GUID@@PEAPEAX@Z 00000001800237f0 f i ToneIndicator.obj
 0001:000227fc       ?QueryInterface@?$CComObject@VCOPOSToneIndicator@@@ATL@@WBBA@EAAJAEBU_GUID@@PEAPEAX@Z 00000001800237fc f i ToneIndicator.obj
 0001:00022808       ?QueryInterface@?$CComObject@VCOPOSToneIndicator@@@ATL@@WBBI@EAAJAEBU_GUID@@PEAPEAX@Z 0000000180023808 f i ToneIndicator.obj
 0001:00022814       ?QueryInterface@?$CComObject@VCOPOSToneIndicator@@@ATL@@WLI@EAAJAEBU_GUID@@PEAPEAX@Z 0000000180023814 f i ToneIndicator.obj
 0001:00022820       ?QueryInterface@?$CComObject@VCOPOSToneIndicator@@@ATL@@WMA@EAAJAEBU_GUID@@PEAPEAX@Z 0000000180023820 f i ToneIndicator.obj
 0001:0002282c       ?QueryInterface@?$CComObject@VCOPOSToneIndicator@@@ATL@@WMI@EAAJAEBU_GUID@@PEAPEAX@Z 000000018002382c f i ToneIndicator.obj
 0001:00022838       ?QueryInterface@?$CComObject@VCOPOSToneIndicator@@@ATL@@WNA@EAAJAEBU_GUID@@PEAPEAX@Z 0000000180023838 f i ToneIndicator.obj
 0001:00022844       ?QueryInterface@?$CComObject@VCOPOSToneIndicator@@@ATL@@WNI@EAAJAEBU_GUID@@PEAPEAX@Z 0000000180023844 f i ToneIndicator.obj
 0001:00022850       ?QueryInterface@?$CComObject@VCOPOSToneIndicator@@@ATL@@WOA@EAAJAEBU_GUID@@PEAPEAX@Z 0000000180023850 f i ToneIndicator.obj
 0001:0002285c       ?QueryInterface@?$CComObject@VCOPOSToneIndicator@@@ATL@@WOI@EAAJAEBU_GUID@@PEAPEAX@Z 000000018002385c f i ToneIndicator.obj
 0001:00022868       ?QueryInterface@?$CComObject@VCOPOSToneIndicator@@@ATL@@WPA@EAAJAEBU_GUID@@PEAPEAX@Z 0000000180023868 f i ToneIndicator.obj
 0001:00022874       ?QueryInterface@?$CComObject@VCOPOSToneIndicator@@@ATL@@WPI@EAAJAEBU_GUID@@PEAPEAX@Z 0000000180023874 f i ToneIndicator.obj
 0001:00022880       ?QueryInterface@?$CComObjectCached@VCComClassFactory@ATL@@@ATL@@UEAAJAEBU_GUID@@PEAPEAX@Z 0000000180023880 f i ToneIndicator.obj
 0001:000228d0       ?QueryInterface@CRegObject@ATL@@UEAAJAEBU_GUID@@PEAPEAX@Z 00000001800238d0 f i ToneIndicator.obj
 0001:00022950       ?QuickActivate@?$IQuickActivateImpl@VCOPOSToneIndicator@@@ATL@@UEAAJPEAUtagQACONTAINER@@PEAUtagQACONTROL@@@Z 0000000180023950 f i ToneIndicator.obj
 0001:00022a10       ?ReactivateAndUndo@?$IOleInPlaceObjectWindowlessImpl@VCOPOSToneIndicator@@@ATL@@UEAAJXZ 0000000180023a10 f i ToneIndicator.obj
 0001:00022a90       ?ReadFromStream@CComBSTR@ATL@@QEAAJPEAUIStream@@@Z 0000000180023a90 f i ToneIndicator.obj
 0001:00022f70       ?ReadFromStream@CComVariant@ATL@@QEAAJPEAUIStream@@GTClassesAllowedInStream@2@K@Z 0000000180023f70 f i ToneIndicator.obj
 0001:000233a0       ?RecurseDeleteKey@CRegKey@ATL@@QEAAJPEB_W@Z 00000001800243a0 f i ToneIndicator.obj
 0001:000235c0       ?RegCreateKeyExW@CAtlTransactionManager@ATL@@QEAAJPEAUHKEY__@@PEB_WKPEA_WKKQEAU_SECURITY_ATTRIBUTES@@PEAPEAU3@PEAK@Z 00000001800245c0 f i ToneIndicator.obj
 0001:00023790       ?RegDeleteKeyW@CAtlTransactionManager@ATL@@QEAAJPEAUHKEY__@@PEB_W@Z 0000000180024790 f i ToneIndicator.obj
 0001:000238a0       ?RegOpenKeyExW@CAtlTransactionManager@ATL@@QEAAJPEAUHKEY__@@PEB_WKKPEAPEAU3@@Z 00000001800248a0 f i ToneIndicator.obj
 0001:000239f0       ?Register@_ATL_WNDCLASSINFOW@ATL@@QEAAGPEAP6A_JPEAUHWND__@@I_K_J@Z@Z 00000001800249f0 f i ToneIndicator.obj
 0001:00023a40       ?RegisterBuffer@CRegParser@ATL@@QEAAJPEA_WH@Z 0000000180024a40 f i ToneIndicator.obj
 0001:00023e30       ?RegisterClassExW@AtlModuleRegisterWndClassInfoParamW@ATL@@SAGPEAU_ATL_WIN_MODULE70@2@PEBUtagWNDCLASSEXW@@@Z 0000000180024e30 f i ToneIndicator.obj
 0001:00023e70       ?RegisterFromResource@CRegObject@ATL@@IEAAJPEB_W00H@Z 0000000180024e70 f i ToneIndicator.obj
 0001:000242d0       ?RegisterServer@?$CAtlModuleT@VCComModule@ATL@@@ATL@@QEAAJHPEBU_GUID@@@Z 00000001800252d0 f i ToneIndicator.obj
 0001:00024350       ?RegisterServer@CAtlComModule@ATL@@QEAAJHPEBU_GUID@@@Z 0000000180025350 f i ToneIndicator.obj
 0001:00024390       ?RegisterServer@CComModule@ATL@@QEAAJHPEBU_GUID@@@Z 0000000180025390 f i ToneIndicator.obj
 0001:00024490       ?RegisterSubkeys@CRegParser@ATL@@IEAAJPEA_WPEAUHKEY__@@HH@Z 0000000180025490 f i ToneIndicator.obj
 0001:00025270       ?Release@?$CComAggObject@VCOPOSToneIndicator@@@ATL@@UEAAKXZ 0000000180026270 f i ToneIndicator.obj
 0001:00025320       ?Release@?$CComContainedObject@VCOPOSToneIndicator@@@ATL@@UEAAKXZ 0000000180026320 f i ToneIndicator.obj
 0001:00025358       ?Release@?$CComContainedObject@VCOPOSToneIndicator@@@ATL@@WBAA@EAAKXZ 0000000180026358 f i ToneIndicator.obj
 0001:00025364       ?Release@?$CComContainedObject@VCOPOSToneIndicator@@@ATL@@WBAI@EAAKXZ 0000000180026364 f i ToneIndicator.obj
 0001:00025370       ?Release@?$CComContainedObject@VCOPOSToneIndicator@@@ATL@@WBBA@EAAKXZ 0000000180026370 f i ToneIndicator.obj
 0001:0002537c       ?Release@?$CComContainedObject@VCOPOSToneIndicator@@@ATL@@WBBI@EAAKXZ 000000018002637c f i ToneIndicator.obj
 0001:00025388       ?Release@?$CComContainedObject@VCOPOSToneIndicator@@@ATL@@WBCI@EAAKXZ 0000000180026388 f i ToneIndicator.obj
 0001:00025394       ?Release@?$CComContainedObject@VCOPOSToneIndicator@@@ATL@@WBEA@EAAKXZ 0000000180026394 f i ToneIndicator.obj
 0001:000253a0       ?Release@?$CComContainedObject@VCOPOSToneIndicator@@@ATL@@WLI@EAAKXZ 00000001800263a0 f i ToneIndicator.obj
 0001:000253ac       ?Release@?$CComContainedObject@VCOPOSToneIndicator@@@ATL@@WMA@EAAKXZ 00000001800263ac f i ToneIndicator.obj
 0001:000253b8       ?Release@?$CComContainedObject@VCOPOSToneIndicator@@@ATL@@WMI@EAAKXZ 00000001800263b8 f i ToneIndicator.obj
 0001:000253c4       ?Release@?$CComContainedObject@VCOPOSToneIndicator@@@ATL@@WNA@EAAKXZ 00000001800263c4 f i ToneIndicator.obj
 0001:000253d0       ?Release@?$CComContainedObject@VCOPOSToneIndicator@@@ATL@@WNI@EAAKXZ 00000001800263d0 f i ToneIndicator.obj
 0001:000253dc       ?Release@?$CComContainedObject@VCOPOSToneIndicator@@@ATL@@WOA@EAAKXZ 00000001800263dc f i ToneIndicator.obj
 0001:000253e8       ?Release@?$CComContainedObject@VCOPOSToneIndicator@@@ATL@@WOI@EAAKXZ 00000001800263e8 f i ToneIndicator.obj
 0001:000253f4       ?Release@?$CComContainedObject@VCOPOSToneIndicator@@@ATL@@WPA@EAAKXZ 00000001800263f4 f i ToneIndicator.obj
 0001:00025400       ?Release@?$CComContainedObject@VCOPOSToneIndicator@@@ATL@@WPI@EAAKXZ 0000000180026400 f i ToneIndicator.obj
 0001:00025410       ?Release@?$CComObject@V?$CComEnum@UIEnumConnectionPoints@@$1?_GUID_b196b285_bab4_101a_b69c_00aa00341d07@@3U__s_GUID@@BPEAUIConnectionPoint@@V?$_CopyInterface@UIConnectionPoint@@@ATL@@VCComSingleThreadModel@6@@ATL@@@ATL@@UEAAKXZ 0000000180026410 f i ToneIndicator.obj
 0001:000254c0       ?Release@?$CComObject@V?$CComEnum@UIEnumConnections@@$1?_GUID_b196b287_bab4_101a_b69c_00aa00341d07@@3U__s_GUID@@BUtagCONNECTDATA@@V?$_Copy@UtagCONNECTDATA@@@ATL@@VCComSingleThreadModel@6@@ATL@@@ATL@@UEAAKXZ 00000001800264c0 f i ToneIndicator.obj
 0001:00025570       ?Release@?$CComObject@VCOPOSToneIndicator@@@ATL@@UEAAKXZ 0000000180026570 f i ToneIndicator.obj
 0001:00025628       ?Release@?$CComObject@VCOPOSToneIndicator@@@ATL@@WBAA@EAAKXZ 0000000180026628 f i ToneIndicator.obj
 0001:00025634       ?Release@?$CComObject@VCOPOSToneIndicator@@@ATL@@WBAI@EAAKXZ 0000000180026634 f i ToneIndicator.obj
 0001:00025640       ?Release@?$CComObject@VCOPOSToneIndicator@@@ATL@@WBBA@EAAKXZ 0000000180026640 f i ToneIndicator.obj
 0001:0002564c       ?Release@?$CComObject@VCOPOSToneIndicator@@@ATL@@WBBI@EAAKXZ 000000018002664c f i ToneIndicator.obj
 0001:00025658       ?Release@?$CComObject@VCOPOSToneIndicator@@@ATL@@WBCI@EAAKXZ 0000000180026658 f i ToneIndicator.obj
 0001:00025664       ?Release@?$CComObject@VCOPOSToneIndicator@@@ATL@@WBEA@EAAKXZ 0000000180026664 f i ToneIndicator.obj
 0001:00025670       ?Release@?$CComObject@VCOPOSToneIndicator@@@ATL@@WLI@EAAKXZ 0000000180026670 f i ToneIndicator.obj
 0001:0002567c       ?Release@?$CComObject@VCOPOSToneIndicator@@@ATL@@WMA@EAAKXZ 000000018002667c f i ToneIndicator.obj
 0001:00025688       ?Release@?$CComObject@VCOPOSToneIndicator@@@ATL@@WMI@EAAKXZ 0000000180026688 f i ToneIndicator.obj
 0001:00025694       ?Release@?$CComObject@VCOPOSToneIndicator@@@ATL@@WNA@EAAKXZ 0000000180026694 f i ToneIndicator.obj
 0001:000256a0       ?Release@?$CComObject@VCOPOSToneIndicator@@@ATL@@WNI@EAAKXZ 00000001800266a0 f i ToneIndicator.obj
 0001:000256ac       ?Release@?$CComObject@VCOPOSToneIndicator@@@ATL@@WOA@EAAKXZ 00000001800266ac f i ToneIndicator.obj
 0001:000256b8       ?Release@?$CComObject@VCOPOSToneIndicator@@@ATL@@WOI@EAAKXZ 00000001800266b8 f i ToneIndicator.obj
 0001:000256c4       ?Release@?$CComObject@VCOPOSToneIndicator@@@ATL@@WPA@EAAKXZ 00000001800266c4 f i ToneIndicator.obj
 0001:000256d0       ?Release@?$CComObject@VCOPOSToneIndicator@@@ATL@@WPI@EAAKXZ 00000001800266d0 f i ToneIndicator.obj
 0001:000256e0       ?Release@?$CComObjectCached@VCComClassFactory@ATL@@@ATL@@UEAAKXZ 00000001800266e0 f i ToneIndicator.obj
 0001:00025780       ?Release@?$CComPtrBase@UIAdviseSink@@@ATL@@QEAAXXZ 0000000180026780 f i ToneIndicator.obj
 0001:000257e0       ?Release@?$CComPtrBase@UIDispatch@@@ATL@@QEAAXXZ 00000001800267e0 f i ToneIndicator.obj
 0001:00025840       ?Release@?$CComPtrBase@UIOleInPlaceSiteWindowless@@@ATL@@QEAAXXZ 0000000180026840 f i ToneIndicator.obj
 0001:000258a0       ?Release@CRegObject@ATL@@UEAAKXZ 00000001800268a0 f i ToneIndicator.obj
 0001:00025910       ?Remove@CComDynamicUnkArray@ATL@@QEAAHK@Z 0000000180026910 f i ToneIndicator.obj
 0001:000259f0       ?RemoveAll@?$CSimpleMap@PEA_WPEA_WVCExpansionVectorEqualHelper@ATL@@@ATL@@QEAAXXZ 00000001800269f0 f i ToneIndicator.obj
 0001:00025a90       ?Reset@?$CComEnumImpl@UIEnumConnectionPoints@@$1?_GUID_b196b285_bab4_101a_b69c_00aa00341d07@@3U__s_GUID@@BPEAUIConnectionPoint@@V?$_CopyInterface@UIConnectionPoint@@@ATL@@@ATL@@UEAAJXZ 0000000180026a90 f i ToneIndicator.obj
 0001:00025ab0       ?Reset@?$CComEnumImpl@UIEnumConnections@@$1?_GUID_b196b287_bab4_101a_b69c_00aa00341d07@@3U__s_GUID@@BUtagCONNECTDATA@@V?$_Copy@UtagCONNECTDATA@@@ATL@@@ATL@@UEAAJXZ 0000000180026ab0 f i ToneIndicator.obj
 0001:00025ad0       ?ResizeBorder@?$IOleInPlaceActiveObjectImpl@VCOPOSToneIndicator@@@ATL@@UEAAJPEBUtagRECT@@PEAUIOleInPlaceUIWindow@@H@Z 0000000180026ad0 f i ToneIndicator.obj
 0001:00025b50       ?ResourceRegister@CRegObject@ATL@@QEAAJPEB_WI0@Z 0000000180026b50 f i ToneIndicator.obj
 0001:00025c30       ?ResourceRegisterSz@CRegObject@ATL@@QEAAJPEB_W00@Z 0000000180026c30 f i ToneIndicator.obj
 0001:00025d50       ?ResourceUnregister@CRegObject@ATL@@QEAAJPEB_WI0@Z 0000000180026d50 f i ToneIndicator.obj
 0001:00025e30       ?ResourceUnregisterSz@CRegObject@ATL@@QEAAJPEB_W00@Z 0000000180026e30 f i ToneIndicator.obj
 0001:00025f50       ?SODataDummy@COPOSToneIndicator@@MEAAJJ@Z 0000000180026f50 f i ToneIndicator.obj
 0001:00025f70       ?SODirectIO@COPOSToneIndicator@@MEAAJJPEAJPEAPEA_W@Z 0000000180026f70 f i ToneIndicator.obj
 0001:000261b0       ?SOError@COPOSToneIndicator@@MEAAJJJJPEAJ@Z 00000001800271b0 f i ToneIndicator.obj
 0001:000262c0       ?SOOutputComplete@COPOSToneIndicator@@MEAAJJ@Z 00000001800272c0 f i ToneIndicator.obj
 0001:00026360       ?SOStatusUpdate@COPOSToneIndicator@@MEAAJJ@Z 0000000180027360 f i ToneIndicator.obj
 0001:00026400       ?Save@?$IPersistStorageImpl@VCOPOSToneIndicator@@@ATL@@UEAAJPEAUIStorage@@H@Z 0000000180027400 f i ToneIndicator.obj
 0001:000265c0       ?Save@?$IPersistStreamInitImpl@VCOPOSToneIndicator@@@ATL@@UEAAJPEAUIStream@@H@Z 00000001800275c0 f i ToneIndicator.obj
 0001:00026680       ?SaveCompleted@?$IPersistStorageImpl@VCOPOSToneIndicator@@@ATL@@UEAAJPEAUIStorage@@@Z 0000000180027680 f i ToneIndicator.obj
 0001:000266f0       ?SendOnDataChange@CComControlBase@ATL@@QEAAJK@Z 00000001800276f0 f i ToneIndicator.obj
 0001:000267e0       ?SendOnSave@CComControlBase@ATL@@QEAAJXZ 00000001800277e0 f i ToneIndicator.obj
 0001:00026850       ?SendOnViewChange@CComControlBase@ATL@@QEAAJKJ@Z 0000000180027850 f i ToneIndicator.obj
 0001:000268d0       ?SetAdvise@?$IViewObjectExImpl@VCOPOSToneIndicator@@@ATL@@UEAAJKKPEAUIAdviseSink@@@Z 00000001800278d0 f i ToneIndicator.obj
 0001:00026990       ?SetClientSite@?$IOleObjectImpl@VCOPOSToneIndicator@@@ATL@@UEAAJPEAUIOleClientSite@@@Z 0000000180027990 f i ToneIndicator.obj
 0001:00026a40       ?SetColorScheme@?$IOleObjectImpl@VCOPOSToneIndicator@@@ATL@@UEAAJPEAUtagLOGPALETTE@@@Z 0000000180027a40 f i ToneIndicator.obj
 0001:00026ad0       ?SetContentExtent@?$IQuickActivateImpl@VCOPOSToneIndicator@@@ATL@@UEAAJPEAUtagSIZE@@@Z 0000000180027ad0 f i ToneIndicator.obj
 0001:00026b90       ?SetControlFocus@CComControlBase@ATL@@QEAAHH@Z 0000000180027b90 f i ToneIndicator.obj
 0001:00026d20       ?SetDWORDValue@CRegKey@ATL@@QEAAJPEB_WK@Z 0000000180027d20 f i ToneIndicator.obj
 0001:00026dd0       ?SetData@?$IDataObjectImpl@VCOPOSToneIndicator@@@ATL@@UEAAJPEAUtagFORMATETC@@PEAUtagSTGMEDIUM@@H@Z 0000000180027dd0 f i ToneIndicator.obj
 0001:00026e60       ?SetExtent@?$IOleObjectImpl@VCOPOSToneIndicator@@@ATL@@UEAAJKPEAUtagSIZE@@@Z 0000000180027e60 f i ToneIndicator.obj
 0001:00026f20       ?SetHostNames@?$IOleObjectImpl@VCOPOSToneIndicator@@@ATL@@UEAAJPEB_W0@Z 0000000180027f20 f i ToneIndicator.obj
 0001:00026fa0       ?SetInterfaceSafetyOptions@?$IObjectSafetyImpl@VCOPOSToneIndicator@@$02@ATL@@UEAAJAEBU_GUID@@KK@Z 0000000180027fa0 f i ToneIndicator.obj
 0001:00027140       ?SetMoniker@?$IOleObjectImpl@VCOPOSToneIndicator@@@ATL@@UEAAJKPEAUIMoniker@@@Z 0000000180028140 f i ToneIndicator.obj
 0001:000271d0       ?SetMultiStringValue@CRegKey@ATL@@QEAAJPEB_W0@Z 00000001800281d0 f i ToneIndicator.obj
 0001:00027340       ?SetObjectRects@?$IOleInPlaceObjectWindowlessImpl@VCOPOSToneIndicator@@@ATL@@UEAAJPEBUtagRECT@@0@Z 0000000180028340 f i ToneIndicator.obj
 0001:00027400       ?SetStringValue@CRegKey@ATL@@QEAAJPEB_W0K@Z 0000000180028400 f i ToneIndicator.obj
 0001:00027580       ?SetVoid@CComClassFactory@ATL@@QEAAXPEAX@Z 0000000180028580 f i ToneIndicator.obj
 0001:000275a0       ?SetVoid@CComObjectRootBase@ATL@@QEAAXPEAX@Z 00000001800285a0 f i ToneIndicator.obj
 0001:000275b0       ?ShowWindow@CWindow@ATL@@QEAAHH@Z 00000001800285b0 f i ToneIndicator.obj
 0001:00027640       ?Skip@?$CComEnumImpl@UIEnumConnectionPoints@@$1?_GUID_b196b285_bab4_101a_b69c_00aa00341d07@@3U__s_GUID@@BPEAUIConnectionPoint@@V?$_CopyInterface@UIConnectionPoint@@@ATL@@@ATL@@UEAAJK@Z 0000000180028640 f i ToneIndicator.obj
 0001:000276e0       ?Skip@?$CComEnumImpl@UIEnumConnections@@$1?_GUID_b196b287_bab4_101a_b69c_00aa00341d07@@3U__s_GUID@@BUtagCONNECTDATA@@V?$_Copy@UtagCONNECTDATA@@@ATL@@@ATL@@UEAAJK@Z 00000001800286e0 f i ToneIndicator.obj
 0001:00027780       ?SkipAssignment@CRegParser@ATL@@IEAAJPEA_W@Z 0000000180028780 f i ToneIndicator.obj
 0001:00027880       ?SkipWhiteSpace@CRegParser@ATL@@IEAAXXZ 0000000180028880 f i ToneIndicator.obj
 0001:000278e0       ?StartWindowProc@?$CWindowImplBaseT@VCWindow@ATL@@V?$CWinTraits@$0FGAAAAAA@$0A@@2@@ATL@@SA_JPEAUHWND__@@I_K_J@Z 00000001800288e0 f i ToneIndicator.obj
 0001:00027a50       ?StrChrW@CRegParser@ATL@@KAPEA_WPEA_W_W@Z 0000000180028a50 f i ToneIndicator.obj
 0001:00027ad0       ?StrFromMap@CRegObject@ATL@@QEAAPEB_WPEA_W@Z 0000000180028ad0 f i ToneIndicator.obj
 0001:00027b90       ?Swap@?$CComPtrBase@UIAdviseSink@@@ATL@@IEAAXAEAV12@@Z 0000000180028b90 f i ToneIndicator.obj
 0001:00027bf0       ?Swap@?$CComPtrBase@UIOleClientSite@@@ATL@@IEAAXAEAV12@@Z 0000000180028bf0 f i ToneIndicator.obj
 0001:00027c50       ?Swap@?$CComPtrBase@UIUnknown@@@ATL@@IEAAXAEAV12@@Z 0000000180028c50 f i ToneIndicator.obj
 0001:00027cb0       ?T2COLE_EX@@YAPEB_WPEB_WI@Z 0000000180028cb0 f i ToneIndicator.obj
 0001:00027cd0       ?T2OLE_EX@@YAPEA_WPEA_WI@Z 0000000180028cd0 f i ToneIndicator.obj
 0001:00027cf0       ?Term@CAtlModule@ATL@@QEAAXXZ 0000000180028cf0 f i ToneIndicator.obj
 0001:00027db0       ?Term@CComModule@ATL@@QEAAXXZ 0000000180028db0 f i ToneIndicator.obj
 0001:00027ea0       ?TranslateAcceleratorW@?$IOleInPlaceActiveObjectImpl@VCOPOSToneIndicator@@@ATL@@UEAAJPEAUtagMSG@@@Z 0000000180028ea0 f i ToneIndicator.obj
 0001:00028110       ?UIDeactivate@?$IOleInPlaceObjectWindowlessImpl@VCOPOSToneIndicator@@@ATL@@UEAAJXZ 0000000180029110 f i ToneIndicator.obj
 0001:000281c0       ?Unadvise@?$CProxy_IOPOSEvents@VCOPOSToneIndicator@@@@UEAAJK@Z 00000001800291c0 f i ToneIndicator.obj
 0001:00028210       ?Unadvise@?$IConnectionPointImpl@VCOPOSToneIndicator@@$1?DIID__IOPOSToneIndicatorEvents@@3U_GUID@@BVCComDynamicUnkArray@ATL@@@ATL@@UEAAJK@Z 0000000180029210 f i ToneIndicator.obj
 0001:00028300       ?Unadvise@?$IConnectionPointImpl@VCOPOSToneIndicator@@$1?IID_IPropertyNotifySink@@3U_GUID@@BVCComDynamicUnkArray@ATL@@@ATL@@UEAAJK@Z 0000000180029300 f i ToneIndicator.obj
 0001:000283f0       ?Unadvise@?$IOleObjectImpl@VCOPOSToneIndicator@@@ATL@@UEAAJK@Z 00000001800293f0 f i ToneIndicator.obj
 0001:000284e0       ?Unfreeze@?$IViewObjectExImpl@VCOPOSToneIndicator@@@ATL@@UEAAJK@Z 00000001800294e0 f i ToneIndicator.obj
 0001:00028560       ?Unlock@?$CComCritSecLock@VCComCriticalSection@ATL@@@ATL@@QEAAXXZ 0000000180029560 f i ToneIndicator.obj
 0001:000285f0       ?Unlock@?$CComObjectRootEx@VCComSingleThreadModel@ATL@@@ATL@@QEAAXXZ 00000001800295f0 f i ToneIndicator.obj
 0001:00028600       ?Unlock@CAtlModule@ATL@@UEAAJXZ 0000000180029600 f i ToneIndicator.obj
 0001:00028640       ?Unlock@CComCriticalSection@ATL@@QEAAJXZ 0000000180029640 f i ToneIndicator.obj
 0001:00028680       ?Unlock@CComFakeCriticalSection@ATL@@QEAAJXZ 0000000180029680 f i ToneIndicator.obj
 0001:00028690       ?UnregisterServer@?$CAtlModuleT@VCComModule@ATL@@@ATL@@QEAAJHPEBU_GUID@@@Z 0000000180029690 f i ToneIndicator.obj
 0001:00028700       ?UnregisterServer@CAtlComModule@ATL@@QEAAJHPEBU_GUID@@@Z 0000000180029700 f i ToneIndicator.obj
 0001:00028740       ?UnregisterServer@CComModule@ATL@@QEAAJHPEBU_GUID@@@Z 0000000180029740 f i ToneIndicator.obj
 0001:00028830       ?Update@?$IOleObjectImpl@VCOPOSToneIndicator@@@ATL@@UEAAJXZ 0000000180029830 f i ToneIndicator.obj
 0001:000288a0       ?UpdateRegistryFromResource@CAtlModule@ATL@@QEAAJIHPEAU_ATL_REGMAP_ENTRY@2@@Z 00000001800298a0 f i ToneIndicator.obj
 0001:00028dd0       ?UpdateRegistryFromResource@CAtlModule@ATL@@QEAAJPEB_WHPEAU_ATL_REGMAP_ENTRY@2@@Z 0000000180029dd0 f i ToneIndicator.obj
 0001:00029320       ?UpdateRegistryFromResource@CComModule@ATL@@UEAAJIHPEAU_ATL_REGMAP_ENTRY@2@@Z 000000018002a320 f i ToneIndicator.obj
 0001:00029370       ?UpdateRegistryFromResource@CComModule@ATL@@UEAAJPEB_WHPEAU_ATL_REGMAP_ENTRY@2@@Z 000000018002a370 f i ToneIndicator.obj
 0001:000293c0       ?UpdateRegistryFromResourceD@CComModule@ATL@@UEAAJIHPEAU_ATL_REGMAP_ENTRY@2@@Z 000000018002a3c0 f i ToneIndicator.obj
 0001:000293e0       ?UpdateRegistryFromResourceD@CComModule@ATL@@UEAAJPEB_WHPEAU_ATL_REGMAP_ENTRY@2@@Z 000000018002a3e0 f i ToneIndicator.obj
 0001:00029400       ?VTFromRegType@CRegParser@ATL@@KAHPEB_WAEAG@Z 000000018002a400 f i ToneIndicator.obj
 0001:000294e0       ?WindowProc@?$CWindowImplBaseT@VCWindow@ATL@@V?$CWinTraits@$0FGAAAAAA@$0A@@2@@ATL@@SA_JPEAUHWND__@@I_K_J@Z 000000018002a4e0 f i ToneIndicator.obj
 0001:000297c0       ?WriteToStream@CComBSTR@ATL@@QEAAJPEAUIStream@@@Z 000000018002a7c0 f i ToneIndicator.obj
 0001:00029930       ?WriteToStream@CComVariant@ATL@@QEAAJPEAUIStream@@@Z 000000018002a930 f i ToneIndicator.obj
 0001:00029d40       ?WriteToStream@CComVariant@ATL@@QEAAJPEAUIStream@@G@Z 000000018002ad40 f i ToneIndicator.obj
 0001:00029e20       ?_AtlFinalConstruct@CComObjectRootBase@ATL@@QEAAJXZ 000000018002ae20 f i ToneIndicator.obj
 0001:00029e30       ?_AtlGetConversionACP@ATL@@YAIXZ 000000018002ae30 f i ToneIndicator.obj
 0001:00029e40       ?_AtlInitialConstruct@?$CComAggObject@VCOPOSToneIndicator@@@ATL@@QEAAJXZ 000000018002ae40 f i ToneIndicator.obj
 0001:00029ea0       ?_AtlInitialConstruct@?$CComObjectRootEx@VCComMultiThreadModel@ATL@@@ATL@@QEAAJXZ 000000018002aea0 f i ToneIndicator.obj
 0001:00029ee0       ?_AtlInitialConstruct@?$CComObjectRootEx@VCComSingleThreadModel@ATL@@@ATL@@QEAAJXZ 000000018002aee0 f i ToneIndicator.obj
 0001:00029ef0       ?_AtlVerifyStackAvailable@_ATL_SAFE_ALLOCA_IMPL@ATL@@YA_N_K@Z 000000018002aef0 f i ToneIndicator.obj
 0001:0002a050       ?_GetEntries@?$CComEnum@UIEnumConnectionPoints@@$1?_GUID_b196b285_bab4_101a_b69c_00aa00341d07@@3U__s_GUID@@BPEAUIConnectionPoint@@V?$_CopyInterface@UIConnectionPoint@@@ATL@@VCComSingleThreadModel@6@@ATL@@SAPEBU_ATL_INTMAP_ENTRY@2@XZ 000000018002b050 f i ToneIndicator.obj
 0001:0002a070       ?_GetEntries@?$CComEnum@UIEnumConnections@@$1?_GUID_b196b287_bab4_101a_b69c_00aa00341d07@@3U__s_GUID@@BUtagCONNECTDATA@@V?$_Copy@UtagCONNECTDATA@@@ATL@@VCComSingleThreadModel@6@@ATL@@SAPEBU_ATL_INTMAP_ENTRY@2@XZ 000000018002b070 f i ToneIndicator.obj
 0001:0002a090       ?_GetEntries@CComClassFactory@ATL@@SAPEBU_ATL_INTMAP_ENTRY@2@XZ 000000018002b090 f i ToneIndicator.obj
 0001:0002a0b0       ?_GetEntries@COPOSToneIndicator@@SAPEBU_ATL_INTMAP_ENTRY@ATL@@XZ 000000018002b0b0 f i ToneIndicator.obj
 0001:0002a0d0       ?_GetRawUnknown@COPOSToneIndicator@@QEAAPEAUIUnknown@@XZ 000000018002b0d0 f i ToneIndicator.obj
 0001:0002a160       ?_GetViewStatus@COPOSToneIndicator@@QEAAKXZ 000000018002b160 f i ToneIndicator.obj
 0001:0002a170       ?_InternalQueryInterface@?$CComEnum@UIEnumConnectionPoints@@$1?_GUID_b196b285_bab4_101a_b69c_00aa00341d07@@3U__s_GUID@@BPEAUIConnectionPoint@@V?$_CopyInterface@UIConnectionPoint@@@ATL@@VCComSingleThreadModel@6@@ATL@@QEAAJAEBU_GUID@@PEAPEAX@Z 000000018002b170 f i ToneIndicator.obj
 0001:0002a1c0       ?_InternalQueryInterface@?$CComEnum@UIEnumConnections@@$1?_GUID_b196b287_bab4_101a_b69c_00aa00341d07@@3U__s_GUID@@BUtagCONNECTDATA@@V?$_Copy@UtagCONNECTDATA@@@ATL@@VCComSingleThreadModel@6@@ATL@@QEAAJAEBU_GUID@@PEAPEAX@Z 000000018002b1c0 f i ToneIndicator.obj
 0001:0002a210       ?_InternalQueryInterface@CComClassFactory@ATL@@QEAAJAEBU_GUID@@PEAPEAX@Z 000000018002b210 f i ToneIndicator.obj
 0001:0002a260       ?_InternalQueryInterface@COPOSToneIndicator@@QEAAJAEBU_GUID@@PEAPEAX@Z 000000018002b260 f i ToneIndicator.obj
 0001:0002a2b0       ?_LocCPQueryInterface@?$IConnectionPointImpl@VCOPOSToneIndicator@@$1?DIID__IOPOSToneIndicatorEvents@@3U_GUID@@BVCComDynamicUnkArray@ATL@@@ATL@@UEAAJAEBU_GUID@@PEAPEAX@Z 000000018002b2b0 f i ToneIndicator.obj
 0001:0002a390       ?_LocCPQueryInterface@?$IConnectionPointImpl@VCOPOSToneIndicator@@$1?IID_IPropertyNotifySink@@3U_GUID@@BVCComDynamicUnkArray@ATL@@@ATL@@UEAAJAEBU_GUID@@PEAPEAX@Z 000000018002b390 f i ToneIndicator.obj
 0001:0002a470       ?atlCreate@?$CWindowImpl@VCOPOSToneIndicator@@VCWindow@ATL@@V?$CWinTraits@$0FGAAAAAA@$0A@@3@@ATL@@QEAAPEAUHWND__@@PEAU3@V_U_RECT@2@PEB_WKKV_U_MENUorID@2@PEAX@Z 000000018002b470 f i ToneIndicator.obj
 0001:0002a5a0       ?atlCreate@?$CWindowImplBaseT@VCWindow@ATL@@V?$CWinTraits@$0FGAAAAAA@$0A@@2@@ATL@@QEAAPEAUHWND__@@PEAU3@V_U_RECT@2@PEB_WKKV_U_MENUorID@2@GPEAX@Z 000000018002b5a0 f i ToneIndicator.obj
 0001:0002a800       ?atlCreate@CRegKey@ATL@@QEAAJPEAUHKEY__@@PEB_WPEA_WKKPEAU_SECURITY_ATTRIBUTES@@PEAK@Z 000000018002b800 f i ToneIndicator.obj
 0001:0002a9f0       ?begin@CComDynamicUnkArray@ATL@@QEAAPEAPEAUIUnknown@@XZ 000000018002b9f0 f i ToneIndicator.obj
 0001:0002aa00       ?copy@?$_Copy@UtagCONNECTDATA@@@ATL@@SAJPEAUtagCONNECTDATA@@PEBU3@@Z 000000018002ba00 f i ToneIndicator.obj
 0001:0002aaf0       ?copy@?$_CopyInterface@UIConnectionPoint@@@ATL@@SAJPEAPEAUIConnectionPoint@@PEBQEAU3@@Z 000000018002baf0 f i ToneIndicator.obj
 0001:0002abe0       ?destroy@?$_Copy@UtagCONNECTDATA@@@ATL@@SAXPEAUtagCONNECTDATA@@@Z 000000018002bbe0 f i ToneIndicator.obj
 0001:0002ac30       ?destroy@?$_CopyInterface@UIConnectionPoint@@@ATL@@SAXPEAPEAUIConnectionPoint@@@Z 000000018002bc30 f i ToneIndicator.obj
 0001:0002ac80       ?end@CComDynamicUnkArray@ATL@@QEAAPEAPEAUIUnknown@@XZ 000000018002bc80 f i ToneIndicator.obj
 0001:0002aca0       ?init@?$_Copy@UtagCONNECTDATA@@@ATL@@SAXPEAUtagCONNECTDATA@@@Z 000000018002bca0 f i ToneIndicator.obj
 0001:0002acb0       ?init@?$_CopyInterface@UIConnectionPoint@@@ATL@@SAXPEAPEAUIConnectionPoint@@@Z 000000018002bcb0 f i ToneIndicator.obj
 0001:0002acc0       ?memcpy_s@Checked@ATL@@YAXPEAX_KPEBX1@Z 000000018002bcc0 f i ToneIndicator.obj
 0001:0002ad20       ?ocscpy_s@@YA_NPEA_W_KPEB_W@Z 000000018002bd20 f i ToneIndicator.obj
 0001:0002ada0       ?ocslen@@YAHPEB_W@Z        000000018002bda0 f i ToneIndicator.obj
 0001:0002ade0       ?tcsncpy_s@Checked@ATL@@YAHPEA_W_KPEB_W1@Z 000000018002bde0 f i ToneIndicator.obj
 0001:0002ae40       ?wcscat_s@Checked@ATL@@YAXPEA_W_KPEB_W@Z 000000018002be40 f i ToneIndicator.obj
 0001:0002ae90       ?wcscpy_s@Checked@ATL@@YAXPEA_W_KPEB_W@Z 000000018002be90 f i ToneIndicator.obj
 0001:0002aee0       ?wcsncpy_s@Checked@ATL@@YAHPEA_W_KPEB_W1@Z 000000018002bee0 f i ToneIndicator.obj
 0001:0002af40       ?wcsstr@@YAPEA_WPEA_WPEB_W@Z 000000018002bf40 f i ToneIndicator.obj
 0001:0002af80       InlineIsEqualGUID          000000018002bf80 f i ToneIndicator.obj
 0001:0002b050       IsEqualGUID                000000018002c050 f i ToneIndicator.obj
 0001:0002b0b0       ??0COPOSToneIndicator@@QEAA@XZ 000000018002c0b0 f   ToneIndicatorImpl.obj
 0001:0002b230       ?FinalConstruct@COPOSToneIndicator@@QEAAJXZ 000000018002c230 f   ToneIndicatorImpl.obj
 0001:0002b320       ??1COPOSToneIndicator@@UEAA@XZ 000000018002c320 f   ToneIndicatorImpl.obj
 0001:0002b400       ?WriteTrace@COPOSToneIndicator@@QEAAXPEB_WZZ 000000018002c400 f   ToneIndicatorImpl.obj
 0001:0002b4c0       ?WriteTraceString@COPOSToneIndicator@@QEAAXPEB_WPEA_W@Z 000000018002c4c0 f   ToneIndicatorImpl.obj
 0001:0002b900       ?WriteTraceString@COPOSToneIndicator@@QEAAXPEAXHHHPEB_WZZ 000000018002c900 f   ToneIndicatorImpl.obj
 0001:0002bb90       ?WriteTraceError@COPOSToneIndicator@@QEAAXPEB_WK@Z 000000018002cb90 f   ToneIndicatorImpl.obj
 0001:0002bc90       ?WriteTraceMethods@COPOSToneIndicator@@QEAAXPEAJH@Z 000000018002cc90 f   ToneIndicatorImpl.obj
 0001:0002bd20       ?GetOposProp@COPOSToneIndicator@@IEAAJPEBDJPEAJJ@Z 000000018002cd20 f   ToneIndicatorImpl.obj
 0001:0002c040       ?SetOposProp@COPOSToneIndicator@@IEAAJPEBDJJJ@Z 000000018002d040 f   ToneIndicatorImpl.obj
 0001:0002c3a0       ?GetOposProp@COPOSToneIndicator@@IEAAJPEBDJPEAFJ@Z 000000018002d3a0 f   ToneIndicatorImpl.obj
 0001:0002c440       ?SetOposProp@COPOSToneIndicator@@IEAAJPEBDJFJ@Z 000000018002d440 f   ToneIndicatorImpl.obj
 0001:0002c4c0       ?GetOposProp@COPOSToneIndicator@@IEAAJPEBDJPEAPEA_WJ@Z 000000018002d4c0 f   ToneIndicatorImpl.obj
 0001:0002c7e0       ?SetOposProp@COPOSToneIndicator@@IEAAJPEBDJPEA_WJ@Z 000000018002d7e0 f   ToneIndicatorImpl.obj
 0001:0002cbc0       ?DoInvoke@COPOSToneIndicator@@IEAAJPEBDJPEAVOposVariant@@IHPEAJ_N@Z 000000018002dbc0 f   ToneIndicatorImpl.obj
 0001:0002d710       ?SetCOFreezeEvents@COPOSToneIndicator@@IEAAXF@Z 000000018002e710 f   ToneIndicatorImpl.obj
 0001:0002d8a0       ?FreezeEvents@COPOSToneIndicator@@MEAAJH@Z 000000018002e8a0 f   ToneIndicatorImpl.obj
 0001:0002d9d0       ?OnDraw@COPOSToneIndicator@@MEAAJAEAUATL_DRAWINFO@@@Z 000000018002e9d0 f   ToneIndicatorImpl.obj
 0001:0002dba0       ?SOProcessID@COPOSToneIndicator@@UEAAJPEAJ@Z 000000018002eba0 f   ToneIndicatorImpl.obj
 0001:0002dc00       ?get_OpenResult@COPOSToneIndicator@@UEAAJPEAJ@Z 000000018002ec00 f   ToneIndicatorImpl.obj
 0001:0002dc60       ?get_BinaryConversion@COPOSToneIndicator@@UEAAJPEAJ@Z 000000018002ec60 f   ToneIndicatorImpl.obj
 0001:0002dcc0       ?put_BinaryConversion@COPOSToneIndicator@@UEAAJJ@Z 000000018002ecc0 f   ToneIndicatorImpl.obj
 0001:0002dd30       ?get_CheckHealthText@COPOSToneIndicator@@UEAAJPEAPEA_W@Z 000000018002ed30 f   ToneIndicatorImpl.obj
 0001:0002dd90       ?get_Claimed@COPOSToneIndicator@@UEAAJPEAF@Z 000000018002ed90 f   ToneIndicatorImpl.obj
 0001:0002ddf0       ?get_DeviceEnabled@COPOSToneIndicator@@UEAAJPEAF@Z 000000018002edf0 f   ToneIndicatorImpl.obj
 0001:0002de50       ?put_DeviceEnabled@COPOSToneIndicator@@UEAAJF@Z 000000018002ee50 f   ToneIndicatorImpl.obj
 0001:0002deb0       ?get_FreezeEvents@COPOSToneIndicator@@UEAAJPEAF@Z 000000018002eeb0 f   ToneIndicatorImpl.obj
 0001:0002df10       ?put_FreezeEvents@COPOSToneIndicator@@UEAAJF@Z 000000018002ef10 f   ToneIndicatorImpl.obj
 0001:0002dff0       ?get_OutputID@COPOSToneIndicator@@UEAAJPEAJ@Z 000000018002eff0 f   ToneIndicatorImpl.obj
 0001:0002e050       ?get_ResultCode@COPOSToneIndicator@@UEAAJPEAJ@Z 000000018002f050 f   ToneIndicatorImpl.obj
 0001:0002e120       ?get_ResultCodeExtended@COPOSToneIndicator@@UEAAJPEAJ@Z 000000018002f120 f   ToneIndicatorImpl.obj
 0001:0002e180       ?get_State@COPOSToneIndicator@@UEAAJPEAJ@Z 000000018002f180 f   ToneIndicatorImpl.obj
 0001:0002e210       ?get_ControlObjectDescription@COPOSToneIndicator@@UEAAJPEAPEA_W@Z 000000018002f210 f   ToneIndicatorImpl.obj
 0001:0002e290       ?get_ControlObjectVersion@COPOSToneIndicator@@UEAAJPEAJ@Z 000000018002f290 f   ToneIndicatorImpl.obj
 0001:0002e2f0       ?get_ServiceObjectDescription@COPOSToneIndicator@@UEAAJPEAPEA_W@Z 000000018002f2f0 f   ToneIndicatorImpl.obj
 0001:0002e350       ?get_ServiceObjectVersion@COPOSToneIndicator@@UEAAJPEAJ@Z 000000018002f350 f   ToneIndicatorImpl.obj
 0001:0002e3b0       ?get_DeviceDescription@COPOSToneIndicator@@UEAAJPEAPEA_W@Z 000000018002f3b0 f   ToneIndicatorImpl.obj
 0001:0002e410       ?get_DeviceName@COPOSToneIndicator@@UEAAJPEAPEA_W@Z 000000018002f410 f   ToneIndicatorImpl.obj
 0001:0002e470       ?CheckHealth@COPOSToneIndicator@@UEAAJJPEAJ@Z 000000018002f470 f   ToneIndicatorImpl.obj
 0001:0002e530       ?ClaimDevice@COPOSToneIndicator@@UEAAJJPEAJ@Z 000000018002f530 f   ToneIndicatorImpl.obj
 0001:0002e640       ?ClearOutput@COPOSToneIndicator@@UEAAJPEAJ@Z 000000018002f640 f   ToneIndicatorImpl.obj
 0001:0002e6b0       ?Close@COPOSToneIndicator@@UEAAJPEAJ@Z 000000018002f6b0 f   ToneIndicatorImpl.obj
 0001:0002e7c0       ?DirectIO@COPOSToneIndicator@@UEAAJJPEAJPEAPEA_W0@Z 000000018002f7c0 f   ToneIndicatorImpl.obj
 0001:0002e940       ?Open@COPOSToneIndicator@@UEAAJPEA_WPEAJ@Z 000000018002f940 f   ToneIndicatorImpl.obj
 0001:0002fe20       ?ReleaseDevice@COPOSToneIndicator@@UEAAJPEAJ@Z 0000000180030e20 f   ToneIndicatorImpl.obj
 0001:0002fed0       ?get_AsyncMode@COPOSToneIndicator@@UEAAJPEAF@Z 0000000180030ed0 f   ToneIndicatorImpl.obj
 0001:0002ff30       ?put_AsyncMode@COPOSToneIndicator@@UEAAJF@Z 0000000180030f30 f   ToneIndicatorImpl.obj
 0001:0002ff90       ?get_CapPitch@COPOSToneIndicator@@UEAAJPEAF@Z 0000000180030f90 f   ToneIndicatorImpl.obj
 0001:0002fff0       ?get_CapVolume@COPOSToneIndicator@@UEAAJPEAF@Z 0000000180030ff0 f   ToneIndicatorImpl.obj
 0001:00030050       ?get_InterToneWait@COPOSToneIndicator@@UEAAJPEAJ@Z 0000000180031050 f   ToneIndicatorImpl.obj
 0001:000300b0       ?put_InterToneWait@COPOSToneIndicator@@UEAAJJ@Z 00000001800310b0 f   ToneIndicatorImpl.obj
 0001:00030110       ?get_Tone1Duration@COPOSToneIndicator@@UEAAJPEAJ@Z 0000000180031110 f   ToneIndicatorImpl.obj
 0001:00030170       ?put_Tone1Duration@COPOSToneIndicator@@UEAAJJ@Z 0000000180031170 f   ToneIndicatorImpl.obj
 0001:000301d0       ?get_Tone1Pitch@COPOSToneIndicator@@UEAAJPEAJ@Z 00000001800311d0 f   ToneIndicatorImpl.obj
 0001:00030230       ?put_Tone1Pitch@COPOSToneIndicator@@UEAAJJ@Z 0000000180031230 f   ToneIndicatorImpl.obj
 0001:00030290       ?get_Tone1Volume@COPOSToneIndicator@@UEAAJPEAJ@Z 0000000180031290 f   ToneIndicatorImpl.obj
 0001:000302f0       ?put_Tone1Volume@COPOSToneIndicator@@UEAAJJ@Z 00000001800312f0 f   ToneIndicatorImpl.obj
 0001:00030350       ?get_Tone2Duration@COPOSToneIndicator@@UEAAJPEAJ@Z 0000000180031350 f   ToneIndicatorImpl.obj
 0001:000303b0       ?put_Tone2Duration@COPOSToneIndicator@@UEAAJJ@Z 00000001800313b0 f   ToneIndicatorImpl.obj
 0001:00030410       ?get_Tone2Pitch@COPOSToneIndicator@@UEAAJPEAJ@Z 0000000180031410 f   ToneIndicatorImpl.obj
 0001:00030470       ?put_Tone2Pitch@COPOSToneIndicator@@UEAAJJ@Z 0000000180031470 f   ToneIndicatorImpl.obj
 0001:000304d0       ?get_Tone2Volume@COPOSToneIndicator@@UEAAJPEAJ@Z 00000001800314d0 f   ToneIndicatorImpl.obj
 0001:00030530       ?put_Tone2Volume@COPOSToneIndicator@@UEAAJJ@Z 0000000180031530 f   ToneIndicatorImpl.obj
 0001:00030590       ?Sound@COPOSToneIndicator@@UEAAJJJPEAJ@Z 0000000180031590 f   ToneIndicatorImpl.obj
 0001:000306b0       ?SoundImmediate@COPOSToneIndicator@@UEAAJPEAJ@Z 00000001800316b0 f   ToneIndicatorImpl.obj
 0001:00030720       ?get_CapPowerReporting@COPOSToneIndicator@@UEAAJPEAJ@Z 0000000180031720 f   ToneIndicatorImpl.obj
 0001:00030780       ?get_PowerNotify@COPOSToneIndicator@@UEAAJPEAJ@Z 0000000180031780 f   ToneIndicatorImpl.obj
 0001:000307e0       ?put_PowerNotify@COPOSToneIndicator@@UEAAJJ@Z 00000001800317e0 f   ToneIndicatorImpl.obj
 0001:00030840       ?get_PowerState@COPOSToneIndicator@@UEAAJPEAJ@Z 0000000180031840 f   ToneIndicatorImpl.obj
 0001:000308a0       ?get_CapStatisticsReporting@COPOSToneIndicator@@UEAAJPEAF@Z 00000001800318a0 f   ToneIndicatorImpl.obj
 0001:00030900       ?get_CapUpdateStatistics@COPOSToneIndicator@@UEAAJPEAF@Z 0000000180031900 f   ToneIndicatorImpl.obj
 0001:00030960       ?ResetStatistics@COPOSToneIndicator@@UEAAJPEA_WPEAJ@Z 0000000180031960 f   ToneIndicatorImpl.obj
 0001:00030a40       ?RetrieveStatistics@COPOSToneIndicator@@UEAAJPEAPEA_WPEAJ@Z 0000000180031a40 f   ToneIndicatorImpl.obj
 0001:00030b20       ?UpdateStatistics@COPOSToneIndicator@@UEAAJPEA_WPEAJ@Z 0000000180031b20 f   ToneIndicatorImpl.obj
 0001:00030c00       ?get_CapCompareFirmwareVersion@COPOSToneIndicator@@UEAAJPEAF@Z 0000000180031c00 f   ToneIndicatorImpl.obj
 0001:00030c60       ?get_CapUpdateFirmware@COPOSToneIndicator@@UEAAJPEAF@Z 0000000180031c60 f   ToneIndicatorImpl.obj
 0001:00030cc0       ?CompareFirmwareVersion@COPOSToneIndicator@@UEAAJPEA_WPEAJ1@Z 0000000180031cc0 f   ToneIndicatorImpl.obj
 0001:00030e00       ?UpdateFirmware@COPOSToneIndicator@@UEAAJPEA_WPEAJ@Z 0000000180031e00 f   ToneIndicatorImpl.obj
 0001:00030ee0       ?get_CapMelody@COPOSToneIndicator@@UEAAJPEAJ@Z 0000000180031ee0 f   ToneIndicatorImpl.obj
 0001:00030f40       ?get_MelodyType@COPOSToneIndicator@@UEAAJPEAJ@Z 0000000180031f40 f   ToneIndicatorImpl.obj
 0001:00030fa0       ?put_MelodyType@COPOSToneIndicator@@UEAAJJ@Z 0000000180031fa0 f   ToneIndicatorImpl.obj
 0001:00031000       ?get_MelodyVolume@COPOSToneIndicator@@UEAAJPEAJ@Z 0000000180032000 f   ToneIndicatorImpl.obj
 0001:00031060       ?put_MelodyVolume@COPOSToneIndicator@@UEAAJJ@Z 0000000180032060 f   ToneIndicatorImpl.obj
 0001:000310b0       ??0?$CComControl@VCOPOSToneIndicator@@V?$CWindowImpl@VCOPOSToneIndicator@@VCWindow@ATL@@V?$CWinTraits@$0FGAAAAAA@$0A@@3@@ATL@@@ATL@@QEAA@XZ 00000001800320b0 f i ToneIndicatorImpl.obj
 0001:00031100       ??0?$CComPtr@UIAdviseSink@@@ATL@@QEAA@XZ 0000000180032100 f i ToneIndicatorImpl.obj
 0001:00031140       ??0?$CComPtr@UIDataAdviseHolder@@@ATL@@QEAA@XZ 0000000180032140 f i ToneIndicatorImpl.obj
 0001:00031180       ??0?$CComPtr@UIOleAdviseHolder@@@ATL@@QEAA@XZ 0000000180032180 f i ToneIndicatorImpl.obj
 0001:000311c0       ??0?$CComPtr@UIOleClientSite@@@ATL@@QEAA@XZ 00000001800321c0 f i ToneIndicatorImpl.obj
 0001:00031200       ??0?$CComPtr@UIOleInPlaceSiteWindowless@@@ATL@@QEAA@XZ 0000000180032200 f i ToneIndicatorImpl.obj
 0001:00031240       ??0?$CComPtrBase@UIAdviseSink@@@ATL@@IEAA@XZ 0000000180032240 f i ToneIndicatorImpl.obj
 0001:00031260       ??0?$CComPtrBase@UIDataAdviseHolder@@@ATL@@IEAA@XZ 0000000180032260 f i ToneIndicatorImpl.obj
 0001:00031280       ??0?$CComPtrBase@UIOleAdviseHolder@@@ATL@@IEAA@XZ 0000000180032280 f i ToneIndicatorImpl.obj
 0001:000312a0       ??0?$CComPtrBase@UIOleClientSite@@@ATL@@IEAA@XZ 00000001800322a0 f i ToneIndicatorImpl.obj
 0001:000312c0       ??0?$CComPtrBase@UIOleInPlaceSiteWindowless@@@ATL@@IEAA@XZ 00000001800322c0 f i ToneIndicatorImpl.obj
 0001:000312e0       ??0?$CComQIPtr@UIDispatch@@$1?_GUID_00020400_0000_0000_c000_000000000046@@3U__s_GUID@@B@ATL@@QEAA@XZ 00000001800322e0 f i ToneIndicatorImpl.obj
 0001:00031320       ??0?$CProxy_IOPOSEvents@VCOPOSToneIndicator@@@@QEAA@PEAVCOPOSToneIndicator@@@Z 0000000180032320 f i ToneIndicatorImpl.obj
 0001:000313b0       ??0?$CWindowImpl@VCOPOSToneIndicator@@VCWindow@ATL@@V?$CWinTraits@$0FGAAAAAA@$0A@@3@@ATL@@QEAA@XZ 00000001800323b0 f i ToneIndicatorImpl.obj
 0001:000313f0       ??0?$CWindowImplBaseT@VCWindow@ATL@@V?$CWinTraits@$0FGAAAAAA@$0A@@2@@ATL@@QEAA@XZ 00000001800323f0 f i ToneIndicatorImpl.obj
 0001:00031440       ??0?$CWindowImplRoot@VCWindow@ATL@@@ATL@@QEAA@XZ 0000000180032440 f i ToneIndicatorImpl.obj
 0001:000314b0       ??0?$IConnectionPointContainerImpl@VCOPOSToneIndicator@@@ATL@@QEAA@XZ 00000001800324b0 f i ToneIndicatorImpl.obj
 0001:000314f0       ??0?$IConnectionPointImpl@VCOPOSToneIndicator@@$1?DIID__IOPOSToneIndicatorEvents@@3U_GUID@@BVCComDynamicUnkArray@ATL@@@ATL@@QEAA@XZ 00000001800324f0 f i ToneIndicatorImpl.obj
 0001:00031540       ??0?$IConnectionPointImpl@VCOPOSToneIndicator@@$1?IID_IPropertyNotifySink@@3U_GUID@@BVCComDynamicUnkArray@ATL@@@ATL@@QEAA@XZ 0000000180032540 f i ToneIndicatorImpl.obj
 0001:00031590       ??0?$IDataObjectImpl@VCOPOSToneIndicator@@@ATL@@QEAA@XZ 0000000180032590 f i ToneIndicatorImpl.obj
 0001:000315d0       ??0?$IDispatchImpl@UIOPOSToneIndicator@@$1?IID_IOPOSToneIndicator@@3U_GUID@@B$1?LIBID_OposToneIndicator_CCO@@3U3@B$00$0A@VCComTypeInfoHolder@ATL@@@ATL@@QEAA@XZ 00000001800325d0 f i ToneIndicatorImpl.obj
 0001:00031610       ??0?$IObjectSafetyImpl@VCOPOSToneIndicator@@$02@ATL@@QEAA@XZ 0000000180032610 f i ToneIndicatorImpl.obj
 0001:00031650       ??0?$IOleControlImpl@VCOPOSToneIndicator@@@ATL@@QEAA@XZ 0000000180032650 f i ToneIndicatorImpl.obj
 0001:00031690       ??0?$IOleInPlaceActiveObjectImpl@VCOPOSToneIndicator@@@ATL@@QEAA@XZ 0000000180032690 f i ToneIndicatorImpl.obj
 0001:000316d0       ??0?$IOleInPlaceObjectWindowlessImpl@VCOPOSToneIndicator@@@ATL@@QEAA@XZ 00000001800326d0 f i ToneIndicatorImpl.obj
 0001:00031710       ??0?$IOleObjectImpl@VCOPOSToneIndicator@@@ATL@@QEAA@XZ 0000000180032710 f i ToneIndicatorImpl.obj
 0001:00031750       ??0?$IPersistStorageImpl@VCOPOSToneIndicator@@@ATL@@QEAA@XZ 0000000180032750 f i ToneIndicatorImpl.obj
 0001:00031790       ??0?$IPersistStreamInitImpl@VCOPOSToneIndicator@@@ATL@@QEAA@XZ 0000000180032790 f i ToneIndicatorImpl.obj
 0001:000317d0       ??0?$IPropertyNotifySinkCP@VCOPOSToneIndicator@@VCComDynamicUnkArray@ATL@@@ATL@@QEAA@XZ 00000001800327d0 f i ToneIndicatorImpl.obj
 0001:00031810       ??0?$IProvideClassInfo2Impl@$1?CLSID_OPOSToneIndicator@@3U_GUID@@B$1?DIID__IOPOSToneIndicatorEvents@@3U2@B$1?LIBID_OposToneIndicator_CCO@@3U2@B$00$0A@VCComTypeInfoHolder@ATL@@@ATL@@QEAA@XZ 0000000180032810 f i ToneIndicatorImpl.obj
 0001:00031850       ??0?$IQuickActivateImpl@VCOPOSToneIndicator@@@ATL@@QEAA@XZ 0000000180032850 f i ToneIndicatorImpl.obj
 0001:00031890       ??0?$ISpecifyPropertyPagesImpl@VCOPOSToneIndicator@@@ATL@@QEAA@XZ 0000000180032890 f i ToneIndicatorImpl.obj
 0001:000318d0       ??0?$IViewObjectExImpl@VCOPOSToneIndicator@@@ATL@@QEAA@XZ 00000001800328d0 f i ToneIndicatorImpl.obj
 0001:00031910       ??0?$_ICPLocator@$1?DIID__IOPOSToneIndicatorEvents@@3U_GUID@@B@ATL@@QEAA@XZ 0000000180032910 f i ToneIndicatorImpl.obj
 0001:00031920       ??0?$_ICPLocator@$1?IID_IPropertyNotifySink@@3U_GUID@@B@ATL@@QEAA@XZ 0000000180032920 f i ToneIndicatorImpl.obj
 0001:00031930       ??0CComControlBase@ATL@@QEAA@AEAPEAUHWND__@@@Z 0000000180032930 f i ToneIndicatorImpl.obj
 0001:00031b50       ??0CComDynamicUnkArray@ATL@@QEAA@XZ 0000000180032b50 f i ToneIndicatorImpl.obj
 0001:00031b80       ??0CDynamicStdCallThunk2@ATL@@QEAA@XZ 0000000180032b80 f i ToneIndicatorImpl.obj
 0001:00031ba0       ??0CMessageMap@ATL@@QEAA@XZ 0000000180032ba0 f i ToneIndicatorImpl.obj
 0001:00031bb0       ??0CWindow@ATL@@QEAA@PEAUHWND__@@@Z 0000000180032bb0 f i ToneIndicatorImpl.obj
 0001:00031bd0       ??0CWndProcThunk@ATL@@QEAA@XZ 0000000180032bd0 f i ToneIndicatorImpl.obj
 0001:00031c10       ??0IConnectionPointContainer@@QEAA@XZ 0000000180032c10 f i ToneIndicatorImpl.obj
 0001:00031c50       ??0IDataObject@@QEAA@XZ    0000000180032c50 f i ToneIndicatorImpl.obj
 0001:00031c90       ??0IDispatch@@QEAA@XZ      0000000180032c90 f i ToneIndicatorImpl.obj
 0001:00031cd0       ??0IOPOSToneIndicator@@QEAA@XZ 0000000180032cd0 f i ToneIndicatorImpl.obj
 0001:00031d10       ??0IOPOSToneIndicator_1_13@@QEAA@XZ 0000000180032d10 f i ToneIndicatorImpl.obj
 0001:00031d50       ??0IOPOSToneIndicator_1_5@@QEAA@XZ 0000000180032d50 f i ToneIndicatorImpl.obj
 0001:00031d90       ??0IOPOSToneIndicator_1_8@@QEAA@XZ 0000000180032d90 f i ToneIndicatorImpl.obj
 0001:00031dd0       ??0IOPOSToneIndicator_1_9@@QEAA@XZ 0000000180032dd0 f i ToneIndicatorImpl.obj
 0001:00031e10       ??0IObjectSafety@@QEAA@XZ  0000000180032e10 f i ToneIndicatorImpl.obj
 0001:00031e50       ??0IOleControl@@QEAA@XZ    0000000180032e50 f i ToneIndicatorImpl.obj
 0001:00031e90       ??0IOleInPlaceActiveObject@@QEAA@XZ 0000000180032e90 f i ToneIndicatorImpl.obj
 0001:00031ed0       ??0IOleInPlaceObject@@QEAA@XZ 0000000180032ed0 f i ToneIndicatorImpl.obj
 0001:00031f10       ??0IOleInPlaceObjectWindowless@@QEAA@XZ 0000000180032f10 f i ToneIndicatorImpl.obj
 0001:00031f50       ??0IOleObject@@QEAA@XZ     0000000180032f50 f i ToneIndicatorImpl.obj
 0001:00031f90       ??0IOleWindow@@QEAA@XZ     0000000180032f90 f i ToneIndicatorImpl.obj
 0001:00031fd0       ??0IPersist@@QEAA@XZ       0000000180032fd0 f i ToneIndicatorImpl.obj
 0001:00032010       ??0IPersistStorage@@QEAA@XZ 0000000180033010 f i ToneIndicatorImpl.obj
 0001:00032050       ??0IPersistStreamInit@@QEAA@XZ 0000000180033050 f i ToneIndicatorImpl.obj
 0001:00032090       ??0IProvideClassInfo2@@QEAA@XZ 0000000180033090 f i ToneIndicatorImpl.obj
 0001:000320d0       ??0IProvideClassInfo@@QEAA@XZ 00000001800330d0 f i ToneIndicatorImpl.obj
 0001:00032110       ??0IQuickActivate@@QEAA@XZ 0000000180033110 f i ToneIndicatorImpl.obj
 0001:00032150       ??0ISpecifyPropertyPages@@QEAA@XZ 0000000180033150 f i ToneIndicatorImpl.obj
 0001:00032190       ??0IViewObject2@@QEAA@XZ   0000000180033190 f i ToneIndicatorImpl.obj
 0001:000321d0       ??0IViewObject@@QEAA@XZ    00000001800331d0 f i ToneIndicatorImpl.obj
 0001:00032210       ??0IViewObjectEx@@QEAA@XZ  0000000180033210 f i ToneIndicatorImpl.obj
 0001:00032250       ??0OposVariantResult@@QEAA@XZ 0000000180033250 f i ToneIndicatorImpl.obj
 0001:00032290       ??0_CW@@QEAA@PEBD@Z        0000000180033290 f i ToneIndicatorImpl.obj
 0001:000322e0       ??0_CW@@QEAA@PEB_W@Z       00000001800332e0 f i ToneIndicatorImpl.obj
 0001:00032330       ??0_CWNCC@@QEAA@PEBD@Z     0000000180033330 f i ToneIndicatorImpl.obj
 0001:00032370       ??1?$CComControl@VCOPOSToneIndicator@@V?$CWindowImpl@VCOPOSToneIndicator@@VCWindow@ATL@@V?$CWinTraits@$0FGAAAAAA@$0A@@3@@ATL@@@ATL@@UEAA@XZ 0000000180033370 f i ToneIndicatorImpl.obj
 0001:000323b0       ??1?$CComPtr@UIDataAdviseHolder@@@ATL@@QEAA@XZ 00000001800333b0 f i ToneIndicatorImpl.obj
 0001:000323e0       ??1?$CComPtr@UIOleAdviseHolder@@@ATL@@QEAA@XZ 00000001800333e0 f i ToneIndicatorImpl.obj
 0001:00032410       ??1?$CComPtr@UIOleInPlaceSiteWindowless@@@ATL@@QEAA@XZ 0000000180033410 f i ToneIndicatorImpl.obj
 0001:00032440       ??1?$CComPtrBase@UIDataAdviseHolder@@@ATL@@QEAA@XZ 0000000180033440 f i ToneIndicatorImpl.obj
 0001:00032490       ??1?$CComPtrBase@UIOleAdviseHolder@@@ATL@@QEAA@XZ 0000000180033490 f i ToneIndicatorImpl.obj
 0001:000324e0       ??1?$CComPtrBase@UIOleInPlaceSiteWindowless@@@ATL@@QEAA@XZ 00000001800334e0 f i ToneIndicatorImpl.obj
 0001:00032530       ??1?$CComQIPtr@UIDispatch@@$1?_GUID_00020400_0000_0000_c000_000000000046@@3U__s_GUID@@B@ATL@@QEAA@XZ 0000000180033530 f i ToneIndicatorImpl.obj
 0001:00032560       ??1?$CProxy_IOPOSEvents@VCOPOSToneIndicator@@@@QEAA@XZ 0000000180033560 f i ToneIndicatorImpl.obj
 0001:00032590       ??1?$CWindowImpl@VCOPOSToneIndicator@@VCWindow@ATL@@V?$CWinTraits@$0FGAAAAAA@$0A@@3@@ATL@@UEAA@XZ 0000000180033590 f i ToneIndicatorImpl.obj
 0001:000325c0       ??1?$CWindowImplBaseT@VCWindow@ATL@@V?$CWinTraits@$0FGAAAAAA@$0A@@2@@ATL@@UEAA@XZ 00000001800335c0 f i ToneIndicatorImpl.obj
 0001:000325f0       ??1?$CWindowImplRoot@VCWindow@ATL@@@ATL@@UEAA@XZ 00000001800335f0 f i ToneIndicatorImpl.obj
 0001:000326b0       ??1?$IConnectionPointImpl@VCOPOSToneIndicator@@$1?DIID__IOPOSToneIndicatorEvents@@3U_GUID@@BVCComDynamicUnkArray@ATL@@@ATL@@QEAA@XZ 00000001800336b0 f i ToneIndicatorImpl.obj
 0001:00032750       ??1?$IConnectionPointImpl@VCOPOSToneIndicator@@$1?IID_IPropertyNotifySink@@3U_GUID@@BVCComDynamicUnkArray@ATL@@@ATL@@QEAA@XZ 0000000180033750 f i ToneIndicatorImpl.obj
 0001:000327f0       ??1?$IPropertyNotifySinkCP@VCOPOSToneIndicator@@VCComDynamicUnkArray@ATL@@@ATL@@QEAA@XZ 00000001800337f0 f i ToneIndicatorImpl.obj
 0001:00032820       ??1CComControlBase@ATL@@UEAA@XZ 0000000180033820 f i ToneIndicatorImpl.obj
 0001:00032910       ??1CComDynamicUnkArray@ATL@@QEAA@XZ 0000000180033910 f i ToneIndicatorImpl.obj
 0001:00032950       ??1CDynamicStdCallThunk2@ATL@@QEAA@XZ 0000000180033950 f i ToneIndicatorImpl.obj
 0001:00032990       ??1CWndProcThunk@ATL@@QEAA@XZ 0000000180033990 f i ToneIndicatorImpl.obj
 0001:000329d0       ??1OposVariantResult@@QEAA@XZ 00000001800339d0 f i ToneIndicatorImpl.obj
 0001:00032a10       ??1_CW@@QEAA@XZ            0000000180033a10 f i ToneIndicatorImpl.obj
 0001:00032a90       ??1_CWNCC@@QEAA@XZ         0000000180033a90 f i ToneIndicatorImpl.obj
 0001:00032ac0       ??B_CW@@QEAAPEB_WXZ        0000000180033ac0 f i ToneIndicatorImpl.obj
 0001:00032b10       ??B_CWNCC@@QEAAPEA_WXZ     0000000180033b10 f i ToneIndicatorImpl.obj
 0001:00032b40       ??_EOposVariant@@QEAAPEAXI@Z 0000000180033b40 f i ToneIndicatorImpl.obj
 0001:00032bf0       ?EventClose@COPOSToneIndicator@@IEAAXXZ 0000000180033bf0 f i ToneIndicatorImpl.obj
 0001:00032c90       ?EventInit@COPOSToneIndicator@@IEAAJXZ 0000000180033c90 f i ToneIndicatorImpl.obj
 0001:00032f40       ?EventOpen@COPOSToneIndicator@@IEAAXXZ 0000000180033f40 f i ToneIndicatorImpl.obj
 0001:00032f80       ?EventPreClose@COPOSToneIndicator@@IEAAXXZ 0000000180033f80 f i ToneIndicatorImpl.obj
 0001:00033000       ?EventUninit@COPOSToneIndicator@@IEAAXXZ 0000000180034000 f i ToneIndicatorImpl.obj
 0001:00033130       ?EventWindowProc@COPOSToneIndicator@@IEAA_JI_K_J@Z 0000000180034130 f i ToneIndicatorImpl.obj
 0001:00033300       ?FireEventCleanup@COPOSToneIndicator@@IEAAXXZ 0000000180034300 f i ToneIndicatorImpl.obj
 0001:00033350       ?FireEventSetup@COPOSToneIndicator@@IEAA_NXZ 0000000180034350 f i ToneIndicatorImpl.obj
 0001:000333d0       ?GetModuleInstance@CComModule@ATL@@QEAAPEAUHINSTANCE__@@XZ 00000001800343d0 f i ToneIndicatorImpl.obj
 0001:000333e0       ?SetRC@COPOSToneIndicator@@IEAAJJ@Z 00000001800343e0 f i ToneIndicatorImpl.obj
 0001:00033400       ?s_EventWindowProc@COPOSToneIndicator@@KA_JPEAUHWND__@@I_K_J@Z 0000000180034400 f i ToneIndicatorImpl.obj
 0001:000334b0       _snwprintf                 00000001800344b0 f i ToneIndicatorImpl.obj
 0001:00033540       _vfwprintf_l               0000000180034540 f i ToneIndicatorImpl.obj
 0001:000335a0       _vsnwprintf                00000001800345a0 f i ToneIndicatorImpl.obj
 0001:00033600       _vsnwprintf_l              0000000180034600 f i ToneIndicatorImpl.obj
 0001:00033690       vfwprintf                  0000000180034690 f i ToneIndicatorImpl.obj
 0001:000336d5       DebugBreak                 00000001800346d5 f   kernel32:KERNEL32.dll
 0001:000336db       Sleep                      00000001800346db f   kernel32:KERNEL32.dll
 0001:000336e1       GetCurrentProcess          00000001800346e1 f   kernel32:KERNEL32.dll
 0001:000336e7       TerminateProcess           00000001800346e7 f   kernel32:KERNEL32.dll
 0001:000336ed       MultiByteToWideChar        00000001800346ed f   kernel32:KERNEL32.dll
 0001:000336f3       WideCharToMultiByte        00000001800346f3 f   kernel32:KERNEL32.dll
 0001:000336f9       DecodePointer              00000001800346f9 f   kernel32:KERNEL32.dll
 0001:000336ff       RaiseException             00000001800346ff f   kernel32:KERNEL32.dll
 0001:00033705       GetLastError               0000000180034705 f   kernel32:KERNEL32.dll
 0001:0003370b       SetLastError               000000018003470b f   kernel32:KERNEL32.dll
 0001:00033711       InitializeCriticalSectionEx 0000000180034711 f   kernel32:KERNEL32.dll
 0001:00033717       DeleteCriticalSection      0000000180034717 f   kernel32:KERNEL32.dll
 0001:0003371d       EncodePointer              000000018003471d f   kernel32:KERNEL32.dll
 0001:00033723       EnterCriticalSection       0000000180034723 f   kernel32:KERNEL32.dll
 0001:00033729       LeaveCriticalSection       0000000180034729 f   kernel32:KERNEL32.dll
 0001:0003372f       ResetEvent                 000000018003472f f   kernel32:KERNEL32.dll
 0001:00033735       ReleaseMutex               0000000180034735 f   kernel32:KERNEL32.dll
 0001:0003373b       WaitForSingleObject        000000018003473b f   kernel32:KERNEL32.dll
 0001:00033741       GetCurrentThreadId         0000000180034741 f   kernel32:KERNEL32.dll
 0001:00033747       DisableThreadLibraryCalls  0000000180034747 f   kernel32:KERNEL32.dll
 0001:0003374d       FreeLibrary                000000018003474d f   kernel32:KERNEL32.dll
 0001:00033753       GetModuleFileNameW         0000000180034753 f   kernel32:KERNEL32.dll
 0001:00033759       GetModuleHandleW           0000000180034759 f   kernel32:KERNEL32.dll
 0001:0003375f       GetProcAddress             000000018003475f f   kernel32:KERNEL32.dll
 0001:00033765       LoadLibraryExW             0000000180034765 f   kernel32:KERNEL32.dll
 0001:0003376b       LoadResource               000000018003476b f   kernel32:KERNEL32.dll
 0001:00033771       SizeofResource             0000000180034771 f   kernel32:KERNEL32.dll
 0001:00033777       FindResourceW              0000000180034777 f   kernel32:KERNEL32.dll
 0001:0003377d       GlobalAlloc                000000018003477d f   kernel32:KERNEL32.dll
 0001:00033783       GlobalUnlock               0000000180034783 f   kernel32:KERNEL32.dll
 0001:00033789       GlobalLock                 0000000180034789 f   kernel32:KERNEL32.dll
 0001:0003378f       MulDiv                     000000018003478f f   kernel32:KERNEL32.dll
 0001:00033795       lstrcmpiW                  0000000180034795 f   kernel32:KERNEL32.dll
 0001:0003379b       DeleteFileW                000000018003479b f   kernel32:KERNEL32.dll
 0001:000337a1       CloseHandle                00000001800347a1 f   kernel32:KERNEL32.dll
 0001:000337a7       SetEvent                   00000001800347a7 f   kernel32:KERNEL32.dll
 0001:000337ad       CreateMutexW               00000001800347ad f   kernel32:KERNEL32.dll
 0001:000337b3       CreateEventW               00000001800347b3 f   kernel32:KERNEL32.dll
 0001:000337b9       GetCurrentProcessId        00000001800347b9 f   kernel32:KERNEL32.dll
 0001:000337bf       LocalFree                  00000001800347bf f   kernel32:KERNEL32.dll
 0001:000337c5       FormatMessageW             00000001800347c5 f   kernel32:KERNEL32.dll
 0001:000337cb       GetActiveWindow            00000001800347cb f   user32:USER32.dll
 0001:000337d1       MessageBoxW                00000001800347d1 f   user32:USER32.dll
 0001:000337d7       UnregisterClassW           00000001800347d7 f   user32:USER32.dll
 0001:000337dd       PostMessageW               00000001800347dd f   user32:USER32.dll
 0001:000337e3       DefWindowProcW             00000001800347e3 f   user32:USER32.dll
 0001:000337e9       CallWindowProcW            00000001800347e9 f   user32:USER32.dll
 0001:000337ef       RegisterClassExW           00000001800347ef f   user32:USER32.dll
 0001:000337f5       GetClassInfoExW            00000001800347f5 f   user32:USER32.dll
 0001:000337fb       CreateWindowExW            00000001800347fb f   user32:USER32.dll
 0001:00033801       IsWindow                   0000000180034801 f   user32:USER32.dll
 0001:00033807       IsChild                    0000000180034807 f   user32:USER32.dll
 0001:0003380d       DestroyWindow              000000018003480d f   user32:USER32.dll
 0001:00033813       ShowWindow                 0000000180034813 f   user32:USER32.dll
 0001:00033819       SetWindowPos               0000000180034819 f   user32:USER32.dll
 0001:0003381f       CharNextW                  000000018003481f f   user32:USER32.dll
 0001:00033825       SetFocus                   0000000180034825 f   user32:USER32.dll
 0001:0003382b       GetFocus                   000000018003482b f   user32:USER32.dll
 0001:00033831       GetKeyState                0000000180034831 f   user32:USER32.dll
 0001:00033837       GetDC                      0000000180034837 f   user32:USER32.dll
 0001:0003383d       ReleaseDC                  000000018003483d f   user32:USER32.dll
 0001:00033843       BeginPaint                 0000000180034843 f   user32:USER32.dll
 0001:00033849       EndPaint                   0000000180034849 f   user32:USER32.dll
 0001:0003384f       SetWindowRgn               000000018003484f f   user32:USER32.dll
 0001:00033855       InvalidateRect             0000000180034855 f   user32:USER32.dll
 0001:0003385b       GetClientRect              000000018003485b f   user32:USER32.dll
 0001:00033861       IntersectRect              0000000180034861 f   user32:USER32.dll
 0001:00033867       UnionRect                  0000000180034867 f   user32:USER32.dll
 0001:0003386d       OffsetRect                 000000018003486d f   user32:USER32.dll
 0001:00033873       EqualRect                  0000000180034873 f   user32:USER32.dll
 0001:00033879       PtInRect                   0000000180034879 f   user32:USER32.dll
 0001:0003387f       GetWindowLongPtrW          000000018003487f f   user32:USER32.dll
 0001:00033885       SetWindowLongPtrW          0000000180034885 f   user32:USER32.dll
 0001:0003388b       GetParent                  000000018003488b f   user32:USER32.dll
 0001:00033891       LoadCursorW                0000000180034891 f   user32:USER32.dll
 0001:00033897       PeekMessageW               0000000180034897 f   user32:USER32.dll
 0001:0003389d       RegisterClassW             000000018003489d f   user32:USER32.dll
 0001:000338a3       LoadBitmapW                00000001800348a3 f   user32:USER32.dll
 0001:000338a9       CloseMetaFile              00000001800348a9 f   gdi32:GDI32.dll
 0001:000338af       CreateDCW                  00000001800348af f   gdi32:GDI32.dll
 0001:000338b5       CreateMetaFileW            00000001800348b5 f   gdi32:GDI32.dll
 0001:000338bb       CreateRectRgnIndirect      00000001800348bb f   gdi32:GDI32.dll
 0001:000338c1       DeleteDC                   00000001800348c1 f   gdi32:GDI32.dll
 0001:000338c7       DeleteMetaFile             00000001800348c7 f   gdi32:GDI32.dll
 0001:000338cd       GetDeviceCaps              00000001800348cd f   gdi32:GDI32.dll
 0001:000338d3       RestoreDC                  00000001800348d3 f   gdi32:GDI32.dll
 0001:000338d9       SaveDC                     00000001800348d9 f   gdi32:GDI32.dll
 0001:000338df       SetMapMode                 00000001800348df f   gdi32:GDI32.dll
 0001:000338e5       LPtoDP                     00000001800348e5 f   gdi32:GDI32.dll
 0001:000338eb       SetViewportOrgEx           00000001800348eb f   gdi32:GDI32.dll
 0001:000338f1       SetWindowExtEx             00000001800348f1 f   gdi32:GDI32.dll
 0001:000338f7       SetWindowOrgEx             00000001800348f7 f   gdi32:GDI32.dll
 0001:000338fd       BitBlt                     00000001800348fd f   gdi32:GDI32.dll
 0001:00033903       CreateCompatibleDC         0000000180034903 f   gdi32:GDI32.dll
 0001:00033909       DeleteObject               0000000180034909 f   gdi32:GDI32.dll
 0001:0003390f       SelectObject               000000018003490f f   gdi32:GDI32.dll
 0001:00033915       GetObjectW                 0000000180034915 f   gdi32:GDI32.dll
 0001:0003391b       RegCloseKey                000000018003491b f   advapi32:ADVAPI32.dll
 0001:00033921       RegCreateKeyExW            0000000180034921 f   advapi32:ADVAPI32.dll
 0001:00033927       RegDeleteKeyW              0000000180034927 f   advapi32:ADVAPI32.dll
 0001:0003392d       RegDeleteValueW            000000018003492d f   advapi32:ADVAPI32.dll
 0001:00033933       RegEnumKeyExW              0000000180034933 f   advapi32:ADVAPI32.dll
 0001:00033939       RegOpenKeyExW              0000000180034939 f   advapi32:ADVAPI32.dll
 0001:0003393f       RegQueryInfoKeyW           000000018003493f f   advapi32:ADVAPI32.dll
 0001:00033945       RegSetValueExW             0000000180034945 f   advapi32:ADVAPI32.dll
 0001:0003394b       RegQueryValueExW           000000018003494b f   advapi32:ADVAPI32.dll
 0001:00033951       CoCreateInstance           0000000180034951 f   ole32:ole32.dll
 0001:00033957       StringFromGUID2            0000000180034957 f   ole32:ole32.dll
 0001:0003395d       CoTaskMemAlloc             000000018003495d f   ole32:ole32.dll
 0001:00033963       CoTaskMemRealloc           0000000180034963 f   ole32:ole32.dll
 0001:00033969       CoTaskMemFree              0000000180034969 f   ole32:ole32.dll
 0001:0003396f       ReadClassStm               000000018003496f f   ole32:ole32.dll
 0001:00033975       WriteClassStm              0000000180034975 f   ole32:ole32.dll
 0001:0003397b       CreateDataAdviseHolder     000000018003497b f   ole32:ole32.dll
 0001:00033981       OleSaveToStream            0000000180034981 f   ole32:ole32.dll
 0001:00033987       CreateOleAdviseHolder      0000000180034987 f   ole32:ole32.dll
 0001:0003398d       OleRegGetUserType          000000018003498d f   ole32:ole32.dll
 0001:00033993       OleRegGetMiscStatus        0000000180034993 f   ole32:ole32.dll
 0001:00033999       OleRegEnumVerbs            0000000180034999 f   ole32:ole32.dll
 0001:0003399f       CLSIDFromProgID            000000018003499f f   ole32:ole32.dll
 0001:000339a5       SysAllocString             00000001800349a5 f   oleaut32:OLEAUT32.dll
 0001:000339ab       SysAllocStringLen          00000001800349ab f   oleaut32:OLEAUT32.dll
 0001:000339b1       SysFreeString              00000001800349b1 f   oleaut32:OLEAUT32.dll
 0001:000339b7       SysStringLen               00000001800349b7 f   oleaut32:OLEAUT32.dll
 0001:000339bd       VariantClear               00000001800349bd f   oleaut32:OLEAUT32.dll
 0001:000339c3       VariantCopyInd             00000001800349c3 f   oleaut32:OLEAUT32.dll
 0001:000339c9       VariantChangeType          00000001800349c9 f   oleaut32:OLEAUT32.dll
 0001:000339cf       SysStringByteLen           00000001800349cf f   oleaut32:OLEAUT32.dll
 0001:000339d5       SysAllocStringByteLen      00000001800349d5 f   oleaut32:OLEAUT32.dll
 0001:000339db       VariantInit                00000001800349db f   oleaut32:OLEAUT32.dll
 0001:000339e1       VarUI4FromStr              00000001800349e1 f   oleaut32:OLEAUT32.dll
 0001:000339e7       LoadTypeLib                00000001800349e7 f   oleaut32:OLEAUT32.dll
 0001:000339ed       LoadRegTypeLib             00000001800349ed f   oleaut32:OLEAUT32.dll
 0001:000339f3       RegisterTypeLib            00000001800349f3 f   oleaut32:OLEAUT32.dll
 0001:000339f9       UnRegisterTypeLib          00000001800349f9 f   oleaut32:OLEAUT32.dll
 0001:000339ff       OleCreatePropertyFrame     00000001800349ff f   oleaut32:OLEAUT32.dll
 0001:00033a10       _RTC_AllocaHelper          0000000180034a10 f   LIBCMTD:stack.obj
 0001:00033a50       _RTC_CheckStackVars        0000000180034a50 f   LIBCMTD:stack.obj
 0001:00033ae0       _RTC_CheckStackVars2       0000000180034ae0 f   LIBCMTD:stack.obj
 0001:00033bf0       _CRT_RTC_INIT              0000000180034bf0 f   LIBCMTD:init.obj
 0001:00033c00       _CRT_RTC_INITW             0000000180034c00 f   LIBCMTD:init.obj
 0001:00033c10       _RTC_InitBase              0000000180034c10 f   LIBCMTD:init.obj
 0001:00033c50       _RTC_Shutdown              0000000180034c50 f   LIBCMTD:init.obj
 0001:00033c80       __GSHandlerCheck           0000000180034c80 f   LIBCMTD:gshandler.obj
 0001:00033cc0       __GSHandlerCheckCommon     0000000180034cc0 f   LIBCMTD:gshandler.obj
 0001:00033dd0       __security_check_cookie    0000000180034dd0 f   LIBCMTD:amdsecgs.obj
 0001:00033e00       ??_U@YAPEAX_K@Z            0000000180034e00 f   LIBCMTD:new_array.obj
 0001:00033e20       ??3@YAXPEAX_K@Z            0000000180034e20 f   LIBCMTD:delete_scalar_size.obj
 0001:00033e40       ??_V@YAXPEAX@Z             0000000180034e40 f   LIBCMTD:delete_array.obj
 0001:00033e60       ??_V@YAXPEAX_K@Z           0000000180034e60 f   LIBCMTD:delete_array_size.obj
 0001:00033e80       ?configure_argv@__scrt_narrow_argv_policy@@SAHXZ 0000000180034e80 f i LIBCMTD:utility.obj
 0001:00033f70       ?initialize_environment@__scrt_narrow_environment_policy@@SAHXZ 0000000180034f70 f i LIBCMTD:utility.obj
 0001:00034010       NtCurrentTeb               0000000180035010 f i LIBCMTD:utility.obj
 0001:00034020       __scrt_acquire_startup_lock 0000000180035020 f   LIBCMTD:utility.obj
 0001:00034090       __scrt_dllmain_after_initialize_c 0000000180035090 f   LIBCMTD:utility.obj
 0001:000340c0       __scrt_dllmain_before_initialize_c 00000001800350c0 f   LIBCMTD:utility.obj
 0001:000340e0       __scrt_dllmain_crt_thread_attach 00000001800350e0 f   LIBCMTD:utility.obj
 0001:00034110       __scrt_dllmain_crt_thread_detach 0000000180035110 f   LIBCMTD:utility.obj
 0001:00034130       __scrt_dllmain_exception_filter 0000000180035130 f   LIBCMTD:utility.obj
 0001:000341a0       __scrt_dllmain_uninitialize_c 00000001800351a0 f   LIBCMTD:utility.obj
 0001:000341d0       __scrt_dllmain_uninitialize_critical 00000001800351d0 f   LIBCMTD:utility.obj
 0001:000341f0       __scrt_initialize_crt      00000001800351f0 f   LIBCMTD:utility.obj
 0001:00034240       __scrt_initialize_onexit_tables 0000000180035240 f   LIBCMTD:utility.obj
 0001:00034350       __scrt_is_nonwritable_in_current_image 0000000180035350 f   LIBCMTD:utility.obj
 0001:000343e0       __scrt_release_startup_lock 00000001800353e0 f   LIBCMTD:utility.obj
 0001:00034410       __scrt_uninitialize_crt    0000000180035410 f   LIBCMTD:utility.obj
 0001:00034450       _onexit                    0000000180035450 f   LIBCMTD:utility.obj
 0001:000344d0       at_quick_exit              00000001800354d0 f   LIBCMTD:utility.obj
 0001:00034520       atexit                     0000000180035520 f   LIBCMTD:utility.obj
 0001:00034560       ??3@YAXPEAX@Z              0000000180035560 f   LIBCMTD:delete_scalar.obj
 0001:00034580       __raise_securityfailure    0000000180035580 f   LIBCMTD:gs_report.obj
 0001:000345c0       __report_gsfailure         00000001800355c0 f   LIBCMTD:gs_report.obj
 0001:000346a0       __report_rangecheckfailure 00000001800356a0 f   LIBCMTD:gs_report.obj
 0001:000346c0       __report_securityfailure   00000001800356c0 f   LIBCMTD:gs_report.obj
 0001:00034760       __report_securityfailureEx 0000000180035760 f   LIBCMTD:gs_report.obj
 0001:00034b20       _Init_thread_abort         0000000180035b20 f   LIBCMTD:thread_safe_statics.obj
 0001:00034b50       _Init_thread_footer        0000000180035b50 f   LIBCMTD:thread_safe_statics.obj
 0001:00034bb0       _Init_thread_header        0000000180035bb0 f   LIBCMTD:thread_safe_statics.obj
 0001:00034c40       _Init_thread_lock          0000000180035c40 f   LIBCMTD:thread_safe_statics.obj
 0001:00034c60       _Init_thread_notify        0000000180035c60 f   LIBCMTD:thread_safe_statics.obj
 0001:00034cc0       _Init_thread_unlock        0000000180035cc0 f   LIBCMTD:thread_safe_statics.obj
 0001:00034ce0       _Init_thread_wait          0000000180035ce0 f   LIBCMTD:thread_safe_statics.obj
 0001:00034d90       ??2@YAPEAX_KAEBUnothrow_t@std@@@Z 0000000180035d90 f   LIBCMTD:new_scalar_nothrow.obj
 0001:00034dd0       ??_U@YAPEAX_KAEBUnothrow_t@std@@@Z 0000000180035dd0 f   LIBCMTD:new_array_nothrow.obj
 0001:00034e00       __GSHandlerCheck_SEH       0000000180035e00 f   LIBCMTD:gshandlerseh.obj
 0001:00034ed0       _alloca_probe              0000000180035ed0 f   LIBCMTD:chkstk.obj
 0001:00034ed0       __chkstk                   0000000180035ed0 f   LIBCMTD:chkstk.obj
 0001:00035340       _CRT_INIT                  0000000180036340 f   LIBCMTD:dll_dllmain.obj
 0001:00035370       _DllMainCRTStartup         0000000180036370 f   LIBCMTD:dll_dllmain.obj
 0001:00035440       ?_RTC_AllocaFailure@@YAXPEAXPEAU_RTC_ALLOCA_NODE@@H@Z 0000000180036440 f   LIBCMTD:error.obj
 0001:000355a0       ?_RTC_Failure@@YAXPEAXH@Z  00000001800365a0 f   LIBCMTD:error.obj
 0001:000355f0       ?_RTC_StackFailure@@YAXPEAXPEBD@Z 00000001800365f0 f   LIBCMTD:error.obj
 0001:00035a20       _RTC_UninitUse             0000000180036a20 f   LIBCMTD:error.obj
 0001:00035af0       _vsprintf_s_l              0000000180036af0 f i LIBCMTD:error.obj
 0001:00035b60       sprintf_s                  0000000180036b60 f i LIBCMTD:error.obj
 0001:00035b90       ?_RTC_GetErrorFunc@@YAP6AHHPEBDH00ZZPEBX@Z 0000000180036b90 f   LIBCMTD:userapi.obj
 0001:00035ba0       ?_RTC_GetErrorFuncW@@YAP6AHHPEB_WH00ZZPEBX@Z 0000000180036ba0 f   LIBCMTD:userapi.obj
 0001:00035bb0       _RTC_GetErrDesc            0000000180036bb0 f   LIBCMTD:userapi.obj
 0001:00035bd0       _RTC_NumErrors             0000000180036bd0 f   LIBCMTD:userapi.obj
 0001:00035be0       _RTC_SetErrorFunc          0000000180036be0 f   LIBCMTD:userapi.obj
 0001:00035c00       _RTC_SetErrorFuncW         0000000180036c00 f   LIBCMTD:userapi.obj
 0001:00035c20       _RTC_SetErrorType          0000000180036c20 f   LIBCMTD:userapi.obj
 0001:00035c40       ??2@YAPEAX_K@Z             0000000180036c40 f   LIBCMTD:new_scalar.obj
 0001:00035c90       __isa_available_init       0000000180036c90 f   LIBCMTD:cpu_disp.obj
 0001:00036030       _get_startup_argv_mode     0000000180037030 f   LIBCMTD:argv_mode.obj
 0001:00036040       __scrt_is_ucrt_dll_in_use  0000000180037040 f   LIBCMTD:ucrt_detection.obj
 0001:00036070       __crt_debugger_hook        0000000180037070 f   LIBCMTD:utility_desktop.obj
 0001:00036080       __scrt_fastfail            0000000180037080 f   LIBCMTD:utility_desktop.obj
 0001:00036220       __scrt_get_show_window_mode 0000000180037220 f   LIBCMTD:utility_desktop.obj
 0001:00036280       __scrt_initialize_mta      0000000180037280 f   LIBCMTD:utility_desktop.obj
 0001:00036290       __scrt_initialize_winrt    0000000180037290 f   LIBCMTD:utility_desktop.obj
 0001:000362a0       __scrt_is_managed_app      00000001800372a0 f   LIBCMTD:utility_desktop.obj
 0001:00036350       __scrt_set_unhandled_exception_filter 0000000180037350 f   LIBCMTD:utility_desktop.obj
 0001:00036370       __scrt_exe_initialize_mta  0000000180037370 f   LIBCMTD:utility_desktop.obj
 0001:00036370       __scrt_stub_for_initialize_mta 0000000180037370 f   LIBCMTD:utility_desktop.obj
 0001:00036380       __scrt_unhandled_exception_filter 0000000180037380 f   LIBCMTD:utility_desktop.obj
 0001:00036420       _guard_check_icall_nop     0000000180037420 f i LIBCMTD:guard_support.obj
 0001:00036430       ReadNoFence64              0000000180037430 f i LIBCMTD:guard_support.obj
 0001:00036450       ReadPointerNoFence         0000000180037450 f i LIBCMTD:guard_support.obj
 0001:00036470       _guard_icall_checks_enforced 0000000180037470 f i LIBCMTD:guard_support.obj
 0001:000364b0       _guard_rf_checks_enforced  00000001800374b0 f i LIBCMTD:guard_support.obj
 0001:00036580       __security_init_cookie     0000000180037580 f   LIBCMTD:gs_support.obj
 0001:00036600       ?__scrt_initialize_type_info@@YAXXZ 0000000180037600 f   LIBCMTD:tncleanup.obj
 0001:00036620       ?__scrt_uninitialize_type_info@@YAXXZ 0000000180037620 f   LIBCMTD:tncleanup.obj
 0001:00036640       __local_stdio_scanf_options 0000000180037640 f i LIBCMTD:default_local_stdio_options.obj
 0001:00036650       __scrt_initialize_default_local_stdio_options 0000000180037650 f   LIBCMTD:default_local_stdio_options.obj
 0001:000366a0       __scrt_get_dyn_tls_init_callback 00000001800376a0 f   LIBCMTD:dyn_tls_init.obj
 0001:000366b0       _RTC_Initialize            00000001800376b0 f   LIBCMTD:initsect.obj
 0001:00036700       _RTC_Terminate             0000000180037700 f   LIBCMTD:initsect.obj
 0001:00036c60       ?_RTC_GetSrcLine@@YAHPEAEPEA_WKPEAH1K@Z 0000000180037c60 f   LIBCMTD:pdblkup.obj
 0001:00037030       ??0bad_alloc@std@@AEAA@QEBD@Z 0000000180038030 f i LIBCMTD:throw_bad_alloc.obj
 0001:00037070       ??0bad_alloc@std@@QEAA@AEBV01@@Z 0000000180038070 f i LIBCMTD:throw_bad_alloc.obj
 0001:000370b0       ??0bad_alloc@std@@QEAA@XZ  00000001800380b0 f i LIBCMTD:throw_bad_alloc.obj
 0001:000370f0       ??0bad_array_new_length@std@@QEAA@AEBV01@@Z 00000001800380f0 f i LIBCMTD:throw_bad_alloc.obj
 0001:00037130       ??0bad_array_new_length@std@@QEAA@XZ 0000000180038130 f i LIBCMTD:throw_bad_alloc.obj
 0001:00037170       ??0exception@std@@QEAA@AEBV01@@Z 0000000180038170 f i LIBCMTD:throw_bad_alloc.obj
 0001:000371d0       ??0exception@std@@QEAA@QEBDH@Z 00000001800381d0 f i LIBCMTD:throw_bad_alloc.obj
 0001:00037220       ??1bad_alloc@std@@UEAA@XZ  0000000180038220 f i LIBCMTD:throw_bad_alloc.obj
 0001:00037240       ??1bad_array_new_length@std@@UEAA@XZ 0000000180038240 f i LIBCMTD:throw_bad_alloc.obj
 0001:00037260       ??1exception@std@@UEAA@XZ  0000000180038260 f i LIBCMTD:throw_bad_alloc.obj
 0001:00037290       ??_Ebad_alloc@std@@UEAAPEAXI@Z 0000000180038290 f i LIBCMTD:throw_bad_alloc.obj
 0001:00037290       ??_Gbad_alloc@std@@UEAAPEAXI@Z 0000000180038290 f i LIBCMTD:throw_bad_alloc.obj
 0001:000372d0       ??_Ebad_array_new_length@std@@UEAAPEAXI@Z 00000001800382d0 f i LIBCMTD:throw_bad_alloc.obj
 0001:000372d0       ??_Gbad_array_new_length@std@@UEAAPEAXI@Z 00000001800382d0 f i LIBCMTD:throw_bad_alloc.obj
 0001:00037310       ??_Eexception@std@@UEAAPEAXI@Z 0000000180038310 f i LIBCMTD:throw_bad_alloc.obj
 0001:00037310       ??_Gexception@std@@UEAAPEAXI@Z 0000000180038310 f i LIBCMTD:throw_bad_alloc.obj
 0001:00037350       ?__scrt_throw_std_bad_alloc@@YAXXZ 0000000180038350 f   LIBCMTD:throw_bad_alloc.obj
 0001:00037380       ?__scrt_throw_std_bad_array_new_length@@YAXXZ 0000000180038380 f   LIBCMTD:throw_bad_alloc.obj
 0001:000373b0       ?what@exception@std@@UEBAPEBDXZ 00000001800383b0 f i LIBCMTD:throw_bad_alloc.obj
 0001:000373f0       ??1type_info@@UEAA@XZ      00000001800383f0 f   LIBCMTD:std_type_info_static.obj
 0001:00037410       ??_Etype_info@@UEAAPEAXI@Z 0000000180038410 f i LIBCMTD:std_type_info_static.obj
 0001:00037410       ??_Gtype_info@@UEAAPEAXI@Z 0000000180038410 f i LIBCMTD:std_type_info_static.obj
 0001:0003744c       ??$?2PEAUHINSTANCE__@@@Wrapper@?$CSimpleArray@PEAUHINSTANCE__@@V?$CSimpleArrayEqualHelper@PEAUHINSTANCE__@@@ATL@@@ATL@@SAPEAX_KPEAPEAUHINSTANCE__@@@Z 000000018003844c f i atls:atlbase.obj
 0001:00037450       ??0?$CSimpleArray@PEAUHINSTANCE__@@V?$CSimpleArrayEqualHelper@PEAUHINSTANCE__@@@ATL@@@ATL@@QEAA@XZ 0000000180038450 f i atls:atlbase.obj
 0001:00037460       ??0CAtlBaseModule@ATL@@QEAA@XZ 0000000180038460 f   atls:atlbase.obj
 0001:00037508       ??0Wrapper@?$CSimpleArray@PEAUHINSTANCE__@@V?$CSimpleArrayEqualHelper@PEAUHINSTANCE__@@@ATL@@@ATL@@QEAA@AEBQEAUHINSTANCE__@@@Z 0000000180038508 f i atls:atlbase.obj
 0001:00037514       ??0_ATL_BASE_MODULE70@ATL@@QEAA@XZ 0000000180038514 f i atls:atlbase.obj
 0001:00037540       ??1?$CSimpleArray@PEAUHINSTANCE__@@V?$CSimpleArrayEqualHelper@PEAUHINSTANCE__@@@ATL@@@ATL@@QEAA@XZ 0000000180038540 f i atls:atlbase.obj
 0001:00037568       ??1CAtlBaseModule@ATL@@QEAA@XZ 0000000180038568 f   atls:atlbase.obj
 0001:0003759c       ??1_ATL_BASE_MODULE70@ATL@@QEAA@XZ 000000018003859c f i atls:atlbase.obj
 0001:000375c8       ??A?$CSimpleArray@PEAUHINSTANCE__@@V?$CSimpleArrayEqualHelper@PEAUHINSTANCE__@@@ATL@@@ATL@@QEAAAEAPEAUHINSTANCE__@@H@Z 00000001800385c8 f i atls:atlbase.obj
 0001:000375f4       ?Add@?$CSimpleArray@PEAUHINSTANCE__@@V?$CSimpleArrayEqualHelper@PEAUHINSTANCE__@@@ATL@@@ATL@@QEAAHAEBQEAUHINSTANCE__@@@Z 00000001800385f4 f i atls:atlbase.obj
 0001:000376a8       ?AddResourceInstance@CAtlBaseModule@ATL@@QEAA_NPEAUHINSTANCE__@@@Z 00000001800386a8 f   atls:atlbase.obj
 0001:000376f0       ?GetHInstanceAt@CAtlBaseModule@ATL@@QEAAPEAUHINSTANCE__@@H@Z 00000001800386f0 f   atls:atlbase.obj
 0001:00037768       ?GetSize@?$CSimpleArray@PEAUHINSTANCE__@@V?$CSimpleArrayEqualHelper@PEAUHINSTANCE__@@@ATL@@@ATL@@QEBAHXZ 0000000180038768 f i atls:atlbase.obj
 0001:0003776c       ?InternalSetAtIndex@?$CSimpleArray@PEAUHINSTANCE__@@V?$CSimpleArrayEqualHelper@PEAUHINSTANCE__@@@ATL@@@ATL@@QEAAXHAEBQEAUHINSTANCE__@@@Z 000000018003876c f i atls:atlbase.obj
 0001:00037784       ?RemoveAll@?$CSimpleArray@PEAUHINSTANCE__@@V?$CSimpleArrayEqualHelper@PEAUHINSTANCE__@@@ATL@@@ATL@@QEAAXXZ 0000000180038784 f i atls:atlbase.obj
 0001:000377ac       ?RemoveAt@?$CSimpleArray@PEAUHINSTANCE__@@V?$CSimpleArrayEqualHelper@PEAUHINSTANCE__@@@ATL@@@ATL@@QEAAHH@Z 00000001800387ac f i atls:atlbase.obj
 0001:00037850       ?RemoveResourceInstance@CAtlBaseModule@ATL@@QEAA_NPEAUHINSTANCE__@@@Z 0000000180038850 f   atls:atlbase.obj
 0001:000378d0       ?memmove_s@Checked@ATL@@YAXPEAX_KPEBX1@Z 00000001800388d0 f i atls:atlbase.obj
 0001:00037d78       ?GetCodeAddress@_stdcallthunk@ATL@@QEAAPEAXXZ 0000000180038d78 f i atls:atlthunk.obj
 0001:00037da4       ?Init@_stdcallthunk@ATL@@QEAAH_KPEAX@Z 0000000180038da4 f i atls:atlthunk.obj
 0001:00037df4       ?__AllocStdCallThunk@@YAPEAXXZ 0000000180038df4 f   atls:atlthunk.obj
 0001:00037dfc       ?__AllocStdCallThunk@ATL@@YAPEAXXZ 0000000180038dfc f   atls:atlthunk.obj
 0001:00037e04       ?__AllocStdCallThunk_cmn@@YAPEAXXZ 0000000180038e04 f   atls:atlthunk.obj
 0001:00037edc       ?__FreeStdCallThunk@@YAXPEAX@Z 0000000180038edc f   atls:atlthunk.obj
 0001:00037efc       ?__FreeStdCallThunk@ATL@@YAXPEAX@Z 0000000180038efc f   atls:atlthunk.obj
 0001:00037f1c       ?__FreeStdCallThunk_cmn@@YAXPEAX@Z 0000000180038f1c f   atls:atlthunk.obj
 0001:00037fbc       AtlThunk_AllocateData      0000000180038fbc f   atls:atlthunk.obj
 0001:00038038       AtlThunk_DataToCode        0000000180039038 f   atls:atlthunk.obj
 0001:0003808c       AtlThunk_FreeData          000000018003908c f   atls:atlthunk.obj
 0001:000380ec       AtlThunk_InitData          00000001800390ec f   atls:atlthunk.obj
 0001:000381b0       memset_repmovs             00000001800391b0 f   libvcruntimed:memset.obj
 0001:000381d0       memset                     00000001800391d0 f   libvcruntimed:memset.obj
 0001:00038360       ??$__crt_interlocked_exchange_pointer@$$A6AXXZP6AXXZ@@YAP6AXXZPEDS6AXXZQ6AXXZ@Z 0000000180039360 f i libvcruntimed:purevirt.obj
 0001:00038380       ??$__crt_interlocked_read_pointer@$$A6AXXZ@@YAP6AXXZPEDS6AXXZ@Z 0000000180039380 f i libvcruntimed:purevirt.obj
 0001:000383a0       ?__crt_interlocked_read_64@@YA_JPED_J@Z 00000001800393a0 f i libvcruntimed:purevirt.obj
 0001:000383c0       _get_purecall_handler      00000001800393c0 f   libvcruntimed:purevirt.obj
 0001:000383e0       _purecall                  00000001800393e0 f   libvcruntimed:purevirt.obj
 0001:00038420       _set_purecall_handler      0000000180039420 f   libvcruntimed:purevirt.obj
 0001:00038450       memcmp                     0000000180039450 f   libvcruntimed:memcmp.obj
 0001:00038530       memcpy_repmovs             0000000180039530 f   libvcruntimed:memcpy.obj
 0001:00038550       memcpy                     0000000180039550 f   libvcruntimed:memcpy.obj
 0001:00038550       memmove                    0000000180039550 f   libvcruntimed:memcpy.obj
 0001:00038930       wcsstr                     0000000180039930 f   libvcruntimed:wcsstr.obj
 0001:00038f90       __vcrt_initialize          0000000180039f90 f   libvcruntimed:initialization.obj
 0001:00038fd0       __vcrt_thread_attach       0000000180039fd0 f   libvcruntimed:initialization.obj
 0001:00038ff0       __vcrt_thread_detach       0000000180039ff0 f   libvcruntimed:initialization.obj
 0001:00039010       __vcrt_uninitialize        000000018003a010 f   libvcruntimed:initialization.obj
 0001:00039030       __vcrt_uninitialize_critical 000000018003a030 f   libvcruntimed:initialization.obj
 0001:00039050       __C_specific_handler       000000018003a050 f   libvcruntimed:riscchandler.obj
 0001:000394c0       ??$?0AEAViterator@TryBlockMap4@FH4@@AEAV012@$0A@@?$pair@Viterator@TryBlockMap4@FH4@@V123@@std@@QEAA@AEAViterator@TryBlockMap4@FH4@@0@Z 000000018003a4c0 f i libvcruntimed:risctrnsctrl.obj
 0001:00039520       ??$?0AEAViterator@TryBlockMap@__FrameHandler3@@AEAV012@$0A@@?$pair@Viterator@TryBlockMap@__FrameHandler3@@V123@@std@@QEAA@AEAViterator@TryBlockMap@__FrameHandler3@@0@Z 000000018003a520 f i libvcruntimed:risctrnsctrl.obj
 0001:000396f0       ??$_CallSETranslator@V__FrameHandler3@@@@YAHPEAUEHExceptionRecord@@PEA_KPEAU_CONTEXT@@PEAU_xDISPATCHER_CONTEXT@@PEBU_s_FuncInfo@@K1H@Z 000000018003a6f0 f i libvcruntimed:risctrnsctrl.obj
 0001:00039780       ??$_CallSETranslator@V__FrameHandler4@@@@YAHPEAUEHExceptionRecord@@PEA_KPEAU_CONTEXT@@PEAU_xDISPATCHER_CONTEXT@@PEAUFuncInfo4@FH4@@K1H@Z 000000018003a780 f i libvcruntimed:risctrnsctrl.obj
 0001:00039810       ??$forward@AEAViterator@TryBlockMap4@FH4@@@std@@YAAEAViterator@TryBlockMap4@FH4@@AEAV123@@Z 000000018003a810 f i libvcruntimed:risctrnsctrl.obj
 0001:00039820       ??$forward@AEAViterator@TryBlockMap@__FrameHandler3@@@std@@YAAEAViterator@TryBlockMap@__FrameHandler3@@AEAV123@@Z 000000018003a820 f i libvcruntimed:risctrnsctrl.obj
 0001:00039830       ??0FuncInfo4@FH4@@QEAA@XZ  000000018003a830 f i libvcruntimed:risctrnsctrl.obj
 0001:000398a0       ??0FuncInfoHeader@FH4@@QEAA@XZ 000000018003a8a0 f i libvcruntimed:risctrnsctrl.obj
 0001:000398c0       ??0iterator@TryBlockMap4@FH4@@QEAA@AEAV12@I@Z 000000018003a8c0 f i libvcruntimed:risctrnsctrl.obj
 0001:000398f0       ??0iterator@TryBlockMap@__FrameHandler3@@QEAA@AEAV12@I@Z 000000018003a8f0 f i libvcruntimed:risctrnsctrl.obj
 0001:00039920       ??4iterator@TryBlockMap4@FH4@@QEAAAEAV012@AEBV012@@Z 000000018003a920 f i libvcruntimed:risctrnsctrl.obj
 0001:00039940       ??9iterator@TryBlockMap4@FH4@@QEBA_NAEBV012@@Z 000000018003a940 f i libvcruntimed:risctrnsctrl.obj
 0001:00039980       ??Diterator@TryBlockMap4@FH4@@QEAA?AUTryBlockMapEntry4@2@XZ 000000018003a980 f i libvcruntimed:risctrnsctrl.obj
 0001:000399b0       ??Eiterator@TryBlockMap4@FH4@@QEAAAEAV012@XZ 000000018003a9b0 f i libvcruntimed:risctrnsctrl.obj
 0001:000399f0       ?CatchTryBlock@__FrameHandler3@@SAPEBU_s_TryBlockMapEntry@@PEBU_s_FuncInfo@@H@Z 000000018003a9f0 f   libvcruntimed:risctrnsctrl.obj
 0001:00039a80       ?DecompFuncInfo@FH4@@YA_JPEAEAEAUFuncInfo4@1@_KH@Z 000000018003aa80 f i libvcruntimed:risctrnsctrl.obj
 0001:00039ac0       ?DecompFuncInfo@FH4@@YA_JPEAEAEAUFuncInfo4@1@_KH_N@Z 000000018003aac0 f i libvcruntimed:risctrnsctrl.obj
 0001:00039c90       ?DecompTryBlock@TryBlockMap4@FH4@@AEAAXXZ 000000018003ac90 f i libvcruntimed:risctrnsctrl.obj
 0001:00039d10       ?ExecutionInCatch@__FrameHandler3@@SA_NPEAU_xDISPATCHER_CONTEXT@@PEBU_s_FuncInfo@@@Z 000000018003ad10 f   libvcruntimed:risctrnsctrl.obj
 0001:00039d60       ?ExecutionInCatch@__FrameHandler4@@SA_NPEAU_xDISPATCHER_CONTEXT@@PEAUFuncInfo4@FH4@@@Z 000000018003ad60 f   libvcruntimed:risctrnsctrl.obj
 0001:00039d80       ?FrameUnwindToEmptyState@__FrameHandler3@@SAXPEA_KPEAU_xDISPATCHER_CONTEXT@@PEBU_s_FuncInfo@@@Z 000000018003ad80 f   libvcruntimed:risctrnsctrl.obj
 0001:00039e20       ?FrameUnwindToEmptyState@__FrameHandler4@@SAXPEA_KPEAU_xDISPATCHER_CONTEXT@@PEAUFuncInfo4@FH4@@@Z 000000018003ae20 f   libvcruntimed:risctrnsctrl.obj
 0001:00039e70       ?GetEstablisherFrame@__FrameHandler3@@SAPEA_KPEA_KPEAU_xDISPATCHER_CONTEXT@@PEBU_s_FuncInfo@@0@Z 000000018003ae70 f   libvcruntimed:risctrnsctrl.obj
 0001:00039fe0       ?GetEstablisherFrame@__FrameHandler4@@SAPEA_KPEA_KPEAU_xDISPATCHER_CONTEXT@@PEAUFuncInfo4@FH4@@0@Z 000000018003afe0 f   libvcruntimed:risctrnsctrl.obj
 0001:0003a050       ?GetRangeOfTrysToCheck@__FrameHandler3@@SA?AU?$pair@Viterator@TryBlockMap@__FrameHandler3@@V123@@std@@AEAVTryBlockMap@1@HPEAU_xDISPATCHER_CONTEXT@@PEBU_s_FuncInfo@@H@Z 000000018003b050 f   libvcruntimed:risctrnsctrl.obj
 0001:0003a290       ?GetRangeOfTrysToCheck@__FrameHandler4@@SA?AU?$pair@Viterator@TryBlockMap4@FH4@@V123@@std@@AEAVTryBlockMap4@FH4@@HPEAU_xDISPATCHER_CONTEXT@@PEAUFuncInfo4@5@H@Z 000000018003b290 f   libvcruntimed:risctrnsctrl.obj
 0001:0003a440       ?ReadInt@FH4@@YAHPEAPEAE@Z 000000018003b440 f i libvcruntimed:risctrnsctrl.obj
 0001:0003a480       ?ReadUnsigned@FH4@@YAIPEAPEAE@Z 000000018003b480 f i libvcruntimed:risctrnsctrl.obj
 0001:0003a510       ?UnwindNestedFrames@__FrameHandler3@@SAXPEA_KPEAUEHExceptionRecord@@PEAU_CONTEXT@@0PEAXPEBU_s_FuncInfo@@HHPEBU_s_HandlerType@@PEAU_xDISPATCHER_CONTEXT@@E@Z 000000018003b510 f   libvcruntimed:risctrnsctrl.obj
 0001:0003a680       ?UnwindNestedFrames@__FrameHandler4@@SAXPEA_KPEAUEHExceptionRecord@@PEAU_CONTEXT@@0PEAXPEAUFuncInfo4@FH4@@HHPEAUHandlerType4@5@PEAU_xDISPATCHER_CONTEXT@@E@Z 000000018003b680 f   libvcruntimed:risctrnsctrl.obj
 0001:0003a850       ?begin@TryBlockMap4@FH4@@QEAA?AViterator@12@XZ 000000018003b850 f i libvcruntimed:risctrnsctrl.obj
 0001:0003a880       ?end@TryBlockMap4@FH4@@QEAA?AViterator@12@XZ 000000018003b880 f i libvcruntimed:risctrnsctrl.obj
 0001:0003a8b0       ?imageRelToByteBuffer@FH4@@YAPEAE_KH@Z 000000018003b8b0 f i libvcruntimed:risctrnsctrl.obj
 0001:0003a8d0       ?incrementToSentinel@iterator@TryBlockMap4@FH4@@QEAAXXZ 000000018003b8d0 f i libvcruntimed:risctrnsctrl.obj
 0001:0003a8f0       ?setBuffer@TryBlockMap4@FH4@@QEAAXViterator@12@@Z 000000018003b8f0 f i libvcruntimed:risctrnsctrl.obj
 0001:0003a960       _CreateFrameInfo           000000018003b960 f   libvcruntimed:risctrnsctrl.obj
 0001:0003a9d0       _FindAndUnlinkFrame        000000018003b9d0 f   libvcruntimed:risctrnsctrl.obj
 0001:0003aa50       _GetImageBase              000000018003ba50 f   libvcruntimed:risctrnsctrl.obj
 0001:0003aa70       _GetThrowImageBase         000000018003ba70 f   libvcruntimed:risctrnsctrl.obj
 0001:0003aa90       _SetImageBase              000000018003ba90 f   libvcruntimed:risctrnsctrl.obj
 0001:0003aab0       _SetThrowImageBase         000000018003bab0 f   libvcruntimed:risctrnsctrl.obj
 0001:0003aad0       __CxxFrameHandler          000000018003bad0 f   libvcruntimed:risctrnsctrl.obj
 0001:0003ab10       __CxxFrameHandler2         000000018003bb10 f   libvcruntimed:risctrnsctrl.obj
 0001:0003ab50       __CxxFrameHandler3         000000018003bb50 f   libvcruntimed:risctrnsctrl.obj
 0001:0003ac30       __CxxFrameHandler4         000000018003bc30 f   libvcruntimed:risctrnsctrl.obj
 0001:0003ad40       __C_specific_handler_noexcept 000000018003bd40 f   libvcruntimed:chandler_noexcept.obj
 0001:0003add0       __DestructExceptionObject  000000018003bdd0 f   libvcruntimed:ehhelpers.obj
 0001:0003aed0       ?_CallMemberFunction0@@YAXQEAX0@Z 000000018003bed0 f i libvcruntimed:ehhelpers.obj
 0001:0003afa0       ?raw_name@type_info@@QEBAPEBDXZ 000000018003bfa0 f i libvcruntimed:ehhelpers.obj
 0001:0003afb0       _IsExceptionObjectToBeDestroyed 000000018003bfb0 f   libvcruntimed:ehhelpers.obj
 0001:0003b000       _SetWinRTOutOfMemoryExceptionCallback 000000018003c000 f   libvcruntimed:ehhelpers.obj
 0001:0003b020       __AdjustPointer            000000018003c020 f   libvcruntimed:ehhelpers.obj
 0001:0003b0a0       __FrameUnwindFilter        000000018003c0a0 f   libvcruntimed:ehhelpers.obj
 0001:0003b150       __GetPlatformExceptionInfo 000000018003c150 f   libvcruntimed:ehhelpers.obj
 0001:0003b200       __current_exception        000000018003c200 f   libvcruntimed:ehhelpers.obj
 0001:0003b220       __current_exception_context 000000018003c220 f   libvcruntimed:ehhelpers.obj
 0001:0003b240       __processing_throw         000000018003c240 f   libvcruntimed:ehhelpers.obj
 0001:0003b260       __std_terminate            000000018003c260 f   libvcruntimed:ehhelpers.obj
 0001:0003b270       _is_exception_typeof       000000018003c270 f   libvcruntimed:ehhelpers.obj
 0001:0003b400       ??$?RD@__crt_internal_free_policy@@QEBAXQEBD@Z 000000018003c400 f i libvcruntimed:std_type_info.obj
 0001:0003b430       ??$?RX@__crt_internal_free_policy@@QEBAXQEBX@Z 000000018003c430 f i libvcruntimed:std_type_info.obj
 0001:0003b460       ??$__crt_interlocked_compare_exchange_pointer@$$CBDPEAD$$T@@YAPEBDPEDSEBDQEAD$$T@Z 000000018003c460 f i libvcruntimed:std_type_info.obj
 0001:0003b4a0       ??$__crt_interlocked_read_pointer@$$CBD@@YAPEBDPEDSEBD@Z 000000018003c4a0 f i libvcruntimed:std_type_info.obj
 0001:0003b4c0       ??0?$__crt_unique_heap_ptr@DU__crt_internal_free_policy@@@@QEAA@QEAD@Z 000000018003c4c0 f i libvcruntimed:std_type_info.obj
 0001:0003b4e0       ??0?$__crt_unique_heap_ptr@XU__crt_internal_free_policy@@@@QEAA@QEAX@Z 000000018003c4e0 f i libvcruntimed:std_type_info.obj
 0001:0003b500       ??1?$__crt_unique_heap_ptr@DU__crt_internal_free_policy@@@@QEAA@XZ 000000018003c500 f i libvcruntimed:std_type_info.obj
 0001:0003b520       ??1?$__crt_unique_heap_ptr@XU__crt_internal_free_policy@@@@QEAA@XZ 000000018003c520 f i libvcruntimed:std_type_info.obj
 0001:0003b540       ??B?$__crt_unique_heap_ptr@DU__crt_internal_free_policy@@@@QEBA_NXZ 000000018003c540 f i libvcruntimed:std_type_info.obj
 0001:0003b560       ??B?$__crt_unique_heap_ptr@XU__crt_internal_free_policy@@@@QEBA_NXZ 000000018003c560 f i libvcruntimed:std_type_info.obj
 0001:0003b600       ?detach@?$__crt_unique_heap_ptr@XU__crt_internal_free_policy@@@@QEAAPEAXXZ 000000018003c600 f i libvcruntimed:std_type_info.obj
 0001:0003b630       ?get@?$__crt_unique_heap_ptr@DU__crt_internal_free_policy@@@@QEBAPEADXZ 000000018003c630 f i libvcruntimed:std_type_info.obj
 0001:0003b640       ?get@?$__crt_unique_heap_ptr@XU__crt_internal_free_policy@@@@QEBAPEAXXZ 000000018003c640 f i libvcruntimed:std_type_info.obj
 0001:0003b650       ?is_valid@?$__crt_unique_heap_ptr@DU__crt_internal_free_policy@@@@QEBA_NXZ 000000018003c650 f i libvcruntimed:std_type_info.obj
 0001:0003b680       ?is_valid@?$__crt_unique_heap_ptr@XU__crt_internal_free_policy@@@@QEBA_NXZ 000000018003c680 f i libvcruntimed:std_type_info.obj
 0001:0003b6b0       ?release@?$__crt_unique_heap_ptr@DU__crt_internal_free_policy@@@@QEAAXXZ 000000018003c6b0 f i libvcruntimed:std_type_info.obj
 0001:0003b6e0       ?release@?$__crt_unique_heap_ptr@XU__crt_internal_free_policy@@@@QEAAXXZ 000000018003c6e0 f i libvcruntimed:std_type_info.obj
 0001:0003b710       __std_type_info_compare    000000018003c710 f   libvcruntimed:std_type_info.obj
 0001:0003b750       __std_type_info_destroy_list 000000018003c750 f   libvcruntimed:std_type_info.obj
 0001:0003b7b0       __std_type_info_hash       000000018003c7b0 f   libvcruntimed:std_type_info.obj
 0001:0003b860       __std_type_info_name       000000018003c860 f   libvcruntimed:std_type_info.obj
 0001:0003bb10       __vcrt_GetModuleFileNameW  000000018003cb10 f   libvcruntimed:winapi_thunks.obj
 0001:0003bb40       __vcrt_GetModuleHandleW    000000018003cb40 f   libvcruntimed:winapi_thunks.obj
 0001:0003bb60       __vcrt_LoadLibraryExW      000000018003cb60 f   libvcruntimed:winapi_thunks.obj
 0001:0003bb90       ??$?RD@__crt_public_free_policy@@QEBAXQEBD@Z 000000018003cb90 f i libvcruntimed:std_exception.obj
 0001:0003bbb0       ??0?$__crt_unique_heap_ptr@DU__crt_public_free_policy@@@@QEAA@QEAD@Z 000000018003cbb0 f i libvcruntimed:std_exception.obj
 0001:0003bbd0       ??1?$__crt_unique_heap_ptr@DU__crt_public_free_policy@@@@QEAA@XZ 000000018003cbd0 f i libvcruntimed:std_exception.obj
 0001:0003bbf0       ??B?$__crt_unique_heap_ptr@DU__crt_public_free_policy@@@@QEBA_NXZ 000000018003cbf0 f i libvcruntimed:std_exception.obj
 0001:0003bc10       ?detach@?$__crt_unique_heap_ptr@DU__crt_public_free_policy@@@@QEAAPEADXZ 000000018003cc10 f i libvcruntimed:std_exception.obj
 0001:0003bc40       ?get@?$__crt_unique_heap_ptr@DU__crt_public_free_policy@@@@QEBAPEADXZ 000000018003cc40 f i libvcruntimed:std_exception.obj
 0001:0003bc50       ?is_valid@?$__crt_unique_heap_ptr@DU__crt_public_free_policy@@@@QEBA_NXZ 000000018003cc50 f i libvcruntimed:std_exception.obj
 0001:0003bc80       ?release@?$__crt_unique_heap_ptr@DU__crt_public_free_policy@@@@QEAAXXZ 000000018003cc80 f i libvcruntimed:std_exception.obj
 0001:0003bcb0       __std_exception_copy       000000018003ccb0 f   libvcruntimed:std_exception.obj
 0001:0003bdf0       __std_exception_destroy    000000018003cdf0 f   libvcruntimed:std_exception.obj
 0001:0003be30       _CxxThrowException         000000018003ce30 f   libvcruntimed:throw.obj
 0001:0003bf60       ??$?RU__vcrt_ptd@@@__crt_internal_free_policy@@QEBAXQEBU__vcrt_ptd@@@Z 000000018003cf60 f i libvcruntimed:per_thread_data.obj
 0001:0003bf90       ??0?$__crt_unique_heap_ptr@U__vcrt_ptd@@U__crt_internal_free_policy@@@@QEAA@QEAU__vcrt_ptd@@@Z 000000018003cf90 f i libvcruntimed:per_thread_data.obj
 0001:0003bfd0       ??1?$__crt_unique_heap_ptr@U__vcrt_ptd@@U__crt_internal_free_policy@@@@QEAA@XZ 000000018003cfd0 f i libvcruntimed:per_thread_data.obj
 0001:0003c010       ??B?$__crt_unique_heap_ptr@U__vcrt_ptd@@U__crt_internal_free_policy@@@@QEBA_NXZ 000000018003d010 f i libvcruntimed:per_thread_data.obj
 0001:0003c030       ?detach@?$__crt_unique_heap_ptr@U__vcrt_ptd@@U__crt_internal_free_policy@@@@QEAAPEAU__vcrt_ptd@@XZ 000000018003d030 f i libvcruntimed:per_thread_data.obj
 0001:0003c060       ?get@?$__crt_unique_heap_ptr@U__vcrt_ptd@@U__crt_internal_free_policy@@@@QEBAPEAU__vcrt_ptd@@XZ 000000018003d060 f i libvcruntimed:per_thread_data.obj
 0001:0003c070       ?is_valid@?$__crt_unique_heap_ptr@U__vcrt_ptd@@U__crt_internal_free_policy@@@@QEBA_NXZ 000000018003d070 f i libvcruntimed:per_thread_data.obj
 0001:0003c0a0       ?release@?$__crt_unique_heap_ptr@U__vcrt_ptd@@U__crt_internal_free_policy@@@@QEAAXXZ 000000018003d0a0 f i libvcruntimed:per_thread_data.obj
 0001:0003c110       __vcrt_freefls             000000018003d110 f   libvcruntimed:per_thread_data.obj
 0001:0003c150       __vcrt_freeptd             000000018003d150 f   libvcruntimed:per_thread_data.obj
 0001:0003c1b0       __vcrt_getptd              000000018003d1b0 f   libvcruntimed:per_thread_data.obj
 0001:0003c1e0       __vcrt_getptd_noexit       000000018003d1e0 f   libvcruntimed:per_thread_data.obj
 0001:0003c380       __vcrt_getptd_noinit       000000018003d380 f   libvcruntimed:per_thread_data.obj
 0001:0003c3e0       __vcrt_initialize_ptd      000000018003d3e0 f   libvcruntimed:per_thread_data.obj
 0001:0003c430       __vcrt_uninitialize_ptd    000000018003d430 f   libvcruntimed:per_thread_data.obj
 0001:0003c460       __vcrt_initialize_locks    000000018003d460 f   libvcruntimed:locks.obj
 0001:0003c4d0       __vcrt_lock                000000018003d4d0 f   libvcruntimed:locks.obj
 0001:0003c500       __vcrt_uninitialize_locks  000000018003d500 f   libvcruntimed:locks.obj
 0001:0003c560       __vcrt_unlock              000000018003d560 f   libvcruntimed:locks.obj
 0001:0003c5a0       _NLG_Notify                000000018003d5a0 f   libvcruntimed:notify.obj
 0001:0003c5c0       __NLG_Dispatch2            000000018003d5c0 f   libvcruntimed:notify.obj
 0001:0003c5d0       __NLG_Return2              000000018003d5d0 f   libvcruntimed:notify.obj
 0001:0003c5f0       __except_validate_context_record 000000018003d5f0 f   libvcruntimed:jbcxrval.obj
 0001:0003c650       __except_validate_jump_buffer 000000018003d650 f   libvcruntimed:jbcxrval.obj
 0001:0003c670       __except_validate_jump_buffer_common 000000018003d670 f i libvcruntimed:jbcxrval.obj
 0001:0003c6f0       ?GetCurrentState@__FrameHandler3@@SAHPEA_KPEAU_xDISPATCHER_CONTEXT@@PEBU_s_FuncInfo@@@Z 000000018003d6f0 f   libvcruntimed:ehstate.obj
 0001:0003c750       ?GetUnwindTryBlock@__FrameHandler3@@SAHPEA_KPEAU_xDISPATCHER_CONTEXT@@PEBU_s_FuncInfo@@@Z 000000018003d750 f   libvcruntimed:ehstate.obj
 0001:0003c7a0       ?SetState@__FrameHandler3@@SAXPEA_KPEBU_s_FuncInfo@@H@Z 000000018003d7a0 f   libvcruntimed:ehstate.obj
 0001:0003c7d0       ?SetUnwindTryBlock@__FrameHandler3@@SAXPEA_KPEAU_xDISPATCHER_CONTEXT@@PEBU_s_FuncInfo@@H@Z 000000018003d7d0 f   libvcruntimed:ehstate.obj
 0001:0003c840       ?StateFromControlPc@__FrameHandler3@@SAHPEBU_s_FuncInfo@@PEAU_xDISPATCHER_CONTEXT@@@Z 000000018003d840 f   libvcruntimed:ehstate.obj
 0001:0003c880       ?StateFromControlPc@__FrameHandler4@@SAHPEAUFuncInfo4@FH4@@PEAU_xDISPATCHER_CONTEXT@@@Z 000000018003d880 f   libvcruntimed:ehstate.obj
 0001:0003c8c0       ?StateFromIp@__FrameHandler3@@SAHPEBU_s_FuncInfo@@PEAU_xDISPATCHER_CONTEXT@@_K@Z 000000018003d8c0 f   libvcruntimed:ehstate.obj
 0001:0003c9b0       ?StateFromIp@__FrameHandler4@@SAHPEAUFuncInfo4@FH4@@PEAU_xDISPATCHER_CONTEXT@@_K@Z 000000018003d9b0 f   libvcruntimed:ehstate.obj
 0001:0003caa0       ?__FuncRelToRealOffset@@YA_KPEAU_xDISPATCHER_CONTEXT@@I@Z 000000018003daa0 f i libvcruntimed:ehstate.obj
 0001:0003cad0       ?__RVAtoRealOffset@@YA_KPEAU_xDISPATCHER_CONTEXT@@H@Z 000000018003dad0 f i libvcruntimed:ehstate.obj
 0001:0003ed50       ??$TypeMatchHelper@V__FrameHandler3@@@@YAHPEBU_s_HandlerType@@PEBU_s_CatchableType@@PEBU_s_ThrowInfo@@@Z 000000018003fd50 f i libvcruntimed:frame.obj
 0001:0003ef50       ??$TypeMatchHelper@V__FrameHandler4@@@@YAHPEAUHandlerType4@FH4@@PEBU_s_CatchableType@@PEBU_s_ThrowInfo@@@Z 000000018003ff50 f i libvcruntimed:frame.obj
 0001:0003f160       ??$__InternalCxxFrameHandler@V__FrameHandler3@@@@YA?AW4_EXCEPTION_DISPOSITION@@PEAUEHExceptionRecord@@PEA_KPEAU_CONTEXT@@PEAU_xDISPATCHER_CONTEXT@@PEBU_s_FuncInfo@@H1E@Z 0000000180040160 f i libvcruntimed:frame.obj
 0001:0003f5d0       ??$__InternalCxxFrameHandler@V__FrameHandler4@@@@YA?AW4_EXCEPTION_DISPOSITION@@PEAUEHExceptionRecord@@PEA_KPEAU_CONTEXT@@PEAU_xDISPATCHER_CONTEXT@@PEAUFuncInfo4@FH4@@H1E@Z 00000001800405d0 f i libvcruntimed:frame.obj
 0001:0003fa60       ??0HandlerMap4@FH4@@QEAA@PEBUTryBlockMapEntry4@1@_KH@Z 0000000180040a60 f i libvcruntimed:frame.obj
 0001:0003fb20       ??0HandlerMap@__FrameHandler3@@QEAA@PEBU_s_TryBlockMapEntry@@_KI@Z 0000000180040b20 f i libvcruntimed:frame.obj
 0001:0003fb70       ??0HandlerType4@FH4@@QEAA@XZ 0000000180040b70 f i libvcruntimed:frame.obj
 0001:0003fb90       ??0TryBlockMap4@FH4@@QEAA@PEBUFuncInfo4@1@_K@Z 0000000180040b90 f i libvcruntimed:frame.obj
 0001:0003fc20       ??0TryBlockMap@__FrameHandler3@@QEAA@PEBU_s_FuncInfo@@_K@Z 0000000180040c20 f i libvcruntimed:frame.obj
 0001:0003fc50       ??0UWMap4@FH4@@QEAA@PEBUFuncInfo4@1@_K@Z 0000000180040c50 f i libvcruntimed:frame.obj
 0001:0003fcc0       ??0bad_exception@std@@QEAA@AEBV01@@Z 0000000180040cc0 f i libvcruntimed:frame.obj
 0001:0003fd00       ??0bad_exception@std@@QEAA@XZ 0000000180040d00 f i libvcruntimed:frame.obj
 0001:0003fd40       ??0iterator@HandlerMap4@FH4@@QEAA@AEAV12@I@Z 0000000180040d40 f i libvcruntimed:frame.obj
 0001:0003fd70       ??0iterator@HandlerMap@__FrameHandler3@@QEAA@AEAV12@I@Z 0000000180040d70 f i libvcruntimed:frame.obj
 0001:0003fda0       ??0iterator@UWMap4@FH4@@QEAA@AEAV12@PEAE@Z 0000000180040da0 f i libvcruntimed:frame.obj
 0001:0003fdd0       ??1bad_exception@std@@UEAA@XZ 0000000180040dd0 f i libvcruntimed:frame.obj
 0001:0003fdf0       ??4iterator@UWMap4@FH4@@QEAAAEAV012@AEBV012@@Z 0000000180040df0 f i libvcruntimed:frame.obj
 0001:0003fe40       ??8iterator@HandlerMap4@FH4@@QEBA_NAEBV012@@Z 0000000180040e40 f i libvcruntimed:frame.obj
 0001:0003fe80       ??8iterator@HandlerMap@__FrameHandler3@@QEBA_NAEBV012@@Z 0000000180040e80 f i libvcruntimed:frame.obj
 0001:0003fec0       ??8type_info@@QEBA_NAEBV0@@Z 0000000180040ec0 f i libvcruntimed:frame.obj
 0001:0003ff10       ??9iterator@HandlerMap4@FH4@@QEBA_NAEBV012@@Z 0000000180040f10 f i libvcruntimed:frame.obj
 0001:0003ff50       ??9iterator@HandlerMap@__FrameHandler3@@QEBA_NAEBV012@@Z 0000000180040f50 f i libvcruntimed:frame.obj
 0001:0003ff90       ??Diterator@HandlerMap4@FH4@@QEAA?AUHandlerType4@2@XZ 0000000180040f90 f i libvcruntimed:frame.obj
 0001:0003ffc0       ??Diterator@HandlerMap@__FrameHandler3@@QEAA?BU_s_HandlerType@@XZ 0000000180040fc0 f i libvcruntimed:frame.obj
 0001:00040000       ??Diterator@TryBlockMap@__FrameHandler3@@QEAA?BU_s_TryBlockMapEntry@@XZ 0000000180041000 f i libvcruntimed:frame.obj
 0001:00040050       ??Diterator@UWMap4@FH4@@QEAA?AUUnwindMapEntry4@2@XZ 0000000180041050 f i libvcruntimed:frame.obj
 0001:000400d0       ??Eiterator@HandlerMap4@FH4@@QEAAAEAV012@XZ 00000001800410d0 f i libvcruntimed:frame.obj
 0001:00040110       ??Eiterator@HandlerMap@__FrameHandler3@@QEAAAEAV012@XZ 0000000180041110 f i libvcruntimed:frame.obj
 0001:00040130       ??Eiterator@TryBlockMap@__FrameHandler3@@QEAAAEAV012@XZ 0000000180041130 f i libvcruntimed:frame.obj
 0001:00040150       ??Eiterator@UWMap4@FH4@@QEAAAEAV012@XZ 0000000180041150 f i libvcruntimed:frame.obj
 0001:00040190       ??Giterator@UWMap4@FH4@@QEBA_JAEBV012@@Z 0000000180041190 f i libvcruntimed:frame.obj
 0001:000401b0       ??Miterator@TryBlockMap4@FH4@@QEBA_NAEBV012@@Z 00000001800411b0 f i libvcruntimed:frame.obj
 0001:000401f0       ??Miterator@TryBlockMap@__FrameHandler3@@QEBA_NAEBV012@@Z 00000001800411f0 f i libvcruntimed:frame.obj
 0001:00040230       ??Oiterator@UWMap4@FH4@@QEBA_NAEBV012@@Z 0000000180041230 f i libvcruntimed:frame.obj
 0001:00040270       ??Piterator@UWMap4@FH4@@QEBA_NAEBV012@@Z 0000000180041270 f i libvcruntimed:frame.obj
 0001:000402b0       ??_Gbad_exception@std@@UEAAPEAXI@Z 00000001800412b0 f i libvcruntimed:frame.obj
 0001:000402b0       ??_Ebad_exception@std@@UEAAPEAXI@Z 00000001800412b0 f i libvcruntimed:frame.obj
 0001:000402f0       ?BuildCatchObject@__FrameHandler3@@SAXPEAUEHExceptionRecord@@PEAXPEBU_s_HandlerType@@PEBU_s_CatchableType@@@Z 00000001800412f0 f   libvcruntimed:frame.obj
 0001:00040330       ?BuildCatchObject@__FrameHandler4@@SAXPEAUEHExceptionRecord@@PEAXPEAUHandlerType4@FH4@@PEBU_s_CatchableType@@@Z 0000000180041330 f   libvcruntimed:frame.obj
 0001:00040370       ?BuildCatchObjectHelper@__FrameHandler3@@SAHPEAUEHExceptionRecord@@PEAXPEBU_s_HandlerType@@PEBU_s_CatchableType@@@Z 0000000180041370 f   libvcruntimed:frame.obj
 0001:000403b0       ?BuildCatchObjectHelper@__FrameHandler4@@SAHPEAUEHExceptionRecord@@PEAXPEAUHandlerType4@FH4@@PEBU_s_CatchableType@@@Z 00000001800413b0 f   libvcruntimed:frame.obj
 0001:000403f0       ?CxxCallCatchBlock@__FrameHandler3@@SAPEAXPEAU_EXCEPTION_RECORD@@@Z 00000001800413f0 f   libvcruntimed:frame.obj
 0001:00040650       ?CxxCallCatchBlock@__FrameHandler4@@SAPEAXPEAU_EXCEPTION_RECORD@@@Z 0000000180041650 f   libvcruntimed:frame.obj
 0001:00040980       ?DecompHandler@HandlerMap4@FH4@@AEAAXXZ 0000000180041980 f i libvcruntimed:frame.obj
 0001:00040d50       ?FrameUnwindToState@__FrameHandler3@@SAXPEA_KPEAU_xDISPATCHER_CONTEXT@@PEBU_s_FuncInfo@@H@Z 0000000180041d50 f   libvcruntimed:frame.obj
 0001:00040fa0       ?FrameUnwindToState@__FrameHandler4@@SAXPEA_KPEAU_xDISPATCHER_CONTEXT@@PEAUFuncInfo4@FH4@@H@Z 0000000180041fa0 f   libvcruntimed:frame.obj
 0001:000412b0       ?GetHandlerSearchState@__FrameHandler3@@SAHPEA_KPEAU_xDISPATCHER_CONTEXT@@PEBU_s_FuncInfo@@@Z 00000001800422b0 f i libvcruntimed:frame.obj
 0001:00041360       ?GetHandlerSearchState@__FrameHandler4@@SAHPEA_KPEAU_xDISPATCHER_CONTEXT@@PEAUFuncInfo4@FH4@@@Z 0000000180042360 f i libvcruntimed:frame.obj
 0001:000413e0       ?GetMaxState@__FrameHandler3@@SAHPEAU_xDISPATCHER_CONTEXT@@PEBU_s_FuncInfo@@@Z 00000001800423e0 f i libvcruntimed:frame.obj
 0001:00041400       ?GetMaxState@__FrameHandler4@@SAHPEAU_xDISPATCHER_CONTEXT@@PEAUFuncInfo4@FH4@@@Z 0000000180042400 f i libvcruntimed:frame.obj
 0001:00041630       ?ReadEntry@UWMap4@FH4@@AEAAXPEAPEAE@Z 0000000180042630 f i libvcruntimed:frame.obj
 0001:000416e0       ?TypeMatch@__FrameHandler3@@SAHPEBU_s_HandlerType@@PEBU_s_CatchableType@@PEBU_s_ThrowInfo@@@Z 00000001800426e0 f   libvcruntimed:frame.obj
 0001:00041710       ?TypeMatch@__FrameHandler4@@SAHPEAUHandlerType4@FH4@@PEBU_s_CatchableType@@PEBU_s_ThrowInfo@@@Z 0000000180042710 f   libvcruntimed:frame.obj
 0001:00041740       ?WalkBack@UWMap4@FH4@@AEAAXPEAPEAE@Z 0000000180042740 f i libvcruntimed:frame.obj
 0001:00041790       ?WalkBack@iterator@UWMap4@FH4@@QEAAXXZ 0000000180042790 f i libvcruntimed:frame.obj
 0001:000417d0       ?WalkForward@UWMap4@FH4@@AEAAXPEAPEAE@Z 00000001800427d0 f i libvcruntimed:frame.obj
 0001:00041800       ?_CallMemberFunction1@@YAXQEAX00@Z 0000000180042800 f i libvcruntimed:frame.obj
 0001:00041840       ?_CallMemberFunction2@@YAXQEAX00H@Z 0000000180042840 f i libvcruntimed:frame.obj
 0001:000418d0       ?begin@HandlerMap4@FH4@@QEAA?AViterator@12@XZ 00000001800428d0 f i libvcruntimed:frame.obj
 0001:00041900       ?begin@HandlerMap@__FrameHandler3@@QEAA?AViterator@12@XZ 0000000180042900 f i libvcruntimed:frame.obj
 0001:00041930       ?begin@UWMap4@FH4@@QEAA?AViterator@12@XZ 0000000180042930 f i libvcruntimed:frame.obj
 0001:00041960       ?end@HandlerMap4@FH4@@QEAA?AViterator@12@XZ 0000000180042960 f i libvcruntimed:frame.obj
 0001:00041990       ?end@HandlerMap@__FrameHandler3@@QEAA?AViterator@12@XZ 0000000180042990 f i libvcruntimed:frame.obj
 0001:000419c0       ?getESTypes@__FrameHandler3@@SAPEBU_s_ESTypeList@@PEBU_s_FuncInfo@@@Z 00000001800429c0 f i libvcruntimed:frame.obj
 0001:00041a00       ?getESTypes@__FrameHandler4@@SAPEBU_s_ESTypeList@@PEAUFuncInfo4@FH4@@@Z 0000000180042a00 f i libvcruntimed:frame.obj
 0001:00041a10       ?getLastEntry@HandlerMap4@FH4@@QEAAPEAUHandlerType4@2@XZ 0000000180042a10 f i libvcruntimed:frame.obj
 0001:00041a50       ?getLastEntry@HandlerMap@__FrameHandler3@@QEAAPEBU_s_HandlerType@@XZ 0000000180042a50 f i libvcruntimed:frame.obj
 0001:00041a70       ?getMagicNum@__FrameHandler3@@SAIPEBU_s_FuncInfo@@@Z 0000000180042a70 f i libvcruntimed:frame.obj
 0001:00041a90       ?getMagicNum@__FrameHandler4@@SAIPEAUFuncInfo4@FH4@@@Z 0000000180042a90 f i libvcruntimed:frame.obj
 0001:00041aa0       ?getNumTryBlocks@TryBlockMap4@FH4@@QEAAIXZ 0000000180042aa0 f i libvcruntimed:frame.obj
 0001:00041ab0       ?getNumTryBlocks@TryBlockMap@__FrameHandler3@@QEAAIXZ 0000000180042ab0 f i libvcruntimed:frame.obj
 0001:00041ad0       ?getStartStop@UWMap4@FH4@@QEAAXHHAEAViterator@12@0@Z 0000000180042ad0 f i libvcruntimed:frame.obj
 0001:00041bf0       ?getStateFromIterators@UWMap4@FH4@@SAHAEBViterator@12@H0H0@Z 0000000180042bf0 f i libvcruntimed:frame.obj
 0001:00041d30       ?isEHs@__FrameHandler3@@SA_NPEBU_s_FuncInfo@@@Z 0000000180042d30 f i libvcruntimed:frame.obj
 0001:00041d70       ?isEHs@__FrameHandler4@@SA_NPEAUFuncInfo4@FH4@@@Z 0000000180042d70 f i libvcruntimed:frame.obj
 0001:00041d90       ?isNoExcept@__FrameHandler3@@SA_NPEBU_s_FuncInfo@@@Z 0000000180042d90 f i libvcruntimed:frame.obj
 0001:00041dd0       ?isNoExcept@__FrameHandler4@@SA_NPEAUFuncInfo4@FH4@@@Z 0000000180042dd0 f i libvcruntimed:frame.obj
 0001:00041df0       ?reset@HandlerType4@FH4@@QEAAXXZ 0000000180042df0 f i libvcruntimed:frame.obj
 0001:00041e50       ?resetBuffer@HandlerMap4@FH4@@QEAAXXZ 0000000180042e50 f i libvcruntimed:frame.obj
 0001:00041e70       ?setBuffer@HandlerMap4@FH4@@QEAAXI@Z 0000000180042e70 f i libvcruntimed:frame.obj
 0001:00041ed0       __BuildCatchObject         0000000180042ed0 f   libvcruntimed:frame.obj
 0001:00041f10       __BuildCatchObjectHelper   0000000180042f10 f   libvcruntimed:frame.obj
 0001:00041f50       __TypeMatch                0000000180042f50 f   libvcruntimed:frame.obj
 0001:00041f80       __vcrt_EncodePointer       0000000180042f80 f i libvcruntimed:frame.obj
 0001:00041fa0       ??$?0$00@DName@@QEAA@PEBDU?$StringLifeSelector@$00@@@Z 0000000180042fa0 f i libvcruntimed:undname.obj
 0001:00042010       ??$?0$00@pcharNode@@QEAA@PEBDHU?$StringLifeSelector@$00@@@Z 0000000180043010 f i libvcruntimed:undname.obj
 0001:00042070       ??$?0$01@DName@@QEAA@PEBDU?$StringLifeSelector@$01@@@Z 0000000180043070 f i libvcruntimed:undname.obj
 0001:000420e0       ??$?0$01@pcharNode@@QEAA@PEBDHU?$StringLifeSelector@$01@@@Z 00000001800430e0 f i libvcruntimed:undname.obj
 0001:00042190       ??$?0$0A@@DName@@QEAA@PEBDU?$StringLifeSelector@$0A@@@@Z 0000000180043190 f i libvcruntimed:undname.obj
 0001:00042200       ??$?0$0A@@pcharNode@@QEAA@PEBDHU?$StringLifeSelector@$0A@@@@Z 0000000180043200 f i libvcruntimed:undname.obj
 0001:000422b0       ??$?0_K$0A@@?$optional@_K@std@@QEAA@$$QEA_K@Z 00000001800432b0 f i libvcruntimed:undname.obj
 0001:00042300       ??$?0_K@?$_Optional_construct_base@_K@std@@QEAA@Uin_place_t@1@$$QEA_K@Z 0000000180043300 f i libvcruntimed:undname.obj
 0001:00042330       ??$?0_K@?$_Optional_destruct_base@_K$00@std@@QEAA@Uin_place_t@1@$$QEA_K@Z 0000000180043330 f i libvcruntimed:undname.obj
 0001:00042370       ??$append@VDNameNode@@@DName@@AEAAXPEBVDNameNode@@@Z 0000000180043370 f i libvcruntimed:undname.obj
 0001:00042420       ??$append@VDNameStatusNode@@@DName@@AEAAXPEBVDNameStatusNode@@@Z 0000000180043420 f i libvcruntimed:undname.obj
 0001:000424d0       ??$append@VcharNode@@@DName@@AEAAXPEBVcharNode@@@Z 00000001800434d0 f i libvcruntimed:undname.obj
 0001:00042580       ??$append@VpDNameNode@@@DName@@AEAAXPEBVpDNameNode@@@Z 0000000180043580 f i libvcruntimed:undname.obj
 0001:00042630       ??$append@VpcharNode@@@DName@@AEAAXPEBVpcharNode@@@Z 0000000180043630 f i libvcruntimed:undname.obj
 0001:000426e0       ??$doPchar@$00@DName@@AEAAXPEBDH@Z 00000001800436e0 f i libvcruntimed:undname.obj
 0001:00042840       ??$doPchar@$01@DName@@AEAAXPEBDH@Z 0000000180043840 f i libvcruntimed:undname.obj
 0001:000429a0       ??$doPchar@$0A@@DName@@AEAAXPEBDH@Z 00000001800439a0 f i libvcruntimed:undname.obj
 0001:00042b00       ??$forward@_K@std@@YA$$QEA_KAEA_K@Z 0000000180043b00 f i libvcruntimed:undname.obj
 0001:00042b10       ??$size@D$04@std@@YA_KAEAY04$$CBD@Z 0000000180043b10 f i libvcruntimed:undname.obj
 0001:00042b20       ??$size@D$0EB@@std@@YA_KAEAY0EB@$$CBD@Z 0000000180043b20 f i libvcruntimed:undname.obj
 0001:00042b30       ??0?$_Optional_construct_base@_K@std@@QEAA@XZ 0000000180043b30 f i libvcruntimed:undname.obj
 0001:00042b50       ??0?$_Optional_destruct_base@_K$00@std@@QEAA@XZ 0000000180043b50 f i libvcruntimed:undname.obj
 0001:00042b70       ??0?$optional@_K@std@@QEAA@XZ 0000000180043b70 f i libvcruntimed:undname.obj
 0001:00042ba0       ??0Block@_HeapManager@@QEAA@XZ 0000000180043ba0 f i libvcruntimed:undname.obj
 0001:00042bc0       ??0DName@@QEAA@AEAPEBDD@Z  0000000180043bc0 f   libvcruntimed:undname.obj
 0001:00042d90       ??0DName@@QEAA@AEBUStringLiteral@@@Z 0000000180043d90 f   libvcruntimed:undname.obj
 0001:00042df0       ??0DName@@QEAA@AEBV0@@Z    0000000180043df0 f i libvcruntimed:undname.obj
 0001:00042e20       ??0DName@@QEAA@D@Z         0000000180043e20 f   libvcruntimed:undname.obj
 0001:00042e60       ??0DName@@QEAA@PEAV0@@Z    0000000180043e60 f   libvcruntimed:undname.obj
 0001:00042f40       ??0DName@@QEAA@W4DNameStatus@@@Z 0000000180043f40 f   libvcruntimed:undname.obj
 0001:00042ff0       ??0DName@@QEAA@XZ          0000000180043ff0 f i libvcruntimed:undname.obj
 0001:00043020       ??0DName@@QEAA@_J@Z        0000000180044020 f   libvcruntimed:undname.obj
 0001:00043130       ??0DName@@QEAA@_K@Z        0000000180044130 f   libvcruntimed:undname.obj
 0001:00043200       ??0DNameNode@@IEAA@XZ      0000000180044200 f i libvcruntimed:undname.obj
 0001:00043220       ??0Replicator@@QEAA@XZ     0000000180044220 f i libvcruntimed:undname.obj
 0001:00043260       ??0UnDecorator@@QEAA@PEBDP6APEADJ@ZK@Z 0000000180044260 f i libvcruntimed:undname.obj
 0001:00043310       ??0charNode@@QEAA@D@Z      0000000180044310 f i libvcruntimed:undname.obj
 0001:00043350       ??0pDNameNode@@QEAA@PEAVDName@@@Z 0000000180044350 f   libvcruntimed:undname.obj
 0001:000433d0       ??0pairNode@@QEAA@PEBVDNameNode@@0@Z 00000001800443d0 f i libvcruntimed:undname.obj
 0001:00043450       ??2@YAPEAX_KAEAV_HeapManager@@H@Z 0000000180044450 f   libvcruntimed:undname.obj
 0001:000434b0       ??4DName@@QEAAAEAV0@AEBUStringLiteral@@@Z 00000001800444b0 f   libvcruntimed:undname.obj
 0001:00043500       ??4DName@@QEAAAEAV0@AEBV0@@Z 0000000180044500 f   libvcruntimed:undname.obj
 0001:00043530       ??4DName@@QEAAAEAV0@D@Z    0000000180044530 f i libvcruntimed:undname.obj
 0001:00043570       ??4DName@@QEAAAEAV0@PEAV0@@Z 0000000180044570 f   libvcruntimed:undname.obj
 0001:00043640       ??4DName@@QEAAAEAV0@W4DNameStatus@@@Z 0000000180044640 f   libvcruntimed:undname.obj
 0001:000436d0       ??AReplicator@@QEBA?AVDName@@H@Z 00000001800446d0 f   libvcruntimed:undname.obj
 0001:00043760       ??B?$optional@_K@std@@QEBA_NXZ 0000000180044760 f i libvcruntimed:undname.obj
 0001:00043770       ??D?$optional@_K@std@@QEGAAAEA_KXZ 0000000180044770 f i libvcruntimed:undname.obj
 0001:00043780       ??H@YA?AVDName@@AEBUStringLiteral@@AEBV0@@Z 0000000180044780 f i libvcruntimed:undname.obj
 0001:000437d0       ??H@YA?AVDName@@DAEBV0@@Z  00000001800447d0 f i libvcruntimed:undname.obj
 0001:00043820       ??H@YA?AVDName@@W4DNameStatus@@AEBV0@@Z 0000000180044820 f i libvcruntimed:undname.obj
 0001:00043870       ??HDName@@QEBA?AV0@AEBUStringLiteral@@@Z 0000000180044870 f   libvcruntimed:undname.obj
 0001:000438c0       ??HDName@@QEBA?AV0@AEBV0@@Z 00000001800448c0 f   libvcruntimed:undname.obj
 0001:00043910       ??HDName@@QEBA?AV0@D@Z     0000000180044910 f   libvcruntimed:undname.obj
 0001:00043960       ??HDName@@QEBA?AV0@PEAV0@@Z 0000000180044960 f   libvcruntimed:undname.obj
 0001:000439b0       ??HDName@@QEBA?AV0@W4DNameStatus@@@Z 00000001800449b0 f   libvcruntimed:undname.obj
 0001:00043a00       ??HStringLiteral@@QEBA?AU0@H@Z 0000000180044a00 f i libvcruntimed:undname.obj
 0001:00043a40       ??YDName@@QEAAAEAV0@AEBUStringLiteral@@@Z 0000000180044a40 f   libvcruntimed:undname.obj
 0001:00043b10       ??YDName@@QEAAAEAV0@AEBV0@@Z 0000000180044b10 f   libvcruntimed:undname.obj
 0001:00043bd0       ??YDName@@QEAAAEAV0@D@Z    0000000180044bd0 f   libvcruntimed:undname.obj
 0001:00043c70       ??YDName@@QEAAAEAV0@PEAV0@@Z 0000000180044c70 f   libvcruntimed:undname.obj
 0001:00043d50       ??YDName@@QEAAAEAV0@W4DNameStatus@@@Z 0000000180044d50 f   libvcruntimed:undname.obj
 0001:00043dc0       ??YReplicator@@QEAAAEAV0@AEBVDName@@@Z 0000000180044dc0 f   libvcruntimed:undname.obj
 0001:00043e80       ??_5DName@@QEAAAEAV0@AEBV0@@Z 0000000180044e80 f   libvcruntimed:undname.obj
 0001:00043ef0       ??__K_l@@YA?AUStringLiteral@@PEBD_K@Z 0000000180044ef0 f i libvcruntimed:undname.obj
 0001:00043f40       ?Constructor@_HeapManager@@QEAAXP6APEAX_K@ZP6AXPEAX@Z@Z 0000000180044f40 f i libvcruntimed:undname.obj
 0001:00043fa0       ?Destructor@_HeapManager@@QEAAXXZ 0000000180044fa0 f i libvcruntimed:undname.obj
 0001:00044040       ?UScore@UnDecorator@@SA?AUStringLiteral@@W4Tokens@@@Z 0000000180045040 f   libvcruntimed:undname.obj
 0001:000440d0       ?composeDeclaration@UnDecorator@@CA?AVDName@@AEBV2@@Z 00000001800450d0 f i libvcruntimed:undname.obj
 0001:000465d0       ?dbGetString@DName@@QEBAPEADXZ 00000001800475d0 f   libvcruntimed:undname.obj
 0001:00046600       ?doAccessSpecifiers@UnDecorator@@SAHXZ 0000000180047600 f i libvcruntimed:undname.obj
 0001:00046630       ?doAllocationLanguage@UnDecorator@@SAHXZ 0000000180047630 f i libvcruntimed:undname.obj
 0001:00046660       ?doAllocationModel@UnDecorator@@SAHXZ 0000000180047660 f i libvcruntimed:undname.obj
 0001:00046690       ?doEcsu@UnDecorator@@SAHXZ 0000000180047690 f i libvcruntimed:undname.obj
 0001:000466c0       ?doEllipsis@UnDecorator@@SAHXZ 00000001800476c0 f i libvcruntimed:undname.obj
 0001:000466f0       ?doFunctionReturns@UnDecorator@@SAHXZ 00000001800476f0 f i libvcruntimed:undname.obj
 0001:00046720       ?doMSKeywords@UnDecorator@@SAHXZ 0000000180047720 f i libvcruntimed:undname.obj
 0001:00046750       ?doMemberTypes@UnDecorator@@SAHXZ 0000000180047750 f i libvcruntimed:undname.obj
 0001:00046780       ?doNameOnly@UnDecorator@@SAHXZ 0000000180047780 f i libvcruntimed:undname.obj
 0001:00046790       ?doNoIdentCharCheck@UnDecorator@@SAHXZ 0000000180047790 f i libvcruntimed:undname.obj
 0001:000467a0       ?doPchar@DName@@AEAAXD@Z   00000001800477a0 f   libvcruntimed:undname.obj
 0001:00046830       ?doPtr64@UnDecorator@@SAHXZ 0000000180047830 f i libvcruntimed:undname.obj
 0001:00046860       ?doRestrictionSpec@UnDecorator@@SAHXZ 0000000180047860 f i libvcruntimed:undname.obj
 0001:00046890       ?doThisTypes@UnDecorator@@SAHXZ 0000000180047890 f i libvcruntimed:undname.obj
 0001:000468c0       ?doThrowTypes@UnDecorator@@SAHXZ 00000001800478c0 f i libvcruntimed:undname.obj
 0001:000468f0       ?doTypeOnly@UnDecorator@@SAHXZ 00000001800478f0 f i libvcruntimed:undname.obj
 0001:00046900       ?doUnderScore@UnDecorator@@SAHXZ 0000000180047900 f i libvcruntimed:undname.obj
 0001:00046930       ?getArgumentList@UnDecorator@@CA?AVDName@@XZ 0000000180047930 f   libvcruntimed:undname.obj
 0001:00046ad0       ?getArgumentTypes@UnDecorator@@CA?AVDName@@XZ 0000000180047ad0 f   libvcruntimed:undname.obj
 0001:00046e30       ?getArrayObject@UnDecorator@@CA?AVDName@@XZ 0000000180047e30 f   libvcruntimed:undname.obj
 0001:00046f50       ?getArrayType@UnDecorator@@CA?AVDName@@AEBV2@@Z 0000000180047f50 f i libvcruntimed:undname.obj
 0001:00047310       ?getBasedType@UnDecorator@@CA?AVDName@@XZ 0000000180048310 f   libvcruntimed:undname.obj
 0001:00047480       ?getBasicDataType@UnDecorator@@CA?AVDName@@AEBV2@@Z 0000000180048480 f   libvcruntimed:undname.obj
 0001:00048150       ?getCHPEName@UnDecorator@@QEAAPEADPEADH@Z 0000000180049150 f i libvcruntimed:undname.obj
 0001:00048320       ?getCallIndex@UnDecorator@@CA?AVDName@@XZ 0000000180049320 f i libvcruntimed:undname.obj
 0001:00048340       ?getCallingConvention@UnDecorator@@CA?AVDName@@XZ 0000000180049340 f   libvcruntimed:undname.obj
 0001:000486e0       ?getDataIndirectType@UnDecorator@@CA?AVDName@@AEBV2@W4IndirectionKind@@0H@Z 00000001800496e0 f   libvcruntimed:undname.obj
 0001:00049380       ?getDataIndirectType@UnDecorator@@CA?AVDName@@XZ 000000018004a380 f i libvcruntimed:undname.obj
 0001:000493d0       ?getDataType@UnDecorator@@CA?AVDName@@PEAV2@@Z 000000018004a3d0 f   libvcruntimed:undname.obj
 0001:000495b0       ?getDecoratedName@UnDecorator@@CA?AVDName@@XZ 000000018004a5b0 f   libvcruntimed:undname.obj
 0001:00049aa0       ?getDimension@UnDecorator@@CA?AVDName@@_N@Z 000000018004aaa0 f   libvcruntimed:undname.obj
 0001:00049db0       ?getDispatchTarget@UnDecorator@@CA?AVDName@@XZ 000000018004adb0 f   libvcruntimed:undname.obj
 0001:00049e80       ?getDisplacement@UnDecorator@@CA?AVDName@@XZ 000000018004ae80 f i libvcruntimed:undname.obj
 0001:00049ea0       ?getECSUDataType@UnDecorator@@CA?AVDName@@XZ 000000018004aea0 f   libvcruntimed:undname.obj
 0001:0004a230       ?getECSUName@UnDecorator@@CA?AVDName@@XZ 000000018004b230 f i libvcruntimed:undname.obj
 0001:0004a250       ?getEnumType@UnDecorator@@CA?AVDName@@XZ 000000018004b250 f i libvcruntimed:undname.obj
 0001:0004a4e0       ?getExtendedDataIndirectType@UnDecorator@@CA?AVDName@@AEAW4IndirectionKind@@AEA_NH@Z 000000018004b4e0 f   libvcruntimed:undname.obj
 0001:0004a800       ?getExternalDataType@UnDecorator@@CA?AVDName@@AEBV2@@Z 000000018004b800 f i libvcruntimed:undname.obj
 0001:0004a8e0       ?getFloatingPoint@UnDecorator@@CA?AVDName@@H@Z 000000018004b8e0 f   libvcruntimed:undname.obj
 0001:0004ab50       ?getFunctionIndirectType@UnDecorator@@CA?AVDName@@AEBV2@@Z 000000018004bb50 f   libvcruntimed:undname.obj
 0001:0004b180       ?getGuardNumber@UnDecorator@@CA?AVDName@@XZ 000000018004c180 f i libvcruntimed:undname.obj
 0001:0004b1a0       ?getLastChar@DName@@QEBADXZ 000000018004c1a0 f i libvcruntimed:undname.obj
 0001:0004b1f0       ?getLastChar@DNameStatusNode@@UEBADXZ 000000018004c1f0 f i libvcruntimed:undname.obj
 0001:0004b230       ?getLastChar@charNode@@UEBADXZ 000000018004c230 f i libvcruntimed:undname.obj
 0001:0004b240       ?getLastChar@pDNameNode@@UEBADXZ 000000018004c240 f i libvcruntimed:undname.obj
 0001:0004b280       ?getLastChar@pairNode@@UEBADXZ 000000018004c280 f i libvcruntimed:undname.obj
 0001:0004b300       ?getLastChar@pcharNode@@UEBADXZ 000000018004c300 f i libvcruntimed:undname.obj
 0001:0004b340       ?getLexicalFrame@UnDecorator@@CA?AVDName@@XZ 000000018004c340 f i libvcruntimed:undname.obj
 0001:0004b390       ?getMemoryWithBuffer@_HeapManager@@QEAAPEAX_K@Z 000000018004c390 f   libvcruntimed:undname.obj
 0001:0004b4e0       ?getMemoryWithoutBuffer@_HeapManager@@QEAAPEAX_K@Z 000000018004c4e0 f   libvcruntimed:undname.obj
 0001:0004b530       ?getNoexcept@UnDecorator@@CA?AVDName@@XZ 000000018004c530 f   libvcruntimed:undname.obj
 0001:0004b5e0       ?getNumberOfDimensions@UnDecorator@@CAHXZ 000000018004c5e0 f   libvcruntimed:undname.obj
 0001:0004b700       ?getOperatorName@UnDecorator@@CA?AVDName@@_NPEA_N@Z 000000018004c700 f i libvcruntimed:undname.obj
 0001:0004c610       ?getPointerType@UnDecorator@@CA?AVDName@@AEBV2@0@Z 000000018004d610 f i libvcruntimed:undname.obj
 0001:0004c650       ?getPointerTypeArray@UnDecorator@@CA?AVDName@@AEBV2@0@Z 000000018004d650 f i libvcruntimed:undname.obj
 0001:0004c690       ?getPrimaryDataType@UnDecorator@@CA?AVDName@@AEBV2@@Z 000000018004d690 f   libvcruntimed:undname.obj
 0001:0004cc80       ?getPtrRefDataType@UnDecorator@@CA?AVDName@@AEBV2@H@Z 000000018004dc80 f   libvcruntimed:undname.obj
 0001:0004d070       ?getPtrRefType@UnDecorator@@CA?AVDName@@AEBV2@0W4IndirectionKind@@@Z 000000018004e070 f   libvcruntimed:undname.obj
 0001:0004d2b0       ?getReferenceType@UnDecorator@@CA?AVDName@@AEBV2@0W4IndirectionKind@@@Z 000000018004e2b0 f i libvcruntimed:undname.obj
 0001:0004d2f0       ?getRestrictionSpec@UnDecorator@@CA?AVDName@@XZ 000000018004e2f0 f   libvcruntimed:undname.obj
 0001:0004d580       ?getReturnType@UnDecorator@@CA?AVDName@@PEAV2@@Z 000000018004e580 f   libvcruntimed:undname.obj
 0001:0004d5e0       ?getScope@UnDecorator@@CA?AVDName@@XZ 000000018004e5e0 f   libvcruntimed:undname.obj
 0001:0004dd30       ?getScopedName@UnDecorator@@CA?AVDName@@XZ 000000018004ed30 f   libvcruntimed:undname.obj
 0001:0004df30       ?getSignedDimension@UnDecorator@@CA?AVDName@@XZ 000000018004ef30 f   libvcruntimed:undname.obj
 0001:0004dfc0       ?getStorageConvention@UnDecorator@@CA?AVDName@@XZ 000000018004efc0 f i libvcruntimed:undname.obj
 0001:0004dfe0       ?getString@DName@@QEBAPEADPEAD0@Z 000000018004efe0 f i libvcruntimed:undname.obj
 0001:0004e060       ?getString@DName@@QEBAPEADPEADH@Z 000000018004f060 f i libvcruntimed:undname.obj
 0001:0004e120       ?getString@DNameStatusNode@@UEBAPEADPEAD0@Z 000000018004f120 f i libvcruntimed:undname.obj
 0001:0004e170       ?getString@charNode@@UEBAPEADPEAD0@Z 000000018004f170 f i libvcruntimed:undname.obj
 0001:0004e1b0       ?getString@pDNameNode@@UEBAPEADPEAD0@Z 000000018004f1b0 f i libvcruntimed:undname.obj
 0001:0004e210       ?getString@pairNode@@UEBAPEADPEAD0@Z 000000018004f210 f i libvcruntimed:undname.obj
 0001:0004e2e0       ?getString@pcharNode@@UEBAPEADPEAD0@Z 000000018004f2e0 f i libvcruntimed:undname.obj
 0001:0004e320       ?getStringEncoding@UnDecorator@@CA?AVDName@@W4PrefixKind@@H@Z 000000018004f320 f   libvcruntimed:undname.obj
 0001:0004e480       ?getStringHelper@@YAPEADPEADPEBD1H@Z 000000018004f480 f i libvcruntimed:undname.obj
 0001:0004e4f0       ?getStringObject@UnDecorator@@CA?AVDName@@XZ 000000018004f4f0 f   libvcruntimed:undname.obj
 0001:0004e5d0       ?getSymbolName@UnDecorator@@CA?AVDName@@XZ 000000018004f5d0 f i libvcruntimed:undname.obj
 0001:0004e670       ?getTemplateArgumentList@UnDecorator@@CA?AVDName@@XZ 000000018004f670 f   libvcruntimed:undname.obj
 0001:0004e980       ?getTemplateName@UnDecorator@@CA?AVDName@@_N@Z 000000018004f980 f   libvcruntimed:undname.obj
 0001:0004ebc0       ?getTemplateNonTypeArgument@UnDecorator@@CA?AVDName@@XZ 000000018004fbc0 f   libvcruntimed:undname.obj
 0001:0004f2b0       ?getTemplateTypeArgument@UnDecorator@@CA?AVDName@@XZ 00000001800502b0 f   libvcruntimed:undname.obj
 0001:0004f520       ?getThisType@UnDecorator@@CA?AVDName@@XZ 0000000180050520 f i libvcruntimed:undname.obj
 0001:0004f570       ?getThrowTypes@UnDecorator@@CA?AVDName@@XZ 0000000180050570 f   libvcruntimed:undname.obj
 0001:0004f5c0       ?getTypeEncoding@UnDecorator@@CAHXZ 00000001800505c0 f i libvcruntimed:undname.obj
 0001:000501f0       ?getUndecoratedName@UnDecorator@@QEAAPEADPEADH@Z 00000001800511f0 f i libvcruntimed:undname.obj
 0001:000503e0       ?getVCallThunkType@UnDecorator@@CA?AVDName@@XZ 00000001800513e0 f i libvcruntimed:undname.obj
 0001:00050490       ?getValue@UnDecorator@@CA?AV?$optional@_K@std@@XZ 0000000180051490 f   libvcruntimed:undname.obj
 0001:00050560       ?getValueObject@UnDecorator@@CA?AVDName@@XZ 0000000180051560 f   libvcruntimed:undname.obj
 0001:00050720       ?getVbTableType@UnDecorator@@CA?AVDName@@AEBV2@@Z 0000000180051720 f i libvcruntimed:undname.obj
 0001:00050750       ?getVdispMapType@UnDecorator@@CA?AVDName@@AEBV2@@Z 0000000180051750 f i libvcruntimed:undname.obj
 0001:00050810       ?getVfTableType@UnDecorator@@CA?AVDName@@AEBV2@@Z 0000000180051810 f i libvcruntimed:undname.obj
 0001:00050ab0       ?getZName@UnDecorator@@CA?AVDName@@_N0@Z 0000000180051ab0 f   libvcruntimed:undname.obj
 0001:00050f40       ?haveTemplateParameters@UnDecorator@@SAHXZ 0000000180051f40 f i libvcruntimed:undname.obj
 0001:00050f50       ?isArray@DName@@QEBAHXZ    0000000180051f50 f i libvcruntimed:undname.obj
 0001:00050f70       ?isComArray@DName@@QEBAHXZ 0000000180051f70 f i libvcruntimed:undname.obj
 0001:00050f90       ?isEmpty@DName@@QEBAHXZ    0000000180051f90 f i libvcruntimed:undname.obj
 0001:00050fc0       ?isFull@Replicator@@QEBAHXZ 0000000180051fc0 f i libvcruntimed:undname.obj
 0001:00050ff0       ?isNoTE@DName@@QEBAHXZ     0000000180051ff0 f i libvcruntimed:undname.obj
 0001:00051010       ?isPinPtr@DName@@QEBAHXZ   0000000180052010 f i libvcruntimed:undname.obj
 0001:00051030       ?isPtrRef@DName@@QEBAHXZ   0000000180052030 f i libvcruntimed:undname.obj
 0001:00051050       ?isUDC@DName@@QEBAHXZ      0000000180052050 f i libvcruntimed:undname.obj
 0001:000510a0       ?isUDTThunk@DName@@QEBAHXZ 00000001800520a0 f i libvcruntimed:undname.obj
 0001:000510f0       ?isVCallThunk@DName@@QEBAHXZ 00000001800520f0 f i libvcruntimed:undname.obj
 0001:00051110       ?isValid@DName@@QEBAHXZ    0000000180052110 f i libvcruntimed:undname.obj
 0001:00051150       ?length@DName@@QEBAHXZ     0000000180052150 f i libvcruntimed:undname.obj
 0001:000511a0       ?length@DNameStatusNode@@UEBAHXZ 00000001800521a0 f i libvcruntimed:undname.obj
 0001:000511b0       ?length@charNode@@UEBAHXZ  00000001800521b0 f i libvcruntimed:undname.obj
 0001:000511c0       ?length@pDNameNode@@UEBAHXZ 00000001800521c0 f i libvcruntimed:undname.obj
 0001:00051200       ?length@pairNode@@UEBAHXZ  0000000180052200 f i libvcruntimed:undname.obj
 0001:00051290       ?length@pcharNode@@UEBAHXZ 0000000180052290 f i libvcruntimed:undname.obj
 0001:000512a0       ?make@DNameStatusNode@@SAPEBV1@W4DNameStatus@@@Z 00000001800522a0 f i libvcruntimed:undname.obj
 0001:000512f0       ?parseDecoratedName@UnDecorator@@CA?AVDName@@XZ 00000001800522f0 f   libvcruntimed:undname.obj
 0001:000514e0       ?raw_length@DNameStatusNode@@UEBAHXZ 00000001800524e0 f i libvcruntimed:undname.obj
 0001:00051500       ?raw_length@charNode@@UEBAHXZ 0000000180052500 f i libvcruntimed:undname.obj
 0001:00051520       ?raw_length@pDNameNode@@UEBAHXZ 0000000180052520 f i libvcruntimed:undname.obj
 0001:00051530       ?raw_length@pairNode@@UEBAHXZ 0000000180052530 f i libvcruntimed:undname.obj
 0001:00051540       ?raw_length@pcharNode@@UEBAHXZ 0000000180052540 f i libvcruntimed:undname.obj
 0001:00051560       ?setIsArray@DName@@QEAAXXZ 0000000180052560 f i libvcruntimed:undname.obj
 0001:00051580       ?setIsComArray@DName@@QEAAXXZ 0000000180052580 f i libvcruntimed:undname.obj
 0001:000515a0       ?setIsNoTE@DName@@QEAAXXZ  00000001800525a0 f i libvcruntimed:undname.obj
 0001:000515c0       ?setIsPinPtr@DName@@QEAAXXZ 00000001800525c0 f i libvcruntimed:undname.obj
 0001:000515e0       ?setIsUDC@DName@@QEAAXXZ   00000001800525e0 f i libvcruntimed:undname.obj
 0001:00051610       ?setIsVCallThunk@DName@@QEAAXXZ 0000000180052610 f i libvcruntimed:undname.obj
 0001:00051630       ?setPtrRef@DName@@QEAAAEAV1@XZ 0000000180052630 f i libvcruntimed:undname.obj
 0001:00051650       ?status@DName@@QEBA?AW4DNameStatus@@XZ 0000000180052650 f i libvcruntimed:undname.obj
 0001:00051780       __unDName                  0000000180052780 f   libvcruntimed:undname.obj
 0001:000517e0       __unDNameEx                00000001800527e0 f   libvcruntimed:undname.obj
 0001:000518a0       unDNameGenerateCHPE        00000001800528a0 f   libvcruntimed:undname.obj
 0001:00051950       ??$__crt_interlocked_exchange_pointer@UHINSTANCE__@@PEAU1@@@YAPEAUHINSTANCE__@@PEDSEAU0@QEAU0@@Z 0000000180052950 f i libvcruntimed:winapi_downlevel.obj
 0001:00051970       ??$__crt_interlocked_exchange_pointer@UHINSTANCE__@@PEAX@@YAPEAUHINSTANCE__@@PEDSEAU0@QEAX@Z 0000000180052970 f i libvcruntimed:winapi_downlevel.obj
 0001:00051990       ??$__crt_interlocked_exchange_pointer@XPEAX@@YAPEAXPEDSEAXQEAX@Z 0000000180052990 f i libvcruntimed:winapi_downlevel.obj
 0001:000519b0       ??$__crt_interlocked_read_pointer@UHINSTANCE__@@@@YAPEAUHINSTANCE__@@PEDSEAU0@@Z 00000001800529b0 f i libvcruntimed:winapi_downlevel.obj
 0001:000519d0       ??$__crt_interlocked_read_pointer@X@@YAPEAXPEDSEAX@Z 00000001800529d0 f i libvcruntimed:winapi_downlevel.obj
 0001:00051ee0       __vcrt_FlsAlloc            0000000180052ee0 f   libvcruntimed:winapi_downlevel.obj
 0001:00051f30       __vcrt_FlsFree             0000000180052f30 f   libvcruntimed:winapi_downlevel.obj
 0001:00051f80       __vcrt_FlsGetValue         0000000180052f80 f   libvcruntimed:winapi_downlevel.obj
 0001:00051fd0       __vcrt_FlsSetValue         0000000180052fd0 f   libvcruntimed:winapi_downlevel.obj
 0001:00052030       __vcrt_InitializeCriticalSectionEx 0000000180053030 f   libvcruntimed:winapi_downlevel.obj
 0001:000520b0       _CallSettingFrame          00000001800530b0 f   libvcruntimed:handlers.obj
 0001:00052100       _CallSettingFrame_LookupContinuationIndex 0000000180053100 f   libvcruntimed:handlers.obj
 0001:00052130       _CallSettingFrame_NotifyContinuationAddr 0000000180053130 f   libvcruntimed:handlers.obj
 0001:00052160       _CallSettingFrameEncoded   0000000180053160 f   libvcruntimed:handlers.obj
 0001:000521b0       ??$?0AEBV?$stream_output_adapter@D@__crt_stdio_output@@AEB_KAEBQEBDAEBQEAU__crt_locale_pointers@@AEBQEAD@?$format_validation_base@DV?$stream_output_adapter@D@__crt_stdio_output@@@__crt_stdio_output@@IEAA@AEBV?$stream_output_adapter@D@1@AEB_KAEBQEBDAEBQEAU__crt_locale_pointers@@AEBQEAD@Z 00000001800531b0 f i libucrtd:output.obj
 0001:00052200       ??$?0AEBV?$stream_output_adapter@D@__crt_stdio_output@@AEB_KAEBQEBDAEBQEAU__crt_locale_pointers@@AEBQEAD@?$positional_parameter_base@DV?$stream_output_adapter@D@__crt_stdio_output@@@__crt_stdio_output@@IEAA@AEBV?$stream_output_adapter@D@1@AEB_KAEBQEBDAEBQEAU__crt_locale_pointers@@AEBQEAD@Z 0000000180053200 f i libucrtd:output.obj
 0001:000522a0       ??$?0AEBV?$stream_output_adapter@D@__crt_stdio_output@@AEB_KAEBQEBDAEBQEAU__crt_locale_pointers@@AEBQEAD@?$standard_base@DV?$stream_output_adapter@D@__crt_stdio_output@@@__crt_stdio_output@@IEAA@AEBV?$stream_output_adapter@D@1@AEB_KAEBQEBDAEBQEAU__crt_locale_pointers@@AEBQEAD@Z 00000001800532a0 f i libucrtd:output.obj
 0001:00052310       ??$?0AEBV?$stream_output_adapter@_W@__crt_stdio_output@@AEB_KAEBQEB_WAEBQEAU__crt_locale_pointers@@AEBQEAD@?$format_validation_base@_WV?$stream_output_adapter@_W@__crt_stdio_output@@@__crt_stdio_output@@IEAA@AEBV?$stream_output_adapter@_W@1@AEB_KAEBQEB_WAEBQEAU__crt_locale_pointers@@AEBQEAD@Z 0000000180053310 f i libucrtd:output.obj
 0001:00052360       ??$?0AEBV?$stream_output_adapter@_W@__crt_stdio_output@@AEB_KAEBQEB_WAEBQEAU__crt_locale_pointers@@AEBQEAD@?$positional_parameter_base@_WV?$stream_output_adapter@_W@__crt_stdio_output@@@__crt_stdio_output@@IEAA@AEBV?$stream_output_adapter@_W@1@AEB_KAEBQEB_WAEBQEAU__crt_locale_pointers@@AEBQEAD@Z 0000000180053360 f i libucrtd:output.obj
 0001:00052400       ??$?0AEBV?$stream_output_adapter@_W@__crt_stdio_output@@AEB_KAEBQEB_WAEBQEAU__crt_locale_pointers@@AEBQEAD@?$standard_base@_WV?$stream_output_adapter@_W@__crt_stdio_output@@@__crt_stdio_output@@IEAA@AEBV?$stream_output_adapter@_W@1@AEB_KAEBQEB_WAEBQEAU__crt_locale_pointers@@AEBQEAD@Z 0000000180053400 f i libucrtd:output.obj
 0001:00052470       ??$?0AEBV?$string_output_adapter@D@__crt_stdio_output@@AEB_KAEBQEBDAEBQEAU__crt_locale_pointers@@AEBQEAD@?$format_validation_base@DV?$string_output_adapter@D@__crt_stdio_output@@@__crt_stdio_output@@IEAA@AEBV?$string_output_adapter@D@1@AEB_KAEBQEBDAEBQEAU__crt_locale_pointers@@AEBQEAD@Z 0000000180053470 f i libucrtd:output.obj
 0001:000524c0       ??$?0AEBV?$string_output_adapter@D@__crt_stdio_output@@AEB_KAEBQEBDAEBQEAU__crt_locale_pointers@@AEBQEAD@?$positional_parameter_base@DV?$string_output_adapter@D@__crt_stdio_output@@@__crt_stdio_output@@IEAA@AEBV?$string_output_adapter@D@1@AEB_KAEBQEBDAEBQEAU__crt_locale_pointers@@AEBQEAD@Z 00000001800534c0 f i libucrtd:output.obj
 0001:00052560       ??$?0AEBV?$string_output_adapter@D@__crt_stdio_output@@AEB_KAEBQEBDAEBQEAU__crt_locale_pointers@@AEBQEAD@?$standard_base@DV?$string_output_adapter@D@__crt_stdio_output@@@__crt_stdio_output@@IEAA@AEBV?$string_output_adapter@D@1@AEB_KAEBQEBDAEBQEAU__crt_locale_pointers@@AEBQEAD@Z 0000000180053560 f i libucrtd:output.obj
 0001:000525d0       ??$?0AEBV?$string_output_adapter@_W@__crt_stdio_output@@AEB_KAEBQEB_WAEBQEAU__crt_locale_pointers@@AEBQEAD@?$format_validation_base@_WV?$string_output_adapter@_W@__crt_stdio_output@@@__crt_stdio_output@@IEAA@AEBV?$string_output_adapter@_W@1@AEB_KAEBQEB_WAEBQEAU__crt_locale_pointers@@AEBQEAD@Z 00000001800535d0 f i libucrtd:output.obj
 0001:00052620       ??$?0AEBV?$string_output_adapter@_W@__crt_stdio_output@@AEB_KAEBQEB_WAEBQEAU__crt_locale_pointers@@AEBQEAD@?$positional_parameter_base@_WV?$string_output_adapter@_W@__crt_stdio_output@@@__crt_stdio_output@@IEAA@AEBV?$string_output_adapter@_W@1@AEB_KAEBQEB_WAEBQEAU__crt_locale_pointers@@AEBQEAD@Z 0000000180053620 f i libucrtd:output.obj
 0001:000526c0       ??$?0AEBV?$string_output_adapter@_W@__crt_stdio_output@@AEB_KAEBQEB_WAEBQEAU__crt_locale_pointers@@AEBQEAD@?$standard_base@_WV?$string_output_adapter@_W@__crt_stdio_output@@@__crt_stdio_output@@IEAA@AEBV?$string_output_adapter@_W@1@AEB_KAEBQEB_WAEBQEAU__crt_locale_pointers@@AEBQEAD@Z 00000001800536c0 f i libucrtd:output.obj
 0001:00052af0       ??$__crt_interlocked_read@J@@YAJPEDJ@Z 0000000180053af0 f i libucrtd:output.obj
 0001:000565d0       ??$count@D@formatting_buffer@__crt_stdio_output@@QEBA_KXZ 00000001800575d0 f i libucrtd:output.obj
 0001:00056620       ??$count@_W@formatting_buffer@__crt_stdio_output@@QEBA_KXZ 0000000180057620 f i libucrtd:output.obj
 0001:00056670       ??$data@D@formatting_buffer@__crt_stdio_output@@QEAAPEADXZ 0000000180057670 f i libucrtd:output.obj
 0001:000566c0       ??$data@_W@formatting_buffer@__crt_stdio_output@@QEAAPEA_WXZ 00000001800576c0 f i libucrtd:output.obj
 0001:00056710       ??$ensure_buffer_is_big_enough@D@formatting_buffer@__crt_stdio_output@@QEAA_N_K@Z 0000000180057710 f i libucrtd:output.obj
 0001:00056840       ??$ensure_buffer_is_big_enough@_W@formatting_buffer@__crt_stdio_output@@QEAA_N_K@Z 0000000180057840 f i libucrtd:output.obj
 0001:00056970       ??$extract_argument_from_va_list@C_J@?$positional_parameter_base@DV?$stream_output_adapter@D@__crt_stdio_output@@@__crt_stdio_output@@IEAA_NAEA_J@Z 0000000180057970 f i libucrtd:output.obj
 0001:00056af0       ??$extract_argument_from_va_list@C_J@?$positional_parameter_base@DV?$string_output_adapter@D@__crt_stdio_output@@@__crt_stdio_output@@IEAA_NAEA_J@Z 0000000180057af0 f i libucrtd:output.obj
 0001:00056c70       ??$extract_argument_from_va_list@C_J@?$positional_parameter_base@_WV?$stream_output_adapter@_W@__crt_stdio_output@@@__crt_stdio_output@@IEAA_NAEA_J@Z 0000000180057c70 f i libucrtd:output.obj
 0001:00056df0       ??$extract_argument_from_va_list@C_J@?$positional_parameter_base@_WV?$string_output_adapter@_W@__crt_stdio_output@@@__crt_stdio_output@@IEAA_NAEA_J@Z 0000000180057df0 f i libucrtd:output.obj
 0001:00056f70       ??$extract_argument_from_va_list@C_J@?$standard_base@DV?$stream_output_adapter@D@__crt_stdio_output@@@__crt_stdio_output@@IEAA_NAEA_J@Z 0000000180057f70 f i libucrtd:output.obj
 0001:00056fb0       ??$extract_argument_from_va_list@C_J@?$standard_base@DV?$string_output_adapter@D@__crt_stdio_output@@@__crt_stdio_output@@IEAA_NAEA_J@Z 0000000180057fb0 f i libucrtd:output.obj
 0001:00056ff0       ??$extract_argument_from_va_list@C_J@?$standard_base@_WV?$stream_output_adapter@_W@__crt_stdio_output@@@__crt_stdio_output@@IEAA_NAEA_J@Z 0000000180057ff0 f i libucrtd:output.obj
 0001:00057030       ??$extract_argument_from_va_list@C_J@?$standard_base@_WV?$string_output_adapter@_W@__crt_stdio_output@@@__crt_stdio_output@@IEAA_NAEA_J@Z 0000000180058030 f i libucrtd:output.obj
 0001:00057070       ??$extract_argument_from_va_list@E_J@?$positional_parameter_base@DV?$stream_output_adapter@D@__crt_stdio_output@@@__crt_stdio_output@@IEAA_NAEA_J@Z 0000000180058070 f i libucrtd:output.obj
 0001:000571f0       ??$extract_argument_from_va_list@E_J@?$positional_parameter_base@DV?$string_output_adapter@D@__crt_stdio_output@@@__crt_stdio_output@@IEAA_NAEA_J@Z 00000001800581f0 f i libucrtd:output.obj
 0001:00057370       ??$extract_argument_from_va_list@E_J@?$positional_parameter_base@_WV?$stream_output_adapter@_W@__crt_stdio_output@@@__crt_stdio_output@@IEAA_NAEA_J@Z 0000000180058370 f i libucrtd:output.obj
 0001:000574f0       ??$extract_argument_from_va_list@E_J@?$positional_parameter_base@_WV?$string_output_adapter@_W@__crt_stdio_output@@@__crt_stdio_output@@IEAA_NAEA_J@Z 00000001800584f0 f i libucrtd:output.obj
 0001:00057670       ??$extract_argument_from_va_list@E_J@?$standard_base@DV?$stream_output_adapter@D@__crt_stdio_output@@@__crt_stdio_output@@IEAA_NAEA_J@Z 0000000180058670 f i libucrtd:output.obj
 0001:000576b0       ??$extract_argument_from_va_list@E_J@?$standard_base@DV?$string_output_adapter@D@__crt_stdio_output@@@__crt_stdio_output@@IEAA_NAEA_J@Z 00000001800586b0 f i libucrtd:output.obj
 0001:000576f0       ??$extract_argument_from_va_list@E_J@?$standard_base@_WV?$stream_output_adapter@_W@__crt_stdio_output@@@__crt_stdio_output@@IEAA_NAEA_J@Z 00000001800586f0 f i libucrtd:output.obj
 0001:00057730       ??$extract_argument_from_va_list@E_J@?$standard_base@_WV?$string_output_adapter@_W@__crt_stdio_output@@@__crt_stdio_output@@IEAA_NAEA_J@Z 0000000180058730 f i libucrtd:output.obj
 0001:00057770       ??$extract_argument_from_va_list@F_J@?$positional_parameter_base@DV?$stream_output_adapter@D@__crt_stdio_output@@@__crt_stdio_output@@IEAA_NAEA_J@Z 0000000180058770 f i libucrtd:output.obj
 0001:000578f0       ??$extract_argument_from_va_list@F_J@?$positional_parameter_base@DV?$string_output_adapter@D@__crt_stdio_output@@@__crt_stdio_output@@IEAA_NAEA_J@Z 00000001800588f0 f i libucrtd:output.obj
 0001:00057a70       ??$extract_argument_from_va_list@F_J@?$positional_parameter_base@_WV?$stream_output_adapter@_W@__crt_stdio_output@@@__crt_stdio_output@@IEAA_NAEA_J@Z 0000000180058a70 f i libucrtd:output.obj
 0001:00057bf0       ??$extract_argument_from_va_list@F_J@?$positional_parameter_base@_WV?$string_output_adapter@_W@__crt_stdio_output@@@__crt_stdio_output@@IEAA_NAEA_J@Z 0000000180058bf0 f i libucrtd:output.obj
 0001:00057d70       ??$extract_argument_from_va_list@F_J@?$standard_base@DV?$stream_output_adapter@D@__crt_stdio_output@@@__crt_stdio_output@@IEAA_NAEA_J@Z 0000000180058d70 f i libucrtd:output.obj
 0001:00057db0       ??$extract_argument_from_va_list@F_J@?$standard_base@DV?$string_output_adapter@D@__crt_stdio_output@@@__crt_stdio_output@@IEAA_NAEA_J@Z 0000000180058db0 f i libucrtd:output.obj
 0001:00057df0       ??$extract_argument_from_va_list@F_J@?$standard_base@_WV?$stream_output_adapter@_W@__crt_stdio_output@@@__crt_stdio_output@@IEAA_NAEA_J@Z 0000000180058df0 f i libucrtd:output.obj
 0001:00057e30       ??$extract_argument_from_va_list@F_J@?$standard_base@_WV?$string_output_adapter@_W@__crt_stdio_output@@@__crt_stdio_output@@IEAA_NAEA_J@Z 0000000180058e30 f i libucrtd:output.obj
 0001:00057e70       ??$extract_argument_from_va_list@GD@?$positional_parameter_base@DV?$stream_output_adapter@D@__crt_stdio_output@@@__crt_stdio_output@@IEAA_NAEAD@Z 0000000180058e70 f i libucrtd:output.obj
 0001:00057ff0       ??$extract_argument_from_va_list@GD@?$positional_parameter_base@DV?$string_output_adapter@D@__crt_stdio_output@@@__crt_stdio_output@@IEAA_NAEAD@Z 0000000180058ff0 f i libucrtd:output.obj
 0001:00058170       ??$extract_argument_from_va_list@GD@?$standard_base@DV?$stream_output_adapter@D@__crt_stdio_output@@@__crt_stdio_output@@IEAA_NAEAD@Z 0000000180059170 f i libucrtd:output.obj
 0001:000581a0       ??$extract_argument_from_va_list@GD@?$standard_base@DV?$string_output_adapter@D@__crt_stdio_output@@@__crt_stdio_output@@IEAA_NAEAD@Z 00000001800591a0 f i libucrtd:output.obj
 0001:000581d0       ??$extract_argument_from_va_list@G_J@?$positional_parameter_base@DV?$stream_output_adapter@D@__crt_stdio_output@@@__crt_stdio_output@@IEAA_NAEA_J@Z 00000001800591d0 f i libucrtd:output.obj
 0001:00058350       ??$extract_argument_from_va_list@G_J@?$positional_parameter_base@DV?$string_output_adapter@D@__crt_stdio_output@@@__crt_stdio_output@@IEAA_NAEA_J@Z 0000000180059350 f i libucrtd:output.obj
 0001:000584d0       ??$extract_argument_from_va_list@G_J@?$positional_parameter_base@_WV?$stream_output_adapter@_W@__crt_stdio_output@@@__crt_stdio_output@@IEAA_NAEA_J@Z 00000001800594d0 f i libucrtd:output.obj
 0001:00058650       ??$extract_argument_from_va_list@G_J@?$positional_parameter_base@_WV?$string_output_adapter@_W@__crt_stdio_output@@@__crt_stdio_output@@IEAA_NAEA_J@Z 0000000180059650 f i libucrtd:output.obj
 0001:000587d0       ??$extract_argument_from_va_list@G_J@?$standard_base@DV?$stream_output_adapter@D@__crt_stdio_output@@@__crt_stdio_output@@IEAA_NAEA_J@Z 00000001800597d0 f i libucrtd:output.obj
 0001:00058810       ??$extract_argument_from_va_list@G_J@?$standard_base@DV?$string_output_adapter@D@__crt_stdio_output@@@__crt_stdio_output@@IEAA_NAEA_J@Z 0000000180059810 f i libucrtd:output.obj
 0001:00058850       ??$extract_argument_from_va_list@G_J@?$standard_base@_WV?$stream_output_adapter@_W@__crt_stdio_output@@@__crt_stdio_output@@IEAA_NAEA_J@Z 0000000180059850 f i libucrtd:output.obj
 0001:00058890       ??$extract_argument_from_va_list@G_J@?$standard_base@_WV?$string_output_adapter@_W@__crt_stdio_output@@@__crt_stdio_output@@IEAA_NAEA_J@Z 0000000180059890 f i libucrtd:output.obj
 0001:000588d0       ??$extract_argument_from_va_list@H_J@?$positional_parameter_base@DV?$stream_output_adapter@D@__crt_stdio_output@@@__crt_stdio_output@@IEAA_NAEA_J@Z 00000001800598d0 f i libucrtd:output.obj
 0001:00058a50       ??$extract_argument_from_va_list@H_J@?$positional_parameter_base@DV?$string_output_adapter@D@__crt_stdio_output@@@__crt_stdio_output@@IEAA_NAEA_J@Z 0000000180059a50 f i libucrtd:output.obj
 0001:00058bd0       ??$extract_argument_from_va_list@H_J@?$positional_parameter_base@_WV?$stream_output_adapter@_W@__crt_stdio_output@@@__crt_stdio_output@@IEAA_NAEA_J@Z 0000000180059bd0 f i libucrtd:output.obj
 0001:00058d50       ??$extract_argument_from_va_list@H_J@?$positional_parameter_base@_WV?$string_output_adapter@_W@__crt_stdio_output@@@__crt_stdio_output@@IEAA_NAEA_J@Z 0000000180059d50 f i libucrtd:output.obj
 0001:00058ed0       ??$extract_argument_from_va_list@H_J@?$standard_base@DV?$stream_output_adapter@D@__crt_stdio_output@@@__crt_stdio_output@@IEAA_NAEA_J@Z 0000000180059ed0 f i libucrtd:output.obj
 0001:00058f00       ??$extract_argument_from_va_list@H_J@?$standard_base@DV?$string_output_adapter@D@__crt_stdio_output@@@__crt_stdio_output@@IEAA_NAEA_J@Z 0000000180059f00 f i libucrtd:output.obj
 0001:00058f30       ??$extract_argument_from_va_list@H_J@?$standard_base@_WV?$stream_output_adapter@_W@__crt_stdio_output@@@__crt_stdio_output@@IEAA_NAEA_J@Z 0000000180059f30 f i libucrtd:output.obj
 0001:00058f60       ??$extract_argument_from_va_list@H_J@?$standard_base@_WV?$string_output_adapter@_W@__crt_stdio_output@@@__crt_stdio_output@@IEAA_NAEA_J@Z 0000000180059f60 f i libucrtd:output.obj
 0001:00058f90       ??$extract_argument_from_va_list@I_J@?$positional_parameter_base@DV?$stream_output_adapter@D@__crt_stdio_output@@@__crt_stdio_output@@IEAA_NAEA_J@Z 0000000180059f90 f i libucrtd:output.obj
 0001:00059110       ??$extract_argument_from_va_list@I_J@?$positional_parameter_base@DV?$string_output_adapter@D@__crt_stdio_output@@@__crt_stdio_output@@IEAA_NAEA_J@Z 000000018005a110 f i libucrtd:output.obj
 0001:00059290       ??$extract_argument_from_va_list@I_J@?$positional_parameter_base@_WV?$stream_output_adapter@_W@__crt_stdio_output@@@__crt_stdio_output@@IEAA_NAEA_J@Z 000000018005a290 f i libucrtd:output.obj
 0001:00059410       ??$extract_argument_from_va_list@I_J@?$positional_parameter_base@_WV?$string_output_adapter@_W@__crt_stdio_output@@@__crt_stdio_output@@IEAA_NAEA_J@Z 000000018005a410 f i libucrtd:output.obj
 0001:00059590       ??$extract_argument_from_va_list@I_J@?$standard_base@DV?$stream_output_adapter@D@__crt_stdio_output@@@__crt_stdio_output@@IEAA_NAEA_J@Z 000000018005a590 f i libucrtd:output.obj
 0001:000595c0       ??$extract_argument_from_va_list@I_J@?$standard_base@DV?$string_output_adapter@D@__crt_stdio_output@@@__crt_stdio_output@@IEAA_NAEA_J@Z 000000018005a5c0 f i libucrtd:output.obj
 0001:000595f0       ??$extract_argument_from_va_list@I_J@?$standard_base@_WV?$stream_output_adapter@_W@__crt_stdio_output@@@__crt_stdio_output@@IEAA_NAEA_J@Z 000000018005a5f0 f i libucrtd:output.obj
 0001:00059620       ??$extract_argument_from_va_list@I_J@?$standard_base@_WV?$string_output_adapter@_W@__crt_stdio_output@@@__crt_stdio_output@@IEAA_NAEA_J@Z 000000018005a620 f i libucrtd:output.obj
 0001:00059650       ??$extract_argument_from_va_list@PEADPEAD@?$positional_parameter_base@DV?$stream_output_adapter@D@__crt_stdio_output@@@__crt_stdio_output@@IEAA_NAEAPEAD@Z 000000018005a650 f i libucrtd:output.obj
 0001:000597d0       ??$extract_argument_from_va_list@PEADPEAD@?$positional_parameter_base@DV?$string_output_adapter@D@__crt_stdio_output@@@__crt_stdio_output@@IEAA_NAEAPEAD@Z 000000018005a7d0 f i libucrtd:output.obj
 0001:00059950       ??$extract_argument_from_va_list@PEADPEAD@?$positional_parameter_base@_WV?$stream_output_adapter@_W@__crt_stdio_output@@@__crt_stdio_output@@IEAA_NAEAPEAD@Z 000000018005a950 f i libucrtd:output.obj
 0001:00059ad0       ??$extract_argument_from_va_list@PEADPEAD@?$positional_parameter_base@_WV?$string_output_adapter@_W@__crt_stdio_output@@@__crt_stdio_output@@IEAA_NAEAPEAD@Z 000000018005aad0 f i libucrtd:output.obj
 0001:00059c50       ??$extract_argument_from_va_list@PEADPEAD@?$standard_base@DV?$stream_output_adapter@D@__crt_stdio_output@@@__crt_stdio_output@@IEAA_NAEAPEAD@Z 000000018005ac50 f i libucrtd:output.obj
 0001:00059c80       ??$extract_argument_from_va_list@PEADPEAD@?$standard_base@DV?$string_output_adapter@D@__crt_stdio_output@@@__crt_stdio_output@@IEAA_NAEAPEAD@Z 000000018005ac80 f i libucrtd:output.obj
 0001:00059cb0       ??$extract_argument_from_va_list@PEADPEAD@?$standard_base@_WV?$stream_output_adapter@_W@__crt_stdio_output@@@__crt_stdio_output@@IEAA_NAEAPEAD@Z 000000018005acb0 f i libucrtd:output.obj
 0001:00059ce0       ??$extract_argument_from_va_list@PEADPEAD@?$standard_base@_WV?$string_output_adapter@_W@__crt_stdio_output@@@__crt_stdio_output@@IEAA_NAEAPEAD@Z 000000018005ace0 f i libucrtd:output.obj
 0001:00059d10       ??$extract_argument_from_va_list@PEAUansi_string@?1??type_case_Z@?$output_processor@DV?$stream_output_adapter@D@__crt_stdio_output@@V?$format_validation_base@DV?$stream_output_adapter@D@__crt_stdio_output@@@2@@__crt_stdio_output@@AEAA_NXZ@PEAU1?1??234@AEAA_NXZ@@?$standard_base@DV?$stream_output_adapter@D@__crt_stdio_output@@@__crt_stdio_output@@IEAA_NAEAPEAUansi_string@?1??type_case_Z@?$output_processor@DV?$stream_output_adapter@D@__crt_stdio_output@@V?$format_validation_base@DV?$stream_output_adapter@D@__crt_stdio_output@@@2@@1@AEAA_NXZ@@Z 000000018005ad10 f i libucrtd:output.obj
 0001:00059d40       ??$extract_argument_from_va_list@PEAUansi_string@?1??type_case_Z@?$output_processor@DV?$stream_output_adapter@D@__crt_stdio_output@@V?$positional_parameter_base@DV?$stream_output_adapter@D@__crt_stdio_output@@@2@@__crt_stdio_output@@AEAA_NXZ@PEAU1?1??234@AEAA_NXZ@@?$positional_parameter_base@DV?$stream_output_adapter@D@__crt_stdio_output@@@__crt_stdio_output@@IEAA_NAEAPEAUansi_string@?1??type_case_Z@?$output_processor@DV?$stream_output_adapter@D@__crt_stdio_output@@V?$positional_parameter_base@DV?$stream_output_adapter@D@__crt_stdio_output@@@2@@1@AEAA_NXZ@@Z 000000018005ad40 f i libucrtd:output.obj
 0001:00059ec0       ??$extract_argument_from_va_list@PEAUansi_string@?1??type_case_Z@?$output_processor@DV?$stream_output_adapter@D@__crt_stdio_output@@V?$positional_parameter_base@DV?$stream_output_adapter@D@__crt_stdio_output@@@2@@__crt_stdio_output@@AEAA_NXZ@PEAU1?1??234@AEAA_NXZ@@?$standard_base@DV?$stream_output_adapter@D@__crt_stdio_output@@@__crt_stdio_output@@IEAA_NAEAPEAUansi_string@?1??type_case_Z@?$output_processor@DV?$stream_output_adapter@D@__crt_stdio_output@@V?$positional_parameter_base@DV?$stream_output_adapter@D@__crt_stdio_output@@@2@@1@AEAA_NXZ@@Z 000000018005aec0 f i libucrtd:output.obj
 0001:00059ef0       ??$extract_argument_from_va_list@PEAUansi_string@?1??type_case_Z@?$output_processor@DV?$stream_output_adapter@D@__crt_stdio_output@@V?$standard_base@DV?$stream_output_adapter@D@__crt_stdio_output@@@2@@__crt_stdio_output@@AEAA_NXZ@PEAU1?1??234@AEAA_NXZ@@?$standard_base@DV?$stream_output_adapter@D@__crt_stdio_output@@@__crt_stdio_output@@IEAA_NAEAPEAUansi_string@?1??type_case_Z@?$output_processor@DV?$stream_output_adapter@D@__crt_stdio_output@@V?$standard_base@DV?$stream_output_adapter@D@__crt_stdio_output@@@2@@1@AEAA_NXZ@@Z 000000018005aef0 f i libucrtd:output.obj
 0001:00059f20       ??$extract_argument_from_va_list@PEAUansi_string@?1??type_case_Z@?$output_processor@DV?$string_output_adapter@D@__crt_stdio_output@@V?$format_validation_base@DV?$string_output_adapter@D@__crt_stdio_output@@@2@@__crt_stdio_output@@AEAA_NXZ@PEAU1?1??234@AEAA_NXZ@@?$standard_base@DV?$string_output_adapter@D@__crt_stdio_output@@@__crt_stdio_output@@IEAA_NAEAPEAUansi_string@?1??type_case_Z@?$output_processor@DV?$string_output_adapter@D@__crt_stdio_output@@V?$format_validation_base@DV?$string_output_adapter@D@__crt_stdio_output@@@2@@1@AEAA_NXZ@@Z 000000018005af20 f i libucrtd:output.obj
 0001:00059f50       ??$extract_argument_from_va_list@PEAUansi_string@?1??type_case_Z@?$output_processor@DV?$string_output_adapter@D@__crt_stdio_output@@V?$positional_parameter_base@DV?$string_output_adapter@D@__crt_stdio_output@@@2@@__crt_stdio_output@@AEAA_NXZ@PEAU1?1??234@AEAA_NXZ@@?$positional_parameter_base@DV?$string_output_adapter@D@__crt_stdio_output@@@__crt_stdio_output@@IEAA_NAEAPEAUansi_string@?1??type_case_Z@?$output_processor@DV?$string_output_adapter@D@__crt_stdio_output@@V?$positional_parameter_base@DV?$string_output_adapter@D@__crt_stdio_output@@@2@@1@AEAA_NXZ@@Z 000000018005af50 f i libucrtd:output.obj
 0001:0005a0d0       ??$extract_argument_from_va_list@PEAUansi_string@?1??type_case_Z@?$output_processor@DV?$string_output_adapter@D@__crt_stdio_output@@V?$positional_parameter_base@DV?$string_output_adapter@D@__crt_stdio_output@@@2@@__crt_stdio_output@@AEAA_NXZ@PEAU1?1??234@AEAA_NXZ@@?$standard_base@DV?$string_output_adapter@D@__crt_stdio_output@@@__crt_stdio_output@@IEAA_NAEAPEAUansi_string@?1??type_case_Z@?$output_processor@DV?$string_output_adapter@D@__crt_stdio_output@@V?$positional_parameter_base@DV?$string_output_adapter@D@__crt_stdio_output@@@2@@1@AEAA_NXZ@@Z 000000018005b0d0 f i libucrtd:output.obj
 0001:0005a100       ??$extract_argument_from_va_list@PEAUansi_string@?1??type_case_Z@?$output_processor@DV?$string_output_adapter@D@__crt_stdio_output@@V?$standard_base@DV?$string_output_adapter@D@__crt_stdio_output@@@2@@__crt_stdio_output@@AEAA_NXZ@PEAU1?1??234@AEAA_NXZ@@?$standard_base@DV?$string_output_adapter@D@__crt_stdio_output@@@__crt_stdio_output@@IEAA_NAEAPEAUansi_string@?1??type_case_Z@?$output_processor@DV?$string_output_adapter@D@__crt_stdio_output@@V?$standard_base@DV?$string_output_adapter@D@__crt_stdio_output@@@2@@1@AEAA_NXZ@@Z 000000018005b100 f i libucrtd:output.obj
 0001:0005a130       ??$extract_argument_from_va_list@PEAUansi_string@?1??type_case_Z@?$output_processor@_WV?$stream_output_adapter@_W@__crt_stdio_output@@V?$format_validation_base@_WV?$stream_output_adapter@_W@__crt_stdio_output@@@2@@__crt_stdio_output@@AEAA_NXZ@PEAU1?1??234@AEAA_NXZ@@?$standard_base@_WV?$stream_output_adapter@_W@__crt_stdio_output@@@__crt_stdio_output@@IEAA_NAEAPEAUansi_string@?1??type_case_Z@?$output_processor@_WV?$stream_output_adapter@_W@__crt_stdio_output@@V?$format_validation_base@_WV?$stream_output_adapter@_W@__crt_stdio_output@@@2@@1@AEAA_NXZ@@Z 000000018005b130 f i libucrtd:output.obj
 0001:0005a160       ??$extract_argument_from_va_list@PEAUansi_string@?1??type_case_Z@?$output_processor@_WV?$stream_output_adapter@_W@__crt_stdio_output@@V?$positional_parameter_base@_WV?$stream_output_adapter@_W@__crt_stdio_output@@@2@@__crt_stdio_output@@AEAA_NXZ@PEAU1?1??234@AEAA_NXZ@@?$positional_parameter_base@_WV?$stream_output_adapter@_W@__crt_stdio_output@@@__crt_stdio_output@@IEAA_NAEAPEAUansi_string@?1??type_case_Z@?$output_processor@_WV?$stream_output_adapter@_W@__crt_stdio_output@@V?$positional_parameter_base@_WV?$stream_output_adapter@_W@__crt_stdio_output@@@2@@1@AEAA_NXZ@@Z 000000018005b160 f i libucrtd:output.obj
 0001:0005a2e0       ??$extract_argument_from_va_list@PEAUansi_string@?1??type_case_Z@?$output_processor@_WV?$stream_output_adapter@_W@__crt_stdio_output@@V?$positional_parameter_base@_WV?$stream_output_adapter@_W@__crt_stdio_output@@@2@@__crt_stdio_output@@AEAA_NXZ@PEAU1?1??234@AEAA_NXZ@@?$standard_base@_WV?$stream_output_adapter@_W@__crt_stdio_output@@@__crt_stdio_output@@IEAA_NAEAPEAUansi_string@?1??type_case_Z@?$output_processor@_WV?$stream_output_adapter@_W@__crt_stdio_output@@V?$positional_parameter_base@_WV?$stream_output_adapter@_W@__crt_stdio_output@@@2@@1@AEAA_NXZ@@Z 000000018005b2e0 f i libucrtd:output.obj
 0001:0005a310       ??$extract_argument_from_va_list@PEAUansi_string@?1??type_case_Z@?$output_processor@_WV?$stream_output_adapter@_W@__crt_stdio_output@@V?$standard_base@_WV?$stream_output_adapter@_W@__crt_stdio_output@@@2@@__crt_stdio_output@@AEAA_NXZ@PEAU1?1??234@AEAA_NXZ@@?$standard_base@_WV?$stream_output_adapter@_W@__crt_stdio_output@@@__crt_stdio_output@@IEAA_NAEAPEAUansi_string@?1??type_case_Z@?$output_processor@_WV?$stream_output_adapter@_W@__crt_stdio_output@@V?$standard_base@_WV?$stream_output_adapter@_W@__crt_stdio_output@@@2@@1@AEAA_NXZ@@Z 000000018005b310 f i libucrtd:output.obj
 0001:0005a340       ??$extract_argument_from_va_list@PEAUansi_string@?1??type_case_Z@?$output_processor@_WV?$string_output_adapter@_W@__crt_stdio_output@@V?$format_validation_base@_WV?$string_output_adapter@_W@__crt_stdio_output@@@2@@__crt_stdio_output@@AEAA_NXZ@PEAU1?1??234@AEAA_NXZ@@?$standard_base@_WV?$string_output_adapter@_W@__crt_stdio_output@@@__crt_stdio_output@@IEAA_NAEAPEAUansi_string@?1??type_case_Z@?$output_processor@_WV?$string_output_adapter@_W@__crt_stdio_output@@V?$format_validation_base@_WV?$string_output_adapter@_W@__crt_stdio_output@@@2@@1@AEAA_NXZ@@Z 000000018005b340 f i libucrtd:output.obj
 0001:0005a370       ??$extract_argument_from_va_list@PEAUansi_string@?1??type_case_Z@?$output_processor@_WV?$string_output_adapter@_W@__crt_stdio_output@@V?$positional_parameter_base@_WV?$string_output_adapter@_W@__crt_stdio_output@@@2@@__crt_stdio_output@@AEAA_NXZ@PEAU1?1??234@AEAA_NXZ@@?$positional_parameter_base@_WV?$string_output_adapter@_W@__crt_stdio_output@@@__crt_stdio_output@@IEAA_NAEAPEAUansi_string@?1??type_case_Z@?$output_processor@_WV?$string_output_adapter@_W@__crt_stdio_output@@V?$positional_parameter_base@_WV?$string_output_adapter@_W@__crt_stdio_output@@@2@@1@AEAA_NXZ@@Z 000000018005b370 f i libucrtd:output.obj
 0001:0005a4f0       ??$extract_argument_from_va_list@PEAUansi_string@?1??type_case_Z@?$output_processor@_WV?$string_output_adapter@_W@__crt_stdio_output@@V?$positional_parameter_base@_WV?$string_output_adapter@_W@__crt_stdio_output@@@2@@__crt_stdio_output@@AEAA_NXZ@PEAU1?1??234@AEAA_NXZ@@?$standard_base@_WV?$string_output_adapter@_W@__crt_stdio_output@@@__crt_stdio_output@@IEAA_NAEAPEAUansi_string@?1??type_case_Z@?$output_processor@_WV?$string_output_adapter@_W@__crt_stdio_output@@V?$positional_parameter_base@_WV?$string_output_adapter@_W@__crt_stdio_output@@@2@@1@AEAA_NXZ@@Z 000000018005b4f0 f i libucrtd:output.obj
 0001:0005a520       ??$extract_argument_from_va_list@PEAUansi_string@?1??type_case_Z@?$output_processor@_WV?$string_output_adapter@_W@__crt_stdio_output@@V?$standard_base@_WV?$string_output_adapter@_W@__crt_stdio_output@@@2@@__crt_stdio_output@@AEAA_NXZ@PEAU1?1??234@AEAA_NXZ@@?$standard_base@_WV?$string_output_adapter@_W@__crt_stdio_output@@@__crt_stdio_output@@IEAA_NAEAPEAUansi_string@?1??type_case_Z@?$output_processor@_WV?$string_output_adapter@_W@__crt_stdio_output@@V?$standard_base@_WV?$string_output_adapter@_W@__crt_stdio_output@@@2@@1@AEAA_NXZ@@Z 000000018005b520 f i libucrtd:output.obj
 0001:0005a550       ??$extract_argument_from_va_list@PEAXPEAX@?$positional_parameter_base@DV?$stream_output_adapter@D@__crt_stdio_output@@@__crt_stdio_output@@IEAA_NAEAPEAX@Z 000000018005b550 f i libucrtd:output.obj
 0001:0005a6d0       ??$extract_argument_from_va_list@PEAXPEAX@?$positional_parameter_base@DV?$string_output_adapter@D@__crt_stdio_output@@@__crt_stdio_output@@IEAA_NAEAPEAX@Z 000000018005b6d0 f i libucrtd:output.obj
 0001:0005a850       ??$extract_argument_from_va_list@PEAXPEAX@?$positional_parameter_base@_WV?$stream_output_adapter@_W@__crt_stdio_output@@@__crt_stdio_output@@IEAA_NAEAPEAX@Z 000000018005b850 f i libucrtd:output.obj
 0001:0005a9d0       ??$extract_argument_from_va_list@PEAXPEAX@?$positional_parameter_base@_WV?$string_output_adapter@_W@__crt_stdio_output@@@__crt_stdio_output@@IEAA_NAEAPEAX@Z 000000018005b9d0 f i libucrtd:output.obj
 0001:0005ab50       ??$extract_argument_from_va_list@PEAXPEAX@?$standard_base@DV?$stream_output_adapter@D@__crt_stdio_output@@@__crt_stdio_output@@IEAA_NAEAPEAX@Z 000000018005bb50 f i libucrtd:output.obj
 0001:0005ab80       ??$extract_argument_from_va_list@PEAXPEAX@?$standard_base@DV?$string_output_adapter@D@__crt_stdio_output@@@__crt_stdio_output@@IEAA_NAEAPEAX@Z 000000018005bb80 f i libucrtd:output.obj
 0001:0005abb0       ??$extract_argument_from_va_list@PEAXPEAX@?$standard_base@_WV?$stream_output_adapter@_W@__crt_stdio_output@@@__crt_stdio_output@@IEAA_NAEAPEAX@Z 000000018005bbb0 f i libucrtd:output.obj
 0001:0005abe0       ??$extract_argument_from_va_list@PEAXPEAX@?$standard_base@_WV?$string_output_adapter@_W@__crt_stdio_output@@@__crt_stdio_output@@IEAA_NAEAPEAX@Z 000000018005bbe0 f i libucrtd:output.obj
 0001:0005ac10       ??$extract_argument_from_va_list@U_CRT_DOUBLE@@U1@@?$positional_parameter_base@DV?$stream_output_adapter@D@__crt_stdio_output@@@__crt_stdio_output@@IEAA_NAEAU_CRT_DOUBLE@@@Z 000000018005bc10 f i libucrtd:output.obj
 0001:0005adb0       ??$extract_argument_from_va_list@U_CRT_DOUBLE@@U1@@?$positional_parameter_base@DV?$string_output_adapter@D@__crt_stdio_output@@@__crt_stdio_output@@IEAA_NAEAU_CRT_DOUBLE@@@Z 000000018005bdb0 f i libucrtd:output.obj
 0001:0005af50       ??$extract_argument_from_va_list@U_CRT_DOUBLE@@U1@@?$positional_parameter_base@_WV?$stream_output_adapter@_W@__crt_stdio_output@@@__crt_stdio_output@@IEAA_NAEAU_CRT_DOUBLE@@@Z 000000018005bf50 f i libucrtd:output.obj
 0001:0005b0f0       ??$extract_argument_from_va_list@U_CRT_DOUBLE@@U1@@?$positional_parameter_base@_WV?$string_output_adapter@_W@__crt_stdio_output@@@__crt_stdio_output@@IEAA_NAEAU_CRT_DOUBLE@@@Z 000000018005c0f0 f i libucrtd:output.obj
 0001:0005b290       ??$extract_argument_from_va_list@U_CRT_DOUBLE@@U1@@?$standard_base@DV?$stream_output_adapter@D@__crt_stdio_output@@@__crt_stdio_output@@IEAA_NAEAU_CRT_DOUBLE@@@Z 000000018005c290 f i libucrtd:output.obj
 0001:0005b2e0       ??$extract_argument_from_va_list@U_CRT_DOUBLE@@U1@@?$standard_base@DV?$string_output_adapter@D@__crt_stdio_output@@@__crt_stdio_output@@IEAA_NAEAU_CRT_DOUBLE@@@Z 000000018005c2e0 f i libucrtd:output.obj
 0001:0005b330       ??$extract_argument_from_va_list@U_CRT_DOUBLE@@U1@@?$standard_base@_WV?$stream_output_adapter@_W@__crt_stdio_output@@@__crt_stdio_output@@IEAA_NAEAU_CRT_DOUBLE@@@Z 000000018005c330 f i libucrtd:output.obj
 0001:0005b380       ??$extract_argument_from_va_list@U_CRT_DOUBLE@@U1@@?$standard_base@_WV?$string_output_adapter@_W@__crt_stdio_output@@@__crt_stdio_output@@IEAA_NAEAU_CRT_DOUBLE@@@Z 000000018005c380 f i libucrtd:output.obj
 0001:0005b3d0       ??$extract_argument_from_va_list@_J_J@?$positional_parameter_base@DV?$stream_output_adapter@D@__crt_stdio_output@@@__crt_stdio_output@@IEAA_NAEA_J@Z 000000018005c3d0 f i libucrtd:output.obj
 0001:0005b550       ??$extract_argument_from_va_list@_J_J@?$positional_parameter_base@DV?$string_output_adapter@D@__crt_stdio_output@@@__crt_stdio_output@@IEAA_NAEA_J@Z 000000018005c550 f i libucrtd:output.obj
 0001:0005b6d0       ??$extract_argument_from_va_list@_J_J@?$positional_parameter_base@_WV?$stream_output_adapter@_W@__crt_stdio_output@@@__crt_stdio_output@@IEAA_NAEA_J@Z 000000018005c6d0 f i libucrtd:output.obj
 0001:0005b850       ??$extract_argument_from_va_list@_J_J@?$positional_parameter_base@_WV?$string_output_adapter@_W@__crt_stdio_output@@@__crt_stdio_output@@IEAA_NAEA_J@Z 000000018005c850 f i libucrtd:output.obj
 0001:0005b9d0       ??$extract_argument_from_va_list@_J_J@?$standard_base@DV?$stream_output_adapter@D@__crt_stdio_output@@@__crt_stdio_output@@IEAA_NAEA_J@Z 000000018005c9d0 f i libucrtd:output.obj
 0001:0005ba00       ??$extract_argument_from_va_list@_J_J@?$standard_base@DV?$string_output_adapter@D@__crt_stdio_output@@@__crt_stdio_output@@IEAA_NAEA_J@Z 000000018005ca00 f i libucrtd:output.obj
 0001:0005ba30       ??$extract_argument_from_va_list@_J_J@?$standard_base@_WV?$stream_output_adapter@_W@__crt_stdio_output@@@__crt_stdio_output@@IEAA_NAEA_J@Z 000000018005ca30 f i libucrtd:output.obj
 0001:0005ba60       ??$extract_argument_from_va_list@_J_J@?$standard_base@_WV?$string_output_adapter@_W@__crt_stdio_output@@@__crt_stdio_output@@IEAA_NAEA_J@Z 000000018005ca60 f i libucrtd:output.obj
 0001:0005ba90       ??$extract_argument_from_va_list@_K_J@?$positional_parameter_base@DV?$stream_output_adapter@D@__crt_stdio_output@@@__crt_stdio_output@@IEAA_NAEA_J@Z 000000018005ca90 f i libucrtd:output.obj
 0001:0005bc10       ??$extract_argument_from_va_list@_K_J@?$positional_parameter_base@DV?$string_output_adapter@D@__crt_stdio_output@@@__crt_stdio_output@@IEAA_NAEA_J@Z 000000018005cc10 f i libucrtd:output.obj
 0001:0005bd90       ??$extract_argument_from_va_list@_K_J@?$positional_parameter_base@_WV?$stream_output_adapter@_W@__crt_stdio_output@@@__crt_stdio_output@@IEAA_NAEA_J@Z 000000018005cd90 f i libucrtd:output.obj
 0001:0005bf10       ??$extract_argument_from_va_list@_K_J@?$positional_parameter_base@_WV?$string_output_adapter@_W@__crt_stdio_output@@@__crt_stdio_output@@IEAA_NAEA_J@Z 000000018005cf10 f i libucrtd:output.obj
 0001:0005c090       ??$extract_argument_from_va_list@_K_J@?$standard_base@DV?$stream_output_adapter@D@__crt_stdio_output@@@__crt_stdio_output@@IEAA_NAEA_J@Z 000000018005d090 f i libucrtd:output.obj
 0001:0005c0c0       ??$extract_argument_from_va_list@_K_J@?$standard_base@DV?$string_output_adapter@D@__crt_stdio_output@@@__crt_stdio_output@@IEAA_NAEA_J@Z 000000018005d0c0 f i libucrtd:output.obj
 0001:0005c0f0       ??$extract_argument_from_va_list@_K_J@?$standard_base@_WV?$stream_output_adapter@_W@__crt_stdio_output@@@__crt_stdio_output@@IEAA_NAEA_J@Z 000000018005d0f0 f i libucrtd:output.obj
 0001:0005c120       ??$extract_argument_from_va_list@_K_J@?$standard_base@_WV?$string_output_adapter@_W@__crt_stdio_output@@@__crt_stdio_output@@IEAA_NAEA_J@Z 000000018005d120 f i libucrtd:output.obj
 0001:0005c150       ??$extract_argument_from_va_list@_W_W@?$positional_parameter_base@DV?$stream_output_adapter@D@__crt_stdio_output@@@__crt_stdio_output@@IEAA_NAEA_W@Z 000000018005d150 f i libucrtd:output.obj
 0001:0005c2d0       ??$extract_argument_from_va_list@_W_W@?$positional_parameter_base@DV?$string_output_adapter@D@__crt_stdio_output@@@__crt_stdio_output@@IEAA_NAEA_W@Z 000000018005d2d0 f i libucrtd:output.obj
 0001:0005c450       ??$extract_argument_from_va_list@_W_W@?$positional_parameter_base@_WV?$stream_output_adapter@_W@__crt_stdio_output@@@__crt_stdio_output@@IEAA_NAEA_W@Z 000000018005d450 f i libucrtd:output.obj
 0001:0005c5d0       ??$extract_argument_from_va_list@_W_W@?$positional_parameter_base@_WV?$string_output_adapter@_W@__crt_stdio_output@@@__crt_stdio_output@@IEAA_NAEA_W@Z 000000018005d5d0 f i libucrtd:output.obj
 0001:0005c750       ??$extract_argument_from_va_list@_W_W@?$standard_base@DV?$stream_output_adapter@D@__crt_stdio_output@@@__crt_stdio_output@@IEAA_NAEA_W@Z 000000018005d750 f i libucrtd:output.obj
 0001:0005c780       ??$extract_argument_from_va_list@_W_W@?$standard_base@DV?$string_output_adapter@D@__crt_stdio_output@@@__crt_stdio_output@@IEAA_NAEA_W@Z 000000018005d780 f i libucrtd:output.obj
 0001:0005c7b0       ??$extract_argument_from_va_list@_W_W@?$standard_base@_WV?$stream_output_adapter@_W@__crt_stdio_output@@@__crt_stdio_output@@IEAA_NAEA_W@Z 000000018005d7b0 f i libucrtd:output.obj
 0001:0005c7e0       ??$extract_argument_from_va_list@_W_W@?$standard_base@_WV?$string_output_adapter@_W@__crt_stdio_output@@@__crt_stdio_output@@IEAA_NAEA_W@Z 000000018005d7e0 f i libucrtd:output.obj
 0001:0005c810       ??$get_parameter_type@D@?$positional_parameter_base@DV?$stream_output_adapter@D@__crt_stdio_output@@@__crt_stdio_output@@CA?AW4parameter_type@01@PEAD@Z 000000018005d810 f i libucrtd:output.obj
 0001:0005c820       ??$get_parameter_type@D@?$positional_parameter_base@DV?$string_output_adapter@D@__crt_stdio_output@@@__crt_stdio_output@@CA?AW4parameter_type@01@PEAD@Z 000000018005d820 f i libucrtd:output.obj
 0001:0005c830       ??$get_parameter_type@D@?$positional_parameter_base@_WV?$stream_output_adapter@_W@__crt_stdio_output@@@__crt_stdio_output@@CA?AW4parameter_type@01@PEAD@Z 000000018005d830 f i libucrtd:output.obj
 0001:0005c840       ??$get_parameter_type@D@?$positional_parameter_base@_WV?$string_output_adapter@_W@__crt_stdio_output@@@__crt_stdio_output@@CA?AW4parameter_type@01@PEAD@Z 000000018005d840 f i libucrtd:output.obj
 0001:0005c850       ??$get_parameter_type@Uansi_string@?1??type_case_Z@?$output_processor@DV?$stream_output_adapter@D@__crt_stdio_output@@V?$positional_parameter_base@DV?$stream_output_adapter@D@__crt_stdio_output@@@2@@__crt_stdio_output@@AEAA_NXZ@@?$positional_parameter_base@DV?$stream_output_adapter@D@__crt_stdio_output@@@__crt_stdio_output@@CA?AW4parameter_type@01@PEAUansi_string@?1??type_case_Z@?$output_processor@DV?$stream_output_adapter@D@__crt_stdio_output@@V?$positional_parameter_base@DV?$stream_output_adapter@D@__crt_stdio_output@@@2@@1@AEAA_NXZ@@Z 000000018005d850 f i libucrtd:output.obj
 0001:0005c860       ??$get_parameter_type@Uansi_string@?1??type_case_Z@?$output_processor@DV?$string_output_adapter@D@__crt_stdio_output@@V?$positional_parameter_base@DV?$string_output_adapter@D@__crt_stdio_output@@@2@@__crt_stdio_output@@AEAA_NXZ@@?$positional_parameter_base@DV?$string_output_adapter@D@__crt_stdio_output@@@__crt_stdio_output@@CA?AW4parameter_type@01@PEAUansi_string@?1??type_case_Z@?$output_processor@DV?$string_output_adapter@D@__crt_stdio_output@@V?$positional_parameter_base@DV?$string_output_adapter@D@__crt_stdio_output@@@2@@1@AEAA_NXZ@@Z 000000018005d860 f i libucrtd:output.obj
 0001:0005c870       ??$get_parameter_type@Uansi_string@?1??type_case_Z@?$output_processor@_WV?$stream_output_adapter@_W@__crt_stdio_output@@V?$positional_parameter_base@_WV?$stream_output_adapter@_W@__crt_stdio_output@@@2@@__crt_stdio_output@@AEAA_NXZ@@?$positional_parameter_base@_WV?$stream_output_adapter@_W@__crt_stdio_output@@@__crt_stdio_output@@CA?AW4parameter_type@01@PEAUansi_string@?1??type_case_Z@?$output_processor@_WV?$stream_output_adapter@_W@__crt_stdio_output@@V?$positional_parameter_base@_WV?$stream_output_adapter@_W@__crt_stdio_output@@@2@@1@AEAA_NXZ@@Z 000000018005d870 f i libucrtd:output.obj
 0001:0005c880       ??$get_parameter_type@Uansi_string@?1??type_case_Z@?$output_processor@_WV?$string_output_adapter@_W@__crt_stdio_output@@V?$positional_parameter_base@_WV?$string_output_adapter@_W@__crt_stdio_output@@@2@@__crt_stdio_output@@AEAA_NXZ@@?$positional_parameter_base@_WV?$string_output_adapter@_W@__crt_stdio_output@@@__crt_stdio_output@@CA?AW4parameter_type@01@PEAUansi_string@?1??type_case_Z@?$output_processor@_WV?$string_output_adapter@_W@__crt_stdio_output@@V?$positional_parameter_base@_WV?$string_output_adapter@_W@__crt_stdio_output@@@2@@1@AEAA_NXZ@@Z 000000018005d880 f i libucrtd:output.obj
 0001:0005c890       ??$get_parameter_type@X@?$positional_parameter_base@DV?$stream_output_adapter@D@__crt_stdio_output@@@__crt_stdio_output@@CA?AW4parameter_type@01@PEAX@Z 000000018005d890 f i libucrtd:output.obj
 0001:0005c8a0       ??$get_parameter_type@X@?$positional_parameter_base@DV?$string_output_adapter@D@__crt_stdio_output@@@__crt_stdio_output@@CA?AW4parameter_type@01@PEAX@Z 000000018005d8a0 f i libucrtd:output.obj
 0001:0005c8b0       ??$get_parameter_type@X@?$positional_parameter_base@_WV?$stream_output_adapter@_W@__crt_stdio_output@@@__crt_stdio_output@@CA?AW4parameter_type@01@PEAX@Z 000000018005d8b0 f i libucrtd:output.obj
 0001:0005c8c0       ??$get_parameter_type@X@?$positional_parameter_base@_WV?$string_output_adapter@_W@__crt_stdio_output@@@__crt_stdio_output@@CA?AW4parameter_type@01@PEAX@Z 000000018005d8c0 f i libucrtd:output.obj
 0001:0005c8d0       ??$is_character_specifier@D@?$positional_parameter_base@DV?$stream_output_adapter@D@__crt_stdio_output@@@__crt_stdio_output@@CA_ND@Z 000000018005d8d0 f i libucrtd:output.obj
 0001:0005c910       ??$is_character_specifier@D@?$positional_parameter_base@DV?$string_output_adapter@D@__crt_stdio_output@@@__crt_stdio_output@@CA_ND@Z 000000018005d910 f i libucrtd:output.obj
 0001:0005c950       ??$is_character_specifier@_W@?$positional_parameter_base@_WV?$stream_output_adapter@_W@__crt_stdio_output@@@__crt_stdio_output@@CA_N_W@Z 000000018005d950 f i libucrtd:output.obj
 0001:0005c990       ??$is_character_specifier@_W@?$positional_parameter_base@_WV?$string_output_adapter@_W@__crt_stdio_output@@@__crt_stdio_output@@CA_N_W@Z 000000018005d990 f i libucrtd:output.obj
 0001:0005c9d0       ??$is_integral_specifier@D@?$positional_parameter_base@DV?$stream_output_adapter@D@__crt_stdio_output@@@__crt_stdio_output@@CA_ND@Z 000000018005d9d0 f i libucrtd:output.obj
 0001:0005ca40       ??$is_integral_specifier@D@?$positional_parameter_base@DV?$string_output_adapter@D@__crt_stdio_output@@@__crt_stdio_output@@CA_ND@Z 000000018005da40 f i libucrtd:output.obj
 0001:0005cab0       ??$is_integral_specifier@_W@?$positional_parameter_base@_WV?$stream_output_adapter@_W@__crt_stdio_output@@@__crt_stdio_output@@CA_N_W@Z 000000018005dab0 f i libucrtd:output.obj
 0001:0005cb20       ??$is_integral_specifier@_W@?$positional_parameter_base@_WV?$string_output_adapter@_W@__crt_stdio_output@@@__crt_stdio_output@@CA_N_W@Z 000000018005db20 f i libucrtd:output.obj
 0001:0005cb90       ??$is_pointer_specifier@D@?$positional_parameter_base@DV?$stream_output_adapter@D@__crt_stdio_output@@@__crt_stdio_output@@CA_ND@Z 000000018005db90 f i libucrtd:output.obj
 0001:0005cbc0       ??$is_pointer_specifier@D@?$positional_parameter_base@DV?$string_output_adapter@D@__crt_stdio_output@@@__crt_stdio_output@@CA_ND@Z 000000018005dbc0 f i libucrtd:output.obj
 0001:0005cbf0       ??$is_pointer_specifier@_W@?$positional_parameter_base@_WV?$stream_output_adapter@_W@__crt_stdio_output@@@__crt_stdio_output@@CA_N_W@Z 000000018005dbf0 f i libucrtd:output.obj
 0001:0005cc20       ??$is_pointer_specifier@_W@?$positional_parameter_base@_WV?$string_output_adapter@_W@__crt_stdio_output@@@__crt_stdio_output@@CA_N_W@Z 000000018005dc20 f i libucrtd:output.obj
 0001:0005cc50       ??$is_string_specifier@D@?$positional_parameter_base@DV?$stream_output_adapter@D@__crt_stdio_output@@@__crt_stdio_output@@CA_ND@Z 000000018005dc50 f i libucrtd:output.obj
 0001:0005cc90       ??$is_string_specifier@D@?$positional_parameter_base@DV?$string_output_adapter@D@__crt_stdio_output@@@__crt_stdio_output@@CA_ND@Z 000000018005dc90 f i libucrtd:output.obj
 0001:0005ccd0       ??$is_string_specifier@_W@?$positional_parameter_base@_WV?$stream_output_adapter@_W@__crt_stdio_output@@@__crt_stdio_output@@CA_N_W@Z 000000018005dcd0 f i libucrtd:output.obj
 0001:0005cd10       ??$is_string_specifier@_W@?$positional_parameter_base@_WV?$string_output_adapter@_W@__crt_stdio_output@@@__crt_stdio_output@@CA_N_W@Z 000000018005dd10 f i libucrtd:output.obj
 0001:0005cd50       ??$is_wide_character_specifier@D@__crt_stdio_output@@YA_N_KDW4length_modifier@0@@Z 000000018005dd50 f i libucrtd:output.obj
 0001:0005cdf0       ??$is_wide_character_specifier@_W@__crt_stdio_output@@YA_N_K_WW4length_modifier@0@@Z 000000018005ddf0 f i libucrtd:output.obj
 0001:0005cec0       ??$peek_va_arg@C@__crt_stdio_output@@YACPEAD@Z 000000018005dec0 f i libucrtd:output.obj
 0001:0005cf20       ??$peek_va_arg@E@__crt_stdio_output@@YAEPEAD@Z 000000018005df20 f i libucrtd:output.obj
 0001:0005cf80       ??$peek_va_arg@F@__crt_stdio_output@@YAFPEAD@Z 000000018005df80 f i libucrtd:output.obj
 0001:0005cfe0       ??$peek_va_arg@G@__crt_stdio_output@@YAGPEAD@Z 000000018005dfe0 f i libucrtd:output.obj
 0001:0005d040       ??$peek_va_arg@H@__crt_stdio_output@@YAHPEAD@Z 000000018005e040 f i libucrtd:output.obj
 0001:0005d090       ??$peek_va_arg@I@__crt_stdio_output@@YAIPEAD@Z 000000018005e090 f i libucrtd:output.obj
 0001:0005d0e0       ??$peek_va_arg@PEAD@__crt_stdio_output@@YAPEADPEAD@Z 000000018005e0e0 f i libucrtd:output.obj
 0001:0005d140       ??$peek_va_arg@PEAUansi_string@?1??type_case_Z@?$output_processor@DV?$stream_output_adapter@D@__crt_stdio_output@@V?$positional_parameter_base@DV?$stream_output_adapter@D@__crt_stdio_output@@@2@@__crt_stdio_output@@AEAA_NXZ@@__crt_stdio_output@@YAPEAUansi_string@?1??type_case_Z@?$output_processor@DV?$stream_output_adapter@D@__crt_stdio_output@@V?$positional_parameter_base@DV?$stream_output_adapter@D@__crt_stdio_output@@@2@@0@AEAA_NXZ@PEAD@Z 000000018005e140 f i libucrtd:output.obj
 0001:0005d1a0       ??$peek_va_arg@PEAUansi_string@?1??type_case_Z@?$output_processor@DV?$string_output_adapter@D@__crt_stdio_output@@V?$positional_parameter_base@DV?$string_output_adapter@D@__crt_stdio_output@@@2@@__crt_stdio_output@@AEAA_NXZ@@__crt_stdio_output@@YAPEAUansi_string@?1??type_case_Z@?$output_processor@DV?$string_output_adapter@D@__crt_stdio_output@@V?$positional_parameter_base@DV?$string_output_adapter@D@__crt_stdio_output@@@2@@0@AEAA_NXZ@PEAD@Z 000000018005e1a0 f i libucrtd:output.obj
 0001:0005d200       ??$peek_va_arg@PEAUansi_string@?1??type_case_Z@?$output_processor@_WV?$stream_output_adapter@_W@__crt_stdio_output@@V?$positional_parameter_base@_WV?$stream_output_adapter@_W@__crt_stdio_output@@@2@@__crt_stdio_output@@AEAA_NXZ@@__crt_stdio_output@@YAPEAUansi_string@?1??type_case_Z@?$output_processor@_WV?$stream_output_adapter@_W@__crt_stdio_output@@V?$positional_parameter_base@_WV?$stream_output_adapter@_W@__crt_stdio_output@@@2@@0@AEAA_NXZ@PEAD@Z 000000018005e200 f i libucrtd:output.obj
 0001:0005d260       ??$peek_va_arg@PEAUansi_string@?1??type_case_Z@?$output_processor@_WV?$string_output_adapter@_W@__crt_stdio_output@@V?$positional_parameter_base@_WV?$string_output_adapter@_W@__crt_stdio_output@@@2@@__crt_stdio_output@@AEAA_NXZ@@__crt_stdio_output@@YAPEAUansi_string@?1??type_case_Z@?$output_processor@_WV?$string_output_adapter@_W@__crt_stdio_output@@V?$positional_parameter_base@_WV?$string_output_adapter@_W@__crt_stdio_output@@@2@@0@AEAA_NXZ@PEAD@Z 000000018005e260 f i libucrtd:output.obj
 0001:0005d2c0       ??$peek_va_arg@PEAX@__crt_stdio_output@@YAPEAXPEAD@Z 000000018005e2c0 f i libucrtd:output.obj
 0001:0005d320       ??$peek_va_arg@U_CRT_DOUBLE@@@__crt_stdio_output@@YA?AU_CRT_DOUBLE@@PEAD@Z 000000018005e320 f i libucrtd:output.obj
 0001:0005d380       ??$peek_va_arg@_J@__crt_stdio_output@@YA_JPEAD@Z 000000018005e380 f i libucrtd:output.obj
 0001:0005d3e0       ??$peek_va_arg@_K@__crt_stdio_output@@YA_KPEAD@Z 000000018005e3e0 f i libucrtd:output.obj
 0001:0005d440       ??$peek_va_arg@_W@__crt_stdio_output@@YA_WPEAD@Z 000000018005e440 f i libucrtd:output.obj
 0001:0005d4a0       ??$puttc_nolock@AEBDPEAU_iobuf@@@?$__crt_char_traits@D@@SAHAEBD$$QEAPEAU_iobuf@@@Z 000000018005e4a0 f i libucrtd:output.obj
 0001:0005d4d0       ??$puttc_nolock@AEB_WPEAU_iobuf@@@?$__crt_char_traits@_W@@SAGAEB_W$$QEAPEAU_iobuf@@@Z 000000018005e4d0 f i libucrtd:output.obj
 0001:0005d500       ??$read_va_arg@C@__crt_stdio_output@@YACAEAPEAD@Z 000000018005e500 f i libucrtd:output.obj
 0001:0005d570       ??$read_va_arg@E@__crt_stdio_output@@YAEAEAPEAD@Z 000000018005e570 f i libucrtd:output.obj
 0001:0005d5e0       ??$read_va_arg@F@__crt_stdio_output@@YAFAEAPEAD@Z 000000018005e5e0 f i libucrtd:output.obj
 0001:0005d650       ??$read_va_arg@G@__crt_stdio_output@@YAGAEAPEAD@Z 000000018005e650 f i libucrtd:output.obj
 0001:0005d6c0       ??$read_va_arg@H@__crt_stdio_output@@YAHAEAPEAD@Z 000000018005e6c0 f i libucrtd:output.obj
 0001:0005d720       ??$read_va_arg@I@__crt_stdio_output@@YAIAEAPEAD@Z 000000018005e720 f i libucrtd:output.obj
 0001:0005d780       ??$read_va_arg@PEAD@__crt_stdio_output@@YAPEADAEAPEAD@Z 000000018005e780 f i libucrtd:output.obj
 0001:0005d7f0       ??$read_va_arg@PEAUansi_string@?1??type_case_Z@?$output_processor@DV?$stream_output_adapter@D@__crt_stdio_output@@V?$format_validation_base@DV?$stream_output_adapter@D@__crt_stdio_output@@@2@@__crt_stdio_output@@AEAA_NXZ@@__crt_stdio_output@@YAPEAUansi_string@?1??type_case_Z@?$output_processor@DV?$stream_output_adapter@D@__crt_stdio_output@@V?$format_validation_base@DV?$stream_output_adapter@D@__crt_stdio_output@@@2@@0@AEAA_NXZ@AEAPEAD@Z 000000018005e7f0 f i libucrtd:output.obj
 0001:0005d860       ??$read_va_arg@PEAUansi_string@?1??type_case_Z@?$output_processor@DV?$stream_output_adapter@D@__crt_stdio_output@@V?$positional_parameter_base@DV?$stream_output_adapter@D@__crt_stdio_output@@@2@@__crt_stdio_output@@AEAA_NXZ@@__crt_stdio_output@@YAPEAUansi_string@?1??type_case_Z@?$output_processor@DV?$stream_output_adapter@D@__crt_stdio_output@@V?$positional_parameter_base@DV?$stream_output_adapter@D@__crt_stdio_output@@@2@@0@AEAA_NXZ@AEAPEAD@Z 000000018005e860 f i libucrtd:output.obj
 0001:0005d8d0       ??$read_va_arg@PEAUansi_string@?1??type_case_Z@?$output_processor@DV?$stream_output_adapter@D@__crt_stdio_output@@V?$standard_base@DV?$stream_output_adapter@D@__crt_stdio_output@@@2@@__crt_stdio_output@@AEAA_NXZ@@__crt_stdio_output@@YAPEAUansi_string@?1??type_case_Z@?$output_processor@DV?$stream_output_adapter@D@__crt_stdio_output@@V?$standard_base@DV?$stream_output_adapter@D@__crt_stdio_output@@@2@@0@AEAA_NXZ@AEAPEAD@Z 000000018005e8d0 f i libucrtd:output.obj
 0001:0005d940       ??$read_va_arg@PEAUansi_string@?1??type_case_Z@?$output_processor@DV?$string_output_adapter@D@__crt_stdio_output@@V?$format_validation_base@DV?$string_output_adapter@D@__crt_stdio_output@@@2@@__crt_stdio_output@@AEAA_NXZ@@__crt_stdio_output@@YAPEAUansi_string@?1??type_case_Z@?$output_processor@DV?$string_output_adapter@D@__crt_stdio_output@@V?$format_validation_base@DV?$string_output_adapter@D@__crt_stdio_output@@@2@@0@AEAA_NXZ@AEAPEAD@Z 000000018005e940 f i libucrtd:output.obj
 0001:0005d9b0       ??$read_va_arg@PEAUansi_string@?1??type_case_Z@?$output_processor@DV?$string_output_adapter@D@__crt_stdio_output@@V?$positional_parameter_base@DV?$string_output_adapter@D@__crt_stdio_output@@@2@@__crt_stdio_output@@AEAA_NXZ@@__crt_stdio_output@@YAPEAUansi_string@?1??type_case_Z@?$output_processor@DV?$string_output_adapter@D@__crt_stdio_output@@V?$positional_parameter_base@DV?$string_output_adapter@D@__crt_stdio_output@@@2@@0@AEAA_NXZ@AEAPEAD@Z 000000018005e9b0 f i libucrtd:output.obj
 0001:0005da20       ??$read_va_arg@PEAUansi_string@?1??type_case_Z@?$output_processor@DV?$string_output_adapter@D@__crt_stdio_output@@V?$standard_base@DV?$string_output_adapter@D@__crt_stdio_output@@@2@@__crt_stdio_output@@AEAA_NXZ@@__crt_stdio_output@@YAPEAUansi_string@?1??type_case_Z@?$output_processor@DV?$string_output_adapter@D@__crt_stdio_output@@V?$standard_base@DV?$string_output_adapter@D@__crt_stdio_output@@@2@@0@AEAA_NXZ@AEAPEAD@Z 000000018005ea20 f i libucrtd:output.obj
 0001:0005da90       ??$read_va_arg@PEAUansi_string@?1??type_case_Z@?$output_processor@_WV?$stream_output_adapter@_W@__crt_stdio_output@@V?$format_validation_base@_WV?$stream_output_adapter@_W@__crt_stdio_output@@@2@@__crt_stdio_output@@AEAA_NXZ@@__crt_stdio_output@@YAPEAUansi_string@?1??type_case_Z@?$output_processor@_WV?$stream_output_adapter@_W@__crt_stdio_output@@V?$format_validation_base@_WV?$stream_output_adapter@_W@__crt_stdio_output@@@2@@0@AEAA_NXZ@AEAPEAD@Z 000000018005ea90 f i libucrtd:output.obj
 0001:0005db00       ??$read_va_arg@PEAUansi_string@?1??type_case_Z@?$output_processor@_WV?$stream_output_adapter@_W@__crt_stdio_output@@V?$positional_parameter_base@_WV?$stream_output_adapter@_W@__crt_stdio_output@@@2@@__crt_stdio_output@@AEAA_NXZ@@__crt_stdio_output@@YAPEAUansi_string@?1??type_case_Z@?$output_processor@_WV?$stream_output_adapter@_W@__crt_stdio_output@@V?$positional_parameter_base@_WV?$stream_output_adapter@_W@__crt_stdio_output@@@2@@0@AEAA_NXZ@AEAPEAD@Z 000000018005eb00 f i libucrtd:output.obj
 0001:0005db70       ??$read_va_arg@PEAUansi_string@?1??type_case_Z@?$output_processor@_WV?$stream_output_adapter@_W@__crt_stdio_output@@V?$standard_base@_WV?$stream_output_adapter@_W@__crt_stdio_output@@@2@@__crt_stdio_output@@AEAA_NXZ@@__crt_stdio_output@@YAPEAUansi_string@?1??type_case_Z@?$output_processor@_WV?$stream_output_adapter@_W@__crt_stdio_output@@V?$standard_base@_WV?$stream_output_adapter@_W@__crt_stdio_output@@@2@@0@AEAA_NXZ@AEAPEAD@Z 000000018005eb70 f i libucrtd:output.obj
 0001:0005dbe0       ??$read_va_arg@PEAUansi_string@?1??type_case_Z@?$output_processor@_WV?$string_output_adapter@_W@__crt_stdio_output@@V?$format_validation_base@_WV?$string_output_adapter@_W@__crt_stdio_output@@@2@@__crt_stdio_output@@AEAA_NXZ@@__crt_stdio_output@@YAPEAUansi_string@?1??type_case_Z@?$output_processor@_WV?$string_output_adapter@_W@__crt_stdio_output@@V?$format_validation_base@_WV?$string_output_adapter@_W@__crt_stdio_output@@@2@@0@AEAA_NXZ@AEAPEAD@Z 000000018005ebe0 f i libucrtd:output.obj
 0001:0005dc50       ??$read_va_arg@PEAUansi_string@?1??type_case_Z@?$output_processor@_WV?$string_output_adapter@_W@__crt_stdio_output@@V?$positional_parameter_base@_WV?$string_output_adapter@_W@__crt_stdio_output@@@2@@__crt_stdio_output@@AEAA_NXZ@@__crt_stdio_output@@YAPEAUansi_string@?1??type_case_Z@?$output_processor@_WV?$string_output_adapter@_W@__crt_stdio_output@@V?$positional_parameter_base@_WV?$string_output_adapter@_W@__crt_stdio_output@@@2@@0@AEAA_NXZ@AEAPEAD@Z 000000018005ec50 f i libucrtd:output.obj
 0001:0005dcc0       ??$read_va_arg@PEAUansi_string@?1??type_case_Z@?$output_processor@_WV?$string_output_adapter@_W@__crt_stdio_output@@V?$standard_base@_WV?$string_output_adapter@_W@__crt_stdio_output@@@2@@__crt_stdio_output@@AEAA_NXZ@@__crt_stdio_output@@YAPEAUansi_string@?1??type_case_Z@?$output_processor@_WV?$string_output_adapter@_W@__crt_stdio_output@@V?$standard_base@_WV?$string_output_adapter@_W@__crt_stdio_output@@@2@@0@AEAA_NXZ@AEAPEAD@Z 000000018005ecc0 f i libucrtd:output.obj
 0001:0005dd30       ??$read_va_arg@PEAX@__crt_stdio_output@@YAPEAXAEAPEAD@Z 000000018005ed30 f i libucrtd:output.obj
 0001:0005dda0       ??$read_va_arg@U_CRT_DOUBLE@@@__crt_stdio_output@@YA?AU_CRT_DOUBLE@@AEAPEAD@Z 000000018005eda0 f i libucrtd:output.obj
 0001:0005de10       ??$read_va_arg@_J@__crt_stdio_output@@YA_JAEAPEAD@Z 000000018005ee10 f i libucrtd:output.obj
 0001:0005de80       ??$read_va_arg@_K@__crt_stdio_output@@YA_KAEAPEAD@Z 000000018005ee80 f i libucrtd:output.obj
 0001:0005def0       ??$read_va_arg@_W@__crt_stdio_output@@YA_WAEAPEAD@Z 000000018005eef0 f i libucrtd:output.obj
 0001:0005df60       ??$scratch_count@D@formatting_buffer@__crt_stdio_output@@QEBA_KXZ 000000018005ef60 f i libucrtd:output.obj
 0001:0005df80       ??$scratch_data@D@formatting_buffer@__crt_stdio_output@@QEAAPEADXZ 000000018005ef80 f i libucrtd:output.obj
 0001:0005dff0       ??$tcstol@AEAPEBDPEAPEADH@?$__crt_char_traits@D@@SAJAEAPEBD$$QEAPEAPEAD$$QEAH@Z 000000018005eff0 f i libucrtd:output.obj
 0001:0005e030       ??$tcstol@AEAPEB_WPEAPEA_WH@?$__crt_char_traits@_W@@SAJAEAPEB_W$$QEAPEAPEA_W$$QEAH@Z 000000018005f030 f i libucrtd:output.obj
 0001:0005e070       ??$tcstol@PEBDPEAPEADH@?$__crt_char_traits@D@@SAJ$$QEAPEBD$$QEAPEAPEAD$$QEAH@Z 000000018005f070 f i libucrtd:output.obj
 0001:0005e0b0       ??$tcstol@PEB_WPEAPEA_WH@?$__crt_char_traits@_W@@SAJ$$QEAPEB_W$$QEAPEAPEA_W$$QEAH@Z 000000018005f0b0 f i libucrtd:output.obj
 0001:0005e0f0       ??$type_case_integer_parse_into_buffer@I@?$output_processor@DV?$stream_output_adapter@D@__crt_stdio_output@@V?$format_validation_base@DV?$stream_output_adapter@D@__crt_stdio_output@@@2@@__crt_stdio_output@@AEAAXII_N@Z 000000018005f0f0 f i libucrtd:output.obj
 0001:0005e220       ??$type_case_integer_parse_into_buffer@I@?$output_processor@DV?$stream_output_adapter@D@__crt_stdio_output@@V?$positional_parameter_base@DV?$stream_output_adapter@D@__crt_stdio_output@@@2@@__crt_stdio_output@@AEAAXII_N@Z 000000018005f220 f i libucrtd:output.obj
 0001:0005e350       ??$type_case_integer_parse_into_buffer@I@?$output_processor@DV?$stream_output_adapter@D@__crt_stdio_output@@V?$standard_base@DV?$stream_output_adapter@D@__crt_stdio_output@@@2@@__crt_stdio_output@@AEAAXII_N@Z 000000018005f350 f i libucrtd:output.obj
 0001:0005e480       ??$type_case_integer_parse_into_buffer@I@?$output_processor@DV?$string_output_adapter@D@__crt_stdio_output@@V?$format_validation_base@DV?$string_output_adapter@D@__crt_stdio_output@@@2@@__crt_stdio_output@@AEAAXII_N@Z 000000018005f480 f i libucrtd:output.obj
 0001:0005e5b0       ??$type_case_integer_parse_into_buffer@I@?$output_processor@DV?$string_output_adapter@D@__crt_stdio_output@@V?$positional_parameter_base@DV?$string_output_adapter@D@__crt_stdio_output@@@2@@__crt_stdio_output@@AEAAXII_N@Z 000000018005f5b0 f i libucrtd:output.obj
 0001:0005e6e0       ??$type_case_integer_parse_into_buffer@I@?$output_processor@DV?$string_output_adapter@D@__crt_stdio_output@@V?$standard_base@DV?$string_output_adapter@D@__crt_stdio_output@@@2@@__crt_stdio_output@@AEAAXII_N@Z 000000018005f6e0 f i libucrtd:output.obj
 0001:0005e810       ??$type_case_integer_parse_into_buffer@I@?$output_processor@_WV?$stream_output_adapter@_W@__crt_stdio_output@@V?$format_validation_base@_WV?$stream_output_adapter@_W@__crt_stdio_output@@@2@@__crt_stdio_output@@AEAAXII_N@Z 000000018005f810 f i libucrtd:output.obj
 0001:0005e950       ??$type_case_integer_parse_into_buffer@I@?$output_processor@_WV?$stream_output_adapter@_W@__crt_stdio_output@@V?$positional_parameter_base@_WV?$stream_output_adapter@_W@__crt_stdio_output@@@2@@__crt_stdio_output@@AEAAXII_N@Z 000000018005f950 f i libucrtd:output.obj
 0001:0005ea90       ??$type_case_integer_parse_into_buffer@I@?$output_processor@_WV?$stream_output_adapter@_W@__crt_stdio_output@@V?$standard_base@_WV?$stream_output_adapter@_W@__crt_stdio_output@@@2@@__crt_stdio_output@@AEAAXII_N@Z 000000018005fa90 f i libucrtd:output.obj
 0001:0005ebd0       ??$type_case_integer_parse_into_buffer@I@?$output_processor@_WV?$string_output_adapter@_W@__crt_stdio_output@@V?$format_validation_base@_WV?$string_output_adapter@_W@__crt_stdio_output@@@2@@__crt_stdio_output@@AEAAXII_N@Z 000000018005fbd0 f i libucrtd:output.obj
 0001:0005ed10       ??$type_case_integer_parse_into_buffer@I@?$output_processor@_WV?$string_output_adapter@_W@__crt_stdio_output@@V?$positional_parameter_base@_WV?$string_output_adapter@_W@__crt_stdio_output@@@2@@__crt_stdio_output@@AEAAXII_N@Z 000000018005fd10 f i libucrtd:output.obj
 0001:0005ee50       ??$type_case_integer_parse_into_buffer@I@?$output_processor@_WV?$string_output_adapter@_W@__crt_stdio_output@@V?$standard_base@_WV?$string_output_adapter@_W@__crt_stdio_output@@@2@@__crt_stdio_output@@AEAAXII_N@Z 000000018005fe50 f i libucrtd:output.obj
 0001:0005ef90       ??$type_case_integer_parse_into_buffer@_K@?$output_processor@DV?$stream_output_adapter@D@__crt_stdio_output@@V?$format_validation_base@DV?$stream_output_adapter@D@__crt_stdio_output@@@2@@__crt_stdio_output@@AEAAX_KI_N@Z 000000018005ff90 f i libucrtd:output.obj
 0001:0005f0e0       ??$type_case_integer_parse_into_buffer@_K@?$output_processor@DV?$stream_output_adapter@D@__crt_stdio_output@@V?$positional_parameter_base@DV?$stream_output_adapter@D@__crt_stdio_output@@@2@@__crt_stdio_output@@AEAAX_KI_N@Z 00000001800600e0 f i libucrtd:output.obj
 0001:0005f230       ??$type_case_integer_parse_into_buffer@_K@?$output_processor@DV?$stream_output_adapter@D@__crt_stdio_output@@V?$standard_base@DV?$stream_output_adapter@D@__crt_stdio_output@@@2@@__crt_stdio_output@@AEAAX_KI_N@Z 0000000180060230 f i libucrtd:output.obj
 0001:0005f380       ??$type_case_integer_parse_into_buffer@_K@?$output_processor@DV?$string_output_adapter@D@__crt_stdio_output@@V?$format_validation_base@DV?$string_output_adapter@D@__crt_stdio_output@@@2@@__crt_stdio_output@@AEAAX_KI_N@Z 0000000180060380 f i libucrtd:output.obj
 0001:0005f4d0       ??$type_case_integer_parse_into_buffer@_K@?$output_processor@DV?$string_output_adapter@D@__crt_stdio_output@@V?$positional_parameter_base@DV?$string_output_adapter@D@__crt_stdio_output@@@2@@__crt_stdio_output@@AEAAX_KI_N@Z 00000001800604d0 f i libucrtd:output.obj
 0001:0005f620       ??$type_case_integer_parse_into_buffer@_K@?$output_processor@DV?$string_output_adapter@D@__crt_stdio_output@@V?$standard_base@DV?$string_output_adapter@D@__crt_stdio_output@@@2@@__crt_stdio_output@@AEAAX_KI_N@Z 0000000180060620 f i libucrtd:output.obj
 0001:0005f770       ??$type_case_integer_parse_into_buffer@_K@?$output_processor@_WV?$stream_output_adapter@_W@__crt_stdio_output@@V?$format_validation_base@_WV?$stream_output_adapter@_W@__crt_stdio_output@@@2@@__crt_stdio_output@@AEAAX_KI_N@Z 0000000180060770 f i libucrtd:output.obj
 0001:0005f8d0       ??$type_case_integer_parse_into_buffer@_K@?$output_processor@_WV?$stream_output_adapter@_W@__crt_stdio_output@@V?$positional_parameter_base@_WV?$stream_output_adapter@_W@__crt_stdio_output@@@2@@__crt_stdio_output@@AEAAX_KI_N@Z 00000001800608d0 f i libucrtd:output.obj
 0001:0005fa30       ??$type_case_integer_parse_into_buffer@_K@?$output_processor@_WV?$stream_output_adapter@_W@__crt_stdio_output@@V?$standard_base@_WV?$stream_output_adapter@_W@__crt_stdio_output@@@2@@__crt_stdio_output@@AEAAX_KI_N@Z 0000000180060a30 f i libucrtd:output.obj
 0001:0005fb90       ??$type_case_integer_parse_into_buffer@_K@?$output_processor@_WV?$string_output_adapter@_W@__crt_stdio_output@@V?$format_validation_base@_WV?$string_output_adapter@_W@__crt_stdio_output@@@2@@__crt_stdio_output@@AEAAX_KI_N@Z 0000000180060b90 f i libucrtd:output.obj
 0001:0005fcf0       ??$type_case_integer_parse_into_buffer@_K@?$output_processor@_WV?$string_output_adapter@_W@__crt_stdio_output@@V?$positional_parameter_base@_WV?$string_output_adapter@_W@__crt_stdio_output@@@2@@__crt_stdio_output@@AEAAX_KI_N@Z 0000000180060cf0 f i libucrtd:output.obj
 0001:0005fe50       ??$type_case_integer_parse_into_buffer@_K@?$output_processor@_WV?$string_output_adapter@_W@__crt_stdio_output@@V?$standard_base@_WV?$string_output_adapter@_W@__crt_stdio_output@@@2@@__crt_stdio_output@@AEAAX_KI_N@Z 0000000180060e50 f i libucrtd:output.obj
 0001:0005ffb0       ??$write_multiple_characters@V?$stream_output_adapter@D@__crt_stdio_output@@D@__crt_stdio_output@@YAXAEBV?$stream_output_adapter@D@0@DHQEAH@Z 0000000180060fb0 f i libucrtd:output.obj
 0001:00060010       ??$write_multiple_characters@V?$stream_output_adapter@_W@__crt_stdio_output@@D@__crt_stdio_output@@YAXAEBV?$stream_output_adapter@_W@0@DHQEAH@Z 0000000180061010 f i libucrtd:output.obj
 0001:00060070       ??$write_multiple_characters@V?$string_output_adapter@D@__crt_stdio_output@@D@__crt_stdio_output@@YAXAEBV?$string_output_adapter@D@0@DHQEAH@Z 0000000180061070 f i libucrtd:output.obj
 0001:000600d0       ??$write_multiple_characters@V?$string_output_adapter@_W@__crt_stdio_output@@D@__crt_stdio_output@@YAXAEBV?$string_output_adapter@_W@0@DHQEAH@Z 00000001800610d0 f i libucrtd:output.obj
 0001:000604f0       ??0?$common_data@D@__crt_stdio_output@@IEAA@XZ 00000001800614f0 f i libucrtd:output.obj
 0001:000605c0       ??0?$common_data@_W@__crt_stdio_output@@IEAA@XZ 00000001800615c0 f i libucrtd:output.obj
 0001:00060690       ??0?$output_adapter_data@DV?$stream_output_adapter@D@__crt_stdio_output@@@__crt_stdio_output@@IEAA@AEBV?$stream_output_adapter@D@1@_KQEBDQEAU__crt_locale_pointers@@QEAD@Z 0000000180061690 f i libucrtd:output.obj
 0001:00060710       ??0?$output_adapter_data@DV?$string_output_adapter@D@__crt_stdio_output@@@__crt_stdio_output@@IEAA@AEBV?$string_output_adapter@D@1@_KQEBDQEAU__crt_locale_pointers@@QEAD@Z 0000000180061710 f i libucrtd:output.obj
 0001:00060790       ??0?$output_adapter_data@_WV?$stream_output_adapter@_W@__crt_stdio_output@@@__crt_stdio_output@@IEAA@AEBV?$stream_output_adapter@_W@1@_KQEB_WQEAU__crt_locale_pointers@@QEAD@Z 0000000180061790 f i libucrtd:output.obj
 0001:00060810       ??0?$output_adapter_data@_WV?$string_output_adapter@_W@__crt_stdio_output@@@__crt_stdio_output@@IEAA@AEBV?$string_output_adapter@_W@1@_KQEB_WQEAU__crt_locale_pointers@@QEAD@Z 0000000180061810 f i libucrtd:output.obj
 0001:00060890       ??0?$output_processor@DV?$stream_output_adapter@D@__crt_stdio_output@@V?$format_validation_base@DV?$stream_output_adapter@D@__crt_stdio_output@@@2@@__crt_stdio_output@@QEAA@AEBV?$stream_output_adapter@D@1@_KQEBDQEAU__crt_locale_pointers@@QEAD@Z 0000000180061890 f i libucrtd:output.obj
 0001:000608e0       ??0?$output_processor@DV?$stream_output_adapter@D@__crt_stdio_output@@V?$positional_parameter_base@DV?$stream_output_adapter@D@__crt_stdio_output@@@2@@__crt_stdio_output@@QEAA@AEBV?$stream_output_adapter@D@1@_KQEBDQEAU__crt_locale_pointers@@QEAD@Z 00000001800618e0 f i libucrtd:output.obj
 0001:00060930       ??0?$output_processor@DV?$stream_output_adapter@D@__crt_stdio_output@@V?$standard_base@DV?$stream_output_adapter@D@__crt_stdio_output@@@2@@__crt_stdio_output@@QEAA@AEBV?$stream_output_adapter@D@1@_KQEBDQEAU__crt_locale_pointers@@QEAD@Z 0000000180061930 f i libucrtd:output.obj
 0001:00060980       ??0?$output_processor@DV?$string_output_adapter@D@__crt_stdio_output@@V?$format_validation_base@DV?$string_output_adapter@D@__crt_stdio_output@@@2@@__crt_stdio_output@@QEAA@AEBV?$string_output_adapter@D@1@_KQEBDQEAU__crt_locale_pointers@@QEAD@Z 0000000180061980 f i libucrtd:output.obj
 0001:000609d0       ??0?$output_processor@DV?$string_output_adapter@D@__crt_stdio_output@@V?$positional_parameter_base@DV?$string_output_adapter@D@__crt_stdio_output@@@2@@__crt_stdio_output@@QEAA@AEBV?$string_output_adapter@D@1@_KQEBDQEAU__crt_locale_pointers@@QEAD@Z 00000001800619d0 f i libucrtd:output.obj
 0001:00060a20       ??0?$output_processor@DV?$string_output_adapter@D@__crt_stdio_output@@V?$standard_base@DV?$string_output_adapter@D@__crt_stdio_output@@@2@@__crt_stdio_output@@QEAA@AEBV?$string_output_adapter@D@1@_KQEBDQEAU__crt_locale_pointers@@QEAD@Z 0000000180061a20 f i libucrtd:output.obj
 0001:00060a70       ??0?$output_processor@_WV?$stream_output_adapter@_W@__crt_stdio_output@@V?$format_validation_base@_WV?$stream_output_adapter@_W@__crt_stdio_output@@@2@@__crt_stdio_output@@QEAA@AEBV?$stream_output_adapter@_W@1@_KQEB_WQEAU__crt_locale_pointers@@QEAD@Z 0000000180061a70 f i libucrtd:output.obj
 0001:00060ac0       ??0?$output_processor@_WV?$stream_output_adapter@_W@__crt_stdio_output@@V?$positional_parameter_base@_WV?$stream_output_adapter@_W@__crt_stdio_output@@@2@@__crt_stdio_output@@QEAA@AEBV?$stream_output_adapter@_W@1@_KQEB_WQEAU__crt_locale_pointers@@QEAD@Z 0000000180061ac0 f i libucrtd:output.obj
 0001:00060b10       ??0?$output_processor@_WV?$stream_output_adapter@_W@__crt_stdio_output@@V?$standard_base@_WV?$stream_output_adapter@_W@__crt_stdio_output@@@2@@__crt_stdio_output@@QEAA@AEBV?$stream_output_adapter@_W@1@_KQEB_WQEAU__crt_locale_pointers@@QEAD@Z 0000000180061b10 f i libucrtd:output.obj
 0001:00060b60       ??0?$output_processor@_WV?$string_output_adapter@_W@__crt_stdio_output@@V?$format_validation_base@_WV?$string_output_adapter@_W@__crt_stdio_output@@@2@@__crt_stdio_output@@QEAA@AEBV?$string_output_adapter@_W@1@_KQEB_WQEAU__crt_locale_pointers@@QEAD@Z 0000000180061b60 f i libucrtd:output.obj
 0001:00060bb0       ??0?$output_processor@_WV?$string_output_adapter@_W@__crt_stdio_output@@V?$positional_parameter_base@_WV?$string_output_adapter@_W@__crt_stdio_output@@@2@@__crt_stdio_output@@QEAA@AEBV?$string_output_adapter@_W@1@_KQEB_WQEAU__crt_locale_pointers@@QEAD@Z 0000000180061bb0 f i libucrtd:output.obj
 0001:00060c00       ??0?$output_processor@_WV?$string_output_adapter@_W@__crt_stdio_output@@V?$standard_base@_WV?$string_output_adapter@_W@__crt_stdio_output@@@2@@__crt_stdio_output@@QEAA@AEBV?$string_output_adapter@_W@1@_KQEB_WQEAU__crt_locale_pointers@@QEAD@Z 0000000180061c00 f i libucrtd:output.obj
 0001:00060c50       ??0?$stream_output_adapter@D@__crt_stdio_output@@QEAA@QEAU_iobuf@@@Z 0000000180061c50 f i libucrtd:output.obj
 0001:00060c80       ??0?$stream_output_adapter@_W@__crt_stdio_output@@QEAA@QEAU_iobuf@@@Z 0000000180061c80 f i libucrtd:output.obj
 0001:00060cb0       ??0?$string_output_adapter@D@__crt_stdio_output@@QEAA@QEAU?$string_output_adapter_context@D@1@@Z 0000000180061cb0 f i libucrtd:output.obj
 0001:00060cd0       ??0?$string_output_adapter@_W@__crt_stdio_output@@QEAA@QEAU?$string_output_adapter_context@_W@1@@Z 0000000180061cd0 f i libucrtd:output.obj
 0001:00060cf0       ??0_LocaleUpdate@@QEAA@QEAU__crt_locale_pointers@@@Z 0000000180061cf0 f i libucrtd:output.obj
 0001:00060e10       ??0__acrt_stdio_temporary_buffering_guard@@QEAA@QEAU_iobuf@@@Z 0000000180061e10 f i libucrtd:output.obj
 0001:00060e50       ??0__crt_deferred_errno_cache@@QEAA@XZ 0000000180061e50 f i libucrtd:output.obj
 0001:00060e70       ??0__crt_errno_guard@@QEAA@QEAH@Z 0000000180061e70 f i libucrtd:output.obj
 0001:00060eb0       ??0__crt_stdio_stream@@QEAA@QEAU_iobuf@@@Z 0000000180061eb0 f i libucrtd:output.obj
 0001:00060ed0       ??0formatting_buffer@__crt_stdio_output@@QEAA@XZ 0000000180061ed0 f i libucrtd:output.obj
 0001:00060f10       ??1?$common_data@D@__crt_stdio_output@@QEAA@XZ 0000000180061f10 f i libucrtd:output.obj
 0001:00060f30       ??1?$common_data@_W@__crt_stdio_output@@QEAA@XZ 0000000180061f30 f i libucrtd:output.obj
 0001:00060f50       ??1?$format_validation_base@DV?$stream_output_adapter@D@__crt_stdio_output@@@__crt_stdio_output@@QEAA@XZ 0000000180061f50 f i libucrtd:output.obj
 0001:00060f70       ??1?$format_validation_base@DV?$string_output_adapter@D@__crt_stdio_output@@@__crt_stdio_output@@QEAA@XZ 0000000180061f70 f i libucrtd:output.obj
 0001:00060f90       ??1?$format_validation_base@_WV?$stream_output_adapter@_W@__crt_stdio_output@@@__crt_stdio_output@@QEAA@XZ 0000000180061f90 f i libucrtd:output.obj
 0001:00060fb0       ??1?$format_validation_base@_WV?$string_output_adapter@_W@__crt_stdio_output@@@__crt_stdio_output@@QEAA@XZ 0000000180061fb0 f i libucrtd:output.obj
 0001:00060fd0       ??1?$output_adapter_data@DV?$stream_output_adapter@D@__crt_stdio_output@@@__crt_stdio_output@@QEAA@XZ 0000000180061fd0 f i libucrtd:output.obj
 0001:00060ff0       ??1?$output_adapter_data@DV?$string_output_adapter@D@__crt_stdio_output@@@__crt_stdio_output@@QEAA@XZ 0000000180061ff0 f i libucrtd:output.obj
 0001:00061010       ??1?$output_adapter_data@_WV?$stream_output_adapter@_W@__crt_stdio_output@@@__crt_stdio_output@@QEAA@XZ 0000000180062010 f i libucrtd:output.obj
 0001:00061030       ??1?$output_adapter_data@_WV?$string_output_adapter@_W@__crt_stdio_output@@@__crt_stdio_output@@QEAA@XZ 0000000180062030 f i libucrtd:output.obj
 0001:00061050       ??1?$output_processor@DV?$stream_output_adapter@D@__crt_stdio_output@@V?$format_validation_base@DV?$stream_output_adapter@D@__crt_stdio_output@@@2@@__crt_stdio_output@@QEAA@XZ 0000000180062050 f i libucrtd:output.obj
 0001:00061070       ??1?$output_processor@DV?$stream_output_adapter@D@__crt_stdio_output@@V?$positional_parameter_base@DV?$stream_output_adapter@D@__crt_stdio_output@@@2@@__crt_stdio_output@@QEAA@XZ 0000000180062070 f i libucrtd:output.obj
 0001:00061090       ??1?$output_processor@DV?$stream_output_adapter@D@__crt_stdio_output@@V?$standard_base@DV?$stream_output_adapter@D@__crt_stdio_output@@@2@@__crt_stdio_output@@QEAA@XZ 0000000180062090 f i libucrtd:output.obj
 0001:000610b0       ??1?$output_processor@DV?$string_output_adapter@D@__crt_stdio_output@@V?$format_validation_base@DV?$string_output_adapter@D@__crt_stdio_output@@@2@@__crt_stdio_output@@QEAA@XZ 00000001800620b0 f i libucrtd:output.obj
 0001:000610d0       ??1?$output_processor@DV?$string_output_adapter@D@__crt_stdio_output@@V?$positional_parameter_base@DV?$string_output_adapter@D@__crt_stdio_output@@@2@@__crt_stdio_output@@QEAA@XZ 00000001800620d0 f i libucrtd:output.obj
 0001:000610f0       ??1?$output_processor@DV?$string_output_adapter@D@__crt_stdio_output@@V?$standard_base@DV?$string_output_adapter@D@__crt_stdio_output@@@2@@__crt_stdio_output@@QEAA@XZ 00000001800620f0 f i libucrtd:output.obj
 0001:00061110       ??1?$output_processor@_WV?$stream_output_adapter@_W@__crt_stdio_output@@V?$format_validation_base@_WV?$stream_output_adapter@_W@__crt_stdio_output@@@2@@__crt_stdio_output@@QEAA@XZ 0000000180062110 f i libucrtd:output.obj
 0001:00061130       ??1?$output_processor@_WV?$stream_output_adapter@_W@__crt_stdio_output@@V?$positional_parameter_base@_WV?$stream_output_adapter@_W@__crt_stdio_output@@@2@@__crt_stdio_output@@QEAA@XZ 0000000180062130 f i libucrtd:output.obj
 0001:00061150       ??1?$output_processor@_WV?$stream_output_adapter@_W@__crt_stdio_output@@V?$standard_base@_WV?$stream_output_adapter@_W@__crt_stdio_output@@@2@@__crt_stdio_output@@QEAA@XZ 0000000180062150 f i libucrtd:output.obj
 0001:00061170       ??1?$output_processor@_WV?$string_output_adapter@_W@__crt_stdio_output@@V?$format_validation_base@_WV?$string_output_adapter@_W@__crt_stdio_output@@@2@@__crt_stdio_output@@QEAA@XZ 0000000180062170 f i libucrtd:output.obj
 0001:00061190       ??1?$output_processor@_WV?$string_output_adapter@_W@__crt_stdio_output@@V?$positional_parameter_base@_WV?$string_output_adapter@_W@__crt_stdio_output@@@2@@__crt_stdio_output@@QEAA@XZ 0000000180062190 f i libucrtd:output.obj
 0001:000611b0       ??1?$output_processor@_WV?$string_output_adapter@_W@__crt_stdio_output@@V?$standard_base@_WV?$string_output_adapter@_W@__crt_stdio_output@@@2@@__crt_stdio_output@@QEAA@XZ 00000001800621b0 f i libucrtd:output.obj
 0001:000611d0       ??1?$positional_parameter_base@DV?$stream_output_adapter@D@__crt_stdio_output@@@__crt_stdio_output@@QEAA@XZ 00000001800621d0 f i libucrtd:output.obj
 0001:000611f0       ??1?$positional_parameter_base@DV?$string_output_adapter@D@__crt_stdio_output@@@__crt_stdio_output@@QEAA@XZ 00000001800621f0 f i libucrtd:output.obj
 0001:00061210       ??1?$positional_parameter_base@_WV?$stream_output_adapter@_W@__crt_stdio_output@@@__crt_stdio_output@@QEAA@XZ 0000000180062210 f i libucrtd:output.obj
 0001:00061230       ??1?$positional_parameter_base@_WV?$string_output_adapter@_W@__crt_stdio_output@@@__crt_stdio_output@@QEAA@XZ 0000000180062230 f i libucrtd:output.obj
 0001:00061250       ??1?$standard_base@DV?$stream_output_adapter@D@__crt_stdio_output@@@__crt_stdio_output@@QEAA@XZ 0000000180062250 f i libucrtd:output.obj
 0001:00061270       ??1?$standard_base@DV?$string_output_adapter@D@__crt_stdio_output@@@__crt_stdio_output@@QEAA@XZ 0000000180062270 f i libucrtd:output.obj
 0001:00061290       ??1?$standard_base@_WV?$stream_output_adapter@_W@__crt_stdio_output@@@__crt_stdio_output@@QEAA@XZ 0000000180062290 f i libucrtd:output.obj
 0001:000612b0       ??1?$standard_base@_WV?$string_output_adapter@_W@__crt_stdio_output@@@__crt_stdio_output@@QEAA@XZ 00000001800622b0 f i libucrtd:output.obj
 0001:000612d0       ??1_LocaleUpdate@@QEAA@XZ  00000001800622d0 f i libucrtd:output.obj
 0001:00061300       ??1__acrt_stdio_temporary_buffering_guard@@QEAA@XZ 0000000180062300 f i libucrtd:output.obj
 0001:00061330       ??1__crt_errno_guard@@QEAA@XZ 0000000180062330 f i libucrtd:output.obj
 0001:00061360       ??1formatting_buffer@__crt_stdio_output@@QEAA@XZ 0000000180062360 f i libucrtd:output.obj
 0001:00061390       ??4?$__crt_unique_heap_ptr@DU__crt_internal_free_policy@@@@QEAAAEAV0@$$QEAV0@@Z 0000000180062390 f i libucrtd:output.obj
 0001:000613d0       ??A?$spectre_mitigated_lookup_table@Ustate_transition_pair@__crt_stdio_output@@$0IA@@__crt_stdio_output@@QEBAAEBUstate_transition_pair@1@_K@Z 00000001800623d0 f i libucrtd:output.obj
 0001:000613f0       ??C__crt_stdio_stream@@QEBAPEAU__crt_stdio_stream_data@@XZ 00000001800623f0 f i libucrtd:output.obj
 0001:00061ca0       ?GetLocaleT@_LocaleUpdate@@QEAAPEAU__crt_locale_pointers@@XZ 0000000180062ca0 f i libucrtd:output.obj
 0001:00061cb0       ?__crt_interlocked_read_32@@YAHPEDH@Z 0000000180062cb0 f i libucrtd:output.obj
 0001:00061cd0       ?adjust_hexit@?$output_processor@DV?$stream_output_adapter@D@__crt_stdio_output@@V?$format_validation_base@DV?$stream_output_adapter@D@__crt_stdio_output@@@2@@__crt_stdio_output@@CADH_N@Z 0000000180062cd0 f i libucrtd:output.obj
 0001:00061d20       ?adjust_hexit@?$output_processor@DV?$stream_output_adapter@D@__crt_stdio_output@@V?$positional_parameter_base@DV?$stream_output_adapter@D@__crt_stdio_output@@@2@@__crt_stdio_output@@CADH_N@Z 0000000180062d20 f i libucrtd:output.obj
 0001:00061d70       ?adjust_hexit@?$output_processor@DV?$stream_output_adapter@D@__crt_stdio_output@@V?$standard_base@DV?$stream_output_adapter@D@__crt_stdio_output@@@2@@__crt_stdio_output@@CADH_N@Z 0000000180062d70 f i libucrtd:output.obj
 0001:00061dc0       ?adjust_hexit@?$output_processor@DV?$string_output_adapter@D@__crt_stdio_output@@V?$format_validation_base@DV?$string_output_adapter@D@__crt_stdio_output@@@2@@__crt_stdio_output@@CADH_N@Z 0000000180062dc0 f i libucrtd:output.obj
 0001:00061e10       ?adjust_hexit@?$output_processor@DV?$string_output_adapter@D@__crt_stdio_output@@V?$positional_parameter_base@DV?$string_output_adapter@D@__crt_stdio_output@@@2@@__crt_stdio_output@@CADH_N@Z 0000000180062e10 f i libucrtd:output.obj
 0001:00061e60       ?adjust_hexit@?$output_processor@DV?$string_output_adapter@D@__crt_stdio_output@@V?$standard_base@DV?$string_output_adapter@D@__crt_stdio_output@@@2@@__crt_stdio_output@@CADH_N@Z 0000000180062e60 f i libucrtd:output.obj
 0001:00061eb0       ?adjust_hexit@?$output_processor@_WV?$stream_output_adapter@_W@__crt_stdio_output@@V?$format_validation_base@_WV?$stream_output_adapter@_W@__crt_stdio_output@@@2@@__crt_stdio_output@@CADH_N@Z 0000000180062eb0 f i libucrtd:output.obj
 0001:00061f00       ?adjust_hexit@?$output_processor@_WV?$stream_output_adapter@_W@__crt_stdio_output@@V?$positional_parameter_base@_WV?$stream_output_adapter@_W@__crt_stdio_output@@@2@@__crt_stdio_output@@CADH_N@Z 0000000180062f00 f i libucrtd:output.obj
 0001:00061f50       ?adjust_hexit@?$output_processor@_WV?$stream_output_adapter@_W@__crt_stdio_output@@V?$standard_base@_WV?$stream_output_adapter@_W@__crt_stdio_output@@@2@@__crt_stdio_output@@CADH_N@Z 0000000180062f50 f i libucrtd:output.obj
 0001:00061fa0       ?adjust_hexit@?$output_processor@_WV?$string_output_adapter@_W@__crt_stdio_output@@V?$format_validation_base@_WV?$string_output_adapter@_W@__crt_stdio_output@@@2@@__crt_stdio_output@@CADH_N@Z 0000000180062fa0 f i libucrtd:output.obj
 0001:00061ff0       ?adjust_hexit@?$output_processor@_WV?$string_output_adapter@_W@__crt_stdio_output@@V?$positional_parameter_base@_WV?$string_output_adapter@_W@__crt_stdio_output@@@2@@__crt_stdio_output@@CADH_N@Z 0000000180062ff0 f i libucrtd:output.obj
 0001:00062040       ?adjust_hexit@?$output_processor@_WV?$string_output_adapter@_W@__crt_stdio_output@@V?$standard_base@_WV?$string_output_adapter@_W@__crt_stdio_output@@@2@@__crt_stdio_output@@CADH_N@Z 0000000180063040 f i libucrtd:output.obj
 0001:00062090       ?advance_to_next_pass@?$positional_parameter_base@DV?$stream_output_adapter@D@__crt_stdio_output@@@__crt_stdio_output@@IEAA_NXZ 0000000180063090 f i libucrtd:output.obj
 0001:00062140       ?advance_to_next_pass@?$positional_parameter_base@DV?$string_output_adapter@D@__crt_stdio_output@@@__crt_stdio_output@@IEAA_NXZ 0000000180063140 f i libucrtd:output.obj
 0001:000621f0       ?advance_to_next_pass@?$positional_parameter_base@_WV?$stream_output_adapter@_W@__crt_stdio_output@@@__crt_stdio_output@@IEAA_NXZ 00000001800631f0 f i libucrtd:output.obj
 0001:000622a0       ?advance_to_next_pass@?$positional_parameter_base@_WV?$string_output_adapter@_W@__crt_stdio_output@@@__crt_stdio_output@@IEAA_NXZ 00000001800632a0 f i libucrtd:output.obj
 0001:00062350       ?advance_to_next_pass@?$standard_base@DV?$stream_output_adapter@D@__crt_stdio_output@@@__crt_stdio_output@@IEAA_NXZ 0000000180063350 f i libucrtd:output.obj
 0001:000623a0       ?advance_to_next_pass@?$standard_base@DV?$string_output_adapter@D@__crt_stdio_output@@@__crt_stdio_output@@IEAA_NXZ 00000001800633a0 f i libucrtd:output.obj
 0001:000623f0       ?advance_to_next_pass@?$standard_base@_WV?$stream_output_adapter@_W@__crt_stdio_output@@@__crt_stdio_output@@IEAA_NXZ 00000001800633f0 f i libucrtd:output.obj
 0001:00062440       ?advance_to_next_pass@?$standard_base@_WV?$string_output_adapter@_W@__crt_stdio_output@@@__crt_stdio_output@@IEAA_NXZ 0000000180063440 f i libucrtd:output.obj
 0001:00062490       ?crop_zeroes@__crt_stdio_output@@YAXPEADQEAU__crt_locale_pointers@@@Z 0000000180063490 f i libucrtd:output.obj
 0001:000625d0       ?find_next_state@?$output_processor@DV?$stream_output_adapter@D@__crt_stdio_output@@V?$format_validation_base@DV?$stream_output_adapter@D@__crt_stdio_output@@@2@@__crt_stdio_output@@AEBA?AW4state@2@DW432@@Z 00000001800635d0 f i libucrtd:output.obj
 0001:00062660       ?find_next_state@?$output_processor@DV?$stream_output_adapter@D@__crt_stdio_output@@V?$positional_parameter_base@DV?$stream_output_adapter@D@__crt_stdio_output@@@2@@__crt_stdio_output@@AEBA?AW4state@2@DW432@@Z 0000000180063660 f i libucrtd:output.obj
 0001:000626f0       ?find_next_state@?$output_processor@DV?$stream_output_adapter@D@__crt_stdio_output@@V?$standard_base@DV?$stream_output_adapter@D@__crt_stdio_output@@@2@@__crt_stdio_output@@AEBA?AW4state@2@DW432@@Z 00000001800636f0 f i libucrtd:output.obj
 0001:00062780       ?find_next_state@?$output_processor@DV?$string_output_adapter@D@__crt_stdio_output@@V?$format_validation_base@DV?$string_output_adapter@D@__crt_stdio_output@@@2@@__crt_stdio_output@@AEBA?AW4state@2@DW432@@Z 0000000180063780 f i libucrtd:output.obj
 0001:00062810       ?find_next_state@?$output_processor@DV?$string_output_adapter@D@__crt_stdio_output@@V?$positional_parameter_base@DV?$string_output_adapter@D@__crt_stdio_output@@@2@@__crt_stdio_output@@AEBA?AW4state@2@DW432@@Z 0000000180063810 f i libucrtd:output.obj
 0001:000628a0       ?find_next_state@?$output_processor@DV?$string_output_adapter@D@__crt_stdio_output@@V?$standard_base@DV?$string_output_adapter@D@__crt_stdio_output@@@2@@__crt_stdio_output@@AEBA?AW4state@2@DW432@@Z 00000001800638a0 f i libucrtd:output.obj
 0001:00062930       ?find_next_state@?$output_processor@_WV?$stream_output_adapter@_W@__crt_stdio_output@@V?$format_validation_base@_WV?$stream_output_adapter@_W@__crt_stdio_output@@@2@@__crt_stdio_output@@AEBA?AW4state@2@_WW432@@Z 0000000180063930 f i libucrtd:output.obj
 0001:000629c0       ?find_next_state@?$output_processor@_WV?$stream_output_adapter@_W@__crt_stdio_output@@V?$positional_parameter_base@_WV?$stream_output_adapter@_W@__crt_stdio_output@@@2@@__crt_stdio_output@@AEBA?AW4state@2@_WW432@@Z 00000001800639c0 f i libucrtd:output.obj
 0001:00062a50       ?find_next_state@?$output_processor@_WV?$stream_output_adapter@_W@__crt_stdio_output@@V?$standard_base@_WV?$stream_output_adapter@_W@__crt_stdio_output@@@2@@__crt_stdio_output@@AEBA?AW4state@2@_WW432@@Z 0000000180063a50 f i libucrtd:output.obj
 0001:00062ae0       ?find_next_state@?$output_processor@_WV?$string_output_adapter@_W@__crt_stdio_output@@V?$format_validation_base@_WV?$string_output_adapter@_W@__crt_stdio_output@@@2@@__crt_stdio_output@@AEBA?AW4state@2@_WW432@@Z 0000000180063ae0 f i libucrtd:output.obj
 0001:00062b70       ?find_next_state@?$output_processor@_WV?$string_output_adapter@_W@__crt_stdio_output@@V?$positional_parameter_base@_WV?$string_output_adapter@_W@__crt_stdio_output@@@2@@__crt_stdio_output@@AEBA?AW4state@2@_WW432@@Z 0000000180063b70 f i libucrtd:output.obj
 0001:00062c00       ?find_next_state@?$output_processor@_WV?$string_output_adapter@_W@__crt_stdio_output@@V?$standard_base@_WV?$string_output_adapter@_W@__crt_stdio_output@@@2@@__crt_stdio_output@@AEBA?AW4state@2@_WW432@@Z 0000000180063c00 f i libucrtd:output.obj
 0001:00062c90       ?force_decimal_point@__crt_stdio_output@@YAXPEADQEAU__crt_locale_pointers@@@Z 0000000180063c90 f i libucrtd:output.obj
 0001:00062d90       ?get@__crt_deferred_errno_cache@@QEAAAEAHXZ 0000000180063d90 f i libucrtd:output.obj
 0001:00062dc0       ?get_flags@__crt_stdio_stream@@QEBAJXZ 0000000180063dc0 f i libucrtd:output.obj
 0001:00062df0       ?get_parameter_type@?$positional_parameter_base@DV?$stream_output_adapter@D@__crt_stdio_output@@@__crt_stdio_output@@CA?AW4parameter_type@12@F@Z 0000000180063df0 f i libucrtd:output.obj
 0001:00062e00       ?get_parameter_type@?$positional_parameter_base@DV?$stream_output_adapter@D@__crt_stdio_output@@@__crt_stdio_output@@CA?AW4parameter_type@12@G@Z 0000000180063e00 f i libucrtd:output.obj
 0001:00062e10       ?get_parameter_type@?$positional_parameter_base@DV?$stream_output_adapter@D@__crt_stdio_output@@@__crt_stdio_output@@CA?AW4parameter_type@12@H@Z 0000000180063e10 f i libucrtd:output.obj
 0001:00062e20       ?get_parameter_type@?$positional_parameter_base@DV?$stream_output_adapter@D@__crt_stdio_output@@@__crt_stdio_output@@CA?AW4parameter_type@12@I@Z 0000000180063e20 f i libucrtd:output.obj
 0001:00062e30       ?get_parameter_type@?$positional_parameter_base@DV?$stream_output_adapter@D@__crt_stdio_output@@@__crt_stdio_output@@CA?AW4parameter_type@12@U_CRT_DOUBLE@@@Z 0000000180063e30 f i libucrtd:output.obj
 0001:00062e40       ?get_parameter_type@?$positional_parameter_base@DV?$stream_output_adapter@D@__crt_stdio_output@@@__crt_stdio_output@@CA?AW4parameter_type@12@_J@Z 0000000180063e40 f i libucrtd:output.obj
 0001:00062e50       ?get_parameter_type@?$positional_parameter_base@DV?$stream_output_adapter@D@__crt_stdio_output@@@__crt_stdio_output@@CA?AW4parameter_type@12@_K@Z 0000000180063e50 f i libucrtd:output.obj
 0001:00062e60       ?get_parameter_type@?$positional_parameter_base@DV?$stream_output_adapter@D@__crt_stdio_output@@@__crt_stdio_output@@CA?AW4parameter_type@12@_W@Z 0000000180063e60 f i libucrtd:output.obj
 0001:00062e70       ?get_parameter_type@?$positional_parameter_base@DV?$string_output_adapter@D@__crt_stdio_output@@@__crt_stdio_output@@CA?AW4parameter_type@12@F@Z 0000000180063e70 f i libucrtd:output.obj
 0001:00062e80       ?get_parameter_type@?$positional_parameter_base@DV?$string_output_adapter@D@__crt_stdio_output@@@__crt_stdio_output@@CA?AW4parameter_type@12@G@Z 0000000180063e80 f i libucrtd:output.obj
 0001:00062e90       ?get_parameter_type@?$positional_parameter_base@DV?$string_output_adapter@D@__crt_stdio_output@@@__crt_stdio_output@@CA?AW4parameter_type@12@H@Z 0000000180063e90 f i libucrtd:output.obj
 0001:00062ea0       ?get_parameter_type@?$positional_parameter_base@DV?$string_output_adapter@D@__crt_stdio_output@@@__crt_stdio_output@@CA?AW4parameter_type@12@I@Z 0000000180063ea0 f i libucrtd:output.obj
 0001:00062eb0       ?get_parameter_type@?$positional_parameter_base@DV?$string_output_adapter@D@__crt_stdio_output@@@__crt_stdio_output@@CA?AW4parameter_type@12@U_CRT_DOUBLE@@@Z 0000000180063eb0 f i libucrtd:output.obj
 0001:00062ec0       ?get_parameter_type@?$positional_parameter_base@DV?$string_output_adapter@D@__crt_stdio_output@@@__crt_stdio_output@@CA?AW4parameter_type@12@_J@Z 0000000180063ec0 f i libucrtd:output.obj
 0001:00062ed0       ?get_parameter_type@?$positional_parameter_base@DV?$string_output_adapter@D@__crt_stdio_output@@@__crt_stdio_output@@CA?AW4parameter_type@12@_K@Z 0000000180063ed0 f i libucrtd:output.obj
 0001:00062ee0       ?get_parameter_type@?$positional_parameter_base@DV?$string_output_adapter@D@__crt_stdio_output@@@__crt_stdio_output@@CA?AW4parameter_type@12@_W@Z 0000000180063ee0 f i libucrtd:output.obj
 0001:00062ef0       ?get_parameter_type@?$positional_parameter_base@_WV?$stream_output_adapter@_W@__crt_stdio_output@@@__crt_stdio_output@@CA?AW4parameter_type@12@F@Z 0000000180063ef0 f i libucrtd:output.obj
 0001:00062f00       ?get_parameter_type@?$positional_parameter_base@_WV?$stream_output_adapter@_W@__crt_stdio_output@@@__crt_stdio_output@@CA?AW4parameter_type@12@G@Z 0000000180063f00 f i libucrtd:output.obj
 0001:00062f10       ?get_parameter_type@?$positional_parameter_base@_WV?$stream_output_adapter@_W@__crt_stdio_output@@@__crt_stdio_output@@CA?AW4parameter_type@12@H@Z 0000000180063f10 f i libucrtd:output.obj
 0001:00062f20       ?get_parameter_type@?$positional_parameter_base@_WV?$stream_output_adapter@_W@__crt_stdio_output@@@__crt_stdio_output@@CA?AW4parameter_type@12@I@Z 0000000180063f20 f i libucrtd:output.obj
 0001:00062f30       ?get_parameter_type@?$positional_parameter_base@_WV?$stream_output_adapter@_W@__crt_stdio_output@@@__crt_stdio_output@@CA?AW4parameter_type@12@U_CRT_DOUBLE@@@Z 0000000180063f30 f i libucrtd:output.obj
 0001:00062f40       ?get_parameter_type@?$positional_parameter_base@_WV?$stream_output_adapter@_W@__crt_stdio_output@@@__crt_stdio_output@@CA?AW4parameter_type@12@_J@Z 0000000180063f40 f i libucrtd:output.obj
 0001:00062f50       ?get_parameter_type@?$positional_parameter_base@_WV?$stream_output_adapter@_W@__crt_stdio_output@@@__crt_stdio_output@@CA?AW4parameter_type@12@_K@Z 0000000180063f50 f i libucrtd:output.obj
 0001:00062f60       ?get_parameter_type@?$positional_parameter_base@_WV?$stream_output_adapter@_W@__crt_stdio_output@@@__crt_stdio_output@@CA?AW4parameter_type@12@_W@Z 0000000180063f60 f i libucrtd:output.obj
 0001:00062f70       ?get_parameter_type@?$positional_parameter_base@_WV?$string_output_adapter@_W@__crt_stdio_output@@@__crt_stdio_output@@CA?AW4parameter_type@12@F@Z 0000000180063f70 f i libucrtd:output.obj
 0001:00062f80       ?get_parameter_type@?$positional_parameter_base@_WV?$string_output_adapter@_W@__crt_stdio_output@@@__crt_stdio_output@@CA?AW4parameter_type@12@G@Z 0000000180063f80 f i libucrtd:output.obj
 0001:00062f90       ?get_parameter_type@?$positional_parameter_base@_WV?$string_output_adapter@_W@__crt_stdio_output@@@__crt_stdio_output@@CA?AW4parameter_type@12@H@Z 0000000180063f90 f i libucrtd:output.obj
 0001:00062fa0       ?get_parameter_type@?$positional_parameter_base@_WV?$string_output_adapter@_W@__crt_stdio_output@@@__crt_stdio_output@@CA?AW4parameter_type@12@I@Z 0000000180063fa0 f i libucrtd:output.obj
 0001:00062fb0       ?get_parameter_type@?$positional_parameter_base@_WV?$string_output_adapter@_W@__crt_stdio_output@@@__crt_stdio_output@@CA?AW4parameter_type@12@U_CRT_DOUBLE@@@Z 0000000180063fb0 f i libucrtd:output.obj
 0001:00062fc0       ?get_parameter_type@?$positional_parameter_base@_WV?$string_output_adapter@_W@__crt_stdio_output@@@__crt_stdio_output@@CA?AW4parameter_type@12@_J@Z 0000000180063fc0 f i libucrtd:output.obj
 0001:00062fd0       ?get_parameter_type@?$positional_parameter_base@_WV?$string_output_adapter@_W@__crt_stdio_output@@@__crt_stdio_output@@CA?AW4parameter_type@12@_K@Z 0000000180063fd0 f i libucrtd:output.obj
 0001:00062fe0       ?get_parameter_type@?$positional_parameter_base@_WV?$string_output_adapter@_W@__crt_stdio_output@@@__crt_stdio_output@@CA?AW4parameter_type@12@_W@Z 0000000180063fe0 f i libucrtd:output.obj
 0001:00062ff0       ?has_flag@?$output_processor@DV?$stream_output_adapter@D@__crt_stdio_output@@V?$format_validation_base@DV?$stream_output_adapter@D@__crt_stdio_output@@@2@@__crt_stdio_output@@AEBA_NI@Z 0000000180063ff0 f i libucrtd:output.obj
 0001:00063030       ?has_flag@?$output_processor@DV?$stream_output_adapter@D@__crt_stdio_output@@V?$positional_parameter_base@DV?$stream_output_adapter@D@__crt_stdio_output@@@2@@__crt_stdio_output@@AEBA_NI@Z 0000000180064030 f i libucrtd:output.obj
 0001:00063070       ?has_flag@?$output_processor@DV?$stream_output_adapter@D@__crt_stdio_output@@V?$standard_base@DV?$stream_output_adapter@D@__crt_stdio_output@@@2@@__crt_stdio_output@@AEBA_NI@Z 0000000180064070 f i libucrtd:output.obj
 0001:000630b0       ?has_flag@?$output_processor@DV?$string_output_adapter@D@__crt_stdio_output@@V?$format_validation_base@DV?$string_output_adapter@D@__crt_stdio_output@@@2@@__crt_stdio_output@@AEBA_NI@Z 00000001800640b0 f i libucrtd:output.obj
 0001:000630f0       ?has_flag@?$output_processor@DV?$string_output_adapter@D@__crt_stdio_output@@V?$positional_parameter_base@DV?$string_output_adapter@D@__crt_stdio_output@@@2@@__crt_stdio_output@@AEBA_NI@Z 00000001800640f0 f i libucrtd:output.obj
 0001:00063130       ?has_flag@?$output_processor@DV?$string_output_adapter@D@__crt_stdio_output@@V?$standard_base@DV?$string_output_adapter@D@__crt_stdio_output@@@2@@__crt_stdio_output@@AEBA_NI@Z 0000000180064130 f i libucrtd:output.obj
 0001:00063170       ?has_flag@?$output_processor@_WV?$stream_output_adapter@_W@__crt_stdio_output@@V?$format_validation_base@_WV?$stream_output_adapter@_W@__crt_stdio_output@@@2@@__crt_stdio_output@@AEBA_NI@Z 0000000180064170 f i libucrtd:output.obj
 0001:000631b0       ?has_flag@?$output_processor@_WV?$stream_output_adapter@_W@__crt_stdio_output@@V?$positional_parameter_base@_WV?$stream_output_adapter@_W@__crt_stdio_output@@@2@@__crt_stdio_output@@AEBA_NI@Z 00000001800641b0 f i libucrtd:output.obj
 0001:000631f0       ?has_flag@?$output_processor@_WV?$stream_output_adapter@_W@__crt_stdio_output@@V?$standard_base@_WV?$stream_output_adapter@_W@__crt_stdio_output@@@2@@__crt_stdio_output@@AEBA_NI@Z 00000001800641f0 f i libucrtd:output.obj
 0001:00063230       ?has_flag@?$output_processor@_WV?$string_output_adapter@_W@__crt_stdio_output@@V?$format_validation_base@_WV?$string_output_adapter@_W@__crt_stdio_output@@@2@@__crt_stdio_output@@AEBA_NI@Z 0000000180064230 f i libucrtd:output.obj
 0001:00063270       ?has_flag@?$output_processor@_WV?$string_output_adapter@_W@__crt_stdio_output@@V?$positional_parameter_base@_WV?$string_output_adapter@_W@__crt_stdio_output@@@2@@__crt_stdio_output@@AEBA_NI@Z 0000000180064270 f i libucrtd:output.obj
 0001:000632b0       ?has_flag@?$output_processor@_WV?$string_output_adapter@_W@__crt_stdio_output@@V?$standard_base@_WV?$string_output_adapter@_W@__crt_stdio_output@@@2@@__crt_stdio_output@@AEBA_NI@Z 00000001800642b0 f i libucrtd:output.obj
 0001:000632f0       ?is_positional_parameter_reappearance_consistent@?$positional_parameter_base@DV?$stream_output_adapter@D@__crt_stdio_output@@@__crt_stdio_output@@AEAA_NAEBUparameter_data@12@W4parameter_type@12@DW4length_modifier@2@@Z 00000001800642f0 f i libucrtd:output.obj
 0001:00063550       ?is_positional_parameter_reappearance_consistent@?$positional_parameter_base@DV?$string_output_adapter@D@__crt_stdio_output@@@__crt_stdio_output@@AEAA_NAEBUparameter_data@12@W4parameter_type@12@DW4length_modifier@2@@Z 0000000180064550 f i libucrtd:output.obj
 0001:000637b0       ?is_positional_parameter_reappearance_consistent@?$positional_parameter_base@_WV?$stream_output_adapter@_W@__crt_stdio_output@@@__crt_stdio_output@@AEAA_NAEBUparameter_data@12@W4parameter_type@12@_WW4length_modifier@2@@Z 00000001800647b0 f i libucrtd:output.obj
 0001:00063a10       ?is_positional_parameter_reappearance_consistent@?$positional_parameter_base@_WV?$string_output_adapter@_W@__crt_stdio_output@@@__crt_stdio_output@@AEAA_NAEBUparameter_data@12@W4parameter_type@12@_WW4length_modifier@2@@Z 0000000180064a10 f i libucrtd:output.obj
 0001:00063c70       ?is_string_backed@__crt_stdio_stream@@QEBA_NXZ 0000000180064c70 f i libucrtd:output.obj
 0001:00063cb0       ?narrow_null_string@?$output_processor@DV?$stream_output_adapter@D@__crt_stdio_output@@V?$format_validation_base@DV?$stream_output_adapter@D@__crt_stdio_output@@@2@@__crt_stdio_output@@CAPEADXZ 0000000180064cb0 f i libucrtd:output.obj
 0001:00063cc0       ?narrow_null_string@?$output_processor@DV?$stream_output_adapter@D@__crt_stdio_output@@V?$positional_parameter_base@DV?$stream_output_adapter@D@__crt_stdio_output@@@2@@__crt_stdio_output@@CAPEADXZ 0000000180064cc0 f i libucrtd:output.obj
 0001:00063cd0       ?narrow_null_string@?$output_processor@DV?$stream_output_adapter@D@__crt_stdio_output@@V?$standard_base@DV?$stream_output_adapter@D@__crt_stdio_output@@@2@@__crt_stdio_output@@CAPEADXZ 0000000180064cd0 f i libucrtd:output.obj
 0001:00063ce0       ?narrow_null_string@?$output_processor@DV?$string_output_adapter@D@__crt_stdio_output@@V?$format_validation_base@DV?$string_output_adapter@D@__crt_stdio_output@@@2@@__crt_stdio_output@@CAPEADXZ 0000000180064ce0 f i libucrtd:output.obj
 0001:00063cf0       ?narrow_null_string@?$output_processor@DV?$string_output_adapter@D@__crt_stdio_output@@V?$positional_parameter_base@DV?$string_output_adapter@D@__crt_stdio_output@@@2@@__crt_stdio_output@@CAPEADXZ 0000000180064cf0 f i libucrtd:output.obj
 0001:00063d00       ?narrow_null_string@?$output_processor@DV?$string_output_adapter@D@__crt_stdio_output@@V?$standard_base@DV?$string_output_adapter@D@__crt_stdio_output@@@2@@__crt_stdio_output@@CAPEADXZ 0000000180064d00 f i libucrtd:output.obj
 0001:00063d10       ?narrow_null_string@?$output_processor@_WV?$stream_output_adapter@_W@__crt_stdio_output@@V?$format_validation_base@_WV?$stream_output_adapter@_W@__crt_stdio_output@@@2@@__crt_stdio_output@@CAPEADXZ 0000000180064d10 f i libucrtd:output.obj
 0001:00063d20       ?narrow_null_string@?$output_processor@_WV?$stream_output_adapter@_W@__crt_stdio_output@@V?$positional_parameter_base@_WV?$stream_output_adapter@_W@__crt_stdio_output@@@2@@__crt_stdio_output@@CAPEADXZ 0000000180064d20 f i libucrtd:output.obj
 0001:00063d30       ?narrow_null_string@?$output_processor@_WV?$stream_output_adapter@_W@__crt_stdio_output@@V?$standard_base@_WV?$stream_output_adapter@_W@__crt_stdio_output@@@2@@__crt_stdio_output@@CAPEADXZ 0000000180064d30 f i libucrtd:output.obj
 0001:00063d40       ?narrow_null_string@?$output_processor@_WV?$string_output_adapter@_W@__crt_stdio_output@@V?$format_validation_base@_WV?$string_output_adapter@_W@__crt_stdio_output@@@2@@__crt_stdio_output@@CAPEADXZ 0000000180064d40 f i libucrtd:output.obj
 0001:00063d50       ?narrow_null_string@?$output_processor@_WV?$string_output_adapter@_W@__crt_stdio_output@@V?$positional_parameter_base@_WV?$string_output_adapter@_W@__crt_stdio_output@@@2@@__crt_stdio_output@@CAPEADXZ 0000000180064d50 f i libucrtd:output.obj
 0001:00063d60       ?narrow_null_string@?$output_processor@_WV?$string_output_adapter@_W@__crt_stdio_output@@V?$standard_base@_WV?$string_output_adapter@_W@__crt_stdio_output@@@2@@__crt_stdio_output@@CAPEADXZ 0000000180064d60 f i libucrtd:output.obj
 0001:00063d70       ?parse_int_from_format_string@?$output_processor@DV?$stream_output_adapter@D@__crt_stdio_output@@V?$format_validation_base@DV?$stream_output_adapter@D@__crt_stdio_output@@@2@@__crt_stdio_output@@AEAA_NQEAH@Z 0000000180064d70 f i libucrtd:output.obj
 0001:00063e60       ?parse_int_from_format_string@?$output_processor@DV?$stream_output_adapter@D@__crt_stdio_output@@V?$positional_parameter_base@DV?$stream_output_adapter@D@__crt_stdio_output@@@2@@__crt_stdio_output@@AEAA_NQEAH@Z 0000000180064e60 f i libucrtd:output.obj
 0001:00063f50       ?parse_int_from_format_string@?$output_processor@DV?$stream_output_adapter@D@__crt_stdio_output@@V?$standard_base@DV?$stream_output_adapter@D@__crt_stdio_output@@@2@@__crt_stdio_output@@AEAA_NQEAH@Z 0000000180064f50 f i libucrtd:output.obj
 0001:00064040       ?parse_int_from_format_string@?$output_processor@DV?$string_output_adapter@D@__crt_stdio_output@@V?$format_validation_base@DV?$string_output_adapter@D@__crt_stdio_output@@@2@@__crt_stdio_output@@AEAA_NQEAH@Z 0000000180065040 f i libucrtd:output.obj
 0001:00064130       ?parse_int_from_format_string@?$output_processor@DV?$string_output_adapter@D@__crt_stdio_output@@V?$positional_parameter_base@DV?$string_output_adapter@D@__crt_stdio_output@@@2@@__crt_stdio_output@@AEAA_NQEAH@Z 0000000180065130 f i libucrtd:output.obj
 0001:00064220       ?parse_int_from_format_string@?$output_processor@DV?$string_output_adapter@D@__crt_stdio_output@@V?$standard_base@DV?$string_output_adapter@D@__crt_stdio_output@@@2@@__crt_stdio_output@@AEAA_NQEAH@Z 0000000180065220 f i libucrtd:output.obj
 0001:00064310       ?parse_int_from_format_string@?$output_processor@_WV?$stream_output_adapter@_W@__crt_stdio_output@@V?$format_validation_base@_WV?$stream_output_adapter@_W@__crt_stdio_output@@@2@@__crt_stdio_output@@AEAA_NQEAH@Z 0000000180065310 f i libucrtd:output.obj
 0001:00064400       ?parse_int_from_format_string@?$output_processor@_WV?$stream_output_adapter@_W@__crt_stdio_output@@V?$positional_parameter_base@_WV?$stream_output_adapter@_W@__crt_stdio_output@@@2@@__crt_stdio_output@@AEAA_NQEAH@Z 0000000180065400 f i libucrtd:output.obj
 0001:000644f0       ?parse_int_from_format_string@?$output_processor@_WV?$stream_output_adapter@_W@__crt_stdio_output@@V?$standard_base@_WV?$stream_output_adapter@_W@__crt_stdio_output@@@2@@__crt_stdio_output@@AEAA_NQEAH@Z 00000001800654f0 f i libucrtd:output.obj
 0001:000645e0       ?parse_int_from_format_string@?$output_processor@_WV?$string_output_adapter@_W@__crt_stdio_output@@V?$format_validation_base@_WV?$string_output_adapter@_W@__crt_stdio_output@@@2@@__crt_stdio_output@@AEAA_NQEAH@Z 00000001800655e0 f i libucrtd:output.obj
 0001:000646d0       ?parse_int_from_format_string@?$output_processor@_WV?$string_output_adapter@_W@__crt_stdio_output@@V?$positional_parameter_base@_WV?$string_output_adapter@_W@__crt_stdio_output@@@2@@__crt_stdio_output@@AEAA_NQEAH@Z 00000001800656d0 f i libucrtd:output.obj
 0001:000647c0       ?parse_int_from_format_string@?$output_processor@_WV?$string_output_adapter@_W@__crt_stdio_output@@V?$standard_base@_WV?$string_output_adapter@_W@__crt_stdio_output@@@2@@__crt_stdio_output@@AEAA_NQEAH@Z 00000001800657c0 f i libucrtd:output.obj
 0001:000648b0       ?process@?$output_processor@DV?$stream_output_adapter@D@__crt_stdio_output@@V?$format_validation_base@DV?$stream_output_adapter@D@__crt_stdio_output@@@2@@__crt_stdio_output@@QEAAHXZ 00000001800658b0 f i libucrtd:output.obj
 0001:00064c10       ?process@?$output_processor@DV?$stream_output_adapter@D@__crt_stdio_output@@V?$positional_parameter_base@DV?$stream_output_adapter@D@__crt_stdio_output@@@2@@__crt_stdio_output@@QEAAHXZ 0000000180065c10 f i libucrtd:output.obj
 0001:00064f70       ?process@?$output_processor@DV?$stream_output_adapter@D@__crt_stdio_output@@V?$standard_base@DV?$stream_output_adapter@D@__crt_stdio_output@@@2@@__crt_stdio_output@@QEAAHXZ 0000000180065f70 f i libucrtd:output.obj
 0001:000652d0       ?process@?$output_processor@DV?$string_output_adapter@D@__crt_stdio_output@@V?$format_validation_base@DV?$string_output_adapter@D@__crt_stdio_output@@@2@@__crt_stdio_output@@QEAAHXZ 00000001800662d0 f i libucrtd:output.obj
 0001:00065630       ?process@?$output_processor@DV?$string_output_adapter@D@__crt_stdio_output@@V?$positional_parameter_base@DV?$string_output_adapter@D@__crt_stdio_output@@@2@@__crt_stdio_output@@QEAAHXZ 0000000180066630 f i libucrtd:output.obj
 0001:00065990       ?process@?$output_processor@DV?$string_output_adapter@D@__crt_stdio_output@@V?$standard_base@DV?$string_output_adapter@D@__crt_stdio_output@@@2@@__crt_stdio_output@@QEAAHXZ 0000000180066990 f i libucrtd:output.obj
 0001:00065cf0       ?process@?$output_processor@_WV?$stream_output_adapter@_W@__crt_stdio_output@@V?$format_validation_base@_WV?$stream_output_adapter@_W@__crt_stdio_output@@@2@@__crt_stdio_output@@QEAAHXZ 0000000180066cf0 f i libucrtd:output.obj
 0001:00066050       ?process@?$output_processor@_WV?$stream_output_adapter@_W@__crt_stdio_output@@V?$positional_parameter_base@_WV?$stream_output_adapter@_W@__crt_stdio_output@@@2@@__crt_stdio_output@@QEAAHXZ 0000000180067050 f i libucrtd:output.obj
 0001:000663b0       ?process@?$output_processor@_WV?$stream_output_adapter@_W@__crt_stdio_output@@V?$standard_base@_WV?$stream_output_adapter@_W@__crt_stdio_output@@@2@@__crt_stdio_output@@QEAAHXZ 00000001800673b0 f i libucrtd:output.obj
 0001:00066710       ?process@?$output_processor@_WV?$string_output_adapter@_W@__crt_stdio_output@@V?$format_validation_base@_WV?$string_output_adapter@_W@__crt_stdio_output@@@2@@__crt_stdio_output@@QEAAHXZ 0000000180067710 f i libucrtd:output.obj
 0001:00066a70       ?process@?$output_processor@_WV?$string_output_adapter@_W@__crt_stdio_output@@V?$positional_parameter_base@_WV?$string_output_adapter@_W@__crt_stdio_output@@@2@@__crt_stdio_output@@QEAAHXZ 0000000180067a70 f i libucrtd:output.obj
 0001:00066dd0       ?process@?$output_processor@_WV?$string_output_adapter@_W@__crt_stdio_output@@V?$standard_base@_WV?$string_output_adapter@_W@__crt_stdio_output@@@2@@__crt_stdio_output@@QEAAHXZ 0000000180067dd0 f i libucrtd:output.obj
 0001:00067130       ?public_stream@__crt_stdio_stream@@QEBAPEAU_iobuf@@XZ 0000000180068130 f i libucrtd:output.obj
 0001:00067140       ?set_flag@?$output_processor@DV?$stream_output_adapter@D@__crt_stdio_output@@V?$format_validation_base@DV?$stream_output_adapter@D@__crt_stdio_output@@@2@@__crt_stdio_output@@AEAAXI@Z 0000000180068140 f i libucrtd:output.obj
 0001:00067160       ?set_flag@?$output_processor@DV?$stream_output_adapter@D@__crt_stdio_output@@V?$positional_parameter_base@DV?$stream_output_adapter@D@__crt_stdio_output@@@2@@__crt_stdio_output@@AEAAXI@Z 0000000180068160 f i libucrtd:output.obj
 0001:00067180       ?set_flag@?$output_processor@DV?$stream_output_adapter@D@__crt_stdio_output@@V?$standard_base@DV?$stream_output_adapter@D@__crt_stdio_output@@@2@@__crt_stdio_output@@AEAAXI@Z 0000000180068180 f i libucrtd:output.obj
 0001:000671a0       ?set_flag@?$output_processor@DV?$string_output_adapter@D@__crt_stdio_output@@V?$format_validation_base@DV?$string_output_adapter@D@__crt_stdio_output@@@2@@__crt_stdio_output@@AEAAXI@Z 00000001800681a0 f i libucrtd:output.obj
 0001:000671c0       ?set_flag@?$output_processor@DV?$string_output_adapter@D@__crt_stdio_output@@V?$positional_parameter_base@DV?$string_output_adapter@D@__crt_stdio_output@@@2@@__crt_stdio_output@@AEAAXI@Z 00000001800681c0 f i libucrtd:output.obj
 0001:000671e0       ?set_flag@?$output_processor@DV?$string_output_adapter@D@__crt_stdio_output@@V?$standard_base@DV?$string_output_adapter@D@__crt_stdio_output@@@2@@__crt_stdio_output@@AEAAXI@Z 00000001800681e0 f i libucrtd:output.obj
 0001:00067200       ?set_flag@?$output_processor@_WV?$stream_output_adapter@_W@__crt_stdio_output@@V?$format_validation_base@_WV?$stream_output_adapter@_W@__crt_stdio_output@@@2@@__crt_stdio_output@@AEAAXI@Z 0000000180068200 f i libucrtd:output.obj
 0001:00067220       ?set_flag@?$output_processor@_WV?$stream_output_adapter@_W@__crt_stdio_output@@V?$positional_parameter_base@_WV?$stream_output_adapter@_W@__crt_stdio_output@@@2@@__crt_stdio_output@@AEAAXI@Z 0000000180068220 f i libucrtd:output.obj
 0001:00067240       ?set_flag@?$output_processor@_WV?$stream_output_adapter@_W@__crt_stdio_output@@V?$standard_base@_WV?$stream_output_adapter@_W@__crt_stdio_output@@@2@@__crt_stdio_output@@AEAAXI@Z 0000000180068240 f i libucrtd:output.obj
 0001:00067260       ?set_flag@?$output_processor@_WV?$string_output_adapter@_W@__crt_stdio_output@@V?$format_validation_base@_WV?$string_output_adapter@_W@__crt_stdio_output@@@2@@__crt_stdio_output@@AEAAXI@Z 0000000180068260 f i libucrtd:output.obj
 0001:00067280       ?set_flag@?$output_processor@_WV?$string_output_adapter@_W@__crt_stdio_output@@V?$positional_parameter_base@_WV?$string_output_adapter@_W@__crt_stdio_output@@@2@@__crt_stdio_output@@AEAAXI@Z 0000000180068280 f i libucrtd:output.obj
 0001:000672a0       ?set_flag@?$output_processor@_WV?$string_output_adapter@_W@__crt_stdio_output@@V?$standard_base@_WV?$string_output_adapter@_W@__crt_stdio_output@@@2@@__crt_stdio_output@@AEAAXI@Z 00000001800682a0 f i libucrtd:output.obj
 0001:000672c0       ?should_format@?$positional_parameter_base@DV?$stream_output_adapter@D@__crt_stdio_output@@@__crt_stdio_output@@IEAA_NXZ 00000001800682c0 f i libucrtd:output.obj
 0001:00067300       ?should_format@?$positional_parameter_base@DV?$string_output_adapter@D@__crt_stdio_output@@@__crt_stdio_output@@IEAA_NXZ 0000000180068300 f i libucrtd:output.obj
 0001:00067340       ?should_format@?$positional_parameter_base@_WV?$stream_output_adapter@_W@__crt_stdio_output@@@__crt_stdio_output@@IEAA_NXZ 0000000180068340 f i libucrtd:output.obj
 0001:00067380       ?should_format@?$positional_parameter_base@_WV?$string_output_adapter@_W@__crt_stdio_output@@@__crt_stdio_output@@IEAA_NXZ 0000000180068380 f i libucrtd:output.obj
 0001:000673c0       ?should_format@?$standard_base@DV?$stream_output_adapter@D@__crt_stdio_output@@@__crt_stdio_output@@IEAA_NXZ 00000001800683c0 f i libucrtd:output.obj
 0001:000673d0       ?should_format@?$standard_base@DV?$string_output_adapter@D@__crt_stdio_output@@@__crt_stdio_output@@IEAA_NXZ 00000001800683d0 f i libucrtd:output.obj
 0001:000673e0       ?should_format@?$standard_base@_WV?$stream_output_adapter@_W@__crt_stdio_output@@@__crt_stdio_output@@IEAA_NXZ 00000001800683e0 f i libucrtd:output.obj
 0001:000673f0       ?should_format@?$standard_base@_WV?$string_output_adapter@_W@__crt_stdio_output@@@__crt_stdio_output@@IEAA_NXZ 00000001800683f0 f i libucrtd:output.obj
 0001:00067400       ?should_skip_normal_state_processing@?$positional_parameter_base@DV?$stream_output_adapter@D@__crt_stdio_output@@@__crt_stdio_output@@IEAA_NXZ 0000000180068400 f i libucrtd:output.obj
 0001:00067450       ?should_skip_normal_state_processing@?$positional_parameter_base@DV?$string_output_adapter@D@__crt_stdio_output@@@__crt_stdio_output@@IEAA_NXZ 0000000180068450 f i libucrtd:output.obj
 0001:000674a0       ?should_skip_normal_state_processing@?$positional_parameter_base@_WV?$stream_output_adapter@_W@__crt_stdio_output@@@__crt_stdio_output@@IEAA_NXZ 00000001800684a0 f i libucrtd:output.obj
 0001:000674f0       ?should_skip_normal_state_processing@?$positional_parameter_base@_WV?$string_output_adapter@_W@__crt_stdio_output@@@__crt_stdio_output@@IEAA_NXZ 00000001800684f0 f i libucrtd:output.obj
 0001:00067540       ?should_skip_normal_state_processing@?$standard_base@DV?$stream_output_adapter@D@__crt_stdio_output@@@__crt_stdio_output@@IEAA_NXZ 0000000180068540 f i libucrtd:output.obj
 0001:00067550       ?should_skip_normal_state_processing@?$standard_base@DV?$string_output_adapter@D@__crt_stdio_output@@@__crt_stdio_output@@IEAA_NXZ 0000000180068550 f i libucrtd:output.obj
 0001:00067560       ?should_skip_normal_state_processing@?$standard_base@_WV?$stream_output_adapter@_W@__crt_stdio_output@@@__crt_stdio_output@@IEAA_NXZ 0000000180068560 f i libucrtd:output.obj
 0001:00067570       ?should_skip_normal_state_processing@?$standard_base@_WV?$string_output_adapter@_W@__crt_stdio_output@@@__crt_stdio_output@@IEAA_NXZ 0000000180068570 f i libucrtd:output.obj
 0001:00067580       ?should_skip_type_state_output@?$positional_parameter_base@DV?$stream_output_adapter@D@__crt_stdio_output@@@__crt_stdio_output@@IEBA_NXZ 0000000180068580 f i libucrtd:output.obj
 0001:000675c0       ?should_skip_type_state_output@?$positional_parameter_base@DV?$string_output_adapter@D@__crt_stdio_output@@@__crt_stdio_output@@IEBA_NXZ 00000001800685c0 f i libucrtd:output.obj
 0001:00067600       ?should_skip_type_state_output@?$positional_parameter_base@_WV?$stream_output_adapter@_W@__crt_stdio_output@@@__crt_stdio_output@@IEBA_NXZ 0000000180068600 f i libucrtd:output.obj
 0001:00067640       ?should_skip_type_state_output@?$positional_parameter_base@_WV?$string_output_adapter@_W@__crt_stdio_output@@@__crt_stdio_output@@IEBA_NXZ 0000000180068640 f i libucrtd:output.obj
 0001:00067680       ?should_skip_type_state_output@?$standard_base@DV?$stream_output_adapter@D@__crt_stdio_output@@@__crt_stdio_output@@IEBA_NXZ 0000000180068680 f i libucrtd:output.obj
 0001:00067690       ?should_skip_type_state_output@?$standard_base@DV?$string_output_adapter@D@__crt_stdio_output@@@__crt_stdio_output@@IEBA_NXZ 0000000180068690 f i libucrtd:output.obj
 0001:000676a0       ?should_skip_type_state_output@?$standard_base@_WV?$stream_output_adapter@_W@__crt_stdio_output@@@__crt_stdio_output@@IEBA_NXZ 00000001800686a0 f i libucrtd:output.obj
 0001:000676b0       ?should_skip_type_state_output@?$standard_base@_WV?$string_output_adapter@_W@__crt_stdio_output@@@__crt_stdio_output@@IEBA_NXZ 00000001800686b0 f i libucrtd:output.obj
 0001:000676c0       ?state_case_dot@?$output_processor@DV?$stream_output_adapter@D@__crt_stdio_output@@V?$format_validation_base@DV?$stream_output_adapter@D@__crt_stdio_output@@@2@@__crt_stdio_output@@AEAA_NXZ 00000001800686c0 f i libucrtd:output.obj
 0001:000676e0       ?state_case_dot@?$output_processor@DV?$stream_output_adapter@D@__crt_stdio_output@@V?$positional_parameter_base@DV?$stream_output_adapter@D@__crt_stdio_output@@@2@@__crt_stdio_output@@AEAA_NXZ 00000001800686e0 f i libucrtd:output.obj
 0001:00067700       ?state_case_dot@?$output_processor@DV?$stream_output_adapter@D@__crt_stdio_output@@V?$standard_base@DV?$stream_output_adapter@D@__crt_stdio_output@@@2@@__crt_stdio_output@@AEAA_NXZ 0000000180068700 f i libucrtd:output.obj
 0001:00067720       ?state_case_dot@?$output_processor@DV?$string_output_adapter@D@__crt_stdio_output@@V?$format_validation_base@DV?$string_output_adapter@D@__crt_stdio_output@@@2@@__crt_stdio_output@@AEAA_NXZ 0000000180068720 f i libucrtd:output.obj
 0001:00067740       ?state_case_dot@?$output_processor@DV?$string_output_adapter@D@__crt_stdio_output@@V?$positional_parameter_base@DV?$string_output_adapter@D@__crt_stdio_output@@@2@@__crt_stdio_output@@AEAA_NXZ 0000000180068740 f i libucrtd:output.obj
 0001:00067760       ?state_case_dot@?$output_processor@DV?$string_output_adapter@D@__crt_stdio_output@@V?$standard_base@DV?$string_output_adapter@D@__crt_stdio_output@@@2@@__crt_stdio_output@@AEAA_NXZ 0000000180068760 f i libucrtd:output.obj
 0001:00067780       ?state_case_dot@?$output_processor@_WV?$stream_output_adapter@_W@__crt_stdio_output@@V?$format_validation_base@_WV?$stream_output_adapter@_W@__crt_stdio_output@@@2@@__crt_stdio_output@@AEAA_NXZ 0000000180068780 f i libucrtd:output.obj
 0001:000677a0       ?state_case_dot@?$output_processor@_WV?$stream_output_adapter@_W@__crt_stdio_output@@V?$positional_parameter_base@_WV?$stream_output_adapter@_W@__crt_stdio_output@@@2@@__crt_stdio_output@@AEAA_NXZ 00000001800687a0 f i libucrtd:output.obj
 0001:000677c0       ?state_case_dot@?$output_processor@_WV?$stream_output_adapter@_W@__crt_stdio_output@@V?$standard_base@_WV?$stream_output_adapter@_W@__crt_stdio_output@@@2@@__crt_stdio_output@@AEAA_NXZ 00000001800687c0 f i libucrtd:output.obj
 0001:000677e0       ?state_case_dot@?$output_processor@_WV?$string_output_adapter@_W@__crt_stdio_output@@V?$format_validation_base@_WV?$string_output_adapter@_W@__crt_stdio_output@@@2@@__crt_stdio_output@@AEAA_NXZ 00000001800687e0 f i libucrtd:output.obj
 0001:00067800       ?state_case_dot@?$output_processor@_WV?$string_output_adapter@_W@__crt_stdio_output@@V?$positional_parameter_base@_WV?$string_output_adapter@_W@__crt_stdio_output@@@2@@__crt_stdio_output@@AEAA_NXZ 0000000180068800 f i libucrtd:output.obj
 0001:00067820       ?state_case_dot@?$output_processor@_WV?$string_output_adapter@_W@__crt_stdio_output@@V?$standard_base@_WV?$string_output_adapter@_W@__crt_stdio_output@@@2@@__crt_stdio_output@@AEAA_NXZ 0000000180068820 f i libucrtd:output.obj
 0001:00067840       ?state_case_flag@?$output_processor@DV?$stream_output_adapter@D@__crt_stdio_output@@V?$format_validation_base@DV?$stream_output_adapter@D@__crt_stdio_output@@@2@@__crt_stdio_output@@AEAA_NXZ 0000000180068840 f i libucrtd:output.obj
 0001:000678e0       ?state_case_flag@?$output_processor@DV?$stream_output_adapter@D@__crt_stdio_output@@V?$positional_parameter_base@DV?$stream_output_adapter@D@__crt_stdio_output@@@2@@__crt_stdio_output@@AEAA_NXZ 00000001800688e0 f i libucrtd:output.obj
 0001:00067980       ?state_case_flag@?$output_processor@DV?$stream_output_adapter@D@__crt_stdio_output@@V?$standard_base@DV?$stream_output_adapter@D@__crt_stdio_output@@@2@@__crt_stdio_output@@AEAA_NXZ 0000000180068980 f i libucrtd:output.obj
 0001:00067a20       ?state_case_flag@?$output_processor@DV?$string_output_adapter@D@__crt_stdio_output@@V?$format_validation_base@DV?$string_output_adapter@D@__crt_stdio_output@@@2@@__crt_stdio_output@@AEAA_NXZ 0000000180068a20 f i libucrtd:output.obj
 0001:00067ac0       ?state_case_flag@?$output_processor@DV?$string_output_adapter@D@__crt_stdio_output@@V?$positional_parameter_base@DV?$string_output_adapter@D@__crt_stdio_output@@@2@@__crt_stdio_output@@AEAA_NXZ 0000000180068ac0 f i libucrtd:output.obj
 0001:00067b60       ?state_case_flag@?$output_processor@DV?$string_output_adapter@D@__crt_stdio_output@@V?$standard_base@DV?$string_output_adapter@D@__crt_stdio_output@@@2@@__crt_stdio_output@@AEAA_NXZ 0000000180068b60 f i libucrtd:output.obj
 0001:00067c00       ?state_case_flag@?$output_processor@_WV?$stream_output_adapter@_W@__crt_stdio_output@@V?$format_validation_base@_WV?$stream_output_adapter@_W@__crt_stdio_output@@@2@@__crt_stdio_output@@AEAA_NXZ 0000000180068c00 f i libucrtd:output.obj
 0001:00067ca0       ?state_case_flag@?$output_processor@_WV?$stream_output_adapter@_W@__crt_stdio_output@@V?$positional_parameter_base@_WV?$stream_output_adapter@_W@__crt_stdio_output@@@2@@__crt_stdio_output@@AEAA_NXZ 0000000180068ca0 f i libucrtd:output.obj
 0001:00067d40       ?state_case_flag@?$output_processor@_WV?$stream_output_adapter@_W@__crt_stdio_output@@V?$standard_base@_WV?$stream_output_adapter@_W@__crt_stdio_output@@@2@@__crt_stdio_output@@AEAA_NXZ 0000000180068d40 f i libucrtd:output.obj
 0001:00067de0       ?state_case_flag@?$output_processor@_WV?$string_output_adapter@_W@__crt_stdio_output@@V?$format_validation_base@_WV?$string_output_adapter@_W@__crt_stdio_output@@@2@@__crt_stdio_output@@AEAA_NXZ 0000000180068de0 f i libucrtd:output.obj
 0001:00067e80       ?state_case_flag@?$output_processor@_WV?$string_output_adapter@_W@__crt_stdio_output@@V?$positional_parameter_base@_WV?$string_output_adapter@_W@__crt_stdio_output@@@2@@__crt_stdio_output@@AEAA_NXZ 0000000180068e80 f i libucrtd:output.obj
 0001:00067f20       ?state_case_flag@?$output_processor@_WV?$string_output_adapter@_W@__crt_stdio_output@@V?$standard_base@_WV?$string_output_adapter@_W@__crt_stdio_output@@@2@@__crt_stdio_output@@AEAA_NXZ 0000000180068f20 f i libucrtd:output.obj
 0001:00067fc0       ?state_case_normal@?$output_processor@DV?$stream_output_adapter@D@__crt_stdio_output@@V?$format_validation_base@DV?$stream_output_adapter@D@__crt_stdio_output@@@2@@__crt_stdio_output@@AEAA_NXZ 0000000180068fc0 f i libucrtd:output.obj
 0001:000680a0       ?state_case_normal@?$output_processor@DV?$stream_output_adapter@D@__crt_stdio_output@@V?$positional_parameter_base@DV?$stream_output_adapter@D@__crt_stdio_output@@@2@@__crt_stdio_output@@AEAA_NXZ 00000001800690a0 f i libucrtd:output.obj
 0001:00068180       ?state_case_normal@?$output_processor@DV?$stream_output_adapter@D@__crt_stdio_output@@V?$standard_base@DV?$stream_output_adapter@D@__crt_stdio_output@@@2@@__crt_stdio_output@@AEAA_NXZ 0000000180069180 f i libucrtd:output.obj
 0001:00068260       ?state_case_normal@?$output_processor@DV?$string_output_adapter@D@__crt_stdio_output@@V?$format_validation_base@DV?$string_output_adapter@D@__crt_stdio_output@@@2@@__crt_stdio_output@@AEAA_NXZ 0000000180069260 f i libucrtd:output.obj
 0001:00068340       ?state_case_normal@?$output_processor@DV?$string_output_adapter@D@__crt_stdio_output@@V?$positional_parameter_base@DV?$string_output_adapter@D@__crt_stdio_output@@@2@@__crt_stdio_output@@AEAA_NXZ 0000000180069340 f i libucrtd:output.obj
 0001:00068420       ?state_case_normal@?$output_processor@DV?$string_output_adapter@D@__crt_stdio_output@@V?$standard_base@DV?$string_output_adapter@D@__crt_stdio_output@@@2@@__crt_stdio_output@@AEAA_NXZ 0000000180069420 f i libucrtd:output.obj
 0001:00068500       ?state_case_normal@?$output_processor@_WV?$stream_output_adapter@_W@__crt_stdio_output@@V?$format_validation_base@_WV?$stream_output_adapter@_W@__crt_stdio_output@@@2@@__crt_stdio_output@@AEAA_NXZ 0000000180069500 f i libucrtd:output.obj
 0001:000685e0       ?state_case_normal@?$output_processor@_WV?$stream_output_adapter@_W@__crt_stdio_output@@V?$positional_parameter_base@_WV?$stream_output_adapter@_W@__crt_stdio_output@@@2@@__crt_stdio_output@@AEAA_NXZ 00000001800695e0 f i libucrtd:output.obj
 0001:000686c0       ?state_case_normal@?$output_processor@_WV?$stream_output_adapter@_W@__crt_stdio_output@@V?$standard_base@_WV?$stream_output_adapter@_W@__crt_stdio_output@@@2@@__crt_stdio_output@@AEAA_NXZ 00000001800696c0 f i libucrtd:output.obj
 0001:000687a0       ?state_case_normal@?$output_processor@_WV?$string_output_adapter@_W@__crt_stdio_output@@V?$format_validation_base@_WV?$string_output_adapter@_W@__crt_stdio_output@@@2@@__crt_stdio_output@@AEAA_NXZ 00000001800697a0 f i libucrtd:output.obj
 0001:00068880       ?state_case_normal@?$output_processor@_WV?$string_output_adapter@_W@__crt_stdio_output@@V?$positional_parameter_base@_WV?$string_output_adapter@_W@__crt_stdio_output@@@2@@__crt_stdio_output@@AEAA_NXZ 0000000180069880 f i libucrtd:output.obj
 0001:00068960       ?state_case_normal@?$output_processor@_WV?$string_output_adapter@_W@__crt_stdio_output@@V?$standard_base@_WV?$string_output_adapter@_W@__crt_stdio_output@@@2@@__crt_stdio_output@@AEAA_NXZ 0000000180069960 f i libucrtd:output.obj
 0001:00068a40       ?state_case_normal_common@?$output_processor@DV?$stream_output_adapter@D@__crt_stdio_output@@V?$format_validation_base@DV?$stream_output_adapter@D@__crt_stdio_output@@@2@@__crt_stdio_output@@AEAA_NXZ 0000000180069a40 f i libucrtd:output.obj
 0001:00068a90       ?state_case_normal_common@?$output_processor@DV?$stream_output_adapter@D@__crt_stdio_output@@V?$positional_parameter_base@DV?$stream_output_adapter@D@__crt_stdio_output@@@2@@__crt_stdio_output@@AEAA_NXZ 0000000180069a90 f i libucrtd:output.obj
 0001:00068ae0       ?state_case_normal_common@?$output_processor@DV?$stream_output_adapter@D@__crt_stdio_output@@V?$standard_base@DV?$stream_output_adapter@D@__crt_stdio_output@@@2@@__crt_stdio_output@@AEAA_NXZ 0000000180069ae0 f i libucrtd:output.obj
 0001:00068b30       ?state_case_normal_common@?$output_processor@DV?$string_output_adapter@D@__crt_stdio_output@@V?$format_validation_base@DV?$string_output_adapter@D@__crt_stdio_output@@@2@@__crt_stdio_output@@AEAA_NXZ 0000000180069b30 f i libucrtd:output.obj
 0001:00068b80       ?state_case_normal_common@?$output_processor@DV?$string_output_adapter@D@__crt_stdio_output@@V?$positional_parameter_base@DV?$string_output_adapter@D@__crt_stdio_output@@@2@@__crt_stdio_output@@AEAA_NXZ 0000000180069b80 f i libucrtd:output.obj
 0001:00068bd0       ?state_case_normal_common@?$output_processor@DV?$string_output_adapter@D@__crt_stdio_output@@V?$standard_base@DV?$string_output_adapter@D@__crt_stdio_output@@@2@@__crt_stdio_output@@AEAA_NXZ 0000000180069bd0 f i libucrtd:output.obj
 0001:00068c20       ?state_case_normal_common@?$output_processor@_WV?$stream_output_adapter@_W@__crt_stdio_output@@V?$format_validation_base@_WV?$stream_output_adapter@_W@__crt_stdio_output@@@2@@__crt_stdio_output@@AEAA_NXZ 0000000180069c20 f i libucrtd:output.obj
 0001:00068c70       ?state_case_normal_common@?$output_processor@_WV?$stream_output_adapter@_W@__crt_stdio_output@@V?$positional_parameter_base@_WV?$stream_output_adapter@_W@__crt_stdio_output@@@2@@__crt_stdio_output@@AEAA_NXZ 0000000180069c70 f i libucrtd:output.obj
 0001:00068cc0       ?state_case_normal_common@?$output_processor@_WV?$stream_output_adapter@_W@__crt_stdio_output@@V?$standard_base@_WV?$stream_output_adapter@_W@__crt_stdio_output@@@2@@__crt_stdio_output@@AEAA_NXZ 0000000180069cc0 f i libucrtd:output.obj
 0001:00068d10       ?state_case_normal_common@?$output_processor@_WV?$string_output_adapter@_W@__crt_stdio_output@@V?$format_validation_base@_WV?$string_output_adapter@_W@__crt_stdio_output@@@2@@__crt_stdio_output@@AEAA_NXZ 0000000180069d10 f i libucrtd:output.obj
 0001:00068d60       ?state_case_normal_common@?$output_processor@_WV?$string_output_adapter@_W@__crt_stdio_output@@V?$positional_parameter_base@_WV?$string_output_adapter@_W@__crt_stdio_output@@@2@@__crt_stdio_output@@AEAA_NXZ 0000000180069d60 f i libucrtd:output.obj
 0001:00068db0       ?state_case_normal_common@?$output_processor@_WV?$string_output_adapter@_W@__crt_stdio_output@@V?$standard_base@_WV?$string_output_adapter@_W@__crt_stdio_output@@@2@@__crt_stdio_output@@AEAA_NXZ 0000000180069db0 f i libucrtd:output.obj
 0001:00068e00       ?state_case_normal_tchar@?$output_processor@DV?$stream_output_adapter@D@__crt_stdio_output@@V?$format_validation_base@DV?$stream_output_adapter@D@__crt_stdio_output@@@2@@__crt_stdio_output@@AEAA_ND@Z 0000000180069e00 f i libucrtd:output.obj
 0001:00068f40       ?state_case_normal_tchar@?$output_processor@DV?$stream_output_adapter@D@__crt_stdio_output@@V?$positional_parameter_base@DV?$stream_output_adapter@D@__crt_stdio_output@@@2@@__crt_stdio_output@@AEAA_ND@Z 0000000180069f40 f i libucrtd:output.obj
 0001:00069080       ?state_case_normal_tchar@?$output_processor@DV?$stream_output_adapter@D@__crt_stdio_output@@V?$standard_base@DV?$stream_output_adapter@D@__crt_stdio_output@@@2@@__crt_stdio_output@@AEAA_ND@Z 000000018006a080 f i libucrtd:output.obj
 0001:000691c0       ?state_case_normal_tchar@?$output_processor@DV?$string_output_adapter@D@__crt_stdio_output@@V?$format_validation_base@DV?$string_output_adapter@D@__crt_stdio_output@@@2@@__crt_stdio_output@@AEAA_ND@Z 000000018006a1c0 f i libucrtd:output.obj
 0001:00069300       ?state_case_normal_tchar@?$output_processor@DV?$string_output_adapter@D@__crt_stdio_output@@V?$positional_parameter_base@DV?$string_output_adapter@D@__crt_stdio_output@@@2@@__crt_stdio_output@@AEAA_ND@Z 000000018006a300 f i libucrtd:output.obj
 0001:00069440       ?state_case_normal_tchar@?$output_processor@DV?$string_output_adapter@D@__crt_stdio_output@@V?$standard_base@DV?$string_output_adapter@D@__crt_stdio_output@@@2@@__crt_stdio_output@@AEAA_ND@Z 000000018006a440 f i libucrtd:output.obj
 0001:00069580       ?state_case_normal_tchar@?$output_processor@_WV?$stream_output_adapter@_W@__crt_stdio_output@@V?$format_validation_base@_WV?$stream_output_adapter@_W@__crt_stdio_output@@@2@@__crt_stdio_output@@AEAA_N_W@Z 000000018006a580 f i libucrtd:output.obj
 0001:000695a0       ?state_case_normal_tchar@?$output_processor@_WV?$stream_output_adapter@_W@__crt_stdio_output@@V?$positional_parameter_base@_WV?$stream_output_adapter@_W@__crt_stdio_output@@@2@@__crt_stdio_output@@AEAA_N_W@Z 000000018006a5a0 f i libucrtd:output.obj
 0001:000695c0       ?state_case_normal_tchar@?$output_processor@_WV?$stream_output_adapter@_W@__crt_stdio_output@@V?$standard_base@_WV?$stream_output_adapter@_W@__crt_stdio_output@@@2@@__crt_stdio_output@@AEAA_N_W@Z 000000018006a5c0 f i libucrtd:output.obj
 0001:000695e0       ?state_case_normal_tchar@?$output_processor@_WV?$string_output_adapter@_W@__crt_stdio_output@@V?$format_validation_base@_WV?$string_output_adapter@_W@__crt_stdio_output@@@2@@__crt_stdio_output@@AEAA_N_W@Z 000000018006a5e0 f i libucrtd:output.obj
 0001:00069600       ?state_case_normal_tchar@?$output_processor@_WV?$string_output_adapter@_W@__crt_stdio_output@@V?$positional_parameter_base@_WV?$string_output_adapter@_W@__crt_stdio_output@@@2@@__crt_stdio_output@@AEAA_N_W@Z 000000018006a600 f i libucrtd:output.obj
 0001:00069620       ?state_case_normal_tchar@?$output_processor@_WV?$string_output_adapter@_W@__crt_stdio_output@@V?$standard_base@_WV?$string_output_adapter@_W@__crt_stdio_output@@@2@@__crt_stdio_output@@AEAA_N_W@Z 000000018006a620 f i libucrtd:output.obj
 0001:00069640       ?state_case_percent@?$output_processor@DV?$stream_output_adapter@D@__crt_stdio_output@@V?$format_validation_base@DV?$stream_output_adapter@D@__crt_stdio_output@@@2@@__crt_stdio_output@@AEAA_NXZ 000000018006a640 f i libucrtd:output.obj
 0001:00069690       ?state_case_percent@?$output_processor@DV?$stream_output_adapter@D@__crt_stdio_output@@V?$positional_parameter_base@DV?$stream_output_adapter@D@__crt_stdio_output@@@2@@__crt_stdio_output@@AEAA_NXZ 000000018006a690 f i libucrtd:output.obj
 0001:000696e0       ?state_case_percent@?$output_processor@DV?$stream_output_adapter@D@__crt_stdio_output@@V?$standard_base@DV?$stream_output_adapter@D@__crt_stdio_output@@@2@@__crt_stdio_output@@AEAA_NXZ 000000018006a6e0 f i libucrtd:output.obj
 0001:00069730       ?state_case_percent@?$output_processor@DV?$string_output_adapter@D@__crt_stdio_output@@V?$format_validation_base@DV?$string_output_adapter@D@__crt_stdio_output@@@2@@__crt_stdio_output@@AEAA_NXZ 000000018006a730 f i libucrtd:output.obj
 0001:00069780       ?state_case_percent@?$output_processor@DV?$string_output_adapter@D@__crt_stdio_output@@V?$positional_parameter_base@DV?$string_output_adapter@D@__crt_stdio_output@@@2@@__crt_stdio_output@@AEAA_NXZ 000000018006a780 f i libucrtd:output.obj
 0001:000697d0       ?state_case_percent@?$output_processor@DV?$string_output_adapter@D@__crt_stdio_output@@V?$standard_base@DV?$string_output_adapter@D@__crt_stdio_output@@@2@@__crt_stdio_output@@AEAA_NXZ 000000018006a7d0 f i libucrtd:output.obj
 0001:00069820       ?state_case_percent@?$output_processor@_WV?$stream_output_adapter@_W@__crt_stdio_output@@V?$format_validation_base@_WV?$stream_output_adapter@_W@__crt_stdio_output@@@2@@__crt_stdio_output@@AEAA_NXZ 000000018006a820 f i libucrtd:output.obj
 0001:00069870       ?state_case_percent@?$output_processor@_WV?$stream_output_adapter@_W@__crt_stdio_output@@V?$positional_parameter_base@_WV?$stream_output_adapter@_W@__crt_stdio_output@@@2@@__crt_stdio_output@@AEAA_NXZ 000000018006a870 f i libucrtd:output.obj
 0001:000698c0       ?state_case_percent@?$output_processor@_WV?$stream_output_adapter@_W@__crt_stdio_output@@V?$standard_base@_WV?$stream_output_adapter@_W@__crt_stdio_output@@@2@@__crt_stdio_output@@AEAA_NXZ 000000018006a8c0 f i libucrtd:output.obj
 0001:00069910       ?state_case_percent@?$output_processor@_WV?$string_output_adapter@_W@__crt_stdio_output@@V?$format_validation_base@_WV?$string_output_adapter@_W@__crt_stdio_output@@@2@@__crt_stdio_output@@AEAA_NXZ 000000018006a910 f i libucrtd:output.obj
 0001:00069960       ?state_case_percent@?$output_processor@_WV?$string_output_adapter@_W@__crt_stdio_output@@V?$positional_parameter_base@_WV?$string_output_adapter@_W@__crt_stdio_output@@@2@@__crt_stdio_output@@AEAA_NXZ 000000018006a960 f i libucrtd:output.obj
 0001:000699b0       ?state_case_percent@?$output_processor@_WV?$string_output_adapter@_W@__crt_stdio_output@@V?$standard_base@_WV?$string_output_adapter@_W@__crt_stdio_output@@@2@@__crt_stdio_output@@AEAA_NXZ 000000018006a9b0 f i libucrtd:output.obj
 0001:00069a00       ?state_case_precision@?$output_processor@DV?$stream_output_adapter@D@__crt_stdio_output@@V?$format_validation_base@DV?$stream_output_adapter@D@__crt_stdio_output@@@2@@__crt_stdio_output@@AEAA_NXZ 000000018006aa00 f i libucrtd:output.obj
 0001:00069a80       ?state_case_precision@?$output_processor@DV?$stream_output_adapter@D@__crt_stdio_output@@V?$positional_parameter_base@DV?$stream_output_adapter@D@__crt_stdio_output@@@2@@__crt_stdio_output@@AEAA_NXZ 000000018006aa80 f i libucrtd:output.obj
 0001:00069b00       ?state_case_precision@?$output_processor@DV?$stream_output_adapter@D@__crt_stdio_output@@V?$standard_base@DV?$stream_output_adapter@D@__crt_stdio_output@@@2@@__crt_stdio_output@@AEAA_NXZ 000000018006ab00 f i libucrtd:output.obj
 0001:00069b80       ?state_case_precision@?$output_processor@DV?$string_output_adapter@D@__crt_stdio_output@@V?$format_validation_base@DV?$string_output_adapter@D@__crt_stdio_output@@@2@@__crt_stdio_output@@AEAA_NXZ 000000018006ab80 f i libucrtd:output.obj
 0001:00069c00       ?state_case_precision@?$output_processor@DV?$string_output_adapter@D@__crt_stdio_output@@V?$positional_parameter_base@DV?$string_output_adapter@D@__crt_stdio_output@@@2@@__crt_stdio_output@@AEAA_NXZ 000000018006ac00 f i libucrtd:output.obj
 0001:00069c80       ?state_case_precision@?$output_processor@DV?$string_output_adapter@D@__crt_stdio_output@@V?$standard_base@DV?$string_output_adapter@D@__crt_stdio_output@@@2@@__crt_stdio_output@@AEAA_NXZ 000000018006ac80 f i libucrtd:output.obj
 0001:00069d00       ?state_case_precision@?$output_processor@_WV?$stream_output_adapter@_W@__crt_stdio_output@@V?$format_validation_base@_WV?$stream_output_adapter@_W@__crt_stdio_output@@@2@@__crt_stdio_output@@AEAA_NXZ 000000018006ad00 f i libucrtd:output.obj
 0001:00069d80       ?state_case_precision@?$output_processor@_WV?$stream_output_adapter@_W@__crt_stdio_output@@V?$positional_parameter_base@_WV?$stream_output_adapter@_W@__crt_stdio_output@@@2@@__crt_stdio_output@@AEAA_NXZ 000000018006ad80 f i libucrtd:output.obj
 0001:00069e00       ?state_case_precision@?$output_processor@_WV?$stream_output_adapter@_W@__crt_stdio_output@@V?$standard_base@_WV?$stream_output_adapter@_W@__crt_stdio_output@@@2@@__crt_stdio_output@@AEAA_NXZ 000000018006ae00 f i libucrtd:output.obj
 0001:00069e80       ?state_case_precision@?$output_processor@_WV?$string_output_adapter@_W@__crt_stdio_output@@V?$format_validation_base@_WV?$string_output_adapter@_W@__crt_stdio_output@@@2@@__crt_stdio_output@@AEAA_NXZ 000000018006ae80 f i libucrtd:output.obj
 0001:00069f00       ?state_case_precision@?$output_processor@_WV?$string_output_adapter@_W@__crt_stdio_output@@V?$positional_parameter_base@_WV?$string_output_adapter@_W@__crt_stdio_output@@@2@@__crt_stdio_output@@AEAA_NXZ 000000018006af00 f i libucrtd:output.obj
 0001:00069f80       ?state_case_precision@?$output_processor@_WV?$string_output_adapter@_W@__crt_stdio_output@@V?$standard_base@_WV?$string_output_adapter@_W@__crt_stdio_output@@@2@@__crt_stdio_output@@AEAA_NXZ 000000018006af80 f i libucrtd:output.obj
 0001:0006a000       ?state_case_size@?$output_processor@DV?$stream_output_adapter@D@__crt_stdio_output@@V?$format_validation_base@DV?$stream_output_adapter@D@__crt_stdio_output@@@2@@__crt_stdio_output@@AEAA_NXZ 000000018006b000 f i libucrtd:output.obj
 0001:0006a480       ?state_case_size@?$output_processor@DV?$stream_output_adapter@D@__crt_stdio_output@@V?$positional_parameter_base@DV?$stream_output_adapter@D@__crt_stdio_output@@@2@@__crt_stdio_output@@AEAA_NXZ 000000018006b480 f i libucrtd:output.obj
 0001:0006a900       ?state_case_size@?$output_processor@DV?$stream_output_adapter@D@__crt_stdio_output@@V?$standard_base@DV?$stream_output_adapter@D@__crt_stdio_output@@@2@@__crt_stdio_output@@AEAA_NXZ 000000018006b900 f i libucrtd:output.obj
 0001:0006ad80       ?state_case_size@?$output_processor@DV?$string_output_adapter@D@__crt_stdio_output@@V?$format_validation_base@DV?$string_output_adapter@D@__crt_stdio_output@@@2@@__crt_stdio_output@@AEAA_NXZ 000000018006bd80 f i libucrtd:output.obj
 0001:0006b200       ?state_case_size@?$output_processor@DV?$string_output_adapter@D@__crt_stdio_output@@V?$positional_parameter_base@DV?$string_output_adapter@D@__crt_stdio_output@@@2@@__crt_stdio_output@@AEAA_NXZ 000000018006c200 f i libucrtd:output.obj
 0001:0006b680       ?state_case_size@?$output_processor@DV?$string_output_adapter@D@__crt_stdio_output@@V?$standard_base@DV?$string_output_adapter@D@__crt_stdio_output@@@2@@__crt_stdio_output@@AEAA_NXZ 000000018006c680 f i libucrtd:output.obj
 0001:0006bb00       ?state_case_size@?$output_processor@_WV?$stream_output_adapter@_W@__crt_stdio_output@@V?$format_validation_base@_WV?$stream_output_adapter@_W@__crt_stdio_output@@@2@@__crt_stdio_output@@AEAA_NXZ 000000018006cb00 f i libucrtd:output.obj
 0001:0006bf80       ?state_case_size@?$output_processor@_WV?$stream_output_adapter@_W@__crt_stdio_output@@V?$positional_parameter_base@_WV?$stream_output_adapter@_W@__crt_stdio_output@@@2@@__crt_stdio_output@@AEAA_NXZ 000000018006cf80 f i libucrtd:output.obj
 0001:0006c400       ?state_case_size@?$output_processor@_WV?$stream_output_adapter@_W@__crt_stdio_output@@V?$standard_base@_WV?$stream_output_adapter@_W@__crt_stdio_output@@@2@@__crt_stdio_output@@AEAA_NXZ 000000018006d400 f i libucrtd:output.obj
 0001:0006c880       ?state_case_size@?$output_processor@_WV?$string_output_adapter@_W@__crt_stdio_output@@V?$format_validation_base@_WV?$string_output_adapter@_W@__crt_stdio_output@@@2@@__crt_stdio_output@@AEAA_NXZ 000000018006d880 f i libucrtd:output.obj
 0001:0006cd00       ?state_case_size@?$output_processor@_WV?$string_output_adapter@_W@__crt_stdio_output@@V?$positional_parameter_base@_WV?$string_output_adapter@_W@__crt_stdio_output@@@2@@__crt_stdio_output@@AEAA_NXZ 000000018006dd00 f i libucrtd:output.obj
 0001:0006d180       ?state_case_size@?$output_processor@_WV?$string_output_adapter@_W@__crt_stdio_output@@V?$standard_base@_WV?$string_output_adapter@_W@__crt_stdio_output@@@2@@__crt_stdio_output@@AEAA_NXZ 000000018006e180 f i libucrtd:output.obj
 0001:0006d600       ?state_case_type@?$output_processor@DV?$stream_output_adapter@D@__crt_stdio_output@@V?$format_validation_base@DV?$stream_output_adapter@D@__crt_stdio_output@@@2@@__crt_stdio_output@@AEAA_NXZ 000000018006e600 f i libucrtd:output.obj
 0001:0006daa0       ?state_case_type@?$output_processor@DV?$stream_output_adapter@D@__crt_stdio_output@@V?$positional_parameter_base@DV?$stream_output_adapter@D@__crt_stdio_output@@@2@@__crt_stdio_output@@AEAA_NXZ 000000018006eaa0 f i libucrtd:output.obj
 0001:0006df40       ?state_case_type@?$output_processor@DV?$stream_output_adapter@D@__crt_stdio_output@@V?$standard_base@DV?$stream_output_adapter@D@__crt_stdio_output@@@2@@__crt_stdio_output@@AEAA_NXZ 000000018006ef40 f i libucrtd:output.obj
 0001:0006e3e0       ?state_case_type@?$output_processor@DV?$string_output_adapter@D@__crt_stdio_output@@V?$format_validation_base@DV?$string_output_adapter@D@__crt_stdio_output@@@2@@__crt_stdio_output@@AEAA_NXZ 000000018006f3e0 f i libucrtd:output.obj
 0001:0006e880       ?state_case_type@?$output_processor@DV?$string_output_adapter@D@__crt_stdio_output@@V?$positional_parameter_base@DV?$string_output_adapter@D@__crt_stdio_output@@@2@@__crt_stdio_output@@AEAA_NXZ 000000018006f880 f i libucrtd:output.obj
 0001:0006ed20       ?state_case_type@?$output_processor@DV?$string_output_adapter@D@__crt_stdio_output@@V?$standard_base@DV?$string_output_adapter@D@__crt_stdio_output@@@2@@__crt_stdio_output@@AEAA_NXZ 000000018006fd20 f i libucrtd:output.obj
 0001:0006f1c0       ?state_case_type@?$output_processor@_WV?$stream_output_adapter@_W@__crt_stdio_output@@V?$format_validation_base@_WV?$stream_output_adapter@_W@__crt_stdio_output@@@2@@__crt_stdio_output@@AEAA_NXZ 00000001800701c0 f i libucrtd:output.obj
 0001:0006f720       ?state_case_type@?$output_processor@_WV?$stream_output_adapter@_W@__crt_stdio_output@@V?$positional_parameter_base@_WV?$stream_output_adapter@_W@__crt_stdio_output@@@2@@__crt_stdio_output@@AEAA_NXZ 0000000180070720 f i libucrtd:output.obj
 0001:0006fc80       ?state_case_type@?$output_processor@_WV?$stream_output_adapter@_W@__crt_stdio_output@@V?$standard_base@_WV?$stream_output_adapter@_W@__crt_stdio_output@@@2@@__crt_stdio_output@@AEAA_NXZ 0000000180070c80 f i libucrtd:output.obj
 0001:000701e0       ?state_case_type@?$output_processor@_WV?$string_output_adapter@_W@__crt_stdio_output@@V?$format_validation_base@_WV?$string_output_adapter@_W@__crt_stdio_output@@@2@@__crt_stdio_output@@AEAA_NXZ 00000001800711e0 f i libucrtd:output.obj
 0001:00070740       ?state_case_type@?$output_processor@_WV?$string_output_adapter@_W@__crt_stdio_output@@V?$positional_parameter_base@_WV?$string_output_adapter@_W@__crt_stdio_output@@@2@@__crt_stdio_output@@AEAA_NXZ 0000000180071740 f i libucrtd:output.obj
 0001:00070ca0       ?state_case_type@?$output_processor@_WV?$string_output_adapter@_W@__crt_stdio_output@@V?$standard_base@_WV?$string_output_adapter@_W@__crt_stdio_output@@@2@@__crt_stdio_output@@AEAA_NXZ 0000000180071ca0 f i libucrtd:output.obj
 0001:00071200       ?state_case_width@?$output_processor@DV?$stream_output_adapter@D@__crt_stdio_output@@V?$format_validation_base@DV?$stream_output_adapter@D@__crt_stdio_output@@@2@@__crt_stdio_output@@AEAA_NXZ 0000000180072200 f i libucrtd:output.obj
 0001:00071290       ?state_case_width@?$output_processor@DV?$stream_output_adapter@D@__crt_stdio_output@@V?$positional_parameter_base@DV?$stream_output_adapter@D@__crt_stdio_output@@@2@@__crt_stdio_output@@AEAA_NXZ 0000000180072290 f i libucrtd:output.obj
 0001:00071320       ?state_case_width@?$output_processor@DV?$stream_output_adapter@D@__crt_stdio_output@@V?$standard_base@DV?$stream_output_adapter@D@__crt_stdio_output@@@2@@__crt_stdio_output@@AEAA_NXZ 0000000180072320 f i libucrtd:output.obj
 0001:000713b0       ?state_case_width@?$output_processor@DV?$string_output_adapter@D@__crt_stdio_output@@V?$format_validation_base@DV?$string_output_adapter@D@__crt_stdio_output@@@2@@__crt_stdio_output@@AEAA_NXZ 00000001800723b0 f i libucrtd:output.obj
 0001:00071440       ?state_case_width@?$output_processor@DV?$string_output_adapter@D@__crt_stdio_output@@V?$positional_parameter_base@DV?$string_output_adapter@D@__crt_stdio_output@@@2@@__crt_stdio_output@@AEAA_NXZ 0000000180072440 f i libucrtd:output.obj
 0001:000714d0       ?state_case_width@?$output_processor@DV?$string_output_adapter@D@__crt_stdio_output@@V?$standard_base@DV?$string_output_adapter@D@__crt_stdio_output@@@2@@__crt_stdio_output@@AEAA_NXZ 00000001800724d0 f i libucrtd:output.obj
 0001:00071560       ?state_case_width@?$output_processor@_WV?$stream_output_adapter@_W@__crt_stdio_output@@V?$format_validation_base@_WV?$stream_output_adapter@_W@__crt_stdio_output@@@2@@__crt_stdio_output@@AEAA_NXZ 0000000180072560 f i libucrtd:output.obj
 0001:000715f0       ?state_case_width@?$output_processor@_WV?$stream_output_adapter@_W@__crt_stdio_output@@V?$positional_parameter_base@_WV?$stream_output_adapter@_W@__crt_stdio_output@@@2@@__crt_stdio_output@@AEAA_NXZ 00000001800725f0 f i libucrtd:output.obj
 0001:00071680       ?state_case_width@?$output_processor@_WV?$stream_output_adapter@_W@__crt_stdio_output@@V?$standard_base@_WV?$stream_output_adapter@_W@__crt_stdio_output@@@2@@__crt_stdio_output@@AEAA_NXZ 0000000180072680 f i libucrtd:output.obj
 0001:00071710       ?state_case_width@?$output_processor@_WV?$string_output_adapter@_W@__crt_stdio_output@@V?$format_validation_base@_WV?$string_output_adapter@_W@__crt_stdio_output@@@2@@__crt_stdio_output@@AEAA_NXZ 0000000180072710 f i libucrtd:output.obj
 0001:000717a0       ?state_case_width@?$output_processor@_WV?$string_output_adapter@_W@__crt_stdio_output@@V?$positional_parameter_base@_WV?$string_output_adapter@_W@__crt_stdio_output@@@2@@__crt_stdio_output@@AEAA_NXZ 00000001800727a0 f i libucrtd:output.obj
 0001:00071830       ?state_case_width@?$output_processor@_WV?$string_output_adapter@_W@__crt_stdio_output@@V?$standard_base@_WV?$string_output_adapter@_W@__crt_stdio_output@@@2@@__crt_stdio_output@@AEAA_NXZ 0000000180072830 f i libucrtd:output.obj
 0001:000718c0       ?state_count@?$format_validation_base@DV?$stream_output_adapter@D@__crt_stdio_output@@@__crt_stdio_output@@KAIXZ 00000001800728c0 f i libucrtd:output.obj
 0001:000718d0       ?state_count@?$format_validation_base@DV?$string_output_adapter@D@__crt_stdio_output@@@__crt_stdio_output@@KAIXZ 00000001800728d0 f i libucrtd:output.obj
 0001:000718e0       ?state_count@?$format_validation_base@_WV?$stream_output_adapter@_W@__crt_stdio_output@@@__crt_stdio_output@@KAIXZ 00000001800728e0 f i libucrtd:output.obj
 0001:000718f0       ?state_count@?$format_validation_base@_WV?$string_output_adapter@_W@__crt_stdio_output@@@__crt_stdio_output@@KAIXZ 00000001800728f0 f i libucrtd:output.obj
 0001:00071900       ?state_count@?$standard_base@DV?$stream_output_adapter@D@__crt_stdio_output@@@__crt_stdio_output@@KAIXZ 0000000180072900 f i libucrtd:output.obj
 0001:00071910       ?state_count@?$standard_base@DV?$string_output_adapter@D@__crt_stdio_output@@@__crt_stdio_output@@KAIXZ 0000000180072910 f i libucrtd:output.obj
 0001:00071920       ?state_count@?$standard_base@_WV?$stream_output_adapter@_W@__crt_stdio_output@@@__crt_stdio_output@@KAIXZ 0000000180072920 f i libucrtd:output.obj
 0001:00071930       ?state_count@?$standard_base@_WV?$string_output_adapter@_W@__crt_stdio_output@@@__crt_stdio_output@@KAIXZ 0000000180072930 f i libucrtd:output.obj
 0001:00071940       ?state_transition_table@?$format_validation_base@DV?$stream_output_adapter@D@__crt_stdio_output@@@__crt_stdio_output@@KAAEBV?$spectre_mitigated_lookup_table@Ustate_transition_pair@__crt_stdio_output@@$0IA@@2@XZ 0000000180072940 f i libucrtd:output.obj
 0001:00071950       ?state_transition_table@?$format_validation_base@DV?$string_output_adapter@D@__crt_stdio_output@@@__crt_stdio_output@@KAAEBV?$spectre_mitigated_lookup_table@Ustate_transition_pair@__crt_stdio_output@@$0IA@@2@XZ 0000000180072950 f i libucrtd:output.obj
 0001:00071960       ?state_transition_table@?$format_validation_base@_WV?$stream_output_adapter@_W@__crt_stdio_output@@@__crt_stdio_output@@KAAEBV?$spectre_mitigated_lookup_table@Ustate_transition_pair@__crt_stdio_output@@$0IA@@2@XZ 0000000180072960 f i libucrtd:output.obj
 0001:00071970       ?state_transition_table@?$format_validation_base@_WV?$string_output_adapter@_W@__crt_stdio_output@@@__crt_stdio_output@@KAAEBV?$spectre_mitigated_lookup_table@Ustate_transition_pair@__crt_stdio_output@@$0IA@@2@XZ 0000000180072970 f i libucrtd:output.obj
 0001:00071980       ?state_transition_table@?$standard_base@DV?$stream_output_adapter@D@__crt_stdio_output@@@__crt_stdio_output@@KAAEBV?$spectre_mitigated_lookup_table@Ustate_transition_pair@__crt_stdio_output@@$0IA@@2@XZ 0000000180072980 f i libucrtd:output.obj
 0001:00071990       ?state_transition_table@?$standard_base@DV?$string_output_adapter@D@__crt_stdio_output@@@__crt_stdio_output@@KAAEBV?$spectre_mitigated_lookup_table@Ustate_transition_pair@__crt_stdio_output@@$0IA@@2@XZ 0000000180072990 f i libucrtd:output.obj
 0001:000719a0       ?state_transition_table@?$standard_base@_WV?$stream_output_adapter@_W@__crt_stdio_output@@@__crt_stdio_output@@KAAEBV?$spectre_mitigated_lookup_table@Ustate_transition_pair@__crt_stdio_output@@$0IA@@2@XZ 00000001800729a0 f i libucrtd:output.obj
 0001:000719b0       ?state_transition_table@?$standard_base@_WV?$string_output_adapter@_W@__crt_stdio_output@@@__crt_stdio_output@@KAAEBV?$spectre_mitigated_lookup_table@Ustate_transition_pair@__crt_stdio_output@@$0IA@@2@XZ 00000001800729b0 f i libucrtd:output.obj
 0001:000719c0       ?tchar_string@?$common_data@D@__crt_stdio_output@@IEAAAEAPEADD@Z 00000001800729c0 f i libucrtd:output.obj
 0001:000719e0       ?tchar_string@?$common_data@D@__crt_stdio_output@@IEAAAEAPEADXZ 00000001800729e0 f i libucrtd:output.obj
 0001:00071a00       ?tchar_string@?$common_data@_W@__crt_stdio_output@@IEAAAEAPEA_WXZ 0000000180072a00 f i libucrtd:output.obj
 0001:00071a20       ?tchar_string@?$common_data@_W@__crt_stdio_output@@IEAAAEAPEA_W_W@Z 0000000180072a20 f i libucrtd:output.obj
 0001:00071a40       ?to_integer_size@__crt_stdio_output@@YA_KW4length_modifier@1@@Z 0000000180072a40 f i libucrtd:output.obj
 0001:00071af0       ?type_case_X@?$output_processor@DV?$stream_output_adapter@D@__crt_stdio_output@@V?$format_validation_base@DV?$stream_output_adapter@D@__crt_stdio_output@@@2@@__crt_stdio_output@@AEAA_NXZ 0000000180072af0 f i libucrtd:output.obj
 0001:00071b10       ?type_case_X@?$output_processor@DV?$stream_output_adapter@D@__crt_stdio_output@@V?$positional_parameter_base@DV?$stream_output_adapter@D@__crt_stdio_output@@@2@@__crt_stdio_output@@AEAA_NXZ 0000000180072b10 f i libucrtd:output.obj
 0001:00071b30       ?type_case_X@?$output_processor@DV?$stream_output_adapter@D@__crt_stdio_output@@V?$standard_base@DV?$stream_output_adapter@D@__crt_stdio_output@@@2@@__crt_stdio_output@@AEAA_NXZ 0000000180072b30 f i libucrtd:output.obj
 0001:00071b50       ?type_case_X@?$output_processor@DV?$string_output_adapter@D@__crt_stdio_output@@V?$format_validation_base@DV?$string_output_adapter@D@__crt_stdio_output@@@2@@__crt_stdio_output@@AEAA_NXZ 0000000180072b50 f i libucrtd:output.obj
 0001:00071b70       ?type_case_X@?$output_processor@DV?$string_output_adapter@D@__crt_stdio_output@@V?$positional_parameter_base@DV?$string_output_adapter@D@__crt_stdio_output@@@2@@__crt_stdio_output@@AEAA_NXZ 0000000180072b70 f i libucrtd:output.obj
 0001:00071b90       ?type_case_X@?$output_processor@DV?$string_output_adapter@D@__crt_stdio_output@@V?$standard_base@DV?$string_output_adapter@D@__crt_stdio_output@@@2@@__crt_stdio_output@@AEAA_NXZ 0000000180072b90 f i libucrtd:output.obj
 0001:00071bb0       ?type_case_X@?$output_processor@_WV?$stream_output_adapter@_W@__crt_stdio_output@@V?$format_validation_base@_WV?$stream_output_adapter@_W@__crt_stdio_output@@@2@@__crt_stdio_output@@AEAA_NXZ 0000000180072bb0 f i libucrtd:output.obj
 0001:00071bd0       ?type_case_X@?$output_processor@_WV?$stream_output_adapter@_W@__crt_stdio_output@@V?$positional_parameter_base@_WV?$stream_output_adapter@_W@__crt_stdio_output@@@2@@__crt_stdio_output@@AEAA_NXZ 0000000180072bd0 f i libucrtd:output.obj
 0001:00071bf0       ?type_case_X@?$output_processor@_WV?$stream_output_adapter@_W@__crt_stdio_output@@V?$standard_base@_WV?$stream_output_adapter@_W@__crt_stdio_output@@@2@@__crt_stdio_output@@AEAA_NXZ 0000000180072bf0 f i libucrtd:output.obj
 0001:00071c10       ?type_case_X@?$output_processor@_WV?$string_output_adapter@_W@__crt_stdio_output@@V?$format_validation_base@_WV?$string_output_adapter@_W@__crt_stdio_output@@@2@@__crt_stdio_output@@AEAA_NXZ 0000000180072c10 f i libucrtd:output.obj
 0001:00071c30       ?type_case_X@?$output_processor@_WV?$string_output_adapter@_W@__crt_stdio_output@@V?$positional_parameter_base@_WV?$string_output_adapter@_W@__crt_stdio_output@@@2@@__crt_stdio_output@@AEAA_NXZ 0000000180072c30 f i libucrtd:output.obj
 0001:00071c50       ?type_case_X@?$output_processor@_WV?$string_output_adapter@_W@__crt_stdio_output@@V?$standard_base@_WV?$string_output_adapter@_W@__crt_stdio_output@@@2@@__crt_stdio_output@@AEAA_NXZ 0000000180072c50 f i libucrtd:output.obj
 0001:00071c70       ?type_case_Z@?$output_processor@DV?$stream_output_adapter@D@__crt_stdio_output@@V?$format_validation_base@DV?$stream_output_adapter@D@__crt_stdio_output@@@2@@__crt_stdio_output@@AEAA_NXZ 0000000180072c70 f i libucrtd:output.obj
 0001:00071d90       ?type_case_Z@?$output_processor@DV?$stream_output_adapter@D@__crt_stdio_output@@V?$positional_parameter_base@DV?$stream_output_adapter@D@__crt_stdio_output@@@2@@__crt_stdio_output@@AEAA_NXZ 0000000180072d90 f i libucrtd:output.obj
 0001:00071eb0       ?type_case_Z@?$output_processor@DV?$stream_output_adapter@D@__crt_stdio_output@@V?$standard_base@DV?$stream_output_adapter@D@__crt_stdio_output@@@2@@__crt_stdio_output@@AEAA_NXZ 0000000180072eb0 f i libucrtd:output.obj
 0001:00071fd0       ?type_case_Z@?$output_processor@DV?$string_output_adapter@D@__crt_stdio_output@@V?$format_validation_base@DV?$string_output_adapter@D@__crt_stdio_output@@@2@@__crt_stdio_output@@AEAA_NXZ 0000000180072fd0 f i libucrtd:output.obj
 0001:000720f0       ?type_case_Z@?$output_processor@DV?$string_output_adapter@D@__crt_stdio_output@@V?$positional_parameter_base@DV?$string_output_adapter@D@__crt_stdio_output@@@2@@__crt_stdio_output@@AEAA_NXZ 00000001800730f0 f i libucrtd:output.obj
 0001:00072210       ?type_case_Z@?$output_processor@DV?$string_output_adapter@D@__crt_stdio_output@@V?$standard_base@DV?$string_output_adapter@D@__crt_stdio_output@@@2@@__crt_stdio_output@@AEAA_NXZ 0000000180073210 f i libucrtd:output.obj
 0001:00072330       ?type_case_Z@?$output_processor@_WV?$stream_output_adapter@_W@__crt_stdio_output@@V?$format_validation_base@_WV?$stream_output_adapter@_W@__crt_stdio_output@@@2@@__crt_stdio_output@@AEAA_NXZ 0000000180073330 f i libucrtd:output.obj
 0001:00072450       ?type_case_Z@?$output_processor@_WV?$stream_output_adapter@_W@__crt_stdio_output@@V?$positional_parameter_base@_WV?$stream_output_adapter@_W@__crt_stdio_output@@@2@@__crt_stdio_output@@AEAA_NXZ 0000000180073450 f i libucrtd:output.obj
 0001:00072570       ?type_case_Z@?$output_processor@_WV?$stream_output_adapter@_W@__crt_stdio_output@@V?$standard_base@_WV?$stream_output_adapter@_W@__crt_stdio_output@@@2@@__crt_stdio_output@@AEAA_NXZ 0000000180073570 f i libucrtd:output.obj
 0001:00072690       ?type_case_Z@?$output_processor@_WV?$string_output_adapter@_W@__crt_stdio_output@@V?$format_validation_base@_WV?$string_output_adapter@_W@__crt_stdio_output@@@2@@__crt_stdio_output@@AEAA_NXZ 0000000180073690 f i libucrtd:output.obj
 0001:000727b0       ?type_case_Z@?$output_processor@_WV?$string_output_adapter@_W@__crt_stdio_output@@V?$positional_parameter_base@_WV?$string_output_adapter@_W@__crt_stdio_output@@@2@@__crt_stdio_output@@AEAA_NXZ 00000001800737b0 f i libucrtd:output.obj
 0001:000728d0       ?type_case_Z@?$output_processor@_WV?$string_output_adapter@_W@__crt_stdio_output@@V?$standard_base@_WV?$string_output_adapter@_W@__crt_stdio_output@@@2@@__crt_stdio_output@@AEAA_NXZ 00000001800738d0 f i libucrtd:output.obj
 0001:000729f0       ?type_case_a@?$output_processor@DV?$stream_output_adapter@D@__crt_stdio_output@@V?$format_validation_base@DV?$stream_output_adapter@D@__crt_stdio_output@@@2@@__crt_stdio_output@@AEAA_NXZ 00000001800739f0 f i libucrtd:output.obj
 0001:00072dc0       ?type_case_a@?$output_processor@DV?$stream_output_adapter@D@__crt_stdio_output@@V?$positional_parameter_base@DV?$stream_output_adapter@D@__crt_stdio_output@@@2@@__crt_stdio_output@@AEAA_NXZ 0000000180073dc0 f i libucrtd:output.obj
 0001:00073190       ?type_case_a@?$output_processor@DV?$stream_output_adapter@D@__crt_stdio_output@@V?$standard_base@DV?$stream_output_adapter@D@__crt_stdio_output@@@2@@__crt_stdio_output@@AEAA_NXZ 0000000180074190 f i libucrtd:output.obj
 0001:00073560       ?type_case_a@?$output_processor@DV?$string_output_adapter@D@__crt_stdio_output@@V?$format_validation_base@DV?$string_output_adapter@D@__crt_stdio_output@@@2@@__crt_stdio_output@@AEAA_NXZ 0000000180074560 f i libucrtd:output.obj
 0001:00073930       ?type_case_a@?$output_processor@DV?$string_output_adapter@D@__crt_stdio_output@@V?$positional_parameter_base@DV?$string_output_adapter@D@__crt_stdio_output@@@2@@__crt_stdio_output@@AEAA_NXZ 0000000180074930 f i libucrtd:output.obj
 0001:00073d00       ?type_case_a@?$output_processor@DV?$string_output_adapter@D@__crt_stdio_output@@V?$standard_base@DV?$string_output_adapter@D@__crt_stdio_output@@@2@@__crt_stdio_output@@AEAA_NXZ 0000000180074d00 f i libucrtd:output.obj
 0001:000740d0       ?type_case_a@?$output_processor@_WV?$stream_output_adapter@_W@__crt_stdio_output@@V?$format_validation_base@_WV?$stream_output_adapter@_W@__crt_stdio_output@@@2@@__crt_stdio_output@@AEAA_NXZ 00000001800750d0 f i libucrtd:output.obj
 0001:000744a0       ?type_case_a@?$output_processor@_WV?$stream_output_adapter@_W@__crt_stdio_output@@V?$positional_parameter_base@_WV?$stream_output_adapter@_W@__crt_stdio_output@@@2@@__crt_stdio_output@@AEAA_NXZ 00000001800754a0 f i libucrtd:output.obj
 0001:00074870       ?type_case_a@?$output_processor@_WV?$stream_output_adapter@_W@__crt_stdio_output@@V?$standard_base@_WV?$stream_output_adapter@_W@__crt_stdio_output@@@2@@__crt_stdio_output@@AEAA_NXZ 0000000180075870 f i libucrtd:output.obj
 0001:00074c40       ?type_case_a@?$output_processor@_WV?$string_output_adapter@_W@__crt_stdio_output@@V?$format_validation_base@_WV?$string_output_adapter@_W@__crt_stdio_output@@@2@@__crt_stdio_output@@AEAA_NXZ 0000000180075c40 f i libucrtd:output.obj
 0001:00075010       ?type_case_a@?$output_processor@_WV?$string_output_adapter@_W@__crt_stdio_output@@V?$positional_parameter_base@_WV?$string_output_adapter@_W@__crt_stdio_output@@@2@@__crt_stdio_output@@AEAA_NXZ 0000000180076010 f i libucrtd:output.obj
 0001:000753e0       ?type_case_a@?$output_processor@_WV?$string_output_adapter@_W@__crt_stdio_output@@V?$standard_base@_WV?$string_output_adapter@_W@__crt_stdio_output@@@2@@__crt_stdio_output@@AEAA_NXZ 00000001800763e0 f i libucrtd:output.obj
 0001:000757b0       ?type_case_c@?$output_processor@DV?$stream_output_adapter@D@__crt_stdio_output@@V?$format_validation_base@DV?$stream_output_adapter@D@__crt_stdio_output@@@2@@__crt_stdio_output@@AEAA_NXZ 00000001800767b0 f i libucrtd:output.obj
 0001:000757d0       ?type_case_c@?$output_processor@DV?$stream_output_adapter@D@__crt_stdio_output@@V?$positional_parameter_base@DV?$stream_output_adapter@D@__crt_stdio_output@@@2@@__crt_stdio_output@@AEAA_NXZ 00000001800767d0 f i libucrtd:output.obj
 0001:000757f0       ?type_case_c@?$output_processor@DV?$stream_output_adapter@D@__crt_stdio_output@@V?$standard_base@DV?$stream_output_adapter@D@__crt_stdio_output@@@2@@__crt_stdio_output@@AEAA_NXZ 00000001800767f0 f i libucrtd:output.obj
 0001:00075810       ?type_case_c@?$output_processor@DV?$string_output_adapter@D@__crt_stdio_output@@V?$format_validation_base@DV?$string_output_adapter@D@__crt_stdio_output@@@2@@__crt_stdio_output@@AEAA_NXZ 0000000180076810 f i libucrtd:output.obj
 0001:00075830       ?type_case_c@?$output_processor@DV?$string_output_adapter@D@__crt_stdio_output@@V?$positional_parameter_base@DV?$string_output_adapter@D@__crt_stdio_output@@@2@@__crt_stdio_output@@AEAA_NXZ 0000000180076830 f i libucrtd:output.obj
 0001:00075850       ?type_case_c@?$output_processor@DV?$string_output_adapter@D@__crt_stdio_output@@V?$standard_base@DV?$string_output_adapter@D@__crt_stdio_output@@@2@@__crt_stdio_output@@AEAA_NXZ 0000000180076850 f i libucrtd:output.obj
 0001:00075870       ?type_case_c@?$output_processor@_WV?$stream_output_adapter@_W@__crt_stdio_output@@V?$format_validation_base@_WV?$stream_output_adapter@_W@__crt_stdio_output@@@2@@__crt_stdio_output@@AEAA_NXZ 0000000180076870 f i libucrtd:output.obj
 0001:00075890       ?type_case_c@?$output_processor@_WV?$stream_output_adapter@_W@__crt_stdio_output@@V?$positional_parameter_base@_WV?$stream_output_adapter@_W@__crt_stdio_output@@@2@@__crt_stdio_output@@AEAA_NXZ 0000000180076890 f i libucrtd:output.obj
 0001:000758b0       ?type_case_c@?$output_processor@_WV?$stream_output_adapter@_W@__crt_stdio_output@@V?$standard_base@_WV?$stream_output_adapter@_W@__crt_stdio_output@@@2@@__crt_stdio_output@@AEAA_NXZ 00000001800768b0 f i libucrtd:output.obj
 0001:000758d0       ?type_case_c@?$output_processor@_WV?$string_output_adapter@_W@__crt_stdio_output@@V?$format_validation_base@_WV?$string_output_adapter@_W@__crt_stdio_output@@@2@@__crt_stdio_output@@AEAA_NXZ 00000001800768d0 f i libucrtd:output.obj
 0001:000758f0       ?type_case_c@?$output_processor@_WV?$string_output_adapter@_W@__crt_stdio_output@@V?$positional_parameter_base@_WV?$string_output_adapter@_W@__crt_stdio_output@@@2@@__crt_stdio_output@@AEAA_NXZ 00000001800768f0 f i libucrtd:output.obj
 0001:00075910       ?type_case_c@?$output_processor@_WV?$string_output_adapter@_W@__crt_stdio_output@@V?$standard_base@_WV?$string_output_adapter@_W@__crt_stdio_output@@@2@@__crt_stdio_output@@AEAA_NXZ 0000000180076910 f i libucrtd:output.obj
 0001:00075930       ?type_case_c_tchar@?$output_processor@DV?$stream_output_adapter@D@__crt_stdio_output@@V?$format_validation_base@DV?$stream_output_adapter@D@__crt_stdio_output@@@2@@__crt_stdio_output@@AEAA_ND@Z 0000000180076930 f i libucrtd:output.obj
 0001:00075a90       ?type_case_c_tchar@?$output_processor@DV?$stream_output_adapter@D@__crt_stdio_output@@V?$positional_parameter_base@DV?$stream_output_adapter@D@__crt_stdio_output@@@2@@__crt_stdio_output@@AEAA_ND@Z 0000000180076a90 f i libucrtd:output.obj
 0001:00075bf0       ?type_case_c_tchar@?$output_processor@DV?$stream_output_adapter@D@__crt_stdio_output@@V?$standard_base@DV?$stream_output_adapter@D@__crt_stdio_output@@@2@@__crt_stdio_output@@AEAA_ND@Z 0000000180076bf0 f i libucrtd:output.obj
 0001:00075d50       ?type_case_c_tchar@?$output_processor@DV?$string_output_adapter@D@__crt_stdio_output@@V?$format_validation_base@DV?$string_output_adapter@D@__crt_stdio_output@@@2@@__crt_stdio_output@@AEAA_ND@Z 0000000180076d50 f i libucrtd:output.obj
 0001:00075eb0       ?type_case_c_tchar@?$output_processor@DV?$string_output_adapter@D@__crt_stdio_output@@V?$positional_parameter_base@DV?$string_output_adapter@D@__crt_stdio_output@@@2@@__crt_stdio_output@@AEAA_ND@Z 0000000180076eb0 f i libucrtd:output.obj
 0001:00076010       ?type_case_c_tchar@?$output_processor@DV?$string_output_adapter@D@__crt_stdio_output@@V?$standard_base@DV?$string_output_adapter@D@__crt_stdio_output@@@2@@__crt_stdio_output@@AEAA_ND@Z 0000000180077010 f i libucrtd:output.obj
 0001:00076170       ?type_case_c_tchar@?$output_processor@_WV?$stream_output_adapter@_W@__crt_stdio_output@@V?$format_validation_base@_WV?$stream_output_adapter@_W@__crt_stdio_output@@@2@@__crt_stdio_output@@AEAA_N_W@Z 0000000180077170 f i libucrtd:output.obj
 0001:000762a0       ?type_case_c_tchar@?$output_processor@_WV?$stream_output_adapter@_W@__crt_stdio_output@@V?$positional_parameter_base@_WV?$stream_output_adapter@_W@__crt_stdio_output@@@2@@__crt_stdio_output@@AEAA_N_W@Z 00000001800772a0 f i libucrtd:output.obj
 0001:000763d0       ?type_case_c_tchar@?$output_processor@_WV?$stream_output_adapter@_W@__crt_stdio_output@@V?$standard_base@_WV?$stream_output_adapter@_W@__crt_stdio_output@@@2@@__crt_stdio_output@@AEAA_N_W@Z 00000001800773d0 f i libucrtd:output.obj
 0001:00076500       ?type_case_c_tchar@?$output_processor@_WV?$string_output_adapter@_W@__crt_stdio_output@@V?$format_validation_base@_WV?$string_output_adapter@_W@__crt_stdio_output@@@2@@__crt_stdio_output@@AEAA_N_W@Z 0000000180077500 f i libucrtd:output.obj
 0001:00076630       ?type_case_c_tchar@?$output_processor@_WV?$string_output_adapter@_W@__crt_stdio_output@@V?$positional_parameter_base@_WV?$string_output_adapter@_W@__crt_stdio_output@@@2@@__crt_stdio_output@@AEAA_N_W@Z 0000000180077630 f i libucrtd:output.obj
 0001:00076760       ?type_case_c_tchar@?$output_processor@_WV?$string_output_adapter@_W@__crt_stdio_output@@V?$standard_base@_WV?$string_output_adapter@_W@__crt_stdio_output@@@2@@__crt_stdio_output@@AEAA_N_W@Z 0000000180077760 f i libucrtd:output.obj
 0001:00076890       ?type_case_d@?$output_processor@DV?$stream_output_adapter@D@__crt_stdio_output@@V?$format_validation_base@DV?$stream_output_adapter@D@__crt_stdio_output@@@2@@__crt_stdio_output@@AEAA_NXZ 0000000180077890 f i libucrtd:output.obj
 0001:000768c0       ?type_case_d@?$output_processor@DV?$stream_output_adapter@D@__crt_stdio_output@@V?$positional_parameter_base@DV?$stream_output_adapter@D@__crt_stdio_output@@@2@@__crt_stdio_output@@AEAA_NXZ 00000001800778c0 f i libucrtd:output.obj
 0001:000768f0       ?type_case_d@?$output_processor@DV?$stream_output_adapter@D@__crt_stdio_output@@V?$standard_base@DV?$stream_output_adapter@D@__crt_stdio_output@@@2@@__crt_stdio_output@@AEAA_NXZ 00000001800778f0 f i libucrtd:output.obj
 0001:00076920       ?type_case_d@?$output_processor@DV?$string_output_adapter@D@__crt_stdio_output@@V?$format_validation_base@DV?$string_output_adapter@D@__crt_stdio_output@@@2@@__crt_stdio_output@@AEAA_NXZ 0000000180077920 f i libucrtd:output.obj
 0001:00076950       ?type_case_d@?$output_processor@DV?$string_output_adapter@D@__crt_stdio_output@@V?$positional_parameter_base@DV?$string_output_adapter@D@__crt_stdio_output@@@2@@__crt_stdio_output@@AEAA_NXZ 0000000180077950 f i libucrtd:output.obj
 0001:00076980       ?type_case_d@?$output_processor@DV?$string_output_adapter@D@__crt_stdio_output@@V?$standard_base@DV?$string_output_adapter@D@__crt_stdio_output@@@2@@__crt_stdio_output@@AEAA_NXZ 0000000180077980 f i libucrtd:output.obj
 0001:000769b0       ?type_case_d@?$output_processor@_WV?$stream_output_adapter@_W@__crt_stdio_output@@V?$format_validation_base@_WV?$stream_output_adapter@_W@__crt_stdio_output@@@2@@__crt_stdio_output@@AEAA_NXZ 00000001800779b0 f i libucrtd:output.obj
 0001:000769e0       ?type_case_d@?$output_processor@_WV?$stream_output_adapter@_W@__crt_stdio_output@@V?$positional_parameter_base@_WV?$stream_output_adapter@_W@__crt_stdio_output@@@2@@__crt_stdio_output@@AEAA_NXZ 00000001800779e0 f i libucrtd:output.obj
 0001:00076a10       ?type_case_d@?$output_processor@_WV?$stream_output_adapter@_W@__crt_stdio_output@@V?$standard_base@_WV?$stream_output_adapter@_W@__crt_stdio_output@@@2@@__crt_stdio_output@@AEAA_NXZ 0000000180077a10 f i libucrtd:output.obj
 0001:00076a40       ?type_case_d@?$output_processor@_WV?$string_output_adapter@_W@__crt_stdio_output@@V?$format_validation_base@_WV?$string_output_adapter@_W@__crt_stdio_output@@@2@@__crt_stdio_output@@AEAA_NXZ 0000000180077a40 f i libucrtd:output.obj
 0001:00076a70       ?type_case_d@?$output_processor@_WV?$string_output_adapter@_W@__crt_stdio_output@@V?$positional_parameter_base@_WV?$string_output_adapter@_W@__crt_stdio_output@@@2@@__crt_stdio_output@@AEAA_NXZ 0000000180077a70 f i libucrtd:output.obj
 0001:00076aa0       ?type_case_d@?$output_processor@_WV?$string_output_adapter@_W@__crt_stdio_output@@V?$standard_base@_WV?$string_output_adapter@_W@__crt_stdio_output@@@2@@__crt_stdio_output@@AEAA_NXZ 0000000180077aa0 f i libucrtd:output.obj
 0001:00076ad0       ?type_case_integer@?$output_processor@DV?$stream_output_adapter@D@__crt_stdio_output@@V?$format_validation_base@DV?$stream_output_adapter@D@__crt_stdio_output@@@2@@__crt_stdio_output@@AEAA_NI_N@Z 0000000180077ad0 f i libucrtd:output.obj
 0001:00076f20       ?type_case_integer@?$output_processor@DV?$stream_output_adapter@D@__crt_stdio_output@@V?$positional_parameter_base@DV?$stream_output_adapter@D@__crt_stdio_output@@@2@@__crt_stdio_output@@AEAA_NI_N@Z 0000000180077f20 f i libucrtd:output.obj
 0001:00077370       ?type_case_integer@?$output_processor@DV?$stream_output_adapter@D@__crt_stdio_output@@V?$standard_base@DV?$stream_output_adapter@D@__crt_stdio_output@@@2@@__crt_stdio_output@@AEAA_NI_N@Z 0000000180078370 f i libucrtd:output.obj
 0001:000777c0       ?type_case_integer@?$output_processor@DV?$string_output_adapter@D@__crt_stdio_output@@V?$format_validation_base@DV?$string_output_adapter@D@__crt_stdio_output@@@2@@__crt_stdio_output@@AEAA_NI_N@Z 00000001800787c0 f i libucrtd:output.obj
 0001:00077c10       ?type_case_integer@?$output_processor@DV?$string_output_adapter@D@__crt_stdio_output@@V?$positional_parameter_base@DV?$string_output_adapter@D@__crt_stdio_output@@@2@@__crt_stdio_output@@AEAA_NI_N@Z 0000000180078c10 f i libucrtd:output.obj
 0001:00078060       ?type_case_integer@?$output_processor@DV?$string_output_adapter@D@__crt_stdio_output@@V?$standard_base@DV?$string_output_adapter@D@__crt_stdio_output@@@2@@__crt_stdio_output@@AEAA_NI_N@Z 0000000180079060 f i libucrtd:output.obj
 0001:000784b0       ?type_case_integer@?$output_processor@_WV?$stream_output_adapter@_W@__crt_stdio_output@@V?$format_validation_base@_WV?$stream_output_adapter@_W@__crt_stdio_output@@@2@@__crt_stdio_output@@AEAA_NI_N@Z 00000001800794b0 f i libucrtd:output.obj
 0001:00078900       ?type_case_integer@?$output_processor@_WV?$stream_output_adapter@_W@__crt_stdio_output@@V?$positional_parameter_base@_WV?$stream_output_adapter@_W@__crt_stdio_output@@@2@@__crt_stdio_output@@AEAA_NI_N@Z 0000000180079900 f i libucrtd:output.obj
 0001:00078d50       ?type_case_integer@?$output_processor@_WV?$stream_output_adapter@_W@__crt_stdio_output@@V?$standard_base@_WV?$stream_output_adapter@_W@__crt_stdio_output@@@2@@__crt_stdio_output@@AEAA_NI_N@Z 0000000180079d50 f i libucrtd:output.obj
 0001:000791a0       ?type_case_integer@?$output_processor@_WV?$string_output_adapter@_W@__crt_stdio_output@@V?$format_validation_base@_WV?$string_output_adapter@_W@__crt_stdio_output@@@2@@__crt_stdio_output@@AEAA_NI_N@Z 000000018007a1a0 f i libucrtd:output.obj
 0001:000795f0       ?type_case_integer@?$output_processor@_WV?$string_output_adapter@_W@__crt_stdio_output@@V?$positional_parameter_base@_WV?$string_output_adapter@_W@__crt_stdio_output@@@2@@__crt_stdio_output@@AEAA_NI_N@Z 000000018007a5f0 f i libucrtd:output.obj
 0001:00079a40       ?type_case_integer@?$output_processor@_WV?$string_output_adapter@_W@__crt_stdio_output@@V?$standard_base@_WV?$string_output_adapter@_W@__crt_stdio_output@@@2@@__crt_stdio_output@@AEAA_NI_N@Z 000000018007aa40 f i libucrtd:output.obj
 0001:00079e90       ?type_case_n@?$output_processor@DV?$stream_output_adapter@D@__crt_stdio_output@@V?$format_validation_base@DV?$stream_output_adapter@D@__crt_stdio_output@@@2@@__crt_stdio_output@@AEAA_NXZ 000000018007ae90 f i libucrtd:output.obj
 0001:0007a0d0       ?type_case_n@?$output_processor@DV?$stream_output_adapter@D@__crt_stdio_output@@V?$positional_parameter_base@DV?$stream_output_adapter@D@__crt_stdio_output@@@2@@__crt_stdio_output@@AEAA_NXZ 000000018007b0d0 f i libucrtd:output.obj
 0001:0007a310       ?type_case_n@?$output_processor@DV?$stream_output_adapter@D@__crt_stdio_output@@V?$standard_base@DV?$stream_output_adapter@D@__crt_stdio_output@@@2@@__crt_stdio_output@@AEAA_NXZ 000000018007b310 f i libucrtd:output.obj
 0001:0007a550       ?type_case_n@?$output_processor@DV?$string_output_adapter@D@__crt_stdio_output@@V?$format_validation_base@DV?$string_output_adapter@D@__crt_stdio_output@@@2@@__crt_stdio_output@@AEAA_NXZ 000000018007b550 f i libucrtd:output.obj
 0001:0007a790       ?type_case_n@?$output_processor@DV?$string_output_adapter@D@__crt_stdio_output@@V?$positional_parameter_base@DV?$string_output_adapter@D@__crt_stdio_output@@@2@@__crt_stdio_output@@AEAA_NXZ 000000018007b790 f i libucrtd:output.obj
 0001:0007a9d0       ?type_case_n@?$output_processor@DV?$string_output_adapter@D@__crt_stdio_output@@V?$standard_base@DV?$string_output_adapter@D@__crt_stdio_output@@@2@@__crt_stdio_output@@AEAA_NXZ 000000018007b9d0 f i libucrtd:output.obj
 0001:0007ac10       ?type_case_n@?$output_processor@_WV?$stream_output_adapter@_W@__crt_stdio_output@@V?$format_validation_base@_WV?$stream_output_adapter@_W@__crt_stdio_output@@@2@@__crt_stdio_output@@AEAA_NXZ 000000018007bc10 f i libucrtd:output.obj
 0001:0007ae50       ?type_case_n@?$output_processor@_WV?$stream_output_adapter@_W@__crt_stdio_output@@V?$positional_parameter_base@_WV?$stream_output_adapter@_W@__crt_stdio_output@@@2@@__crt_stdio_output@@AEAA_NXZ 000000018007be50 f i libucrtd:output.obj
 0001:0007b090       ?type_case_n@?$output_processor@_WV?$stream_output_adapter@_W@__crt_stdio_output@@V?$standard_base@_WV?$stream_output_adapter@_W@__crt_stdio_output@@@2@@__crt_stdio_output@@AEAA_NXZ 000000018007c090 f i libucrtd:output.obj
 0001:0007b2d0       ?type_case_n@?$output_processor@_WV?$string_output_adapter@_W@__crt_stdio_output@@V?$format_validation_base@_WV?$string_output_adapter@_W@__crt_stdio_output@@@2@@__crt_stdio_output@@AEAA_NXZ 000000018007c2d0 f i libucrtd:output.obj
 0001:0007b510       ?type_case_n@?$output_processor@_WV?$string_output_adapter@_W@__crt_stdio_output@@V?$positional_parameter_base@_WV?$string_output_adapter@_W@__crt_stdio_output@@@2@@__crt_stdio_output@@AEAA_NXZ 000000018007c510 f i libucrtd:output.obj
 0001:0007b750       ?type_case_n@?$output_processor@_WV?$string_output_adapter@_W@__crt_stdio_output@@V?$standard_base@_WV?$string_output_adapter@_W@__crt_stdio_output@@@2@@__crt_stdio_output@@AEAA_NXZ 000000018007c750 f i libucrtd:output.obj
 0001:0007b990       ?type_case_o@?$output_processor@DV?$stream_output_adapter@D@__crt_stdio_output@@V?$format_validation_base@DV?$stream_output_adapter@D@__crt_stdio_output@@@2@@__crt_stdio_output@@AEAA_NXZ 000000018007c990 f i libucrtd:output.obj
 0001:0007b9e0       ?type_case_o@?$output_processor@DV?$stream_output_adapter@D@__crt_stdio_output@@V?$positional_parameter_base@DV?$stream_output_adapter@D@__crt_stdio_output@@@2@@__crt_stdio_output@@AEAA_NXZ 000000018007c9e0 f i libucrtd:output.obj
 0001:0007ba30       ?type_case_o@?$output_processor@DV?$stream_output_adapter@D@__crt_stdio_output@@V?$standard_base@DV?$stream_output_adapter@D@__crt_stdio_output@@@2@@__crt_stdio_output@@AEAA_NXZ 000000018007ca30 f i libucrtd:output.obj
 0001:0007ba80       ?type_case_o@?$output_processor@DV?$string_output_adapter@D@__crt_stdio_output@@V?$format_validation_base@DV?$string_output_adapter@D@__crt_stdio_output@@@2@@__crt_stdio_output@@AEAA_NXZ 000000018007ca80 f i libucrtd:output.obj
 0001:0007bad0       ?type_case_o@?$output_processor@DV?$string_output_adapter@D@__crt_stdio_output@@V?$positional_parameter_base@DV?$string_output_adapter@D@__crt_stdio_output@@@2@@__crt_stdio_output@@AEAA_NXZ 000000018007cad0 f i libucrtd:output.obj
 0001:0007bb20       ?type_case_o@?$output_processor@DV?$string_output_adapter@D@__crt_stdio_output@@V?$standard_base@DV?$string_output_adapter@D@__crt_stdio_output@@@2@@__crt_stdio_output@@AEAA_NXZ 000000018007cb20 f i libucrtd:output.obj
 0001:0007bb70       ?type_case_o@?$output_processor@_WV?$stream_output_adapter@_W@__crt_stdio_output@@V?$format_validation_base@_WV?$stream_output_adapter@_W@__crt_stdio_output@@@2@@__crt_stdio_output@@AEAA_NXZ 000000018007cb70 f i libucrtd:output.obj
 0001:0007bbc0       ?type_case_o@?$output_processor@_WV?$stream_output_adapter@_W@__crt_stdio_output@@V?$positional_parameter_base@_WV?$stream_output_adapter@_W@__crt_stdio_output@@@2@@__crt_stdio_output@@AEAA_NXZ 000000018007cbc0 f i libucrtd:output.obj
 0001:0007bc10       ?type_case_o@?$output_processor@_WV?$stream_output_adapter@_W@__crt_stdio_output@@V?$standard_base@_WV?$stream_output_adapter@_W@__crt_stdio_output@@@2@@__crt_stdio_output@@AEAA_NXZ 000000018007cc10 f i libucrtd:output.obj
 0001:0007bc60       ?type_case_o@?$output_processor@_WV?$string_output_adapter@_W@__crt_stdio_output@@V?$format_validation_base@_WV?$string_output_adapter@_W@__crt_stdio_output@@@2@@__crt_stdio_output@@AEAA_NXZ 000000018007cc60 f i libucrtd:output.obj
 0001:0007bcb0       ?type_case_o@?$output_processor@_WV?$string_output_adapter@_W@__crt_stdio_output@@V?$positional_parameter_base@_WV?$string_output_adapter@_W@__crt_stdio_output@@@2@@__crt_stdio_output@@AEAA_NXZ 000000018007ccb0 f i libucrtd:output.obj
 0001:0007bd00       ?type_case_o@?$output_processor@_WV?$string_output_adapter@_W@__crt_stdio_output@@V?$standard_base@_WV?$string_output_adapter@_W@__crt_stdio_output@@@2@@__crt_stdio_output@@AEAA_NXZ 000000018007cd00 f i libucrtd:output.obj
 0001:0007bd50       ?type_case_p@?$output_processor@DV?$stream_output_adapter@D@__crt_stdio_output@@V?$format_validation_base@DV?$stream_output_adapter@D@__crt_stdio_output@@@2@@__crt_stdio_output@@AEAA_NXZ 000000018007cd50 f i libucrtd:output.obj
 0001:0007bd90       ?type_case_p@?$output_processor@DV?$stream_output_adapter@D@__crt_stdio_output@@V?$positional_parameter_base@DV?$stream_output_adapter@D@__crt_stdio_output@@@2@@__crt_stdio_output@@AEAA_NXZ 000000018007cd90 f i libucrtd:output.obj
 0001:0007bdd0       ?type_case_p@?$output_processor@DV?$stream_output_adapter@D@__crt_stdio_output@@V?$standard_base@DV?$stream_output_adapter@D@__crt_stdio_output@@@2@@__crt_stdio_output@@AEAA_NXZ 000000018007cdd0 f i libucrtd:output.obj
 0001:0007be10       ?type_case_p@?$output_processor@DV?$string_output_adapter@D@__crt_stdio_output@@V?$format_validation_base@DV?$string_output_adapter@D@__crt_stdio_output@@@2@@__crt_stdio_output@@AEAA_NXZ 000000018007ce10 f i libucrtd:output.obj
 0001:0007be50       ?type_case_p@?$output_processor@DV?$string_output_adapter@D@__crt_stdio_output@@V?$positional_parameter_base@DV?$string_output_adapter@D@__crt_stdio_output@@@2@@__crt_stdio_output@@AEAA_NXZ 000000018007ce50 f i libucrtd:output.obj
 0001:0007be90       ?type_case_p@?$output_processor@DV?$string_output_adapter@D@__crt_stdio_output@@V?$standard_base@DV?$string_output_adapter@D@__crt_stdio_output@@@2@@__crt_stdio_output@@AEAA_NXZ 000000018007ce90 f i libucrtd:output.obj
 0001:0007bed0       ?type_case_p@?$output_processor@_WV?$stream_output_adapter@_W@__crt_stdio_output@@V?$format_validation_base@_WV?$stream_output_adapter@_W@__crt_stdio_output@@@2@@__crt_stdio_output@@AEAA_NXZ 000000018007ced0 f i libucrtd:output.obj
 0001:0007bf10       ?type_case_p@?$output_processor@_WV?$stream_output_adapter@_W@__crt_stdio_output@@V?$positional_parameter_base@_WV?$stream_output_adapter@_W@__crt_stdio_output@@@2@@__crt_stdio_output@@AEAA_NXZ 000000018007cf10 f i libucrtd:output.obj
 0001:0007bf50       ?type_case_p@?$output_processor@_WV?$stream_output_adapter@_W@__crt_stdio_output@@V?$standard_base@_WV?$stream_output_adapter@_W@__crt_stdio_output@@@2@@__crt_stdio_output@@AEAA_NXZ 000000018007cf50 f i libucrtd:output.obj
 0001:0007bf90       ?type_case_p@?$output_processor@_WV?$string_output_adapter@_W@__crt_stdio_output@@V?$format_validation_base@_WV?$string_output_adapter@_W@__crt_stdio_output@@@2@@__crt_stdio_output@@AEAA_NXZ 000000018007cf90 f i libucrtd:output.obj
 0001:0007bfd0       ?type_case_p@?$output_processor@_WV?$string_output_adapter@_W@__crt_stdio_output@@V?$positional_parameter_base@_WV?$string_output_adapter@_W@__crt_stdio_output@@@2@@__crt_stdio_output@@AEAA_NXZ 000000018007cfd0 f i libucrtd:output.obj
 0001:0007c010       ?type_case_p@?$output_processor@_WV?$string_output_adapter@_W@__crt_stdio_output@@V?$standard_base@_WV?$string_output_adapter@_W@__crt_stdio_output@@@2@@__crt_stdio_output@@AEAA_NXZ 000000018007d010 f i libucrtd:output.obj
 0001:0007c050       ?type_case_s@?$output_processor@DV?$stream_output_adapter@D@__crt_stdio_output@@V?$format_validation_base@DV?$stream_output_adapter@D@__crt_stdio_output@@@2@@__crt_stdio_output@@AEAA_NXZ 000000018007d050 f i libucrtd:output.obj
 0001:0007c170       ?type_case_s@?$output_processor@DV?$stream_output_adapter@D@__crt_stdio_output@@V?$positional_parameter_base@DV?$stream_output_adapter@D@__crt_stdio_output@@@2@@__crt_stdio_output@@AEAA_NXZ 000000018007d170 f i libucrtd:output.obj
 0001:0007c290       ?type_case_s@?$output_processor@DV?$stream_output_adapter@D@__crt_stdio_output@@V?$standard_base@DV?$stream_output_adapter@D@__crt_stdio_output@@@2@@__crt_stdio_output@@AEAA_NXZ 000000018007d290 f i libucrtd:output.obj
 0001:0007c3b0       ?type_case_s@?$output_processor@DV?$string_output_adapter@D@__crt_stdio_output@@V?$format_validation_base@DV?$string_output_adapter@D@__crt_stdio_output@@@2@@__crt_stdio_output@@AEAA_NXZ 000000018007d3b0 f i libucrtd:output.obj
 0001:0007c4d0       ?type_case_s@?$output_processor@DV?$string_output_adapter@D@__crt_stdio_output@@V?$positional_parameter_base@DV?$string_output_adapter@D@__crt_stdio_output@@@2@@__crt_stdio_output@@AEAA_NXZ 000000018007d4d0 f i libucrtd:output.obj
 0001:0007c5f0       ?type_case_s@?$output_processor@DV?$string_output_adapter@D@__crt_stdio_output@@V?$standard_base@DV?$string_output_adapter@D@__crt_stdio_output@@@2@@__crt_stdio_output@@AEAA_NXZ 000000018007d5f0 f i libucrtd:output.obj
 0001:0007c710       ?type_case_s@?$output_processor@_WV?$stream_output_adapter@_W@__crt_stdio_output@@V?$format_validation_base@_WV?$stream_output_adapter@_W@__crt_stdio_output@@@2@@__crt_stdio_output@@AEAA_NXZ 000000018007d710 f i libucrtd:output.obj
 0001:0007c830       ?type_case_s@?$output_processor@_WV?$stream_output_adapter@_W@__crt_stdio_output@@V?$positional_parameter_base@_WV?$stream_output_adapter@_W@__crt_stdio_output@@@2@@__crt_stdio_output@@AEAA_NXZ 000000018007d830 f i libucrtd:output.obj
 0001:0007c950       ?type_case_s@?$output_processor@_WV?$stream_output_adapter@_W@__crt_stdio_output@@V?$standard_base@_WV?$stream_output_adapter@_W@__crt_stdio_output@@@2@@__crt_stdio_output@@AEAA_NXZ 000000018007d950 f i libucrtd:output.obj
 0001:0007ca70       ?type_case_s@?$output_processor@_WV?$string_output_adapter@_W@__crt_stdio_output@@V?$format_validation_base@_WV?$string_output_adapter@_W@__crt_stdio_output@@@2@@__crt_stdio_output@@AEAA_NXZ 000000018007da70 f i libucrtd:output.obj
 0001:0007cb90       ?type_case_s@?$output_processor@_WV?$string_output_adapter@_W@__crt_stdio_output@@V?$positional_parameter_base@_WV?$string_output_adapter@_W@__crt_stdio_output@@@2@@__crt_stdio_output@@AEAA_NXZ 000000018007db90 f i libucrtd:output.obj
 0001:0007ccb0       ?type_case_s@?$output_processor@_WV?$string_output_adapter@_W@__crt_stdio_output@@V?$standard_base@_WV?$string_output_adapter@_W@__crt_stdio_output@@@2@@__crt_stdio_output@@AEAA_NXZ 000000018007dcb0 f i libucrtd:output.obj
 0001:0007cdd0       ?type_case_s_compute_narrow_string_length@?$output_processor@DV?$stream_output_adapter@D@__crt_stdio_output@@V?$format_validation_base@DV?$stream_output_adapter@D@__crt_stdio_output@@@2@@__crt_stdio_output@@AEBAHHD@Z 000000018007ddd0 f i libucrtd:output.obj
 0001:0007ce00       ?type_case_s_compute_narrow_string_length@?$output_processor@DV?$stream_output_adapter@D@__crt_stdio_output@@V?$positional_parameter_base@DV?$stream_output_adapter@D@__crt_stdio_output@@@2@@__crt_stdio_output@@AEBAHHD@Z 000000018007de00 f i libucrtd:output.obj
 0001:0007ce30       ?type_case_s_compute_narrow_string_length@?$output_processor@DV?$stream_output_adapter@D@__crt_stdio_output@@V?$standard_base@DV?$stream_output_adapter@D@__crt_stdio_output@@@2@@__crt_stdio_output@@AEBAHHD@Z 000000018007de30 f i libucrtd:output.obj
 0001:0007ce60       ?type_case_s_compute_narrow_string_length@?$output_processor@DV?$string_output_adapter@D@__crt_stdio_output@@V?$format_validation_base@DV?$string_output_adapter@D@__crt_stdio_output@@@2@@__crt_stdio_output@@AEBAHHD@Z 000000018007de60 f i libucrtd:output.obj
 0001:0007ce90       ?type_case_s_compute_narrow_string_length@?$output_processor@DV?$string_output_adapter@D@__crt_stdio_output@@V?$positional_parameter_base@DV?$string_output_adapter@D@__crt_stdio_output@@@2@@__crt_stdio_output@@AEBAHHD@Z 000000018007de90 f i libucrtd:output.obj
 0001:0007cec0       ?type_case_s_compute_narrow_string_length@?$output_processor@DV?$string_output_adapter@D@__crt_stdio_output@@V?$standard_base@DV?$string_output_adapter@D@__crt_stdio_output@@@2@@__crt_stdio_output@@AEBAHHD@Z 000000018007dec0 f i libucrtd:output.obj
 0001:0007cef0       ?type_case_s_compute_narrow_string_length@?$output_processor@_WV?$stream_output_adapter@_W@__crt_stdio_output@@V?$format_validation_base@_WV?$stream_output_adapter@_W@__crt_stdio_output@@@2@@__crt_stdio_output@@AEBAHH_W@Z 000000018007def0 f i libucrtd:output.obj
 0001:0007cf80       ?type_case_s_compute_narrow_string_length@?$output_processor@_WV?$stream_output_adapter@_W@__crt_stdio_output@@V?$positional_parameter_base@_WV?$stream_output_adapter@_W@__crt_stdio_output@@@2@@__crt_stdio_output@@AEBAHH_W@Z 000000018007df80 f i libucrtd:output.obj
 0001:0007d010       ?type_case_s_compute_narrow_string_length@?$output_processor@_WV?$stream_output_adapter@_W@__crt_stdio_output@@V?$standard_base@_WV?$stream_output_adapter@_W@__crt_stdio_output@@@2@@__crt_stdio_output@@AEBAHH_W@Z 000000018007e010 f i libucrtd:output.obj
 0001:0007d0a0       ?type_case_s_compute_narrow_string_length@?$output_processor@_WV?$string_output_adapter@_W@__crt_stdio_output@@V?$format_validation_base@_WV?$string_output_adapter@_W@__crt_stdio_output@@@2@@__crt_stdio_output@@AEBAHH_W@Z 000000018007e0a0 f i libucrtd:output.obj
 0001:0007d130       ?type_case_s_compute_narrow_string_length@?$output_processor@_WV?$string_output_adapter@_W@__crt_stdio_output@@V?$positional_parameter_base@_WV?$string_output_adapter@_W@__crt_stdio_output@@@2@@__crt_stdio_output@@AEBAHH_W@Z 000000018007e130 f i libucrtd:output.obj
 0001:0007d1c0       ?type_case_s_compute_narrow_string_length@?$output_processor@_WV?$string_output_adapter@_W@__crt_stdio_output@@V?$standard_base@_WV?$string_output_adapter@_W@__crt_stdio_output@@@2@@__crt_stdio_output@@AEBAHH_W@Z 000000018007e1c0 f i libucrtd:output.obj
 0001:0007d250       ?type_case_u@?$output_processor@DV?$stream_output_adapter@D@__crt_stdio_output@@V?$format_validation_base@DV?$stream_output_adapter@D@__crt_stdio_output@@@2@@__crt_stdio_output@@AEAA_NXZ 000000018007e250 f i libucrtd:output.obj
 0001:0007d270       ?type_case_u@?$output_processor@DV?$stream_output_adapter@D@__crt_stdio_output@@V?$positional_parameter_base@DV?$stream_output_adapter@D@__crt_stdio_output@@@2@@__crt_stdio_output@@AEAA_NXZ 000000018007e270 f i libucrtd:output.obj
 0001:0007d290       ?type_case_u@?$output_processor@DV?$stream_output_adapter@D@__crt_stdio_output@@V?$standard_base@DV?$stream_output_adapter@D@__crt_stdio_output@@@2@@__crt_stdio_output@@AEAA_NXZ 000000018007e290 f i libucrtd:output.obj
 0001:0007d2b0       ?type_case_u@?$output_processor@DV?$string_output_adapter@D@__crt_stdio_output@@V?$format_validation_base@DV?$string_output_adapter@D@__crt_stdio_output@@@2@@__crt_stdio_output@@AEAA_NXZ 000000018007e2b0 f i libucrtd:output.obj
 0001:0007d2d0       ?type_case_u@?$output_processor@DV?$string_output_adapter@D@__crt_stdio_output@@V?$positional_parameter_base@DV?$string_output_adapter@D@__crt_stdio_output@@@2@@__crt_stdio_output@@AEAA_NXZ 000000018007e2d0 f i libucrtd:output.obj
 0001:0007d2f0       ?type_case_u@?$output_processor@DV?$string_output_adapter@D@__crt_stdio_output@@V?$standard_base@DV?$string_output_adapter@D@__crt_stdio_output@@@2@@__crt_stdio_output@@AEAA_NXZ 000000018007e2f0 f i libucrtd:output.obj
 0001:0007d310       ?type_case_u@?$output_processor@_WV?$stream_output_adapter@_W@__crt_stdio_output@@V?$format_validation_base@_WV?$stream_output_adapter@_W@__crt_stdio_output@@@2@@__crt_stdio_output@@AEAA_NXZ 000000018007e310 f i libucrtd:output.obj
 0001:0007d330       ?type_case_u@?$output_processor@_WV?$stream_output_adapter@_W@__crt_stdio_output@@V?$positional_parameter_base@_WV?$stream_output_adapter@_W@__crt_stdio_output@@@2@@__crt_stdio_output@@AEAA_NXZ 000000018007e330 f i libucrtd:output.obj
 0001:0007d350       ?type_case_u@?$output_processor@_WV?$stream_output_adapter@_W@__crt_stdio_output@@V?$standard_base@_WV?$stream_output_adapter@_W@__crt_stdio_output@@@2@@__crt_stdio_output@@AEAA_NXZ 000000018007e350 f i libucrtd:output.obj
 0001:0007d370       ?type_case_u@?$output_processor@_WV?$string_output_adapter@_W@__crt_stdio_output@@V?$format_validation_base@_WV?$string_output_adapter@_W@__crt_stdio_output@@@2@@__crt_stdio_output@@AEAA_NXZ 000000018007e370 f i libucrtd:output.obj
 0001:0007d390       ?type_case_u@?$output_processor@_WV?$string_output_adapter@_W@__crt_stdio_output@@V?$positional_parameter_base@_WV?$string_output_adapter@_W@__crt_stdio_output@@@2@@__crt_stdio_output@@AEAA_NXZ 000000018007e390 f i libucrtd:output.obj
 0001:0007d3b0       ?type_case_u@?$output_processor@_WV?$string_output_adapter@_W@__crt_stdio_output@@V?$standard_base@_WV?$string_output_adapter@_W@__crt_stdio_output@@@2@@__crt_stdio_output@@AEAA_NXZ 000000018007e3b0 f i libucrtd:output.obj
 0001:0007d3d0       ?type_case_x@?$output_processor@DV?$stream_output_adapter@D@__crt_stdio_output@@V?$format_validation_base@DV?$stream_output_adapter@D@__crt_stdio_output@@@2@@__crt_stdio_output@@AEAA_NXZ 000000018007e3d0 f i libucrtd:output.obj
 0001:0007d3f0       ?type_case_x@?$output_processor@DV?$stream_output_adapter@D@__crt_stdio_output@@V?$positional_parameter_base@DV?$stream_output_adapter@D@__crt_stdio_output@@@2@@__crt_stdio_output@@AEAA_NXZ 000000018007e3f0 f i libucrtd:output.obj
 0001:0007d410       ?type_case_x@?$output_processor@DV?$stream_output_adapter@D@__crt_stdio_output@@V?$standard_base@DV?$stream_output_adapter@D@__crt_stdio_output@@@2@@__crt_stdio_output@@AEAA_NXZ 000000018007e410 f i libucrtd:output.obj
 0001:0007d430       ?type_case_x@?$output_processor@DV?$string_output_adapter@D@__crt_stdio_output@@V?$format_validation_base@DV?$string_output_adapter@D@__crt_stdio_output@@@2@@__crt_stdio_output@@AEAA_NXZ 000000018007e430 f i libucrtd:output.obj
 0001:0007d450       ?type_case_x@?$output_processor@DV?$string_output_adapter@D@__crt_stdio_output@@V?$positional_parameter_base@DV?$string_output_adapter@D@__crt_stdio_output@@@2@@__crt_stdio_output@@AEAA_NXZ 000000018007e450 f i libucrtd:output.obj
 0001:0007d470       ?type_case_x@?$output_processor@DV?$string_output_adapter@D@__crt_stdio_output@@V?$standard_base@DV?$string_output_adapter@D@__crt_stdio_output@@@2@@__crt_stdio_output@@AEAA_NXZ 000000018007e470 f i libucrtd:output.obj
 0001:0007d490       ?type_case_x@?$output_processor@_WV?$stream_output_adapter@_W@__crt_stdio_output@@V?$format_validation_base@_WV?$stream_output_adapter@_W@__crt_stdio_output@@@2@@__crt_stdio_output@@AEAA_NXZ 000000018007e490 f i libucrtd:output.obj
 0001:0007d4b0       ?type_case_x@?$output_processor@_WV?$stream_output_adapter@_W@__crt_stdio_output@@V?$positional_parameter_base@_WV?$stream_output_adapter@_W@__crt_stdio_output@@@2@@__crt_stdio_output@@AEAA_NXZ 000000018007e4b0 f i libucrtd:output.obj
 0001:0007d4d0       ?type_case_x@?$output_processor@_WV?$stream_output_adapter@_W@__crt_stdio_output@@V?$standard_base@_WV?$stream_output_adapter@_W@__crt_stdio_output@@@2@@__crt_stdio_output@@AEAA_NXZ 000000018007e4d0 f i libucrtd:output.obj
 0001:0007d4f0       ?type_case_x@?$output_processor@_WV?$string_output_adapter@_W@__crt_stdio_output@@V?$format_validation_base@_WV?$string_output_adapter@_W@__crt_stdio_output@@@2@@__crt_stdio_output@@AEAA_NXZ 000000018007e4f0 f i libucrtd:output.obj
 0001:0007d510       ?type_case_x@?$output_processor@_WV?$string_output_adapter@_W@__crt_stdio_output@@V?$positional_parameter_base@_WV?$string_output_adapter@_W@__crt_stdio_output@@@2@@__crt_stdio_output@@AEAA_NXZ 000000018007e510 f i libucrtd:output.obj
 0001:0007d530       ?type_case_x@?$output_processor@_WV?$string_output_adapter@_W@__crt_stdio_output@@V?$standard_base@_WV?$string_output_adapter@_W@__crt_stdio_output@@@2@@__crt_stdio_output@@AEAA_NXZ 000000018007e530 f i libucrtd:output.obj
 0001:0007d550       ?unset_flag@?$output_processor@DV?$stream_output_adapter@D@__crt_stdio_output@@V?$format_validation_base@DV?$stream_output_adapter@D@__crt_stdio_output@@@2@@__crt_stdio_output@@AEAAXI@Z 000000018007e550 f i libucrtd:output.obj
 0001:0007d580       ?unset_flag@?$output_processor@DV?$stream_output_adapter@D@__crt_stdio_output@@V?$positional_parameter_base@DV?$stream_output_adapter@D@__crt_stdio_output@@@2@@__crt_stdio_output@@AEAAXI@Z 000000018007e580 f i libucrtd:output.obj
 0001:0007d5b0       ?unset_flag@?$output_processor@DV?$stream_output_adapter@D@__crt_stdio_output@@V?$standard_base@DV?$stream_output_adapter@D@__crt_stdio_output@@@2@@__crt_stdio_output@@AEAAXI@Z 000000018007e5b0 f i libucrtd:output.obj
 0001:0007d5e0       ?unset_flag@?$output_processor@DV?$string_output_adapter@D@__crt_stdio_output@@V?$format_validation_base@DV?$string_output_adapter@D@__crt_stdio_output@@@2@@__crt_stdio_output@@AEAAXI@Z 000000018007e5e0 f i libucrtd:output.obj
 0001:0007d610       ?unset_flag@?$output_processor@DV?$string_output_adapter@D@__crt_stdio_output@@V?$positional_parameter_base@DV?$string_output_adapter@D@__crt_stdio_output@@@2@@__crt_stdio_output@@AEAAXI@Z 000000018007e610 f i libucrtd:output.obj
 0001:0007d640       ?unset_flag@?$output_processor@DV?$string_output_adapter@D@__crt_stdio_output@@V?$standard_base@DV?$string_output_adapter@D@__crt_stdio_output@@@2@@__crt_stdio_output@@AEAAXI@Z 000000018007e640 f i libucrtd:output.obj
 0001:0007d670       ?unset_flag@?$output_processor@_WV?$stream_output_adapter@_W@__crt_stdio_output@@V?$format_validation_base@_WV?$stream_output_adapter@_W@__crt_stdio_output@@@2@@__crt_stdio_output@@AEAAXI@Z 000000018007e670 f i libucrtd:output.obj
 0001:0007d6a0       ?unset_flag@?$output_processor@_WV?$stream_output_adapter@_W@__crt_stdio_output@@V?$positional_parameter_base@_WV?$stream_output_adapter@_W@__crt_stdio_output@@@2@@__crt_stdio_output@@AEAAXI@Z 000000018007e6a0 f i libucrtd:output.obj
 0001:0007d6d0       ?unset_flag@?$output_processor@_WV?$stream_output_adapter@_W@__crt_stdio_output@@V?$standard_base@_WV?$stream_output_adapter@_W@__crt_stdio_output@@@2@@__crt_stdio_output@@AEAAXI@Z 000000018007e6d0 f i libucrtd:output.obj
 0001:0007d700       ?unset_flag@?$output_processor@_WV?$string_output_adapter@_W@__crt_stdio_output@@V?$format_validation_base@_WV?$string_output_adapter@_W@__crt_stdio_output@@@2@@__crt_stdio_output@@AEAAXI@Z 000000018007e700 f i libucrtd:output.obj
 0001:0007d730       ?unset_flag@?$output_processor@_WV?$string_output_adapter@_W@__crt_stdio_output@@V?$positional_parameter_base@_WV?$string_output_adapter@_W@__crt_stdio_output@@@2@@__crt_stdio_output@@AEAAXI@Z 000000018007e730 f i libucrtd:output.obj
 0001:0007d760       ?unset_flag@?$output_processor@_WV?$string_output_adapter@_W@__crt_stdio_output@@V?$standard_base@_WV?$string_output_adapter@_W@__crt_stdio_output@@@2@@__crt_stdio_output@@AEAAXI@Z 000000018007e760 f i libucrtd:output.obj
 0001:0007d790       ?update_field_width@?$positional_parameter_base@DV?$stream_output_adapter@D@__crt_stdio_output@@@__crt_stdio_output@@IEAA_NXZ 000000018007e790 f i libucrtd:output.obj
 0001:0007d980       ?update_field_width@?$positional_parameter_base@DV?$string_output_adapter@D@__crt_stdio_output@@@__crt_stdio_output@@IEAA_NXZ 000000018007e980 f i libucrtd:output.obj
 0001:0007db70       ?update_field_width@?$positional_parameter_base@_WV?$stream_output_adapter@_W@__crt_stdio_output@@@__crt_stdio_output@@IEAA_NXZ 000000018007eb70 f i libucrtd:output.obj
 0001:0007dd60       ?update_field_width@?$positional_parameter_base@_WV?$string_output_adapter@_W@__crt_stdio_output@@@__crt_stdio_output@@IEAA_NXZ 000000018007ed60 f i libucrtd:output.obj
 0001:0007df50       ?update_field_width@?$standard_base@DV?$stream_output_adapter@D@__crt_stdio_output@@@__crt_stdio_output@@IEAA_NXZ 000000018007ef50 f i libucrtd:output.obj
 0001:0007df80       ?update_field_width@?$standard_base@DV?$string_output_adapter@D@__crt_stdio_output@@@__crt_stdio_output@@IEAA_NXZ 000000018007ef80 f i libucrtd:output.obj
 0001:0007dfb0       ?update_field_width@?$standard_base@_WV?$stream_output_adapter@_W@__crt_stdio_output@@@__crt_stdio_output@@IEAA_NXZ 000000018007efb0 f i libucrtd:output.obj
 0001:0007dfe0       ?update_field_width@?$standard_base@_WV?$string_output_adapter@_W@__crt_stdio_output@@@__crt_stdio_output@@IEAA_NXZ 000000018007efe0 f i libucrtd:output.obj
 0001:0007e010       ?update_precision@?$positional_parameter_base@DV?$stream_output_adapter@D@__crt_stdio_output@@@__crt_stdio_output@@IEAA_NXZ 000000018007f010 f i libucrtd:output.obj
 0001:0007e200       ?update_precision@?$positional_parameter_base@DV?$string_output_adapter@D@__crt_stdio_output@@@__crt_stdio_output@@IEAA_NXZ 000000018007f200 f i libucrtd:output.obj
 0001:0007e3f0       ?update_precision@?$positional_parameter_base@_WV?$stream_output_adapter@_W@__crt_stdio_output@@@__crt_stdio_output@@IEAA_NXZ 000000018007f3f0 f i libucrtd:output.obj
 0001:0007e5e0       ?update_precision@?$positional_parameter_base@_WV?$string_output_adapter@_W@__crt_stdio_output@@@__crt_stdio_output@@IEAA_NXZ 000000018007f5e0 f i libucrtd:output.obj
 0001:0007e7d0       ?update_precision@?$standard_base@DV?$stream_output_adapter@D@__crt_stdio_output@@@__crt_stdio_output@@IEAA_NXZ 000000018007f7d0 f i libucrtd:output.obj
 0001:0007e800       ?update_precision@?$standard_base@DV?$string_output_adapter@D@__crt_stdio_output@@@__crt_stdio_output@@IEAA_NXZ 000000018007f800 f i libucrtd:output.obj
 0001:0007e830       ?update_precision@?$standard_base@_WV?$stream_output_adapter@_W@__crt_stdio_output@@@__crt_stdio_output@@IEAA_NXZ 000000018007f830 f i libucrtd:output.obj
 0001:0007e860       ?update_precision@?$standard_base@_WV?$string_output_adapter@_W@__crt_stdio_output@@@__crt_stdio_output@@IEAA_NXZ 000000018007f860 f i libucrtd:output.obj
 0001:0007e890       ?valid@__crt_stdio_stream@@QEBA_NXZ 000000018007f890 f i libucrtd:output.obj
 0001:0007e8c0       ?validate@?$stream_output_adapter@D@__crt_stdio_output@@QEBA_NXZ 000000018007f8c0 f i libucrtd:output.obj
 0001:0007e9a0       ?validate@?$stream_output_adapter@_W@__crt_stdio_output@@QEBA_NXZ 000000018007f9a0 f i libucrtd:output.obj
 0001:0007ea80       ?validate@?$string_output_adapter@D@__crt_stdio_output@@QEBA_NXZ 000000018007fa80 f i libucrtd:output.obj
 0001:0007eb40       ?validate@?$string_output_adapter@_W@__crt_stdio_output@@QEBA_NXZ 000000018007fb40 f i libucrtd:output.obj
 0001:0007ec00       ?validate_and_store_parameter_data@?$positional_parameter_base@DV?$stream_output_adapter@D@__crt_stdio_output@@@__crt_stdio_output@@AEAA_NAEAUparameter_data@12@W4parameter_type@12@DW4length_modifier@2@@Z 000000018007fc00 f i libucrtd:output.obj
 0001:0007ed20       ?validate_and_store_parameter_data@?$positional_parameter_base@DV?$string_output_adapter@D@__crt_stdio_output@@@__crt_stdio_output@@AEAA_NAEAUparameter_data@12@W4parameter_type@12@DW4length_modifier@2@@Z 000000018007fd20 f i libucrtd:output.obj
 0001:0007ee40       ?validate_and_store_parameter_data@?$positional_parameter_base@_WV?$stream_output_adapter@_W@__crt_stdio_output@@@__crt_stdio_output@@AEAA_NAEAUparameter_data@12@W4parameter_type@12@_WW4length_modifier@2@@Z 000000018007fe40 f i libucrtd:output.obj
 0001:0007ef60       ?validate_and_store_parameter_data@?$positional_parameter_base@_WV?$string_output_adapter@_W@__crt_stdio_output@@@__crt_stdio_output@@AEAA_NAEAUparameter_data@12@W4parameter_type@12@_WW4length_modifier@2@@Z 000000018007ff60 f i libucrtd:output.obj
 0001:0007f080       ?validate_and_update_state_at_beginning_of_format_character@?$positional_parameter_base@DV?$stream_output_adapter@D@__crt_stdio_output@@@__crt_stdio_output@@IEAA_NXZ 0000000180080080 f i libucrtd:output.obj
 0001:0007f360       ?validate_and_update_state_at_beginning_of_format_character@?$positional_parameter_base@DV?$string_output_adapter@D@__crt_stdio_output@@@__crt_stdio_output@@IEAA_NXZ 0000000180080360 f i libucrtd:output.obj
 0001:0007f640       ?validate_and_update_state_at_beginning_of_format_character@?$positional_parameter_base@_WV?$stream_output_adapter@_W@__crt_stdio_output@@@__crt_stdio_output@@IEAA_NXZ 0000000180080640 f i libucrtd:output.obj
 0001:0007f920       ?validate_and_update_state_at_beginning_of_format_character@?$positional_parameter_base@_WV?$string_output_adapter@_W@__crt_stdio_output@@@__crt_stdio_output@@IEAA_NXZ 0000000180080920 f i libucrtd:output.obj
 0001:0007fc00       ?validate_and_update_state_at_beginning_of_format_character@?$standard_base@DV?$stream_output_adapter@D@__crt_stdio_output@@@__crt_stdio_output@@IEAA_NXZ 0000000180080c00 f i libucrtd:output.obj
 0001:0007fc10       ?validate_and_update_state_at_beginning_of_format_character@?$standard_base@DV?$string_output_adapter@D@__crt_stdio_output@@@__crt_stdio_output@@IEAA_NXZ 0000000180080c10 f i libucrtd:output.obj
 0001:0007fc20       ?validate_and_update_state_at_beginning_of_format_character@?$standard_base@_WV?$stream_output_adapter@_W@__crt_stdio_output@@@__crt_stdio_output@@IEAA_NXZ 0000000180080c20 f i libucrtd:output.obj
 0001:0007fc30       ?validate_and_update_state_at_beginning_of_format_character@?$standard_base@_WV?$string_output_adapter@_W@__crt_stdio_output@@@__crt_stdio_output@@IEAA_NXZ 0000000180080c30 f i libucrtd:output.obj
 0001:0007fc40       ?validate_and_update_state_at_end_of_format_string@?$format_validation_base@DV?$stream_output_adapter@D@__crt_stdio_output@@@__crt_stdio_output@@IEBA_NXZ 0000000180080c40 f i libucrtd:output.obj
 0001:0007fd00       ?validate_and_update_state_at_end_of_format_string@?$format_validation_base@DV?$string_output_adapter@D@__crt_stdio_output@@@__crt_stdio_output@@IEBA_NXZ 0000000180080d00 f i libucrtd:output.obj
 0001:0007fdc0       ?validate_and_update_state_at_end_of_format_string@?$format_validation_base@_WV?$stream_output_adapter@_W@__crt_stdio_output@@@__crt_stdio_output@@IEBA_NXZ 0000000180080dc0 f i libucrtd:output.obj
 0001:0007fe80       ?validate_and_update_state_at_end_of_format_string@?$format_validation_base@_WV?$string_output_adapter@_W@__crt_stdio_output@@@__crt_stdio_output@@IEBA_NXZ 0000000180080e80 f i libucrtd:output.obj
 0001:0007ff40       ?validate_and_update_state_at_end_of_format_string@?$positional_parameter_base@DV?$stream_output_adapter@D@__crt_stdio_output@@@__crt_stdio_output@@IEAA_NXZ 0000000180080f40 f i libucrtd:output.obj
 0001:00080130       ?validate_and_update_state_at_end_of_format_string@?$positional_parameter_base@DV?$string_output_adapter@D@__crt_stdio_output@@@__crt_stdio_output@@IEAA_NXZ 0000000180081130 f i libucrtd:output.obj
 0001:00080320       ?validate_and_update_state_at_end_of_format_string@?$positional_parameter_base@_WV?$stream_output_adapter@_W@__crt_stdio_output@@@__crt_stdio_output@@IEAA_NXZ 0000000180081320 f i libucrtd:output.obj
 0001:00080510       ?validate_and_update_state_at_end_of_format_string@?$positional_parameter_base@_WV?$string_output_adapter@_W@__crt_stdio_output@@@__crt_stdio_output@@IEAA_NXZ 0000000180081510 f i libucrtd:output.obj
 0001:00080700       ?validate_and_update_state_at_end_of_format_string@?$standard_base@DV?$stream_output_adapter@D@__crt_stdio_output@@@__crt_stdio_output@@IEBA_NXZ 0000000180081700 f i libucrtd:output.obj
 0001:00080710       ?validate_and_update_state_at_end_of_format_string@?$standard_base@DV?$string_output_adapter@D@__crt_stdio_output@@@__crt_stdio_output@@IEBA_NXZ 0000000180081710 f i libucrtd:output.obj
 0001:00080720       ?validate_and_update_state_at_end_of_format_string@?$standard_base@_WV?$stream_output_adapter@_W@__crt_stdio_output@@@__crt_stdio_output@@IEBA_NXZ 0000000180081720 f i libucrtd:output.obj
 0001:00080730       ?validate_and_update_state_at_end_of_format_string@?$standard_base@_WV?$string_output_adapter@_W@__crt_stdio_output@@@__crt_stdio_output@@IEBA_NXZ 0000000180081730 f i libucrtd:output.obj
 0001:00080740       ?validate_state_for_type_case_a@?$positional_parameter_base@DV?$stream_output_adapter@D@__crt_stdio_output@@@__crt_stdio_output@@IEAA_NXZ 0000000180081740 f i libucrtd:output.obj
 0001:00080880       ?validate_state_for_type_case_a@?$positional_parameter_base@DV?$string_output_adapter@D@__crt_stdio_output@@@__crt_stdio_output@@IEAA_NXZ 0000000180081880 f i libucrtd:output.obj
 0001:000809c0       ?validate_state_for_type_case_a@?$positional_parameter_base@_WV?$stream_output_adapter@_W@__crt_stdio_output@@@__crt_stdio_output@@IEAA_NXZ 00000001800819c0 f i libucrtd:output.obj
 0001:00080b00       ?validate_state_for_type_case_a@?$positional_parameter_base@_WV?$string_output_adapter@_W@__crt_stdio_output@@@__crt_stdio_output@@IEAA_NXZ 0000000180081b00 f i libucrtd:output.obj
 0001:00080c40       ?validate_state_for_type_case_a@?$standard_base@DV?$stream_output_adapter@D@__crt_stdio_output@@@__crt_stdio_output@@IEBA_NXZ 0000000180081c40 f i libucrtd:output.obj
 0001:00080c50       ?validate_state_for_type_case_a@?$standard_base@DV?$string_output_adapter@D@__crt_stdio_output@@@__crt_stdio_output@@IEBA_NXZ 0000000180081c50 f i libucrtd:output.obj
 0001:00080c60       ?validate_state_for_type_case_a@?$standard_base@_WV?$stream_output_adapter@_W@__crt_stdio_output@@@__crt_stdio_output@@IEBA_NXZ 0000000180081c60 f i libucrtd:output.obj
 0001:00080c70       ?validate_state_for_type_case_a@?$standard_base@_WV?$string_output_adapter@_W@__crt_stdio_output@@@__crt_stdio_output@@IEBA_NXZ 0000000180081c70 f i libucrtd:output.obj
 0001:00080c80       ?validate_stream_is_ansi_if_required@?$__acrt_stdio_char_traits@D@@SA_NQEAU_iobuf@@@Z 0000000180081c80 f i libucrtd:output.obj
 0001:00080e10       ?validate_stream_is_ansi_if_required@?$__acrt_stdio_char_traits@_W@@SA_NQEAU_iobuf@@@Z 0000000180081e10 f i libucrtd:output.obj
 0001:00080e20       ?wide_null_string@?$output_processor@DV?$stream_output_adapter@D@__crt_stdio_output@@V?$format_validation_base@DV?$stream_output_adapter@D@__crt_stdio_output@@@2@@__crt_stdio_output@@CAPEA_WXZ 0000000180081e20 f i libucrtd:output.obj
 0001:00080e30       ?wide_null_string@?$output_processor@DV?$stream_output_adapter@D@__crt_stdio_output@@V?$positional_parameter_base@DV?$stream_output_adapter@D@__crt_stdio_output@@@2@@__crt_stdio_output@@CAPEA_WXZ 0000000180081e30 f i libucrtd:output.obj
 0001:00080e40       ?wide_null_string@?$output_processor@DV?$stream_output_adapter@D@__crt_stdio_output@@V?$standard_base@DV?$stream_output_adapter@D@__crt_stdio_output@@@2@@__crt_stdio_output@@CAPEA_WXZ 0000000180081e40 f i libucrtd:output.obj
 0001:00080e50       ?wide_null_string@?$output_processor@DV?$string_output_adapter@D@__crt_stdio_output@@V?$format_validation_base@DV?$string_output_adapter@D@__crt_stdio_output@@@2@@__crt_stdio_output@@CAPEA_WXZ 0000000180081e50 f i libucrtd:output.obj
 0001:00080e60       ?wide_null_string@?$output_processor@DV?$string_output_adapter@D@__crt_stdio_output@@V?$positional_parameter_base@DV?$string_output_adapter@D@__crt_stdio_output@@@2@@__crt_stdio_output@@CAPEA_WXZ 0000000180081e60 f i libucrtd:output.obj
 0001:00080e70       ?wide_null_string@?$output_processor@DV?$string_output_adapter@D@__crt_stdio_output@@V?$standard_base@DV?$string_output_adapter@D@__crt_stdio_output@@@2@@__crt_stdio_output@@CAPEA_WXZ 0000000180081e70 f i libucrtd:output.obj
 0001:00080e80       ?wide_null_string@?$output_processor@_WV?$stream_output_adapter@_W@__crt_stdio_output@@V?$format_validation_base@_WV?$stream_output_adapter@_W@__crt_stdio_output@@@2@@__crt_stdio_output@@CAPEA_WXZ 0000000180081e80 f i libucrtd:output.obj
 0001:00080e90       ?wide_null_string@?$output_processor@_WV?$stream_output_adapter@_W@__crt_stdio_output@@V?$positional_parameter_base@_WV?$stream_output_adapter@_W@__crt_stdio_output@@@2@@__crt_stdio_output@@CAPEA_WXZ 0000000180081e90 f i libucrtd:output.obj
 0001:00080ea0       ?wide_null_string@?$output_processor@_WV?$stream_output_adapter@_W@__crt_stdio_output@@V?$standard_base@_WV?$stream_output_adapter@_W@__crt_stdio_output@@@2@@__crt_stdio_output@@CAPEA_WXZ 0000000180081ea0 f i libucrtd:output.obj
 0001:00080eb0       ?wide_null_string@?$output_processor@_WV?$string_output_adapter@_W@__crt_stdio_output@@V?$format_validation_base@_WV?$string_output_adapter@_W@__crt_stdio_output@@@2@@__crt_stdio_output@@CAPEA_WXZ 0000000180081eb0 f i libucrtd:output.obj
 0001:00080ec0       ?wide_null_string@?$output_processor@_WV?$string_output_adapter@_W@__crt_stdio_output@@V?$positional_parameter_base@_WV?$string_output_adapter@_W@__crt_stdio_output@@@2@@__crt_stdio_output@@CAPEA_WXZ 0000000180081ec0 f i libucrtd:output.obj
 0001:00080ed0       ?wide_null_string@?$output_processor@_WV?$string_output_adapter@_W@__crt_stdio_output@@V?$standard_base@_WV?$string_output_adapter@_W@__crt_stdio_output@@@2@@__crt_stdio_output@@CAPEA_WXZ 0000000180081ed0 f i libucrtd:output.obj
 0001:00080ee0       ?write_character@?$output_adapter_common@DV?$stream_output_adapter@D@__crt_stdio_output@@@__crt_stdio_output@@QEBAXDQEAH@Z 0000000180081ee0 f i libucrtd:output.obj
 0001:00080f30       ?write_character@?$output_adapter_common@_WV?$stream_output_adapter@_W@__crt_stdio_output@@@__crt_stdio_output@@QEBAX_WQEAH@Z 0000000180081f30 f i libucrtd:output.obj
 0001:00080f80       ?write_character@?$string_output_adapter@D@__crt_stdio_output@@QEBA_NDQEAH@Z 0000000180081f80 f i libucrtd:output.obj
 0001:00081040       ?write_character@?$string_output_adapter@_W@__crt_stdio_output@@QEBA_N_WQEAH@Z 0000000180082040 f i libucrtd:output.obj
 0001:00081100       ?write_character_without_count_update@?$stream_output_adapter@D@__crt_stdio_output@@QEBA_ND@Z 0000000180082100 f i libucrtd:output.obj
 0001:00081180       ?write_character_without_count_update@?$stream_output_adapter@_W@__crt_stdio_output@@QEBA_N_W@Z 0000000180082180 f i libucrtd:output.obj
 0001:00081210       ?write_stored_string_tchar@?$output_processor@DV?$stream_output_adapter@D@__crt_stdio_output@@V?$format_validation_base@DV?$stream_output_adapter@D@__crt_stdio_output@@@2@@__crt_stdio_output@@AEAA_ND@Z 0000000180082210 f i libucrtd:output.obj
 0001:000813d0       ?write_stored_string_tchar@?$output_processor@DV?$stream_output_adapter@D@__crt_stdio_output@@V?$positional_parameter_base@DV?$stream_output_adapter@D@__crt_stdio_output@@@2@@__crt_stdio_output@@AEAA_ND@Z 00000001800823d0 f i libucrtd:output.obj
 0001:00081590       ?write_stored_string_tchar@?$output_processor@DV?$stream_output_adapter@D@__crt_stdio_output@@V?$standard_base@DV?$stream_output_adapter@D@__crt_stdio_output@@@2@@__crt_stdio_output@@AEAA_ND@Z 0000000180082590 f i libucrtd:output.obj
 0001:00081750       ?write_stored_string_tchar@?$output_processor@DV?$string_output_adapter@D@__crt_stdio_output@@V?$format_validation_base@DV?$string_output_adapter@D@__crt_stdio_output@@@2@@__crt_stdio_output@@AEAA_ND@Z 0000000180082750 f i libucrtd:output.obj
 0001:00081910       ?write_stored_string_tchar@?$output_processor@DV?$string_output_adapter@D@__crt_stdio_output@@V?$positional_parameter_base@DV?$string_output_adapter@D@__crt_stdio_output@@@2@@__crt_stdio_output@@AEAA_ND@Z 0000000180082910 f i libucrtd:output.obj
 0001:00081ad0       ?write_stored_string_tchar@?$output_processor@DV?$string_output_adapter@D@__crt_stdio_output@@V?$standard_base@DV?$string_output_adapter@D@__crt_stdio_output@@@2@@__crt_stdio_output@@AEAA_ND@Z 0000000180082ad0 f i libucrtd:output.obj
 0001:00081c90       ?write_stored_string_tchar@?$output_processor@_WV?$stream_output_adapter@_W@__crt_stdio_output@@V?$format_validation_base@_WV?$stream_output_adapter@_W@__crt_stdio_output@@@2@@__crt_stdio_output@@AEAA_N_W@Z 0000000180082c90 f i libucrtd:output.obj
 0001:00081de0       ?write_stored_string_tchar@?$output_processor@_WV?$stream_output_adapter@_W@__crt_stdio_output@@V?$positional_parameter_base@_WV?$stream_output_adapter@_W@__crt_stdio_output@@@2@@__crt_stdio_output@@AEAA_N_W@Z 0000000180082de0 f i libucrtd:output.obj
 0001:00081f30       ?write_stored_string_tchar@?$output_processor@_WV?$stream_output_adapter@_W@__crt_stdio_output@@V?$standard_base@_WV?$stream_output_adapter@_W@__crt_stdio_output@@@2@@__crt_stdio_output@@AEAA_N_W@Z 0000000180082f30 f i libucrtd:output.obj
 0001:00082080       ?write_stored_string_tchar@?$output_processor@_WV?$string_output_adapter@_W@__crt_stdio_output@@V?$format_validation_base@_WV?$string_output_adapter@_W@__crt_stdio_output@@@2@@__crt_stdio_output@@AEAA_N_W@Z 0000000180083080 f i libucrtd:output.obj
 0001:000821d0       ?write_stored_string_tchar@?$output_processor@_WV?$string_output_adapter@_W@__crt_stdio_output@@V?$positional_parameter_base@_WV?$string_output_adapter@_W@__crt_stdio_output@@@2@@__crt_stdio_output@@AEAA_N_W@Z 00000001800831d0 f i libucrtd:output.obj
 0001:00082320       ?write_stored_string_tchar@?$output_processor@_WV?$string_output_adapter@_W@__crt_stdio_output@@V?$standard_base@_WV?$string_output_adapter@_W@__crt_stdio_output@@@2@@__crt_stdio_output@@AEAA_N_W@Z 0000000180083320 f i libucrtd:output.obj
 0001:00082470       ?write_string@?$stream_output_adapter@D@__crt_stdio_output@@QEBAXQEBDHQEAHAEAV__crt_deferred_errno_cache@@@Z 0000000180083470 f i libucrtd:output.obj
 0001:000824f0       ?write_string@?$stream_output_adapter@_W@__crt_stdio_output@@QEBAXQEB_WHQEAHAEAV__crt_deferred_errno_cache@@@Z 00000001800834f0 f i libucrtd:output.obj
 0001:00082570       ?write_string@?$string_output_adapter@D@__crt_stdio_output@@QEBAXQEBDHQEAHAEAV__crt_deferred_errno_cache@@@Z 0000000180083570 f i libucrtd:output.obj
 0001:000826e0       ?write_string@?$string_output_adapter@_W@__crt_stdio_output@@QEBAXQEB_WHQEAHAEAV__crt_deferred_errno_cache@@@Z 00000001800836e0 f i libucrtd:output.obj
 0001:00082850       ?write_string_impl@?$output_adapter_common@DV?$stream_output_adapter@D@__crt_stdio_output@@@__crt_stdio_output@@IEBAXQEBDHQEAHAEAV__crt_deferred_errno_cache@@@Z 0000000180083850 f i libucrtd:output.obj
 0001:00082930       ?write_string_impl@?$output_adapter_common@_WV?$stream_output_adapter@_W@__crt_stdio_output@@@__crt_stdio_output@@IEBAXQEB_WHQEAHAEAV__crt_deferred_errno_cache@@@Z 0000000180083930 f i libucrtd:output.obj
 0001:00082a10       __acrt_disable_global_locale_sync 0000000180083a10 f i libucrtd:output.obj
 0001:00082a40       __acrt_enable_global_locale_sync 0000000180083a40 f i libucrtd:output.obj
 0001:00082a70       __acrt_isleadbyte_l_noupdate 0000000180083a70 f i libucrtd:output.obj
 0001:00082aa0       __acrt_locale_changed      0000000180083aa0 f i libucrtd:output.obj
 0001:00082ad0       __acrt_locale_get_ctype_array_value 0000000180083ad0 f i libucrtd:output.obj
 0001:00082b10       __stdio_common_vfprintf    0000000180083b10 f   libucrtd:output.obj
 0001:00082b50       __stdio_common_vfprintf_p  0000000180083b50 f   libucrtd:output.obj
 0001:00082b90       __stdio_common_vfprintf_s  0000000180083b90 f   libucrtd:output.obj
 0001:00082bd0       __stdio_common_vfwprintf   0000000180083bd0 f   libucrtd:output.obj
 0001:00082c10       __stdio_common_vfwprintf_p 0000000180083c10 f   libucrtd:output.obj
 0001:00082c50       __stdio_common_vfwprintf_s 0000000180083c50 f   libucrtd:output.obj
 0001:00082c90       __stdio_common_vsnprintf_s 0000000180083c90 f   libucrtd:output.obj
 0001:00082cf0       __stdio_common_vsnwprintf_s 0000000180083cf0 f   libucrtd:output.obj
 0001:00082d50       __stdio_common_vsprintf    0000000180083d50 f   libucrtd:output.obj
 0001:00082da0       __stdio_common_vsprintf_p  0000000180083da0 f   libucrtd:output.obj
 0001:00082df0       __stdio_common_vsprintf_s  0000000180083df0 f   libucrtd:output.obj
 0001:00082e40       __stdio_common_vswprintf   0000000180083e40 f   libucrtd:output.obj
 0001:00082e90       __stdio_common_vswprintf_p 0000000180083e90 f   libucrtd:output.obj
 0001:00082ee0       __stdio_common_vswprintf_s 0000000180083ee0 f   libucrtd:output.obj
 0001:00082f30       _ctype_fast_check_internal 0000000180083f30 f i libucrtd:output.obj
 0001:00082f60       _isdigit_fast_internal     0000000180083f60 f i libucrtd:output.obj
 0001:00082f90       _tolower_fast_internal     0000000180083f90 f i libucrtd:output.obj
 0001:00082fc0       free                       0000000180083fc0 f   libucrtd:free.obj
 0001:00082ff0       malloc                     0000000180083ff0 f   libucrtd:malloc.obj
 0001:00083020       ??$?RU?$__crt_report_hook_node@D@@@__crt_internal_free_policy@@QEBAXQEBU?$__crt_report_hook_node@D@@@Z 0000000180084020 f i libucrtd:dbgrpt.obj
 0001:00083050       ??$?RU?$__crt_report_hook_node@_W@@@__crt_internal_free_policy@@QEBAXQEBU?$__crt_report_hook_node@_W@@@Z 0000000180084050 f i libucrtd:dbgrpt.obj
 0001:00084290       ??$get_module_file_name@AEAPEAUHINSTANCE__@@AEAY0BAF@DK@?$__crt_char_traits@D@@SAKAEAPEAUHINSTANCE__@@AEAY0BAF@D$$QEAK@Z 0000000180085290 f i libucrtd:dbgrpt.obj
 0001:000842d0       ??$get_module_file_name@AEAPEAUHINSTANCE__@@AEAY0BAF@_WK@?$__crt_char_traits@_W@@SAKAEAPEAUHINSTANCE__@@AEAY0BAF@_W$$QEAK@Z 00000001800852d0 f i libucrtd:dbgrpt.obj
 0001:00084310       ??$tcscpy_s@AEAY0BAF@D_KPEBD@?$__crt_char_traits@D@@SAHAEAY0BAF@D$$QEA_K$$QEAPEBD@Z 0000000180085310 f i libucrtd:dbgrpt.obj
 0001:00084350       ??$tcscpy_s@AEAY0BAF@_W_KPEB_W@?$__crt_char_traits@_W@@SAHAEAY0BAF@_W$$QEA_K$$QEAPEB_W@Z 0000000180085350 f i libucrtd:dbgrpt.obj
 0001:00084390       ??$tcslen@AEAY0BAF@D@?$__crt_char_traits@D@@SA_KAEAY0BAF@D@Z 0000000180085390 f i libucrtd:dbgrpt.obj
 0001:000843b0       ??$tcslen@AEAY0BAF@_W@?$__crt_char_traits@_W@@SA_KAEAY0BAF@_W@Z 00000001800853b0 f i libucrtd:dbgrpt.obj
 0001:000843d0       ??$tcslen@AEBQEBD@?$__crt_char_traits@D@@SA_KAEBQEBD@Z 00000001800853d0 f i libucrtd:dbgrpt.obj
 0001:000843f0       ??$tcslen@AEBQEB_W@?$__crt_char_traits@_W@@SA_KAEBQEB_W@Z 00000001800853f0 f i libucrtd:dbgrpt.obj
 0001:000844f0       ??0?$__crt_unique_heap_ptr@U?$__crt_report_hook_node@D@@U__crt_internal_free_policy@@@@QEAA@QEAU?$__crt_report_hook_node@D@@@Z 00000001800854f0 f i libucrtd:dbgrpt.obj
 0001:00084510       ??0?$__crt_unique_heap_ptr@U?$__crt_report_hook_node@_W@@U__crt_internal_free_policy@@@@QEAA@QEAU?$__crt_report_hook_node@_W@@@Z 0000000180085510 f i libucrtd:dbgrpt.obj
 0001:00084530       ??1?$__crt_unique_heap_ptr@U?$__crt_report_hook_node@D@@U__crt_internal_free_policy@@@@QEAA@XZ 0000000180085530 f i libucrtd:dbgrpt.obj
 0001:00084550       ??1?$__crt_unique_heap_ptr@U?$__crt_report_hook_node@_W@@U__crt_internal_free_policy@@@@QEAA@XZ 0000000180085550 f i libucrtd:dbgrpt.obj
 0001:00084570       ??B?$__crt_unique_heap_ptr@U?$__crt_report_hook_node@D@@U__crt_internal_free_policy@@@@QEBA_NXZ 0000000180085570 f i libucrtd:dbgrpt.obj
 0001:00084590       ??B?$__crt_unique_heap_ptr@U?$__crt_report_hook_node@_W@@U__crt_internal_free_policy@@@@QEBA_NXZ 0000000180085590 f i libucrtd:dbgrpt.obj
 0001:00084c70       ?detach@?$__crt_unique_heap_ptr@U?$__crt_report_hook_node@D@@U__crt_internal_free_policy@@@@QEAAPEAU?$__crt_report_hook_node@D@@XZ 0000000180085c70 f i libucrtd:dbgrpt.obj
 0001:00084ca0       ?detach@?$__crt_unique_heap_ptr@U?$__crt_report_hook_node@_W@@U__crt_internal_free_policy@@@@QEAAPEAU?$__crt_report_hook_node@_W@@XZ 0000000180085ca0 f i libucrtd:dbgrpt.obj
 0001:00084cd0       ?get@?$__crt_unique_heap_ptr@U?$__crt_report_hook_node@D@@U__crt_internal_free_policy@@@@QEBAPEAU?$__crt_report_hook_node@D@@XZ 0000000180085cd0 f i libucrtd:dbgrpt.obj
 0001:00084ce0       ?get@?$__crt_unique_heap_ptr@U?$__crt_report_hook_node@_W@@U__crt_internal_free_policy@@@@QEBAPEAU?$__crt_report_hook_node@_W@@XZ 0000000180085ce0 f i libucrtd:dbgrpt.obj
 0001:00084d50       ?is_valid@?$__crt_unique_heap_ptr@U?$__crt_report_hook_node@D@@U__crt_internal_free_policy@@@@QEBA_NXZ 0000000180085d50 f i libucrtd:dbgrpt.obj
 0001:00084d80       ?is_valid@?$__crt_unique_heap_ptr@U?$__crt_report_hook_node@_W@@U__crt_internal_free_policy@@@@QEBA_NXZ 0000000180085d80 f i libucrtd:dbgrpt.obj
 0001:00084db0       ?release@?$__crt_unique_heap_ptr@U?$__crt_report_hook_node@D@@U__crt_internal_free_policy@@@@QEAAXXZ 0000000180085db0 f i libucrtd:dbgrpt.obj
 0001:00084de0       ?release@?$__crt_unique_heap_ptr@U?$__crt_report_hook_node@_W@@U__crt_internal_free_policy@@@@QEAAXXZ 0000000180085de0 f i libucrtd:dbgrpt.obj
 0001:00084e10       _CrtDbgReport              0000000180085e10 f   libucrtd:dbgrpt.obj
 0001:00084e90       _CrtDbgReportW             0000000180085e90 f   libucrtd:dbgrpt.obj
 0001:00084f10       _CrtSetReportHook2         0000000180085f10 f   libucrtd:dbgrpt.obj
 0001:00084f30       _CrtSetReportHookW2        0000000180085f30 f   libucrtd:dbgrpt.obj
 0001:00084f50       __acrt_MessageWindowA      0000000180085f50 f   libucrtd:dbgrpt.obj
 0001:00084fa0       __acrt_MessageWindowW      0000000180085fa0 f   libucrtd:dbgrpt.obj
 0001:00084ff0       _invoke_watson_if_error    0000000180085ff0 f i libucrtd:dbgrpt.obj
 0001:00085040       _invoke_watson_if_oneof    0000000180086040 f i libucrtd:dbgrpt.obj
 0001:000850a0       _snwprintf_s               00000001800860a0 f i libucrtd:dbgrpt.obj
 0001:00085110       _vsnwprintf_s_l            0000000180086110 f i libucrtd:dbgrpt.obj
 0001:00085670       wcscpy_s                   0000000180086670 f   libucrtd:wcscpy_s.obj
 0001:00086a00       ??1?$__crt_simd_cleanup_guard@$00@@QEAA@XZ 0000000180087a00 f i libucrtd:strnlen.obj
 0001:00086a10       ??1?$__crt_simd_cleanup_guard@$0A@@@QEAA@XZ 0000000180087a10 f i libucrtd:strnlen.obj
 0001:00086a20       ?compare_equals@?$__crt_simd_traits@$00E@@SA?AT__m256i@@T2@0@Z 0000000180087a20 f i libucrtd:strnlen.obj
 0001:00086a60       ?compare_equals@?$__crt_simd_traits@$00G@@SA?AT__m256i@@T2@0@Z 0000000180087a60 f i libucrtd:strnlen.obj
 0001:00086aa0       ?compare_equals@?$__crt_simd_traits@$0A@E@@SA?AT__m128i@@T2@0@Z 0000000180087aa0 f i libucrtd:strnlen.obj
 0001:00086ad0       ?compare_equals@?$__crt_simd_traits@$0A@G@@SA?AT__m128i@@T2@0@Z 0000000180087ad0 f i libucrtd:strnlen.obj
 0001:00086b00       ?compute_byte_mask@?$__crt_simd_pack_traits@$00@@SAHT__m256i@@@Z 0000000180087b00 f i libucrtd:strnlen.obj
 0001:00086b20       ?compute_byte_mask@?$__crt_simd_pack_traits@$0A@@@SAHT__m128i@@@Z 0000000180087b20 f i libucrtd:strnlen.obj
 0001:00086b40       ?get_zero_pack@?$__crt_simd_pack_traits@$00@@SA?AT__m256i@@XZ 0000000180087b40 f i libucrtd:strnlen.obj
 0001:00086b70       ?get_zero_pack@?$__crt_simd_pack_traits@$0A@@@SA?AT__m128i@@XZ 0000000180087b70 f i libucrtd:strnlen.obj
 0001:00086b90       strnlen                    0000000180087b90 f   libucrtd:strnlen.obj
 0001:00086bc0       wcslen                     0000000180087bc0 f   libucrtd:strnlen.obj
 0001:00086be0       wcsnlen                    0000000180087be0 f   libucrtd:strnlen.obj
 0001:00086c10       ??$__crt_fast_decode_pointer@P6AXPEB_W00I_K@Z@@YAP6AXPEB_W00I_K@ZQ6AX000I1@Z@Z 0000000180087c10 f i libucrtd:invalid_parameter.obj
 0001:00086c50       ??$__crt_fast_encode_pointer@P6AXPEB_W00I_K@Z@@YAP6AXPEB_W00I_K@ZQ6AX000I1@Z@Z 0000000180087c50 f i libucrtd:invalid_parameter.obj
 0001:00086c90       ??$initialize_from_array@$$BY00Q6AXPEB_W00I_K@Z@?$dual_state_global@P6AXPEB_W00I_K@Z@__crt_state_management@@QEAAXAEAY00Q6AXPEB_W00I_K@Z@Z 0000000180087c90 f i libucrtd:invalid_parameter.obj
 0001:00086cf0       ?__crt_rotate_pointer_value@@YA_K_KH@Z 0000000180087cf0 f i libucrtd:invalid_parameter.obj
 0001:00086db0       ?dangerous_get_state_array@?$dual_state_global@P6AXPEB_W00I_K@Z@__crt_state_management@@QEAAPEAP6AXPEB_W00I_K@ZXZ 0000000180087db0 f i libucrtd:invalid_parameter.obj
 0001:00086dc0       ?get_current_state_index@__crt_state_management@@YA_KXZ 0000000180087dc0 f i libucrtd:invalid_parameter.obj
 0001:00086dd0       ?value@?$dual_state_global@P6AXPEB_W00I_K@Z@__crt_state_management@@QEAAAEAP6AXPEB_W00I_K@ZXZ 0000000180087dd0 f i libucrtd:invalid_parameter.obj
 0001:00086df0       __acrt_call_reportfault    0000000180087df0 f   libucrtd:invalid_parameter.obj
 0001:00086f20       __acrt_initialize_invalid_parameter_handler 0000000180087f20 f   libucrtd:invalid_parameter.obj
 0001:00086f50       _get_invalid_parameter_handler 0000000180087f50 f   libucrtd:invalid_parameter.obj
 0001:00086f70       _get_thread_local_invalid_parameter_handler 0000000180087f70 f   libucrtd:invalid_parameter.obj
 0001:00086fa0       _invalid_parameter         0000000180087fa0 f   libucrtd:invalid_parameter.obj
 0001:000870a0       _invalid_parameter_noinfo  00000001800880a0 f   libucrtd:invalid_parameter.obj
 0001:000870d0       _invalid_parameter_noinfo_noreturn 00000001800880d0 f   libucrtd:invalid_parameter.obj
 0001:00087110       _invoke_watson             0000000180088110 f   libucrtd:invalid_parameter.obj
 0001:00087170       _set_invalid_parameter_handler 0000000180088170 f   libucrtd:invalid_parameter.obj
 0001:000871c0       _set_thread_local_invalid_parameter_handler 00000001800881c0 f   libucrtd:invalid_parameter.obj
 0001:00087200       __acrt_errno_from_os_error 0000000180088200 f   libucrtd:errno.obj
 0001:00087290       __acrt_errno_map_os_error  0000000180088290 f   libucrtd:errno.obj
 0001:000872c0       __doserrno                 00000001800882c0 f   libucrtd:errno.obj
 0001:000872f0       _errno                     00000001800882f0 f   libucrtd:errno.obj
 0001:00087320       _get_doserrno              0000000180088320 f   libucrtd:errno.obj
 0001:000873e0       _get_errno                 00000001800883e0 f   libucrtd:errno.obj
 0001:000874a0       _set_doserrno              00000001800884a0 f   libucrtd:errno.obj
 0001:000874e0       _set_errno                 00000001800884e0 f   libucrtd:errno.obj
 0001:00087520       calloc                     0000000180088520 f   libucrtd:calloc.obj
 0001:00087560       _recalloc                  0000000180088560 f   libucrtd:recalloc.obj
 0001:000875b0       _recalloc_base             00000001800885b0 f   libucrtd:recalloc.obj
 0001:0008768c       _resetstkoflw              000000018008868c f   libucrtd:resetstk.obj
 0001:00087e40       wcscat_s                   0000000180088e40 f   libucrtd:wcscat_s.obj
 0001:00088510       wcsncpy_s                  0000000180089510 f   libucrtd:wcsncpy_s.obj
 0001:00088690       __isascii                  0000000180089690 f   libucrtd:_ctype.obj
 0001:000886c0       __iscsym                   00000001800896c0 f   libucrtd:_ctype.obj
 0001:00088700       __iscsymf                  0000000180089700 f   libucrtd:_ctype.obj
 0001:00088740       __toascii                  0000000180089740 f   libucrtd:_ctype.obj
 0001:00088750       _isalnum_l                 0000000180089750 f   libucrtd:_ctype.obj
 0001:00088780       _isalpha_l                 0000000180089780 f   libucrtd:_ctype.obj
 0001:000887b0       _isblank_l                 00000001800897b0 f   libucrtd:_ctype.obj
 0001:000887e0       _iscntrl_l                 00000001800897e0 f   libucrtd:_ctype.obj
 0001:00088810       _iscsym_l                  0000000180089810 f   libucrtd:_ctype.obj
 0001:00088860       _iscsymf_l                 0000000180089860 f   libucrtd:_ctype.obj
 0001:000888b0       _isdigit_l                 00000001800898b0 f   libucrtd:_ctype.obj
 0001:000888e0       _isgraph_l                 00000001800898e0 f   libucrtd:_ctype.obj
 0001:00088910       _islower_l                 0000000180089910 f   libucrtd:_ctype.obj
 0001:00088940       _isprint_l                 0000000180089940 f   libucrtd:_ctype.obj
 0001:00088970       _ispunct_l                 0000000180089970 f   libucrtd:_ctype.obj
 0001:000889a0       _isspace_l                 00000001800899a0 f   libucrtd:_ctype.obj
 0001:000889d0       _isupper_l                 00000001800899d0 f   libucrtd:_ctype.obj
 0001:00088a00       _isxdigit_l                0000000180089a00 f   libucrtd:_ctype.obj
 0001:00088a30       isalnum                    0000000180089a30 f   libucrtd:_ctype.obj
 0001:00088a50       isalpha                    0000000180089a50 f   libucrtd:_ctype.obj
 0001:00088a70       isblank                    0000000180089a70 f   libucrtd:_ctype.obj
 0001:00088aa0       iscntrl                    0000000180089aa0 f   libucrtd:_ctype.obj
 0001:00088ac0       isdigit                    0000000180089ac0 f   libucrtd:_ctype.obj
 0001:00088ae0       isgraph                    0000000180089ae0 f   libucrtd:_ctype.obj
 0001:00088b00       islower                    0000000180089b00 f   libucrtd:_ctype.obj
 0001:00088b20       isprint                    0000000180089b20 f   libucrtd:_ctype.obj
 0001:00088b40       ispunct                    0000000180089b40 f   libucrtd:_ctype.obj
 0001:00088b60       isspace                    0000000180089b60 f   libucrtd:_ctype.obj
 0001:00088b80       isupper                    0000000180089b80 f   libucrtd:_ctype.obj
 0001:00088ba0       isxdigit                   0000000180089ba0 f   libucrtd:_ctype.obj
 0001:00088bc0       wcscat                     0000000180089bc0 f   libucrtd:wcscat.obj
 0001:00088c40       wcscpy                     0000000180089c40 f   libucrtd:wcscpy.obj
 0001:000893f0       ??$open_file@AEBQEBDAEBQEBDAEBHPEAU_iobuf@@@?$__crt_char_traits@D@@SAPEAU_iobuf@@AEBQEBD0AEBH$$QEAPEAU1@@Z 000000018008a3f0 f i libucrtd:fopen.obj
 0001:00089440       ??$open_file@AEBQEB_WAEBQEB_WAEBHPEAU_iobuf@@@?$__crt_char_traits@_W@@SAPEAU_iobuf@@AEBQEB_W0AEBH$$QEAPEAU1@@Z 000000018008a440 f i libucrtd:fopen.obj
 0001:00089490       ?unlock@__crt_stdio_stream@@QEBAXXZ 000000018008a490 f i libucrtd:fopen.obj
 0001:000894b0       _fsopen                    000000018008a4b0 f   libucrtd:fopen.obj
 0001:000894e0       _wfopen                    000000018008a4e0 f   libucrtd:fopen.obj
 0001:00089510       _wfopen_s                  000000018008a510 f   libucrtd:fopen.obj
 0001:00089540       _wfsopen                   000000018008a540 f   libucrtd:fopen.obj
 0001:00089570       fopen                      000000018008a570 f   libucrtd:fopen.obj
 0001:000895a0       fopen_s                    000000018008a5a0 f   libucrtd:fopen.obj
 0001:000895d0       ?is_in_use@__crt_stdio_stream@@QEBA_NXZ 000000018008a5d0 f i libucrtd:fclose.obj
 0001:00089610       _fclose_nolock             000000018008a610 f   libucrtd:fclose.obj
 0001:000897a0       fclose                     000000018008a7a0 f   libucrtd:fclose.obj
 0001:000898e0       _fputc_nolock              000000018008a8e0 f   libucrtd:fputc.obj
 0001:00089990       _fputchar                  000000018008a990 f   libucrtd:fputc.obj
 0001:000899c0       _putc_nolock               000000018008a9c0 f   libucrtd:fputc.obj
 0001:000899e0       fputc                      000000018008a9e0 f   libucrtd:fputc.obj
 0001:00089c80       putc                       000000018008ac80 f   libucrtd:fputc.obj
 0001:00089ca0       putchar                    000000018008aca0 f   libucrtd:fputc.obj
 0001:00089d30       _seh_filter_dll            000000018008ad30 f   libucrtd:exception_filter.obj
 0001:00089d60       _seh_filter_exe            000000018008ad60 f   libucrtd:exception_filter.obj
 0001:0008a000       ??$?B$$A6AXPEAXK0@Z@__crt_fast_encoded_nullptr_t@@QEBAP6AXPEAXK0@ZXZ 000000018008b000 f i libucrtd:exit.obj
 0001:0008a0b0       ??$__crt_fast_decode_pointer@P6AXPEAXK0@Z@@YAP6AXPEAXK0@ZQ6AX0K0@Z@Z 000000018008b0b0 f i libucrtd:exit.obj
 0001:0008a0f0       ??$__crt_fast_encode_pointer@P6AXPEAXK0@Z@@YAP6AXPEAXK0@ZQ6AX0K0@Z@Z 000000018008b0f0 f i libucrtd:exit.obj
 0001:0008a130       ??$__crt_get_proc_address@P6AXI@Z@@YAP6AXI@ZQEAUHINSTANCE__@@QEBD@Z 000000018008b130 f i libucrtd:exit.obj
 0001:0008a1f0       ??0?$__crt_unique_handle_t@U__crt_hmodule_traits@@@@QEAA@QEAUHINSTANCE__@@@Z 000000018008b1f0 f i libucrtd:exit.obj
 0001:0008a210       ??1?$__crt_unique_handle_t@U__crt_hmodule_traits@@@@QEAA@XZ 000000018008b210 f i libucrtd:exit.obj
 0001:0008a370       ?__acrt_select_exit_lock@@YA?AW4__acrt_lock_id@@XZ 000000018008b370 f i libucrtd:exit.obj
 0001:0008a380       ?__crt_fast_encode_pointer@@YA?AU__crt_fast_encoded_nullptr_t@@$$T@Z 000000018008b380 f i libucrtd:exit.obj
 0001:0008a3c0       ?close@?$__crt_unique_handle_t@U__crt_hmodule_traits@@@@QEAAXXZ 000000018008b3c0 f i libucrtd:exit.obj
 0001:0008a400       ?close@__crt_hmodule_traits@@SA_NPEAUHINSTANCE__@@@Z 000000018008b400 f i libucrtd:exit.obj
 0001:0008a510       ?get@?$__crt_unique_handle_t@U__crt_hmodule_traits@@@@QEBAPEAUHINSTANCE__@@XZ 000000018008b510 f i libucrtd:exit.obj
 0001:0008a520       ?get_address_of@?$__crt_unique_handle_t@U__crt_hmodule_traits@@@@QEAAPEAPEAUHINSTANCE__@@XZ 000000018008b520 f i libucrtd:exit.obj
 0001:0008a530       ?get_invalid_value@__crt_hmodule_traits@@SAPEAUHINSTANCE__@@XZ 000000018008b530 f i libucrtd:exit.obj
 0001:0008a6f0       _Exit                      000000018008b6f0 f   libucrtd:exit.obj
 0001:0008a710       __acrt_initialize_thread_local_exit_callback 000000018008b710 f   libucrtd:exit.obj
 0001:0008a730       _c_exit                    000000018008b730 f   libucrtd:exit.obj
 0001:0008a750       _cexit                     000000018008b750 f   libucrtd:exit.obj
 0001:0008a770       _exit                      000000018008b770 f   libucrtd:exit.obj
 0001:0008a790       _is_c_termination_complete 000000018008b790 f   libucrtd:exit.obj
 0001:0008a7b0       _register_thread_local_exe_atexit_callback 000000018008b7b0 f   libucrtd:exit.obj
 0001:0008a800       exit                       000000018008b800 f   libucrtd:exit.obj
 0001:0008a820       quick_exit                 000000018008b820 f   libucrtd:exit.obj
 0001:0008a840       ??$?RE@__crt_internal_free_policy@@QEBAXQEBE@Z 000000018008b840 f i libucrtd:argv_parsing.obj
 0001:0008a870       ??$?RPEAD@__crt_internal_free_policy@@QEBAXQEBQEAD@Z 000000018008b870 f i libucrtd:argv_parsing.obj
 0001:0008a8a0       ??$?RPEA_W@__crt_internal_free_policy@@QEBAXQEBQEA_W@Z 000000018008b8a0 f i libucrtd:argv_parsing.obj
 0001:0008aff0       ??$get_module_file_name@$$TAEAY0BAF@DH@?$__crt_char_traits@D@@SAK$$QEA$$TAEAY0BAF@D$$QEAH@Z 000000018008bff0 f i libucrtd:argv_parsing.obj
 0001:0008b030       ??$get_module_file_name@$$TAEAY0BAF@_WH@?$__crt_char_traits@_W@@SAK$$QEA$$TAEAY0BAF@_W$$QEAH@Z 000000018008c030 f i libucrtd:argv_parsing.obj
 0001:0008b9e0       ??$set_program_name@PEAD@?$__crt_char_traits@D@@SAX$$QEAPEAD@Z 000000018008c9e0 f i libucrtd:argv_parsing.obj
 0001:0008ba00       ??$set_program_name@PEA_W@?$__crt_char_traits@_W@@SAX$$QEAPEA_W@Z 000000018008ca00 f i libucrtd:argv_parsing.obj
 0001:0008ba60       ??0?$__crt_unique_heap_ptr@EU__crt_internal_free_policy@@@@QEAA@QEAE@Z 000000018008ca60 f i libucrtd:argv_parsing.obj
 0001:0008ba80       ??0?$__crt_unique_heap_ptr@PEADU__crt_internal_free_policy@@@@QEAA@QEAPEAD@Z 000000018008ca80 f i libucrtd:argv_parsing.obj
 0001:0008baa0       ??0?$__crt_unique_heap_ptr@PEA_WU__crt_internal_free_policy@@@@QEAA@QEAPEA_W@Z 000000018008caa0 f i libucrtd:argv_parsing.obj
 0001:0008bac0       ??1?$__crt_unique_heap_ptr@EU__crt_internal_free_policy@@@@QEAA@XZ 000000018008cac0 f i libucrtd:argv_parsing.obj
 0001:0008bae0       ??1?$__crt_unique_heap_ptr@PEADU__crt_internal_free_policy@@@@QEAA@XZ 000000018008cae0 f i libucrtd:argv_parsing.obj
 0001:0008bb00       ??1?$__crt_unique_heap_ptr@PEA_WU__crt_internal_free_policy@@@@QEAA@XZ 000000018008cb00 f i libucrtd:argv_parsing.obj
 0001:0008bb20       ??B?$__crt_unique_heap_ptr@EU__crt_internal_free_policy@@@@QEBA_NXZ 000000018008cb20 f i libucrtd:argv_parsing.obj
 0001:0008bc00       ?detach@?$__crt_unique_heap_ptr@EU__crt_internal_free_policy@@@@QEAAPEAEXZ 000000018008cc00 f i libucrtd:argv_parsing.obj
 0001:0008bc30       ?detach@?$__crt_unique_heap_ptr@PEADU__crt_internal_free_policy@@@@QEAAPEAPEADXZ 000000018008cc30 f i libucrtd:argv_parsing.obj
 0001:0008bc60       ?detach@?$__crt_unique_heap_ptr@PEA_WU__crt_internal_free_policy@@@@QEAAPEAPEA_WXZ 000000018008cc60 f i libucrtd:argv_parsing.obj
 0001:0008bd20       ?get@?$__crt_unique_heap_ptr@EU__crt_internal_free_policy@@@@QEBAPEAEXZ 000000018008cd20 f i libucrtd:argv_parsing.obj
 0001:0008bd30       ?get@?$__crt_unique_heap_ptr@PEADU__crt_internal_free_policy@@@@QEBAPEAPEADXZ 000000018008cd30 f i libucrtd:argv_parsing.obj
 0001:0008bd40       ?get@?$__crt_unique_heap_ptr@PEA_WU__crt_internal_free_policy@@@@QEBAPEAPEA_WXZ 000000018008cd40 f i libucrtd:argv_parsing.obj
 0001:0008bd50       ?get_address_of@?$__crt_unique_heap_ptr@PEADU__crt_internal_free_policy@@@@QEAAPEAPEAPEADXZ 000000018008cd50 f i libucrtd:argv_parsing.obj
 0001:0008bd60       ?get_address_of@?$__crt_unique_heap_ptr@PEA_WU__crt_internal_free_policy@@@@QEAAPEAPEAPEA_WXZ 000000018008cd60 f i libucrtd:argv_parsing.obj
 0001:0008bdb0       ?is_valid@?$__crt_unique_heap_ptr@EU__crt_internal_free_policy@@@@QEBA_NXZ 000000018008cdb0 f i libucrtd:argv_parsing.obj
 0001:0008bde0       ?release@?$__crt_unique_heap_ptr@EU__crt_internal_free_policy@@@@QEAAXXZ 000000018008cde0 f i libucrtd:argv_parsing.obj
 0001:0008be10       ?release@?$__crt_unique_heap_ptr@PEADU__crt_internal_free_policy@@@@QEAAXXZ 000000018008ce10 f i libucrtd:argv_parsing.obj
 0001:0008be40       ?release@?$__crt_unique_heap_ptr@PEA_WU__crt_internal_free_policy@@@@QEAAXXZ 000000018008ce40 f i libucrtd:argv_parsing.obj
 0001:0008bec0       __acrt_allocate_buffer_for_argv 000000018008cec0 f   libucrtd:argv_parsing.obj
 0001:0008bfe0       _configure_narrow_argv     000000018008cfe0 f   libucrtd:argv_parsing.obj
 0001:0008c000       _configure_wide_argv       000000018008d000 f   libucrtd:argv_parsing.obj
 0001:0008c020       _set_pgmptr                000000018008d020 f i libucrtd:argv_parsing.obj
 0001:0008c040       _set_wpgmptr               000000018008d040 f i libucrtd:argv_parsing.obj
 0001:0008c054       ??$?R_W@__crt_internal_free_policy@@QEBAXQEB_W@Z 000000018008d054 f i libucrtd:environment_initialization.obj
 0001:0008c62c       ??$get_environment_from_os@$$V@?$__crt_char_traits@D@@SAPEADXZ 000000018008d62c f i libucrtd:environment_initialization.obj
 0001:0008c634       ??$get_environment_from_os@$$V@?$__crt_char_traits@_W@@SAPEA_WXZ 000000018008d634 f i libucrtd:environment_initialization.obj
 0001:0008c804       ??$set_variable_in_environment_nolock@PEADH@?$__crt_char_traits@D@@SAH$$QEAPEAD$$QEAH@Z 000000018008d804 f i libucrtd:environment_initialization.obj
 0001:0008c810       ??$set_variable_in_environment_nolock@PEA_WH@?$__crt_char_traits@_W@@SAH$$QEAPEA_W$$QEAH@Z 000000018008d810 f i libucrtd:environment_initialization.obj
 0001:0008c81c       ??$tcscpy_s@PEADAEB_KAEAPEAD@?$__crt_char_traits@D@@SAH$$QEAPEADAEB_KAEAPEAD@Z 000000018008d81c f i libucrtd:environment_initialization.obj
 0001:0008c82c       ??$tcscpy_s@PEA_WAEB_KAEAPEA_W@?$__crt_char_traits@_W@@SAH$$QEAPEA_WAEB_KAEAPEA_W@Z 000000018008d82c f i libucrtd:environment_initialization.obj
 0001:0008c83c       ??$tcslen@AEAPEAD@?$__crt_char_traits@D@@SA_KAEAPEAD@Z 000000018008d83c f i libucrtd:environment_initialization.obj
 0001:0008c850       ??$tcslen@AEAPEA_W@?$__crt_char_traits@_W@@SA_KAEAPEA_W@Z 000000018008d850 f i libucrtd:environment_initialization.obj
 0001:0008c864       ??$uninitialize@A6AXAEAPEAPEAD@Z@?$dual_state_global@PEAPEAD@__crt_state_management@@QEAAXA6AXAEAPEAPEAD@Z@Z 000000018008d864 f i libucrtd:environment_initialization.obj
 0001:0008c8a8       ??$uninitialize@A6AXAEAPEAPEA_W@Z@?$dual_state_global@PEAPEA_W@__crt_state_management@@QEAAXA6AXAEAPEAPEA_W@Z@Z 000000018008d8a8 f i libucrtd:environment_initialization.obj
 0001:0008c924       ??0?$__crt_unique_heap_ptr@_WU__crt_internal_free_policy@@@@QEAA@QEA_W@Z 000000018008d924 f i libucrtd:environment_initialization.obj
 0001:0008c92c       ??1?$__crt_unique_heap_ptr@_WU__crt_internal_free_policy@@@@QEAA@XZ 000000018008d92c f i libucrtd:environment_initialization.obj
 0001:0008c94c       ??B?$__crt_unique_heap_ptr@PEADU__crt_internal_free_policy@@@@QEBA_NXZ 000000018008d94c f i libucrtd:environment_initialization.obj
 0001:0008c954       ??B?$__crt_unique_heap_ptr@PEA_WU__crt_internal_free_policy@@@@QEBA_NXZ 000000018008d954 f i libucrtd:environment_initialization.obj
 0001:0008c95c       ??B?$__crt_unique_heap_ptr@_WU__crt_internal_free_policy@@@@QEBA_NXZ 000000018008d95c f i libucrtd:environment_initialization.obj
 0001:0008c964       ?__crt_compute_required_transform_buffer_count@@YA_KIQEBD@Z 000000018008d964 f i libucrtd:environment_initialization.obj
 0001:0008c988       ?__crt_compute_required_transform_buffer_count@@YA_KIQEB_W@Z 000000018008d988 f i libucrtd:environment_initialization.obj
 0001:0008c9b8       ?__crt_transform_string@@YA_KIQEBDQEA_W_K@Z 000000018008d9b8 f i libucrtd:environment_initialization.obj
 0001:0008c9dc       ?__crt_transform_string@@YA_KIQEB_WQEAD_K@Z 000000018008d9dc f i libucrtd:environment_initialization.obj
 0001:0008ca0c       ?detach@?$__crt_unique_heap_ptr@DU__crt_internal_free_policy@@@@QEAAPEADXZ 000000018008da0c f i libucrtd:environment_initialization.obj
 0001:0008ca14       ?detach@?$__crt_unique_heap_ptr@_WU__crt_internal_free_policy@@@@QEAAPEA_WXZ 000000018008da14 f i libucrtd:environment_initialization.obj
 0001:0008ca1c       ?get@?$__crt_unique_heap_ptr@_WU__crt_internal_free_policy@@@@QEBAPEA_WXZ 000000018008da1c f i libucrtd:environment_initialization.obj
 0001:0008ca50       ?initialize@?$dual_state_global@PEAPEAD@__crt_state_management@@QEAAXQEAPEAD@Z 000000018008da50 f i libucrtd:environment_initialization.obj
 0001:0008ca78       ?initialize@?$dual_state_global@PEAPEA_W@__crt_state_management@@QEAAXQEAPEA_W@Z 000000018008da78 f i libucrtd:environment_initialization.obj
 0001:0008caa0       ?is_valid@?$__crt_unique_heap_ptr@PEADU__crt_internal_free_policy@@@@QEBA_NXZ 000000018008daa0 f i libucrtd:environment_initialization.obj
 0001:0008caa8       ?is_valid@?$__crt_unique_heap_ptr@PEA_WU__crt_internal_free_policy@@@@QEBA_NXZ 000000018008daa8 f i libucrtd:environment_initialization.obj
 0001:0008cab0       ?is_valid@?$__crt_unique_heap_ptr@_WU__crt_internal_free_policy@@@@QEBA_NXZ 000000018008dab0 f i libucrtd:environment_initialization.obj
 0001:0008cac4       ?release@?$__crt_unique_heap_ptr@_WU__crt_internal_free_policy@@@@QEAAXXZ 000000018008dac4 f i libucrtd:environment_initialization.obj
 0001:0008cae4       ?value@?$dual_state_global@PEAPEAD@__crt_state_management@@QEAAAEAPEAPEADXZ 000000018008dae4 f i libucrtd:environment_initialization.obj
 0001:0008cae8       ?value@?$dual_state_global@PEAPEA_W@__crt_state_management@@QEAAAEAPEAPEA_WXZ 000000018008dae8 f i libucrtd:environment_initialization.obj
 0001:0008caec       __dcrt_get_or_create_narrow_environment_nolock 000000018008daec f   libucrtd:environment_initialization.obj
 0001:0008cb28       __dcrt_get_or_create_wide_environment_nolock 000000018008db28 f   libucrtd:environment_initialization.obj
 0001:0008cb64       __dcrt_uninitialize_environments_nolock 000000018008db64 f   libucrtd:environment_initialization.obj
 0001:0008cb9c       __p__environ               000000018008db9c f   libucrtd:environment_initialization.obj
 0001:0008cba4       __p__wenviron              000000018008dba4 f   libucrtd:environment_initialization.obj
 0001:0008cbac       _get_initial_narrow_environment 000000018008dbac f   libucrtd:environment_initialization.obj
 0001:0008cbfc       _get_initial_wide_environment 000000018008dbfc f   libucrtd:environment_initialization.obj
 0001:0008cc4c       _initialize_narrow_environment 000000018008dc4c f   libucrtd:environment_initialization.obj
 0001:0008cc54       _initialize_wide_environment 000000018008dc54 f   libucrtd:environment_initialization.obj
 0001:0008cc60       ??$?B$$A6AXXZ@__crt_fast_encoded_nullptr_t@@QEBAP6AXXZXZ 000000018008dc60 f i libucrtd:onexit.obj
 0001:0008cc80       ??$?BP6AXXZ@__crt_fast_encoded_nullptr_t@@QEBAPEAP6AXXZXZ 000000018008dc80 f i libucrtd:onexit.obj
 0001:0008cca0       ??$?RP6AXXZ@__crt_internal_free_policy@@QEBAXQEBQ6AXXZ@Z 000000018008dca0 f i libucrtd:onexit.obj
 0001:0008ce10       ??$__crt_fast_decode_pointer@P6AXXZ@@YAP6AXXZQ6AXXZ@Z 000000018008de10 f i libucrtd:onexit.obj
 0001:0008ce50       ??$__crt_fast_decode_pointer@PEAP6AXXZ@@YAPEAP6AXXZQEAP6AXXZ@Z 000000018008de50 f i libucrtd:onexit.obj
 0001:0008ce90       ??$__crt_fast_encode_pointer@P6AHXZ@@YAP6AHXZQ6AHXZ@Z 000000018008de90 f i libucrtd:onexit.obj
 0001:0008ced0       ??$__crt_fast_encode_pointer@P6AXXZ@@YAP6AXXZQ6AXXZ@Z 000000018008ded0 f i libucrtd:onexit.obj
 0001:0008cf10       ??$__crt_fast_encode_pointer@PEAP6AXXZ@@YAPEAP6AXXZQEAP6AXXZ@Z 000000018008df10 f i libucrtd:onexit.obj
 0001:0008d020       ??0?$__crt_unique_heap_ptr@P6AXXZU__crt_internal_free_policy@@@@QEAA@QEAP6AXXZ@Z 000000018008e020 f i libucrtd:onexit.obj
 0001:0008d040       ??1?$__crt_unique_heap_ptr@P6AXXZU__crt_internal_free_policy@@@@QEAA@XZ 000000018008e040 f i libucrtd:onexit.obj
 0001:0008d060       ??1scoped_global_state_reset@__crt_state_management@@QEAA@XZ 000000018008e060 f i libucrtd:onexit.obj
 0001:0008d630       ?detach@?$__crt_unique_heap_ptr@P6AXXZU__crt_internal_free_policy@@@@QEAAPEAP6AXXZXZ 000000018008e630 f i libucrtd:onexit.obj
 0001:0008d660       ?release@?$__crt_unique_heap_ptr@P6AXXZU__crt_internal_free_policy@@@@QEAAXXZ 000000018008e660 f i libucrtd:onexit.obj
 0001:0008d690       _crt_at_quick_exit         000000018008e690 f   libucrtd:onexit.obj
 0001:0008d6b0       _crt_atexit                000000018008e6b0 f   libucrtd:onexit.obj
 0001:0008d6d0       _execute_onexit_table      000000018008e6d0 f   libucrtd:onexit.obj
 0001:0008d710       _initialize_onexit_table   000000018008e710 f   libucrtd:onexit.obj
 0001:0008d790       _register_onexit_function  000000018008e790 f   libucrtd:onexit.obj
 0001:0008da00       ??$?BX@__crt_fast_encoded_nullptr_t@@QEBAPEAXXZ 000000018008ea00 f i libucrtd:initialization.obj
 0001:0008da20       ??$__crt_fast_encode_pointer@PEAX@@YAPEAXQEAX@Z 000000018008ea20 f i libucrtd:initialization.obj
 0001:0008db10       ?initialize@?$dual_state_global@PEAU__crt_locale_data@@@__crt_state_management@@QEAAXQEAU__crt_locale_data@@@Z 000000018008eb10 f i libucrtd:initialization.obj
 0001:0008db60       __acrt_initialize          000000018008eb60 f   libucrtd:initialization.obj
 0001:0008db90       __acrt_thread_attach       000000018008eb90 f   libucrtd:initialization.obj
 0001:0008dbb0       __acrt_thread_detach       000000018008ebb0 f   libucrtd:initialization.obj
 0001:0008dbc0       __acrt_uninitialize        000000018008ebc0 f   libucrtd:initialization.obj
 0001:0008dbf0       __acrt_uninitialize_critical 000000018008ebf0 f   libucrtd:initialization.obj
 0001:0008fbe0       _CrtCheckMemory            0000000180090be0 f   libucrtd:debug_heap.obj
 0001:0008fd70       _CrtDoForAllClientObjects  0000000180090d70 f   libucrtd:debug_heap.obj
 0001:0008fea0       _CrtDumpMemoryLeaks        0000000180090ea0 f   libucrtd:debug_heap.obj
 0001:0008ff60       _CrtGetAllocHook           0000000180090f60 f   libucrtd:debug_heap.obj
 0001:0008ff70       _CrtGetDumpClient          0000000180090f70 f   libucrtd:debug_heap.obj
 0001:0008ff80       _CrtIsMemoryBlock          0000000180090f80 f   libucrtd:debug_heap.obj
 0001:000900c0       _CrtIsValidHeapPointer     00000001800910c0 f   libucrtd:debug_heap.obj
 0001:00090100       _CrtIsValidPointer         0000000180091100 f   libucrtd:debug_heap.obj
 0001:00090140       _CrtMemCheckpoint          0000000180091140 f   libucrtd:debug_heap.obj
 0001:000903c0       _CrtMemDifference          00000001800913c0 f   libucrtd:debug_heap.obj
 0001:00090720       _CrtMemDumpAllObjectsSince 0000000180091720 f   libucrtd:debug_heap.obj
 0001:00090780       _CrtMemDumpStatistics      0000000180091780 f   libucrtd:debug_heap.obj
 0001:00090920       _CrtReportBlockType        0000000180091920 f   libucrtd:debug_heap.obj
 0001:00090950       _CrtSetAllocHook           0000000180091950 f   libucrtd:debug_heap.obj
 0001:00090980       _CrtSetBreakAlloc          0000000180091980 f   libucrtd:debug_heap.obj
 0001:000909b0       _CrtSetDbgBlockType        00000001800919b0 f   libucrtd:debug_heap.obj
 0001:00090a50       _CrtSetDbgFlag             0000000180091a50 f   libucrtd:debug_heap.obj
 0001:00090bb0       _CrtSetDumpClient          0000000180091bb0 f   libucrtd:debug_heap.obj
 0001:00090be0       __acrt_get_locale_data_prefix 0000000180091be0 f i libucrtd:debug_heap.obj
 0001:00090c00       __p__crtBreakAlloc         0000000180091c00 f   libucrtd:debug_heap.obj
 0001:00090c10       __p__crtDbgFlag            0000000180091c10 f   libucrtd:debug_heap.obj
 0001:00090c20       _aligned_free_dbg          0000000180091c20 f   libucrtd:debug_heap.obj
 0001:00090d10       _aligned_malloc_dbg        0000000180091d10 f   libucrtd:debug_heap.obj
 0001:00090d50       _aligned_msize_dbg         0000000180091d50 f   libucrtd:debug_heap.obj
 0001:00090f20       _aligned_offset_malloc_dbg 0000000180091f20 f   libucrtd:debug_heap.obj
 0001:00091210       _aligned_offset_realloc_dbg 0000000180092210 f   libucrtd:debug_heap.obj
 0001:000916c0       _aligned_offset_recalloc_dbg 00000001800926c0 f   libucrtd:debug_heap.obj
 0001:000917e0       _aligned_realloc_dbg       00000001800927e0 f   libucrtd:debug_heap.obj
 0001:00091830       _aligned_recalloc_dbg      0000000180092830 f   libucrtd:debug_heap.obj
 0001:00091890       _calloc_dbg                0000000180092890 f   libucrtd:debug_heap.obj
 0001:00091930       _chvalidchk_l              0000000180092930 f i libucrtd:debug_heap.obj
 0001:00091960       _expand_dbg                0000000180092960 f   libucrtd:debug_heap.obj
 0001:00091a90       _free_dbg                  0000000180092a90 f   libucrtd:debug_heap.obj
 0001:00091b00       _ischartype_l              0000000180092b00 f i libucrtd:debug_heap.obj
 0001:00091b90       _malloc_dbg                0000000180092b90 f   libucrtd:debug_heap.obj
 0001:00091bd0       _msize_dbg                 0000000180092bd0 f   libucrtd:debug_heap.obj
 0001:00091d70       _realloc_dbg               0000000180092d70 f   libucrtd:debug_heap.obj
 0001:00091de0       _recalloc_dbg              0000000180092de0 f   libucrtd:debug_heap.obj
 0001:00091ee0       _initterm                  0000000180092ee0 f   libucrtd:initterm.obj
 0001:00091f40       _initterm_e                0000000180092f40 f   libucrtd:initterm.obj
 0001:00092490       strcpy_s                   0000000180093490 f   libucrtd:strcpy_s.obj
 0001:00092b30       strcat_s                   0000000180093b30 f   libucrtd:strcat_s.obj
 0001:00092b60       ??$?B$$A6AH_K@Z@__crt_fast_encoded_nullptr_t@@QEBAP6AH_K@ZXZ 0000000180093b60 f i libucrtd:new_handler.obj
 0001:00092b80       ??$__crt_fast_decode_pointer@P6AH_K@Z@@YAP6AH_K@ZQ6AH0@Z@Z 0000000180093b80 f i libucrtd:new_handler.obj
 0001:00092bc0       ??$__crt_fast_encode_pointer@P6AH_K@Z@@YAP6AH_K@ZQ6AH0@Z@Z 0000000180093bc0 f i libucrtd:new_handler.obj
 0001:00092c00       ?_set_new_handler@@YAP6AH_K@ZH@Z 0000000180093c00 f   libucrtd:new_handler.obj
 0001:00092c70       ?initialize@?$dual_state_global@P6AH_K@Z@__crt_state_management@@QEAAXQ6AH_K@Z@Z 0000000180093c70 f i libucrtd:new_handler.obj
 0001:00092cc0       ?value@?$dual_state_global@P6AH_K@Z@__crt_state_management@@QEAAAEAP6AH_K@ZXZ 0000000180093cc0 f i libucrtd:new_handler.obj
 0001:00092ce0       __acrt_initialize_new_handler 0000000180093ce0 f   libucrtd:new_handler.obj
 0001:00092d00       _callnewh                  0000000180093d00 f   libucrtd:new_handler.obj
 0001:00092d50       _query_new_handler         0000000180093d50 f   libucrtd:new_handler.obj
 0001:00092d90       _set_new_handler           0000000180093d90 f   libucrtd:new_handler.obj
 0001:00092e40       _get_terminate             0000000180093e40 f   libucrtd:terminate.obj
 0001:00092e60       set_terminate              0000000180093e60 f   libucrtd:terminate.obj
 0001:00092ea0       terminate                  0000000180093ea0 f   libucrtd:terminate.obj
 0001:00093ca0       _makepath                  0000000180094ca0 f   libucrtd:makepath.obj
 0001:00093cf0       _makepath_s                0000000180094cf0 f   libucrtd:makepath.obj
 0001:00093d40       _wmakepath                 0000000180094d40 f   libucrtd:makepath.obj
 0001:00093d90       _wmakepath_s               0000000180094d90 f   libucrtd:makepath.obj
 0001:000963c0       ??$tcsncpy_s@AEAPEAD_KAEAPEBDAEB_K@?$__crt_char_traits@D@@SAHAEAPEAD$$QEA_KAEAPEBDAEB_K@Z 00000001800973c0 f i libucrtd:splitpath.obj
 0001:00096410       ??$tcsncpy_s@AEAPEAD_KAEAPEBDH@?$__crt_char_traits@D@@SAHAEAPEAD$$QEA_KAEAPEBD$$QEAH@Z 0000000180097410 f i libucrtd:splitpath.obj
 0001:00096460       ??$tcsncpy_s@AEAPEA_W_KAEAPEB_WAEB_K@?$__crt_char_traits@_W@@SAHAEAPEA_W$$QEA_KAEAPEB_WAEB_K@Z 0000000180097460 f i libucrtd:splitpath.obj
 0001:000964b0       ??$tcsncpy_s@AEAPEA_W_KAEAPEB_WH@?$__crt_char_traits@_W@@SAHAEAPEA_W$$QEA_KAEAPEB_W$$QEAH@Z 00000001800974b0 f i libucrtd:splitpath.obj
 0001:00096760       _splitpath                 0000000180097760 f   libucrtd:splitpath.obj
 0001:000967a0       _splitpath_s               00000001800977a0 f   libucrtd:splitpath.obj
 0001:00096840       _wsplitpath                0000000180097840 f   libucrtd:splitpath.obj
 0001:00096880       _wsplitpath_s              0000000180097880 f   libucrtd:splitpath.obj
 0001:00096920       _set_abort_behavior        0000000180097920 f   libucrtd:abort.obj
 0001:00096960       abort                      0000000180097960 f   libucrtd:abort.obj
 0001:000969f0       strcmp                     00000001800979f0 f   libucrtd:strcmp.obj
 0001:00096a70       strlen                     0000000180097a70 f   libucrtd:strlen.obj
 0001:00096b20       ??$is_overflow_condition@K@__crt_strtox@@YA_NIK@Z 0000000180097b20 f i libucrtd:atox.obj
 0001:00096b90       ??$is_overflow_condition@_K@__crt_strtox@@YA_NI_K@Z 0000000180097b90 f i libucrtd:atox.obj
 0001:00096c00       ??$make_c_string_character_source@D$$T@__crt_strtox@@YA?AV?$c_string_character_source@D@0@QEBD$$T@Z 0000000180097c00 f i libucrtd:atox.obj
 0001:00096c40       ??$make_c_string_character_source@_W$$T@__crt_strtox@@YA?AV?$c_string_character_source@_W@0@QEB_W$$T@Z 0000000180097c40 f i libucrtd:atox.obj
 0001:00096c80       ??$parse_integer@KV?$c_string_character_source@D@__crt_strtox@@@__crt_strtox@@YAKQEAU__crt_locale_pointers@@V?$c_string_character_source@D@0@H_N@Z 0000000180097c80 f i libucrtd:atox.obj
 0001:00097110       ??$parse_integer@KV?$c_string_character_source@_W@__crt_strtox@@@__crt_strtox@@YAKQEAU__crt_locale_pointers@@V?$c_string_character_source@_W@0@H_N@Z 0000000180098110 f i libucrtd:atox.obj
 0001:000975c0       ??$parse_integer@_KV?$c_string_character_source@D@__crt_strtox@@@__crt_strtox@@YA_KQEAU__crt_locale_pointers@@V?$c_string_character_source@D@0@H_N@Z 00000001800985c0 f i libucrtd:atox.obj
 0001:00097ae0       ??$parse_integer@_KV?$c_string_character_source@_W@__crt_strtox@@@__crt_strtox@@YA_KQEAU__crt_locale_pointers@@V?$c_string_character_source@_W@0@H_N@Z 0000000180098ae0 f i libucrtd:atox.obj
 0001:00098000       ??$parse_integer_from_string@JD$$T@__crt_strtox@@YAJQEBD$$THQEAU__crt_locale_pointers@@@Z 0000000180099000 f i libucrtd:atox.obj
 0001:00098050       ??$parse_integer_from_string@J_W$$T@__crt_strtox@@YAJQEB_W$$THQEAU__crt_locale_pointers@@@Z 0000000180099050 f i libucrtd:atox.obj
 0001:000980a0       ??$parse_integer_from_string@_JD$$T@__crt_strtox@@YA_JQEBD$$THQEAU__crt_locale_pointers@@@Z 00000001800990a0 f i libucrtd:atox.obj
 0001:000980f0       ??$parse_integer_from_string@_J_W$$T@__crt_strtox@@YA_JQEB_W$$THQEAU__crt_locale_pointers@@@Z 00000001800990f0 f i libucrtd:atox.obj
 0001:00098140       ??0?$c_string_character_source@D@__crt_strtox@@QEAA@QEBDQEAPEBD@Z 0000000180099140 f i libucrtd:atox.obj
 0001:00098190       ??0?$c_string_character_source@_W@__crt_strtox@@QEAA@QEB_WQEAPEB_W@Z 0000000180099190 f i libucrtd:atox.obj
 0001:000981e0       ??1?$c_string_character_source@D@__crt_strtox@@QEAA@XZ 00000001800991e0 f i libucrtd:atox.obj
 0001:00098210       ??1?$c_string_character_source@_W@__crt_strtox@@QEAA@XZ 0000000180099210 f i libucrtd:atox.obj
 0001:00098240       ?get@?$c_string_character_source@D@__crt_strtox@@QEAADXZ 0000000180099240 f i libucrtd:atox.obj
 0001:00098280       ?get@?$c_string_character_source@_W@__crt_strtox@@QEAA_WXZ 0000000180099280 f i libucrtd:atox.obj
 0001:000982c0       ?is_space@__crt_strtox@@YA_NDQEAU__crt_locale_pointers@@@Z 00000001800992c0 f i libucrtd:atox.obj
 0001:00098310       ?is_space@__crt_strtox@@YA_N_WPEAU__crt_locale_pointers@@@Z 0000000180099310 f i libucrtd:atox.obj
 0001:00098350       ?maximum_signed_value@__crt_strtox@@YAJK@Z 0000000180099350 f i libucrtd:atox.obj
 0001:00098360       ?maximum_signed_value@__crt_strtox@@YA_J_K@Z 0000000180099360 f i libucrtd:atox.obj
 0001:00098370       ?minimum_signed_value@__crt_strtox@@YAJK@Z 0000000180099370 f i libucrtd:atox.obj
 0001:00098380       ?minimum_signed_value@__crt_strtox@@YA_J_K@Z 0000000180099380 f i libucrtd:atox.obj
 0001:00098390       ?parse_digit@__crt_strtox@@YAID@Z 0000000180099390 f i libucrtd:atox.obj
 0001:00098400       ?parse_digit@__crt_strtox@@YAI_W@Z 0000000180099400 f i libucrtd:atox.obj
 0001:00098450       ?restore_state@?$c_string_character_source@D@__crt_strtox@@QEAA_NQEBD@Z 0000000180099450 f i libucrtd:atox.obj
 0001:00098470       ?restore_state@?$c_string_character_source@_W@__crt_strtox@@QEAA_NQEB_W@Z 0000000180099470 f i libucrtd:atox.obj
 0001:00098490       ?save_state@?$c_string_character_source@D@__crt_strtox@@QEBAPEBDXZ 0000000180099490 f i libucrtd:atox.obj
 0001:000984a0       ?save_state@?$c_string_character_source@_W@__crt_strtox@@QEBAPEB_WXZ 00000001800994a0 f i libucrtd:atox.obj
 0001:000984b0       ?unget@?$c_string_character_source@D@__crt_strtox@@QEAAXD@Z 00000001800994b0 f i libucrtd:atox.obj
 0001:00098590       ?unget@?$c_string_character_source@_W@__crt_strtox@@QEAAX_W@Z 0000000180099590 f i libucrtd:atox.obj
 0001:00098670       ?validate@?$c_string_character_source@D@__crt_strtox@@QEBA_NXZ 0000000180099670 f i libucrtd:atox.obj
 0001:00098730       ?validate@?$c_string_character_source@_W@__crt_strtox@@QEBA_NXZ 0000000180099730 f i libucrtd:atox.obj
 0001:000987f0       ?wide_character_to_digit@__crt_strtox@@YAH_W@Z 00000001800997f0 f i libucrtd:atox.obj
 0001:00098b60       __ascii_iswalpha           0000000180099b60 f i libucrtd:atox.obj
 0001:00098ba0       __ascii_toupper            0000000180099ba0 f i libucrtd:atox.obj
 0001:00098bc0       __ascii_towupper           0000000180099bc0 f i libucrtd:atox.obj
 0001:00098be0       _atoi64                    0000000180099be0 f   libucrtd:atox.obj
 0001:00098c10       _atoi64_l                  0000000180099c10 f   libucrtd:atox.obj
 0001:00098c40       _atoi_l                    0000000180099c40 f   libucrtd:atox.obj
 0001:00098c70       _atol_l                    0000000180099c70 f   libucrtd:atox.obj
 0001:00098ca0       _atoll_l                   0000000180099ca0 f   libucrtd:atox.obj
 0001:00098cd0       _wtoi                      0000000180099cd0 f   libucrtd:atox.obj
 0001:00098d00       _wtoi64                    0000000180099d00 f   libucrtd:atox.obj
 0001:00098d30       _wtoi64_l                  0000000180099d30 f   libucrtd:atox.obj
 0001:00098d60       _wtoi_l                    0000000180099d60 f   libucrtd:atox.obj
 0001:00098d90       _wtol                      0000000180099d90 f   libucrtd:atox.obj
 0001:00098dc0       _wtol_l                    0000000180099dc0 f   libucrtd:atox.obj
 0001:00098df0       _wtoll                     0000000180099df0 f   libucrtd:atox.obj
 0001:00098e20       _wtoll_l                   0000000180099e20 f   libucrtd:atox.obj
 0001:00098e50       atoi                       0000000180099e50 f   libucrtd:atox.obj
 0001:00098e80       atol                       0000000180099e80 f   libucrtd:atox.obj
 0001:00098eb0       atoll                      0000000180099eb0 f   libucrtd:atox.obj
 0001:00098ef0       strncmp                    0000000180099ef0 f   libucrtd:strncmp.obj
 0001:00098f70       wcsncmp                    0000000180099f70 f   libucrtd:wcsncmp.obj
 0001:00099000       _CrtGetDebugFillThreshold  000000018009a000 f   libucrtd:debug_fill_threshold.obj
 0001:00099010       _CrtSetDebugFillThreshold  000000018009a010 f   libucrtd:debug_fill_threshold.obj
 0001:00099040       ??$make_c_string_character_source@DPEAPEAD@__crt_strtox@@YA?AV?$c_string_character_source@D@0@QEBDQEAPEAD@Z 000000018009a040 f i libucrtd:strtox.obj
 0001:00099080       ??$make_c_string_character_source@_WPEAPEA_W@__crt_strtox@@YA?AV?$c_string_character_source@_W@0@QEB_WQEAPEA_W@Z 000000018009a080 f i libucrtd:strtox.obj
 0001:000990c0       ??$parse_integer_from_string@JDPEAPEAD@__crt_strtox@@YAJQEBDQEAPEADHQEAU__crt_locale_pointers@@@Z 000000018009a0c0 f i libucrtd:strtox.obj
 0001:00099110       ??$parse_integer_from_string@J_WPEAPEA_W@__crt_strtox@@YAJQEB_WQEAPEA_WHQEAU__crt_locale_pointers@@@Z 000000018009a110 f i libucrtd:strtox.obj
 0001:00099160       ??$parse_integer_from_string@KDPEAPEAD@__crt_strtox@@YAKQEBDQEAPEADHQEAU__crt_locale_pointers@@@Z 000000018009a160 f i libucrtd:strtox.obj
 0001:000991b0       ??$parse_integer_from_string@K_WPEAPEA_W@__crt_strtox@@YAKQEB_WQEAPEA_WHQEAU__crt_locale_pointers@@@Z 000000018009a1b0 f i libucrtd:strtox.obj
 0001:00099200       ??$parse_integer_from_string@_JDPEAPEAD@__crt_strtox@@YA_JQEBDQEAPEADHQEAU__crt_locale_pointers@@@Z 000000018009a200 f i libucrtd:strtox.obj
 0001:00099250       ??$parse_integer_from_string@_J_WPEAPEA_W@__crt_strtox@@YA_JQEB_WQEAPEA_WHQEAU__crt_locale_pointers@@@Z 000000018009a250 f i libucrtd:strtox.obj
 0001:000992a0       ??$parse_integer_from_string@_KDPEAPEAD@__crt_strtox@@YA_KQEBDQEAPEADHQEAU__crt_locale_pointers@@@Z 000000018009a2a0 f i libucrtd:strtox.obj
 0001:000992f0       ??$parse_integer_from_string@_K_WPEAPEA_W@__crt_strtox@@YA_KQEB_WQEAPEA_WHQEAU__crt_locale_pointers@@@Z 000000018009a2f0 f i libucrtd:strtox.obj
 0001:00099340       _strtoi64                  000000018009a340 f   libucrtd:strtox.obj
 0001:00099370       _strtoi64_l                000000018009a370 f   libucrtd:strtox.obj
 0001:000993b0       _strtoimax_l               000000018009a3b0 f   libucrtd:strtox.obj
 0001:000993f0       _strtol_l                  000000018009a3f0 f   libucrtd:strtox.obj
 0001:00099430       _strtoll_l                 000000018009a430 f   libucrtd:strtox.obj
 0001:00099470       _strtoui64                 000000018009a470 f   libucrtd:strtox.obj
