 OPOSVoiceRecognition

 Timestamp is 61a758f5 (Wed Dec  1 20:13:57 2021)

 Preferred load address is 0000000180000000

 Start         Length     Name                   Class
 0001:00000000 00000d90H .text$di                CODE
 0001:00000d90 000e4180H .text$mn                CODE
 0001:000e4f10 00000040H .text$mn$00             CODE
 0001:000e4f50 00001330H .text$x                 CODE
 0001:000e6280 00000124H .text$yd                CODE
 0002:00000000 000006f8H .idata$5                DATA
 0002:000006f8 00000030H .00cfg                  DATA
 0002:00000728 00000008H .CRT$XCA                DATA
 0002:00000730 00000008H .CRT$XCL                DATA
 0002:00000738 000000d8H .CRT$XCU                DATA
 0002:00000810 00000008H .CRT$XCZ                DATA
 0002:00000818 00000008H .CRT$XIA                DATA
 0002:00000820 00000028H .CRT$XIC                DATA
 0002:00000848 00000008H .CRT$XIZ                DATA
 0002:00000850 00000008H .CRT$XLA                DATA
 0002:00000858 00000008H .CRT$XLZ                DATA
 0002:00000860 00000008H .CRT$XPA                DATA
 0002:00000868 00000010H .CRT$XPX                DATA
 0002:00000878 00000008H .CRT$XPXA               DATA
 0002:00000880 00000008H .CRT$XPZ                DATA
 0002:00000888 00000008H .CRT$XTA                DATA
 0002:00000890 00000010H .CRT$XTZ                DATA
 0002:00000898 00000000H .gehcont$y              DATA
 0002:00000898 00000000H .gfids$y                DATA
 0002:000008a0 0003c0e0H .rdata                  DATA
 0002:0003c980 00000080H .rdata$CastGuardVftablesA DATA
 0002:0003ca00 00000080H .rdata$CastGuardVftablesC DATA
 0002:0003ca80 00000028H .rdata$T                DATA
 0002:0003caa8 0000056cH .rdata$r                DATA
 0002:0003d014 00000188H .rdata$voltmd           DATA
 0002:0003d19c 000004acH .rdata$zzzdbg           DATA
 0002:0003d648 00000008H .rtc$IAA                DATA
 0002:0003d650 00000030H .rtc$IMZ                DATA
 0002:0003d680 00000008H .rtc$IZZ                DATA
 0002:0003d688 00000008H .rtc$TAA                DATA
 0002:0003d690 00000030H .rtc$TMZ                DATA
 0002:0003d6c0 00000008H .rtc$TZZ                DATA
 0002:0003d6c8 00000004H .tls                    DATA
 0002:0003d6cc 00000004H .tls$                   DATA
 0002:0003d6d0 00000008H .tls$ZZZ                DATA
 0002:0003d6d8 00009f08H .xdata                  DATA
 0002:000475e0 00000150H .xdata$x                DATA
 0002:00047730 00000008H ATL$__a                 DATA
 0002:00047738 00000008H ATL$__z                 DATA
 0002:00047740 000000b4H .edata                  DATA
 0002:000477f4 00000078H .idata$2                DATA
 0002:0004786c 00000014H .idata$3                DATA
 0002:00047880 000006f8H .idata$4                DATA
 0002:00047f78 00000df0H .idata$6                DATA
 0003:00000000 00000ed8H .data                   DATA
 0003:00000ed8 000000a8H .data$r                 DATA
 0003:00000f80 000000f0H .data$rs                DATA
 0003:00001070 00003e7cH .bss                    DATA
 0004:00000000 0000c78cH .pdata                  DATA
 0005:00000000 000000fcH _RDATA                  DATA
 0006:00000000 00000220H .rsrc$01                DATA
 0006:00000220 00003dd0H .rsrc$02                DATA

  Address         Publics by Value              Rva+Base               Lib:Object

 0000:00000000       __enclave_config           0000000000000000     <absolute>
 0000:00000000       __arm64x_extra_rfe_table   0000000000000000     <absolute>
 0000:00000000       __guard_longjmp_count      0000000000000000     <absolute>
 0000:00000000       ___safe_se_handler_count   0000000000000000     <absolute>
 0000:00000000       __arm64x_extra_rfe_table_size 0000000000000000     <absolute>
 0000:00000000       __guard_check_icall_a64n_fptr 0000000000000000     <absolute>
 0000:00000000       __arm64x_redirection_metadata_count 0000000000000000     <absolute>
 0000:00000000       __guard_fids_count         0000000000000000     <absolute>
 0000:00000000       __AbsoluteZero             0000000000000000     <absolute>
 0000:00000000       __hybrid_auxiliary_iat     0000000000000000     <absolute>
 0000:00000000       __guard_iat_count          0000000000000000     <absolute>
 0000:00000000       __guard_eh_cont_count      0000000000000000     <absolute>
 0000:00000000       __guard_iat_table          0000000000000000     <absolute>
 0000:00000000       __arm64x_native_entrypoint 0000000000000000     <absolute>
 0000:00000000       __guard_eh_cont_table      0000000000000000     <absolute>
 0000:00000000       __hybrid_auxiliary_iat_copy 0000000000000000     <absolute>
 0000:00000000       __hybrid_code_map          0000000000000000     <absolute>
 0000:00000000       __guard_fids_table         0000000000000000     <absolute>
 0000:00000000       __arm64x_redirection_metadata 0000000000000000     <absolute>
 0000:00000000       __hybrid_code_map_count    0000000000000000     <absolute>
 0000:00000000       __x64_code_ranges_to_entry_points_count 0000000000000000     <absolute>
 0000:00000000       __guard_longjmp_table      0000000000000000     <absolute>
 0000:00000000       __dynamic_value_reloc_table 0000000000000000     <absolute>
 0000:00000000       ___safe_se_handler_table   0000000000000000     <absolute>
 0000:00000000       __x64_code_ranges_to_entry_points 0000000000000000     <absolute>
 0000:00000100       __guard_flags              0000000000000100     <absolute>
 0000:00000000       __ImageBase                0000000180000000     <linker-defined>
 0001:00000d90       ?_assert@@YAXPEB_W0I@Z     0000000180001d90 f   Assert.obj
 0001:00000e90       __local_stdio_printf_options 0000000180001e90 f i Assert.obj
 0001:00000ea0       __vswprintf_l              0000000180001ea0 f i Assert.obj
 0001:00000ef0       _swprintf                  0000000180001ef0 f i Assert.obj
 0001:00000f70       _vswprintf_c_l             0000000180001f70 f i Assert.obj
 0001:00000fe0       _vswprintf_l               0000000180001fe0 f i Assert.obj
 0001:00001030       ?cw_memcpy@@YAHPEADPEB_WH@Z 0000000180002030 f   CWString.obj
 0001:000010b0       ?cw_memcpy@@YAHPEA_WPEBDH@Z 00000001800020b0 f   CWString.obj
 0001:00001120       ?cw_memcpy@@YAHPEADPEBDH@Z 0000000180002120 f   CWString.obj
 0001:000011b0       ?cw_memcpy@@YAHPEA_WPEB_WH@Z 00000001800021b0 f   CWString.obj
 0001:00001210       ?cw_memset@@YAXPEADDH@Z    0000000180002210 f   CWString.obj
 0001:00001270       ?cw_memset@@YAXPEA_W_WH@Z  0000000180002270 f   CWString.obj
 0001:00001300       ?cw_strlen@@YAHPEBD@Z      0000000180002300 f   CWString.obj
 0001:00001360       ?cw_strlen@@YAHPEB_W@Z     0000000180002360 f   CWString.obj
 0001:000013c0       ?cw_strcpy@@YAHPEADPEB_W@Z 00000001800023c0 f   CWString.obj
 0001:00001400       ?cw_strcpy@@YAHPEA_WPEBD@Z 0000000180002400 f   CWString.obj
 0001:00001440       ?cw_strcpy@@YAHPEADPEBD@Z  0000000180002440 f   CWString.obj
 0001:00001480       ?cw_strcpy@@YAHPEA_WPEB_W@Z 0000000180002480 f   CWString.obj
 0001:000014c0       ?cw_strcat@@YAHPEADPEB_W@Z 00000001800024c0 f   CWString.obj
 0001:00001510       ?cw_strcat@@YAHPEA_WPEBD@Z 0000000180002510 f   CWString.obj
 0001:00001560       ?cw_strcat@@YAHPEADPEBD@Z  0000000180002560 f   CWString.obj
 0001:000015b0       ?cw_strcat@@YAHPEA_WPEB_W@Z 00000001800025b0 f   CWString.obj
 0001:00001600       ?cw_dup@@YAXPEBDAEAHAEAPEA_W1@Z 0000000180002600 f   CWString.obj
 0001:00001700       ?cw_dup@@YAXPEB_WAEAHAEAPEAD1@Z 0000000180002700 f   CWString.obj
 0001:000017e0       ?DupChar@_CW@@AEAAXXZ      00000001800027e0 f   CWString.obj
 0001:00001830       ?DupWide@_CW@@AEAAXXZ      0000000180002830 f   CWString.obj
 0001:00001880       ?GetCharsMbcs@_CW@@QEAAHXZ 0000000180002880 f   CWString.obj
 0001:000018e0       ?GetCharsWide@_CW@@QEAAHXZ 00000001800028e0 f   CWString.obj
 0001:00001940       ?SetVARIANT_BOOL@OposVariant@@QEAAXF@Z 0000000180002940 f   OposVariant.obj
 0001:000019a0       ?SetVARIANT_BOOL_Ptr@OposVariant@@QEAAXPEAFAEAJ@Z 00000001800029a0 f   OposVariant.obj
 0001:00001a00       ?GetLONG@OposVariant@@QEAAJXZ 0000000180002a00 f   OposVariant.obj
 0001:00001a60       ?ChangeLONG@OposVariant@@QEAAXPEAJAEAJ@Z 0000000180002a60 f   OposVariant.obj
 0001:00001b10       ?SetLONG@OposVariant@@QEAAXJ@Z 0000000180002b10 f   OposVariant.obj
 0001:00001b50       ?SetLONG_Ptr@OposVariant@@QEAAXPEAJAEAJ@Z 0000000180002b50 f   OposVariant.obj
 0001:00001bb0       ?ChangeCURRENCY@OposVariant@@QEAAXPEATtagCY@@AEAJ@Z 0000000180002bb0 f   OposVariant.obj
 0001:00001c60       ?SetCURRENCY@OposVariant@@QEAAXTtagCY@@@Z 0000000180002c60 f   OposVariant.obj
 0001:00001ca0       ?SetCURRENCY_Ptr@OposVariant@@QEAAXPEATtagCY@@AEAJ@Z 0000000180002ca0 f   OposVariant.obj
 0001:00001d00       ?ChangeBSTR@OposVariant@@QEAAXPEAPEA_WAEAJ@Z 0000000180002d00 f   OposVariant.obj
 0001:00001db0       ?SetBSTR@OposVariant@@QEAAXPEA_WAEAJ@Z 0000000180002db0 f   OposVariant.obj
 0001:00001e10       ?SetBSTR_Copy@OposVariant@@QEAAXPEA_WAEAJ@Z 0000000180002e10 f   OposVariant.obj
 0001:00001eb0       ?SetBSTR_OutPtr@OposVariant@@QEAA_NPEAPEA_WAEAJ@Z 0000000180002eb0 f   OposVariant.obj
 0001:00001f10       ?SetBSTR_InOutPtr@OposVariant@@QEAA_NPEAPEA_WAEAJ@Z 0000000180002f10 f   OposVariant.obj
 0001:00001f70       ?SetVARIANT@OposVariant@@QEAAXAEAUtagVARIANT@@GAEAJ@Z 0000000180002f70 f   OposVariant.obj
 0001:00002000       ?SetVARIANT_Ptr@OposVariant@@QEAAXAEAPEAUtagVARIANT@@GAEAJ@Z 0000000180003000 f   OposVariant.obj
 0001:000020a0       ?SetString@OposVariant@@QEAAXPEB_WAEAJ@Z 00000001800030a0 f   OposVariant.obj
 0001:00002130       ?SetDispatch_Ptr@OposVariant@@QEAAXPEAUIDispatch@@AEAJ@Z 0000000180003130 f   OposVariant.obj
 0001:000021b0       ??0OposDispParms@@QEAA@PEAVOposVariant@@H@Z 00000001800031b0 f   OposVariant.obj
 0001:000022b0       ??1OposDispParms@@QEAA@XZ  00000001800032b0 f   OposVariant.obj
 0001:000022f0       ??$AtlMultiply@_K@ATL@@YAJPEA_K_K1@Z 00000001800032f0 f i OposVariant.obj
 0001:00002360       ??0?$CHeapPtr@_WVCCRTAllocator@ATL@@@ATL@@QEAA@XZ 0000000180003360 f i OposVariant.obj
 0001:00002380       ??0?$CHeapPtrBase@_WVCCRTAllocator@ATL@@@ATL@@IEAA@XZ 0000000180003380 f i OposVariant.obj
 0001:000023a0       ??0?$CSimpleArray@GV?$CSimpleArrayEqualHelper@G@ATL@@@ATL@@QEAA@XZ 00000001800033a0 f i OposVariant.obj
 0001:000023e0       ??0?$CTraceCategoryEx@$00$0A@@ATL@@QEAA@PEB_W@Z 00000001800033e0 f i OposVariant.obj
 0001:00002410       ??0?$CTraceCategoryEx@$01$0A@@ATL@@QEAA@PEB_W@Z 0000000180003410 f i OposVariant.obj
 0001:00002440       ??0?$CTraceCategoryEx@$03$0A@@ATL@@QEAA@PEB_W@Z 0000000180003440 f i OposVariant.obj
 0001:00002470       ??0?$CTraceCategoryEx@$07$0A@@ATL@@QEAA@PEB_W@Z 0000000180003470 f i OposVariant.obj
 0001:000024a0       ??0?$CTraceCategoryEx@$0BA@$0A@@ATL@@QEAA@PEB_W@Z 00000001800034a0 f i OposVariant.obj
 0001:000024d0       ??0?$CTraceCategoryEx@$0BAA@$0A@@ATL@@QEAA@PEB_W@Z 00000001800034d0 f i OposVariant.obj
 0001:00002500       ??0?$CTraceCategoryEx@$0BAAA@$0A@@ATL@@QEAA@PEB_W@Z 0000000180003500 f i OposVariant.obj
 0001:00002530       ??0?$CTraceCategoryEx@$0BAAAA@$0A@@ATL@@QEAA@PEB_W@Z 0000000180003530 f i OposVariant.obj
 0001:00002560       ??0?$CTraceCategoryEx@$0BAAAAA@$0A@@ATL@@QEAA@PEB_W@Z 0000000180003560 f i OposVariant.obj
 0001:00002590       ??0?$CTraceCategoryEx@$0CA@$0A@@ATL@@QEAA@PEB_W@Z 0000000180003590 f i OposVariant.obj
 0001:000025c0       ??0?$CTraceCategoryEx@$0CAA@$0A@@ATL@@QEAA@PEB_W@Z 00000001800035c0 f i OposVariant.obj
 0001:000025f0       ??0?$CTraceCategoryEx@$0CAAA@$0A@@ATL@@QEAA@PEB_W@Z 00000001800035f0 f i OposVariant.obj
 0001:00002620       ??0?$CTraceCategoryEx@$0CAAAA@$0A@@ATL@@QEAA@PEB_W@Z 0000000180003620 f i OposVariant.obj
 0001:00002650       ??0?$CTraceCategoryEx@$0CAAAAA@$0A@@ATL@@QEAA@PEB_W@Z 0000000180003650 f i OposVariant.obj
 0001:00002680       ??0?$CTraceCategoryEx@$0EA@$0A@@ATL@@QEAA@PEB_W@Z 0000000180003680 f i OposVariant.obj
 0001:000026b0       ??0?$CTraceCategoryEx@$0EAA@$0A@@ATL@@QEAA@PEB_W@Z 00000001800036b0 f i OposVariant.obj
 0001:000026e0       ??0?$CTraceCategoryEx@$0EAAA@$0A@@ATL@@QEAA@PEB_W@Z 00000001800036e0 f i OposVariant.obj
 0001:00002710       ??0?$CTraceCategoryEx@$0EAAAA@$0A@@ATL@@QEAA@PEB_W@Z 0000000180003710 f i OposVariant.obj
 0001:00002740       ??0?$CTraceCategoryEx@$0EAAAAA@$0A@@ATL@@QEAA@PEB_W@Z 0000000180003740 f i OposVariant.obj
 0001:00002770       ??0?$CTraceCategoryEx@$0IA@$0A@@ATL@@QEAA@PEB_W@Z 0000000180003770 f i OposVariant.obj
 0001:000027a0       ??0?$CTraceCategoryEx@$0IAA@$0A@@ATL@@QEAA@PEB_W@Z 00000001800037a0 f i OposVariant.obj
 0001:000027d0       ??0?$CTraceCategoryEx@$0IAAA@$0A@@ATL@@QEAA@PEB_W@Z 00000001800037d0 f i OposVariant.obj
 0001:00002800       ??0?$CTraceCategoryEx@$0IAAAA@$0A@@ATL@@QEAA@PEB_W@Z 0000000180003800 f i OposVariant.obj
 0001:00002830       ??0CAtlComModule@ATL@@QEAA@XZ 0000000180003830 f i OposVariant.obj
 0001:00002940       ??0CAtlWinModule@ATL@@QEAA@XZ 0000000180003940 f i OposVariant.obj
 0001:000029e0       ??0CComCriticalSection@ATL@@QEAA@XZ 00000001800039e0 f i OposVariant.obj
 0001:00002a10       ??0CPreserveLastError@ATL@@QEAA@XZ 0000000180003a10 f i OposVariant.obj
 0001:00002a40       ??0CTraceFileAndLineInfo@ATL@@QEAA@PEBDH@Z 0000000180003a40 f i OposVariant.obj
 0001:00002a70       ??0_ATL_COM_MODULE70@ATL@@QEAA@XZ 0000000180003a70 f i OposVariant.obj
 0001:00002aa0       ??0_ATL_WIN_MODULE70@ATL@@QEAA@XZ 0000000180003aa0 f i OposVariant.obj
 0001:00002ae0       ??1?$CHeapPtr@_WVCCRTAllocator@ATL@@@ATL@@QEAA@XZ 0000000180003ae0 f i OposVariant.obj
 0001:00002b00       ??1?$CHeapPtrBase@_WVCCRTAllocator@ATL@@@ATL@@QEAA@XZ 0000000180003b00 f i OposVariant.obj
 0001:00002b20       ??1?$CSimpleArray@GV?$CSimpleArrayEqualHelper@G@ATL@@@ATL@@QEAA@XZ 0000000180003b20 f i OposVariant.obj
 0001:00002b40       ??1CAtlComModule@ATL@@QEAA@XZ 0000000180003b40 f i OposVariant.obj
 0001:00002b70       ??1CAtlWinModule@ATL@@QEAA@XZ 0000000180003b70 f i OposVariant.obj
 0001:00002ba0       ??1CComBSTR@ATL@@QEAA@XZ   0000000180003ba0 f i OposVariant.obj
 0001:00002bc0       ??1CComCriticalSection@ATL@@QEAA@XZ 0000000180003bc0 f i OposVariant.obj
 0001:00002bd0       ??1CPreserveLastError@ATL@@QEAA@XZ 0000000180003bd0 f i OposVariant.obj
 0001:00002bf0       ??1_ATL_COM_MODULE70@ATL@@QEAA@XZ 0000000180003bf0 f i OposVariant.obj
 0001:00002c20       ??1_ATL_WIN_MODULE70@ATL@@QEAA@XZ 0000000180003c20 f i OposVariant.obj
 0001:00002c60       ??1stringdispid@CComTypeInfoHolder@ATL@@QEAA@XZ 0000000180003c60 f i OposVariant.obj
 0001:00002c80       ??A?$CSimpleArray@GV?$CSimpleArrayEqualHelper@G@ATL@@@ATL@@QEAAAEAGH@Z 0000000180003c80 f i OposVariant.obj
 0001:00002d20       ??B?$CHeapPtrBase@_WVCCRTAllocator@ATL@@@ATL@@QEBAPEA_WXZ 0000000180003d20 f i OposVariant.obj
 0001:00002d30       ??B?$CTraceCategoryEx@$01$0A@@ATL@@QEAAIXZ 0000000180003d30 f i OposVariant.obj
 0001:00002d40       ??B?$CTraceCategoryEx@$0CA@$0A@@ATL@@QEAAIXZ 0000000180003d40 f i OposVariant.obj
 0001:00002d50       ??RCTraceFileAndLineInfo@ATL@@QEBAXHIPEB_WZZ 0000000180003d50 f i OposVariant.obj
 0001:00002e10       ??_Estringdispid@CComTypeInfoHolder@ATL@@QEAAPEAXI@Z 0000000180003e10 f i OposVariant.obj
 0001:00002eb0       ??_H@YAXPEAX_K1P6APEAX0@Z@Z 0000000180003eb0 f i OposVariant.obj
 0001:00002f30       ??_I@YAXPEAX_K1P6AX0@Z@Z   0000000180003f30 f i OposVariant.obj
 0001:00002fd0       ?Allocate@?$CHeapPtr@_WVCCRTAllocator@ATL@@@ATL@@QEAA_N_K@Z 0000000180003fd0 f i OposVariant.obj
 0001:00003050       ?Allocate@CCRTAllocator@ATL@@SAPEAX_K@Z 0000000180004050 f i OposVariant.obj
 0001:00003070       ?AllocateBytes@?$CHeapPtrBase@_WVCCRTAllocator@ATL@@@ATL@@QEAA_N_K@Z 0000000180004070 f i OposVariant.obj
 0001:000030f0       ?AtlWinModuleInit@ATL@@YAJPEAU_ATL_WIN_MODULE70@1@@Z 00000001800040f0 f i OposVariant.obj
 0001:000031e0       ?AtlWinModuleTerm@ATL@@YAJPEAU_ATL_WIN_MODULE70@1@PEAUHINSTANCE__@@@Z 00000001800041e0 f i OposVariant.obj
 0001:000032b0       ?Clear@OposVariant@@QEAAJXZ 00000001800042b0 f i OposVariant.obj
 0001:000032e0       ?Free@?$CHeapPtrBase@_WVCCRTAllocator@ATL@@@ATL@@QEAAXXZ 00000001800042e0 f i OposVariant.obj
 0001:00003310       ?Free@CCRTAllocator@ATL@@SAXPEAX@Z 0000000180004310 f i OposVariant.obj
 0001:00003330       ?GetCategoryName@CTrace@ATL@@CAPEA_WI@Z 0000000180004330 f i OposVariant.obj
 0001:000033a0       ?GetModuleInstance@CAtlBaseModule@ATL@@QEAAPEAUHINSTANCE__@@XZ 00000001800043a0 f i OposVariant.obj
 0001:000033c0       ?GetSize@?$CSimpleArray@GV?$CSimpleArrayEqualHelper@G@ATL@@@ATL@@QEBAHXZ 00000001800043c0 f i OposVariant.obj
 0001:000033d0       ?Init@CComCriticalSection@ATL@@QEAAJXZ 00000001800043d0 f i OposVariant.obj
 0001:00003420       ?RegisterCategory@CTrace@ATL@@SAXPEB_WI@Z 0000000180004420 f i OposVariant.obj
 0001:000034e0       ?RemoveAll@?$CSimpleArray@GV?$CSimpleArrayEqualHelper@G@ATL@@@ATL@@QEAAXXZ 00000001800044e0 f i OposVariant.obj
 0001:00003550       ?Term@CAtlComModule@ATL@@QEAAXXZ 0000000180004550 f i OposVariant.obj
 0001:00003620       ?Term@CAtlWinModule@ATL@@QEAAXXZ 0000000180004620 f i OposVariant.obj
 0001:00003650       ?Term@CComCriticalSection@ATL@@QEAAJXZ 0000000180004650 f i OposVariant.obj
 0001:00003670       ?TraceV@CTrace@ATL@@CAXPEBDHIIPEB_W@Z 0000000180004670 f i OposVariant.obj
 0001:00003920       ?TraceV@CTrace@ATL@@SAXPEBDHIIPEB_WPEAD@Z 0000000180004920 f i OposVariant.obj
 0001:00003ad0       ?_AtlInitializeCriticalSectionEx@ATL@@YAHPEAU_RTL_CRITICAL_SECTION@@KK@Z 0000000180004ad0 f i OposVariant.obj
 0001:00003b00       ?_AtlRaiseException@ATL@@YAXKK@Z 0000000180004b00 f i OposVariant.obj
 0001:00003b30       HRESULT_FROM_WIN32         0000000180004b30 f i OposVariant.obj
 0001:00003b70       _vswprintf_s_l             0000000180004b70 f i OposVariant.obj
 0001:00003be0       swprintf_s                 0000000180004be0 f i OposVariant.obj
 0001:00003c70       ?ObjectMain@CComObjectRootBase@ATL@@SAX_N@Z 0000000180004c70 f i VoiceRecognition.obj
 0001:00003c80       ?GetCategoryMap@CComObjectRootBase@ATL@@SAPEBU_ATL_CATMAP_ENTRY@2@XZ 0000000180004c80 f i VoiceRecognition.obj
 0001:00003c90       ?GetObjectDescription@?$CComCoClass@VCOPOSVoiceRecognition@@$1?CLSID_OPOSVoiceRecognition@@3U_GUID@@B@ATL@@SAPEB_WXZ 0000000180004c90 f i VoiceRecognition.obj
 0001:00003ca0       ?UpdateRegistry@COPOSVoiceRecognition@@SAJH@Z 0000000180004ca0 f i VoiceRecognition.obj
 0001:00003cd0       ?CreateInstance@?$CComCreator@V?$CComObjectCached@VCComClassFactory@ATL@@@ATL@@@ATL@@SAJPEAXAEBU_GUID@@PEAPEAX@Z 0000000180004cd0 f i VoiceRecognition.obj
 0001:00003ea0       ?CreateInstance@?$CComCreator2@V?$CComCreator@V?$CComObject@VCOPOSVoiceRecognition@@@ATL@@@ATL@@V?$CComCreator@V?$CComAggObject@VCOPOSVoiceRecognition@@@ATL@@@2@@ATL@@SAJPEAXAEBU_GUID@@PEAPEAX@Z 0000000180004ea0 f i VoiceRecognition.obj
 0001:00004090       DllGetClassObject          0000000180005090 f   VoiceRecognition.obj
 0001:000040d0       DllCanUnloadNow            00000001800050d0 f   VoiceRecognition.obj
 0001:00004110       DllRegisterServer          0000000180005110 f   VoiceRecognition.obj
 0001:00004140       DllUnregisterServer        0000000180005140 f   VoiceRecognition.obj
 0001:00004300       DllMain                    0000000180005300 f   VoiceRecognition.obj
 0001:00004370       ??$?2G@Wrapper@?$CSimpleArray@GV?$CSimpleArrayEqualHelper@G@ATL@@@ATL@@SAPEAX_KPEAG@Z 0000000180005370 f i VoiceRecognition.obj
 0001:00004390       ??$?2PEA_W@?$Wrapper@PEA_W@?$CSimpleMap@PEA_WPEA_WVCExpansionVectorEqualHelper@ATL@@@ATL@@SAPEAX_KPEAPEA_W@Z 0000000180005390 f i VoiceRecognition.obj
 0001:000043b0       ??$?4UITypeInfo2@@@?$CComPtr@UITypeInfo@@@ATL@@QEAAPEAUITypeInfo@@AEBV?$CComPtr@UITypeInfo2@@@1@@Z 00000001800053b0 f i VoiceRecognition.obj
 0001:00004410       ??$AtlAdd@_K@ATL@@YAJPEA_K_K1@Z 0000000180005410 f i VoiceRecognition.obj
 0001:00004470       ??$AtlAddThrow@_K@ATL@@YA_K_K0@Z 0000000180005470 f i VoiceRecognition.obj
 0001:000044e0       ??$AtlModuleRegisterWndClassInfoT@VAtlModuleRegisterWndClassInfoParamW@ATL@@@ATL@@YAGPEAU_ATL_BASE_MODULE70@0@PEAU_ATL_WIN_MODULE70@0@PEAU_ATL_WNDCLASSINFOW@0@PEAP6A_JPEAUHWND__@@I_K_J@ZVAtlModuleRegisterWndClassInfoParamW@0@@Z 00000001800054e0 f i VoiceRecognition.obj
 0001:00004ab0       ??$AtlMultiply@H@ATL@@YAJPEAHHH@Z 0000000180005ab0 f i VoiceRecognition.obj
 0001:00004b10       ??$AtlMultiply@K@ATL@@YAJPEAKKK@Z 0000000180005b10 f i VoiceRecognition.obj
 0001:00004b60       ??$AtlMultiplyThrow@_K@ATL@@YA_K_K0@Z 0000000180005b60 f i VoiceRecognition.obj
 0001:00004bd0       ??$QueryInterface@UIPersistStream@@@IUnknown@@QEAAJPEAPEAUIPersistStream@@@Z 0000000180005bd0 f i VoiceRecognition.obj
 0001:00004c00       ??$QueryInterface@UITypeInfo2@@@IUnknown@@QEAAJPEAPEAUITypeInfo2@@@Z 0000000180005c00 f i VoiceRecognition.obj
 0001:00004c30       ??0?$CAtlModuleT@VCComModule@ATL@@@ATL@@QEAA@XZ 0000000180005c30 f i VoiceRecognition.obj
 0001:00004c60       ??0?$CAtlSafeAllocBufferManager@VCCRTAllocator@ATL@@@_ATL_SAFE_ALLOCA_IMPL@ATL@@QEAA@XZ 0000000180005c60 f i VoiceRecognition.obj
 0001:00004c80       ??0?$CAutoVectorPtr@_W@ATL@@QEAA@XZ 0000000180005c80 f i VoiceRecognition.obj
 0001:00004ca0       ??0?$CComAggObject@VCOPOSVoiceRecognition@@@ATL@@QEAA@PEAX@Z 0000000180005ca0 f i VoiceRecognition.obj
 0001:00004d10       ??0?$CComContainedObject@VCOPOSVoiceRecognition@@@ATL@@QEAA@PEAX@Z 0000000180005d10 f i VoiceRecognition.obj
 0001:00004ea0       ??0?$CComCritSecLock@VCComCriticalSection@ATL@@@ATL@@QEAA@AEAVCComCriticalSection@1@_N@Z 0000000180005ea0 f i VoiceRecognition.obj
 0001:00004f00       ??0?$CComEnum@UIEnumConnectionPoints@@$1?_GUID_b196b285_bab4_101a_b69c_00aa00341d07@@3U__s_GUID@@BPEAUIConnectionPoint@@V?$_CopyInterface@UIConnectionPoint@@@ATL@@VCComSingleThreadModel@6@@ATL@@QEAA@XZ 0000000180005f00 f i VoiceRecognition.obj
 0001:00004f30       ??0?$CComEnum@UIEnumConnections@@$1?_GUID_b196b287_bab4_101a_b69c_00aa00341d07@@3U__s_GUID@@BUtagCONNECTDATA@@V?$_Copy@UtagCONNECTDATA@@@ATL@@VCComSingleThreadModel@6@@ATL@@QEAA@XZ 0000000180005f30 f i VoiceRecognition.obj
 0001:00004f60       ??0?$CComEnumImpl@UIEnumConnectionPoints@@$1?_GUID_b196b285_bab4_101a_b69c_00aa00341d07@@3U__s_GUID@@BPEAUIConnectionPoint@@V?$_CopyInterface@UIConnectionPoint@@@ATL@@@ATL@@QEAA@XZ 0000000180005f60 f i VoiceRecognition.obj
 0001:00004fd0       ??0?$CComEnumImpl@UIEnumConnections@@$1?_GUID_b196b287_bab4_101a_b69c_00aa00341d07@@3U__s_GUID@@BUtagCONNECTDATA@@V?$_Copy@UtagCONNECTDATA@@@ATL@@@ATL@@QEAA@XZ 0000000180005fd0 f i VoiceRecognition.obj
 0001:00005040       ??0?$CComObject@V?$CComEnum@UIEnumConnectionPoints@@$1?_GUID_b196b285_bab4_101a_b69c_00aa00341d07@@3U__s_GUID@@BPEAUIConnectionPoint@@V?$_CopyInterface@UIConnectionPoint@@@ATL@@VCComSingleThreadModel@6@@ATL@@@ATL@@QEAA@PEAX@Z 0000000180006040 f i VoiceRecognition.obj
 0001:00005090       ??0?$CComObject@V?$CComEnum@UIEnumConnections@@$1?_GUID_b196b287_bab4_101a_b69c_00aa00341d07@@3U__s_GUID@@BUtagCONNECTDATA@@V?$_Copy@UtagCONNECTDATA@@@ATL@@VCComSingleThreadModel@6@@ATL@@@ATL@@QEAA@PEAX@Z 0000000180006090 f i VoiceRecognition.obj
 0001:000050e0       ??0?$CComObject@VCOPOSVoiceRecognition@@@ATL@@QEAA@PEAX@Z 00000001800060e0 f i VoiceRecognition.obj
 0001:00005270       ??0?$CComObjectCached@VCComClassFactory@ATL@@@ATL@@QEAA@PEAX@Z 0000000180006270 f i VoiceRecognition.obj
 0001:000052b0       ??0?$CComObjectRootEx@VCComMultiThreadModel@ATL@@@ATL@@QEAA@XZ 00000001800062b0 f i VoiceRecognition.obj
 0001:000052e0       ??0?$CComObjectRootEx@VCComSingleThreadModel@ATL@@@ATL@@QEAA@XZ 00000001800062e0 f i VoiceRecognition.obj
 0001:00005300       ??0?$CComPtr@UIAdviseSink@@@ATL@@QEAA@PEAUIAdviseSink@@@Z 0000000180006300 f i VoiceRecognition.obj
 0001:00005330       ??0?$CComPtr@UICatRegister@@@ATL@@QEAA@XZ 0000000180006330 f i VoiceRecognition.obj
 0001:00005350       ??0?$CComPtr@UIConnectionPoint@@@ATL@@QEAA@XZ 0000000180006350 f i VoiceRecognition.obj
 0001:00005370       ??0?$CComPtr@UIConnectionPointContainer@@@ATL@@QEAA@XZ 0000000180006370 f i VoiceRecognition.obj
 0001:00005390       ??0?$CComPtr@UIDataObject@@@ATL@@QEAA@XZ 0000000180006390 f i VoiceRecognition.obj
 0001:000053b0       ??0?$CComPtr@UIDispatch@@@ATL@@QEAA@XZ 00000001800063b0 f i VoiceRecognition.obj
 0001:000053d0       ??0?$CComPtr@UIOleClientSite@@@ATL@@QEAA@PEAUIOleClientSite@@@Z 00000001800063d0 f i VoiceRecognition.obj
 0001:00005400       ??0?$CComPtr@UIOleControlSite@@@ATL@@QEAA@XZ 0000000180006400 f i VoiceRecognition.obj
 0001:00005420       ??0?$CComPtr@UIOleInPlaceActiveObject@@@ATL@@QEAA@XZ 0000000180006420 f i VoiceRecognition.obj
 0001:00005440       ??0?$CComPtr@UIOleInPlaceFrame@@@ATL@@QEAA@XZ 0000000180006440 f i VoiceRecognition.obj
 0001:00005460       ??0?$CComPtr@UIOleInPlaceObject@@@ATL@@QEAA@XZ 0000000180006460 f i VoiceRecognition.obj
 0001:00005480       ??0?$CComPtr@UIOleInPlaceUIWindow@@@ATL@@QEAA@XZ 0000000180006480 f i VoiceRecognition.obj
 0001:000054a0       ??0?$CComPtr@UIOleObject@@@ATL@@QEAA@XZ 00000001800064a0 f i VoiceRecognition.obj
 0001:000054c0       ??0?$CComPtr@UIPersistStream@@@ATL@@QEAA@XZ 00000001800064c0 f i VoiceRecognition.obj
 0001:000054e0       ??0?$CComPtr@UIPersistStreamInit@@@ATL@@QEAA@XZ 00000001800064e0 f i VoiceRecognition.obj
 0001:00005500       ??0?$CComPtr@UIPointerInactive@@@ATL@@QEAA@XZ 0000000180006500 f i VoiceRecognition.obj
 0001:00005520       ??0?$CComPtr@UIProvideClassInfo2@@@ATL@@QEAA@XZ 0000000180006520 f i VoiceRecognition.obj
 0001:00005540       ??0?$CComPtr@UISpecifyPropertyPages@@@ATL@@QEAA@XZ 0000000180006540 f i VoiceRecognition.obj
 0001:00005560       ??0?$CComPtr@UIStream@@@ATL@@QEAA@XZ 0000000180006560 f i VoiceRecognition.obj
 0001:00005580       ??0?$CComPtr@UITypeInfo2@@@ATL@@QEAA@XZ 0000000180006580 f i VoiceRecognition.obj
 0001:000055a0       ??0?$CComPtr@UITypeInfo@@@ATL@@QEAA@AEBV01@@Z 00000001800065a0 f i VoiceRecognition.obj
 0001:000055d0       ??0?$CComPtr@UITypeInfo@@@ATL@@QEAA@XZ 00000001800065d0 f i VoiceRecognition.obj
 0001:000055f0       ??0?$CComPtr@UITypeLib@@@ATL@@QEAA@XZ 00000001800065f0 f i VoiceRecognition.obj
 0001:00005610       ??0?$CComPtr@UIUnknown@@@ATL@@QEAA@AEBV01@@Z 0000000180006610 f i VoiceRecognition.obj
 0001:00005640       ??0?$CComPtr@UIUnknown@@@ATL@@QEAA@PEAUIUnknown@@@Z 0000000180006640 f i VoiceRecognition.obj
 0001:00005670       ??0?$CComPtr@UIUnknown@@@ATL@@QEAA@XZ 0000000180006670 f i VoiceRecognition.obj
 0001:00005690       ??0?$CComPtr@UIViewObjectEx@@@ATL@@QEAA@XZ 0000000180006690 f i VoiceRecognition.obj
 0001:000056b0       ??0?$CComPtrBase@UIAdviseSink@@@ATL@@IEAA@PEAUIAdviseSink@@@Z 00000001800066b0 f i VoiceRecognition.obj
 0001:00005700       ??0?$CComPtrBase@UICatRegister@@@ATL@@IEAA@XZ 0000000180006700 f i VoiceRecognition.obj
 0001:00005720       ??0?$CComPtrBase@UIConnectionPoint@@@ATL@@IEAA@XZ 0000000180006720 f i VoiceRecognition.obj
 0001:00005740       ??0?$CComPtrBase@UIConnectionPointContainer@@@ATL@@IEAA@XZ 0000000180006740 f i VoiceRecognition.obj
 0001:00005760       ??0?$CComPtrBase@UIDataObject@@@ATL@@IEAA@XZ 0000000180006760 f i VoiceRecognition.obj
 0001:00005780       ??0?$CComPtrBase@UIDispatch@@@ATL@@IEAA@XZ 0000000180006780 f i VoiceRecognition.obj
 0001:000057a0       ??0?$CComPtrBase@UIOleClientSite@@@ATL@@IEAA@PEAUIOleClientSite@@@Z 00000001800067a0 f i VoiceRecognition.obj
 0001:000057f0       ??0?$CComPtrBase@UIOleControlSite@@@ATL@@IEAA@XZ 00000001800067f0 f i VoiceRecognition.obj
 0001:00005810       ??0?$CComPtrBase@UIOleInPlaceActiveObject@@@ATL@@IEAA@XZ 0000000180006810 f i VoiceRecognition.obj
 0001:00005830       ??0?$CComPtrBase@UIOleInPlaceFrame@@@ATL@@IEAA@XZ 0000000180006830 f i VoiceRecognition.obj
 0001:00005850       ??0?$CComPtrBase@UIOleInPlaceObject@@@ATL@@IEAA@XZ 0000000180006850 f i VoiceRecognition.obj
 0001:00005870       ??0?$CComPtrBase@UIOleInPlaceUIWindow@@@ATL@@IEAA@XZ 0000000180006870 f i VoiceRecognition.obj
 0001:00005890       ??0?$CComPtrBase@UIOleObject@@@ATL@@IEAA@XZ 0000000180006890 f i VoiceRecognition.obj
 0001:000058b0       ??0?$CComPtrBase@UIPersistStream@@@ATL@@IEAA@XZ 00000001800068b0 f i VoiceRecognition.obj
 0001:000058d0       ??0?$CComPtrBase@UIPersistStreamInit@@@ATL@@IEAA@XZ 00000001800068d0 f i VoiceRecognition.obj
 0001:000058f0       ??0?$CComPtrBase@UIPointerInactive@@@ATL@@IEAA@XZ 00000001800068f0 f i VoiceRecognition.obj
 0001:00005910       ??0?$CComPtrBase@UIProvideClassInfo2@@@ATL@@IEAA@XZ 0000000180006910 f i VoiceRecognition.obj
 0001:00005930       ??0?$CComPtrBase@UISpecifyPropertyPages@@@ATL@@IEAA@XZ 0000000180006930 f i VoiceRecognition.obj
 0001:00005950       ??0?$CComPtrBase@UIStream@@@ATL@@IEAA@XZ 0000000180006950 f i VoiceRecognition.obj
 0001:00005970       ??0?$CComPtrBase@UITypeInfo2@@@ATL@@IEAA@XZ 0000000180006970 f i VoiceRecognition.obj
 0001:00005990       ??0?$CComPtrBase@UITypeInfo@@@ATL@@IEAA@PEAUITypeInfo@@@Z 0000000180006990 f i VoiceRecognition.obj
 0001:000059e0       ??0?$CComPtrBase@UITypeInfo@@@ATL@@IEAA@XZ 00000001800069e0 f i VoiceRecognition.obj
 0001:00005a00       ??0?$CComPtrBase@UITypeLib@@@ATL@@IEAA@XZ 0000000180006a00 f i VoiceRecognition.obj
 0001:00005a20       ??0?$CComPtrBase@UIUnknown@@@ATL@@IEAA@PEAUIUnknown@@@Z 0000000180006a20 f i VoiceRecognition.obj
 0001:00005a70       ??0?$CComPtrBase@UIUnknown@@@ATL@@IEAA@XZ 0000000180006a70 f i VoiceRecognition.obj
 0001:00005a90       ??0?$CComPtrBase@UIViewObjectEx@@@ATL@@IEAA@XZ 0000000180006a90 f i VoiceRecognition.obj
 0001:00005ab0       ??0?$CComQIPtr@UIOleControlSite@@$1?_GUID_b196b289_bab4_101a_b69c_00aa00341d07@@3U__s_GUID@@B@ATL@@QEAA@PEAUIUnknown@@@Z 0000000180006ab0 f i VoiceRecognition.obj
 0001:00005b10       ??0?$CComQIPtr@UIOleObject@@$1?_GUID_00000112_0000_0000_c000_000000000046@@3U__s_GUID@@B@ATL@@QEAA@XZ 0000000180006b10 f i VoiceRecognition.obj
 0001:00005b30       ??0?$CComQIPtr@UISpecifyPropertyPages@@$1?_GUID_b196b28b_bab4_101a_b69c_00aa00341d07@@3U__s_GUID@@B@ATL@@QEAA@XZ 0000000180006b30 f i VoiceRecognition.obj
 0001:00005b50       ??0?$CSimpleMap@PEA_WPEA_WVCExpansionVectorEqualHelper@ATL@@@ATL@@QEAA@XZ 0000000180006b50 f i VoiceRecognition.obj
 0001:00005b90       ??0?$CTempBuffer@E$0BAA@VCCRTAllocator@ATL@@@ATL@@QEAA@XZ 0000000180006b90 f i VoiceRecognition.obj
 0001:00005bb0       ??0?$CTempBuffer@_W$0BAA@VCCRTAllocator@ATL@@@ATL@@QEAA@XZ 0000000180006bb0 f i VoiceRecognition.obj
 0001:00005bd0       ??0?$CTempBuffer@_W$0EAA@VCCRTAllocator@ATL@@@ATL@@QEAA@XZ 0000000180006bd0 f i VoiceRecognition.obj
 0001:00005bf0       ??0?$Wrapper@PEA_W@?$CSimpleMap@PEA_WPEA_WVCExpansionVectorEqualHelper@ATL@@@ATL@@QEAA@AEBQEA_W@Z 0000000180006bf0 f i VoiceRecognition.obj
 0001:00005c20       ??0CAtlModule@ATL@@QEAA@XZ 0000000180006c20 f i VoiceRecognition.obj
 0001:00005d80       ??0CComAutoDeleteCriticalSection@ATL@@QEAA@XZ 0000000180006d80 f i VoiceRecognition.obj
 0001:00005da0       ??0CComBSTR@ATL@@QEAA@XZ   0000000180006da0 f i VoiceRecognition.obj
 0001:00005dc0       ??0CComClassFactory@ATL@@QEAA@XZ 0000000180006dc0 f i VoiceRecognition.obj
 0001:00005e00       ??0CComModule@ATL@@QEAA@XZ 0000000180006e00 f i VoiceRecognition.obj
 0001:00005e80       ??0CComObjectRootBase@ATL@@QEAA@XZ 0000000180006e80 f i VoiceRecognition.obj
 0001:00005ea0       ??0CComSafeDeleteCriticalSection@ATL@@QEAA@XZ 0000000180006ea0 f i VoiceRecognition.obj
 0001:00005ed0       ??0CComVariant@ATL@@QEAA@XZ 0000000180006ed0 f i VoiceRecognition.obj
 0001:00005f10       ??0CExpansionVector@ATL@@QEAA@XZ 0000000180006f10 f i VoiceRecognition.obj
 0001:00005f30       ??0CParseBuffer@CRegParser@ATL@@QEAA@H@Z 0000000180006f30 f i VoiceRecognition.obj
 0001:00005fb0       ??0CRegKey@ATL@@QEAA@PEAUHKEY__@@@Z 0000000180006fb0 f i VoiceRecognition.obj
 0001:00005ff0       ??0CRegKey@ATL@@QEAA@PEAVCAtlTransactionManager@1@@Z 0000000180006ff0 f i VoiceRecognition.obj
 0001:00006030       ??0CRegObject@ATL@@QEAA@XZ 0000000180007030 f i VoiceRecognition.obj
 0001:00006070       ??0CRegParser@ATL@@QEAA@PEAVCRegObject@1@@Z 0000000180007070 f i VoiceRecognition.obj
 0001:000060a0       ??0IClassFactory@@QEAA@XZ  00000001800070a0 f i VoiceRecognition.obj
 0001:000060c0       ??0IEnumConnectionPoints@@QEAA@XZ 00000001800070c0 f i VoiceRecognition.obj
 0001:000060e0       ??0IEnumConnections@@QEAA@XZ 00000001800070e0 f i VoiceRecognition.obj
 0001:00006100       ??0IRegistrarBase@@QEAA@XZ 0000000180007100 f i VoiceRecognition.obj
 0001:00006120       ??0IUnknown@@QEAA@XZ       0000000180007120 f i VoiceRecognition.obj
 0001:00006130       ??0ModuleLockHelper@ATL@@QEAA@XZ 0000000180007130 f i VoiceRecognition.obj
 0001:00006160       ??0OposVariant@@QEAA@XZ    0000000180007160 f i VoiceRecognition.obj
 0001:00006180       ??0Wrapper@?$CSimpleArray@GV?$CSimpleArrayEqualHelper@G@ATL@@@ATL@@QEAA@AEBG@Z 0000000180007180 f i VoiceRecognition.obj
 0001:000061b0       ??0_ATL_MODULE70@ATL@@QEAA@XZ 00000001800071b0 f i VoiceRecognition.obj
 0001:000061e0       ??0_ATL_MSG@ATL@@QEAA@PEAUHWND__@@I_K_JH@Z 00000001800071e0 f i VoiceRecognition.obj
 0001:00006270       ??0_U_MENUorID@ATL@@QEAA@I@Z 0000000180007270 f i VoiceRecognition.obj
 0001:00006290       ??0_U_RECT@ATL@@QEAA@AEAUtagRECT@@@Z 0000000180007290 f i VoiceRecognition.obj
 0001:000062b0       ??0stringdispid@CComTypeInfoHolder@ATL@@QEAA@XZ 00000001800072b0 f i VoiceRecognition.obj
 0001:000062f0       ??1?$CAtlModuleT@VCComModule@ATL@@@ATL@@UEAA@XZ 00000001800072f0 f i VoiceRecognition.obj
 0001:00006310       ??1?$CAtlSafeAllocBufferManager@VCCRTAllocator@ATL@@@_ATL_SAFE_ALLOCA_IMPL@ATL@@QEAA@XZ 0000000180007310 f i VoiceRecognition.obj
 0001:00006360       ??1?$CAutoVectorPtr@_W@ATL@@QEAA@XZ 0000000180007360 f i VoiceRecognition.obj
 0001:00006380       ??1?$CComAggObject@VCOPOSVoiceRecognition@@@ATL@@UEAA@XZ 0000000180007380 f i VoiceRecognition.obj
 0001:000063f0       ??1?$CComContainedObject@VCOPOSVoiceRecognition@@@ATL@@UEAA@XZ 00000001800073f0 f i VoiceRecognition.obj
 0001:00006410       ??1?$CComCritSecLock@VCComCriticalSection@ATL@@@ATL@@QEAA@XZ 0000000180007410 f i VoiceRecognition.obj
 0001:00006440       ??1?$CComEnum@UIEnumConnectionPoints@@$1?_GUID_b196b285_bab4_101a_b69c_00aa00341d07@@3U__s_GUID@@BPEAUIConnectionPoint@@V?$_CopyInterface@UIConnectionPoint@@@ATL@@VCComSingleThreadModel@6@@ATL@@UEAA@XZ 0000000180007440 f i VoiceRecognition.obj
 0001:00006470       ??1?$CComEnum@UIEnumConnections@@$1?_GUID_b196b287_bab4_101a_b69c_00aa00341d07@@3U__s_GUID@@BUtagCONNECTDATA@@V?$_Copy@UtagCONNECTDATA@@@ATL@@VCComSingleThreadModel@6@@ATL@@UEAA@XZ 0000000180007470 f i VoiceRecognition.obj
 0001:000064a0       ??1?$CComEnumImpl@UIEnumConnectionPoints@@$1?_GUID_b196b285_bab4_101a_b69c_00aa00341d07@@3U__s_GUID@@BPEAUIConnectionPoint@@V?$_CopyInterface@UIConnectionPoint@@@ATL@@@ATL@@UEAA@XZ 00000001800074a0 f i VoiceRecognition.obj
 0001:00006530       ??1?$CComEnumImpl@UIEnumConnections@@$1?_GUID_b196b287_bab4_101a_b69c_00aa00341d07@@3U__s_GUID@@BUtagCONNECTDATA@@V?$_Copy@UtagCONNECTDATA@@@ATL@@@ATL@@UEAA@XZ 0000000180007530 f i VoiceRecognition.obj
 0001:000065c0       ??1?$CComObject@V?$CComEnum@UIEnumConnectionPoints@@$1?_GUID_b196b285_bab4_101a_b69c_00aa00341d07@@3U__s_GUID@@BPEAUIConnectionPoint@@V?$_CopyInterface@UIConnectionPoint@@@ATL@@VCComSingleThreadModel@6@@ATL@@@ATL@@UEAA@XZ 00000001800075c0 f i VoiceRecognition.obj
 0001:00006620       ??1?$CComObject@V?$CComEnum@UIEnumConnections@@$1?_GUID_b196b287_bab4_101a_b69c_00aa00341d07@@3U__s_GUID@@BUtagCONNECTDATA@@V?$_Copy@UtagCONNECTDATA@@@ATL@@VCComSingleThreadModel@6@@ATL@@@ATL@@UEAA@XZ 0000000180007620 f i VoiceRecognition.obj
 0001:00006680       ??1?$CComObject@VCOPOSVoiceRecognition@@@ATL@@UEAA@XZ 0000000180007680 f i VoiceRecognition.obj
 0001:00006820       ??1?$CComObjectCached@VCComClassFactory@ATL@@@ATL@@UEAA@XZ 0000000180007820 f i VoiceRecognition.obj
 0001:00006870       ??1?$CComObjectRootEx@VCComMultiThreadModel@ATL@@@ATL@@QEAA@XZ 0000000180007870 f i VoiceRecognition.obj
 0001:000068a0       ??1?$CComObjectRootEx@VCComSingleThreadModel@ATL@@@ATL@@QEAA@XZ 00000001800078a0 f i VoiceRecognition.obj
 0001:000068c0       ??1?$CComPtr@UIAdviseSink@@@ATL@@QEAA@XZ 00000001800078c0 f i VoiceRecognition.obj
 0001:000068e0       ??1?$CComPtr@UICatRegister@@@ATL@@QEAA@XZ 00000001800078e0 f i VoiceRecognition.obj
 0001:00006900       ??1?$CComPtr@UIConnectionPoint@@@ATL@@QEAA@XZ 0000000180007900 f i VoiceRecognition.obj
 0001:00006920       ??1?$CComPtr@UIConnectionPointContainer@@@ATL@@QEAA@XZ 0000000180007920 f i VoiceRecognition.obj
 0001:00006940       ??1?$CComPtr@UIDataObject@@@ATL@@QEAA@XZ 0000000180007940 f i VoiceRecognition.obj
 0001:00006960       ??1?$CComPtr@UIDispatch@@@ATL@@QEAA@XZ 0000000180007960 f i VoiceRecognition.obj
 0001:00006980       ??1?$CComPtr@UIOleClientSite@@@ATL@@QEAA@XZ 0000000180007980 f i VoiceRecognition.obj
 0001:000069a0       ??1?$CComPtr@UIOleControlSite@@@ATL@@QEAA@XZ 00000001800079a0 f i VoiceRecognition.obj
 0001:000069c0       ??1?$CComPtr@UIOleInPlaceActiveObject@@@ATL@@QEAA@XZ 00000001800079c0 f i VoiceRecognition.obj
 0001:000069e0       ??1?$CComPtr@UIOleInPlaceFrame@@@ATL@@QEAA@XZ 00000001800079e0 f i VoiceRecognition.obj
 0001:00006a00       ??1?$CComPtr@UIOleInPlaceObject@@@ATL@@QEAA@XZ 0000000180007a00 f i VoiceRecognition.obj
 0001:00006a20       ??1?$CComPtr@UIOleInPlaceUIWindow@@@ATL@@QEAA@XZ 0000000180007a20 f i VoiceRecognition.obj
 0001:00006a40       ??1?$CComPtr@UIOleObject@@@ATL@@QEAA@XZ 0000000180007a40 f i VoiceRecognition.obj
 0001:00006a60       ??1?$CComPtr@UIPersistStream@@@ATL@@QEAA@XZ 0000000180007a60 f i VoiceRecognition.obj
 0001:00006a80       ??1?$CComPtr@UIPersistStreamInit@@@ATL@@QEAA@XZ 0000000180007a80 f i VoiceRecognition.obj
 0001:00006aa0       ??1?$CComPtr@UIPointerInactive@@@ATL@@QEAA@XZ 0000000180007aa0 f i VoiceRecognition.obj
 0001:00006ac0       ??1?$CComPtr@UIProvideClassInfo2@@@ATL@@QEAA@XZ 0000000180007ac0 f i VoiceRecognition.obj
 0001:00006ae0       ??1?$CComPtr@UISpecifyPropertyPages@@@ATL@@QEAA@XZ 0000000180007ae0 f i VoiceRecognition.obj
 0001:00006b00       ??1?$CComPtr@UIStream@@@ATL@@QEAA@XZ 0000000180007b00 f i VoiceRecognition.obj
 0001:00006b20       ??1?$CComPtr@UITypeInfo2@@@ATL@@QEAA@XZ 0000000180007b20 f i VoiceRecognition.obj
 0001:00006b40       ??1?$CComPtr@UITypeInfo@@@ATL@@QEAA@XZ 0000000180007b40 f i VoiceRecognition.obj
 0001:00006b60       ??1?$CComPtr@UITypeLib@@@ATL@@QEAA@XZ 0000000180007b60 f i VoiceRecognition.obj
 0001:00006b80       ??1?$CComPtr@UIUnknown@@@ATL@@QEAA@XZ 0000000180007b80 f i VoiceRecognition.obj
 0001:00006ba0       ??1?$CComPtr@UIViewObjectEx@@@ATL@@QEAA@XZ 0000000180007ba0 f i VoiceRecognition.obj
 0001:00006bc0       ??1?$CComPtrBase@UIAdviseSink@@@ATL@@QEAA@XZ 0000000180007bc0 f i VoiceRecognition.obj
 0001:00006c00       ??1?$CComPtrBase@UICatRegister@@@ATL@@QEAA@XZ 0000000180007c00 f i VoiceRecognition.obj
 0001:00006c40       ??1?$CComPtrBase@UIConnectionPoint@@@ATL@@QEAA@XZ 0000000180007c40 f i VoiceRecognition.obj
 0001:00006c80       ??1?$CComPtrBase@UIConnectionPointContainer@@@ATL@@QEAA@XZ 0000000180007c80 f i VoiceRecognition.obj
 0001:00006cc0       ??1?$CComPtrBase@UIDataObject@@@ATL@@QEAA@XZ 0000000180007cc0 f i VoiceRecognition.obj
 0001:00006d00       ??1?$CComPtrBase@UIDispatch@@@ATL@@QEAA@XZ 0000000180007d00 f i VoiceRecognition.obj
 0001:00006d40       ??1?$CComPtrBase@UIOleClientSite@@@ATL@@QEAA@XZ 0000000180007d40 f i VoiceRecognition.obj
 0001:00006d80       ??1?$CComPtrBase@UIOleControlSite@@@ATL@@QEAA@XZ 0000000180007d80 f i VoiceRecognition.obj
 0001:00006dc0       ??1?$CComPtrBase@UIOleInPlaceActiveObject@@@ATL@@QEAA@XZ 0000000180007dc0 f i VoiceRecognition.obj
 0001:00006e00       ??1?$CComPtrBase@UIOleInPlaceFrame@@@ATL@@QEAA@XZ 0000000180007e00 f i VoiceRecognition.obj
 0001:00006e40       ??1?$CComPtrBase@UIOleInPlaceObject@@@ATL@@QEAA@XZ 0000000180007e40 f i VoiceRecognition.obj
 0001:00006e80       ??1?$CComPtrBase@UIOleInPlaceUIWindow@@@ATL@@QEAA@XZ 0000000180007e80 f i VoiceRecognition.obj
 0001:00006ec0       ??1?$CComPtrBase@UIOleObject@@@ATL@@QEAA@XZ 0000000180007ec0 f i VoiceRecognition.obj
 0001:00006f00       ??1?$CComPtrBase@UIPersistStream@@@ATL@@QEAA@XZ 0000000180007f00 f i VoiceRecognition.obj
 0001:00006f40       ??1?$CComPtrBase@UIPersistStreamInit@@@ATL@@QEAA@XZ 0000000180007f40 f i VoiceRecognition.obj
 0001:00006f80       ??1?$CComPtrBase@UIPointerInactive@@@ATL@@QEAA@XZ 0000000180007f80 f i VoiceRecognition.obj
 0001:00006fc0       ??1?$CComPtrBase@UIProvideClassInfo2@@@ATL@@QEAA@XZ 0000000180007fc0 f i VoiceRecognition.obj
 0001:00007000       ??1?$CComPtrBase@UISpecifyPropertyPages@@@ATL@@QEAA@XZ 0000000180008000 f i VoiceRecognition.obj
 0001:00007040       ??1?$CComPtrBase@UIStream@@@ATL@@QEAA@XZ 0000000180008040 f i VoiceRecognition.obj
 0001:00007080       ??1?$CComPtrBase@UITypeInfo2@@@ATL@@QEAA@XZ 0000000180008080 f i VoiceRecognition.obj
 0001:000070c0       ??1?$CComPtrBase@UITypeInfo@@@ATL@@QEAA@XZ 00000001800080c0 f i VoiceRecognition.obj
 0001:00007100       ??1?$CComPtrBase@UITypeLib@@@ATL@@QEAA@XZ 0000000180008100 f i VoiceRecognition.obj
 0001:00007140       ??1?$CComPtrBase@UIUnknown@@@ATL@@QEAA@XZ 0000000180008140 f i VoiceRecognition.obj
 0001:00007180       ??1?$CComPtrBase@UIViewObjectEx@@@ATL@@QEAA@XZ 0000000180008180 f i VoiceRecognition.obj
 0001:000071c0       ??1?$CComQIPtr@UIOleControlSite@@$1?_GUID_b196b289_bab4_101a_b69c_00aa00341d07@@3U__s_GUID@@B@ATL@@QEAA@XZ 00000001800081c0 f i VoiceRecognition.obj
 0001:000071e0       ??1?$CComQIPtr@UIOleObject@@$1?_GUID_00000112_0000_0000_c000_000000000046@@3U__s_GUID@@B@ATL@@QEAA@XZ 00000001800081e0 f i VoiceRecognition.obj
 0001:00007200       ??1?$CComQIPtr@UISpecifyPropertyPages@@$1?_GUID_b196b28b_bab4_101a_b69c_00aa00341d07@@3U__s_GUID@@B@ATL@@QEAA@XZ 0000000180008200 f i VoiceRecognition.obj
 0001:00007220       ??1?$CSimpleMap@PEA_WPEA_WVCExpansionVectorEqualHelper@ATL@@@ATL@@QEAA@XZ 0000000180008220 f i VoiceRecognition.obj
 0001:00007240       ??1?$CTempBuffer@E$0BAA@VCCRTAllocator@ATL@@@ATL@@QEAA@XZ 0000000180008240 f i VoiceRecognition.obj
 0001:00007270       ??1?$CTempBuffer@_W$0BAA@VCCRTAllocator@ATL@@@ATL@@QEAA@XZ 0000000180008270 f i VoiceRecognition.obj
 0001:000072a0       ??1?$CTempBuffer@_W$0EAA@VCCRTAllocator@ATL@@@ATL@@QEAA@XZ 00000001800082a0 f i VoiceRecognition.obj
 0001:000072d0       ??1CAtlModule@ATL@@UEAA@XZ 00000001800082d0 f i VoiceRecognition.obj
 0001:00007300       ??1CComAutoDeleteCriticalSection@ATL@@QEAA@XZ 0000000180008300 f i VoiceRecognition.obj
 0001:00007320       ??1CComClassFactory@ATL@@UEAA@XZ 0000000180008320 f i VoiceRecognition.obj
 0001:00007350       ??1CComModule@ATL@@UEAA@XZ 0000000180008350 f i VoiceRecognition.obj
 0001:00007380       ??1CComObjectRootBase@ATL@@QEAA@XZ 0000000180008380 f i VoiceRecognition.obj
 0001:00007390       ??1CComSafeDeleteCriticalSection@ATL@@QEAA@XZ 0000000180008390 f i VoiceRecognition.obj
 0001:000073d0       ??1CComVariant@ATL@@QEAA@XZ 00000001800083d0 f i VoiceRecognition.obj
 0001:00007430       ??1CExpansionVector@ATL@@QEAA@XZ 0000000180008430 f i VoiceRecognition.obj
 0001:00007460       ??1CParseBuffer@CRegParser@ATL@@QEAA@XZ 0000000180008460 f i VoiceRecognition.obj
 0001:00007480       ??1CRegKey@ATL@@QEAA@XZ    0000000180008480 f i VoiceRecognition.obj
 0001:000074a0       ??1CRegObject@ATL@@UEAA@XZ 00000001800084a0 f i VoiceRecognition.obj
 0001:000074e0       ??1ModuleLockHelper@ATL@@QEAA@XZ 00000001800084e0 f i VoiceRecognition.obj
 0001:00007510       ??1OposVariant@@QEAA@XZ    0000000180008510 f i VoiceRecognition.obj
 0001:00007540       ??1_ATL_MODULE70@ATL@@QEAA@XZ 0000000180008540 f i VoiceRecognition.obj
 0001:00007570       ??4?$CComPtr@UIAdviseSink@@@ATL@@QEAAPEAUIAdviseSink@@PEAU2@@Z 0000000180008570 f i VoiceRecognition.obj
 0001:000075d0       ??4?$CComPtr@UIOleClientSite@@@ATL@@QEAAPEAUIOleClientSite@@PEAU2@@Z 00000001800085d0 f i VoiceRecognition.obj
 0001:00007630       ??4?$CComPtr@UIUnknown@@@ATL@@QEAAPEAUIUnknown@@PEAU2@@Z 0000000180008630 f i VoiceRecognition.obj
 0001:00007690       ??4?$CComQIPtr@UIOleObject@@$1?_GUID_00000112_0000_0000_c000_000000000046@@3U__s_GUID@@B@ATL@@QEAAPEAUIOleObject@@PEAUIUnknown@@@Z 0000000180008690 f i VoiceRecognition.obj
 0001:000076e0       ??4?$CComQIPtr@UISpecifyPropertyPages@@$1?_GUID_b196b28b_bab4_101a_b69c_00aa00341d07@@3U__s_GUID@@B@ATL@@QEAAPEAUISpecifyPropertyPages@@PEAUIUnknown@@@Z 00000001800086e0 f i VoiceRecognition.obj
 0001:00007730       ??7?$CComPtrBase@UIOleClientSite@@@ATL@@QEBA_NXZ 0000000180008730 f i VoiceRecognition.obj
 0001:00007760       ??7?$CComPtrBase@UIOleInPlaceSiteWindowless@@@ATL@@QEBA_NXZ 0000000180008760 f i VoiceRecognition.obj
 0001:00007790       ??7CComBSTR@ATL@@QEBA_NXZ  0000000180008790 f i VoiceRecognition.obj
 0001:000077c0       ??8?$CComPtrBase@UIConnectionPointContainer@@@ATL@@QEBA_NPEAUIConnectionPointContainer@@@Z 00000001800087c0 f i VoiceRecognition.obj
 0001:00007800       ??8?$CComPtrBase@UIDataAdviseHolder@@@ATL@@QEBA_NPEAUIDataAdviseHolder@@@Z 0000000180008800 f i VoiceRecognition.obj
 0001:00007840       ??8?$CComPtrBase@UIOleAdviseHolder@@@ATL@@QEBA_NPEAUIOleAdviseHolder@@@Z 0000000180008840 f i VoiceRecognition.obj
 0001:00007880       ??8?$CComPtrBase@UIOleClientSite@@@ATL@@QEBA_NPEAUIOleClientSite@@@Z 0000000180008880 f i VoiceRecognition.obj
 0001:000078c0       ??8?$CComPtrBase@UIOleControlSite@@@ATL@@QEBA_NPEAUIOleControlSite@@@Z 00000001800088c0 f i VoiceRecognition.obj
 0001:00007900       ??8?$CComPtrBase@UIOleInPlaceObject@@@ATL@@QEBA_NPEAUIOleInPlaceObject@@@Z 0000000180008900 f i VoiceRecognition.obj
 0001:00007940       ??8?$CComPtrBase@UIOleInPlaceSiteWindowless@@@ATL@@QEBA_NPEAUIOleInPlaceSiteWindowless@@@Z 0000000180008940 f i VoiceRecognition.obj
 0001:00007980       ??8?$CComPtrBase@UIOleObject@@@ATL@@QEBA_NPEAUIOleObject@@@Z 0000000180008980 f i VoiceRecognition.obj
 0001:000079c0       ??8?$CComPtrBase@UIPersistStream@@@ATL@@QEBA_NPEAUIPersistStream@@@Z 00000001800089c0 f i VoiceRecognition.obj
 0001:00007a00       ??8?$CComPtrBase@UIPersistStreamInit@@@ATL@@QEBA_NPEAUIPersistStreamInit@@@Z 0000000180008a00 f i VoiceRecognition.obj
 0001:00007a40       ??8?$CComPtrBase@UIPointerInactive@@@ATL@@QEBA_NPEAUIPointerInactive@@@Z 0000000180008a40 f i VoiceRecognition.obj
 0001:00007a80       ??8?$CComPtrBase@UIUnknown@@@ATL@@QEBA_NPEAUIUnknown@@@Z 0000000180008a80 f i VoiceRecognition.obj
 0001:00007ac0       ??8?$CComPtrBase@UIViewObjectEx@@@ATL@@QEBA_NPEAUIViewObjectEx@@@Z 0000000180008ac0 f i VoiceRecognition.obj
 0001:00007b00       ??8CComBSTR@ATL@@QEBA_NH@Z 0000000180008b00 f i VoiceRecognition.obj
 0001:00007b60       ??9?$CComPtrBase@UIConnectionPointContainer@@@ATL@@QEBA_NPEAUIConnectionPointContainer@@@Z 0000000180008b60 f i VoiceRecognition.obj
 0001:00007bb0       ??9?$CComPtrBase@UIDataAdviseHolder@@@ATL@@QEBA_NPEAUIDataAdviseHolder@@@Z 0000000180008bb0 f i VoiceRecognition.obj
 0001:00007c00       ??9?$CComPtrBase@UIOleAdviseHolder@@@ATL@@QEBA_NPEAUIOleAdviseHolder@@@Z 0000000180008c00 f i VoiceRecognition.obj
 0001:00007c50       ??9?$CComPtrBase@UIOleClientSite@@@ATL@@QEBA_NPEAUIOleClientSite@@@Z 0000000180008c50 f i VoiceRecognition.obj
 0001:00007ca0       ??9?$CComPtrBase@UIOleControlSite@@@ATL@@QEBA_NPEAUIOleControlSite@@@Z 0000000180008ca0 f i VoiceRecognition.obj
 0001:00007cf0       ??9?$CComPtrBase@UIOleInPlaceObject@@@ATL@@QEBA_NPEAUIOleInPlaceObject@@@Z 0000000180008cf0 f i VoiceRecognition.obj
 0001:00007d40       ??9?$CComPtrBase@UIOleInPlaceSiteWindowless@@@ATL@@QEBA_NPEAUIOleInPlaceSiteWindowless@@@Z 0000000180008d40 f i VoiceRecognition.obj
 0001:00007d90       ??9?$CComPtrBase@UIOleObject@@@ATL@@QEBA_NPEAUIOleObject@@@Z 0000000180008d90 f i VoiceRecognition.obj
 0001:00007de0       ??9?$CComPtrBase@UIPersistStream@@@ATL@@QEBA_NPEAUIPersistStream@@@Z 0000000180008de0 f i VoiceRecognition.obj
 0001:00007e30       ??9?$CComPtrBase@UIPersistStreamInit@@@ATL@@QEBA_NPEAUIPersistStreamInit@@@Z 0000000180008e30 f i VoiceRecognition.obj
 0001:00007e80       ??9?$CComPtrBase@UIPointerInactive@@@ATL@@QEBA_NPEAUIPointerInactive@@@Z 0000000180008e80 f i VoiceRecognition.obj
 0001:00007ed0       ??9?$CComPtrBase@UIUnknown@@@ATL@@QEBA_NPEAUIUnknown@@@Z 0000000180008ed0 f i VoiceRecognition.obj
 0001:00007f20       ??9?$CComPtrBase@UIViewObjectEx@@@ATL@@QEBA_NPEAUIViewObjectEx@@@Z 0000000180008f20 f i VoiceRecognition.obj
 0001:00007f70       ??9CComBSTR@ATL@@QEBA_NH@Z 0000000180008f70 f i VoiceRecognition.obj
 0001:00007fb0       ??B?$CComPtrBase@UIAdviseSink@@@ATL@@QEBAPEAUIAdviseSink@@XZ 0000000180008fb0 f i VoiceRecognition.obj
 0001:00007fc0       ??B?$CComPtrBase@UIDataAdviseHolder@@@ATL@@QEBAPEAUIDataAdviseHolder@@XZ 0000000180008fc0 f i VoiceRecognition.obj
 0001:00007fd0       ??B?$CComPtrBase@UIDataObject@@@ATL@@QEBAPEAUIDataObject@@XZ 0000000180008fd0 f i VoiceRecognition.obj
 0001:00007fe0       ??B?$CComPtrBase@UIOleAdviseHolder@@@ATL@@QEBAPEAUIOleAdviseHolder@@XZ 0000000180008fe0 f i VoiceRecognition.obj
 0001:00007ff0       ??B?$CComPtrBase@UIOleClientSite@@@ATL@@QEBAPEAUIOleClientSite@@XZ 0000000180008ff0 f i VoiceRecognition.obj
 0001:00008000       ??B?$CComPtrBase@UIOleControlSite@@@ATL@@QEBAPEAUIOleControlSite@@XZ 0000000180009000 f i VoiceRecognition.obj
 0001:00008010       ??B?$CComPtrBase@UIOleInPlaceActiveObject@@@ATL@@QEBAPEAUIOleInPlaceActiveObject@@XZ 0000000180009010 f i VoiceRecognition.obj
 0001:00008020       ??B?$CComPtrBase@UIOleInPlaceFrame@@@ATL@@QEBAPEAUIOleInPlaceFrame@@XZ 0000000180009020 f i VoiceRecognition.obj
 0001:00008030       ??B?$CComPtrBase@UIOleInPlaceSiteWindowless@@@ATL@@QEBAPEAUIOleInPlaceSiteWindowless@@XZ 0000000180009030 f i VoiceRecognition.obj
 0001:00008040       ??B?$CComPtrBase@UIOleInPlaceUIWindow@@@ATL@@QEBAPEAUIOleInPlaceUIWindow@@XZ 0000000180009040 f i VoiceRecognition.obj
 0001:00008050       ??B?$CComPtrBase@UIOleObject@@@ATL@@QEBAPEAUIOleObject@@XZ 0000000180009050 f i VoiceRecognition.obj
 0001:00008060       ??B?$CComPtrBase@UIPersistStream@@@ATL@@QEBAPEAUIPersistStream@@XZ 0000000180009060 f i VoiceRecognition.obj
 0001:00008070       ??B?$CComPtrBase@UIProvideClassInfo2@@@ATL@@QEBAPEAUIProvideClassInfo2@@XZ 0000000180009070 f i VoiceRecognition.obj
 0001:00008080       ??B?$CComPtrBase@UISpecifyPropertyPages@@@ATL@@QEBAPEAUISpecifyPropertyPages@@XZ 0000000180009080 f i VoiceRecognition.obj
 0001:00008090       ??B?$CComPtrBase@UIStream@@@ATL@@QEBAPEAUIStream@@XZ 0000000180009090 f i VoiceRecognition.obj
 0001:000080a0       ??B?$CComPtrBase@UITypeInfo2@@@ATL@@QEBAPEAUITypeInfo2@@XZ 00000001800090a0 f i VoiceRecognition.obj
 0001:000080b0       ??B?$CComPtrBase@UITypeInfo@@@ATL@@QEBAPEAUITypeInfo@@XZ 00000001800090b0 f i VoiceRecognition.obj
 0001:000080c0       ??B?$CComPtrBase@UITypeLib@@@ATL@@QEBAPEAUITypeLib@@XZ 00000001800090c0 f i VoiceRecognition.obj
 0001:000080d0       ??B?$CComPtrBase@UIUnknown@@@ATL@@QEBAPEAUIUnknown@@XZ 00000001800090d0 f i VoiceRecognition.obj
 0001:000080e0       ??B?$CTempBuffer@E$0BAA@VCCRTAllocator@ATL@@@ATL@@QEBAPEAEXZ 00000001800090e0 f i VoiceRecognition.obj
 0001:000080f0       ??B?$CTempBuffer@_W$0BAA@VCCRTAllocator@ATL@@@ATL@@QEBAPEA_WXZ 00000001800090f0 f i VoiceRecognition.obj
 0001:00008100       ??B?$CTempBuffer@_W$0EAA@VCCRTAllocator@ATL@@@ATL@@QEBAPEA_WXZ 0000000180009100 f i VoiceRecognition.obj
 0001:00008110       ??B?$CTraceCategoryEx@$00$0A@@ATL@@QEAAIXZ 0000000180009110 f i VoiceRecognition.obj
 0001:00008120       ??B?$CTraceCategoryEx@$07$0A@@ATL@@QEAAIXZ 0000000180009120 f i VoiceRecognition.obj
 0001:00008130       ??B?$CTraceCategoryEx@$0CAAA@$0A@@ATL@@QEAAIXZ 0000000180009130 f i VoiceRecognition.obj
 0001:00008140       ??B?$CTraceCategoryEx@$0EA@$0A@@ATL@@QEAAIXZ 0000000180009140 f i VoiceRecognition.obj
 0001:00008150       ??B?$CTraceCategoryEx@$0IAA@$0A@@ATL@@QEAAIXZ 0000000180009150 f i VoiceRecognition.obj
 0001:00008160       ??BCComBSTR@ATL@@QEBAPEA_WXZ 0000000180009160 f i VoiceRecognition.obj
 0001:00008170       ??BCRegKey@ATL@@QEBAPEAUHKEY__@@XZ 0000000180009170 f i VoiceRecognition.obj
 0001:00008180       ??C?$CComPtrBase@UIAdviseSink@@@ATL@@QEBAPEAV?$_NoAddRefReleaseOnCComPtr@UIAdviseSink@@@1@XZ 0000000180009180 f i VoiceRecognition.obj
 0001:000081e0       ??C?$CComPtrBase@UICatRegister@@@ATL@@QEBAPEAV?$_NoAddRefReleaseOnCComPtr@UICatRegister@@@1@XZ 00000001800091e0 f i VoiceRecognition.obj
 0001:00008240       ??C?$CComPtrBase@UIConnectionPoint@@@ATL@@QEBAPEAV?$_NoAddRefReleaseOnCComPtr@UIConnectionPoint@@@1@XZ 0000000180009240 f i VoiceRecognition.obj
 0001:000082a0       ??C?$CComPtrBase@UIConnectionPointContainer@@@ATL@@QEBAPEAV?$_NoAddRefReleaseOnCComPtr@UIConnectionPointContainer@@@1@XZ 00000001800092a0 f i VoiceRecognition.obj
 0001:00008300       ??C?$CComPtrBase@UIDataAdviseHolder@@@ATL@@QEBAPEAV?$_NoAddRefReleaseOnCComPtr@UIDataAdviseHolder@@@1@XZ 0000000180009300 f i VoiceRecognition.obj
 0001:00008360       ??C?$CComPtrBase@UIOleAdviseHolder@@@ATL@@QEBAPEAV?$_NoAddRefReleaseOnCComPtr@UIOleAdviseHolder@@@1@XZ 0000000180009360 f i VoiceRecognition.obj
 0001:000083c0       ??C?$CComPtrBase@UIOleClientSite@@@ATL@@QEBAPEAV?$_NoAddRefReleaseOnCComPtr@UIOleClientSite@@@1@XZ 00000001800093c0 f i VoiceRecognition.obj
 0001:00008420       ??C?$CComPtrBase@UIOleControlSite@@@ATL@@QEBAPEAV?$_NoAddRefReleaseOnCComPtr@UIOleControlSite@@@1@XZ 0000000180009420 f i VoiceRecognition.obj
 0001:00008480       ??C?$CComPtrBase@UIOleInPlaceFrame@@@ATL@@QEBAPEAV?$_NoAddRefReleaseOnCComPtr@UIOleInPlaceFrame@@@1@XZ 0000000180009480 f i VoiceRecognition.obj
 0001:000084e0       ??C?$CComPtrBase@UIOleInPlaceObject@@@ATL@@QEBAPEAV?$_NoAddRefReleaseOnCComPtr@UIOleInPlaceObject@@@1@XZ 00000001800094e0 f i VoiceRecognition.obj
 0001:00008540       ??C?$CComPtrBase@UIOleInPlaceSiteWindowless@@@ATL@@QEBAPEAV?$_NoAddRefReleaseOnCComPtr@UIOleInPlaceSiteWindowless@@@1@XZ 0000000180009540 f i VoiceRecognition.obj
 0001:000085a0       ??C?$CComPtrBase@UIOleInPlaceUIWindow@@@ATL@@QEBAPEAV?$_NoAddRefReleaseOnCComPtr@UIOleInPlaceUIWindow@@@1@XZ 00000001800095a0 f i VoiceRecognition.obj
 0001:00008600       ??C?$CComPtrBase@UIOleObject@@@ATL@@QEBAPEAV?$_NoAddRefReleaseOnCComPtr@UIOleObject@@@1@XZ 0000000180009600 f i VoiceRecognition.obj
 0001:00008660       ??C?$CComPtrBase@UIPersistStream@@@ATL@@QEBAPEAV?$_NoAddRefReleaseOnCComPtr@UIPersistStream@@@1@XZ 0000000180009660 f i VoiceRecognition.obj
 0001:000086c0       ??C?$CComPtrBase@UIPersistStreamInit@@@ATL@@QEBAPEAV?$_NoAddRefReleaseOnCComPtr@UIPersistStreamInit@@@1@XZ 00000001800096c0 f i VoiceRecognition.obj
 0001:00008720       ??C?$CComPtrBase@UIPointerInactive@@@ATL@@QEBAPEAV?$_NoAddRefReleaseOnCComPtr@UIPointerInactive@@@1@XZ 0000000180009720 f i VoiceRecognition.obj
 0001:00008780       ??C?$CComPtrBase@UIProvideClassInfo2@@@ATL@@QEBAPEAV?$_NoAddRefReleaseOnCComPtr@UIProvideClassInfo2@@@1@XZ 0000000180009780 f i VoiceRecognition.obj
 0001:000087e0       ??C?$CComPtrBase@UISpecifyPropertyPages@@@ATL@@QEBAPEAV?$_NoAddRefReleaseOnCComPtr@UISpecifyPropertyPages@@@1@XZ 00000001800097e0 f i VoiceRecognition.obj
 0001:00008840       ??C?$CComPtrBase@UITypeInfo@@@ATL@@QEBAPEAV?$_NoAddRefReleaseOnCComPtr@UITypeInfo@@@1@XZ 0000000180009840 f i VoiceRecognition.obj
 0001:000088a0       ??C?$CComPtrBase@UITypeLib@@@ATL@@QEBAPEAV?$_NoAddRefReleaseOnCComPtr@UITypeLib@@@1@XZ 00000001800098a0 f i VoiceRecognition.obj
 0001:00008900       ??C?$CComPtrBase@UIUnknown@@@ATL@@QEBAPEAV?$_NoAddRefReleaseOnCComPtr@UIUnknown@@@1@XZ 0000000180009900 f i VoiceRecognition.obj
 0001:00008960       ??C?$CComPtrBase@UIViewObjectEx@@@ATL@@QEBAPEAV?$_NoAddRefReleaseOnCComPtr@UIViewObjectEx@@@1@XZ 0000000180009960 f i VoiceRecognition.obj
 0001:000089c0       ??I?$CComPtrBase@UICatRegister@@@ATL@@QEAAPEAPEAUICatRegister@@XZ 00000001800099c0 f i VoiceRecognition.obj
 0001:00008a20       ??I?$CComPtrBase@UIConnectionPoint@@@ATL@@QEAAPEAPEAUIConnectionPoint@@XZ 0000000180009a20 f i VoiceRecognition.obj
 0001:00008a80       ??I?$CComPtrBase@UIConnectionPointContainer@@@ATL@@QEAAPEAPEAUIConnectionPointContainer@@XZ 0000000180009a80 f i VoiceRecognition.obj
 0001:00008ae0       ??I?$CComPtrBase@UIDataAdviseHolder@@@ATL@@QEAAPEAPEAUIDataAdviseHolder@@XZ 0000000180009ae0 f i VoiceRecognition.obj
 0001:00008b40       ??I?$CComPtrBase@UIDataObject@@@ATL@@QEAAPEAPEAUIDataObject@@XZ 0000000180009b40 f i VoiceRecognition.obj
 0001:00008ba0       ??I?$CComPtrBase@UIDispatch@@@ATL@@QEAAPEAPEAUIDispatch@@XZ 0000000180009ba0 f i VoiceRecognition.obj
 0001:00008c00       ??I?$CComPtrBase@UIOleAdviseHolder@@@ATL@@QEAAPEAPEAUIOleAdviseHolder@@XZ 0000000180009c00 f i VoiceRecognition.obj
 0001:00008c60       ??I?$CComPtrBase@UIOleControlSite@@@ATL@@QEAAPEAPEAUIOleControlSite@@XZ 0000000180009c60 f i VoiceRecognition.obj
 0001:00008cc0       ??I?$CComPtrBase@UIOleInPlaceActiveObject@@@ATL@@QEAAPEAPEAUIOleInPlaceActiveObject@@XZ 0000000180009cc0 f i VoiceRecognition.obj
 0001:00008d20       ??I?$CComPtrBase@UIOleInPlaceFrame@@@ATL@@QEAAPEAPEAUIOleInPlaceFrame@@XZ 0000000180009d20 f i VoiceRecognition.obj
 0001:00008d80       ??I?$CComPtrBase@UIOleInPlaceObject@@@ATL@@QEAAPEAPEAUIOleInPlaceObject@@XZ 0000000180009d80 f i VoiceRecognition.obj
 0001:00008de0       ??I?$CComPtrBase@UIOleInPlaceSiteWindowless@@@ATL@@QEAAPEAPEAUIOleInPlaceSiteWindowless@@XZ 0000000180009de0 f i VoiceRecognition.obj
 0001:00008e40       ??I?$CComPtrBase@UIOleInPlaceUIWindow@@@ATL@@QEAAPEAPEAUIOleInPlaceUIWindow@@XZ 0000000180009e40 f i VoiceRecognition.obj
 0001:00008ea0       ??I?$CComPtrBase@UIOleObject@@@ATL@@QEAAPEAPEAUIOleObject@@XZ 0000000180009ea0 f i VoiceRecognition.obj
 0001:00008f00       ??I?$CComPtrBase@UIPersistStream@@@ATL@@QEAAPEAPEAUIPersistStream@@XZ 0000000180009f00 f i VoiceRecognition.obj
 0001:00008f60       ??I?$CComPtrBase@UIPointerInactive@@@ATL@@QEAAPEAPEAUIPointerInactive@@XZ 0000000180009f60 f i VoiceRecognition.obj
 0001:00008fc0       ??I?$CComPtrBase@UIProvideClassInfo2@@@ATL@@QEAAPEAPEAUIProvideClassInfo2@@XZ 0000000180009fc0 f i VoiceRecognition.obj
 0001:00009020       ??I?$CComPtrBase@UIStream@@@ATL@@QEAAPEAPEAUIStream@@XZ 000000018000a020 f i VoiceRecognition.obj
 0001:00009080       ??I?$CComPtrBase@UITypeInfo2@@@ATL@@QEAAPEAPEAUITypeInfo2@@XZ 000000018000a080 f i VoiceRecognition.obj
 0001:000090e0       ??I?$CComPtrBase@UITypeInfo@@@ATL@@QEAAPEAPEAUITypeInfo@@XZ 000000018000a0e0 f i VoiceRecognition.obj
 0001:00009140       ??I?$CComPtrBase@UITypeLib@@@ATL@@QEAAPEAPEAUITypeLib@@XZ 000000018000a140 f i VoiceRecognition.obj
 0001:000091a0       ??I?$CComPtrBase@UIUnknown@@@ATL@@QEAAPEAPEAUIUnknown@@XZ 000000018000a1a0 f i VoiceRecognition.obj
 0001:00009200       ??I?$CComPtrBase@UIViewObjectEx@@@ATL@@QEAAPEAPEAUIViewObjectEx@@XZ 000000018000a200 f i VoiceRecognition.obj
 0001:00009260       ??ICComBSTR@ATL@@QEAAPEAPEA_WXZ 000000018000a260 f i VoiceRecognition.obj
 0001:00009270       ??_E?$CComContainedObject@VCOPOSVoiceRecognition@@@ATL@@W7EAAPEAXI@Z 000000018000a270 f i VoiceRecognition.obj
 0001:0000927c       ??_E?$CComContainedObject@VCOPOSVoiceRecognition@@@ATL@@WHA@EAAPEAXI@Z 000000018000a27c f i VoiceRecognition.obj
 0001:00009288       ??_E?$CComObject@VCOPOSVoiceRecognition@@@ATL@@W7EAAPEAXI@Z 000000018000a288 f i VoiceRecognition.obj
 0001:00009294       ??_E?$CComObject@VCOPOSVoiceRecognition@@@ATL@@WHA@EAAPEAXI@Z 000000018000a294 f i VoiceRecognition.obj
 0001:000092a0       ??_G?$CComAggObject@VCOPOSVoiceRecognition@@@ATL@@UEAAPEAXI@Z 000000018000a2a0 f i VoiceRecognition.obj
 0001:000092a0       ??_E?$CComAggObject@VCOPOSVoiceRecognition@@@ATL@@UEAAPEAXI@Z 000000018000a2a0 f i VoiceRecognition.obj
 0001:000092e0       ??_G?$CComContainedObject@VCOPOSVoiceRecognition@@@ATL@@UEAAPEAXI@Z 000000018000a2e0 f i VoiceRecognition.obj
 0001:000092e0       ??_E?$CComContainedObject@VCOPOSVoiceRecognition@@@ATL@@UEAAPEAXI@Z 000000018000a2e0 f i VoiceRecognition.obj
 0001:00009320       ??_E?$CComObject@V?$CComEnum@UIEnumConnectionPoints@@$1?_GUID_b196b285_bab4_101a_b69c_00aa00341d07@@3U__s_GUID@@BPEAUIConnectionPoint@@V?$_CopyInterface@UIConnectionPoint@@@ATL@@VCComSingleThreadModel@6@@ATL@@@ATL@@UEAAPEAXI@Z 000000018000a320 f i VoiceRecognition.obj
 0001:00009320       ??_G?$CComObject@V?$CComEnum@UIEnumConnectionPoints@@$1?_GUID_b196b285_bab4_101a_b69c_00aa00341d07@@3U__s_GUID@@BPEAUIConnectionPoint@@V?$_CopyInterface@UIConnectionPoint@@@ATL@@VCComSingleThreadModel@6@@ATL@@@ATL@@UEAAPEAXI@Z 000000018000a320 f i VoiceRecognition.obj
 0001:00009360       ??_E?$CComObject@V?$CComEnum@UIEnumConnections@@$1?_GUID_b196b287_bab4_101a_b69c_00aa00341d07@@3U__s_GUID@@BUtagCONNECTDATA@@V?$_Copy@UtagCONNECTDATA@@@ATL@@VCComSingleThreadModel@6@@ATL@@@ATL@@UEAAPEAXI@Z 000000018000a360 f i VoiceRecognition.obj
 0001:00009360       ??_G?$CComObject@V?$CComEnum@UIEnumConnections@@$1?_GUID_b196b287_bab4_101a_b69c_00aa00341d07@@3U__s_GUID@@BUtagCONNECTDATA@@V?$_Copy@UtagCONNECTDATA@@@ATL@@VCComSingleThreadModel@6@@ATL@@@ATL@@UEAAPEAXI@Z 000000018000a360 f i VoiceRecognition.obj
 0001:000093a0       ??_G?$CComObject@VCOPOSVoiceRecognition@@@ATL@@UEAAPEAXI@Z 000000018000a3a0 f i VoiceRecognition.obj
 0001:000093a0       ??_E?$CComObject@VCOPOSVoiceRecognition@@@ATL@@UEAAPEAXI@Z 000000018000a3a0 f i VoiceRecognition.obj
 0001:000093e0       ??_G?$CComObjectCached@VCComClassFactory@ATL@@@ATL@@UEAAPEAXI@Z 000000018000a3e0 f i VoiceRecognition.obj
 0001:000093e0       ??_E?$CComObjectCached@VCComClassFactory@ATL@@@ATL@@UEAAPEAXI@Z 000000018000a3e0 f i VoiceRecognition.obj
 0001:00009420       ??_GCComClassFactory@ATL@@UEAAPEAXI@Z 000000018000a420 f i VoiceRecognition.obj
 0001:00009420       ??_ECComClassFactory@ATL@@UEAAPEAXI@Z 000000018000a420 f i VoiceRecognition.obj
 0001:00009460       ??_GCComModule@ATL@@UEAAPEAXI@Z 000000018000a460 f i VoiceRecognition.obj
 0001:00009460       ??_ECComModule@ATL@@UEAAPEAXI@Z 000000018000a460 f i VoiceRecognition.obj
 0001:000094a0       ??_ECRegObject@ATL@@UEAAPEAXI@Z 000000018000a4a0 f i VoiceRecognition.obj
 0001:000094a0       ??_GCRegObject@ATL@@UEAAPEAXI@Z 000000018000a4a0 f i VoiceRecognition.obj
 0001:000094e0       ?Add@?$CSimpleArray@GV?$CSimpleArrayEqualHelper@G@ATL@@@ATL@@QEAAHAEBG@Z 000000018000a4e0 f i VoiceRecognition.obj
 0001:00009670       ?Add@?$CSimpleMap@PEA_WPEA_WVCExpansionVectorEqualHelper@ATL@@@ATL@@QEAAHAEBQEA_W0@Z 000000018000a670 f i VoiceRecognition.obj
 0001:00009750       ?Add@CComDynamicUnkArray@ATL@@QEAAKPEAUIUnknown@@@Z 000000018000a750 f i VoiceRecognition.obj
 0001:00009930       ?Add@CExpansionVector@ATL@@QEAAHPEB_W0@Z 000000018000a930 f i VoiceRecognition.obj
 0001:00009c70       ?AddChar@CParseBuffer@CRegParser@ATL@@QEAAHPEB_W@Z 000000018000ac70 f i VoiceRecognition.obj
 0001:00009cb0       ?AddCommonRGSReplacements@?$CAtlModuleT@VCComModule@ATL@@@ATL@@UEAAJPEAUIRegistrarBase@@@Z 000000018000acb0 f i VoiceRecognition.obj
 0001:00009cf0       ?AddCreateWndData@CAtlWinModule@ATL@@QEAAXPEAU_AtlCreateWndData@2@PEAX@Z 000000018000acf0 f i VoiceRecognition.obj
 0001:00009d20       ?AddRef@?$CComAggObject@VCOPOSVoiceRecognition@@@ATL@@UEAAKXZ 000000018000ad20 f i VoiceRecognition.obj
 0001:00009d50       ?AddRef@?$CComContainedObject@VCOPOSVoiceRecognition@@@ATL@@UEAAKXZ 000000018000ad50 f i VoiceRecognition.obj
 0001:00009d74       ?AddRef@?$CComContainedObject@VCOPOSVoiceRecognition@@@ATL@@WBAA@EAAKXZ 000000018000ad74 f i VoiceRecognition.obj
 0001:00009d80       ?AddRef@?$CComContainedObject@VCOPOSVoiceRecognition@@@ATL@@WBAI@EAAKXZ 000000018000ad80 f i VoiceRecognition.obj
 0001:00009d8c       ?AddRef@?$CComContainedObject@VCOPOSVoiceRecognition@@@ATL@@WBBA@EAAKXZ 000000018000ad8c f i VoiceRecognition.obj
 0001:00009d98       ?AddRef@?$CComContainedObject@VCOPOSVoiceRecognition@@@ATL@@WBBI@EAAKXZ 000000018000ad98 f i VoiceRecognition.obj
 0001:00009da4       ?AddRef@?$CComContainedObject@VCOPOSVoiceRecognition@@@ATL@@WBCI@EAAKXZ 000000018000ada4 f i VoiceRecognition.obj
 0001:00009db0       ?AddRef@?$CComContainedObject@VCOPOSVoiceRecognition@@@ATL@@WBEA@EAAKXZ 000000018000adb0 f i VoiceRecognition.obj
 0001:00009dbc       ?AddRef@?$CComContainedObject@VCOPOSVoiceRecognition@@@ATL@@WLI@EAAKXZ 000000018000adbc f i VoiceRecognition.obj
 0001:00009dc8       ?AddRef@?$CComContainedObject@VCOPOSVoiceRecognition@@@ATL@@WMA@EAAKXZ 000000018000adc8 f i VoiceRecognition.obj
 0001:00009dd4       ?AddRef@?$CComContainedObject@VCOPOSVoiceRecognition@@@ATL@@WMI@EAAKXZ 000000018000add4 f i VoiceRecognition.obj
 0001:00009de0       ?AddRef@?$CComContainedObject@VCOPOSVoiceRecognition@@@ATL@@WNA@EAAKXZ 000000018000ade0 f i VoiceRecognition.obj
 0001:00009dec       ?AddRef@?$CComContainedObject@VCOPOSVoiceRecognition@@@ATL@@WNI@EAAKXZ 000000018000adec f i VoiceRecognition.obj
 0001:00009df8       ?AddRef@?$CComContainedObject@VCOPOSVoiceRecognition@@@ATL@@WOA@EAAKXZ 000000018000adf8 f i VoiceRecognition.obj
 0001:00009e04       ?AddRef@?$CComContainedObject@VCOPOSVoiceRecognition@@@ATL@@WOI@EAAKXZ 000000018000ae04 f i VoiceRecognition.obj
 0001:00009e10       ?AddRef@?$CComContainedObject@VCOPOSVoiceRecognition@@@ATL@@WPA@EAAKXZ 000000018000ae10 f i VoiceRecognition.obj
 0001:00009e1c       ?AddRef@?$CComContainedObject@VCOPOSVoiceRecognition@@@ATL@@WPI@EAAKXZ 000000018000ae1c f i VoiceRecognition.obj
 0001:00009e30       ?AddRef@?$CComObject@V?$CComEnum@UIEnumConnectionPoints@@$1?_GUID_b196b285_bab4_101a_b69c_00aa00341d07@@3U__s_GUID@@BPEAUIConnectionPoint@@V?$_CopyInterface@UIConnectionPoint@@@ATL@@VCComSingleThreadModel@6@@ATL@@@ATL@@UEAAKXZ 000000018000ae30 f i VoiceRecognition.obj
 0001:00009e60       ?AddRef@?$CComObject@V?$CComEnum@UIEnumConnections@@$1?_GUID_b196b287_bab4_101a_b69c_00aa00341d07@@3U__s_GUID@@BUtagCONNECTDATA@@V?$_Copy@UtagCONNECTDATA@@@ATL@@VCComSingleThreadModel@6@@ATL@@@ATL@@UEAAKXZ 000000018000ae60 f i VoiceRecognition.obj
 0001:00009e90       ?AddRef@?$CComObject@VCOPOSVoiceRecognition@@@ATL@@UEAAKXZ 000000018000ae90 f i VoiceRecognition.obj
 0001:00009eb4       ?AddRef@?$CComObject@VCOPOSVoiceRecognition@@@ATL@@WBAA@EAAKXZ 000000018000aeb4 f i VoiceRecognition.obj
 0001:00009ec0       ?AddRef@?$CComObject@VCOPOSVoiceRecognition@@@ATL@@WBAI@EAAKXZ 000000018000aec0 f i VoiceRecognition.obj
 0001:00009ecc       ?AddRef@?$CComObject@VCOPOSVoiceRecognition@@@ATL@@WBBA@EAAKXZ 000000018000aecc f i VoiceRecognition.obj
 0001:00009ed8       ?AddRef@?$CComObject@VCOPOSVoiceRecognition@@@ATL@@WBBI@EAAKXZ 000000018000aed8 f i VoiceRecognition.obj
 0001:00009ee4       ?AddRef@?$CComObject@VCOPOSVoiceRecognition@@@ATL@@WBCI@EAAKXZ 000000018000aee4 f i VoiceRecognition.obj
 0001:00009ef0       ?AddRef@?$CComObject@VCOPOSVoiceRecognition@@@ATL@@WBEA@EAAKXZ 000000018000aef0 f i VoiceRecognition.obj
 0001:00009efc       ?AddRef@?$CComObject@VCOPOSVoiceRecognition@@@ATL@@WLI@EAAKXZ 000000018000aefc f i VoiceRecognition.obj
 0001:00009f08       ?AddRef@?$CComObject@VCOPOSVoiceRecognition@@@ATL@@WMA@EAAKXZ 000000018000af08 f i VoiceRecognition.obj
 0001:00009f14       ?AddRef@?$CComObject@VCOPOSVoiceRecognition@@@ATL@@WMI@EAAKXZ 000000018000af14 f i VoiceRecognition.obj
 0001:00009f20       ?AddRef@?$CComObject@VCOPOSVoiceRecognition@@@ATL@@WNA@EAAKXZ 000000018000af20 f i VoiceRecognition.obj
 0001:00009f2c       ?AddRef@?$CComObject@VCOPOSVoiceRecognition@@@ATL@@WNI@EAAKXZ 000000018000af2c f i VoiceRecognition.obj
 0001:00009f38       ?AddRef@?$CComObject@VCOPOSVoiceRecognition@@@ATL@@WOA@EAAKXZ 000000018000af38 f i VoiceRecognition.obj
 0001:00009f44       ?AddRef@?$CComObject@VCOPOSVoiceRecognition@@@ATL@@WOI@EAAKXZ 000000018000af44 f i VoiceRecognition.obj
 0001:00009f50       ?AddRef@?$CComObject@VCOPOSVoiceRecognition@@@ATL@@WPA@EAAKXZ 000000018000af50 f i VoiceRecognition.obj
 0001:00009f5c       ?AddRef@?$CComObject@VCOPOSVoiceRecognition@@@ATL@@WPI@EAAKXZ 000000018000af5c f i VoiceRecognition.obj
 0001:00009f70       ?AddRef@?$CComObjectCached@VCComClassFactory@ATL@@@ATL@@UEAAKXZ 000000018000af70 f i VoiceRecognition.obj
 0001:00009fc0       ?AddRef@CRegObject@ATL@@UEAAKXZ 000000018000afc0 f i VoiceRecognition.obj
 0001:0000a020       ?AddReplacement@CRegObject@ATL@@UEAAJPEB_W0@Z 000000018000b020 f i VoiceRecognition.obj
 0001:0000a150       ?AddString@CParseBuffer@CRegParser@ATL@@QEAAHPEB_W@Z 000000018000b150 f i VoiceRecognition.obj
 0001:0000a240       ?AddTermFunc@CAtlModule@ATL@@QEAAJP6AX_K@Z0@Z 000000018000b240 f i VoiceRecognition.obj
 0001:0000a290       ?AddValue@CRegParser@ATL@@IEAAJAEAVCRegKey@2@PEB_WPEA_W@Z 000000018000b290 f i VoiceRecognition.obj
 0001:0000ab60       ?Advise@?$CProxy_IOPOSEvents@VCOPOSVoiceRecognition@@@@UEAAJPEAUIUnknown@@PEAK@Z 000000018000bb60 f i VoiceRecognition.obj
 0001:0000abc0       ?Advise@?$IConnectionPointImpl@VCOPOSVoiceRecognition@@$1?DIID__IOPOSVoiceRecognitionEvents@@3U_GUID@@BVCComDynamicUnkArray@ATL@@@ATL@@UEAAJPEAUIUnknown@@PEAK@Z 000000018000bbc0 f i VoiceRecognition.obj
 0001:0000adc0       ?Advise@?$IConnectionPointImpl@VCOPOSVoiceRecognition@@$1?IID_IPropertyNotifySink@@3U_GUID@@BVCComDynamicUnkArray@ATL@@@ATL@@UEAAJPEAUIUnknown@@PEAK@Z 000000018000bdc0 f i VoiceRecognition.obj
 0001:0000afc0       ?Advise@?$IOleObjectImpl@VCOPOSVoiceRecognition@@@ATL@@UEAAJPEAUIAdviseSink@@PEAK@Z 000000018000bfc0 f i VoiceRecognition.obj
 0001:0000b070       ?Allocate@?$CAtlSafeAllocBufferManager@VCCRTAllocator@ATL@@@_ATL_SAFE_ALLOCA_IMPL@ATL@@QEAAPEAX_K@Z 000000018000c070 f i VoiceRecognition.obj
 0001:0000b0e0       ?Allocate@?$CTempBuffer@E$0BAA@VCCRTAllocator@ATL@@@ATL@@QEAAPEAE_K@Z 000000018000c0e0 f i VoiceRecognition.obj
 0001:0000b120       ?Allocate@?$CTempBuffer@_W$0BAA@VCCRTAllocator@ATL@@@ATL@@QEAAPEA_W_K@Z 000000018000c120 f i VoiceRecognition.obj
 0001:0000b160       ?Allocate@?$CTempBuffer@_W$0EAA@VCCRTAllocator@ATL@@@ATL@@QEAAPEA_W_K@Z 000000018000c160 f i VoiceRecognition.obj
 0001:0000b1a0       ?AllocateBytes@?$CTempBuffer@E$0BAA@VCCRTAllocator@ATL@@@ATL@@QEAAPEAE_K@Z 000000018000c1a0 f i VoiceRecognition.obj
 0001:0000b230       ?AllocateBytes@?$CTempBuffer@_W$0BAA@VCCRTAllocator@ATL@@@ATL@@QEAAPEA_W_K@Z 000000018000c230 f i VoiceRecognition.obj
 0001:0000b2c0       ?AllocateBytes@?$CTempBuffer@_W$0EAA@VCCRTAllocator@ATL@@@ATL@@QEAAPEA_W_K@Z 000000018000c2c0 f i VoiceRecognition.obj
 0001:0000b350       ?AllocateHeap@?$CTempBuffer@E$0BAA@VCCRTAllocator@ATL@@@ATL@@AEAAX_K@Z 000000018000c350 f i VoiceRecognition.obj
 0001:0000b3a0       ?AllocateHeap@?$CTempBuffer@_W$0BAA@VCCRTAllocator@ATL@@@ATL@@AEAAX_K@Z 000000018000c3a0 f i VoiceRecognition.obj
 0001:0000b3f0       ?AllocateHeap@?$CTempBuffer@_W$0EAA@VCCRTAllocator@ATL@@@ATL@@AEAAX_K@Z 000000018000c3f0 f i VoiceRecognition.obj
 0001:0000b440       ?Append@CParseBuffer@CRegParser@ATL@@QEAAHPEB_WH@Z 000000018000c440 f i VoiceRecognition.obj
 0001:0000b660       ?AtlCallTermFunc@ATL@@YAXPEAU_ATL_MODULE70@1@@Z 000000018000c660 f i VoiceRecognition.obj
 0001:0000b700       ?AtlCoTaskMemCAlloc@ATL@@YAPEAXKK@Z 000000018000c700 f i VoiceRecognition.obj
 0001:0000b780       ?AtlCoTaskMemRecalloc@ATL@@YAPEAXPEAXKK@Z 000000018000c780 f i VoiceRecognition.obj
 0001:0000b800       ?AtlComModuleGetClassObject@ATL@@YAJPEAU_ATL_COM_MODULE70@1@AEBU_GUID@@1PEAPEAX@Z 000000018000c800 f i VoiceRecognition.obj
 0001:0000bb30       ?AtlComModuleRegisterServer@ATL@@YAJPEAU_ATL_COM_MODULE70@1@HPEBU_GUID@@@Z 000000018000cb30 f i VoiceRecognition.obj
 0001:0000bd20       ?AtlComModuleUnregisterServer@ATL@@YAJPEAU_ATL_COM_MODULE70@1@HPEBU_GUID@@@Z 000000018000cd20 f i VoiceRecognition.obj
 0001:0000be70       ?AtlComQIPtrAssign2@ATL@@YAXPEAPEAUIUnknown@@PEAU2@AEBU_GUID@@@Z 000000018000ce70 f i VoiceRecognition.obj
 0001:0000bee0       ?AtlCreateTargetDC@ATL@@YAPEAUHDC__@@PEAU2@PEAUtagDVTARGETDEVICE@@@Z 000000018000cee0 f i VoiceRecognition.obj
 0001:0000c110       ?AtlCrtErrorCheck@ATL@@YAHH@Z 000000018000d110 f i VoiceRecognition.obj
 0001:0000c180       ?AtlGetPerUserRegistration@ATL@@YAJPEA_N@Z 000000018000d180 f i VoiceRecognition.obj
 0001:0000c1b0       ?AtlHiMetricToPixel@ATL@@YAXPEBUtagSIZE@@PEAU2@@Z 000000018000d1b0 f i VoiceRecognition.obj
 0001:0000c390       ?AtlHresultFromLastError@ATL@@YAJXZ 000000018000d390 f i VoiceRecognition.obj
 0001:0000c3b0       ?AtlHresultFromWin32@ATL@@YAJK@Z 000000018000d3b0 f i VoiceRecognition.obj
 0001:0000c3d0       ?AtlIPersistStreamInit_Load@ATL@@YAJPEAUIStream@@PEBUATL_PROPMAP_ENTRY@1@PEAXPEAUIUnknown@@@Z 000000018000d3d0 f i VoiceRecognition.obj
 0001:0000ca50       ?AtlIPersistStreamInit_Save@ATL@@YAJPEAUIStream@@HPEBUATL_PROPMAP_ENTRY@1@PEAXPEAUIUnknown@@@Z 000000018000da50 f i VoiceRecognition.obj
 0001:0000cfe0       ?AtlInternalOleLoadFromStream@ATL@@YAJPEAUIStream@@AEBU_GUID@@PEAPEAXTClassesAllowedInStream@1@K@Z 000000018000dfe0 f i VoiceRecognition.obj
 0001:0000d320       ?AtlInternalQueryInterface@ATL@@YAJPEAXPEBU_ATL_INTMAP_ENTRY@1@AEBU_GUID@@PEAPEAX@Z 000000018000e320 f i VoiceRecognition.obj
 0001:0000d5d0       ?AtlLoadTypeLib@ATL@@YAJPEAUHINSTANCE__@@PEB_WPEAPEA_WPEAPEAUITypeLib@@@Z 000000018000e5d0 f i VoiceRecognition.obj
 0001:0000daa0       ?AtlModuleAddTermFunc@ATL@@YAJPEAU_ATL_MODULE70@1@P6AX_K@Z1@Z 000000018000eaa0 f i VoiceRecognition.obj
 0001:0000dc70       ?AtlRegisterClassCategoriesHelper@ATL@@YAJAEBU_GUID@@PEBU_ATL_CATMAP_ENTRY@1@H@Z 000000018000ec70 f i VoiceRecognition.obj
 0001:0000e440       ?AtlRegisterTypeLib@ATL@@YAJPEAUHINSTANCE__@@PEB_W@Z 000000018000f440 f i VoiceRecognition.obj
 0001:0000e7a0       ?AtlThrowImpl@ATL@@YAXJ@Z  000000018000f7a0 f i VoiceRecognition.obj
 0001:0000e870       ?AtlUnRegisterTypeLib@ATL@@YAJPEAUHINSTANCE__@@PEB_W@Z 000000018000f870 f i VoiceRecognition.obj
 0001:0000eaa0       ?AtlWinModuleAddCreateWndData@ATL@@YAXPEAU_ATL_WIN_MODULE70@1@PEAU_AtlCreateWndData@1@PEAX@Z 000000018000faa0 f i VoiceRecognition.obj
 0001:0000ec90       ?AtlWinModuleExtractCreateWndData@ATL@@YAPEAXPEAU_ATL_WIN_MODULE70@1@@Z 000000018000fc90 f i VoiceRecognition.obj
 0001:0000ee90       ?AtlWinModuleRegisterClassExW@ATL@@YAGPEAU_ATL_WIN_MODULE70@1@PEBUtagWNDCLASSEXW@@@Z 000000018000fe90 f i VoiceRecognition.obj
 0001:0000ef60       ?AtlWinModuleRegisterWndClassInfoW@ATL@@YAGPEAU_ATL_WIN_MODULE70@1@PEAU_ATL_BASE_MODULE70@1@PEAU_ATL_WNDCLASSINFOW@1@PEAP6A_JPEAUHWND__@@I_K_J@Z@Z 000000018000ff60 f i VoiceRecognition.obj
 0001:0000efd0       ?Attach@?$CAutoVectorPtr@_W@ATL@@QEAAXPEA_W@Z 000000018000ffd0 f i VoiceRecognition.obj
 0001:0000f040       ?Attach@CComBSTR@ATL@@QEAAXPEA_W@Z 0000000180010040 f i VoiceRecognition.obj
 0001:0000f080       ?Attach@CRegKey@ATL@@QEAAXPEAUHKEY__@@@Z 0000000180010080 f i VoiceRecognition.obj
 0001:0000f110       ?CanForceRemoveKey@CRegParser@ATL@@IEAAHPEB_W@Z 0000000180010110 f i VoiceRecognition.obj
 0001:0000f170       ?ChToByte@CRegParser@ATL@@KAE_W@Z 0000000180010170 f i VoiceRecognition.obj
 0001:0000f310       ?ChangeType@CComVariant@ATL@@QEAAJGPEBUtagVARIANT@@@Z 0000000180010310 f i VoiceRecognition.obj
 0001:0000f360       ?Cleanup@CComTypeInfoHolder@ATL@@SAX_K@Z 0000000180010360 f i VoiceRecognition.obj
 0001:0000f440       ?Clear@CComVariant@ATL@@QEAAJXZ 0000000180010440 f i VoiceRecognition.obj
 0001:0000f460       ?ClearReplacements@CExpansionVector@ATL@@QEAAJXZ 0000000180010460 f i VoiceRecognition.obj
 0001:0000f4f0       ?ClearReplacements@CRegObject@ATL@@UEAAJXZ 00000001800104f0 f i VoiceRecognition.obj
 0001:0000f540       ?Clone@?$CComEnumImpl@UIEnumConnectionPoints@@$1?_GUID_b196b285_bab4_101a_b69c_00aa00341d07@@3U__s_GUID@@BPEAUIConnectionPoint@@V?$_CopyInterface@UIConnectionPoint@@@ATL@@@ATL@@UEAAJPEAPEAUIEnumConnectionPoints@@@Z 0000000180010540 f i VoiceRecognition.obj
 0001:0000f730       ?Clone@?$CComEnumImpl@UIEnumConnections@@$1?_GUID_b196b287_bab4_101a_b69c_00aa00341d07@@3U__s_GUID@@BUtagCONNECTDATA@@V?$_Copy@UtagCONNECTDATA@@@ATL@@@ATL@@UEAAJPEAPEAUIEnumConnections@@@Z 0000000180010730 f i VoiceRecognition.obj
 0001:0000f920       ?Close@?$IOleObjectImpl@VCOPOSVoiceRecognition@@@ATL@@UEAAJK@Z 0000000180010920 f i VoiceRecognition.obj
 0001:0000f9c0       ?Close@CRegKey@ATL@@QEAAJXZ 00000001800109c0 f i VoiceRecognition.obj
 0001:0000fa20       ?ContextSensitiveHelp@?$IOleInPlaceActiveObjectImpl@VCOPOSVoiceRecognition@@@ATL@@UEAAJH@Z 0000000180010a20 f i VoiceRecognition.obj
 0001:0000fa90       ?ContextSensitiveHelp@?$IOleInPlaceObjectWindowlessImpl@VCOPOSVoiceRecognition@@@ATL@@UEAAJH@Z 0000000180010a90 f i VoiceRecognition.obj
 0001:0000fb00       ?ControlQueryInterface@?$CComControl@VCOPOSVoiceRecognition@@V?$CWindowImpl@VCOPOSVoiceRecognition@@VCWindow@ATL@@V?$CWinTraits@$0FGAAAAAA@$0A@@3@@ATL@@@ATL@@UEAAJAEBU_GUID@@PEAPEAX@Z 0000000180010b00 f i VoiceRecognition.obj
 0001:0000fb70       ?CreateControlWindow@?$CComControl@VCOPOSVoiceRecognition@@V?$CWindowImpl@VCOPOSVoiceRecognition@@VCWindow@ATL@@V?$CWinTraits@$0FGAAAAAA@$0A@@3@@ATL@@@ATL@@UEAAPEAUHWND__@@PEAU3@AEAUtagRECT@@@Z 0000000180010b70 f i VoiceRecognition.obj
 0001:0000fc40       ?CreateInstance@?$CComCreator@V?$CComAggObject@VCOPOSVoiceRecognition@@@ATL@@@ATL@@SAJPEAXAEBU_GUID@@PEAPEAX@Z 0000000180010c40 f i VoiceRecognition.obj
 0001:0000fe10       ?CreateInstance@?$CComCreator@V?$CComObject@VCOPOSVoiceRecognition@@@ATL@@@ATL@@SAJPEAXAEBU_GUID@@PEAPEAX@Z 0000000180010e10 f i VoiceRecognition.obj
 0001:0000fff0       ?CreateInstance@?$CComObject@V?$CComEnum@UIEnumConnectionPoints@@$1?_GUID_b196b285_bab4_101a_b69c_00aa00341d07@@3U__s_GUID@@BPEAUIConnectionPoint@@V?$_CopyInterface@UIConnectionPoint@@@ATL@@VCComSingleThreadModel@6@@ATL@@@ATL@@SAJPEAPEAV12@@Z 0000000180010ff0 f i VoiceRecognition.obj
 0001:000101a0       ?CreateInstance@?$CComObject@V?$CComEnum@UIEnumConnections@@$1?_GUID_b196b287_bab4_101a_b69c_00aa00341d07@@3U__s_GUID@@BUtagCONNECTDATA@@V?$_Copy@UtagCONNECTDATA@@@ATL@@VCComSingleThreadModel@6@@ATL@@@ATL@@SAJPEAPEAV12@@Z 00000001800111a0 f i VoiceRecognition.obj
 0001:00010350       ?CreateInstance@CComClassFactory@ATL@@UEAAJPEAUIUnknown@@AEBU_GUID@@PEAPEAX@Z 0000000180011350 f i VoiceRecognition.obj
 0001:00010460       ?DAdvise@?$IDataObjectImpl@VCOPOSVoiceRecognition@@@ATL@@UEAAJPEAUtagFORMATETC@@KPEAUIAdviseSink@@PEAK@Z 0000000180011460 f i VoiceRecognition.obj
 0001:000105a0       ?DEVMODEOLE2T_EX@@YAPEAU_devicemodeW@@PEAU1@@Z 00000001800115a0 f i VoiceRecognition.obj
 0001:000105b0       ?DUnadvise@?$IDataObjectImpl@VCOPOSVoiceRecognition@@@ATL@@UEAAJK@Z 00000001800115b0 f i VoiceRecognition.obj
 0001:000106a0       ?Decrement@CComMultiThreadModel@ATL@@SAKPEAJ@Z 00000001800116a0 f i VoiceRecognition.obj
 0001:000106c0       ?Decrement@CComSingleThreadModel@ATL@@SAKPEAJ@Z 00000001800116c0 f i VoiceRecognition.obj
 0001:000106e0       ?DefWindowProcW@?$CWindowImplBaseT@VCWindow@ATL@@V?$CWinTraits@$0FGAAAAAA@$0A@@2@@ATL@@QEAA_JI_K_J@Z 00000001800116e0 f i VoiceRecognition.obj
 0001:00010730       ?DefaultReflectionHandler@?$CWindowImplRoot@VCWindow@ATL@@@ATL@@SAHPEAUHWND__@@I_K_JAEA_J@Z 0000000180011730 f i VoiceRecognition.obj
 0001:00010a30       ?DeleteSubKey@CRegKey@ATL@@QEAAJPEB_W@Z 0000000180011a30 f i VoiceRecognition.obj
 0001:00010b40       ?DeleteValue@CRegKey@ATL@@QEAAJPEB_W@Z 0000000180011b40 f i VoiceRecognition.obj
 0001:00010bc0       ?Detach@?$CAutoVectorPtr@_W@ATL@@QEAAPEA_WXZ 0000000180011bc0 f i VoiceRecognition.obj
 0001:00010bf0       ?Detach@?$CComPtrBase@UIPersistStream@@@ATL@@QEAAPEAUIPersistStream@@XZ 0000000180011bf0 f i VoiceRecognition.obj
 0001:00010c20       ?Detach@?$CComPtrBase@UITypeInfo@@@ATL@@QEAAPEAUITypeInfo@@XZ 0000000180011c20 f i VoiceRecognition.obj
 0001:00010c50       ?Detach@?$CComPtrBase@UIUnknown@@@ATL@@QEAAPEAUIUnknown@@XZ 0000000180011c50 f i VoiceRecognition.obj
 0001:00010c80       ?Detach@CComBSTR@ATL@@QEAAPEA_WXZ 0000000180011c80 f i VoiceRecognition.obj
 0001:00010cb0       ?Detach@CParseBuffer@CRegParser@ATL@@QEAAPEA_WXZ 0000000180011cb0 f i VoiceRecognition.obj
 0001:00010d00       ?Detach@CRegKey@ATL@@QEAAPEAUHKEY__@@XZ 0000000180011d00 f i VoiceRecognition.obj
 0001:00010d50       ?DoEvent@COPOSVoiceRecognition@@IEAAXI_K_J@Z 0000000180011d50 f i VoiceRecognition.obj
 0001:00010e70       ?DoVerb@?$IOleObjectImpl@VCOPOSVoiceRecognition@@@ATL@@UEAAJJPEAUtagMSG@@PEAUIOleClientSite@@JPEAUHWND__@@PEBUtagRECT@@@Z 0000000180011e70 f i VoiceRecognition.obj
 0001:00011170       ?DoVerbDiscardUndo@?$IOleObjectImpl@VCOPOSVoiceRecognition@@@ATL@@QEAAJPEBUtagRECT@@PEAUHWND__@@@Z 0000000180012170 f i VoiceRecognition.obj
 0001:000111f0       ?DoVerbHide@?$IOleObjectImpl@VCOPOSVoiceRecognition@@@ATL@@QEAAJPEBUtagRECT@@PEAUHWND__@@@Z 00000001800121f0 f i VoiceRecognition.obj
 0001:000112c0       ?DoVerbInPlaceActivate@?$IOleObjectImpl@VCOPOSVoiceRecognition@@@ATL@@QEAAJPEBUtagRECT@@PEAUHWND__@@@Z 00000001800122c0 f i VoiceRecognition.obj
 0001:00011380       ?DoVerbOpen@?$IOleObjectImpl@VCOPOSVoiceRecognition@@@ATL@@QEAAJPEBUtagRECT@@PEAUHWND__@@@Z 0000000180012380 f i VoiceRecognition.obj
 0001:00011400       ?DoVerbPrimary@?$IOleObjectImpl@VCOPOSVoiceRecognition@@@ATL@@QEAAJPEBUtagRECT@@PEAUHWND__@@@Z 0000000180012400 f i VoiceRecognition.obj
 0001:00011540       ?DoVerbProperties@CComControlBase@ATL@@QEAAJPEBUtagRECT@@PEAUHWND__@@@Z 0000000180012540 f i VoiceRecognition.obj
 0001:000118f0       ?DoVerbShow@?$IOleObjectImpl@VCOPOSVoiceRecognition@@@ATL@@QEAAJPEBUtagRECT@@PEAUHWND__@@@Z 00000001800128f0 f i VoiceRecognition.obj
 0001:000119a0       ?DoVerbUIActivate@?$IOleObjectImpl@VCOPOSVoiceRecognition@@@ATL@@QEAAJPEBUtagRECT@@PEAUHWND__@@@Z 00000001800129a0 f i VoiceRecognition.obj
 0001:00011a60       ?DoesVerbActivate@CComControlBase@ATL@@QEAAHJ@Z 0000000180012a60 f i VoiceRecognition.obj
 0001:00011ab0       ?DoesVerbUIActivate@CComControlBase@ATL@@QEAAHJ@Z 0000000180012ab0 f i VoiceRecognition.obj
 0001:00011b20       ?Draw@?$IViewObjectExImpl@VCOPOSVoiceRecognition@@@ATL@@UEAAJKJPEAXPEAUtagDVTARGETDEVICE@@PEAUHDC__@@2PEBU_RECTL@@3P6AH_K@Z4@Z 0000000180012b20 f i VoiceRecognition.obj
 0001:00011c30       ?Empty@CComBSTR@ATL@@QEAAXXZ 0000000180012c30 f i VoiceRecognition.obj
 0001:00011c60       ?EnableModeless@?$IOleInPlaceActiveObjectImpl@VCOPOSVoiceRecognition@@@ATL@@UEAAJH@Z 0000000180012c60 f i VoiceRecognition.obj
 0001:00011cc0       ?EndOfVar@CRegParser@ATL@@IEAAHXZ 0000000180012cc0 f i VoiceRecognition.obj
 0001:00011d10       ?EnsureTI@CComTypeInfoHolder@ATL@@QEAAJK@Z 0000000180012d10 f i VoiceRecognition.obj
 0001:00011d60       ?EnumAdvise@?$IOleObjectImpl@VCOPOSVoiceRecognition@@@ATL@@UEAAJPEAPEAUIEnumSTATDATA@@@Z 0000000180012d60 f i VoiceRecognition.obj
 0001:00011eb0       ?EnumConnectionPoints@?$IConnectionPointContainerImpl@VCOPOSVoiceRecognition@@@ATL@@UEAAJPEAPEAUIEnumConnectionPoints@@@Z 0000000180012eb0 f i VoiceRecognition.obj
 0001:000123a0       ?EnumConnections@?$IConnectionPointImpl@VCOPOSVoiceRecognition@@$1?DIID__IOPOSVoiceRecognitionEvents@@3U_GUID@@BVCComDynamicUnkArray@ATL@@@ATL@@UEAAJPEAPEAUIEnumConnections@@@Z 00000001800133a0 f i VoiceRecognition.obj
 0001:000126d0       ?EnumConnections@?$IConnectionPointImpl@VCOPOSVoiceRecognition@@$1?IID_IPropertyNotifySink@@3U_GUID@@BVCComDynamicUnkArray@ATL@@@ATL@@UEAAJPEAPEAUIEnumConnections@@@Z 00000001800136d0 f i VoiceRecognition.obj
 0001:00012a00       ?EnumDAdvise@?$IDataObjectImpl@VCOPOSVoiceRecognition@@@ATL@@UEAAJPEAPEAUIEnumSTATDATA@@@Z 0000000180013a00 f i VoiceRecognition.obj
 0001:00012b30       ?EnumFormatEtc@?$IDataObjectImpl@VCOPOSVoiceRecognition@@@ATL@@UEAAJKPEAPEAUIEnumFORMATETC@@@Z 0000000180013b30 f i VoiceRecognition.obj
 0001:00012bb0       ?EnumVerbs@?$IOleObjectImpl@VCOPOSVoiceRecognition@@@ATL@@UEAAJPEAPEAUIEnumOLEVERB@@@Z 0000000180013bb0 f i VoiceRecognition.obj
 0001:00012c70       ?EscapeSingleQuote@CAtlModule@ATL@@SAXPEA_W_KPEB_W@Z 0000000180013c70 f i VoiceRecognition.obj
 0001:00012d50       ?ExtractCreateWndData@CAtlWinModule@ATL@@QEAAPEAXXZ 0000000180013d50 f i VoiceRecognition.obj
 0001:00012d70       ?FAccessAllowed@?$IObjectSafetyImpl@VCOPOSVoiceRecognition@@$02@ATL@@MEAAHXZ 0000000180013d70 f i VoiceRecognition.obj
 0001:00012d80       ?FinalConstruct@?$CComAggObject@VCOPOSVoiceRecognition@@@ATL@@QEAAJXZ 0000000180013d80 f i VoiceRecognition.obj
 0001:00012dc0       ?FinalConstruct@CComObjectRootBase@ATL@@QEAAJXZ 0000000180013dc0 f i VoiceRecognition.obj
 0001:00012dd0       ?FinalConstruct@CRegObject@ATL@@QEAAJXZ 0000000180013dd0 f i VoiceRecognition.obj
 0001:00012e00       ?FinalRelease@?$CComAggObject@VCOPOSVoiceRecognition@@@ATL@@QEAAXXZ 0000000180013e00 f i VoiceRecognition.obj
 0001:00012e40       ?FinalRelease@CComObjectRootBase@ATL@@QEAAXXZ 0000000180013e40 f i VoiceRecognition.obj
 0001:00012e50       ?FindConnectionPoint@?$IConnectionPointContainerImpl@VCOPOSVoiceRecognition@@@ATL@@UEAAJAEBU_GUID@@PEAPEAUIConnectionPoint@@@Z 0000000180013e50 f i VoiceRecognition.obj
 0001:00012fc0       ?FindKey@?$CSimpleMap@PEA_WPEA_WVCExpansionVectorEqualHelper@ATL@@@ATL@@QEBAHAEBQEA_W@Z 0000000180013fc0 f i VoiceRecognition.obj
 0001:00013030       ?FireTheEvent@?$CProxy_IOPOSEvents@VCOPOSVoiceRecognition@@@@IEAAXPEAUIUnknown@@PEAVOposVariant@@IAEAJPEB_WJ@Z 0000000180014030 f i VoiceRecognition.obj
 0001:00013210       ?FireViewChange@CComControlBase@ATL@@QEAAJXZ 0000000180014210 f i VoiceRecognition.obj
 0001:000132e0       ?Fire_DataEvent@?$CProxy_IOPOSEvents@VCOPOSVoiceRecognition@@@@QEAAXJ@Z 00000001800142e0 f i VoiceRecognition.obj
 0001:000134d0       ?Fire_DirectIOEvent@?$CProxy_IOPOSEvents@VCOPOSVoiceRecognition@@@@QEAAXJPEAJPEAPEA_W@Z 00000001800144d0 f i VoiceRecognition.obj
 0001:00013770       ?Fire_ErrorEvent@?$CProxy_IOPOSEvents@VCOPOSVoiceRecognition@@@@QEAAXJJJPEAJ@Z 0000000180014770 f i VoiceRecognition.obj
 0001:00013a20       ?Fire_StatusUpdateEvent@?$CProxy_IOPOSEvents@VCOPOSVoiceRecognition@@@@QEAAXJ@Z 0000000180014a20 f i VoiceRecognition.obj
 0001:00013c10       ?FormatWindowClassName@AtlModuleRegisterWndClassInfoParamW@ATL@@SAXPEA_WKPEAX@Z 0000000180014c10 f i VoiceRecognition.obj
 0001:00013c50       ?Free@?$CAutoVectorPtr@_W@ATL@@QEAAXXZ 0000000180014c50 f i VoiceRecognition.obj
 0001:00013c90       ?FreeHeap@?$CTempBuffer@E$0BAA@VCCRTAllocator@ATL@@@ATL@@AEAAXXZ 0000000180014c90 f i VoiceRecognition.obj
 0001:00013cb0       ?FreeHeap@?$CTempBuffer@_W$0BAA@VCCRTAllocator@ATL@@@ATL@@AEAAXXZ 0000000180014cb0 f i VoiceRecognition.obj
 0001:00013cd0       ?FreeHeap@?$CTempBuffer@_W$0EAA@VCCRTAllocator@ATL@@@ATL@@AEAAXXZ 0000000180014cd0 f i VoiceRecognition.obj
 0001:00013cf0       ?Freeze@?$IViewObjectExImpl@VCOPOSVoiceRecognition@@@ATL@@UEAAJKJPEAXPEAK@Z 0000000180014cf0 f i VoiceRecognition.obj
 0001:00013d70       ?GenerateError@CRegParser@ATL@@IEAAJI@Z 0000000180014d70 f i VoiceRecognition.obj
 0001:00013d90       ?GetAdvise@?$IViewObjectExImpl@VCOPOSVoiceRecognition@@@ATL@@UEAAJPEAK0PEAPEAUIAdviseSink@@@Z 0000000180014d90 f i VoiceRecognition.obj
 0001:00013ed0       ?GetAmbientLocaleID@CComControlBase@ATL@@QEAAJAEAK@Z 0000000180014ed0 f i VoiceRecognition.obj
 0001:00013fb0       ?GetAmbientProperty@CComControlBase@ATL@@QEAAJJAEAUtagVARIANT@@@Z 0000000180014fb0 f i VoiceRecognition.obj
 0001:00014000       ?GetAmbientUserMode@CComControlBase@ATL@@QEAAJAEAH@Z 0000000180015000 f i VoiceRecognition.obj
 0001:00014120       ?GetAppId@?$CAtlModuleT@VCComModule@ATL@@@ATL@@SAPEB_WXZ 0000000180015120 f i VoiceRecognition.obj
 0001:00014130       ?GetAt@CComDynamicUnkArray@ATL@@QEAAPEAUIUnknown@@H@Z 0000000180015130 f i VoiceRecognition.obj
 0001:000141c0       ?GetCanonicalFormatEtc@?$IDataObjectImpl@VCOPOSVoiceRecognition@@@ATL@@UEAAJPEAUtagFORMATETC@@0@Z 00000001800151c0 f i VoiceRecognition.obj
 0001:00014240       ?GetClassID@?$IPersistStorageImpl@VCOPOSVoiceRecognition@@@ATL@@UEAAJPEAU_GUID@@@Z 0000000180015240 f i VoiceRecognition.obj
 0001:000142c0       ?GetClassID@?$IPersistStreamInitImpl@VCOPOSVoiceRecognition@@@ATL@@UEAAJPEAU_GUID@@@Z 00000001800152c0 f i VoiceRecognition.obj
 0001:00014340       ?GetClassInfoExW@AtlModuleRegisterWndClassInfoParamW@ATL@@SAHPEAUHINSTANCE__@@PEB_WPEAUtagWNDCLASSEXW@@@Z 0000000180015340 f i VoiceRecognition.obj
 0001:00014370       ?GetClassInfoW@?$IProvideClassInfo2Impl@$1?CLSID_OPOSVoiceRecognition@@3U_GUID@@B$1?DIID__IOPOSVoiceRecognitionEvents@@3U2@B$1?LIBID_OposVoiceRecognition_CCO@@3U2@B$00$0A@VCComTypeInfoHolder@ATL@@@ATL@@UEAAJPEAPEAUITypeInfo@@@Z 0000000180015370 f i VoiceRecognition.obj
 0001:000143a0       ?GetClassObject@CComModule@ATL@@QEAAJAEBU_GUID@@0PEAPEAX@Z 00000001800153a0 f i VoiceRecognition.obj
 0001:00014610       ?GetClientSite@?$IOleObjectImpl@VCOPOSVoiceRecognition@@@ATL@@UEAAJPEAPEAUIOleClientSite@@@Z 0000000180015610 f i VoiceRecognition.obj
 0001:000146b0       ?GetClipboardData@?$IOleObjectImpl@VCOPOSVoiceRecognition@@@ATL@@UEAAJKPEAPEAUIDataObject@@@Z 00000001800156b0 f i VoiceRecognition.obj
 0001:00014730       ?GetCodeAddress@CDynamicStdCallThunk2@ATL@@QEAAPEAXXZ 0000000180015730 f i VoiceRecognition.obj
 0001:00014750       ?GetColorSet@?$IViewObjectExImpl@VCOPOSVoiceRecognition@@@ATL@@UEAAJKJPEAXPEAUtagDVTARGETDEVICE@@PEAUHDC__@@PEAPEAUtagLOGPALETTE@@@Z 0000000180015750 f i VoiceRecognition.obj
 0001:000147d0       ?GetConnMap@COPOSVoiceRecognition@@SAPEBU_ATL_CONNMAP_ENTRY@ATL@@PEAH@Z 00000001800157d0 f i VoiceRecognition.obj
 0001:00014920       ?GetConnectionInterface@?$IConnectionPointImpl@VCOPOSVoiceRecognition@@$1?DIID__IOPOSVoiceRecognitionEvents@@3U_GUID@@BVCComDynamicUnkArray@ATL@@@ATL@@UEAAJPEAU_GUID@@@Z 0000000180015920 f i VoiceRecognition.obj
 0001:00014960       ?GetConnectionInterface@?$IConnectionPointImpl@VCOPOSVoiceRecognition@@$1?IID_IPropertyNotifySink@@3U_GUID@@BVCComDynamicUnkArray@ATL@@@ATL@@UEAAJPEAU_GUID@@@Z 0000000180015960 f i VoiceRecognition.obj
 0001:000149a0       ?GetConnectionPointContainer@?$IConnectionPointImpl@VCOPOSVoiceRecognition@@$1?DIID__IOPOSVoiceRecognitionEvents@@3U_GUID@@BVCComDynamicUnkArray@ATL@@@ATL@@UEAAJPEAPEAUIConnectionPointContainer@@@Z 00000001800159a0 f i VoiceRecognition.obj
 0001:00014a00       ?GetConnectionPointContainer@?$IConnectionPointImpl@VCOPOSVoiceRecognition@@$1?IID_IPropertyNotifySink@@3U_GUID@@BVCComDynamicUnkArray@ATL@@@ATL@@UEAAJPEAPEAUIConnectionPointContainer@@@Z 0000000180015a00 f i VoiceRecognition.obj
 0001:00014a60       ?GetContentExtent@?$IQuickActivateImpl@VCOPOSVoiceRecognition@@@ATL@@UEAAJPEAUtagSIZE@@@Z 0000000180015a60 f i VoiceRecognition.obj
 0001:00014b10       ?GetControlInfo@?$IOleControlImpl@VCOPOSVoiceRecognition@@@ATL@@UEAAJPEAUtagCONTROLINFO@@@Z 0000000180015b10 f i VoiceRecognition.obj
 0001:00014b80       ?GetCookie@CComDynamicUnkArray@ATL@@QEAAKPEAPEAUIUnknown@@@Z 0000000180015b80 f i VoiceRecognition.obj
 0001:00014c60       ?GetData@?$IDataObjectImpl@VCOPOSVoiceRecognition@@@ATL@@UEAAJPEAUtagFORMATETC@@PEAUtagSTGMEDIUM@@@Z 0000000180015c60 f i VoiceRecognition.obj
 0001:00014d10       ?GetData@CAtlSafeAllocBufferNode@?$CAtlSafeAllocBufferManager@VCCRTAllocator@ATL@@@_ATL_SAFE_ALLOCA_IMPL@ATL@@QEAAPEAXXZ 0000000180015d10 f i VoiceRecognition.obj
 0001:00014d30       ?GetDataHere@?$IDataObjectImpl@VCOPOSVoiceRecognition@@@ATL@@UEAAJPEAUtagFORMATETC@@PEAUtagSTGMEDIUM@@@Z 0000000180015d30 f i VoiceRecognition.obj
 0001:00014db0       ?GetDropTarget@?$IOleInPlaceObjectWindowlessImpl@VCOPOSVoiceRecognition@@@ATL@@UEAAJPEAPEAUIDropTarget@@@Z 0000000180015db0 f i VoiceRecognition.obj
 0001:00014e20       ?GetExtent@?$IOleObjectImpl@VCOPOSVoiceRecognition@@@ATL@@UEAAJKPEAUtagSIZE@@@Z 0000000180015e20 f i VoiceRecognition.obj
 0001:00014ee0       ?GetExtent@?$IViewObjectExImpl@VCOPOSVoiceRecognition@@@ATL@@UEAAJKJPEAUtagDVTARGETDEVICE@@PEAUtagSIZE@@@Z 0000000180015ee0 f i VoiceRecognition.obj
 0001:00014fe0       ?GetGITPtr@CAtlModule@ATL@@UEAAJPEAPEAUIGlobalInterfaceTable@@@Z 0000000180015fe0 f i VoiceRecognition.obj
 0001:00015110       ?GetGUID@?$IProvideClassInfo2Impl@$1?CLSID_OPOSVoiceRecognition@@3U_GUID@@B$1?DIID__IOPOSVoiceRecognitionEvents@@3U2@B$1?LIBID_OposVoiceRecognition_CCO@@3U2@B$00$0A@VCComTypeInfoHolder@ATL@@@ATL@@UEAAJKPEAU_GUID@@@Z 0000000180016110 f i VoiceRecognition.obj
 0001:00015190       ?GetIDsOfNames@?$IDispatchImpl@UIOPOSVoiceRecognition@@$1?IID_IOPOSVoiceRecognition@@3U_GUID@@B$1?LIBID_OposVoiceRecognition_CCO@@3U3@B$00$0A@VCComTypeInfoHolder@ATL@@@ATL@@UEAAJAEBU_GUID@@PEAPEA_WIKPEAJ@Z 0000000180016190 f i VoiceRecognition.obj
 0001:000151e0       ?GetIDsOfNames@CComTypeInfoHolder@ATL@@QEAAJAEBU_GUID@@PEAPEA_WIKPEAJ@Z 00000001800161e0 f i VoiceRecognition.obj
 0001:000153f0       ?GetInterfaceSafetyOptions@?$IObjectSafetyImpl@VCOPOSVoiceRecognition@@$02@ATL@@UEAAJAEBU_GUID@@PEAK1@Z 00000001800163f0 f i VoiceRecognition.obj
 0001:00015590       ?GetKeyAt@?$CSimpleMap@PEA_WPEA_WVCExpansionVectorEqualHelper@ATL@@@ATL@@QEBAAEAPEA_WH@Z 0000000180016590 f i VoiceRecognition.obj
 0001:00015630       ?GetLockCount@CAtlModule@ATL@@UEAAJXZ 0000000180016630 f i VoiceRecognition.obj
 0001:00015640       ?GetMiscStatus@?$IOleObjectImpl@VCOPOSVoiceRecognition@@@ATL@@UEAAJKPEAK@Z 0000000180016640 f i VoiceRecognition.obj
 0001:000156c0       ?GetMoniker@?$IOleObjectImpl@VCOPOSVoiceRecognition@@@ATL@@UEAAJKKPEAPEAUIMoniker@@@Z 00000001800166c0 f i VoiceRecognition.obj
 0001:00015740       ?GetNaturalExtent@?$IViewObjectExImpl@VCOPOSVoiceRecognition@@@ATL@@UEAAJKJPEAUtagDVTARGETDEVICE@@PEAUHDC__@@PEAUtagExtentInfo@@PEAUtagSIZE@@@Z 0000000180016740 f i VoiceRecognition.obj
 0001:000158c0       ?GetObjectCLSID@?$CComCoClass@VCOPOSVoiceRecognition@@$1?CLSID_OPOSVoiceRecognition@@3U_GUID@@B@ATL@@SAAEBU_GUID@@XZ 00000001800168c0 f i VoiceRecognition.obj
 0001:000158d0       ?GetPages@?$ISpecifyPropertyPagesImpl@VCOPOSVoiceRecognition@@@ATL@@UEAAJPEAUtagCAUUID@@@Z 00000001800168d0 f i VoiceRecognition.obj
 0001:00015950       ?GetPagesHelper@?$ISpecifyPropertyPagesImpl@VCOPOSVoiceRecognition@@@ATL@@IEAAJPEAUtagCAUUID@@PEBUATL_PROPMAP_ENTRY@2@@Z 0000000180016950 f i VoiceRecognition.obj
 0001:00015bb0       ?GetProperty@?$CComPtr@UIDispatch@@@ATL@@QEAAJJPEAUtagVARIANT@@@Z 0000000180016bb0 f i VoiceRecognition.obj
 0001:00015be0       ?GetProperty@?$CComPtr@UIDispatch@@@ATL@@SAJPEAUIDispatch@@JPEAUtagVARIANT@@@Z 0000000180016be0 f i VoiceRecognition.obj
 0001:00015db0       ?GetPropertyMap@COPOSVoiceRecognition@@SAPEBUATL_PROPMAP_ENTRY@ATL@@XZ 0000000180016db0 f i VoiceRecognition.obj
 0001:00015dc0       ?GetRect@?$IViewObjectExImpl@VCOPOSVoiceRecognition@@@ATL@@UEAAJKPEAU_RECTL@@@Z 0000000180016dc0 f i VoiceRecognition.obj
 0001:00015e40       ?GetSize@?$CSimpleMap@PEA_WPEA_WVCExpansionVectorEqualHelper@ATL@@@ATL@@QEBAHXZ 0000000180016e40 f i VoiceRecognition.obj
 0001:00015e50       ?GetSize@CComDynamicUnkArray@ATL@@QEBAHXZ 0000000180016e50 f i VoiceRecognition.obj
 0001:00015e60       ?GetSizeMax@?$IPersistStreamInitImpl@VCOPOSVoiceRecognition@@@ATL@@UEAAJPEAT_ULARGE_INTEGER@@@Z 0000000180016e60 f i VoiceRecognition.obj
 0001:00016600       ?GetSizeMax@CComVariant@ATL@@QEBAJPEAT_ULARGE_INTEGER@@@Z 0000000180017600 f i VoiceRecognition.obj
 0001:00016a50       ?GetStreamSize@CComBSTR@ATL@@SAKPEA_W@Z 0000000180017a50 f i VoiceRecognition.obj
 0001:00016a90       ?GetTI@CComTypeInfoHolder@ATL@@QEAAJK@Z 0000000180017a90 f i VoiceRecognition.obj
 0001:00017360       ?GetTI@CComTypeInfoHolder@ATL@@QEAAJKPEAPEAUITypeInfo@@@Z 0000000180018360 f i VoiceRecognition.obj
 0001:00017440       ?GetTypeInfo@?$IDispatchImpl@UIOPOSVoiceRecognition@@$1?IID_IOPOSVoiceRecognition@@3U_GUID@@B$1?LIBID_OposVoiceRecognition_CCO@@3U3@B$00$0A@VCComTypeInfoHolder@ATL@@@ATL@@UEAAJIKPEAPEAUITypeInfo@@@Z 0000000180018440 f i VoiceRecognition.obj
 0001:00017480       ?GetTypeInfo@CComTypeInfoHolder@ATL@@QEAAJIKPEAPEAUITypeInfo@@@Z 0000000180018480 f i VoiceRecognition.obj
 0001:000174c0       ?GetTypeInfoCount@?$IDispatchImpl@UIOPOSVoiceRecognition@@$1?IID_IOPOSVoiceRecognition@@3U_GUID@@B$1?LIBID_OposVoiceRecognition_CCO@@3U3@B$00$0A@VCComTypeInfoHolder@ATL@@@ATL@@UEAAJPEAI@Z 00000001800184c0 f i VoiceRecognition.obj
 0001:000174f0       ?GetUnknown@CComDynamicUnkArray@ATL@@QEAAPEAUIUnknown@@K@Z 00000001800184f0 f i VoiceRecognition.obj
 0001:00017580       ?GetUnknown@COPOSVoiceRecognition@@QEAAPEAUIUnknown@@XZ 0000000180018580 f i VoiceRecognition.obj
 0001:000175a0       ?GetUserClassID@?$IOleObjectImpl@VCOPOSVoiceRecognition@@@ATL@@UEAAJPEAU_GUID@@@Z 00000001800185a0 f i VoiceRecognition.obj
 0001:00017660       ?GetUserType@?$IOleObjectImpl@VCOPOSVoiceRecognition@@@ATL@@UEAAJKPEAPEA_W@Z 0000000180018660 f i VoiceRecognition.obj
 0001:000176e0       ?GetValueAt@?$CSimpleMap@PEA_WPEA_WVCExpansionVectorEqualHelper@ATL@@@ATL@@QEBAAEAPEA_WH@Z 00000001800186e0 f i VoiceRecognition.obj
 0001:00017780       ?GetViewStatus@?$IViewObjectExImpl@VCOPOSVoiceRecognition@@@ATL@@UEAAJPEAK@Z 0000000180018780 f i VoiceRecognition.obj
 0001:00017870       ?GetWNDPROC@CWndProcThunk@ATL@@QEAAP6A_JPEAUHWND__@@I_K_J@ZXZ 0000000180018870 f i VoiceRecognition.obj
 0001:000178a0       ?GetWindow@?$IOleInPlaceActiveObjectImpl@VCOPOSVoiceRecognition@@@ATL@@UEAAJPEAPEAUHWND__@@@Z 00000001800188a0 f i VoiceRecognition.obj
 0001:00017990       ?GetWindow@?$IOleInPlaceObjectWindowlessImpl@VCOPOSVoiceRecognition@@@ATL@@UEAAJPEAPEAUHWND__@@@Z 0000000180018990 f i VoiceRecognition.obj
 0001:00017a80       ?GetWindowProc@?$CWindowImplBaseT@VCWindow@ATL@@V?$CWinTraits@$0FGAAAAAA@$0A@@2@@ATL@@UEAAP6A_JPEAUHWND__@@I_K_J@ZXZ 0000000180018a80 f i VoiceRecognition.obj
 0001:00017a90       ?GetWndCaption@?$CWindowImpl@VCOPOSVoiceRecognition@@VCWindow@ATL@@V?$CWinTraits@$0FGAAAAAA@$0A@@3@@ATL@@SAPEB_WXZ 0000000180018a90 f i VoiceRecognition.obj
 0001:00017aa0       ?GetWndClassInfo@?$CWindowImpl@VCOPOSVoiceRecognition@@VCWindow@ATL@@V?$CWinTraits@$0FGAAAAAA@$0A@@3@@ATL@@SAAEAU_ATL_WNDCLASSINFOW@2@XZ 0000000180018aa0 f i VoiceRecognition.obj
 0001:00017ab0       ?GetWndClassName@CWindow@ATL@@SAPEB_WXZ 0000000180018ab0 f i VoiceRecognition.obj
 0001:00017ac0       ?GetWndExStyle@?$CWinTraits@$0FGAAAAAA@$0A@@ATL@@SAKK@Z 0000000180018ac0 f i VoiceRecognition.obj
 0001:00017af0       ?GetWndExStyle@?$CWindowImplBaseT@VCWindow@ATL@@V?$CWinTraits@$0FGAAAAAA@$0A@@2@@ATL@@SAKK@Z 0000000180018af0 f i VoiceRecognition.obj
 0001:00017b10       ?GetWndStyle@?$CWinTraits@$0FGAAAAAA@$0A@@ATL@@SAKK@Z 0000000180018b10 f i VoiceRecognition.obj
 0001:00017b40       ?GetWndStyle@?$CWindowImplBaseT@VCWindow@ATL@@V?$CWinTraits@$0FGAAAAAA@$0A@@2@@ATL@@SAKK@Z 0000000180018b40 f i VoiceRecognition.obj
 0001:00017b60       ?GetZoomInfo@CComControlBase@ATL@@QEAAXAEAUATL_DRAWINFO@@@Z 0000000180018b60 f i VoiceRecognition.obj
 0001:00017d10       ?HKeyFromString@CRegParser@ATL@@KAPEAUHKEY__@@PEA_W@Z 0000000180018d10 f i VoiceRecognition.obj
 0001:00017d80       ?HandsOffStorage@?$IPersistStorageImpl@VCOPOSVoiceRecognition@@@ATL@@UEAAJXZ 0000000180018d80 f i VoiceRecognition.obj
 0001:00017de0       ?HasSubKeys@CRegParser@ATL@@IEAAHPEAUHKEY__@@@Z 0000000180018de0 f i VoiceRecognition.obj
 0001:00017f50       ?IDataObject_GetData@CComControlBase@ATL@@QEAAJPEAUtagFORMATETC@@PEAUtagSTGMEDIUM@@@Z 0000000180018f50 f i VoiceRecognition.obj
 0001:00018400       ?IOleInPlaceObject_InPlaceDeactivate@CComControlBase@ATL@@QEAAJXZ 0000000180019400 f i VoiceRecognition.obj
 0001:00018670       ?IOleInPlaceObject_SetObjectRects@CComControlBase@ATL@@QEAAJPEBUtagRECT@@0@Z 0000000180019670 f i VoiceRecognition.obj
 0001:00018860       ?IOleInPlaceObject_UIDeactivate@CComControlBase@ATL@@QEAAJXZ 0000000180019860 f i VoiceRecognition.obj
 0001:00018ad0       ?IOleObject_Advise@CComControlBase@ATL@@QEAAJPEAUIAdviseSink@@PEAK@Z 0000000180019ad0 f i VoiceRecognition.obj
 0001:00018b70       ?IOleObject_Close@CComControlBase@ATL@@QEAAJK@Z 0000000180019b70 f i VoiceRecognition.obj
 0001:00018ee0       ?IOleObject_GetClientSite@CComControlBase@ATL@@QEAAJPEAPEAUIOleClientSite@@@Z 0000000180019ee0 f i VoiceRecognition.obj
 0001:00018fa0       ?IOleObject_SetClientSite@CComControlBase@ATL@@QEAAJPEAUIOleClientSite@@@Z 0000000180019fa0 f i VoiceRecognition.obj
 0001:000190a0       ?IOleObject_SetExtent@CComControlBase@ATL@@QEAAJKPEAUtagSIZE@@@Z 000000018001a0a0 f i VoiceRecognition.obj
 0001:000191f0       ?IPSI_GetIPersistStreamInit@?$IPersistStorageImpl@VCOPOSVoiceRecognition@@@ATL@@AEAAPEAUIPersistStreamInit@@XZ 000000018001a1f0 f i VoiceRecognition.obj
 0001:000192b0       ?IPersistStreamInit_Load@?$IPersistStreamInitImpl@VCOPOSVoiceRecognition@@@ATL@@QEAAJPEAUIStream@@PEBUATL_PROPMAP_ENTRY@2@@Z 000000018001a2b0 f i VoiceRecognition.obj
 0001:00019340       ?IPersistStreamInit_Save@?$IPersistStreamInitImpl@VCOPOSVoiceRecognition@@@ATL@@QEAAJPEAUIStream@@HPEBUATL_PROPMAP_ENTRY@2@@Z 000000018001a340 f i VoiceRecognition.obj
 0001:000193e0       ?IQuickActivate_QuickActivate@CComControlBase@ATL@@QEAAJPEAUtagQACONTAINER@@PEAUtagQACONTROL@@@Z 000000018001a3e0 f i VoiceRecognition.obj
 0001:00019c20       ?IViewObject_Draw@CComControlBase@ATL@@QEAAJKJPEAXPEAUtagDVTARGETDEVICE@@PEAUHDC__@@2PEBU_RECTL@@3@Z 000000018001ac20 f i VoiceRecognition.obj
 0001:0001a070       ?InPlaceActivate@CComControlBase@ATL@@QEAAJJPEBUtagRECT@@@Z 000000018001b070 f i VoiceRecognition.obj
 0001:0001ac10       ?InPlaceDeactivate@?$IOleInPlaceObjectWindowlessImpl@VCOPOSVoiceRecognition@@@ATL@@UEAAJXZ 000000018001bc10 f i VoiceRecognition.obj
 0001:0001aca0       ?Increment@CComMultiThreadModel@ATL@@SAKPEAJ@Z 000000018001bca0 f i VoiceRecognition.obj
 0001:0001acc0       ?Increment@CComSingleThreadModel@ATL@@SAKPEAJ@Z 000000018001bcc0 f i VoiceRecognition.obj
 0001:0001ace0       ?Init@?$CComEnumImpl@UIEnumConnectionPoints@@$1?_GUID_b196b285_bab4_101a_b69c_00aa00341d07@@3U__s_GUID@@BPEAUIConnectionPoint@@V?$_CopyInterface@UIConnectionPoint@@@ATL@@@ATL@@QEAAJPEAPEAUIConnectionPoint@@0PEAUIUnknown@@W4CComEnumFlags@2@@Z 000000018001bce0 f i VoiceRecognition.obj
 0001:0001afc0       ?Init@?$CComEnumImpl@UIEnumConnections@@$1?_GUID_b196b287_bab4_101a_b69c_00aa00341d07@@3U__s_GUID@@BUtagCONNECTDATA@@V?$_Copy@UtagCONNECTDATA@@@ATL@@@ATL@@QEAAJPEAUtagCONNECTDATA@@0PEAUIUnknown@@W4CComEnumFlags@2@@Z 000000018001bfc0 f i VoiceRecognition.obj
 0001:0001b2a0       ?Init@CComFakeCriticalSection@ATL@@QEAAJXZ 000000018001c2a0 f i VoiceRecognition.obj
 0001:0001b2b0       ?Init@CComModule@ATL@@QEAAJPEAU_ATL_OBJMAP_ENTRY30@2@PEAUHINSTANCE__@@PEBU_GUID@@@Z 000000018001c2b0 f i VoiceRecognition.obj
 0001:0001b390       ?Init@CComSafeDeleteCriticalSection@ATL@@QEAAJXZ 000000018001c390 f i VoiceRecognition.obj
 0001:0001b410       ?Init@CDynamicStdCallThunk2@ATL@@QEAAH_KPEAX@Z 000000018001c410 f i VoiceRecognition.obj
 0001:0001b470       ?Init@CWndProcThunk@ATL@@QEAAHP6A_JPEAUHWND__@@I_K_J@ZPEAX@Z 000000018001c470 f i VoiceRecognition.obj
 0001:0001b4b0       ?InitFromData@?$IOleObjectImpl@VCOPOSVoiceRecognition@@@ATL@@UEAAJPEAUIDataObject@@HK@Z 000000018001c4b0 f i VoiceRecognition.obj
 0001:0001b530       ?InitLibId@?$CAtlModuleT@VCComModule@ATL@@@ATL@@SAXXZ 000000018001c530 f i VoiceRecognition.obj
 0001:0001b540       ?InitNew@?$IPersistStorageImpl@VCOPOSVoiceRecognition@@@ATL@@UEAAJPEAUIStorage@@@Z 000000018001c540 f i VoiceRecognition.obj
 0001:0001b630       ?InitNew@?$IPersistStreamInitImpl@VCOPOSVoiceRecognition@@@ATL@@UEAAJXZ 000000018001c630 f i VoiceRecognition.obj
 0001:0001b6d0       ?InlineIsEqualUnknown@ATL@@YAHAEBU_GUID@@@Z 000000018001c6d0 f i VoiceRecognition.obj
 0001:0001b750       ?InternalAddRef@?$CComObjectRootEx@VCComMultiThreadModel@ATL@@@ATL@@QEAAKXZ 000000018001c750 f i VoiceRecognition.obj
 0001:0001b7c0       ?InternalAddRef@?$CComObjectRootEx@VCComSingleThreadModel@ATL@@@ATL@@QEAAKXZ 000000018001c7c0 f i VoiceRecognition.obj
 0001:0001b830       ?InternalFinalConstructAddRef@CComObjectRootBase@ATL@@QEAAXXZ 000000018001c830 f i VoiceRecognition.obj
 0001:0001b840       ?InternalFinalConstructAddRef@COPOSVoiceRecognition@@QEAAXXZ 000000018001c840 f i VoiceRecognition.obj
 0001:0001b870       ?InternalFinalConstructRelease@CComObjectRootBase@ATL@@QEAAXXZ 000000018001c870 f i VoiceRecognition.obj
 0001:0001b8d0       ?InternalFinalConstructRelease@COPOSVoiceRecognition@@QEAAXXZ 000000018001c8d0 f i VoiceRecognition.obj
 0001:0001b900       ?InternalGetSite@CComControlBase@ATL@@QEAAJAEBU_GUID@@PEAPEAX@Z 000000018001c900 f i VoiceRecognition.obj
 0001:0001b9d0       ?InternalQueryInterface@CComObjectRootBase@ATL@@SAJPEAXPEBU_ATL_INTMAP_ENTRY@2@AEBU_GUID@@PEAPEAX@Z 000000018001c9d0 f i VoiceRecognition.obj
 0001:0001bae0       ?InternalRelease@?$CComObjectRootEx@VCComMultiThreadModel@ATL@@@ATL@@QEAAKXZ 000000018001cae0 f i VoiceRecognition.obj
 0001:0001bb50       ?InternalRelease@?$CComObjectRootEx@VCComSingleThreadModel@ATL@@@ATL@@QEAAKXZ 000000018001cb50 f i VoiceRecognition.obj
 0001:0001bbc0       ?InternalSetAtIndex@?$CSimpleArray@GV?$CSimpleArrayEqualHelper@G@ATL@@@ATL@@QEAAXHAEBG@Z 000000018001cbc0 f i VoiceRecognition.obj
 0001:0001bc30       ?InternalSetAtIndex@?$CSimpleMap@PEA_WPEA_WVCExpansionVectorEqualHelper@ATL@@@ATL@@QEAAXHAEBQEA_W0@Z 000000018001cc30 f i VoiceRecognition.obj
 0001:0001bcf0       ?Invoke@?$IDispatchImpl@UIOPOSVoiceRecognition@@$1?IID_IOPOSVoiceRecognition@@3U_GUID@@B$1?LIBID_OposVoiceRecognition_CCO@@3U3@B$00$0A@VCComTypeInfoHolder@ATL@@@ATL@@UEAAJJAEBU_GUID@@KGPEAUtagDISPPARAMS@@PEAUtagVARIANT@@PEAUtagEXCEPINFO@@PEAI@Z 000000018001ccf0 f i VoiceRecognition.obj
 0001:0001bd80       ?Invoke@CComTypeInfoHolder@ATL@@QEAAJPEAUIDispatch@@JAEBU_GUID@@KGPEAUtagDISPPARAMS@@PEAUtagVARIANT@@PEAUtagEXCEPINFO@@PEAI@Z 000000018001cd80 f i VoiceRecognition.obj
 0001:0001be30       ?IsDirty@?$IPersistStorageImpl@VCOPOSVoiceRecognition@@@ATL@@UEAAJXZ 000000018001ce30 f i VoiceRecognition.obj
 0001:0001bf20       ?IsDirty@?$IPersistStreamInitImpl@VCOPOSVoiceRecognition@@@ATL@@UEAAJXZ 000000018001cf20 f i VoiceRecognition.obj
 0001:0001bfd0       ?IsEqualKey@CExpansionVectorEqualHelper@ATL@@SA_NQEA_W0@Z 000000018001cfd0 f i VoiceRecognition.obj
 0001:0001c000       ?IsEqualObject@?$CComPtrBase@UIOleClientSite@@@ATL@@QEAA_NPEAUIUnknown@@@Z 000000018001d000 f i VoiceRecognition.obj
 0001:0001c150       ?IsEqualObject@?$CComPtrBase@UITypeInfo@@@ATL@@QEAA_NPEAUIUnknown@@@Z 000000018001d150 f i VoiceRecognition.obj
 0001:0001c2a0       ?IsSpace@CRegParser@ATL@@IEAAH_W@Z 000000018001d2a0 f i VoiceRecognition.obj
 0001:0001c2e0       ?IsUpToDate@?$IOleObjectImpl@VCOPOSVoiceRecognition@@@ATL@@UEAAJXZ 000000018001d2e0 f i VoiceRecognition.obj
 0001:0001c340       ?Length@CComBSTR@ATL@@QEBAIXZ 000000018001d340 f i VoiceRecognition.obj
 0001:0001c360       ?Load@?$IPersistStorageImpl@VCOPOSVoiceRecognition@@@ATL@@UEAAJPEAUIStorage@@@Z 000000018001d360 f i VoiceRecognition.obj
 0001:0001c510       ?Load@?$IPersistStreamInitImpl@VCOPOSVoiceRecognition@@@ATL@@UEAAJPEAUIStream@@@Z 000000018001d510 f i VoiceRecognition.obj
 0001:0001c5c0       ?LoadCursorW@AtlModuleRegisterWndClassInfoParamW@ATL@@SAPEAUHICON__@@PEAUHINSTANCE__@@PEB_W@Z 000000018001d5c0 f i VoiceRecognition.obj
 0001:0001c5f0       ?LoadNameCache@CComTypeInfoHolder@ATL@@QEAAJPEAUITypeInfo@@@Z 000000018001d5f0 f i VoiceRecognition.obj
 0001:0001c930       ?Lock@?$CComCritSecLock@VCComCriticalSection@ATL@@@ATL@@QEAAJXZ 000000018001d930 f i VoiceRecognition.obj
 0001:0001ca00       ?Lock@?$CComObjectRootEx@VCComSingleThreadModel@ATL@@@ATL@@QEAAXXZ 000000018001da00 f i VoiceRecognition.obj
 0001:0001ca10       ?Lock@CAtlModule@ATL@@UEAAJXZ 000000018001da10 f i VoiceRecognition.obj
 0001:0001ca40       ?Lock@CComCriticalSection@ATL@@QEAAJXZ 000000018001da40 f i VoiceRecognition.obj
 0001:0001ca60       ?Lock@CComFakeCriticalSection@ATL@@QEAAJXZ 000000018001da60 f i VoiceRecognition.obj
 0001:0001ca70       ?LockServer@CComClassFactory@ATL@@UEAAJH@Z 000000018001da70 f i VoiceRecognition.obj
 0001:0001cac0       ?Lookup@?$CSimpleMap@PEA_WPEA_WVCExpansionVectorEqualHelper@ATL@@@ATL@@QEBAPEA_WAEBQEA_W@Z 000000018001dac0 f i VoiceRecognition.obj
 0001:0001cb10       ?Next@?$CComEnumImpl@UIEnumConnectionPoints@@$1?_GUID_b196b285_bab4_101a_b69c_00aa00341d07@@3U__s_GUID@@BPEAUIConnectionPoint@@V?$_CopyInterface@UIConnectionPoint@@@ATL@@@ATL@@UEAAJKPEAPEAUIConnectionPoint@@PEAK@Z 000000018001db10 f i VoiceRecognition.obj
 0001:0001ccc0       ?Next@?$CComEnumImpl@UIEnumConnections@@$1?_GUID_b196b287_bab4_101a_b69c_00aa00341d07@@3U__s_GUID@@BUtagCONNECTDATA@@V?$_Copy@UtagCONNECTDATA@@@ATL@@@ATL@@UEAAJKPEAUtagCONNECTDATA@@PEAK@Z 000000018001dcc0 f i VoiceRecognition.obj
 0001:0001ce70       ?NextToken@CRegParser@ATL@@IEAAJPEA_W@Z 000000018001de70 f i VoiceRecognition.obj
 0001:0001d1f0       ?OLE2CT_EX@@YAPEB_WPEB_WI@Z 000000018001e1f0 f i VoiceRecognition.obj
 0001:0001d210       ?OLE2CT_EX_DEF@@YAPEB_WPEB_W@Z 000000018001e210 f i VoiceRecognition.obj
 0001:0001d220       ?OLE2T_EX@@YAPEA_WPEA_WI@Z 000000018001e220 f i VoiceRecognition.obj
 0001:0001d240       ?OnAmbientPropertyChange@?$IOleControlImpl@VCOPOSVoiceRecognition@@@ATL@@UEAAJJ@Z 000000018001e240 f i VoiceRecognition.obj
 0001:0001d2f0       ?OnDocWindowActivate@?$IOleInPlaceActiveObjectImpl@VCOPOSVoiceRecognition@@@ATL@@UEAAJH@Z 000000018001e2f0 f i VoiceRecognition.obj
 0001:0001d390       ?OnDrawAdvanced@CComControlBase@ATL@@UEAAJAEAUATL_DRAWINFO@@@Z 000000018001e390 f i VoiceRecognition.obj
 0001:0001d5e0       ?OnFinalMessage@?$CWindowImplBaseT@VCWindow@ATL@@V?$CWinTraits@$0FGAAAAAA@$0A@@2@@ATL@@UEAAXPEAUHWND__@@@Z 000000018001e5e0 f i VoiceRecognition.obj
 0001:0001d5f0       ?OnFrameWindowActivate@?$IOleInPlaceActiveObjectImpl@VCOPOSVoiceRecognition@@@ATL@@UEAAJH@Z 000000018001e5f0 f i VoiceRecognition.obj
 0001:0001d650       ?OnKillFocus@CComControlBase@ATL@@QEAA_JI_K_JAEAH@Z 000000018001e650 f i VoiceRecognition.obj
 0001:0001d750       ?OnMnemonic@?$IOleControlImpl@VCOPOSVoiceRecognition@@@ATL@@UEAAJPEAUtagMSG@@@Z 000000018001e750 f i VoiceRecognition.obj
 0001:0001d7c0       ?OnMouseActivate@CComControlBase@ATL@@QEAA_JI_K_JAEAH@Z 000000018001e7c0 f i VoiceRecognition.obj
 0001:0001d960       ?OnPaint@CComControlBase@ATL@@QEAA_JI_K_JAEAH@Z 000000018001e960 f i VoiceRecognition.obj
 0001:0001daf0       ?OnPostVerbDiscardUndo@?$IOleObjectImpl@VCOPOSVoiceRecognition@@@ATL@@QEAAJXZ 000000018001eaf0 f i VoiceRecognition.obj
 0001:0001db00       ?OnPostVerbHide@?$IOleObjectImpl@VCOPOSVoiceRecognition@@@ATL@@QEAAJXZ 000000018001eb00 f i VoiceRecognition.obj
 0001:0001db10       ?OnPostVerbInPlaceActivate@?$IOleObjectImpl@VCOPOSVoiceRecognition@@@ATL@@QEAAJXZ 000000018001eb10 f i VoiceRecognition.obj
 0001:0001db20       ?OnPostVerbOpen@?$IOleObjectImpl@VCOPOSVoiceRecognition@@@ATL@@QEAAJXZ 000000018001eb20 f i VoiceRecognition.obj
 0001:0001db30       ?OnPostVerbShow@?$IOleObjectImpl@VCOPOSVoiceRecognition@@@ATL@@QEAAJXZ 000000018001eb30 f i VoiceRecognition.obj
 0001:0001db40       ?OnPostVerbUIActivate@?$IOleObjectImpl@VCOPOSVoiceRecognition@@@ATL@@QEAAJXZ 000000018001eb40 f i VoiceRecognition.obj
 0001:0001db50       ?OnPreVerbDiscardUndo@?$IOleObjectImpl@VCOPOSVoiceRecognition@@@ATL@@QEAAJXZ 000000018001eb50 f i VoiceRecognition.obj
 0001:0001db60       ?OnPreVerbHide@?$IOleObjectImpl@VCOPOSVoiceRecognition@@@ATL@@QEAAJXZ 000000018001eb60 f i VoiceRecognition.obj
 0001:0001db70       ?OnPreVerbInPlaceActivate@?$IOleObjectImpl@VCOPOSVoiceRecognition@@@ATL@@QEAAJXZ 000000018001eb70 f i VoiceRecognition.obj
 0001:0001db80       ?OnPreVerbOpen@?$IOleObjectImpl@VCOPOSVoiceRecognition@@@ATL@@QEAAJXZ 000000018001eb80 f i VoiceRecognition.obj
 0001:0001db90       ?OnPreVerbShow@?$IOleObjectImpl@VCOPOSVoiceRecognition@@@ATL@@QEAAJXZ 000000018001eb90 f i VoiceRecognition.obj
 0001:0001dba0       ?OnPreVerbUIActivate@?$IOleObjectImpl@VCOPOSVoiceRecognition@@@ATL@@QEAAJXZ 000000018001eba0 f i VoiceRecognition.obj
 0001:0001dbb0       ?OnSetFocus@CComControlBase@ATL@@QEAA_JI_K_JAEAH@Z 000000018001ebb0 f i VoiceRecognition.obj
 0001:0001ddb0       ?OnWindowMessage@?$IOleInPlaceObjectWindowlessImpl@VCOPOSVoiceRecognition@@@ATL@@UEAAJI_K_JPEA_J@Z 000000018001edb0 f i VoiceRecognition.obj
 0001:0001dfd0       ?Open@CRegKey@ATL@@QEAAJPEAUHKEY__@@PEB_WK@Z 000000018001efd0 f i VoiceRecognition.obj
 0001:0001e150       ?OuterAddRef@CComObjectRootBase@ATL@@QEAAKXZ 000000018001f150 f i VoiceRecognition.obj
 0001:0001e180       ?OuterQueryInterface@CComObjectRootBase@ATL@@QEAAJAEBU_GUID@@PEAPEAX@Z 000000018001f180 f i VoiceRecognition.obj
 0001:0001e1c0       ?OuterRelease@CComObjectRootBase@ATL@@QEAAKXZ 000000018001f1c0 f i VoiceRecognition.obj
 0001:0001e1f0       ?PreProcessBuffer@CRegParser@ATL@@QEAAJPEA_WPEAPEA_W@Z 000000018001f1f0 f i VoiceRecognition.obj
 0001:0001e8d0       ?PreTranslateAccelerator@CComControlBase@ATL@@QEAAHPEAUtagMSG@@AEAJ@Z 000000018001f8d0 f i VoiceRecognition.obj
 0001:0001e8f0       ?ProcessWindowMessage@?$CComControl@VCOPOSVoiceRecognition@@V?$CWindowImpl@VCOPOSVoiceRecognition@@VCWindow@ATL@@V?$CWinTraits@$0FGAAAAAA@$0A@@3@@ATL@@@ATL@@UEAAHPEAUHWND__@@I_K_JAEA_JK@Z 000000018001f8f0 f i VoiceRecognition.obj
 0001:0001eb70       ?ProcessWindowMessage@COPOSVoiceRecognition@@UEAAHPEAUHWND__@@I_K_JAEA_JK@Z 000000018001fb70 f i VoiceRecognition.obj
 0001:0001ecd0       ?PutProperty@?$CComPtr@UIDispatch@@@ATL@@QEAAJJPEAUtagVARIANT@@@Z 000000018001fcd0 f i VoiceRecognition.obj
 0001:0001ed00       ?PutProperty@?$CComPtr@UIDispatch@@@ATL@@SAJPEAUIDispatch@@JPEAUtagVARIANT@@@Z 000000018001fd00 f i VoiceRecognition.obj
 0001:0001efb0       ?QueryGetData@?$IDataObjectImpl@VCOPOSVoiceRecognition@@@ATL@@UEAAJPEAUtagFORMATETC@@@Z 000000018001ffb0 f i VoiceRecognition.obj
 0001:0001f020       ?QueryHitPoint@?$IViewObjectExImpl@VCOPOSVoiceRecognition@@@ATL@@UEAAJKPEBUtagRECT@@UtagPOINT@@JPEAK@Z 0000000180020020 f i VoiceRecognition.obj
 0001:0001f180       ?QueryHitRect@?$IViewObjectExImpl@VCOPOSVoiceRecognition@@@ATL@@UEAAJKPEBUtagRECT@@0JPEAK@Z 0000000180020180 f i VoiceRecognition.obj
 0001:0001f350       ?QueryInterface@?$CComAggObject@VCOPOSVoiceRecognition@@@ATL@@UEAAJAEBU_GUID@@PEAPEAX@Z 0000000180020350 f i VoiceRecognition.obj
 0001:0001f420       ?QueryInterface@?$CComContainedObject@VCOPOSVoiceRecognition@@@ATL@@UEAAJAEBU_GUID@@PEAPEAX@Z 0000000180020420 f i VoiceRecognition.obj
 0001:0001f458       ?QueryInterface@?$CComContainedObject@VCOPOSVoiceRecognition@@@ATL@@WBAA@EAAJAEBU_GUID@@PEAPEAX@Z 0000000180020458 f i VoiceRecognition.obj
 0001:0001f464       ?QueryInterface@?$CComContainedObject@VCOPOSVoiceRecognition@@@ATL@@WBAI@EAAJAEBU_GUID@@PEAPEAX@Z 0000000180020464 f i VoiceRecognition.obj
 0001:0001f470       ?QueryInterface@?$CComContainedObject@VCOPOSVoiceRecognition@@@ATL@@WBBA@EAAJAEBU_GUID@@PEAPEAX@Z 0000000180020470 f i VoiceRecognition.obj
 0001:0001f47c       ?QueryInterface@?$CComContainedObject@VCOPOSVoiceRecognition@@@ATL@@WBBI@EAAJAEBU_GUID@@PEAPEAX@Z 000000018002047c f i VoiceRecognition.obj
 0001:0001f488       ?QueryInterface@?$CComContainedObject@VCOPOSVoiceRecognition@@@ATL@@WLI@EAAJAEBU_GUID@@PEAPEAX@Z 0000000180020488 f i VoiceRecognition.obj
 0001:0001f494       ?QueryInterface@?$CComContainedObject@VCOPOSVoiceRecognition@@@ATL@@WMA@EAAJAEBU_GUID@@PEAPEAX@Z 0000000180020494 f i VoiceRecognition.obj
 0001:0001f4a0       ?QueryInterface@?$CComContainedObject@VCOPOSVoiceRecognition@@@ATL@@WMI@EAAJAEBU_GUID@@PEAPEAX@Z 00000001800204a0 f i VoiceRecognition.obj
 0001:0001f4ac       ?QueryInterface@?$CComContainedObject@VCOPOSVoiceRecognition@@@ATL@@WNA@EAAJAEBU_GUID@@PEAPEAX@Z 00000001800204ac f i VoiceRecognition.obj
 0001:0001f4b8       ?QueryInterface@?$CComContainedObject@VCOPOSVoiceRecognition@@@ATL@@WNI@EAAJAEBU_GUID@@PEAPEAX@Z 00000001800204b8 f i VoiceRecognition.obj
 0001:0001f4c4       ?QueryInterface@?$CComContainedObject@VCOPOSVoiceRecognition@@@ATL@@WOA@EAAJAEBU_GUID@@PEAPEAX@Z 00000001800204c4 f i VoiceRecognition.obj
 0001:0001f4d0       ?QueryInterface@?$CComContainedObject@VCOPOSVoiceRecognition@@@ATL@@WOI@EAAJAEBU_GUID@@PEAPEAX@Z 00000001800204d0 f i VoiceRecognition.obj
 0001:0001f4dc       ?QueryInterface@?$CComContainedObject@VCOPOSVoiceRecognition@@@ATL@@WPA@EAAJAEBU_GUID@@PEAPEAX@Z 00000001800204dc f i VoiceRecognition.obj
 0001:0001f4e8       ?QueryInterface@?$CComContainedObject@VCOPOSVoiceRecognition@@@ATL@@WPI@EAAJAEBU_GUID@@PEAPEAX@Z 00000001800204e8 f i VoiceRecognition.obj
 0001:0001f500       ?QueryInterface@?$CComObject@V?$CComEnum@UIEnumConnectionPoints@@$1?_GUID_b196b285_bab4_101a_b69c_00aa00341d07@@3U__s_GUID@@BPEAUIConnectionPoint@@V?$_CopyInterface@UIConnectionPoint@@@ATL@@VCComSingleThreadModel@6@@ATL@@@ATL@@UEAAJAEBU_GUID@@PEAPEAX@Z 0000000180020500 f i VoiceRecognition.obj
 0001:0001f530       ?QueryInterface@?$CComObject@V?$CComEnum@UIEnumConnections@@$1?_GUID_b196b287_bab4_101a_b69c_00aa00341d07@@3U__s_GUID@@BUtagCONNECTDATA@@V?$_Copy@UtagCONNECTDATA@@@ATL@@VCComSingleThreadModel@6@@ATL@@@ATL@@UEAAJAEBU_GUID@@PEAPEAX@Z 0000000180020530 f i VoiceRecognition.obj
 0001:0001f560       ?QueryInterface@?$CComObject@VCOPOSVoiceRecognition@@@ATL@@UEAAJAEBU_GUID@@PEAPEAX@Z 0000000180020560 f i VoiceRecognition.obj
 0001:0001f590       ?QueryInterface@?$CComObject@VCOPOSVoiceRecognition@@@ATL@@WBAA@EAAJAEBU_GUID@@PEAPEAX@Z 0000000180020590 f i VoiceRecognition.obj
 0001:0001f59c       ?QueryInterface@?$CComObject@VCOPOSVoiceRecognition@@@ATL@@WBAI@EAAJAEBU_GUID@@PEAPEAX@Z 000000018002059c f i VoiceRecognition.obj
 0001:0001f5a8       ?QueryInterface@?$CComObject@VCOPOSVoiceRecognition@@@ATL@@WBBA@EAAJAEBU_GUID@@PEAPEAX@Z 00000001800205a8 f i VoiceRecognition.obj
 0001:0001f5b4       ?QueryInterface@?$CComObject@VCOPOSVoiceRecognition@@@ATL@@WBBI@EAAJAEBU_GUID@@PEAPEAX@Z 00000001800205b4 f i VoiceRecognition.obj
 0001:0001f5c0       ?QueryInterface@?$CComObject@VCOPOSVoiceRecognition@@@ATL@@WLI@EAAJAEBU_GUID@@PEAPEAX@Z 00000001800205c0 f i VoiceRecognition.obj
 0001:0001f5cc       ?QueryInterface@?$CComObject@VCOPOSVoiceRecognition@@@ATL@@WMA@EAAJAEBU_GUID@@PEAPEAX@Z 00000001800205cc f i VoiceRecognition.obj
 0001:0001f5d8       ?QueryInterface@?$CComObject@VCOPOSVoiceRecognition@@@ATL@@WMI@EAAJAEBU_GUID@@PEAPEAX@Z 00000001800205d8 f i VoiceRecognition.obj
 0001:0001f5e4       ?QueryInterface@?$CComObject@VCOPOSVoiceRecognition@@@ATL@@WNA@EAAJAEBU_GUID@@PEAPEAX@Z 00000001800205e4 f i VoiceRecognition.obj
 0001:0001f5f0       ?QueryInterface@?$CComObject@VCOPOSVoiceRecognition@@@ATL@@WNI@EAAJAEBU_GUID@@PEAPEAX@Z 00000001800205f0 f i VoiceRecognition.obj
 0001:0001f5fc       ?QueryInterface@?$CComObject@VCOPOSVoiceRecognition@@@ATL@@WOA@EAAJAEBU_GUID@@PEAPEAX@Z 00000001800205fc f i VoiceRecognition.obj
 0001:0001f608       ?QueryInterface@?$CComObject@VCOPOSVoiceRecognition@@@ATL@@WOI@EAAJAEBU_GUID@@PEAPEAX@Z 0000000180020608 f i VoiceRecognition.obj
 0001:0001f614       ?QueryInterface@?$CComObject@VCOPOSVoiceRecognition@@@ATL@@WPA@EAAJAEBU_GUID@@PEAPEAX@Z 0000000180020614 f i VoiceRecognition.obj
 0001:0001f620       ?QueryInterface@?$CComObject@VCOPOSVoiceRecognition@@@ATL@@WPI@EAAJAEBU_GUID@@PEAPEAX@Z 0000000180020620 f i VoiceRecognition.obj
 0001:0001f630       ?QueryInterface@?$CComObjectCached@VCComClassFactory@ATL@@@ATL@@UEAAJAEBU_GUID@@PEAPEAX@Z 0000000180020630 f i VoiceRecognition.obj
 0001:0001f660       ?QueryInterface@CRegObject@ATL@@UEAAJAEBU_GUID@@PEAPEAX@Z 0000000180020660 f i VoiceRecognition.obj
 0001:0001f6d0       ?QuickActivate@?$IQuickActivateImpl@VCOPOSVoiceRecognition@@@ATL@@UEAAJPEAUtagQACONTAINER@@PEAUtagQACONTROL@@@Z 00000001800206d0 f i VoiceRecognition.obj
 0001:0001f780       ?ReactivateAndUndo@?$IOleInPlaceObjectWindowlessImpl@VCOPOSVoiceRecognition@@@ATL@@UEAAJXZ 0000000180020780 f i VoiceRecognition.obj
 0001:0001f7f0       ?ReadFromStream@CComBSTR@ATL@@QEAAJPEAUIStream@@@Z 00000001800207f0 f i VoiceRecognition.obj
 0001:0001fcd0       ?ReadFromStream@CComVariant@ATL@@QEAAJPEAUIStream@@GTClassesAllowedInStream@2@K@Z 0000000180020cd0 f i VoiceRecognition.obj
 0001:00020110       ?RecurseDeleteKey@CRegKey@ATL@@QEAAJPEB_W@Z 0000000180021110 f i VoiceRecognition.obj
 0001:00020330       ?RegCreateKeyExW@CAtlTransactionManager@ATL@@QEAAJPEAUHKEY__@@PEB_WKPEA_WKKQEAU_SECURITY_ATTRIBUTES@@PEAPEAU3@PEAK@Z 0000000180021330 f i VoiceRecognition.obj
 0001:000204e0       ?RegDeleteKeyW@CAtlTransactionManager@ATL@@QEAAJPEAUHKEY__@@PEB_W@Z 00000001800214e0 f i VoiceRecognition.obj
 0001:000205e0       ?RegOpenKeyExW@CAtlTransactionManager@ATL@@QEAAJPEAUHKEY__@@PEB_WKKPEAPEAU3@@Z 00000001800215e0 f i VoiceRecognition.obj
 0001:00020720       ?Register@_ATL_WNDCLASSINFOW@ATL@@QEAAGPEAP6A_JPEAUHWND__@@I_K_J@Z@Z 0000000180021720 f i VoiceRecognition.obj
 0001:00020760       ?RegisterBuffer@CRegParser@ATL@@QEAAJPEA_WH@Z 0000000180021760 f i VoiceRecognition.obj
 0001:00020b50       ?RegisterClassExW@AtlModuleRegisterWndClassInfoParamW@ATL@@SAGPEAU_ATL_WIN_MODULE70@2@PEBUtagWNDCLASSEXW@@@Z 0000000180021b50 f i VoiceRecognition.obj
 0001:00020b80       ?RegisterFromResource@CRegObject@ATL@@IEAAJPEB_W00H@Z 0000000180021b80 f i VoiceRecognition.obj
 0001:00020fe0       ?RegisterServer@?$CAtlModuleT@VCComModule@ATL@@@ATL@@QEAAJHPEBU_GUID@@@Z 0000000180021fe0 f i VoiceRecognition.obj
 0001:00021040       ?RegisterServer@CAtlComModule@ATL@@QEAAJHPEBU_GUID@@@Z 0000000180022040 f i VoiceRecognition.obj
 0001:00021070       ?RegisterServer@CComModule@ATL@@QEAAJHPEBU_GUID@@@Z 0000000180022070 f i VoiceRecognition.obj
 0001:00021150       ?RegisterSubkeys@CRegParser@ATL@@IEAAJPEA_WPEAUHKEY__@@HH@Z 0000000180022150 f i VoiceRecognition.obj
 0001:00021f30       ?Release@?$CComAggObject@VCOPOSVoiceRecognition@@@ATL@@UEAAKXZ 0000000180022f30 f i VoiceRecognition.obj
 0001:00021fe0       ?Release@?$CComContainedObject@VCOPOSVoiceRecognition@@@ATL@@UEAAKXZ 0000000180022fe0 f i VoiceRecognition.obj
 0001:00022004       ?Release@?$CComContainedObject@VCOPOSVoiceRecognition@@@ATL@@WBAA@EAAKXZ 0000000180023004 f i VoiceRecognition.obj
 0001:00022010       ?Release@?$CComContainedObject@VCOPOSVoiceRecognition@@@ATL@@WBAI@EAAKXZ 0000000180023010 f i VoiceRecognition.obj
 0001:0002201c       ?Release@?$CComContainedObject@VCOPOSVoiceRecognition@@@ATL@@WBBA@EAAKXZ 000000018002301c f i VoiceRecognition.obj
 0001:00022028       ?Release@?$CComContainedObject@VCOPOSVoiceRecognition@@@ATL@@WBBI@EAAKXZ 0000000180023028 f i VoiceRecognition.obj
 0001:00022034       ?Release@?$CComContainedObject@VCOPOSVoiceRecognition@@@ATL@@WBCI@EAAKXZ 0000000180023034 f i VoiceRecognition.obj
 0001:00022040       ?Release@?$CComContainedObject@VCOPOSVoiceRecognition@@@ATL@@WBEA@EAAKXZ 0000000180023040 f i VoiceRecognition.obj
 0001:0002204c       ?Release@?$CComContainedObject@VCOPOSVoiceRecognition@@@ATL@@WLI@EAAKXZ 000000018002304c f i VoiceRecognition.obj
 0001:00022058       ?Release@?$CComContainedObject@VCOPOSVoiceRecognition@@@ATL@@WMA@EAAKXZ 0000000180023058 f i VoiceRecognition.obj
 0001:00022064       ?Release@?$CComContainedObject@VCOPOSVoiceRecognition@@@ATL@@WMI@EAAKXZ 0000000180023064 f i VoiceRecognition.obj
 0001:00022070       ?Release@?$CComContainedObject@VCOPOSVoiceRecognition@@@ATL@@WNA@EAAKXZ 0000000180023070 f i VoiceRecognition.obj
 0001:0002207c       ?Release@?$CComContainedObject@VCOPOSVoiceRecognition@@@ATL@@WNI@EAAKXZ 000000018002307c f i VoiceRecognition.obj
 0001:00022088       ?Release@?$CComContainedObject@VCOPOSVoiceRecognition@@@ATL@@WOA@EAAKXZ 0000000180023088 f i VoiceRecognition.obj
 0001:00022094       ?Release@?$CComContainedObject@VCOPOSVoiceRecognition@@@ATL@@WOI@EAAKXZ 0000000180023094 f i VoiceRecognition.obj
 0001:000220a0       ?Release@?$CComContainedObject@VCOPOSVoiceRecognition@@@ATL@@WPA@EAAKXZ 00000001800230a0 f i VoiceRecognition.obj
 0001:000220ac       ?Release@?$CComContainedObject@VCOPOSVoiceRecognition@@@ATL@@WPI@EAAKXZ 00000001800230ac f i VoiceRecognition.obj
 0001:000220c0       ?Release@?$CComObject@V?$CComEnum@UIEnumConnectionPoints@@$1?_GUID_b196b285_bab4_101a_b69c_00aa00341d07@@3U__s_GUID@@BPEAUIConnectionPoint@@V?$_CopyInterface@UIConnectionPoint@@@ATL@@VCComSingleThreadModel@6@@ATL@@@ATL@@UEAAKXZ 00000001800230c0 f i VoiceRecognition.obj
 0001:00022170       ?Release@?$CComObject@V?$CComEnum@UIEnumConnections@@$1?_GUID_b196b287_bab4_101a_b69c_00aa00341d07@@3U__s_GUID@@BUtagCONNECTDATA@@V?$_Copy@UtagCONNECTDATA@@@ATL@@VCComSingleThreadModel@6@@ATL@@@ATL@@UEAAKXZ 0000000180023170 f i VoiceRecognition.obj
 0001:00022220       ?Release@?$CComObject@VCOPOSVoiceRecognition@@@ATL@@UEAAKXZ 0000000180023220 f i VoiceRecognition.obj
 0001:000222d8       ?Release@?$CComObject@VCOPOSVoiceRecognition@@@ATL@@WBAA@EAAKXZ 00000001800232d8 f i VoiceRecognition.obj
 0001:000222e4       ?Release@?$CComObject@VCOPOSVoiceRecognition@@@ATL@@WBAI@EAAKXZ 00000001800232e4 f i VoiceRecognition.obj
 0001:000222f0       ?Release@?$CComObject@VCOPOSVoiceRecognition@@@ATL@@WBBA@EAAKXZ 00000001800232f0 f i VoiceRecognition.obj
 0001:000222fc       ?Release@?$CComObject@VCOPOSVoiceRecognition@@@ATL@@WBBI@EAAKXZ 00000001800232fc f i VoiceRecognition.obj
 0001:00022308       ?Release@?$CComObject@VCOPOSVoiceRecognition@@@ATL@@WBCI@EAAKXZ 0000000180023308 f i VoiceRecognition.obj
 0001:00022314       ?Release@?$CComObject@VCOPOSVoiceRecognition@@@ATL@@WBEA@EAAKXZ 0000000180023314 f i VoiceRecognition.obj
 0001:00022320       ?Release@?$CComObject@VCOPOSVoiceRecognition@@@ATL@@WLI@EAAKXZ 0000000180023320 f i VoiceRecognition.obj
 0001:0002232c       ?Release@?$CComObject@VCOPOSVoiceRecognition@@@ATL@@WMA@EAAKXZ 000000018002332c f i VoiceRecognition.obj
 0001:00022338       ?Release@?$CComObject@VCOPOSVoiceRecognition@@@ATL@@WMI@EAAKXZ 0000000180023338 f i VoiceRecognition.obj
 0001:00022344       ?Release@?$CComObject@VCOPOSVoiceRecognition@@@ATL@@WNA@EAAKXZ 0000000180023344 f i VoiceRecognition.obj
 0001:00022350       ?Release@?$CComObject@VCOPOSVoiceRecognition@@@ATL@@WNI@EAAKXZ 0000000180023350 f i VoiceRecognition.obj
 0001:0002235c       ?Release@?$CComObject@VCOPOSVoiceRecognition@@@ATL@@WOA@EAAKXZ 000000018002335c f i VoiceRecognition.obj
 0001:00022368       ?Release@?$CComObject@VCOPOSVoiceRecognition@@@ATL@@WOI@EAAKXZ 0000000180023368 f i VoiceRecognition.obj
 0001:00022374       ?Release@?$CComObject@VCOPOSVoiceRecognition@@@ATL@@WPA@EAAKXZ 0000000180023374 f i VoiceRecognition.obj
 0001:00022380       ?Release@?$CComObject@VCOPOSVoiceRecognition@@@ATL@@WPI@EAAKXZ 0000000180023380 f i VoiceRecognition.obj
 0001:00022390       ?Release@?$CComObjectCached@VCComClassFactory@ATL@@@ATL@@UEAAKXZ 0000000180023390 f i VoiceRecognition.obj
 0001:00022420       ?Release@?$CComPtrBase@UIAdviseSink@@@ATL@@QEAAXXZ 0000000180023420 f i VoiceRecognition.obj
 0001:00022470       ?Release@?$CComPtrBase@UIDispatch@@@ATL@@QEAAXXZ 0000000180023470 f i VoiceRecognition.obj
 0001:000224c0       ?Release@?$CComPtrBase@UIOleInPlaceSiteWindowless@@@ATL@@QEAAXXZ 00000001800234c0 f i VoiceRecognition.obj
 0001:00022510       ?Release@CRegObject@ATL@@UEAAKXZ 0000000180023510 f i VoiceRecognition.obj
 0001:00022570       ?Remove@CComDynamicUnkArray@ATL@@QEAAHK@Z 0000000180023570 f i VoiceRecognition.obj
 0001:00022630       ?RemoveAll@?$CSimpleMap@PEA_WPEA_WVCExpansionVectorEqualHelper@ATL@@@ATL@@QEAAXXZ 0000000180023630 f i VoiceRecognition.obj
 0001:000226c0       ?Reset@?$CComEnumImpl@UIEnumConnectionPoints@@$1?_GUID_b196b285_bab4_101a_b69c_00aa00341d07@@3U__s_GUID@@BPEAUIConnectionPoint@@V?$_CopyInterface@UIConnectionPoint@@@ATL@@@ATL@@UEAAJXZ 00000001800236c0 f i VoiceRecognition.obj
 0001:000226e0       ?Reset@?$CComEnumImpl@UIEnumConnections@@$1?_GUID_b196b287_bab4_101a_b69c_00aa00341d07@@3U__s_GUID@@BUtagCONNECTDATA@@V?$_Copy@UtagCONNECTDATA@@@ATL@@@ATL@@UEAAJXZ 00000001800236e0 f i VoiceRecognition.obj
 0001:00022700       ?ResizeBorder@?$IOleInPlaceActiveObjectImpl@VCOPOSVoiceRecognition@@@ATL@@UEAAJPEBUtagRECT@@PEAUIOleInPlaceUIWindow@@H@Z 0000000180023700 f i VoiceRecognition.obj
 0001:00022770       ?ResourceRegister@CRegObject@ATL@@QEAAJPEB_WI0@Z 0000000180023770 f i VoiceRecognition.obj
 0001:00022850       ?ResourceRegisterSz@CRegObject@ATL@@QEAAJPEB_W00@Z 0000000180023850 f i VoiceRecognition.obj
 0001:00022970       ?ResourceUnregister@CRegObject@ATL@@QEAAJPEB_WI0@Z 0000000180023970 f i VoiceRecognition.obj
 0001:00022a50       ?ResourceUnregisterSz@CRegObject@ATL@@QEAAJPEB_W00@Z 0000000180023a50 f i VoiceRecognition.obj
 0001:00022b70       ?SOData@COPOSVoiceRecognition@@MEAAJJ@Z 0000000180023b70 f i VoiceRecognition.obj
 0001:00022c00       ?SODirectIO@COPOSVoiceRecognition@@MEAAJJPEAJPEAPEA_W@Z 0000000180023c00 f i VoiceRecognition.obj
 0001:00022e40       ?SOError@COPOSVoiceRecognition@@MEAAJJJJPEAJ@Z 0000000180023e40 f i VoiceRecognition.obj
 0001:00022f30       ?SOOutputCompleteDummy@COPOSVoiceRecognition@@MEAAJJ@Z 0000000180023f30 f i VoiceRecognition.obj
 0001:00022f50       ?SOStatusUpdate@COPOSVoiceRecognition@@MEAAJJ@Z 0000000180023f50 f i VoiceRecognition.obj
 0001:00022fe0       ?Save@?$IPersistStorageImpl@VCOPOSVoiceRecognition@@@ATL@@UEAAJPEAUIStorage@@H@Z 0000000180023fe0 f i VoiceRecognition.obj
 0001:000231a0       ?Save@?$IPersistStreamInitImpl@VCOPOSVoiceRecognition@@@ATL@@UEAAJPEAUIStream@@H@Z 00000001800241a0 f i VoiceRecognition.obj
 0001:00023250       ?SaveCompleted@?$IPersistStorageImpl@VCOPOSVoiceRecognition@@@ATL@@UEAAJPEAUIStorage@@@Z 0000000180024250 f i VoiceRecognition.obj
 0001:000232b0       ?SendOnDataChange@CComControlBase@ATL@@QEAAJK@Z 00000001800242b0 f i VoiceRecognition.obj
 0001:000233b0       ?SendOnSave@CComControlBase@ATL@@QEAAJXZ 00000001800243b0 f i VoiceRecognition.obj
 0001:00023410       ?SendOnViewChange@CComControlBase@ATL@@QEAAJKJ@Z 0000000180024410 f i VoiceRecognition.obj
 0001:00023470       ?SetAdvise@?$IViewObjectExImpl@VCOPOSVoiceRecognition@@@ATL@@UEAAJKKPEAUIAdviseSink@@@Z 0000000180024470 f i VoiceRecognition.obj
 0001:00023520       ?SetClientSite@?$IOleObjectImpl@VCOPOSVoiceRecognition@@@ATL@@UEAAJPEAUIOleClientSite@@@Z 0000000180024520 f i VoiceRecognition.obj
 0001:000235c0       ?SetColorScheme@?$IOleObjectImpl@VCOPOSVoiceRecognition@@@ATL@@UEAAJPEAUtagLOGPALETTE@@@Z 00000001800245c0 f i VoiceRecognition.obj
 0001:00023630       ?SetContentExtent@?$IQuickActivateImpl@VCOPOSVoiceRecognition@@@ATL@@UEAAJPEAUtagSIZE@@@Z 0000000180024630 f i VoiceRecognition.obj
 0001:000236e0       ?SetControlFocus@CComControlBase@ATL@@QEAAHH@Z 00000001800246e0 f i VoiceRecognition.obj
 0001:00023860       ?SetDWORDValue@CRegKey@ATL@@QEAAJPEB_WK@Z 0000000180024860 f i VoiceRecognition.obj
 0001:00023900       ?SetData@?$IDataObjectImpl@VCOPOSVoiceRecognition@@@ATL@@UEAAJPEAUtagFORMATETC@@PEAUtagSTGMEDIUM@@H@Z 0000000180024900 f i VoiceRecognition.obj
 0001:00023980       ?SetExtent@?$IOleObjectImpl@VCOPOSVoiceRecognition@@@ATL@@UEAAJKPEAUtagSIZE@@@Z 0000000180024980 f i VoiceRecognition.obj
 0001:00023a30       ?SetHostNames@?$IOleObjectImpl@VCOPOSVoiceRecognition@@@ATL@@UEAAJPEB_W0@Z 0000000180024a30 f i VoiceRecognition.obj
 0001:00023a90       ?SetInterfaceSafetyOptions@?$IObjectSafetyImpl@VCOPOSVoiceRecognition@@$02@ATL@@UEAAJAEBU_GUID@@KK@Z 0000000180024a90 f i VoiceRecognition.obj
 0001:00023c30       ?SetMoniker@?$IOleObjectImpl@VCOPOSVoiceRecognition@@@ATL@@UEAAJKPEAUIMoniker@@@Z 0000000180024c30 f i VoiceRecognition.obj
 0001:00023cb0       ?SetMultiStringValue@CRegKey@ATL@@QEAAJPEB_W0@Z 0000000180024cb0 f i VoiceRecognition.obj
 0001:00023e10       ?SetObjectRects@?$IOleInPlaceObjectWindowlessImpl@VCOPOSVoiceRecognition@@@ATL@@UEAAJPEBUtagRECT@@0@Z 0000000180024e10 f i VoiceRecognition.obj
 0001:00023ec0       ?SetStringValue@CRegKey@ATL@@QEAAJPEB_W0K@Z 0000000180024ec0 f i VoiceRecognition.obj
 0001:00024030       ?SetVoid@CComClassFactory@ATL@@QEAAXPEAX@Z 0000000180025030 f i VoiceRecognition.obj
 0001:00024050       ?SetVoid@CComObjectRootBase@ATL@@QEAAXPEAX@Z 0000000180025050 f i VoiceRecognition.obj
 0001:00024060       ?ShowWindow@CWindow@ATL@@QEAAHH@Z 0000000180025060 f i VoiceRecognition.obj
 0001:000240e0       ?Skip@?$CComEnumImpl@UIEnumConnectionPoints@@$1?_GUID_b196b285_bab4_101a_b69c_00aa00341d07@@3U__s_GUID@@BPEAUIConnectionPoint@@V?$_CopyInterface@UIConnectionPoint@@@ATL@@@ATL@@UEAAJK@Z 00000001800250e0 f i VoiceRecognition.obj
 0001:00024170       ?Skip@?$CComEnumImpl@UIEnumConnections@@$1?_GUID_b196b287_bab4_101a_b69c_00aa00341d07@@3U__s_GUID@@BUtagCONNECTDATA@@V?$_Copy@UtagCONNECTDATA@@@ATL@@@ATL@@UEAAJK@Z 0000000180025170 f i VoiceRecognition.obj
 0001:00024200       ?SkipAssignment@CRegParser@ATL@@IEAAJPEA_W@Z 0000000180025200 f i VoiceRecognition.obj
 0001:00024300       ?SkipWhiteSpace@CRegParser@ATL@@IEAAXXZ 0000000180025300 f i VoiceRecognition.obj
 0001:00024350       ?StartWindowProc@?$CWindowImplBaseT@VCWindow@ATL@@V?$CWinTraits@$0FGAAAAAA@$0A@@2@@ATL@@SA_JPEAUHWND__@@I_K_J@Z 0000000180025350 f i VoiceRecognition.obj
 0001:000244a0       ?StrChrW@CRegParser@ATL@@KAPEA_WPEA_W_W@Z 00000001800254a0 f i VoiceRecognition.obj
 0001:00024510       ?StrFromMap@CRegObject@ATL@@QEAAPEB_WPEA_W@Z 0000000180025510 f i VoiceRecognition.obj
 0001:000245b0       ?Swap@?$CComPtrBase@UIAdviseSink@@@ATL@@IEAAXAEAV12@@Z 00000001800255b0 f i VoiceRecognition.obj
 0001:000245f0       ?Swap@?$CComPtrBase@UIOleClientSite@@@ATL@@IEAAXAEAV12@@Z 00000001800255f0 f i VoiceRecognition.obj
 0001:00024630       ?Swap@?$CComPtrBase@UIUnknown@@@ATL@@IEAAXAEAV12@@Z 0000000180025630 f i VoiceRecognition.obj
 0001:00024670       ?T2COLE_EX@@YAPEB_WPEB_WI@Z 0000000180025670 f i VoiceRecognition.obj
 0001:00024690       ?T2OLE_EX@@YAPEA_WPEA_WI@Z 0000000180025690 f i VoiceRecognition.obj
 0001:000246b0       ?Term@CAtlModule@ATL@@QEAAXXZ 00000001800256b0 f i VoiceRecognition.obj
 0001:00024760       ?Term@CComModule@ATL@@QEAAXXZ 0000000180025760 f i VoiceRecognition.obj
 0001:00024840       ?TranslateAcceleratorW@?$IOleInPlaceActiveObjectImpl@VCOPOSVoiceRecognition@@@ATL@@UEAAJPEAUtagMSG@@@Z 0000000180025840 f i VoiceRecognition.obj
 0001:00024ab0       ?UIDeactivate@?$IOleInPlaceObjectWindowlessImpl@VCOPOSVoiceRecognition@@@ATL@@UEAAJXZ 0000000180025ab0 f i VoiceRecognition.obj
 0001:00024b40       ?Unadvise@?$CProxy_IOPOSEvents@VCOPOSVoiceRecognition@@@@UEAAJK@Z 0000000180025b40 f i VoiceRecognition.obj
 0001:00024b80       ?Unadvise@?$IConnectionPointImpl@VCOPOSVoiceRecognition@@$1?DIID__IOPOSVoiceRecognitionEvents@@3U_GUID@@BVCComDynamicUnkArray@ATL@@@ATL@@UEAAJK@Z 0000000180025b80 f i VoiceRecognition.obj
 0001:00024c60       ?Unadvise@?$IConnectionPointImpl@VCOPOSVoiceRecognition@@$1?IID_IPropertyNotifySink@@3U_GUID@@BVCComDynamicUnkArray@ATL@@@ATL@@UEAAJK@Z 0000000180025c60 f i VoiceRecognition.obj
 0001:00024d40       ?Unadvise@?$IOleObjectImpl@VCOPOSVoiceRecognition@@@ATL@@UEAAJK@Z 0000000180025d40 f i VoiceRecognition.obj
 0001:00024e20       ?Unfreeze@?$IViewObjectExImpl@VCOPOSVoiceRecognition@@@ATL@@UEAAJK@Z 0000000180025e20 f i VoiceRecognition.obj
 0001:00024e90       ?Unlock@?$CComCritSecLock@VCComCriticalSection@ATL@@@ATL@@QEAAXXZ 0000000180025e90 f i VoiceRecognition.obj
 0001:00024f10       ?Unlock@?$CComObjectRootEx@VCComSingleThreadModel@ATL@@@ATL@@QEAAXXZ 0000000180025f10 f i VoiceRecognition.obj
 0001:00024f20       ?Unlock@CAtlModule@ATL@@UEAAJXZ 0000000180025f20 f i VoiceRecognition.obj
 0001:00024f50       ?Unlock@CComCriticalSection@ATL@@QEAAJXZ 0000000180025f50 f i VoiceRecognition.obj
 0001:00024f70       ?Unlock@CComFakeCriticalSection@ATL@@QEAAJXZ 0000000180025f70 f i VoiceRecognition.obj
 0001:00024f80       ?UnregisterServer@?$CAtlModuleT@VCComModule@ATL@@@ATL@@QEAAJHPEBU_GUID@@@Z 0000000180025f80 f i VoiceRecognition.obj
 0001:00024fe0       ?UnregisterServer@CAtlComModule@ATL@@QEAAJHPEBU_GUID@@@Z 0000000180025fe0 f i VoiceRecognition.obj
 0001:00025010       ?UnregisterServer@CComModule@ATL@@QEAAJHPEBU_GUID@@@Z 0000000180026010 f i VoiceRecognition.obj
 0001:000250f0       ?Update@?$IOleObjectImpl@VCOPOSVoiceRecognition@@@ATL@@UEAAJXZ 00000001800260f0 f i VoiceRecognition.obj
 0001:00025150       ?UpdateRegistryFromResource@CAtlModule@ATL@@QEAAJIHPEAU_ATL_REGMAP_ENTRY@2@@Z 0000000180026150 f i VoiceRecognition.obj
 0001:00025690       ?UpdateRegistryFromResource@CAtlModule@ATL@@QEAAJPEB_WHPEAU_ATL_REGMAP_ENTRY@2@@Z 0000000180026690 f i VoiceRecognition.obj
 0001:00025be0       ?UpdateRegistryFromResource@CComModule@ATL@@UEAAJIHPEAU_ATL_REGMAP_ENTRY@2@@Z 0000000180026be0 f i VoiceRecognition.obj
 0001:00025c20       ?UpdateRegistryFromResource@CComModule@ATL@@UEAAJPEB_WHPEAU_ATL_REGMAP_ENTRY@2@@Z 0000000180026c20 f i VoiceRecognition.obj
 0001:00025c60       ?UpdateRegistryFromResourceD@CComModule@ATL@@UEAAJIHPEAU_ATL_REGMAP_ENTRY@2@@Z 0000000180026c60 f i VoiceRecognition.obj
 0001:00025c80       ?UpdateRegistryFromResourceD@CComModule@ATL@@UEAAJPEB_WHPEAU_ATL_REGMAP_ENTRY@2@@Z 0000000180026c80 f i VoiceRecognition.obj
 0001:00025ca0       ?VTFromRegType@CRegParser@ATL@@KAHPEB_WAEAG@Z 0000000180026ca0 f i VoiceRecognition.obj
 0001:00025d70       ?WindowProc@?$CWindowImplBaseT@VCWindow@ATL@@V?$CWinTraits@$0FGAAAAAA@$0A@@2@@ATL@@SA_JPEAUHWND__@@I_K_J@Z 0000000180026d70 f i VoiceRecognition.obj
 0001:00026050       ?WriteToStream@CComBSTR@ATL@@QEAAJPEAUIStream@@@Z 0000000180027050 f i VoiceRecognition.obj
 0001:000261c0       ?WriteToStream@CComVariant@ATL@@QEAAJPEAUIStream@@@Z 00000001800271c0 f i VoiceRecognition.obj
 0001:000265f0       ?WriteToStream@CComVariant@ATL@@QEAAJPEAUIStream@@G@Z 00000001800275f0 f i VoiceRecognition.obj
 0001:000266d0       ?_AtlFinalConstruct@CComObjectRootBase@ATL@@QEAAJXZ 00000001800276d0 f i VoiceRecognition.obj
 0001:000266e0       ?_AtlGetConversionACP@ATL@@YAIXZ 00000001800276e0 f i VoiceRecognition.obj
 0001:000266f0       ?_AtlInitialConstruct@?$CComAggObject@VCOPOSVoiceRecognition@@@ATL@@QEAAJXZ 00000001800276f0 f i VoiceRecognition.obj
 0001:00026740       ?_AtlInitialConstruct@?$CComObjectRootEx@VCComMultiThreadModel@ATL@@@ATL@@QEAAJXZ 0000000180027740 f i VoiceRecognition.obj
 0001:00026770       ?_AtlInitialConstruct@?$CComObjectRootEx@VCComSingleThreadModel@ATL@@@ATL@@QEAAJXZ 0000000180027770 f i VoiceRecognition.obj
 0001:00026780       ?_AtlVerifyStackAvailable@_ATL_SAFE_ALLOCA_IMPL@ATL@@YA_N_K@Z 0000000180027780 f i VoiceRecognition.obj
 0001:000268e0       ?_GetEntries@?$CComEnum@UIEnumConnectionPoints@@$1?_GUID_b196b285_bab4_101a_b69c_00aa00341d07@@3U__s_GUID@@BPEAUIConnectionPoint@@V?$_CopyInterface@UIConnectionPoint@@@ATL@@VCComSingleThreadModel@6@@ATL@@SAPEBU_ATL_INTMAP_ENTRY@2@XZ 00000001800278e0 f i VoiceRecognition.obj
 0001:00026900       ?_GetEntries@?$CComEnum@UIEnumConnections@@$1?_GUID_b196b287_bab4_101a_b69c_00aa00341d07@@3U__s_GUID@@BUtagCONNECTDATA@@V?$_Copy@UtagCONNECTDATA@@@ATL@@VCComSingleThreadModel@6@@ATL@@SAPEBU_ATL_INTMAP_ENTRY@2@XZ 0000000180027900 f i VoiceRecognition.obj
 0001:00026920       ?_GetEntries@CComClassFactory@ATL@@SAPEBU_ATL_INTMAP_ENTRY@2@XZ 0000000180027920 f i VoiceRecognition.obj
 0001:00026940       ?_GetEntries@COPOSVoiceRecognition@@SAPEBU_ATL_INTMAP_ENTRY@ATL@@XZ 0000000180027940 f i VoiceRecognition.obj
 0001:00026960       ?_GetRawUnknown@COPOSVoiceRecognition@@QEAAPEAUIUnknown@@XZ 0000000180027960 f i VoiceRecognition.obj
 0001:000269e0       ?_GetViewStatus@COPOSVoiceRecognition@@QEAAKXZ 00000001800279e0 f i VoiceRecognition.obj
 0001:000269f0       ?_InternalQueryInterface@?$CComEnum@UIEnumConnectionPoints@@$1?_GUID_b196b285_bab4_101a_b69c_00aa00341d07@@3U__s_GUID@@BPEAUIConnectionPoint@@V?$_CopyInterface@UIConnectionPoint@@@ATL@@VCComSingleThreadModel@6@@ATL@@QEAAJAEBU_GUID@@PEAPEAX@Z 00000001800279f0 f i VoiceRecognition.obj
 0001:00026a30       ?_InternalQueryInterface@?$CComEnum@UIEnumConnections@@$1?_GUID_b196b287_bab4_101a_b69c_00aa00341d07@@3U__s_GUID@@BUtagCONNECTDATA@@V?$_Copy@UtagCONNECTDATA@@@ATL@@VCComSingleThreadModel@6@@ATL@@QEAAJAEBU_GUID@@PEAPEAX@Z 0000000180027a30 f i VoiceRecognition.obj
 0001:00026a70       ?_InternalQueryInterface@CComClassFactory@ATL@@QEAAJAEBU_GUID@@PEAPEAX@Z 0000000180027a70 f i VoiceRecognition.obj
 0001:00026ab0       ?_InternalQueryInterface@COPOSVoiceRecognition@@QEAAJAEBU_GUID@@PEAPEAX@Z 0000000180027ab0 f i VoiceRecognition.obj
 0001:00026af0       ?_LocCPQueryInterface@?$IConnectionPointImpl@VCOPOSVoiceRecognition@@$1?DIID__IOPOSVoiceRecognitionEvents@@3U_GUID@@BVCComDynamicUnkArray@ATL@@@ATL@@UEAAJAEBU_GUID@@PEAPEAX@Z 0000000180027af0 f i VoiceRecognition.obj
 0001:00026bc0       ?_LocCPQueryInterface@?$IConnectionPointImpl@VCOPOSVoiceRecognition@@$1?IID_IPropertyNotifySink@@3U_GUID@@BVCComDynamicUnkArray@ATL@@@ATL@@UEAAJAEBU_GUID@@PEAPEAX@Z 0000000180027bc0 f i VoiceRecognition.obj
 0001:00026c90       ?atlCreate@?$CWindowImpl@VCOPOSVoiceRecognition@@VCWindow@ATL@@V?$CWinTraits@$0FGAAAAAA@$0A@@3@@ATL@@QEAAPEAUHWND__@@PEAU3@V_U_RECT@2@PEB_WKKV_U_MENUorID@2@PEAX@Z 0000000180027c90 f i VoiceRecognition.obj
 0001:00026da0       ?atlCreate@?$CWindowImplBaseT@VCWindow@ATL@@V?$CWinTraits@$0FGAAAAAA@$0A@@2@@ATL@@QEAAPEAUHWND__@@PEAU3@V_U_RECT@2@PEB_WKKV_U_MENUorID@2@GPEAX@Z 0000000180027da0 f i VoiceRecognition.obj
 0001:00026ff0       ?atlCreate@CRegKey@ATL@@QEAAJPEAUHKEY__@@PEB_WPEA_WKKPEAU_SECURITY_ATTRIBUTES@@PEAK@Z 0000000180027ff0 f i VoiceRecognition.obj
 0001:000271f0       ?begin@CComDynamicUnkArray@ATL@@QEAAPEAPEAUIUnknown@@XZ 00000001800281f0 f i VoiceRecognition.obj
 0001:00027200       ?copy@?$_Copy@UtagCONNECTDATA@@@ATL@@SAJPEAUtagCONNECTDATA@@PEBU3@@Z 0000000180028200 f i VoiceRecognition.obj
 0001:000272e0       ?copy@?$_CopyInterface@UIConnectionPoint@@@ATL@@SAJPEAPEAUIConnectionPoint@@PEBQEAU3@@Z 00000001800282e0 f i VoiceRecognition.obj
 0001:000273c0       ?destroy@?$_Copy@UtagCONNECTDATA@@@ATL@@SAXPEAUtagCONNECTDATA@@@Z 00000001800283c0 f i VoiceRecognition.obj
 0001:00027400       ?destroy@?$_CopyInterface@UIConnectionPoint@@@ATL@@SAXPEAPEAUIConnectionPoint@@@Z 0000000180028400 f i VoiceRecognition.obj
 0001:00027440       ?end@CComDynamicUnkArray@ATL@@QEAAPEAPEAUIUnknown@@XZ 0000000180028440 f i VoiceRecognition.obj
 0001:00027460       ?init@?$_Copy@UtagCONNECTDATA@@@ATL@@SAXPEAUtagCONNECTDATA@@@Z 0000000180028460 f i VoiceRecognition.obj
 0001:00027470       ?init@?$_CopyInterface@UIConnectionPoint@@@ATL@@SAXPEAPEAUIConnectionPoint@@@Z 0000000180028470 f i VoiceRecognition.obj
 0001:00027480       ?memcpy_s@Checked@ATL@@YAXPEAX_KPEBX1@Z 0000000180028480 f i VoiceRecognition.obj
 0001:000274c0       ?ocscpy_s@@YA_NPEA_W_KPEB_W@Z 00000001800284c0 f i VoiceRecognition.obj
 0001:00027530       ?ocslen@@YAHPEB_W@Z        0000000180028530 f i VoiceRecognition.obj
 0001:00027560       ?tcsncpy_s@Checked@ATL@@YAHPEA_W_KPEB_W1@Z 0000000180028560 f i VoiceRecognition.obj
 0001:000275a0       ?wcscat_s@Checked@ATL@@YAXPEA_W_KPEB_W@Z 00000001800285a0 f i VoiceRecognition.obj
 0001:000275e0       ?wcscpy_s@Checked@ATL@@YAXPEA_W_KPEB_W@Z 00000001800285e0 f i VoiceRecognition.obj
 0001:00027620       ?wcsncpy_s@Checked@ATL@@YAHPEA_W_KPEB_W1@Z 0000000180028620 f i VoiceRecognition.obj
 0001:00027660       ?wcsstr@@YAPEA_WPEA_WPEB_W@Z 0000000180028660 f i VoiceRecognition.obj
 0001:00027690       InlineIsEqualGUID          0000000180028690 f i VoiceRecognition.obj
 0001:00027750       IsEqualGUID                0000000180028750 f i VoiceRecognition.obj
 0001:000277a0       ??0COPOSVoiceRecognition@@QEAA@XZ 00000001800287a0 f   VoiceRecognitionImpl.obj
 0001:00027910       ?FinalConstruct@COPOSVoiceRecognition@@QEAAJXZ 0000000180028910 f   VoiceRecognitionImpl.obj
 0001:000279f0       ??1COPOSVoiceRecognition@@UEAA@XZ 00000001800289f0 f   VoiceRecognitionImpl.obj
 0001:00027ad0       ?WriteTrace@COPOSVoiceRecognition@@QEAAXPEB_WZZ 0000000180028ad0 f   VoiceRecognitionImpl.obj
 0001:00027ba0       ?WriteTraceString@COPOSVoiceRecognition@@QEAAXPEB_WPEA_W@Z 0000000180028ba0 f   VoiceRecognitionImpl.obj
 0001:00027fd0       ?WriteTraceString@COPOSVoiceRecognition@@QEAAXPEAXHHHPEB_WZZ 0000000180028fd0 f   VoiceRecognitionImpl.obj
 0001:00028260       ?WriteTraceError@COPOSVoiceRecognition@@QEAAXPEB_WK@Z 0000000180029260 f   VoiceRecognitionImpl.obj
 0001:00028360       ?WriteTraceMethods@COPOSVoiceRecognition@@QEAAXPEAJH@Z 0000000180029360 f   VoiceRecognitionImpl.obj
 0001:000283e0       ?GetOposProp@COPOSVoiceRecognition@@IEAAJPEBDJPEAJJ@Z 00000001800293e0 f   VoiceRecognitionImpl.obj
 0001:00028700       ?SetOposProp@COPOSVoiceRecognition@@IEAAJPEBDJJJ@Z 0000000180029700 f   VoiceRecognitionImpl.obj
 0001:00028a70       ?GetOposProp@COPOSVoiceRecognition@@IEAAJPEBDJPEAFJ@Z 0000000180029a70 f   VoiceRecognitionImpl.obj
 0001:00028b20       ?SetOposProp@COPOSVoiceRecognition@@IEAAJPEBDJFJ@Z 0000000180029b20 f   VoiceRecognitionImpl.obj
 0001:00028b90       ?GetOposProp@COPOSVoiceRecognition@@IEAAJPEBDJPEAPEA_WJ@Z 0000000180029b90 f   VoiceRecognitionImpl.obj
 0001:00028eb0       ?SetOposProp@COPOSVoiceRecognition@@IEAAJPEBDJPEA_WJ@Z 0000000180029eb0 f   VoiceRecognitionImpl.obj
 0001:00029290       ?DoInvoke@COPOSVoiceRecognition@@IEAAJPEBDJPEAVOposVariant@@IHPEAJ_N@Z 000000018002a290 f   VoiceRecognitionImpl.obj
 0001:00029df0       ?SetCOFreezeEvents@COPOSVoiceRecognition@@IEAAXF@Z 000000018002adf0 f   VoiceRecognitionImpl.obj
 0001:00029f80       ?FreezeEvents@COPOSVoiceRecognition@@MEAAJH@Z 000000018002af80 f   VoiceRecognitionImpl.obj
 0001:0002a0a0       ?OnDraw@COPOSVoiceRecognition@@MEAAJAEAUATL_DRAWINFO@@@Z 000000018002b0a0 f   VoiceRecognitionImpl.obj
 0001:0002a270       ?SOProcessID@COPOSVoiceRecognition@@UEAAJPEAJ@Z 000000018002b270 f   VoiceRecognitionImpl.obj
 0001:0002a2c0       ?get_OpenResult@COPOSVoiceRecognition@@UEAAJPEAJ@Z 000000018002b2c0 f   VoiceRecognitionImpl.obj
 0001:0002a310       ?get_AutoDisable@COPOSVoiceRecognition@@UEAAJPEAF@Z 000000018002b310 f   VoiceRecognitionImpl.obj
 0001:0002a350       ?put_AutoDisable@COPOSVoiceRecognition@@UEAAJF@Z 000000018002b350 f   VoiceRecognitionImpl.obj
 0001:0002a390       ?get_BinaryConversion@COPOSVoiceRecognition@@UEAAJPEAJ@Z 000000018002b390 f   VoiceRecognitionImpl.obj
 0001:0002a3d0       ?put_BinaryConversion@COPOSVoiceRecognition@@UEAAJJ@Z 000000018002b3d0 f   VoiceRecognitionImpl.obj
 0001:0002a420       ?get_CapPowerReporting@COPOSVoiceRecognition@@UEAAJPEAJ@Z 000000018002b420 f   VoiceRecognitionImpl.obj
 0001:0002a460       ?get_CheckHealthText@COPOSVoiceRecognition@@UEAAJPEAPEA_W@Z 000000018002b460 f   VoiceRecognitionImpl.obj
 0001:0002a4a0       ?get_Claimed@COPOSVoiceRecognition@@UEAAJPEAF@Z 000000018002b4a0 f   VoiceRecognitionImpl.obj
 0001:0002a4e0       ?get_DataCount@COPOSVoiceRecognition@@UEAAJPEAJ@Z 000000018002b4e0 f   VoiceRecognitionImpl.obj
 0001:0002a520       ?get_DataEventEnabled@COPOSVoiceRecognition@@UEAAJPEAF@Z 000000018002b520 f   VoiceRecognitionImpl.obj
 0001:0002a560       ?put_DataEventEnabled@COPOSVoiceRecognition@@UEAAJF@Z 000000018002b560 f   VoiceRecognitionImpl.obj
 0001:0002a5a0       ?get_DeviceEnabled@COPOSVoiceRecognition@@UEAAJPEAF@Z 000000018002b5a0 f   VoiceRecognitionImpl.obj
 0001:0002a5e0       ?put_DeviceEnabled@COPOSVoiceRecognition@@UEAAJF@Z 000000018002b5e0 f   VoiceRecognitionImpl.obj
 0001:0002a620       ?get_FreezeEvents@COPOSVoiceRecognition@@UEAAJPEAF@Z 000000018002b620 f   VoiceRecognitionImpl.obj
 0001:0002a660       ?put_FreezeEvents@COPOSVoiceRecognition@@UEAAJF@Z 000000018002b660 f   VoiceRecognitionImpl.obj
 0001:0002a720       ?get_PowerNotify@COPOSVoiceRecognition@@UEAAJPEAJ@Z 000000018002b720 f   VoiceRecognitionImpl.obj
 0001:0002a760       ?put_PowerNotify@COPOSVoiceRecognition@@UEAAJJ@Z 000000018002b760 f   VoiceRecognitionImpl.obj
 0001:0002a7a0       ?get_PowerState@COPOSVoiceRecognition@@UEAAJPEAJ@Z 000000018002b7a0 f   VoiceRecognitionImpl.obj
 0001:0002a7e0       ?get_ResultCode@COPOSVoiceRecognition@@UEAAJPEAJ@Z 000000018002b7e0 f   VoiceRecognitionImpl.obj
 0001:0002a890       ?get_ResultCodeExtended@COPOSVoiceRecognition@@UEAAJPEAJ@Z 000000018002b890 f   VoiceRecognitionImpl.obj
 0001:0002a8d0       ?get_State@COPOSVoiceRecognition@@UEAAJPEAJ@Z 000000018002b8d0 f   VoiceRecognitionImpl.obj
 0001:0002a940       ?get_ControlObjectDescription@COPOSVoiceRecognition@@UEAAJPEAPEA_W@Z 000000018002b940 f   VoiceRecognitionImpl.obj
 0001:0002a9b0       ?get_ControlObjectVersion@COPOSVoiceRecognition@@UEAAJPEAJ@Z 000000018002b9b0 f   VoiceRecognitionImpl.obj
 0001:0002aa00       ?get_ServiceObjectDescription@COPOSVoiceRecognition@@UEAAJPEAPEA_W@Z 000000018002ba00 f   VoiceRecognitionImpl.obj
 0001:0002aa40       ?get_ServiceObjectVersion@COPOSVoiceRecognition@@UEAAJPEAJ@Z 000000018002ba40 f   VoiceRecognitionImpl.obj
 0001:0002aa80       ?get_DeviceDescription@COPOSVoiceRecognition@@UEAAJPEAPEA_W@Z 000000018002ba80 f   VoiceRecognitionImpl.obj
 0001:0002aac0       ?get_DeviceName@COPOSVoiceRecognition@@UEAAJPEAPEA_W@Z 000000018002bac0 f   VoiceRecognitionImpl.obj
 0001:0002ab00       ?get_CapStatisticsReporting@COPOSVoiceRecognition@@UEAAJPEAF@Z 000000018002bb00 f   VoiceRecognitionImpl.obj
 0001:0002ab40       ?get_CapUpdateStatistics@COPOSVoiceRecognition@@UEAAJPEAF@Z 000000018002bb40 f   VoiceRecognitionImpl.obj
 0001:0002ab80       ?get_CapCompareFirmwareVersion@COPOSVoiceRecognition@@UEAAJPEAF@Z 000000018002bb80 f   VoiceRecognitionImpl.obj
 0001:0002abc0       ?get_CapUpdateFirmware@COPOSVoiceRecognition@@UEAAJPEAF@Z 000000018002bbc0 f   VoiceRecognitionImpl.obj
 0001:0002ac00       ?CheckHealth@COPOSVoiceRecognition@@UEAAJJPEAJ@Z 000000018002bc00 f   VoiceRecognitionImpl.obj
 0001:0002acc0       ?ClaimDevice@COPOSVoiceRecognition@@UEAAJJPEAJ@Z 000000018002bcc0 f   VoiceRecognitionImpl.obj
 0001:0002ade0       ?ClearInput@COPOSVoiceRecognition@@UEAAJPEAJ@Z 000000018002bde0 f   VoiceRecognitionImpl.obj
 0001:0002ae40       ?Close@COPOSVoiceRecognition@@UEAAJPEAJ@Z 000000018002be40 f   VoiceRecognitionImpl.obj
 0001:0002af40       ?DirectIO@COPOSVoiceRecognition@@UEAAJJPEAJPEAPEA_W0@Z 000000018002bf40 f   VoiceRecognitionImpl.obj
 0001:0002b0c0       ?Open@COPOSVoiceRecognition@@UEAAJPEA_WPEAJ@Z 000000018002c0c0 f   VoiceRecognitionImpl.obj
 0001:0002c5a0       ?ReleaseDevice@COPOSVoiceRecognition@@UEAAJPEAJ@Z 000000018002d5a0 f   VoiceRecognitionImpl.obj
 0001:0002c640       ?ResetStatistics@COPOSVoiceRecognition@@UEAAJPEA_WPEAJ@Z 000000018002d640 f   VoiceRecognitionImpl.obj
 0001:0002c720       ?RetrieveStatistics@COPOSVoiceRecognition@@UEAAJPEAPEA_WPEAJ@Z 000000018002d720 f   VoiceRecognitionImpl.obj
 0001:0002c800       ?UpdateStatistics@COPOSVoiceRecognition@@UEAAJPEA_WPEAJ@Z 000000018002d800 f   VoiceRecognitionImpl.obj
 0001:0002c8e0       ?CompareFirmwareVersion@COPOSVoiceRecognition@@UEAAJPEA_WPEAJ1@Z 000000018002d8e0 f   VoiceRecognitionImpl.obj
 0001:0002ca20       ?UpdateFirmware@COPOSVoiceRecognition@@UEAAJPEA_WPEAJ@Z 000000018002da20 f   VoiceRecognitionImpl.obj
 0001:0002cb00       ?ClearInputProperties@COPOSVoiceRecognition@@UEAAJPEAJ@Z 000000018002db00 f   VoiceRecognitionImpl.obj
 0001:0002cb60       ?get_CapLanguage@COPOSVoiceRecognition@@UEAAJPEAF@Z 000000018002db60 f   VoiceRecognitionImpl.obj
 0001:0002cba0       ?get_HearingDataPattern@COPOSVoiceRecognition@@UEAAJPEAPEA_W@Z 000000018002dba0 f   VoiceRecognitionImpl.obj
 0001:0002cbe0       ?get_HearingDataWord@COPOSVoiceRecognition@@UEAAJPEAPEA_W@Z 000000018002dbe0 f   VoiceRecognitionImpl.obj
 0001:0002cc20       ?get_HearingDataWordList@COPOSVoiceRecognition@@UEAAJPEAPEA_W@Z 000000018002dc20 f   VoiceRecognitionImpl.obj
 0001:0002cc60       ?get_HearingResult@COPOSVoiceRecognition@@UEAAJPEAJ@Z 000000018002dc60 f   VoiceRecognitionImpl.obj
 0001:0002cca0       ?get_HearingStatus@COPOSVoiceRecognition@@UEAAJPEAJ@Z 000000018002dca0 f   VoiceRecognitionImpl.obj
 0001:0002cce0       ?get_LanguageList@COPOSVoiceRecognition@@UEAAJPEAPEA_W@Z 000000018002dce0 f   VoiceRecognitionImpl.obj
 0001:0002cd20       ?StartHearingFree@COPOSVoiceRecognition@@UEAAJPEA_WPEAJ@Z 000000018002dd20 f   VoiceRecognitionImpl.obj
 0001:0002ce00       ?StartHearingSentence@COPOSVoiceRecognition@@UEAAJPEA_W00PEAJ@Z 000000018002de00 f   VoiceRecognitionImpl.obj
 0001:0002cf80       ?StartHearingWord@COPOSVoiceRecognition@@UEAAJPEA_W0PEAJ@Z 000000018002df80 f   VoiceRecognitionImpl.obj
 0001:0002d0c0       ?StartHearingYesNo@COPOSVoiceRecognition@@UEAAJPEA_WPEAJ@Z 000000018002e0c0 f   VoiceRecognitionImpl.obj
 0001:0002d1a0       ?StopHearing@COPOSVoiceRecognition@@UEAAJPEAJ@Z 000000018002e1a0 f   VoiceRecognitionImpl.obj
 0001:0002d1f0       ??0?$CComControl@VCOPOSVoiceRecognition@@V?$CWindowImpl@VCOPOSVoiceRecognition@@VCWindow@ATL@@V?$CWinTraits@$0FGAAAAAA@$0A@@3@@ATL@@@ATL@@QEAA@XZ 000000018002e1f0 f i VoiceRecognitionImpl.obj
 0001:0002d230       ??0?$CComPtr@UIAdviseSink@@@ATL@@QEAA@XZ 000000018002e230 f i VoiceRecognitionImpl.obj
 0001:0002d250       ??0?$CComPtr@UIDataAdviseHolder@@@ATL@@QEAA@XZ 000000018002e250 f i VoiceRecognitionImpl.obj
 0001:0002d270       ??0?$CComPtr@UIOleAdviseHolder@@@ATL@@QEAA@XZ 000000018002e270 f i VoiceRecognitionImpl.obj
 0001:0002d290       ??0?$CComPtr@UIOleClientSite@@@ATL@@QEAA@XZ 000000018002e290 f i VoiceRecognitionImpl.obj
 0001:0002d2b0       ??0?$CComPtr@UIOleInPlaceSiteWindowless@@@ATL@@QEAA@XZ 000000018002e2b0 f i VoiceRecognitionImpl.obj
 0001:0002d2d0       ??0?$CComPtrBase@UIAdviseSink@@@ATL@@IEAA@XZ 000000018002e2d0 f i VoiceRecognitionImpl.obj
 0001:0002d2f0       ??0?$CComPtrBase@UIDataAdviseHolder@@@ATL@@IEAA@XZ 000000018002e2f0 f i VoiceRecognitionImpl.obj
 0001:0002d310       ??0?$CComPtrBase@UIOleAdviseHolder@@@ATL@@IEAA@XZ 000000018002e310 f i VoiceRecognitionImpl.obj
 0001:0002d330       ??0?$CComPtrBase@UIOleClientSite@@@ATL@@IEAA@XZ 000000018002e330 f i VoiceRecognitionImpl.obj
 0001:0002d350       ??0?$CComPtrBase@UIOleInPlaceSiteWindowless@@@ATL@@IEAA@XZ 000000018002e350 f i VoiceRecognitionImpl.obj
 0001:0002d370       ??0?$CComQIPtr@UIDispatch@@$1?_GUID_00020400_0000_0000_c000_000000000046@@3U__s_GUID@@B@ATL@@QEAA@XZ 000000018002e370 f i VoiceRecognitionImpl.obj
 0001:0002d390       ??0?$CProxy_IOPOSEvents@VCOPOSVoiceRecognition@@@@QEAA@PEAVCOPOSVoiceRecognition@@@Z 000000018002e390 f i VoiceRecognitionImpl.obj
 0001:0002d410       ??0?$CWindowImpl@VCOPOSVoiceRecognition@@VCWindow@ATL@@V?$CWinTraits@$0FGAAAAAA@$0A@@3@@ATL@@QEAA@XZ 000000018002e410 f i VoiceRecognitionImpl.obj
 0001:0002d430       ??0?$CWindowImplBaseT@VCWindow@ATL@@V?$CWinTraits@$0FGAAAAAA@$0A@@2@@ATL@@QEAA@XZ 000000018002e430 f i VoiceRecognitionImpl.obj
 0001:0002d460       ??0?$CWindowImplRoot@VCWindow@ATL@@@ATL@@QEAA@XZ 000000018002e460 f i VoiceRecognitionImpl.obj
 0001:0002d4c0       ??0?$IConnectionPointContainerImpl@VCOPOSVoiceRecognition@@@ATL@@QEAA@XZ 000000018002e4c0 f i VoiceRecognitionImpl.obj
 0001:0002d4e0       ??0?$IConnectionPointImpl@VCOPOSVoiceRecognition@@$1?DIID__IOPOSVoiceRecognitionEvents@@3U_GUID@@BVCComDynamicUnkArray@ATL@@@ATL@@QEAA@XZ 000000018002e4e0 f i VoiceRecognitionImpl.obj
 0001:0002d510       ??0?$IConnectionPointImpl@VCOPOSVoiceRecognition@@$1?IID_IPropertyNotifySink@@3U_GUID@@BVCComDynamicUnkArray@ATL@@@ATL@@QEAA@XZ 000000018002e510 f i VoiceRecognitionImpl.obj
 0001:0002d540       ??0?$IDataObjectImpl@VCOPOSVoiceRecognition@@@ATL@@QEAA@XZ 000000018002e540 f i VoiceRecognitionImpl.obj
 0001:0002d560       ??0?$IDispatchImpl@UIOPOSVoiceRecognition@@$1?IID_IOPOSVoiceRecognition@@3U_GUID@@B$1?LIBID_OposVoiceRecognition_CCO@@3U3@B$00$0A@VCComTypeInfoHolder@ATL@@@ATL@@QEAA@XZ 000000018002e560 f i VoiceRecognitionImpl.obj
 0001:0002d580       ??0?$IObjectSafetyImpl@VCOPOSVoiceRecognition@@$02@ATL@@QEAA@XZ 000000018002e580 f i VoiceRecognitionImpl.obj
 0001:0002d5b0       ??0?$IOleControlImpl@VCOPOSVoiceRecognition@@@ATL@@QEAA@XZ 000000018002e5b0 f i VoiceRecognitionImpl.obj
 0001:0002d5d0       ??0?$IOleInPlaceActiveObjectImpl@VCOPOSVoiceRecognition@@@ATL@@QEAA@XZ 000000018002e5d0 f i VoiceRecognitionImpl.obj
 0001:0002d5f0       ??0?$IOleInPlaceObjectWindowlessImpl@VCOPOSVoiceRecognition@@@ATL@@QEAA@XZ 000000018002e5f0 f i VoiceRecognitionImpl.obj
 0001:0002d610       ??0?$IOleObjectImpl@VCOPOSVoiceRecognition@@@ATL@@QEAA@XZ 000000018002e610 f i VoiceRecognitionImpl.obj
 0001:0002d630       ??0?$IPersistStorageImpl@VCOPOSVoiceRecognition@@@ATL@@QEAA@XZ 000000018002e630 f i VoiceRecognitionImpl.obj
 0001:0002d650       ??0?$IPersistStreamInitImpl@VCOPOSVoiceRecognition@@@ATL@@QEAA@XZ 000000018002e650 f i VoiceRecognitionImpl.obj
 0001:0002d670       ??0?$IPropertyNotifySinkCP@VCOPOSVoiceRecognition@@VCComDynamicUnkArray@ATL@@@ATL@@QEAA@XZ 000000018002e670 f i VoiceRecognitionImpl.obj
 0001:0002d690       ??0?$IProvideClassInfo2Impl@$1?CLSID_OPOSVoiceRecognition@@3U_GUID@@B$1?DIID__IOPOSVoiceRecognitionEvents@@3U2@B$1?LIBID_OposVoiceRecognition_CCO@@3U2@B$00$0A@VCComTypeInfoHolder@ATL@@@ATL@@QEAA@XZ 000000018002e690 f i VoiceRecognitionImpl.obj
 0001:0002d6b0       ??0?$IQuickActivateImpl@VCOPOSVoiceRecognition@@@ATL@@QEAA@XZ 000000018002e6b0 f i VoiceRecognitionImpl.obj
 0001:0002d6d0       ??0?$ISpecifyPropertyPagesImpl@VCOPOSVoiceRecognition@@@ATL@@QEAA@XZ 000000018002e6d0 f i VoiceRecognitionImpl.obj
 0001:0002d6f0       ??0?$IViewObjectExImpl@VCOPOSVoiceRecognition@@@ATL@@QEAA@XZ 000000018002e6f0 f i VoiceRecognitionImpl.obj
 0001:0002d710       ??0?$_ICPLocator@$1?DIID__IOPOSVoiceRecognitionEvents@@3U_GUID@@B@ATL@@QEAA@XZ 000000018002e710 f i VoiceRecognitionImpl.obj
 0001:0002d720       ??0?$_ICPLocator@$1?IID_IPropertyNotifySink@@3U_GUID@@B@ATL@@QEAA@XZ 000000018002e720 f i VoiceRecognitionImpl.obj
 0001:0002d730       ??0CComControlBase@ATL@@QEAA@AEAPEAUHWND__@@@Z 000000018002e730 f i VoiceRecognitionImpl.obj
 0001:0002d940       ??0CComDynamicUnkArray@ATL@@QEAA@XZ 000000018002e940 f i VoiceRecognitionImpl.obj
 0001:0002d970       ??0CDynamicStdCallThunk2@ATL@@QEAA@XZ 000000018002e970 f i VoiceRecognitionImpl.obj
 0001:0002d990       ??0CMessageMap@ATL@@QEAA@XZ 000000018002e990 f i VoiceRecognitionImpl.obj
 0001:0002d9a0       ??0CWindow@ATL@@QEAA@PEAUHWND__@@@Z 000000018002e9a0 f i VoiceRecognitionImpl.obj
 0001:0002d9c0       ??0CWndProcThunk@ATL@@QEAA@XZ 000000018002e9c0 f i VoiceRecognitionImpl.obj
 0001:0002d9f0       ??0IConnectionPointContainer@@QEAA@XZ 000000018002e9f0 f i VoiceRecognitionImpl.obj
 0001:0002da10       ??0IDataObject@@QEAA@XZ    000000018002ea10 f i VoiceRecognitionImpl.obj
 0001:0002da30       ??0IDispatch@@QEAA@XZ      000000018002ea30 f i VoiceRecognitionImpl.obj
 0001:0002da50       ??0IOPOSVoiceRecognition@@QEAA@XZ 000000018002ea50 f i VoiceRecognitionImpl.obj
 0001:0002da70       ??0IOPOSVoiceRecognition_1_16@@QEAA@XZ 000000018002ea70 f i VoiceRecognitionImpl.obj
 0001:0002da90       ??0IObjectSafety@@QEAA@XZ  000000018002ea90 f i VoiceRecognitionImpl.obj
 0001:0002dab0       ??0IOleControl@@QEAA@XZ    000000018002eab0 f i VoiceRecognitionImpl.obj
 0001:0002dad0       ??0IOleInPlaceActiveObject@@QEAA@XZ 000000018002ead0 f i VoiceRecognitionImpl.obj
 0001:0002daf0       ??0IOleInPlaceObject@@QEAA@XZ 000000018002eaf0 f i VoiceRecognitionImpl.obj
 0001:0002db10       ??0IOleInPlaceObjectWindowless@@QEAA@XZ 000000018002eb10 f i VoiceRecognitionImpl.obj
 0001:0002db30       ??0IOleObject@@QEAA@XZ     000000018002eb30 f i VoiceRecognitionImpl.obj
 0001:0002db50       ??0IOleWindow@@QEAA@XZ     000000018002eb50 f i VoiceRecognitionImpl.obj
 0001:0002db70       ??0IPersist@@QEAA@XZ       000000018002eb70 f i VoiceRecognitionImpl.obj
 0001:0002db90       ??0IPersistStorage@@QEAA@XZ 000000018002eb90 f i VoiceRecognitionImpl.obj
 0001:0002dbb0       ??0IPersistStreamInit@@QEAA@XZ 000000018002ebb0 f i VoiceRecognitionImpl.obj
 0001:0002dbd0       ??0IProvideClassInfo2@@QEAA@XZ 000000018002ebd0 f i VoiceRecognitionImpl.obj
 0001:0002dbf0       ??0IProvideClassInfo@@QEAA@XZ 000000018002ebf0 f i VoiceRecognitionImpl.obj
 0001:0002dc10       ??0IQuickActivate@@QEAA@XZ 000000018002ec10 f i VoiceRecognitionImpl.obj
 0001:0002dc30       ??0ISpecifyPropertyPages@@QEAA@XZ 000000018002ec30 f i VoiceRecognitionImpl.obj
 0001:0002dc50       ??0IViewObject2@@QEAA@XZ   000000018002ec50 f i VoiceRecognitionImpl.obj
 0001:0002dc70       ??0IViewObject@@QEAA@XZ    000000018002ec70 f i VoiceRecognitionImpl.obj
 0001:0002dc90       ??0IViewObjectEx@@QEAA@XZ  000000018002ec90 f i VoiceRecognitionImpl.obj
 0001:0002dcb0       ??0OposVariantResult@@QEAA@XZ 000000018002ecb0 f i VoiceRecognitionImpl.obj
 0001:0002dcd0       ??0_CW@@QEAA@PEBD@Z        000000018002ecd0 f i VoiceRecognitionImpl.obj
 0001:0002dd20       ??0_CW@@QEAA@PEB_W@Z       000000018002ed20 f i VoiceRecognitionImpl.obj
 0001:0002dd70       ??0_CWNCC@@QEAA@PEBD@Z     000000018002ed70 f i VoiceRecognitionImpl.obj
 0001:0002dda0       ??1?$CComControl@VCOPOSVoiceRecognition@@V?$CWindowImpl@VCOPOSVoiceRecognition@@VCWindow@ATL@@V?$CWinTraits@$0FGAAAAAA@$0A@@3@@ATL@@@ATL@@UEAA@XZ 000000018002eda0 f i VoiceRecognitionImpl.obj
 0001:0002ddd0       ??1?$CComPtr@UIDataAdviseHolder@@@ATL@@QEAA@XZ 000000018002edd0 f i VoiceRecognitionImpl.obj
 0001:0002ddf0       ??1?$CComPtr@UIOleAdviseHolder@@@ATL@@QEAA@XZ 000000018002edf0 f i VoiceRecognitionImpl.obj
 0001:0002de10       ??1?$CComPtr@UIOleInPlaceSiteWindowless@@@ATL@@QEAA@XZ 000000018002ee10 f i VoiceRecognitionImpl.obj
 0001:0002de30       ??1?$CComPtrBase@UIDataAdviseHolder@@@ATL@@QEAA@XZ 000000018002ee30 f i VoiceRecognitionImpl.obj
 0001:0002de70       ??1?$CComPtrBase@UIOleAdviseHolder@@@ATL@@QEAA@XZ 000000018002ee70 f i VoiceRecognitionImpl.obj
 0001:0002deb0       ??1?$CComPtrBase@UIOleInPlaceSiteWindowless@@@ATL@@QEAA@XZ 000000018002eeb0 f i VoiceRecognitionImpl.obj
 0001:0002def0       ??1?$CComQIPtr@UIDispatch@@$1?_GUID_00020400_0000_0000_c000_000000000046@@3U__s_GUID@@B@ATL@@QEAA@XZ 000000018002eef0 f i VoiceRecognitionImpl.obj
 0001:0002df10       ??1?$CProxy_IOPOSEvents@VCOPOSVoiceRecognition@@@@QEAA@XZ 000000018002ef10 f i VoiceRecognitionImpl.obj
 0001:0002df30       ??1?$CWindowImpl@VCOPOSVoiceRecognition@@VCWindow@ATL@@V?$CWinTraits@$0FGAAAAAA@$0A@@3@@ATL@@UEAA@XZ 000000018002ef30 f i VoiceRecognitionImpl.obj
 0001:0002df50       ??1?$CWindowImplBaseT@VCWindow@ATL@@V?$CWinTraits@$0FGAAAAAA@$0A@@2@@ATL@@UEAA@XZ 000000018002ef50 f i VoiceRecognitionImpl.obj
 0001:0002df70       ??1?$CWindowImplRoot@VCWindow@ATL@@@ATL@@UEAA@XZ 000000018002ef70 f i VoiceRecognitionImpl.obj
 0001:0002e020       ??1?$IConnectionPointImpl@VCOPOSVoiceRecognition@@$1?DIID__IOPOSVoiceRecognitionEvents@@3U_GUID@@BVCComDynamicUnkArray@ATL@@@ATL@@QEAA@XZ 000000018002f020 f i VoiceRecognitionImpl.obj
 0001:0002e0a0       ??1?$IConnectionPointImpl@VCOPOSVoiceRecognition@@$1?IID_IPropertyNotifySink@@3U_GUID@@BVCComDynamicUnkArray@ATL@@@ATL@@QEAA@XZ 000000018002f0a0 f i VoiceRecognitionImpl.obj
 0001:0002e120       ??1?$IPropertyNotifySinkCP@VCOPOSVoiceRecognition@@VCComDynamicUnkArray@ATL@@@ATL@@QEAA@XZ 000000018002f120 f i VoiceRecognitionImpl.obj
 0001:0002e140       ??1CComControlBase@ATL@@UEAA@XZ 000000018002f140 f i VoiceRecognitionImpl.obj
 0001:0002e220       ??1CComDynamicUnkArray@ATL@@QEAA@XZ 000000018002f220 f i VoiceRecognitionImpl.obj
 0001:0002e250       ??1CDynamicStdCallThunk2@ATL@@QEAA@XZ 000000018002f250 f i VoiceRecognitionImpl.obj
 0001:0002e280       ??1CWndProcThunk@ATL@@QEAA@XZ 000000018002f280 f i VoiceRecognitionImpl.obj
 0001:0002e2b0       ??1OposVariantResult@@QEAA@XZ 000000018002f2b0 f i VoiceRecognitionImpl.obj
 0001:0002e2e0       ??1_CW@@QEAA@XZ            000000018002f2e0 f i VoiceRecognitionImpl.obj
 0001:0002e340       ??1_CWNCC@@QEAA@XZ         000000018002f340 f i VoiceRecognitionImpl.obj
 0001:0002e360       ??B_CW@@QEAAPEB_WXZ        000000018002f360 f i VoiceRecognitionImpl.obj
 0001:0002e390       ??B_CWNCC@@QEAAPEA_WXZ     000000018002f390 f i VoiceRecognitionImpl.obj
 0001:0002e3b0       ??_EOposVariant@@QEAAPEAXI@Z 000000018002f3b0 f i VoiceRecognitionImpl.obj
 0001:0002e450       ?EventClaim@COPOSVoiceRecognition@@IEAAXXZ 000000018002f450 f i VoiceRecognitionImpl.obj
 0001:0002e480       ?EventClose@COPOSVoiceRecognition@@IEAAXXZ 000000018002f480 f i VoiceRecognitionImpl.obj
 0001:0002e520       ?EventInit@COPOSVoiceRecognition@@IEAAJXZ 000000018002f520 f i VoiceRecognitionImpl.obj
 0001:0002e7d0       ?EventOpen@COPOSVoiceRecognition@@IEAAXXZ 000000018002f7d0 f i VoiceRecognitionImpl.obj
 0001:0002e810       ?EventPreCloseRelease@COPOSVoiceRecognition@@IEAAXXZ 000000018002f810 f i VoiceRecognitionImpl.obj
 0001:0002e880       ?EventUninit@COPOSVoiceRecognition@@IEAAXXZ 000000018002f880 f i VoiceRecognitionImpl.obj
 0001:0002e9a0       ?EventWindowProc@COPOSVoiceRecognition@@IEAA_JI_K_J@Z 000000018002f9a0 f i VoiceRecognitionImpl.obj
 0001:0002eb60       ?FireEventCleanup@COPOSVoiceRecognition@@IEAAXXZ 000000018002fb60 f i VoiceRecognitionImpl.obj
 0001:0002eba0       ?FireEventSetup@COPOSVoiceRecognition@@IEAA_NXZ 000000018002fba0 f i VoiceRecognitionImpl.obj
 0001:0002ec10       ?GetModuleInstance@CComModule@ATL@@QEAAPEAUHINSTANCE__@@XZ 000000018002fc10 f i VoiceRecognitionImpl.obj
 0001:0002ec20       ?SetRC@COPOSVoiceRecognition@@IEAAJJ@Z 000000018002fc20 f i VoiceRecognitionImpl.obj
 0001:0002ec40       ?s_EventWindowProc@COPOSVoiceRecognition@@KA_JPEAUHWND__@@I_K_J@Z 000000018002fc40 f i VoiceRecognitionImpl.obj
 0001:0002ece0       _snwprintf                 000000018002fce0 f i VoiceRecognitionImpl.obj
 0001:0002ed70       _vfwprintf_l               000000018002fd70 f i VoiceRecognitionImpl.obj
 0001:0002edc0       _vsnwprintf                000000018002fdc0 f i VoiceRecognitionImpl.obj
 0001:0002ee00       _vsnwprintf_l              000000018002fe00 f i VoiceRecognitionImpl.obj
 0001:0002ee80       vfwprintf                  000000018002fe80 f i VoiceRecognitionImpl.obj
 0001:0002eeb1       DebugBreak                 000000018002feb1 f   kernel32:KERNEL32.dll
 0001:0002eeb7       Sleep                      000000018002feb7 f   kernel32:KERNEL32.dll
 0001:0002eebd       GetCurrentProcess          000000018002febd f   kernel32:KERNEL32.dll
 0001:0002eec3       TerminateProcess           000000018002fec3 f   kernel32:KERNEL32.dll
 0001:0002eec9       MultiByteToWideChar        000000018002fec9 f   kernel32:KERNEL32.dll
 0001:0002eecf       WideCharToMultiByte        000000018002fecf f   kernel32:KERNEL32.dll
 0001:0002eed5       DecodePointer              000000018002fed5 f   kernel32:KERNEL32.dll
 0001:0002eedb       RaiseException             000000018002fedb f   kernel32:KERNEL32.dll
 0001:0002eee1       GetLastError               000000018002fee1 f   kernel32:KERNEL32.dll
 0001:0002eee7       SetLastError               000000018002fee7 f   kernel32:KERNEL32.dll
 0001:0002eeed       InitializeCriticalSectionEx 000000018002feed f   kernel32:KERNEL32.dll
 0001:0002eef3       DeleteCriticalSection      000000018002fef3 f   kernel32:KERNEL32.dll
 0001:0002eef9       EncodePointer              000000018002fef9 f   kernel32:KERNEL32.dll
 0001:0002eeff       EnterCriticalSection       000000018002feff f   kernel32:KERNEL32.dll
 0001:0002ef05       LeaveCriticalSection       000000018002ff05 f   kernel32:KERNEL32.dll
 0001:0002ef0b       ResetEvent                 000000018002ff0b f   kernel32:KERNEL32.dll
 0001:0002ef11       ReleaseMutex               000000018002ff11 f   kernel32:KERNEL32.dll
 0001:0002ef17       WaitForSingleObject        000000018002ff17 f   kernel32:KERNEL32.dll
 0001:0002ef1d       GetCurrentThreadId         000000018002ff1d f   kernel32:KERNEL32.dll
 0001:0002ef23       DisableThreadLibraryCalls  000000018002ff23 f   kernel32:KERNEL32.dll
 0001:0002ef29       FreeLibrary                000000018002ff29 f   kernel32:KERNEL32.dll
 0001:0002ef2f       GetModuleFileNameW         000000018002ff2f f   kernel32:KERNEL32.dll
 0001:0002ef35       GetModuleHandleW           000000018002ff35 f   kernel32:KERNEL32.dll
 0001:0002ef3b       GetProcAddress             000000018002ff3b f   kernel32:KERNEL32.dll
 0001:0002ef41       LoadLibraryExW             000000018002ff41 f   kernel32:KERNEL32.dll
 0001:0002ef47       LoadResource               000000018002ff47 f   kernel32:KERNEL32.dll
 0001:0002ef4d       SizeofResource             000000018002ff4d f   kernel32:KERNEL32.dll
 0001:0002ef53       FindResourceW              000000018002ff53 f   kernel32:KERNEL32.dll
 0001:0002ef59       GlobalAlloc                000000018002ff59 f   kernel32:KERNEL32.dll
 0001:0002ef5f       GlobalUnlock               000000018002ff5f f   kernel32:KERNEL32.dll
 0001:0002ef65       GlobalLock                 000000018002ff65 f   kernel32:KERNEL32.dll
 0001:0002ef6b       MulDiv                     000000018002ff6b f   kernel32:KERNEL32.dll
 0001:0002ef71       lstrcmpiW                  000000018002ff71 f   kernel32:KERNEL32.dll
 0001:0002ef77       DeleteFileW                000000018002ff77 f   kernel32:KERNEL32.dll
 0001:0002ef7d       CloseHandle                000000018002ff7d f   kernel32:KERNEL32.dll
 0001:0002ef83       SetEvent                   000000018002ff83 f   kernel32:KERNEL32.dll
 0001:0002ef89       CreateMutexW               000000018002ff89 f   kernel32:KERNEL32.dll
 0001:0002ef8f       CreateEventW               000000018002ff8f f   kernel32:KERNEL32.dll
 0001:0002ef95       GetCurrentProcessId        000000018002ff95 f   kernel32:KERNEL32.dll
 0001:0002ef9b       LocalFree                  000000018002ff9b f   kernel32:KERNEL32.dll
 0001:0002efa1       FormatMessageW             000000018002ffa1 f   kernel32:KERNEL32.dll
 0001:0002efa7       GetActiveWindow            000000018002ffa7 f   user32:USER32.dll
 0001:0002efad       MessageBoxW                000000018002ffad f   user32:USER32.dll
 0001:0002efb3       UnregisterClassW           000000018002ffb3 f   user32:USER32.dll
 0001:0002efb9       PostMessageW               000000018002ffb9 f   user32:USER32.dll
 0001:0002efbf       DefWindowProcW             000000018002ffbf f   user32:USER32.dll
 0001:0002efc5       CallWindowProcW            000000018002ffc5 f   user32:USER32.dll
 0001:0002efcb       RegisterClassExW           000000018002ffcb f   user32:USER32.dll
 0001:0002efd1       GetClassInfoExW            000000018002ffd1 f   user32:USER32.dll
 0001:0002efd7       CreateWindowExW            000000018002ffd7 f   user32:USER32.dll
 0001:0002efdd       IsWindow                   000000018002ffdd f   user32:USER32.dll
 0001:0002efe3       IsChild                    000000018002ffe3 f   user32:USER32.dll
 0001:0002efe9       DestroyWindow              000000018002ffe9 f   user32:USER32.dll
 0001:0002efef       ShowWindow                 000000018002ffef f   user32:USER32.dll
 0001:0002eff5       SetWindowPos               000000018002fff5 f   user32:USER32.dll
 0001:0002effb       CharNextW                  000000018002fffb f   user32:USER32.dll
 0001:0002f001       SetFocus                   0000000180030001 f   user32:USER32.dll
 0001:0002f007       GetFocus                   0000000180030007 f   user32:USER32.dll
 0001:0002f00d       GetKeyState                000000018003000d f   user32:USER32.dll
 0001:0002f013       GetDC                      0000000180030013 f   user32:USER32.dll
 0001:0002f019       ReleaseDC                  0000000180030019 f   user32:USER32.dll
 0001:0002f01f       BeginPaint                 000000018003001f f   user32:USER32.dll
 0001:0002f025       EndPaint                   0000000180030025 f   user32:USER32.dll
 0001:0002f02b       SetWindowRgn               000000018003002b f   user32:USER32.dll
 0001:0002f031       InvalidateRect             0000000180030031 f   user32:USER32.dll
 0001:0002f037       GetClientRect              0000000180030037 f   user32:USER32.dll
 0001:0002f03d       IntersectRect              000000018003003d f   user32:USER32.dll
 0001:0002f043       UnionRect                  0000000180030043 f   user32:USER32.dll
 0001:0002f049       OffsetRect                 0000000180030049 f   user32:USER32.dll
 0001:0002f04f       EqualRect                  000000018003004f f   user32:USER32.dll
 0001:0002f055       PtInRect                   0000000180030055 f   user32:USER32.dll
 0001:0002f05b       GetWindowLongPtrW          000000018003005b f   user32:USER32.dll
 0001:0002f061       SetWindowLongPtrW          0000000180030061 f   user32:USER32.dll
 0001:0002f067       GetParent                  0000000180030067 f   user32:USER32.dll
 0001:0002f06d       LoadCursorW                000000018003006d f   user32:USER32.dll
 0001:0002f073       PeekMessageW               0000000180030073 f   user32:USER32.dll
 0001:0002f079       RegisterClassW             0000000180030079 f   user32:USER32.dll
 0001:0002f07f       LoadBitmapW                000000018003007f f   user32:USER32.dll
 0001:0002f085       CloseMetaFile              0000000180030085 f   gdi32:GDI32.dll
 0001:0002f08b       CreateDCW                  000000018003008b f   gdi32:GDI32.dll
 0001:0002f091       CreateMetaFileW            0000000180030091 f   gdi32:GDI32.dll
 0001:0002f097       CreateRectRgnIndirect      0000000180030097 f   gdi32:GDI32.dll
 0001:0002f09d       DeleteDC                   000000018003009d f   gdi32:GDI32.dll
 0001:0002f0a3       DeleteMetaFile             00000001800300a3 f   gdi32:GDI32.dll
 0001:0002f0a9       GetDeviceCaps              00000001800300a9 f   gdi32:GDI32.dll
 0001:0002f0af       RestoreDC                  00000001800300af f   gdi32:GDI32.dll
 0001:0002f0b5       SaveDC                     00000001800300b5 f   gdi32:GDI32.dll
 0001:0002f0bb       SetMapMode                 00000001800300bb f   gdi32:GDI32.dll
 0001:0002f0c1       LPtoDP                     00000001800300c1 f   gdi32:GDI32.dll
 0001:0002f0c7       SetViewportOrgEx           00000001800300c7 f   gdi32:GDI32.dll
 0001:0002f0cd       SetWindowExtEx             00000001800300cd f   gdi32:GDI32.dll
 0001:0002f0d3       SetWindowOrgEx             00000001800300d3 f   gdi32:GDI32.dll
 0001:0002f0d9       BitBlt                     00000001800300d9 f   gdi32:GDI32.dll
 0001:0002f0df       CreateCompatibleDC         00000001800300df f   gdi32:GDI32.dll
 0001:0002f0e5       DeleteObject               00000001800300e5 f   gdi32:GDI32.dll
 0001:0002f0eb       SelectObject               00000001800300eb f   gdi32:GDI32.dll
 0001:0002f0f1       GetObjectW                 00000001800300f1 f   gdi32:GDI32.dll
 0001:0002f0f7       RegCloseKey                00000001800300f7 f   advapi32:ADVAPI32.dll
 0001:0002f0fd       RegCreateKeyExW            00000001800300fd f   advapi32:ADVAPI32.dll
 0001:0002f103       RegDeleteKeyW              0000000180030103 f   advapi32:ADVAPI32.dll
 0001:0002f109       RegDeleteValueW            0000000180030109 f   advapi32:ADVAPI32.dll
 0001:0002f10f       RegEnumKeyExW              000000018003010f f   advapi32:ADVAPI32.dll
 0001:0002f115       RegOpenKeyExW              0000000180030115 f   advapi32:ADVAPI32.dll
 0001:0002f11b       RegQueryInfoKeyW           000000018003011b f   advapi32:ADVAPI32.dll
 0001:0002f121       RegSetValueExW             0000000180030121 f   advapi32:ADVAPI32.dll
 0001:0002f127       RegQueryValueExW           0000000180030127 f   advapi32:ADVAPI32.dll
 0001:0002f12d       CoCreateInstance           000000018003012d f   ole32:ole32.dll
 0001:0002f133       StringFromGUID2            0000000180030133 f   ole32:ole32.dll
 0001:0002f139       CoTaskMemAlloc             0000000180030139 f   ole32:ole32.dll
 0001:0002f13f       CoTaskMemRealloc           000000018003013f f   ole32:ole32.dll
 0001:0002f145       CoTaskMemFree              0000000180030145 f   ole32:ole32.dll
 0001:0002f14b       ReadClassStm               000000018003014b f   ole32:ole32.dll
 0001:0002f151       WriteClassStm              0000000180030151 f   ole32:ole32.dll
 0001:0002f157       CreateDataAdviseHolder     0000000180030157 f   ole32:ole32.dll
 0001:0002f15d       OleSaveToStream            000000018003015d f   ole32:ole32.dll
 0001:0002f163       CreateOleAdviseHolder      0000000180030163 f   ole32:ole32.dll
 0001:0002f169       OleRegGetUserType          0000000180030169 f   ole32:ole32.dll
 0001:0002f16f       OleRegGetMiscStatus        000000018003016f f   ole32:ole32.dll
 0001:0002f175       OleRegEnumVerbs            0000000180030175 f   ole32:ole32.dll
 0001:0002f17b       CLSIDFromProgID            000000018003017b f   ole32:ole32.dll
 0001:0002f181       SysAllocString             0000000180030181 f   oleaut32:OLEAUT32.dll
 0001:0002f187       SysAllocStringLen          0000000180030187 f   oleaut32:OLEAUT32.dll
 0001:0002f18d       SysFreeString              000000018003018d f   oleaut32:OLEAUT32.dll
 0001:0002f193       SysStringLen               0000000180030193 f   oleaut32:OLEAUT32.dll
 0001:0002f199       VariantClear               0000000180030199 f   oleaut32:OLEAUT32.dll
 0001:0002f19f       VariantCopyInd             000000018003019f f   oleaut32:OLEAUT32.dll
 0001:0002f1a5       VariantChangeType          00000001800301a5 f   oleaut32:OLEAUT32.dll
 0001:0002f1ab       SysStringByteLen           00000001800301ab f   oleaut32:OLEAUT32.dll
 0001:0002f1b1       SysAllocStringByteLen      00000001800301b1 f   oleaut32:OLEAUT32.dll
 0001:0002f1b7       VariantInit                00000001800301b7 f   oleaut32:OLEAUT32.dll
 0001:0002f1bd       VarUI4FromStr              00000001800301bd f   oleaut32:OLEAUT32.dll
 0001:0002f1c3       LoadTypeLib                00000001800301c3 f   oleaut32:OLEAUT32.dll
 0001:0002f1c9       LoadRegTypeLib             00000001800301c9 f   oleaut32:OLEAUT32.dll
 0001:0002f1cf       RegisterTypeLib            00000001800301cf f   oleaut32:OLEAUT32.dll
 0001:0002f1d5       UnRegisterTypeLib          00000001800301d5 f   oleaut32:OLEAUT32.dll
 0001:0002f1db       OleCreatePropertyFrame     00000001800301db f   oleaut32:OLEAUT32.dll
 0001:0002f1f0       _RTC_AllocaHelper          00000001800301f0 f   LIBCMTD:stack.obj
 0001:0002f230       _RTC_CheckStackVars        0000000180030230 f   LIBCMTD:stack.obj
 0001:0002f2c0       _RTC_CheckStackVars2       00000001800302c0 f   LIBCMTD:stack.obj
 0001:0002f3d0       _CRT_RTC_INIT              00000001800303d0 f   LIBCMTD:init.obj
 0001:0002f3e0       _CRT_RTC_INITW             00000001800303e0 f   LIBCMTD:init.obj
 0001:0002f3f0       _RTC_InitBase              00000001800303f0 f   LIBCMTD:init.obj
 0001:0002f430       _RTC_Shutdown              0000000180030430 f   LIBCMTD:init.obj
 0001:0002f460       __GSHandlerCheck           0000000180030460 f   LIBCMTD:gshandler.obj
 0001:0002f4a0       __GSHandlerCheckCommon     00000001800304a0 f   LIBCMTD:gshandler.obj
 0001:0002f5b0       __security_check_cookie    00000001800305b0 f   LIBCMTD:amdsecgs.obj
 0001:0002f5d0       ??_U@YAPEAX_K@Z            00000001800305d0 f   LIBCMTD:new_array.obj
 0001:0002f5f0       ??3@YAXPEAX_K@Z            00000001800305f0 f   LIBCMTD:delete_scalar_size.obj
 0001:0002f610       ??_V@YAXPEAX@Z             0000000180030610 f   LIBCMTD:delete_array.obj
 0001:0002f630       ??_V@YAXPEAX_K@Z           0000000180030630 f   LIBCMTD:delete_array_size.obj
 0001:0002f650       ?configure_argv@__scrt_narrow_argv_policy@@SAHXZ 0000000180030650 f i LIBCMTD:utility.obj
 0001:0002f740       ?initialize_environment@__scrt_narrow_environment_policy@@SAHXZ 0000000180030740 f i LIBCMTD:utility.obj
 0001:0002f7e0       NtCurrentTeb               00000001800307e0 f i LIBCMTD:utility.obj
 0001:0002f7f0       __scrt_acquire_startup_lock 00000001800307f0 f   LIBCMTD:utility.obj
 0001:0002f860       __scrt_dllmain_after_initialize_c 0000000180030860 f   LIBCMTD:utility.obj
 0001:0002f890       __scrt_dllmain_before_initialize_c 0000000180030890 f   LIBCMTD:utility.obj
 0001:0002f8b0       __scrt_dllmain_crt_thread_attach 00000001800308b0 f   LIBCMTD:utility.obj
 0001:0002f8e0       __scrt_dllmain_crt_thread_detach 00000001800308e0 f   LIBCMTD:utility.obj
 0001:0002f900       __scrt_dllmain_exception_filter 0000000180030900 f   LIBCMTD:utility.obj
 0001:0002f970       __scrt_dllmain_uninitialize_c 0000000180030970 f   LIBCMTD:utility.obj
 0001:0002f9a0       __scrt_dllmain_uninitialize_critical 00000001800309a0 f   LIBCMTD:utility.obj
 0001:0002f9c0       __scrt_initialize_crt      00000001800309c0 f   LIBCMTD:utility.obj
 0001:0002fa10       __scrt_initialize_onexit_tables 0000000180030a10 f   LIBCMTD:utility.obj
 0001:0002fb20       __scrt_is_nonwritable_in_current_image 0000000180030b20 f   LIBCMTD:utility.obj
 0001:0002fbb0       __scrt_release_startup_lock 0000000180030bb0 f   LIBCMTD:utility.obj
 0001:0002fbe0       __scrt_uninitialize_crt    0000000180030be0 f   LIBCMTD:utility.obj
 0001:0002fc20       _onexit                    0000000180030c20 f   LIBCMTD:utility.obj
 0001:0002fca0       at_quick_exit              0000000180030ca0 f   LIBCMTD:utility.obj
 0001:0002fcf0       atexit                     0000000180030cf0 f   LIBCMTD:utility.obj
 0001:0002fd30       ??3@YAXPEAX@Z              0000000180030d30 f   LIBCMTD:delete_scalar.obj
 0001:0002fd50       __raise_securityfailure    0000000180030d50 f   LIBCMTD:gs_report.obj
 0001:0002fd90       __report_gsfailure         0000000180030d90 f   LIBCMTD:gs_report.obj
 0001:0002fe70       __report_rangecheckfailure 0000000180030e70 f   LIBCMTD:gs_report.obj
 0001:0002fe90       __report_securityfailure   0000000180030e90 f   LIBCMTD:gs_report.obj
 0001:0002ff30       __report_securityfailureEx 0000000180030f30 f   LIBCMTD:gs_report.obj
 0001:000302f0       _Init_thread_abort         00000001800312f0 f   LIBCMTD:thread_safe_statics.obj
 0001:00030320       _Init_thread_footer        0000000180031320 f   LIBCMTD:thread_safe_statics.obj
 0001:00030380       _Init_thread_header        0000000180031380 f   LIBCMTD:thread_safe_statics.obj
 0001:00030410       _Init_thread_lock          0000000180031410 f   LIBCMTD:thread_safe_statics.obj
 0001:00030430       _Init_thread_notify        0000000180031430 f   LIBCMTD:thread_safe_statics.obj
 0001:00030490       _Init_thread_unlock        0000000180031490 f   LIBCMTD:thread_safe_statics.obj
 0001:000304b0       _Init_thread_wait          00000001800314b0 f   LIBCMTD:thread_safe_statics.obj
 0001:00030560       ??2@YAPEAX_KAEBUnothrow_t@std@@@Z 0000000180031560 f   LIBCMTD:new_scalar_nothrow.obj
 0001:000305a0       ??_U@YAPEAX_KAEBUnothrow_t@std@@@Z 00000001800315a0 f   LIBCMTD:new_array_nothrow.obj
 0001:000305d0       __GSHandlerCheck_SEH       00000001800315d0 f   LIBCMTD:gshandlerseh.obj
 0001:000306a0       __chkstk                   00000001800316a0 f   LIBCMTD:chkstk.obj
 0001:000306a0       _alloca_probe              00000001800316a0 f   LIBCMTD:chkstk.obj
 0001:00030b00       _CRT_INIT                  0000000180031b00 f   LIBCMTD:dll_dllmain.obj
 0001:00030b30       _DllMainCRTStartup         0000000180031b30 f   LIBCMTD:dll_dllmain.obj
 0001:00030c00       ?_RTC_AllocaFailure@@YAXPEAXPEAU_RTC_ALLOCA_NODE@@H@Z 0000000180031c00 f   LIBCMTD:error.obj
 0001:00030d60       ?_RTC_Failure@@YAXPEAXH@Z  0000000180031d60 f   LIBCMTD:error.obj
 0001:00030db0       ?_RTC_StackFailure@@YAXPEAXPEBD@Z 0000000180031db0 f   LIBCMTD:error.obj
 0001:000311e0       _RTC_UninitUse             00000001800321e0 f   LIBCMTD:error.obj
 0001:000312b0       _vsprintf_s_l              00000001800322b0 f i LIBCMTD:error.obj
 0001:00031320       sprintf_s                  0000000180032320 f i LIBCMTD:error.obj
 0001:00031350       ?_RTC_GetErrorFunc@@YAP6AHHPEBDH00ZZPEBX@Z 0000000180032350 f   LIBCMTD:userapi.obj
 0001:00031360       ?_RTC_GetErrorFuncW@@YAP6AHHPEB_WH00ZZPEBX@Z 0000000180032360 f   LIBCMTD:userapi.obj
 0001:00031370       _RTC_GetErrDesc            0000000180032370 f   LIBCMTD:userapi.obj
 0001:00031390       _RTC_NumErrors             0000000180032390 f   LIBCMTD:userapi.obj
 0001:000313a0       _RTC_SetErrorFunc          00000001800323a0 f   LIBCMTD:userapi.obj
 0001:000313c0       _RTC_SetErrorFuncW         00000001800323c0 f   LIBCMTD:userapi.obj
 0001:000313e0       _RTC_SetErrorType          00000001800323e0 f   LIBCMTD:userapi.obj
 0001:00031400       ??2@YAPEAX_K@Z             0000000180032400 f   LIBCMTD:new_scalar.obj
 0001:00031450       __isa_available_init       0000000180032450 f   LIBCMTD:cpu_disp.obj
 0001:000317f0       _get_startup_argv_mode     00000001800327f0 f   LIBCMTD:argv_mode.obj
 0001:00031800       __scrt_is_ucrt_dll_in_use  0000000180032800 f   LIBCMTD:ucrt_detection.obj
 0001:00031830       __crt_debugger_hook        0000000180032830 f   LIBCMTD:utility_desktop.obj
 0001:00031840       __scrt_fastfail            0000000180032840 f   LIBCMTD:utility_desktop.obj
 0001:000319e0       __scrt_get_show_window_mode 00000001800329e0 f   LIBCMTD:utility_desktop.obj
 0001:00031a40       __scrt_initialize_mta      0000000180032a40 f   LIBCMTD:utility_desktop.obj
 0001:00031a50       __scrt_initialize_winrt    0000000180032a50 f   LIBCMTD:utility_desktop.obj
 0001:00031a60       __scrt_is_managed_app      0000000180032a60 f   LIBCMTD:utility_desktop.obj
 0001:00031b10       __scrt_set_unhandled_exception_filter 0000000180032b10 f   LIBCMTD:utility_desktop.obj
 0001:00031b30       __scrt_exe_initialize_mta  0000000180032b30 f   LIBCMTD:utility_desktop.obj
 0001:00031b30       __scrt_stub_for_initialize_mta 0000000180032b30 f   LIBCMTD:utility_desktop.obj
 0001:00031b40       __scrt_unhandled_exception_filter 0000000180032b40 f   LIBCMTD:utility_desktop.obj
 0001:00031be0       _guard_check_icall_nop     0000000180032be0 f i LIBCMTD:guard_support.obj
 0001:00031bf0       ReadNoFence64              0000000180032bf0 f i LIBCMTD:guard_support.obj
 0001:00031c10       ReadPointerNoFence         0000000180032c10 f i LIBCMTD:guard_support.obj
 0001:00031c30       __castguard_check_failure_debugbreak 0000000180032c30 f i LIBCMTD:guard_support.obj
 0001:00031c50       __castguard_check_failure_fastfail 0000000180032c50 f i LIBCMTD:guard_support.obj
 0001:00031c80       __castguard_check_failure_nop 0000000180032c80 f i LIBCMTD:guard_support.obj
 0001:00031c90       __castguard_check_failure_os_handled 0000000180032c90 f i LIBCMTD:guard_support.obj
 0001:00031d60       __castguard_slow_path_check_debugbreak 0000000180032d60 f i LIBCMTD:guard_support.obj
 0001:00031da0       __castguard_slow_path_check_fastfail 0000000180032da0 f i LIBCMTD:guard_support.obj
 0001:00031df0       __castguard_slow_path_check_nop 0000000180032df0 f i LIBCMTD:guard_support.obj
 0001:00031e00       __castguard_slow_path_check_os_handled 0000000180032e00 f i LIBCMTD:guard_support.obj
 0001:00031ec0       _guard_icall_checks_enforced 0000000180032ec0 f i LIBCMTD:guard_support.obj
 0001:00031f00       _guard_rf_checks_enforced  0000000180032f00 f i LIBCMTD:guard_support.obj
 0001:00031fd0       __security_init_cookie     0000000180032fd0 f   LIBCMTD:gs_support.obj
 0001:00032050       ?__scrt_initialize_type_info@@YAXXZ 0000000180033050 f   LIBCMTD:tncleanup.obj
 0001:00032070       ?__scrt_uninitialize_type_info@@YAXXZ 0000000180033070 f   LIBCMTD:tncleanup.obj
 0001:00032090       __local_stdio_scanf_options 0000000180033090 f i LIBCMTD:default_local_stdio_options.obj
 0001:000320a0       __scrt_initialize_default_local_stdio_options 00000001800330a0 f   LIBCMTD:default_local_stdio_options.obj
 0001:000320f0       __scrt_get_dyn_tls_init_callback 00000001800330f0 f   LIBCMTD:dyn_tls_init.obj
 0001:00032100       _RTC_Initialize            0000000180033100 f   LIBCMTD:initsect.obj
 0001:00032150       _RTC_Terminate             0000000180033150 f   LIBCMTD:initsect.obj
 0001:000326c0       ?_RTC_GetSrcLine@@YAHPEAEPEA_WKPEAH1K@Z 00000001800336c0 f   LIBCMTD:pdblkup.obj
 0001:00032a90       ??0bad_alloc@std@@AEAA@QEBD@Z 0000000180033a90 f i LIBCMTD:throw_bad_alloc.obj
 0001:00032ad0       ??0bad_alloc@std@@QEAA@AEBV01@@Z 0000000180033ad0 f i LIBCMTD:throw_bad_alloc.obj
 0001:00032b10       ??0bad_alloc@std@@QEAA@XZ  0000000180033b10 f i LIBCMTD:throw_bad_alloc.obj
 0001:00032b50       ??0bad_array_new_length@std@@QEAA@AEBV01@@Z 0000000180033b50 f i LIBCMTD:throw_bad_alloc.obj
 0001:00032b90       ??0bad_array_new_length@std@@QEAA@XZ 0000000180033b90 f i LIBCMTD:throw_bad_alloc.obj
 0001:00032bd0       ??0exception@std@@QEAA@AEBV01@@Z 0000000180033bd0 f i LIBCMTD:throw_bad_alloc.obj
 0001:00032c30       ??0exception@std@@QEAA@QEBDH@Z 0000000180033c30 f i LIBCMTD:throw_bad_alloc.obj
 0001:00032c80       ??1bad_alloc@std@@UEAA@XZ  0000000180033c80 f i LIBCMTD:throw_bad_alloc.obj
 0001:00032ca0       ??1bad_array_new_length@std@@UEAA@XZ 0000000180033ca0 f i LIBCMTD:throw_bad_alloc.obj
 0001:00032cc0       ??1exception@std@@UEAA@XZ  0000000180033cc0 f i LIBCMTD:throw_bad_alloc.obj
 0001:00032cf0       ??_Ebad_alloc@std@@UEAAPEAXI@Z 0000000180033cf0 f i LIBCMTD:throw_bad_alloc.obj
 0001:00032cf0       ??_Gbad_alloc@std@@UEAAPEAXI@Z 0000000180033cf0 f i LIBCMTD:throw_bad_alloc.obj
 0001:00032d30       ??_Gbad_array_new_length@std@@UEAAPEAXI@Z 0000000180033d30 f i LIBCMTD:throw_bad_alloc.obj
 0001:00032d30       ??_Ebad_array_new_length@std@@UEAAPEAXI@Z 0000000180033d30 f i LIBCMTD:throw_bad_alloc.obj
 0001:00032d70       ??_Gexception@std@@UEAAPEAXI@Z 0000000180033d70 f i LIBCMTD:throw_bad_alloc.obj
 0001:00032d70       ??_Eexception@std@@UEAAPEAXI@Z 0000000180033d70 f i LIBCMTD:throw_bad_alloc.obj
 0001:00032db0       ?__scrt_throw_std_bad_alloc@@YAXXZ 0000000180033db0 f   LIBCMTD:throw_bad_alloc.obj
 0001:00032de0       ?__scrt_throw_std_bad_array_new_length@@YAXXZ 0000000180033de0 f   LIBCMTD:throw_bad_alloc.obj
 0001:00032e10       ?what@exception@std@@UEBAPEBDXZ 0000000180033e10 f i LIBCMTD:throw_bad_alloc.obj
 0001:00032e50       ??1type_info@@UEAA@XZ      0000000180033e50 f   LIBCMTD:std_type_info_static.obj
 0001:00032e70       ??_Etype_info@@UEAAPEAXI@Z 0000000180033e70 f i LIBCMTD:std_type_info_static.obj
 0001:00032e70       ??_Gtype_info@@UEAAPEAXI@Z 0000000180033e70 f i LIBCMTD:std_type_info_static.obj
 0001:00032eac       ??$?2PEAUHINSTANCE__@@@Wrapper@?$CSimpleArray@PEAUHINSTANCE__@@V?$CSimpleArrayEqualHelper@PEAUHINSTANCE__@@@ATL@@@ATL@@SAPEAX_KPEAPEAUHINSTANCE__@@@Z 0000000180033eac f i atls:atlbase.obj
 0001:00032eb0       ??0?$CSimpleArray@PEAUHINSTANCE__@@V?$CSimpleArrayEqualHelper@PEAUHINSTANCE__@@@ATL@@@ATL@@QEAA@XZ 0000000180033eb0 f i atls:atlbase.obj
 0001:00032ec0       ??0CAtlBaseModule@ATL@@QEAA@XZ 0000000180033ec0 f   atls:atlbase.obj
 0001:00032f68       ??0Wrapper@?$CSimpleArray@PEAUHINSTANCE__@@V?$CSimpleArrayEqualHelper@PEAUHINSTANCE__@@@ATL@@@ATL@@QEAA@AEBQEAUHINSTANCE__@@@Z 0000000180033f68 f i atls:atlbase.obj
 0001:00032f74       ??0_ATL_BASE_MODULE70@ATL@@QEAA@XZ 0000000180033f74 f i atls:atlbase.obj
 0001:00032fa0       ??1?$CSimpleArray@PEAUHINSTANCE__@@V?$CSimpleArrayEqualHelper@PEAUHINSTANCE__@@@ATL@@@ATL@@QEAA@XZ 0000000180033fa0 f i atls:atlbase.obj
 0001:00032fc8       ??1CAtlBaseModule@ATL@@QEAA@XZ 0000000180033fc8 f   atls:atlbase.obj
 0001:00032ffc       ??1_ATL_BASE_MODULE70@ATL@@QEAA@XZ 0000000180033ffc f i atls:atlbase.obj
 0001:00033028       ??A?$CSimpleArray@PEAUHINSTANCE__@@V?$CSimpleArrayEqualHelper@PEAUHINSTANCE__@@@ATL@@@ATL@@QEAAAEAPEAUHINSTANCE__@@H@Z 0000000180034028 f i atls:atlbase.obj
 0001:00033054       ?Add@?$CSimpleArray@PEAUHINSTANCE__@@V?$CSimpleArrayEqualHelper@PEAUHINSTANCE__@@@ATL@@@ATL@@QEAAHAEBQEAUHINSTANCE__@@@Z 0000000180034054 f i atls:atlbase.obj
 0001:000330f4       ?AddResourceInstance@CAtlBaseModule@ATL@@QEAA_NPEAUHINSTANCE__@@@Z 00000001800340f4 f   atls:atlbase.obj
 0001:0003313c       ?GetHInstanceAt@CAtlBaseModule@ATL@@QEAAPEAUHINSTANCE__@@H@Z 000000018003413c f   atls:atlbase.obj
 0001:000331b4       ?GetSize@?$CSimpleArray@PEAUHINSTANCE__@@V?$CSimpleArrayEqualHelper@PEAUHINSTANCE__@@@ATL@@@ATL@@QEBAHXZ 00000001800341b4 f i atls:atlbase.obj
 0001:000331b8       ?InternalSetAtIndex@?$CSimpleArray@PEAUHINSTANCE__@@V?$CSimpleArrayEqualHelper@PEAUHINSTANCE__@@@ATL@@@ATL@@QEAAXHAEBQEAUHINSTANCE__@@@Z 00000001800341b8 f i atls:atlbase.obj
 0001:000331d0       ?RemoveAll@?$CSimpleArray@PEAUHINSTANCE__@@V?$CSimpleArrayEqualHelper@PEAUHINSTANCE__@@@ATL@@@ATL@@QEAAXXZ 00000001800341d0 f i atls:atlbase.obj
 0001:000331f8       ?RemoveAt@?$CSimpleArray@PEAUHINSTANCE__@@V?$CSimpleArrayEqualHelper@PEAUHINSTANCE__@@@ATL@@@ATL@@QEAAHH@Z 00000001800341f8 f i atls:atlbase.obj
 0001:00033290       ?RemoveResourceInstance@CAtlBaseModule@ATL@@QEAA_NPEAUHINSTANCE__@@@Z 0000000180034290 f   atls:atlbase.obj
 0001:00033318       ?memmove_s@Checked@ATL@@YAXPEAX_KPEBX1@Z 0000000180034318 f i atls:atlbase.obj
 0001:000337c0       ?GetCodeAddress@_stdcallthunk@ATL@@QEAAPEAXXZ 00000001800347c0 f i atls:atlthunk.obj
 0001:000337ec       ?Init@_stdcallthunk@ATL@@QEAAH_KPEAX@Z 00000001800347ec f i atls:atlthunk.obj
 0001:0003383c       ?__AllocStdCallThunk@@YAPEAXXZ 000000018003483c f   atls:atlthunk.obj
 0001:00033844       ?__AllocStdCallThunk@ATL@@YAPEAXXZ 0000000180034844 f   atls:atlthunk.obj
 0001:0003384c       ?__AllocStdCallThunk_cmn@@YAPEAXXZ 000000018003484c f   atls:atlthunk.obj
 0001:00033924       ?__FreeStdCallThunk@@YAXPEAX@Z 0000000180034924 f   atls:atlthunk.obj
 0001:00033944       ?__FreeStdCallThunk@ATL@@YAXPEAX@Z 0000000180034944 f   atls:atlthunk.obj
 0001:00033964       ?__FreeStdCallThunk_cmn@@YAXPEAX@Z 0000000180034964 f   atls:atlthunk.obj
 0001:00033a04       AtlThunk_AllocateData      0000000180034a04 f   atls:atlthunk.obj
 0001:00033a80       AtlThunk_DataToCode        0000000180034a80 f   atls:atlthunk.obj
 0001:00033ad4       AtlThunk_FreeData          0000000180034ad4 f   atls:atlthunk.obj
 0001:00033b34       AtlThunk_InitData          0000000180034b34 f   atls:atlthunk.obj
 0001:00033bf0       memset_repmovs             0000000180034bf0 f   libvcruntimed:memset.obj
 0001:00033c10       memset                     0000000180034c10 f   libvcruntimed:memset.obj
 0001:00033da0       ??$__crt_interlocked_exchange_pointer@$$A6AXXZP6AXXZ@@YAP6AXXZPEDS6AXXZQ6AXXZ@Z 0000000180034da0 f i libvcruntimed:purevirt.obj
 0001:00033dc0       ??$__crt_interlocked_read_pointer@$$A6AXXZ@@YAP6AXXZPEDS6AXXZ@Z 0000000180034dc0 f i libvcruntimed:purevirt.obj
 0001:00033de0       ?__crt_interlocked_read_64@@YA_JPED_J@Z 0000000180034de0 f i libvcruntimed:purevirt.obj
 0001:00033e00       _get_purecall_handler      0000000180034e00 f   libvcruntimed:purevirt.obj
 0001:00033e20       _purecall                  0000000180034e20 f   libvcruntimed:purevirt.obj
 0001:00033e60       _set_purecall_handler      0000000180034e60 f   libvcruntimed:purevirt.obj
 0001:00033e90       memcmp                     0000000180034e90 f   libvcruntimed:memcmp.obj
 0001:00033f70       memcpy_repmovs             0000000180034f70 f   libvcruntimed:memcpy.obj
 0001:00033f90       memcpy                     0000000180034f90 f   libvcruntimed:memcpy.obj
 0001:00033f90       memmove                    0000000180034f90 f   libvcruntimed:memcpy.obj
 0001:00034610       wcsstr                     0000000180035610 f   libvcruntimed:wcsstr.obj
 0001:00034c70       __vcrt_initialize          0000000180035c70 f   libvcruntimed:initialization.obj
 0001:00034cb0       __vcrt_thread_attach       0000000180035cb0 f   libvcruntimed:initialization.obj
 0001:00034cd0       __vcrt_thread_detach       0000000180035cd0 f   libvcruntimed:initialization.obj
 0001:00034cf0       __vcrt_uninitialize        0000000180035cf0 f   libvcruntimed:initialization.obj
 0001:00034d10       __vcrt_uninitialize_critical 0000000180035d10 f   libvcruntimed:initialization.obj
 0001:00034d30       __C_specific_handler       0000000180035d30 f   libvcruntimed:riscchandler.obj
 0001:000351a0       ??$?0AEAViterator@TryBlockMap4@FH4@@AEAV012@$0A@@?$pair@Viterator@TryBlockMap4@FH4@@V123@@std@@QEAA@AEAViterator@TryBlockMap4@FH4@@0@Z 00000001800361a0 f i libvcruntimed:risctrnsctrl.obj
 0001:00035200       ??$?0AEAViterator@TryBlockMap@__FrameHandler3@@AEAV012@$0A@@?$pair@Viterator@TryBlockMap@__FrameHandler3@@V123@@std@@QEAA@AEAViterator@TryBlockMap@__FrameHandler3@@0@Z 0000000180036200 f i libvcruntimed:risctrnsctrl.obj
 0001:000353d0       ??$_CallSETranslator@V__FrameHandler3@@@@YAHPEAUEHExceptionRecord@@PEA_KPEAU_CONTEXT@@PEAU_xDISPATCHER_CONTEXT@@PEBU_s_FuncInfo@@K1H@Z 00000001800363d0 f i libvcruntimed:risctrnsctrl.obj
 0001:00035460       ??$_CallSETranslator@V__FrameHandler4@@@@YAHPEAUEHExceptionRecord@@PEA_KPEAU_CONTEXT@@PEAU_xDISPATCHER_CONTEXT@@PEAUFuncInfo4@FH4@@K1H@Z 0000000180036460 f i libvcruntimed:risctrnsctrl.obj
 0001:000354f0       ??$forward@AEAViterator@TryBlockMap4@FH4@@@std@@YAAEAViterator@TryBlockMap4@FH4@@AEAV123@@Z 00000001800364f0 f i libvcruntimed:risctrnsctrl.obj
 0001:00035500       ??$forward@AEAViterator@TryBlockMap@__FrameHandler3@@@std@@YAAEAViterator@TryBlockMap@__FrameHandler3@@AEAV123@@Z 0000000180036500 f i libvcruntimed:risctrnsctrl.obj
 0001:00035510       ??0FuncInfo4@FH4@@QEAA@XZ  0000000180036510 f i libvcruntimed:risctrnsctrl.obj
 0001:00035580       ??0FuncInfoHeader@FH4@@QEAA@XZ 0000000180036580 f i libvcruntimed:risctrnsctrl.obj
 0001:000355a0       ??0iterator@TryBlockMap4@FH4@@QEAA@AEAV12@I@Z 00000001800365a0 f i libvcruntimed:risctrnsctrl.obj
 0001:000355d0       ??0iterator@TryBlockMap@__FrameHandler3@@QEAA@AEAV12@I@Z 00000001800365d0 f i libvcruntimed:risctrnsctrl.obj
 0001:00035600       ??4iterator@TryBlockMap4@FH4@@QEAAAEAV012@AEBV012@@Z 0000000180036600 f i libvcruntimed:risctrnsctrl.obj
 0001:00035620       ??9iterator@TryBlockMap4@FH4@@QEBA_NAEBV012@@Z 0000000180036620 f i libvcruntimed:risctrnsctrl.obj
 0001:00035660       ??Diterator@TryBlockMap4@FH4@@QEAA?AUTryBlockMapEntry4@2@XZ 0000000180036660 f i libvcruntimed:risctrnsctrl.obj
 0001:00035690       ??Eiterator@TryBlockMap4@FH4@@QEAAAEAV012@XZ 0000000180036690 f i libvcruntimed:risctrnsctrl.obj
 0001:000356d0       ?CatchTryBlock@__FrameHandler3@@SAPEBU_s_TryBlockMapEntry@@PEBU_s_FuncInfo@@H@Z 00000001800366d0 f   libvcruntimed:risctrnsctrl.obj
 0001:00035760       ?DecompFuncInfo@FH4@@YA_JPEAEAEAUFuncInfo4@1@_KH@Z 0000000180036760 f i libvcruntimed:risctrnsctrl.obj
 0001:000357a0       ?DecompFuncInfo@FH4@@YA_JPEAEAEAUFuncInfo4@1@_KH_N@Z 00000001800367a0 f i libvcruntimed:risctrnsctrl.obj
 0001:00035970       ?DecompTryBlock@TryBlockMap4@FH4@@AEAAXXZ 0000000180036970 f i libvcruntimed:risctrnsctrl.obj
 0001:000359f0       ?ExecutionInCatch@__FrameHandler3@@SA_NPEAU_xDISPATCHER_CONTEXT@@PEBU_s_FuncInfo@@@Z 00000001800369f0 f   libvcruntimed:risctrnsctrl.obj
 0001:00035a40       ?ExecutionInCatch@__FrameHandler4@@SA_NPEAU_xDISPATCHER_CONTEXT@@PEAUFuncInfo4@FH4@@@Z 0000000180036a40 f   libvcruntimed:risctrnsctrl.obj
 0001:00035a60       ?FrameUnwindToEmptyState@__FrameHandler3@@SAXPEA_KPEAU_xDISPATCHER_CONTEXT@@PEBU_s_FuncInfo@@@Z 0000000180036a60 f   libvcruntimed:risctrnsctrl.obj
 0001:00035b00       ?FrameUnwindToEmptyState@__FrameHandler4@@SAXPEA_KPEAU_xDISPATCHER_CONTEXT@@PEAUFuncInfo4@FH4@@@Z 0000000180036b00 f   libvcruntimed:risctrnsctrl.obj
 0001:00035b50       ?GetEstablisherFrame@__FrameHandler3@@SAPEA_KPEA_KPEAU_xDISPATCHER_CONTEXT@@PEBU_s_FuncInfo@@0@Z 0000000180036b50 f   libvcruntimed:risctrnsctrl.obj
 0001:00035cc0       ?GetEstablisherFrame@__FrameHandler4@@SAPEA_KPEA_KPEAU_xDISPATCHER_CONTEXT@@PEAUFuncInfo4@FH4@@0@Z 0000000180036cc0 f   libvcruntimed:risctrnsctrl.obj
 0001:00035d30       ?GetRangeOfTrysToCheck@__FrameHandler3@@SA?AU?$pair@Viterator@TryBlockMap@__FrameHandler3@@V123@@std@@AEAVTryBlockMap@1@HPEAU_xDISPATCHER_CONTEXT@@PEBU_s_FuncInfo@@H@Z 0000000180036d30 f   libvcruntimed:risctrnsctrl.obj
 0001:00035f70       ?GetRangeOfTrysToCheck@__FrameHandler4@@SA?AU?$pair@Viterator@TryBlockMap4@FH4@@V123@@std@@AEAVTryBlockMap4@FH4@@HPEAU_xDISPATCHER_CONTEXT@@PEAUFuncInfo4@5@H@Z 0000000180036f70 f   libvcruntimed:risctrnsctrl.obj
 0001:00036120       ?ReadInt@FH4@@YAHPEAPEAE@Z 0000000180037120 f i libvcruntimed:risctrnsctrl.obj
 0001:00036160       ?ReadUnsigned@FH4@@YAIPEAPEAE@Z 0000000180037160 f i libvcruntimed:risctrnsctrl.obj
 0001:000361f0       ?UnwindNestedFrames@__FrameHandler3@@SAXPEA_KPEAUEHExceptionRecord@@PEAU_CONTEXT@@0PEAXPEBU_s_FuncInfo@@HHPEBU_s_HandlerType@@PEAU_xDISPATCHER_CONTEXT@@E@Z 00000001800371f0 f   libvcruntimed:risctrnsctrl.obj
 0001:00036360       ?UnwindNestedFrames@__FrameHandler4@@SAXPEA_KPEAUEHExceptionRecord@@PEAU_CONTEXT@@0PEAXPEAUFuncInfo4@FH4@@HHPEAUHandlerType4@5@PEAU_xDISPATCHER_CONTEXT@@E@Z 0000000180037360 f   libvcruntimed:risctrnsctrl.obj
 0001:00036530       ?begin@TryBlockMap4@FH4@@QEAA?AViterator@12@XZ 0000000180037530 f i libvcruntimed:risctrnsctrl.obj
 0001:00036560       ?end@TryBlockMap4@FH4@@QEAA?AViterator@12@XZ 0000000180037560 f i libvcruntimed:risctrnsctrl.obj
 0001:00036590       ?imageRelToByteBuffer@FH4@@YAPEAE_KH@Z 0000000180037590 f i libvcruntimed:risctrnsctrl.obj
 0001:000365b0       ?incrementToSentinel@iterator@TryBlockMap4@FH4@@QEAAXXZ 00000001800375b0 f i libvcruntimed:risctrnsctrl.obj
 0001:000365d0       ?setBuffer@TryBlockMap4@FH4@@QEAAXViterator@12@@Z 00000001800375d0 f i libvcruntimed:risctrnsctrl.obj
 0001:00036640       _CreateFrameInfo           0000000180037640 f   libvcruntimed:risctrnsctrl.obj
 0001:000366b0       _FindAndUnlinkFrame        00000001800376b0 f   libvcruntimed:risctrnsctrl.obj
 0001:00036730       _GetImageBase              0000000180037730 f   libvcruntimed:risctrnsctrl.obj
 0001:00036750       _GetThrowImageBase         0000000180037750 f   libvcruntimed:risctrnsctrl.obj
 0001:00036770       _SetImageBase              0000000180037770 f   libvcruntimed:risctrnsctrl.obj
 0001:00036790       _SetThrowImageBase         0000000180037790 f   libvcruntimed:risctrnsctrl.obj
 0001:000367b0       __CxxFrameHandler          00000001800377b0 f   libvcruntimed:risctrnsctrl.obj
 0001:000367f0       __CxxFrameHandler2         00000001800377f0 f   libvcruntimed:risctrnsctrl.obj
 0001:00036830       __CxxFrameHandler3         0000000180037830 f   libvcruntimed:risctrnsctrl.obj
 0001:00036910       __CxxFrameHandler4         0000000180037910 f   libvcruntimed:risctrnsctrl.obj
 0001:00036a20       __C_specific_handler_noexcept 0000000180037a20 f   libvcruntimed:chandler_noexcept.obj
 0001:00036ab0       __DestructExceptionObject  0000000180037ab0 f   libvcruntimed:ehhelpers.obj
 0001:00036bb0       ?_CallMemberFunction0@@YAXQEAX0@Z 0000000180037bb0 f i libvcruntimed:ehhelpers.obj
 0001:00036c80       ?raw_name@type_info@@QEBAPEBDXZ 0000000180037c80 f i libvcruntimed:ehhelpers.obj
 0001:00036c90       _IsExceptionObjectToBeDestroyed 0000000180037c90 f   libvcruntimed:ehhelpers.obj
 0001:00036ce0       _SetWinRTOutOfMemoryExceptionCallback 0000000180037ce0 f   libvcruntimed:ehhelpers.obj
 0001:00036d00       __AdjustPointer            0000000180037d00 f   libvcruntimed:ehhelpers.obj
 0001:00036d80       __FrameUnwindFilter        0000000180037d80 f   libvcruntimed:ehhelpers.obj
 0001:00036e30       __GetPlatformExceptionInfo 0000000180037e30 f   libvcruntimed:ehhelpers.obj
 0001:00036ee0       __current_exception        0000000180037ee0 f   libvcruntimed:ehhelpers.obj
 0001:00036f00       __current_exception_context 0000000180037f00 f   libvcruntimed:ehhelpers.obj
 0001:00036f20       __processing_throw         0000000180037f20 f   libvcruntimed:ehhelpers.obj
 0001:00036f40       __std_terminate            0000000180037f40 f   libvcruntimed:ehhelpers.obj
 0001:00036f50       _is_exception_typeof       0000000180037f50 f   libvcruntimed:ehhelpers.obj
 0001:000370e0       ??$?RD@__crt_internal_free_policy@@QEBAXQEBD@Z 00000001800380e0 f i libvcruntimed:std_type_info.obj
 0001:00037110       ??$?RX@__crt_internal_free_policy@@QEBAXQEBX@Z 0000000180038110 f i libvcruntimed:std_type_info.obj
 0001:00037140       ??$__crt_interlocked_compare_exchange_pointer@$$CBDPEAD$$T@@YAPEBDPEDSEBDQEAD$$T@Z 0000000180038140 f i libvcruntimed:std_type_info.obj
 0001:00037180       ??$__crt_interlocked_read_pointer@$$CBD@@YAPEBDPEDSEBD@Z 0000000180038180 f i libvcruntimed:std_type_info.obj
 0001:000371a0       ??0?$__crt_unique_heap_ptr@DU__crt_internal_free_policy@@@@QEAA@QEAD@Z 00000001800381a0 f i libvcruntimed:std_type_info.obj
 0001:000371c0       ??0?$__crt_unique_heap_ptr@XU__crt_internal_free_policy@@@@QEAA@QEAX@Z 00000001800381c0 f i libvcruntimed:std_type_info.obj
 0001:000371e0       ??1?$__crt_unique_heap_ptr@DU__crt_internal_free_policy@@@@QEAA@XZ 00000001800381e0 f i libvcruntimed:std_type_info.obj
 0001:00037200       ??1?$__crt_unique_heap_ptr@XU__crt_internal_free_policy@@@@QEAA@XZ 0000000180038200 f i libvcruntimed:std_type_info.obj
 0001:00037220       ??B?$__crt_unique_heap_ptr@DU__crt_internal_free_policy@@@@QEBA_NXZ 0000000180038220 f i libvcruntimed:std_type_info.obj
 0001:00037240       ??B?$__crt_unique_heap_ptr@XU__crt_internal_free_policy@@@@QEBA_NXZ 0000000180038240 f i libvcruntimed:std_type_info.obj
 0001:000372e0       ?detach@?$__crt_unique_heap_ptr@XU__crt_internal_free_policy@@@@QEAAPEAXXZ 00000001800382e0 f i libvcruntimed:std_type_info.obj
 0001:00037310       ?get@?$__crt_unique_heap_ptr@DU__crt_internal_free_policy@@@@QEBAPEADXZ 0000000180038310 f i libvcruntimed:std_type_info.obj
 0001:00037320       ?get@?$__crt_unique_heap_ptr@XU__crt_internal_free_policy@@@@QEBAPEAXXZ 0000000180038320 f i libvcruntimed:std_type_info.obj
 0001:00037330       ?is_valid@?$__crt_unique_heap_ptr@DU__crt_internal_free_policy@@@@QEBA_NXZ 0000000180038330 f i libvcruntimed:std_type_info.obj
 0001:00037360       ?is_valid@?$__crt_unique_heap_ptr@XU__crt_internal_free_policy@@@@QEBA_NXZ 0000000180038360 f i libvcruntimed:std_type_info.obj
 0001:00037390       ?release@?$__crt_unique_heap_ptr@DU__crt_internal_free_policy@@@@QEAAXXZ 0000000180038390 f i libvcruntimed:std_type_info.obj
 0001:000373c0       ?release@?$__crt_unique_heap_ptr@XU__crt_internal_free_policy@@@@QEAAXXZ 00000001800383c0 f i libvcruntimed:std_type_info.obj
 0001:000373f0       __std_type_info_compare    00000001800383f0 f   libvcruntimed:std_type_info.obj
 0001:00037430       __std_type_info_destroy_list 0000000180038430 f   libvcruntimed:std_type_info.obj
 0001:00037490       __std_type_info_hash       0000000180038490 f   libvcruntimed:std_type_info.obj
 0001:00037540       __std_type_info_name       0000000180038540 f   libvcruntimed:std_type_info.obj
 0001:000377f0       __vcrt_GetModuleFileNameW  00000001800387f0 f   libvcruntimed:winapi_thunks.obj
 0001:00037820       __vcrt_GetModuleHandleW    0000000180038820 f   libvcruntimed:winapi_thunks.obj
 0001:00037840       __vcrt_LoadLibraryExW      0000000180038840 f   libvcruntimed:winapi_thunks.obj
 0001:00037870       ??$?RD@__crt_public_free_policy@@QEBAXQEBD@Z 0000000180038870 f i libvcruntimed:std_exception.obj
 0001:00037890       ??0?$__crt_unique_heap_ptr@DU__crt_public_free_policy@@@@QEAA@QEAD@Z 0000000180038890 f i libvcruntimed:std_exception.obj
 0001:000378b0       ??1?$__crt_unique_heap_ptr@DU__crt_public_free_policy@@@@QEAA@XZ 00000001800388b0 f i libvcruntimed:std_exception.obj
 0001:000378d0       ??B?$__crt_unique_heap_ptr@DU__crt_public_free_policy@@@@QEBA_NXZ 00000001800388d0 f i libvcruntimed:std_exception.obj
 0001:000378f0       ?detach@?$__crt_unique_heap_ptr@DU__crt_public_free_policy@@@@QEAAPEADXZ 00000001800388f0 f i libvcruntimed:std_exception.obj
 0001:00037920       ?get@?$__crt_unique_heap_ptr@DU__crt_public_free_policy@@@@QEBAPEADXZ 0000000180038920 f i libvcruntimed:std_exception.obj
 0001:00037930       ?is_valid@?$__crt_unique_heap_ptr@DU__crt_public_free_policy@@@@QEBA_NXZ 0000000180038930 f i libvcruntimed:std_exception.obj
 0001:00037960       ?release@?$__crt_unique_heap_ptr@DU__crt_public_free_policy@@@@QEAAXXZ 0000000180038960 f i libvcruntimed:std_exception.obj
 0001:00037990       __std_exception_copy       0000000180038990 f   libvcruntimed:std_exception.obj
 0001:00037ad0       __std_exception_destroy    0000000180038ad0 f   libvcruntimed:std_exception.obj
 0001:00037b10       _CxxThrowException         0000000180038b10 f   libvcruntimed:throw.obj
 0001:00037c40       ??$?RU__vcrt_ptd@@@__crt_internal_free_policy@@QEBAXQEBU__vcrt_ptd@@@Z 0000000180038c40 f i libvcruntimed:per_thread_data.obj
 0001:00037c70       ??0?$__crt_unique_heap_ptr@U__vcrt_ptd@@U__crt_internal_free_policy@@@@QEAA@QEAU__vcrt_ptd@@@Z 0000000180038c70 f i libvcruntimed:per_thread_data.obj
 0001:00037cb0       ??1?$__crt_unique_heap_ptr@U__vcrt_ptd@@U__crt_internal_free_policy@@@@QEAA@XZ 0000000180038cb0 f i libvcruntimed:per_thread_data.obj
 0001:00037cf0       ??B?$__crt_unique_heap_ptr@U__vcrt_ptd@@U__crt_internal_free_policy@@@@QEBA_NXZ 0000000180038cf0 f i libvcruntimed:per_thread_data.obj
 0001:00037d10       ?detach@?$__crt_unique_heap_ptr@U__vcrt_ptd@@U__crt_internal_free_policy@@@@QEAAPEAU__vcrt_ptd@@XZ 0000000180038d10 f i libvcruntimed:per_thread_data.obj
 0001:00037d40       ?get@?$__crt_unique_heap_ptr@U__vcrt_ptd@@U__crt_internal_free_policy@@@@QEBAPEAU__vcrt_ptd@@XZ 0000000180038d40 f i libvcruntimed:per_thread_data.obj
 0001:00037d50       ?is_valid@?$__crt_unique_heap_ptr@U__vcrt_ptd@@U__crt_internal_free_policy@@@@QEBA_NXZ 0000000180038d50 f i libvcruntimed:per_thread_data.obj
 0001:00037d80       ?release@?$__crt_unique_heap_ptr@U__vcrt_ptd@@U__crt_internal_free_policy@@@@QEAAXXZ 0000000180038d80 f i libvcruntimed:per_thread_data.obj
 0001:00037df0       __vcrt_freefls             0000000180038df0 f   libvcruntimed:per_thread_data.obj
 0001:00037e30       __vcrt_freeptd             0000000180038e30 f   libvcruntimed:per_thread_data.obj
 0001:00037e90       __vcrt_getptd              0000000180038e90 f   libvcruntimed:per_thread_data.obj
 0001:00037ec0       __vcrt_getptd_noexit       0000000180038ec0 f   libvcruntimed:per_thread_data.obj
 0001:00038060       __vcrt_getptd_noinit       0000000180039060 f   libvcruntimed:per_thread_data.obj
 0001:000380c0       __vcrt_initialize_ptd      00000001800390c0 f   libvcruntimed:per_thread_data.obj
 0001:00038110       __vcrt_uninitialize_ptd    0000000180039110 f   libvcruntimed:per_thread_data.obj
 0001:00038140       __vcrt_initialize_locks    0000000180039140 f   libvcruntimed:locks.obj
 0001:000381b0       __vcrt_lock                00000001800391b0 f   libvcruntimed:locks.obj
 0001:000381e0       __vcrt_uninitialize_locks  00000001800391e0 f   libvcruntimed:locks.obj
 0001:00038240       __vcrt_unlock              0000000180039240 f   libvcruntimed:locks.obj
 0001:00038280       _NLG_Notify                0000000180039280 f   libvcruntimed:notify.obj
 0001:000382a0       __NLG_Dispatch2            00000001800392a0 f   libvcruntimed:notify.obj
 0001:000382b0       __NLG_Return2              00000001800392b0 f   libvcruntimed:notify.obj
 0001:000382d0       __except_validate_context_record 00000001800392d0 f   libvcruntimed:jbcxrval.obj
 0001:00038330       __except_validate_jump_buffer 0000000180039330 f   libvcruntimed:jbcxrval.obj
 0001:00038350       __except_validate_jump_buffer_common 0000000180039350 f i libvcruntimed:jbcxrval.obj
 0001:000383d0       ?GetCurrentState@__FrameHandler3@@SAHPEA_KPEAU_xDISPATCHER_CONTEXT@@PEBU_s_FuncInfo@@@Z 00000001800393d0 f   libvcruntimed:ehstate.obj
 0001:00038430       ?GetUnwindTryBlock@__FrameHandler3@@SAHPEA_KPEAU_xDISPATCHER_CONTEXT@@PEBU_s_FuncInfo@@@Z 0000000180039430 f   libvcruntimed:ehstate.obj
 0001:00038480       ?SetState@__FrameHandler3@@SAXPEA_KPEBU_s_FuncInfo@@H@Z 0000000180039480 f   libvcruntimed:ehstate.obj
 0001:000384b0       ?SetUnwindTryBlock@__FrameHandler3@@SAXPEA_KPEAU_xDISPATCHER_CONTEXT@@PEBU_s_FuncInfo@@H@Z 00000001800394b0 f   libvcruntimed:ehstate.obj
 0001:00038520       ?StateFromControlPc@__FrameHandler3@@SAHPEBU_s_FuncInfo@@PEAU_xDISPATCHER_CONTEXT@@@Z 0000000180039520 f   libvcruntimed:ehstate.obj
 0001:00038560       ?StateFromControlPc@__FrameHandler4@@SAHPEAUFuncInfo4@FH4@@PEAU_xDISPATCHER_CONTEXT@@@Z 0000000180039560 f   libvcruntimed:ehstate.obj
 0001:000385a0       ?StateFromIp@__FrameHandler3@@SAHPEBU_s_FuncInfo@@PEAU_xDISPATCHER_CONTEXT@@_K@Z 00000001800395a0 f   libvcruntimed:ehstate.obj
 0001:00038690       ?StateFromIp@__FrameHandler4@@SAHPEAUFuncInfo4@FH4@@PEAU_xDISPATCHER_CONTEXT@@_K@Z 0000000180039690 f   libvcruntimed:ehstate.obj
 0001:00038780       ?__FuncRelToRealOffset@@YA_KPEAU_xDISPATCHER_CONTEXT@@I@Z 0000000180039780 f i libvcruntimed:ehstate.obj
 0001:000387b0       ?__RVAtoRealOffset@@YA_KPEAU_xDISPATCHER_CONTEXT@@H@Z 00000001800397b0 f i libvcruntimed:ehstate.obj
 0001:0003aa10       ??$TypeMatchHelper@V__FrameHandler3@@@@YAHPEBU_s_HandlerType@@PEBU_s_CatchableType@@PEBU_s_ThrowInfo@@@Z 000000018003ba10 f i libvcruntimed:frame.obj
 0001:0003ac10       ??$TypeMatchHelper@V__FrameHandler4@@@@YAHPEAUHandlerType4@FH4@@PEBU_s_CatchableType@@PEBU_s_ThrowInfo@@@Z 000000018003bc10 f i libvcruntimed:frame.obj
 0001:0003ae20       ??$__InternalCxxFrameHandler@V__FrameHandler3@@@@YA?AW4_EXCEPTION_DISPOSITION@@PEAUEHExceptionRecord@@PEA_KPEAU_CONTEXT@@PEAU_xDISPATCHER_CONTEXT@@PEBU_s_FuncInfo@@H1E@Z 000000018003be20 f i libvcruntimed:frame.obj
 0001:0003b290       ??$__InternalCxxFrameHandler@V__FrameHandler4@@@@YA?AW4_EXCEPTION_DISPOSITION@@PEAUEHExceptionRecord@@PEA_KPEAU_CONTEXT@@PEAU_xDISPATCHER_CONTEXT@@PEAUFuncInfo4@FH4@@H1E@Z 000000018003c290 f i libvcruntimed:frame.obj
 0001:0003b720       ??0HandlerMap4@FH4@@QEAA@PEBUTryBlockMapEntry4@1@_KH@Z 000000018003c720 f i libvcruntimed:frame.obj
 0001:0003b7e0       ??0HandlerMap@__FrameHandler3@@QEAA@PEBU_s_TryBlockMapEntry@@_KI@Z 000000018003c7e0 f i libvcruntimed:frame.obj
 0001:0003b830       ??0HandlerType4@FH4@@QEAA@XZ 000000018003c830 f i libvcruntimed:frame.obj
 0001:0003b850       ??0TryBlockMap4@FH4@@QEAA@PEBUFuncInfo4@1@_K@Z 000000018003c850 f i libvcruntimed:frame.obj
 0001:0003b8e0       ??0TryBlockMap@__FrameHandler3@@QEAA@PEBU_s_FuncInfo@@_K@Z 000000018003c8e0 f i libvcruntimed:frame.obj
 0001:0003b910       ??0UWMap4@FH4@@QEAA@PEBUFuncInfo4@1@_K@Z 000000018003c910 f i libvcruntimed:frame.obj
 0001:0003b980       ??0bad_exception@std@@QEAA@AEBV01@@Z 000000018003c980 f i libvcruntimed:frame.obj
 0001:0003b9c0       ??0bad_exception@std@@QEAA@XZ 000000018003c9c0 f i libvcruntimed:frame.obj
 0001:0003ba00       ??0iterator@HandlerMap4@FH4@@QEAA@AEAV12@I@Z 000000018003ca00 f i libvcruntimed:frame.obj
 0001:0003ba30       ??0iterator@HandlerMap@__FrameHandler3@@QEAA@AEAV12@I@Z 000000018003ca30 f i libvcruntimed:frame.obj
 0001:0003ba60       ??0iterator@UWMap4@FH4@@QEAA@AEAV12@PEAE@Z 000000018003ca60 f i libvcruntimed:frame.obj
 0001:0003ba90       ??1bad_exception@std@@UEAA@XZ 000000018003ca90 f i libvcruntimed:frame.obj
 0001:0003bab0       ??4iterator@UWMap4@FH4@@QEAAAEAV012@AEBV012@@Z 000000018003cab0 f i libvcruntimed:frame.obj
 0001:0003bb00       ??8iterator@HandlerMap4@FH4@@QEBA_NAEBV012@@Z 000000018003cb00 f i libvcruntimed:frame.obj
 0001:0003bb40       ??8iterator@HandlerMap@__FrameHandler3@@QEBA_NAEBV012@@Z 000000018003cb40 f i libvcruntimed:frame.obj
 0001:0003bb80       ??8type_info@@QEBA_NAEBV0@@Z 000000018003cb80 f i libvcruntimed:frame.obj
 0001:0003bbd0       ??9iterator@HandlerMap4@FH4@@QEBA_NAEBV012@@Z 000000018003cbd0 f i libvcruntimed:frame.obj
 0001:0003bc10       ??9iterator@HandlerMap@__FrameHandler3@@QEBA_NAEBV012@@Z 000000018003cc10 f i libvcruntimed:frame.obj
 0001:0003bc50       ??Diterator@HandlerMap4@FH4@@QEAA?AUHandlerType4@2@XZ 000000018003cc50 f i libvcruntimed:frame.obj
 0001:0003bc80       ??Diterator@HandlerMap@__FrameHandler3@@QEAA?BU_s_HandlerType@@XZ 000000018003cc80 f i libvcruntimed:frame.obj
 0001:0003bcc0       ??Diterator@TryBlockMap@__FrameHandler3@@QEAA?BU_s_TryBlockMapEntry@@XZ 000000018003ccc0 f i libvcruntimed:frame.obj
 0001:0003bd10       ??Diterator@UWMap4@FH4@@QEAA?AUUnwindMapEntry4@2@XZ 000000018003cd10 f i libvcruntimed:frame.obj
 0001:0003bd90       ??Eiterator@HandlerMap4@FH4@@QEAAAEAV012@XZ 000000018003cd90 f i libvcruntimed:frame.obj
 0001:0003bdd0       ??Eiterator@HandlerMap@__FrameHandler3@@QEAAAEAV012@XZ 000000018003cdd0 f i libvcruntimed:frame.obj
 0001:0003bdf0       ??Eiterator@TryBlockMap@__FrameHandler3@@QEAAAEAV012@XZ 000000018003cdf0 f i libvcruntimed:frame.obj
 0001:0003be10       ??Eiterator@UWMap4@FH4@@QEAAAEAV012@XZ 000000018003ce10 f i libvcruntimed:frame.obj
 0001:0003be50       ??Giterator@UWMap4@FH4@@QEBA_JAEBV012@@Z 000000018003ce50 f i libvcruntimed:frame.obj
 0001:0003be70       ??Miterator@TryBlockMap4@FH4@@QEBA_NAEBV012@@Z 000000018003ce70 f i libvcruntimed:frame.obj
 0001:0003beb0       ??Miterator@TryBlockMap@__FrameHandler3@@QEBA_NAEBV012@@Z 000000018003ceb0 f i libvcruntimed:frame.obj
 0001:0003bef0       ??Oiterator@UWMap4@FH4@@QEBA_NAEBV012@@Z 000000018003cef0 f i libvcruntimed:frame.obj
 0001:0003bf30       ??Piterator@UWMap4@FH4@@QEBA_NAEBV012@@Z 000000018003cf30 f i libvcruntimed:frame.obj
 0001:0003bf70       ??_Ebad_exception@std@@UEAAPEAXI@Z 000000018003cf70 f i libvcruntimed:frame.obj
 0001:0003bf70       ??_Gbad_exception@std@@UEAAPEAXI@Z 000000018003cf70 f i libvcruntimed:frame.obj
 0001:0003bfb0       ?BuildCatchObject@__FrameHandler3@@SAXPEAUEHExceptionRecord@@PEAXPEBU_s_HandlerType@@PEBU_s_CatchableType@@@Z 000000018003cfb0 f   libvcruntimed:frame.obj
 0001:0003bff0       ?BuildCatchObject@__FrameHandler4@@SAXPEAUEHExceptionRecord@@PEAXPEAUHandlerType4@FH4@@PEBU_s_CatchableType@@@Z 000000018003cff0 f   libvcruntimed:frame.obj
 0001:0003c030       ?BuildCatchObjectHelper@__FrameHandler3@@SAHPEAUEHExceptionRecord@@PEAXPEBU_s_HandlerType@@PEBU_s_CatchableType@@@Z 000000018003d030 f   libvcruntimed:frame.obj
 0001:0003c070       ?BuildCatchObjectHelper@__FrameHandler4@@SAHPEAUEHExceptionRecord@@PEAXPEAUHandlerType4@FH4@@PEBU_s_CatchableType@@@Z 000000018003d070 f   libvcruntimed:frame.obj
 0001:0003c0b0       ?CxxCallCatchBlock@__FrameHandler3@@SAPEAXPEAU_EXCEPTION_RECORD@@@Z 000000018003d0b0 f   libvcruntimed:frame.obj
 0001:0003c310       ?CxxCallCatchBlock@__FrameHandler4@@SAPEAXPEAU_EXCEPTION_RECORD@@@Z 000000018003d310 f   libvcruntimed:frame.obj
 0001:0003c640       ?DecompHandler@HandlerMap4@FH4@@AEAAXXZ 000000018003d640 f i libvcruntimed:frame.obj
 0001:0003ca10       ?FrameUnwindToState@__FrameHandler3@@SAXPEA_KPEAU_xDISPATCHER_CONTEXT@@PEBU_s_FuncInfo@@H@Z 000000018003da10 f   libvcruntimed:frame.obj
 0001:0003cc60       ?FrameUnwindToState@__FrameHandler4@@SAXPEA_KPEAU_xDISPATCHER_CONTEXT@@PEAUFuncInfo4@FH4@@H@Z 000000018003dc60 f   libvcruntimed:frame.obj
 0001:0003cf70       ?GetHandlerSearchState@__FrameHandler3@@SAHPEA_KPEAU_xDISPATCHER_CONTEXT@@PEBU_s_FuncInfo@@@Z 000000018003df70 f i libvcruntimed:frame.obj
 0001:0003d020       ?GetHandlerSearchState@__FrameHandler4@@SAHPEA_KPEAU_xDISPATCHER_CONTEXT@@PEAUFuncInfo4@FH4@@@Z 000000018003e020 f i libvcruntimed:frame.obj
 0001:0003d0a0       ?GetMaxState@__FrameHandler3@@SAHPEAU_xDISPATCHER_CONTEXT@@PEBU_s_FuncInfo@@@Z 000000018003e0a0 f i libvcruntimed:frame.obj
 0001:0003d0c0       ?GetMaxState@__FrameHandler4@@SAHPEAU_xDISPATCHER_CONTEXT@@PEAUFuncInfo4@FH4@@@Z 000000018003e0c0 f i libvcruntimed:frame.obj
 0001:0003d2f0       ?ReadEntry@UWMap4@FH4@@AEAAXPEAPEAE@Z 000000018003e2f0 f i libvcruntimed:frame.obj
 0001:0003d3a0       ?TypeMatch@__FrameHandler3@@SAHPEBU_s_HandlerType@@PEBU_s_CatchableType@@PEBU_s_ThrowInfo@@@Z 000000018003e3a0 f   libvcruntimed:frame.obj
 0001:0003d3d0       ?TypeMatch@__FrameHandler4@@SAHPEAUHandlerType4@FH4@@PEBU_s_CatchableType@@PEBU_s_ThrowInfo@@@Z 000000018003e3d0 f   libvcruntimed:frame.obj
 0001:0003d400       ?WalkBack@UWMap4@FH4@@AEAAXPEAPEAE@Z 000000018003e400 f i libvcruntimed:frame.obj
 0001:0003d450       ?WalkBack@iterator@UWMap4@FH4@@QEAAXXZ 000000018003e450 f i libvcruntimed:frame.obj
 0001:0003d490       ?WalkForward@UWMap4@FH4@@AEAAXPEAPEAE@Z 000000018003e490 f i libvcruntimed:frame.obj
 0001:0003d4c0       ?_CallMemberFunction1@@YAXQEAX00@Z 000000018003e4c0 f i libvcruntimed:frame.obj
 0001:0003d500       ?_CallMemberFunction2@@YAXQEAX00H@Z 000000018003e500 f i libvcruntimed:frame.obj
 0001:0003d590       ?begin@HandlerMap4@FH4@@QEAA?AViterator@12@XZ 000000018003e590 f i libvcruntimed:frame.obj
 0001:0003d5c0       ?begin@HandlerMap@__FrameHandler3@@QEAA?AViterator@12@XZ 000000018003e5c0 f i libvcruntimed:frame.obj
 0001:0003d5f0       ?begin@UWMap4@FH4@@QEAA?AViterator@12@XZ 000000018003e5f0 f i libvcruntimed:frame.obj
 0001:0003d620       ?end@HandlerMap4@FH4@@QEAA?AViterator@12@XZ 000000018003e620 f i libvcruntimed:frame.obj
 0001:0003d650       ?end@HandlerMap@__FrameHandler3@@QEAA?AViterator@12@XZ 000000018003e650 f i libvcruntimed:frame.obj
 0001:0003d680       ?getESTypes@__FrameHandler3@@SAPEBU_s_ESTypeList@@PEBU_s_FuncInfo@@@Z 000000018003e680 f i libvcruntimed:frame.obj
 0001:0003d6c0       ?getESTypes@__FrameHandler4@@SAPEBU_s_ESTypeList@@PEAUFuncInfo4@FH4@@@Z 000000018003e6c0 f i libvcruntimed:frame.obj
 0001:0003d6d0       ?getLastEntry@HandlerMap4@FH4@@QEAAPEAUHandlerType4@2@XZ 000000018003e6d0 f i libvcruntimed:frame.obj
 0001:0003d710       ?getLastEntry@HandlerMap@__FrameHandler3@@QEAAPEBU_s_HandlerType@@XZ 000000018003e710 f i libvcruntimed:frame.obj
 0001:0003d730       ?getMagicNum@__FrameHandler3@@SAIPEBU_s_FuncInfo@@@Z 000000018003e730 f i libvcruntimed:frame.obj
 0001:0003d750       ?getMagicNum@__FrameHandler4@@SAIPEAUFuncInfo4@FH4@@@Z 000000018003e750 f i libvcruntimed:frame.obj
 0001:0003d760       ?getNumTryBlocks@TryBlockMap4@FH4@@QEAAIXZ 000000018003e760 f i libvcruntimed:frame.obj
 0001:0003d770       ?getNumTryBlocks@TryBlockMap@__FrameHandler3@@QEAAIXZ 000000018003e770 f i libvcruntimed:frame.obj
 0001:0003d790       ?getStartStop@UWMap4@FH4@@QEAAXHHAEAViterator@12@0@Z 000000018003e790 f i libvcruntimed:frame.obj
 0001:0003d8b0       ?getStateFromIterators@UWMap4@FH4@@SAHAEBViterator@12@H0H0@Z 000000018003e8b0 f i libvcruntimed:frame.obj
 0001:0003d9f0       ?isEHs@__FrameHandler3@@SA_NPEBU_s_FuncInfo@@@Z 000000018003e9f0 f i libvcruntimed:frame.obj
 0001:0003da30       ?isEHs@__FrameHandler4@@SA_NPEAUFuncInfo4@FH4@@@Z 000000018003ea30 f i libvcruntimed:frame.obj
 0001:0003da50       ?isNoExcept@__FrameHandler3@@SA_NPEBU_s_FuncInfo@@@Z 000000018003ea50 f i libvcruntimed:frame.obj
 0001:0003da90       ?isNoExcept@__FrameHandler4@@SA_NPEAUFuncInfo4@FH4@@@Z 000000018003ea90 f i libvcruntimed:frame.obj
 0001:0003dab0       ?reset@HandlerType4@FH4@@QEAAXXZ 000000018003eab0 f i libvcruntimed:frame.obj
 0001:0003db10       ?resetBuffer@HandlerMap4@FH4@@QEAAXXZ 000000018003eb10 f i libvcruntimed:frame.obj
 0001:0003db30       ?setBuffer@HandlerMap4@FH4@@QEAAXI@Z 000000018003eb30 f i libvcruntimed:frame.obj
 0001:0003db90       __BuildCatchObject         000000018003eb90 f   libvcruntimed:frame.obj
 0001:0003dbd0       __BuildCatchObjectHelper   000000018003ebd0 f   libvcruntimed:frame.obj
 0001:0003dc10       __TypeMatch                000000018003ec10 f   libvcruntimed:frame.obj
 0001:0003dc40       __vcrt_EncodePointer       000000018003ec40 f i libvcruntimed:frame.obj
 0001:0003dc60       ??$?0$00@DName@@QEAA@PEBDU?$StringLifeSelector@$00@@@Z 000000018003ec60 f i libvcruntimed:undname.obj
 0001:0003dcd0       ??$?0$00@pcharNode@@QEAA@PEBDHU?$StringLifeSelector@$00@@@Z 000000018003ecd0 f i libvcruntimed:undname.obj
 0001:0003dd30       ??$?0$01@DName@@QEAA@PEBDU?$StringLifeSelector@$01@@@Z 000000018003ed30 f i libvcruntimed:undname.obj
 0001:0003dda0       ??$?0$01@pcharNode@@QEAA@PEBDHU?$StringLifeSelector@$01@@@Z 000000018003eda0 f i libvcruntimed:undname.obj
 0001:0003de50       ??$?0$0A@@DName@@QEAA@PEBDU?$StringLifeSelector@$0A@@@@Z 000000018003ee50 f i libvcruntimed:undname.obj
 0001:0003dec0       ??$?0$0A@@pcharNode@@QEAA@PEBDHU?$StringLifeSelector@$0A@@@@Z 000000018003eec0 f i libvcruntimed:undname.obj
 0001:0003df70       ??$?0_K$0A@@?$optional@_K@std@@QEAA@$$QEA_K@Z 000000018003ef70 f i libvcruntimed:undname.obj
 0001:0003dfc0       ??$?0_K@?$_Optional_construct_base@_K@std@@QEAA@Uin_place_t@1@$$QEA_K@Z 000000018003efc0 f i libvcruntimed:undname.obj
 0001:0003dff0       ??$?0_K@?$_Optional_destruct_base@_K$00@std@@QEAA@Uin_place_t@1@$$QEA_K@Z 000000018003eff0 f i libvcruntimed:undname.obj
 0001:0003e030       ??$append@VDNameNode@@@DName@@AEAAXPEBVDNameNode@@@Z 000000018003f030 f i libvcruntimed:undname.obj
 0001:0003e0e0       ??$append@VDNameStatusNode@@@DName@@AEAAXPEBVDNameStatusNode@@@Z 000000018003f0e0 f i libvcruntimed:undname.obj
 0001:0003e190       ??$append@VcharNode@@@DName@@AEAAXPEBVcharNode@@@Z 000000018003f190 f i libvcruntimed:undname.obj
 0001:0003e240       ??$append@VpDNameNode@@@DName@@AEAAXPEBVpDNameNode@@@Z 000000018003f240 f i libvcruntimed:undname.obj
 0001:0003e2f0       ??$append@VpcharNode@@@DName@@AEAAXPEBVpcharNode@@@Z 000000018003f2f0 f i libvcruntimed:undname.obj
 0001:0003e3a0       ??$doPchar@$00@DName@@AEAAXPEBDH@Z 000000018003f3a0 f i libvcruntimed:undname.obj
 0001:0003e500       ??$doPchar@$01@DName@@AEAAXPEBDH@Z 000000018003f500 f i libvcruntimed:undname.obj
 0001:0003e660       ??$doPchar@$0A@@DName@@AEAAXPEBDH@Z 000000018003f660 f i libvcruntimed:undname.obj
 0001:0003e7c0       ??$forward@_K@std@@YA$$QEA_KAEA_K@Z 000000018003f7c0 f i libvcruntimed:undname.obj
 0001:0003e7d0       ??$size@D$04@std@@YA_KAEAY04$$CBD@Z 000000018003f7d0 f i libvcruntimed:undname.obj
 0001:0003e7e0       ??$size@D$0EB@@std@@YA_KAEAY0EB@$$CBD@Z 000000018003f7e0 f i libvcruntimed:undname.obj
 0001:0003e7f0       ??0?$_Optional_construct_base@_K@std@@QEAA@XZ 000000018003f7f0 f i libvcruntimed:undname.obj
 0001:0003e810       ??0?$_Optional_destruct_base@_K$00@std@@QEAA@XZ 000000018003f810 f i libvcruntimed:undname.obj
 0001:0003e840       ??0?$optional@_K@std@@QEAA@XZ 000000018003f840 f i libvcruntimed:undname.obj
 0001:0003e860       ??0Block@_HeapManager@@QEAA@XZ 000000018003f860 f i libvcruntimed:undname.obj
 0001:0003e880       ??0DName@@QEAA@AEAPEBDD@Z  000000018003f880 f   libvcruntimed:undname.obj
 0001:0003ea50       ??0DName@@QEAA@AEBUStringLiteral@@@Z 000000018003fa50 f   libvcruntimed:undname.obj
 0001:0003eab0       ??0DName@@QEAA@AEBV0@@Z    000000018003fab0 f i libvcruntimed:undname.obj
 0001:0003eae0       ??0DName@@QEAA@D@Z         000000018003fae0 f   libvcruntimed:undname.obj
 0001:0003eb20       ??0DName@@QEAA@PEAV0@@Z    000000018003fb20 f   libvcruntimed:undname.obj
 0001:0003ec00       ??0DName@@QEAA@W4DNameStatus@@@Z 000000018003fc00 f   libvcruntimed:undname.obj
 0001:0003ecb0       ??0DName@@QEAA@XZ          000000018003fcb0 f i libvcruntimed:undname.obj
 0001:0003ece0       ??0DName@@QEAA@_J@Z        000000018003fce0 f   libvcruntimed:undname.obj
 0001:0003edf0       ??0DName@@QEAA@_K@Z        000000018003fdf0 f   libvcruntimed:undname.obj
 0001:0003eec0       ??0DNameNode@@IEAA@XZ      000000018003fec0 f i libvcruntimed:undname.obj
 0001:0003eee0       ??0Replicator@@QEAA@XZ     000000018003fee0 f i libvcruntimed:undname.obj
 0001:0003ef20       ??0UnDecorator@@QEAA@PEBDP6APEADJ@ZK@Z 000000018003ff20 f i libvcruntimed:undname.obj
 0001:0003efd0       ??0_Nontrivial_dummy_type@std@@QEAA@XZ 000000018003ffd0 f i libvcruntimed:undname.obj
 0001:0003efe0       ??0charNode@@QEAA@D@Z      000000018003ffe0 f i libvcruntimed:undname.obj
 0001:0003f020       ??0pDNameNode@@QEAA@PEAVDName@@@Z 0000000180040020 f   libvcruntimed:undname.obj
 0001:0003f0a0       ??0pairNode@@QEAA@PEBVDNameNode@@0@Z 00000001800400a0 f i libvcruntimed:undname.obj
 0001:0003f120       ??2@YAPEAX_KAEAV_HeapManager@@H@Z 0000000180040120 f   libvcruntimed:undname.obj
 0001:0003f180       ??4DName@@QEAAAEAV0@AEBUStringLiteral@@@Z 0000000180040180 f   libvcruntimed:undname.obj
 0001:0003f1d0       ??4DName@@QEAAAEAV0@AEBV0@@Z 00000001800401d0 f   libvcruntimed:undname.obj
 0001:0003f200       ??4DName@@QEAAAEAV0@D@Z    0000000180040200 f i libvcruntimed:undname.obj
 0001:0003f240       ??4DName@@QEAAAEAV0@PEAV0@@Z 0000000180040240 f   libvcruntimed:undname.obj
 0001:0003f310       ??4DName@@QEAAAEAV0@W4DNameStatus@@@Z 0000000180040310 f   libvcruntimed:undname.obj
 0001:0003f3a0       ??AReplicator@@QEBA?AVDName@@H@Z 00000001800403a0 f   libvcruntimed:undname.obj
 0001:0003f430       ??B?$optional@_K@std@@QEBA_NXZ 0000000180040430 f i libvcruntimed:undname.obj
 0001:0003f440       ??D?$optional@_K@std@@QEGAAAEA_KXZ 0000000180040440 f i libvcruntimed:undname.obj
 0001:0003f4e0       ??H@YA?AVDName@@AEBUStringLiteral@@AEBV0@@Z 00000001800404e0 f i libvcruntimed:undname.obj
 0001:0003f530       ??H@YA?AVDName@@DAEBV0@@Z  0000000180040530 f i libvcruntimed:undname.obj
 0001:0003f580       ??H@YA?AVDName@@W4DNameStatus@@AEBV0@@Z 0000000180040580 f i libvcruntimed:undname.obj
 0001:0003f5d0       ??HDName@@QEBA?AV0@AEBUStringLiteral@@@Z 00000001800405d0 f   libvcruntimed:undname.obj
 0001:0003f620       ??HDName@@QEBA?AV0@AEBV0@@Z 0000000180040620 f   libvcruntimed:undname.obj
 0001:0003f670       ??HDName@@QEBA?AV0@D@Z     0000000180040670 f   libvcruntimed:undname.obj
 0001:0003f6c0       ??HDName@@QEBA?AV0@PEAV0@@Z 00000001800406c0 f   libvcruntimed:undname.obj
 0001:0003f710       ??HDName@@QEBA?AV0@W4DNameStatus@@@Z 0000000180040710 f   libvcruntimed:undname.obj
 0001:0003f760       ??HStringLiteral@@QEBA?AU0@H@Z 0000000180040760 f i libvcruntimed:undname.obj
 0001:0003f7a0       ??YDName@@QEAAAEAV0@AEBUStringLiteral@@@Z 00000001800407a0 f   libvcruntimed:undname.obj
 0001:0003f870       ??YDName@@QEAAAEAV0@AEBV0@@Z 0000000180040870 f   libvcruntimed:undname.obj
 0001:0003f930       ??YDName@@QEAAAEAV0@D@Z    0000000180040930 f   libvcruntimed:undname.obj
 0001:0003f9d0       ??YDName@@QEAAAEAV0@PEAV0@@Z 00000001800409d0 f   libvcruntimed:undname.obj
 0001:0003fab0       ??YDName@@QEAAAEAV0@W4DNameStatus@@@Z 0000000180040ab0 f   libvcruntimed:undname.obj
 0001:0003fb20       ??YReplicator@@QEAAAEAV0@AEBVDName@@@Z 0000000180040b20 f   libvcruntimed:undname.obj
 0001:0003fbe0       ??_5DName@@QEAAAEAV0@AEBV0@@Z 0000000180040be0 f   libvcruntimed:undname.obj
 0001:0003fc50       ??__K_l@@YA?AUStringLiteral@@PEBD_K@Z 0000000180040c50 f i libvcruntimed:undname.obj
 0001:0003fca0       ?Constructor@_HeapManager@@QEAAXP6APEAX_K@ZP6AXPEAX@Z@Z 0000000180040ca0 f i libvcruntimed:undname.obj
 0001:0003fd00       ?Destructor@_HeapManager@@QEAAXXZ 0000000180040d00 f i libvcruntimed:undname.obj
 0001:0003fda0       ?UScore@UnDecorator@@SA?AUStringLiteral@@W4Tokens@@@Z 0000000180040da0 f   libvcruntimed:undname.obj
 0001:0003fe30       ?composeDeclaration@UnDecorator@@CA?AVDName@@AEBV2@@Z 0000000180040e30 f i libvcruntimed:undname.obj
 0001:00042330       ?dbGetString@DName@@QEBAPEADXZ 0000000180043330 f   libvcruntimed:undname.obj
 0001:00042360       ?doAccessSpecifiers@UnDecorator@@SAHXZ 0000000180043360 f i libvcruntimed:undname.obj
 0001:00042390       ?doAllocationLanguage@UnDecorator@@SAHXZ 0000000180043390 f i libvcruntimed:undname.obj
 0001:000423c0       ?doAllocationModel@UnDecorator@@SAHXZ 00000001800433c0 f i libvcruntimed:undname.obj
 0001:000423f0       ?doEcsu@UnDecorator@@SAHXZ 00000001800433f0 f i libvcruntimed:undname.obj
 0001:00042420       ?doEllipsis@UnDecorator@@SAHXZ 0000000180043420 f i libvcruntimed:undname.obj
 0001:00042450       ?doFunctionReturns@UnDecorator@@SAHXZ 0000000180043450 f i libvcruntimed:undname.obj
 0001:00042480       ?doMSKeywords@UnDecorator@@SAHXZ 0000000180043480 f i libvcruntimed:undname.obj
 0001:000424b0       ?doMemberTypes@UnDecorator@@SAHXZ 00000001800434b0 f i libvcruntimed:undname.obj
 0001:000424e0       ?doNameOnly@UnDecorator@@SAHXZ 00000001800434e0 f i libvcruntimed:undname.obj
 0001:000424f0       ?doNoIdentCharCheck@UnDecorator@@SAHXZ 00000001800434f0 f i libvcruntimed:undname.obj
 0001:00042500       ?doPchar@DName@@AEAAXD@Z   0000000180043500 f   libvcruntimed:undname.obj
 0001:00042590       ?doPtr64@UnDecorator@@SAHXZ 0000000180043590 f i libvcruntimed:undname.obj
 0001:000425c0       ?doRestrictionSpec@UnDecorator@@SAHXZ 00000001800435c0 f i libvcruntimed:undname.obj
 0001:000425f0       ?doThisTypes@UnDecorator@@SAHXZ 00000001800435f0 f i libvcruntimed:undname.obj
 0001:00042620       ?doThrowTypes@UnDecorator@@SAHXZ 0000000180043620 f i libvcruntimed:undname.obj
 0001:00042650       ?doTypeOnly@UnDecorator@@SAHXZ 0000000180043650 f i libvcruntimed:undname.obj
 0001:00042660       ?doUnderScore@UnDecorator@@SAHXZ 0000000180043660 f i libvcruntimed:undname.obj
 0001:00042690       ?getAddressOf@UnDecorator@@CA?AVDName@@XZ 0000000180043690 f   libvcruntimed:undname.obj
 0001:00042730       ?getArgumentList@UnDecorator@@CA?AVDName@@XZ 0000000180043730 f   libvcruntimed:undname.obj
 0001:000428d0       ?getArgumentTypes@UnDecorator@@CA?AVDName@@XZ 00000001800438d0 f   libvcruntimed:undname.obj
 0001:00042bb0       ?getArrayAccess@UnDecorator@@CA?AVDName@@XZ 0000000180043bb0 f   libvcruntimed:undname.obj
 0001:00042c70       ?getArrayObject@UnDecorator@@CA?AVDName@@XZ 0000000180043c70 f   libvcruntimed:undname.obj
 0001:00042d90       ?getArrayType@UnDecorator@@CA?AVDName@@AEBV2@@Z 0000000180043d90 f i libvcruntimed:undname.obj
 0001:00043150       ?getBasedType@UnDecorator@@CA?AVDName@@XZ 0000000180044150 f   libvcruntimed:undname.obj
 0001:000432c0       ?getBasicDataType@UnDecorator@@CA?AVDName@@AEBV2@@Z 00000001800442c0 f   libvcruntimed:undname.obj
 0001:00044060       ?getCHPEName@UnDecorator@@QEAAPEADPEADH@Z 0000000180045060 f i libvcruntimed:undname.obj
 0001:00044230       ?getCallIndex@UnDecorator@@CA?AVDName@@XZ 0000000180045230 f i libvcruntimed:undname.obj
 0001:00044250       ?getCallingConvention@UnDecorator@@CA?AVDName@@XZ 0000000180045250 f   libvcruntimed:undname.obj
 0001:00044640       ?getDataIndirectType@UnDecorator@@CA?AVDName@@AEBV2@W4IndirectionKind@@0H@Z 0000000180045640 f   libvcruntimed:undname.obj
 0001:000452e0       ?getDataIndirectType@UnDecorator@@CA?AVDName@@XZ 00000001800462e0 f i libvcruntimed:undname.obj
 0001:00045330       ?getDataType@UnDecorator@@CA?AVDName@@PEAV2@@Z 0000000180046330 f   libvcruntimed:undname.obj
 0001:00045510       ?getDecoratedName@UnDecorator@@CA?AVDName@@XZ 0000000180046510 f   libvcruntimed:undname.obj
 0001:00045a00       ?getDimension@UnDecorator@@CA?AVDName@@_N@Z 0000000180046a00 f   libvcruntimed:undname.obj
 0001:00045d10       ?getDispatchTarget@UnDecorator@@CA?AVDName@@XZ 0000000180046d10 f   libvcruntimed:undname.obj
 0001:00045de0       ?getDisplacement@UnDecorator@@CA?AVDName@@XZ 0000000180046de0 f i libvcruntimed:undname.obj
 0001:00045e00       ?getECSUDataType@UnDecorator@@CA?AVDName@@XZ 0000000180046e00 f   libvcruntimed:undname.obj
 0001:00046190       ?getECSUName@UnDecorator@@CA?AVDName@@XZ 0000000180047190 f i libvcruntimed:undname.obj
 0001:000461b0       ?getEnumType@UnDecorator@@CA?AVDName@@XZ 00000001800471b0 f i libvcruntimed:undname.obj
 0001:00046440       ?getExtendedDataIndirectType@UnDecorator@@CA?AVDName@@AEAW4IndirectionKind@@AEA_NH@Z 0000000180047440 f   libvcruntimed:undname.obj
 0001:00046760       ?getExternalDataType@UnDecorator@@CA?AVDName@@AEBV2@@Z 0000000180047760 f i libvcruntimed:undname.obj
 0001:00046840       ?getFloatingPoint@UnDecorator@@CA?AVDName@@H@Z 0000000180047840 f   libvcruntimed:undname.obj
 0001:00046ac0       ?getFunctionIndirectType@UnDecorator@@CA?AVDName@@AEBV2@@Z 0000000180047ac0 f   libvcruntimed:undname.obj
 0001:000470f0       ?getGuardNumber@UnDecorator@@CA?AVDName@@XZ 00000001800480f0 f i libvcruntimed:undname.obj
 0001:00047110       ?getLastChar@DName@@QEBADXZ 0000000180048110 f i libvcruntimed:undname.obj
 0001:00047160       ?getLastChar@DNameStatusNode@@UEBADXZ 0000000180048160 f i libvcruntimed:undname.obj
 0001:000471a0       ?getLastChar@charNode@@UEBADXZ 00000001800481a0 f i libvcruntimed:undname.obj
 0001:000471b0       ?getLastChar@pDNameNode@@UEBADXZ 00000001800481b0 f i libvcruntimed:undname.obj
 0001:000471f0       ?getLastChar@pairNode@@UEBADXZ 00000001800481f0 f i libvcruntimed:undname.obj
 0001:00047270       ?getLastChar@pcharNode@@UEBADXZ 0000000180048270 f i libvcruntimed:undname.obj
 0001:000472b0       ?getLexicalFrame@UnDecorator@@CA?AVDName@@XZ 00000001800482b0 f i libvcruntimed:undname.obj
 0001:00047300       ?getMemberAccess@UnDecorator@@CA?AVDName@@XZ 0000000180048300 f   libvcruntimed:undname.obj
 0001:000473b0       ?getMemoryWithBuffer@_HeapManager@@QEAAPEAX_K@Z 00000001800483b0 f   libvcruntimed:undname.obj
 0001:00047500       ?getMemoryWithoutBuffer@_HeapManager@@QEAAPEAX_K@Z 0000000180048500 f   libvcruntimed:undname.obj
 0001:00047550       ?getNoexcept@UnDecorator@@CA?AVDName@@XZ 0000000180048550 f   libvcruntimed:undname.obj
 0001:00047600       ?getNumberOfDimensions@UnDecorator@@CAHXZ 0000000180048600 f   libvcruntimed:undname.obj
 0001:00047720       ?getOperatorName@UnDecorator@@CA?AVDName@@_NPEA_N@Z 0000000180048720 f i libvcruntimed:undname.obj
 0001:00048710       ?getPointerToMember@UnDecorator@@CA?AVDName@@XZ 0000000180049710 f   libvcruntimed:undname.obj
 0001:00048860       ?getPointerType@UnDecorator@@CA?AVDName@@AEBV2@0@Z 0000000180049860 f i libvcruntimed:undname.obj
 0001:000488a0       ?getPointerTypeArray@UnDecorator@@CA?AVDName@@AEBV2@0@Z 00000001800498a0 f i libvcruntimed:undname.obj
 0001:000488e0       ?getPrimaryDataType@UnDecorator@@CA?AVDName@@AEBV2@@Z 00000001800498e0 f   libvcruntimed:undname.obj
 0001:00048f10       ?getPtrRefDataType@UnDecorator@@CA?AVDName@@AEBV2@H@Z 0000000180049f10 f   libvcruntimed:undname.obj
 0001:00049300       ?getPtrRefType@UnDecorator@@CA?AVDName@@AEBV2@0W4IndirectionKind@@@Z 000000018004a300 f   libvcruntimed:undname.obj
 0001:00049540       ?getReferenceType@UnDecorator@@CA?AVDName@@AEBV2@0W4IndirectionKind@@@Z 000000018004a540 f i libvcruntimed:undname.obj
 0001:00049580       ?getRestrictionSpec@UnDecorator@@CA?AVDName@@XZ 000000018004a580 f   libvcruntimed:undname.obj
 0001:00049810       ?getReturnType@UnDecorator@@CA?AVDName@@PEAV2@@Z 000000018004a810 f   libvcruntimed:undname.obj
 0001:00049870       ?getScope@UnDecorator@@CA?AVDName@@XZ 000000018004a870 f   libvcruntimed:undname.obj
 0001:00049fd0       ?getScopedName@UnDecorator@@CA?AVDName@@XZ 000000018004afd0 f   libvcruntimed:undname.obj
 0001:0004a1d0       ?getSignedDimension@UnDecorator@@CA?AVDName@@XZ 000000018004b1d0 f   libvcruntimed:undname.obj
 0001:0004a260       ?getStorageConvention@UnDecorator@@CA?AVDName@@XZ 000000018004b260 f i libvcruntimed:undname.obj
 0001:0004a280       ?getString@DName@@QEBAPEADPEAD0@Z 000000018004b280 f i libvcruntimed:undname.obj
 0001:0004a300       ?getString@DName@@QEBAPEADPEADH@Z 000000018004b300 f i libvcruntimed:undname.obj
 0001:0004a3c0       ?getString@DNameStatusNode@@UEBAPEADPEAD0@Z 000000018004b3c0 f i libvcruntimed:undname.obj
 0001:0004a410       ?getString@charNode@@UEBAPEADPEAD0@Z 000000018004b410 f i libvcruntimed:undname.obj
 0001:0004a450       ?getString@pDNameNode@@UEBAPEADPEAD0@Z 000000018004b450 f i libvcruntimed:undname.obj
 0001:0004a4b0       ?getString@pairNode@@UEBAPEADPEAD0@Z 000000018004b4b0 f i libvcruntimed:undname.obj
 0001:0004a580       ?getString@pcharNode@@UEBAPEADPEAD0@Z 000000018004b580 f i libvcruntimed:undname.obj
 0001:0004a5c0       ?getStringEncoding@UnDecorator@@CA?AVDName@@W4PrefixKind@@H@Z 000000018004b5c0 f   libvcruntimed:undname.obj
 0001:0004a720       ?getStringHelper@@YAPEADPEADPEBD1H@Z 000000018004b720 f i libvcruntimed:undname.obj
 0001:0004a790       ?getStringObject@UnDecorator@@CA?AVDName@@XZ 000000018004b790 f   libvcruntimed:undname.obj
 0001:0004a870       ?getSymbolName@UnDecorator@@CA?AVDName@@XZ 000000018004b870 f i libvcruntimed:undname.obj
 0001:0004a910       ?getTemplateArgumentList@UnDecorator@@CA?AVDName@@XZ 000000018004b910 f   libvcruntimed:undname.obj
 0001:0004ac50       ?getTemplateName@UnDecorator@@CA?AVDName@@_N@Z 000000018004bc50 f   libvcruntimed:undname.obj
 0001:0004ae90       ?getTemplateNonTypeArgument@UnDecorator@@CA?AVDName@@XZ 000000018004be90 f   libvcruntimed:undname.obj
 0001:0004b730       ?getTemplateTypeArgument@UnDecorator@@CA?AVDName@@XZ 000000018004c730 f   libvcruntimed:undname.obj
 0001:0004b9a0       ?getThisType@UnDecorator@@CA?AVDName@@XZ 000000018004c9a0 f i libvcruntimed:undname.obj
 0001:0004b9f0       ?getThrowTypes@UnDecorator@@CA?AVDName@@XZ 000000018004c9f0 f   libvcruntimed:undname.obj
 0001:0004ba40       ?getTypeEncoding@UnDecorator@@CAHXZ 000000018004ca40 f i libvcruntimed:undname.obj
 0001:0004c6a0       ?getUndecoratedName@UnDecorator@@QEAAPEADPEADH@Z 000000018004d6a0 f i libvcruntimed:undname.obj
 0001:0004c890       ?getUnionObject@UnDecorator@@CA?AVDName@@XZ 000000018004d890 f   libvcruntimed:undname.obj
 0001:0004c9a0       ?getVCallThunkType@UnDecorator@@CA?AVDName@@XZ 000000018004d9a0 f i libvcruntimed:undname.obj
 0001:0004ca50       ?getValue@UnDecorator@@CA?AV?$optional@_K@std@@XZ 000000018004da50 f   libvcruntimed:undname.obj
 0001:0004cb20       ?getValueObject@UnDecorator@@CA?AVDName@@XZ 000000018004db20 f   libvcruntimed:undname.obj
 0001:0004cd40       ?getVbTableType@UnDecorator@@CA?AVDName@@AEBV2@@Z 000000018004dd40 f i libvcruntimed:undname.obj
 0001:0004cd70       ?getVdispMapType@UnDecorator@@CA?AVDName@@AEBV2@@Z 000000018004dd70 f i libvcruntimed:undname.obj
 0001:0004ce30       ?getVfTableType@UnDecorator@@CA?AVDName@@AEBV2@@Z 000000018004de30 f i libvcruntimed:undname.obj
 0001:0004d0d0       ?getZName@UnDecorator@@CA?AVDName@@_N0@Z 000000018004e0d0 f   libvcruntimed:undname.obj
 0001:0004d540       ?haveTemplateParameters@UnDecorator@@SAHXZ 000000018004e540 f i libvcruntimed:undname.obj
 0001:0004d550       ?isArray@DName@@QEBAHXZ    000000018004e550 f i libvcruntimed:undname.obj
 0001:0004d570       ?isComArray@DName@@QEBAHXZ 000000018004e570 f i libvcruntimed:undname.obj
 0001:0004d590       ?isEmpty@DName@@QEBAHXZ    000000018004e590 f i libvcruntimed:undname.obj
 0001:0004d5c0       ?isFull@Replicator@@QEBAHXZ 000000018004e5c0 f i libvcruntimed:undname.obj
 0001:0004d5f0       ?isNoTE@DName@@QEBAHXZ     000000018004e5f0 f i libvcruntimed:undname.obj
 0001:0004d610       ?isPinPtr@DName@@QEBAHXZ   000000018004e610 f i libvcruntimed:undname.obj
 0001:0004d630       ?isPtrRef@DName@@QEBAHXZ   000000018004e630 f i libvcruntimed:undname.obj
 0001:0004d650       ?isUDC@DName@@QEBAHXZ      000000018004e650 f i libvcruntimed:undname.obj
 0001:0004d6a0       ?isUDTThunk@DName@@QEBAHXZ 000000018004e6a0 f i libvcruntimed:undname.obj
 0001:0004d6f0       ?isVCallThunk@DName@@QEBAHXZ 000000018004e6f0 f i libvcruntimed:undname.obj
 0001:0004d710       ?isValid@DName@@QEBAHXZ    000000018004e710 f i libvcruntimed:undname.obj
 0001:0004d750       ?length@DName@@QEBAHXZ     000000018004e750 f i libvcruntimed:undname.obj
 0001:0004d7a0       ?length@DNameStatusNode@@UEBAHXZ 000000018004e7a0 f i libvcruntimed:undname.obj
 0001:0004d7b0       ?length@charNode@@UEBAHXZ  000000018004e7b0 f i libvcruntimed:undname.obj
 0001:0004d7c0       ?length@pDNameNode@@UEBAHXZ 000000018004e7c0 f i libvcruntimed:undname.obj
 0001:0004d800       ?length@pairNode@@UEBAHXZ  000000018004e800 f i libvcruntimed:undname.obj
 0001:0004d890       ?length@pcharNode@@UEBAHXZ 000000018004e890 f i libvcruntimed:undname.obj
 0001:0004d8a0       ?make@DNameStatusNode@@SAPEBV1@W4DNameStatus@@@Z 000000018004e8a0 f i libvcruntimed:undname.obj
 0001:0004d8f0       ?parseDecoratedName@UnDecorator@@CA?AVDName@@XZ 000000018004e8f0 f   libvcruntimed:undname.obj
 0001:0004dae0       ?raw_length@DNameStatusNode@@UEBAHXZ 000000018004eae0 f i libvcruntimed:undname.obj
 0001:0004db00       ?raw_length@charNode@@UEBAHXZ 000000018004eb00 f i libvcruntimed:undname.obj
 0001:0004db20       ?raw_length@pDNameNode@@UEBAHXZ 000000018004eb20 f i libvcruntimed:undname.obj
 0001:0004db30       ?raw_length@pairNode@@UEBAHXZ 000000018004eb30 f i libvcruntimed:undname.obj
 0001:0004db40       ?raw_length@pcharNode@@UEBAHXZ 000000018004eb40 f i libvcruntimed:undname.obj
 0001:0004db60       ?setIsArray@DName@@QEAAXXZ 000000018004eb60 f i libvcruntimed:undname.obj
 0001:0004db80       ?setIsComArray@DName@@QEAAXXZ 000000018004eb80 f i libvcruntimed:undname.obj
 0001:0004dba0       ?setIsNoTE@DName@@QEAAXXZ  000000018004eba0 f i libvcruntimed:undname.obj
 0001:0004dbc0       ?setIsPinPtr@DName@@QEAAXXZ 000000018004ebc0 f i libvcruntimed:undname.obj
 0001:0004dbe0       ?setIsUDC@DName@@QEAAXXZ   000000018004ebe0 f i libvcruntimed:undname.obj
 0001:0004dc10       ?setIsVCallThunk@DName@@QEAAXXZ 000000018004ec10 f i libvcruntimed:undname.obj
 0001:0004dc30       ?setPtrRef@DName@@QEAAAEAV1@XZ 000000018004ec30 f i libvcruntimed:undname.obj
 0001:0004dc50       ?status@DName@@QEBA?AW4DNameStatus@@XZ 000000018004ec50 f i libvcruntimed:undname.obj
 0001:0004dd80       __unDName                  000000018004ed80 f   libvcruntimed:undname.obj
 0001:0004dde0       __unDNameEx                000000018004ede0 f   libvcruntimed:undname.obj
 0001:0004dea0       unDNameGenerateCHPE        000000018004eea0 f   libvcruntimed:undname.obj
 0001:0004df50       ??$__crt_interlocked_exchange_pointer@UHINSTANCE__@@PEAU1@@@YAPEAUHINSTANCE__@@PEDSEAU0@QEAU0@@Z 000000018004ef50 f i libvcruntimed:winapi_downlevel.obj
 0001:0004df70       ??$__crt_interlocked_exchange_pointer@UHINSTANCE__@@PEAX@@YAPEAUHINSTANCE__@@PEDSEAU0@QEAX@Z 000000018004ef70 f i libvcruntimed:winapi_downlevel.obj
 0001:0004df90       ??$__crt_interlocked_exchange_pointer@XPEAX@@YAPEAXPEDSEAXQEAX@Z 000000018004ef90 f i libvcruntimed:winapi_downlevel.obj
 0001:0004dfb0       ??$__crt_interlocked_read_pointer@UHINSTANCE__@@@@YAPEAUHINSTANCE__@@PEDSEAU0@@Z 000000018004efb0 f i libvcruntimed:winapi_downlevel.obj
 0001:0004dfd0       ??$__crt_interlocked_read_pointer@X@@YAPEAXPEDSEAX@Z 000000018004efd0 f i libvcruntimed:winapi_downlevel.obj
 0001:0004e4e0       __vcrt_FlsAlloc            000000018004f4e0 f   libvcruntimed:winapi_downlevel.obj
 0001:0004e530       __vcrt_FlsFree             000000018004f530 f   libvcruntimed:winapi_downlevel.obj
 0001:0004e580       __vcrt_FlsGetValue         000000018004f580 f   libvcruntimed:winapi_downlevel.obj
 0001:0004e5d0       __vcrt_FlsSetValue         000000018004f5d0 f   libvcruntimed:winapi_downlevel.obj
 0001:0004e630       __vcrt_InitializeCriticalSectionEx 000000018004f630 f   libvcruntimed:winapi_downlevel.obj
 0001:0004e6b0       _CallSettingFrame          000000018004f6b0 f   libvcruntimed:handlers.obj
 0001:0004e700       _CallSettingFrame_LookupContinuationIndex 000000018004f700 f   libvcruntimed:handlers.obj
 0001:0004e730       _CallSettingFrame_NotifyContinuationAddr 000000018004f730 f   libvcruntimed:handlers.obj
 0001:0004e760       _CallSettingFrameEncoded   000000018004f760 f   libvcruntimed:handlers.obj
 0001:0004e7b0       ??$?0AEBV?$stream_output_adapter@D@__crt_stdio_output@@AEB_KAEBQEBDAEAV__crt_cached_ptd_host@@AEBQEAD@?$format_validation_base@DV?$stream_output_adapter@D@__crt_stdio_output@@@__crt_stdio_output@@IEAA@AEBV?$stream_output_adapter@D@1@AEB_KAEBQEBDAEAV__crt_cached_ptd_host@@AEBQEAD@Z 000000018004f7b0 f i libucrtd:output.obj
 0001:0004e800       ??$?0AEBV?$stream_output_adapter@D@__crt_stdio_output@@AEB_KAEBQEBDAEAV__crt_cached_ptd_host@@AEBQEAD@?$positional_parameter_base@DV?$stream_output_adapter@D@__crt_stdio_output@@@__crt_stdio_output@@IEAA@AEBV?$stream_output_adapter@D@1@AEB_KAEBQEBDAEAV__crt_cached_ptd_host@@AEBQEAD@Z 000000018004f800 f i libucrtd:output.obj
 0001:0004e8a0       ??$?0AEBV?$stream_output_adapter@D@__crt_stdio_output@@AEB_KAEBQEBDAEAV__crt_cached_ptd_host@@AEBQEAD@?$standard_base@DV?$stream_output_adapter@D@__crt_stdio_output@@@__crt_stdio_output@@IEAA@AEBV?$stream_output_adapter@D@1@AEB_KAEBQEBDAEAV__crt_cached_ptd_host@@AEBQEAD@Z 000000018004f8a0 f i libucrtd:output.obj
 0001:0004e910       ??$?0AEBV?$stream_output_adapter@_W@__crt_stdio_output@@AEB_KAEBQEB_WAEAV__crt_cached_ptd_host@@AEBQEAD@?$format_validation_base@_WV?$stream_output_adapter@_W@__crt_stdio_output@@@__crt_stdio_output@@IEAA@AEBV?$stream_output_adapter@_W@1@AEB_KAEBQEB_WAEAV__crt_cached_ptd_host@@AEBQEAD@Z 000000018004f910 f i libucrtd:output.obj
 0001:0004e960       ??$?0AEBV?$stream_output_adapter@_W@__crt_stdio_output@@AEB_KAEBQEB_WAEAV__crt_cached_ptd_host@@AEBQEAD@?$positional_parameter_base@_WV?$stream_output_adapter@_W@__crt_stdio_output@@@__crt_stdio_output@@IEAA@AEBV?$stream_output_adapter@_W@1@AEB_KAEBQEB_WAEAV__crt_cached_ptd_host@@AEBQEAD@Z 000000018004f960 f i libucrtd:output.obj
 0001:0004ea00       ??$?0AEBV?$stream_output_adapter@_W@__crt_stdio_output@@AEB_KAEBQEB_WAEAV__crt_cached_ptd_host@@AEBQEAD@?$standard_base@_WV?$stream_output_adapter@_W@__crt_stdio_output@@@__crt_stdio_output@@IEAA@AEBV?$stream_output_adapter@_W@1@AEB_KAEBQEB_WAEAV__crt_cached_ptd_host@@AEBQEAD@Z 000000018004fa00 f i libucrtd:output.obj
 0001:0004ea70       ??$?0AEBV?$string_output_adapter@D@__crt_stdio_output@@AEB_KAEBQEBDAEAV__crt_cached_ptd_host@@AEBQEAD@?$format_validation_base@DV?$string_output_adapter@D@__crt_stdio_output@@@__crt_stdio_output@@IEAA@AEBV?$string_output_adapter@D@1@AEB_KAEBQEBDAEAV__crt_cached_ptd_host@@AEBQEAD@Z 000000018004fa70 f i libucrtd:output.obj
 0001:0004eac0       ??$?0AEBV?$string_output_adapter@D@__crt_stdio_output@@AEB_KAEBQEBDAEAV__crt_cached_ptd_host@@AEBQEAD@?$positional_parameter_base@DV?$string_output_adapter@D@__crt_stdio_output@@@__crt_stdio_output@@IEAA@AEBV?$string_output_adapter@D@1@AEB_KAEBQEBDAEAV__crt_cached_ptd_host@@AEBQEAD@Z 000000018004fac0 f i libucrtd:output.obj
 0001:0004eb60       ??$?0AEBV?$string_output_adapter@D@__crt_stdio_output@@AEB_KAEBQEBDAEAV__crt_cached_ptd_host@@AEBQEAD@?$standard_base@DV?$string_output_adapter@D@__crt_stdio_output@@@__crt_stdio_output@@IEAA@AEBV?$string_output_adapter@D@1@AEB_KAEBQEBDAEAV__crt_cached_ptd_host@@AEBQEAD@Z 000000018004fb60 f i libucrtd:output.obj
 0001:0004ebd0       ??$?0AEBV?$string_output_adapter@_W@__crt_stdio_output@@AEB_KAEBQEB_WAEAV__crt_cached_ptd_host@@AEBQEAD@?$format_validation_base@_WV?$string_output_adapter@_W@__crt_stdio_output@@@__crt_stdio_output@@IEAA@AEBV?$string_output_adapter@_W@1@AEB_KAEBQEB_WAEAV__crt_cached_ptd_host@@AEBQEAD@Z 000000018004fbd0 f i libucrtd:output.obj
 0001:0004ec20       ??$?0AEBV?$string_output_adapter@_W@__crt_stdio_output@@AEB_KAEBQEB_WAEAV__crt_cached_ptd_host@@AEBQEAD@?$positional_parameter_base@_WV?$string_output_adapter@_W@__crt_stdio_output@@@__crt_stdio_output@@IEAA@AEBV?$string_output_adapter@_W@1@AEB_KAEBQEB_WAEAV__crt_cached_ptd_host@@AEBQEAD@Z 000000018004fc20 f i libucrtd:output.obj
 0001:0004ecc0       ??$?0AEBV?$string_output_adapter@_W@__crt_stdio_output@@AEB_KAEBQEB_WAEAV__crt_cached_ptd_host@@AEBQEAD@?$standard_base@_WV?$string_output_adapter@_W@__crt_stdio_output@@@__crt_stdio_output@@IEAA@AEBV?$string_output_adapter@_W@1@AEB_KAEBQEB_WAEAV__crt_cached_ptd_host@@AEBQEAD@Z 000000018004fcc0 f i libucrtd:output.obj
 0001:0004f150       ??$__crt_interlocked_read@J@@YAJPEDJ@Z 0000000180050150 f i libucrtd:output.obj
 0001:0004f170       ??$_tcstol_internal@DPEAPEAD$0A@@@YAJAEAV__crt_cached_ptd_host@@QEBDQEAPEADH@Z 0000000180050170 f i libucrtd:output.obj
 0001:0004f1c0       ??$_tcstol_internal@_WPEAPEA_W$0A@@@YAJAEAV__crt_cached_ptd_host@@QEB_WQEAPEA_WH@Z 00000001800501c0 f i libucrtd:output.obj
 0001:000531e0       ??$count@D@formatting_buffer@__crt_stdio_output@@QEBA_KXZ 00000001800541e0 f i libucrtd:output.obj
 0001:00053230       ??$count@_W@formatting_buffer@__crt_stdio_output@@QEBA_KXZ 0000000180054230 f i libucrtd:output.obj
 0001:00053280       ??$data@D@formatting_buffer@__crt_stdio_output@@QEAAPEADXZ 0000000180054280 f i libucrtd:output.obj
 0001:000532d0       ??$data@_W@formatting_buffer@__crt_stdio_output@@QEAAPEA_WXZ 00000001800542d0 f i libucrtd:output.obj
 0001:00053320       ??$ensure_buffer_is_big_enough@D@formatting_buffer@__crt_stdio_output@@QEAA_N_KAEAV__crt_cached_ptd_host@@@Z 0000000180054320 f i libucrtd:output.obj
 0001:00053460       ??$ensure_buffer_is_big_enough@_W@formatting_buffer@__crt_stdio_output@@QEAA_N_KAEAV__crt_cached_ptd_host@@@Z 0000000180054460 f i libucrtd:output.obj
 0001:000535a0       ??$extract_argument_from_va_list@C_J@?$positional_parameter_base@DV?$stream_output_adapter@D@__crt_stdio_output@@@__crt_stdio_output@@IEAA_NAEA_J@Z 00000001800545a0 f i libucrtd:output.obj
 0001:00053760       ??$extract_argument_from_va_list@C_J@?$positional_parameter_base@DV?$string_output_adapter@D@__crt_stdio_output@@@__crt_stdio_output@@IEAA_NAEA_J@Z 0000000180054760 f i libucrtd:output.obj
 0001:00053920       ??$extract_argument_from_va_list@C_J@?$positional_parameter_base@_WV?$stream_output_adapter@_W@__crt_stdio_output@@@__crt_stdio_output@@IEAA_NAEA_J@Z 0000000180054920 f i libucrtd:output.obj
 0001:00053ae0       ??$extract_argument_from_va_list@C_J@?$positional_parameter_base@_WV?$string_output_adapter@_W@__crt_stdio_output@@@__crt_stdio_output@@IEAA_NAEA_J@Z 0000000180054ae0 f i libucrtd:output.obj
 0001:00053ca0       ??$extract_argument_from_va_list@C_J@?$standard_base@DV?$stream_output_adapter@D@__crt_stdio_output@@@__crt_stdio_output@@IEAA_NAEA_J@Z 0000000180054ca0 f i libucrtd:output.obj
 0001:00053ce0       ??$extract_argument_from_va_list@C_J@?$standard_base@DV?$string_output_adapter@D@__crt_stdio_output@@@__crt_stdio_output@@IEAA_NAEA_J@Z 0000000180054ce0 f i libucrtd:output.obj
 0001:00053d20       ??$extract_argument_from_va_list@C_J@?$standard_base@_WV?$stream_output_adapter@_W@__crt_stdio_output@@@__crt_stdio_output@@IEAA_NAEA_J@Z 0000000180054d20 f i libucrtd:output.obj
 0001:00053d60       ??$extract_argument_from_va_list@C_J@?$standard_base@_WV?$string_output_adapter@_W@__crt_stdio_output@@@__crt_stdio_output@@IEAA_NAEA_J@Z 0000000180054d60 f i libucrtd:output.obj
 0001:00053da0       ??$extract_argument_from_va_list@E_J@?$positional_parameter_base@DV?$stream_output_adapter@D@__crt_stdio_output@@@__crt_stdio_output@@IEAA_NAEA_J@Z 0000000180054da0 f i libucrtd:output.obj
 0001:00053f60       ??$extract_argument_from_va_list@E_J@?$positional_parameter_base@DV?$string_output_adapter@D@__crt_stdio_output@@@__crt_stdio_output@@IEAA_NAEA_J@Z 0000000180054f60 f i libucrtd:output.obj
 0001:00054120       ??$extract_argument_from_va_list@E_J@?$positional_parameter_base@_WV?$stream_output_adapter@_W@__crt_stdio_output@@@__crt_stdio_output@@IEAA_NAEA_J@Z 0000000180055120 f i libucrtd:output.obj
 0001:000542e0       ??$extract_argument_from_va_list@E_J@?$positional_parameter_base@_WV?$string_output_adapter@_W@__crt_stdio_output@@@__crt_stdio_output@@IEAA_NAEA_J@Z 00000001800552e0 f i libucrtd:output.obj
 0001:000544a0       ??$extract_argument_from_va_list@E_J@?$standard_base@DV?$stream_output_adapter@D@__crt_stdio_output@@@__crt_stdio_output@@IEAA_NAEA_J@Z 00000001800554a0 f i libucrtd:output.obj
 0001:000544e0       ??$extract_argument_from_va_list@E_J@?$standard_base@DV?$string_output_adapter@D@__crt_stdio_output@@@__crt_stdio_output@@IEAA_NAEA_J@Z 00000001800554e0 f i libucrtd:output.obj
 0001:00054520       ??$extract_argument_from_va_list@E_J@?$standard_base@_WV?$stream_output_adapter@_W@__crt_stdio_output@@@__crt_stdio_output@@IEAA_NAEA_J@Z 0000000180055520 f i libucrtd:output.obj
 0001:00054560       ??$extract_argument_from_va_list@E_J@?$standard_base@_WV?$string_output_adapter@_W@__crt_stdio_output@@@__crt_stdio_output@@IEAA_NAEA_J@Z 0000000180055560 f i libucrtd:output.obj
 0001:000545a0       ??$extract_argument_from_va_list@F_J@?$positional_parameter_base@DV?$stream_output_adapter@D@__crt_stdio_output@@@__crt_stdio_output@@IEAA_NAEA_J@Z 00000001800555a0 f i libucrtd:output.obj
 0001:00054760       ??$extract_argument_from_va_list@F_J@?$positional_parameter_base@DV?$string_output_adapter@D@__crt_stdio_output@@@__crt_stdio_output@@IEAA_NAEA_J@Z 0000000180055760 f i libucrtd:output.obj
 0001:00054920       ??$extract_argument_from_va_list@F_J@?$positional_parameter_base@_WV?$stream_output_adapter@_W@__crt_stdio_output@@@__crt_stdio_output@@IEAA_NAEA_J@Z 0000000180055920 f i libucrtd:output.obj
 0001:00054ae0       ??$extract_argument_from_va_list@F_J@?$positional_parameter_base@_WV?$string_output_adapter@_W@__crt_stdio_output@@@__crt_stdio_output@@IEAA_NAEA_J@Z 0000000180055ae0 f i libucrtd:output.obj
 0001:00054ca0       ??$extract_argument_from_va_list@F_J@?$standard_base@DV?$stream_output_adapter@D@__crt_stdio_output@@@__crt_stdio_output@@IEAA_NAEA_J@Z 0000000180055ca0 f i libucrtd:output.obj
 0001:00054ce0       ??$extract_argument_from_va_list@F_J@?$standard_base@DV?$string_output_adapter@D@__crt_stdio_output@@@__crt_stdio_output@@IEAA_NAEA_J@Z 0000000180055ce0 f i libucrtd:output.obj
 0001:00054d20       ??$extract_argument_from_va_list@F_J@?$standard_base@_WV?$stream_output_adapter@_W@__crt_stdio_output@@@__crt_stdio_output@@IEAA_NAEA_J@Z 0000000180055d20 f i libucrtd:output.obj
 0001:00054d60       ??$extract_argument_from_va_list@F_J@?$standard_base@_WV?$string_output_adapter@_W@__crt_stdio_output@@@__crt_stdio_output@@IEAA_NAEA_J@Z 0000000180055d60 f i libucrtd:output.obj
 0001:00054da0       ??$extract_argument_from_va_list@GD@?$positional_parameter_base@DV?$stream_output_adapter@D@__crt_stdio_output@@@__crt_stdio_output@@IEAA_NAEAD@Z 0000000180055da0 f i libucrtd:output.obj
 0001:00054f60       ??$extract_argument_from_va_list@GD@?$positional_parameter_base@DV?$string_output_adapter@D@__crt_stdio_output@@@__crt_stdio_output@@IEAA_NAEAD@Z 0000000180055f60 f i libucrtd:output.obj
 0001:00055120       ??$extract_argument_from_va_list@GD@?$standard_base@DV?$stream_output_adapter@D@__crt_stdio_output@@@__crt_stdio_output@@IEAA_NAEAD@Z 0000000180056120 f i libucrtd:output.obj
 0001:00055150       ??$extract_argument_from_va_list@GD@?$standard_base@DV?$string_output_adapter@D@__crt_stdio_output@@@__crt_stdio_output@@IEAA_NAEAD@Z 0000000180056150 f i libucrtd:output.obj
 0001:00055180       ??$extract_argument_from_va_list@G_J@?$positional_parameter_base@DV?$stream_output_adapter@D@__crt_stdio_output@@@__crt_stdio_output@@IEAA_NAEA_J@Z 0000000180056180 f i libucrtd:output.obj
 0001:00055340       ??$extract_argument_from_va_list@G_J@?$positional_parameter_base@DV?$string_output_adapter@D@__crt_stdio_output@@@__crt_stdio_output@@IEAA_NAEA_J@Z 0000000180056340 f i libucrtd:output.obj
 0001:00055500       ??$extract_argument_from_va_list@G_J@?$positional_parameter_base@_WV?$stream_output_adapter@_W@__crt_stdio_output@@@__crt_stdio_output@@IEAA_NAEA_J@Z 0000000180056500 f i libucrtd:output.obj
 0001:000556c0       ??$extract_argument_from_va_list@G_J@?$positional_parameter_base@_WV?$string_output_adapter@_W@__crt_stdio_output@@@__crt_stdio_output@@IEAA_NAEA_J@Z 00000001800566c0 f i libucrtd:output.obj
 0001:00055880       ??$extract_argument_from_va_list@G_J@?$standard_base@DV?$stream_output_adapter@D@__crt_stdio_output@@@__crt_stdio_output@@IEAA_NAEA_J@Z 0000000180056880 f i libucrtd:output.obj
 0001:000558c0       ??$extract_argument_from_va_list@G_J@?$standard_base@DV?$string_output_adapter@D@__crt_stdio_output@@@__crt_stdio_output@@IEAA_NAEA_J@Z 00000001800568c0 f i libucrtd:output.obj
 0001:00055900       ??$extract_argument_from_va_list@G_J@?$standard_base@_WV?$stream_output_adapter@_W@__crt_stdio_output@@@__crt_stdio_output@@IEAA_NAEA_J@Z 0000000180056900 f i libucrtd:output.obj
 0001:00055940       ??$extract_argument_from_va_list@G_J@?$standard_base@_WV?$string_output_adapter@_W@__crt_stdio_output@@@__crt_stdio_output@@IEAA_NAEA_J@Z 0000000180056940 f i libucrtd:output.obj
 0001:00055980       ??$extract_argument_from_va_list@H_J@?$positional_parameter_base@DV?$stream_output_adapter@D@__crt_stdio_output@@@__crt_stdio_output@@IEAA_NAEA_J@Z 0000000180056980 f i libucrtd:output.obj
 0001:00055b40       ??$extract_argument_from_va_list@H_J@?$positional_parameter_base@DV?$string_output_adapter@D@__crt_stdio_output@@@__crt_stdio_output@@IEAA_NAEA_J@Z 0000000180056b40 f i libucrtd:output.obj
 0001:00055d00       ??$extract_argument_from_va_list@H_J@?$positional_parameter_base@_WV?$stream_output_adapter@_W@__crt_stdio_output@@@__crt_stdio_output@@IEAA_NAEA_J@Z 0000000180056d00 f i libucrtd:output.obj
 0001:00055ec0       ??$extract_argument_from_va_list@H_J@?$positional_parameter_base@_WV?$string_output_adapter@_W@__crt_stdio_output@@@__crt_stdio_output@@IEAA_NAEA_J@Z 0000000180056ec0 f i libucrtd:output.obj
 0001:00056080       ??$extract_argument_from_va_list@H_J@?$standard_base@DV?$stream_output_adapter@D@__crt_stdio_output@@@__crt_stdio_output@@IEAA_NAEA_J@Z 0000000180057080 f i libucrtd:output.obj
 0001:000560b0       ??$extract_argument_from_va_list@H_J@?$standard_base@DV?$string_output_adapter@D@__crt_stdio_output@@@__crt_stdio_output@@IEAA_NAEA_J@Z 00000001800570b0 f i libucrtd:output.obj
 0001:000560e0       ??$extract_argument_from_va_list@H_J@?$standard_base@_WV?$stream_output_adapter@_W@__crt_stdio_output@@@__crt_stdio_output@@IEAA_NAEA_J@Z 00000001800570e0 f i libucrtd:output.obj
 0001:00056110       ??$extract_argument_from_va_list@H_J@?$standard_base@_WV?$string_output_adapter@_W@__crt_stdio_output@@@__crt_stdio_output@@IEAA_NAEA_J@Z 0000000180057110 f i libucrtd:output.obj
 0001:00056140       ??$extract_argument_from_va_list@I_J@?$positional_parameter_base@DV?$stream_output_adapter@D@__crt_stdio_output@@@__crt_stdio_output@@IEAA_NAEA_J@Z 0000000180057140 f i libucrtd:output.obj
 0001:00056300       ??$extract_argument_from_va_list@I_J@?$positional_parameter_base@DV?$string_output_adapter@D@__crt_stdio_output@@@__crt_stdio_output@@IEAA_NAEA_J@Z 0000000180057300 f i libucrtd:output.obj
 0001:000564c0       ??$extract_argument_from_va_list@I_J@?$positional_parameter_base@_WV?$stream_output_adapter@_W@__crt_stdio_output@@@__crt_stdio_output@@IEAA_NAEA_J@Z 00000001800574c0 f i libucrtd:output.obj
 0001:00056680       ??$extract_argument_from_va_list@I_J@?$positional_parameter_base@_WV?$string_output_adapter@_W@__crt_stdio_output@@@__crt_stdio_output@@IEAA_NAEA_J@Z 0000000180057680 f i libucrtd:output.obj
 0001:00056840       ??$extract_argument_from_va_list@I_J@?$standard_base@DV?$stream_output_adapter@D@__crt_stdio_output@@@__crt_stdio_output@@IEAA_NAEA_J@Z 0000000180057840 f i libucrtd:output.obj
 0001:00056870       ??$extract_argument_from_va_list@I_J@?$standard_base@DV?$string_output_adapter@D@__crt_stdio_output@@@__crt_stdio_output@@IEAA_NAEA_J@Z 0000000180057870 f i libucrtd:output.obj
 0001:000568a0       ??$extract_argument_from_va_list@I_J@?$standard_base@_WV?$stream_output_adapter@_W@__crt_stdio_output@@@__crt_stdio_output@@IEAA_NAEA_J@Z 00000001800578a0 f i libucrtd:output.obj
 0001:000568d0       ??$extract_argument_from_va_list@I_J@?$standard_base@_WV?$string_output_adapter@_W@__crt_stdio_output@@@__crt_stdio_output@@IEAA_NAEA_J@Z 00000001800578d0 f i libucrtd:output.obj
 0001:00056900       ??$extract_argument_from_va_list@PEADPEAD@?$positional_parameter_base@DV?$stream_output_adapter@D@__crt_stdio_output@@@__crt_stdio_output@@IEAA_NAEAPEAD@Z 0000000180057900 f i libucrtd:output.obj
 0001:00056ac0       ??$extract_argument_from_va_list@PEADPEAD@?$positional_parameter_base@DV?$string_output_adapter@D@__crt_stdio_output@@@__crt_stdio_output@@IEAA_NAEAPEAD@Z 0000000180057ac0 f i libucrtd:output.obj
 0001:00056c80       ??$extract_argument_from_va_list@PEADPEAD@?$positional_parameter_base@_WV?$stream_output_adapter@_W@__crt_stdio_output@@@__crt_stdio_output@@IEAA_NAEAPEAD@Z 0000000180057c80 f i libucrtd:output.obj
 0001:00056e40       ??$extract_argument_from_va_list@PEADPEAD@?$positional_parameter_base@_WV?$string_output_adapter@_W@__crt_stdio_output@@@__crt_stdio_output@@IEAA_NAEAPEAD@Z 0000000180057e40 f i libucrtd:output.obj
 0001:00057000       ??$extract_argument_from_va_list@PEADPEAD@?$standard_base@DV?$stream_output_adapter@D@__crt_stdio_output@@@__crt_stdio_output@@IEAA_NAEAPEAD@Z 0000000180058000 f i libucrtd:output.obj
 0001:00057030       ??$extract_argument_from_va_list@PEADPEAD@?$standard_base@DV?$string_output_adapter@D@__crt_stdio_output@@@__crt_stdio_output@@IEAA_NAEAPEAD@Z 0000000180058030 f i libucrtd:output.obj
 0001:00057060       ??$extract_argument_from_va_list@PEADPEAD@?$standard_base@_WV?$stream_output_adapter@_W@__crt_stdio_output@@@__crt_stdio_output@@IEAA_NAEAPEAD@Z 0000000180058060 f i libucrtd:output.obj
 0001:00057090       ??$extract_argument_from_va_list@PEADPEAD@?$standard_base@_WV?$string_output_adapter@_W@__crt_stdio_output@@@__crt_stdio_output@@IEAA_NAEAPEAD@Z 0000000180058090 f i libucrtd:output.obj
 0001:000570c0       ??$extract_argument_from_va_list@PEAUansi_string@?1??type_case_Z@?$output_processor@DV?$stream_output_adapter@D@__crt_stdio_output@@V?$format_validation_base@DV?$stream_output_adapter@D@__crt_stdio_output@@@2@@__crt_stdio_output@@AEAA_NXZ@PEAU1?1??234@AEAA_NXZ@@?$standard_base@DV?$stream_output_adapter@D@__crt_stdio_output@@@__crt_stdio_output@@IEAA_NAEAPEAUansi_string@?1??type_case_Z@?$output_processor@DV?$stream_output_adapter@D@__crt_stdio_output@@V?$format_validation_base@DV?$stream_output_adapter@D@__crt_stdio_output@@@2@@1@AEAA_NXZ@@Z 00000001800580c0 f i libucrtd:output.obj
 0001:000570f0       ??$extract_argument_from_va_list@PEAUansi_string@?1??type_case_Z@?$output_processor@DV?$stream_output_adapter@D@__crt_stdio_output@@V?$positional_parameter_base@DV?$stream_output_adapter@D@__crt_stdio_output@@@2@@__crt_stdio_output@@AEAA_NXZ@PEAU1?1??234@AEAA_NXZ@@?$positional_parameter_base@DV?$stream_output_adapter@D@__crt_stdio_output@@@__crt_stdio_output@@IEAA_NAEAPEAUansi_string@?1??type_case_Z@?$output_processor@DV?$stream_output_adapter@D@__crt_stdio_output@@V?$positional_parameter_base@DV?$stream_output_adapter@D@__crt_stdio_output@@@2@@1@AEAA_NXZ@@Z 00000001800580f0 f i libucrtd:output.obj
 0001:000572b0       ??$extract_argument_from_va_list@PEAUansi_string@?1??type_case_Z@?$output_processor@DV?$stream_output_adapter@D@__crt_stdio_output@@V?$positional_parameter_base@DV?$stream_output_adapter@D@__crt_stdio_output@@@2@@__crt_stdio_output@@AEAA_NXZ@PEAU1?1??234@AEAA_NXZ@@?$standard_base@DV?$stream_output_adapter@D@__crt_stdio_output@@@__crt_stdio_output@@IEAA_NAEAPEAUansi_string@?1??type_case_Z@?$output_processor@DV?$stream_output_adapter@D@__crt_stdio_output@@V?$positional_parameter_base@DV?$stream_output_adapter@D@__crt_stdio_output@@@2@@1@AEAA_NXZ@@Z 00000001800582b0 f i libucrtd:output.obj
 0001:000572e0       ??$extract_argument_from_va_list@PEAUansi_string@?1??type_case_Z@?$output_processor@DV?$stream_output_adapter@D@__crt_stdio_output@@V?$standard_base@DV?$stream_output_adapter@D@__crt_stdio_output@@@2@@__crt_stdio_output@@AEAA_NXZ@PEAU1?1??234@AEAA_NXZ@@?$standard_base@DV?$stream_output_adapter@D@__crt_stdio_output@@@__crt_stdio_output@@IEAA_NAEAPEAUansi_string@?1??type_case_Z@?$output_processor@DV?$stream_output_adapter@D@__crt_stdio_output@@V?$standard_base@DV?$stream_output_adapter@D@__crt_stdio_output@@@2@@1@AEAA_NXZ@@Z 00000001800582e0 f i libucrtd:output.obj
 0001:00057310       ??$extract_argument_from_va_list@PEAUansi_string@?1??type_case_Z@?$output_processor@DV?$string_output_adapter@D@__crt_stdio_output@@V?$format_validation_base@DV?$string_output_adapter@D@__crt_stdio_output@@@2@@__crt_stdio_output@@AEAA_NXZ@PEAU1?1??234@AEAA_NXZ@@?$standard_base@DV?$string_output_adapter@D@__crt_stdio_output@@@__crt_stdio_output@@IEAA_NAEAPEAUansi_string@?1??type_case_Z@?$output_processor@DV?$string_output_adapter@D@__crt_stdio_output@@V?$format_validation_base@DV?$string_output_adapter@D@__crt_stdio_output@@@2@@1@AEAA_NXZ@@Z 0000000180058310 f i libucrtd:output.obj
 0001:00057340       ??$extract_argument_from_va_list@PEAUansi_string@?1??type_case_Z@?$output_processor@DV?$string_output_adapter@D@__crt_stdio_output@@V?$positional_parameter_base@DV?$string_output_adapter@D@__crt_stdio_output@@@2@@__crt_stdio_output@@AEAA_NXZ@PEAU1?1??234@AEAA_NXZ@@?$positional_parameter_base@DV?$string_output_adapter@D@__crt_stdio_output@@@__crt_stdio_output@@IEAA_NAEAPEAUansi_string@?1??type_case_Z@?$output_processor@DV?$string_output_adapter@D@__crt_stdio_output@@V?$positional_parameter_base@DV?$string_output_adapter@D@__crt_stdio_output@@@2@@1@AEAA_NXZ@@Z 0000000180058340 f i libucrtd:output.obj
 0001:00057500       ??$extract_argument_from_va_list@PEAUansi_string@?1??type_case_Z@?$output_processor@DV?$string_output_adapter@D@__crt_stdio_output@@V?$positional_parameter_base@DV?$string_output_adapter@D@__crt_stdio_output@@@2@@__crt_stdio_output@@AEAA_NXZ@PEAU1?1??234@AEAA_NXZ@@?$standard_base@DV?$string_output_adapter@D@__crt_stdio_output@@@__crt_stdio_output@@IEAA_NAEAPEAUansi_string@?1??type_case_Z@?$output_processor@DV?$string_output_adapter@D@__crt_stdio_output@@V?$positional_parameter_base@DV?$string_output_adapter@D@__crt_stdio_output@@@2@@1@AEAA_NXZ@@Z 0000000180058500 f i libucrtd:output.obj
 0001:00057530       ??$extract_argument_from_va_list@PEAUansi_string@?1??type_case_Z@?$output_processor@DV?$string_output_adapter@D@__crt_stdio_output@@V?$standard_base@DV?$string_output_adapter@D@__crt_stdio_output@@@2@@__crt_stdio_output@@AEAA_NXZ@PEAU1?1??234@AEAA_NXZ@@?$standard_base@DV?$string_output_adapter@D@__crt_stdio_output@@@__crt_stdio_output@@IEAA_NAEAPEAUansi_string@?1??type_case_Z@?$output_processor@DV?$string_output_adapter@D@__crt_stdio_output@@V?$standard_base@DV?$string_output_adapter@D@__crt_stdio_output@@@2@@1@AEAA_NXZ@@Z 0000000180058530 f i libucrtd:output.obj
 0001:00057560       ??$extract_argument_from_va_list@PEAUansi_string@?1??type_case_Z@?$output_processor@_WV?$stream_output_adapter@_W@__crt_stdio_output@@V?$format_validation_base@_WV?$stream_output_adapter@_W@__crt_stdio_output@@@2@@__crt_stdio_output@@AEAA_NXZ@PEAU1?1??234@AEAA_NXZ@@?$standard_base@_WV?$stream_output_adapter@_W@__crt_stdio_output@@@__crt_stdio_output@@IEAA_NAEAPEAUansi_string@?1??type_case_Z@?$output_processor@_WV?$stream_output_adapter@_W@__crt_stdio_output@@V?$format_validation_base@_WV?$stream_output_adapter@_W@__crt_stdio_output@@@2@@1@AEAA_NXZ@@Z 0000000180058560 f i libucrtd:output.obj
 0001:00057590       ??$extract_argument_from_va_list@PEAUansi_string@?1??type_case_Z@?$output_processor@_WV?$stream_output_adapter@_W@__crt_stdio_output@@V?$positional_parameter_base@_WV?$stream_output_adapter@_W@__crt_stdio_output@@@2@@__crt_stdio_output@@AEAA_NXZ@PEAU1?1??234@AEAA_NXZ@@?$positional_parameter_base@_WV?$stream_output_adapter@_W@__crt_stdio_output@@@__crt_stdio_output@@IEAA_NAEAPEAUansi_string@?1??type_case_Z@?$output_processor@_WV?$stream_output_adapter@_W@__crt_stdio_output@@V?$positional_parameter_base@_WV?$stream_output_adapter@_W@__crt_stdio_output@@@2@@1@AEAA_NXZ@@Z 0000000180058590 f i libucrtd:output.obj
 0001:00057750       ??$extract_argument_from_va_list@PEAUansi_string@?1??type_case_Z@?$output_processor@_WV?$stream_output_adapter@_W@__crt_stdio_output@@V?$positional_parameter_base@_WV?$stream_output_adapter@_W@__crt_stdio_output@@@2@@__crt_stdio_output@@AEAA_NXZ@PEAU1?1??234@AEAA_NXZ@@?$standard_base@_WV?$stream_output_adapter@_W@__crt_stdio_output@@@__crt_stdio_output@@IEAA_NAEAPEAUansi_string@?1??type_case_Z@?$output_processor@_WV?$stream_output_adapter@_W@__crt_stdio_output@@V?$positional_parameter_base@_WV?$stream_output_adapter@_W@__crt_stdio_output@@@2@@1@AEAA_NXZ@@Z 0000000180058750 f i libucrtd:output.obj
 0001:00057780       ??$extract_argument_from_va_list@PEAUansi_string@?1??type_case_Z@?$output_processor@_WV?$stream_output_adapter@_W@__crt_stdio_output@@V?$standard_base@_WV?$stream_output_adapter@_W@__crt_stdio_output@@@2@@__crt_stdio_output@@AEAA_NXZ@PEAU1?1??234@AEAA_NXZ@@?$standard_base@_WV?$stream_output_adapter@_W@__crt_stdio_output@@@__crt_stdio_output@@IEAA_NAEAPEAUansi_string@?1??type_case_Z@?$output_processor@_WV?$stream_output_adapter@_W@__crt_stdio_output@@V?$standard_base@_WV?$stream_output_adapter@_W@__crt_stdio_output@@@2@@1@AEAA_NXZ@@Z 0000000180058780 f i libucrtd:output.obj
 0001:000577b0       ??$extract_argument_from_va_list@PEAUansi_string@?1??type_case_Z@?$output_processor@_WV?$string_output_adapter@_W@__crt_stdio_output@@V?$format_validation_base@_WV?$string_output_adapter@_W@__crt_stdio_output@@@2@@__crt_stdio_output@@AEAA_NXZ@PEAU1?1??234@AEAA_NXZ@@?$standard_base@_WV?$string_output_adapter@_W@__crt_stdio_output@@@__crt_stdio_output@@IEAA_NAEAPEAUansi_string@?1??type_case_Z@?$output_processor@_WV?$string_output_adapter@_W@__crt_stdio_output@@V?$format_validation_base@_WV?$string_output_adapter@_W@__crt_stdio_output@@@2@@1@AEAA_NXZ@@Z 00000001800587b0 f i libucrtd:output.obj
 0001:000577e0       ??$extract_argument_from_va_list@PEAUansi_string@?1??type_case_Z@?$output_processor@_WV?$string_output_adapter@_W@__crt_stdio_output@@V?$positional_parameter_base@_WV?$string_output_adapter@_W@__crt_stdio_output@@@2@@__crt_stdio_output@@AEAA_NXZ@PEAU1?1??234@AEAA_NXZ@@?$positional_parameter_base@_WV?$string_output_adapter@_W@__crt_stdio_output@@@__crt_stdio_output@@IEAA_NAEAPEAUansi_string@?1??type_case_Z@?$output_processor@_WV?$string_output_adapter@_W@__crt_stdio_output@@V?$positional_parameter_base@_WV?$string_output_adapter@_W@__crt_stdio_output@@@2@@1@AEAA_NXZ@@Z 00000001800587e0 f i libucrtd:output.obj
 0001:000579a0       ??$extract_argument_from_va_list@PEAUansi_string@?1??type_case_Z@?$output_processor@_WV?$string_output_adapter@_W@__crt_stdio_output@@V?$positional_parameter_base@_WV?$string_output_adapter@_W@__crt_stdio_output@@@2@@__crt_stdio_output@@AEAA_NXZ@PEAU1?1??234@AEAA_NXZ@@?$standard_base@_WV?$string_output_adapter@_W@__crt_stdio_output@@@__crt_stdio_output@@IEAA_NAEAPEAUansi_string@?1??type_case_Z@?$output_processor@_WV?$string_output_adapter@_W@__crt_stdio_output@@V?$positional_parameter_base@_WV?$string_output_adapter@_W@__crt_stdio_output@@@2@@1@AEAA_NXZ@@Z 00000001800589a0 f i libucrtd:output.obj
 0001:000579d0       ??$extract_argument_from_va_list@PEAUansi_string@?1??type_case_Z@?$output_processor@_WV?$string_output_adapter@_W@__crt_stdio_output@@V?$standard_base@_WV?$string_output_adapter@_W@__crt_stdio_output@@@2@@__crt_stdio_output@@AEAA_NXZ@PEAU1?1??234@AEAA_NXZ@@?$standard_base@_WV?$string_output_adapter@_W@__crt_stdio_output@@@__crt_stdio_output@@IEAA_NAEAPEAUansi_string@?1??type_case_Z@?$output_processor@_WV?$string_output_adapter@_W@__crt_stdio_output@@V?$standard_base@_WV?$string_output_adapter@_W@__crt_stdio_output@@@2@@1@AEAA_NXZ@@Z 00000001800589d0 f i libucrtd:output.obj
 0001:00057a00       ??$extract_argument_from_va_list@PEAXPEAX@?$positional_parameter_base@DV?$stream_output_adapter@D@__crt_stdio_output@@@__crt_stdio_output@@IEAA_NAEAPEAX@Z 0000000180058a00 f i libucrtd:output.obj
 0001:00057bc0       ??$extract_argument_from_va_list@PEAXPEAX@?$positional_parameter_base@DV?$string_output_adapter@D@__crt_stdio_output@@@__crt_stdio_output@@IEAA_NAEAPEAX@Z 0000000180058bc0 f i libucrtd:output.obj
 0001:00057d80       ??$extract_argument_from_va_list@PEAXPEAX@?$positional_parameter_base@_WV?$stream_output_adapter@_W@__crt_stdio_output@@@__crt_stdio_output@@IEAA_NAEAPEAX@Z 0000000180058d80 f i libucrtd:output.obj
 0001:00057f40       ??$extract_argument_from_va_list@PEAXPEAX@?$positional_parameter_base@_WV?$string_output_adapter@_W@__crt_stdio_output@@@__crt_stdio_output@@IEAA_NAEAPEAX@Z 0000000180058f40 f i libucrtd:output.obj
 0001:00058100       ??$extract_argument_from_va_list@PEAXPEAX@?$standard_base@DV?$stream_output_adapter@D@__crt_stdio_output@@@__crt_stdio_output@@IEAA_NAEAPEAX@Z 0000000180059100 f i libucrtd:output.obj
 0001:00058130       ??$extract_argument_from_va_list@PEAXPEAX@?$standard_base@DV?$string_output_adapter@D@__crt_stdio_output@@@__crt_stdio_output@@IEAA_NAEAPEAX@Z 0000000180059130 f i libucrtd:output.obj
 0001:00058160       ??$extract_argument_from_va_list@PEAXPEAX@?$standard_base@_WV?$stream_output_adapter@_W@__crt_stdio_output@@@__crt_stdio_output@@IEAA_NAEAPEAX@Z 0000000180059160 f i libucrtd:output.obj
 0001:00058190       ??$extract_argument_from_va_list@PEAXPEAX@?$standard_base@_WV?$string_output_adapter@_W@__crt_stdio_output@@@__crt_stdio_output@@IEAA_NAEAPEAX@Z 0000000180059190 f i libucrtd:output.obj
 0001:000581c0       ??$extract_argument_from_va_list@U_CRT_DOUBLE@@U1@@?$positional_parameter_base@DV?$stream_output_adapter@D@__crt_stdio_output@@@__crt_stdio_output@@IEAA_NAEAU_CRT_DOUBLE@@@Z 00000001800591c0 f i libucrtd:output.obj
 0001:000583e0       ??$extract_argument_from_va_list@U_CRT_DOUBLE@@U1@@?$positional_parameter_base@DV?$string_output_adapter@D@__crt_stdio_output@@@__crt_stdio_output@@IEAA_NAEAU_CRT_DOUBLE@@@Z 00000001800593e0 f i libucrtd:output.obj
 0001:00058600       ??$extract_argument_from_va_list@U_CRT_DOUBLE@@U1@@?$positional_parameter_base@_WV?$stream_output_adapter@_W@__crt_stdio_output@@@__crt_stdio_output@@IEAA_NAEAU_CRT_DOUBLE@@@Z 0000000180059600 f i libucrtd:output.obj
 0001:00058820       ??$extract_argument_from_va_list@U_CRT_DOUBLE@@U1@@?$positional_parameter_base@_WV?$string_output_adapter@_W@__crt_stdio_output@@@__crt_stdio_output@@IEAA_NAEAU_CRT_DOUBLE@@@Z 0000000180059820 f i libucrtd:output.obj
 0001:00058a40       ??$extract_argument_from_va_list@U_CRT_DOUBLE@@U1@@?$standard_base@DV?$stream_output_adapter@D@__crt_stdio_output@@@__crt_stdio_output@@IEAA_NAEAU_CRT_DOUBLE@@@Z 0000000180059a40 f i libucrtd:output.obj
 0001:00058a90       ??$extract_argument_from_va_list@U_CRT_DOUBLE@@U1@@?$standard_base@DV?$string_output_adapter@D@__crt_stdio_output@@@__crt_stdio_output@@IEAA_NAEAU_CRT_DOUBLE@@@Z 0000000180059a90 f i libucrtd:output.obj
 0001:00058ae0       ??$extract_argument_from_va_list@U_CRT_DOUBLE@@U1@@?$standard_base@_WV?$stream_output_adapter@_W@__crt_stdio_output@@@__crt_stdio_output@@IEAA_NAEAU_CRT_DOUBLE@@@Z 0000000180059ae0 f i libucrtd:output.obj
 0001:00058b30       ??$extract_argument_from_va_list@U_CRT_DOUBLE@@U1@@?$standard_base@_WV?$string_output_adapter@_W@__crt_stdio_output@@@__crt_stdio_output@@IEAA_NAEAU_CRT_DOUBLE@@@Z 0000000180059b30 f i libucrtd:output.obj
 0001:00058b80       ??$extract_argument_from_va_list@_J_J@?$positional_parameter_base@DV?$stream_output_adapter@D@__crt_stdio_output@@@__crt_stdio_output@@IEAA_NAEA_J@Z 0000000180059b80 f i libucrtd:output.obj
 0001:00058d40       ??$extract_argument_from_va_list@_J_J@?$positional_parameter_base@DV?$string_output_adapter@D@__crt_stdio_output@@@__crt_stdio_output@@IEAA_NAEA_J@Z 0000000180059d40 f i libucrtd:output.obj
 0001:00058f00       ??$extract_argument_from_va_list@_J_J@?$positional_parameter_base@_WV?$stream_output_adapter@_W@__crt_stdio_output@@@__crt_stdio_output@@IEAA_NAEA_J@Z 0000000180059f00 f i libucrtd:output.obj
 0001:000590c0       ??$extract_argument_from_va_list@_J_J@?$positional_parameter_base@_WV?$string_output_adapter@_W@__crt_stdio_output@@@__crt_stdio_output@@IEAA_NAEA_J@Z 000000018005a0c0 f i libucrtd:output.obj
 0001:00059280       ??$extract_argument_from_va_list@_J_J@?$standard_base@DV?$stream_output_adapter@D@__crt_stdio_output@@@__crt_stdio_output@@IEAA_NAEA_J@Z 000000018005a280 f i libucrtd:output.obj
 0001:000592b0       ??$extract_argument_from_va_list@_J_J@?$standard_base@DV?$string_output_adapter@D@__crt_stdio_output@@@__crt_stdio_output@@IEAA_NAEA_J@Z 000000018005a2b0 f i libucrtd:output.obj
 0001:000592e0       ??$extract_argument_from_va_list@_J_J@?$standard_base@_WV?$stream_output_adapter@_W@__crt_stdio_output@@@__crt_stdio_output@@IEAA_NAEA_J@Z 000000018005a2e0 f i libucrtd:output.obj
 0001:00059310       ??$extract_argument_from_va_list@_J_J@?$standard_base@_WV?$string_output_adapter@_W@__crt_stdio_output@@@__crt_stdio_output@@IEAA_NAEA_J@Z 000000018005a310 f i libucrtd:output.obj
 0001:00059340       ??$extract_argument_from_va_list@_K_J@?$positional_parameter_base@DV?$stream_output_adapter@D@__crt_stdio_output@@@__crt_stdio_output@@IEAA_NAEA_J@Z 000000018005a340 f i libucrtd:output.obj
 0001:00059500       ??$extract_argument_from_va_list@_K_J@?$positional_parameter_base@DV?$string_output_adapter@D@__crt_stdio_output@@@__crt_stdio_output@@IEAA_NAEA_J@Z 000000018005a500 f i libucrtd:output.obj
 0001:000596c0       ??$extract_argument_from_va_list@_K_J@?$positional_parameter_base@_WV?$stream_output_adapter@_W@__crt_stdio_output@@@__crt_stdio_output@@IEAA_NAEA_J@Z 000000018005a6c0 f i libucrtd:output.obj
 0001:00059880       ??$extract_argument_from_va_list@_K_J@?$positional_parameter_base@_WV?$string_output_adapter@_W@__crt_stdio_output@@@__crt_stdio_output@@IEAA_NAEA_J@Z 000000018005a880 f i libucrtd:output.obj
 0001:00059a40       ??$extract_argument_from_va_list@_K_J@?$standard_base@DV?$stream_output_adapter@D@__crt_stdio_output@@@__crt_stdio_output@@IEAA_NAEA_J@Z 000000018005aa40 f i libucrtd:output.obj
 0001:00059a70       ??$extract_argument_from_va_list@_K_J@?$standard_base@DV?$string_output_adapter@D@__crt_stdio_output@@@__crt_stdio_output@@IEAA_NAEA_J@Z 000000018005aa70 f i libucrtd:output.obj
 0001:00059aa0       ??$extract_argument_from_va_list@_K_J@?$standard_base@_WV?$stream_output_adapter@_W@__crt_stdio_output@@@__crt_stdio_output@@IEAA_NAEA_J@Z 000000018005aaa0 f i libucrtd:output.obj
 0001:00059ad0       ??$extract_argument_from_va_list@_K_J@?$standard_base@_WV?$string_output_adapter@_W@__crt_stdio_output@@@__crt_stdio_output@@IEAA_NAEA_J@Z 000000018005aad0 f i libucrtd:output.obj
 0001:00059b00       ??$extract_argument_from_va_list@_W_W@?$positional_parameter_base@DV?$stream_output_adapter@D@__crt_stdio_output@@@__crt_stdio_output@@IEAA_NAEA_W@Z 000000018005ab00 f i libucrtd:output.obj
 0001:00059cc0       ??$extract_argument_from_va_list@_W_W@?$positional_parameter_base@DV?$string_output_adapter@D@__crt_stdio_output@@@__crt_stdio_output@@IEAA_NAEA_W@Z 000000018005acc0 f i libucrtd:output.obj
 0001:00059e80       ??$extract_argument_from_va_list@_W_W@?$positional_parameter_base@_WV?$stream_output_adapter@_W@__crt_stdio_output@@@__crt_stdio_output@@IEAA_NAEA_W@Z 000000018005ae80 f i libucrtd:output.obj
 0001:0005a040       ??$extract_argument_from_va_list@_W_W@?$positional_parameter_base@_WV?$string_output_adapter@_W@__crt_stdio_output@@@__crt_stdio_output@@IEAA_NAEA_W@Z 000000018005b040 f i libucrtd:output.obj
 0001:0005a200       ??$extract_argument_from_va_list@_W_W@?$standard_base@DV?$stream_output_adapter@D@__crt_stdio_output@@@__crt_stdio_output@@IEAA_NAEA_W@Z 000000018005b200 f i libucrtd:output.obj
 0001:0005a230       ??$extract_argument_from_va_list@_W_W@?$standard_base@DV?$string_output_adapter@D@__crt_stdio_output@@@__crt_stdio_output@@IEAA_NAEA_W@Z 000000018005b230 f i libucrtd:output.obj
 0001:0005a260       ??$extract_argument_from_va_list@_W_W@?$standard_base@_WV?$stream_output_adapter@_W@__crt_stdio_output@@@__crt_stdio_output@@IEAA_NAEA_W@Z 000000018005b260 f i libucrtd:output.obj
 0001:0005a290       ??$extract_argument_from_va_list@_W_W@?$standard_base@_WV?$string_output_adapter@_W@__crt_stdio_output@@@__crt_stdio_output@@IEAA_NAEA_W@Z 000000018005b290 f i libucrtd:output.obj
 0001:0005a2c0       ??$get_parameter_type@D@?$positional_parameter_base@DV?$stream_output_adapter@D@__crt_stdio_output@@@__crt_stdio_output@@CA?AW4parameter_type@01@PEAD@Z 000000018005b2c0 f i libucrtd:output.obj
 0001:0005a2d0       ??$get_parameter_type@D@?$positional_parameter_base@DV?$string_output_adapter@D@__crt_stdio_output@@@__crt_stdio_output@@CA?AW4parameter_type@01@PEAD@Z 000000018005b2d0 f i libucrtd:output.obj
 0001:0005a2e0       ??$get_parameter_type@D@?$positional_parameter_base@_WV?$stream_output_adapter@_W@__crt_stdio_output@@@__crt_stdio_output@@CA?AW4parameter_type@01@PEAD@Z 000000018005b2e0 f i libucrtd:output.obj
 0001:0005a2f0       ??$get_parameter_type@D@?$positional_parameter_base@_WV?$string_output_adapter@_W@__crt_stdio_output@@@__crt_stdio_output@@CA?AW4parameter_type@01@PEAD@Z 000000018005b2f0 f i libucrtd:output.obj
 0001:0005a300       ??$get_parameter_type@Uansi_string@?1??type_case_Z@?$output_processor@DV?$stream_output_adapter@D@__crt_stdio_output@@V?$positional_parameter_base@DV?$stream_output_adapter@D@__crt_stdio_output@@@2@@__crt_stdio_output@@AEAA_NXZ@@?$positional_parameter_base@DV?$stream_output_adapter@D@__crt_stdio_output@@@__crt_stdio_output@@CA?AW4parameter_type@01@PEAUansi_string@?1??type_case_Z@?$output_processor@DV?$stream_output_adapter@D@__crt_stdio_output@@V?$positional_parameter_base@DV?$stream_output_adapter@D@__crt_stdio_output@@@2@@1@AEAA_NXZ@@Z 000000018005b300 f i libucrtd:output.obj
 0001:0005a310       ??$get_parameter_type@Uansi_string@?1??type_case_Z@?$output_processor@DV?$string_output_adapter@D@__crt_stdio_output@@V?$positional_parameter_base@DV?$string_output_adapter@D@__crt_stdio_output@@@2@@__crt_stdio_output@@AEAA_NXZ@@?$positional_parameter_base@DV?$string_output_adapter@D@__crt_stdio_output@@@__crt_stdio_output@@CA?AW4parameter_type@01@PEAUansi_string@?1??type_case_Z@?$output_processor@DV?$string_output_adapter@D@__crt_stdio_output@@V?$positional_parameter_base@DV?$string_output_adapter@D@__crt_stdio_output@@@2@@1@AEAA_NXZ@@Z 000000018005b310 f i libucrtd:output.obj
 0001:0005a320       ??$get_parameter_type@Uansi_string@?1??type_case_Z@?$output_processor@_WV?$stream_output_adapter@_W@__crt_stdio_output@@V?$positional_parameter_base@_WV?$stream_output_adapter@_W@__crt_stdio_output@@@2@@__crt_stdio_output@@AEAA_NXZ@@?$positional_parameter_base@_WV?$stream_output_adapter@_W@__crt_stdio_output@@@__crt_stdio_output@@CA?AW4parameter_type@01@PEAUansi_string@?1??type_case_Z@?$output_processor@_WV?$stream_output_adapter@_W@__crt_stdio_output@@V?$positional_parameter_base@_WV?$stream_output_adapter@_W@__crt_stdio_output@@@2@@1@AEAA_NXZ@@Z 000000018005b320 f i libucrtd:output.obj
 0001:0005a330       ??$get_parameter_type@Uansi_string@?1??type_case_Z@?$output_processor@_WV?$string_output_adapter@_W@__crt_stdio_output@@V?$positional_parameter_base@_WV?$string_output_adapter@_W@__crt_stdio_output@@@2@@__crt_stdio_output@@AEAA_NXZ@@?$positional_parameter_base@_WV?$string_output_adapter@_W@__crt_stdio_output@@@__crt_stdio_output@@CA?AW4parameter_type@01@PEAUansi_string@?1??type_case_Z@?$output_processor@_WV?$string_output_adapter@_W@__crt_stdio_output@@V?$positional_parameter_base@_WV?$string_output_adapter@_W@__crt_stdio_output@@@2@@1@AEAA_NXZ@@Z 000000018005b330 f i libucrtd:output.obj
 0001:0005a340       ??$get_parameter_type@X@?$positional_parameter_base@DV?$stream_output_adapter@D@__crt_stdio_output@@@__crt_stdio_output@@CA?AW4parameter_type@01@PEAX@Z 000000018005b340 f i libucrtd:output.obj
 0001:0005a350       ??$get_parameter_type@X@?$positional_parameter_base@DV?$string_output_adapter@D@__crt_stdio_output@@@__crt_stdio_output@@CA?AW4parameter_type@01@PEAX@Z 000000018005b350 f i libucrtd:output.obj
 0001:0005a360       ??$get_parameter_type@X@?$positional_parameter_base@_WV?$stream_output_adapter@_W@__crt_stdio_output@@@__crt_stdio_output@@CA?AW4parameter_type@01@PEAX@Z 000000018005b360 f i libucrtd:output.obj
 0001:0005a370       ??$get_parameter_type@X@?$positional_parameter_base@_WV?$string_output_adapter@_W@__crt_stdio_output@@@__crt_stdio_output@@CA?AW4parameter_type@01@PEAX@Z 000000018005b370 f i libucrtd:output.obj
 0001:0005a380       ??$is_character_specifier@D@?$positional_parameter_base@DV?$stream_output_adapter@D@__crt_stdio_output@@@__crt_stdio_output@@CA_ND@Z 000000018005b380 f i libucrtd:output.obj
 0001:0005a3c0       ??$is_character_specifier@D@?$positional_parameter_base@DV?$string_output_adapter@D@__crt_stdio_output@@@__crt_stdio_output@@CA_ND@Z 000000018005b3c0 f i libucrtd:output.obj
 0001:0005a400       ??$is_character_specifier@_W@?$positional_parameter_base@_WV?$stream_output_adapter@_W@__crt_stdio_output@@@__crt_stdio_output@@CA_N_W@Z 000000018005b400 f i libucrtd:output.obj
 0001:0005a440       ??$is_character_specifier@_W@?$positional_parameter_base@_WV?$string_output_adapter@_W@__crt_stdio_output@@@__crt_stdio_output@@CA_N_W@Z 000000018005b440 f i libucrtd:output.obj
 0001:0005a480       ??$is_integral_specifier@D@?$positional_parameter_base@DV?$stream_output_adapter@D@__crt_stdio_output@@@__crt_stdio_output@@CA_ND@Z 000000018005b480 f i libucrtd:output.obj
 0001:0005a4f0       ??$is_integral_specifier@D@?$positional_parameter_base@DV?$string_output_adapter@D@__crt_stdio_output@@@__crt_stdio_output@@CA_ND@Z 000000018005b4f0 f i libucrtd:output.obj
 0001:0005a560       ??$is_integral_specifier@_W@?$positional_parameter_base@_WV?$stream_output_adapter@_W@__crt_stdio_output@@@__crt_stdio_output@@CA_N_W@Z 000000018005b560 f i libucrtd:output.obj
 0001:0005a5d0       ??$is_integral_specifier@_W@?$positional_parameter_base@_WV?$string_output_adapter@_W@__crt_stdio_output@@@__crt_stdio_output@@CA_N_W@Z 000000018005b5d0 f i libucrtd:output.obj
 0001:0005a640       ??$is_overflow_condition@K@__crt_strtox@@YA_NIK@Z 000000018005b640 f i libucrtd:output.obj
 0001:0005a6b0       ??$is_pointer_specifier@D@?$positional_parameter_base@DV?$stream_output_adapter@D@__crt_stdio_output@@@__crt_stdio_output@@CA_ND@Z 000000018005b6b0 f i libucrtd:output.obj
 0001:0005a6e0       ??$is_pointer_specifier@D@?$positional_parameter_base@DV?$string_output_adapter@D@__crt_stdio_output@@@__crt_stdio_output@@CA_ND@Z 000000018005b6e0 f i libucrtd:output.obj
 0001:0005a710       ??$is_pointer_specifier@_W@?$positional_parameter_base@_WV?$stream_output_adapter@_W@__crt_stdio_output@@@__crt_stdio_output@@CA_N_W@Z 000000018005b710 f i libucrtd:output.obj
 0001:0005a740       ??$is_pointer_specifier@_W@?$positional_parameter_base@_WV?$string_output_adapter@_W@__crt_stdio_output@@@__crt_stdio_output@@CA_N_W@Z 000000018005b740 f i libucrtd:output.obj
 0001:0005a770       ??$is_string_specifier@D@?$positional_parameter_base@DV?$stream_output_adapter@D@__crt_stdio_output@@@__crt_stdio_output@@CA_ND@Z 000000018005b770 f i libucrtd:output.obj
 0001:0005a7b0       ??$is_string_specifier@D@?$positional_parameter_base@DV?$string_output_adapter@D@__crt_stdio_output@@@__crt_stdio_output@@CA_ND@Z 000000018005b7b0 f i libucrtd:output.obj
 0001:0005a7f0       ??$is_string_specifier@_W@?$positional_parameter_base@_WV?$stream_output_adapter@_W@__crt_stdio_output@@@__crt_stdio_output@@CA_N_W@Z 000000018005b7f0 f i libucrtd:output.obj
 0001:0005a830       ??$is_string_specifier@_W@?$positional_parameter_base@_WV?$string_output_adapter@_W@__crt_stdio_output@@@__crt_stdio_output@@CA_N_W@Z 000000018005b830 f i libucrtd:output.obj
 0001:0005a870       ??$is_wide_character_specifier@D@__crt_stdio_output@@YA_N_KDW4length_modifier@0@@Z 000000018005b870 f i libucrtd:output.obj
 0001:0005a910       ??$is_wide_character_specifier@_W@__crt_stdio_output@@YA_N_K_WW4length_modifier@0@@Z 000000018005b910 f i libucrtd:output.obj
 0001:0005a9e0       ??$make_c_string_character_source@DPEAPEAD@__crt_strtox@@YA?AV?$c_string_character_source@D@0@QEBDQEAPEAD@Z 000000018005b9e0 f i libucrtd:output.obj
 0001:0005aa20       ??$make_c_string_character_source@_WPEAPEA_W@__crt_strtox@@YA?AV?$c_string_character_source@_W@0@QEB_WQEAPEA_W@Z 000000018005ba20 f i libucrtd:output.obj
 0001:0005aa60       ??$parse_integer@KV?$c_string_character_source@D@__crt_strtox@@$0A@@__crt_strtox@@YAKAEAV__crt_cached_ptd_host@@V?$c_string_character_source@D@0@H_N@Z 000000018005ba60 f i libucrtd:output.obj
 0001:0005aee0       ??$parse_integer@KV?$c_string_character_source@_W@__crt_strtox@@$0A@@__crt_strtox@@YAKAEAV__crt_cached_ptd_host@@V?$c_string_character_source@_W@0@H_N@Z 000000018005bee0 f i libucrtd:output.obj
 0001:0005b360       ??$peek_va_arg@C@__crt_stdio_output@@YACPEAD@Z 000000018005c360 f i libucrtd:output.obj
 0001:0005b3c0       ??$peek_va_arg@E@__crt_stdio_output@@YAEPEAD@Z 000000018005c3c0 f i libucrtd:output.obj
 0001:0005b420       ??$peek_va_arg@F@__crt_stdio_output@@YAFPEAD@Z 000000018005c420 f i libucrtd:output.obj
 0001:0005b480       ??$peek_va_arg@G@__crt_stdio_output@@YAGPEAD@Z 000000018005c480 f i libucrtd:output.obj
 0001:0005b4e0       ??$peek_va_arg@H@__crt_stdio_output@@YAHPEAD@Z 000000018005c4e0 f i libucrtd:output.obj
 0001:0005b530       ??$peek_va_arg@I@__crt_stdio_output@@YAIPEAD@Z 000000018005c530 f i libucrtd:output.obj
 0001:0005b580       ??$peek_va_arg@PEAD@__crt_stdio_output@@YAPEADPEAD@Z 000000018005c580 f i libucrtd:output.obj
 0001:0005b5e0       ??$peek_va_arg@PEAUansi_string@?1??type_case_Z@?$output_processor@DV?$stream_output_adapter@D@__crt_stdio_output@@V?$positional_parameter_base@DV?$stream_output_adapter@D@__crt_stdio_output@@@2@@__crt_stdio_output@@AEAA_NXZ@@__crt_stdio_output@@YAPEAUansi_string@?1??type_case_Z@?$output_processor@DV?$stream_output_adapter@D@__crt_stdio_output@@V?$positional_parameter_base@DV?$stream_output_adapter@D@__crt_stdio_output@@@2@@0@AEAA_NXZ@PEAD@Z 000000018005c5e0 f i libucrtd:output.obj
 0001:0005b640       ??$peek_va_arg@PEAUansi_string@?1??type_case_Z@?$output_processor@DV?$string_output_adapter@D@__crt_stdio_output@@V?$positional_parameter_base@DV?$string_output_adapter@D@__crt_stdio_output@@@2@@__crt_stdio_output@@AEAA_NXZ@@__crt_stdio_output@@YAPEAUansi_string@?1??type_case_Z@?$output_processor@DV?$string_output_adapter@D@__crt_stdio_output@@V?$positional_parameter_base@DV?$string_output_adapter@D@__crt_stdio_output@@@2@@0@AEAA_NXZ@PEAD@Z 000000018005c640 f i libucrtd:output.obj
 0001:0005b6a0       ??$peek_va_arg@PEAUansi_string@?1??type_case_Z@?$output_processor@_WV?$stream_output_adapter@_W@__crt_stdio_output@@V?$positional_parameter_base@_WV?$stream_output_adapter@_W@__crt_stdio_output@@@2@@__crt_stdio_output@@AEAA_NXZ@@__crt_stdio_output@@YAPEAUansi_string@?1??type_case_Z@?$output_processor@_WV?$stream_output_adapter@_W@__crt_stdio_output@@V?$positional_parameter_base@_WV?$stream_output_adapter@_W@__crt_stdio_output@@@2@@0@AEAA_NXZ@PEAD@Z 000000018005c6a0 f i libucrtd:output.obj
 0001:0005b700       ??$peek_va_arg@PEAUansi_string@?1??type_case_Z@?$output_processor@_WV?$string_output_adapter@_W@__crt_stdio_output@@V?$positional_parameter_base@_WV?$string_output_adapter@_W@__crt_stdio_output@@@2@@__crt_stdio_output@@AEAA_NXZ@@__crt_stdio_output@@YAPEAUansi_string@?1??type_case_Z@?$output_processor@_WV?$string_output_adapter@_W@__crt_stdio_output@@V?$positional_parameter_base@_WV?$string_output_adapter@_W@__crt_stdio_output@@@2@@0@AEAA_NXZ@PEAD@Z 000000018005c700 f i libucrtd:output.obj
 0001:0005b760       ??$peek_va_arg@PEAX@__crt_stdio_output@@YAPEAXPEAD@Z 000000018005c760 f i libucrtd:output.obj
 0001:0005b7c0       ??$peek_va_arg@U_CRT_DOUBLE@@@__crt_stdio_output@@YA?AU_CRT_DOUBLE@@PEAD@Z 000000018005c7c0 f i libucrtd:output.obj
 0001:0005b820       ??$peek_va_arg@_J@__crt_stdio_output@@YA_JPEAD@Z 000000018005c820 f i libucrtd:output.obj
 0001:0005b880       ??$peek_va_arg@_K@__crt_stdio_output@@YA_KPEAD@Z 000000018005c880 f i libucrtd:output.obj
 0001:0005b8e0       ??$peek_va_arg@_W@__crt_stdio_output@@YA_WPEAD@Z 000000018005c8e0 f i libucrtd:output.obj
 0001:0005b940       ??$puttc_nolock_internal@AEBDPEAU_iobuf@@AEAV__crt_cached_ptd_host@@@?$__crt_char_traits@D@@SAHAEBD$$QEAPEAU_iobuf@@AEAV__crt_cached_ptd_host@@@Z 000000018005c940 f i libucrtd:output.obj
 0001:0005b980       ??$puttc_nolock_internal@AEB_WPEAU_iobuf@@AEAV__crt_cached_ptd_host@@@?$__crt_char_traits@_W@@SAGAEB_W$$QEAPEAU_iobuf@@AEAV__crt_cached_ptd_host@@@Z 000000018005c980 f i libucrtd:output.obj
 0001:0005b9c0       ??$read_va_arg@C@__crt_stdio_output@@YACAEAPEAD@Z 000000018005c9c0 f i libucrtd:output.obj
 0001:0005ba30       ??$read_va_arg@E@__crt_stdio_output@@YAEAEAPEAD@Z 000000018005ca30 f i libucrtd:output.obj
 0001:0005baa0       ??$read_va_arg@F@__crt_stdio_output@@YAFAEAPEAD@Z 000000018005caa0 f i libucrtd:output.obj
 0001:0005bb10       ??$read_va_arg@G@__crt_stdio_output@@YAGAEAPEAD@Z 000000018005cb10 f i libucrtd:output.obj
 0001:0005bb80       ??$read_va_arg@H@__crt_stdio_output@@YAHAEAPEAD@Z 000000018005cb80 f i libucrtd:output.obj
 0001:0005bbe0       ??$read_va_arg@I@__crt_stdio_output@@YAIAEAPEAD@Z 000000018005cbe0 f i libucrtd:output.obj
 0001:0005bc40       ??$read_va_arg@PEAD@__crt_stdio_output@@YAPEADAEAPEAD@Z 000000018005cc40 f i libucrtd:output.obj
 0001:0005bcb0       ??$read_va_arg@PEAUansi_string@?1??type_case_Z@?$output_processor@DV?$stream_output_adapter@D@__crt_stdio_output@@V?$format_validation_base@DV?$stream_output_adapter@D@__crt_stdio_output@@@2@@__crt_stdio_output@@AEAA_NXZ@@__crt_stdio_output@@YAPEAUansi_string@?1??type_case_Z@?$output_processor@DV?$stream_output_adapter@D@__crt_stdio_output@@V?$format_validation_base@DV?$stream_output_adapter@D@__crt_stdio_output@@@2@@0@AEAA_NXZ@AEAPEAD@Z 000000018005ccb0 f i libucrtd:output.obj
 0001:0005bd20       ??$read_va_arg@PEAUansi_string@?1??type_case_Z@?$output_processor@DV?$stream_output_adapter@D@__crt_stdio_output@@V?$positional_parameter_base@DV?$stream_output_adapter@D@__crt_stdio_output@@@2@@__crt_stdio_output@@AEAA_NXZ@@__crt_stdio_output@@YAPEAUansi_string@?1??type_case_Z@?$output_processor@DV?$stream_output_adapter@D@__crt_stdio_output@@V?$positional_parameter_base@DV?$stream_output_adapter@D@__crt_stdio_output@@@2@@0@AEAA_NXZ@AEAPEAD@Z 000000018005cd20 f i libucrtd:output.obj
 0001:0005bd90       ??$read_va_arg@PEAUansi_string@?1??type_case_Z@?$output_processor@DV?$stream_output_adapter@D@__crt_stdio_output@@V?$standard_base@DV?$stream_output_adapter@D@__crt_stdio_output@@@2@@__crt_stdio_output@@AEAA_NXZ@@__crt_stdio_output@@YAPEAUansi_string@?1??type_case_Z@?$output_processor@DV?$stream_output_adapter@D@__crt_stdio_output@@V?$standard_base@DV?$stream_output_adapter@D@__crt_stdio_output@@@2@@0@AEAA_NXZ@AEAPEAD@Z 000000018005cd90 f i libucrtd:output.obj
 0001:0005be00       ??$read_va_arg@PEAUansi_string@?1??type_case_Z@?$output_processor@DV?$string_output_adapter@D@__crt_stdio_output@@V?$format_validation_base@DV?$string_output_adapter@D@__crt_stdio_output@@@2@@__crt_stdio_output@@AEAA_NXZ@@__crt_stdio_output@@YAPEAUansi_string@?1??type_case_Z@?$output_processor@DV?$string_output_adapter@D@__crt_stdio_output@@V?$format_validation_base@DV?$string_output_adapter@D@__crt_stdio_output@@@2@@0@AEAA_NXZ@AEAPEAD@Z 000000018005ce00 f i libucrtd:output.obj
 0001:0005be70       ??$read_va_arg@PEAUansi_string@?1??type_case_Z@?$output_processor@DV?$string_output_adapter@D@__crt_stdio_output@@V?$positional_parameter_base@DV?$string_output_adapter@D@__crt_stdio_output@@@2@@__crt_stdio_output@@AEAA_NXZ@@__crt_stdio_output@@YAPEAUansi_string@?1??type_case_Z@?$output_processor@DV?$string_output_adapter@D@__crt_stdio_output@@V?$positional_parameter_base@DV?$string_output_adapter@D@__crt_stdio_output@@@2@@0@AEAA_NXZ@AEAPEAD@Z 000000018005ce70 f i libucrtd:output.obj
 0001:0005bee0       ??$read_va_arg@PEAUansi_string@?1??type_case_Z@?$output_processor@DV?$string_output_adapter@D@__crt_stdio_output@@V?$standard_base@DV?$string_output_adapter@D@__crt_stdio_output@@@2@@__crt_stdio_output@@AEAA_NXZ@@__crt_stdio_output@@YAPEAUansi_string@?1??type_case_Z@?$output_processor@DV?$string_output_adapter@D@__crt_stdio_output@@V?$standard_base@DV?$string_output_adapter@D@__crt_stdio_output@@@2@@0@AEAA_NXZ@AEAPEAD@Z 000000018005cee0 f i libucrtd:output.obj
 0001:0005bf50       ??$read_va_arg@PEAUansi_string@?1??type_case_Z@?$output_processor@_WV?$stream_output_adapter@_W@__crt_stdio_output@@V?$format_validation_base@_WV?$stream_output_adapter@_W@__crt_stdio_output@@@2@@__crt_stdio_output@@AEAA_NXZ@@__crt_stdio_output@@YAPEAUansi_string@?1??type_case_Z@?$output_processor@_WV?$stream_output_adapter@_W@__crt_stdio_output@@V?$format_validation_base@_WV?$stream_output_adapter@_W@__crt_stdio_output@@@2@@0@AEAA_NXZ@AEAPEAD@Z 000000018005cf50 f i libucrtd:output.obj
 0001:0005bfc0       ??$read_va_arg@PEAUansi_string@?1??type_case_Z@?$output_processor@_WV?$stream_output_adapter@_W@__crt_stdio_output@@V?$positional_parameter_base@_WV?$stream_output_adapter@_W@__crt_stdio_output@@@2@@__crt_stdio_output@@AEAA_NXZ@@__crt_stdio_output@@YAPEAUansi_string@?1??type_case_Z@?$output_processor@_WV?$stream_output_adapter@_W@__crt_stdio_output@@V?$positional_parameter_base@_WV?$stream_output_adapter@_W@__crt_stdio_output@@@2@@0@AEAA_NXZ@AEAPEAD@Z 000000018005cfc0 f i libucrtd:output.obj
 0001:0005c030       ??$read_va_arg@PEAUansi_string@?1??type_case_Z@?$output_processor@_WV?$stream_output_adapter@_W@__crt_stdio_output@@V?$standard_base@_WV?$stream_output_adapter@_W@__crt_stdio_output@@@2@@__crt_stdio_output@@AEAA_NXZ@@__crt_stdio_output@@YAPEAUansi_string@?1??type_case_Z@?$output_processor@_WV?$stream_output_adapter@_W@__crt_stdio_output@@V?$standard_base@_WV?$stream_output_adapter@_W@__crt_stdio_output@@@2@@0@AEAA_NXZ@AEAPEAD@Z 000000018005d030 f i libucrtd:output.obj
 0001:0005c0a0       ??$read_va_arg@PEAUansi_string@?1??type_case_Z@?$output_processor@_WV?$string_output_adapter@_W@__crt_stdio_output@@V?$format_validation_base@_WV?$string_output_adapter@_W@__crt_stdio_output@@@2@@__crt_stdio_output@@AEAA_NXZ@@__crt_stdio_output@@YAPEAUansi_string@?1??type_case_Z@?$output_processor@_WV?$string_output_adapter@_W@__crt_stdio_output@@V?$format_validation_base@_WV?$string_output_adapter@_W@__crt_stdio_output@@@2@@0@AEAA_NXZ@AEAPEAD@Z 000000018005d0a0 f i libucrtd:output.obj
 0001:0005c110       ??$read_va_arg@PEAUansi_string@?1??type_case_Z@?$output_processor@_WV?$string_output_adapter@_W@__crt_stdio_output@@V?$positional_parameter_base@_WV?$string_output_adapter@_W@__crt_stdio_output@@@2@@__crt_stdio_output@@AEAA_NXZ@@__crt_stdio_output@@YAPEAUansi_string@?1??type_case_Z@?$output_processor@_WV?$string_output_adapter@_W@__crt_stdio_output@@V?$positional_parameter_base@_WV?$string_output_adapter@_W@__crt_stdio_output@@@2@@0@AEAA_NXZ@AEAPEAD@Z 000000018005d110 f i libucrtd:output.obj
 0001:0005c180       ??$read_va_arg@PEAUansi_string@?1??type_case_Z@?$output_processor@_WV?$string_output_adapter@_W@__crt_stdio_output@@V?$standard_base@_WV?$string_output_adapter@_W@__crt_stdio_output@@@2@@__crt_stdio_output@@AEAA_NXZ@@__crt_stdio_output@@YAPEAUansi_string@?1??type_case_Z@?$output_processor@_WV?$string_output_adapter@_W@__crt_stdio_output@@V?$standard_base@_WV?$string_output_adapter@_W@__crt_stdio_output@@@2@@0@AEAA_NXZ@AEAPEAD@Z 000000018005d180 f i libucrtd:output.obj
 0001:0005c1f0       ??$read_va_arg@PEAX@__crt_stdio_output@@YAPEAXAEAPEAD@Z 000000018005d1f0 f i libucrtd:output.obj
 0001:0005c260       ??$read_va_arg@U_CRT_DOUBLE@@@__crt_stdio_output@@YA?AU_CRT_DOUBLE@@AEAPEAD@Z 000000018005d260 f i libucrtd:output.obj
 0001:0005c2d0       ??$read_va_arg@_J@__crt_stdio_output@@YA_JAEAPEAD@Z 000000018005d2d0 f i libucrtd:output.obj
 0001:0005c340       ??$read_va_arg@_K@__crt_stdio_output@@YA_KAEAPEAD@Z 000000018005d340 f i libucrtd:output.obj
 0001:0005c3b0       ??$read_va_arg@_W@__crt_stdio_output@@YA_WAEAPEAD@Z 000000018005d3b0 f i libucrtd:output.obj
 0001:0005c420       ??$scratch_count@D@formatting_buffer@__crt_stdio_output@@QEBA_KXZ 000000018005d420 f i libucrtd:output.obj
 0001:0005c440       ??$scratch_data@D@formatting_buffer@__crt_stdio_output@@QEAAPEADXZ 000000018005d440 f i libucrtd:output.obj
 0001:0005c4b0       ??$type_case_integer@$07@?$output_processor@DV?$stream_output_adapter@D@__crt_stdio_output@@V?$format_validation_base@DV?$stream_output_adapter@D@__crt_stdio_output@@@2@@__crt_stdio_output@@AEAA_N_N@Z 000000018005d4b0 f i libucrtd:output.obj
 0001:0005c930       ??$type_case_integer@$07@?$output_processor@DV?$stream_output_adapter@D@__crt_stdio_output@@V?$positional_parameter_base@DV?$stream_output_adapter@D@__crt_stdio_output@@@2@@__crt_stdio_output@@AEAA_N_N@Z 000000018005d930 f i libucrtd:output.obj
 0001:0005cdb0       ??$type_case_integer@$07@?$output_processor@DV?$stream_output_adapter@D@__crt_stdio_output@@V?$standard_base@DV?$stream_output_adapter@D@__crt_stdio_output@@@2@@__crt_stdio_output@@AEAA_N_N@Z 000000018005ddb0 f i libucrtd:output.obj
 0001:0005d230       ??$type_case_integer@$07@?$output_processor@DV?$string_output_adapter@D@__crt_stdio_output@@V?$format_validation_base@DV?$string_output_adapter@D@__crt_stdio_output@@@2@@__crt_stdio_output@@AEAA_N_N@Z 000000018005e230 f i libucrtd:output.obj
 0001:0005d6b0       ??$type_case_integer@$07@?$output_processor@DV?$string_output_adapter@D@__crt_stdio_output@@V?$positional_parameter_base@DV?$string_output_adapter@D@__crt_stdio_output@@@2@@__crt_stdio_output@@AEAA_N_N@Z 000000018005e6b0 f i libucrtd:output.obj
 0001:0005db30       ??$type_case_integer@$07@?$output_processor@DV?$string_output_adapter@D@__crt_stdio_output@@V?$standard_base@DV?$string_output_adapter@D@__crt_stdio_output@@@2@@__crt_stdio_output@@AEAA_N_N@Z 000000018005eb30 f i libucrtd:output.obj
 0001:0005dfb0       ??$type_case_integer@$07@?$output_processor@_WV?$stream_output_adapter@_W@__crt_stdio_output@@V?$format_validation_base@_WV?$stream_output_adapter@_W@__crt_stdio_output@@@2@@__crt_stdio_output@@AEAA_N_N@Z 000000018005efb0 f i libucrtd:output.obj
 0001:0005e430       ??$type_case_integer@$07@?$output_processor@_WV?$stream_output_adapter@_W@__crt_stdio_output@@V?$positional_parameter_base@_WV?$stream_output_adapter@_W@__crt_stdio_output@@@2@@__crt_stdio_output@@AEAA_N_N@Z 000000018005f430 f i libucrtd:output.obj
 0001:0005e8b0       ??$type_case_integer@$07@?$output_processor@_WV?$stream_output_adapter@_W@__crt_stdio_output@@V?$standard_base@_WV?$stream_output_adapter@_W@__crt_stdio_output@@@2@@__crt_stdio_output@@AEAA_N_N@Z 000000018005f8b0 f i libucrtd:output.obj
 0001:0005ed30       ??$type_case_integer@$07@?$output_processor@_WV?$string_output_adapter@_W@__crt_stdio_output@@V?$format_validation_base@_WV?$string_output_adapter@_W@__crt_stdio_output@@@2@@__crt_stdio_output@@AEAA_N_N@Z 000000018005fd30 f i libucrtd:output.obj
 0001:0005f1b0       ??$type_case_integer@$07@?$output_processor@_WV?$string_output_adapter@_W@__crt_stdio_output@@V?$positional_parameter_base@_WV?$string_output_adapter@_W@__crt_stdio_output@@@2@@__crt_stdio_output@@AEAA_N_N@Z 00000001800601b0 f i libucrtd:output.obj
 0001:0005f630       ??$type_case_integer@$07@?$output_processor@_WV?$string_output_adapter@_W@__crt_stdio_output@@V?$standard_base@_WV?$string_output_adapter@_W@__crt_stdio_output@@@2@@__crt_stdio_output@@AEAA_N_N@Z 0000000180060630 f i libucrtd:output.obj
 0001:0005fab0       ??$type_case_integer@$09@?$output_processor@DV?$stream_output_adapter@D@__crt_stdio_output@@V?$format_validation_base@DV?$stream_output_adapter@D@__crt_stdio_output@@@2@@__crt_stdio_output@@AEAA_N_N@Z 0000000180060ab0 f i libucrtd:output.obj
 0001:0005ff30       ??$type_case_integer@$09@?$output_processor@DV?$stream_output_adapter@D@__crt_stdio_output@@V?$positional_parameter_base@DV?$stream_output_adapter@D@__crt_stdio_output@@@2@@__crt_stdio_output@@AEAA_N_N@Z 0000000180060f30 f i libucrtd:output.obj
 0001:000603b0       ??$type_case_integer@$09@?$output_processor@DV?$stream_output_adapter@D@__crt_stdio_output@@V?$standard_base@DV?$stream_output_adapter@D@__crt_stdio_output@@@2@@__crt_stdio_output@@AEAA_N_N@Z 00000001800613b0 f i libucrtd:output.obj
 0001:00060830       ??$type_case_integer@$09@?$output_processor@DV?$string_output_adapter@D@__crt_stdio_output@@V?$format_validation_base@DV?$string_output_adapter@D@__crt_stdio_output@@@2@@__crt_stdio_output@@AEAA_N_N@Z 0000000180061830 f i libucrtd:output.obj
 0001:00060cb0       ??$type_case_integer@$09@?$output_processor@DV?$string_output_adapter@D@__crt_stdio_output@@V?$positional_parameter_base@DV?$string_output_adapter@D@__crt_stdio_output@@@2@@__crt_stdio_output@@AEAA_N_N@Z 0000000180061cb0 f i libucrtd:output.obj
 0001:00061130       ??$type_case_integer@$09@?$output_processor@DV?$string_output_adapter@D@__crt_stdio_output@@V?$standard_base@DV?$string_output_adapter@D@__crt_stdio_output@@@2@@__crt_stdio_output@@AEAA_N_N@Z 0000000180062130 f i libucrtd:output.obj
 0001:000615b0       ??$type_case_integer@$09@?$output_processor@_WV?$stream_output_adapter@_W@__crt_stdio_output@@V?$format_validation_base@_WV?$stream_output_adapter@_W@__crt_stdio_output@@@2@@__crt_stdio_output@@AEAA_N_N@Z 00000001800625b0 f i libucrtd:output.obj
 0001:00061a30       ??$type_case_integer@$09@?$output_processor@_WV?$stream_output_adapter@_W@__crt_stdio_output@@V?$positional_parameter_base@_WV?$stream_output_adapter@_W@__crt_stdio_output@@@2@@__crt_stdio_output@@AEAA_N_N@Z 0000000180062a30 f i libucrtd:output.obj
 0001:00061eb0       ??$type_case_integer@$09@?$output_processor@_WV?$stream_output_adapter@_W@__crt_stdio_output@@V?$standard_base@_WV?$stream_output_adapter@_W@__crt_stdio_output@@@2@@__crt_stdio_output@@AEAA_N_N@Z 0000000180062eb0 f i libucrtd:output.obj
 0001:00062330       ??$type_case_integer@$09@?$output_processor@_WV?$string_output_adapter@_W@__crt_stdio_output@@V?$format_validation_base@_WV?$string_output_adapter@_W@__crt_stdio_output@@@2@@__crt_stdio_output@@AEAA_N_N@Z 0000000180063330 f i libucrtd:output.obj
 0001:000627b0       ??$type_case_integer@$09@?$output_processor@_WV?$string_output_adapter@_W@__crt_stdio_output@@V?$positional_parameter_base@_WV?$string_output_adapter@_W@__crt_stdio_output@@@2@@__crt_stdio_output@@AEAA_N_N@Z 00000001800637b0 f i libucrtd:output.obj
 0001:00062c30       ??$type_case_integer@$09@?$output_processor@_WV?$string_output_adapter@_W@__crt_stdio_output@@V?$standard_base@_WV?$string_output_adapter@_W@__crt_stdio_output@@@2@@__crt_stdio_output@@AEAA_N_N@Z 0000000180063c30 f i libucrtd:output.obj
 0001:000630b0       ??$type_case_integer@$0BA@@?$output_processor@DV?$stream_output_adapter@D@__crt_stdio_output@@V?$format_validation_base@DV?$stream_output_adapter@D@__crt_stdio_output@@@2@@__crt_stdio_output@@AEAA_N_N@Z 00000001800640b0 f i libucrtd:output.obj
 0001:00063530       ??$type_case_integer@$0BA@@?$output_processor@DV?$stream_output_adapter@D@__crt_stdio_output@@V?$positional_parameter_base@DV?$stream_output_adapter@D@__crt_stdio_output@@@2@@__crt_stdio_output@@AEAA_N_N@Z 0000000180064530 f i libucrtd:output.obj
 0001:000639b0       ??$type_case_integer@$0BA@@?$output_processor@DV?$stream_output_adapter@D@__crt_stdio_output@@V?$standard_base@DV?$stream_output_adapter@D@__crt_stdio_output@@@2@@__crt_stdio_output@@AEAA_N_N@Z 00000001800649b0 f i libucrtd:output.obj
 0001:00063e30       ??$type_case_integer@$0BA@@?$output_processor@DV?$string_output_adapter@D@__crt_stdio_output@@V?$format_validation_base@DV?$string_output_adapter@D@__crt_stdio_output@@@2@@__crt_stdio_output@@AEAA_N_N@Z 0000000180064e30 f i libucrtd:output.obj
 0001:000642b0       ??$type_case_integer@$0BA@@?$output_processor@DV?$string_output_adapter@D@__crt_stdio_output@@V?$positional_parameter_base@DV?$string_output_adapter@D@__crt_stdio_output@@@2@@__crt_stdio_output@@AEAA_N_N@Z 00000001800652b0 f i libucrtd:output.obj
 0001:00064730       ??$type_case_integer@$0BA@@?$output_processor@DV?$string_output_adapter@D@__crt_stdio_output@@V?$standard_base@DV?$string_output_adapter@D@__crt_stdio_output@@@2@@__crt_stdio_output@@AEAA_N_N@Z 0000000180065730 f i libucrtd:output.obj
 0001:00064bb0       ??$type_case_integer@$0BA@@?$output_processor@_WV?$stream_output_adapter@_W@__crt_stdio_output@@V?$format_validation_base@_WV?$stream_output_adapter@_W@__crt_stdio_output@@@2@@__crt_stdio_output@@AEAA_N_N@Z 0000000180065bb0 f i libucrtd:output.obj
 0001:00065030       ??$type_case_integer@$0BA@@?$output_processor@_WV?$stream_output_adapter@_W@__crt_stdio_output@@V?$positional_parameter_base@_WV?$stream_output_adapter@_W@__crt_stdio_output@@@2@@__crt_stdio_output@@AEAA_N_N@Z 0000000180066030 f i libucrtd:output.obj
 0001:000654b0       ??$type_case_integer@$0BA@@?$output_processor@_WV?$stream_output_adapter@_W@__crt_stdio_output@@V?$standard_base@_WV?$stream_output_adapter@_W@__crt_stdio_output@@@2@@__crt_stdio_output@@AEAA_N_N@Z 00000001800664b0 f i libucrtd:output.obj
 0001:00065930       ??$type_case_integer@$0BA@@?$output_processor@_WV?$string_output_adapter@_W@__crt_stdio_output@@V?$format_validation_base@_WV?$string_output_adapter@_W@__crt_stdio_output@@@2@@__crt_stdio_output@@AEAA_N_N@Z 0000000180066930 f i libucrtd:output.obj
 0001:00065db0       ??$type_case_integer@$0BA@@?$output_processor@_WV?$string_output_adapter@_W@__crt_stdio_output@@V?$positional_parameter_base@_WV?$string_output_adapter@_W@__crt_stdio_output@@@2@@__crt_stdio_output@@AEAA_N_N@Z 0000000180066db0 f i libucrtd:output.obj
 0001:00066230       ??$type_case_integer@$0BA@@?$output_processor@_WV?$string_output_adapter@_W@__crt_stdio_output@@V?$standard_base@_WV?$string_output_adapter@_W@__crt_stdio_output@@@2@@__crt_stdio_output@@AEAA_N_N@Z 0000000180067230 f i libucrtd:output.obj
 0001:000666b0       ??$type_case_integer_parse_into_buffer@I$07@?$output_processor@DV?$stream_output_adapter@D@__crt_stdio_output@@V?$format_validation_base@DV?$stream_output_adapter@D@__crt_stdio_output@@@2@@__crt_stdio_output@@AEAAXI_N@Z 00000001800676b0 f i libucrtd:output.obj
 0001:000667e0       ??$type_case_integer_parse_into_buffer@I$07@?$output_processor@DV?$stream_output_adapter@D@__crt_stdio_output@@V?$positional_parameter_base@DV?$stream_output_adapter@D@__crt_stdio_output@@@2@@__crt_stdio_output@@AEAAXI_N@Z 00000001800677e0 f i libucrtd:output.obj
 0001:00066910       ??$type_case_integer_parse_into_buffer@I$07@?$output_processor@DV?$stream_output_adapter@D@__crt_stdio_output@@V?$standard_base@DV?$stream_output_adapter@D@__crt_stdio_output@@@2@@__crt_stdio_output@@AEAAXI_N@Z 0000000180067910 f i libucrtd:output.obj
 0001:00066a40       ??$type_case_integer_parse_into_buffer@I$07@?$output_processor@DV?$string_output_adapter@D@__crt_stdio_output@@V?$format_validation_base@DV?$string_output_adapter@D@__crt_stdio_output@@@2@@__crt_stdio_output@@AEAAXI_N@Z 0000000180067a40 f i libucrtd:output.obj
 0001:00066b70       ??$type_case_integer_parse_into_buffer@I$07@?$output_processor@DV?$string_output_adapter@D@__crt_stdio_output@@V?$positional_parameter_base@DV?$string_output_adapter@D@__crt_stdio_output@@@2@@__crt_stdio_output@@AEAAXI_N@Z 0000000180067b70 f i libucrtd:output.obj
 0001:00066ca0       ??$type_case_integer_parse_into_buffer@I$07@?$output_processor@DV?$string_output_adapter@D@__crt_stdio_output@@V?$standard_base@DV?$string_output_adapter@D@__crt_stdio_output@@@2@@__crt_stdio_output@@AEAAXI_N@Z 0000000180067ca0 f i libucrtd:output.obj
 0001:00066dd0       ??$type_case_integer_parse_into_buffer@I$07@?$output_processor@_WV?$stream_output_adapter@_W@__crt_stdio_output@@V?$format_validation_base@_WV?$stream_output_adapter@_W@__crt_stdio_output@@@2@@__crt_stdio_output@@AEAAXI_N@Z 0000000180067dd0 f i libucrtd:output.obj
 0001:00066f10       ??$type_case_integer_parse_into_buffer@I$07@?$output_processor@_WV?$stream_output_adapter@_W@__crt_stdio_output@@V?$positional_parameter_base@_WV?$stream_output_adapter@_W@__crt_stdio_output@@@2@@__crt_stdio_output@@AEAAXI_N@Z 0000000180067f10 f i libucrtd:output.obj
 0001:00067050       ??$type_case_integer_parse_into_buffer@I$07@?$output_processor@_WV?$stream_output_adapter@_W@__crt_stdio_output@@V?$standard_base@_WV?$stream_output_adapter@_W@__crt_stdio_output@@@2@@__crt_stdio_output@@AEAAXI_N@Z 0000000180068050 f i libucrtd:output.obj
 0001:00067190       ??$type_case_integer_parse_into_buffer@I$07@?$output_processor@_WV?$string_output_adapter@_W@__crt_stdio_output@@V?$format_validation_base@_WV?$string_output_adapter@_W@__crt_stdio_output@@@2@@__crt_stdio_output@@AEAAXI_N@Z 0000000180068190 f i libucrtd:output.obj
 0001:000672d0       ??$type_case_integer_parse_into_buffer@I$07@?$output_processor@_WV?$string_output_adapter@_W@__crt_stdio_output@@V?$positional_parameter_base@_WV?$string_output_adapter@_W@__crt_stdio_output@@@2@@__crt_stdio_output@@AEAAXI_N@Z 00000001800682d0 f i libucrtd:output.obj
 0001:00067410       ??$type_case_integer_parse_into_buffer@I$07@?$output_processor@_WV?$string_output_adapter@_W@__crt_stdio_output@@V?$standard_base@_WV?$string_output_adapter@_W@__crt_stdio_output@@@2@@__crt_stdio_output@@AEAAXI_N@Z 0000000180068410 f i libucrtd:output.obj
 0001:00067550       ??$type_case_integer_parse_into_buffer@I$09@?$output_processor@DV?$stream_output_adapter@D@__crt_stdio_output@@V?$format_validation_base@DV?$stream_output_adapter@D@__crt_stdio_output@@@2@@__crt_stdio_output@@AEAAXI_N@Z 0000000180068550 f i libucrtd:output.obj
 0001:00067680       ??$type_case_integer_parse_into_buffer@I$09@?$output_processor@DV?$stream_output_adapter@D@__crt_stdio_output@@V?$positional_parameter_base@DV?$stream_output_adapter@D@__crt_stdio_output@@@2@@__crt_stdio_output@@AEAAXI_N@Z 0000000180068680 f i libucrtd:output.obj
 0001:000677b0       ??$type_case_integer_parse_into_buffer@I$09@?$output_processor@DV?$stream_output_adapter@D@__crt_stdio_output@@V?$standard_base@DV?$stream_output_adapter@D@__crt_stdio_output@@@2@@__crt_stdio_output@@AEAAXI_N@Z 00000001800687b0 f i libucrtd:output.obj
 0001:000678e0       ??$type_case_integer_parse_into_buffer@I$09@?$output_processor@DV?$string_output_adapter@D@__crt_stdio_output@@V?$format_validation_base@DV?$string_output_adapter@D@__crt_stdio_output@@@2@@__crt_stdio_output@@AEAAXI_N@Z 00000001800688e0 f i libucrtd:output.obj
 0001:00067a10       ??$type_case_integer_parse_into_buffer@I$09@?$output_processor@DV?$string_output_adapter@D@__crt_stdio_output@@V?$positional_parameter_base@DV?$string_output_adapter@D@__crt_stdio_output@@@2@@__crt_stdio_output@@AEAAXI_N@Z 0000000180068a10 f i libucrtd:output.obj
 0001:00067b40       ??$type_case_integer_parse_into_buffer@I$09@?$output_processor@DV?$string_output_adapter@D@__crt_stdio_output@@V?$standard_base@DV?$string_output_adapter@D@__crt_stdio_output@@@2@@__crt_stdio_output@@AEAAXI_N@Z 0000000180068b40 f i libucrtd:output.obj
 0001:00067c70       ??$type_case_integer_parse_into_buffer@I$09@?$output_processor@_WV?$stream_output_adapter@_W@__crt_stdio_output@@V?$format_validation_base@_WV?$stream_output_adapter@_W@__crt_stdio_output@@@2@@__crt_stdio_output@@AEAAXI_N@Z 0000000180068c70 f i libucrtd:output.obj
 0001:00067db0       ??$type_case_integer_parse_into_buffer@I$09@?$output_processor@_WV?$stream_output_adapter@_W@__crt_stdio_output@@V?$positional_parameter_base@_WV?$stream_output_adapter@_W@__crt_stdio_output@@@2@@__crt_stdio_output@@AEAAXI_N@Z 0000000180068db0 f i libucrtd:output.obj
 0001:00067ef0       ??$type_case_integer_parse_into_buffer@I$09@?$output_processor@_WV?$stream_output_adapter@_W@__crt_stdio_output@@V?$standard_base@_WV?$stream_output_adapter@_W@__crt_stdio_output@@@2@@__crt_stdio_output@@AEAAXI_N@Z 0000000180068ef0 f i libucrtd:output.obj
 0001:00068030       ??$type_case_integer_parse_into_buffer@I$09@?$output_processor@_WV?$string_output_adapter@_W@__crt_stdio_output@@V?$format_validation_base@_WV?$string_output_adapter@_W@__crt_stdio_output@@@2@@__crt_stdio_output@@AEAAXI_N@Z 0000000180069030 f i libucrtd:output.obj
 0001:00068170       ??$type_case_integer_parse_into_buffer@I$09@?$output_processor@_WV?$string_output_adapter@_W@__crt_stdio_output@@V?$positional_parameter_base@_WV?$string_output_adapter@_W@__crt_stdio_output@@@2@@__crt_stdio_output@@AEAAXI_N@Z 0000000180069170 f i libucrtd:output.obj
 0001:000682b0       ??$type_case_integer_parse_into_buffer@I$09@?$output_processor@_WV?$string_output_adapter@_W@__crt_stdio_output@@V?$standard_base@_WV?$string_output_adapter@_W@__crt_stdio_output@@@2@@__crt_stdio_output@@AEAAXI_N@Z 00000001800692b0 f i libucrtd:output.obj
 0001:000683f0       ??$type_case_integer_parse_into_buffer@I$0BA@@?$output_processor@DV?$stream_output_adapter@D@__crt_stdio_output@@V?$format_validation_base@DV?$stream_output_adapter@D@__crt_stdio_output@@@2@@__crt_stdio_output@@AEAAXI_N@Z 00000001800693f0 f i libucrtd:output.obj
 0001:00068520       ??$type_case_integer_parse_into_buffer@I$0BA@@?$output_processor@DV?$stream_output_adapter@D@__crt_stdio_output@@V?$positional_parameter_base@DV?$stream_output_adapter@D@__crt_stdio_output@@@2@@__crt_stdio_output@@AEAAXI_N@Z 0000000180069520 f i libucrtd:output.obj
 0001:00068650       ??$type_case_integer_parse_into_buffer@I$0BA@@?$output_processor@DV?$stream_output_adapter@D@__crt_stdio_output@@V?$standard_base@DV?$stream_output_adapter@D@__crt_stdio_output@@@2@@__crt_stdio_output@@AEAAXI_N@Z 0000000180069650 f i libucrtd:output.obj
 0001:00068780       ??$type_case_integer_parse_into_buffer@I$0BA@@?$output_processor@DV?$string_output_adapter@D@__crt_stdio_output@@V?$format_validation_base@DV?$string_output_adapter@D@__crt_stdio_output@@@2@@__crt_stdio_output@@AEAAXI_N@Z 0000000180069780 f i libucrtd:output.obj
 0001:000688b0       ??$type_case_integer_parse_into_buffer@I$0BA@@?$output_processor@DV?$string_output_adapter@D@__crt_stdio_output@@V?$positional_parameter_base@DV?$string_output_adapter@D@__crt_stdio_output@@@2@@__crt_stdio_output@@AEAAXI_N@Z 00000001800698b0 f i libucrtd:output.obj
 0001:000689e0       ??$type_case_integer_parse_into_buffer@I$0BA@@?$output_processor@DV?$string_output_adapter@D@__crt_stdio_output@@V?$standard_base@DV?$string_output_adapter@D@__crt_stdio_output@@@2@@__crt_stdio_output@@AEAAXI_N@Z 00000001800699e0 f i libucrtd:output.obj
 0001:00068b10       ??$type_case_integer_parse_into_buffer@I$0BA@@?$output_processor@_WV?$stream_output_adapter@_W@__crt_stdio_output@@V?$format_validation_base@_WV?$stream_output_adapter@_W@__crt_stdio_output@@@2@@__crt_stdio_output@@AEAAXI_N@Z 0000000180069b10 f i libucrtd:output.obj
 0001:00068c50       ??$type_case_integer_parse_into_buffer@I$0BA@@?$output_processor@_WV?$stream_output_adapter@_W@__crt_stdio_output@@V?$positional_parameter_base@_WV?$stream_output_adapter@_W@__crt_stdio_output@@@2@@__crt_stdio_output@@AEAAXI_N@Z 0000000180069c50 f i libucrtd:output.obj
 0001:00068d90       ??$type_case_integer_parse_into_buffer@I$0BA@@?$output_processor@_WV?$stream_output_adapter@_W@__crt_stdio_output@@V?$standard_base@_WV?$stream_output_adapter@_W@__crt_stdio_output@@@2@@__crt_stdio_output@@AEAAXI_N@Z 0000000180069d90 f i libucrtd:output.obj
 0001:00068ed0       ??$type_case_integer_parse_into_buffer@I$0BA@@?$output_processor@_WV?$string_output_adapter@_W@__crt_stdio_output@@V?$format_validation_base@_WV?$string_output_adapter@_W@__crt_stdio_output@@@2@@__crt_stdio_output@@AEAAXI_N@Z 0000000180069ed0 f i libucrtd:output.obj
 0001:00069010       ??$type_case_integer_parse_into_buffer@I$0BA@@?$output_processor@_WV?$string_output_adapter@_W@__crt_stdio_output@@V?$positional_parameter_base@_WV?$string_output_adapter@_W@__crt_stdio_output@@@2@@__crt_stdio_output@@AEAAXI_N@Z 000000018006a010 f i libucrtd:output.obj
 0001:00069150       ??$type_case_integer_parse_into_buffer@I$0BA@@?$output_processor@_WV?$string_output_adapter@_W@__crt_stdio_output@@V?$standard_base@_WV?$string_output_adapter@_W@__crt_stdio_output@@@2@@__crt_stdio_output@@AEAAXI_N@Z 000000018006a150 f i libucrtd:output.obj
 0001:00069290       ??$type_case_integer_parse_into_buffer@_K$07@?$output_processor@DV?$stream_output_adapter@D@__crt_stdio_output@@V?$format_validation_base@DV?$stream_output_adapter@D@__crt_stdio_output@@@2@@__crt_stdio_output@@AEAAX_K_N@Z 000000018006a290 f i libucrtd:output.obj
 0001:000693d0       ??$type_case_integer_parse_into_buffer@_K$07@?$output_processor@DV?$stream_output_adapter@D@__crt_stdio_output@@V?$positional_parameter_base@DV?$stream_output_adapter@D@__crt_stdio_output@@@2@@__crt_stdio_output@@AEAAX_K_N@Z 000000018006a3d0 f i libucrtd:output.obj
 0001:00069510       ??$type_case_integer_parse_into_buffer@_K$07@?$output_processor@DV?$stream_output_adapter@D@__crt_stdio_output@@V?$standard_base@DV?$stream_output_adapter@D@__crt_stdio_output@@@2@@__crt_stdio_output@@AEAAX_K_N@Z 000000018006a510 f i libucrtd:output.obj
 0001:00069650       ??$type_case_integer_parse_into_buffer@_K$07@?$output_processor@DV?$string_output_adapter@D@__crt_stdio_output@@V?$format_validation_base@DV?$string_output_adapter@D@__crt_stdio_output@@@2@@__crt_stdio_output@@AEAAX_K_N@Z 000000018006a650 f i libucrtd:output.obj
 0001:00069790       ??$type_case_integer_parse_into_buffer@_K$07@?$output_processor@DV?$string_output_adapter@D@__crt_stdio_output@@V?$positional_parameter_base@DV?$string_output_adapter@D@__crt_stdio_output@@@2@@__crt_stdio_output@@AEAAX_K_N@Z 000000018006a790 f i libucrtd:output.obj
 0001:000698d0       ??$type_case_integer_parse_into_buffer@_K$07@?$output_processor@DV?$string_output_adapter@D@__crt_stdio_output@@V?$standard_base@DV?$string_output_adapter@D@__crt_stdio_output@@@2@@__crt_stdio_output@@AEAAX_K_N@Z 000000018006a8d0 f i libucrtd:output.obj
 0001:00069a10       ??$type_case_integer_parse_into_buffer@_K$07@?$output_processor@_WV?$stream_output_adapter@_W@__crt_stdio_output@@V?$format_validation_base@_WV?$stream_output_adapter@_W@__crt_stdio_output@@@2@@__crt_stdio_output@@AEAAX_K_N@Z 000000018006aa10 f i libucrtd:output.obj
 0001:00069b50       ??$type_case_integer_parse_into_buffer@_K$07@?$output_processor@_WV?$stream_output_adapter@_W@__crt_stdio_output@@V?$positional_parameter_base@_WV?$stream_output_adapter@_W@__crt_stdio_output@@@2@@__crt_stdio_output@@AEAAX_K_N@Z 000000018006ab50 f i libucrtd:output.obj
 0001:00069c90       ??$type_case_integer_parse_into_buffer@_K$07@?$output_processor@_WV?$stream_output_adapter@_W@__crt_stdio_output@@V?$standard_base@_WV?$stream_output_adapter@_W@__crt_stdio_output@@@2@@__crt_stdio_output@@AEAAX_K_N@Z 000000018006ac90 f i libucrtd:output.obj
 0001:00069dd0       ??$type_case_integer_parse_into_buffer@_K$07@?$output_processor@_WV?$string_output_adapter@_W@__crt_stdio_output@@V?$format_validation_base@_WV?$string_output_adapter@_W@__crt_stdio_output@@@2@@__crt_stdio_output@@AEAAX_K_N@Z 000000018006add0 f i libucrtd:output.obj
 0001:00069f10       ??$type_case_integer_parse_into_buffer@_K$07@?$output_processor@_WV?$string_output_adapter@_W@__crt_stdio_output@@V?$positional_parameter_base@_WV?$string_output_adapter@_W@__crt_stdio_output@@@2@@__crt_stdio_output@@AEAAX_K_N@Z 000000018006af10 f i libucrtd:output.obj
 0001:0006a050       ??$type_case_integer_parse_into_buffer@_K$07@?$output_processor@_WV?$string_output_adapter@_W@__crt_stdio_output@@V?$standard_base@_WV?$string_output_adapter@_W@__crt_stdio_output@@@2@@__crt_stdio_output@@AEAAX_K_N@Z 000000018006b050 f i libucrtd:output.obj
 0001:0006a190       ??$type_case_integer_parse_into_buffer@_K$09@?$output_processor@DV?$stream_output_adapter@D@__crt_stdio_output@@V?$format_validation_base@DV?$stream_output_adapter@D@__crt_stdio_output@@@2@@__crt_stdio_output@@AEAAX_K_N@Z 000000018006b190 f i libucrtd:output.obj
 0001:0006a2d0       ??$type_case_integer_parse_into_buffer@_K$09@?$output_processor@DV?$stream_output_adapter@D@__crt_stdio_output@@V?$positional_parameter_base@DV?$stream_output_adapter@D@__crt_stdio_output@@@2@@__crt_stdio_output@@AEAAX_K_N@Z 000000018006b2d0 f i libucrtd:output.obj
 0001:0006a410       ??$type_case_integer_parse_into_buffer@_K$09@?$output_processor@DV?$stream_output_adapter@D@__crt_stdio_output@@V?$standard_base@DV?$stream_output_adapter@D@__crt_stdio_output@@@2@@__crt_stdio_output@@AEAAX_K_N@Z 000000018006b410 f i libucrtd:output.obj
 0001:0006a550       ??$type_case_integer_parse_into_buffer@_K$09@?$output_processor@DV?$string_output_adapter@D@__crt_stdio_output@@V?$format_validation_base@DV?$string_output_adapter@D@__crt_stdio_output@@@2@@__crt_stdio_output@@AEAAX_K_N@Z 000000018006b550 f i libucrtd:output.obj
 0001:0006a690       ??$type_case_integer_parse_into_buffer@_K$09@?$output_processor@DV?$string_output_adapter@D@__crt_stdio_output@@V?$positional_parameter_base@DV?$string_output_adapter@D@__crt_stdio_output@@@2@@__crt_stdio_output@@AEAAX_K_N@Z 000000018006b690 f i libucrtd:output.obj
 0001:0006a7d0       ??$type_case_integer_parse_into_buffer@_K$09@?$output_processor@DV?$string_output_adapter@D@__crt_stdio_output@@V?$standard_base@DV?$string_output_adapter@D@__crt_stdio_output@@@2@@__crt_stdio_output@@AEAAX_K_N@Z 000000018006b7d0 f i libucrtd:output.obj
 0001:0006a910       ??$type_case_integer_parse_into_buffer@_K$09@?$output_processor@_WV?$stream_output_adapter@_W@__crt_stdio_output@@V?$format_validation_base@_WV?$stream_output_adapter@_W@__crt_stdio_output@@@2@@__crt_stdio_output@@AEAAX_K_N@Z 000000018006b910 f i libucrtd:output.obj
 0001:0006aa50       ??$type_case_integer_parse_into_buffer@_K$09@?$output_processor@_WV?$stream_output_adapter@_W@__crt_stdio_output@@V?$positional_parameter_base@_WV?$stream_output_adapter@_W@__crt_stdio_output@@@2@@__crt_stdio_output@@AEAAX_K_N@Z 000000018006ba50 f i libucrtd:output.obj
 0001:0006ab90       ??$type_case_integer_parse_into_buffer@_K$09@?$output_processor@_WV?$stream_output_adapter@_W@__crt_stdio_output@@V?$standard_base@_WV?$stream_output_adapter@_W@__crt_stdio_output@@@2@@__crt_stdio_output@@AEAAX_K_N@Z 000000018006bb90 f i libucrtd:output.obj
 0001:0006acd0       ??$type_case_integer_parse_into_buffer@_K$09@?$output_processor@_WV?$string_output_adapter@_W@__crt_stdio_output@@V?$format_validation_base@_WV?$string_output_adapter@_W@__crt_stdio_output@@@2@@__crt_stdio_output@@AEAAX_K_N@Z 000000018006bcd0 f i libucrtd:output.obj
 0001:0006ae10       ??$type_case_integer_parse_into_buffer@_K$09@?$output_processor@_WV?$string_output_adapter@_W@__crt_stdio_output@@V?$positional_parameter_base@_WV?$string_output_adapter@_W@__crt_stdio_output@@@2@@__crt_stdio_output@@AEAAX_K_N@Z 000000018006be10 f i libucrtd:output.obj
 0001:0006af50       ??$type_case_integer_parse_into_buffer@_K$09@?$output_processor@_WV?$string_output_adapter@_W@__crt_stdio_output@@V?$standard_base@_WV?$string_output_adapter@_W@__crt_stdio_output@@@2@@__crt_stdio_output@@AEAAX_K_N@Z 000000018006bf50 f i libucrtd:output.obj
 0001:0006b090       ??$type_case_integer_parse_into_buffer@_K$0BA@@?$output_processor@DV?$stream_output_adapter@D@__crt_stdio_output@@V?$format_validation_base@DV?$stream_output_adapter@D@__crt_stdio_output@@@2@@__crt_stdio_output@@AEAAX_K_N@Z 000000018006c090 f i libucrtd:output.obj
 0001:0006b1d0       ??$type_case_integer_parse_into_buffer@_K$0BA@@?$output_processor@DV?$stream_output_adapter@D@__crt_stdio_output@@V?$positional_parameter_base@DV?$stream_output_adapter@D@__crt_stdio_output@@@2@@__crt_stdio_output@@AEAAX_K_N@Z 000000018006c1d0 f i libucrtd:output.obj
 0001:0006b310       ??$type_case_integer_parse_into_buffer@_K$0BA@@?$output_processor@DV?$stream_output_adapter@D@__crt_stdio_output@@V?$standard_base@DV?$stream_output_adapter@D@__crt_stdio_output@@@2@@__crt_stdio_output@@AEAAX_K_N@Z 000000018006c310 f i libucrtd:output.obj
 0001:0006b450       ??$type_case_integer_parse_into_buffer@_K$0BA@@?$output_processor@DV?$string_output_adapter@D@__crt_stdio_output@@V?$format_validation_base@DV?$string_output_adapter@D@__crt_stdio_output@@@2@@__crt_stdio_output@@AEAAX_K_N@Z 000000018006c450 f i libucrtd:output.obj
 0001:0006b590       ??$type_case_integer_parse_into_buffer@_K$0BA@@?$output_processor@DV?$string_output_adapter@D@__crt_stdio_output@@V?$positional_parameter_base@DV?$string_output_adapter@D@__crt_stdio_output@@@2@@__crt_stdio_output@@AEAAX_K_N@Z 000000018006c590 f i libucrtd:output.obj
 0001:0006b6d0       ??$type_case_integer_parse_into_buffer@_K$0BA@@?$output_processor@DV?$string_output_adapter@D@__crt_stdio_output@@V?$standard_base@DV?$string_output_adapter@D@__crt_stdio_output@@@2@@__crt_stdio_output@@AEAAX_K_N@Z 000000018006c6d0 f i libucrtd:output.obj
 0001:0006b810       ??$type_case_integer_parse_into_buffer@_K$0BA@@?$output_processor@_WV?$stream_output_adapter@_W@__crt_stdio_output@@V?$format_validation_base@_WV?$stream_output_adapter@_W@__crt_stdio_output@@@2@@__crt_stdio_output@@AEAAX_K_N@Z 000000018006c810 f i libucrtd:output.obj
 0001:0006b950       ??$type_case_integer_parse_into_buffer@_K$0BA@@?$output_processor@_WV?$stream_output_adapter@_W@__crt_stdio_output@@V?$positional_parameter_base@_WV?$stream_output_adapter@_W@__crt_stdio_output@@@2@@__crt_stdio_output@@AEAAX_K_N@Z 000000018006c950 f i libucrtd:output.obj
 0001:0006ba90       ??$type_case_integer_parse_into_buffer@_K$0BA@@?$output_processor@_WV?$stream_output_adapter@_W@__crt_stdio_output@@V?$standard_base@_WV?$stream_output_adapter@_W@__crt_stdio_output@@@2@@__crt_stdio_output@@AEAAX_K_N@Z 000000018006ca90 f i libucrtd:output.obj
 0001:0006bbd0       ??$type_case_integer_parse_into_buffer@_K$0BA@@?$output_processor@_WV?$string_output_adapter@_W@__crt_stdio_output@@V?$format_validation_base@_WV?$string_output_adapter@_W@__crt_stdio_output@@@2@@__crt_stdio_output@@AEAAX_K_N@Z 000000018006cbd0 f i libucrtd:output.obj
 0001:0006bd10       ??$type_case_integer_parse_into_buffer@_K$0BA@@?$output_processor@_WV?$string_output_adapter@_W@__crt_stdio_output@@V?$positional_parameter_base@_WV?$string_output_adapter@_W@__crt_stdio_output@@@2@@__crt_stdio_output@@AEAAX_K_N@Z 000000018006cd10 f i libucrtd:output.obj
 0001:0006be50       ??$type_case_integer_parse_into_buffer@_K$0BA@@?$output_processor@_WV?$string_output_adapter@_W@__crt_stdio_output@@V?$standard_base@_WV?$string_output_adapter@_W@__crt_stdio_output@@@2@@__crt_stdio_output@@AEAAX_K_N@Z 000000018006ce50 f i libucrtd:output.obj
 0001:0006bf90       ??$write_multiple_characters@V?$stream_output_adapter@D@__crt_stdio_output@@D@__crt_stdio_output@@YAXAEBV?$stream_output_adapter@D@0@DHQEAHAEAV__crt_cached_ptd_host@@@Z 000000018006cf90 f i libucrtd:output.obj
 0001:0006c000       ??$write_multiple_characters@V?$stream_output_adapter@_W@__crt_stdio_output@@D@__crt_stdio_output@@YAXAEBV?$stream_output_adapter@_W@0@DHQEAHAEAV__crt_cached_ptd_host@@@Z 000000018006d000 f i libucrtd:output.obj
 0001:0006c070       ??$write_multiple_characters@V?$string_output_adapter@D@__crt_stdio_output@@D@__crt_stdio_output@@YAXAEBV?$string_output_adapter@D@0@DHQEAHAEAV__crt_cached_ptd_host@@@Z 000000018006d070 f i libucrtd:output.obj
 0001:0006c0e0       ??$write_multiple_characters@V?$string_output_adapter@_W@__crt_stdio_output@@D@__crt_stdio_output@@YAXAEBV?$string_output_adapter@_W@0@DHQEAHAEAV__crt_cached_ptd_host@@@Z 000000018006d0e0 f i libucrtd:output.obj
 0001:0006c510       ??0?$c_string_character_source@D@__crt_strtox@@QEAA@QEBDQEAPEBD@Z 000000018006d510 f i libucrtd:output.obj
 0001:0006c560       ??0?$c_string_character_source@_W@__crt_strtox@@QEAA@QEB_WQEAPEB_W@Z 000000018006d560 f i libucrtd:output.obj
 0001:0006c5b0       ??0?$cached@H@__crt_cached_ptd_host@@QEAA@XZ 000000018006d5b0 f i libucrtd:output.obj
 0001:0006c5d0       ??0?$cached@K@__crt_cached_ptd_host@@QEAA@XZ 000000018006d5d0 f i libucrtd:output.obj
 0001:0006c5f0       ??0?$common_data@D@__crt_stdio_output@@IEAA@AEAV__crt_cached_ptd_host@@@Z 000000018006d5f0 f i libucrtd:output.obj
 0001:0006c6b0       ??0?$common_data@_W@__crt_stdio_output@@IEAA@AEAV__crt_cached_ptd_host@@@Z 000000018006d6b0 f i libucrtd:output.obj
 0001:0006c770       ??0?$output_adapter_data@DV?$stream_output_adapter@D@__crt_stdio_output@@@__crt_stdio_output@@IEAA@AEBV?$stream_output_adapter@D@1@_KQEBDAEAV__crt_cached_ptd_host@@QEAD@Z 000000018006d770 f i libucrtd:output.obj
 0001:0006c7f0       ??0?$output_adapter_data@DV?$string_output_adapter@D@__crt_stdio_output@@@__crt_stdio_output@@IEAA@AEBV?$string_output_adapter@D@1@_KQEBDAEAV__crt_cached_ptd_host@@QEAD@Z 000000018006d7f0 f i libucrtd:output.obj
 0001:0006c870       ??0?$output_adapter_data@_WV?$stream_output_adapter@_W@__crt_stdio_output@@@__crt_stdio_output@@IEAA@AEBV?$stream_output_adapter@_W@1@_KQEB_WAEAV__crt_cached_ptd_host@@QEAD@Z 000000018006d870 f i libucrtd:output.obj
 0001:0006c8f0       ??0?$output_adapter_data@_WV?$string_output_adapter@_W@__crt_stdio_output@@@__crt_stdio_output@@IEAA@AEBV?$string_output_adapter@_W@1@_KQEB_WAEAV__crt_cached_ptd_host@@QEAD@Z 000000018006d8f0 f i libucrtd:output.obj
 0001:0006c970       ??0?$output_processor@DV?$stream_output_adapter@D@__crt_stdio_output@@V?$format_validation_base@DV?$stream_output_adapter@D@__crt_stdio_output@@@2@@__crt_stdio_output@@QEAA@AEBV?$stream_output_adapter@D@1@_KQEBDAEAV__crt_cached_ptd_host@@QEAD@Z 000000018006d970 f i libucrtd:output.obj
 0001:0006c9c0       ??0?$output_processor@DV?$stream_output_adapter@D@__crt_stdio_output@@V?$positional_parameter_base@DV?$stream_output_adapter@D@__crt_stdio_output@@@2@@__crt_stdio_output@@QEAA@AEBV?$stream_output_adapter@D@1@_KQEBDAEAV__crt_cached_ptd_host@@QEAD@Z 000000018006d9c0 f i libucrtd:output.obj
 0001:0006ca10       ??0?$output_processor@DV?$stream_output_adapter@D@__crt_stdio_output@@V?$standard_base@DV?$stream_output_adapter@D@__crt_stdio_output@@@2@@__crt_stdio_output@@QEAA@AEBV?$stream_output_adapter@D@1@_KQEBDAEAV__crt_cached_ptd_host@@QEAD@Z 000000018006da10 f i libucrtd:output.obj
 0001:0006ca60       ??0?$output_processor@DV?$string_output_adapter@D@__crt_stdio_output@@V?$format_validation_base@DV?$string_output_adapter@D@__crt_stdio_output@@@2@@__crt_stdio_output@@QEAA@AEBV?$string_output_adapter@D@1@_KQEBDAEAV__crt_cached_ptd_host@@QEAD@Z 000000018006da60 f i libucrtd:output.obj
 0001:0006cab0       ??0?$output_processor@DV?$string_output_adapter@D@__crt_stdio_output@@V?$positional_parameter_base@DV?$string_output_adapter@D@__crt_stdio_output@@@2@@__crt_stdio_output@@QEAA@AEBV?$string_output_adapter@D@1@_KQEBDAEAV__crt_cached_ptd_host@@QEAD@Z 000000018006dab0 f i libucrtd:output.obj
 0001:0006cb00       ??0?$output_processor@DV?$string_output_adapter@D@__crt_stdio_output@@V?$standard_base@DV?$string_output_adapter@D@__crt_stdio_output@@@2@@__crt_stdio_output@@QEAA@AEBV?$string_output_adapter@D@1@_KQEBDAEAV__crt_cached_ptd_host@@QEAD@Z 000000018006db00 f i libucrtd:output.obj
 0001:0006cb50       ??0?$output_processor@_WV?$stream_output_adapter@_W@__crt_stdio_output@@V?$format_validation_base@_WV?$stream_output_adapter@_W@__crt_stdio_output@@@2@@__crt_stdio_output@@QEAA@AEBV?$stream_output_adapter@_W@1@_KQEB_WAEAV__crt_cached_ptd_host@@QEAD@Z 000000018006db50 f i libucrtd:output.obj
 0001:0006cba0       ??0?$output_processor@_WV?$stream_output_adapter@_W@__crt_stdio_output@@V?$positional_parameter_base@_WV?$stream_output_adapter@_W@__crt_stdio_output@@@2@@__crt_stdio_output@@QEAA@AEBV?$stream_output_adapter@_W@1@_KQEB_WAEAV__crt_cached_ptd_host@@QEAD@Z 000000018006dba0 f i libucrtd:output.obj
 0001:0006cbf0       ??0?$output_processor@_WV?$stream_output_adapter@_W@__crt_stdio_output@@V?$standard_base@_WV?$stream_output_adapter@_W@__crt_stdio_output@@@2@@__crt_stdio_output@@QEAA@AEBV?$stream_output_adapter@_W@1@_KQEB_WAEAV__crt_cached_ptd_host@@QEAD@Z 000000018006dbf0 f i libucrtd:output.obj
 0001:0006cc40       ??0?$output_processor@_WV?$string_output_adapter@_W@__crt_stdio_output@@V?$format_validation_base@_WV?$string_output_adapter@_W@__crt_stdio_output@@@2@@__crt_stdio_output@@QEAA@AEBV?$string_output_adapter@_W@1@_KQEB_WAEAV__crt_cached_ptd_host@@QEAD@Z 000000018006dc40 f i libucrtd:output.obj
 0001:0006cc90       ??0?$output_processor@_WV?$string_output_adapter@_W@__crt_stdio_output@@V?$positional_parameter_base@_WV?$string_output_adapter@_W@__crt_stdio_output@@@2@@__crt_stdio_output@@QEAA@AEBV?$string_output_adapter@_W@1@_KQEB_WAEAV__crt_cached_ptd_host@@QEAD@Z 000000018006dc90 f i libucrtd:output.obj
 0001:0006cce0       ??0?$output_processor@_WV?$string_output_adapter@_W@__crt_stdio_output@@V?$standard_base@_WV?$string_output_adapter@_W@__crt_stdio_output@@@2@@__crt_stdio_output@@QEAA@AEBV?$string_output_adapter@_W@1@_KQEB_WAEAV__crt_cached_ptd_host@@QEAD@Z 000000018006dce0 f i libucrtd:output.obj
 0001:0006cd30       ??0?$stream_output_adapter@D@__crt_stdio_output@@QEAA@QEAU_iobuf@@@Z 000000018006dd30 f i libucrtd:output.obj
 0001:0006cd70       ??0?$stream_output_adapter@_W@__crt_stdio_output@@QEAA@QEAU_iobuf@@@Z 000000018006dd70 f i libucrtd:output.obj
 0001:0006cdb0       ??0?$string_output_adapter@D@__crt_stdio_output@@QEAA@QEAU?$string_output_adapter_context@D@1@@Z 000000018006ddb0 f i libucrtd:output.obj
 0001:0006cdd0       ??0?$string_output_adapter@_W@__crt_stdio_output@@QEAA@QEAU?$string_output_adapter_context@_W@1@@Z 000000018006ddd0 f i libucrtd:output.obj
 0001:0006cdf0       ??0__acrt_stdio_temporary_buffering_guard@@QEAA@QEAU_iobuf@@AEAV__crt_cached_ptd_host@@@Z 000000018006ddf0 f i libucrtd:output.obj
 0001:0006ce40       ??0__crt_cached_ptd_host@@QEAA@QEAU__crt_locale_pointers@@@Z 000000018006de40 f i libucrtd:output.obj
 0001:0006cf00       ??0__crt_scoped_get_last_error_reset@@QEAA@XZ 000000018006df00 f i libucrtd:output.obj
 0001:0006cf20       ??0__crt_stdio_stream@@QEAA@QEAU_iobuf@@@Z 000000018006df20 f i libucrtd:output.obj
 0001:0006cf40       ??0formatting_buffer@__crt_stdio_output@@QEAA@XZ 000000018006df40 f i libucrtd:output.obj
 0001:0006cf80       ??0guard@?$cached@H@__crt_cached_ptd_host@@QEAA@AEAU12@@Z 000000018006df80 f i libucrtd:output.obj
 0001:0006cfc0       ??1?$c_string_character_source@D@__crt_strtox@@QEAA@XZ 000000018006dfc0 f i libucrtd:output.obj
 0001:0006cff0       ??1?$c_string_character_source@_W@__crt_strtox@@QEAA@XZ 000000018006dff0 f i libucrtd:output.obj
 0001:0006d020       ??1?$common_data@D@__crt_stdio_output@@QEAA@XZ 000000018006e020 f i libucrtd:output.obj
 0001:0006d040       ??1?$common_data@_W@__crt_stdio_output@@QEAA@XZ 000000018006e040 f i libucrtd:output.obj
 0001:0006d060       ??1?$format_validation_base@DV?$stream_output_adapter@D@__crt_stdio_output@@@__crt_stdio_output@@QEAA@XZ 000000018006e060 f i libucrtd:output.obj
 0001:0006d080       ??1?$format_validation_base@DV?$string_output_adapter@D@__crt_stdio_output@@@__crt_stdio_output@@QEAA@XZ 000000018006e080 f i libucrtd:output.obj
 0001:0006d0a0       ??1?$format_validation_base@_WV?$stream_output_adapter@_W@__crt_stdio_output@@@__crt_stdio_output@@QEAA@XZ 000000018006e0a0 f i libucrtd:output.obj
 0001:0006d0c0       ??1?$format_validation_base@_WV?$string_output_adapter@_W@__crt_stdio_output@@@__crt_stdio_output@@QEAA@XZ 000000018006e0c0 f i libucrtd:output.obj
 0001:0006d0e0       ??1?$output_adapter_data@DV?$stream_output_adapter@D@__crt_stdio_output@@@__crt_stdio_output@@QEAA@XZ 000000018006e0e0 f i libucrtd:output.obj
 0001:0006d100       ??1?$output_adapter_data@DV?$string_output_adapter@D@__crt_stdio_output@@@__crt_stdio_output@@QEAA@XZ 000000018006e100 f i libucrtd:output.obj
 0001:0006d120       ??1?$output_adapter_data@_WV?$stream_output_adapter@_W@__crt_stdio_output@@@__crt_stdio_output@@QEAA@XZ 000000018006e120 f i libucrtd:output.obj
 0001:0006d140       ??1?$output_adapter_data@_WV?$string_output_adapter@_W@__crt_stdio_output@@@__crt_stdio_output@@QEAA@XZ 000000018006e140 f i libucrtd:output.obj
 0001:0006d160       ??1?$output_processor@DV?$stream_output_adapter@D@__crt_stdio_output@@V?$format_validation_base@DV?$stream_output_adapter@D@__crt_stdio_output@@@2@@__crt_stdio_output@@QEAA@XZ 000000018006e160 f i libucrtd:output.obj
 0001:0006d180       ??1?$output_processor@DV?$stream_output_adapter@D@__crt_stdio_output@@V?$positional_parameter_base@DV?$stream_output_adapter@D@__crt_stdio_output@@@2@@__crt_stdio_output@@QEAA@XZ 000000018006e180 f i libucrtd:output.obj
 0001:0006d1a0       ??1?$output_processor@DV?$stream_output_adapter@D@__crt_stdio_output@@V?$standard_base@DV?$stream_output_adapter@D@__crt_stdio_output@@@2@@__crt_stdio_output@@QEAA@XZ 000000018006e1a0 f i libucrtd:output.obj
 0001:0006d1c0       ??1?$output_processor@DV?$string_output_adapter@D@__crt_stdio_output@@V?$format_validation_base@DV?$string_output_adapter@D@__crt_stdio_output@@@2@@__crt_stdio_output@@QEAA@XZ 000000018006e1c0 f i libucrtd:output.obj
 0001:0006d1e0       ??1?$output_processor@DV?$string_output_adapter@D@__crt_stdio_output@@V?$positional_parameter_base@DV?$string_output_adapter@D@__crt_stdio_output@@@2@@__crt_stdio_output@@QEAA@XZ 000000018006e1e0 f i libucrtd:output.obj
 0001:0006d200       ??1?$output_processor@DV?$string_output_adapter@D@__crt_stdio_output@@V?$standard_base@DV?$string_output_adapter@D@__crt_stdio_output@@@2@@__crt_stdio_output@@QEAA@XZ 000000018006e200 f i libucrtd:output.obj
 0001:0006d220       ??1?$output_processor@_WV?$stream_output_adapter@_W@__crt_stdio_output@@V?$format_validation_base@_WV?$stream_output_adapter@_W@__crt_stdio_output@@@2@@__crt_stdio_output@@QEAA@XZ 000000018006e220 f i libucrtd:output.obj
 0001:0006d240       ??1?$output_processor@_WV?$stream_output_adapter@_W@__crt_stdio_output@@V?$positional_parameter_base@_WV?$stream_output_adapter@_W@__crt_stdio_output@@@2@@__crt_stdio_output@@QEAA@XZ 000000018006e240 f i libucrtd:output.obj
 0001:0006d260       ??1?$output_processor@_WV?$stream_output_adapter@_W@__crt_stdio_output@@V?$standard_base@_WV?$stream_output_adapter@_W@__crt_stdio_output@@@2@@__crt_stdio_output@@QEAA@XZ 000000018006e260 f i libucrtd:output.obj
 0001:0006d280       ??1?$output_processor@_WV?$string_output_adapter@_W@__crt_stdio_output@@V?$format_validation_base@_WV?$string_output_adapter@_W@__crt_stdio_output@@@2@@__crt_stdio_output@@QEAA@XZ 000000018006e280 f i libucrtd:output.obj
 0001:0006d2a0       ??1?$output_processor@_WV?$string_output_adapter@_W@__crt_stdio_output@@V?$positional_parameter_base@_WV?$string_output_adapter@_W@__crt_stdio_output@@@2@@__crt_stdio_output@@QEAA@XZ 000000018006e2a0 f i libucrtd:output.obj
 0001:0006d2c0       ??1?$output_processor@_WV?$string_output_adapter@_W@__crt_stdio_output@@V?$standard_base@_WV?$string_output_adapter@_W@__crt_stdio_output@@@2@@__crt_stdio_output@@QEAA@XZ 000000018006e2c0 f i libucrtd:output.obj
 0001:0006d2e0       ??1?$positional_parameter_base@DV?$stream_output_adapter@D@__crt_stdio_output@@@__crt_stdio_output@@QEAA@XZ 000000018006e2e0 f i libucrtd:output.obj
 0001:0006d300       ??1?$positional_parameter_base@DV?$string_output_adapter@D@__crt_stdio_output@@@__crt_stdio_output@@QEAA@XZ 000000018006e300 f i libucrtd:output.obj
 0001:0006d320       ??1?$positional_parameter_base@_WV?$stream_output_adapter@_W@__crt_stdio_output@@@__crt_stdio_output@@QEAA@XZ 000000018006e320 f i libucrtd:output.obj
 0001:0006d340       ??1?$positional_parameter_base@_WV?$string_output_adapter@_W@__crt_stdio_output@@@__crt_stdio_output@@QEAA@XZ 000000018006e340 f i libucrtd:output.obj
 0001:0006d360       ??1?$standard_base@DV?$stream_output_adapter@D@__crt_stdio_output@@@__crt_stdio_output@@QEAA@XZ 000000018006e360 f i libucrtd:output.obj
 0001:0006d380       ??1?$standard_base@DV?$string_output_adapter@D@__crt_stdio_output@@@__crt_stdio_output@@QEAA@XZ 000000018006e380 f i libucrtd:output.obj
 0001:0006d3a0       ??1?$standard_base@_WV?$stream_output_adapter@_W@__crt_stdio_output@@@__crt_stdio_output@@QEAA@XZ 000000018006e3a0 f i libucrtd:output.obj
 0001:0006d3c0       ??1?$standard_base@_WV?$string_output_adapter@_W@__crt_stdio_output@@@__crt_stdio_output@@QEAA@XZ 000000018006e3c0 f i libucrtd:output.obj
 0001:0006d3e0       ??1__acrt_stdio_temporary_buffering_guard@@QEAA@XZ 000000018006e3e0 f i libucrtd:output.obj
 0001:0006d410       ??1__crt_cached_ptd_host@@QEAA@XZ 000000018006e410 f i libucrtd:output.obj
 0001:0006d4c0       ??1__crt_scoped_get_last_error_reset@@QEAA@XZ 000000018006e4c0 f i libucrtd:output.obj
 0001:0006d4e0       ??1formatting_buffer@__crt_stdio_output@@QEAA@XZ 000000018006e4e0 f i libucrtd:output.obj
 0001:0006d510       ??1guard@?$cached@H@__crt_cached_ptd_host@@QEAA@XZ 000000018006e510 f i libucrtd:output.obj
 0001:0006d540       ??4?$__crt_unique_heap_ptr@DU__crt_internal_free_policy@@@@QEAAAEAV0@$$QEAV0@@Z 000000018006e540 f i libucrtd:output.obj
 0001:0006d580       ??A?$spectre_mitigated_lookup_table@Ustate_transition_pair@__crt_stdio_output@@$0IA@@__crt_stdio_output@@QEBAAEBUstate_transition_pair@1@_K@Z 000000018006e580 f i libucrtd:output.obj
 0001:0006d5a0       ??C__crt_stdio_stream@@QEBAPEAU__crt_stdio_stream_data@@XZ 000000018006e5a0 f i libucrtd:output.obj
 0001:0006ddf0       ?__crt_interlocked_read_32@@YAHPEDH@Z 000000018006edf0 f i libucrtd:output.obj
 0001:0006de10       ?adjust_hexit@?$output_processor@DV?$stream_output_adapter@D@__crt_stdio_output@@V?$format_validation_base@DV?$stream_output_adapter@D@__crt_stdio_output@@@2@@__crt_stdio_output@@CADH_N@Z 000000018006ee10 f i libucrtd:output.obj
 0001:0006de60       ?adjust_hexit@?$output_processor@DV?$stream_output_adapter@D@__crt_stdio_output@@V?$positional_parameter_base@DV?$stream_output_adapter@D@__crt_stdio_output@@@2@@__crt_stdio_output@@CADH_N@Z 000000018006ee60 f i libucrtd:output.obj
 0001:0006deb0       ?adjust_hexit@?$output_processor@DV?$stream_output_adapter@D@__crt_stdio_output@@V?$standard_base@DV?$stream_output_adapter@D@__crt_stdio_output@@@2@@__crt_stdio_output@@CADH_N@Z 000000018006eeb0 f i libucrtd:output.obj
 0001:0006df00       ?adjust_hexit@?$output_processor@DV?$string_output_adapter@D@__crt_stdio_output@@V?$format_validation_base@DV?$string_output_adapter@D@__crt_stdio_output@@@2@@__crt_stdio_output@@CADH_N@Z 000000018006ef00 f i libucrtd:output.obj
 0001:0006df50       ?adjust_hexit@?$output_processor@DV?$string_output_adapter@D@__crt_stdio_output@@V?$positional_parameter_base@DV?$string_output_adapter@D@__crt_stdio_output@@@2@@__crt_stdio_output@@CADH_N@Z 000000018006ef50 f i libucrtd:output.obj
 0001:0006dfa0       ?adjust_hexit@?$output_processor@DV?$string_output_adapter@D@__crt_stdio_output@@V?$standard_base@DV?$string_output_adapter@D@__crt_stdio_output@@@2@@__crt_stdio_output@@CADH_N@Z 000000018006efa0 f i libucrtd:output.obj
 0001:0006dff0       ?adjust_hexit@?$output_processor@_WV?$stream_output_adapter@_W@__crt_stdio_output@@V?$format_validation_base@_WV?$stream_output_adapter@_W@__crt_stdio_output@@@2@@__crt_stdio_output@@CADH_N@Z 000000018006eff0 f i libucrtd:output.obj
 0001:0006e040       ?adjust_hexit@?$output_processor@_WV?$stream_output_adapter@_W@__crt_stdio_output@@V?$positional_parameter_base@_WV?$stream_output_adapter@_W@__crt_stdio_output@@@2@@__crt_stdio_output@@CADH_N@Z 000000018006f040 f i libucrtd:output.obj
 0001:0006e090       ?adjust_hexit@?$output_processor@_WV?$stream_output_adapter@_W@__crt_stdio_output@@V?$standard_base@_WV?$stream_output_adapter@_W@__crt_stdio_output@@@2@@__crt_stdio_output@@CADH_N@Z 000000018006f090 f i libucrtd:output.obj
 0001:0006e0e0       ?adjust_hexit@?$output_processor@_WV?$string_output_adapter@_W@__crt_stdio_output@@V?$format_validation_base@_WV?$string_output_adapter@_W@__crt_stdio_output@@@2@@__crt_stdio_output@@CADH_N@Z 000000018006f0e0 f i libucrtd:output.obj
 0001:0006e130       ?adjust_hexit@?$output_processor@_WV?$string_output_adapter@_W@__crt_stdio_output@@V?$positional_parameter_base@_WV?$string_output_adapter@_W@__crt_stdio_output@@@2@@__crt_stdio_output@@CADH_N@Z 000000018006f130 f i libucrtd:output.obj
 0001:0006e180       ?adjust_hexit@?$output_processor@_WV?$string_output_adapter@_W@__crt_stdio_output@@V?$standard_base@_WV?$string_output_adapter@_W@__crt_stdio_output@@@2@@__crt_stdio_output@@CADH_N@Z 000000018006f180 f i libucrtd:output.obj
 0001:0006e1d0       ?advance_to_next_pass@?$positional_parameter_base@DV?$stream_output_adapter@D@__crt_stdio_output@@@__crt_stdio_output@@IEAA_NXZ 000000018006f1d0 f i libucrtd:output.obj
 0001:0006e280       ?advance_to_next_pass@?$positional_parameter_base@DV?$string_output_adapter@D@__crt_stdio_output@@@__crt_stdio_output@@IEAA_NXZ 000000018006f280 f i libucrtd:output.obj
 0001:0006e330       ?advance_to_next_pass@?$positional_parameter_base@_WV?$stream_output_adapter@_W@__crt_stdio_output@@@__crt_stdio_output@@IEAA_NXZ 000000018006f330 f i libucrtd:output.obj
 0001:0006e3e0       ?advance_to_next_pass@?$positional_parameter_base@_WV?$string_output_adapter@_W@__crt_stdio_output@@@__crt_stdio_output@@IEAA_NXZ 000000018006f3e0 f i libucrtd:output.obj
 0001:0006e490       ?advance_to_next_pass@?$standard_base@DV?$stream_output_adapter@D@__crt_stdio_output@@@__crt_stdio_output@@IEAA_NXZ 000000018006f490 f i libucrtd:output.obj
 0001:0006e4e0       ?advance_to_next_pass@?$standard_base@DV?$string_output_adapter@D@__crt_stdio_output@@@__crt_stdio_output@@IEAA_NXZ 000000018006f4e0 f i libucrtd:output.obj
 0001:0006e530       ?advance_to_next_pass@?$standard_base@_WV?$stream_output_adapter@_W@__crt_stdio_output@@@__crt_stdio_output@@IEAA_NXZ 000000018006f530 f i libucrtd:output.obj
 0001:0006e580       ?advance_to_next_pass@?$standard_base@_WV?$string_output_adapter@_W@__crt_stdio_output@@@__crt_stdio_output@@IEAA_NXZ 000000018006f580 f i libucrtd:output.obj
 0001:0006e5d0       ?check@?$cached@H@__crt_cached_ptd_host@@QEBA_NH@Z 000000018006f5d0 f i libucrtd:output.obj
 0001:0006e610       ?check_synchronize_global_state_index@__crt_cached_ptd_host@@AEAA_KAEBV__crt_scoped_get_last_error_reset@@@Z 000000018006f610 f i libucrtd:output.obj
 0001:0006e650       ?check_synchronize_per_thread_data@__crt_cached_ptd_host@@AEAAPEAU__acrt_ptd@@XZ 000000018006f650 f i libucrtd:output.obj
 0001:0006e690       ?create_guard@?$cached@H@__crt_cached_ptd_host@@QEAA?AVguard@12@XZ 000000018006f690 f i libucrtd:output.obj
 0001:0006e6c0       ?crop_zeroes@__crt_stdio_output@@YAXPEADQEAU__crt_locale_pointers@@@Z 000000018006f6c0 f i libucrtd:output.obj
 0001:0006e810       ?disable@guard@?$cached@H@__crt_cached_ptd_host@@QEAAXXZ 000000018006f810 f i libucrtd:output.obj
 0001:0006e820       ?enable@guard@?$cached@H@__crt_cached_ptd_host@@QEAAXXZ 000000018006f820 f i libucrtd:output.obj
 0001:0006e830       ?find_next_state@?$output_processor@DV?$stream_output_adapter@D@__crt_stdio_output@@V?$format_validation_base@DV?$stream_output_adapter@D@__crt_stdio_output@@@2@@__crt_stdio_output@@AEBA?AW4state@2@DW432@@Z 000000018006f830 f i libucrtd:output.obj
 0001:0006e8d0       ?find_next_state@?$output_processor@DV?$stream_output_adapter@D@__crt_stdio_output@@V?$positional_parameter_base@DV?$stream_output_adapter@D@__crt_stdio_output@@@2@@__crt_stdio_output@@AEBA?AW4state@2@DW432@@Z 000000018006f8d0 f i libucrtd:output.obj
 0001:0006e970       ?find_next_state@?$output_processor@DV?$stream_output_adapter@D@__crt_stdio_output@@V?$standard_base@DV?$stream_output_adapter@D@__crt_stdio_output@@@2@@__crt_stdio_output@@AEBA?AW4state@2@DW432@@Z 000000018006f970 f i libucrtd:output.obj
 0001:0006ea10       ?find_next_state@?$output_processor@DV?$string_output_adapter@D@__crt_stdio_output@@V?$format_validation_base@DV?$string_output_adapter@D@__crt_stdio_output@@@2@@__crt_stdio_output@@AEBA?AW4state@2@DW432@@Z 000000018006fa10 f i libucrtd:output.obj
 0001:0006eab0       ?find_next_state@?$output_processor@DV?$string_output_adapter@D@__crt_stdio_output@@V?$positional_parameter_base@DV?$string_output_adapter@D@__crt_stdio_output@@@2@@__crt_stdio_output@@AEBA?AW4state@2@DW432@@Z 000000018006fab0 f i libucrtd:output.obj
 0001:0006eb50       ?find_next_state@?$output_processor@DV?$string_output_adapter@D@__crt_stdio_output@@V?$standard_base@DV?$string_output_adapter@D@__crt_stdio_output@@@2@@__crt_stdio_output@@AEBA?AW4state@2@DW432@@Z 000000018006fb50 f i libucrtd:output.obj
 0001:0006ebf0       ?find_next_state@?$output_processor@_WV?$stream_output_adapter@_W@__crt_stdio_output@@V?$format_validation_base@_WV?$stream_output_adapter@_W@__crt_stdio_output@@@2@@__crt_stdio_output@@AEBA?AW4state@2@_WW432@@Z 000000018006fbf0 f i libucrtd:output.obj
 0001:0006ec90       ?find_next_state@?$output_processor@_WV?$stream_output_adapter@_W@__crt_stdio_output@@V?$positional_parameter_base@_WV?$stream_output_adapter@_W@__crt_stdio_output@@@2@@__crt_stdio_output@@AEBA?AW4state@2@_WW432@@Z 000000018006fc90 f i libucrtd:output.obj
 0001:0006ed30       ?find_next_state@?$output_processor@_WV?$stream_output_adapter@_W@__crt_stdio_output@@V?$standard_base@_WV?$stream_output_adapter@_W@__crt_stdio_output@@@2@@__crt_stdio_output@@AEBA?AW4state@2@_WW432@@Z 000000018006fd30 f i libucrtd:output.obj
 0001:0006edd0       ?find_next_state@?$output_processor@_WV?$string_output_adapter@_W@__crt_stdio_output@@V?$format_validation_base@_WV?$string_output_adapter@_W@__crt_stdio_output@@@2@@__crt_stdio_output@@AEBA?AW4state@2@_WW432@@Z 000000018006fdd0 f i libucrtd:output.obj
 0001:0006ee70       ?find_next_state@?$output_processor@_WV?$string_output_adapter@_W@__crt_stdio_output@@V?$positional_parameter_base@_WV?$string_output_adapter@_W@__crt_stdio_output@@@2@@__crt_stdio_output@@AEBA?AW4state@2@_WW432@@Z 000000018006fe70 f i libucrtd:output.obj
 0001:0006ef10       ?find_next_state@?$output_processor@_WV?$string_output_adapter@_W@__crt_stdio_output@@V?$standard_base@_WV?$string_output_adapter@_W@__crt_stdio_output@@@2@@__crt_stdio_output@@AEBA?AW4state@2@_WW432@@Z 000000018006ff10 f i libucrtd:output.obj
 0001:0006efb0       ?force_decimal_point@__crt_stdio_output@@YAXPEADQEAU__crt_locale_pointers@@@Z 000000018006ffb0 f i libucrtd:output.obj
 0001:0006f0b0       ?force_synchronize_global_state_index@__crt_cached_ptd_host@@AEAA_KAEBV__crt_scoped_get_last_error_reset@@@Z 00000001800700b0 f i libucrtd:output.obj
 0001:0006f0f0       ?force_synchronize_per_thread_data@__crt_cached_ptd_host@@AEAAPEAU__acrt_ptd@@XZ 00000001800700f0 f i libucrtd:output.obj
 0001:0006f150       ?get@?$c_string_character_source@D@__crt_strtox@@QEAADXZ 0000000180070150 f i libucrtd:output.obj
 0001:0006f190       ?get@?$c_string_character_source@_W@__crt_strtox@@QEAA_WXZ 0000000180070190 f i libucrtd:output.obj
 0001:0006f1d0       ?get_current_state_index@__crt_state_management@@YA_KAEBV__crt_scoped_get_last_error_reset@@@Z 00000001800701d0 f i libucrtd:output.obj
 0001:0006f1e0       ?get_errno@__crt_cached_ptd_host@@QEAAAEAU?$cached@H@1@XZ 00000001800701e0 f i libucrtd:output.obj
 0001:0006f1f0       ?get_flags@__crt_stdio_stream@@QEBAJXZ 00000001800701f0 f i libucrtd:output.obj
 0001:0006f220       ?get_locale@__crt_cached_ptd_host@@QEAAPEAU__crt_locale_pointers@@XZ 0000000180070220 f i libucrtd:output.obj
 0001:0006f250       ?get_parameter_type@?$positional_parameter_base@DV?$stream_output_adapter@D@__crt_stdio_output@@@__crt_stdio_output@@CA?AW4parameter_type@12@F@Z 0000000180070250 f i libucrtd:output.obj
 0001:0006f260       ?get_parameter_type@?$positional_parameter_base@DV?$stream_output_adapter@D@__crt_stdio_output@@@__crt_stdio_output@@CA?AW4parameter_type@12@G@Z 0000000180070260 f i libucrtd:output.obj
 0001:0006f270       ?get_parameter_type@?$positional_parameter_base@DV?$stream_output_adapter@D@__crt_stdio_output@@@__crt_stdio_output@@CA?AW4parameter_type@12@H@Z 0000000180070270 f i libucrtd:output.obj
 0001:0006f280       ?get_parameter_type@?$positional_parameter_base@DV?$stream_output_adapter@D@__crt_stdio_output@@@__crt_stdio_output@@CA?AW4parameter_type@12@I@Z 0000000180070280 f i libucrtd:output.obj
 0001:0006f290       ?get_parameter_type@?$positional_parameter_base@DV?$stream_output_adapter@D@__crt_stdio_output@@@__crt_stdio_output@@CA?AW4parameter_type@12@U_CRT_DOUBLE@@@Z 0000000180070290 f i libucrtd:output.obj
 0001:0006f2a0       ?get_parameter_type@?$positional_parameter_base@DV?$stream_output_adapter@D@__crt_stdio_output@@@__crt_stdio_output@@CA?AW4parameter_type@12@_J@Z 00000001800702a0 f i libucrtd:output.obj
 0001:0006f2b0       ?get_parameter_type@?$positional_parameter_base@DV?$stream_output_adapter@D@__crt_stdio_output@@@__crt_stdio_output@@CA?AW4parameter_type@12@_K@Z 00000001800702b0 f i libucrtd:output.obj
 0001:0006f2c0       ?get_parameter_type@?$positional_parameter_base@DV?$stream_output_adapter@D@__crt_stdio_output@@@__crt_stdio_output@@CA?AW4parameter_type@12@_W@Z 00000001800702c0 f i libucrtd:output.obj
 0001:0006f2d0       ?get_parameter_type@?$positional_parameter_base@DV?$string_output_adapter@D@__crt_stdio_output@@@__crt_stdio_output@@CA?AW4parameter_type@12@F@Z 00000001800702d0 f i libucrtd:output.obj
 0001:0006f2e0       ?get_parameter_type@?$positional_parameter_base@DV?$string_output_adapter@D@__crt_stdio_output@@@__crt_stdio_output@@CA?AW4parameter_type@12@G@Z 00000001800702e0 f i libucrtd:output.obj
 0001:0006f2f0       ?get_parameter_type@?$positional_parameter_base@DV?$string_output_adapter@D@__crt_stdio_output@@@__crt_stdio_output@@CA?AW4parameter_type@12@H@Z 00000001800702f0 f i libucrtd:output.obj
 0001:0006f300       ?get_parameter_type@?$positional_parameter_base@DV?$string_output_adapter@D@__crt_stdio_output@@@__crt_stdio_output@@CA?AW4parameter_type@12@I@Z 0000000180070300 f i libucrtd:output.obj
 0001:0006f310       ?get_parameter_type@?$positional_parameter_base@DV?$string_output_adapter@D@__crt_stdio_output@@@__crt_stdio_output@@CA?AW4parameter_type@12@U_CRT_DOUBLE@@@Z 0000000180070310 f i libucrtd:output.obj
 0001:0006f320       ?get_parameter_type@?$positional_parameter_base@DV?$string_output_adapter@D@__crt_stdio_output@@@__crt_stdio_output@@CA?AW4parameter_type@12@_J@Z 0000000180070320 f i libucrtd:output.obj
 0001:0006f330       ?get_parameter_type@?$positional_parameter_base@DV?$string_output_adapter@D@__crt_stdio_output@@@__crt_stdio_output@@CA?AW4parameter_type@12@_K@Z 0000000180070330 f i libucrtd:output.obj
 0001:0006f340       ?get_parameter_type@?$positional_parameter_base@DV?$string_output_adapter@D@__crt_stdio_output@@@__crt_stdio_output@@CA?AW4parameter_type@12@_W@Z 0000000180070340 f i libucrtd:output.obj
 0001:0006f350       ?get_parameter_type@?$positional_parameter_base@_WV?$stream_output_adapter@_W@__crt_stdio_output@@@__crt_stdio_output@@CA?AW4parameter_type@12@F@Z 0000000180070350 f i libucrtd:output.obj
 0001:0006f360       ?get_parameter_type@?$positional_parameter_base@_WV?$stream_output_adapter@_W@__crt_stdio_output@@@__crt_stdio_output@@CA?AW4parameter_type@12@G@Z 0000000180070360 f i libucrtd:output.obj
 0001:0006f370       ?get_parameter_type@?$positional_parameter_base@_WV?$stream_output_adapter@_W@__crt_stdio_output@@@__crt_stdio_output@@CA?AW4parameter_type@12@H@Z 0000000180070370 f i libucrtd:output.obj
 0001:0006f380       ?get_parameter_type@?$positional_parameter_base@_WV?$stream_output_adapter@_W@__crt_stdio_output@@@__crt_stdio_output@@CA?AW4parameter_type@12@I@Z 0000000180070380 f i libucrtd:output.obj
 0001:0006f390       ?get_parameter_type@?$positional_parameter_base@_WV?$stream_output_adapter@_W@__crt_stdio_output@@@__crt_stdio_output@@CA?AW4parameter_type@12@U_CRT_DOUBLE@@@Z 0000000180070390 f i libucrtd:output.obj
 0001:0006f3a0       ?get_parameter_type@?$positional_parameter_base@_WV?$stream_output_adapter@_W@__crt_stdio_output@@@__crt_stdio_output@@CA?AW4parameter_type@12@_J@Z 00000001800703a0 f i libucrtd:output.obj
 0001:0006f3b0       ?get_parameter_type@?$positional_parameter_base@_WV?$stream_output_adapter@_W@__crt_stdio_output@@@__crt_stdio_output@@CA?AW4parameter_type@12@_K@Z 00000001800703b0 f i libucrtd:output.obj
 0001:0006f3c0       ?get_parameter_type@?$positional_parameter_base@_WV?$stream_output_adapter@_W@__crt_stdio_output@@@__crt_stdio_output@@CA?AW4parameter_type@12@_W@Z 00000001800703c0 f i libucrtd:output.obj
 0001:0006f3d0       ?get_parameter_type@?$positional_parameter_base@_WV?$string_output_adapter@_W@__crt_stdio_output@@@__crt_stdio_output@@CA?AW4parameter_type@12@F@Z 00000001800703d0 f i libucrtd:output.obj
 0001:0006f3e0       ?get_parameter_type@?$positional_parameter_base@_WV?$string_output_adapter@_W@__crt_stdio_output@@@__crt_stdio_output@@CA?AW4parameter_type@12@G@Z 00000001800703e0 f i libucrtd:output.obj
 0001:0006f3f0       ?get_parameter_type@?$positional_parameter_base@_WV?$string_output_adapter@_W@__crt_stdio_output@@@__crt_stdio_output@@CA?AW4parameter_type@12@H@Z 00000001800703f0 f i libucrtd:output.obj
 0001:0006f400       ?get_parameter_type@?$positional_parameter_base@_WV?$string_output_adapter@_W@__crt_stdio_output@@@__crt_stdio_output@@CA?AW4parameter_type@12@I@Z 0000000180070400 f i libucrtd:output.obj
 0001:0006f410       ?get_parameter_type@?$positional_parameter_base@_WV?$string_output_adapter@_W@__crt_stdio_output@@@__crt_stdio_output@@CA?AW4parameter_type@12@U_CRT_DOUBLE@@@Z 0000000180070410 f i libucrtd:output.obj
 0001:0006f420       ?get_parameter_type@?$positional_parameter_base@_WV?$string_output_adapter@_W@__crt_stdio_output@@@__crt_stdio_output@@CA?AW4parameter_type@12@_J@Z 0000000180070420 f i libucrtd:output.obj
 0001:0006f430       ?get_parameter_type@?$positional_parameter_base@_WV?$string_output_adapter@_W@__crt_stdio_output@@@__crt_stdio_output@@CA?AW4parameter_type@12@_K@Z 0000000180070430 f i libucrtd:output.obj
 0001:0006f440       ?get_parameter_type@?$positional_parameter_base@_WV?$string_output_adapter@_W@__crt_stdio_output@@@__crt_stdio_output@@CA?AW4parameter_type@12@_W@Z 0000000180070440 f i libucrtd:output.obj
 0001:0006f450       ?get_raw_ptd@__crt_cached_ptd_host@@QEAAPEAU__acrt_ptd@@XZ 0000000180070450 f i libucrtd:output.obj
 0001:0006f470       ?has_flag@?$output_processor@DV?$stream_output_adapter@D@__crt_stdio_output@@V?$format_validation_base@DV?$stream_output_adapter@D@__crt_stdio_output@@@2@@__crt_stdio_output@@AEBA_NI@Z 0000000180070470 f i libucrtd:output.obj
 0001:0006f4b0       ?has_flag@?$output_processor@DV?$stream_output_adapter@D@__crt_stdio_output@@V?$positional_parameter_base@DV?$stream_output_adapter@D@__crt_stdio_output@@@2@@__crt_stdio_output@@AEBA_NI@Z 00000001800704b0 f i libucrtd:output.obj
 0001:0006f4f0       ?has_flag@?$output_processor@DV?$stream_output_adapter@D@__crt_stdio_output@@V?$standard_base@DV?$stream_output_adapter@D@__crt_stdio_output@@@2@@__crt_stdio_output@@AEBA_NI@Z 00000001800704f0 f i libucrtd:output.obj
 0001:0006f530       ?has_flag@?$output_processor@DV?$string_output_adapter@D@__crt_stdio_output@@V?$format_validation_base@DV?$string_output_adapter@D@__crt_stdio_output@@@2@@__crt_stdio_output@@AEBA_NI@Z 0000000180070530 f i libucrtd:output.obj
 0001:0006f570       ?has_flag@?$output_processor@DV?$string_output_adapter@D@__crt_stdio_output@@V?$positional_parameter_base@DV?$string_output_adapter@D@__crt_stdio_output@@@2@@__crt_stdio_output@@AEBA_NI@Z 0000000180070570 f i libucrtd:output.obj
 0001:0006f5b0       ?has_flag@?$output_processor@DV?$string_output_adapter@D@__crt_stdio_output@@V?$standard_base@DV?$string_output_adapter@D@__crt_stdio_output@@@2@@__crt_stdio_output@@AEBA_NI@Z 00000001800705b0 f i libucrtd:output.obj
 0001:0006f5f0       ?has_flag@?$output_processor@_WV?$stream_output_adapter@_W@__crt_stdio_output@@V?$format_validation_base@_WV?$stream_output_adapter@_W@__crt_stdio_output@@@2@@__crt_stdio_output@@AEBA_NI@Z 00000001800705f0 f i libucrtd:output.obj
 0001:0006f630       ?has_flag@?$output_processor@_WV?$stream_output_adapter@_W@__crt_stdio_output@@V?$positional_parameter_base@_WV?$stream_output_adapter@_W@__crt_stdio_output@@@2@@__crt_stdio_output@@AEBA_NI@Z 0000000180070630 f i libucrtd:output.obj
 0001:0006f670       ?has_flag@?$output_processor@_WV?$stream_output_adapter@_W@__crt_stdio_output@@V?$standard_base@_WV?$stream_output_adapter@_W@__crt_stdio_output@@@2@@__crt_stdio_output@@AEBA_NI@Z 0000000180070670 f i libucrtd:output.obj
 0001:0006f6b0       ?has_flag@?$output_processor@_WV?$string_output_adapter@_W@__crt_stdio_output@@V?$format_validation_base@_WV?$string_output_adapter@_W@__crt_stdio_output@@@2@@__crt_stdio_output@@AEBA_NI@Z 00000001800706b0 f i libucrtd:output.obj
 0001:0006f6f0       ?has_flag@?$output_processor@_WV?$string_output_adapter@_W@__crt_stdio_output@@V?$positional_parameter_base@_WV?$string_output_adapter@_W@__crt_stdio_output@@@2@@__crt_stdio_output@@AEBA_NI@Z 00000001800706f0 f i libucrtd:output.obj
 0001:0006f730       ?has_flag@?$output_processor@_WV?$string_output_adapter@_W@__crt_stdio_output@@V?$standard_base@_WV?$string_output_adapter@_W@__crt_stdio_output@@@2@@__crt_stdio_output@@AEBA_NI@Z 0000000180070730 f i libucrtd:output.obj
 0001:0006f770       ?is_positional_parameter_reappearance_consistent@?$positional_parameter_base@DV?$stream_output_adapter@D@__crt_stdio_output@@@__crt_stdio_output@@AEAA_NAEBUparameter_data@12@W4parameter_type@12@DW4length_modifier@2@@Z 0000000180070770 f i libucrtd:output.obj
 0001:0006f9d0       ?is_positional_parameter_reappearance_consistent@?$positional_parameter_base@DV?$string_output_adapter@D@__crt_stdio_output@@@__crt_stdio_output@@AEAA_NAEBUparameter_data@12@W4parameter_type@12@DW4length_modifier@2@@Z 00000001800709d0 f i libucrtd:output.obj
 0001:0006fc30       ?is_positional_parameter_reappearance_consistent@?$positional_parameter_base@_WV?$stream_output_adapter@_W@__crt_stdio_output@@@__crt_stdio_output@@AEAA_NAEBUparameter_data@12@W4parameter_type@12@_WW4length_modifier@2@@Z 0000000180070c30 f i libucrtd:output.obj
 0001:0006fe90       ?is_positional_parameter_reappearance_consistent@?$positional_parameter_base@_WV?$string_output_adapter@_W@__crt_stdio_output@@@__crt_stdio_output@@AEAA_NAEBUparameter_data@12@W4parameter_type@12@_WW4length_modifier@2@@Z 0000000180070e90 f i libucrtd:output.obj
 0001:000700f0       ?is_string_backed@__crt_stdio_stream@@QEBA_NXZ 00000001800710f0 f i libucrtd:output.obj
 0001:00070130       ?maximum_signed_value@__crt_strtox@@YAJK@Z 0000000180071130 f i libucrtd:output.obj
 0001:00070140       ?minimum_signed_value@__crt_strtox@@YAJK@Z 0000000180071140 f i libucrtd:output.obj
 0001:00070150       ?narrow_null_string@?$output_processor@DV?$stream_output_adapter@D@__crt_stdio_output@@V?$format_validation_base@DV?$stream_output_adapter@D@__crt_stdio_output@@@2@@__crt_stdio_output@@CAPEADXZ 0000000180071150 f i libucrtd:output.obj
 0001:00070160       ?narrow_null_string@?$output_processor@DV?$stream_output_adapter@D@__crt_stdio_output@@V?$positional_parameter_base@DV?$stream_output_adapter@D@__crt_stdio_output@@@2@@__crt_stdio_output@@CAPEADXZ 0000000180071160 f i libucrtd:output.obj
 0001:00070170       ?narrow_null_string@?$output_processor@DV?$stream_output_adapter@D@__crt_stdio_output@@V?$standard_base@DV?$stream_output_adapter@D@__crt_stdio_output@@@2@@__crt_stdio_output@@CAPEADXZ 0000000180071170 f i libucrtd:output.obj
 0001:00070180       ?narrow_null_string@?$output_processor@DV?$string_output_adapter@D@__crt_stdio_output@@V?$format_validation_base@DV?$string_output_adapter@D@__crt_stdio_output@@@2@@__crt_stdio_output@@CAPEADXZ 0000000180071180 f i libucrtd:output.obj
 0001:00070190       ?narrow_null_string@?$output_processor@DV?$string_output_adapter@D@__crt_stdio_output@@V?$positional_parameter_base@DV?$string_output_adapter@D@__crt_stdio_output@@@2@@__crt_stdio_output@@CAPEADXZ 0000000180071190 f i libucrtd:output.obj
 0001:000701a0       ?narrow_null_string@?$output_processor@DV?$string_output_adapter@D@__crt_stdio_output@@V?$standard_base@DV?$string_output_adapter@D@__crt_stdio_output@@@2@@__crt_stdio_output@@CAPEADXZ 00000001800711a0 f i libucrtd:output.obj
 0001:000701b0       ?narrow_null_string@?$output_processor@_WV?$stream_output_adapter@_W@__crt_stdio_output@@V?$format_validation_base@_WV?$stream_output_adapter@_W@__crt_stdio_output@@@2@@__crt_stdio_output@@CAPEADXZ 00000001800711b0 f i libucrtd:output.obj
 0001:000701c0       ?narrow_null_string@?$output_processor@_WV?$stream_output_adapter@_W@__crt_stdio_output@@V?$positional_parameter_base@_WV?$stream_output_adapter@_W@__crt_stdio_output@@@2@@__crt_stdio_output@@CAPEADXZ 00000001800711c0 f i libucrtd:output.obj
 0001:000701d0       ?narrow_null_string@?$output_processor@_WV?$stream_output_adapter@_W@__crt_stdio_output@@V?$standard_base@_WV?$stream_output_adapter@_W@__crt_stdio_output@@@2@@__crt_stdio_output@@CAPEADXZ 00000001800711d0 f i libucrtd:output.obj
 0001:000701e0       ?narrow_null_string@?$output_processor@_WV?$string_output_adapter@_W@__crt_stdio_output@@V?$format_validation_base@_WV?$string_output_adapter@_W@__crt_stdio_output@@@2@@__crt_stdio_output@@CAPEADXZ 00000001800711e0 f i libucrtd:output.obj
 0001:000701f0       ?narrow_null_string@?$output_processor@_WV?$string_output_adapter@_W@__crt_stdio_output@@V?$positional_parameter_base@_WV?$string_output_adapter@_W@__crt_stdio_output@@@2@@__crt_stdio_output@@CAPEADXZ 00000001800711f0 f i libucrtd:output.obj
 0001:00070200       ?narrow_null_string@?$output_processor@_WV?$string_output_adapter@_W@__crt_stdio_output@@V?$standard_base@_WV?$string_output_adapter@_W@__crt_stdio_output@@@2@@__crt_stdio_output@@CAPEADXZ 0000000180071200 f i libucrtd:output.obj
 0001:00070210       ?parse_digit@__crt_strtox@@YAID@Z 0000000180071210 f i libucrtd:output.obj
 0001:00070280       ?parse_digit@__crt_strtox@@YAI_W@Z 0000000180071280 f i libucrtd:output.obj
 0001:000702d0       ?parse_int_from_format_string@?$output_processor@DV?$stream_output_adapter@D@__crt_stdio_output@@V?$format_validation_base@DV?$stream_output_adapter@D@__crt_stdio_output@@@2@@__crt_stdio_output@@AEAA_NQEAH@Z 00000001800712d0 f i libucrtd:output.obj
 0001:000703d0       ?parse_int_from_format_string@?$output_processor@DV?$stream_output_adapter@D@__crt_stdio_output@@V?$positional_parameter_base@DV?$stream_output_adapter@D@__crt_stdio_output@@@2@@__crt_stdio_output@@AEAA_NQEAH@Z 00000001800713d0 f i libucrtd:output.obj
 0001:000704d0       ?parse_int_from_format_string@?$output_processor@DV?$stream_output_adapter@D@__crt_stdio_output@@V?$standard_base@DV?$stream_output_adapter@D@__crt_stdio_output@@@2@@__crt_stdio_output@@AEAA_NQEAH@Z 00000001800714d0 f i libucrtd:output.obj
 0001:000705d0       ?parse_int_from_format_string@?$output_processor@DV?$string_output_adapter@D@__crt_stdio_output@@V?$format_validation_base@DV?$string_output_adapter@D@__crt_stdio_output@@@2@@__crt_stdio_output@@AEAA_NQEAH@Z 00000001800715d0 f i libucrtd:output.obj
 0001:000706d0       ?parse_int_from_format_string@?$output_processor@DV?$string_output_adapter@D@__crt_stdio_output@@V?$positional_parameter_base@DV?$string_output_adapter@D@__crt_stdio_output@@@2@@__crt_stdio_output@@AEAA_NQEAH@Z 00000001800716d0 f i libucrtd:output.obj
 0001:000707d0       ?parse_int_from_format_string@?$output_processor@DV?$string_output_adapter@D@__crt_stdio_output@@V?$standard_base@DV?$string_output_adapter@D@__crt_stdio_output@@@2@@__crt_stdio_output@@AEAA_NQEAH@Z 00000001800717d0 f i libucrtd:output.obj
 0001:000708d0       ?parse_int_from_format_string@?$output_processor@_WV?$stream_output_adapter@_W@__crt_stdio_output@@V?$format_validation_base@_WV?$stream_output_adapter@_W@__crt_stdio_output@@@2@@__crt_stdio_output@@AEAA_NQEAH@Z 00000001800718d0 f i libucrtd:output.obj
 0001:000709d0       ?parse_int_from_format_string@?$output_processor@_WV?$stream_output_adapter@_W@__crt_stdio_output@@V?$positional_parameter_base@_WV?$stream_output_adapter@_W@__crt_stdio_output@@@2@@__crt_stdio_output@@AEAA_NQEAH@Z 00000001800719d0 f i libucrtd:output.obj
 0001:00070ad0       ?parse_int_from_format_string@?$output_processor@_WV?$stream_output_adapter@_W@__crt_stdio_output@@V?$standard_base@_WV?$stream_output_adapter@_W@__crt_stdio_output@@@2@@__crt_stdio_output@@AEAA_NQEAH@Z 0000000180071ad0 f i libucrtd:output.obj
 0001:00070bd0       ?parse_int_from_format_string@?$output_processor@_WV?$string_output_adapter@_W@__crt_stdio_output@@V?$format_validation_base@_WV?$string_output_adapter@_W@__crt_stdio_output@@@2@@__crt_stdio_output@@AEAA_NQEAH@Z 0000000180071bd0 f i libucrtd:output.obj
 0001:00070cd0       ?parse_int_from_format_string@?$output_processor@_WV?$string_output_adapter@_W@__crt_stdio_output@@V?$positional_parameter_base@_WV?$string_output_adapter@_W@__crt_stdio_output@@@2@@__crt_stdio_output@@AEAA_NQEAH@Z 0000000180071cd0 f i libucrtd:output.obj
 0001:00070dd0       ?parse_int_from_format_string@?$output_processor@_WV?$string_output_adapter@_W@__crt_stdio_output@@V?$standard_base@_WV?$string_output_adapter@_W@__crt_stdio_output@@@2@@__crt_stdio_output@@AEAA_NQEAH@Z 0000000180071dd0 f i libucrtd:output.obj
 0001:00070ed0       ?process@?$output_processor@DV?$stream_output_adapter@D@__crt_stdio_output@@V?$format_validation_base@DV?$stream_output_adapter@D@__crt_stdio_output@@@2@@__crt_stdio_output@@QEAAHXZ 0000000180071ed0 f i libucrtd:output.obj
 0001:00071290       ?process@?$output_processor@DV?$stream_output_adapter@D@__crt_stdio_output@@V?$positional_parameter_base@DV?$stream_output_adapter@D@__crt_stdio_output@@@2@@__crt_stdio_output@@QEAAHXZ 0000000180072290 f i libucrtd:output.obj
 0001:00071650       ?process@?$output_processor@DV?$stream_output_adapter@D@__crt_stdio_output@@V?$standard_base@DV?$stream_output_adapter@D@__crt_stdio_output@@@2@@__crt_stdio_output@@QEAAHXZ 0000000180072650 f i libucrtd:output.obj
 0001:00071a10       ?process@?$output_processor@DV?$string_output_adapter@D@__crt_stdio_output@@V?$format_validation_base@DV?$string_output_adapter@D@__crt_stdio_output@@@2@@__crt_stdio_output@@QEAAHXZ 0000000180072a10 f i libucrtd:output.obj
 0001:00071dd0       ?process@?$output_processor@DV?$string_output_adapter@D@__crt_stdio_output@@V?$positional_parameter_base@DV?$string_output_adapter@D@__crt_stdio_output@@@2@@__crt_stdio_output@@QEAAHXZ 0000000180072dd0 f i libucrtd:output.obj
 0001:00072190       ?process@?$output_processor@DV?$string_output_adapter@D@__crt_stdio_output@@V?$standard_base@DV?$string_output_adapter@D@__crt_stdio_output@@@2@@__crt_stdio_output@@QEAAHXZ 0000000180073190 f i libucrtd:output.obj
 0001:00072550       ?process@?$output_processor@_WV?$stream_output_adapter@_W@__crt_stdio_output@@V?$format_validation_base@_WV?$stream_output_adapter@_W@__crt_stdio_output@@@2@@__crt_stdio_output@@QEAAHXZ 0000000180073550 f i libucrtd:output.obj
 0001:00072910       ?process@?$output_processor@_WV?$stream_output_adapter@_W@__crt_stdio_output@@V?$positional_parameter_base@_WV?$stream_output_adapter@_W@__crt_stdio_output@@@2@@__crt_stdio_output@@QEAAHXZ 0000000180073910 f i libucrtd:output.obj
 0001:00072cd0       ?process@?$output_processor@_WV?$stream_output_adapter@_W@__crt_stdio_output@@V?$standard_base@_WV?$stream_output_adapter@_W@__crt_stdio_output@@@2@@__crt_stdio_output@@QEAAHXZ 0000000180073cd0 f i libucrtd:output.obj
 0001:00073090       ?process@?$output_processor@_WV?$string_output_adapter@_W@__crt_stdio_output@@V?$format_validation_base@_WV?$string_output_adapter@_W@__crt_stdio_output@@@2@@__crt_stdio_output@@QEAAHXZ 0000000180074090 f i libucrtd:output.obj
 0001:00073450       ?process@?$output_processor@_WV?$string_output_adapter@_W@__crt_stdio_output@@V?$positional_parameter_base@_WV?$string_output_adapter@_W@__crt_stdio_output@@@2@@__crt_stdio_output@@QEAAHXZ 0000000180074450 f i libucrtd:output.obj
 0001:00073810       ?process@?$output_processor@_WV?$string_output_adapter@_W@__crt_stdio_output@@V?$standard_base@_WV?$string_output_adapter@_W@__crt_stdio_output@@@2@@__crt_stdio_output@@QEAAHXZ 0000000180074810 f i libucrtd:output.obj
 0001:00073bd0       ?public_stream@__crt_stdio_stream@@QEBAPEAU_iobuf@@XZ 0000000180074bd0 f i libucrtd:output.obj
 0001:00073be0       ?restore_state@?$c_string_character_source@D@__crt_strtox@@QEAA_NQEBD@Z 0000000180074be0 f i libucrtd:output.obj
 0001:00073c00       ?restore_state@?$c_string_character_source@_W@__crt_strtox@@QEAA_NQEB_W@Z 0000000180074c00 f i libucrtd:output.obj
 0001:00073c20       ?save_state@?$c_string_character_source@D@__crt_strtox@@QEBAPEBDXZ 0000000180074c20 f i libucrtd:output.obj
 0001:00073c30       ?save_state@?$c_string_character_source@_W@__crt_strtox@@QEBAPEB_WXZ 0000000180074c30 f i libucrtd:output.obj
 0001:00073c40       ?set@?$cached@H@__crt_cached_ptd_host@@QEAAHH@Z 0000000180074c40 f i libucrtd:output.obj
 0001:00073c70       ?set_flag@?$output_processor@DV?$stream_output_adapter@D@__crt_stdio_output@@V?$format_validation_base@DV?$stream_output_adapter@D@__crt_stdio_output@@@2@@__crt_stdio_output@@AEAAXI@Z 0000000180074c70 f i libucrtd:output.obj
 0001:00073c90       ?set_flag@?$output_processor@DV?$stream_output_adapter@D@__crt_stdio_output@@V?$positional_parameter_base@DV?$stream_output_adapter@D@__crt_stdio_output@@@2@@__crt_stdio_output@@AEAAXI@Z 0000000180074c90 f i libucrtd:output.obj
 0001:00073cb0       ?set_flag@?$output_processor@DV?$stream_output_adapter@D@__crt_stdio_output@@V?$standard_base@DV?$stream_output_adapter@D@__crt_stdio_output@@@2@@__crt_stdio_output@@AEAAXI@Z 0000000180074cb0 f i libucrtd:output.obj
 0001:00073cd0       ?set_flag@?$output_processor@DV?$string_output_adapter@D@__crt_stdio_output@@V?$format_validation_base@DV?$string_output_adapter@D@__crt_stdio_output@@@2@@__crt_stdio_output@@AEAAXI@Z 0000000180074cd0 f i libucrtd:output.obj
 0001:00073cf0       ?set_flag@?$output_processor@DV?$string_output_adapter@D@__crt_stdio_output@@V?$positional_parameter_base@DV?$string_output_adapter@D@__crt_stdio_output@@@2@@__crt_stdio_output@@AEAAXI@Z 0000000180074cf0 f i libucrtd:output.obj
 0001:00073d10       ?set_flag@?$output_processor@DV?$string_output_adapter@D@__crt_stdio_output@@V?$standard_base@DV?$string_output_adapter@D@__crt_stdio_output@@@2@@__crt_stdio_output@@AEAAXI@Z 0000000180074d10 f i libucrtd:output.obj
 0001:00073d30       ?set_flag@?$output_processor@_WV?$stream_output_adapter@_W@__crt_stdio_output@@V?$format_validation_base@_WV?$stream_output_adapter@_W@__crt_stdio_output@@@2@@__crt_stdio_output@@AEAAXI@Z 0000000180074d30 f i libucrtd:output.obj
 0001:00073d50       ?set_flag@?$output_processor@_WV?$stream_output_adapter@_W@__crt_stdio_output@@V?$positional_parameter_base@_WV?$stream_output_adapter@_W@__crt_stdio_output@@@2@@__crt_stdio_output@@AEAAXI@Z 0000000180074d50 f i libucrtd:output.obj
 0001:00073d70       ?set_flag@?$output_processor@_WV?$stream_output_adapter@_W@__crt_stdio_output@@V?$standard_base@_WV?$stream_output_adapter@_W@__crt_stdio_output@@@2@@__crt_stdio_output@@AEAAXI@Z 0000000180074d70 f i libucrtd:output.obj
 0001:00073d90       ?set_flag@?$output_processor@_WV?$string_output_adapter@_W@__crt_stdio_output@@V?$format_validation_base@_WV?$string_output_adapter@_W@__crt_stdio_output@@@2@@__crt_stdio_output@@AEAAXI@Z 0000000180074d90 f i libucrtd:output.obj
 0001:00073db0       ?set_flag@?$output_processor@_WV?$string_output_adapter@_W@__crt_stdio_output@@V?$positional_parameter_base@_WV?$string_output_adapter@_W@__crt_stdio_output@@@2@@__crt_stdio_output@@AEAAXI@Z 0000000180074db0 f i libucrtd:output.obj
 0001:00073dd0       ?set_flag@?$output_processor@_WV?$string_output_adapter@_W@__crt_stdio_output@@V?$standard_base@_WV?$string_output_adapter@_W@__crt_stdio_output@@@2@@__crt_stdio_output@@AEAAXI@Z 0000000180074dd0 f i libucrtd:output.obj
 0001:00073df0       ?should_format@?$positional_parameter_base@DV?$stream_output_adapter@D@__crt_stdio_output@@@__crt_stdio_output@@IEAA_NXZ 0000000180074df0 f i libucrtd:output.obj
 0001:00073e30       ?should_format@?$positional_parameter_base@DV?$string_output_adapter@D@__crt_stdio_output@@@__crt_stdio_output@@IEAA_NXZ 0000000180074e30 f i libucrtd:output.obj
 0001:00073e70       ?should_format@?$positional_parameter_base@_WV?$stream_output_adapter@_W@__crt_stdio_output@@@__crt_stdio_output@@IEAA_NXZ 0000000180074e70 f i libucrtd:output.obj
 0001:00073eb0       ?should_format@?$positional_parameter_base@_WV?$string_output_adapter@_W@__crt_stdio_output@@@__crt_stdio_output@@IEAA_NXZ 0000000180074eb0 f i libucrtd:output.obj
 0001:00073ef0       ?should_format@?$standard_base@DV?$stream_output_adapter@D@__crt_stdio_output@@@__crt_stdio_output@@IEAA_NXZ 0000000180074ef0 f i libucrtd:output.obj
 0001:00073f00       ?should_format@?$standard_base@DV?$string_output_adapter@D@__crt_stdio_output@@@__crt_stdio_output@@IEAA_NXZ 0000000180074f00 f i libucrtd:output.obj
 0001:00073f10       ?should_format@?$standard_base@_WV?$stream_output_adapter@_W@__crt_stdio_output@@@__crt_stdio_output@@IEAA_NXZ 0000000180074f10 f i libucrtd:output.obj
 0001:00073f20       ?should_format@?$standard_base@_WV?$string_output_adapter@_W@__crt_stdio_output@@@__crt_stdio_output@@IEAA_NXZ 0000000180074f20 f i libucrtd:output.obj
 0001:00073f30       ?should_skip_normal_state_processing@?$positional_parameter_base@DV?$stream_output_adapter@D@__crt_stdio_output@@@__crt_stdio_output@@IEAA_NXZ 0000000180074f30 f i libucrtd:output.obj
 0001:00073f80       ?should_skip_normal_state_processing@?$positional_parameter_base@DV?$string_output_adapter@D@__crt_stdio_output@@@__crt_stdio_output@@IEAA_NXZ 0000000180074f80 f i libucrtd:output.obj
 0001:00073fd0       ?should_skip_normal_state_processing@?$positional_parameter_base@_WV?$stream_output_adapter@_W@__crt_stdio_output@@@__crt_stdio_output@@IEAA_NXZ 0000000180074fd0 f i libucrtd:output.obj
 0001:00074020       ?should_skip_normal_state_processing@?$positional_parameter_base@_WV?$string_output_adapter@_W@__crt_stdio_output@@@__crt_stdio_output@@IEAA_NXZ 0000000180075020 f i libucrtd:output.obj
 0001:00074070       ?should_skip_normal_state_processing@?$standard_base@DV?$stream_output_adapter@D@__crt_stdio_output@@@__crt_stdio_output@@IEAA_NXZ 0000000180075070 f i libucrtd:output.obj
 0001:00074080       ?should_skip_normal_state_processing@?$standard_base@DV?$string_output_adapter@D@__crt_stdio_output@@@__crt_stdio_output@@IEAA_NXZ 0000000180075080 f i libucrtd:output.obj
 0001:00074090       ?should_skip_normal_state_processing@?$standard_base@_WV?$stream_output_adapter@_W@__crt_stdio_output@@@__crt_stdio_output@@IEAA_NXZ 0000000180075090 f i libucrtd:output.obj
 0001:000740a0       ?should_skip_normal_state_processing@?$standard_base@_WV?$string_output_adapter@_W@__crt_stdio_output@@@__crt_stdio_output@@IEAA_NXZ 00000001800750a0 f i libucrtd:output.obj
 0001:000740b0       ?should_skip_type_state_output@?$positional_parameter_base@DV?$stream_output_adapter@D@__crt_stdio_output@@@__crt_stdio_output@@IEBA_NXZ 00000001800750b0 f i libucrtd:output.obj
 0001:000740f0       ?should_skip_type_state_output@?$positional_parameter_base@DV?$string_output_adapter@D@__crt_stdio_output@@@__crt_stdio_output@@IEBA_NXZ 00000001800750f0 f i libucrtd:output.obj
 0001:00074130       ?should_skip_type_state_output@?$positional_parameter_base@_WV?$stream_output_adapter@_W@__crt_stdio_output@@@__crt_stdio_output@@IEBA_NXZ 0000000180075130 f i libucrtd:output.obj
 0001:00074170       ?should_skip_type_state_output@?$positional_parameter_base@_WV?$string_output_adapter@_W@__crt_stdio_output@@@__crt_stdio_output@@IEBA_NXZ 0000000180075170 f i libucrtd:output.obj
 0001:000741b0       ?should_skip_type_state_output@?$standard_base@DV?$stream_output_adapter@D@__crt_stdio_output@@@__crt_stdio_output@@IEBA_NXZ 00000001800751b0 f i libucrtd:output.obj
 0001:000741c0       ?should_skip_type_state_output@?$standard_base@DV?$string_output_adapter@D@__crt_stdio_output@@@__crt_stdio_output@@IEBA_NXZ 00000001800751c0 f i libucrtd:output.obj
 0001:000741d0       ?should_skip_type_state_output@?$standard_base@_WV?$stream_output_adapter@_W@__crt_stdio_output@@@__crt_stdio_output@@IEBA_NXZ 00000001800751d0 f i libucrtd:output.obj
 0001:000741e0       ?should_skip_type_state_output@?$standard_base@_WV?$string_output_adapter@_W@__crt_stdio_output@@@__crt_stdio_output@@IEBA_NXZ 00000001800751e0 f i libucrtd:output.obj
 0001:000741f0       ?state_case_dot@?$output_processor@DV?$stream_output_adapter@D@__crt_stdio_output@@V?$format_validation_base@DV?$stream_output_adapter@D@__crt_stdio_output@@@2@@__crt_stdio_output@@AEAA_NXZ 00000001800751f0 f i libucrtd:output.obj
 0001:00074210       ?state_case_dot@?$output_processor@DV?$stream_output_adapter@D@__crt_stdio_output@@V?$positional_parameter_base@DV?$stream_output_adapter@D@__crt_stdio_output@@@2@@__crt_stdio_output@@AEAA_NXZ 0000000180075210 f i libucrtd:output.obj
 0001:00074230       ?state_case_dot@?$output_processor@DV?$stream_output_adapter@D@__crt_stdio_output@@V?$standard_base@DV?$stream_output_adapter@D@__crt_stdio_output@@@2@@__crt_stdio_output@@AEAA_NXZ 0000000180075230 f i libucrtd:output.obj
 0001:00074250       ?state_case_dot@?$output_processor@DV?$string_output_adapter@D@__crt_stdio_output@@V?$format_validation_base@DV?$string_output_adapter@D@__crt_stdio_output@@@2@@__crt_stdio_output@@AEAA_NXZ 0000000180075250 f i libucrtd:output.obj
 0001:00074270       ?state_case_dot@?$output_processor@DV?$string_output_adapter@D@__crt_stdio_output@@V?$positional_parameter_base@DV?$string_output_adapter@D@__crt_stdio_output@@@2@@__crt_stdio_output@@AEAA_NXZ 0000000180075270 f i libucrtd:output.obj
 0001:00074290       ?state_case_dot@?$output_processor@DV?$string_output_adapter@D@__crt_stdio_output@@V?$standard_base@DV?$string_output_adapter@D@__crt_stdio_output@@@2@@__crt_stdio_output@@AEAA_NXZ 0000000180075290 f i libucrtd:output.obj
 0001:000742b0       ?state_case_dot@?$output_processor@_WV?$stream_output_adapter@_W@__crt_stdio_output@@V?$format_validation_base@_WV?$stream_output_adapter@_W@__crt_stdio_output@@@2@@__crt_stdio_output@@AEAA_NXZ 00000001800752b0 f i libucrtd:output.obj
 0001:000742d0       ?state_case_dot@?$output_processor@_WV?$stream_output_adapter@_W@__crt_stdio_output@@V?$positional_parameter_base@_WV?$stream_output_adapter@_W@__crt_stdio_output@@@2@@__crt_stdio_output@@AEAA_NXZ 00000001800752d0 f i libucrtd:output.obj
 0001:000742f0       ?state_case_dot@?$output_processor@_WV?$stream_output_adapter@_W@__crt_stdio_output@@V?$standard_base@_WV?$stream_output_adapter@_W@__crt_stdio_output@@@2@@__crt_stdio_output@@AEAA_NXZ 00000001800752f0 f i libucrtd:output.obj
 0001:00074310       ?state_case_dot@?$output_processor@_WV?$string_output_adapter@_W@__crt_stdio_output@@V?$format_validation_base@_WV?$string_output_adapter@_W@__crt_stdio_output@@@2@@__crt_stdio_output@@AEAA_NXZ 0000000180075310 f i libucrtd:output.obj
 0001:00074330       ?state_case_dot@?$output_processor@_WV?$string_output_adapter@_W@__crt_stdio_output@@V?$positional_parameter_base@_WV?$string_output_adapter@_W@__crt_stdio_output@@@2@@__crt_stdio_output@@AEAA_NXZ 0000000180075330 f i libucrtd:output.obj
 0001:00074350       ?state_case_dot@?$output_processor@_WV?$string_output_adapter@_W@__crt_stdio_output@@V?$standard_base@_WV?$string_output_adapter@_W@__crt_stdio_output@@@2@@__crt_stdio_output@@AEAA_NXZ 0000000180075350 f i libucrtd:output.obj
 0001:00074370       ?state_case_flag@?$output_processor@DV?$stream_output_adapter@D@__crt_stdio_output@@V?$format_validation_base@DV?$stream_output_adapter@D@__crt_stdio_output@@@2@@__crt_stdio_output@@AEAA_NXZ 0000000180075370 f i libucrtd:output.obj
 0001:00074410       ?state_case_flag@?$output_processor@DV?$stream_output_adapter@D@__crt_stdio_output@@V?$positional_parameter_base@DV?$stream_output_adapter@D@__crt_stdio_output@@@2@@__crt_stdio_output@@AEAA_NXZ 0000000180075410 f i libucrtd:output.obj
 0001:000744b0       ?state_case_flag@?$output_processor@DV?$stream_output_adapter@D@__crt_stdio_output@@V?$standard_base@DV?$stream_output_adapter@D@__crt_stdio_output@@@2@@__crt_stdio_output@@AEAA_NXZ 00000001800754b0 f i libucrtd:output.obj
 0001:00074550       ?state_case_flag@?$output_processor@DV?$string_output_adapter@D@__crt_stdio_output@@V?$format_validation_base@DV?$string_output_adapter@D@__crt_stdio_output@@@2@@__crt_stdio_output@@AEAA_NXZ 0000000180075550 f i libucrtd:output.obj
 0001:000745f0       ?state_case_flag@?$output_processor@DV?$string_output_adapter@D@__crt_stdio_output@@V?$positional_parameter_base@DV?$string_output_adapter@D@__crt_stdio_output@@@2@@__crt_stdio_output@@AEAA_NXZ 00000001800755f0 f i libucrtd:output.obj
 0001:00074690       ?state_case_flag@?$output_processor@DV?$string_output_adapter@D@__crt_stdio_output@@V?$standard_base@DV?$string_output_adapter@D@__crt_stdio_output@@@2@@__crt_stdio_output@@AEAA_NXZ 0000000180075690 f i libucrtd:output.obj
 0001:00074730       ?state_case_flag@?$output_processor@_WV?$stream_output_adapter@_W@__crt_stdio_output@@V?$format_validation_base@_WV?$stream_output_adapter@_W@__crt_stdio_output@@@2@@__crt_stdio_output@@AEAA_NXZ 0000000180075730 f i libucrtd:output.obj
 0001:000747d0       ?state_case_flag@?$output_processor@_WV?$stream_output_adapter@_W@__crt_stdio_output@@V?$positional_parameter_base@_WV?$stream_output_adapter@_W@__crt_stdio_output@@@2@@__crt_stdio_output@@AEAA_NXZ 00000001800757d0 f i libucrtd:output.obj
 0001:00074870       ?state_case_flag@?$output_processor@_WV?$stream_output_adapter@_W@__crt_stdio_output@@V?$standard_base@_WV?$stream_output_adapter@_W@__crt_stdio_output@@@2@@__crt_stdio_output@@AEAA_NXZ 0000000180075870 f i libucrtd:output.obj
 0001:00074910       ?state_case_flag@?$output_processor@_WV?$string_output_adapter@_W@__crt_stdio_output@@V?$format_validation_base@_WV?$string_output_adapter@_W@__crt_stdio_output@@@2@@__crt_stdio_output@@AEAA_NXZ 0000000180075910 f i libucrtd:output.obj
 0001:000749b0       ?state_case_flag@?$output_processor@_WV?$string_output_adapter@_W@__crt_stdio_output@@V?$positional_parameter_base@_WV?$string_output_adapter@_W@__crt_stdio_output@@@2@@__crt_stdio_output@@AEAA_NXZ 00000001800759b0 f i libucrtd:output.obj
 0001:00074a50       ?state_case_flag@?$output_processor@_WV?$string_output_adapter@_W@__crt_stdio_output@@V?$standard_base@_WV?$string_output_adapter@_W@__crt_stdio_output@@@2@@__crt_stdio_output@@AEAA_NXZ 0000000180075a50 f i libucrtd:output.obj
 0001:00074af0       ?state_case_normal@?$output_processor@DV?$stream_output_adapter@D@__crt_stdio_output@@V?$format_validation_base@DV?$stream_output_adapter@D@__crt_stdio_output@@@2@@__crt_stdio_output@@AEAA_NXZ 0000000180075af0 f i libucrtd:output.obj
 0001:00074bf0       ?state_case_normal@?$output_processor@DV?$stream_output_adapter@D@__crt_stdio_output@@V?$positional_parameter_base@DV?$stream_output_adapter@D@__crt_stdio_output@@@2@@__crt_stdio_output@@AEAA_NXZ 0000000180075bf0 f i libucrtd:output.obj
 0001:00074cf0       ?state_case_normal@?$output_processor@DV?$stream_output_adapter@D@__crt_stdio_output@@V?$standard_base@DV?$stream_output_adapter@D@__crt_stdio_output@@@2@@__crt_stdio_output@@AEAA_NXZ 0000000180075cf0 f i libucrtd:output.obj
 0001:00074df0       ?state_case_normal@?$output_processor@DV?$string_output_adapter@D@__crt_stdio_output@@V?$format_validation_base@DV?$string_output_adapter@D@__crt_stdio_output@@@2@@__crt_stdio_output@@AEAA_NXZ 0000000180075df0 f i libucrtd:output.obj
 0001:00074ef0       ?state_case_normal@?$output_processor@DV?$string_output_adapter@D@__crt_stdio_output@@V?$positional_parameter_base@DV?$string_output_adapter@D@__crt_stdio_output@@@2@@__crt_stdio_output@@AEAA_NXZ 0000000180075ef0 f i libucrtd:output.obj
 0001:00074ff0       ?state_case_normal@?$output_processor@DV?$string_output_adapter@D@__crt_stdio_output@@V?$standard_base@DV?$string_output_adapter@D@__crt_stdio_output@@@2@@__crt_stdio_output@@AEAA_NXZ 0000000180075ff0 f i libucrtd:output.obj
 0001:000750f0       ?state_case_normal@?$output_processor@_WV?$stream_output_adapter@_W@__crt_stdio_output@@V?$format_validation_base@_WV?$stream_output_adapter@_W@__crt_stdio_output@@@2@@__crt_stdio_output@@AEAA_NXZ 00000001800760f0 f i libucrtd:output.obj
 0001:000751f0       ?state_case_normal@?$output_processor@_WV?$stream_output_adapter@_W@__crt_stdio_output@@V?$positional_parameter_base@_WV?$stream_output_adapter@_W@__crt_stdio_output@@@2@@__crt_stdio_output@@AEAA_NXZ 00000001800761f0 f i libucrtd:output.obj
 0001:000752f0       ?state_case_normal@?$output_processor@_WV?$stream_output_adapter@_W@__crt_stdio_output@@V?$standard_base@_WV?$stream_output_adapter@_W@__crt_stdio_output@@@2@@__crt_stdio_output@@AEAA_NXZ 00000001800762f0 f i libucrtd:output.obj
 0001:000753f0       ?state_case_normal@?$output_processor@_WV?$string_output_adapter@_W@__crt_stdio_output@@V?$format_validation_base@_WV?$string_output_adapter@_W@__crt_stdio_output@@@2@@__crt_stdio_output@@AEAA_NXZ 00000001800763f0 f i libucrtd:output.obj
 0001:000754f0       ?state_case_normal@?$output_processor@_WV?$string_output_adapter@_W@__crt_stdio_output@@V?$positional_parameter_base@_WV?$string_output_adapter@_W@__crt_stdio_output@@@2@@__crt_stdio_output@@AEAA_NXZ 00000001800764f0 f i libucrtd:output.obj
 0001:000755f0       ?state_case_normal@?$output_processor@_WV?$string_output_adapter@_W@__crt_stdio_output@@V?$standard_base@_WV?$string_output_adapter@_W@__crt_stdio_output@@@2@@__crt_stdio_output@@AEAA_NXZ 00000001800765f0 f i libucrtd:output.obj
 0001:000756f0       ?state_case_normal_common@?$output_processor@DV?$stream_output_adapter@D@__crt_stdio_output@@V?$format_validation_base@DV?$stream_output_adapter@D@__crt_stdio_output@@@2@@__crt_stdio_output@@AEAA_NXZ 00000001800766f0 f i libucrtd:output.obj
 0001:00075750       ?state_case_normal_common@?$output_processor@DV?$stream_output_adapter@D@__crt_stdio_output@@V?$positional_parameter_base@DV?$stream_output_adapter@D@__crt_stdio_output@@@2@@__crt_stdio_output@@AEAA_NXZ 0000000180076750 f i libucrtd:output.obj
 0001:000757b0       ?state_case_normal_common@?$output_processor@DV?$stream_output_adapter@D@__crt_stdio_output@@V?$standard_base@DV?$stream_output_adapter@D@__crt_stdio_output@@@2@@__crt_stdio_output@@AEAA_NXZ 00000001800767b0 f i libucrtd:output.obj
 0001:00075810       ?state_case_normal_common@?$output_processor@DV?$string_output_adapter@D@__crt_stdio_output@@V?$format_validation_base@DV?$string_output_adapter@D@__crt_stdio_output@@@2@@__crt_stdio_output@@AEAA_NXZ 0000000180076810 f i libucrtd:output.obj
 0001:00075870       ?state_case_normal_common@?$output_processor@DV?$string_output_adapter@D@__crt_stdio_output@@V?$positional_parameter_base@DV?$string_output_adapter@D@__crt_stdio_output@@@2@@__crt_stdio_output@@AEAA_NXZ 0000000180076870 f i libucrtd:output.obj
 0001:000758d0       ?state_case_normal_common@?$output_processor@DV?$string_output_adapter@D@__crt_stdio_output@@V?$standard_base@DV?$string_output_adapter@D@__crt_stdio_output@@@2@@__crt_stdio_output@@AEAA_NXZ 00000001800768d0 f i libucrtd:output.obj
 0001:00075930       ?state_case_normal_common@?$output_processor@_WV?$stream_output_adapter@_W@__crt_stdio_output@@V?$format_validation_base@_WV?$stream_output_adapter@_W@__crt_stdio_output@@@2@@__crt_stdio_output@@AEAA_NXZ 0000000180076930 f i libucrtd:output.obj
 0001:00075990       ?state_case_normal_common@?$output_processor@_WV?$stream_output_adapter@_W@__crt_stdio_output@@V?$positional_parameter_base@_WV?$stream_output_adapter@_W@__crt_stdio_output@@@2@@__crt_stdio_output@@AEAA_NXZ 0000000180076990 f i libucrtd:output.obj
 0001:000759f0       ?state_case_normal_common@?$output_processor@_WV?$stream_output_adapter@_W@__crt_stdio_output@@V?$standard_base@_WV?$stream_output_adapter@_W@__crt_stdio_output@@@2@@__crt_stdio_output@@AEAA_NXZ 00000001800769f0 f i libucrtd:output.obj
 0001:00075a50       ?state_case_normal_common@?$output_processor@_WV?$string_output_adapter@_W@__crt_stdio_output@@V?$format_validation_base@_WV?$string_output_adapter@_W@__crt_stdio_output@@@2@@__crt_stdio_output@@AEAA_NXZ 0000000180076a50 f i libucrtd:output.obj
 0001:00075ab0       ?state_case_normal_common@?$output_processor@_WV?$string_output_adapter@_W@__crt_stdio_output@@V?$positional_parameter_base@_WV?$string_output_adapter@_W@__crt_stdio_output@@@2@@__crt_stdio_output@@AEAA_NXZ 0000000180076ab0 f i libucrtd:output.obj
 0001:00075b10       ?state_case_normal_common@?$output_processor@_WV?$string_output_adapter@_W@__crt_stdio_output@@V?$standard_base@_WV?$string_output_adapter@_W@__crt_stdio_output@@@2@@__crt_stdio_output@@AEAA_NXZ 0000000180076b10 f i libucrtd:output.obj
 0001:00075b70       ?state_case_normal_tchar@?$output_processor@DV?$stream_output_adapter@D@__crt_stdio_output@@V?$format_validation_base@DV?$stream_output_adapter@D@__crt_stdio_output@@@2@@__crt_stdio_output@@AEAA_ND@Z 0000000180076b70 f i libucrtd:output.obj
 0001:00075d00       ?state_case_normal_tchar@?$output_processor@DV?$stream_output_adapter@D@__crt_stdio_output@@V?$positional_parameter_base@DV?$stream_output_adapter@D@__crt_stdio_output@@@2@@__crt_stdio_output@@AEAA_ND@Z 0000000180076d00 f i libucrtd:output.obj
 0001:00075e90       ?state_case_normal_tchar@?$output_processor@DV?$stream_output_adapter@D@__crt_stdio_output@@V?$standard_base@DV?$stream_output_adapter@D@__crt_stdio_output@@@2@@__crt_stdio_output@@AEAA_ND@Z 0000000180076e90 f i libucrtd:output.obj
 0001:00076020       ?state_case_normal_tchar@?$output_processor@DV?$string_output_adapter@D@__crt_stdio_output@@V?$format_validation_base@DV?$string_output_adapter@D@__crt_stdio_output@@@2@@__crt_stdio_output@@AEAA_ND@Z 0000000180077020 f i libucrtd:output.obj
 0001:000761b0       ?state_case_normal_tchar@?$output_processor@DV?$string_output_adapter@D@__crt_stdio_output@@V?$positional_parameter_base@DV?$string_output_adapter@D@__crt_stdio_output@@@2@@__crt_stdio_output@@AEAA_ND@Z 00000001800771b0 f i libucrtd:output.obj
 0001:00076340       ?state_case_normal_tchar@?$output_processor@DV?$string_output_adapter@D@__crt_stdio_output@@V?$standard_base@DV?$string_output_adapter@D@__crt_stdio_output@@@2@@__crt_stdio_output@@AEAA_ND@Z 0000000180077340 f i libucrtd:output.obj
 0001:000764d0       ?state_case_normal_tchar@?$output_processor@_WV?$stream_output_adapter@_W@__crt_stdio_output@@V?$format_validation_base@_WV?$stream_output_adapter@_W@__crt_stdio_output@@@2@@__crt_stdio_output@@AEAA_N_W@Z 00000001800774d0 f i libucrtd:output.obj
 0001:000764f0       ?state_case_normal_tchar@?$output_processor@_WV?$stream_output_adapter@_W@__crt_stdio_output@@V?$positional_parameter_base@_WV?$stream_output_adapter@_W@__crt_stdio_output@@@2@@__crt_stdio_output@@AEAA_N_W@Z 00000001800774f0 f i libucrtd:output.obj
 0001:00076510       ?state_case_normal_tchar@?$output_processor@_WV?$stream_output_adapter@_W@__crt_stdio_output@@V?$standard_base@_WV?$stream_output_adapter@_W@__crt_stdio_output@@@2@@__crt_stdio_output@@AEAA_N_W@Z 0000000180077510 f i libucrtd:output.obj
 0001:00076530       ?state_case_normal_tchar@?$output_processor@_WV?$string_output_adapter@_W@__crt_stdio_output@@V?$format_validation_base@_WV?$string_output_adapter@_W@__crt_stdio_output@@@2@@__crt_stdio_output@@AEAA_N_W@Z 0000000180077530 f i libucrtd:output.obj
 0001:00076550       ?state_case_normal_tchar@?$output_processor@_WV?$string_output_adapter@_W@__crt_stdio_output@@V?$positional_parameter_base@_WV?$string_output_adapter@_W@__crt_stdio_output@@@2@@__crt_stdio_output@@AEAA_N_W@Z 0000000180077550 f i libucrtd:output.obj
 0001:00076570       ?state_case_normal_tchar@?$output_processor@_WV?$string_output_adapter@_W@__crt_stdio_output@@V?$standard_base@_WV?$string_output_adapter@_W@__crt_stdio_output@@@2@@__crt_stdio_output@@AEAA_N_W@Z 0000000180077570 f i libucrtd:output.obj
 0001:00076590       ?state_case_percent@?$output_processor@DV?$stream_output_adapter@D@__crt_stdio_output@@V?$format_validation_base@DV?$stream_output_adapter@D@__crt_stdio_output@@@2@@__crt_stdio_output@@AEAA_NXZ 0000000180077590 f i libucrtd:output.obj
 0001:000765e0       ?state_case_percent@?$output_processor@DV?$stream_output_adapter@D@__crt_stdio_output@@V?$positional_parameter_base@DV?$stream_output_adapter@D@__crt_stdio_output@@@2@@__crt_stdio_output@@AEAA_NXZ 00000001800775e0 f i libucrtd:output.obj
 0001:00076630       ?state_case_percent@?$output_processor@DV?$stream_output_adapter@D@__crt_stdio_output@@V?$standard_base@DV?$stream_output_adapter@D@__crt_stdio_output@@@2@@__crt_stdio_output@@AEAA_NXZ 0000000180077630 f i libucrtd:output.obj
 0001:00076680       ?state_case_percent@?$output_processor@DV?$string_output_adapter@D@__crt_stdio_output@@V?$format_validation_base@DV?$string_output_adapter@D@__crt_stdio_output@@@2@@__crt_stdio_output@@AEAA_NXZ 0000000180077680 f i libucrtd:output.obj
 0001:000766d0       ?state_case_percent@?$output_processor@DV?$string_output_adapter@D@__crt_stdio_output@@V?$positional_parameter_base@DV?$string_output_adapter@D@__crt_stdio_output@@@2@@__crt_stdio_output@@AEAA_NXZ 00000001800776d0 f i libucrtd:output.obj
 0001:00076720       ?state_case_percent@?$output_processor@DV?$string_output_adapter@D@__crt_stdio_output@@V?$standard_base@DV?$string_output_adapter@D@__crt_stdio_output@@@2@@__crt_stdio_output@@AEAA_NXZ 0000000180077720 f i libucrtd:output.obj
 0001:00076770       ?state_case_percent@?$output_processor@_WV?$stream_output_adapter@_W@__crt_stdio_output@@V?$format_validation_base@_WV?$stream_output_adapter@_W@__crt_stdio_output@@@2@@__crt_stdio_output@@AEAA_NXZ 0000000180077770 f i libucrtd:output.obj
 0001:000767c0       ?state_case_percent@?$output_processor@_WV?$stream_output_adapter@_W@__crt_stdio_output@@V?$positional_parameter_base@_WV?$stream_output_adapter@_W@__crt_stdio_output@@@2@@__crt_stdio_output@@AEAA_NXZ 00000001800777c0 f i libucrtd:output.obj
 0001:00076810       ?state_case_percent@?$output_processor@_WV?$stream_output_adapter@_W@__crt_stdio_output@@V?$standard_base@_WV?$stream_output_adapter@_W@__crt_stdio_output@@@2@@__crt_stdio_output@@AEAA_NXZ 0000000180077810 f i libucrtd:output.obj
 0001:00076860       ?state_case_percent@?$output_processor@_WV?$string_output_adapter@_W@__crt_stdio_output@@V?$format_validation_base@_WV?$string_output_adapter@_W@__crt_stdio_output@@@2@@__crt_stdio_output@@AEAA_NXZ 0000000180077860 f i libucrtd:output.obj
 0001:000768b0       ?state_case_percent@?$output_processor@_WV?$string_output_adapter@_W@__crt_stdio_output@@V?$positional_parameter_base@_WV?$string_output_adapter@_W@__crt_stdio_output@@@2@@__crt_stdio_output@@AEAA_NXZ 00000001800778b0 f i libucrtd:output.obj
 0001:00076900       ?state_case_percent@?$output_processor@_WV?$string_output_adapter@_W@__crt_stdio_output@@V?$standard_base@_WV?$string_output_adapter@_W@__crt_stdio_output@@@2@@__crt_stdio_output@@AEAA_NXZ 0000000180077900 f i libucrtd:output.obj
 0001:00076950       ?state_case_precision@?$output_processor@DV?$stream_output_adapter@D@__crt_stdio_output@@V?$format_validation_base@DV?$stream_output_adapter@D@__crt_stdio_output@@@2@@__crt_stdio_output@@AEAA_NXZ 0000000180077950 f i libucrtd:output.obj
 0001:000769d0       ?state_case_precision@?$output_processor@DV?$stream_output_adapter@D@__crt_stdio_output@@V?$positional_parameter_base@DV?$stream_output_adapter@D@__crt_stdio_output@@@2@@__crt_stdio_output@@AEAA_NXZ 00000001800779d0 f i libucrtd:output.obj
 0001:00076a50       ?state_case_precision@?$output_processor@DV?$stream_output_adapter@D@__crt_stdio_output@@V?$standard_base@DV?$stream_output_adapter@D@__crt_stdio_output@@@2@@__crt_stdio_output@@AEAA_NXZ 0000000180077a50 f i libucrtd:output.obj
 0001:00076ad0       ?state_case_precision@?$output_processor@DV?$string_output_adapter@D@__crt_stdio_output@@V?$format_validation_base@DV?$string_output_adapter@D@__crt_stdio_output@@@2@@__crt_stdio_output@@AEAA_NXZ 0000000180077ad0 f i libucrtd:output.obj
 0001:00076b50       ?state_case_precision@?$output_processor@DV?$string_output_adapter@D@__crt_stdio_output@@V?$positional_parameter_base@DV?$string_output_adapter@D@__crt_stdio_output@@@2@@__crt_stdio_output@@AEAA_NXZ 0000000180077b50 f i libucrtd:output.obj
 0001:00076bd0       ?state_case_precision@?$output_processor@DV?$string_output_adapter@D@__crt_stdio_output@@V?$standard_base@DV?$string_output_adapter@D@__crt_stdio_output@@@2@@__crt_stdio_output@@AEAA_NXZ 0000000180077bd0 f i libucrtd:output.obj
 0001:00076c50       ?state_case_precision@?$output_processor@_WV?$stream_output_adapter@_W@__crt_stdio_output@@V?$format_validation_base@_WV?$stream_output_adapter@_W@__crt_stdio_output@@@2@@__crt_stdio_output@@AEAA_NXZ 0000000180077c50 f i libucrtd:output.obj
 0001:00076cd0       ?state_case_precision@?$output_processor@_WV?$stream_output_adapter@_W@__crt_stdio_output@@V?$positional_parameter_base@_WV?$stream_output_adapter@_W@__crt_stdio_output@@@2@@__crt_stdio_output@@AEAA_NXZ 0000000180077cd0 f i libucrtd:output.obj
 0001:00076d50       ?state_case_precision@?$output_processor@_WV?$stream_output_adapter@_W@__crt_stdio_output@@V?$standard_base@_WV?$stream_output_adapter@_W@__crt_stdio_output@@@2@@__crt_stdio_output@@AEAA_NXZ 0000000180077d50 f i libucrtd:output.obj
 0001:00076dd0       ?state_case_precision@?$output_processor@_WV?$string_output_adapter@_W@__crt_stdio_output@@V?$format_validation_base@_WV?$string_output_adapter@_W@__crt_stdio_output@@@2@@__crt_stdio_output@@AEAA_NXZ 0000000180077dd0 f i libucrtd:output.obj
 0001:00076e50       ?state_case_precision@?$output_processor@_WV?$string_output_adapter@_W@__crt_stdio_output@@V?$positional_parameter_base@_WV?$string_output_adapter@_W@__crt_stdio_output@@@2@@__crt_stdio_output@@AEAA_NXZ 0000000180077e50 f i libucrtd:output.obj
 0001:00076ed0       ?state_case_precision@?$output_processor@_WV?$string_output_adapter@_W@__crt_stdio_output@@V?$standard_base@_WV?$string_output_adapter@_W@__crt_stdio_output@@@2@@__crt_stdio_output@@AEAA_NXZ 0000000180077ed0 f i libucrtd:output.obj
 0001:00076f50       ?state_case_size@?$output_processor@DV?$stream_output_adapter@D@__crt_stdio_output@@V?$format_validation_base@DV?$stream_output_adapter@D@__crt_stdio_output@@@2@@__crt_stdio_output@@AEAA_NXZ 0000000180077f50 f i libucrtd:output.obj
 0001:00077410       ?state_case_size@?$output_processor@DV?$stream_output_adapter@D@__crt_stdio_output@@V?$positional_parameter_base@DV?$stream_output_adapter@D@__crt_stdio_output@@@2@@__crt_stdio_output@@AEAA_NXZ 0000000180078410 f i libucrtd:output.obj
 0001:000778d0       ?state_case_size@?$output_processor@DV?$stream_output_adapter@D@__crt_stdio_output@@V?$standard_base@DV?$stream_output_adapter@D@__crt_stdio_output@@@2@@__crt_stdio_output@@AEAA_NXZ 00000001800788d0 f i libucrtd:output.obj
 0001:00077d90       ?state_case_size@?$output_processor@DV?$string_output_adapter@D@__crt_stdio_output@@V?$format_validation_base@DV?$string_output_adapter@D@__crt_stdio_output@@@2@@__crt_stdio_output@@AEAA_NXZ 0000000180078d90 f i libucrtd:output.obj
 0001:00078250       ?state_case_size@?$output_processor@DV?$string_output_adapter@D@__crt_stdio_output@@V?$positional_parameter_base@DV?$string_output_adapter@D@__crt_stdio_output@@@2@@__crt_stdio_output@@AEAA_NXZ 0000000180079250 f i libucrtd:output.obj
 0001:00078710       ?state_case_size@?$output_processor@DV?$string_output_adapter@D@__crt_stdio_output@@V?$standard_base@DV?$string_output_adapter@D@__crt_stdio_output@@@2@@__crt_stdio_output@@AEAA_NXZ 0000000180079710 f i libucrtd:output.obj
 0001:00078bd0       ?state_case_size@?$output_processor@_WV?$stream_output_adapter@_W@__crt_stdio_output@@V?$format_validation_base@_WV?$stream_output_adapter@_W@__crt_stdio_output@@@2@@__crt_stdio_output@@AEAA_NXZ 0000000180079bd0 f i libucrtd:output.obj
 0001:00079090       ?state_case_size@?$output_processor@_WV?$stream_output_adapter@_W@__crt_stdio_output@@V?$positional_parameter_base@_WV?$stream_output_adapter@_W@__crt_stdio_output@@@2@@__crt_stdio_output@@AEAA_NXZ 000000018007a090 f i libucrtd:output.obj
 0001:00079550       ?state_case_size@?$output_processor@_WV?$stream_output_adapter@_W@__crt_stdio_output@@V?$standard_base@_WV?$stream_output_adapter@_W@__crt_stdio_output@@@2@@__crt_stdio_output@@AEAA_NXZ 000000018007a550 f i libucrtd:output.obj
 0001:00079a10       ?state_case_size@?$output_processor@_WV?$string_output_adapter@_W@__crt_stdio_output@@V?$format_validation_base@_WV?$string_output_adapter@_W@__crt_stdio_output@@@2@@__crt_stdio_output@@AEAA_NXZ 000000018007aa10 f i libucrtd:output.obj
 0001:00079ed0       ?state_case_size@?$output_processor@_WV?$string_output_adapter@_W@__crt_stdio_output@@V?$positional_parameter_base@_WV?$string_output_adapter@_W@__crt_stdio_output@@@2@@__crt_stdio_output@@AEAA_NXZ 000000018007aed0 f i libucrtd:output.obj
 0001:0007a390       ?state_case_size@?$output_processor@_WV?$string_output_adapter@_W@__crt_stdio_output@@V?$standard_base@_WV?$string_output_adapter@_W@__crt_stdio_output@@@2@@__crt_stdio_output@@AEAA_NXZ 000000018007b390 f i libucrtd:output.obj
 0001:0007a850       ?state_case_type@?$output_processor@DV?$stream_output_adapter@D@__crt_stdio_output@@V?$format_validation_base@DV?$stream_output_adapter@D@__crt_stdio_output@@@2@@__crt_stdio_output@@AEAA_NXZ 000000018007b850 f i libucrtd:output.obj
 0001:0007ad10       ?state_case_type@?$output_processor@DV?$stream_output_adapter@D@__crt_stdio_output@@V?$positional_parameter_base@DV?$stream_output_adapter@D@__crt_stdio_output@@@2@@__crt_stdio_output@@AEAA_NXZ 000000018007bd10 f i libucrtd:output.obj
 0001:0007b1d0       ?state_case_type@?$output_processor@DV?$stream_output_adapter@D@__crt_stdio_output@@V?$standard_base@DV?$stream_output_adapter@D@__crt_stdio_output@@@2@@__crt_stdio_output@@AEAA_NXZ 000000018007c1d0 f i libucrtd:output.obj
 0001:0007b690       ?state_case_type@?$output_processor@DV?$string_output_adapter@D@__crt_stdio_output@@V?$format_validation_base@DV?$string_output_adapter@D@__crt_stdio_output@@@2@@__crt_stdio_output@@AEAA_NXZ 000000018007c690 f i libucrtd:output.obj
 0001:0007bb50       ?state_case_type@?$output_processor@DV?$string_output_adapter@D@__crt_stdio_output@@V?$positional_parameter_base@DV?$string_output_adapter@D@__crt_stdio_output@@@2@@__crt_stdio_output@@AEAA_NXZ 000000018007cb50 f i libucrtd:output.obj
 0001:0007c010       ?state_case_type@?$output_processor@DV?$string_output_adapter@D@__crt_stdio_output@@V?$standard_base@DV?$string_output_adapter@D@__crt_stdio_output@@@2@@__crt_stdio_output@@AEAA_NXZ 000000018007d010 f i libucrtd:output.obj
 0001:0007c4d0       ?state_case_type@?$output_processor@_WV?$stream_output_adapter@_W@__crt_stdio_output@@V?$format_validation_base@_WV?$stream_output_adapter@_W@__crt_stdio_output@@@2@@__crt_stdio_output@@AEAA_NXZ 000000018007d4d0 f i libucrtd:output.obj
 0001:0007ca60       ?state_case_type@?$output_processor@_WV?$stream_output_adapter@_W@__crt_stdio_output@@V?$positional_parameter_base@_WV?$stream_output_adapter@_W@__crt_stdio_output@@@2@@__crt_stdio_output@@AEAA_NXZ 000000018007da60 f i libucrtd:output.obj
 0001:0007cff0       ?state_case_type@?$output_processor@_WV?$stream_output_adapter@_W@__crt_stdio_output@@V?$standard_base@_WV?$stream_output_adapter@_W@__crt_stdio_output@@@2@@__crt_stdio_output@@AEAA_NXZ 000000018007dff0 f i libucrtd:output.obj
 0001:0007d580       ?state_case_type@?$output_processor@_WV?$string_output_adapter@_W@__crt_stdio_output@@V?$format_validation_base@_WV?$string_output_adapter@_W@__crt_stdio_output@@@2@@__crt_stdio_output@@AEAA_NXZ 000000018007e580 f i libucrtd:output.obj
 0001:0007db10       ?state_case_type@?$output_processor@_WV?$string_output_adapter@_W@__crt_stdio_output@@V?$positional_parameter_base@_WV?$string_output_adapter@_W@__crt_stdio_output@@@2@@__crt_stdio_output@@AEAA_NXZ 000000018007eb10 f i libucrtd:output.obj
 0001:0007e0a0       ?state_case_type@?$output_processor@_WV?$string_output_adapter@_W@__crt_stdio_output@@V?$standard_base@_WV?$string_output_adapter@_W@__crt_stdio_output@@@2@@__crt_stdio_output@@AEAA_NXZ 000000018007f0a0 f i libucrtd:output.obj
 0001:0007e630       ?state_case_width@?$output_processor@DV?$stream_output_adapter@D@__crt_stdio_output@@V?$format_validation_base@DV?$stream_output_adapter@D@__crt_stdio_output@@@2@@__crt_stdio_output@@AEAA_NXZ 000000018007f630 f i libucrtd:output.obj
 0001:0007e6c0       ?state_case_width@?$output_processor@DV?$stream_output_adapter@D@__crt_stdio_output@@V?$positional_parameter_base@DV?$stream_output_adapter@D@__crt_stdio_output@@@2@@__crt_stdio_output@@AEAA_NXZ 000000018007f6c0 f i libucrtd:output.obj
 0001:0007e750       ?state_case_width@?$output_processor@DV?$stream_output_adapter@D@__crt_stdio_output@@V?$standard_base@DV?$stream_output_adapter@D@__crt_stdio_output@@@2@@__crt_stdio_output@@AEAA_NXZ 000000018007f750 f i libucrtd:output.obj
 0001:0007e7e0       ?state_case_width@?$output_processor@DV?$string_output_adapter@D@__crt_stdio_output@@V?$format_validation_base@DV?$string_output_adapter@D@__crt_stdio_output@@@2@@__crt_stdio_output@@AEAA_NXZ 000000018007f7e0 f i libucrtd:output.obj
 0001:0007e870       ?state_case_width@?$output_processor@DV?$string_output_adapter@D@__crt_stdio_output@@V?$positional_parameter_base@DV?$string_output_adapter@D@__crt_stdio_output@@@2@@__crt_stdio_output@@AEAA_NXZ 000000018007f870 f i libucrtd:output.obj
 0001:0007e900       ?state_case_width@?$output_processor@DV?$string_output_adapter@D@__crt_stdio_output@@V?$standard_base@DV?$string_output_adapter@D@__crt_stdio_output@@@2@@__crt_stdio_output@@AEAA_NXZ 000000018007f900 f i libucrtd:output.obj
 0001:0007e990       ?state_case_width@?$output_processor@_WV?$stream_output_adapter@_W@__crt_stdio_output@@V?$format_validation_base@_WV?$stream_output_adapter@_W@__crt_stdio_output@@@2@@__crt_stdio_output@@AEAA_NXZ 000000018007f990 f i libucrtd:output.obj
 0001:0007ea20       ?state_case_width@?$output_processor@_WV?$stream_output_adapter@_W@__crt_stdio_output@@V?$positional_parameter_base@_WV?$stream_output_adapter@_W@__crt_stdio_output@@@2@@__crt_stdio_output@@AEAA_NXZ 000000018007fa20 f i libucrtd:output.obj
 0001:0007eab0       ?state_case_width@?$output_processor@_WV?$stream_output_adapter@_W@__crt_stdio_output@@V?$standard_base@_WV?$stream_output_adapter@_W@__crt_stdio_output@@@2@@__crt_stdio_output@@AEAA_NXZ 000000018007fab0 f i libucrtd:output.obj
 0001:0007eb40       ?state_case_width@?$output_processor@_WV?$string_output_adapter@_W@__crt_stdio_output@@V?$format_validation_base@_WV?$string_output_adapter@_W@__crt_stdio_output@@@2@@__crt_stdio_output@@AEAA_NXZ 000000018007fb40 f i libucrtd:output.obj
 0001:0007ebd0       ?state_case_width@?$output_processor@_WV?$string_output_adapter@_W@__crt_stdio_output@@V?$positional_parameter_base@_WV?$string_output_adapter@_W@__crt_stdio_output@@@2@@__crt_stdio_output@@AEAA_NXZ 000000018007fbd0 f i libucrtd:output.obj
 0001:0007ec60       ?state_case_width@?$output_processor@_WV?$string_output_adapter@_W@__crt_stdio_output@@V?$standard_base@_WV?$string_output_adapter@_W@__crt_stdio_output@@@2@@__crt_stdio_output@@AEAA_NXZ 000000018007fc60 f i libucrtd:output.obj
 0001:0007ecf0       ?state_count@?$format_validation_base@DV?$stream_output_adapter@D@__crt_stdio_output@@@__crt_stdio_output@@KAIXZ 000000018007fcf0 f i libucrtd:output.obj
 0001:0007ed00       ?state_count@?$format_validation_base@DV?$string_output_adapter@D@__crt_stdio_output@@@__crt_stdio_output@@KAIXZ 000000018007fd00 f i libucrtd:output.obj
 0001:0007ed10       ?state_count@?$format_validation_base@_WV?$stream_output_adapter@_W@__crt_stdio_output@@@__crt_stdio_output@@KAIXZ 000000018007fd10 f i libucrtd:output.obj
 0001:0007ed20       ?state_count@?$format_validation_base@_WV?$string_output_adapter@_W@__crt_stdio_output@@@__crt_stdio_output@@KAIXZ 000000018007fd20 f i libucrtd:output.obj
 0001:0007ed30       ?state_count@?$standard_base@DV?$stream_output_adapter@D@__crt_stdio_output@@@__crt_stdio_output@@KAIXZ 000000018007fd30 f i libucrtd:output.obj
 0001:0007ed40       ?state_count@?$standard_base@DV?$string_output_adapter@D@__crt_stdio_output@@@__crt_stdio_output@@KAIXZ 000000018007fd40 f i libucrtd:output.obj
 0001:0007ed50       ?state_count@?$standard_base@_WV?$stream_output_adapter@_W@__crt_stdio_output@@@__crt_stdio_output@@KAIXZ 000000018007fd50 f i libucrtd:output.obj
 0001:0007ed60       ?state_count@?$standard_base@_WV?$string_output_adapter@_W@__crt_stdio_output@@@__crt_stdio_output@@KAIXZ 000000018007fd60 f i libucrtd:output.obj
 0001:0007ed70       ?state_transition_table@?$format_validation_base@DV?$stream_output_adapter@D@__crt_stdio_output@@@__crt_stdio_output@@KAAEBV?$spectre_mitigated_lookup_table@Ustate_transition_pair@__crt_stdio_output@@$0IA@@2@XZ 000000018007fd70 f i libucrtd:output.obj
 0001:0007ed80       ?state_transition_table@?$format_validation_base@DV?$string_output_adapter@D@__crt_stdio_output@@@__crt_stdio_output@@KAAEBV?$spectre_mitigated_lookup_table@Ustate_transition_pair@__crt_stdio_output@@$0IA@@2@XZ 000000018007fd80 f i libucrtd:output.obj
 0001:0007ed90       ?state_transition_table@?$format_validation_base@_WV?$stream_output_adapter@_W@__crt_stdio_output@@@__crt_stdio_output@@KAAEBV?$spectre_mitigated_lookup_table@Ustate_transition_pair@__crt_stdio_output@@$0IA@@2@XZ 000000018007fd90 f i libucrtd:output.obj
 0001:0007eda0       ?state_transition_table@?$format_validation_base@_WV?$string_output_adapter@_W@__crt_stdio_output@@@__crt_stdio_output@@KAAEBV?$spectre_mitigated_lookup_table@Ustate_transition_pair@__crt_stdio_output@@$0IA@@2@XZ 000000018007fda0 f i libucrtd:output.obj
 0001:0007edb0       ?state_transition_table@?$standard_base@DV?$stream_output_adapter@D@__crt_stdio_output@@@__crt_stdio_output@@KAAEBV?$spectre_mitigated_lookup_table@Ustate_transition_pair@__crt_stdio_output@@$0IA@@2@XZ 000000018007fdb0 f i libucrtd:output.obj
 0001:0007edc0       ?state_transition_table@?$standard_base@DV?$string_output_adapter@D@__crt_stdio_output@@@__crt_stdio_output@@KAAEBV?$spectre_mitigated_lookup_table@Ustate_transition_pair@__crt_stdio_output@@$0IA@@2@XZ 000000018007fdc0 f i libucrtd:output.obj
 0001:0007edd0       ?state_transition_table@?$standard_base@_WV?$stream_output_adapter@_W@__crt_stdio_output@@@__crt_stdio_output@@KAAEBV?$spectre_mitigated_lookup_table@Ustate_transition_pair@__crt_stdio_output@@$0IA@@2@XZ 000000018007fdd0 f i libucrtd:output.obj
 0001:0007ede0       ?state_transition_table@?$standard_base@_WV?$string_output_adapter@_W@__crt_stdio_output@@@__crt_stdio_output@@KAAEBV?$spectre_mitigated_lookup_table@Ustate_transition_pair@__crt_stdio_output@@$0IA@@2@XZ 000000018007fde0 f i libucrtd:output.obj
 0001:0007edf0       ?tchar_string@?$common_data@D@__crt_stdio_output@@IEAAAEAPEADD@Z 000000018007fdf0 f i libucrtd:output.obj
 0001:0007ee10       ?tchar_string@?$common_data@D@__crt_stdio_output@@IEAAAEAPEADXZ 000000018007fe10 f i libucrtd:output.obj
 0001:0007ee30       ?tchar_string@?$common_data@_W@__crt_stdio_output@@IEAAAEAPEA_WXZ 000000018007fe30 f i libucrtd:output.obj
 0001:0007ee50       ?tchar_string@?$common_data@_W@__crt_stdio_output@@IEAAAEAPEA_W_W@Z 000000018007fe50 f i libucrtd:output.obj
 0001:0007ee70       ?to_integer_size@__crt_stdio_output@@YA_KW4length_modifier@1@@Z 000000018007fe70 f i libucrtd:output.obj
 0001:0007ef20       ?type_case_X@?$output_processor@DV?$stream_output_adapter@D@__crt_stdio_output@@V?$format_validation_base@DV?$stream_output_adapter@D@__crt_stdio_output@@@2@@__crt_stdio_output@@AEAA_NXZ 000000018007ff20 f i libucrtd:output.obj
 0001:0007ef40       ?type_case_X@?$output_processor@DV?$stream_output_adapter@D@__crt_stdio_output@@V?$positional_parameter_base@DV?$stream_output_adapter@D@__crt_stdio_output@@@2@@__crt_stdio_output@@AEAA_NXZ 000000018007ff40 f i libucrtd:output.obj
 0001:0007ef60       ?type_case_X@?$output_processor@DV?$stream_output_adapter@D@__crt_stdio_output@@V?$standard_base@DV?$stream_output_adapter@D@__crt_stdio_output@@@2@@__crt_stdio_output@@AEAA_NXZ 000000018007ff60 f i libucrtd:output.obj
 0001:0007ef80       ?type_case_X@?$output_processor@DV?$string_output_adapter@D@__crt_stdio_output@@V?$format_validation_base@DV?$string_output_adapter@D@__crt_stdio_output@@@2@@__crt_stdio_output@@AEAA_NXZ 000000018007ff80 f i libucrtd:output.obj
 0001:0007efa0       ?type_case_X@?$output_processor@DV?$string_output_adapter@D@__crt_stdio_output@@V?$positional_parameter_base@DV?$string_output_adapter@D@__crt_stdio_output@@@2@@__crt_stdio_output@@AEAA_NXZ 000000018007ffa0 f i libucrtd:output.obj
 0001:0007efc0       ?type_case_X@?$output_processor@DV?$string_output_adapter@D@__crt_stdio_output@@V?$standard_base@DV?$string_output_adapter@D@__crt_stdio_output@@@2@@__crt_stdio_output@@AEAA_NXZ 000000018007ffc0 f i libucrtd:output.obj
 0001:0007efe0       ?type_case_X@?$output_processor@_WV?$stream_output_adapter@_W@__crt_stdio_output@@V?$format_validation_base@_WV?$stream_output_adapter@_W@__crt_stdio_output@@@2@@__crt_stdio_output@@AEAA_NXZ 000000018007ffe0 f i libucrtd:output.obj
 0001:0007f000       ?type_case_X@?$output_processor@_WV?$stream_output_adapter@_W@__crt_stdio_output@@V?$positional_parameter_base@_WV?$stream_output_adapter@_W@__crt_stdio_output@@@2@@__crt_stdio_output@@AEAA_NXZ 0000000180080000 f i libucrtd:output.obj
 0001:0007f020       ?type_case_X@?$output_processor@_WV?$stream_output_adapter@_W@__crt_stdio_output@@V?$standard_base@_WV?$stream_output_adapter@_W@__crt_stdio_output@@@2@@__crt_stdio_output@@AEAA_NXZ 0000000180080020 f i libucrtd:output.obj
 0001:0007f040       ?type_case_X@?$output_processor@_WV?$string_output_adapter@_W@__crt_stdio_output@@V?$format_validation_base@_WV?$string_output_adapter@_W@__crt_stdio_output@@@2@@__crt_stdio_output@@AEAA_NXZ 0000000180080040 f i libucrtd:output.obj
 0001:0007f060       ?type_case_X@?$output_processor@_WV?$string_output_adapter@_W@__crt_stdio_output@@V?$positional_parameter_base@_WV?$string_output_adapter@_W@__crt_stdio_output@@@2@@__crt_stdio_output@@AEAA_NXZ 0000000180080060 f i libucrtd:output.obj
 0001:0007f080       ?type_case_X@?$output_processor@_WV?$string_output_adapter@_W@__crt_stdio_output@@V?$standard_base@_WV?$string_output_adapter@_W@__crt_stdio_output@@@2@@__crt_stdio_output@@AEAA_NXZ 0000000180080080 f i libucrtd:output.obj
 0001:0007f0a0       ?type_case_Z@?$output_processor@DV?$stream_output_adapter@D@__crt_stdio_output@@V?$format_validation_base@DV?$stream_output_adapter@D@__crt_stdio_output@@@2@@__crt_stdio_output@@AEAA_NXZ 00000001800800a0 f i libucrtd:output.obj
 0001:0007f1c0       ?type_case_Z@?$output_processor@DV?$stream_output_adapter@D@__crt_stdio_output@@V?$positional_parameter_base@DV?$stream_output_adapter@D@__crt_stdio_output@@@2@@__crt_stdio_output@@AEAA_NXZ 00000001800801c0 f i libucrtd:output.obj
 0001:0007f2e0       ?type_case_Z@?$output_processor@DV?$stream_output_adapter@D@__crt_stdio_output@@V?$standard_base@DV?$stream_output_adapter@D@__crt_stdio_output@@@2@@__crt_stdio_output@@AEAA_NXZ 00000001800802e0 f i libucrtd:output.obj
 0001:0007f400       ?type_case_Z@?$output_processor@DV?$string_output_adapter@D@__crt_stdio_output@@V?$format_validation_base@DV?$string_output_adapter@D@__crt_stdio_output@@@2@@__crt_stdio_output@@AEAA_NXZ 0000000180080400 f i libucrtd:output.obj
 0001:0007f520       ?type_case_Z@?$output_processor@DV?$string_output_adapter@D@__crt_stdio_output@@V?$positional_parameter_base@DV?$string_output_adapter@D@__crt_stdio_output@@@2@@__crt_stdio_output@@AEAA_NXZ 0000000180080520 f i libucrtd:output.obj
 0001:0007f640       ?type_case_Z@?$output_processor@DV?$string_output_adapter@D@__crt_stdio_output@@V?$standard_base@DV?$string_output_adapter@D@__crt_stdio_output@@@2@@__crt_stdio_output@@AEAA_NXZ 0000000180080640 f i libucrtd:output.obj
 0001:0007f760       ?type_case_Z@?$output_processor@_WV?$stream_output_adapter@_W@__crt_stdio_output@@V?$format_validation_base@_WV?$stream_output_adapter@_W@__crt_stdio_output@@@2@@__crt_stdio_output@@AEAA_NXZ 0000000180080760 f i libucrtd:output.obj
 0001:0007f880       ?type_case_Z@?$output_processor@_WV?$stream_output_adapter@_W@__crt_stdio_output@@V?$positional_parameter_base@_WV?$stream_output_adapter@_W@__crt_stdio_output@@@2@@__crt_stdio_output@@AEAA_NXZ 0000000180080880 f i libucrtd:output.obj
 0001:0007f9a0       ?type_case_Z@?$output_processor@_WV?$stream_output_adapter@_W@__crt_stdio_output@@V?$standard_base@_WV?$stream_output_adapter@_W@__crt_stdio_output@@@2@@__crt_stdio_output@@AEAA_NXZ 00000001800809a0 f i libucrtd:output.obj
 0001:0007fac0       ?type_case_Z@?$output_processor@_WV?$string_output_adapter@_W@__crt_stdio_output@@V?$format_validation_base@_WV?$string_output_adapter@_W@__crt_stdio_output@@@2@@__crt_stdio_output@@AEAA_NXZ 0000000180080ac0 f i libucrtd:output.obj
 0001:0007fbe0       ?type_case_Z@?$output_processor@_WV?$string_output_adapter@_W@__crt_stdio_output@@V?$positional_parameter_base@_WV?$string_output_adapter@_W@__crt_stdio_output@@@2@@__crt_stdio_output@@AEAA_NXZ 0000000180080be0 f i libucrtd:output.obj
 0001:0007fd00       ?type_case_Z@?$output_processor@_WV?$string_output_adapter@_W@__crt_stdio_output@@V?$standard_base@_WV?$string_output_adapter@_W@__crt_stdio_output@@@2@@__crt_stdio_output@@AEAA_NXZ 0000000180080d00 f i libucrtd:output.obj
 0001:0007fe20       ?type_case_a@?$output_processor@DV?$stream_output_adapter@D@__crt_stdio_output@@V?$format_validation_base@DV?$stream_output_adapter@D@__crt_stdio_output@@@2@@__crt_stdio_output@@AEAA_NXZ 0000000180080e20 f i libucrtd:output.obj
 0001:00080280       ?type_case_a@?$output_processor@DV?$stream_output_adapter@D@__crt_stdio_output@@V?$positional_parameter_base@DV?$stream_output_adapter@D@__crt_stdio_output@@@2@@__crt_stdio_output@@AEAA_NXZ 0000000180081280 f i libucrtd:output.obj
 0001:000806e0       ?type_case_a@?$output_processor@DV?$stream_output_adapter@D@__crt_stdio_output@@V?$standard_base@DV?$stream_output_adapter@D@__crt_stdio_output@@@2@@__crt_stdio_output@@AEAA_NXZ 00000001800816e0 f i libucrtd:output.obj
 0001:00080b40       ?type_case_a@?$output_processor@DV?$string_output_adapter@D@__crt_stdio_output@@V?$format_validation_base@DV?$string_output_adapter@D@__crt_stdio_output@@@2@@__crt_stdio_output@@AEAA_NXZ 0000000180081b40 f i libucrtd:output.obj
 0001:00080fa0       ?type_case_a@?$output_processor@DV?$string_output_adapter@D@__crt_stdio_output@@V?$positional_parameter_base@DV?$string_output_adapter@D@__crt_stdio_output@@@2@@__crt_stdio_output@@AEAA_NXZ 0000000180081fa0 f i libucrtd:output.obj
 0001:00081400       ?type_case_a@?$output_processor@DV?$string_output_adapter@D@__crt_stdio_output@@V?$standard_base@DV?$string_output_adapter@D@__crt_stdio_output@@@2@@__crt_stdio_output@@AEAA_NXZ 0000000180082400 f i libucrtd:output.obj
 0001:00081860       ?type_case_a@?$output_processor@_WV?$stream_output_adapter@_W@__crt_stdio_output@@V?$format_validation_base@_WV?$stream_output_adapter@_W@__crt_stdio_output@@@2@@__crt_stdio_output@@AEAA_NXZ 0000000180082860 f i libucrtd:output.obj
 0001:00081cd0       ?type_case_a@?$output_processor@_WV?$stream_output_adapter@_W@__crt_stdio_output@@V?$positional_parameter_base@_WV?$stream_output_adapter@_W@__crt_stdio_output@@@2@@__crt_stdio_output@@AEAA_NXZ 0000000180082cd0 f i libucrtd:output.obj
 0001:00082140       ?type_case_a@?$output_processor@_WV?$stream_output_adapter@_W@__crt_stdio_output@@V?$standard_base@_WV?$stream_output_adapter@_W@__crt_stdio_output@@@2@@__crt_stdio_output@@AEAA_NXZ 0000000180083140 f i libucrtd:output.obj
 0001:000825b0       ?type_case_a@?$output_processor@_WV?$string_output_adapter@_W@__crt_stdio_output@@V?$format_validation_base@_WV?$string_output_adapter@_W@__crt_stdio_output@@@2@@__crt_stdio_output@@AEAA_NXZ 00000001800835b0 f i libucrtd:output.obj
 0001:00082a20       ?type_case_a@?$output_processor@_WV?$string_output_adapter@_W@__crt_stdio_output@@V?$positional_parameter_base@_WV?$string_output_adapter@_W@__crt_stdio_output@@@2@@__crt_stdio_output@@AEAA_NXZ 0000000180083a20 f i libucrtd:output.obj
 0001:00082e90       ?type_case_a@?$output_processor@_WV?$string_output_adapter@_W@__crt_stdio_output@@V?$standard_base@_WV?$string_output_adapter@_W@__crt_stdio_output@@@2@@__crt_stdio_output@@AEAA_NXZ 0000000180083e90 f i libucrtd:output.obj
 0001:00083300       ?type_case_c@?$output_processor@DV?$stream_output_adapter@D@__crt_stdio_output@@V?$format_validation_base@DV?$stream_output_adapter@D@__crt_stdio_output@@@2@@__crt_stdio_output@@AEAA_NXZ 0000000180084300 f i libucrtd:output.obj
 0001:00083320       ?type_case_c@?$output_processor@DV?$stream_output_adapter@D@__crt_stdio_output@@V?$positional_parameter_base@DV?$stream_output_adapter@D@__crt_stdio_output@@@2@@__crt_stdio_output@@AEAA_NXZ 0000000180084320 f i libucrtd:output.obj
 0001:00083340       ?type_case_c@?$output_processor@DV?$stream_output_adapter@D@__crt_stdio_output@@V?$standard_base@DV?$stream_output_adapter@D@__crt_stdio_output@@@2@@__crt_stdio_output@@AEAA_NXZ 0000000180084340 f i libucrtd:output.obj
 0001:00083360       ?type_case_c@?$output_processor@DV?$string_output_adapter@D@__crt_stdio_output@@V?$format_validation_base@DV?$string_output_adapter@D@__crt_stdio_output@@@2@@__crt_stdio_output@@AEAA_NXZ 0000000180084360 f i libucrtd:output.obj
 0001:00083380       ?type_case_c@?$output_processor@DV?$string_output_adapter@D@__crt_stdio_output@@V?$positional_parameter_base@DV?$string_output_adapter@D@__crt_stdio_output@@@2@@__crt_stdio_output@@AEAA_NXZ 0000000180084380 f i libucrtd:output.obj
 0001:000833a0       ?type_case_c@?$output_processor@DV?$string_output_adapter@D@__crt_stdio_output@@V?$standard_base@DV?$string_output_adapter@D@__crt_stdio_output@@@2@@__crt_stdio_output@@AEAA_NXZ 00000001800843a0 f i libucrtd:output.obj
 0001:000833c0       ?type_case_c@?$output_processor@_WV?$stream_output_adapter@_W@__crt_stdio_output@@V?$format_validation_base@_WV?$stream_output_adapter@_W@__crt_stdio_output@@@2@@__crt_stdio_output@@AEAA_NXZ 00000001800843c0 f i libucrtd:output.obj
 0001:000833e0       ?type_case_c@?$output_processor@_WV?$stream_output_adapter@_W@__crt_stdio_output@@V?$positional_parameter_base@_WV?$stream_output_adapter@_W@__crt_stdio_output@@@2@@__crt_stdio_output@@AEAA_NXZ 00000001800843e0 f i libucrtd:output.obj
 0001:00083400       ?type_case_c@?$output_processor@_WV?$stream_output_adapter@_W@__crt_stdio_output@@V?$standard_base@_WV?$stream_output_adapter@_W@__crt_stdio_output@@@2@@__crt_stdio_output@@AEAA_NXZ 0000000180084400 f i libucrtd:output.obj
 0001:00083420       ?type_case_c@?$output_processor@_WV?$string_output_adapter@_W@__crt_stdio_output@@V?$format_validation_base@_WV?$string_output_adapter@_W@__crt_stdio_output@@@2@@__crt_stdio_output@@AEAA_NXZ 0000000180084420 f i libucrtd:output.obj
 0001:00083440       ?type_case_c@?$output_processor@_WV?$string_output_adapter@_W@__crt_stdio_output@@V?$positional_parameter_base@_WV?$string_output_adapter@_W@__crt_stdio_output@@@2@@__crt_stdio_output@@AEAA_NXZ 0000000180084440 f i libucrtd:output.obj
 0001:00083460       ?type_case_c@?$output_processor@_WV?$string_output_adapter@_W@__crt_stdio_output@@V?$standard_base@_WV?$string_output_adapter@_W@__crt_stdio_output@@@2@@__crt_stdio_output@@AEAA_NXZ 0000000180084460 f i libucrtd:output.obj
 0001:00083480       ?type_case_c_tchar@?$output_processor@DV?$stream_output_adapter@D@__crt_stdio_output@@V?$format_validation_base@DV?$stream_output_adapter@D@__crt_stdio_output@@@2@@__crt_stdio_output@@AEAA_ND@Z 0000000180084480 f i libucrtd:output.obj
 0001:000835f0       ?type_case_c_tchar@?$output_processor@DV?$stream_output_adapter@D@__crt_stdio_output@@V?$positional_parameter_base@DV?$stream_output_adapter@D@__crt_stdio_output@@@2@@__crt_stdio_output@@AEAA_ND@Z 00000001800845f0 f i libucrtd:output.obj
 0001:00083760       ?type_case_c_tchar@?$output_processor@DV?$stream_output_adapter@D@__crt_stdio_output@@V?$standard_base@DV?$stream_output_adapter@D@__crt_stdio_output@@@2@@__crt_stdio_output@@AEAA_ND@Z 0000000180084760 f i libucrtd:output.obj
 0001:000838d0       ?type_case_c_tchar@?$output_processor@DV?$string_output_adapter@D@__crt_stdio_output@@V?$format_validation_base@DV?$string_output_adapter@D@__crt_stdio_output@@@2@@__crt_stdio_output@@AEAA_ND@Z 00000001800848d0 f i libucrtd:output.obj
 0001:00083a40       ?type_case_c_tchar@?$output_processor@DV?$string_output_adapter@D@__crt_stdio_output@@V?$positional_parameter_base@DV?$string_output_adapter@D@__crt_stdio_output@@@2@@__crt_stdio_output@@AEAA_ND@Z 0000000180084a40 f i libucrtd:output.obj
 0001:00083bb0       ?type_case_c_tchar@?$output_processor@DV?$string_output_adapter@D@__crt_stdio_output@@V?$standard_base@DV?$string_output_adapter@D@__crt_stdio_output@@@2@@__crt_stdio_output@@AEAA_ND@Z 0000000180084bb0 f i libucrtd:output.obj
 0001:00083d20       ?type_case_c_tchar@?$output_processor@_WV?$stream_output_adapter@_W@__crt_stdio_output@@V?$format_validation_base@_WV?$stream_output_adapter@_W@__crt_stdio_output@@@2@@__crt_stdio_output@@AEAA_N_W@Z 0000000180084d20 f i libucrtd:output.obj
 0001:00083e80       ?type_case_c_tchar@?$output_processor@_WV?$stream_output_adapter@_W@__crt_stdio_output@@V?$positional_parameter_base@_WV?$stream_output_adapter@_W@__crt_stdio_output@@@2@@__crt_stdio_output@@AEAA_N_W@Z 0000000180084e80 f i libucrtd:output.obj
 0001:00083fe0       ?type_case_c_tchar@?$output_processor@_WV?$stream_output_adapter@_W@__crt_stdio_output@@V?$standard_base@_WV?$stream_output_adapter@_W@__crt_stdio_output@@@2@@__crt_stdio_output@@AEAA_N_W@Z 0000000180084fe0 f i libucrtd:output.obj
 0001:00084140       ?type_case_c_tchar@?$output_processor@_WV?$string_output_adapter@_W@__crt_stdio_output@@V?$format_validation_base@_WV?$string_output_adapter@_W@__crt_stdio_output@@@2@@__crt_stdio_output@@AEAA_N_W@Z 0000000180085140 f i libucrtd:output.obj
 0001:000842a0       ?type_case_c_tchar@?$output_processor@_WV?$string_output_adapter@_W@__crt_stdio_output@@V?$positional_parameter_base@_WV?$string_output_adapter@_W@__crt_stdio_output@@@2@@__crt_stdio_output@@AEAA_N_W@Z 00000001800852a0 f i libucrtd:output.obj
 0001:00084400       ?type_case_c_tchar@?$output_processor@_WV?$string_output_adapter@_W@__crt_stdio_output@@V?$standard_base@_WV?$string_output_adapter@_W@__crt_stdio_output@@@2@@__crt_stdio_output@@AEAA_N_W@Z 0000000180085400 f i libucrtd:output.obj
 0001:00084560       ?type_case_d@?$output_processor@DV?$stream_output_adapter@D@__crt_stdio_output@@V?$format_validation_base@DV?$stream_output_adapter@D@__crt_stdio_output@@@2@@__crt_stdio_output@@AEAA_NXZ 0000000180085560 f i libucrtd:output.obj
 0001:00084590       ?type_case_d@?$output_processor@DV?$stream_output_adapter@D@__crt_stdio_output@@V?$positional_parameter_base@DV?$stream_output_adapter@D@__crt_stdio_output@@@2@@__crt_stdio_output@@AEAA_NXZ 0000000180085590 f i libucrtd:output.obj
 0001:000845c0       ?type_case_d@?$output_processor@DV?$stream_output_adapter@D@__crt_stdio_output@@V?$standard_base@DV?$stream_output_adapter@D@__crt_stdio_output@@@2@@__crt_stdio_output@@AEAA_NXZ 00000001800855c0 f i libucrtd:output.obj
 0001:000845f0       ?type_case_d@?$output_processor@DV?$string_output_adapter@D@__crt_stdio_output@@V?$format_validation_base@DV?$string_output_adapter@D@__crt_stdio_output@@@2@@__crt_stdio_output@@AEAA_NXZ 00000001800855f0 f i libucrtd:output.obj
 0001:00084620       ?type_case_d@?$output_processor@DV?$string_output_adapter@D@__crt_stdio_output@@V?$positional_parameter_base@DV?$string_output_adapter@D@__crt_stdio_output@@@2@@__crt_stdio_output@@AEAA_NXZ 0000000180085620 f i libucrtd:output.obj
 0001:00084650       ?type_case_d@?$output_processor@DV?$string_output_adapter@D@__crt_stdio_output@@V?$standard_base@DV?$string_output_adapter@D@__crt_stdio_output@@@2@@__crt_stdio_output@@AEAA_NXZ 0000000180085650 f i libucrtd:output.obj
 0001:00084680       ?type_case_d@?$output_processor@_WV?$stream_output_adapter@_W@__crt_stdio_output@@V?$format_validation_base@_WV?$stream_output_adapter@_W@__crt_stdio_output@@@2@@__crt_stdio_output@@AEAA_NXZ 0000000180085680 f i libucrtd:output.obj
 0001:000846b0       ?type_case_d@?$output_processor@_WV?$stream_output_adapter@_W@__crt_stdio_output@@V?$positional_parameter_base@_WV?$stream_output_adapter@_W@__crt_stdio_output@@@2@@__crt_stdio_output@@AEAA_NXZ 00000001800856b0 f i libucrtd:output.obj
 0001:000846e0       ?type_case_d@?$output_processor@_WV?$stream_output_adapter@_W@__crt_stdio_output@@V?$standard_base@_WV?$stream_output_adapter@_W@__crt_stdio_output@@@2@@__crt_stdio_output@@AEAA_NXZ 00000001800856e0 f i libucrtd:output.obj
 0001:00084710       ?type_case_d@?$output_processor@_WV?$string_output_adapter@_W@__crt_stdio_output@@V?$format_validation_base@_WV?$string_output_adapter@_W@__crt_stdio_output@@@2@@__crt_stdio_output@@AEAA_NXZ 0000000180085710 f i libucrtd:output.obj
 0001:00084740       ?type_case_d@?$output_processor@_WV?$string_output_adapter@_W@__crt_stdio_output@@V?$positional_parameter_base@_WV?$string_output_adapter@_W@__crt_stdio_output@@@2@@__crt_stdio_output@@AEAA_NXZ 0000000180085740 f i libucrtd:output.obj
 0001:00084770       ?type_case_d@?$output_processor@_WV?$string_output_adapter@_W@__crt_stdio_output@@V?$standard_base@_WV?$string_output_adapter@_W@__crt_stdio_output@@@2@@__crt_stdio_output@@AEAA_NXZ 0000000180085770 f i libucrtd:output.obj
 0001:000847a0       ?type_case_n@?$output_processor@DV?$stream_output_adapter@D@__crt_stdio_output@@V?$format_validation_base@DV?$stream_output_adapter@D@__crt_stdio_output@@@2@@__crt_stdio_output@@AEAA_NXZ 00000001800857a0 f i libucrtd:output.obj
 0001:00084a30       ?type_case_n@?$output_processor@DV?$stream_output_adapter@D@__crt_stdio_output@@V?$positional_parameter_base@DV?$stream_output_adapter@D@__crt_stdio_output@@@2@@__crt_stdio_output@@AEAA_NXZ 0000000180085a30 f i libucrtd:output.obj
 0001:00084cc0       ?type_case_n@?$output_processor@DV?$stream_output_adapter@D@__crt_stdio_output@@V?$standard_base@DV?$stream_output_adapter@D@__crt_stdio_output@@@2@@__crt_stdio_output@@AEAA_NXZ 0000000180085cc0 f i libucrtd:output.obj
 0001:00084f50       ?type_case_n@?$output_processor@DV?$string_output_adapter@D@__crt_stdio_output@@V?$format_validation_base@DV?$string_output_adapter@D@__crt_stdio_output@@@2@@__crt_stdio_output@@AEAA_NXZ 0000000180085f50 f i libucrtd:output.obj
 0001:000851e0       ?type_case_n@?$output_processor@DV?$string_output_adapter@D@__crt_stdio_output@@V?$positional_parameter_base@DV?$string_output_adapter@D@__crt_stdio_output@@@2@@__crt_stdio_output@@AEAA_NXZ 00000001800861e0 f i libucrtd:output.obj
 0001:00085470       ?type_case_n@?$output_processor@DV?$string_output_adapter@D@__crt_stdio_output@@V?$standard_base@DV?$string_output_adapter@D@__crt_stdio_output@@@2@@__crt_stdio_output@@AEAA_NXZ 0000000180086470 f i libucrtd:output.obj
 0001:00085700       ?type_case_n@?$output_processor@_WV?$stream_output_adapter@_W@__crt_stdio_output@@V?$format_validation_base@_WV?$stream_output_adapter@_W@__crt_stdio_output@@@2@@__crt_stdio_output@@AEAA_NXZ 0000000180086700 f i libucrtd:output.obj
 0001:00085990       ?type_case_n@?$output_processor@_WV?$stream_output_adapter@_W@__crt_stdio_output@@V?$positional_parameter_base@_WV?$stream_output_adapter@_W@__crt_stdio_output@@@2@@__crt_stdio_output@@AEAA_NXZ 0000000180086990 f i libucrtd:output.obj
 0001:00085c20       ?type_case_n@?$output_processor@_WV?$stream_output_adapter@_W@__crt_stdio_output@@V?$standard_base@_WV?$stream_output_adapter@_W@__crt_stdio_output@@@2@@__crt_stdio_output@@AEAA_NXZ 0000000180086c20 f i libucrtd:output.obj
 0001:00085eb0       ?type_case_n@?$output_processor@_WV?$string_output_adapter@_W@__crt_stdio_output@@V?$format_validation_base@_WV?$string_output_adapter@_W@__crt_stdio_output@@@2@@__crt_stdio_output@@AEAA_NXZ 0000000180086eb0 f i libucrtd:output.obj
 0001:00086140       ?type_case_n@?$output_processor@_WV?$string_output_adapter@_W@__crt_stdio_output@@V?$positional_parameter_base@_WV?$string_output_adapter@_W@__crt_stdio_output@@@2@@__crt_stdio_output@@AEAA_NXZ 0000000180087140 f i libucrtd:output.obj
 0001:000863d0       ?type_case_n@?$output_processor@_WV?$string_output_adapter@_W@__crt_stdio_output@@V?$standard_base@_WV?$string_output_adapter@_W@__crt_stdio_output@@@2@@__crt_stdio_output@@AEAA_NXZ 00000001800873d0 f i libucrtd:output.obj
 0001:00086660       ?type_case_o@?$output_processor@DV?$stream_output_adapter@D@__crt_stdio_output@@V?$format_validation_base@DV?$stream_output_adapter@D@__crt_stdio_output@@@2@@__crt_stdio_output@@AEAA_NXZ 0000000180087660 f i libucrtd:output.obj
 0001:000866a0       ?type_case_o@?$output_processor@DV?$stream_output_adapter@D@__crt_stdio_output@@V?$positional_parameter_base@DV?$stream_output_adapter@D@__crt_stdio_output@@@2@@__crt_stdio_output@@AEAA_NXZ 00000001800876a0 f i libucrtd:output.obj
 0001:000866e0       ?type_case_o@?$output_processor@DV?$stream_output_adapter@D@__crt_stdio_output@@V?$standard_base@DV?$stream_output_adapter@D@__crt_stdio_output@@@2@@__crt_stdio_output@@AEAA_NXZ 00000001800876e0 f i libucrtd:output.obj
 0001:00086720       ?type_case_o@?$output_processor@DV?$string_output_adapter@D@__crt_stdio_output@@V?$format_validation_base@DV?$string_output_adapter@D@__crt_stdio_output@@@2@@__crt_stdio_output@@AEAA_NXZ 0000000180087720 f i libucrtd:output.obj
 0001:00086760       ?type_case_o@?$output_processor@DV?$string_output_adapter@D@__crt_stdio_output@@V?$positional_parameter_base@DV?$string_output_adapter@D@__crt_stdio_output@@@2@@__crt_stdio_output@@AEAA_NXZ 0000000180087760 f i libucrtd:output.obj
 0001:000867a0       ?type_case_o@?$output_processor@DV?$string_output_adapter@D@__crt_stdio_output@@V?$standard_base@DV?$string_output_adapter@D@__crt_stdio_output@@@2@@__crt_stdio_output@@AEAA_NXZ 00000001800877a0 f i libucrtd:output.obj
 0001:000867e0       ?type_case_o@?$output_processor@_WV?$stream_output_adapter@_W@__crt_stdio_output@@V?$format_validation_base@_WV?$stream_output_adapter@_W@__crt_stdio_output@@@2@@__crt_stdio_output@@AEAA_NXZ 00000001800877e0 f i libucrtd:output.obj
 0001:00086820       ?type_case_o@?$output_processor@_WV?$stream_output_adapter@_W@__crt_stdio_output@@V?$positional_parameter_base@_WV?$stream_output_adapter@_W@__crt_stdio_output@@@2@@__crt_stdio_output@@AEAA_NXZ 0000000180087820 f i libucrtd:output.obj
 0001:00086860       ?type_case_o@?$output_processor@_WV?$stream_output_adapter@_W@__crt_stdio_output@@V?$standard_base@_WV?$stream_output_adapter@_W@__crt_stdio_output@@@2@@__crt_stdio_output@@AEAA_NXZ 0000000180087860 f i libucrtd:output.obj
 0001:000868a0       ?type_case_o@?$output_processor@_WV?$string_output_adapter@_W@__crt_stdio_output@@V?$format_validation_base@_WV?$string_output_adapter@_W@__crt_stdio_output@@@2@@__crt_stdio_output@@AEAA_NXZ 00000001800878a0 f i libucrtd:output.obj
 0001:000868e0       ?type_case_o@?$output_processor@_WV?$string_output_adapter@_W@__crt_stdio_output@@V?$positional_parameter_base@_WV?$string_output_adapter@_W@__crt_stdio_output@@@2@@__crt_stdio_output@@AEAA_NXZ 00000001800878e0 f i libucrtd:output.obj
 0001:00086920       ?type_case_o@?$output_processor@_WV?$string_output_adapter@_W@__crt_stdio_output@@V?$standard_base@_WV?$string_output_adapter@_W@__crt_stdio_output@@@2@@__crt_stdio_output@@AEAA_NXZ 0000000180087920 f i libucrtd:output.obj
 0001:00086960       ?type_case_p@?$output_processor@DV?$stream_output_adapter@D@__crt_stdio_output@@V?$format_validation_base@DV?$stream_output_adapter@D@__crt_stdio_output@@@2@@__crt_stdio_output@@AEAA_NXZ 0000000180087960 f i libucrtd:output.obj
 0001:000869a0       ?type_case_p@?$output_processor@DV?$stream_output_adapter@D@__crt_stdio_output@@V?$positional_parameter_base@DV?$stream_output_adapter@D@__crt_stdio_output@@@2@@__crt_stdio_output@@AEAA_NXZ 00000001800879a0 f i libucrtd:output.obj
 0001:000869e0       ?type_case_p@?$output_processor@DV?$stream_output_adapter@D@__crt_stdio_output@@V?$standard_base@DV?$stream_output_adapter@D@__crt_stdio_output@@@2@@__crt_stdio_output@@AEAA_NXZ 00000001800879e0 f i libucrtd:output.obj
 0001:00086a20       ?type_case_p@?$output_processor@DV?$string_output_adapter@D@__crt_stdio_output@@V?$format_validation_base@DV?$string_output_adapter@D@__crt_stdio_output@@@2@@__crt_stdio_output@@AEAA_NXZ 0000000180087a20 f i libucrtd:output.obj
 0001:00086a60       ?type_case_p@?$output_processor@DV?$string_output_adapter@D@__crt_stdio_output@@V?$positional_parameter_base@DV?$string_output_adapter@D@__crt_stdio_output@@@2@@__crt_stdio_output@@AEAA_NXZ 0000000180087a60 f i libucrtd:output.obj
 0001:00086aa0       ?type_case_p@?$output_processor@DV?$string_output_adapter@D@__crt_stdio_output@@V?$standard_base@DV?$string_output_adapter@D@__crt_stdio_output@@@2@@__crt_stdio_output@@AEAA_NXZ 0000000180087aa0 f i libucrtd:output.obj
 0001:00086ae0       ?type_case_p@?$output_processor@_WV?$stream_output_adapter@_W@__crt_stdio_output@@V?$format_validation_base@_WV?$stream_output_adapter@_W@__crt_stdio_output@@@2@@__crt_stdio_output@@AEAA_NXZ 0000000180087ae0 f i libucrtd:output.obj
 0001:00086b20       ?type_case_p@?$output_processor@_WV?$stream_output_adapter@_W@__crt_stdio_output@@V?$positional_parameter_base@_WV?$stream_output_adapter@_W@__crt_stdio_output@@@2@@__crt_stdio_output@@AEAA_NXZ 0000000180087b20 f i libucrtd:output.obj
 0001:00086b60       ?type_case_p@?$output_processor@_WV?$stream_output_adapter@_W@__crt_stdio_output@@V?$standard_base@_WV?$stream_output_adapter@_W@__crt_stdio_output@@@2@@__crt_stdio_output@@AEAA_NXZ 0000000180087b60 f i libucrtd:output.obj
 0001:00086ba0       ?type_case_p@?$output_processor@_WV?$string_output_adapter@_W@__crt_stdio_output@@V?$format_validation_base@_WV?$string_output_adapter@_W@__crt_stdio_output@@@2@@__crt_stdio_output@@AEAA_NXZ 0000000180087ba0 f i libucrtd:output.obj
 0001:00086be0       ?type_case_p@?$output_processor@_WV?$string_output_adapter@_W@__crt_stdio_output@@V?$positional_parameter_base@_WV?$string_output_adapter@_W@__crt_stdio_output@@@2@@__crt_stdio_output@@AEAA_NXZ 0000000180087be0 f i libucrtd:output.obj
 0001:00086c20       ?type_case_p@?$output_processor@_WV?$string_output_adapter@_W@__crt_stdio_output@@V?$standard_base@_WV?$string_output_adapter@_W@__crt_stdio_output@@@2@@__crt_stdio_output@@AEAA_NXZ 0000000180087c20 f i libucrtd:output.obj
 0001:00086c60       ?type_case_s@?$output_processor@DV?$stream_output_adapter@D@__crt_stdio_output@@V?$format_validation_base@DV?$stream_output_adapter@D@__crt_stdio_output@@@2@@__crt_stdio_output@@AEAA_NXZ 0000000180087c60 f i libucrtd:output.obj
 0001:00086d80       ?type_case_s@?$output_processor@DV?$stream_output_adapter@D@__crt_stdio_output@@V?$positional_parameter_base@DV?$stream_output_adapter@D@__crt_stdio_output@@@2@@__crt_stdio_output@@AEAA_NXZ 0000000180087d80 f i libucrtd:output.obj
 0001:00086ea0       ?type_case_s@?$output_processor@DV?$stream_output_adapter@D@__crt_stdio_output@@V?$standard_base@DV?$stream_output_adapter@D@__crt_stdio_output@@@2@@__crt_stdio_output@@AEAA_NXZ 0000000180087ea0 f i libucrtd:output.obj
 0001:00086fc0       ?type_case_s@?$output_processor@DV?$string_output_adapter@D@__crt_stdio_output@@V?$format_validation_base@DV?$string_output_adapter@D@__crt_stdio_output@@@2@@__crt_stdio_output@@AEAA_NXZ 0000000180087fc0 f i libucrtd:output.obj
 0001:000870e0       ?type_case_s@?$output_processor@DV?$string_output_adapter@D@__crt_stdio_output@@V?$positional_parameter_base@DV?$string_output_adapter@D@__crt_stdio_output@@@2@@__crt_stdio_output@@AEAA_NXZ 00000001800880e0 f i libucrtd:output.obj
 0001:00087200       ?type_case_s@?$output_processor@DV?$string_output_adapter@D@__crt_stdio_output@@V?$standard_base@DV?$string_output_adapter@D@__crt_stdio_output@@@2@@__crt_stdio_output@@AEAA_NXZ 0000000180088200 f i libucrtd:output.obj
 0001:00087320       ?type_case_s@?$output_processor@_WV?$stream_output_adapter@_W@__crt_stdio_output@@V?$format_validation_base@_WV?$stream_output_adapter@_W@__crt_stdio_output@@@2@@__crt_stdio_output@@AEAA_NXZ 0000000180088320 f i libucrtd:output.obj
 0001:00087440       ?type_case_s@?$output_processor@_WV?$stream_output_adapter@_W@__crt_stdio_output@@V?$positional_parameter_base@_WV?$stream_output_adapter@_W@__crt_stdio_output@@@2@@__crt_stdio_output@@AEAA_NXZ 0000000180088440 f i libucrtd:output.obj
 0001:00087560       ?type_case_s@?$output_processor@_WV?$stream_output_adapter@_W@__crt_stdio_output@@V?$standard_base@_WV?$stream_output_adapter@_W@__crt_stdio_output@@@2@@__crt_stdio_output@@AEAA_NXZ 0000000180088560 f i libucrtd:output.obj
 0001:00087680       ?type_case_s@?$output_processor@_WV?$string_output_adapter@_W@__crt_stdio_output@@V?$format_validation_base@_WV?$string_output_adapter@_W@__crt_stdio_output@@@2@@__crt_stdio_output@@AEAA_NXZ 0000000180088680 f i libucrtd:output.obj
 0001:000877a0       ?type_case_s@?$output_processor@_WV?$string_output_adapter@_W@__crt_stdio_output@@V?$positional_parameter_base@_WV?$string_output_adapter@_W@__crt_stdio_output@@@2@@__crt_stdio_output@@AEAA_NXZ 00000001800887a0 f i libucrtd:output.obj
 0001:000878c0       ?type_case_s@?$output_processor@_WV?$string_output_adapter@_W@__crt_stdio_output@@V?$standard_base@_WV?$string_output_adapter@_W@__crt_stdio_output@@@2@@__crt_stdio_output@@AEAA_NXZ 00000001800888c0 f i libucrtd:output.obj
 0001:000879e0       ?type_case_s_compute_narrow_string_length@?$output_processor@DV?$stream_output_adapter@D@__crt_stdio_output@@V?$format_validation_base@DV?$stream_output_adapter@D@__crt_stdio_output@@@2@@__crt_stdio_output@@AEAAHHD@Z 00000001800889e0 f i libucrtd:output.obj
 0001:00087a10       ?type_case_s_compute_narrow_string_length@?$output_processor@DV?$stream_output_adapter@D@__crt_stdio_output@@V?$positional_parameter_base@DV?$stream_output_adapter@D@__crt_stdio_output@@@2@@__crt_stdio_output@@AEAAHHD@Z 0000000180088a10 f i libucrtd:output.obj
 0001:00087a40       ?type_case_s_compute_narrow_string_length@?$output_processor@DV?$stream_output_adapter@D@__crt_stdio_output@@V?$standard_base@DV?$stream_output_adapter@D@__crt_stdio_output@@@2@@__crt_stdio_output@@AEAAHHD@Z 0000000180088a40 f i libucrtd:output.obj
 0001:00087a70       ?type_case_s_compute_narrow_string_length@?$output_processor@DV?$string_output_adapter@D@__crt_stdio_output@@V?$format_validation_base@DV?$string_output_adapter@D@__crt_stdio_output@@@2@@__crt_stdio_output@@AEAAHHD@Z 0000000180088a70 f i libucrtd:output.obj
 0001:00087aa0       ?type_case_s_compute_narrow_string_length@?$output_processor@DV?$string_output_adapter@D@__crt_stdio_output@@V?$positional_parameter_base@DV?$string_output_adapter@D@__crt_stdio_output@@@2@@__crt_stdio_output@@AEAAHHD@Z 0000000180088aa0 f i libucrtd:output.obj
 0001:00087ad0       ?type_case_s_compute_narrow_string_length@?$output_processor@DV?$string_output_adapter@D@__crt_stdio_output@@V?$standard_base@DV?$string_output_adapter@D@__crt_stdio_output@@@2@@__crt_stdio_output@@AEAAHHD@Z 0000000180088ad0 f i libucrtd:output.obj
 0001:00087b00       ?type_case_s_compute_narrow_string_length@?$output_processor@_WV?$stream_output_adapter@_W@__crt_stdio_output@@V?$format_validation_base@_WV?$stream_output_adapter@_W@__crt_stdio_output@@@2@@__crt_stdio_output@@AEAAHH_W@Z 0000000180088b00 f i libucrtd:output.obj
 0001:00087ba0       ?type_case_s_compute_narrow_string_length@?$output_processor@_WV?$stream_output_adapter@_W@__crt_stdio_output@@V?$positional_parameter_base@_WV?$stream_output_adapter@_W@__crt_stdio_output@@@2@@__crt_stdio_output@@AEAAHH_W@Z 0000000180088ba0 f i libucrtd:output.obj
 0001:00087c40       ?type_case_s_compute_narrow_string_length@?$output_processor@_WV?$stream_output_adapter@_W@__crt_stdio_output@@V?$standard_base@_WV?$stream_output_adapter@_W@__crt_stdio_output@@@2@@__crt_stdio_output@@AEAAHH_W@Z 0000000180088c40 f i libucrtd:output.obj
 0001:00087ce0       ?type_case_s_compute_narrow_string_length@?$output_processor@_WV?$string_output_adapter@_W@__crt_stdio_output@@V?$format_validation_base@_WV?$string_output_adapter@_W@__crt_stdio_output@@@2@@__crt_stdio_output@@AEAAHH_W@Z 0000000180088ce0 f i libucrtd:output.obj
 0001:00087d80       ?type_case_s_compute_narrow_string_length@?$output_processor@_WV?$string_output_adapter@_W@__crt_stdio_output@@V?$positional_parameter_base@_WV?$string_output_adapter@_W@__crt_stdio_output@@@2@@__crt_stdio_output@@AEAAHH_W@Z 0000000180088d80 f i libucrtd:output.obj
 0001:00087e20       ?type_case_s_compute_narrow_string_length@?$output_processor@_WV?$string_output_adapter@_W@__crt_stdio_output@@V?$standard_base@_WV?$string_output_adapter@_W@__crt_stdio_output@@@2@@__crt_stdio_output@@AEAAHH_W@Z 0000000180088e20 f i libucrtd:output.obj
 0001:00087ec0       ?type_case_u@?$output_processor@DV?$stream_output_adapter@D@__crt_stdio_output@@V?$format_validation_base@DV?$stream_output_adapter@D@__crt_stdio_output@@@2@@__crt_stdio_output@@AEAA_NXZ 0000000180088ec0 f i libucrtd:output.obj
 0001:00087ee0       ?type_case_u@?$output_processor@DV?$stream_output_adapter@D@__crt_stdio_output@@V?$positional_parameter_base@DV?$stream_output_adapter@D@__crt_stdio_output@@@2@@__crt_stdio_output@@AEAA_NXZ 0000000180088ee0 f i libucrtd:output.obj
 0001:00087f00       ?type_case_u@?$output_processor@DV?$stream_output_adapter@D@__crt_stdio_output@@V?$standard_base@DV?$stream_output_adapter@D@__crt_stdio_output@@@2@@__crt_stdio_output@@AEAA_NXZ 0000000180088f00 f i libucrtd:output.obj
 0001:00087f20       ?type_case_u@?$output_processor@DV?$string_output_adapter@D@__crt_stdio_output@@V?$format_validation_base@DV?$string_output_adapter@D@__crt_stdio_output@@@2@@__crt_stdio_output@@AEAA_NXZ 0000000180088f20 f i libucrtd:output.obj
 0001:00087f40       ?type_case_u@?$output_processor@DV?$string_output_adapter@D@__crt_stdio_output@@V?$positional_parameter_base@DV?$string_output_adapter@D@__crt_stdio_output@@@2@@__crt_stdio_output@@AEAA_NXZ 0000000180088f40 f i libucrtd:output.obj
 0001:00087f60       ?type_case_u@?$output_processor@DV?$string_output_adapter@D@__crt_stdio_output@@V?$standard_base@DV?$string_output_adapter@D@__crt_stdio_output@@@2@@__crt_stdio_output@@AEAA_NXZ 0000000180088f60 f i libucrtd:output.obj
 0001:00087f80       ?type_case_u@?$output_processor@_WV?$stream_output_adapter@_W@__crt_stdio_output@@V?$format_validation_base@_WV?$stream_output_adapter@_W@__crt_stdio_output@@@2@@__crt_stdio_output@@AEAA_NXZ 0000000180088f80 f i libucrtd:output.obj
 0001:00087fa0       ?type_case_u@?$output_processor@_WV?$stream_output_adapter@_W@__crt_stdio_output@@V?$positional_parameter_base@_WV?$stream_output_adapter@_W@__crt_stdio_output@@@2@@__crt_stdio_output@@AEAA_NXZ 0000000180088fa0 f i libucrtd:output.obj
 0001:00087fc0       ?type_case_u@?$output_processor@_WV?$stream_output_adapter@_W@__crt_stdio_output@@V?$standard_base@_WV?$stream_output_adapter@_W@__crt_stdio_output@@@2@@__crt_stdio_output@@AEAA_NXZ 0000000180088fc0 f i libucrtd:output.obj
 0001:00087fe0       ?type_case_u@?$output_processor@_WV?$string_output_adapter@_W@__crt_stdio_output@@V?$format_validation_base@_WV?$string_output_adapter@_W@__crt_stdio_output@@@2@@__crt_stdio_output@@AEAA_NXZ 0000000180088fe0 f i libucrtd:output.obj
 0001:00088000       ?type_case_u@?$output_processor@_WV?$string_output_adapter@_W@__crt_stdio_output@@V?$positional_parameter_base@_WV?$string_output_adapter@_W@__crt_stdio_output@@@2@@__crt_stdio_output@@AEAA_NXZ 0000000180089000 f i libucrtd:output.obj
 0001:00088020       ?type_case_u@?$output_processor@_WV?$string_output_adapter@_W@__crt_stdio_output@@V?$standard_base@_WV?$string_output_adapter@_W@__crt_stdio_output@@@2@@__crt_stdio_output@@AEAA_NXZ 0000000180089020 f i libucrtd:output.obj
 0001:00088040       ?type_case_x@?$output_processor@DV?$stream_output_adapter@D@__crt_stdio_output@@V?$format_validation_base@DV?$stream_output_adapter@D@__crt_stdio_output@@@2@@__crt_stdio_output@@AEAA_NXZ 0000000180089040 f i libucrtd:output.obj
 0001:00088060       ?type_case_x@?$output_processor@DV?$stream_output_adapter@D@__crt_stdio_output@@V?$positional_parameter_base@DV?$stream_output_adapter@D@__crt_stdio_output@@@2@@__crt_stdio_output@@AEAA_NXZ 0000000180089060 f i libucrtd:output.obj
 0001:00088080       ?type_case_x@?$output_processor@DV?$stream_output_adapter@D@__crt_stdio_output@@V?$standard_base@DV?$stream_output_adapter@D@__crt_stdio_output@@@2@@__crt_stdio_output@@AEAA_NXZ 0000000180089080 f i libucrtd:output.obj
 0001:000880a0       ?type_case_x@?$output_processor@DV?$string_output_adapter@D@__crt_stdio_output@@V?$format_validation_base@DV?$string_output_adapter@D@__crt_stdio_output@@@2@@__crt_stdio_output@@AEAA_NXZ 00000001800890a0 f i libucrtd:output.obj
 0001:000880c0       ?type_case_x@?$output_processor@DV?$string_output_adapter@D@__crt_stdio_output@@V?$positional_parameter_base@DV?$string_output_adapter@D@__crt_stdio_output@@@2@@__crt_stdio_output@@AEAA_NXZ 00000001800890c0 f i libucrtd:output.obj
 0001:000880e0       ?type_case_x@?$output_processor@DV?$string_output_adapter@D@__crt_stdio_output@@V?$standard_base@DV?$string_output_adapter@D@__crt_stdio_output@@@2@@__crt_stdio_output@@AEAA_NXZ 00000001800890e0 f i libucrtd:output.obj
 0001:00088100       ?type_case_x@?$output_processor@_WV?$stream_output_adapter@_W@__crt_stdio_output@@V?$format_validation_base@_WV?$stream_output_adapter@_W@__crt_stdio_output@@@2@@__crt_stdio_output@@AEAA_NXZ 0000000180089100 f i libucrtd:output.obj
 0001:00088120       ?type_case_x@?$output_processor@_WV?$stream_output_adapter@_W@__crt_stdio_output@@V?$positional_parameter_base@_WV?$stream_output_adapter@_W@__crt_stdio_output@@@2@@__crt_stdio_output@@AEAA_NXZ 0000000180089120 f i libucrtd:output.obj
 0001:00088140       ?type_case_x@?$output_processor@_WV?$stream_output_adapter@_W@__crt_stdio_output@@V?$standard_base@_WV?$stream_output_adapter@_W@__crt_stdio_output@@@2@@__crt_stdio_output@@AEAA_NXZ 0000000180089140 f i libucrtd:output.obj
 0001:00088160       ?type_case_x@?$output_processor@_WV?$string_output_adapter@_W@__crt_stdio_output@@V?$format_validation_base@_WV?$string_output_adapter@_W@__crt_stdio_output@@@2@@__crt_stdio_output@@AEAA_NXZ 0000000180089160 f i libucrtd:output.obj
 0001:00088180       ?type_case_x@?$output_processor@_WV?$string_output_adapter@_W@__crt_stdio_output@@V?$positional_parameter_base@_WV?$string_output_adapter@_W@__crt_stdio_output@@@2@@__crt_stdio_output@@AEAA_NXZ 0000000180089180 f i libucrtd:output.obj
 0001:000881a0       ?type_case_x@?$output_processor@_WV?$string_output_adapter@_W@__crt_stdio_output@@V?$standard_base@_WV?$string_output_adapter@_W@__crt_stdio_output@@@2@@__crt_stdio_output@@AEAA_NXZ 00000001800891a0 f i libucrtd:output.obj
 0001:000881c0       ?unget@?$c_string_character_source@D@__crt_strtox@@QEAAXD@Z 00000001800891c0 f i libucrtd:output.obj
 0001:000882a0       ?unget@?$c_string_character_source@_W@__crt_strtox@@QEAAX_W@Z 00000001800892a0 f i libucrtd:output.obj
 0001:00088380       ?unsafe_value@?$cached@H@__crt_cached_ptd_host@@QEAAHXZ 0000000180089380 f i libucrtd:output.obj
 0001:00088390       ?unsafe_value@?$cached@K@__crt_cached_ptd_host@@QEAAKXZ 0000000180089390 f i libucrtd:output.obj
 0001:000883a0       ?unset_flag@?$output_processor@DV?$stream_output_adapter@D@__crt_stdio_output@@V?$format_validation_base@DV?$stream_output_adapter@D@__crt_stdio_output@@@2@@__crt_stdio_output@@AEAAXI@Z 00000001800893a0 f i libucrtd:output.obj
 0001:000883d0       ?unset_flag@?$output_processor@DV?$stream_output_adapter@D@__crt_stdio_output@@V?$positional_parameter_base@DV?$stream_output_adapter@D@__crt_stdio_output@@@2@@__crt_stdio_output@@AEAAXI@Z 00000001800893d0 f i libucrtd:output.obj
 0001:00088400       ?unset_flag@?$output_processor@DV?$stream_output_adapter@D@__crt_stdio_output@@V?$standard_base@DV?$stream_output_adapter@D@__crt_stdio_output@@@2@@__crt_stdio_output@@AEAAXI@Z 0000000180089400 f i libucrtd:output.obj
 0001:00088430       ?unset_flag@?$output_processor@DV?$string_output_adapter@D@__crt_stdio_output@@V?$format_validation_base@DV?$string_output_adapter@D@__crt_stdio_output@@@2@@__crt_stdio_output@@AEAAXI@Z 0000000180089430 f i libucrtd:output.obj
 0001:00088460       ?unset_flag@?$output_processor@DV?$string_output_adapter@D@__crt_stdio_output@@V?$positional_parameter_base@DV?$string_output_adapter@D@__crt_stdio_output@@@2@@__crt_stdio_output@@AEAAXI@Z 0000000180089460 f i libucrtd:output.obj
 0001:00088490       ?unset_flag@?$output_processor@DV?$string_output_adapter@D@__crt_stdio_output@@V?$standard_base@DV?$string_output_adapter@D@__crt_stdio_output@@@2@@__crt_stdio_output@@AEAAXI@Z 0000000180089490 f i libucrtd:output.obj
 0001:000884c0       ?unset_flag@?$output_processor@_WV?$stream_output_adapter@_W@__crt_stdio_output@@V?$format_validation_base@_WV?$stream_output_adapter@_W@__crt_stdio_output@@@2@@__crt_stdio_output@@AEAAXI@Z 00000001800894c0 f i libucrtd:output.obj
 0001:000884f0       ?unset_flag@?$output_processor@_WV?$stream_output_adapter@_W@__crt_stdio_output@@V?$positional_parameter_base@_WV?$stream_output_adapter@_W@__crt_stdio_output@@@2@@__crt_stdio_output@@AEAAXI@Z 00000001800894f0 f i libucrtd:output.obj
 0001:00088520       ?unset_flag@?$output_processor@_WV?$stream_output_adapter@_W@__crt_stdio_output@@V?$standard_base@_WV?$stream_output_adapter@_W@__crt_stdio_output@@@2@@__crt_stdio_output@@AEAAXI@Z 0000000180089520 f i libucrtd:output.obj
 0001:00088550       ?unset_flag@?$output_processor@_WV?$string_output_adapter@_W@__crt_stdio_output@@V?$format_validation_base@_WV?$string_output_adapter@_W@__crt_stdio_output@@@2@@__crt_stdio_output@@AEAAXI@Z 0000000180089550 f i libucrtd:output.obj
 0001:00088580       ?unset_flag@?$output_processor@_WV?$string_output_adapter@_W@__crt_stdio_output@@V?$positional_parameter_base@_WV?$string_output_adapter@_W@__crt_stdio_output@@@2@@__crt_stdio_output@@AEAAXI@Z 0000000180089580 f i libucrtd:output.obj
 0001:000885b0       ?unset_flag@?$output_processor@_WV?$string_output_adapter@_W@__crt_stdio_output@@V?$standard_base@_WV?$string_output_adapter@_W@__crt_stdio_output@@@2@@__crt_stdio_output@@AEAAXI@Z 00000001800895b0 f i libucrtd:output.obj
 0001:000885e0       ?update_field_width@?$positional_parameter_base@DV?$stream_output_adapter@D@__crt_stdio_output@@@__crt_stdio_output@@IEAA_NXZ 00000001800895e0 f i libucrtd:output.obj
 0001:000887e0       ?update_field_width@?$positional_parameter_base@DV?$string_output_adapter@D@__crt_stdio_output@@@__crt_stdio_output@@IEAA_NXZ 00000001800897e0 f i libucrtd:output.obj
 0001:000889e0       ?update_field_width@?$positional_parameter_base@_WV?$stream_output_adapter@_W@__crt_stdio_output@@@__crt_stdio_output@@IEAA_NXZ 00000001800899e0 f i libucrtd:output.obj
 0001:00088be0       ?update_field_width@?$positional_parameter_base@_WV?$string_output_adapter@_W@__crt_stdio_output@@@__crt_stdio_output@@IEAA_NXZ 0000000180089be0 f i libucrtd:output.obj
 0001:00088de0       ?update_field_width@?$standard_base@DV?$stream_output_adapter@D@__crt_stdio_output@@@__crt_stdio_output@@IEAA_NXZ 0000000180089de0 f i libucrtd:output.obj
 0001:00088e10       ?update_field_width@?$standard_base@DV?$string_output_adapter@D@__crt_stdio_output@@@__crt_stdio_output@@IEAA_NXZ 0000000180089e10 f i libucrtd:output.obj
 0001:00088e40       ?update_field_width@?$standard_base@_WV?$stream_output_adapter@_W@__crt_stdio_output@@@__crt_stdio_output@@IEAA_NXZ 0000000180089e40 f i libucrtd:output.obj
 0001:00088e70       ?update_field_width@?$standard_base@_WV?$string_output_adapter@_W@__crt_stdio_output@@@__crt_stdio_output@@IEAA_NXZ 0000000180089e70 f i libucrtd:output.obj
 0001:00088ea0       ?update_locale@__crt_cached_ptd_host@@AEAAXXZ 0000000180089ea0 f i libucrtd:output.obj
 0001:00088ed0       ?update_locale_slow@__crt_cached_ptd_host@@AEAAXXZ 0000000180089ed0 f i libucrtd:output.obj
 0001:00088f80       ?update_precision@?$positional_parameter_base@DV?$stream_output_adapter@D@__crt_stdio_output@@@__crt_stdio_output@@IEAA_NXZ 0000000180089f80 f i libucrtd:output.obj
 0001:00089180       ?update_precision@?$positional_parameter_base@DV?$string_output_adapter@D@__crt_stdio_output@@@__crt_stdio_output@@IEAA_NXZ 000000018008a180 f i libucrtd:output.obj
 0001:00089380       ?update_precision@?$positional_parameter_base@_WV?$stream_output_adapter@_W@__crt_stdio_output@@@__crt_stdio_output@@IEAA_NXZ 000000018008a380 f i libucrtd:output.obj
 0001:00089580       ?update_precision@?$positional_parameter_base@_WV?$string_output_adapter@_W@__crt_stdio_output@@@__crt_stdio_output@@IEAA_NXZ 000000018008a580 f i libucrtd:output.obj
 0001:00089780       ?update_precision@?$standard_base@DV?$stream_output_adapter@D@__crt_stdio_output@@@__crt_stdio_output@@IEAA_NXZ 000000018008a780 f i libucrtd:output.obj
 0001:000897b0       ?update_precision@?$standard_base@DV?$string_output_adapter@D@__crt_stdio_output@@@__crt_stdio_output@@IEAA_NXZ 000000018008a7b0 f i libucrtd:output.obj
 0001:000897e0       ?update_precision@?$standard_base@_WV?$stream_output_adapter@_W@__crt_stdio_output@@@__crt_stdio_output@@IEAA_NXZ 000000018008a7e0 f i libucrtd:output.obj
 0001:00089810       ?update_precision@?$standard_base@_WV?$string_output_adapter@_W@__crt_stdio_output@@@__crt_stdio_output@@IEAA_NXZ 000000018008a810 f i libucrtd:output.obj
 0001:00089840       ?valid@?$cached@H@__crt_cached_ptd_host@@QEBA_NXZ 000000018008a840 f i libucrtd:output.obj
 0001:00089850       ?valid@?$cached@K@__crt_cached_ptd_host@@QEBA_NXZ 000000018008a850 f i libucrtd:output.obj
 0001:00089860       ?valid@__crt_stdio_stream@@QEBA_NXZ 000000018008a860 f i libucrtd:output.obj
 0001:00089890       ?validate@?$c_string_character_source@D@__crt_strtox@@QEBA_NXZ 000000018008a890 f i libucrtd:output.obj
 0001:00089950       ?validate@?$c_string_character_source@_W@__crt_strtox@@QEBA_NXZ 000000018008a950 f i libucrtd:output.obj
 0001:00089a10       ?validate@?$stream_output_adapter@D@__crt_stdio_output@@QEBA_NAEAV__crt_cached_ptd_host@@@Z 000000018008aa10 f i libucrtd:output.obj
 0001:00089b10       ?validate@?$stream_output_adapter@_W@__crt_stdio_output@@QEBA_NAEAV__crt_cached_ptd_host@@@Z 000000018008ab10 f i libucrtd:output.obj
 0001:00089c10       ?validate@?$string_output_adapter@D@__crt_stdio_output@@QEBA_NAEAV__crt_cached_ptd_host@@@Z 000000018008ac10 f i libucrtd:output.obj
 0001:00089cf0       ?validate@?$string_output_adapter@_W@__crt_stdio_output@@QEBA_NAEAV__crt_cached_ptd_host@@@Z 000000018008acf0 f i libucrtd:output.obj
 0001:00089dd0       ?validate_and_store_parameter_data@?$positional_parameter_base@DV?$stream_output_adapter@D@__crt_stdio_output@@@__crt_stdio_output@@AEAA_NAEAUparameter_data@12@W4parameter_type@12@DW4length_modifier@2@@Z 000000018008add0 f i libucrtd:output.obj
 0001:00089f10       ?validate_and_store_parameter_data@?$positional_parameter_base@DV?$string_output_adapter@D@__crt_stdio_output@@@__crt_stdio_output@@AEAA_NAEAUparameter_data@12@W4parameter_type@12@DW4length_modifier@2@@Z 000000018008af10 f i libucrtd:output.obj
 0001:0008a050       ?validate_and_store_parameter_data@?$positional_parameter_base@_WV?$stream_output_adapter@_W@__crt_stdio_output@@@__crt_stdio_output@@AEAA_NAEAUparameter_data@12@W4parameter_type@12@_WW4length_modifier@2@@Z 000000018008b050 f i libucrtd:output.obj
 0001:0008a190       ?validate_and_store_parameter_data@?$positional_parameter_base@_WV?$string_output_adapter@_W@__crt_stdio_output@@@__crt_stdio_output@@AEAA_NAEAUparameter_data@12@W4parameter_type@12@_WW4length_modifier@2@@Z 000000018008b190 f i libucrtd:output.obj
 0001:0008a2d0       ?validate_and_update_state_at_beginning_of_format_character@?$positional_parameter_base@DV?$stream_output_adapter@D@__crt_stdio_output@@@__crt_stdio_output@@IEAA_NXZ 000000018008b2d0 f i libucrtd:output.obj
 0001:0008a570       ?validate_and_update_state_at_beginning_of_format_character@?$positional_parameter_base@DV?$string_output_adapter@D@__crt_stdio_output@@@__crt_stdio_output@@IEAA_NXZ 000000018008b570 f i libucrtd:output.obj
 0001:0008a810       ?validate_and_update_state_at_beginning_of_format_character@?$positional_parameter_base@_WV?$stream_output_adapter@_W@__crt_stdio_output@@@__crt_stdio_output@@IEAA_NXZ 000000018008b810 f i libucrtd:output.obj
 0001:0008aab0       ?validate_and_update_state_at_beginning_of_format_character@?$positional_parameter_base@_WV?$string_output_adapter@_W@__crt_stdio_output@@@__crt_stdio_output@@IEAA_NXZ 000000018008bab0 f i libucrtd:output.obj
 0001:0008ad50       ?validate_and_update_state_at_beginning_of_format_character@?$standard_base@DV?$stream_output_adapter@D@__crt_stdio_output@@@__crt_stdio_output@@IEAA_NXZ 000000018008bd50 f i libucrtd:output.obj
 0001:0008ad60       ?validate_and_update_state_at_beginning_of_format_character@?$standard_base@DV?$string_output_adapter@D@__crt_stdio_output@@@__crt_stdio_output@@IEAA_NXZ 000000018008bd60 f i libucrtd:output.obj
 0001:0008ad70       ?validate_and_update_state_at_beginning_of_format_character@?$standard_base@_WV?$stream_output_adapter@_W@__crt_stdio_output@@@__crt_stdio_output@@IEAA_NXZ 000000018008bd70 f i libucrtd:output.obj
 0001:0008ad80       ?validate_and_update_state_at_beginning_of_format_character@?$standard_base@_WV?$string_output_adapter@_W@__crt_stdio_output@@@__crt_stdio_output@@IEAA_NXZ 000000018008bd80 f i libucrtd:output.obj
 0001:0008ad90       ?validate_and_update_state_at_end_of_format_string@?$format_validation_base@DV?$stream_output_adapter@D@__crt_stdio_output@@@__crt_stdio_output@@IEAA_NXZ 000000018008bd90 f i libucrtd:output.obj
 0001:0008ae80       ?validate_and_update_state_at_end_of_format_string@?$format_validation_base@DV?$string_output_adapter@D@__crt_stdio_output@@@__crt_stdio_output@@IEAA_NXZ 000000018008be80 f i libucrtd:output.obj
 0001:0008af70       ?validate_and_update_state_at_end_of_format_string@?$format_validation_base@_WV?$stream_output_adapter@_W@__crt_stdio_output@@@__crt_stdio_output@@IEAA_NXZ 000000018008bf70 f i libucrtd:output.obj
 0001:0008b060       ?validate_and_update_state_at_end_of_format_string@?$format_validation_base@_WV?$string_output_adapter@_W@__crt_stdio_output@@@__crt_stdio_output@@IEAA_NXZ 000000018008c060 f i libucrtd:output.obj
 0001:0008b150       ?validate_and_update_state_at_end_of_format_string@?$positional_parameter_base@DV?$stream_output_adapter@D@__crt_stdio_output@@@__crt_stdio_output@@IEAA_NXZ 000000018008c150 f i libucrtd:output.obj
 0001:0008b380       ?validate_and_update_state_at_end_of_format_string@?$positional_parameter_base@DV?$string_output_adapter@D@__crt_stdio_output@@@__crt_stdio_output@@IEAA_NXZ 000000018008c380 f i libucrtd:output.obj
 0001:0008b5b0       ?validate_and_update_state_at_end_of_format_string@?$positional_parameter_base@_WV?$stream_output_adapter@_W@__crt_stdio_output@@@__crt_stdio_output@@IEAA_NXZ 000000018008c5b0 f i libucrtd:output.obj
 0001:0008b7e0       ?validate_and_update_state_at_end_of_format_string@?$positional_parameter_base@_WV?$string_output_adapter@_W@__crt_stdio_output@@@__crt_stdio_output@@IEAA_NXZ 000000018008c7e0 f i libucrtd:output.obj
 0001:0008ba10       ?validate_and_update_state_at_end_of_format_string@?$standard_base@DV?$stream_output_adapter@D@__crt_stdio_output@@@__crt_stdio_output@@IEBA_NXZ 000000018008ca10 f i libucrtd:output.obj
 0001:0008ba20       ?validate_and_update_state_at_end_of_format_string@?$standard_base@DV?$string_output_adapter@D@__crt_stdio_output@@@__crt_stdio_output@@IEBA_NXZ 000000018008ca20 f i libucrtd:output.obj
 0001:0008ba30       ?validate_and_update_state_at_end_of_format_string@?$standard_base@_WV?$stream_output_adapter@_W@__crt_stdio_output@@@__crt_stdio_output@@IEBA_NXZ 000000018008ca30 f i libucrtd:output.obj
 0001:0008ba40       ?validate_and_update_state_at_end_of_format_string@?$standard_base@_WV?$string_output_adapter@_W@__crt_stdio_output@@@__crt_stdio_output@@IEBA_NXZ 000000018008ca40 f i libucrtd:output.obj
 0001:0008ba50       ?validate_state_for_type_case_a@?$positional_parameter_base@DV?$stream_output_adapter@D@__crt_stdio_output@@@__crt_stdio_output@@IEAA_NXZ 000000018008ca50 f i libucrtd:output.obj
 0001:0008bbb0       ?validate_state_for_type_case_a@?$positional_parameter_base@DV?$string_output_adapter@D@__crt_stdio_output@@@__crt_stdio_output@@IEAA_NXZ 000000018008cbb0 f i libucrtd:output.obj
 0001:0008bd10       ?validate_state_for_type_case_a@?$positional_parameter_base@_WV?$stream_output_adapter@_W@__crt_stdio_output@@@__crt_stdio_output@@IEAA_NXZ 000000018008cd10 f i libucrtd:output.obj
 0001:0008be70       ?validate_state_for_type_case_a@?$positional_parameter_base@_WV?$string_output_adapter@_W@__crt_stdio_output@@@__crt_stdio_output@@IEAA_NXZ 000000018008ce70 f i libucrtd:output.obj
 0001:0008bfd0       ?validate_state_for_type_case_a@?$standard_base@DV?$stream_output_adapter@D@__crt_stdio_output@@@__crt_stdio_output@@IEBA_NXZ 000000018008cfd0 f i libucrtd:output.obj
 0001:0008bfe0       ?validate_state_for_type_case_a@?$standard_base@DV?$string_output_adapter@D@__crt_stdio_output@@@__crt_stdio_output@@IEBA_NXZ 000000018008cfe0 f i libucrtd:output.obj
 0001:0008bff0       ?validate_state_for_type_case_a@?$standard_base@_WV?$stream_output_adapter@_W@__crt_stdio_output@@@__crt_stdio_output@@IEBA_NXZ 000000018008cff0 f i libucrtd:output.obj
 0001:0008c000       ?validate_state_for_type_case_a@?$standard_base@_WV?$string_output_adapter@_W@__crt_stdio_output@@@__crt_stdio_output@@IEBA_NXZ 000000018008d000 f i libucrtd:output.obj
 0001:0008c010       ?validate_stream_is_ansi_if_required@?$__acrt_stdio_char_traits@D@@SA_NQEAU_iobuf@@@Z 000000018008d010 f i libucrtd:output.obj
 0001:0008c1a0       ?validate_stream_is_ansi_if_required@?$__acrt_stdio_char_traits@_W@@SA_NQEAU_iobuf@@@Z 000000018008d1a0 f i libucrtd:output.obj
 0001:0008c1b0       ?wide_character_to_digit@__crt_strtox@@YAH_W@Z 000000018008d1b0 f i libucrtd:output.obj
 0001:0008c520       ?wide_null_string@?$output_processor@DV?$stream_output_adapter@D@__crt_stdio_output@@V?$format_validation_base@DV?$stream_output_adapter@D@__crt_stdio_output@@@2@@__crt_stdio_output@@CAPEA_WXZ 000000018008d520 f i libucrtd:output.obj
 0001:0008c530       ?wide_null_string@?$output_processor@DV?$stream_output_adapter@D@__crt_stdio_output@@V?$positional_parameter_base@DV?$stream_output_adapter@D@__crt_stdio_output@@@2@@__crt_stdio_output@@CAPEA_WXZ 000000018008d530 f i libucrtd:output.obj
 0001:0008c540       ?wide_null_string@?$output_processor@DV?$stream_output_adapter@D@__crt_stdio_output@@V?$standard_base@DV?$stream_output_adapter@D@__crt_stdio_output@@@2@@__crt_stdio_output@@CAPEA_WXZ 000000018008d540 f i libucrtd:output.obj
 0001:0008c550       ?wide_null_string@?$output_processor@DV?$string_output_adapter@D@__crt_stdio_output@@V?$format_validation_base@DV?$string_output_adapter@D@__crt_stdio_output@@@2@@__crt_stdio_output@@CAPEA_WXZ 000000018008d550 f i libucrtd:output.obj
 0001:0008c560       ?wide_null_string@?$output_processor@DV?$string_output_adapter@D@__crt_stdio_output@@V?$positional_parameter_base@DV?$string_output_adapter@D@__crt_stdio_output@@@2@@__crt_stdio_output@@CAPEA_WXZ 000000018008d560 f i libucrtd:output.obj
 0001:0008c570       ?wide_null_string@?$output_processor@DV?$string_output_adapter@D@__crt_stdio_output@@V?$standard_base@DV?$string_output_adapter@D@__crt_stdio_output@@@2@@__crt_stdio_output@@CAPEA_WXZ 000000018008d570 f i libucrtd:output.obj
 0001:0008c580       ?wide_null_string@?$output_processor@_WV?$stream_output_adapter@_W@__crt_stdio_output@@V?$format_validation_base@_WV?$stream_output_adapter@_W@__crt_stdio_output@@@2@@__crt_stdio_output@@CAPEA_WXZ 000000018008d580 f i libucrtd:output.obj
 0001:0008c590       ?wide_null_string@?$output_processor@_WV?$stream_output_adapter@_W@__crt_stdio_output@@V?$positional_parameter_base@_WV?$stream_output_adapter@_W@__crt_stdio_output@@@2@@__crt_stdio_output@@CAPEA_WXZ 000000018008d590 f i libucrtd:output.obj
 0001:0008c5a0       ?wide_null_string@?$output_processor@_WV?$stream_output_adapter@_W@__crt_stdio_output@@V?$standard_base@_WV?$stream_output_adapter@_W@__crt_stdio_output@@@2@@__crt_stdio_output@@CAPEA_WXZ 000000018008d5a0 f i libucrtd:output.obj
 0001:0008c5b0       ?wide_null_string@?$output_processor@_WV?$string_output_adapter@_W@__crt_stdio_output@@V?$format_validation_base@_WV?$string_output_adapter@_W@__crt_stdio_output@@@2@@__crt_stdio_output@@CAPEA_WXZ 000000018008d5b0 f i libucrtd:output.obj
 0001:0008c5c0       ?wide_null_string@?$output_processor@_WV?$string_output_adapter@_W@__crt_stdio_output@@V?$positional_parameter_base@_WV?$string_output_adapter@_W@__crt_stdio_output@@@2@@__crt_stdio_output@@CAPEA_WXZ 000000018008d5c0 f i libucrtd:output.obj
 0001:0008c5d0       ?wide_null_string@?$output_processor@_WV?$string_output_adapter@_W@__crt_stdio_output@@V?$standard_base@_WV?$string_output_adapter@_W@__crt_stdio_output@@@2@@__crt_stdio_output@@CAPEA_WXZ 000000018008d5d0 f i libucrtd:output.obj
 0001:0008c5e0       ?write_character@?$output_adapter_common@DV?$stream_output_adapter@D@__crt_stdio_output@@@__crt_stdio_output@@QEBAXDQEAHAEAV__crt_cached_ptd_host@@@Z 000000018008d5e0 f i libucrtd:output.obj
 0001:0008c640       ?write_character@?$output_adapter_common@_WV?$stream_output_adapter@_W@__crt_stdio_output@@@__crt_stdio_output@@QEBAX_WQEAHAEAV__crt_cached_ptd_host@@@Z 000000018008d640 f i libucrtd:output.obj
 0001:0008c6a0       ?write_character@?$string_output_adapter@D@__crt_stdio_output@@QEBA_NDQEAHAEAV__crt_cached_ptd_host@@@Z 000000018008d6a0 f i libucrtd:output.obj
 0001:0008c770       ?write_character@?$string_output_adapter@_W@__crt_stdio_output@@QEBA_N_WQEAHAEAV__crt_cached_ptd_host@@@Z 000000018008d770 f i libucrtd:output.obj
 0001:0008c840       ?write_character_without_count_update@?$stream_output_adapter@D@__crt_stdio_output@@QEBA_NDAEAV__crt_cached_ptd_host@@@Z 000000018008d840 f i libucrtd:output.obj
 0001:0008c8d0       ?write_character_without_count_update@?$stream_output_adapter@_W@__crt_stdio_output@@QEBA_N_WAEAV__crt_cached_ptd_host@@@Z 000000018008d8d0 f i libucrtd:output.obj
 0001:0008c960       ?write_stored_string_tchar@?$output_processor@DV?$stream_output_adapter@D@__crt_stdio_output@@V?$format_validation_base@DV?$stream_output_adapter@D@__crt_stdio_output@@@2@@__crt_stdio_output@@AEAA_ND@Z 000000018008d960 f i libucrtd:output.obj
 0001:0008cb10       ?write_stored_string_tchar@?$output_processor@DV?$stream_output_adapter@D@__crt_stdio_output@@V?$positional_parameter_base@DV?$stream_output_adapter@D@__crt_stdio_output@@@2@@__crt_stdio_output@@AEAA_ND@Z 000000018008db10 f i libucrtd:output.obj
 0001:0008ccc0       ?write_stored_string_tchar@?$output_processor@DV?$stream_output_adapter@D@__crt_stdio_output@@V?$standard_base@DV?$stream_output_adapter@D@__crt_stdio_output@@@2@@__crt_stdio_output@@AEAA_ND@Z 000000018008dcc0 f i libucrtd:output.obj
 0001:0008ce70       ?write_stored_string_tchar@?$output_processor@DV?$string_output_adapter@D@__crt_stdio_output@@V?$format_validation_base@DV?$string_output_adapter@D@__crt_stdio_output@@@2@@__crt_stdio_output@@AEAA_ND@Z 000000018008de70 f i libucrtd:output.obj
 0001:0008d020       ?write_stored_string_tchar@?$output_processor@DV?$string_output_adapter@D@__crt_stdio_output@@V?$positional_parameter_base@DV?$string_output_adapter@D@__crt_stdio_output@@@2@@__crt_stdio_output@@AEAA_ND@Z 000000018008e020 f i libucrtd:output.obj
 0001:0008d1d0       ?write_stored_string_tchar@?$output_processor@DV?$string_output_adapter@D@__crt_stdio_output@@V?$standard_base@DV?$string_output_adapter@D@__crt_stdio_output@@@2@@__crt_stdio_output@@AEAA_ND@Z 000000018008e1d0 f i libucrtd:output.obj
 0001:0008d380       ?write_stored_string_tchar@?$output_processor@_WV?$stream_output_adapter@_W@__crt_stdio_output@@V?$format_validation_base@_WV?$stream_output_adapter@_W@__crt_stdio_output@@@2@@__crt_stdio_output@@AEAA_N_W@Z 000000018008e380 f i libucrtd:output.obj
 0001:0008d4e0       ?write_stored_string_tchar@?$output_processor@_WV?$stream_output_adapter@_W@__crt_stdio_output@@V?$positional_parameter_base@_WV?$stream_output_adapter@_W@__crt_stdio_output@@@2@@__crt_stdio_output@@AEAA_N_W@Z 000000018008e4e0 f i libucrtd:output.obj
 0001:0008d640       ?write_stored_string_tchar@?$output_processor@_WV?$stream_output_adapter@_W@__crt_stdio_output@@V?$standard_base@_WV?$stream_output_adapter@_W@__crt_stdio_output@@@2@@__crt_stdio_output@@AEAA_N_W@Z 000000018008e640 f i libucrtd:output.obj
 0001:0008d7a0       ?write_stored_string_tchar@?$output_processor@_WV?$string_output_adapter@_W@__crt_stdio_output@@V?$format_validation_base@_WV?$string_output_adapter@_W@__crt_stdio_output@@@2@@__crt_stdio_output@@AEAA_N_W@Z 000000018008e7a0 f i libucrtd:output.obj
 0001:0008d900       ?write_stored_string_tchar@?$output_processor@_WV?$string_output_adapter@_W@__crt_stdio_output@@V?$positional_parameter_base@_WV?$string_output_adapter@_W@__crt_stdio_output@@@2@@__crt_stdio_output@@AEAA_N_W@Z 000000018008e900 f i libucrtd:output.obj
 0001:0008da60       ?write_stored_string_tchar@?$output_processor@_WV?$string_output_adapter@_W@__crt_stdio_output@@V?$standard_base@_WV?$string_output_adapter@_W@__crt_stdio_output@@@2@@__crt_stdio_output@@AEAA_N_W@Z 000000018008ea60 f i libucrtd:output.obj
 0001:0008dbc0       ?write_string@?$stream_output_adapter@D@__crt_stdio_output@@QEBAXQEBDHQEAHAEAV__crt_cached_ptd_host@@@Z 000000018008ebc0 f i libucrtd:output.obj
 0001:0008dc40       ?write_string@?$stream_output_adapter@_W@__crt_stdio_output@@QEBAXQEB_WHQEAHAEAV__crt_cached_ptd_host@@@Z 000000018008ec40 f i libucrtd:output.obj
 0001:0008dcc0       ?write_string@?$string_output_adapter@D@__crt_stdio_output@@QEBAXQEBDHQEAHAEAV__crt_cached_ptd_host@@@Z 000000018008ecc0 f i libucrtd:output.obj
 0001:0008de30       ?write_string@?$string_output_adapter@_W@__crt_stdio_output@@QEBAXQEB_WHQEAHAEAV__crt_cached_ptd_host@@@Z 000000018008ee30 f i libucrtd:output.obj
 0001:0008dfa0       ?write_string_impl@?$output_adapter_common@DV?$stream_output_adapter@D@__crt_stdio_output@@@__crt_stdio_output@@IEBAXQEBDHQEAHAEAV__crt_cached_ptd_host@@@Z 000000018008efa0 f i libucrtd:output.obj
 0001:0008e0c0       ?write_string_impl@?$output_adapter_common@_WV?$stream_output_adapter@_W@__crt_stdio_output@@@__crt_stdio_output@@IEBAXQEB_WHQEAHAEAV__crt_cached_ptd_host@@@Z 000000018008f0c0 f i libucrtd:output.obj
 0001:0008e1e0       __acrt_disable_global_locale_sync 000000018008f1e0 f i libucrtd:output.obj
 0001:0008e210       __acrt_enable_global_locale_sync 000000018008f210 f i libucrtd:output.obj
 0001:0008e240       __acrt_isleadbyte_l_noupdate 000000018008f240 f i libucrtd:output.obj
 0001:0008e270       __acrt_locale_changed      000000018008f270 f i libucrtd:output.obj
 0001:0008e2a0       __acrt_locale_get_ctype_array_value 000000018008f2a0 f i libucrtd:output.obj
 0001:0008e2e0       __ascii_iswalpha           000000018008f2e0 f i libucrtd:output.obj
 0001:0008e320       __ascii_toupper            000000018008f320 f i libucrtd:output.obj
 0001:0008e340       __ascii_towupper           000000018008f340 f i libucrtd:output.obj
 0001:0008e360       __stdio_common_vfprintf    000000018008f360 f   libucrtd:output.obj
 0001:0008e3e0       __stdio_common_vfprintf_p  000000018008f3e0 f   libucrtd:output.obj
 0001:0008e460       __stdio_common_vfprintf_s  000000018008f460 f   libucrtd:output.obj
 0001:0008e4e0       __stdio_common_vfwprintf   000000018008f4e0 f   libucrtd:output.obj
 0001:0008e560       __stdio_common_vfwprintf_p 000000018008f560 f   libucrtd:output.obj
 0001:0008e5e0       __stdio_common_vfwprintf_s 000000018008f5e0 f   libucrtd:output.obj
 0001:0008e660       __stdio_common_vsnprintf_s 000000018008f660 f   libucrtd:output.obj
 0001:0008e6f0       __stdio_common_vsnwprintf_s 000000018008f6f0 f   libucrtd:output.obj
 0001:0008e780       __stdio_common_vsprintf    000000018008f780 f   libucrtd:output.obj
 0001:0008e810       __stdio_common_vsprintf_p  000000018008f810 f   libucrtd:output.obj
 0001:0008e8a0       __stdio_common_vsprintf_s  000000018008f8a0 f   libucrtd:output.obj
 0001:0008e930       __stdio_common_vswprintf   000000018008f930 f   libucrtd:output.obj
 0001:0008e9c0       __stdio_common_vswprintf_p 000000018008f9c0 f   libucrtd:output.obj
 0001:0008ea50       __stdio_common_vswprintf_s 000000018008fa50 f   libucrtd:output.obj
 0001:0008eae0       _ctype_fast_check_internal 000000018008fae0 f i libucrtd:output.obj
 0001:0008eb10       _isdigit_fast_internal     000000018008fb10 f i libucrtd:output.obj
 0001:0008eb40       _tolower_fast_internal     000000018008fb40 f i libucrtd:output.obj
 0001:0008eb70       free                       000000018008fb70 f   libucrtd:free.obj
 0001:0008eba0       malloc                     000000018008fba0 f   libucrtd:malloc.obj
 0001:0008ebd0       ??$?RU?$__crt_report_hook_node@D@@@__crt_internal_free_policy@@QEBAXQEBU?$__crt_report_hook_node@D@@@Z 000000018008fbd0 f i libucrtd:dbgrpt.obj
 0001:0008ec00       ??$?RU?$__crt_report_hook_node@_W@@@__crt_internal_free_policy@@QEBAXQEBU?$__crt_report_hook_node@_W@@@Z 000000018008fc00 f i libucrtd:dbgrpt.obj
 0001:0008fe60       ??$get_module_file_name@AEAPEAUHINSTANCE__@@AEAY0BAF@DK@?$__crt_char_traits@D@@SAKAEAPEAUHINSTANCE__@@AEAY0BAF@D$$QEAK@Z 0000000180090e60 f i libucrtd:dbgrpt.obj
 0001:0008fea0       ??$get_module_file_name@AEAPEAUHINSTANCE__@@AEAY0BAF@_WK@?$__crt_char_traits@_W@@SAKAEAPEAUHINSTANCE__@@AEAY0BAF@_W$$QEAK@Z 0000000180090ea0 f i libucrtd:dbgrpt.obj
 0001:0008fee0       ??$tcscpy_s@AEAY0BAF@D_KPEBD@?$__crt_char_traits@D@@SAHAEAY0BAF@D$$QEA_K$$QEAPEBD@Z 0000000180090ee0 f i libucrtd:dbgrpt.obj
 0001:0008ff20       ??$tcscpy_s@AEAY0BAF@_W_KPEB_W@?$__crt_char_traits@_W@@SAHAEAY0BAF@_W$$QEA_K$$QEAPEB_W@Z 0000000180090f20 f i libucrtd:dbgrpt.obj
 0001:0008ff60       ??$tcslen@AEAY0BAF@D@?$__crt_char_traits@D@@SA_KAEAY0BAF@D@Z 0000000180090f60 f i libucrtd:dbgrpt.obj
 0001:0008ff80       ??$tcslen@AEAY0BAF@_W@?$__crt_char_traits@_W@@SA_KAEAY0BAF@_W@Z 0000000180090f80 f i libucrtd:dbgrpt.obj
 0001:0008ffa0       ??$tcslen@AEBQEBD@?$__crt_char_traits@D@@SA_KAEBQEBD@Z 0000000180090fa0 f i libucrtd:dbgrpt.obj
 0001:0008ffc0       ??$tcslen@AEBQEB_W@?$__crt_char_traits@_W@@SA_KAEBQEB_W@Z 0000000180090fc0 f i libucrtd:dbgrpt.obj
 0001:000900c0       ??0?$__crt_unique_heap_ptr@U?$__crt_report_hook_node@D@@U__crt_internal_free_policy@@@@QEAA@QEAU?$__crt_report_hook_node@D@@@Z 00000001800910c0 f i libucrtd:dbgrpt.obj
 0001:000900e0       ??0?$__crt_unique_heap_ptr@U?$__crt_report_hook_node@_W@@U__crt_internal_free_policy@@@@QEAA@QEAU?$__crt_report_hook_node@_W@@@Z 00000001800910e0 f i libucrtd:dbgrpt.obj
 0001:00090100       ??1?$__crt_unique_heap_ptr@U?$__crt_report_hook_node@D@@U__crt_internal_free_policy@@@@QEAA@XZ 0000000180091100 f i libucrtd:dbgrpt.obj
 0001:00090120       ??1?$__crt_unique_heap_ptr@U?$__crt_report_hook_node@_W@@U__crt_internal_free_policy@@@@QEAA@XZ 0000000180091120 f i libucrtd:dbgrpt.obj
 0001:00090140       ??B?$__crt_unique_heap_ptr@U?$__crt_report_hook_node@D@@U__crt_internal_free_policy@@@@QEBA_NXZ 0000000180091140 f i libucrtd:dbgrpt.obj
 0001:00090160       ??B?$__crt_unique_heap_ptr@U?$__crt_report_hook_node@_W@@U__crt_internal_free_policy@@@@QEBA_NXZ 0000000180091160 f i libucrtd:dbgrpt.obj
 0001:00090880       ?detach@?$__crt_unique_heap_ptr@U?$__crt_report_hook_node@D@@U__crt_internal_free_policy@@@@QEAAPEAU?$__crt_report_hook_node@D@@XZ 0000000180091880 f i libucrtd:dbgrpt.obj
 0001:000908b0       ?detach@?$__crt_unique_heap_ptr@U?$__crt_report_hook_node@_W@@U__crt_internal_free_policy@@@@QEAAPEAU?$__crt_report_hook_node@_W@@XZ 00000001800918b0 f i libucrtd:dbgrpt.obj
 0001:000908e0       ?get@?$__crt_unique_heap_ptr@U?$__crt_report_hook_node@D@@U__crt_internal_free_policy@@@@QEBAPEAU?$__crt_report_hook_node@D@@XZ 00000001800918e0 f i libucrtd:dbgrpt.obj
 0001:000908f0       ?get@?$__crt_unique_heap_ptr@U?$__crt_report_hook_node@_W@@U__crt_internal_free_policy@@@@QEBAPEAU?$__crt_report_hook_node@_W@@XZ 00000001800918f0 f i libucrtd:dbgrpt.obj
 0001:00090960       ?is_valid@?$__crt_unique_heap_ptr@U?$__crt_report_hook_node@D@@U__crt_internal_free_policy@@@@QEBA_NXZ 0000000180091960 f i libucrtd:dbgrpt.obj
 0001:00090990       ?is_valid@?$__crt_unique_heap_ptr@U?$__crt_report_hook_node@_W@@U__crt_internal_free_policy@@@@QEBA_NXZ 0000000180091990 f i libucrtd:dbgrpt.obj
 0001:000909c0       ?release@?$__crt_unique_heap_ptr@U?$__crt_report_hook_node@D@@U__crt_internal_free_policy@@@@QEAAXXZ 00000001800919c0 f i libucrtd:dbgrpt.obj
 0001:000909f0       ?release@?$__crt_unique_heap_ptr@U?$__crt_report_hook_node@_W@@U__crt_internal_free_policy@@@@QEAAXXZ 00000001800919f0 f i libucrtd:dbgrpt.obj
 0001:00090a20       _CrtDbgReport              0000000180091a20 f   libucrtd:dbgrpt.obj
 0001:00090aa0       _CrtDbgReportW             0000000180091aa0 f   libucrtd:dbgrpt.obj
 0001:00090b20       _CrtSetReportHook2         0000000180091b20 f   libucrtd:dbgrpt.obj
 0001:00090b40       _CrtSetReportHookW2        0000000180091b40 f   libucrtd:dbgrpt.obj
 0001:00090b60       __acrt_MessageWindowA      0000000180091b60 f   libucrtd:dbgrpt.obj
 0001:00090bb0       __acrt_MessageWindowW      0000000180091bb0 f   libucrtd:dbgrpt.obj
 0001:00090c00       _invoke_watson_if_error    0000000180091c00 f i libucrtd:dbgrpt.obj
 0001:00090c50       _invoke_watson_if_oneof    0000000180091c50 f i libucrtd:dbgrpt.obj
 0001:00090cb0       _snwprintf_s               0000000180091cb0 f i libucrtd:dbgrpt.obj
 0001:00090d20       _vsnwprintf_s_l            0000000180091d20 f i libucrtd:dbgrpt.obj
 0001:000912a0       wcscpy_s                   00000001800922a0 f   libucrtd:wcscpy_s.obj
 0001:00092630       ??1?$__crt_simd_cleanup_guard@$00@@QEAA@XZ 0000000180093630 f i libucrtd:strnlen.obj
 0001:00092640       ??1?$__crt_simd_cleanup_guard@$0A@@@QEAA@XZ 0000000180093640 f i libucrtd:strnlen.obj
 0001:00092650       ?compare_equals@?$__crt_simd_traits@$00E@@SA?AT__m256i@@T2@0@Z 0000000180093650 f i libucrtd:strnlen.obj
 0001:00092690       ?compare_equals@?$__crt_simd_traits@$00G@@SA?AT__m256i@@T2@0@Z 0000000180093690 f i libucrtd:strnlen.obj
 0001:000926d0       ?compare_equals@?$__crt_simd_traits@$0A@E@@SA?AT__m128i@@T2@0@Z 00000001800936d0 f i libucrtd:strnlen.obj
 0001:00092700       ?compare_equals@?$__crt_simd_traits@$0A@G@@SA?AT__m128i@@T2@0@Z 0000000180093700 f i libucrtd:strnlen.obj
 0001:00092730       ?compute_byte_mask@?$__crt_simd_pack_traits@$00@@SAHT__m256i@@@Z 0000000180093730 f i libucrtd:strnlen.obj
 0001:00092750       ?compute_byte_mask@?$__crt_simd_pack_traits@$0A@@@SAHT__m128i@@@Z 0000000180093750 f i libucrtd:strnlen.obj
 0001:00092770       ?get_zero_pack@?$__crt_simd_pack_traits@$00@@SA?AT__m256i@@XZ 0000000180093770 f i libucrtd:strnlen.obj
 0001:000927a0       ?get_zero_pack@?$__crt_simd_pack_traits@$0A@@@SA?AT__m128i@@XZ 00000001800937a0 f i libucrtd:strnlen.obj
 0001:000927c0       strnlen                    00000001800937c0 f   libucrtd:strnlen.obj
 0001:000927f0       wcslen                     00000001800937f0 f   libucrtd:strnlen.obj
 0001:00092810       wcsnlen                    0000000180093810 f   libucrtd:strnlen.obj
 0001:00092840       ??$__crt_fast_decode_pointer@P6AXPEB_W00I_K@Z@@YAP6AXPEB_W00I_K@ZQ6AX000I1@Z@Z 0000000180093840 f i libucrtd:invalid_parameter.obj
 0001:00092880       ??$__crt_fast_encode_pointer@P6AXPEB_W00I_K@Z@@YAP6AXPEB_W00I_K@ZQ6AX000I1@Z@Z 0000000180093880 f i libucrtd:invalid_parameter.obj
 0001:000928c0       ??$initialize_from_array@$$BY00Q6AXPEB_W00I_K@Z@?$dual_state_global@P6AXPEB_W00I_K@Z@__crt_state_management@@QEAAXAEAY00Q6AXPEB_W00I_K@Z@Z 00000001800938c0 f i libucrtd:invalid_parameter.obj
 0001:00092920       ?__crt_rotate_pointer_value@@YA_K_KH@Z 0000000180093920 f i libucrtd:invalid_parameter.obj
 0001:000929e0       ?check_synchronize_global_state_index@__crt_cached_ptd_host@@AEAA_KXZ 00000001800939e0 f i libucrtd:invalid_parameter.obj
 0001:00092a40       ?dangerous_get_state_array@?$dual_state_global@P6AXPEB_W00I_K@Z@__crt_state_management@@QEAAPEAP6AXPEB_W00I_K@ZXZ 0000000180093a40 f i libucrtd:invalid_parameter.obj
 0001:00092a50       ?get_current_global_state_index@__crt_cached_ptd_host@@QEAA_KXZ 0000000180093a50 f i libucrtd:invalid_parameter.obj
 0001:00092a70       ?get_current_state_index@__crt_state_management@@YA_KXZ 0000000180093a70 f i libucrtd:invalid_parameter.obj
 0001:00092a80       ?get_raw_ptd_noexit@__crt_cached_ptd_host@@QEAAPEAU__acrt_ptd@@XZ 0000000180093a80 f i libucrtd:invalid_parameter.obj
 0001:00092aa0       ?try_synchronize_per_thread_data@__crt_cached_ptd_host@@AEAAPEAU__acrt_ptd@@XZ 0000000180093aa0 f i libucrtd:invalid_parameter.obj
 0001:00092ad0       ?value@?$dual_state_global@P6AXPEB_W00I_K@Z@__crt_state_management@@QEAAAEAP6AXPEB_W00I_K@ZAEAV__crt_cached_ptd_host@@@Z 0000000180093ad0 f i libucrtd:invalid_parameter.obj
 0001:00092b00       ?value@?$dual_state_global@P6AXPEB_W00I_K@Z@__crt_state_management@@QEAAAEAP6AXPEB_W00I_K@ZXZ 0000000180093b00 f i libucrtd:invalid_parameter.obj
 0001:00092b20       __acrt_call_reportfault    0000000180093b20 f   libucrtd:invalid_parameter.obj
 0001:00092c50       __acrt_initialize_invalid_parameter_handler 0000000180093c50 f   libucrtd:invalid_parameter.obj
 0001:00092c80       _get_invalid_parameter_handler 0000000180093c80 f   libucrtd:invalid_parameter.obj
 0001:00092ca0       _get_thread_local_invalid_parameter_handler 0000000180093ca0 f   libucrtd:invalid_parameter.obj
 0001:00092cd0       _invalid_parameter         0000000180093cd0 f   libucrtd:invalid_parameter.obj
 0001:00092d40       _invalid_parameter_internal 0000000180093d40 f   libucrtd:invalid_parameter.obj
 0001:00092e90       _invalid_parameter_noinfo  0000000180093e90 f   libucrtd:invalid_parameter.obj
 0001:00092ec0       _invalid_parameter_noinfo_noreturn 0000000180093ec0 f   libucrtd:invalid_parameter.obj
 0001:00092f00       _invoke_watson             0000000180093f00 f   libucrtd:invalid_parameter.obj
 0001:00092f60       _set_invalid_parameter_handler 0000000180093f60 f   libucrtd:invalid_parameter.obj
 0001:00092fb0       _set_thread_local_invalid_parameter_handler 0000000180093fb0 f   libucrtd:invalid_parameter.obj
 0001:00092ff0       ?get_doserrno@__crt_cached_ptd_host@@QEAAAEAU?$cached@K@1@XZ 0000000180093ff0 f i libucrtd:errno.obj
 0001:00093000       ?set@?$cached@K@__crt_cached_ptd_host@@QEAAKK@Z 0000000180094000 f i libucrtd:errno.obj
 0001:00093030       __acrt_errno_from_os_error 0000000180094030 f   libucrtd:errno.obj
 0001:000930c0       __acrt_errno_map_os_error  00000001800940c0 f   libucrtd:errno.obj
 0001:000930f0       __acrt_errno_map_os_error_ptd 00000001800940f0 f   libucrtd:errno.obj
 0001:00093150       __doserrno                 0000000180094150 f   libucrtd:errno.obj
 0001:00093180       _errno                     0000000180094180 f   libucrtd:errno.obj
 0001:000931b0       _get_doserrno              00000001800941b0 f   libucrtd:errno.obj
 0001:00093270       _get_errno                 0000000180094270 f   libucrtd:errno.obj
 0001:00093330       _set_doserrno              0000000180094330 f   libucrtd:errno.obj
 0001:00093370       _set_errno                 0000000180094370 f   libucrtd:errno.obj
 0001:000933b0       calloc                     00000001800943b0 f   libucrtd:calloc.obj
 0001:000933f0       _recalloc                  00000001800943f0 f   libucrtd:recalloc.obj
 0001:00093440       _recalloc_base             0000000180094440 f   libucrtd:recalloc.obj
 0001:00093520       _resetstkoflw              0000000180094520 f   libucrtd:resetstk.obj
 0001:00093d20       wcscat_s                   0000000180094d20 f   libucrtd:wcscat_s.obj
 0001:00094400       wcsncpy_s                  0000000180095400 f   libucrtd:wcsncpy_s.obj
 0001:00094580       __isascii                  0000000180095580 f   libucrtd:_ctype.obj
 0001:000945b0       __iscsym                   00000001800955b0 f   libucrtd:_ctype.obj
 0001:000945f0       __iscsymf                  00000001800955f0 f   libucrtd:_ctype.obj
 0001:00094630       __toascii                  0000000180095630 f   libucrtd:_ctype.obj
 0001:00094640       _isalnum_l                 0000000180095640 f   libucrtd:_ctype.obj
 0001:00094670       _isalpha_l                 0000000180095670 f   libucrtd:_ctype.obj
 0001:000946a0       _isblank_l                 00000001800956a0 f   libucrtd:_ctype.obj
 0001:000946d0       _iscntrl_l                 00000001800956d0 f   libucrtd:_ctype.obj
 0001:00094700       _iscsym_l                  0000000180095700 f   libucrtd:_ctype.obj
 0001:00094750       _iscsymf_l                 0000000180095750 f   libucrtd:_ctype.obj
 0001:000947a0       _isdigit_l                 00000001800957a0 f   libucrtd:_ctype.obj
 0001:000947d0       _isgraph_l                 00000001800957d0 f   libucrtd:_ctype.obj
 0001:00094800       _islower_l                 0000000180095800 f   libucrtd:_ctype.obj
 0001:00094830       _isprint_l                 0000000180095830 f   libucrtd:_ctype.obj
 0001:00094860       _ispunct_l                 0000000180095860 f   libucrtd:_ctype.obj
 0001:00094890       _isspace_l                 0000000180095890 f   libucrtd:_ctype.obj
 0001:000948c0       _isupper_l                 00000001800958c0 f   libucrtd:_ctype.obj
 0001:000948f0       _isxdigit_l                00000001800958f0 f   libucrtd:_ctype.obj
 0001:00094920       isalnum                    0000000180095920 f   libucrtd:_ctype.obj
 0001:00094940       isalpha                    0000000180095940 f   libucrtd:_ctype.obj
 0001:00094960       isblank                    0000000180095960 f   libucrtd:_ctype.obj
 0001:00094990       iscntrl                    0000000180095990 f   libucrtd:_ctype.obj
 0001:000949b0       isdigit                    00000001800959b0 f   libucrtd:_ctype.obj
 0001:000949d0       isgraph                    00000001800959d0 f   libucrtd:_ctype.obj
 0001:000949f0       islower                    00000001800959f0 f   libucrtd:_ctype.obj
 0001:00094a10       isprint                    0000000180095a10 f   libucrtd:_ctype.obj
 0001:00094a30       ispunct                    0000000180095a30 f   libucrtd:_ctype.obj
 0001:00094a50       isspace                    0000000180095a50 f   libucrtd:_ctype.obj
 0001:00094a70       isupper                    0000000180095a70 f   libucrtd:_ctype.obj
 0001:00094a90       isxdigit                   0000000180095a90 f   libucrtd:_ctype.obj
 0001:00094ab0       wcscat                     0000000180095ab0 f   libucrtd:wcscat.obj
 0001:00094b40       wcscpy                     0000000180095b40 f   libucrtd:wcscpy.obj
 0001:000952f0       ??$open_file@AEBQEBDAEBQEBDAEBHPEAU_iobuf@@@?$__crt_char_traits@D@@SAPEAU_iobuf@@AEBQEBD0AEBH$$QEAPEAU1@@Z 00000001800962f0 f i libucrtd:fopen.obj
 0001:00095340       ??$open_file@AEBQEB_WAEBQEB_WAEBHPEAU_iobuf@@@?$__crt_char_traits@_W@@SAPEAU_iobuf@@AEBQEB_W0AEBH$$QEAPEAU1@@Z 0000000180096340 f i libucrtd:fopen.obj
